CCS PCH C Compiler, Version 4.104, 5967               19-jul.-18 13:38

               Filename: H:\JP\JP\Laboratorio\Autoclave\Autoclaves Vertical\Sin Precamara\2018\Autoclave 55L-V3.1 Avantika  #004587808\Firmware V4.0\GLCD_Controller\GLCD_Controller.lst

               ROM used: 49848 bytes (51%)
                         Largest free fragment is 32768
               RAM used: 1877 (56%) at main() level
                         1936 (58%) worst case
               Stack:    8 worst case (6 in main + 2 for interrupts)

*
00000:  GOTO   4902
*
00008:  MOVWF  04
0000A:  MOVFF  FD8,05
0000E:  MOVFF  FE0,06
00012:  MOVLB  0
00014:  MOVFF  FE9,0C
00018:  MOVFF  FEA,07
0001C:  MOVFF  FE1,08
00020:  MOVFF  FE2,09
00024:  MOVFF  FD9,0A
00028:  MOVFF  FDA,0B
0002C:  MOVFF  FF3,12
00030:  MOVFF  FF4,13
00034:  MOVFF  FFA,14
00038:  MOVFF  FFB,15
0003C:  MOVFF  00,0E
00040:  MOVFF  01,0F
00044:  MOVFF  02,10
00048:  MOVFF  03,11
0004C:  BTFSS  FF2.5
0004E:  GOTO   0058
00052:  BTFSC  FF2.2
00054:  GOTO   1554
00058:  BTFSS  F9D.0
0005A:  GOTO   0064
0005E:  BTFSC  F9E.0
00060:  GOTO   15CA
00064:  MOVFF  0E,00
00068:  MOVFF  0F,01
0006C:  MOVFF  10,02
00070:  MOVFF  11,03
00074:  MOVFF  0C,FE9
00078:  MOVFF  07,FEA
0007C:  BSF    07.7
0007E:  MOVFF  08,FE1
00082:  MOVFF  09,FE2
00086:  MOVFF  0A,FD9
0008A:  MOVFF  0B,FDA
0008E:  MOVFF  12,FF3
00092:  MOVFF  13,FF4
00096:  MOVFF  14,FFA
0009A:  MOVFF  15,FFB
0009E:  MOVF   04,W
000A0:  MOVFF  06,FE0
000A4:  MOVFF  05,FD8
000A8:  RETFIE 0
.................... //Falta crear menu de ajuste de variables y de norma CFR21 
....................  
.................... #include <18F4685.h> 
.................... //////// Standard Header file for the PIC18F4685 device //////////////// 
.................... #device PIC18F4685 
.................... #list 
....................  
.................... #device adc=10 
.................... #fuses HS,NOWDT,NOPROTECT,NOLVP,NODEBUG,NOSTVREN,NOPUT,NOCPD,NOWRT,NOIESO,NOFCMEN,NOPBADEN,NOWRTC,NOWRTB,NOEBTR,NOEBTRB,NOCPB,NOXINST,NOLPT1OSC,NOMCLR 
.................... #use delay(clock=20000000) 
*
016B6:  MOVLW  07
016B8:  MOVWF  FEA
016BA:  MOVLW  57
016BC:  MOVWF  FE9
016BE:  MOVF   FEF,W
016C0:  BZ    16DC
016C2:  MOVLW  06
016C4:  MOVWF  01
016C6:  CLRF   00
016C8:  DECFSZ 00,F
016CA:  BRA    16C8
016CC:  DECFSZ 01,F
016CE:  BRA    16C6
016D0:  MOVLW  7B
016D2:  MOVWF  00
016D4:  DECFSZ 00,F
016D6:  BRA    16D4
016D8:  DECFSZ FEF,F
016DA:  BRA    16C2
016DC:  RETLW  00
.................... #use i2c(Master,slow,sda=PIN_C4,scl=PIN_C3) 
*
02B90:  MOVLW  08
02B92:  MOVWF  01
02B94:  MOVLW  05
02B96:  MOVWF  00
02B98:  DECFSZ 00,F
02B9A:  BRA    2B98
02B9C:  BCF    F8B.3
02B9E:  BCF    F94.3
02BA0:  MOVLW  06
02BA2:  MOVWF  00
02BA4:  DECFSZ 00,F
02BA6:  BRA    2BA4
02BA8:  MOVLB  7
02BAA:  RLCF   x55,F
02BAC:  BCF    F8B.4
02BAE:  BTFSC  FD8.0
02BB0:  BSF    F94.4
02BB2:  BTFSS  FD8.0
02BB4:  BCF    F94.4
02BB6:  BSF    F94.3
02BB8:  BTFSS  F82.3
02BBA:  BRA    2BB8
02BBC:  DECFSZ 01,F
02BBE:  BRA    2BC2
02BC0:  BRA    2BC6
02BC2:  MOVLB  0
02BC4:  BRA    2B94
02BC6:  MOVLW  05
02BC8:  MOVWF  00
02BCA:  DECFSZ 00,F
02BCC:  BRA    2BCA
02BCE:  BCF    F8B.3
02BD0:  BCF    F94.3
02BD2:  NOP   
02BD4:  BSF    F94.4
02BD6:  MOVLW  06
02BD8:  MOVWF  00
02BDA:  DECFSZ 00,F
02BDC:  BRA    2BDA
02BDE:  MOVLW  06
02BE0:  MOVWF  00
02BE2:  DECFSZ 00,F
02BE4:  BRA    2BE2
02BE6:  BSF    F94.3
02BE8:  BTFSS  F82.3
02BEA:  BRA    2BE8
02BEC:  CLRF   01
02BEE:  MOVLW  06
02BF0:  MOVWF  00
02BF2:  DECFSZ 00,F
02BF4:  BRA    2BF2
02BF6:  BTFSC  F82.4
02BF8:  BSF    01.0
02BFA:  BCF    F8B.3
02BFC:  BCF    F94.3
02BFE:  BCF    F8B.4
02C00:  BCF    F94.4
02C02:  MOVLB  0
02C04:  RETLW  00
*
02CA0:  MOVLW  08
02CA2:  MOVLB  7
02CA4:  MOVWF  x55
02CA6:  MOVFF  00,756
02CAA:  BSF    F94.4
02CAC:  MOVLW  06
02CAE:  MOVWF  00
02CB0:  DECFSZ 00,F
02CB2:  BRA    2CB0
02CB4:  BSF    F94.3
02CB6:  BTFSS  F82.3
02CB8:  BRA    2CB6
02CBA:  BTFSC  F82.4
02CBC:  BSF    FD8.0
02CBE:  BTFSS  F82.4
02CC0:  BCF    FD8.0
02CC2:  RLCF   01,F
02CC4:  MOVLW  05
02CC6:  MOVWF  00
02CC8:  DECFSZ 00,F
02CCA:  BRA    2CC8
02CCC:  BCF    F94.3
02CCE:  BCF    F8B.3
02CD0:  DECFSZ x55,F
02CD2:  BRA    2CAA
02CD4:  BSF    F94.4
02CD6:  MOVLW  06
02CD8:  MOVWF  00
02CDA:  DECFSZ 00,F
02CDC:  BRA    2CDA
02CDE:  BCF    F8B.4
02CE0:  MOVF   x56,W
02CE2:  BTFSS  FD8.2
02CE4:  BCF    F94.4
02CE6:  NOP   
02CE8:  BSF    F94.3
02CEA:  BTFSS  F82.3
02CEC:  BRA    2CEA
02CEE:  MOVLW  05
02CF0:  MOVWF  00
02CF2:  DECFSZ 00,F
02CF4:  BRA    2CF2
02CF6:  BCF    F8B.3
02CF8:  BCF    F94.3
02CFA:  MOVLW  06
02CFC:  MOVWF  00
02CFE:  DECFSZ 00,F
02D00:  BRA    2CFE
02D02:  BCF    F8B.4
02D04:  BCF    F94.4
02D06:  MOVLB  0
02D08:  GOTO   3246 (RETURN)
.................... #include "HDM64GS12.c" 
.................... ///////////////////////////////////////////////////////////////////////// 
.................... ////                           HDM64GS12.c                           //// 
.................... ////                                                                 //// 
.................... //// This file contains drivers for using a Hantronix HDM64GS12 with //// 
.................... //// a KS0108 display controller. The HDM64GS12 is 128 by 64 pixels. //// 
.................... //// The driver treats the upper left pixel as (0,0).                //// 
.................... ////                                                                 //// 
.................... //// Use #define FAST_GLCD if the target chip has at least 1k of RAM //// 
.................... //// to decrease the time it takes to update the display.            //// 
.................... //// glcd_update() must then be called to update the display after   //// 
.................... //// changing the pixel information.                                 //// 
.................... //// See ex_glcd.c for suggested usage.                              //// 
.................... //// See KS0108.c for controlling a single 64 by 64 display          //// 
.................... ///////////////////////////////////////////////////////////////////////// 
.................... ////                                                                 //// 
.................... //// LCD Pin connections:                                            //// 
.................... //// (These can be changed as needed in the following defines).      //// 
.................... ////  * 1: VSS is connected to GND                                   //// 
.................... ////  * 2: VDD is connected to +5V                                   //// 
.................... ////  * 3: V0  - LCD operating voltage (Constrast adjustment)        //// 
.................... ////  * 4: D/I - Data or Instruction is connected to B2              //// 
.................... ////  * 5: R/W - Read or Write is connected to B4                    //// 
.................... ////  * 6: Enable is connected to B5                                 //// 
.................... ////  *7-14: Data Bus 0 to 7 is connected to port d                  //// 
.................... ////  *15: Chip Select 1 is connected to B0                          //// 
.................... ////  *16: Chip Select 2 is connected to B1                          //// 
.................... ////  *17: Reset is connected to C0                                  //// 
.................... ////  *18: Negative voltage is also connected to the 20k Ohm POT     //// 
.................... ////  *19: Positive voltage for LED backlight is connected to +5V    //// 
.................... ////  *20: Negavtive voltage for LED backlight is connected to GND   //// 
.................... ////                                                                 //// 
.................... ///////////////////////////////////////////////////////////////////////// 
.................... ////                                                                 //// 
.................... ////  glcd_init(mode)                                                //// 
.................... ////     * Must be called before any other function.                 //// 
.................... ////       - mode can be ON or OFF to turn the LCD on or off         //// 
.................... ////                                                                 //// 
.................... ////  glcd_pixel(x,y,color)                                          //// 
.................... ////     * Sets the pixel to the given color.                        //// 
.................... ////       - color can be ON or OFF                                  //// 
.................... ////                                                                 //// 
.................... ////  glcd_fillScreen(color)                                         //// 
.................... ////     * Fills the entire LCD with the given color.                //// 
.................... ////       - color can be ON or OFF                                  //// 
.................... ////                                                                 //// 
.................... ////  glcd_update()                                                  //// 
.................... ////     * Write the display data stored in RAM to the LCD           //// 
.................... ////     * Only available if FAST_GLCD is defined                    //// 
.................... ////                                                                 //// 
.................... ///////////////////////////////////////////////////////////////////////// 
.................... ////        (C) Copyright 1996, 2004 Custom Computer Services        //// 
.................... //// This source code may only be used by licensed users of the CCS  //// 
.................... //// C compiler.  This source code may only be distributed to other  //// 
.................... //// licensed users of the CCS C compiler.  No other use,            //// 
.................... //// reproduction or distribution is permitted without written       //// 
.................... //// permission.  Derivative programs created using this software    //// 
.................... //// in object code form are not restricted in any way.              //// 
.................... ///////////////////////////////////////////////////////////////////////// 
....................  
....................  
....................  
.................... #ifndef HDM64GS12 
.................... #define HDM64GS12 
....................  
.................... #ifndef FAST_GLCD 
.................... #define FAST_GLCD 
....................  
.................... #ifndef GLCD_WIDTH 
.................... #define GLCD_WIDTH   128 
.................... #endif 
....................  
.................... #ifndef GLCD_CS1 
.................... #define GLCD_CS1     PIN_B0   // Chip Selection 1 
.................... #endif 
....................  
.................... #ifndef GLCD_CS2 
.................... #define GLCD_CS2     PIN_B1   // Chip Selection 2 
.................... #endif 
....................  
.................... #ifndef GLCD_DI 
.................... #define GLCD_DI      PIN_B5   // Data or Instruction input 
.................... #endif 
....................  
.................... #ifndef GLCD_RW 
.................... #define GLCD_RW      PIN_B4   // Read/Write 
.................... #endif 
....................  
.................... #ifndef GLCD_E 
.................... #define GLCD_E       PIN_B3   // Enable 
.................... #endif 
....................  
.................... #ifndef GLCD_RST 
.................... #define GLCD_RST     PIN_B2   // Reset 
.................... #endif 
....................  
.................... #define GLCD_LEFT    0 
.................... #define GLCD_RIGHT   1 
....................  
.................... #ifndef ON 
.................... #define ON           1 
.................... #endif 
....................  
.................... #ifndef OFF 
.................... #define OFF          0 
.................... #endif 
....................  
.................... ///////////////////////////////////////////////////////////////////////// 
.................... // Function Prototypes 
.................... ///////////////////////////////////////////////////////////////////////// 
.................... void glcd_init(int1 mode); 
.................... void glcd_pixel(int8 x, int8 y, int1 color); 
.................... void glcd_fillScreen(int1 color); 
.................... void glcd_writeByte(int1 side, BYTE data); 
.................... BYTE glcd_readByte(int1 side); 
.................... void glcd_update(); 
.................... ///////////////////////////////////////////////////////////////////////// 
....................  
.................... #ifdef FAST_GLCD 
.................... struct 
.................... { 
....................    int8 left[512]; 
....................    int8 right[512]; 
.................... } displayData; 
.................... #endif 
....................  
....................  
.................... // Purpose:       Initialize the LCD. 
.................... //                Call before using any other LCD function. 
.................... // Inputs:        OFF - Turns the LCD off 
.................... //                ON  - Turns the LCD on 
.................... void glcd_init(int1 mode) 
.................... { 
....................    // Initialze some pins 
....................    output_high(GLCD_RST); 
*
01CAC:  BCF    F93.2
01CAE:  BSF    F8A.2
....................    output_low(GLCD_E); 
01CB0:  BCF    F93.3
01CB2:  BCF    F8A.3
....................    output_low(GLCD_CS1); 
01CB4:  BCF    F93.0
01CB6:  BCF    F8A.0
....................    output_low(GLCD_CS2); 
01CB8:  BCF    F93.1
01CBA:  BCF    F8A.1
....................  
....................    output_low(GLCD_DI);                 // Set for instruction 
01CBC:  BCF    F93.5
01CBE:  BCF    F8A.5
....................    glcd_writeByte(GLCD_LEFT,  0xC0);    // Specify first RAM line at the top 
01CC0:  MOVLB  7
01CC2:  CLRF   x69
01CC4:  MOVLW  C0
01CC6:  MOVWF  x6A
01CC8:  MOVLB  0
01CCA:  RCALL  1B64
....................    glcd_writeByte(GLCD_RIGHT, 0xC0);    //   of the screen 
01CCC:  MOVLW  01
01CCE:  MOVLB  7
01CD0:  MOVWF  x69
01CD2:  MOVLW  C0
01CD4:  MOVWF  x6A
01CD6:  MOVLB  0
01CD8:  RCALL  1B64
....................    glcd_writeByte(GLCD_LEFT,  0x40);    // Set the column address to 0 
01CDA:  MOVLB  7
01CDC:  CLRF   x69
01CDE:  MOVLW  40
01CE0:  MOVWF  x6A
01CE2:  MOVLB  0
01CE4:  RCALL  1B64
....................    glcd_writeByte(GLCD_RIGHT, 0x40); 
01CE6:  MOVLW  01
01CE8:  MOVLB  7
01CEA:  MOVWF  x69
01CEC:  MOVLW  40
01CEE:  MOVWF  x6A
01CF0:  MOVLB  0
01CF2:  RCALL  1B64
....................    glcd_writeByte(GLCD_LEFT,  0xB8);    // Set the page address to 0 
01CF4:  MOVLB  7
01CF6:  CLRF   x69
01CF8:  MOVLW  B8
01CFA:  MOVWF  x6A
01CFC:  MOVLB  0
01CFE:  RCALL  1B64
....................    glcd_writeByte(GLCD_RIGHT, 0xB8); 
01D00:  MOVLW  01
01D02:  MOVLB  7
01D04:  MOVWF  x69
01D06:  MOVLW  B8
01D08:  MOVWF  x6A
01D0A:  MOVLB  0
01D0C:  RCALL  1B64
....................  
....................    if(mode == ON) 
01D0E:  MOVLB  7
01D10:  DECFSZ x51,W
01D12:  BRA    1D30
....................    { 
....................       glcd_writeByte(GLCD_LEFT,  0x3F); // Turn the display on 
01D14:  CLRF   x69
01D16:  MOVLW  3F
01D18:  MOVWF  x6A
01D1A:  MOVLB  0
01D1C:  RCALL  1B64
....................       glcd_writeByte(GLCD_RIGHT, 0x3F); 
01D1E:  MOVLW  01
01D20:  MOVLB  7
01D22:  MOVWF  x69
01D24:  MOVLW  3F
01D26:  MOVWF  x6A
01D28:  MOVLB  0
01D2A:  RCALL  1B64
....................    } 
....................    else 
01D2C:  BRA    1D48
01D2E:  MOVLB  7
....................    { 
....................       glcd_writeByte(GLCD_LEFT,  0x3E); // Turn the display off 
01D30:  CLRF   x69
01D32:  MOVLW  3E
01D34:  MOVWF  x6A
01D36:  MOVLB  0
01D38:  RCALL  1B64
....................       glcd_writeByte(GLCD_RIGHT, 0x3E); 
01D3A:  MOVLW  01
01D3C:  MOVLB  7
01D3E:  MOVWF  x69
01D40:  MOVLW  3E
01D42:  MOVWF  x6A
01D44:  MOVLB  0
01D46:  RCALL  1B64
....................    } 
....................  
....................    glcd_fillScreen(OFF);                // Clear the display 
01D48:  MOVLB  7
01D4A:  CLRF   x52
01D4C:  MOVLB  0
01D4E:  RCALL  1B9A
....................  
....................    #ifdef FAST_GLCD 
....................    glcd_update(); 
01D50:  RCALL  1BF4
....................    #endif 
.................... } 
01D52:  RETLW  00
....................  
....................  
.................... // Purpose:    Update the LCD with data from the display arrays 
.................... #ifdef FAST_GLCD 
.................... void glcd_update() 
.................... { 
....................    int8 i, j; 
....................    int8 *p1, *p2; 
....................  
....................    p1 = displayData.left; 
*
01BF4:  MOVLB  7
01BF6:  CLRF   x65
01BF8:  MOVLW  18
01BFA:  MOVWF  x64
....................    p2 = displayData.right; 
01BFC:  MOVLW  02
01BFE:  MOVWF  x67
01C00:  MOVLW  18
01C02:  MOVWF  x66
....................  
....................    // Loop through the vertical pages 
....................    for(i = 0; i < 8; ++i) 
01C04:  CLRF   x62
01C06:  MOVF   x62,W
01C08:  SUBLW  07
01C0A:  BNC   1CA8
....................    { 
....................       output_low(GLCD_DI);                      // Set for instruction 
01C0C:  BCF    F93.5
01C0E:  BCF    F8A.5
....................       glcd_writeByte(GLCD_LEFT, 0x40);          // Set horizontal address to 0 
01C10:  CLRF   x69
01C12:  MOVLW  40
01C14:  MOVWF  x6A
01C16:  MOVLB  0
01C18:  RCALL  1B64
....................       glcd_writeByte(GLCD_RIGHT, 0x40); 
01C1A:  MOVLW  01
01C1C:  MOVLB  7
01C1E:  MOVWF  x69
01C20:  MOVLW  40
01C22:  MOVWF  x6A
01C24:  MOVLB  0
01C26:  RCALL  1B64
....................       glcd_writeByte(GLCD_LEFT, i | 0xB8);      // Set page address 
01C28:  MOVLB  7
01C2A:  MOVF   x62,W
01C2C:  IORLW  B8
01C2E:  MOVWF  x68
01C30:  CLRF   x69
01C32:  MOVWF  x6A
01C34:  MOVLB  0
01C36:  RCALL  1B64
....................       glcd_writeByte(GLCD_RIGHT, i | 0xB8); 
01C38:  MOVLB  7
01C3A:  MOVF   x62,W
01C3C:  IORLW  B8
01C3E:  MOVWF  x68
01C40:  MOVLW  01
01C42:  MOVWF  x69
01C44:  MOVFF  768,76A
01C48:  MOVLB  0
01C4A:  RCALL  1B64
....................       output_high(GLCD_DI);                     // Set for data 
01C4C:  BCF    F93.5
01C4E:  BSF    F8A.5
....................  
....................       // Loop through the horizontal sections 
....................       for(j = 0; j < 64; ++j) 
01C50:  MOVLB  7
01C52:  CLRF   x63
01C54:  MOVF   x63,W
01C56:  SUBLW  3F
01C58:  BNC   1CA4
....................       { 
....................          glcd_writeByte(GLCD_LEFT, *p1++);      // Turn pixels on or off 
01C5A:  MOVFF  765,03
01C5E:  MOVF   x64,W
01C60:  INCF   x64,F
01C62:  BTFSC  FD8.2
01C64:  INCF   x65,F
01C66:  MOVWF  FE9
01C68:  MOVFF  03,FEA
01C6C:  MOVFF  FEF,768
01C70:  CLRF   x69
01C72:  MOVFF  768,76A
01C76:  MOVLB  0
01C78:  RCALL  1B64
....................          glcd_writeByte(GLCD_RIGHT, *p2++);     // Turn pixels on or off 
01C7A:  MOVLB  7
01C7C:  MOVFF  767,03
01C80:  MOVF   x66,W
01C82:  INCF   x66,F
01C84:  BTFSC  FD8.2
01C86:  INCF   x67,F
01C88:  MOVWF  FE9
01C8A:  MOVFF  03,FEA
01C8E:  MOVFF  FEF,768
01C92:  MOVLW  01
01C94:  MOVWF  x69
01C96:  MOVFF  768,76A
01C9A:  MOVLB  0
01C9C:  RCALL  1B64
....................       } 
01C9E:  MOVLB  7
01CA0:  INCF   x63,F
01CA2:  BRA    1C54
....................    } 
01CA4:  INCF   x62,F
01CA6:  BRA    1C06
.................... } 
01CA8:  MOVLB  0
01CAA:  RETLW  00
.................... #endif 
....................  
....................  
.................... // Purpose:    Turn a pixel on a graphic LCD on or off 
.................... // Inputs:     1) x - the x coordinate of the pixel 
.................... //             2) y - the y coordinate of the pixel 
.................... //             3) color - ON or OFF 
.................... void glcd_pixel(int8 x, int8 y, int1 color) 
.................... #ifdef FAST_GLCD 
.................... { 
....................    int8* p; 
....................    int16 temp; 
....................    temp =  y/8; 
*
01D54:  MOVLB  7
01D56:  CLRF   x88
01D58:  RRCF   x83,W
01D5A:  MOVWF  x87
01D5C:  RRCF   x87,F
01D5E:  RRCF   x87,F
01D60:  MOVLW  1F
01D62:  ANDWF  x87,F
....................    temp *= 64; 
01D64:  RLCF   x87,F
01D66:  RLCF   x88,F
01D68:  RLCF   x87,F
01D6A:  RLCF   x88,F
01D6C:  RLCF   x87,F
01D6E:  RLCF   x88,F
01D70:  RLCF   x87,F
01D72:  RLCF   x88,F
01D74:  RLCF   x87,F
01D76:  RLCF   x88,F
01D78:  RLCF   x87,F
01D7A:  RLCF   x88,F
01D7C:  MOVLW  C0
01D7E:  ANDWF  x87,F
....................    temp += x; 
01D80:  MOVF   x82,W
01D82:  ADDWF  x87,F
01D84:  MOVLW  00
01D86:  ADDWFC x88,F
....................  
....................    if(x > 63) 
01D88:  MOVF   x82,W
01D8A:  SUBLW  3F
01D8C:  BC    1DA8
....................    { 
....................       p = displayData.right + temp - 64; 
01D8E:  MOVLW  18
01D90:  ADDWF  x87,W
01D92:  MOVWF  x89
01D94:  MOVLW  02
01D96:  ADDWFC x88,W
01D98:  MOVWF  x8A
01D9A:  MOVLW  40
01D9C:  SUBWF  x89,W
01D9E:  MOVWF  x85
01DA0:  MOVLW  00
01DA2:  SUBWFB x8A,W
01DA4:  MOVWF  x86
....................    } 
....................    else 
01DA6:  BRA    1DB4
....................    { 
....................       p = displayData.left + temp; 
01DA8:  MOVLW  18
01DAA:  ADDWF  x87,W
01DAC:  MOVWF  x85
01DAE:  MOVLW  00
01DB0:  ADDWFC x88,W
01DB2:  MOVWF  x86
....................    } 
....................  
....................    if(color) 
01DB4:  MOVF   x84,F
01DB6:  BZ    1DE2
....................    { 
....................       bit_set(*p, y%8); 
01DB8:  MOVFF  786,03
01DBC:  MOVFF  785,FE9
01DC0:  MOVFF  786,FEA
01DC4:  MOVF   x83,W
01DC6:  ANDLW  07
01DC8:  MOVWF  x89
01DCA:  MOVLW  01
01DCC:  MOVWF  00
01DCE:  MOVF   x89,W
01DD0:  MOVWF  01
01DD2:  BZ    1DDC
01DD4:  BCF    FD8.0
01DD6:  RLCF   00,F
01DD8:  DECFSZ 01,F
01DDA:  BRA    1DD4
01DDC:  MOVF   00,W
01DDE:  IORWF  FEF,F
....................    } 
....................    else 
01DE0:  BRA    1E0C
....................    { 
....................       bit_clear(*p, y%8); 
01DE2:  MOVFF  786,03
01DE6:  MOVFF  785,FE9
01DEA:  MOVFF  786,FEA
01DEE:  MOVF   x83,W
01DF0:  ANDLW  07
01DF2:  MOVWF  x89
01DF4:  MOVLW  01
01DF6:  MOVWF  00
01DF8:  MOVF   x89,W
01DFA:  MOVWF  01
01DFC:  BZ    1E06
01DFE:  BCF    FD8.0
01E00:  RLCF   00,F
01E02:  DECFSZ 01,F
01E04:  BRA    1DFE
01E06:  MOVF   00,W
01E08:  XORLW  FF
01E0A:  ANDWF  FEF,F
....................    } 
.................... } 
01E0C:  MOVLB  0
01E0E:  RETLW  00
.................... #else 
.................... { 
....................    BYTE data; 
....................    int1 side = GLCD_LEFT;  // Stores which chip to use on the LCD 
....................  
....................    if(x > 63)              // Check for first or second display area 
....................    { 
....................       x -= 64; 
....................       side = GLCD_RIGHT; 
....................    } 
....................  
....................    output_low(GLCD_DI);                         // Set for instruction 
....................    bit_clear(x,7);                              // Clear the MSB. Part of an instruction code 
....................    bit_set(x,6);                                // Set bit 6. Also part of an instruction code 
....................    glcd_writeByte(side, x);                     // Set the horizontal address 
....................    glcd_writeByte(side, (y/8 & 0xBF) | 0xB8);   // Set the vertical page address 
....................    output_high(GLCD_DI);                        // Set for data 
....................    glcd_readByte(side);                         // Need two reads to get data 
....................    data = glcd_readByte(side);                  //  at new address 
....................  
....................    if(color == ON) 
....................       bit_set(data, y%8);        // Turn the pixel on 
....................    else                          // or 
....................       bit_clear(data, y%8);      // turn the pixel off 
....................  
....................    output_low(GLCD_DI);          // Set for instruction 
....................    glcd_writeByte(side, x);      // Set the horizontal address 
....................    output_high(GLCD_DI);         // Set for data 
....................    glcd_writeByte(side, data);   // Write the pixel data 
.................... } 
.................... #endif 
....................  
....................  
.................... // Purpose:    Fill the LCD screen with the passed in color 
.................... // Inputs:     ON  - turn all the pixels on 
.................... //             OFF - turn all the pixels off 
.................... void glcd_fillScreen(int1 color) 
.................... #ifdef FAST_GLCD 
.................... { 
....................    int8  data; 
....................    int8  *p1, *p2; 
....................    int16 i; 
....................  
....................    p1 = displayData.left; 
*
01B9A:  MOVLB  7
01B9C:  CLRF   x55
01B9E:  MOVLW  18
01BA0:  MOVWF  x54
....................    p2 = displayData.right; 
01BA2:  MOVLW  02
01BA4:  MOVWF  x57
01BA6:  MOVLW  18
01BA8:  MOVWF  x56
....................    data = 0xFF * color; 
01BAA:  MOVF   x52,W
01BAC:  MULLW  FF
01BAE:  MOVFF  FF3,753
....................  
....................    for(i=0; i<512; ++i) 
01BB2:  CLRF   x59
01BB4:  CLRF   x58
01BB6:  MOVF   x59,W
01BB8:  SUBLW  01
01BBA:  BNC   1BF0
....................    { 
....................       *p1++ = data; 
01BBC:  MOVFF  755,03
01BC0:  MOVF   x54,W
01BC2:  INCF   x54,F
01BC4:  BTFSC  FD8.2
01BC6:  INCF   x55,F
01BC8:  MOVWF  FE9
01BCA:  MOVFF  03,FEA
01BCE:  MOVFF  753,FEF
....................       *p2++ = data; 
01BD2:  MOVFF  757,03
01BD6:  MOVF   x56,W
01BD8:  INCF   x56,F
01BDA:  BTFSC  FD8.2
01BDC:  INCF   x57,F
01BDE:  MOVWF  FE9
01BE0:  MOVFF  03,FEA
01BE4:  MOVFF  753,FEF
....................    } 
01BE8:  INCF   x58,F
01BEA:  BTFSC  FD8.2
01BEC:  INCF   x59,F
01BEE:  BRA    1BB6
.................... } 
01BF0:  MOVLB  0
01BF2:  RETLW  00
.................... #else 
.................... { 
....................    int8 i, j; 
....................  
....................    // Loop through the vertical pages 
....................    for(i = 0; i < 8; ++i) 
....................    { 
....................       output_low(GLCD_DI);                      // Set for instruction 
....................       glcd_writeByte(GLCD_LEFT, 0b01000000);    // Set horizontal address to 0 
....................       glcd_writeByte(GLCD_RIGHT, 0b01000000); 
....................       glcd_writeByte(GLCD_LEFT, i | 0b10111000);// Set page address 
....................       glcd_writeByte(GLCD_RIGHT, i | 0b10111000); 
....................       output_high(GLCD_DI);                     // Set for data 
....................  
....................       // Loop through the horizontal sections 
....................       for(j = 0; j < 64; ++j) 
....................       { 
....................          glcd_writeByte(GLCD_LEFT, 0xFF*color);  // Turn pixels on or off 
....................          glcd_writeByte(GLCD_RIGHT, 0xFF*color); // Turn pixels on or off 
....................       } 
....................    } 
.................... } 
.................... #endif 
....................  
....................  
.................... // Purpose:    Write a byte of data to the specified chip 
.................... // Inputs:     1) chipSelect - which chip to write the data to 
.................... //             2) data - the byte of data to write 
.................... void glcd_writeByte(int1 side, BYTE data) 
.................... { 
....................    if(side)                   // Choose which side to write to 
*
01B64:  MOVLB  7
01B66:  MOVF   x69,F
01B68:  BZ    1B70
....................       output_high(GLCD_CS2); 
01B6A:  BCF    F93.1
01B6C:  BSF    F8A.1
....................    else 
01B6E:  BRA    1B74
....................       output_high(GLCD_CS1); 
01B70:  BCF    F93.0
01B72:  BSF    F8A.0
....................  
....................    output_low(GLCD_RW);       // Set for writing 
01B74:  BCF    F93.4
01B76:  BCF    F8A.4
....................    output_d(data);            // Put the data on the port 
01B78:  CLRF   F95
01B7A:  MOVFF  76A,F8C
....................    delay_cycles(1); 
01B7E:  NOP   
....................    output_high(GLCD_E);       // Pulse the enable pin 
01B80:  BCF    F93.3
01B82:  BSF    F8A.3
....................    delay_cycles(5); 
01B84:  BRA    1B86
01B86:  BRA    1B88
01B88:  NOP   
....................    output_low(GLCD_E); 
01B8A:  BCF    F93.3
01B8C:  BCF    F8A.3
....................  
....................    output_low(GLCD_CS1);      // Reset the chip select lines 
01B8E:  BCF    F93.0
01B90:  BCF    F8A.0
....................    output_low(GLCD_CS2); 
01B92:  BCF    F93.1
01B94:  BCF    F8A.1
.................... } 
01B96:  MOVLB  0
01B98:  RETLW  00
....................  
....................  
.................... // Purpose:    Reads a byte of data from the specified chip 
.................... // Ouputs:     A byte of data read from the chip 
.................... BYTE glcd_readByte(int1 side) 
.................... { 
....................    BYTE data;                 // Stores the data read from the LCD 
....................  
....................    set_tris_d(0xFF);          // Set port d to input 
....................    output_high(GLCD_RW);      // Set for reading 
....................  
....................    if(side)                   // Choose which side to write to 
....................       output_high(GLCD_CS2); 
....................    else 
....................       output_high(GLCD_CS1); 
....................  
....................    delay_cycles(1); 
....................    output_high(GLCD_E);       // Pulse the enable pin 
....................    delay_cycles(4); 
....................    data = input_d();          // Get the data from the display's output register 
....................    output_low(GLCD_E); 
....................  
....................    output_low(GLCD_CS1);      // Reset the chip select lines 
....................    output_low(GLCD_CS2); 
....................    return data;               // Return the read data 
.................... } 
....................  
.................... #endif 
....................  
.................... #include "GRAPHICS.c" 
.................... ///////////////////////////////////////////////////////////////////////// 
.................... ////                          graphics.c                             //// 
.................... ////                                                                 //// 
.................... ////   This file contains functions to draw lines, rectangles, bars, //// 
.................... ////   circles and text to a display. A function which draws a       //// 
.................... ////   single pixel must be defined before calling the functions in  //// 
.................... ////   this file. Call it glcd_pixel(x, y, color) where x is the     //// 
.................... ////   horizontal coordinate, y is the vertical coordinate, and      //// 
.................... ////   color is 1 bit to turn the pixel on or off.                   //// 
.................... ////                                                                 //// 
.................... ////   * Note: (0, 0) is treated as the upper left corner            //// 
.................... ////                                                                 //// 
.................... ///////////////////////////////////////////////////////////////////////// 
.................... ////                                                                 //// 
.................... ////  glcd_line(x1, y1, x2, y2, color)                               //// 
.................... ////     * Draws a line from the first point to the second point     //// 
.................... ////       with the given color                                      //// 
.................... ////       - color can be ON or OFF                                  //// 
.................... ////                                                                 //// 
.................... ////  glcd_rect(x1, y1, x2, y2, fill, color)                         //// 
.................... ////     * Draws a rectangle with one corner at point (x1,y1) and    //// 
.................... ////       the other corner at point (x2,y2)                         //// 
.................... ////       - fill can be YES or NO                                   //// 
.................... ////       - color can be ON or OFF                                  //// 
.................... ////                                                                 //// 
.................... ////  glcd_bar(x1, y1, x2, y2, width, color)                         //// 
.................... ////     * Draws a bar (wide line) from the first point to the       //// 
.................... ////       second point                                              //// 
.................... ////       - width is the number of pixels wide                      //// 
.................... ////       - color is ON or OFF                                      //// 
.................... ////                                                                 //// 
.................... ////  glcd_circle(x, y, radius, fill, color)                         //// 
.................... ////     * Draws a circle with center at (x,y)                       //// 
.................... ////       - fill can be YES or NO                                   //// 
.................... ////       - color can be ON or OFF                                  //// 
.................... ////                                                                 //// 
.................... ////  glcd_text57(x, y, textptr, size, color)                        //// 
.................... ////     * Write the null terminated text pointed to by textptr with //// 
.................... ////       the upper left coordinate of the first character at (x,y) //// 
.................... ////       Characters are 5 pixels wide and 7 pixels tall            //// 
.................... ////       - size is an integer that scales the size of the text     //// 
.................... ////       - color is ON or OFF                                      //// 
.................... ////     * Note - This function wraps characters to the next line    //// 
.................... ////              use #define GLCD_WIDTH to specify a display width  //// 
.................... ////                                                                 //// 
.................... ///////////////////////////////////////////////////////////////////////// 
.................... ////        (C) Copyright 1996, 2004 Custom Computer Services        //// 
.................... //// This source code may only be used by licensed users of the CCS  //// 
.................... //// C compiler.  This source code may only be distributed to other  //// 
.................... //// licensed users of the CCS C compiler.  No other use,            //// 
.................... //// reproduction or distribution is permitted without written       //// 
.................... //// permission.  Derivative programs created using this software    //// 
.................... //// in object code form are not restricted in any way.              //// 
.................... ///////////////////////////////////////////////////////////////////////// 
....................  
....................  
.................... ///////////////////////////////////////////////////////////////////////// 
.................... #ifndef GRAPHICS_DRAWING_FUNCTIONS 
.................... #define GRAPHICS_DRAWING_FUNCTIONS 
.................... ///////////////////////////////////////////////////////////////////////// 
....................  
....................  
.................... ///////////////////////////////////////////////////////////////////////// 
.................... #ifndef ON 
.................... #define ON  1 
.................... #endif 
....................  
.................... #ifndef OFF 
.................... #define OFF 0 
.................... #endif 
....................  
.................... #ifndef YES 
.................... #define YES 1 
.................... #endif 
....................  
.................... #ifndef NO 
.................... #define NO  0 
.................... #endif 
.................... ///////////////////////////////////////////////////////////////////////// 
....................  
....................  
.................... ///////////////////////////////////////////////////////////////////////// 
.................... //// Defines a 5x7 font 
.................... ///////////////////////////////////////////////////////////////////////// 
.................... const int8 FONT[51][5] ={0x00, 0x00, 0x00, 0x00, 0x00, // SPACE 
....................                          0x00, 0x00, 0x5F, 0x00, 0x00, // ! 
....................                          0x00, 0x03, 0x00, 0x03, 0x00, // " 
....................                          0x14, 0x3E, 0x14, 0x3E, 0x14, // # 
....................                          0x24, 0x2A, 0x7F, 0x2A, 0x12, // $ 
....................                          0x43, 0x33, 0x08, 0x66, 0x61, // % 
....................                          0x36, 0x49, 0x55, 0x22, 0x50, // & 
....................                          0x00, 0x05, 0x03, 0x00, 0x00, // ' 
....................                          0x00, 0x1C, 0x22, 0x41, 0x00, // ( 
....................                          0x00, 0x41, 0x22, 0x1C, 0x00, // ) 
....................                          0x14, 0x08, 0x3E, 0x08, 0x14, // * 
....................                          0x08, 0x08, 0x3E, 0x08, 0x08, // + 
....................                          0x00, 0x50, 0x30, 0x00, 0x00, // , 
....................                          0x08, 0x08, 0x08, 0x08, 0x08, // - 
....................                          0x00, 0x60, 0x60, 0x00, 0x00, // . 
....................                          0x20, 0x10, 0x08, 0x04, 0x02, // / 
....................                          0x3E, 0x51, 0x49, 0x45, 0x3E, // 0 
....................                          0x00, 0x04, 0x02, 0x7F, 0x00, // 1 
....................                          0x42, 0x61, 0x51, 0x49, 0x46, // 2 
....................                          0x22, 0x41, 0x49, 0x49, 0x36, // 3 
....................                          0x18, 0x14, 0x12, 0x7F, 0x10, // 4 
....................                          0x27, 0x45, 0x45, 0x45, 0x39, // 5 
....................                          0x3E, 0x49, 0x49, 0x49, 0x32, // 6 
....................                          0x01, 0x01, 0x71, 0x09, 0x07, // 7 
....................                          0x36, 0x49, 0x49, 0x49, 0x36, // 8 
....................                          0x26, 0x49, 0x49, 0x49, 0x3E, // 9 
....................                          0x00, 0x36, 0x36, 0x00, 0x00, // : 
....................                          0x00, 0x56, 0x36, 0x00, 0x00, // ; 
....................                          0x08, 0x14, 0x22, 0x41, 0x00, // < 
....................                          0x14, 0x14, 0x14, 0x14, 0x14, // = 
....................                          0x00, 0x41, 0x22, 0x14, 0x08, // > 
....................                          0x02, 0x01, 0x51, 0x09, 0x06, // ? 
....................                          0x3E, 0x41, 0x59, 0x55, 0x5E, // @ 
....................                          0x7E, 0x09, 0x09, 0x09, 0x7E, // A 
....................                          0x7F, 0x49, 0x49, 0x49, 0x36, // B 
....................                          0x3E, 0x41, 0x41, 0x41, 0x22, // C 
....................                          0x7F, 0x41, 0x41, 0x41, 0x3E, // D 
....................                          0x7F, 0x49, 0x49, 0x49, 0x41, // E 
....................                          0x7F, 0x09, 0x09, 0x09, 0x01, // F 
....................                          0x3E, 0x41, 0x41, 0x49, 0x3A, // G 
....................                          0x7F, 0x08, 0x08, 0x08, 0x7F, // H 
....................                          0x00, 0x41, 0x7F, 0x41, 0x00, // I 
....................                          0x30, 0x40, 0x40, 0x40, 0x3F, // J 
....................                          0x7F, 0x08, 0x14, 0x22, 0x41, // K 
....................                          0x7F, 0x40, 0x40, 0x40, 0x40, // L 
....................                          0x7F, 0x02, 0x0C, 0x02, 0x7F, // M 
....................                          0x7F, 0x02, 0x04, 0x08, 0x7F, // N 
....................                          0x3E, 0x41, 0x41, 0x41, 0x3E, // O 
....................                          0x7F, 0x09, 0x09, 0x09, 0x06, // P 
....................                          0x1E, 0x21, 0x21, 0x21, 0x5E, // Q 
....................                          0x7F, 0x09, 0x09, 0x09, 0x76};// R 
....................  
.................... const int8 FONT2[44][5]={0x26, 0x49, 0x49, 0x49, 0x32, // S 
....................                          0x01, 0x01, 0x7F, 0x01, 0x01, // T 
....................                          0x3F, 0x40, 0x40, 0x40, 0x3F, // U 
....................                          0x1F, 0x20, 0x40, 0x20, 0x1F, // V 
....................                          0x7F, 0x20, 0x10, 0x20, 0x7F, // W 
....................                          0x41, 0x22, 0x1C, 0x22, 0x41, // X 
....................                          0x07, 0x08, 0x70, 0x08, 0x07, // Y 
....................                          0x61, 0x51, 0x49, 0x45, 0x43, // Z 
....................                          0x00, 0x7F, 0x41, 0x00, 0x00, // [ 
....................                          0x02, 0x04, 0x08, 0x10, 0x20, // \ 
....................                          0x00, 0x00, 0x41, 0x7F, 0x00, // ] 
....................                          0x04, 0x02, 0x01, 0x02, 0x04, // ^ 
....................                          0x40, 0x40, 0x40, 0x40, 0x40, // _ 
....................                          0x00, 0x01, 0x02, 0x04, 0x00, // ` 
....................                          0x20, 0x54, 0x54, 0x54, 0x78, // a 
....................                          0x7F, 0x44, 0x44, 0x44, 0x38, // b 
....................                          0x38, 0x44, 0x44, 0x44, 0x44, // c 
....................                          0x38, 0x44, 0x44, 0x44, 0x7F, // d 
....................                          0x38, 0x54, 0x54, 0x54, 0x18, // e 
....................                          0x04, 0x04, 0x7E, 0x05, 0x05, // f 
....................                          0x08, 0x54, 0x54, 0x54, 0x3C, // g 
....................                          0x7F, 0x08, 0x04, 0x04, 0x78, // h 
....................                          0x00, 0x44, 0x7D, 0x40, 0x00, // i 
....................                          0x20, 0x40, 0x44, 0x3D, 0x00, // j 
....................                          0x7F, 0x10, 0x28, 0x44, 0x00, // k 
....................                          0x00, 0x41, 0x7F, 0x40, 0x00, // l 
....................                          0x7C, 0x04, 0x78, 0x04, 0x78, // m 
....................                          0x7C, 0x08, 0x04, 0x04, 0x78, // n 
....................                          0x38, 0x44, 0x44, 0x44, 0x38, // o 
....................                          0x7C, 0x14, 0x14, 0x14, 0x08, // p 
....................                          0x08, 0x14, 0x14, 0x14, 0x7C, // q 
....................                          0x00, 0x7C, 0x08, 0x04, 0x04, // r 
....................                          0x48, 0x54, 0x54, 0x54, 0x20, // s 
....................                          0x04, 0x04, 0x3F, 0x44, 0x44, // t 
....................                          0x3C, 0x40, 0x40, 0x20, 0x7C, // u 
....................                          0x1C, 0x20, 0x40, 0x20, 0x1C, // v 
....................                          0x3C, 0x40, 0x30, 0x40, 0x3C, // w 
....................                          0x44, 0x28, 0x10, 0x28, 0x44, // x 
....................                          0x0C, 0x50, 0x50, 0x50, 0x3C, // y 
....................                          0x44, 0x64, 0x54, 0x4C, 0x44, // z 
....................                          0x00, 0x08, 0x36, 0x41, 0x41, // { 
....................                          0x00, 0x00, 0x7F, 0x00, 0x00, // | 
....................                          0x41, 0x41, 0x36, 0x08, 0x00, // } 
....................                          0x02, 0x01, 0x02, 0x04, 0x02};// ~ 
.................... ///////////////////////////////////////////////////////////////////////// 
....................  
....................  
.................... ///////////////////////////////////////////////////////////////////////// 
.................... // Purpose:       Draw a line on a graphic LCD using Bresenham's 
.................... //                line drawing algorithm 
.................... // Inputs:        (x1, y1) - the start coordinate 
.................... //                (x2, y2) - the end coordinate 
.................... //                color - ON or OFF 
.................... // Dependencies:  glcd_pixel() 
.................... ///////////////////////////////////////////////////////////////////////// 
.................... #ifdef LARGE_LCD 
.................... void glcd_line(int16 x1, int16 y1, int16 x2, int16 y2, int1 color) 
.................... #else 
.................... void glcd_line(int8 x1, int8 y1, int8 x2, int8 y2, int1 color) 
.................... #endif 
.................... { 
*
01FC8:  MOVLW  01
01FCA:  MOVLB  7
01FCC:  MOVWF  x7B
01FCE:  MOVWF  x7C
01FD0:  CLRF   x81
....................    int16        dy, dx; 
....................    signed int8  addx=1, addy=1; 
....................    signed int16 P, diff; 
....................  
....................    #ifdef LARGE_LCD 
....................    int16 i=0; 
....................    dx = abs((signed int16)(x2 - x1)); 
....................    dy = abs((signed int16)(y2 - y1)); 
....................    #else 
....................    int8 i=0; 
....................    dx = abs((signed int8)(x2 - x1)); 
01FD2:  MOVF   x72,W
01FD4:  SUBWF  x74,W
01FD6:  MOVWF  x82
01FD8:  MOVF   x82,W
01FDA:  BTFSS  x82.7
01FDC:  BRA    1FE4
01FDE:  MOVLW  00
01FE0:  BSF    FD8.0
01FE2:  SUBFWB x82,W
01FE4:  CLRF   03
01FE6:  MOVWF  x79
01FE8:  MOVFF  03,77A
....................    dy = abs((signed int8)(y2 - y1)); 
01FEC:  MOVF   x73,W
01FEE:  SUBWF  x75,W
01FF0:  MOVWF  x82
01FF2:  MOVF   x82,W
01FF4:  BTFSS  x82.7
01FF6:  BRA    1FFE
01FF8:  MOVLW  00
01FFA:  BSF    FD8.0
01FFC:  SUBFWB x82,W
01FFE:  CLRF   03
02000:  MOVWF  x77
02002:  MOVFF  03,778
....................    #endif 
....................  
....................    if(x1 > x2) 
02006:  MOVF   x72,W
02008:  SUBWF  x74,W
0200A:  BC    2010
....................       addx = -1; 
0200C:  MOVLW  FF
0200E:  MOVWF  x7B
....................    if(y1 > y2) 
02010:  MOVF   x73,W
02012:  SUBWF  x75,W
02014:  BC    201A
....................       addy = -1; 
02016:  MOVLW  FF
02018:  MOVWF  x7C
....................  
....................    if(dx >= dy) 
0201A:  MOVF   x78,W
0201C:  SUBWF  x7A,W
0201E:  BNC   2096
02020:  BNZ   2028
02022:  MOVF   x77,W
02024:  SUBWF  x79,W
02026:  BNC   2096
....................    { 
....................       dy *= 2; 
02028:  BCF    FD8.0
0202A:  RLCF   x77,F
0202C:  RLCF   x78,F
....................       P = dy - dx; 
0202E:  MOVF   x79,W
02030:  SUBWF  x77,W
02032:  MOVWF  00
02034:  MOVF   x7A,W
02036:  SUBWFB x78,W
02038:  MOVFF  00,77D
0203C:  MOVWF  x7E
....................       diff = P - dx; 
0203E:  MOVF   x79,W
02040:  SUBWF  x7D,W
02042:  MOVWF  x7F
02044:  MOVF   x7A,W
02046:  SUBWFB x7E,W
02048:  MOVWF  x80
....................  
....................       for(; i<=dx; ++i) 
0204A:  MOVF   x7A,F
0204C:  BNZ   2054
0204E:  MOVF   x81,W
02050:  SUBWF  x79,W
02052:  BNC   2094
....................       { 
....................          glcd_pixel(x1, y1, color); 
02054:  MOVFF  772,782
02058:  MOVFF  773,783
0205C:  MOVFF  776,784
02060:  MOVLB  0
02062:  RCALL  1D54
....................  
....................          if(P < 0) 
02064:  MOVLB  7
02066:  BTFSC  x7E.7
02068:  BRA    206C
0206A:  BRA    207C
....................          { 
....................             P  += dy; 
0206C:  MOVF   x77,W
0206E:  ADDWF  x7D,F
02070:  MOVF   x78,W
02072:  ADDWFC x7E,F
....................             x1 += addx; 
02074:  MOVF   x7B,W
02076:  ADDWF  x72,W
02078:  MOVWF  x72
....................          } 
....................          else 
0207A:  BRA    2090
....................          { 
....................             P  += diff; 
0207C:  MOVF   x7F,W
0207E:  ADDWF  x7D,F
02080:  MOVF   x80,W
02082:  ADDWFC x7E,F
....................             x1 += addx; 
02084:  MOVF   x7B,W
02086:  ADDWF  x72,W
02088:  MOVWF  x72
....................             y1 += addy; 
0208A:  MOVF   x7C,W
0208C:  ADDWF  x73,W
0208E:  MOVWF  x73
....................          } 
....................       } 
02090:  INCF   x81,F
02092:  BRA    204A
....................    } 
....................    else 
02094:  BRA    2102
....................    { 
....................       dx *= 2; 
02096:  BCF    FD8.0
02098:  RLCF   x79,F
0209A:  RLCF   x7A,F
....................       P = dx - dy; 
0209C:  MOVF   x77,W
0209E:  SUBWF  x79,W
020A0:  MOVWF  00
020A2:  MOVF   x78,W
020A4:  SUBWFB x7A,W
020A6:  MOVFF  00,77D
020AA:  MOVWF  x7E
....................       diff = P - dy; 
020AC:  MOVF   x77,W
020AE:  SUBWF  x7D,W
020B0:  MOVWF  x7F
020B2:  MOVF   x78,W
020B4:  SUBWFB x7E,W
020B6:  MOVWF  x80
....................  
....................       for(; i<=dy; ++i) 
020B8:  MOVF   x78,F
020BA:  BNZ   20C2
020BC:  MOVF   x81,W
020BE:  SUBWF  x77,W
020C0:  BNC   2102
....................       { 
....................          glcd_pixel(x1, y1, color); 
020C2:  MOVFF  772,782
020C6:  MOVFF  773,783
020CA:  MOVFF  776,784
020CE:  MOVLB  0
020D0:  RCALL  1D54
....................  
....................          if(P < 0) 
020D2:  MOVLB  7
020D4:  BTFSC  x7E.7
020D6:  BRA    20DA
020D8:  BRA    20EA
....................          { 
....................             P  += dx; 
020DA:  MOVF   x79,W
020DC:  ADDWF  x7D,F
020DE:  MOVF   x7A,W
020E0:  ADDWFC x7E,F
....................             y1 += addy; 
020E2:  MOVF   x7C,W
020E4:  ADDWF  x73,W
020E6:  MOVWF  x73
....................          } 
....................          else 
020E8:  BRA    20FE
....................          { 
....................             P  += diff; 
020EA:  MOVF   x7F,W
020EC:  ADDWF  x7D,F
020EE:  MOVF   x80,W
020F0:  ADDWFC x7E,F
....................             x1 += addx; 
020F2:  MOVF   x7B,W
020F4:  ADDWF  x72,W
020F6:  MOVWF  x72
....................             y1 += addy; 
020F8:  MOVF   x7C,W
020FA:  ADDWF  x73,W
020FC:  MOVWF  x73
....................          } 
....................       } 
020FE:  INCF   x81,F
02100:  BRA    20B8
....................    } 
.................... } 
02102:  MOVLB  0
02104:  RETLW  00
....................  
....................  
.................... ///////////////////////////////////////////////////////////////////////// 
.................... // Purpose:       Draw a rectangle on a graphic LCD 
.................... // Inputs:        (x1, y1) - the start coordinate 
.................... //                (x2, y2) - the end coordinate 
.................... //                fill  - YES or NO 
.................... //                color - ON or OFF 
.................... // Dependencies:  glcd_pixel(), glcd_line() 
.................... ///////////////////////////////////////////////////////////////////////// 
.................... #ifdef LARGE_LCD 
.................... void glcd_rect(int16 x1, int16 y1, int16 x2, int16 y2, int1 fill, int1 color) 
.................... #else 
.................... void glcd_rect(int8 x1, int8 y1, int8 x2, int8 y2, int1 fill, int1 color) 
.................... #endif 
.................... { 
....................    if(fill) 
02106:  MOVLB  7
02108:  MOVF   x6B,F
0210A:  BZ    2168
....................    { 
....................       #ifdef LARGE_LCD 
....................       int16 i, xmin, xmax, ymin, ymax; 
....................       #else 
....................       int8  i, xmin, xmax, ymin, ymax; 
....................       #endif 
....................  
....................       if(x1 < x2)                            //  Find x min and max 
0210C:  MOVF   x69,W
0210E:  SUBWF  x67,W
02110:  BC    211C
....................       { 
....................          xmin = x1; 
02112:  MOVFF  767,76E
....................          xmax = x2; 
02116:  MOVFF  769,76F
....................       } 
....................       else 
0211A:  BRA    2124
....................       { 
....................          xmin = x2; 
0211C:  MOVFF  769,76E
....................          xmax = x1; 
02120:  MOVFF  767,76F
....................       } 
....................  
....................       if(y1 < y2)                            // Find the y min and max 
02124:  MOVF   x6A,W
02126:  SUBWF  x68,W
02128:  BC    2134
....................       { 
....................          ymin = y1; 
0212A:  MOVFF  768,770
....................          ymax = y2; 
0212E:  MOVFF  76A,771
....................       } 
....................       else 
02132:  BRA    213C
....................       { 
....................          ymin = y2; 
02134:  MOVFF  76A,770
....................          ymax = y1; 
02138:  MOVFF  768,771
....................       } 
....................  
....................       for(; xmin <= xmax; ++xmin) 
0213C:  MOVF   x6E,W
0213E:  SUBWF  x6F,W
02140:  BNC   2166
....................       { 
....................          for(i=ymin; i<=ymax; ++i) 
02142:  MOVFF  770,76D
02146:  MOVF   x6D,W
02148:  SUBWF  x71,W
0214A:  BNC   2162
....................          { 
....................             glcd_pixel(xmin, i, color); 
0214C:  MOVFF  76E,782
02150:  MOVFF  76D,783
02154:  MOVFF  76C,784
02158:  MOVLB  0
0215A:  RCALL  1D54
....................          } 
0215C:  MOVLB  7
0215E:  INCF   x6D,F
02160:  BRA    2146
....................       } 
02162:  INCF   x6E,F
02164:  BRA    213C
....................    } 
....................    else 
02166:  BRA    21C4
....................    { 
....................       glcd_line(x1, y1, x2, y1, color);      // Draw the 4 sides 
02168:  MOVFF  767,772
0216C:  MOVFF  768,773
02170:  MOVFF  769,774
02174:  MOVFF  768,775
02178:  MOVFF  76C,776
0217C:  MOVLB  0
0217E:  RCALL  1FC8
....................       glcd_line(x1, y2, x2, y2, color); 
02180:  MOVFF  767,772
02184:  MOVFF  76A,773
02188:  MOVFF  769,774
0218C:  MOVFF  76A,775
02190:  MOVFF  76C,776
02194:  RCALL  1FC8
....................       glcd_line(x1, y1, x1, y2, color); 
02196:  MOVFF  767,772
0219A:  MOVFF  768,773
0219E:  MOVFF  767,774
021A2:  MOVFF  76A,775
021A6:  MOVFF  76C,776
021AA:  RCALL  1FC8
....................       glcd_line(x2, y1, x2, y2, color); 
021AC:  MOVFF  769,772
021B0:  MOVFF  768,773
021B4:  MOVFF  769,774
021B8:  MOVFF  76A,775
021BC:  MOVFF  76C,776
021C0:  RCALL  1FC8
021C2:  MOVLB  7
....................    } 
.................... } 
021C4:  MOVLB  0
021C6:  RETLW  00
....................  
.................... ///////////////////////////////////////////////////////////////////////// 
.................... // Purpose:       Draw a bar (wide line) on a graphic LCD 
.................... // Inputs:        (x1, y1) - the start coordinate 
.................... //                (x2, y2) - the end coordinate 
.................... //                width  - The number of pixels wide 
.................... //                color - ON or OFF 
.................... ///////////////////////////////////////////////////////////////////////// 
.................... #ifdef LARGE_LCD 
.................... void glcd_bar(int16 x1, int16 y1, int16 x2, int16 y2, int8 width, int1 color) 
.................... #else 
.................... void glcd_bar(int8 x1, int8 y1, int8 x2, int8 y2, int8 width, int1 color) 
.................... #endif 
.................... { 
....................    int8         half_width; 
....................    signed int16 dy, dx; 
....................    signed int8  addx=1, addy=1, j; 
....................    signed int16 P, diff, c1, c2; 
....................  
....................    #ifdef LARGE_LCD 
....................    int16 i=0; 
....................    dx = abs((signed int16)(x2 - x1)); 
....................    dy = abs((signed int16)(y2 - y1)); 
....................    #else 
....................    int8 i=0; 
....................    dx = abs((signed int8)(x2 - x1)); 
....................    dy = abs((signed int8)(y2 - y1)); 
....................    #endif 
....................  
....................    half_width = width/2; 
....................    c1 = -(dx*x1 + dy*y1); 
....................    c2 = -(dx*x2 + dy*y2); 
....................  
....................    if(x1 > x2) 
....................    { 
....................       signed int16 temp; 
....................       temp = c1; 
....................       c1 = c2; 
....................       c2 = temp; 
....................       addx = -1; 
....................    } 
....................    if(y1 > y2) 
....................    { 
....................       signed int16 temp; 
....................       temp = c1; 
....................       c1 = c2; 
....................       c2 = temp; 
....................       addy = -1; 
....................    } 
....................  
....................    if(dx >= dy) 
....................    { 
....................       P = 2*dy - dx; 
....................       diff = P - dx; 
....................  
....................       for(i=0; i<=dx; ++i) 
....................       { 
....................          for(j=-half_width; j<half_width+width%2; ++j) 
....................          { 
....................             #ifdef LARGE_LCD 
....................             int16 temp; 
....................             #else 
....................             int8 temp; 
....................             #endif 
....................  
....................             temp = dx*x1+dy*(y1+j);    // Use more RAM to increase speed 
....................             if(temp+c1 >= 0 && temp+c2 <=0) 
....................                glcd_pixel(x1, y1+j, color); 
....................          } 
....................          if(P < 0) 
....................          { 
....................             P  += 2*dy; 
....................             x1 += addx; 
....................          } 
....................          else 
....................          { 
....................             P  += diff; 
....................             x1 += addx; 
....................             y1 += addy; 
....................          } 
....................       } 
....................    } 
....................    else 
....................    { 
....................       P = 2*dx - dy; 
....................       diff = P - dy; 
....................  
....................       for(i=0; i<=dy; ++i) 
....................       { 
....................          if(P < 0) 
....................          { 
....................             P  += 2*dx; 
....................             y1 += addy; 
....................          } 
....................          else 
....................          { 
....................             P  += diff; 
....................             x1 += addx; 
....................             y1 += addy; 
....................          } 
....................          for(j=-half_width; j<half_width+width%2; ++j) 
....................          { 
....................             #ifdef LARGE_LCD 
....................             int16 temp; 
....................             #else 
....................             int8 temp; 
....................             #endif 
....................  
....................             temp = dx*x1+dy*(y1+j);    // Use more RAM to increase speed 
....................             if(temp+c1 >= 0 && temp+c2 <=0) 
....................                glcd_pixel(x1+j, y1, color); 
....................          } 
....................       } 
....................    } 
.................... } 
....................  
....................  
.................... ///////////////////////////////////////////////////////////////////////// 
.................... // Purpose:       Draw a circle on a graphic LCD 
.................... // Inputs:        (x,y) - the center of the circle 
.................... //                radius - the radius of the circle 
.................... //                fill - YES or NO 
.................... //                color - ON or OFF 
.................... ///////////////////////////////////////////////////////////////////////// 
.................... #ifdef LARGE_LCD 
.................... void glcd_circle(int16 x, int16 y, int16 radius, int1 fill, int1 color) 
.................... #else 
.................... void glcd_circle(int8 x, int8 y, int8 radius, int1 fill, int1 color) 
.................... #endif 
.................... { 
....................    #ifdef LARGE_LCD 
....................    signed int16 a, b, P; 
....................    #else 
....................    signed int8  a, b, P; 
....................    #endif 
....................  
....................    a = 0; 
*
03B3E:  MOVLB  7
03B40:  CLRF   x56
....................    b = radius; 
03B42:  MOVFF  753,757
....................    P = 1 - radius; 
03B46:  MOVLW  01
03B48:  BSF    FD8.0
03B4A:  SUBFWB x53,W
03B4C:  MOVWF  x58
....................  
....................    do 
....................    { 
....................       if(fill) 
03B4E:  MOVF   x54,F
03B50:  BZ    3C1C
....................       { 
....................          glcd_line(x-a, y+b, x+a, y+b, color); 
03B52:  MOVF   x56,W
03B54:  SUBWF  x51,W
03B56:  MOVWF  x59
03B58:  MOVF   x57,W
03B5A:  ADDWF  x52,W
03B5C:  MOVWF  x5A
03B5E:  MOVF   x56,W
03B60:  ADDWF  x51,W
03B62:  MOVWF  x5B
03B64:  MOVF   x57,W
03B66:  ADDWF  x52,W
03B68:  MOVWF  x5C
03B6A:  MOVFF  759,772
03B6E:  MOVFF  75A,773
03B72:  MOVFF  75B,774
03B76:  MOVWF  x75
03B78:  MOVFF  755,776
03B7C:  MOVLB  0
03B7E:  CALL   1FC8
....................          glcd_line(x-a, y-b, x+a, y-b, color); 
03B82:  MOVLB  7
03B84:  MOVF   x56,W
03B86:  SUBWF  x51,W
03B88:  MOVWF  x59
03B8A:  MOVF   x57,W
03B8C:  SUBWF  x52,W
03B8E:  MOVWF  x5A
03B90:  MOVF   x56,W
03B92:  ADDWF  x51,W
03B94:  MOVWF  x5B
03B96:  MOVF   x57,W
03B98:  SUBWF  x52,W
03B9A:  MOVWF  x5C
03B9C:  MOVFF  759,772
03BA0:  MOVFF  75A,773
03BA4:  MOVFF  75B,774
03BA8:  MOVWF  x75
03BAA:  MOVFF  755,776
03BAE:  MOVLB  0
03BB0:  CALL   1FC8
....................          glcd_line(x-b, y+a, x+b, y+a, color); 
03BB4:  MOVLB  7
03BB6:  MOVF   x57,W
03BB8:  SUBWF  x51,W
03BBA:  MOVWF  x59
03BBC:  MOVF   x56,W
03BBE:  ADDWF  x52,W
03BC0:  MOVWF  x5A
03BC2:  MOVF   x57,W
03BC4:  ADDWF  x51,W
03BC6:  MOVWF  x5B
03BC8:  MOVF   x56,W
03BCA:  ADDWF  x52,W
03BCC:  MOVWF  x5C
03BCE:  MOVFF  759,772
03BD2:  MOVFF  75A,773
03BD6:  MOVFF  75B,774
03BDA:  MOVWF  x75
03BDC:  MOVFF  755,776
03BE0:  MOVLB  0
03BE2:  CALL   1FC8
....................          glcd_line(x-b, y-a, x+b, y-a, color); 
03BE6:  MOVLB  7
03BE8:  MOVF   x57,W
03BEA:  SUBWF  x51,W
03BEC:  MOVWF  x59
03BEE:  MOVF   x56,W
03BF0:  SUBWF  x52,W
03BF2:  MOVWF  x5A
03BF4:  MOVF   x57,W
03BF6:  ADDWF  x51,W
03BF8:  MOVWF  x5B
03BFA:  MOVF   x56,W
03BFC:  SUBWF  x52,W
03BFE:  MOVWF  x5C
03C00:  MOVFF  759,772
03C04:  MOVFF  75A,773
03C08:  MOVFF  75B,774
03C0C:  MOVWF  x75
03C0E:  MOVFF  755,776
03C12:  MOVLB  0
03C14:  CALL   1FC8
....................       } 
....................       else 
03C18:  BRA    3D0A
03C1A:  MOVLB  7
....................       { 
....................          glcd_pixel(a+x, b+y, color); 
03C1C:  MOVF   x51,W
03C1E:  ADDWF  x56,W
03C20:  MOVWF  x59
03C22:  MOVF   x52,W
03C24:  ADDWF  x57,W
03C26:  MOVWF  x5A
03C28:  MOVFF  759,782
03C2C:  MOVWF  x83
03C2E:  MOVFF  755,784
03C32:  MOVLB  0
03C34:  CALL   1D54
....................          glcd_pixel(b+x, a+y, color); 
03C38:  MOVLB  7
03C3A:  MOVF   x51,W
03C3C:  ADDWF  x57,W
03C3E:  MOVWF  x59
03C40:  MOVF   x52,W
03C42:  ADDWF  x56,W
03C44:  MOVWF  x5A
03C46:  MOVFF  759,782
03C4A:  MOVWF  x83
03C4C:  MOVFF  755,784
03C50:  MOVLB  0
03C52:  CALL   1D54
....................          glcd_pixel(x-a, b+y, color); 
03C56:  MOVLB  7
03C58:  MOVF   x56,W
03C5A:  SUBWF  x51,W
03C5C:  MOVWF  x59
03C5E:  MOVF   x52,W
03C60:  ADDWF  x57,W
03C62:  MOVWF  x5A
03C64:  MOVFF  759,782
03C68:  MOVWF  x83
03C6A:  MOVFF  755,784
03C6E:  MOVLB  0
03C70:  CALL   1D54
....................          glcd_pixel(x-b, a+y, color); 
03C74:  MOVLB  7
03C76:  MOVF   x57,W
03C78:  SUBWF  x51,W
03C7A:  MOVWF  x59
03C7C:  MOVF   x52,W
03C7E:  ADDWF  x56,W
03C80:  MOVWF  x5A
03C82:  MOVFF  759,782
03C86:  MOVWF  x83
03C88:  MOVFF  755,784
03C8C:  MOVLB  0
03C8E:  CALL   1D54
....................          glcd_pixel(b+x, y-a, color); 
03C92:  MOVLB  7
03C94:  MOVF   x51,W
03C96:  ADDWF  x57,W
03C98:  MOVWF  x59
03C9A:  MOVF   x56,W
03C9C:  SUBWF  x52,W
03C9E:  MOVWF  x5A
03CA0:  MOVFF  759,782
03CA4:  MOVWF  x83
03CA6:  MOVFF  755,784
03CAA:  MOVLB  0
03CAC:  CALL   1D54
....................          glcd_pixel(a+x, y-b, color); 
03CB0:  MOVLB  7
03CB2:  MOVF   x51,W
03CB4:  ADDWF  x56,W
03CB6:  MOVWF  x59
03CB8:  MOVF   x57,W
03CBA:  SUBWF  x52,W
03CBC:  MOVWF  x5A
03CBE:  MOVFF  759,782
03CC2:  MOVWF  x83
03CC4:  MOVFF  755,784
03CC8:  MOVLB  0
03CCA:  CALL   1D54
....................          glcd_pixel(x-a, y-b, color); 
03CCE:  MOVLB  7
03CD0:  MOVF   x56,W
03CD2:  SUBWF  x51,W
03CD4:  MOVWF  x59
03CD6:  MOVF   x57,W
03CD8:  SUBWF  x52,W
03CDA:  MOVWF  x5A
03CDC:  MOVFF  759,782
03CE0:  MOVWF  x83
03CE2:  MOVFF  755,784
03CE6:  MOVLB  0
03CE8:  CALL   1D54
....................          glcd_pixel(x-b, y-a, color); 
03CEC:  MOVLB  7
03CEE:  MOVF   x57,W
03CF0:  SUBWF  x51,W
03CF2:  MOVWF  x59
03CF4:  MOVF   x56,W
03CF6:  SUBWF  x52,W
03CF8:  MOVWF  x5A
03CFA:  MOVFF  759,782
03CFE:  MOVWF  x83
03D00:  MOVFF  755,784
03D04:  MOVLB  0
03D06:  CALL   1D54
....................       } 
....................  
....................       if(P < 0) 
03D0A:  MOVLB  7
03D0C:  BTFSC  x58.7
03D0E:  BRA    3D12
03D10:  BRA    3D2E
....................          P += 3 + 2 * a++; 
03D12:  MOVF   x56,W
03D14:  INCF   x56,F
03D16:  MOVWF  x59
03D18:  MOVLW  02
03D1A:  MOVWF  x5A
03D1C:  MOVFF  759,75B
03D20:  MOVLB  0
03D22:  RCALL  3AF0
03D24:  MOVF   01,W
03D26:  ADDLW  03
03D28:  MOVLB  7
03D2A:  ADDWF  x58,F
....................       else 
03D2C:  BRA    3D50
....................          P += 5 + 2 * (a++ - b--); 
03D2E:  MOVF   x56,W
03D30:  INCF   x56,F
03D32:  MOVWF  x59
03D34:  MOVF   x57,W
03D36:  DECF   x57,F
03D38:  SUBWF  x59,W
03D3A:  MOVWF  x59
03D3C:  MOVLW  02
03D3E:  MOVWF  x5A
03D40:  MOVFF  759,75B
03D44:  MOVLB  0
03D46:  RCALL  3AF0
03D48:  MOVF   01,W
03D4A:  ADDLW  05
03D4C:  MOVLB  7
03D4E:  ADDWF  x58,F
....................     } while(a <= b); 
03D50:  MOVF   x56,W
03D52:  XORLW  80
03D54:  MOVWF  00
03D56:  MOVF   x57,W
03D58:  XORLW  80
03D5A:  SUBWF  00,W
03D5C:  BTFSC  FD8.2
03D5E:  BRA    3B4E
03D60:  BTFSS  FD8.0
03D62:  BRA    3B4E
.................... } 
03D64:  MOVLB  0
03D66:  RETLW  00
....................  
....................  
.................... ///////////////////////////////////////////////////////////////////////// 
.................... // Purpose:       Write text on a graphic LCD 
.................... // Inputs:        (x,y) - The upper left coordinate of the first letter 
.................... //                textptr - A pointer to an array of text to display 
.................... //                size - The size of the text: 1 = 5x7, 2 = 10x14, ... 
.................... //                color - ON or OFF 
.................... ///////////////////////////////////////////////////////////////////////// 
.................... #ifdef LARGE_LCD 
.................... void glcd_text57(int16 x, int16 y, char* textptr, int8 size, int1 color) 
.................... #else 
.................... void glcd_text57(int8 x, int8 y, char* textptr, int8 size, int1 color) 
.................... #endif 
.................... { 
....................    int8 j, k, l, m;                       // Loop counters 
....................    int8 pixelData[5];                     // Stores character data 
....................  
....................    for(; *textptr != '\0'; ++textptr, ++x)// Loop through the passed string 
*
01E10:  MOVFF  768,03
01E14:  MOVLB  7
01E16:  MOVFF  767,FE9
01E1A:  MOVFF  768,FEA
01E1E:  MOVF   FEF,F
01E20:  BTFSC  FD8.2
01E22:  BRA    1FC4
....................    { 
....................       if(*textptr < 'S') // Checks if the letter is in the first font array 
01E24:  MOVFF  768,03
01E28:  MOVFF  767,FE9
01E2C:  MOVFF  768,FEA
01E30:  MOVF   FEF,W
01E32:  SUBLW  52
01E34:  BNC   1E84
....................          memcpy(pixelData, FONT[*textptr - ' '], 5); 
01E36:  MOVFF  768,03
01E3A:  MOVFF  767,FE9
01E3E:  MOVFF  768,FEA
01E42:  MOVLW  20
01E44:  SUBWF  FEF,W
01E46:  MULLW  05
01E48:  MOVF   FF3,W
01E4A:  CLRF   03
01E4C:  MOVWF  x74
01E4E:  MOVLW  07
01E50:  MOVWF  FEA
01E52:  MOVLW  6F
01E54:  MOVWF  FE9
01E56:  CLRF   x78
01E58:  MOVFF  774,777
01E5C:  MOVFF  FF2,775
01E60:  BCF    FF2.7
01E62:  MOVLW  05
01E64:  MOVWF  01
01E66:  CLRF   FF7
01E68:  MOVF   x74,W
01E6A:  MOVLB  0
01E6C:  CALL   00AA
01E70:  TBLRD*-
01E72:  TBLRD*+
01E74:  MOVFF  FF5,FEE
01E78:  DECFSZ 01,F
01E7A:  BRA    1E72
01E7C:  MOVLB  7
01E7E:  BTFSC  x75.7
01E80:  BSF    FF2.7
....................       else if(*textptr <= '~') // Check if the letter is in the second font array 
01E82:  BRA    1EEE
01E84:  MOVFF  768,03
01E88:  MOVFF  767,FE9
01E8C:  MOVFF  768,FEA
01E90:  MOVF   FEF,W
01E92:  SUBLW  7E
01E94:  BNC   1EE4
....................          memcpy(pixelData, FONT2[*textptr - 'S'], 5); 
01E96:  MOVFF  768,03
01E9A:  MOVFF  767,FE9
01E9E:  MOVFF  768,FEA
01EA2:  MOVLW  53
01EA4:  SUBWF  FEF,W
01EA6:  MULLW  05
01EA8:  MOVF   FF3,W
01EAA:  CLRF   03
01EAC:  MOVWF  x74
01EAE:  MOVLW  07
01EB0:  MOVWF  FEA
01EB2:  MOVLW  6F
01EB4:  MOVWF  FE9
01EB6:  CLRF   x78
01EB8:  MOVFF  774,777
01EBC:  MOVFF  FF2,775
01EC0:  BCF    FF2.7
01EC2:  MOVLW  05
01EC4:  MOVWF  01
01EC6:  CLRF   FF7
01EC8:  MOVF   x74,W
01ECA:  MOVLB  0
01ECC:  CALL   01C8
01ED0:  TBLRD*-
01ED2:  TBLRD*+
01ED4:  MOVFF  FF5,FEE
01ED8:  DECFSZ 01,F
01EDA:  BRA    1ED2
01EDC:  MOVLB  7
01EDE:  BTFSC  x75.7
01EE0:  BSF    FF2.7
....................       else 
01EE2:  BRA    1EEE
....................          memcpy(pixelData, FONT[0], 5);   // Default to space 
01EE4:  CLRF   x6F
01EE6:  CLRF   x70
01EE8:  CLRF   x71
01EEA:  CLRF   x72
01EEC:  CLRF   x73
....................  
....................       // Handles newline and carriage returns 
....................       switch(*textptr) 
....................       { 
01EEE:  MOVFF  768,03
01EF2:  MOVF   x67,W
01EF4:  MOVWF  FE9
01EF6:  MOVFF  03,FEA
01EFA:  MOVF   FEF,W
01EFC:  XORLW  0A
01EFE:  MOVLB  0
01F00:  BZ    1F08
01F02:  XORLW  07
01F04:  BZ    1F18
01F06:  BRA    1F1E
....................          case '\n': 
....................             y += 7*size + 1; 
01F08:  MOVLB  7
01F0A:  MOVF   x69,W
01F0C:  MULLW  07
01F0E:  MOVF   FF3,W
01F10:  ADDLW  01
01F12:  ADDWF  x66,F
....................             continue; 
01F14:  BRA    1FB6
01F16:  MOVLB  0
....................          case '\r': 
....................             x = 0; 
01F18:  MOVLB  7
01F1A:  CLRF   x65
....................             continue; 
01F1C:  BRA    1FB6
....................       } 
....................  
....................       if(x+5*size >= GLCD_WIDTH)          // Performs character wrapping 
01F1E:  MOVLB  7
01F20:  MOVF   x69,W
01F22:  MULLW  05
01F24:  MOVF   FF3,W
01F26:  ADDWF  x65,W
01F28:  SUBLW  7F
01F2A:  BC    1F38
....................       { 
....................          x = 0;                           // Set x at far left position 
01F2C:  CLRF   x65
....................          y += 7*size + 1;                 // Set y at next position down 
01F2E:  MOVF   x69,W
01F30:  MULLW  07
01F32:  MOVF   FF3,W
01F34:  ADDLW  01
01F36:  ADDWF  x66,F
....................       } 
....................       for(j=0; j<5; ++j, x+=size)         // Loop through character byte data 
01F38:  CLRF   x6B
01F3A:  MOVF   x6B,W
01F3C:  SUBLW  04
01F3E:  BNC   1FB6
....................       { 
....................          for(k=0; k < 7; ++k)             // Loop through the vertical pixels 
01F40:  CLRF   x6C
01F42:  MOVF   x6C,W
01F44:  SUBLW  06
01F46:  BNC   1FAE
....................          { 
....................             if(bit_test(pixelData[j], k)) // Check if the pixel should be set 
01F48:  CLRF   03
01F4A:  MOVF   x6B,W
01F4C:  ADDLW  6F
01F4E:  MOVWF  FE9
01F50:  MOVLW  07
01F52:  ADDWFC 03,W
01F54:  MOVWF  FEA
01F56:  MOVFF  FEF,774
01F5A:  MOVFF  774,00
01F5E:  MOVF   x6C,W
01F60:  MOVWF  01
01F62:  BZ    1F6C
01F64:  BCF    FD8.0
01F66:  RRCF   00,F
01F68:  DECFSZ 01,F
01F6A:  BRA    1F64
01F6C:  BTFSS  00.0
01F6E:  BRA    1FAA
....................             { 
....................                for(l=0; l < size; ++l)    // These two loops change the 
01F70:  CLRF   x6D
01F72:  MOVF   x69,W
01F74:  SUBWF  x6D,W
01F76:  BC    1FAA
....................                {                          // character's size 
....................                   for(m=0; m < size; ++m) 
01F78:  CLRF   x6E
01F7A:  MOVF   x69,W
01F7C:  SUBWF  x6E,W
01F7E:  BC    1FA6
....................                   { 
....................                      glcd_pixel(x+m, y+k*size+l, color); // Draws the pixel 
01F80:  MOVF   x6E,W
01F82:  ADDWF  x65,W
01F84:  MOVWF  x74
01F86:  MOVF   x6C,W
01F88:  MULWF  x69
01F8A:  MOVF   FF3,W
01F8C:  ADDWF  x66,W
01F8E:  ADDWF  x6D,W
01F90:  MOVWF  x75
01F92:  MOVFF  774,782
01F96:  MOVWF  x83
01F98:  MOVFF  76A,784
01F9C:  MOVLB  0
01F9E:  RCALL  1D54
....................                   } 
01FA0:  MOVLB  7
01FA2:  INCF   x6E,F
01FA4:  BRA    1F7A
....................                } 
01FA6:  INCF   x6D,F
01FA8:  BRA    1F72
....................             } 
....................          } 
01FAA:  INCF   x6C,F
01FAC:  BRA    1F42
....................       } 
01FAE:  INCF   x6B,F
01FB0:  MOVF   x69,W
01FB2:  ADDWF  x65,F
01FB4:  BRA    1F3A
....................    } 
01FB6:  INCF   x67,F
01FB8:  BTFSC  FD8.2
01FBA:  INCF   x68,F
01FBC:  INCF   x65,F
01FBE:  MOVLB  0
01FC0:  BRA    1E10
01FC2:  MOVLB  7
.................... } 
01FC4:  MOVLB  0
01FC6:  RETLW  00
....................  
.................... #endif 
....................  
.................... #include "imagen.h" 
.................... const int8 Proceso [64][16] = { 
.................... 0x00, 0x00, 0x00, 0x00, 0x00, 0x00, 0x00, 0x00, 0x00, 0x00, 0x00, 0x00, 0x00, 0x00, 0x00, 0x00, 
.................... 0x00, 0x00, 0x00, 0x00, 0x00, 0x00, 0x00, 0x00, 0x00, 0x00, 0x00, 0x00, 0x00, 0x00, 0x00, 0x00, 
.................... 0x00, 0x00, 0x00, 0x00, 0x00, 0x00, 0x00, 0x00, 0x00, 0x00, 0x00, 0x00, 0x00, 0x00, 0x00, 0x00, 
.................... 0x00, 0x00, 0x00, 0x00, 0x00, 0x00, 0x00, 0x00, 0x00, 0x00, 0x00, 0x00, 0x00, 0x00, 0x00, 0x00, 
.................... 0x00, 0x00, 0x00, 0x00, 0x00, 0x00, 0x00, 0x00, 0x00, 0x00, 0x00, 0x00, 0x00, 0x00, 0x00, 0x00, 
.................... 0x00, 0x00, 0x00, 0x00, 0x00, 0x00, 0x00, 0x00, 0x00, 0x00, 0x00, 0x00, 0x00, 0x00, 0x00, 0x00, 
.................... 0x00, 0x00, 0x00, 0x00, 0x00, 0x00, 0x00, 0x00, 0x00, 0x00, 0x00, 0x00, 0x00, 0x00, 0x00, 0x00, 
.................... 0x00, 0x00, 0x00, 0x00, 0x00, 0x00, 0x00, 0x00, 0x00, 0x00, 0x00, 0x00, 0x00, 0x00, 0x00, 0x00, 
.................... 0x00, 0x00, 0x00, 0x00, 0x00, 0x00, 0x00, 0x00, 0x00, 0x00, 0x00, 0x00, 0x00, 0x00, 0x00, 0x00, 
.................... 0x00, 0x00, 0x00, 0x00, 0x00, 0x00, 0x00, 0x00, 0x00, 0x00, 0x00, 0x00, 0x00, 0x00, 0x00, 0x00, 
.................... 0x00, 0x00, 0x00, 0x00, 0x00, 0x00, 0x00, 0x00, 0x00, 0x00, 0x00, 0x00, 0x00, 0x00, 0x00, 0x00, 
.................... 0x00, 0x00, 0x00, 0x00, 0x00, 0x00, 0x00, 0x00, 0x00, 0x00, 0x00, 0x00, 0x00, 0x00, 0x00, 0x00, 
.................... 0x00, 0x00, 0x00, 0x00, 0x00, 0x00, 0x00, 0x00, 0x00, 0x00, 0x00, 0x00, 0x00, 0x00, 0x00, 0x00, 
.................... 0x00, 0x00, 0x00, 0x00, 0x00, 0x00, 0x00, 0x00, 0x00, 0x00, 0x00, 0x00, 0x00, 0x00, 0x00, 0x00, 
.................... 0x00, 0x00, 0x00, 0x00, 0x00, 0x00, 0x00, 0x00, 0x00, 0x00, 0x00, 0x00, 0x00, 0x00, 0x00, 0x00, 
.................... 0x08, 0x00, 0x00, 0x00, 0x00, 0x00, 0x00, 0x00, 0x00, 0x00, 0x00, 0x00, 0x00, 0x00, 0x00, 0x00, 
.................... 0x1C, 0x00, 0x00, 0x00, 0x00, 0x00, 0x00, 0x00, 0x00, 0x00, 0x00, 0x00, 0x00, 0x00, 0x00, 0x00, 
.................... 0x3E, 0x00, 0x00, 0x00, 0x00, 0x00, 0x00, 0x00, 0x00, 0x00, 0x00, 0x00, 0x00, 0x00, 0x00, 0x00, 
.................... 0x08, 0x00, 0x00, 0x00, 0x00, 0x00, 0x00, 0x00, 0x00, 0x00, 0x00, 0x00, 0x00, 0x00, 0x00, 0x00, 
.................... 0x08, 0x00, 0x00, 0x00, 0x00, 0x00, 0x00, 0x00, 0x00, 0x00, 0x00, 0x00, 0x00, 0x00, 0x00, 0x00, 
.................... 0x08, 0x00, 0x00, 0x00, 0x00, 0x00, 0x00, 0x00, 0x00, 0x00, 0x00, 0x00, 0x00, 0x00, 0x00, 0x00, 
.................... 0x08, 0x00, 0x00, 0x01, 0xFF, 0xFF, 0xFE, 0x00, 0x00, 0x00, 0x00, 0x00, 0x00, 0x00, 0x00, 0x00, 
.................... 0x08, 0x00, 0x00, 0x02, 0x00, 0x00, 0x01, 0x00, 0x00, 0x00, 0x00, 0x00, 0x00, 0x00, 0x00, 0x00, 
.................... 0x08, 0x00, 0x00, 0x02, 0x00, 0x00, 0x00, 0x80, 0x00, 0x00, 0x00, 0x00, 0x00, 0x00, 0x00, 0x00, 
.................... 0x08, 0x00, 0x00, 0x04, 0x00, 0x00, 0x00, 0x40, 0x00, 0x00, 0x00, 0x00, 0x00, 0x00, 0x00, 0x00, 
.................... 0x08, 0x00, 0x00, 0x08, 0x00, 0x00, 0x00, 0x20, 0x00, 0x00, 0x00, 0x00, 0x00, 0x00, 0x00, 0x00, 
.................... 0x08, 0x00, 0x00, 0x08, 0x00, 0x00, 0x00, 0x10, 0x00, 0x00, 0x00, 0x00, 0x00, 0x00, 0x00, 0x00, 
.................... 0x08, 0x00, 0x00, 0x10, 0x00, 0x00, 0x00, 0x08, 0x00, 0x00, 0x00, 0x00, 0x00, 0x00, 0x00, 0x00, 
.................... 0x08, 0x00, 0x00, 0x10, 0x00, 0x00, 0x00, 0x08, 0x00, 0x00, 0x00, 0x00, 0x00, 0x00, 0x00, 0x00, 
.................... 0x08, 0x00, 0x00, 0x20, 0x00, 0x00, 0x00, 0x04, 0x00, 0x00, 0x00, 0x00, 0x00, 0x00, 0x00, 0x00, 
.................... 0x08, 0x00, 0x00, 0x40, 0x00, 0x00, 0x00, 0x02, 0x00, 0x00, 0x00, 0x00, 0x00, 0x00, 0x00, 0x00, 
.................... 0x08, 0x00, 0x00, 0x40, 0x00, 0x00, 0x00, 0x01, 0x00, 0x00, 0x00, 0x00, 0x00, 0x00, 0x00, 0x00, 
.................... 0x08, 0x00, 0x00, 0x80, 0x00, 0x00, 0x00, 0x00, 0x80, 0x00, 0x00, 0x00, 0x00, 0x00, 0x00, 0x00, 
.................... 0x08, 0x00, 0x01, 0x00, 0x00, 0x00, 0x00, 0x00, 0x40, 0x00, 0x00, 0x00, 0x00, 0x00, 0x00, 0x00, 
.................... 0x08, 0x00, 0x01, 0x00, 0x00, 0x00, 0x00, 0x00, 0x20, 0x00, 0x00, 0x00, 0x00, 0x00, 0x00, 0x00, 
.................... 0x08, 0x00, 0x02, 0x00, 0x00, 0x00, 0x00, 0x00, 0x10, 0x00, 0x00, 0x00, 0x00, 0x00, 0x00, 0x00, 
.................... 0x08, 0x00, 0x02, 0x00, 0x00, 0x00, 0x00, 0x00, 0x00, 0x00, 0x00, 0x00, 0x00, 0x00, 0x00, 0x00, 
.................... 0x08, 0x00, 0x04, 0x00, 0x00, 0x00, 0x00, 0x00, 0x00, 0x00, 0x00, 0x00, 0x00, 0x00, 0x00, 0x00, 
.................... 0x08, 0x00, 0x08, 0x00, 0x00, 0x00, 0x00, 0x00, 0x00, 0x00, 0x00, 0x00, 0x00, 0x00, 0x00, 0x00, 
.................... 0x08, 0x00, 0x08, 0x00, 0x00, 0x00, 0x00, 0x00, 0x00, 0x00, 0x00, 0x00, 0x00, 0x00, 0x00, 0x00, 
.................... 0x08, 0x00, 0x10, 0x00, 0x00, 0x00, 0x00, 0x00, 0x00, 0x00, 0x00, 0x00, 0x00, 0x00, 0x00, 0x00, 
.................... 0x08, 0x00, 0x20, 0x00, 0x00, 0x00, 0x00, 0x00, 0x00, 0x00, 0x00, 0x00, 0x00, 0x00, 0x00, 0x00, 
.................... 0x08, 0x00, 0x20, 0x00, 0x00, 0x00, 0x00, 0x00, 0x00, 0x00, 0x00, 0x00, 0x00, 0x00, 0x00, 0x00, 
.................... 0x08, 0x00, 0x40, 0x00, 0x00, 0x00, 0x00, 0x00, 0x00, 0x00, 0x00, 0x00, 0x00, 0x00, 0x00, 0x00, 
.................... 0x08, 0x00, 0x40, 0x00, 0x00, 0x00, 0x00, 0x00, 0x00, 0x00, 0x00, 0x00, 0x00, 0x00, 0x00, 0x00, 
.................... 0x08, 0x00, 0x80, 0x00, 0x00, 0x00, 0x00, 0x00, 0x00, 0x00, 0x00, 0x00, 0x00, 0x00, 0x00, 0x00, 
.................... 0x08, 0x01, 0x00, 0x00, 0x00, 0x00, 0x00, 0x00, 0x00, 0x00, 0x00, 0x00, 0x00, 0x00, 0x00, 0x00, 
.................... 0x08, 0x01, 0x00, 0x00, 0x00, 0x00, 0x00, 0x00, 0x00, 0x00, 0x00, 0x00, 0x00, 0x00, 0x00, 0x00, 
.................... 0x0F, 0xFE, 0x00, 0x00, 0x00, 0x00, 0x00, 0x00, 0x00, 0x00, 0x00, 0x00, 0x00, 0x00, 0x00, 0x00, 
.................... 0x08, 0x00, 0x00, 0x00, 0x00, 0x00, 0x00, 0x00, 0x00, 0x00, 0x00, 0x00, 0x00, 0x00, 0x00, 0x00, 
.................... 0x08, 0x00, 0x00, 0x00, 0x00, 0x00, 0x00, 0x00, 0x00, 0x00, 0x00, 0x00, 0x00, 0x00, 0x00, 0x00, 
.................... 0x08, 0x00, 0x00, 0x00, 0x00, 0x00, 0x00, 0x00, 0x00, 0x00, 0x00, 0x00, 0x00, 0x00, 0x00, 0x00, 
.................... 0x08, 0x00, 0x00, 0x00, 0x00, 0x00, 0x00, 0x00, 0x00, 0x02, 0x00, 0x00, 0x00, 0x00, 0x00, 0x00, 
.................... 0x08, 0x00, 0x00, 0x00, 0x00, 0x00, 0x00, 0x00, 0x00, 0x03, 0x00, 0x00, 0x00, 0x00, 0x00, 0x00, 
.................... 0x3F, 0xFF, 0xFF, 0xFF, 0xFF, 0xFF, 0xFF, 0xFF, 0xFF, 0xFF, 0x80, 0x00, 0x00, 0x00, 0x00, 0x00, 
.................... 0x00, 0x00, 0x00, 0x00, 0x00, 0x00, 0x00, 0x00, 0x00, 0x03, 0x00, 0x00, 0x00, 0x00, 0x00, 0x00, 
.................... 0x00, 0x00, 0x00, 0x00, 0x00, 0x00, 0x00, 0x00, 0x00, 0x02, 0x00, 0x00, 0x00, 0x00, 0x00, 0x00, 
.................... 0x00, 0x00, 0x00, 0x00, 0x00, 0x00, 0x00, 0x00, 0x00, 0x00, 0x00, 0x00, 0x00, 0x00, 0x00, 0x00, 
.................... 0x00, 0x00, 0x00, 0x00, 0x00, 0x00, 0x00, 0x00, 0x00, 0x00, 0x00, 0x00, 0x00, 0x00, 0x00, 0x00, 
.................... 0x00, 0x00, 0x00, 0x00, 0x00, 0x00, 0x00, 0x00, 0x00, 0x00, 0x00, 0x00, 0x00, 0x00, 0x00, 0x00, 
.................... 0x00, 0x00, 0x00, 0x00, 0x00, 0x00, 0x00, 0x00, 0x00, 0x00, 0x00, 0x00, 0x00, 0x00, 0x00, 0x00, 
.................... 0x00, 0x00, 0x00, 0x00, 0x00, 0x00, 0x00, 0x00, 0x00, 0x00, 0x00, 0x00, 0x00, 0x00, 0x00, 0x00, 
.................... 0x00, 0x00, 0x00, 0x00, 0x00, 0x00, 0x00, 0x00, 0x00, 0x00, 0x00, 0x00, 0x00, 0x00, 0x00, 0x00, 
.................... 0x00, 0x00, 0x00, 0x00, 0x00, 0x00, 0x00, 0x00, 0x00, 0x00, 0x00, 0x00, 0x00, 0x00, 0x00, 0x00 
.................... }; 
....................  
....................  
....................  
.................... #include "Funciones.h" 
....................  
.................... typedef struct{ 
....................    char Letra[30]; 
....................    char Estado[4]; 
.................... }MENUU; 
....................  
.................... MENUU Menus; 
....................  
....................  
.................... void displayTemperatura(int16 digito, int x, int y, int sombreado, int tamano) 
.................... { 
....................    char voltage[9]; 
....................     
....................    if(sombreado==2) 
*
04746:  MOVLB  7
04748:  MOVF   x57,W
0474A:  SUBLW  02
0474C:  BNZ   47C4
....................    { 
....................       sprintf(voltage, "%04Lu", digito); 
0474E:  MOVLW  07
04750:  MOVLB  4
04752:  MOVWF  x3B
04754:  MOVLW  59
04756:  MOVWF  x3A
04758:  MOVLW  09
0475A:  MOVWF  FE9
0475C:  MOVFF  754,763
04760:  MOVFF  753,762
04764:  MOVLB  0
04766:  RCALL  4688
....................       glcd_rect(x, y, x+(tamano*18), y+(tamano*8), YES, ON); 
04768:  MOVLB  7
0476A:  MOVF   x58,W
0476C:  MULLW  12
0476E:  MOVF   FF3,W
04770:  ADDWF  x55,W
04772:  MOVWF  x62
04774:  MOVF   x58,W
04776:  MULLW  08
04778:  MOVF   FF3,W
0477A:  ADDWF  x56,W
0477C:  MOVWF  x63
0477E:  MOVFF  755,767
04782:  MOVFF  756,768
04786:  MOVFF  762,769
0478A:  MOVWF  x6A
0478C:  MOVLW  01
0478E:  MOVWF  x6B
04790:  MOVWF  x6C
04792:  MOVLB  0
04794:  CALL   2106
....................       glcd_text57(x+1, y+1, voltage, tamano, OFF); 
04798:  MOVLW  01
0479A:  MOVLB  7
0479C:  ADDWF  x55,W
0479E:  MOVWF  x62
047A0:  MOVLW  01
047A2:  ADDWF  x56,W
047A4:  MOVWF  x63
047A6:  MOVFF  762,765
047AA:  MOVWF  x66
047AC:  MOVLW  07
047AE:  MOVWF  x68
047B0:  MOVLW  59
047B2:  MOVWF  x67
047B4:  MOVFF  758,769
047B8:  CLRF   x6A
047BA:  MOVLB  0
047BC:  CALL   1E10
....................    } 
....................    else 
047C0:  BRA    48F8
047C2:  MOVLB  7
....................    { 
....................       sprintf(voltage, "%04Lu", digito); 
047C4:  MOVLW  07
047C6:  MOVLB  4
047C8:  MOVWF  x3B
047CA:  MOVLW  59
047CC:  MOVWF  x3A
047CE:  MOVLW  09
047D0:  MOVWF  FE9
047D2:  MOVFF  754,763
047D6:  MOVFF  753,762
047DA:  MOVLB  0
047DC:  RCALL  4688
....................     
....................       if(sombreado==4) 
047DE:  MOVLB  7
047E0:  MOVF   x57,W
047E2:  SUBLW  04
047E4:  BNZ   4840
....................       { 
....................          glcd_rect(x, y, x+(tamano*16), y+(tamano*8), YES, OFF); 
047E6:  MOVF   x58,W
047E8:  MULLW  10
047EA:  MOVF   FF3,W
047EC:  ADDWF  x55,W
047EE:  MOVWF  x62
047F0:  MOVF   x58,W
047F2:  MULLW  08
047F4:  MOVF   FF3,W
047F6:  ADDWF  x56,W
047F8:  MOVWF  x63
047FA:  MOVFF  755,767
047FE:  MOVFF  756,768
04802:  MOVFF  762,769
04806:  MOVWF  x6A
04808:  MOVLW  01
0480A:  MOVWF  x6B
0480C:  CLRF   x6C
0480E:  MOVLB  0
04810:  CALL   2106
....................          glcd_text57(x+1, y+1, voltage, tamano, ON); 
04814:  MOVLW  01
04816:  MOVLB  7
04818:  ADDWF  x55,W
0481A:  MOVWF  x62
0481C:  MOVLW  01
0481E:  ADDWF  x56,W
04820:  MOVWF  x63
04822:  MOVFF  762,765
04826:  MOVWF  x66
04828:  MOVLW  07
0482A:  MOVWF  x68
0482C:  MOVLW  59
0482E:  MOVWF  x67
04830:  MOVFF  758,769
04834:  MOVLW  01
04836:  MOVWF  x6A
04838:  MOVLB  0
0483A:  CALL   1E10
0483E:  MOVLB  7
....................       } 
....................       if(sombreado==1) 
04840:  DECFSZ x57,W
04842:  BRA    489C
....................          {glcd_rect(x, y, x+(tamano*5), y+(tamano*8), YES, ON);glcd_text57(x+1, y+1, voltage, tamano, OFF);} 
04844:  MOVF   x58,W
04846:  MULLW  05
04848:  MOVF   FF3,W
0484A:  ADDWF  x55,W
0484C:  MOVWF  x62
0484E:  MOVF   x58,W
04850:  MULLW  08
04852:  MOVF   FF3,W
04854:  ADDWF  x56,W
04856:  MOVWF  x63
04858:  MOVFF  755,767
0485C:  MOVFF  756,768
04860:  MOVFF  762,769
04864:  MOVWF  x6A
04866:  MOVLW  01
04868:  MOVWF  x6B
0486A:  MOVWF  x6C
0486C:  MOVLB  0
0486E:  CALL   2106
04872:  MOVLW  01
04874:  MOVLB  7
04876:  ADDWF  x55,W
04878:  MOVWF  x62
0487A:  MOVLW  01
0487C:  ADDWF  x56,W
0487E:  MOVWF  x63
04880:  MOVFF  762,765
04884:  MOVWF  x66
04886:  MOVLW  07
04888:  MOVWF  x68
0488A:  MOVLW  59
0488C:  MOVWF  x67
0488E:  MOVFF  758,769
04892:  CLRF   x6A
04894:  MOVLB  0
04896:  CALL   1E10
0489A:  MOVLB  7
....................       if(sombreado==0) 
0489C:  MOVF   x57,F
0489E:  BNZ   48FA
....................          {glcd_rect(x, y, x+(tamano*5), y+(tamano*8), YES, OFF);glcd_text57(x+1, y+1, voltage, tamano, ON);} 
048A0:  MOVF   x58,W
048A2:  MULLW  05
048A4:  MOVF   FF3,W
048A6:  ADDWF  x55,W
048A8:  MOVWF  x62
048AA:  MOVF   x58,W
048AC:  MULLW  08
048AE:  MOVF   FF3,W
048B0:  ADDWF  x56,W
048B2:  MOVWF  x63
048B4:  MOVFF  755,767
048B8:  MOVFF  756,768
048BC:  MOVFF  762,769
048C0:  MOVWF  x6A
048C2:  MOVLW  01
048C4:  MOVWF  x6B
048C6:  CLRF   x6C
048C8:  MOVLB  0
048CA:  CALL   2106
048CE:  MOVLW  01
048D0:  MOVLB  7
048D2:  ADDWF  x55,W
048D4:  MOVWF  x62
048D6:  MOVLW  01
048D8:  ADDWF  x56,W
048DA:  MOVWF  x63
048DC:  MOVFF  762,765
048E0:  MOVWF  x66
048E2:  MOVLW  07
048E4:  MOVWF  x68
048E6:  MOVLW  59
048E8:  MOVWF  x67
048EA:  MOVFF  758,769
048EE:  MOVLW  01
048F0:  MOVWF  x6A
048F2:  MOVLB  0
048F4:  CALL   1E10
048F8:  MOVLB  7
....................    } 
....................    glcd_update(); 
048FA:  MOVLB  0
048FC:  CALL   1BF4
.................... } 
04900:  RETLW  00
....................  
....................  
.................... void displayTemps(char palabra[30], char digito[3], int x, int y, int sombreado, int tamano) 
.................... {   
....................    if(sombreado==1) 
*
03772:  MOVLB  7
03774:  DECFSZ x57,W
03776:  BRA    383E
....................    { 
....................       //sprintf(voltage, "%03Lu", digito); 
....................       glcd_rect(0, y, 127, y+(tamano*8), YES, ON); 
03778:  MOVF   x58,W
0377A:  MULLW  08
0377C:  MOVF   FF3,W
0377E:  ADDWF  x56,W
03780:  MOVWF  x59
03782:  CLRF   x67
03784:  MOVFF  756,768
03788:  MOVLW  7F
0378A:  MOVWF  x69
0378C:  MOVFF  759,76A
03790:  MOVLW  01
03792:  MOVWF  x6B
03794:  MOVWF  x6C
03796:  MOVLB  0
03798:  CALL   2106
....................       strcpy(Menus.Letra,palabra); 
0379C:  MOVLB  7
0379E:  MOVFF  751,01
037A2:  MOVFF  752,03
037A6:  MOVFF  751,759
037AA:  MOVFF  752,75A
037AE:  MOVLW  04
037B0:  MOVWF  FEA
037B2:  MOVLW  18
037B4:  MOVWF  FE9
037B6:  MOVFF  752,FE2
037BA:  MOVFF  751,FE1
037BE:  MOVF   FE7,F
037C0:  MOVFF  FE6,FEE
037C4:  BNZ   37BE
....................       glcd_text57(x+1, y+1, Menus.Letra, tamano, OFF); 
037C6:  MOVLW  01
037C8:  ADDWF  x55,W
037CA:  MOVWF  x59
037CC:  MOVLW  01
037CE:  ADDWF  x56,W
037D0:  MOVWF  x5A
037D2:  MOVFF  759,765
037D6:  MOVWF  x66
037D8:  MOVLW  04
037DA:  MOVWF  x68
037DC:  MOVLW  18
037DE:  MOVWF  x67
037E0:  MOVFF  758,769
037E4:  CLRF   x6A
037E6:  MOVLB  0
037E8:  CALL   1E10
....................       strcpy(Menus.Letra,digito); 
037EC:  MOVLB  7
037EE:  MOVFF  753,01
037F2:  MOVFF  754,03
037F6:  MOVFF  753,759
037FA:  MOVFF  754,75A
037FE:  MOVLW  04
03800:  MOVWF  FEA
03802:  MOVLW  18
03804:  MOVWF  FE9
03806:  MOVFF  754,FE2
0380A:  MOVFF  753,FE1
0380E:  MOVF   FE7,F
03810:  MOVFF  FE6,FEE
03814:  BNZ   380E
....................       glcd_text57(x+90, y+1, Menus.Letra, tamano, OFF); 
03816:  MOVLW  5A
03818:  ADDWF  x55,W
0381A:  MOVWF  x59
0381C:  MOVLW  01
0381E:  ADDWF  x56,W
03820:  MOVWF  x5A
03822:  MOVFF  759,765
03826:  MOVWF  x66
03828:  MOVLW  04
0382A:  MOVWF  x68
0382C:  MOVLW  18
0382E:  MOVWF  x67
03830:  MOVFF  758,769
03834:  CLRF   x6A
03836:  MOVLB  0
03838:  CALL   1E10
0383C:  MOVLB  7
....................       //strcpy(Menus.Letra,"C"); 
....................       //glcd_text57(x+120, y+1, Menus.Letra, tamano, OFF); 
....................       //glcd_circle(x+115,y-1,1,NO,OFF); 
....................    } 
....................    if(sombreado==0) 
0383E:  MOVF   x57,F
03840:  BNZ   390A
....................    { 
....................       //sprintf(voltage, "%03Lu", digito); 
....................       glcd_rect(0, y, 127, y+(tamano*8), YES, OFF); 
03842:  MOVF   x58,W
03844:  MULLW  08
03846:  MOVF   FF3,W
03848:  ADDWF  x56,W
0384A:  MOVWF  x59
0384C:  CLRF   x67
0384E:  MOVFF  756,768
03852:  MOVLW  7F
03854:  MOVWF  x69
03856:  MOVFF  759,76A
0385A:  MOVLW  01
0385C:  MOVWF  x6B
0385E:  CLRF   x6C
03860:  MOVLB  0
03862:  CALL   2106
....................       strcpy(Menus.Letra,palabra); 
03866:  MOVLB  7
03868:  MOVFF  751,01
0386C:  MOVFF  752,03
03870:  MOVFF  751,759
03874:  MOVFF  752,75A
03878:  MOVLW  04
0387A:  MOVWF  FEA
0387C:  MOVLW  18
0387E:  MOVWF  FE9
03880:  MOVFF  752,FE2
03884:  MOVFF  751,FE1
03888:  MOVF   FE7,F
0388A:  MOVFF  FE6,FEE
0388E:  BNZ   3888
....................       glcd_text57(x+1, y+1, Menus.Letra, tamano, ON); 
03890:  MOVLW  01
03892:  ADDWF  x55,W
03894:  MOVWF  x59
03896:  MOVLW  01
03898:  ADDWF  x56,W
0389A:  MOVWF  x5A
0389C:  MOVFF  759,765
038A0:  MOVWF  x66
038A2:  MOVLW  04
038A4:  MOVWF  x68
038A6:  MOVLW  18
038A8:  MOVWF  x67
038AA:  MOVFF  758,769
038AE:  MOVLW  01
038B0:  MOVWF  x6A
038B2:  MOVLB  0
038B4:  CALL   1E10
....................       strcpy(Menus.Letra,digito); 
038B8:  MOVLB  7
038BA:  MOVFF  753,01
038BE:  MOVFF  754,03
038C2:  MOVFF  753,759
038C6:  MOVFF  754,75A
038CA:  MOVLW  04
038CC:  MOVWF  FEA
038CE:  MOVLW  18
038D0:  MOVWF  FE9
038D2:  MOVFF  754,FE2
038D6:  MOVFF  753,FE1
038DA:  MOVF   FE7,F
038DC:  MOVFF  FE6,FEE
038E0:  BNZ   38DA
....................       glcd_text57(x+90, y+1, Menus.Letra, tamano, ON); 
038E2:  MOVLW  5A
038E4:  ADDWF  x55,W
038E6:  MOVWF  x59
038E8:  MOVLW  01
038EA:  ADDWF  x56,W
038EC:  MOVWF  x5A
038EE:  MOVFF  759,765
038F2:  MOVWF  x66
038F4:  MOVLW  04
038F6:  MOVWF  x68
038F8:  MOVLW  18
038FA:  MOVWF  x67
038FC:  MOVFF  758,769
03900:  MOVLW  01
03902:  MOVWF  x6A
03904:  MOVLB  0
03906:  CALL   1E10
....................       //strcpy(Menus.Letra,"C"); 
....................       //glcd_text57(x+120, y+1, Menus.Letra, tamano, ON); 
....................       //glcd_circle(x+115,y-1,1,NO,ON); 
....................    } 
....................    glcd_update(); 
0390A:  MOVLB  0
0390C:  CALL   1BF4
.................... } 
03910:  RETLW  00
....................  
.................... void displayTT(float adc,int x,int y,int w) { 
....................    char voltage[9];     
....................    sprintf(voltage, "%03.1f",adc); // Converts adc to text 
*
0460E:  MOVLW  07
04610:  MOVLB  4
04612:  MOVWF  x3B
04614:  MOVLW  58
04616:  MOVWF  x3A
04618:  MOVLW  42
0461A:  MOVWF  FE9
0461C:  MOVFF  754,768
04620:  MOVFF  753,767
04624:  MOVFF  752,766
04628:  MOVFF  751,765
0462C:  MOVLW  01
0462E:  MOVLB  7
04630:  MOVWF  x69
04632:  MOVLB  0
04634:  RCALL  43E0
....................    glcd_rect(x, y, x+(w*27), y+(w*8), YES, OFF); 
04636:  MOVLB  7
04638:  MOVF   x57,W
0463A:  MULLW  1B
0463C:  MOVF   FF3,W
0463E:  ADDWF  x55,W
04640:  MOVWF  x61
04642:  MOVF   x57,W
04644:  MULLW  08
04646:  MOVF   FF3,W
04648:  ADDWF  x56,W
0464A:  MOVWF  x62
0464C:  MOVFF  755,767
04650:  MOVFF  756,768
04654:  MOVFF  761,769
04658:  MOVWF  x6A
0465A:  MOVLW  01
0465C:  MOVWF  x6B
0465E:  CLRF   x6C
04660:  MOVLB  0
04662:  CALL   2106
....................    /*glcd_rect(x, y, x+53, y+15, YES, ON);*/glcd_text57(x, y, voltage, w, ON); 
04666:  MOVFF  755,765
0466A:  MOVFF  756,766
0466E:  MOVLW  07
04670:  MOVLB  7
04672:  MOVWF  x68
04674:  MOVLW  58
04676:  MOVWF  x67
04678:  MOVFF  757,769
0467C:  MOVLW  01
0467E:  MOVWF  x6A
04680:  MOVLB  0
04682:  CALL   1E10
.................... } 
04686:  RETLW  00
....................  
.................... void Limpia(int x1,int x2,int y){ 
....................    glcd_rect(x1, y, x2, y+7, YES, OFF); 
.................... } 
....................  
.................... void displayT(float adc,int x,int y,int w) { 
....................    char voltage[9];     
....................    sprintf(voltage, "%03.0f",adc); // Converts adc to text 
*
04594:  MOVLW  07
04596:  MOVLB  4
04598:  MOVWF  x3B
0459A:  MOVLW  5C
0459C:  MOVWF  x3A
0459E:  MOVLW  42
045A0:  MOVWF  FE9
045A2:  MOVFF  758,768
045A6:  MOVFF  757,767
045AA:  MOVFF  756,766
045AE:  MOVFF  755,765
045B2:  MOVLB  7
045B4:  CLRF   x69
045B6:  MOVLB  0
045B8:  RCALL  43E0
....................    glcd_rect(x, y, x+(w*27), y+(w*8), YES, OFF); 
045BA:  MOVLB  7
045BC:  MOVF   x5B,W
045BE:  MULLW  1B
045C0:  MOVF   FF3,W
045C2:  ADDWF  x59,W
045C4:  MOVWF  x65
045C6:  MOVF   x5B,W
045C8:  MULLW  08
045CA:  MOVF   FF3,W
045CC:  ADDWF  x5A,W
045CE:  MOVWF  x66
045D0:  MOVFF  759,767
045D4:  MOVFF  75A,768
045D8:  MOVFF  765,769
045DC:  MOVWF  x6A
045DE:  MOVLW  01
045E0:  MOVWF  x6B
045E2:  CLRF   x6C
045E4:  MOVLB  0
045E6:  CALL   2106
....................    /*glcd_rect(x, y, x+53, y+15, YES, ON);*/glcd_text57(x, y, voltage, w, ON); 
045EA:  MOVFF  759,765
045EE:  MOVFF  75A,766
045F2:  MOVLW  07
045F4:  MOVLB  7
045F6:  MOVWF  x68
045F8:  MOVLW  5C
045FA:  MOVWF  x67
045FC:  MOVFF  75B,769
04600:  MOVLW  01
04602:  MOVWF  x6A
04604:  MOVLB  0
04606:  CALL   1E10
.................... } 
0460A:  GOTO   A01C (RETURN)
....................  
.................... void displayContrasena(int digito, int x, int y, int sombreado) 
.................... { 
....................    char voltage[9]; 
....................    sprintf(voltage, "%i", digito); 
*
023F0:  MOVLW  07
023F2:  MOVLB  4
023F4:  MOVWF  x3B
023F6:  MOVLW  57
023F8:  MOVWF  x3A
023FA:  MOVFF  753,760
023FE:  MOVLW  1F
02400:  MOVLB  7
02402:  MOVWF  x61
02404:  MOVLB  0
02406:  BRA    2310
....................     
....................    if(sombreado==1) 
02408:  MOVLB  7
0240A:  DECFSZ x56,W
0240C:  BRA    245C
....................       {glcd_rect(x, y, x+18, y+24, YES, ON);glcd_text57(x+2, y+1, voltage, 2, OFF);} 
0240E:  MOVLW  12
02410:  ADDWF  x54,W
02412:  MOVWF  x60
02414:  MOVLW  18
02416:  ADDWF  x55,W
02418:  MOVWF  x61
0241A:  MOVFF  754,767
0241E:  MOVFF  755,768
02422:  MOVFF  760,769
02426:  MOVWF  x6A
02428:  MOVLW  01
0242A:  MOVWF  x6B
0242C:  MOVWF  x6C
0242E:  MOVLB  0
02430:  RCALL  2106
02432:  MOVLW  02
02434:  MOVLB  7
02436:  ADDWF  x54,W
02438:  MOVWF  x60
0243A:  MOVLW  01
0243C:  ADDWF  x55,W
0243E:  MOVWF  x61
02440:  MOVFF  760,765
02444:  MOVWF  x66
02446:  MOVLW  07
02448:  MOVWF  x68
0244A:  MOVLW  57
0244C:  MOVWF  x67
0244E:  MOVLW  02
02450:  MOVWF  x69
02452:  CLRF   x6A
02454:  MOVLB  0
02456:  RCALL  1E10
....................    else    
02458:  BRA    24A6
0245A:  MOVLB  7
....................       {glcd_rect(x, y, x+18, y+24, NO, OFF);glcd_text57(x+2, y+1, voltage, 2, ON);} 
0245C:  MOVLW  12
0245E:  ADDWF  x54,W
02460:  MOVWF  x60
02462:  MOVLW  18
02464:  ADDWF  x55,W
02466:  MOVWF  x61
02468:  MOVFF  754,767
0246C:  MOVFF  755,768
02470:  MOVFF  760,769
02474:  MOVWF  x6A
02476:  CLRF   x6B
02478:  CLRF   x6C
0247A:  MOVLB  0
0247C:  RCALL  2106
0247E:  MOVLW  02
02480:  MOVLB  7
02482:  ADDWF  x54,W
02484:  MOVWF  x60
02486:  MOVLW  01
02488:  ADDWF  x55,W
0248A:  MOVWF  x61
0248C:  MOVFF  760,765
02490:  MOVWF  x66
02492:  MOVLW  07
02494:  MOVWF  x68
02496:  MOVLW  57
02498:  MOVWF  x67
0249A:  MOVLW  02
0249C:  MOVWF  x69
0249E:  MOVLW  01
024A0:  MOVWF  x6A
024A2:  MOVLB  0
024A4:  RCALL  1E10
....................  
.................... } 
024A6:  RETLW  00
....................  
.................... void displayMenu(char palabra[30], int x, int y, int sombreado, int tamano) 
.................... { 
....................    strcpy(Menus.Letra,palabra); 
*
021C8:  MOVLB  7
021CA:  MOVFF  751,01
021CE:  MOVFF  752,03
021D2:  MOVFF  751,757
021D6:  MOVFF  752,758
021DA:  MOVLW  04
021DC:  MOVWF  FEA
021DE:  MOVLW  18
021E0:  MOVWF  FE9
021E2:  MOVFF  752,FE2
021E6:  MOVFF  751,FE1
021EA:  MOVF   FE7,F
021EC:  MOVFF  FE6,FEE
021F0:  BNZ   21EA
....................    if(sombreado==2) 
021F2:  MOVF   x55,W
021F4:  SUBLW  02
021F6:  BNZ   2220
....................       {glcd_text57(x+1, y+1, Menus.Letra, tamano, ON);} 
021F8:  MOVLW  01
021FA:  ADDWF  x53,W
021FC:  MOVWF  x57
021FE:  MOVLW  01
02200:  ADDWF  x54,W
02202:  MOVWF  x58
02204:  MOVFF  757,765
02208:  MOVWF  x66
0220A:  MOVLW  04
0220C:  MOVWF  x68
0220E:  MOVLW  18
02210:  MOVWF  x67
02212:  MOVFF  756,769
02216:  MOVLW  01
02218:  MOVWF  x6A
0221A:  MOVLB  0
0221C:  RCALL  1E10
0221E:  MOVLB  7
....................    if(sombreado==1) 
02220:  DECFSZ x55,W
02222:  BRA    226E
....................       {glcd_rect(0, y, 127, y+(tamano*8), YES, ON);glcd_text57(x+1, y+1, Menus.Letra, tamano, OFF);} 
02224:  MOVF   x56,W
02226:  MULLW  08
02228:  MOVF   FF3,W
0222A:  ADDWF  x54,W
0222C:  MOVWF  x57
0222E:  CLRF   x67
02230:  MOVFF  754,768
02234:  MOVLW  7F
02236:  MOVWF  x69
02238:  MOVFF  757,76A
0223C:  MOVLW  01
0223E:  MOVWF  x6B
02240:  MOVWF  x6C
02242:  MOVLB  0
02244:  RCALL  2106
02246:  MOVLW  01
02248:  MOVLB  7
0224A:  ADDWF  x53,W
0224C:  MOVWF  x57
0224E:  MOVLW  01
02250:  ADDWF  x54,W
02252:  MOVWF  x58
02254:  MOVFF  757,765
02258:  MOVWF  x66
0225A:  MOVLW  04
0225C:  MOVWF  x68
0225E:  MOVLW  18
02260:  MOVWF  x67
02262:  MOVFF  756,769
02266:  CLRF   x6A
02268:  MOVLB  0
0226A:  RCALL  1E10
0226C:  MOVLB  7
....................    if(sombreado==0) 
0226E:  MOVF   x55,F
02270:  BNZ   22BC
....................       {glcd_rect(0, y, 127, y+(tamano*8), YES, OFF);glcd_text57(x+1, y+1, Menus.Letra, tamano, ON);} 
02272:  MOVF   x56,W
02274:  MULLW  08
02276:  MOVF   FF3,W
02278:  ADDWF  x54,W
0227A:  MOVWF  x57
0227C:  CLRF   x67
0227E:  MOVFF  754,768
02282:  MOVLW  7F
02284:  MOVWF  x69
02286:  MOVFF  757,76A
0228A:  MOVLW  01
0228C:  MOVWF  x6B
0228E:  CLRF   x6C
02290:  MOVLB  0
02292:  RCALL  2106
02294:  MOVLW  01
02296:  MOVLB  7
02298:  ADDWF  x53,W
0229A:  MOVWF  x57
0229C:  MOVLW  01
0229E:  ADDWF  x54,W
022A0:  MOVWF  x58
022A2:  MOVFF  757,765
022A6:  MOVWF  x66
022A8:  MOVLW  04
022AA:  MOVWF  x68
022AC:  MOVLW  18
022AE:  MOVWF  x67
022B0:  MOVFF  756,769
022B4:  MOVLW  01
022B6:  MOVWF  x6A
022B8:  MOVLB  0
022BA:  RCALL  1E10
....................    glcd_update(); 
022BC:  MOVLB  0
022BE:  RCALL  1BF4
.................... } 
022C0:  RETLW  00
....................  
.................... void displayTiempo(int digito, int x, int y, int sombreado, int tamano) 
.................... { 
....................    char voltage[9]; 
....................     
....................    if(sombreado==2) 
*
03998:  MOVLB  7
0399A:  MOVF   x54,W
0399C:  SUBLW  02
0399E:  BNZ   3A14
....................    { 
....................       sprintf(voltage, "%03u", digito); 
039A0:  MOVLW  07
039A2:  MOVLB  4
039A4:  MOVWF  x3B
039A6:  MOVLW  56
039A8:  MOVWF  x3A
039AA:  MOVFF  751,75F
039AE:  MOVLW  03
039B0:  MOVLB  7
039B2:  MOVWF  x60
039B4:  MOVLB  0
039B6:  RCALL  3912
....................       glcd_rect(x, y, x+(tamano*18), y+(tamano*8), YES, ON); 
039B8:  MOVLB  7
039BA:  MOVF   x55,W
039BC:  MULLW  12
039BE:  MOVF   FF3,W
039C0:  ADDWF  x52,W
039C2:  MOVWF  x5F
039C4:  MOVF   x55,W
039C6:  MULLW  08
039C8:  MOVF   FF3,W
039CA:  ADDWF  x53,W
039CC:  MOVWF  x60
039CE:  MOVFF  752,767
039D2:  MOVFF  753,768
039D6:  MOVFF  75F,769
039DA:  MOVWF  x6A
039DC:  MOVLW  01
039DE:  MOVWF  x6B
039E0:  MOVWF  x6C
039E2:  MOVLB  0
039E4:  CALL   2106
....................       glcd_text57(x+1, y+1, voltage, tamano, OFF); 
039E8:  MOVLW  01
039EA:  MOVLB  7
039EC:  ADDWF  x52,W
039EE:  MOVWF  x5F
039F0:  MOVLW  01
039F2:  ADDWF  x53,W
039F4:  MOVWF  x60
039F6:  MOVFF  75F,765
039FA:  MOVWF  x66
039FC:  MOVLW  07
039FE:  MOVWF  x68
03A00:  MOVLW  56
03A02:  MOVWF  x67
03A04:  MOVFF  755,769
03A08:  CLRF   x6A
03A0A:  MOVLB  0
03A0C:  CALL   1E10
....................    } 
....................    else 
03A10:  BRA    3AE6
03A12:  MOVLB  7
....................    { 
....................       sprintf(voltage, "%u", digito); 
03A14:  MOVLW  07
03A16:  MOVLB  4
03A18:  MOVWF  x3B
03A1A:  MOVLW  56
03A1C:  MOVWF  x3A
03A1E:  MOVFF  751,75F
03A22:  MOVLW  1B
03A24:  MOVLB  7
03A26:  MOVWF  x60
03A28:  MOVLB  0
03A2A:  RCALL  3912
....................     
....................       if(sombreado==1) 
03A2C:  MOVLB  7
03A2E:  DECFSZ x54,W
03A30:  BRA    3A8A
....................          {glcd_rect(x, y, x+(tamano*5), y+(tamano*8), YES, ON);glcd_text57(x+1, y+1, voltage, tamano, OFF);} 
03A32:  MOVF   x55,W
03A34:  MULLW  05
03A36:  MOVF   FF3,W
03A38:  ADDWF  x52,W
03A3A:  MOVWF  x5F
03A3C:  MOVF   x55,W
03A3E:  MULLW  08
03A40:  MOVF   FF3,W
03A42:  ADDWF  x53,W
03A44:  MOVWF  x60
03A46:  MOVFF  752,767
03A4A:  MOVFF  753,768
03A4E:  MOVFF  75F,769
03A52:  MOVWF  x6A
03A54:  MOVLW  01
03A56:  MOVWF  x6B
03A58:  MOVWF  x6C
03A5A:  MOVLB  0
03A5C:  CALL   2106
03A60:  MOVLW  01
03A62:  MOVLB  7
03A64:  ADDWF  x52,W
03A66:  MOVWF  x5F
03A68:  MOVLW  01
03A6A:  ADDWF  x53,W
03A6C:  MOVWF  x60
03A6E:  MOVFF  75F,765
03A72:  MOVWF  x66
03A74:  MOVLW  07
03A76:  MOVWF  x68
03A78:  MOVLW  56
03A7A:  MOVWF  x67
03A7C:  MOVFF  755,769
03A80:  CLRF   x6A
03A82:  MOVLB  0
03A84:  CALL   1E10
03A88:  MOVLB  7
....................       if(sombreado==0) 
03A8A:  MOVF   x54,F
03A8C:  BNZ   3AE8
....................          {glcd_rect(x, y, x+(tamano*5), y+(tamano*8), YES, OFF);glcd_text57(x+1, y+1, voltage, tamano, ON);} 
03A8E:  MOVF   x55,W
03A90:  MULLW  05
03A92:  MOVF   FF3,W
03A94:  ADDWF  x52,W
03A96:  MOVWF  x5F
03A98:  MOVF   x55,W
03A9A:  MULLW  08
03A9C:  MOVF   FF3,W
03A9E:  ADDWF  x53,W
03AA0:  MOVWF  x60
03AA2:  MOVFF  752,767
03AA6:  MOVFF  753,768
03AAA:  MOVFF  75F,769
03AAE:  MOVWF  x6A
03AB0:  MOVLW  01
03AB2:  MOVWF  x6B
03AB4:  CLRF   x6C
03AB6:  MOVLB  0
03AB8:  CALL   2106
03ABC:  MOVLW  01
03ABE:  MOVLB  7
03AC0:  ADDWF  x52,W
03AC2:  MOVWF  x5F
03AC4:  MOVLW  01
03AC6:  ADDWF  x53,W
03AC8:  MOVWF  x60
03ACA:  MOVFF  75F,765
03ACE:  MOVWF  x66
03AD0:  MOVLW  07
03AD2:  MOVWF  x68
03AD4:  MOVLW  56
03AD6:  MOVWF  x67
03AD8:  MOVFF  755,769
03ADC:  MOVLW  01
03ADE:  MOVWF  x6A
03AE0:  MOVLB  0
03AE2:  CALL   1E10
03AE6:  MOVLB  7
....................    } 
....................    glcd_update(); 
03AE8:  MOVLB  0
03AEA:  CALL   1BF4
.................... } 
03AEE:  RETLW  00
....................  
.................... void glcd_imagen(int8 x) 
.................... { 
....................    char i,j; 
....................    signed char k;  
....................     
....................    if(x==5){ 
*
03674:  MOVLB  7
03676:  MOVF   x51,W
03678:  SUBLW  05
0367A:  BNZ   372C
....................    for( i = 0 ; i < 64 ; i ++ ) 
0367C:  CLRF   x52
0367E:  MOVF   x52,W
03680:  SUBLW  3F
03682:  BNC   372C
....................    {   
....................       for( j = 0 ; j < 16 ; j ++) 
03684:  CLRF   x53
03686:  MOVF   x53,W
03688:  SUBLW  0F
0368A:  BNC   3728
....................       {     
....................          for(k=7;k>-1;k--) 
0368C:  MOVLW  07
0368E:  MOVWF  x54
03690:  MOVF   x54,W
03692:  XORLW  80
03694:  SUBLW  7F
03696:  BC    3724
03698:  CLRF   17
0369A:  BTFSC  FF2.7
0369C:  BSF    17.7
0369E:  BCF    FF2.7
....................          {       
....................             if( bit_test(Proceso[i][j] ,7-k ))  
036A0:  CLRF   x8C
036A2:  MOVFF  752,78B
036A6:  CLRF   x8E
036A8:  MOVLW  10
036AA:  MOVWF  x8D
036AC:  MOVLB  0
036AE:  CALL   1532
036B2:  BTFSC  17.7
036B4:  BSF    FF2.7
036B6:  MOVFF  02,756
036BA:  MOVFF  01,755
036BE:  MOVLB  7
036C0:  MOVF   x53,W
036C2:  ADDWF  01,W
036C4:  MOVWF  01
036C6:  MOVLW  00
036C8:  ADDWFC 02,W
036CA:  MOVWF  03
036CC:  MOVF   01,W
036CE:  MOVFF  FF2,755
036D2:  BCF    FF2.7
036D4:  MOVFF  03,FF7
036D8:  MOVLB  0
036DA:  CALL   02C2
036DE:  MOVLB  7
036E0:  BTFSC  x55.7
036E2:  BSF    FF2.7
036E4:  MOVWF  x55
036E6:  MOVLW  07
036E8:  BSF    FD8.0
036EA:  SUBFWB x54,W
036EC:  MOVWF  x56
036EE:  MOVFF  755,00
036F2:  MOVF   x56,W
036F4:  MOVWF  01
036F6:  BZ    3700
036F8:  BCF    FD8.0
036FA:  RRCF   00,F
036FC:  DECFSZ 01,F
036FE:  BRA    36F8
03700:  BTFSS  00.0
03702:  BRA    3720
....................                glcd_pixel( j*8+k,i, ON ); 
03704:  MOVF   x53,W
03706:  MULLW  08
03708:  MOVF   FF3,W
0370A:  ADDWF  x54,W
0370C:  MOVWF  x55
0370E:  MOVWF  x82
03710:  MOVFF  752,783
03714:  MOVLW  01
03716:  MOVWF  x84
03718:  MOVLB  0
0371A:  CALL   1D54
0371E:  MOVLB  7
....................          }   
03720:  DECF   x54,F
03722:  BRA    3690
....................       } 
03724:  INCF   x53,F
03726:  BRA    3686
....................    } 
03728:  INCF   x52,F
0372A:  BRA    367E
....................    } 
....................     
.................... } 
0372C:  MOVLB  0
0372E:  RETLW  00
....................  
.................... void CuadroCalentando(short estado){ 
....................    if(estado){ 
03730:  MOVLB  7
03732:  MOVF   x51,F
03734:  BZ    3756
....................       glcd_rect(15, 18, 30, 53, NO, ON); 
03736:  MOVLW  0F
03738:  MOVWF  x67
0373A:  MOVLW  12
0373C:  MOVWF  x68
0373E:  MOVLW  1E
03740:  MOVWF  x69
03742:  MOVLW  35
03744:  MOVWF  x6A
03746:  CLRF   x6B
03748:  MOVLW  01
0374A:  MOVWF  x6C
0374C:  MOVLB  0
0374E:  CALL   2106
....................    }else{ 
03752:  BRA    3770
03754:  MOVLB  7
....................       glcd_rect(15, 18, 30, 53, NO, OFF); 
03756:  MOVLW  0F
03758:  MOVWF  x67
0375A:  MOVLW  12
0375C:  MOVWF  x68
0375E:  MOVLW  1E
03760:  MOVWF  x69
03762:  MOVLW  35
03764:  MOVWF  x6A
03766:  CLRF   x6B
03768:  CLRF   x6C
0376A:  MOVLB  0
0376C:  CALL   2106
....................    } 
.................... } 
03770:  RETLW  00
....................  
.................... void CuadroEsterilizando(short estado){ 
....................    if(estado){ 
*
03F08:  MOVLB  7
03F0A:  MOVF   x51,F
03F0C:  BZ    3F2E
....................       glcd_rect(25, 18, 60, 26, NO, ON); 
03F0E:  MOVLW  19
03F10:  MOVWF  x67
03F12:  MOVLW  12
03F14:  MOVWF  x68
03F16:  MOVLW  3C
03F18:  MOVWF  x69
03F1A:  MOVLW  1A
03F1C:  MOVWF  x6A
03F1E:  CLRF   x6B
03F20:  MOVLW  01
03F22:  MOVWF  x6C
03F24:  MOVLB  0
03F26:  CALL   2106
....................    }else{ 
03F2A:  BRA    3F48
03F2C:  MOVLB  7
....................       glcd_rect(25, 18, 60, 26, NO, OFF); 
03F2E:  MOVLW  19
03F30:  MOVWF  x67
03F32:  MOVLW  12
03F34:  MOVWF  x68
03F36:  MOVLW  3C
03F38:  MOVWF  x69
03F3A:  MOVLW  1A
03F3C:  MOVWF  x6A
03F3E:  CLRF   x6B
03F40:  CLRF   x6C
03F42:  MOVLB  0
03F44:  CALL   2106
....................    } 
.................... } 
03F48:  RETLW  00
....................  
.................... void CuadroDesfogando(short estado){ 
....................    if(estado){ 
*
03EC6:  MOVLB  7
03EC8:  MOVF   x51,F
03ECA:  BZ    3EEC
....................       glcd_rect(55, 18, 68, 53, NO, ON); 
03ECC:  MOVLW  37
03ECE:  MOVWF  x67
03ED0:  MOVLW  12
03ED2:  MOVWF  x68
03ED4:  MOVLW  44
03ED6:  MOVWF  x69
03ED8:  MOVLW  35
03EDA:  MOVWF  x6A
03EDC:  CLRF   x6B
03EDE:  MOVLW  01
03EE0:  MOVWF  x6C
03EE2:  MOVLB  0
03EE4:  CALL   2106
....................    }else{ 
03EE8:  BRA    3F06
03EEA:  MOVLB  7
....................       glcd_rect(55, 18, 68, 53, NO, OFF); 
03EEC:  MOVLW  37
03EEE:  MOVWF  x67
03EF0:  MOVLW  12
03EF2:  MOVWF  x68
03EF4:  MOVLW  44
03EF6:  MOVWF  x69
03EF8:  MOVLW  35
03EFA:  MOVWF  x6A
03EFC:  CLRF   x6B
03EFE:  CLRF   x6C
03F00:  MOVLB  0
03F02:  CALL   2106
....................    } 
.................... } 
03F06:  RETLW  00
....................  
.................... void BorraStatus(){ 
....................    glcd_rect(0, 55, 127, 63, YES, OFF); 
*
03EA8:  MOVLB  7
03EAA:  CLRF   x67
03EAC:  MOVLW  37
03EAE:  MOVWF  x68
03EB0:  MOVLW  7F
03EB2:  MOVWF  x69
03EB4:  MOVLW  3F
03EB6:  MOVWF  x6A
03EB8:  MOVLW  01
03EBA:  MOVWF  x6B
03EBC:  CLRF   x6C
03EBE:  MOVLB  0
03EC0:  CALL   2106
.................... } 
03EC4:  RETLW  00
....................  
....................  
....................  
.................... #define   UP            !input(PIN_A4) 
.................... #define   DOWN          !input(PIN_A5) 
.................... #define   RIGHT         !input(PIN_E0) 
.................... #define   LEFT          !input(PIN_E1) 
....................  
.................... #define   DOOR          !input(PIN_E2) 
.................... #define   STOP          !input(PIN_B6) 
.................... #define   TERM          !input(PIN_B7) 
....................  
.................... #define   HIGH          input(PIN_C0) 
.................... #define   LOW           input(PIN_C1) 
....................  
.................... #define   Display_on       output_bit(PIN_C7,1) 
.................... #define   Display_off      output_bit(PIN_C7,0) 
....................  
.................... #define   SSR_on           output_bit(PIN_C2,0) 
.................... #define   SSR_off          output_bit(PIN_C2,1) 
....................  
.................... #define   Desfogue_on      output_bit(PIN_C5,0) 
.................... #define   Desfogue_off     output_bit(PIN_C5,1) 
....................  
.................... #define   AguaIn_on        output_bit(PIN_C6,0) 
.................... #define   AguaIn_off       output_bit(PIN_C6,1) 
....................  
.................... //Comunicacion//------------------------ 
.................... byte txbuf[0X20]; 
.................... byte SlaveA0Tx[0X20]; 
.................... byte dato=0;            //Contendr la informacin a enviar o recibir 
.................... byte direccion=0;       //Contendr la direccin del esclavo en el bus I2C 
.................... byte posicion=0;        //Contendr la posicin en el buffer de memoria del esclavo donde se almacenar o de donde se recuperar el dato 
.................... byte ByteConfig1=0,ByteConfig2=0,ByteConfig3=0; 
....................  
.................... //Alarmas//--------------------- 
.................... short AlarmaTiempoProlongado=OFF,AlarmaSobreTemperatura=OFF,AlarmaLlenado=OFF,AlarmaTermostato=OFF,AlarmaPuerta=OFF,AlarmaEmergencia=OFF; 
....................  
.................... //Banderas//-------------------- 
.................... short IniciaLlenado=OFF,CalderinLleno=OFF,IniciaCiclo=OFF,Esterilizando=OFF,Secando=OFF,SensadoNivel=OFF,Desfogando=OFF,DesfogueSuave=OFF; 
.................... short EstadoDesfogue=OFF,EstadoAgua=OFF,EstadoSSR=OFF,PruebaEstados=OFF,disp_Guarda=OFF; 
....................  
.................... //Tiempos//--------------------- 
.................... int16 TiempoCiclo=0,TiempoLlenado=0,TiempoSensadoNivel=0; 
.................... signed int  Testerilizacion[4]={0,0,0,0};   // Tiempo transcurrido 
.................... signed int  Testerilizacionp[4]={0,0,0,0};   // Tiempo transcurrido 
.................... signed int  Tsecado[4]={0,0,0,0};   // Tiempo transcurrido 
.................... signed int  Tsecadop[4]={0,0,0,0};   // Tiempo transcurrido 
....................  
.................... //Control//------------------------ 
.................... float promedio[80]={0.0,0.0,0.0,0.0,0.0,0.0,0.0,0.0,0.0,0.0,0.0,0.0,0.0,0.0,0.0,0.0,0.0,0.0,0.0,0.0,0.0,0.0,0.0,0.0,0.0,0.0,0.0,0.0,0.0,0.0,0.0,0.0,0.0,0.0,0.0,0.0,0.0,0.0,0.0,0.0,0.0,0.0,0.0,0.0,0.0,0.0,0.0,0.0,0.0,0.0,0.0,0.0,0.0,0.0,0.0,0.0,0.0,0.0,0.0,0.0,0.0,0.0,0.0,0.0}; 
.................... float PromPresion[20]={0.0,0.0,0.0,0.0,0.0,0.0,0.0,0.0,0.0,0.0,0.0,0.0,0.0,0.0,0.0,0.0,0.0,0.0,0.0,0.0}; 
.................... float PromPresionp[20]={0.0,0.0,0.0,0.0,0.0,0.0,0.0,0.0,0.0,0.0,0.0,0.0,0.0,0.0,0.0,0.0,0.0,0.0,0.0,0.0}; 
.................... float Gain=40.2,RPT100=0.5,Temporal=0.0; 
.................... float X[2]={0.0,0.0}; 
.................... float promediopresion=0.0,Aumento=0.0,promediopresionp=0.0; 
.................... int8 h=0,l=0,Ajuste=0,Ajusten=0,MediaMovil=20; 
.................... float V0=0.0,R1=6110.0,Pt,Tciclo=10.0,Tpulso=0.0,error=0.0,Prom=0.0,Temperature=0.0,tmp=0.0,Ganancia=25.0,Ganancia2=20.0,desvio=1.0; 
.................... float V1=0.0,Presion=0.0,V2=0.0,Presionp=0.0; 
.................... float Temperatura=0.0,K=0.006429; 
.................... float a=0.0011,b=2.3302,c=-244.0723; 
.................... int8 Integral=0,Derivativo=0; 
....................  
.................... //Varios//-------------------------------- 
.................... char kpa[]="kPa"; 
.................... short Flanco=0,Flanco1=0,Flanco2=0,visual=1,desfoguelento=0,Lectura=0; 
.................... short disp_Stop=0; 
.................... int8 Control=0; 
.................... int8 Menu=0, unidad=1,i=0,Prevacio=10,flagprevacio=10,Calentar=10; 
.................... int8 Setpoint=0,Atmosferica=71,fin_ciclo=0,Opcion=1,tiempo_esterilizacion=0,tiempo_secado=0,Exhaust=0; 
.................... int16 tiempos=0,tiempos3=0,tiempoctrl=0,Minutos=15,Nivel=0,tiempo_desfogue=0,tinicio=0,PresionCamara=0,PresionPreCamara=0; 
.................... float ADC_Pt100=0.0; 
.................... signed int  Contrasena[4]={0,0,0,0};      // Contrasena de 4 digitos 
.................... signed int  Password[4]={0,0,0,0};        // Contrasena Almacenada de 4 digitos 
.................... char datoRx[11]; 
.................... int8 r=0,t=0,r2=0,t2=0,TiempoControl=0,Frio=0,llena=0,PulsoPositivo=10,PulsosVacio=0,flag_pulso=0; 
.................... int8 Resistencia=0,MotorPuerta=0,EVEntradaAgua=0,BombaAgua=0; 
.................... int8 NivelReservorio=0,Presostato=0,y=0,Chksum=0,flagvacio=10; 
.................... int16 t_exhaust=0,tagua=0,treservorio=0,PresionCamara16=0,PresionPreCamara16=0,tvacio=0; 
....................     
.................... //Funciones//---------------------------- 
.................... void MuestraTiemposProgramados(){ 
.................... // Muestra Valor de esterilizacion programado. 
....................    displayTiempo(Testerilizacionp[3],36,0,0,1);displayTiempo(Testerilizacionp[2],42,0,0,1); 
*
03D68:  MOVFF  492,751
03D6C:  MOVLW  24
03D6E:  MOVLB  7
03D70:  MOVWF  x52
03D72:  CLRF   x53
03D74:  CLRF   x54
03D76:  MOVLW  01
03D78:  MOVWF  x55
03D7A:  MOVLB  0
03D7C:  RCALL  3998
03D7E:  MOVFF  491,751
03D82:  MOVLW  2A
03D84:  MOVLB  7
03D86:  MOVWF  x52
03D88:  CLRF   x53
03D8A:  CLRF   x54
03D8C:  MOVLW  01
03D8E:  MOVWF  x55
03D90:  MOVLB  0
03D92:  RCALL  3998
....................    strcpy(Menus.Letra,":");displayMenu(Menus.Letra,49,0,2,1);  
03D94:  MOVLW  04
03D96:  MOVWF  FEA
03D98:  MOVLW  18
03D9A:  MOVWF  FE9
03D9C:  MOVFF  FF2,751
03DA0:  BCF    FF2.7
03DA2:  MOVLW  00
03DA4:  CALL   06DE
03DA8:  TBLRD*-
03DAA:  TBLRD*+
03DAC:  MOVF   FF5,W
03DAE:  MOVWF  FEE
03DB0:  IORLW  00
03DB2:  BNZ   3DAA
03DB4:  MOVLB  7
03DB6:  BTFSC  x51.7
03DB8:  BSF    FF2.7
03DBA:  MOVLW  04
03DBC:  MOVWF  x52
03DBE:  MOVLW  18
03DC0:  MOVWF  x51
03DC2:  MOVLW  31
03DC4:  MOVWF  x53
03DC6:  CLRF   x54
03DC8:  MOVLW  02
03DCA:  MOVWF  x55
03DCC:  MOVLW  01
03DCE:  MOVWF  x56
03DD0:  MOVLB  0
03DD2:  CALL   21C8
....................    displayTiempo(Testerilizacionp[1],54,0,0,1);displayTiempo(Testerilizacionp[0],60,0,0,1); 
03DD6:  MOVFF  490,751
03DDA:  MOVLW  36
03DDC:  MOVLB  7
03DDE:  MOVWF  x52
03DE0:  CLRF   x53
03DE2:  CLRF   x54
03DE4:  MOVLW  01
03DE6:  MOVWF  x55
03DE8:  MOVLB  0
03DEA:  RCALL  3998
03DEC:  MOVFF  48F,751
03DF0:  MOVLW  3C
03DF2:  MOVLB  7
03DF4:  MOVWF  x52
03DF6:  CLRF   x53
03DF8:  CLRF   x54
03DFA:  MOVLW  01
03DFC:  MOVWF  x55
03DFE:  MOVLB  0
03E00:  RCALL  3998
.................... // Muestra tiempo de secado programado. 
....................    displayTiempo(Tsecadop[3],36,8,0,1);displayTiempo(Tsecadop[2],42,8,0,1); 
03E02:  MOVFF  49A,751
03E06:  MOVLW  24
03E08:  MOVLB  7
03E0A:  MOVWF  x52
03E0C:  MOVLW  08
03E0E:  MOVWF  x53
03E10:  CLRF   x54
03E12:  MOVLW  01
03E14:  MOVWF  x55
03E16:  MOVLB  0
03E18:  RCALL  3998
03E1A:  MOVFF  499,751
03E1E:  MOVLW  2A
03E20:  MOVLB  7
03E22:  MOVWF  x52
03E24:  MOVLW  08
03E26:  MOVWF  x53
03E28:  CLRF   x54
03E2A:  MOVLW  01
03E2C:  MOVWF  x55
03E2E:  MOVLB  0
03E30:  RCALL  3998
....................    strcpy(Menus.Letra,":");displayMenu(Menus.Letra,49,8,2,1);  
03E32:  MOVLW  04
03E34:  MOVWF  FEA
03E36:  MOVLW  18
03E38:  MOVWF  FE9
03E3A:  MOVFF  FF2,751
03E3E:  BCF    FF2.7
03E40:  MOVLW  00
03E42:  CALL   06DE
03E46:  TBLRD*-
03E48:  TBLRD*+
03E4A:  MOVF   FF5,W
03E4C:  MOVWF  FEE
03E4E:  IORLW  00
03E50:  BNZ   3E48
03E52:  MOVLB  7
03E54:  BTFSC  x51.7
03E56:  BSF    FF2.7
03E58:  MOVLW  04
03E5A:  MOVWF  x52
03E5C:  MOVLW  18
03E5E:  MOVWF  x51
03E60:  MOVLW  31
03E62:  MOVWF  x53
03E64:  MOVLW  08
03E66:  MOVWF  x54
03E68:  MOVLW  02
03E6A:  MOVWF  x55
03E6C:  MOVLW  01
03E6E:  MOVWF  x56
03E70:  MOVLB  0
03E72:  CALL   21C8
....................    displayTiempo(Tsecadop[1],54,8,0,1);displayTiempo(Tsecadop[0],60,8,0,1); 
03E76:  MOVFF  498,751
03E7A:  MOVLW  36
03E7C:  MOVLB  7
03E7E:  MOVWF  x52
03E80:  MOVLW  08
03E82:  MOVWF  x53
03E84:  CLRF   x54
03E86:  MOVLW  01
03E88:  MOVWF  x55
03E8A:  MOVLB  0
03E8C:  RCALL  3998
03E8E:  MOVFF  497,751
03E92:  MOVLW  3C
03E94:  MOVLB  7
03E96:  MOVWF  x52
03E98:  MOVLW  08
03E9A:  MOVWF  x53
03E9C:  CLRF   x54
03E9E:  MOVLW  01
03EA0:  MOVWF  x55
03EA2:  MOVLB  0
03EA4:  RCALL  3998
.................... } 
03EA6:  RETLW  00
....................  
.................... void ActualizaRecta(){ 
....................    X[y]=Temperature; 
*
02500:  MOVLB  7
02502:  MOVF   x42,W
02504:  MULLW  04
02506:  MOVF   FF3,W
02508:  CLRF   03
0250A:  ADDLW  87
0250C:  MOVWF  FE9
0250E:  MOVLW  06
02510:  ADDWFC 03,W
02512:  MOVWF  FEA
02514:  MOVFF  6BC,FEF
02518:  MOVFF  6BD,FEC
0251C:  MOVFF  6BE,FEC
02520:  MOVFF  6BF,FEC
....................    y++; 
02524:  INCF   x42,F
....................    if(y>=2) 
02526:  MOVF   x42,W
02528:  SUBLW  01
0252A:  BC    2568
....................    { 
....................       y=0; 
0252C:  CLRF   x42
....................       Aumento=X[1]-X[0]; 
0252E:  BSF    FD8.1
02530:  MOVFF  68E,759
02534:  MOVFF  68D,758
02538:  MOVFF  68C,757
0253C:  MOVFF  68B,756
02540:  MOVFF  68A,75D
02544:  MOVFF  689,75C
02548:  MOVFF  688,75B
0254C:  MOVFF  687,75A
02550:  MOVLB  0
02552:  CALL   1872
02556:  MOVFF  03,696
0255A:  MOVFF  02,695
0255E:  MOVFF  01,694
02562:  MOVFF  00,693
02566:  MOVLB  7
....................    } 
.................... } 
02568:  MOVLB  0
0256A:  GOTO   278E (RETURN)
....................  
.................... // Funcion para conversor analogo-digital 
.................... float sensores(int x){ 
.................... float y;set_adc_channel(x);delay_ms(1);y=read_adc();return (y); 
*
024A8:  MOVLB  7
024AA:  RLCF   x52,W
024AC:  MOVWF  00
024AE:  RLCF   00,F
024B0:  MOVLW  FC
024B2:  ANDWF  00,F
024B4:  MOVFF  00,01
024B8:  MOVF   FC2,W
024BA:  ANDLW  C3
024BC:  IORWF  00,W
024BE:  MOVWF  FC2
024C0:  MOVLW  01
024C2:  MOVWF  x57
024C4:  MOVLB  0
024C6:  CALL   16B6
024CA:  BSF    FC2.1
024CC:  BTFSC  FC2.1
024CE:  BRA    24CC
024D0:  MOVFF  FC4,758
024D4:  MOVFF  FC3,757
024D8:  MOVLB  0
024DA:  CALL   16DE
024DE:  MOVFF  03,756
024E2:  MOVFF  02,755
024E6:  MOVFF  01,754
024EA:  MOVFF  00,753
024EE:  MOVFF  753,00
024F2:  MOVFF  754,01
024F6:  MOVFF  755,02
024FA:  MOVFF  756,03
.................... } 
024FE:  RETLW  00
.................... float LeerPT100(int media) 
.................... { 
....................    Prom=0.0; 
*
02664:  MOVLB  6
02666:  CLRF   xBB
02668:  CLRF   xBA
0266A:  CLRF   xB9
0266C:  CLRF   xB8
....................    V0 = sensores(0);   //Lectura de Divisor de Voltaje de PT100 con resistencia de 6.18k (+-2%) 
0266E:  MOVLB  7
02670:  CLRF   x52
02672:  MOVLB  0
02674:  RCALL  24A8
02676:  MOVFF  03,6A3
0267A:  MOVFF  02,6A2
0267E:  MOVFF  01,6A1
02682:  MOVFF  00,6A0
....................    V0 = V0/Gain; // Se elimina la ganancia 
02686:  MOVFF  6A3,759
0268A:  MOVFF  6A2,758
0268E:  MOVFF  6A1,757
02692:  MOVFF  6A0,756
02696:  MOVFF  67E,75D
0269A:  MOVFF  67D,75C
0269E:  MOVFF  67C,75B
026A2:  MOVFF  67B,75A
026A6:  CALL   1714
026AA:  MOVFF  03,6A3
026AE:  MOVFF  02,6A2
026B2:  MOVFF  01,6A1
026B6:  MOVFF  00,6A0
....................    Pt=(R1)/((1024.0/V0)-1.0); // Se calcula el valor de la PT100 
026BA:  MOVLB  7
026BC:  CLRF   x59
026BE:  CLRF   x58
026C0:  CLRF   x57
026C2:  MOVLW  89
026C4:  MOVWF  x56
026C6:  MOVFF  6A3,75D
026CA:  MOVFF  6A2,75C
026CE:  MOVFF  6A1,75B
026D2:  MOVFF  6A0,75A
026D6:  MOVLB  0
026D8:  CALL   1714
026DC:  MOVFF  00,752
026E0:  MOVFF  01,753
026E4:  MOVFF  02,754
026E8:  MOVFF  03,755
026EC:  BSF    FD8.1
026EE:  MOVFF  03,759
026F2:  MOVFF  02,758
026F6:  MOVFF  01,757
026FA:  MOVFF  00,756
026FE:  MOVLB  7
02700:  CLRF   x5D
02702:  CLRF   x5C
02704:  CLRF   x5B
02706:  MOVLW  7F
02708:  MOVWF  x5A
0270A:  MOVLB  0
0270C:  CALL   1872
02710:  MOVFF  6A7,759
02714:  MOVFF  6A6,758
02718:  MOVFF  6A5,757
0271C:  MOVFF  6A4,756
02720:  MOVFF  03,75D
02724:  MOVFF  02,75C
02728:  MOVFF  01,75B
0272C:  MOVFF  00,75A
02730:  CALL   1714
02734:  MOVFF  03,6AB
02738:  MOVFF  02,6AA
0273C:  MOVFF  01,6A9
02740:  MOVFF  00,6A8
....................    Pt=Pt-RPT100; //Ajuste de impedancia de cableado de PT100 
02744:  BSF    FD8.1
02746:  MOVFF  6AB,759
0274A:  MOVFF  6AA,758
0274E:  MOVFF  6A9,757
02752:  MOVFF  6A8,756
02756:  MOVFF  682,75D
0275A:  MOVFF  681,75C
0275E:  MOVFF  680,75B
02762:  MOVFF  67F,75A
02766:  CALL   1872
0276A:  MOVFF  03,6AB
0276E:  MOVFF  02,6AA
02772:  MOVFF  01,6A9
02776:  MOVFF  00,6A8
....................    //Temperature=(Pt-100.0)/(0.385);  // Ecuacin determinada por linealizacin en Matlab. Revisar este polinomio.   
....................              
....................    if(l>(media-1)) 
0277A:  MOVLW  01
0277C:  MOVLB  7
0277E:  SUBWF  x51,W
02780:  MOVLB  6
02782:  SUBWF  x9C,W
02784:  BZ    2790
02786:  BNC   2790
....................    {l=0;ActualizaRecta();} 
02788:  CLRF   x9C
0278A:  MOVLB  0
0278C:  BRA    2500
0278E:  MOVLB  6
02790:  CLRF   17
02792:  BTFSC  FF2.7
02794:  BSF    17.7
02796:  BCF    FF2.7
....................    //promedio[l]=Temperature;l++; 
....................    promedio[l]=Pt;l++; 
02798:  MOVLB  7
0279A:  CLRF   x8C
0279C:  MOVFF  69C,78B
027A0:  CLRF   x8E
027A2:  MOVLW  04
027A4:  MOVWF  x8D
027A6:  MOVLB  0
027A8:  CALL   1532
027AC:  BTFSC  17.7
027AE:  BSF    FF2.7
027B0:  MOVF   01,W
027B2:  ADDLW  9B
027B4:  MOVWF  FE9
027B6:  MOVLW  04
027B8:  ADDWFC 02,W
027BA:  MOVWF  FEA
027BC:  MOVFF  6A8,FEF
027C0:  MOVFF  6A9,FEC
027C4:  MOVFF  6AA,FEC
027C8:  MOVFF  6AB,FEC
027CC:  MOVLB  6
027CE:  INCF   x9C,F
....................           
....................    for(h=0;h<media;h++) 
027D0:  CLRF   x9B
027D2:  MOVLB  7
027D4:  MOVF   x51,W
027D6:  MOVLB  6
027D8:  SUBWF  x9B,W
027DA:  BC    2868
027DC:  CLRF   17
027DE:  BTFSC  FF2.7
027E0:  BSF    17.7
027E2:  BCF    FF2.7
....................    { 
....................       Prom+=promedio[h]; 
027E4:  MOVLB  7
027E6:  CLRF   x8C
027E8:  MOVFF  69B,78B
027EC:  CLRF   x8E
027EE:  MOVLW  04
027F0:  MOVWF  x8D
027F2:  MOVLB  0
027F4:  CALL   1532
027F8:  BTFSC  17.7
027FA:  BSF    FF2.7
027FC:  MOVFF  02,03
02800:  MOVF   01,W
02802:  ADDLW  9B
02804:  MOVWF  FE9
02806:  MOVLW  04
02808:  ADDWFC 02,W
0280A:  MOVWF  FEA
0280C:  MOVFF  FEF,00
02810:  MOVFF  FEC,01
02814:  MOVFF  FEC,02
02818:  MOVFF  FEC,03
0281C:  MOVFF  FEA,753
02820:  MOVFF  FE9,752
02824:  BCF    FD8.1
02826:  MOVFF  6BB,759
0282A:  MOVFF  6BA,758
0282E:  MOVFF  6B9,757
02832:  MOVFF  6B8,756
02836:  MOVFF  03,75D
0283A:  MOVFF  02,75C
0283E:  MOVFF  01,75B
02842:  MOVFF  00,75A
02846:  CALL   1872
0284A:  MOVFF  753,FEA
0284E:  MOVFF  752,FE9
02852:  MOVFF  03,6BB
02856:  MOVFF  02,6BA
0285A:  MOVFF  01,6B9
0285E:  MOVFF  00,6B8
....................    }  
02862:  MOVLB  6
02864:  INCF   x9B,F
02866:  BRA    27D2
....................    Prom=Prom/media;    
02868:  MOVLB  7
0286A:  CLRF   x58
0286C:  MOVFF  751,757
02870:  MOVLB  0
02872:  CALL   16DE
02876:  MOVFF  6BB,759
0287A:  MOVFF  6BA,758
0287E:  MOVFF  6B9,757
02882:  MOVFF  6B8,756
02886:  MOVFF  03,75D
0288A:  MOVFF  02,75C
0288E:  MOVFF  01,75B
02892:  MOVFF  00,75A
02896:  CALL   1714
0289A:  MOVFF  03,6BB
0289E:  MOVFF  02,6BA
028A2:  MOVFF  01,6B9
028A6:  MOVFF  00,6B8
....................    //Temperature=(Prom-100.0)/(0.385);  // Ecuacin determinada por linealizacin en Matlab. Revisar este polinomio.   
....................    Temperature=((Prom*Prom)*a)+(Prom*b)+c;  // Ecuacin determinada por linealizacin en Matlab. Revisar este polinomio. 
028AA:  MOVFF  6BB,775
028AE:  MOVFF  6BA,774
028B2:  MOVFF  6B9,773
028B6:  MOVFF  6B8,772
028BA:  MOVFF  6BB,779
028BE:  MOVFF  6BA,778
028C2:  MOVFF  6B9,777
028C6:  MOVFF  6B8,776
028CA:  RCALL  256E
028CC:  MOVFF  00,752
028D0:  MOVFF  01,753
028D4:  MOVFF  02,754
028D8:  MOVFF  03,755
028DC:  MOVFF  03,775
028E0:  MOVFF  02,774
028E4:  MOVFF  01,773
028E8:  MOVFF  00,772
028EC:  MOVFF  6EB,779
028F0:  MOVFF  6EA,778
028F4:  MOVFF  6E9,777
028F8:  MOVFF  6E8,776
028FC:  RCALL  256E
028FE:  MOVFF  00,752
02902:  MOVFF  01,753
02906:  MOVFF  02,754
0290A:  MOVFF  03,755
0290E:  MOVFF  6BB,775
02912:  MOVFF  6BA,774
02916:  MOVFF  6B9,773
0291A:  MOVFF  6B8,772
0291E:  MOVFF  6EF,779
02922:  MOVFF  6EE,778
02926:  MOVFF  6ED,777
0292A:  MOVFF  6EC,776
0292E:  RCALL  256E
02930:  BCF    FD8.1
02932:  MOVFF  755,759
02936:  MOVFF  754,758
0293A:  MOVFF  753,757
0293E:  MOVFF  752,756
02942:  MOVFF  03,75D
02946:  MOVFF  02,75C
0294A:  MOVFF  01,75B
0294E:  MOVFF  00,75A
02952:  CALL   1872
02956:  MOVFF  00,752
0295A:  MOVFF  01,753
0295E:  MOVFF  02,754
02962:  MOVFF  03,755
02966:  BCF    FD8.1
02968:  MOVFF  03,759
0296C:  MOVFF  02,758
02970:  MOVFF  01,757
02974:  MOVFF  00,756
02978:  MOVFF  6F3,75D
0297C:  MOVFF  6F2,75C
02980:  MOVFF  6F1,75B
02984:  MOVFF  6F0,75A
02988:  CALL   1872
0298C:  MOVFF  03,6BF
02990:  MOVFF  02,6BE
02994:  MOVFF  01,6BD
02998:  MOVFF  00,6BC
....................    Temperature+=((float)Ajuste-(float)Ajusten); 
0299C:  MOVLB  7
0299E:  CLRF   x58
029A0:  MOVFF  69D,757
029A4:  MOVLB  0
029A6:  CALL   16DE
029AA:  MOVFF  00,752
029AE:  MOVFF  01,753
029B2:  MOVFF  02,754
029B6:  MOVFF  03,755
029BA:  MOVLB  7
029BC:  CLRF   x58
029BE:  MOVFF  69E,757
029C2:  MOVLB  0
029C4:  CALL   16DE
029C8:  BSF    FD8.1
029CA:  MOVFF  755,759
029CE:  MOVFF  754,758
029D2:  MOVFF  753,757
029D6:  MOVFF  752,756
029DA:  MOVFF  03,75D
029DE:  MOVFF  02,75C
029E2:  MOVFF  01,75B
029E6:  MOVFF  00,75A
029EA:  CALL   1872
029EE:  BCF    FD8.1
029F0:  MOVFF  6BF,759
029F4:  MOVFF  6BE,758
029F8:  MOVFF  6BD,757
029FC:  MOVFF  6BC,756
02A00:  MOVFF  03,75D
02A04:  MOVFF  02,75C
02A08:  MOVFF  01,75B
02A0C:  MOVFF  00,75A
02A10:  CALL   1872
02A14:  MOVFF  03,6BF
02A18:  MOVFF  02,6BE
02A1C:  MOVFF  01,6BD
02A20:  MOVFF  00,6BC
....................     
....................    //return Prom; 
....................    return Temperature; 
02A24:  MOVFF  6BC,00
02A28:  MOVFF  6BD,01
02A2C:  MOVFF  6BE,02
02A30:  MOVFF  6BF,03
.................... } 
02A34:  RETLW  00
....................  
.................... float Leer_Sensor_Presion_Camara(int media){ 
....................    promediopresion=0.0; 
*
03288:  MOVLB  6
0328A:  CLRF   x92
0328C:  CLRF   x91
0328E:  CLRF   x90
03290:  CLRF   x8F
....................    V1 = sensores(2);   //Lectura de Divisor de Voltaje de PT100 con resistencia de 1k (+-10%) 
03292:  MOVLW  02
03294:  MOVLB  7
03296:  MOVWF  x52
03298:  MOVLB  0
0329A:  CALL   24A8
0329E:  MOVFF  03,6D3
032A2:  MOVFF  02,6D2
032A6:  MOVFF  01,6D1
032AA:  MOVFF  00,6D0
....................    V1 = V1*(5.0/1024.0); 
032AE:  MOVFF  6D3,775
032B2:  MOVFF  6D2,774
032B6:  MOVFF  6D1,773
032BA:  MOVFF  6D0,772
032BE:  MOVLB  7
032C0:  CLRF   x79
032C2:  CLRF   x78
032C4:  MOVLW  20
032C6:  MOVWF  x77
032C8:  MOVLW  77
032CA:  MOVWF  x76
032CC:  MOVLB  0
032CE:  CALL   256E
032D2:  MOVFF  03,6D3
032D6:  MOVFF  02,6D2
032DA:  MOVFF  01,6D1
032DE:  MOVFF  00,6D0
....................    Presion=(V1-0.2)/(K); 
032E2:  BSF    FD8.1
032E4:  MOVFF  6D3,759
032E8:  MOVFF  6D2,758
032EC:  MOVFF  6D1,757
032F0:  MOVFF  6D0,756
032F4:  MOVLW  CD
032F6:  MOVLB  7
032F8:  MOVWF  x5D
032FA:  MOVLW  CC
032FC:  MOVWF  x5C
032FE:  MOVLW  4C
03300:  MOVWF  x5B
03302:  MOVLW  7C
03304:  MOVWF  x5A
03306:  MOVLB  0
03308:  CALL   1872
0330C:  MOVFF  00,752
03310:  MOVFF  01,753
03314:  MOVFF  02,754
03318:  MOVFF  03,755
0331C:  MOVFF  03,759
03320:  MOVFF  02,758
03324:  MOVFF  01,757
03328:  MOVFF  00,756
0332C:  MOVFF  6E7,75D
03330:  MOVFF  6E6,75C
03334:  MOVFF  6E5,75B
03338:  MOVFF  6E4,75A
0333C:  CALL   1714
03340:  MOVFF  03,6D7
03344:  MOVFF  02,6D6
03348:  MOVFF  01,6D5
0334C:  MOVFF  00,6D4
....................     
....................    if(Presion<0.0) 
03350:  MOVFF  6D7,755
03354:  MOVFF  6D6,754
03358:  MOVFF  6D5,753
0335C:  MOVFF  6D4,752
03360:  MOVLB  7
03362:  CLRF   x59
03364:  CLRF   x58
03366:  CLRF   x57
03368:  CLRF   x56
0336A:  MOVLB  0
0336C:  CALL   1AEA
03370:  BNC   337C
....................    { 
....................       Presion=0.0; 
03372:  MOVLB  6
03374:  CLRF   xD7
03376:  CLRF   xD6
03378:  CLRF   xD5
0337A:  CLRF   xD4
....................    } 
....................     
....................    if(r>media-1) 
0337C:  MOVLW  01
0337E:  MOVLB  7
03380:  SUBWF  x51,W
03382:  SUBWF  x32,W
03384:  BZ    338A
03386:  BNC   338A
....................    {r=0;} 
03388:  CLRF   x32
....................    PromPresion[r]=Presion;r++; 
0338A:  MOVF   x32,W
0338C:  MULLW  04
0338E:  MOVF   FF3,W
03390:  CLRF   03
03392:  ADDLW  DB
03394:  MOVWF  FE9
03396:  MOVLW  05
03398:  ADDWFC 03,W
0339A:  MOVWF  FEA
0339C:  MOVFF  6D4,FEF
033A0:  MOVFF  6D5,FEC
033A4:  MOVFF  6D6,FEC
033A8:  MOVFF  6D7,FEC
033AC:  INCF   x32,F
....................           
....................    for(t=0;t<=(media-1);t++) 
033AE:  CLRF   x33
033B0:  MOVLW  01
033B2:  SUBWF  x51,W
033B4:  SUBWF  x33,W
033B6:  BZ    33BA
033B8:  BC    342A
....................    { 
....................       promediopresion+=PromPresion[t]; 
033BA:  MOVF   x33,W
033BC:  MULLW  04
033BE:  MOVF   FF3,W
033C0:  CLRF   03
033C2:  ADDLW  DB
033C4:  MOVWF  FE9
033C6:  MOVLW  05
033C8:  ADDWFC 03,W
033CA:  MOVWF  FEA
033CC:  MOVFF  FEF,00
033D0:  MOVFF  FEC,01
033D4:  MOVFF  FEC,02
033D8:  MOVFF  FEC,03
033DC:  MOVFF  FEA,753
033E0:  MOVFF  FE9,752
033E4:  BCF    FD8.1
033E6:  MOVFF  692,759
033EA:  MOVFF  691,758
033EE:  MOVFF  690,757
033F2:  MOVFF  68F,756
033F6:  MOVFF  03,75D
033FA:  MOVFF  02,75C
033FE:  MOVFF  01,75B
03402:  MOVFF  00,75A
03406:  MOVLB  0
03408:  CALL   1872
0340C:  MOVFF  753,FEA
03410:  MOVFF  752,FE9
03414:  MOVFF  03,692
03418:  MOVFF  02,691
0341C:  MOVFF  01,690
03420:  MOVFF  00,68F
....................    }  
03424:  MOVLB  7
03426:  INCF   x33,F
03428:  BRA    33B0
....................    promediopresion=promediopresion/media;    
0342A:  CLRF   x58
0342C:  MOVFF  751,757
03430:  MOVLB  0
03432:  CALL   16DE
03436:  MOVFF  692,759
0343A:  MOVFF  691,758
0343E:  MOVFF  690,757
03442:  MOVFF  68F,756
03446:  MOVFF  03,75D
0344A:  MOVFF  02,75C
0344E:  MOVFF  01,75B
03452:  MOVFF  00,75A
03456:  CALL   1714
0345A:  MOVFF  03,692
0345E:  MOVFF  02,691
03462:  MOVFF  01,690
03466:  MOVFF  00,68F
....................     
....................    return promediopresion; 
0346A:  MOVFF  68F,00
0346E:  MOVFF  690,01
03472:  MOVFF  691,02
03476:  MOVFF  692,03
.................... } 
0347A:  GOTO   5A02 (RETURN)
....................  
.................... float Leer_Sensor_Presion_PreCamara(int media){ 
....................    promediopresionp=0.0; 
0347E:  MOVLB  6
03480:  CLRF   x9A
03482:  CLRF   x99
03484:  CLRF   x98
03486:  CLRF   x97
....................    V2 = sensores(3);   //Lectura de Divisor de Voltaje de PT100 con resistencia de 1k (+-10%) 
03488:  MOVLW  03
0348A:  MOVLB  7
0348C:  MOVWF  x52
0348E:  MOVLB  0
03490:  CALL   24A8
03494:  MOVFF  03,6DB
03498:  MOVFF  02,6DA
0349C:  MOVFF  01,6D9
034A0:  MOVFF  00,6D8
....................    V2 = V2*(5.0/1024.0); 
034A4:  MOVFF  6DB,775
034A8:  MOVFF  6DA,774
034AC:  MOVFF  6D9,773
034B0:  MOVFF  6D8,772
034B4:  MOVLB  7
034B6:  CLRF   x79
034B8:  CLRF   x78
034BA:  MOVLW  20
034BC:  MOVWF  x77
034BE:  MOVLW  77
034C0:  MOVWF  x76
034C2:  MOVLB  0
034C4:  CALL   256E
034C8:  MOVFF  03,6DB
034CC:  MOVFF  02,6DA
034D0:  MOVFF  01,6D9
034D4:  MOVFF  00,6D8
....................    Presionp=(V2-0.2)/(K); 
034D8:  BSF    FD8.1
034DA:  MOVFF  6DB,759
034DE:  MOVFF  6DA,758
034E2:  MOVFF  6D9,757
034E6:  MOVFF  6D8,756
034EA:  MOVLW  CD
034EC:  MOVLB  7
034EE:  MOVWF  x5D
034F0:  MOVLW  CC
034F2:  MOVWF  x5C
034F4:  MOVLW  4C
034F6:  MOVWF  x5B
034F8:  MOVLW  7C
034FA:  MOVWF  x5A
034FC:  MOVLB  0
034FE:  CALL   1872
03502:  MOVFF  00,752
03506:  MOVFF  01,753
0350A:  MOVFF  02,754
0350E:  MOVFF  03,755
03512:  MOVFF  03,759
03516:  MOVFF  02,758
0351A:  MOVFF  01,757
0351E:  MOVFF  00,756
03522:  MOVFF  6E7,75D
03526:  MOVFF  6E6,75C
0352A:  MOVFF  6E5,75B
0352E:  MOVFF  6E4,75A
03532:  CALL   1714
03536:  MOVFF  03,6DF
0353A:  MOVFF  02,6DE
0353E:  MOVFF  01,6DD
03542:  MOVFF  00,6DC
....................     
....................    if(Presionp<0.0) 
03546:  MOVFF  6DF,755
0354A:  MOVFF  6DE,754
0354E:  MOVFF  6DD,753
03552:  MOVFF  6DC,752
03556:  MOVLB  7
03558:  CLRF   x59
0355A:  CLRF   x58
0355C:  CLRF   x57
0355E:  CLRF   x56
03560:  MOVLB  0
03562:  CALL   1AEA
03566:  BNC   3572
....................    { 
....................       Presionp=0.0; 
03568:  MOVLB  6
0356A:  CLRF   xDF
0356C:  CLRF   xDE
0356E:  CLRF   xDD
03570:  CLRF   xDC
....................    } 
....................     
....................    if(r2>media-1) 
03572:  MOVLW  01
03574:  MOVLB  7
03576:  SUBWF  x51,W
03578:  SUBWF  x34,W
0357A:  BZ    3580
0357C:  BNC   3580
....................    {r2=0;} 
0357E:  CLRF   x34
....................    PromPresionp[r2]=Presionp;r2++; 
03580:  MOVF   x34,W
03582:  MULLW  04
03584:  MOVF   FF3,W
03586:  CLRF   03
03588:  ADDLW  2B
0358A:  MOVWF  FE9
0358C:  MOVLW  06
0358E:  ADDWFC 03,W
03590:  MOVWF  FEA
03592:  MOVFF  6DC,FEF
03596:  MOVFF  6DD,FEC
0359A:  MOVFF  6DE,FEC
0359E:  MOVFF  6DF,FEC
035A2:  INCF   x34,F
....................           
....................    for(t2=0;t2<=(media-1);t2++) 
035A4:  CLRF   x35
035A6:  MOVLW  01
035A8:  SUBWF  x51,W
035AA:  SUBWF  x35,W
035AC:  BZ    35B0
035AE:  BC    3620
....................    { 
....................       promediopresionp+=PromPresionp[t2]; 
035B0:  MOVF   x35,W
035B2:  MULLW  04
035B4:  MOVF   FF3,W
035B6:  CLRF   03
035B8:  ADDLW  2B
035BA:  MOVWF  FE9
035BC:  MOVLW  06
035BE:  ADDWFC 03,W
035C0:  MOVWF  FEA
035C2:  MOVFF  FEF,00
035C6:  MOVFF  FEC,01
035CA:  MOVFF  FEC,02
035CE:  MOVFF  FEC,03
035D2:  MOVFF  FEA,753
035D6:  MOVFF  FE9,752
035DA:  BCF    FD8.1
035DC:  MOVFF  69A,759
035E0:  MOVFF  699,758
035E4:  MOVFF  698,757
035E8:  MOVFF  697,756
035EC:  MOVFF  03,75D
035F0:  MOVFF  02,75C
035F4:  MOVFF  01,75B
035F8:  MOVFF  00,75A
035FC:  MOVLB  0
035FE:  CALL   1872
03602:  MOVFF  753,FEA
03606:  MOVFF  752,FE9
0360A:  MOVFF  03,69A
0360E:  MOVFF  02,699
03612:  MOVFF  01,698
03616:  MOVFF  00,697
....................    }  
0361A:  MOVLB  7
0361C:  INCF   x35,F
0361E:  BRA    35A6
....................    promediopresionp=promediopresionp/media;    
03620:  CLRF   x58
03622:  MOVFF  751,757
03626:  MOVLB  0
03628:  CALL   16DE
0362C:  MOVFF  69A,759
03630:  MOVFF  699,758
03634:  MOVFF  698,757
03638:  MOVFF  697,756
0363C:  MOVFF  03,75D
03640:  MOVFF  02,75C
03644:  MOVFF  01,75B
03648:  MOVFF  00,75A
0364C:  CALL   1714
03650:  MOVFF  03,69A
03654:  MOVFF  02,699
03658:  MOVFF  01,698
0365C:  MOVFF  00,697
....................     
....................    return promediopresionp; 
03660:  MOVFF  697,00
03664:  MOVFF  698,01
03668:  MOVFF  699,02
0366C:  MOVFF  69A,03
.................... } 
03670:  GOTO   5A2A (RETURN)
....................  
.................... void Controla(){ 
.................... //-------------------------------Control de Calentamiento------------------------------------------------------------//          
....................    error=desvio+Setpoint-Temperatura;      // Clculo del error ****** 
*
03F4A:  MOVLB  7
03F4C:  CLRF   x58
03F4E:  MOVFF  702,757
03F52:  MOVLB  0
03F54:  CALL   16DE
03F58:  BCF    FD8.1
03F5A:  MOVFF  6CF,759
03F5E:  MOVFF  6CE,758
03F62:  MOVFF  6CD,757
03F66:  MOVFF  6CC,756
03F6A:  MOVFF  03,75D
03F6E:  MOVFF  02,75C
03F72:  MOVFF  01,75B
03F76:  MOVFF  00,75A
03F7A:  CALL   1872
03F7E:  MOVFF  00,751
03F82:  MOVFF  01,752
03F86:  MOVFF  02,753
03F8A:  MOVFF  03,754
03F8E:  BSF    FD8.1
03F90:  MOVFF  03,759
03F94:  MOVFF  02,758
03F98:  MOVFF  01,757
03F9C:  MOVFF  00,756
03FA0:  MOVFF  6E3,75D
03FA4:  MOVFF  6E2,75C
03FA8:  MOVFF  6E1,75B
03FAC:  MOVFF  6E0,75A
03FB0:  CALL   1872
03FB4:  MOVFF  03,6B7
03FB8:  MOVFF  02,6B6
03FBC:  MOVFF  01,6B5
03FC0:  MOVFF  00,6B4
....................     
....................    if(error>0.9 && error<15 && Aumento<0.3) 
03FC4:  MOVLW  66
03FC6:  MOVLB  7
03FC8:  MOVWF  x55
03FCA:  MOVWF  x54
03FCC:  MOVWF  x53
03FCE:  MOVLW  7E
03FD0:  MOVWF  x52
03FD2:  MOVFF  6B7,759
03FD6:  MOVFF  6B6,758
03FDA:  MOVFF  6B5,757
03FDE:  MOVFF  6B4,756
03FE2:  MOVLB  0
03FE4:  CALL   1AEA
03FE8:  BNC   40AE
03FEA:  MOVFF  6B7,755
03FEE:  MOVFF  6B6,754
03FF2:  MOVFF  6B5,753
03FF6:  MOVFF  6B4,752
03FFA:  MOVLB  7
03FFC:  CLRF   x59
03FFE:  CLRF   x58
04000:  MOVLW  70
04002:  MOVWF  x57
04004:  MOVLW  82
04006:  MOVWF  x56
04008:  MOVLB  0
0400A:  CALL   1AEA
0400E:  BNC   40AE
04010:  MOVFF  696,755
04014:  MOVFF  695,754
04018:  MOVFF  694,753
0401C:  MOVFF  693,752
04020:  MOVLW  9A
04022:  MOVLB  7
04024:  MOVWF  x59
04026:  MOVLW  99
04028:  MOVWF  x58
0402A:  MOVLW  19
0402C:  MOVWF  x57
0402E:  MOVLW  7D
04030:  MOVWF  x56
04032:  MOVLB  0
04034:  CALL   1AEA
04038:  BNC   40AE
....................    { 
....................       if(Tpulso<9.0) 
0403A:  MOVFF  6B3,755
0403E:  MOVFF  6B2,754
04042:  MOVFF  6B1,753
04046:  MOVFF  6B0,752
0404A:  MOVLB  7
0404C:  CLRF   x59
0404E:  CLRF   x58
04050:  MOVLW  10
04052:  MOVWF  x57
04054:  MOVLW  82
04056:  MOVWF  x56
04058:  MOVLB  0
0405A:  CALL   1AEA
0405E:  BNC   40AE
....................       { 
....................          if(TiempoControl>=Derivativo) 
04060:  MOVLB  6
04062:  MOVF   xF5,W
04064:  MOVLB  7
04066:  SUBWF  x36,W
04068:  BNC   40B0
....................          { 
....................             TiempoControl=0; 
0406A:  CLRF   x36
....................             Ganancia+=Integral; 
0406C:  CLRF   x58
0406E:  MOVFF  6F4,757
04072:  MOVLB  0
04074:  CALL   16DE
04078:  BCF    FD8.1
0407A:  MOVFF  6C7,759
0407E:  MOVFF  6C6,758
04082:  MOVFF  6C5,757
04086:  MOVFF  6C4,756
0408A:  MOVFF  03,75D
0408E:  MOVFF  02,75C
04092:  MOVFF  01,75B
04096:  MOVFF  00,75A
0409A:  CALL   1872
0409E:  MOVFF  03,6C7
040A2:  MOVFF  02,6C6
040A6:  MOVFF  01,6C5
040AA:  MOVFF  00,6C4
040AE:  MOVLB  7
....................          } 
....................       } 
....................    } 
....................     
....................    if(error<-0.3) 
040B0:  MOVFF  6B7,755
040B4:  MOVFF  6B6,754
040B8:  MOVFF  6B5,753
040BC:  MOVFF  6B4,752
040C0:  MOVLW  9A
040C2:  MOVWF  x59
040C4:  MOVLW  99
040C6:  MOVWF  x58
040C8:  MOVWF  x57
040CA:  MOVLW  7D
040CC:  MOVWF  x56
040CE:  MOVLB  0
040D0:  CALL   1AEA
040D4:  BNC   40E6
....................    { 
....................       Ganancia=Ganancia2; 
040D6:  MOVFF  6CB,6C7
040DA:  MOVFF  6CA,6C6
040DE:  MOVFF  6C9,6C5
040E2:  MOVFF  6C8,6C4
....................    } 
....................     
....................    if(Ganancia<1) 
040E6:  MOVFF  6C7,755
040EA:  MOVFF  6C6,754
040EE:  MOVFF  6C5,753
040F2:  MOVFF  6C4,752
040F6:  MOVLB  7
040F8:  CLRF   x59
040FA:  CLRF   x58
040FC:  CLRF   x57
040FE:  MOVLW  7F
04100:  MOVWF  x56
04102:  MOVLB  0
04104:  CALL   1AEA
04108:  BNC   4116
....................    { 
....................       Ganancia=1; 
0410A:  MOVLB  6
0410C:  CLRF   xC7
0410E:  CLRF   xC6
04110:  CLRF   xC5
04112:  MOVLW  7F
04114:  MOVWF  xC4
....................    } 
....................     
....................    if(error<0.0)     // Anti Wind_DOWN     
04116:  MOVFF  6B7,755
0411A:  MOVFF  6B6,754
0411E:  MOVFF  6B5,753
04122:  MOVFF  6B4,752
04126:  MOVLB  7
04128:  CLRF   x59
0412A:  CLRF   x58
0412C:  CLRF   x57
0412E:  CLRF   x56
04130:  MOVLB  0
04132:  CALL   1AEA
04136:  BNC   4144
....................    { 
....................       error=0.0; 
04138:  MOVLB  6
0413A:  CLRF   xB7
0413C:  CLRF   xB6
0413E:  CLRF   xB5
04140:  CLRF   xB4
04142:  MOVLB  0
....................    } 
....................    //tmp=(Setpoint-Prom)*Ganancia;  // Control Proporcional. 
....................    tmp=error*Ganancia;  // Control Proporcional. 
04144:  MOVFF  6B7,775
04148:  MOVFF  6B6,774
0414C:  MOVFF  6B5,773
04150:  MOVFF  6B4,772
04154:  MOVFF  6C7,779
04158:  MOVFF  6C6,778
0415C:  MOVFF  6C5,777
04160:  MOVFF  6C4,776
04164:  CALL   256E
04168:  MOVFF  03,6C3
0416C:  MOVFF  02,6C2
04170:  MOVFF  01,6C1
04174:  MOVFF  00,6C0
....................           
....................    if(tmp>Setpoint)   // Anti Wind-UP       
04178:  MOVLB  7
0417A:  CLRF   x58
0417C:  MOVFF  702,757
04180:  MOVLB  0
04182:  CALL   16DE
04186:  MOVFF  03,755
0418A:  MOVFF  02,754
0418E:  MOVFF  01,753
04192:  MOVFF  00,752
04196:  MOVFF  6C3,759
0419A:  MOVFF  6C2,758
0419E:  MOVFF  6C1,757
041A2:  MOVFF  6C0,756
041A6:  CALL   1AEA
041AA:  BNC   41CA
....................    { 
....................       tmp=Setpoint; 
041AC:  MOVLB  7
041AE:  CLRF   x58
041B0:  MOVFF  702,757
041B4:  MOVLB  0
041B6:  CALL   16DE
041BA:  MOVFF  03,6C3
041BE:  MOVFF  02,6C2
041C2:  MOVFF  01,6C1
041C6:  MOVFF  00,6C0
....................    } 
....................                 
....................    if(tmp<0.0)     // Anti Wind_DOWN     
041CA:  MOVFF  6C3,755
041CE:  MOVFF  6C2,754
041D2:  MOVFF  6C1,753
041D6:  MOVFF  6C0,752
041DA:  MOVLB  7
041DC:  CLRF   x59
041DE:  CLRF   x58
041E0:  CLRF   x57
041E2:  CLRF   x56
041E4:  MOVLB  0
041E6:  CALL   1AEA
041EA:  BNC   41F6
....................    { 
....................       tmp=0.0; 
041EC:  MOVLB  6
041EE:  CLRF   xC3
041F0:  CLRF   xC2
041F2:  CLRF   xC1
041F4:  CLRF   xC0
....................    } 
....................     
....................    // Tpulso(t)= Tciclo*(y(t)-ymin)/(ymax - ymin); calculo de ciclo util para control de resistencia.ymax=140.ymin=0; 
....................    // Tpulso es float, hay que pasar ese ciclo a una salida de un puerto usando el TMR1. 
....................    Tpulso=(tmp/Setpoint)*Tciclo;   
041F6:  MOVLB  7
041F8:  CLRF   x58
041FA:  MOVFF  702,757
041FE:  MOVLB  0
04200:  CALL   16DE
04204:  MOVFF  6C3,759
04208:  MOVFF  6C2,758
0420C:  MOVFF  6C1,757
04210:  MOVFF  6C0,756
04214:  MOVFF  03,75D
04218:  MOVFF  02,75C
0421C:  MOVFF  01,75B
04220:  MOVFF  00,75A
04224:  CALL   1714
04228:  MOVFF  00,751
0422C:  MOVFF  01,752
04230:  MOVFF  02,753
04234:  MOVFF  03,754
04238:  MOVFF  03,775
0423C:  MOVFF  02,774
04240:  MOVFF  01,773
04244:  MOVFF  00,772
04248:  MOVFF  6AF,779
0424C:  MOVFF  6AE,778
04250:  MOVFF  6AD,777
04254:  MOVFF  6AC,776
04258:  CALL   256E
0425C:  MOVFF  03,6B3
04260:  MOVFF  02,6B2
04264:  MOVFF  01,6B1
04268:  MOVFF  00,6B0
....................                                        
....................    if(tiempoctrl<=(int16)(Tpulso/0.005)) // Si el tiempo es menor o igual al tiempo de control se enciende la resistencia de lo contrario se apaga. 
0426C:  MOVFF  6B3,759
04270:  MOVFF  6B2,758
04274:  MOVFF  6B1,757
04278:  MOVFF  6B0,756
0427C:  MOVLW  0A
0427E:  MOVLB  7
04280:  MOVWF  x5D
04282:  MOVLW  D7
04284:  MOVWF  x5C
04286:  MOVLW  23
04288:  MOVWF  x5B
0428A:  MOVLW  77
0428C:  MOVWF  x5A
0428E:  MOVLB  0
04290:  CALL   1714
04294:  MOVFF  03,754
04298:  MOVFF  02,753
0429C:  MOVFF  01,752
042A0:  MOVFF  00,751
042A4:  CALL   2A36
042A8:  MOVFF  02,03
042AC:  MOVF   01,W
042AE:  MOVLB  7
042B0:  MOVF   x0E,W
042B2:  SUBWF  02,W
042B4:  BNC   42C4
042B6:  BNZ   42BE
042B8:  MOVF   x0D,W
042BA:  SUBWF  01,W
042BC:  BNC   42C4
....................    { 
....................       SSR_on; 
042BE:  BCF    F8B.2
042C0:  BCF    F94.2
....................    } 
....................    else          
042C2:  BRA    42C8
....................    { 
....................       SSR_off; 
042C4:  BSF    F8B.2
042C6:  BCF    F94.2
....................    } 
....................           
....................    if(tiempoctrl>=(int16)(Tciclo/0.005)) // Si el tiempo de control es mayor al tiempo de ciclo se reinicia tiempo de control 
042C8:  MOVFF  6AF,759
042CC:  MOVFF  6AE,758
042D0:  MOVFF  6AD,757
042D4:  MOVFF  6AC,756
042D8:  MOVLW  0A
042DA:  MOVWF  x5D
042DC:  MOVLW  D7
042DE:  MOVWF  x5C
042E0:  MOVLW  23
042E2:  MOVWF  x5B
042E4:  MOVLW  77
042E6:  MOVWF  x5A
042E8:  MOVLB  0
042EA:  CALL   1714
042EE:  MOVFF  03,754
042F2:  MOVFF  02,753
042F6:  MOVFF  01,752
042FA:  MOVFF  00,751
042FE:  CALL   2A36
04302:  MOVF   02,W
04304:  MOVWF  03
04306:  MOVLB  7
04308:  SUBWF  x0E,W
0430A:  BNC   4318
0430C:  BNZ   4314
0430E:  MOVF   01,W
04310:  SUBWF  x0D,W
04312:  BNC   4318
....................    { 
....................       tiempoctrl=0; 
04314:  CLRF   x0E
04316:  CLRF   x0D
....................    } // tiempoctrl incrementa una unidad cada 5ms, por eso se dividen los tiempos por 0.005. 
.................... //--------------------------------------------------------------------------------------------------------------------//    
.................... } 
04318:  MOVLB  0
0431A:  RETLW  00
....................  
.................... void Envio_I2C(direccion, posicion, dato){ 
....................  
....................    i2c_start();            // Comienzo comunicacin 
*
02C06:  BSF    F94.4
02C08:  MOVLW  05
02C0A:  MOVWF  00
02C0C:  DECFSZ 00,F
02C0E:  BRA    2C0C
02C10:  BSF    F94.3
02C12:  MOVLW  06
02C14:  MOVWF  00
02C16:  DECFSZ 00,F
02C18:  BRA    2C16
02C1A:  BCF    F8B.4
02C1C:  BCF    F94.4
02C1E:  MOVLW  05
02C20:  MOVWF  00
02C22:  DECFSZ 00,F
02C24:  BRA    2C22
02C26:  BCF    F8B.3
02C28:  BCF    F94.3
....................    i2c_write(direccion);   // Direccin del esclavo en el bus I2C 
02C2A:  MOVFF  752,755
02C2E:  RCALL  2B90
....................    i2c_write(posicion);    // Posicin donde se guardara el dato transmitido 
02C30:  MOVFF  753,755
02C34:  RCALL  2B90
....................    i2c_write(dato);        // Dato a transmitir 
02C36:  MOVFF  754,755
02C3A:  RCALL  2B90
....................    i2c_stop();             // Fin comunicacin 
02C3C:  BCF    F94.4
02C3E:  NOP   
02C40:  BSF    F94.3
02C42:  BTFSS  F82.3
02C44:  BRA    2C42
02C46:  MOVLW  05
02C48:  MOVWF  00
02C4A:  DECFSZ 00,F
02C4C:  BRA    2C4A
02C4E:  BRA    2C50
02C50:  NOP   
02C52:  BSF    F94.4
02C54:  MOVLW  05
02C56:  MOVWF  00
02C58:  DECFSZ 00,F
02C5A:  BRA    2C58
....................  } 
02C5C:  GOTO   2C96 (RETURN)
....................  
.................... void Lectura_I2C (byte direccion, byte posicion, byte &dato) { 
....................  
....................    i2c_start();            // Comienzo de la comunicacin 
*
031DA:  BSF    F94.4
031DC:  MOVLW  05
031DE:  MOVWF  00
031E0:  DECFSZ 00,F
031E2:  BRA    31E0
031E4:  BSF    F94.3
031E6:  MOVLW  06
031E8:  MOVWF  00
031EA:  DECFSZ 00,F
031EC:  BRA    31EA
031EE:  BCF    F8B.4
031F0:  BCF    F94.4
031F2:  MOVLW  05
031F4:  MOVWF  00
031F6:  DECFSZ 00,F
031F8:  BRA    31F6
031FA:  BCF    F8B.3
031FC:  BCF    F94.3
....................    i2c_write(direccion);   // Direccin del esclavo en el bus I2C 
031FE:  MOVFF  751,755
03202:  MOVLB  0
03204:  RCALL  2B90
....................    i2c_write(posicion);    // Posicin de donde se leer el dato en el esclavo 
03206:  MOVFF  752,755
0320A:  RCALL  2B90
....................    i2c_start();            // Reinicio 
0320C:  BSF    F94.4
0320E:  MOVLW  05
03210:  MOVWF  00
03212:  DECFSZ 00,F
03214:  BRA    3212
03216:  BSF    F94.3
03218:  MOVLW  06
0321A:  MOVWF  00
0321C:  DECFSZ 00,F
0321E:  BRA    321C
03220:  BTFSS  F82.3
03222:  BRA    3220
03224:  BCF    F8B.4
03226:  BCF    F94.4
03228:  MOVLW  05
0322A:  MOVWF  00
0322C:  DECFSZ 00,F
0322E:  BRA    322C
03230:  BCF    F8B.3
03232:  BCF    F94.3
....................    i2c_write(direccion+1); // Direccin del esclavo en modo lectura 
03234:  MOVLW  01
03236:  MOVLB  7
03238:  ADDWF  x51,W
0323A:  MOVWF  x53
0323C:  MOVWF  x55
0323E:  MOVLB  0
03240:  RCALL  2B90
....................    dato=i2c_read(0);       // Lectura del dato 
03242:  CLRF   00
03244:  BRA    2CA0
03246:  MOVFF  01,47C
....................    i2c_stop();             // Fin comunicacin 
0324A:  BCF    F94.4
0324C:  NOP   
0324E:  BSF    F94.3
03250:  BTFSS  F82.3
03252:  BRA    3250
03254:  MOVLW  05
03256:  MOVWF  00
03258:  DECFSZ 00,F
0325A:  BRA    3258
0325C:  BRA    325E
0325E:  NOP   
03260:  BSF    F94.4
03262:  MOVLW  05
03264:  MOVWF  00
03266:  DECFSZ 00,F
03268:  BRA    3266
.................... } 
....................  
.................... void Carga_Vector(void){ 
....................    SlaveA0Tx[0]=(int8)Temperatura; 
*
02A72:  MOVFF  6E3,754
02A76:  MOVFF  6E2,753
02A7A:  MOVFF  6E1,752
02A7E:  MOVFF  6E0,751
02A82:  RCALL  2A36
02A84:  MOVFF  01,45C
....................    SlaveA0Tx[1]=(Temperatura-((int8)Temperatura))*10; 
02A88:  MOVFF  6E3,754
02A8C:  MOVFF  6E2,753
02A90:  MOVFF  6E1,752
02A94:  MOVFF  6E0,751
02A98:  RCALL  2A36
02A9A:  MOVLB  7
02A9C:  CLRF   x58
02A9E:  MOVFF  01,757
02AA2:  MOVLB  0
02AA4:  CALL   16DE
02AA8:  BSF    FD8.1
02AAA:  MOVFF  6E3,759
02AAE:  MOVFF  6E2,758
02AB2:  MOVFF  6E1,757
02AB6:  MOVFF  6E0,756
02ABA:  MOVFF  03,75D
02ABE:  MOVFF  02,75C
02AC2:  MOVFF  01,75B
02AC6:  MOVFF  00,75A
02ACA:  CALL   1872
02ACE:  MOVFF  00,751
02AD2:  MOVFF  01,752
02AD6:  MOVFF  02,753
02ADA:  MOVFF  03,754
02ADE:  MOVFF  03,775
02AE2:  MOVFF  02,774
02AE6:  MOVFF  01,773
02AEA:  MOVFF  00,772
02AEE:  MOVLB  7
02AF0:  CLRF   x79
02AF2:  CLRF   x78
02AF4:  MOVLW  20
02AF6:  MOVWF  x77
02AF8:  MOVLW  82
02AFA:  MOVWF  x76
02AFC:  MOVLB  0
02AFE:  RCALL  256E
02B00:  MOVFF  03,754
02B04:  MOVFF  02,753
02B08:  MOVFF  01,752
02B0C:  MOVFF  00,751
02B10:  RCALL  2A36
02B12:  MOVFF  01,45D
....................    SlaveA0Tx[2]=make8((int16)PresionCamara,0); 
02B16:  MOVFF  717,45E
02B1A:  MOVLB  4
....................    SlaveA0Tx[3]=make8((int16)PresionCamara,1); 
02B1C:  MOVFF  718,45F
02B20:  MOVLB  4
....................    SlaveA0Tx[4]=make8((int16)PresionPreCamara,0); 
02B22:  MOVFF  719,460
02B26:  MOVLB  4
....................    SlaveA0Tx[5]=make8((int16)PresionPreCamara,1); 
02B28:  MOVFF  71A,461
02B2C:  MOVLB  4
....................    SlaveA0Tx[6]=(int8)Tpulso*10; 
02B2E:  MOVFF  6B3,754
02B32:  MOVFF  6B2,753
02B36:  MOVFF  6B1,752
02B3A:  MOVFF  6B0,751
02B3E:  MOVLB  0
02B40:  RCALL  2A36
02B42:  MOVF   01,W
02B44:  MULLW  0A
02B46:  MOVFF  FF3,462
02B4A:  MOVLB  4
....................    SlaveA0Tx[7]=HIGH; 
02B4C:  BSF    F94.0
02B4E:  CLRF   x63
02B50:  BTFSC  F82.0
02B52:  INCF   x63,F
....................    SlaveA0Tx[8]=LOW; 
02B54:  BSF    F94.1
02B56:  CLRF   x64
02B58:  BTFSC  F82.1
02B5A:  INCF   x64,F
....................    SlaveA0Tx[9]=TERM; 
02B5C:  BSF    F93.7
02B5E:  CLRF   x65
02B60:  BTFSS  F81.7
02B62:  INCF   x65,F
....................    SlaveA0Tx[10]=DOOR; 
02B64:  BSF    F96.2
02B66:  CLRF   x66
02B68:  BTFSS  F84.2
02B6A:  INCF   x66,F
....................    SlaveA0Tx[11]=STOP; 
02B6C:  BSF    F93.6
02B6E:  CLRF   x67
02B70:  BTFSS  F81.6
02B72:  INCF   x67,F
....................    SlaveA0Tx[12]=(int8)error; 
02B74:  MOVFF  6B7,754
02B78:  MOVFF  6B6,753
02B7C:  MOVFF  6B5,752
02B80:  MOVFF  6B4,751
02B84:  MOVLB  0
02B86:  RCALL  2A36
02B88:  MOVFF  01,468
.................... } 
02B8C:  GOTO   2C62 (RETURN)
....................  
.................... void Lee_Vector(void){ 
....................    ByteConfig1=txbuf[0]; 
*
02D0C:  MOVFF  43C,47F
....................    ByteConfig2=txbuf[1]; 
02D10:  MOVFF  43D,480
....................    ByteConfig3=txbuf[2]; 
02D14:  MOVFF  43E,481
....................     
....................    if(ByteConfig1==10 && ByteConfig2==20 && ByteConfig3==30){ 
02D18:  MOVLB  4
02D1A:  MOVF   x7F,W
02D1C:  SUBLW  0A
02D1E:  BTFSS  FD8.2
02D20:  BRA    2E26
02D22:  MOVF   x80,W
02D24:  SUBLW  14
02D26:  BTFSS  FD8.2
02D28:  BRA    2E26
02D2A:  MOVF   x81,W
02D2C:  SUBLW  1E
02D2E:  BNZ   2E26
....................       Ganancia=txbuf[3]; 
02D30:  MOVLB  7
02D32:  CLRF   x58
02D34:  MOVFF  43F,757
02D38:  MOVLB  0
02D3A:  CALL   16DE
02D3E:  MOVFF  03,6C7
02D42:  MOVFF  02,6C6
02D46:  MOVFF  01,6C5
02D4A:  MOVFF  00,6C4
....................       Ajuste=txbuf[4]; 
02D4E:  MOVFF  440,69D
....................       Ajusten=txbuf[5]; 
02D52:  MOVFF  441,69E
....................       Desvio=txbuf[6]; 
02D56:  MOVLB  7
02D58:  CLRF   x58
02D5A:  MOVFF  442,757
02D5E:  MOVLB  0
02D60:  CALL   16DE
02D64:  MOVFF  03,6CF
02D68:  MOVFF  02,6CE
02D6C:  MOVFF  01,6CD
02D70:  MOVFF  00,6CC
....................       MediaMovil=txbuf[7]; 
02D74:  MOVFF  443,69F
....................       Tciclo=txbuf[8]; 
02D78:  MOVLB  7
02D7A:  CLRF   x58
02D7C:  MOVFF  444,757
02D80:  MOVLB  0
02D82:  CALL   16DE
02D86:  MOVFF  03,6AF
02D8A:  MOVFF  02,6AE
02D8E:  MOVFF  01,6AD
02D92:  MOVFF  00,6AC
....................       Integral=txbuf[9]; 
02D96:  MOVFF  445,6F4
....................       Derivativo=txbuf[10]; 
02D9A:  MOVFF  446,6F5
....................       Gain=txbuf[11]+(txbuf[12]/10); 
02D9E:  MOVFF  448,766
02DA2:  MOVLW  0A
02DA4:  MOVLB  7
02DA6:  MOVWF  x67
02DA8:  MOVLB  0
02DAA:  CALL   22C2
02DAE:  MOVF   01,W
02DB0:  MOVLB  4
02DB2:  ADDWF  x47,W
02DB4:  MOVLB  7
02DB6:  CLRF   x58
02DB8:  MOVWF  x57
02DBA:  MOVLB  0
02DBC:  CALL   16DE
02DC0:  MOVFF  03,67E
02DC4:  MOVFF  02,67D
02DC8:  MOVFF  01,67C
02DCC:  MOVFF  00,67B
....................       R1=make16(txbuf[14],txbuf[13]); 
02DD0:  MOVFF  44A,03
02DD4:  MOVFF  449,757
02DD8:  MOVFF  44A,758
02DDC:  MOVLB  0
02DDE:  CALL   16DE
02DE2:  MOVFF  03,6A7
02DE6:  MOVFF  02,6A6
02DEA:  MOVFF  01,6A5
02DEE:  MOVFF  00,6A4
....................       RPT100=txbuf[15]+(txbuf[16]/10); 
02DF2:  MOVFF  44C,766
02DF6:  MOVLW  0A
02DF8:  MOVLB  7
02DFA:  MOVWF  x67
02DFC:  MOVLB  0
02DFE:  CALL   22C2
02E02:  MOVF   01,W
02E04:  MOVLB  4
02E06:  ADDWF  x4B,W
02E08:  MOVLB  7
02E0A:  CLRF   x58
02E0C:  MOVWF  x57
02E0E:  MOVLB  0
02E10:  CALL   16DE
02E14:  MOVFF  03,682
02E18:  MOVFF  02,681
02E1C:  MOVFF  01,680
02E20:  MOVFF  00,67F
02E24:  MOVLB  4
....................    } 
....................     
....................    if(txbuf[17]==50){ 
02E26:  MOVF   x4D,W
02E28:  SUBLW  32
02E2A:  BTFSS  FD8.2
02E2C:  BRA    31B6
....................       if(!disp_Guarda){ 
02E2E:  BTFSC  x84.2
02E30:  BRA    2EC4
....................          glcd_fillScreen(OFF);disp_Guarda=ON; 
02E32:  MOVLB  7
02E34:  CLRF   x52
02E36:  MOVLB  0
02E38:  CALL   1B9A
02E3C:  MOVLB  4
02E3E:  BSF    x84.2
....................          strcpy(Menus.Letra,"Configuracion");displayMenu(Menus.Letra,0,10,0,2); 
02E40:  MOVLW  04
02E42:  MOVWF  FEA
02E44:  MOVLW  18
02E46:  MOVWF  FE9
02E48:  MOVFF  FF2,751
02E4C:  BCF    FF2.7
02E4E:  MOVLW  00
02E50:  MOVLB  0
02E52:  CALL   06FE
02E56:  TBLRD*-
02E58:  TBLRD*+
02E5A:  MOVF   FF5,W
02E5C:  MOVWF  FEE
02E5E:  IORLW  00
02E60:  BNZ   2E58
02E62:  MOVLB  7
02E64:  BTFSC  x51.7
02E66:  BSF    FF2.7
02E68:  MOVLW  04
02E6A:  MOVWF  x52
02E6C:  MOVLW  18
02E6E:  MOVWF  x51
02E70:  CLRF   x53
02E72:  MOVLW  0A
02E74:  MOVWF  x54
02E76:  CLRF   x55
02E78:  MOVLW  02
02E7A:  MOVWF  x56
02E7C:  MOVLB  0
02E7E:  CALL   21C8
....................          strcpy(Menus.Letra,"   Guardada  ");displayMenu(Menus.Letra,0,30,0,2); 
02E82:  MOVLW  04
02E84:  MOVWF  FEA
02E86:  MOVLW  18
02E88:  MOVWF  FE9
02E8A:  MOVFF  FF2,751
02E8E:  BCF    FF2.7
02E90:  MOVLW  00
02E92:  CALL   072A
02E96:  TBLRD*-
02E98:  TBLRD*+
02E9A:  MOVF   FF5,W
02E9C:  MOVWF  FEE
02E9E:  IORLW  00
02EA0:  BNZ   2E98
02EA2:  MOVLB  7
02EA4:  BTFSC  x51.7
02EA6:  BSF    FF2.7
02EA8:  MOVLW  04
02EAA:  MOVWF  x52
02EAC:  MOVLW  18
02EAE:  MOVWF  x51
02EB0:  CLRF   x53
02EB2:  MOVLW  1E
02EB4:  MOVWF  x54
02EB6:  CLRF   x55
02EB8:  MOVLW  02
02EBA:  MOVWF  x56
02EBC:  MOVLB  0
02EBE:  CALL   21C8
02EC2:  MOVLB  4
....................       } 
....................       write_eeprom(20,Ganancia); 
02EC4:  CLRF   FAA
02EC6:  MOVLW  14
02EC8:  MOVWF  FA9
02ECA:  MOVFF  6C4,FA8
02ECE:  BCF    FA6.6
02ED0:  BCF    FA6.7
02ED2:  BSF    FA6.2
02ED4:  MOVF   FF2,W
02ED6:  MOVWF  00
02ED8:  BCF    FF2.7
02EDA:  MOVLB  F
02EDC:  MOVLW  55
02EDE:  MOVWF  FA7
02EE0:  MOVLW  AA
02EE2:  MOVWF  FA7
02EE4:  BSF    FA6.1
02EE6:  BTFSC  FA6.1
02EE8:  BRA    2EE6
02EEA:  BCF    FA6.2
02EEC:  MOVF   00,W
02EEE:  IORWF  FF2,F
....................       delay_ms(10); 
02EF0:  MOVLW  0A
02EF2:  MOVLB  7
02EF4:  MOVWF  x57
02EF6:  MOVLB  0
02EF8:  CALL   16B6
....................       write_eeprom(21,(int8)Ajuste); 
02EFC:  CLRF   FAA
02EFE:  MOVLW  15
02F00:  MOVWF  FA9
02F02:  MOVFF  69D,FA8
02F06:  BCF    FA6.6
02F08:  BCF    FA6.7
02F0A:  BSF    FA6.2
02F0C:  MOVF   FF2,W
02F0E:  MOVWF  00
02F10:  BCF    FF2.7
02F12:  MOVLB  F
02F14:  MOVLW  55
02F16:  MOVWF  FA7
02F18:  MOVLW  AA
02F1A:  MOVWF  FA7
02F1C:  BSF    FA6.1
02F1E:  BTFSC  FA6.1
02F20:  BRA    2F1E
02F22:  BCF    FA6.2
02F24:  MOVF   00,W
02F26:  IORWF  FF2,F
....................       delay_ms(10); 
02F28:  MOVLW  0A
02F2A:  MOVLB  7
02F2C:  MOVWF  x57
02F2E:  MOVLB  0
02F30:  CALL   16B6
....................       write_eeprom(22,(int8)Ajusten); 
02F34:  CLRF   FAA
02F36:  MOVLW  16
02F38:  MOVWF  FA9
02F3A:  MOVFF  69E,FA8
02F3E:  BCF    FA6.6
02F40:  BCF    FA6.7
02F42:  BSF    FA6.2
02F44:  MOVF   FF2,W
02F46:  MOVWF  00
02F48:  BCF    FF2.7
02F4A:  MOVLB  F
02F4C:  MOVLW  55
02F4E:  MOVWF  FA7
02F50:  MOVLW  AA
02F52:  MOVWF  FA7
02F54:  BSF    FA6.1
02F56:  BTFSC  FA6.1
02F58:  BRA    2F56
02F5A:  BCF    FA6.2
02F5C:  MOVF   00,W
02F5E:  IORWF  FF2,F
....................       delay_ms(10); 
02F60:  MOVLW  0A
02F62:  MOVLB  7
02F64:  MOVWF  x57
02F66:  MOVLB  0
02F68:  CALL   16B6
....................       //Desvio=read_eeprom(23); 
....................       write_eeprom(24,(int8)MediaMovil); 
02F6C:  CLRF   FAA
02F6E:  MOVLW  18
02F70:  MOVWF  FA9
02F72:  MOVFF  69F,FA8
02F76:  BCF    FA6.6
02F78:  BCF    FA6.7
02F7A:  BSF    FA6.2
02F7C:  MOVF   FF2,W
02F7E:  MOVWF  00
02F80:  BCF    FF2.7
02F82:  MOVLB  F
02F84:  MOVLW  55
02F86:  MOVWF  FA7
02F88:  MOVLW  AA
02F8A:  MOVWF  FA7
02F8C:  BSF    FA6.1
02F8E:  BTFSC  FA6.1
02F90:  BRA    2F8E
02F92:  BCF    FA6.2
02F94:  MOVF   00,W
02F96:  IORWF  FF2,F
....................       delay_ms(10); 
02F98:  MOVLW  0A
02F9A:  MOVLB  7
02F9C:  MOVWF  x57
02F9E:  MOVLB  0
02FA0:  CALL   16B6
....................       write_eeprom(25,(int8)Tciclo); 
02FA4:  MOVFF  6AF,754
02FA8:  MOVFF  6AE,753
02FAC:  MOVFF  6AD,752
02FB0:  MOVFF  6AC,751
02FB4:  RCALL  2A36
02FB6:  MOVFF  01,751
02FBA:  CLRF   FAA
02FBC:  MOVLW  19
02FBE:  MOVWF  FA9
02FC0:  MOVFF  751,FA8
02FC4:  BCF    FA6.6
02FC6:  BCF    FA6.7
02FC8:  BSF    FA6.2
02FCA:  MOVF   FF2,W
02FCC:  MOVWF  00
02FCE:  BCF    FF2.7
02FD0:  MOVLB  F
02FD2:  MOVLW  55
02FD4:  MOVWF  FA7
02FD6:  MOVLW  AA
02FD8:  MOVWF  FA7
02FDA:  BSF    FA6.1
02FDC:  BTFSC  FA6.1
02FDE:  BRA    2FDC
02FE0:  BCF    FA6.2
02FE2:  MOVF   00,W
02FE4:  IORWF  FF2,F
....................       delay_ms(10); 
02FE6:  MOVLW  0A
02FE8:  MOVLB  7
02FEA:  MOVWF  x57
02FEC:  MOVLB  0
02FEE:  CALL   16B6
....................       write_eeprom(26,(int8)Integral); 
02FF2:  CLRF   FAA
02FF4:  MOVLW  1A
02FF6:  MOVWF  FA9
02FF8:  MOVFF  6F4,FA8
02FFC:  BCF    FA6.6
02FFE:  BCF    FA6.7
03000:  BSF    FA6.2
03002:  MOVF   FF2,W
03004:  MOVWF  00
03006:  BCF    FF2.7
03008:  MOVLB  F
0300A:  MOVLW  55
0300C:  MOVWF  FA7
0300E:  MOVLW  AA
03010:  MOVWF  FA7
03012:  BSF    FA6.1
03014:  BTFSC  FA6.1
03016:  BRA    3014
03018:  BCF    FA6.2
0301A:  MOVF   00,W
0301C:  IORWF  FF2,F
....................       delay_ms(10); 
0301E:  MOVLW  0A
03020:  MOVLB  7
03022:  MOVWF  x57
03024:  MOVLB  0
03026:  CALL   16B6
....................       write_eeprom(27,(int8)Derivativo); 
0302A:  CLRF   FAA
0302C:  MOVLW  1B
0302E:  MOVWF  FA9
03030:  MOVFF  6F5,FA8
03034:  BCF    FA6.6
03036:  BCF    FA6.7
03038:  BSF    FA6.2
0303A:  MOVF   FF2,W
0303C:  MOVWF  00
0303E:  BCF    FF2.7
03040:  MOVLB  F
03042:  MOVLW  55
03044:  MOVWF  FA7
03046:  MOVLW  AA
03048:  MOVWF  FA7
0304A:  BSF    FA6.1
0304C:  BTFSC  FA6.1
0304E:  BRA    304C
03050:  BCF    FA6.2
03052:  MOVF   00,W
03054:  IORWF  FF2,F
....................       delay_ms(10); 
03056:  MOVLW  0A
03058:  MOVLB  7
0305A:  MOVWF  x57
0305C:  MOVLB  0
0305E:  CALL   16B6
....................       write_eeprom(28,(int8)txbuf[11]); 
03062:  CLRF   FAA
03064:  MOVLW  1C
03066:  MOVWF  FA9
03068:  MOVFF  447,FA8
0306C:  BCF    FA6.6
0306E:  BCF    FA6.7
03070:  BSF    FA6.2
03072:  MOVF   FF2,W
03074:  MOVWF  00
03076:  BCF    FF2.7
03078:  MOVLB  F
0307A:  MOVLW  55
0307C:  MOVWF  FA7
0307E:  MOVLW  AA
03080:  MOVWF  FA7
03082:  BSF    FA6.1
03084:  BTFSC  FA6.1
03086:  BRA    3084
03088:  BCF    FA6.2
0308A:  MOVF   00,W
0308C:  IORWF  FF2,F
....................       delay_ms(10); 
0308E:  MOVLW  0A
03090:  MOVLB  7
03092:  MOVWF  x57
03094:  MOVLB  0
03096:  CALL   16B6
....................       write_eeprom(29,(int8)txbuf[12]); 
0309A:  CLRF   FAA
0309C:  MOVLW  1D
0309E:  MOVWF  FA9
030A0:  MOVFF  448,FA8
030A4:  BCF    FA6.6
030A6:  BCF    FA6.7
030A8:  BSF    FA6.2
030AA:  MOVF   FF2,W
030AC:  MOVWF  00
030AE:  BCF    FF2.7
030B0:  MOVLB  F
030B2:  MOVLW  55
030B4:  MOVWF  FA7
030B6:  MOVLW  AA
030B8:  MOVWF  FA7
030BA:  BSF    FA6.1
030BC:  BTFSC  FA6.1
030BE:  BRA    30BC
030C0:  BCF    FA6.2
030C2:  MOVF   00,W
030C4:  IORWF  FF2,F
....................       delay_ms(10); 
030C6:  MOVLW  0A
030C8:  MOVLB  7
030CA:  MOVWF  x57
030CC:  MOVLB  0
030CE:  CALL   16B6
....................       write_eeprom(30,(int8)txbuf[13]); 
030D2:  CLRF   FAA
030D4:  MOVLW  1E
030D6:  MOVWF  FA9
030D8:  MOVFF  449,FA8
030DC:  BCF    FA6.6
030DE:  BCF    FA6.7
030E0:  BSF    FA6.2
030E2:  MOVF   FF2,W
030E4:  MOVWF  00
030E6:  BCF    FF2.7
030E8:  MOVLB  F
030EA:  MOVLW  55
030EC:  MOVWF  FA7
030EE:  MOVLW  AA
030F0:  MOVWF  FA7
030F2:  BSF    FA6.1
030F4:  BTFSC  FA6.1
030F6:  BRA    30F4
030F8:  BCF    FA6.2
030FA:  MOVF   00,W
030FC:  IORWF  FF2,F
....................       delay_ms(10); 
030FE:  MOVLW  0A
03100:  MOVLB  7
03102:  MOVWF  x57
03104:  MOVLB  0
03106:  CALL   16B6
....................       write_eeprom(31,(int8)txbuf[14]); 
0310A:  CLRF   FAA
0310C:  MOVLW  1F
0310E:  MOVWF  FA9
03110:  MOVFF  44A,FA8
03114:  BCF    FA6.6
03116:  BCF    FA6.7
03118:  BSF    FA6.2
0311A:  MOVF   FF2,W
0311C:  MOVWF  00
0311E:  BCF    FF2.7
03120:  MOVLB  F
03122:  MOVLW  55
03124:  MOVWF  FA7
03126:  MOVLW  AA
03128:  MOVWF  FA7
0312A:  BSF    FA6.1
0312C:  BTFSC  FA6.1
0312E:  BRA    312C
03130:  BCF    FA6.2
03132:  MOVF   00,W
03134:  IORWF  FF2,F
....................       delay_ms(10); 
03136:  MOVLW  0A
03138:  MOVLB  7
0313A:  MOVWF  x57
0313C:  MOVLB  0
0313E:  CALL   16B6
....................       write_eeprom(32,(int8)txbuf[15]); 
03142:  CLRF   FAA
03144:  MOVLW  20
03146:  MOVWF  FA9
03148:  MOVFF  44B,FA8
0314C:  BCF    FA6.6
0314E:  BCF    FA6.7
03150:  BSF    FA6.2
03152:  MOVF   FF2,W
03154:  MOVWF  00
03156:  BCF    FF2.7
03158:  MOVLB  F
0315A:  MOVLW  55
0315C:  MOVWF  FA7
0315E:  MOVLW  AA
03160:  MOVWF  FA7
03162:  BSF    FA6.1
03164:  BTFSC  FA6.1
03166:  BRA    3164
03168:  BCF    FA6.2
0316A:  MOVF   00,W
0316C:  IORWF  FF2,F
....................       delay_ms(10); 
0316E:  MOVLW  0A
03170:  MOVLB  7
03172:  MOVWF  x57
03174:  MOVLB  0
03176:  CALL   16B6
....................       write_eeprom(33,(int8)txbuf[16]); 
0317A:  CLRF   FAA
0317C:  MOVLW  21
0317E:  MOVWF  FA9
03180:  MOVFF  44C,FA8
03184:  BCF    FA6.6
03186:  BCF    FA6.7
03188:  BSF    FA6.2
0318A:  MOVF   FF2,W
0318C:  MOVWF  00
0318E:  BCF    FF2.7
03190:  MOVLB  F
03192:  MOVLW  55
03194:  MOVWF  FA7
03196:  MOVLW  AA
03198:  MOVWF  FA7
0319A:  BSF    FA6.1
0319C:  BTFSC  FA6.1
0319E:  BRA    319C
031A0:  BCF    FA6.2
031A2:  MOVF   00,W
031A4:  IORWF  FF2,F
....................       delay_ms(10); 
031A6:  MOVLW  0A
031A8:  MOVLB  7
031AA:  MOVWF  x57
031AC:  MOVLB  0
031AE:  CALL   16B6
....................    }else{ 
031B2:  BRA    31B8
031B4:  MOVLB  4
....................       disp_Guarda=OFF; 
031B6:  BCF    x84.2
031B8:  MOVLB  0
....................    } 
.................... } 
031BA:  GOTO   3286 (RETURN)
....................  
.................... void Envio_Esclavos(void){ 
....................    Carga_Vector(); 
*
02C60:  BRA    2A72
....................    for(i=0;i<13;i++) 
02C62:  MOVLB  6
02C64:  CLRF   xFE
02C66:  MOVF   xFE,W
02C68:  SUBLW  0C
02C6A:  BNC   2C9C
....................    { 
....................       direccion=0xA0; 
02C6C:  MOVLW  A0
02C6E:  MOVLB  4
02C70:  MOVWF  x7D
....................       Envio_I2C(direccion,i,SlaveA0Tx[i]); 
02C72:  CLRF   03
02C74:  MOVLB  6
02C76:  MOVF   xFE,W
02C78:  ADDLW  5C
02C7A:  MOVWF  FE9
02C7C:  MOVLW  04
02C7E:  ADDWFC 03,W
02C80:  MOVWF  FEA
02C82:  MOVFF  FEF,751
02C86:  MOVFF  47D,752
02C8A:  MOVFF  6FE,753
02C8E:  MOVFF  751,754
02C92:  MOVLB  0
02C94:  BRA    2C06
....................    }  
02C96:  MOVLB  6
02C98:  INCF   xFE,F
02C9A:  BRA    2C66
.................... } 
02C9C:  MOVLB  0
02C9E:  RETLW  00
.................... void Lectura_Esclavos(void){ 
....................    for(i=0;i<18;i++) 
*
031BE:  MOVLB  6
031C0:  CLRF   xFE
031C2:  MOVF   xFE,W
031C4:  SUBLW  11
031C6:  BNC   3282
....................    { 
....................       direccion=0xA0;                        //Direccin en el bus I2c 
031C8:  MOVLW  A0
031CA:  MOVLB  4
031CC:  MOVWF  x7D
....................       posicion=i;                         //Posicin de memoria a leer 
031CE:  MOVFF  6FE,47E
....................       Lectura_I2C(direccion, posicion, dato);    //Lectura por I2C 
031D2:  MOVFF  47D,751
031D6:  MOVFF  47E,752
....................       txbuf[i]=(int8)dato; 
*
0326A:  CLRF   03
0326C:  MOVLB  6
0326E:  MOVF   xFE,W
03270:  ADDLW  3C
03272:  MOVWF  FE9
03274:  MOVLW  04
03276:  ADDWFC 03,W
03278:  MOVWF  FEA
0327A:  MOVFF  47C,FEF
....................    } 
0327E:  INCF   xFE,F
03280:  BRA    31C2
....................    Lee_Vector(); 
03282:  MOVLB  0
03284:  BRA    2D0C
.................... } 
03286:  RETLW  00
....................  
.................... #int_TIMER0 
.................... void temp0s(void){ 
....................    set_timer0(0); 
*
01554:  CLRF   FD7
01556:  CLRF   FD6
....................    t_exhaust++; 
01558:  MOVLB  7
0155A:  INCF   x45,F
0155C:  BTFSC  FD8.2
0155E:  INCF   x46,F
....................    if(DesfogueSuave) 
01560:  MOVLB  4
01562:  BTFSS  x83.5
01564:  BRA    15C2
....................    { 
....................       if(Nivel<6) 
01566:  MOVLB  7
01568:  MOVF   x12,F
0156A:  BNZ   15BC
0156C:  MOVF   x11,W
0156E:  SUBLW  05
01570:  BNC   15BC
....................       { 
....................          if(t_exhaust<=(9990*Nivel)) // Si el tiempo es menor o igual al tiempo de control se enciende la resistencia de lo contrario se apaga. 
01572:  MOVLW  27
01574:  MOVWF  x8C
01576:  MOVLW  06
01578:  MOVWF  x8B
0157A:  MOVFF  712,78E
0157E:  MOVFF  711,78D
01582:  MOVLB  0
01584:  RCALL  1532
01586:  MOVFF  02,03
0158A:  MOVF   01,W
0158C:  MOVLB  7
0158E:  MOVF   x46,W
01590:  SUBWF  02,W
01592:  BNC   15A2
01594:  BNZ   159C
01596:  MOVF   x45,W
01598:  SUBWF  01,W
0159A:  BNC   15A2
....................          { 
....................             Desfogue_on; 
0159C:  BCF    F8B.5
0159E:  BCF    F94.5
....................          }else{             
015A0:  BRA    15A6
....................             Desfogue_off; 
015A2:  BSF    F8B.5
015A4:  BCF    F94.5
....................          }    
....................        
....................          if(t_exhaust>=60000) // Si el tiempo de control es mayor al tiempo de ciclo se reinicia tiempo de control 
015A6:  MOVF   x46,W
015A8:  SUBLW  E9
015AA:  BC    15BA
015AC:  XORLW  FF
015AE:  BNZ   15B6
015B0:  MOVF   x45,W
015B2:  SUBLW  5F
015B4:  BC    15BA
....................          { 
....................             t_exhaust=0; 
015B6:  CLRF   x46
015B8:  CLRF   x45
....................          } // tiempoctrl incrementa una unidad cada Xms, por eso se dividen los tiempos por 0.005. 
....................       } 
....................       else 
015BA:  BRA    15C0
....................       { 
....................          Desfogue_on; 
015BC:  BCF    F8B.5
015BE:  BCF    F94.5
015C0:  MOVLB  4
....................       } 
....................    }   
.................... } 
....................  
015C2:  BCF    FF2.2
015C4:  MOVLB  0
015C6:  GOTO   0064
.................... #int_TIMER1 
.................... void temp1s(void){ 
....................     
....................    set_timer1(40536); // Se repite cada 5ms 
015CA:  MOVLW  9E
015CC:  MOVWF  FCF
015CE:  MOVLW  58
015D0:  MOVWF  FCE
....................    tiempos++; 
015D2:  MOVLB  7
015D4:  INCF   x09,F
015D6:  BTFSC  FD8.2
015D8:  INCF   x0A,F
....................    tiempos3++; 
015DA:  INCF   x0B,F
015DC:  BTFSC  FD8.2
015DE:  INCF   x0C,F
....................    tiempoctrl++; 
015E0:  INCF   x0D,F
015E2:  BTFSC  FD8.2
015E4:  INCF   x0E,F
....................     
....................    if(tiempos>=200)  // 12000 para que incremente cada minuto, 200para que incremente cada segundo. 
015E6:  MOVF   x0A,F
015E8:  BNZ   15F2
015EA:  MOVF   x09,W
015EC:  SUBLW  C7
015EE:  BTFSC  FD8.0
015F0:  BRA    16AE
....................    { 
....................       TiempoControl++; 
015F2:  INCF   x36,F
....................       if(IniciaCiclo && !Esterilizando){ 
015F4:  MOVLB  4
015F6:  BTFSS  x83.0
015F8:  BRA    1604
015FA:  BTFSC  x83.1
015FC:  BRA    1604
....................          TiempoCiclo++; 
015FE:  INCF   x85,F
01600:  BTFSC  FD8.2
01602:  INCF   x86,F
....................       } 
....................        
....................       if(IniciaLlenado && !CalderinLleno){ 
01604:  BTFSS  x82.6
01606:  BRA    1612
01608:  BTFSC  x82.7
0160A:  BRA    1612
....................          TiempoLlenado++; 
0160C:  INCF   x87,F
0160E:  BTFSC  FD8.2
01610:  INCF   x88,F
....................       } 
....................        
....................       if(SensadoNivel){ 
01612:  BTFSS  x83.3
01614:  BRA    161C
....................          TiempoSensadoNivel++; 
01616:  INCF   x89,F
01618:  BTFSC  FD8.2
0161A:  INCF   x8A,F
....................       } 
....................        
....................       tiempos=0;Lectura=1;tinicio++; 
0161C:  MOVLB  7
0161E:  CLRF   x0A
01620:  CLRF   x09
01622:  MOVLB  6
01624:  BSF    xFA.0
01626:  MOVLB  7
01628:  INCF   x15,F
0162A:  BTFSC  FD8.2
0162C:  INCF   x16,F
....................     
....................       if(Esterilizando && !Desfogando) 
0162E:  MOVLB  4
01630:  BTFSS  x83.1
01632:  BRA    1670
01634:  BTFSC  x83.4
01636:  BRA    1670
....................       {                
....................          Testerilizacion[0]++; 
01638:  INCF   x8B,F
....................          if(Testerilizacion[0]>9) 
0163A:  BTFSC  x8B.7
0163C:  BRA    1648
0163E:  MOVF   x8B,W
01640:  SUBLW  09
01642:  BC    1648
....................             {Testerilizacion[0]=0; 
01644:  CLRF   x8B
....................             Testerilizacion[1]++;} 
01646:  INCF   x8C,F
....................          if(Testerilizacion[1]>5) 
01648:  BTFSC  x8C.7
0164A:  BRA    1656
0164C:  MOVF   x8C,W
0164E:  SUBLW  05
01650:  BC    1656
....................             {Testerilizacion[1]=0; 
01652:  CLRF   x8C
....................              Testerilizacion[2]++;} 
01654:  INCF   x8D,F
....................             if(Testerilizacion[2]>9) 
01656:  BTFSC  x8D.7
01658:  BRA    1664
0165A:  MOVF   x8D,W
0165C:  SUBLW  09
0165E:  BC    1664
....................                {Testerilizacion[2]=0; 
01660:  CLRF   x8D
....................                 Testerilizacion[3]++;} 
01662:  INCF   x8E,F
....................                if(Testerilizacion[3]>5) 
01664:  BTFSC  x8E.7
01666:  BRA    1670
01668:  MOVF   x8E,W
0166A:  SUBLW  05
0166C:  BC    1670
....................                   {Testerilizacion[3]=0;} 
0166E:  CLRF   x8E
....................       }        
....................        
....................       if(Secando) 
01670:  BTFSS  x83.2
01672:  BRA    16AC
....................       {                
....................          Tsecado[0]++; 
01674:  INCF   x93,F
....................          if(Tsecado[0]>9) 
01676:  BTFSC  x93.7
01678:  BRA    1684
0167A:  MOVF   x93,W
0167C:  SUBLW  09
0167E:  BC    1684
....................             {Tsecado[0]=0; 
01680:  CLRF   x93
....................              Tsecado[1]++;} 
01682:  INCF   x94,F
....................           if(Tsecado[1]>5) 
01684:  BTFSC  x94.7
01686:  BRA    1692
01688:  MOVF   x94,W
0168A:  SUBLW  05
0168C:  BC    1692
....................             {Tsecado[1]=0; 
0168E:  CLRF   x94
....................              Tsecado[2]++;} 
01690:  INCF   x95,F
....................             if(Tsecado[2]>9) 
01692:  BTFSC  x95.7
01694:  BRA    16A0
01696:  MOVF   x95,W
01698:  SUBLW  09
0169A:  BC    16A0
....................                {Tsecado[2]=0; 
0169C:  CLRF   x95
....................                 Tsecado[3]++;} 
0169E:  INCF   x96,F
....................                if(Tsecado[3]>5) 
016A0:  BTFSC  x96.7
016A2:  BRA    16AC
016A4:  MOVF   x96,W
016A6:  SUBLW  05
016A8:  BC    16AC
....................                   {Tsecado[3]=0;} 
016AA:  CLRF   x96
016AC:  MOVLB  7
....................          }   
....................    } 
.................... } 
....................  
....................  
016AE:  BCF    F9E.0
016B0:  MOVLB  0
016B2:  GOTO   0064
.................... void main() 
.................... { 
*
04902:  CLRF   FF8
04904:  BCF    FD0.7
04906:  BSF    07.7
04908:  CLRF   FEA
0490A:  CLRF   FE9
0490C:  MOVLB  4
0490E:  CLRF   x7C
04910:  CLRF   x7D
04912:  CLRF   x7E
04914:  CLRF   x7F
04916:  CLRF   x80
04918:  CLRF   x81
0491A:  BCF    x82.0
0491C:  BCF    x82.1
0491E:  BCF    x82.2
04920:  BCF    x82.3
04922:  BCF    x82.4
04924:  BCF    x82.5
04926:  BCF    x82.6
04928:  BCF    x82.7
0492A:  BCF    x83.0
0492C:  BCF    x83.1
0492E:  BCF    x83.2
04930:  BCF    x83.3
04932:  BCF    x83.4
04934:  BCF    x83.5
04936:  BCF    x83.6
04938:  BCF    x83.7
0493A:  BCF    x84.0
0493C:  BCF    x84.1
0493E:  BCF    x84.2
04940:  CLRF   x86
04942:  CLRF   x85
04944:  CLRF   x88
04946:  CLRF   x87
04948:  CLRF   x8A
0494A:  CLRF   x89
0494C:  MOVLW  CD
0494E:  MOVLB  6
04950:  MOVWF  x7E
04952:  MOVLW  CC
04954:  MOVWF  x7D
04956:  MOVLW  20
04958:  MOVWF  x7C
0495A:  MOVLW  84
0495C:  MOVWF  x7B
0495E:  CLRF   x82
04960:  CLRF   x81
04962:  CLRF   x80
04964:  MOVLW  7E
04966:  MOVWF  x7F
04968:  CLRF   x86
0496A:  CLRF   x85
0496C:  CLRF   x84
0496E:  CLRF   x83
04970:  CLRF   x92
04972:  CLRF   x91
04974:  CLRF   x90
04976:  CLRF   x8F
04978:  CLRF   x96
0497A:  CLRF   x95
0497C:  CLRF   x94
0497E:  CLRF   x93
04980:  CLRF   x9A
04982:  CLRF   x99
04984:  CLRF   x98
04986:  CLRF   x97
04988:  CLRF   x9B
0498A:  CLRF   x9C
0498C:  CLRF   x9D
0498E:  CLRF   x9E
04990:  MOVLW  14
04992:  MOVWF  x9F
04994:  CLRF   xA3
04996:  CLRF   xA2
04998:  CLRF   xA1
0499A:  CLRF   xA0
0499C:  CLRF   xA7
0499E:  MOVLW  F0
049A0:  MOVWF  xA6
049A2:  MOVLW  3E
049A4:  MOVWF  xA5
049A6:  MOVLW  8B
049A8:  MOVWF  xA4
049AA:  CLRF   xAF
049AC:  CLRF   xAE
049AE:  MOVLW  20
049B0:  MOVWF  xAD
049B2:  MOVLW  82
049B4:  MOVWF  xAC
049B6:  CLRF   xB3
049B8:  CLRF   xB2
049BA:  CLRF   xB1
049BC:  CLRF   xB0
049BE:  CLRF   xB7
049C0:  CLRF   xB6
049C2:  CLRF   xB5
049C4:  CLRF   xB4
049C6:  CLRF   xBB
049C8:  CLRF   xBA
049CA:  CLRF   xB9
049CC:  CLRF   xB8
049CE:  CLRF   xBF
049D0:  CLRF   xBE
049D2:  CLRF   xBD
049D4:  CLRF   xBC
049D6:  CLRF   xC3
049D8:  CLRF   xC2
049DA:  CLRF   xC1
049DC:  CLRF   xC0
049DE:  CLRF   xC7
049E0:  CLRF   xC6
049E2:  MOVLW  48
049E4:  MOVWF  xC5
049E6:  MOVLW  83
049E8:  MOVWF  xC4
049EA:  CLRF   xCB
049EC:  CLRF   xCA
049EE:  MOVLW  20
049F0:  MOVWF  xC9
049F2:  MOVLW  83
049F4:  MOVWF  xC8
049F6:  CLRF   xCF
049F8:  CLRF   xCE
049FA:  CLRF   xCD
049FC:  MOVLW  7F
049FE:  MOVWF  xCC
04A00:  CLRF   xD3
04A02:  CLRF   xD2
04A04:  CLRF   xD1
04A06:  CLRF   xD0
04A08:  CLRF   xD7
04A0A:  CLRF   xD6
04A0C:  CLRF   xD5
04A0E:  CLRF   xD4
04A10:  CLRF   xDB
04A12:  CLRF   xDA
04A14:  CLRF   xD9
04A16:  CLRF   xD8
04A18:  CLRF   xDF
04A1A:  CLRF   xDE
04A1C:  CLRF   xDD
04A1E:  CLRF   xDC
04A20:  CLRF   xE3
04A22:  CLRF   xE2
04A24:  CLRF   xE1
04A26:  CLRF   xE0
04A28:  MOVLW  5C
04A2A:  MOVWF  xE7
04A2C:  MOVLW  AA
04A2E:  MOVWF  xE6
04A30:  MOVLW  52
04A32:  MOVWF  xE5
04A34:  MOVLW  77
04A36:  MOVWF  xE4
04A38:  MOVLW  E0
04A3A:  MOVWF  xEB
04A3C:  MOVLW  2D
04A3E:  MOVWF  xEA
04A40:  MOVLW  10
04A42:  MOVWF  xE9
04A44:  MOVLW  75
04A46:  MOVWF  xE8
04A48:  MOVLW  FF
04A4A:  MOVWF  xEF
04A4C:  MOVLW  21
04A4E:  MOVWF  xEE
04A50:  MOVLW  15
04A52:  MOVWF  xED
04A54:  MOVLW  80
04A56:  MOVWF  xEC
04A58:  MOVLW  82
04A5A:  MOVWF  xF3
04A5C:  MOVLW  12
04A5E:  MOVWF  xF2
04A60:  MOVLW  F4
04A62:  MOVWF  xF1
04A64:  MOVLW  86
04A66:  MOVWF  xF0
04A68:  CLRF   xF4
04A6A:  CLRF   xF5
04A6C:  MOVLB  4
04A6E:  BCF    x84.3
04A70:  BCF    x84.4
04A72:  BCF    x84.5
04A74:  BSF    x84.6
04A76:  BCF    x84.7
04A78:  MOVLB  6
04A7A:  BCF    xFA.0
04A7C:  BCF    xFA.1
04A7E:  CLRF   xFB
04A80:  CLRF   xFC
04A82:  MOVLW  01
04A84:  MOVWF  xFD
04A86:  CLRF   xFE
04A88:  MOVLW  0A
04A8A:  MOVWF  xFF
04A8C:  MOVLB  7
04A8E:  MOVWF  x00
04A90:  MOVWF  x01
04A92:  CLRF   x02
04A94:  MOVLW  47
04A96:  MOVWF  x03
04A98:  CLRF   x04
04A9A:  MOVLW  01
04A9C:  MOVWF  x05
04A9E:  CLRF   x06
04AA0:  CLRF   x07
04AA2:  CLRF   x08
04AA4:  CLRF   x0A
04AA6:  CLRF   x09
04AA8:  CLRF   x0C
04AAA:  CLRF   x0B
04AAC:  CLRF   x0E
04AAE:  CLRF   x0D
04AB0:  CLRF   x10
04AB2:  MOVLW  0F
04AB4:  MOVWF  x0F
04AB6:  CLRF   x12
04AB8:  CLRF   x11
04ABA:  CLRF   x14
04ABC:  CLRF   x13
04ABE:  CLRF   x16
04AC0:  CLRF   x15
04AC2:  CLRF   x18
04AC4:  CLRF   x17
04AC6:  CLRF   x1A
04AC8:  CLRF   x19
04ACA:  CLRF   x1E
04ACC:  CLRF   x1D
04ACE:  CLRF   x1C
04AD0:  CLRF   x1B
04AD2:  CLRF   x32
04AD4:  CLRF   x33
04AD6:  CLRF   x34
04AD8:  CLRF   x35
04ADA:  CLRF   x36
04ADC:  CLRF   x37
04ADE:  CLRF   x38
04AE0:  MOVLW  0A
04AE2:  MOVWF  x39
04AE4:  CLRF   x3A
04AE6:  CLRF   x3B
04AE8:  CLRF   x3C
04AEA:  CLRF   x3D
04AEC:  CLRF   x3E
04AEE:  CLRF   x3F
04AF0:  CLRF   x40
04AF2:  CLRF   x41
04AF4:  CLRF   x42
04AF6:  CLRF   x43
04AF8:  MOVWF  x44
04AFA:  CLRF   x46
04AFC:  CLRF   x45
04AFE:  CLRF   x48
04B00:  CLRF   x47
04B02:  CLRF   x4A
04B04:  CLRF   x49
04B06:  CLRF   x4C
04B08:  CLRF   x4B
04B0A:  CLRF   x4E
04B0C:  CLRF   x4D
04B0E:  CLRF   x50
04B10:  CLRF   x4F
04B12:  MOVF   FC1,W
04B14:  ANDLW  C0
04B16:  IORLW  0F
04B18:  MOVWF  FC1
04B1A:  MOVLW  07
04B1C:  MOVWF  FB4
04B1E:  MOVLB  4
04B20:  CLRF   x3A
04B22:  CLRF   x3B
04B24:  CLRF   x8B
04B26:  CLRF   x8C
04B28:  CLRF   x8D
04B2A:  CLRF   x8E
04B2C:  CLRF   x8F
04B2E:  CLRF   x90
04B30:  CLRF   x91
04B32:  CLRF   x92
04B34:  CLRF   x93
04B36:  CLRF   x94
04B38:  CLRF   x95
04B3A:  CLRF   x96
04B3C:  CLRF   x97
04B3E:  CLRF   x98
04B40:  CLRF   x99
04B42:  CLRF   x9A
04B44:  CLRF   x9B
04B46:  CLRF   x9C
04B48:  CLRF   x9D
04B4A:  CLRF   x9E
04B4C:  CLRF   x9F
04B4E:  CLRF   xA0
04B50:  CLRF   xA1
04B52:  CLRF   xA2
04B54:  CLRF   xA3
04B56:  CLRF   xA4
04B58:  CLRF   xA5
04B5A:  CLRF   xA6
04B5C:  CLRF   xA7
04B5E:  CLRF   xA8
04B60:  CLRF   xA9
04B62:  CLRF   xAA
04B64:  CLRF   xAB
04B66:  CLRF   xAC
04B68:  CLRF   xAD
04B6A:  CLRF   xAE
04B6C:  CLRF   xAF
04B6E:  CLRF   xB0
04B70:  CLRF   xB1
04B72:  CLRF   xB2
04B74:  CLRF   xB3
04B76:  CLRF   xB4
04B78:  CLRF   xB5
04B7A:  CLRF   xB6
04B7C:  CLRF   xB7
04B7E:  CLRF   xB8
04B80:  CLRF   xB9
04B82:  CLRF   xBA
04B84:  CLRF   xBB
04B86:  CLRF   xBC
04B88:  CLRF   xBD
04B8A:  CLRF   xBE
04B8C:  CLRF   xBF
04B8E:  CLRF   xC0
04B90:  CLRF   xC1
04B92:  CLRF   xC2
04B94:  CLRF   xC3
04B96:  CLRF   xC4
04B98:  CLRF   xC5
04B9A:  CLRF   xC6
04B9C:  CLRF   xC7
04B9E:  CLRF   xC8
04BA0:  CLRF   xC9
04BA2:  CLRF   xCA
04BA4:  CLRF   xCB
04BA6:  CLRF   xCC
04BA8:  CLRF   xCD
04BAA:  CLRF   xCE
04BAC:  CLRF   xCF
04BAE:  CLRF   xD0
04BB0:  CLRF   xD1
04BB2:  CLRF   xD2
04BB4:  CLRF   xD3
04BB6:  CLRF   xD4
04BB8:  CLRF   xD5
04BBA:  CLRF   xD6
04BBC:  CLRF   xD7
04BBE:  CLRF   xD8
04BC0:  CLRF   xD9
04BC2:  CLRF   xDA
04BC4:  CLRF   xDB
04BC6:  CLRF   xDC
04BC8:  CLRF   xDD
04BCA:  CLRF   xDE
04BCC:  CLRF   xDF
04BCE:  CLRF   xE0
04BD0:  CLRF   xE1
04BD2:  CLRF   xE2
04BD4:  CLRF   xE3
04BD6:  CLRF   xE4
04BD8:  CLRF   xE5
04BDA:  CLRF   xE6
04BDC:  CLRF   xE7
04BDE:  CLRF   xE8
04BE0:  CLRF   xE9
04BE2:  CLRF   xEA
04BE4:  CLRF   xEB
04BE6:  CLRF   xEC
04BE8:  CLRF   xED
04BEA:  CLRF   xEE
04BEC:  CLRF   xEF
04BEE:  CLRF   xF0
04BF0:  CLRF   xF1
04BF2:  CLRF   xF2
04BF4:  CLRF   xF3
04BF6:  CLRF   xF4
04BF8:  CLRF   xF5
04BFA:  CLRF   xF6
04BFC:  CLRF   xF7
04BFE:  CLRF   xF8
04C00:  CLRF   xF9
04C02:  CLRF   xFA
04C04:  CLRF   xFB
04C06:  CLRF   xFC
04C08:  CLRF   xFD
04C0A:  CLRF   xFE
04C0C:  CLRF   xFF
04C0E:  MOVLB  5
04C10:  CLRF   x00
04C12:  CLRF   x01
04C14:  CLRF   x02
04C16:  CLRF   x03
04C18:  CLRF   x04
04C1A:  CLRF   x05
04C1C:  CLRF   x06
04C1E:  CLRF   x07
04C20:  CLRF   x08
04C22:  CLRF   x09
04C24:  CLRF   x0A
04C26:  CLRF   x0B
04C28:  CLRF   x0C
04C2A:  CLRF   x0D
04C2C:  CLRF   x0E
04C2E:  CLRF   x0F
04C30:  CLRF   x10
04C32:  CLRF   x11
04C34:  CLRF   x12
04C36:  CLRF   x13
04C38:  CLRF   x14
04C3A:  CLRF   x15
04C3C:  CLRF   x16
04C3E:  CLRF   x17
04C40:  CLRF   x18
04C42:  CLRF   x19
04C44:  CLRF   x1A
04C46:  CLRF   x1B
04C48:  CLRF   x1C
04C4A:  CLRF   x1D
04C4C:  CLRF   x1E
04C4E:  CLRF   x1F
04C50:  CLRF   x20
04C52:  CLRF   x21
04C54:  CLRF   x22
04C56:  CLRF   x23
04C58:  CLRF   x24
04C5A:  CLRF   x25
04C5C:  CLRF   x26
04C5E:  CLRF   x27
04C60:  CLRF   x28
04C62:  CLRF   x29
04C64:  CLRF   x2A
04C66:  CLRF   x2B
04C68:  CLRF   x2C
04C6A:  CLRF   x2D
04C6C:  CLRF   x2E
04C6E:  CLRF   x2F
04C70:  CLRF   x30
04C72:  CLRF   x31
04C74:  CLRF   x32
04C76:  CLRF   x33
04C78:  CLRF   x34
04C7A:  CLRF   x35
04C7C:  CLRF   x36
04C7E:  CLRF   x37
04C80:  CLRF   x38
04C82:  CLRF   x39
04C84:  CLRF   x3A
04C86:  CLRF   x3B
04C88:  CLRF   x3C
04C8A:  CLRF   x3D
04C8C:  CLRF   x3E
04C8E:  CLRF   x3F
04C90:  CLRF   x40
04C92:  CLRF   x41
04C94:  CLRF   x42
04C96:  CLRF   x43
04C98:  CLRF   x44
04C9A:  CLRF   x45
04C9C:  CLRF   x46
04C9E:  CLRF   x47
04CA0:  CLRF   x48
04CA2:  CLRF   x49
04CA4:  CLRF   x4A
04CA6:  CLRF   x4B
04CA8:  CLRF   x4C
04CAA:  CLRF   x4D
04CAC:  CLRF   x4E
04CAE:  CLRF   x4F
04CB0:  CLRF   x50
04CB2:  CLRF   x51
04CB4:  CLRF   x52
04CB6:  CLRF   x53
04CB8:  CLRF   x54
04CBA:  CLRF   x55
04CBC:  CLRF   x56
04CBE:  CLRF   x57
04CC0:  CLRF   x58
04CC2:  CLRF   x59
04CC4:  CLRF   x5A
04CC6:  CLRF   x5B
04CC8:  CLRF   x5C
04CCA:  CLRF   x5D
04CCC:  CLRF   x5E
04CCE:  CLRF   x5F
04CD0:  CLRF   x60
04CD2:  CLRF   x61
04CD4:  CLRF   x62
04CD6:  CLRF   x63
04CD8:  CLRF   x64
04CDA:  CLRF   x65
04CDC:  CLRF   x66
04CDE:  CLRF   x67
04CE0:  CLRF   x68
04CE2:  CLRF   x69
04CE4:  CLRF   x6A
04CE6:  CLRF   x6B
04CE8:  CLRF   x6C
04CEA:  CLRF   x6D
04CEC:  CLRF   x6E
04CEE:  CLRF   x6F
04CF0:  CLRF   x70
04CF2:  CLRF   x71
04CF4:  CLRF   x72
04CF6:  CLRF   x73
04CF8:  CLRF   x74
04CFA:  CLRF   x75
04CFC:  CLRF   x76
04CFE:  CLRF   x77
04D00:  CLRF   x78
04D02:  CLRF   x79
04D04:  CLRF   x7A
04D06:  CLRF   x7B
04D08:  CLRF   x7C
04D0A:  CLRF   x7D
04D0C:  CLRF   x7E
04D0E:  CLRF   x7F
04D10:  CLRF   x80
04D12:  CLRF   x81
04D14:  CLRF   x82
04D16:  CLRF   x83
04D18:  CLRF   x84
04D1A:  CLRF   x85
04D1C:  CLRF   x86
04D1E:  CLRF   x87
04D20:  CLRF   x88
04D22:  CLRF   x89
04D24:  CLRF   x8A
04D26:  CLRF   x8B
04D28:  CLRF   x8C
04D2A:  CLRF   x8D
04D2C:  CLRF   x8E
04D2E:  CLRF   x8F
04D30:  CLRF   x90
04D32:  CLRF   x91
04D34:  CLRF   x92
04D36:  CLRF   x93
04D38:  CLRF   x94
04D3A:  CLRF   x95
04D3C:  CLRF   x96
04D3E:  CLRF   x97
04D40:  CLRF   x98
04D42:  CLRF   x99
04D44:  CLRF   x9A
04D46:  CLRF   x9B
04D48:  CLRF   x9C
04D4A:  CLRF   x9D
04D4C:  CLRF   x9E
04D4E:  CLRF   x9F
04D50:  CLRF   xA0
04D52:  CLRF   xA1
04D54:  CLRF   xA2
04D56:  CLRF   xA3
04D58:  CLRF   xA4
04D5A:  CLRF   xA5
04D5C:  CLRF   xA6
04D5E:  CLRF   xA7
04D60:  CLRF   xA8
04D62:  CLRF   xA9
04D64:  CLRF   xAA
04D66:  CLRF   xAB
04D68:  CLRF   xAC
04D6A:  CLRF   xAD
04D6C:  CLRF   xAE
04D6E:  CLRF   xAF
04D70:  CLRF   xB0
04D72:  CLRF   xB1
04D74:  CLRF   xB2
04D76:  CLRF   xB3
04D78:  CLRF   xB4
04D7A:  CLRF   xB5
04D7C:  CLRF   xB6
04D7E:  CLRF   xB7
04D80:  CLRF   xB8
04D82:  CLRF   xB9
04D84:  CLRF   xBA
04D86:  CLRF   xBB
04D88:  CLRF   xBC
04D8A:  CLRF   xBD
04D8C:  CLRF   xBE
04D8E:  CLRF   xBF
04D90:  CLRF   xC0
04D92:  CLRF   xC1
04D94:  CLRF   xC2
04D96:  CLRF   xC3
04D98:  CLRF   xC4
04D9A:  CLRF   xC5
04D9C:  CLRF   xC6
04D9E:  CLRF   xC7
04DA0:  CLRF   xC8
04DA2:  CLRF   xC9
04DA4:  CLRF   xCA
04DA6:  CLRF   xCB
04DA8:  CLRF   xCC
04DAA:  CLRF   xCD
04DAC:  CLRF   xCE
04DAE:  CLRF   xCF
04DB0:  CLRF   xD0
04DB2:  CLRF   xD1
04DB4:  CLRF   xD2
04DB6:  CLRF   xD3
04DB8:  CLRF   xD4
04DBA:  CLRF   xD5
04DBC:  CLRF   xD6
04DBE:  CLRF   xD7
04DC0:  CLRF   xD8
04DC2:  CLRF   xD9
04DC4:  CLRF   xDA
04DC6:  CLRF   xDB
04DC8:  CLRF   xDC
04DCA:  CLRF   xDD
04DCC:  CLRF   xDE
04DCE:  CLRF   xDF
04DD0:  CLRF   xE0
04DD2:  CLRF   xE1
04DD4:  CLRF   xE2
04DD6:  CLRF   xE3
04DD8:  CLRF   xE4
04DDA:  CLRF   xE5
04DDC:  CLRF   xE6
04DDE:  CLRF   xE7
04DE0:  CLRF   xE8
04DE2:  CLRF   xE9
04DE4:  CLRF   xEA
04DE6:  CLRF   xEB
04DE8:  CLRF   xEC
04DEA:  CLRF   xED
04DEC:  CLRF   xEE
04DEE:  CLRF   xEF
04DF0:  CLRF   xF0
04DF2:  CLRF   xF1
04DF4:  CLRF   xF2
04DF6:  CLRF   xF3
04DF8:  CLRF   xF4
04DFA:  CLRF   xF5
04DFC:  CLRF   xF6
04DFE:  CLRF   xF7
04E00:  CLRF   xF8
04E02:  CLRF   xF9
04E04:  CLRF   xFA
04E06:  CLRF   xFB
04E08:  CLRF   xFC
04E0A:  CLRF   xFD
04E0C:  CLRF   xFE
04E0E:  CLRF   xFF
04E10:  MOVLB  6
04E12:  CLRF   x00
04E14:  CLRF   x01
04E16:  CLRF   x02
04E18:  CLRF   x03
04E1A:  CLRF   x04
04E1C:  CLRF   x05
04E1E:  CLRF   x06
04E20:  CLRF   x07
04E22:  CLRF   x08
04E24:  CLRF   x09
04E26:  CLRF   x0A
04E28:  CLRF   x0B
04E2A:  CLRF   x0C
04E2C:  CLRF   x0D
04E2E:  CLRF   x0E
04E30:  CLRF   x0F
04E32:  CLRF   x10
04E34:  CLRF   x11
04E36:  CLRF   x12
04E38:  CLRF   x13
04E3A:  CLRF   x14
04E3C:  CLRF   x15
04E3E:  CLRF   x16
04E40:  CLRF   x17
04E42:  CLRF   x18
04E44:  CLRF   x19
04E46:  CLRF   x1A
04E48:  CLRF   x1B
04E4A:  CLRF   x1C
04E4C:  CLRF   x1D
04E4E:  CLRF   x1E
04E50:  CLRF   x1F
04E52:  CLRF   x20
04E54:  CLRF   x21
04E56:  CLRF   x22
04E58:  CLRF   x23
04E5A:  CLRF   x24
04E5C:  CLRF   x25
04E5E:  CLRF   x26
04E60:  CLRF   x27
04E62:  CLRF   x28
04E64:  CLRF   x29
04E66:  CLRF   x2A
04E68:  CLRF   x2B
04E6A:  CLRF   x2C
04E6C:  CLRF   x2D
04E6E:  CLRF   x2E
04E70:  CLRF   x2F
04E72:  CLRF   x30
04E74:  CLRF   x31
04E76:  CLRF   x32
04E78:  CLRF   x33
04E7A:  CLRF   x34
04E7C:  CLRF   x35
04E7E:  CLRF   x36
04E80:  CLRF   x37
04E82:  CLRF   x38
04E84:  CLRF   x39
04E86:  CLRF   x3A
04E88:  CLRF   x3B
04E8A:  CLRF   x3C
04E8C:  CLRF   x3D
04E8E:  CLRF   x3E
04E90:  CLRF   x3F
04E92:  CLRF   x40
04E94:  CLRF   x41
04E96:  CLRF   x42
04E98:  CLRF   x43
04E9A:  CLRF   x44
04E9C:  CLRF   x45
04E9E:  CLRF   x46
04EA0:  CLRF   x47
04EA2:  CLRF   x48
04EA4:  CLRF   x49
04EA6:  CLRF   x4A
04EA8:  CLRF   x4B
04EAA:  CLRF   x4C
04EAC:  CLRF   x4D
04EAE:  CLRF   x4E
04EB0:  CLRF   x4F
04EB2:  CLRF   x50
04EB4:  CLRF   x51
04EB6:  CLRF   x52
04EB8:  CLRF   x53
04EBA:  CLRF   x54
04EBC:  CLRF   x55
04EBE:  CLRF   x56
04EC0:  CLRF   x57
04EC2:  CLRF   x58
04EC4:  CLRF   x59
04EC6:  CLRF   x5A
04EC8:  CLRF   x5B
04ECA:  CLRF   x5C
04ECC:  CLRF   x5D
04ECE:  CLRF   x5E
04ED0:  CLRF   x5F
04ED2:  CLRF   x60
04ED4:  CLRF   x61
04ED6:  CLRF   x62
04ED8:  CLRF   x63
04EDA:  CLRF   x64
04EDC:  CLRF   x65
04EDE:  CLRF   x66
04EE0:  CLRF   x67
04EE2:  CLRF   x68
04EE4:  CLRF   x69
04EE6:  CLRF   x6A
04EE8:  CLRF   x6B
04EEA:  CLRF   x6C
04EEC:  CLRF   x6D
04EEE:  CLRF   x6E
04EF0:  CLRF   x6F
04EF2:  CLRF   x70
04EF4:  CLRF   x71
04EF6:  CLRF   x72
04EF8:  CLRF   x73
04EFA:  CLRF   x74
04EFC:  CLRF   x75
04EFE:  CLRF   x76
04F00:  CLRF   x77
04F02:  CLRF   x78
04F04:  CLRF   x79
04F06:  CLRF   x7A
04F08:  CLRF   x87
04F0A:  CLRF   x88
04F0C:  CLRF   x89
04F0E:  CLRF   x8A
04F10:  CLRF   x8B
04F12:  CLRF   x8C
04F14:  CLRF   x8D
04F16:  CLRF   x8E
04F18:  MOVLW  6B
04F1A:  MOVWF  xF6
04F1C:  MOVLW  50
04F1E:  MOVWF  xF7
04F20:  MOVLW  61
04F22:  MOVWF  xF8
04F24:  CLRF   xF9
04F26:  MOVLB  7
04F28:  CLRF   x1F
04F2A:  CLRF   x20
04F2C:  CLRF   x21
04F2E:  CLRF   x22
04F30:  CLRF   x23
04F32:  CLRF   x24
04F34:  CLRF   x25
04F36:  CLRF   x26
....................    Display_on; 
04F38:  BSF    F8B.7
04F3A:  BCF    F94.7
....................    for (posicion=0;posicion<0x10;posicion++) 
04F3C:  MOVLB  4
04F3E:  CLRF   x7E
04F40:  MOVF   x7E,W
04F42:  SUBLW  0F
04F44:  BNC   4F5A
....................    { 
....................       SlaveA0Tx[posicion] = 0x00; 
04F46:  CLRF   03
04F48:  MOVF   x7E,W
04F4A:  ADDLW  5C
04F4C:  MOVWF  FE9
04F4E:  MOVLW  04
04F50:  ADDWFC 03,W
04F52:  MOVWF  FEA
04F54:  CLRF   FEF
....................    } 
04F56:  INCF   x7E,F
04F58:  BRA    4F40
....................     
....................    delay_ms(1000);    
04F5A:  MOVLW  04
04F5C:  MOVLB  7
04F5E:  MOVWF  x51
04F60:  MOVLW  FA
04F62:  MOVWF  x57
04F64:  MOVLB  0
04F66:  CALL   16B6
04F6A:  MOVLB  7
04F6C:  DECFSZ x51,F
04F6E:  BRA    4F60
....................    //enable_interrupts(INT_SSP); 
....................    setup_timer_0(RTCC_8_BIT|RTCC_DIV_1); 
04F70:  MOVLW  C8
04F72:  MOVWF  FD5
....................    enable_interrupts(INT_TIMER0); 
04F74:  BSF    FF2.5
....................    setup_timer_1(T1_INTERNAL|T1_DIV_BY_1); 
04F76:  MOVLW  85
04F78:  MOVWF  FCD
....................    enable_interrupts(INT_TIMER1); 
04F7A:  BSF    F9D.0
....................    setup_adc_ports(AN0_TO_AN3); 
04F7C:  MOVF   FC1,W
04F7E:  ANDLW  C0
04F80:  IORLW  0B
04F82:  MOVWF  FC1
....................    setup_adc(ADC_CLOCK_DIV_32 ); 
04F84:  MOVF   FC0,W
04F86:  ANDLW  C0
04F88:  IORLW  02
04F8A:  MOVWF  FC0
04F8C:  BSF    FC0.7
04F8E:  BSF    FC2.0
....................    enable_interrupts(global); 
04F90:  MOVLW  C0
04F92:  IORWF  FF2,F
....................  
.................... //Lectura EEPROM//-------------------------- 
....................    Testerilizacionp[0]=read_eeprom(0); 
04F94:  MOVFF  FF2,751
04F98:  BCF    FF2.7
04F9A:  CLRF   FAA
04F9C:  CLRF   FA9
04F9E:  BCF    FA6.6
04FA0:  BCF    FA6.7
04FA2:  BSF    FA6.0
04FA4:  MOVF   FA8,W
04FA6:  BTFSC  x51.7
04FA8:  BSF    FF2.7
04FAA:  MOVLB  4
04FAC:  MOVWF  x8F
....................    delay_ms(10); 
04FAE:  MOVLW  0A
04FB0:  MOVLB  7
04FB2:  MOVWF  x57
04FB4:  MOVLB  0
04FB6:  CALL   16B6
....................    Testerilizacionp[1]=read_eeprom(1); 
04FBA:  MOVFF  FF2,751
04FBE:  BCF    FF2.7
04FC0:  CLRF   FAA
04FC2:  MOVLW  01
04FC4:  MOVWF  FA9
04FC6:  BCF    FA6.6
04FC8:  BCF    FA6.7
04FCA:  BSF    FA6.0
04FCC:  MOVF   FA8,W
04FCE:  MOVLB  7
04FD0:  BTFSC  x51.7
04FD2:  BSF    FF2.7
04FD4:  MOVLB  4
04FD6:  MOVWF  x90
....................    delay_ms(10); 
04FD8:  MOVLW  0A
04FDA:  MOVLB  7
04FDC:  MOVWF  x57
04FDE:  MOVLB  0
04FE0:  CALL   16B6
....................    Testerilizacionp[2]=read_eeprom(2); 
04FE4:  MOVFF  FF2,751
04FE8:  BCF    FF2.7
04FEA:  CLRF   FAA
04FEC:  MOVLW  02
04FEE:  MOVWF  FA9
04FF0:  BCF    FA6.6
04FF2:  BCF    FA6.7
04FF4:  BSF    FA6.0
04FF6:  MOVF   FA8,W
04FF8:  MOVLB  7
04FFA:  BTFSC  x51.7
04FFC:  BSF    FF2.7
04FFE:  MOVLB  4
05000:  MOVWF  x91
....................    delay_ms(10); 
05002:  MOVLW  0A
05004:  MOVLB  7
05006:  MOVWF  x57
05008:  MOVLB  0
0500A:  CALL   16B6
....................    Testerilizacionp[3]=read_eeprom(3); 
0500E:  MOVFF  FF2,751
05012:  BCF    FF2.7
05014:  CLRF   FAA
05016:  MOVLW  03
05018:  MOVWF  FA9
0501A:  BCF    FA6.6
0501C:  BCF    FA6.7
0501E:  BSF    FA6.0
05020:  MOVF   FA8,W
05022:  MOVLB  7
05024:  BTFSC  x51.7
05026:  BSF    FF2.7
05028:  MOVLB  4
0502A:  MOVWF  x92
....................    delay_ms(10); 
0502C:  MOVLW  0A
0502E:  MOVLB  7
05030:  MOVWF  x57
05032:  MOVLB  0
05034:  CALL   16B6
....................    Tsecadop[0]=read_eeprom(4); 
05038:  MOVFF  FF2,751
0503C:  BCF    FF2.7
0503E:  CLRF   FAA
05040:  MOVLW  04
05042:  MOVWF  FA9
05044:  BCF    FA6.6
05046:  BCF    FA6.7
05048:  BSF    FA6.0
0504A:  MOVF   FA8,W
0504C:  MOVLB  7
0504E:  BTFSC  x51.7
05050:  BSF    FF2.7
05052:  MOVLB  4
05054:  MOVWF  x97
....................    delay_ms(10); 
05056:  MOVLW  0A
05058:  MOVLB  7
0505A:  MOVWF  x57
0505C:  MOVLB  0
0505E:  CALL   16B6
....................    Tsecadop[1]=read_eeprom(5); 
05062:  MOVFF  FF2,751
05066:  BCF    FF2.7
05068:  CLRF   FAA
0506A:  MOVLW  05
0506C:  MOVWF  FA9
0506E:  BCF    FA6.6
05070:  BCF    FA6.7
05072:  BSF    FA6.0
05074:  MOVF   FA8,W
05076:  MOVLB  7
05078:  BTFSC  x51.7
0507A:  BSF    FF2.7
0507C:  MOVLB  4
0507E:  MOVWF  x98
....................    delay_ms(10); 
05080:  MOVLW  0A
05082:  MOVLB  7
05084:  MOVWF  x57
05086:  MOVLB  0
05088:  CALL   16B6
....................    Tsecadop[2]=read_eeprom(6); 
0508C:  MOVFF  FF2,751
05090:  BCF    FF2.7
05092:  CLRF   FAA
05094:  MOVLW  06
05096:  MOVWF  FA9
05098:  BCF    FA6.6
0509A:  BCF    FA6.7
0509C:  BSF    FA6.0
0509E:  MOVF   FA8,W
050A0:  MOVLB  7
050A2:  BTFSC  x51.7
050A4:  BSF    FF2.7
050A6:  MOVLB  4
050A8:  MOVWF  x99
....................    delay_ms(10); 
050AA:  MOVLW  0A
050AC:  MOVLB  7
050AE:  MOVWF  x57
050B0:  MOVLB  0
050B2:  CALL   16B6
....................    Tsecadop[3]=read_eeprom(7); 
050B6:  MOVFF  FF2,751
050BA:  BCF    FF2.7
050BC:  CLRF   FAA
050BE:  MOVLW  07
050C0:  MOVWF  FA9
050C2:  BCF    FA6.6
050C4:  BCF    FA6.7
050C6:  BSF    FA6.0
050C8:  MOVF   FA8,W
050CA:  MOVLB  7
050CC:  BTFSC  x51.7
050CE:  BSF    FF2.7
050D0:  MOVLB  4
050D2:  MOVWF  x9A
....................    delay_ms(10); 
050D4:  MOVLW  0A
050D6:  MOVLB  7
050D8:  MOVWF  x57
050DA:  MOVLB  0
050DC:  CALL   16B6
....................    Setpoint=read_eeprom(8); 
050E0:  MOVFF  FF2,751
050E4:  BCF    FF2.7
050E6:  CLRF   FAA
050E8:  MOVLW  08
050EA:  MOVWF  FA9
050EC:  BCF    FA6.6
050EE:  BCF    FA6.7
050F0:  BSF    FA6.0
050F2:  MOVF   FA8,W
050F4:  MOVLB  7
050F6:  BTFSC  x51.7
050F8:  BSF    FF2.7
050FA:  MOVWF  x02
....................    delay_ms(10); 
050FC:  MOVLW  0A
050FE:  MOVWF  x57
05100:  MOVLB  0
05102:  CALL   16B6
....................    Nivel=read_eeprom(9); 
05106:  MOVFF  FF2,751
0510A:  BCF    FF2.7
0510C:  CLRF   FAA
0510E:  MOVLW  09
05110:  MOVWF  FA9
05112:  BCF    FA6.6
05114:  BCF    FA6.7
05116:  BSF    FA6.0
05118:  MOVF   FA8,W
0511A:  MOVLB  7
0511C:  BTFSC  x51.7
0511E:  BSF    FF2.7
05120:  CLRF   x12
05122:  MOVWF  x11
....................    delay_ms(10); 
05124:  MOVLW  0A
05126:  MOVWF  x57
05128:  MOVLB  0
0512A:  CALL   16B6
....................    Password[0]=read_eeprom(10); 
0512E:  MOVFF  FF2,751
05132:  BCF    FF2.7
05134:  CLRF   FAA
05136:  MOVLW  0A
05138:  MOVWF  FA9
0513A:  BCF    FA6.6
0513C:  BCF    FA6.7
0513E:  BSF    FA6.0
05140:  MOVF   FA8,W
05142:  MOVLB  7
05144:  BTFSC  x51.7
05146:  BSF    FF2.7
05148:  MOVWF  x23
....................    delay_ms(10); 
0514A:  MOVLW  0A
0514C:  MOVWF  x57
0514E:  MOVLB  0
05150:  CALL   16B6
....................    Password[1]=read_eeprom(11); 
05154:  MOVFF  FF2,751
05158:  BCF    FF2.7
0515A:  CLRF   FAA
0515C:  MOVLW  0B
0515E:  MOVWF  FA9
05160:  BCF    FA6.6
05162:  BCF    FA6.7
05164:  BSF    FA6.0
05166:  MOVF   FA8,W
05168:  MOVLB  7
0516A:  BTFSC  x51.7
0516C:  BSF    FF2.7
0516E:  MOVWF  x24
....................    delay_ms(10); 
05170:  MOVLW  0A
05172:  MOVWF  x57
05174:  MOVLB  0
05176:  CALL   16B6
....................    Password[2]=read_eeprom(12); 
0517A:  MOVFF  FF2,751
0517E:  BCF    FF2.7
05180:  CLRF   FAA
05182:  MOVLW  0C
05184:  MOVWF  FA9
05186:  BCF    FA6.6
05188:  BCF    FA6.7
0518A:  BSF    FA6.0
0518C:  MOVF   FA8,W
0518E:  MOVLB  7
05190:  BTFSC  x51.7
05192:  BSF    FF2.7
05194:  MOVWF  x25
....................    delay_ms(10); 
05196:  MOVLW  0A
05198:  MOVWF  x57
0519A:  MOVLB  0
0519C:  CALL   16B6
....................    Password[3]=read_eeprom(13); 
051A0:  MOVFF  FF2,751
051A4:  BCF    FF2.7
051A6:  CLRF   FAA
051A8:  MOVLW  0D
051AA:  MOVWF  FA9
051AC:  BCF    FA6.6
051AE:  BCF    FA6.7
051B0:  BSF    FA6.0
051B2:  MOVF   FA8,W
051B4:  MOVLB  7
051B6:  BTFSC  x51.7
051B8:  BSF    FF2.7
051BA:  MOVWF  x26
....................    delay_ms(10); 
051BC:  MOVLW  0A
051BE:  MOVWF  x57
051C0:  MOVLB  0
051C2:  CALL   16B6
....................    Ganancia=read_eeprom(20); 
051C6:  MOVFF  FF2,751
051CA:  BCF    FF2.7
051CC:  CLRF   FAA
051CE:  MOVLW  14
051D0:  MOVWF  FA9
051D2:  BCF    FA6.6
051D4:  BCF    FA6.7
051D6:  BSF    FA6.0
051D8:  MOVF   FA8,W
051DA:  MOVLB  7
051DC:  BTFSC  x51.7
051DE:  BSF    FF2.7
051E0:  CLRF   x58
051E2:  MOVWF  x57
051E4:  MOVLB  0
051E6:  CALL   16DE
051EA:  MOVFF  03,6C7
051EE:  MOVFF  02,6C6
051F2:  MOVFF  01,6C5
051F6:  MOVFF  00,6C4
....................    delay_ms(10); 
051FA:  MOVLW  0A
051FC:  MOVLB  7
051FE:  MOVWF  x57
05200:  MOVLB  0
05202:  CALL   16B6
....................    Ajuste=read_eeprom(21); 
05206:  MOVFF  FF2,751
0520A:  BCF    FF2.7
0520C:  CLRF   FAA
0520E:  MOVLW  15
05210:  MOVWF  FA9
05212:  BCF    FA6.6
05214:  BCF    FA6.7
05216:  BSF    FA6.0
05218:  MOVF   FA8,W
0521A:  MOVLB  7
0521C:  BTFSC  x51.7
0521E:  BSF    FF2.7
05220:  MOVLB  6
05222:  MOVWF  x9D
....................    delay_ms(10); 
05224:  MOVLW  0A
05226:  MOVLB  7
05228:  MOVWF  x57
0522A:  MOVLB  0
0522C:  CALL   16B6
....................    Ajusten=read_eeprom(22); 
05230:  MOVFF  FF2,751
05234:  BCF    FF2.7
05236:  CLRF   FAA
05238:  MOVLW  16
0523A:  MOVWF  FA9
0523C:  BCF    FA6.6
0523E:  BCF    FA6.7
05240:  BSF    FA6.0
05242:  MOVF   FA8,W
05244:  MOVLB  7
05246:  BTFSC  x51.7
05248:  BSF    FF2.7
0524A:  MOVLB  6
0524C:  MOVWF  x9E
....................    delay_ms(10); 
0524E:  MOVLW  0A
05250:  MOVLB  7
05252:  MOVWF  x57
05254:  MOVLB  0
05256:  CALL   16B6
....................    //Desvio=read_eeprom(23); 
....................    MediaMovil=read_eeprom(24); 
0525A:  MOVFF  FF2,751
0525E:  BCF    FF2.7
05260:  CLRF   FAA
05262:  MOVLW  18
05264:  MOVWF  FA9
05266:  BCF    FA6.6
05268:  BCF    FA6.7
0526A:  BSF    FA6.0
0526C:  MOVF   FA8,W
0526E:  MOVLB  7
05270:  BTFSC  x51.7
05272:  BSF    FF2.7
05274:  MOVLB  6
05276:  MOVWF  x9F
....................    delay_ms(10); 
05278:  MOVLW  0A
0527A:  MOVLB  7
0527C:  MOVWF  x57
0527E:  MOVLB  0
05280:  CALL   16B6
....................    Tciclo=read_eeprom(25); 
05284:  MOVFF  FF2,751
05288:  BCF    FF2.7
0528A:  CLRF   FAA
0528C:  MOVLW  19
0528E:  MOVWF  FA9
05290:  BCF    FA6.6
05292:  BCF    FA6.7
05294:  BSF    FA6.0
05296:  MOVF   FA8,W
05298:  MOVLB  7
0529A:  BTFSC  x51.7
0529C:  BSF    FF2.7
0529E:  CLRF   x58
052A0:  MOVWF  x57
052A2:  MOVLB  0
052A4:  CALL   16DE
052A8:  MOVFF  03,6AF
052AC:  MOVFF  02,6AE
052B0:  MOVFF  01,6AD
052B4:  MOVFF  00,6AC
....................    delay_ms(10); 
052B8:  MOVLW  0A
052BA:  MOVLB  7
052BC:  MOVWF  x57
052BE:  MOVLB  0
052C0:  CALL   16B6
....................    Integral=read_eeprom(26); 
052C4:  MOVFF  FF2,751
052C8:  BCF    FF2.7
052CA:  CLRF   FAA
052CC:  MOVLW  1A
052CE:  MOVWF  FA9
052D0:  BCF    FA6.6
052D2:  BCF    FA6.7
052D4:  BSF    FA6.0
052D6:  MOVF   FA8,W
052D8:  MOVLB  7
052DA:  BTFSC  x51.7
052DC:  BSF    FF2.7
052DE:  MOVLB  6
052E0:  MOVWF  xF4
....................    delay_ms(10); 
052E2:  MOVLW  0A
052E4:  MOVLB  7
052E6:  MOVWF  x57
052E8:  MOVLB  0
052EA:  CALL   16B6
....................    Derivativo=read_eeprom(27); 
052EE:  MOVFF  FF2,751
052F2:  BCF    FF2.7
052F4:  CLRF   FAA
052F6:  MOVLW  1B
052F8:  MOVWF  FA9
052FA:  BCF    FA6.6
052FC:  BCF    FA6.7
052FE:  BSF    FA6.0
05300:  MOVF   FA8,W
05302:  MOVLB  7
05304:  BTFSC  x51.7
05306:  BSF    FF2.7
05308:  MOVLB  6
0530A:  MOVWF  xF5
....................    delay_ms(10); 
0530C:  MOVLW  0A
0530E:  MOVLB  7
05310:  MOVWF  x57
05312:  MOVLB  0
05314:  CALL   16B6
....................    Temporal=read_eeprom(29); 
05318:  MOVFF  FF2,751
0531C:  BCF    FF2.7
0531E:  CLRF   FAA
05320:  MOVLW  1D
05322:  MOVWF  FA9
05324:  BCF    FA6.6
05326:  BCF    FA6.7
05328:  BSF    FA6.0
0532A:  MOVF   FA8,W
0532C:  MOVLB  7
0532E:  BTFSC  x51.7
05330:  BSF    FF2.7
05332:  CLRF   x58
05334:  MOVWF  x57
05336:  MOVLB  0
05338:  CALL   16DE
0533C:  MOVFF  03,686
05340:  MOVFF  02,685
05344:  MOVFF  01,684
05348:  MOVFF  00,683
....................    Temporal=Temporal/10.0; 
0534C:  MOVFF  686,759
05350:  MOVFF  685,758
05354:  MOVFF  684,757
05358:  MOVFF  683,756
0535C:  MOVLB  7
0535E:  CLRF   x5D
05360:  CLRF   x5C
05362:  MOVLW  20
05364:  MOVWF  x5B
05366:  MOVLW  82
05368:  MOVWF  x5A
0536A:  MOVLB  0
0536C:  CALL   1714
05370:  MOVFF  03,686
05374:  MOVFF  02,685
05378:  MOVFF  01,684
0537C:  MOVFF  00,683
....................    delay_ms(10); 
05380:  MOVLW  0A
05382:  MOVLB  7
05384:  MOVWF  x57
05386:  MOVLB  0
05388:  CALL   16B6
....................    Gain=read_eeprom(28)+Temporal; 
0538C:  MOVFF  FF2,751
05390:  BCF    FF2.7
05392:  CLRF   FAA
05394:  MOVLW  1C
05396:  MOVWF  FA9
05398:  BCF    FA6.6
0539A:  BCF    FA6.7
0539C:  BSF    FA6.0
0539E:  MOVF   FA8,W
053A0:  MOVLB  7
053A2:  BTFSC  x51.7
053A4:  BSF    FF2.7
053A6:  CLRF   x58
053A8:  MOVWF  x57
053AA:  MOVLB  0
053AC:  CALL   16DE
053B0:  BCF    FD8.1
053B2:  MOVFF  03,759
053B6:  MOVFF  02,758
053BA:  MOVFF  01,757
053BE:  MOVFF  00,756
053C2:  MOVFF  686,75D
053C6:  MOVFF  685,75C
053CA:  MOVFF  684,75B
053CE:  MOVFF  683,75A
053D2:  CALL   1872
053D6:  MOVFF  03,67E
053DA:  MOVFF  02,67D
053DE:  MOVFF  01,67C
053E2:  MOVFF  00,67B
....................    delay_ms(10); 
053E6:  MOVLW  0A
053E8:  MOVLB  7
053EA:  MOVWF  x57
053EC:  MOVLB  0
053EE:  CALL   16B6
....................    R1=make16(read_eeprom(31),read_eeprom(30)); 
053F2:  MOVFF  FF2,751
053F6:  BCF    FF2.7
053F8:  CLRF   FAA
053FA:  MOVLW  1F
053FC:  MOVWF  FA9
053FE:  BCF    FA6.6
05400:  BCF    FA6.7
05402:  BSF    FA6.0
05404:  MOVF   FA8,W
05406:  MOVLB  7
05408:  BTFSC  x51.7
0540A:  BSF    FF2.7
0540C:  MOVWF  x52
0540E:  MOVFF  FF2,753
05412:  BCF    FF2.7
05414:  CLRF   FAA
05416:  MOVLW  1E
05418:  MOVWF  FA9
0541A:  BCF    FA6.6
0541C:  BCF    FA6.7
0541E:  BSF    FA6.0
05420:  MOVF   FA8,W
05422:  BTFSC  x53.7
05424:  BSF    FF2.7
05426:  MOVWF  x54
05428:  MOVFF  752,03
0542C:  MOVF   x54,W
0542E:  MOVWF  x57
05430:  MOVFF  03,758
05434:  MOVLB  0
05436:  CALL   16DE
0543A:  MOVFF  03,6A7
0543E:  MOVFF  02,6A6
05442:  MOVFF  01,6A5
05446:  MOVFF  00,6A4
....................    delay_ms(10); 
0544A:  MOVLW  0A
0544C:  MOVLB  7
0544E:  MOVWF  x57
05450:  MOVLB  0
05452:  CALL   16B6
....................    Temporal=read_eeprom(33); 
05456:  MOVFF  FF2,751
0545A:  BCF    FF2.7
0545C:  CLRF   FAA
0545E:  MOVLW  21
05460:  MOVWF  FA9
05462:  BCF    FA6.6
05464:  BCF    FA6.7
05466:  BSF    FA6.0
05468:  MOVF   FA8,W
0546A:  MOVLB  7
0546C:  BTFSC  x51.7
0546E:  BSF    FF2.7
05470:  CLRF   x58
05472:  MOVWF  x57
05474:  MOVLB  0
05476:  CALL   16DE
0547A:  MOVFF  03,686
0547E:  MOVFF  02,685
05482:  MOVFF  01,684
05486:  MOVFF  00,683
....................    Temporal=Temporal/10.0; 
0548A:  MOVFF  686,759
0548E:  MOVFF  685,758
05492:  MOVFF  684,757
05496:  MOVFF  683,756
0549A:  MOVLB  7
0549C:  CLRF   x5D
0549E:  CLRF   x5C
054A0:  MOVLW  20
054A2:  MOVWF  x5B
054A4:  MOVLW  82
054A6:  MOVWF  x5A
054A8:  MOVLB  0
054AA:  CALL   1714
054AE:  MOVFF  03,686
054B2:  MOVFF  02,685
054B6:  MOVFF  01,684
054BA:  MOVFF  00,683
....................    delay_ms(10); 
054BE:  MOVLW  0A
054C0:  MOVLB  7
054C2:  MOVWF  x57
054C4:  MOVLB  0
054C6:  CALL   16B6
....................    RPT100=read_eeprom(32)+Temporal; 
054CA:  MOVFF  FF2,751
054CE:  BCF    FF2.7
054D0:  CLRF   FAA
054D2:  MOVLW  20
054D4:  MOVWF  FA9
054D6:  BCF    FA6.6
054D8:  BCF    FA6.7
054DA:  BSF    FA6.0
054DC:  MOVF   FA8,W
054DE:  MOVLB  7
054E0:  BTFSC  x51.7
054E2:  BSF    FF2.7
054E4:  CLRF   x58
054E6:  MOVWF  x57
054E8:  MOVLB  0
054EA:  CALL   16DE
054EE:  BCF    FD8.1
054F0:  MOVFF  03,759
054F4:  MOVFF  02,758
054F8:  MOVFF  01,757
054FC:  MOVFF  00,756
05500:  MOVFF  686,75D
05504:  MOVFF  685,75C
05508:  MOVFF  684,75B
0550C:  MOVFF  683,75A
05510:  CALL   1872
05514:  MOVFF  03,682
05518:  MOVFF  02,681
0551C:  MOVFF  01,680
05520:  MOVFF  00,67F
....................    delay_ms(10); 
05524:  MOVLW  0A
05526:  MOVLB  7
05528:  MOVWF  x57
0552A:  MOVLB  0
0552C:  CALL   16B6
....................     
....................    if(Testerilizacionp[0]>9)Testerilizacionp[0]=0; 
05530:  MOVLB  4
05532:  BTFSC  x8F.7
05534:  BRA    553E
05536:  MOVF   x8F,W
05538:  SUBLW  09
0553A:  BTFSS  FD8.0
0553C:  CLRF   x8F
....................    if(Testerilizacionp[1]>9)Testerilizacionp[1]=0; 
0553E:  BTFSC  x90.7
05540:  BRA    554A
05542:  MOVF   x90,W
05544:  SUBLW  09
05546:  BTFSS  FD8.0
05548:  CLRF   x90
....................    if(Testerilizacionp[2]>9)Testerilizacionp[2]=0; 
0554A:  BTFSC  x91.7
0554C:  BRA    5556
0554E:  MOVF   x91,W
05550:  SUBLW  09
05552:  BTFSS  FD8.0
05554:  CLRF   x91
....................    if(Testerilizacionp[3]>9)Testerilizacionp[3]=0; 
05556:  BTFSC  x92.7
05558:  BRA    5562
0555A:  MOVF   x92,W
0555C:  SUBLW  09
0555E:  BTFSS  FD8.0
05560:  CLRF   x92
....................    if(Password[0]>9)Password[0]=0; 
05562:  MOVLB  7
05564:  BTFSC  x23.7
05566:  BRA    5570
05568:  MOVF   x23,W
0556A:  SUBLW  09
0556C:  BTFSS  FD8.0
0556E:  CLRF   x23
....................    if(Password[1]>9)Password[1]=0; 
05570:  BTFSC  x24.7
05572:  BRA    557C
05574:  MOVF   x24,W
05576:  SUBLW  09
05578:  BTFSS  FD8.0
0557A:  CLRF   x24
....................    if(Password[2]>9)Password[2]=0; 
0557C:  BTFSC  x25.7
0557E:  BRA    5588
05580:  MOVF   x25,W
05582:  SUBLW  09
05584:  BTFSS  FD8.0
05586:  CLRF   x25
....................    if(Password[3]>9)Password[3]=0; 
05588:  BTFSC  x26.7
0558A:  BRA    5594
0558C:  MOVF   x26,W
0558E:  SUBLW  09
05590:  BTFSS  FD8.0
05592:  CLRF   x26
....................    if(Ganancia>20.0)Ganancia=15.0; 
05594:  CLRF   x55
05596:  CLRF   x54
05598:  MOVLW  20
0559A:  MOVWF  x53
0559C:  MOVLW  83
0559E:  MOVWF  x52
055A0:  MOVFF  6C7,759
055A4:  MOVFF  6C6,758
055A8:  MOVFF  6C5,757
055AC:  MOVFF  6C4,756
055B0:  MOVLB  0
055B2:  CALL   1AEA
055B6:  BNC   55C6
055B8:  MOVLB  6
055BA:  CLRF   xC7
055BC:  CLRF   xC6
055BE:  MOVLW  70
055C0:  MOVWF  xC5
055C2:  MOVLW  82
055C4:  MOVWF  xC4
....................    if(Integral>10.0)Integral=1.0; 
055C6:  MOVLB  7
055C8:  CLRF   x58
055CA:  MOVFF  6F4,757
055CE:  MOVLB  0
055D0:  CALL   16DE
055D4:  MOVLB  7
055D6:  CLRF   x55
055D8:  CLRF   x54
055DA:  MOVLW  20
055DC:  MOVWF  x53
055DE:  MOVLW  82
055E0:  MOVWF  x52
055E2:  MOVFF  03,759
055E6:  MOVFF  02,758
055EA:  MOVFF  01,757
055EE:  MOVFF  00,756
055F2:  MOVLB  0
055F4:  CALL   1AEA
055F8:  BNC   5600
055FA:  MOVLW  01
055FC:  MOVLB  6
055FE:  MOVWF  xF4
....................    if(Derivativo>90.0)Derivativo=15.0; 
05600:  MOVLB  7
05602:  CLRF   x58
05604:  MOVFF  6F5,757
05608:  MOVLB  0
0560A:  CALL   16DE
0560E:  MOVLB  7
05610:  CLRF   x55
05612:  CLRF   x54
05614:  MOVLW  34
05616:  MOVWF  x53
05618:  MOVLW  85
0561A:  MOVWF  x52
0561C:  MOVFF  03,759
05620:  MOVFF  02,758
05624:  MOVFF  01,757
05628:  MOVFF  00,756
0562C:  MOVLB  0
0562E:  CALL   1AEA
05632:  BNC   563A
05634:  MOVLW  0F
05636:  MOVLB  6
05638:  MOVWF  xF5
....................    if(Tciclo>10)Tciclo=10; 
0563A:  MOVLB  7
0563C:  CLRF   x55
0563E:  CLRF   x54
05640:  MOVLW  20
05642:  MOVWF  x53
05644:  MOVLW  82
05646:  MOVWF  x52
05648:  MOVFF  6AF,759
0564C:  MOVFF  6AE,758
05650:  MOVFF  6AD,757
05654:  MOVFF  6AC,756
05658:  MOVLB  0
0565A:  CALL   1AEA
0565E:  BNC   566E
05660:  MOVLB  6
05662:  CLRF   xAF
05664:  CLRF   xAE
05666:  MOVLW  20
05668:  MOVWF  xAD
0566A:  MOVLW  82
0566C:  MOVWF  xAC
....................    if(Ajuste>50)Ajuste=0; 
0566E:  MOVLB  6
05670:  MOVF   x9D,W
05672:  SUBLW  32
05674:  BTFSS  FD8.0
05676:  CLRF   x9D
....................    if(Ajusten>50)Ajusten=0; 
05678:  MOVF   x9E,W
0567A:  SUBLW  32
0567C:  BTFSS  FD8.0
0567E:  CLRF   x9E
....................    if(MediaMovil>80)MediaMovil=80; 
05680:  MOVF   x9F,W
05682:  SUBLW  50
05684:  BC    568A
05686:  MOVLW  50
05688:  MOVWF  x9F
....................    if(Gain>50)Gain=40.2; 
0568A:  MOVLB  7
0568C:  CLRF   x55
0568E:  CLRF   x54
05690:  MOVLW  48
05692:  MOVWF  x53
05694:  MOVLW  84
05696:  MOVWF  x52
05698:  MOVFF  67E,759
0569C:  MOVFF  67D,758
056A0:  MOVFF  67C,757
056A4:  MOVFF  67B,756
056A8:  MOVLB  0
056AA:  CALL   1AEA
056AE:  BNC   56C2
056B0:  MOVLW  CD
056B2:  MOVLB  6
056B4:  MOVWF  x7E
056B6:  MOVLW  CC
056B8:  MOVWF  x7D
056BA:  MOVLW  20
056BC:  MOVWF  x7C
056BE:  MOVLW  84
056C0:  MOVWF  x7B
....................    if(R1>6400)R1=6200; 
056C2:  MOVLB  7
056C4:  CLRF   x55
056C6:  CLRF   x54
056C8:  MOVLW  48
056CA:  MOVWF  x53
056CC:  MOVLW  8B
056CE:  MOVWF  x52
056D0:  MOVFF  6A7,759
056D4:  MOVFF  6A6,758
056D8:  MOVFF  6A5,757
056DC:  MOVFF  6A4,756
056E0:  MOVLB  0
056E2:  CALL   1AEA
056E6:  BNC   56F8
056E8:  MOVLB  6
056EA:  CLRF   xA7
056EC:  MOVLW  C0
056EE:  MOVWF  xA6
056F0:  MOVLW  41
056F2:  MOVWF  xA5
056F4:  MOVLW  8B
056F6:  MOVWF  xA4
....................    if(RPT100>2.0)RPT100=0.5; 
056F8:  MOVLB  7
056FA:  CLRF   x55
056FC:  CLRF   x54
056FE:  CLRF   x53
05700:  MOVLW  80
05702:  MOVWF  x52
05704:  MOVFF  682,759
05708:  MOVFF  681,758
0570C:  MOVFF  680,757
05710:  MOVFF  67F,756
05714:  MOVLB  0
05716:  CALL   1AEA
0571A:  BNC   5728
0571C:  MOVLB  6
0571E:  CLRF   x82
05720:  CLRF   x81
05722:  CLRF   x80
05724:  MOVLW  7E
05726:  MOVWF  x7F
....................     
.................... //Mensaje Bienvenida//-----------------------------    
....................    glcd_init(ON);             //Inicializa la glcd 
05728:  MOVLW  01
0572A:  MOVLB  7
0572C:  MOVWF  x51
0572E:  MOVLB  0
05730:  CALL   1CAC
....................    glcd_fillScreen(OFF);      //Limpia la pantalla 
05734:  MOVLB  7
05736:  CLRF   x52
05738:  MOVLB  0
0573A:  CALL   1B9A
....................    strcpy(Menus.Letra,"JP Inglobal"); 
0573E:  MOVLW  04
05740:  MOVWF  FEA
05742:  MOVLW  18
05744:  MOVWF  FE9
05746:  MOVFF  FF2,751
0574A:  BCF    FF2.7
0574C:  MOVLW  00
0574E:  CALL   0756
05752:  TBLRD*-
05754:  TBLRD*+
05756:  MOVF   FF5,W
05758:  MOVWF  FEE
0575A:  IORLW  00
0575C:  BNZ   5754
0575E:  MOVLB  7
05760:  BTFSC  x51.7
05762:  BSF    FF2.7
....................    displayMenu(Menus.Letra,0,0,0,2);      
05764:  MOVLW  04
05766:  MOVWF  x52
05768:  MOVLW  18
0576A:  MOVWF  x51
0576C:  CLRF   x53
0576E:  CLRF   x54
05770:  CLRF   x55
05772:  MOVLW  02
05774:  MOVWF  x56
05776:  MOVLB  0
05778:  CALL   21C8
....................    strcpy(Menus.Letra,"  Autoclave Vertical"); 
0577C:  MOVLW  04
0577E:  MOVWF  FEA
05780:  MOVLW  18
05782:  MOVWF  FE9
05784:  MOVFF  FF2,751
05788:  BCF    FF2.7
0578A:  MOVLW  00
0578C:  CALL   0780
05790:  TBLRD*-
05792:  TBLRD*+
05794:  MOVF   FF5,W
05796:  MOVWF  FEE
05798:  IORLW  00
0579A:  BNZ   5792
0579C:  MOVLB  7
0579E:  BTFSC  x51.7
057A0:  BSF    FF2.7
....................    displayMenu(Menus.Letra,0,20,0,1);        
057A2:  MOVLW  04
057A4:  MOVWF  x52
057A6:  MOVLW  18
057A8:  MOVWF  x51
057AA:  CLRF   x53
057AC:  MOVLW  14
057AE:  MOVWF  x54
057B0:  CLRF   x55
057B2:  MOVLW  01
057B4:  MOVWF  x56
057B6:  MOVLB  0
057B8:  CALL   21C8
....................    strcpy(Menus.Letra," 55 Litros  "); 
057BC:  MOVLW  04
057BE:  MOVWF  FEA
057C0:  MOVLW  18
057C2:  MOVWF  FE9
057C4:  MOVFF  FF2,751
057C8:  BCF    FF2.7
057CA:  MOVLW  00
057CC:  CALL   07B4
057D0:  TBLRD*-
057D2:  TBLRD*+
057D4:  MOVF   FF5,W
057D6:  MOVWF  FEE
057D8:  IORLW  00
057DA:  BNZ   57D2
057DC:  MOVLB  7
057DE:  BTFSC  x51.7
057E0:  BSF    FF2.7
....................    displayMenu(Menus.Letra,0,35,0,2); 
057E2:  MOVLW  04
057E4:  MOVWF  x52
057E6:  MOVLW  18
057E8:  MOVWF  x51
057EA:  CLRF   x53
057EC:  MOVLW  23
057EE:  MOVWF  x54
057F0:  CLRF   x55
057F2:  MOVLW  02
057F4:  MOVWF  x56
057F6:  MOVLB  0
057F8:  CALL   21C8
....................    delay_ms(3000); 
057FC:  MOVLW  0C
057FE:  MOVLB  7
05800:  MOVWF  x51
05802:  MOVLW  FA
05804:  MOVWF  x57
05806:  MOVLB  0
05808:  CALL   16B6
0580C:  MOVLB  7
0580E:  DECFSZ x51,F
05810:  BRA    5802
....................    glcd_fillScreen(OFF);      //Limpia la pantalla 
05812:  CLRF   x52
05814:  MOVLB  0
05816:  CALL   1B9A
....................    displayContrasena(Contrasena[0],20,30,1); 
0581A:  MOVFF  71F,753
0581E:  MOVLW  14
05820:  MOVLB  7
05822:  MOVWF  x54
05824:  MOVLW  1E
05826:  MOVWF  x55
05828:  MOVLW  01
0582A:  MOVWF  x56
0582C:  MOVLB  0
0582E:  CALL   23F0
....................    displayContrasena(Contrasena[1],40,30,0); 
05832:  MOVFF  720,753
05836:  MOVLW  28
05838:  MOVLB  7
0583A:  MOVWF  x54
0583C:  MOVLW  1E
0583E:  MOVWF  x55
05840:  CLRF   x56
05842:  MOVLB  0
05844:  CALL   23F0
....................    displayContrasena(Contrasena[2],60,30,0); 
05848:  MOVFF  721,753
0584C:  MOVLW  3C
0584E:  MOVLB  7
05850:  MOVWF  x54
05852:  MOVLW  1E
05854:  MOVWF  x55
05856:  CLRF   x56
05858:  MOVLB  0
0585A:  CALL   23F0
....................    displayContrasena(Contrasena[3],80,30,0); 
0585E:  MOVFF  722,753
05862:  MOVLW  50
05864:  MOVLB  7
05866:  MOVWF  x54
05868:  MOVLW  1E
0586A:  MOVWF  x55
0586C:  CLRF   x56
0586E:  MOVLB  0
05870:  CALL   23F0
....................     
....................    if(UP && DOWN)// && RIGHT && LEFT) 
05874:  BSF    F92.4
05876:  BTFSC  F80.4
05878:  BRA    5904
0587A:  BSF    F92.5
0587C:  BTFSC  F80.5
0587E:  BRA    5904
....................    { 
....................       delay_ms(500); 
05880:  MOVLW  02
05882:  MOVLB  7
05884:  MOVWF  x51
05886:  MOVLW  FA
05888:  MOVWF  x57
0588A:  MOVLB  0
0588C:  CALL   16B6
05890:  MOVLB  7
05892:  DECFSZ x51,F
05894:  BRA    5886
....................       glcd_fillScreen(OFF); 
05896:  CLRF   x52
05898:  MOVLB  0
0589A:  CALL   1B9A
....................       strcpy(Menus.Letra,"Cargando.."); 
0589E:  MOVLW  04
058A0:  MOVWF  FEA
058A2:  MOVLW  18
058A4:  MOVWF  FE9
058A6:  MOVFF  FF2,751
058AA:  BCF    FF2.7
058AC:  MOVLW  00
058AE:  CALL   07E0
058B2:  TBLRD*-
058B4:  TBLRD*+
058B6:  MOVF   FF5,W
058B8:  MOVWF  FEE
058BA:  IORLW  00
058BC:  BNZ   58B4
058BE:  MOVLB  7
058C0:  BTFSC  x51.7
058C2:  BSF    FF2.7
....................       displayMenu(Menus.Letra,0,30,1,1); 
058C4:  MOVLW  04
058C6:  MOVWF  x52
058C8:  MOVLW  18
058CA:  MOVWF  x51
058CC:  CLRF   x53
058CE:  MOVLW  1E
058D0:  MOVWF  x54
058D2:  MOVLW  01
058D4:  MOVWF  x55
058D6:  MOVWF  x56
058D8:  MOVLB  0
058DA:  CALL   21C8
....................       delay_ms(2000); 
058DE:  MOVLW  08
058E0:  MOVLB  7
058E2:  MOVWF  x51
058E4:  MOVLW  FA
058E6:  MOVWF  x57
058E8:  MOVLB  0
058EA:  CALL   16B6
058EE:  MOVLB  7
058F0:  DECFSZ x51,F
058F2:  BRA    58E4
....................       Menu=100; 
058F4:  MOVLW  64
058F6:  MOVLB  6
058F8:  MOVWF  xFC
....................       glcd_fillScreen(OFF); 
058FA:  MOVLB  7
058FC:  CLRF   x52
058FE:  MOVLB  0
05900:  CALL   1B9A
....................    } 
....................     
....................    for(i=0;i<MediaMovil;i++){ 
05904:  MOVLB  6
05906:  CLRF   xFE
05908:  MOVF   x9F,W
0590A:  SUBWF  xFE,W
0590C:  BC    592E
....................       Temperatura=LeerPT100(MediaMovil); 
0590E:  MOVFF  69F,751
05912:  MOVLB  0
05914:  CALL   2664
05918:  MOVFF  03,6E3
0591C:  MOVFF  02,6E2
05920:  MOVFF  01,6E1
05924:  MOVFF  00,6E0
....................    } 
05928:  MOVLB  6
0592A:  INCF   xFE,F
0592C:  BRA    5908
....................     
....................    if(LEFT){ 
0592E:  BSF    F96.1
05930:  BTFSC  F84.1
05932:  BRA    59BA
....................       delay_ms(500); 
05934:  MOVLW  02
05936:  MOVLB  7
05938:  MOVWF  x51
0593A:  MOVLW  FA
0593C:  MOVWF  x57
0593E:  MOVLB  0
05940:  CALL   16B6
05944:  MOVLB  7
05946:  DECFSZ x51,F
05948:  BRA    593A
....................       glcd_fillScreen(OFF); 
0594A:  CLRF   x52
0594C:  MOVLB  0
0594E:  CALL   1B9A
....................       strcpy(Menus.Letra,"Cargando.."); 
05952:  MOVLW  04
05954:  MOVWF  FEA
05956:  MOVLW  18
05958:  MOVWF  FE9
0595A:  MOVFF  FF2,751
0595E:  BCF    FF2.7
05960:  MOVLW  00
05962:  CALL   07E0
05966:  TBLRD*-
05968:  TBLRD*+
0596A:  MOVF   FF5,W
0596C:  MOVWF  FEE
0596E:  IORLW  00
05970:  BNZ   5968
05972:  MOVLB  7
05974:  BTFSC  x51.7
05976:  BSF    FF2.7
....................       displayMenu(Menus.Letra,0,30,1,1); 
05978:  MOVLW  04
0597A:  MOVWF  x52
0597C:  MOVLW  18
0597E:  MOVWF  x51
05980:  CLRF   x53
05982:  MOVLW  1E
05984:  MOVWF  x54
05986:  MOVLW  01
05988:  MOVWF  x55
0598A:  MOVWF  x56
0598C:  MOVLB  0
0598E:  CALL   21C8
....................       delay_ms(2000); 
05992:  MOVLW  08
05994:  MOVLB  7
05996:  MOVWF  x51
05998:  MOVLW  FA
0599A:  MOVWF  x57
0599C:  MOVLB  0
0599E:  CALL   16B6
059A2:  MOVLB  7
059A4:  DECFSZ x51,F
059A6:  BRA    5998
....................       Menu=200; 
059A8:  MOVLW  C8
059AA:  MOVLB  6
059AC:  MOVWF  xFC
....................       glcd_fillScreen(OFF); 
059AE:  MOVLB  7
059B0:  CLRF   x52
059B2:  MOVLB  0
059B4:  CALL   1B9A
059B8:  MOVLB  6
....................    } 
....................     
....................    while(true) 
....................    { 
....................       Envio_Esclavos(); 
059BA:  MOVLB  0
059BC:  CALL   2C60
....................       delay_ms(1); 
059C0:  MOVLW  01
059C2:  MOVLB  7
059C4:  MOVWF  x57
059C6:  MOVLB  0
059C8:  CALL   16B6
....................       Lectura_Esclavos(); 
059CC:  CALL   31BE
....................  
.................... // Tiempo de Muestreo//-------------------------------------- 
....................       if(tiempos3>=20){ 
059D0:  MOVLB  7
059D2:  MOVF   x0C,F
059D4:  BNZ   59DC
059D6:  MOVF   x0B,W
059D8:  SUBLW  13
059DA:  BC    5A4C
....................          Temperatura=LeerPt100(MediaMovil); 
059DC:  MOVFF  69F,751
059E0:  MOVLB  0
059E2:  CALL   2664
059E6:  MOVFF  03,6E3
059EA:  MOVFF  02,6E2
059EE:  MOVFF  01,6E1
059F2:  MOVFF  00,6E0
....................          PresionCamara=Leer_Sensor_Presion_Camara(5); 
059F6:  MOVLW  05
059F8:  MOVLB  7
059FA:  MOVWF  x51
059FC:  MOVLB  0
059FE:  GOTO   3288
05A02:  MOVFF  03,754
05A06:  MOVFF  02,753
05A0A:  MOVFF  01,752
05A0E:  MOVFF  00,751
05A12:  CALL   2A36
05A16:  MOVFF  02,718
05A1A:  MOVFF  01,717
....................          PresionPreCamara=Leer_Sensor_Presion_PreCamara(5); 
05A1E:  MOVLW  05
05A20:  MOVLB  7
05A22:  MOVWF  x51
05A24:  MOVLB  0
05A26:  GOTO   347E
05A2A:  MOVFF  03,754
05A2E:  MOVFF  02,753
05A32:  MOVFF  01,752
05A36:  MOVFF  00,751
05A3A:  CALL   2A36
05A3E:  MOVFF  02,71A
05A42:  MOVFF  01,719
....................          tiempos3=0; 
05A46:  MOVLB  7
05A48:  CLRF   x0C
05A4A:  CLRF   x0B
....................       } 
....................  
.................... // Monitoreo Nivel de Agua//-------------------------------------- 
....................    if(!AlarmaLlenado){ 
05A4C:  MOVLB  4
05A4E:  BTFSC  x82.2
05A50:  BRA    5AA6
....................       if(!LOW && !Esterilizando && !PruebaEstados && STOP){//Si no sensa agua en el nivel bajo 
05A52:  BSF    F94.1
05A54:  BTFSC  F82.1
05A56:  BRA    5A6E
05A58:  BTFSC  x83.1
05A5A:  BRA    5A6E
05A5C:  BTFSC  x84.1
05A5E:  BRA    5A6E
05A60:  BSF    F93.6
05A62:  BTFSC  F81.6
05A64:  BRA    5A6E
....................          AguaIn_on; 
05A66:  BCF    F8B.6
05A68:  BCF    F94.6
....................          IniciaLlenado=ON; 
05A6A:  BSF    x82.6
....................       }else{ 
05A6C:  BRA    5AA6
....................          if(!HIGH && !CalderinLleno && !PruebaEstados && STOP){//Si no sensa agua en el nivel alto y no se ha llenado el calderin 
05A6E:  BSF    F94.0
05A70:  BTFSC  F82.0
05A72:  BRA    5A8A
05A74:  BTFSC  x82.7
05A76:  BRA    5A8A
05A78:  BTFSC  x84.1
05A7A:  BRA    5A8A
05A7C:  BSF    F93.6
05A7E:  BTFSC  F81.6
05A80:  BRA    5A8A
....................             AguaIn_on; 
05A82:  BCF    F8B.6
05A84:  BCF    F94.6
....................             IniciaLlenado=ON; 
05A86:  BSF    x82.6
....................          } else{ 
05A88:  BRA    5AA6
....................             if(TiempoSensadoNivel>=2 && !PruebaEstados) 
05A8A:  MOVF   x8A,F
05A8C:  BNZ   5A94
05A8E:  MOVF   x89,W
05A90:  SUBLW  01
05A92:  BC    5AA4
05A94:  BTFSC  x84.1
05A96:  BRA    5AA4
....................             { 
....................                SensadoNivel=OFF; 
05A98:  BCF    x83.3
....................                CalderinLleno=ON; 
05A9A:  BSF    x82.7
....................                IniciaLlenado=OFF; 
05A9C:  BCF    x82.6
....................                AguaIn_off; 
05A9E:  BSF    F8B.6
05AA0:  BCF    F94.6
....................             } 
....................             else 
05AA2:  BRA    5AA6
....................             { 
....................                SensadoNivel=ON; 
05AA4:  BSF    x83.3
....................             } 
....................          } 
....................       } 
....................    } 
....................        
.................... // Monitoreo Parada Emergencia//--------------------------------------       
....................       if(!STOP && !IniciaCiclo && !PruebaEstados){ 
05AA6:  BSF    F93.6
05AA8:  BTFSS  F81.6
05AAA:  BRA    5B5E
05AAC:  BTFSC  x83.0
05AAE:  BRA    5B5E
05AB0:  BTFSC  x84.1
05AB2:  BRA    5B5E
....................          if(!disp_Stop) 
05AB4:  MOVLB  6
05AB6:  BTFSC  xFA.1
05AB8:  BRA    5ACC
....................          { 
....................             glcd_fillScreen(OFF);disp_Stop=1;Menu=255; 
05ABA:  MOVLB  7
05ABC:  CLRF   x52
05ABE:  MOVLB  0
05AC0:  CALL   1B9A
05AC4:  MOVLB  6
05AC6:  BSF    xFA.1
05AC8:  MOVLW  FF
05ACA:  MOVWF  xFC
....................          } 
....................          Desfogue_on; 
05ACC:  BCF    F8B.5
05ACE:  BCF    F94.5
....................          AguaIn_off; 
05AD0:  BSF    F8B.6
05AD2:  BCF    F94.6
....................          SSR_off; 
05AD4:  BSF    F8B.2
05AD6:  BCF    F94.2
....................          strcpy(Menus.Letra,"  !Parada!");displayMenu(Menus.Letra,0,10,0,2); 
05AD8:  MOVLW  04
05ADA:  MOVWF  FEA
05ADC:  MOVLW  18
05ADE:  MOVWF  FE9
05AE0:  MOVFF  FF2,751
05AE4:  BCF    FF2.7
05AE6:  MOVLW  00
05AE8:  MOVLB  0
05AEA:  CALL   080A
05AEE:  TBLRD*-
05AF0:  TBLRD*+
05AF2:  MOVF   FF5,W
05AF4:  MOVWF  FEE
05AF6:  IORLW  00
05AF8:  BNZ   5AF0
05AFA:  MOVLB  7
05AFC:  BTFSC  x51.7
05AFE:  BSF    FF2.7
05B00:  MOVLW  04
05B02:  MOVWF  x52
05B04:  MOVLW  18
05B06:  MOVWF  x51
05B08:  CLRF   x53
05B0A:  MOVLW  0A
05B0C:  MOVWF  x54
05B0E:  CLRF   x55
05B10:  MOVLW  02
05B12:  MOVWF  x56
05B14:  MOVLB  0
05B16:  CALL   21C8
....................          strcpy(Menus.Letra," !Activada!");displayMenu(Menus.Letra,0,30,0,2); 
05B1A:  MOVLW  04
05B1C:  MOVWF  FEA
05B1E:  MOVLW  18
05B20:  MOVWF  FE9
05B22:  MOVFF  FF2,751
05B26:  BCF    FF2.7
05B28:  MOVLW  00
05B2A:  CALL   0834
05B2E:  TBLRD*-
05B30:  TBLRD*+
05B32:  MOVF   FF5,W
05B34:  MOVWF  FEE
05B36:  IORLW  00
05B38:  BNZ   5B30
05B3A:  MOVLB  7
05B3C:  BTFSC  x51.7
05B3E:  BSF    FF2.7
05B40:  MOVLW  04
05B42:  MOVWF  x52
05B44:  MOVLW  18
05B46:  MOVWF  x51
05B48:  CLRF   x53
05B4A:  MOVLW  1E
05B4C:  MOVWF  x54
05B4E:  CLRF   x55
05B50:  MOVLW  02
05B52:  MOVWF  x56
05B54:  MOVLB  0
05B56:  CALL   21C8
....................       }else{ 
05B5A:  BRA    5B68
05B5C:  MOVLB  4
....................          if(disp_Stop){ 
05B5E:  MOVLB  6
05B60:  BTFSS  xFA.1
05B62:  BRA    5B66
....................             reset_cpu(); 
05B64:  RESET
05B66:  MOVLB  0
....................          } 
....................       } 
....................        
....................       glcd_update(); 
05B68:  CALL   1BF4
....................        
....................       if(UP || DOWN || RIGHT || LEFT) 
05B6C:  BSF    F92.4
05B6E:  BTFSS  F80.4
05B70:  BRA    5B84
05B72:  BSF    F92.5
05B74:  BTFSS  F80.5
05B76:  BRA    5B84
05B78:  BSF    F96.0
05B7A:  BTFSS  F84.0
05B7C:  BRA    5B84
05B7E:  BSF    F96.1
05B80:  BTFSC  F84.1
05B82:  BRA    5B8C
....................       { 
....................          tinicio=0; 
05B84:  MOVLB  7
05B86:  CLRF   x16
05B88:  CLRF   x15
05B8A:  MOVLB  0
....................       } 
....................        
....................       while(tinicio>=14400) 
....................       { 
05B8C:  MOVLB  7
05B8E:  MOVF   x16,W
05B90:  SUBLW  37
05B92:  BC    5BAC
05B94:  XORLW  FF
05B96:  BNZ   5B9E
05B98:  MOVF   x15,W
05B9A:  SUBLW  3F
05B9C:  BC    5BAC
....................          glcd_fillscreen(OFF); 
05B9E:  CLRF   x52
05BA0:  MOVLB  0
05BA2:  CALL   1B9A
....................          Display_off; 
05BA6:  BCF    F8B.7
05BA8:  BCF    F94.7
....................       } 
05BAA:  BRA    5B8C
....................        
....................        
.................... //_-------------------------------------------------------------------------------------------------------------------------------------------------------- 
....................       if(Menu==0){ //Menu de Contrasea. 
05BAC:  MOVLB  6
05BAE:  MOVF   xFC,F
05BB0:  BTFSS  FD8.2
05BB2:  BRA    615A
....................        
....................       strcpy(Menus.Letra,"Clave"); 
05BB4:  MOVLW  04
05BB6:  MOVWF  FEA
05BB8:  MOVLW  18
05BBA:  MOVWF  FE9
05BBC:  MOVFF  FF2,751
05BC0:  BCF    FF2.7
05BC2:  MOVLW  00
05BC4:  MOVLB  0
05BC6:  CALL   085E
05BCA:  TBLRD*-
05BCC:  TBLRD*+
05BCE:  MOVF   FF5,W
05BD0:  MOVWF  FEE
05BD2:  IORLW  00
05BD4:  BNZ   5BCC
05BD6:  MOVLB  7
05BD8:  BTFSC  x51.7
05BDA:  BSF    FF2.7
....................       displayMenu(Menus.Letra,30,0,1,2);      
05BDC:  MOVLW  04
05BDE:  MOVWF  x52
05BE0:  MOVLW  18
05BE2:  MOVWF  x51
05BE4:  MOVLW  1E
05BE6:  MOVWF  x53
05BE8:  CLRF   x54
05BEA:  MOVLW  01
05BEC:  MOVWF  x55
05BEE:  MOVLW  02
05BF0:  MOVWF  x56
05BF2:  MOVLB  0
05BF4:  CALL   21C8
....................        
....................       if(UP)//Si oprime hacia arriba 
05BF8:  BSF    F92.4
05BFA:  BTFSC  F80.4
05BFC:  BRA    5CD6
....................       { 
....................          if(Flanco == 0) 
05BFE:  MOVLB  4
05C00:  BTFSC  x84.3
05C02:  BRA    5CD4
....................          { 
....................             Flanco = 1;delay_ms(30); 
05C04:  BSF    x84.3
05C06:  MOVLW  1E
05C08:  MOVLB  7
05C0A:  MOVWF  x57
05C0C:  MOVLB  0
05C0E:  CALL   16B6
....................             for(i=1;i<=4;i++) 
05C12:  MOVLW  01
05C14:  MOVLB  6
05C16:  MOVWF  xFE
05C18:  MOVF   xFE,W
05C1A:  SUBLW  04
05C1C:  BNC   5CD2
....................             { 
....................                if(unidad==i) 
05C1E:  MOVF   xFE,W
05C20:  SUBWF  xFD,W
05C22:  BNZ   5C9A
....................                { 
....................                   Contrasena[i-1]++; 
05C24:  MOVLW  01
05C26:  SUBWF  xFE,W
05C28:  CLRF   03
05C2A:  ADDLW  1F
05C2C:  MOVWF  FE9
05C2E:  MOVLW  07
05C30:  ADDWFC 03,W
05C32:  MOVWF  FEA
05C34:  INCF   FEF,F
....................                   if(Contrasena[i-1]>9)    
05C36:  MOVLW  01
05C38:  SUBWF  xFE,W
05C3A:  CLRF   03
05C3C:  ADDLW  1F
05C3E:  MOVWF  FE9
05C40:  MOVLW  07
05C42:  ADDWFC 03,W
05C44:  MOVWF  FEA
05C46:  BTFSC  FEF.7
05C48:  BRA    5C62
05C4A:  MOVF   FEF,W
05C4C:  SUBLW  09
05C4E:  BC    5C62
....................                   { 
....................                      Contrasena[i-1]=0; 
05C50:  MOVLW  01
05C52:  SUBWF  xFE,W
05C54:  CLRF   03
05C56:  ADDLW  1F
05C58:  MOVWF  FE9
05C5A:  MOVLW  07
05C5C:  ADDWFC 03,W
05C5E:  MOVWF  FEA
05C60:  CLRF   FEF
....................                   } 
....................                   displayContrasena(Contrasena[i-1],i*20,30,1); 
05C62:  MOVLW  01
05C64:  SUBWF  xFE,W
05C66:  CLRF   03
05C68:  ADDLW  1F
05C6A:  MOVWF  FE9
05C6C:  MOVLW  07
05C6E:  ADDWFC 03,W
05C70:  MOVWF  FEA
05C72:  MOVFF  FEF,751
05C76:  MOVF   xFE,W
05C78:  MULLW  14
05C7A:  MOVFF  FF3,752
05C7E:  MOVLB  7
05C80:  MOVFF  751,753
05C84:  MOVFF  752,754
05C88:  MOVLW  1E
05C8A:  MOVWF  x55
05C8C:  MOVLW  01
05C8E:  MOVWF  x56
05C90:  MOVLB  0
05C92:  CALL   23F0
....................                } 
....................                else 
05C96:  BRA    5CCC
05C98:  MOVLB  6
....................                { 
....................                   displayContrasena(Contrasena[i-1],i*20,30,0); 
05C9A:  MOVLW  01
05C9C:  SUBWF  xFE,W
05C9E:  CLRF   03
05CA0:  ADDLW  1F
05CA2:  MOVWF  FE9
05CA4:  MOVLW  07
05CA6:  ADDWFC 03,W
05CA8:  MOVWF  FEA
05CAA:  MOVFF  FEF,751
05CAE:  MOVF   xFE,W
05CB0:  MULLW  14
05CB2:  MOVFF  FF3,752
05CB6:  MOVLB  7
05CB8:  MOVFF  751,753
05CBC:  MOVFF  752,754
05CC0:  MOVLW  1E
05CC2:  MOVWF  x55
05CC4:  CLRF   x56
05CC6:  MOVLB  0
05CC8:  CALL   23F0
....................                } 
....................             } 
05CCC:  MOVLB  6
05CCE:  INCF   xFE,F
05CD0:  BRA    5C18
05CD2:  MOVLB  4
....................          } 
....................       } 
....................          else 
05CD4:  BRA    5CDA
....................             {Flanco = 0;} 
05CD6:  MOVLB  4
05CD8:  BCF    x84.3
....................              
....................       if(DOWN)//Si oprime hacia abajo 
05CDA:  BSF    F92.5
05CDC:  BTFSC  F80.5
05CDE:  BRA    5DB4
....................       { 
....................          if(Flanco2 == 0) 
05CE0:  BTFSC  x84.5
05CE2:  BRA    5DB2
....................             {Flanco2 = 1;delay_ms(30); 
05CE4:  BSF    x84.5
05CE6:  MOVLW  1E
05CE8:  MOVLB  7
05CEA:  MOVWF  x57
05CEC:  MOVLB  0
05CEE:  CALL   16B6
....................                for(i=1;i<=4;i++) 
05CF2:  MOVLW  01
05CF4:  MOVLB  6
05CF6:  MOVWF  xFE
05CF8:  MOVF   xFE,W
05CFA:  SUBLW  04
05CFC:  BNC   5DB0
....................                { 
....................                   if(unidad==i) 
05CFE:  MOVF   xFE,W
05D00:  SUBWF  xFD,W
05D02:  BNZ   5D78
....................                   {Contrasena[i-1]--;  
05D04:  MOVLW  01
05D06:  SUBWF  xFE,W
05D08:  CLRF   03
05D0A:  ADDLW  1F
05D0C:  MOVWF  FE9
05D0E:  MOVLW  07
05D10:  ADDWFC 03,W
05D12:  MOVWF  FEA
05D14:  DECF   FEF,F
....................                      if(Contrasena[i-1]<0) 
05D16:  MOVLW  01
05D18:  SUBWF  xFE,W
05D1A:  CLRF   03
05D1C:  ADDLW  1F
05D1E:  MOVWF  FE9
05D20:  MOVLW  07
05D22:  ADDWFC 03,W
05D24:  MOVWF  FEA
05D26:  BTFSC  FEF.7
05D28:  BRA    5D2C
05D2A:  BRA    5D40
....................                         {Contrasena[i-1]=9;} 
05D2C:  MOVLW  01
05D2E:  SUBWF  xFE,W
05D30:  CLRF   03
05D32:  ADDLW  1F
05D34:  MOVWF  FE9
05D36:  MOVLW  07
05D38:  ADDWFC 03,W
05D3A:  MOVWF  FEA
05D3C:  MOVLW  09
05D3E:  MOVWF  FEF
....................                    displayContrasena(Contrasena[i-1],i*20,30,1);} 
05D40:  MOVLW  01
05D42:  SUBWF  xFE,W
05D44:  CLRF   03
05D46:  ADDLW  1F
05D48:  MOVWF  FE9
05D4A:  MOVLW  07
05D4C:  ADDWFC 03,W
05D4E:  MOVWF  FEA
05D50:  MOVFF  FEF,751
05D54:  MOVF   xFE,W
05D56:  MULLW  14
05D58:  MOVFF  FF3,752
05D5C:  MOVLB  7
05D5E:  MOVFF  751,753
05D62:  MOVFF  752,754
05D66:  MOVLW  1E
05D68:  MOVWF  x55
05D6A:  MOVLW  01
05D6C:  MOVWF  x56
05D6E:  MOVLB  0
05D70:  CALL   23F0
....................                   else 
05D74:  BRA    5DAA
05D76:  MOVLB  6
....................                   {displayContrasena(Contrasena[i-1],i*20,30,0);} 
05D78:  MOVLW  01
05D7A:  SUBWF  xFE,W
05D7C:  CLRF   03
05D7E:  ADDLW  1F
05D80:  MOVWF  FE9
05D82:  MOVLW  07
05D84:  ADDWFC 03,W
05D86:  MOVWF  FEA
05D88:  MOVFF  FEF,751
05D8C:  MOVF   xFE,W
05D8E:  MULLW  14
05D90:  MOVFF  FF3,752
05D94:  MOVLB  7
05D96:  MOVFF  751,753
05D9A:  MOVFF  752,754
05D9E:  MOVLW  1E
05DA0:  MOVWF  x55
05DA2:  CLRF   x56
05DA4:  MOVLB  0
05DA6:  CALL   23F0
....................                }       
05DAA:  MOVLB  6
05DAC:  INCF   xFE,F
05DAE:  BRA    5CF8
05DB0:  MOVLB  4
....................             }      
....................       } 
....................          else 
05DB2:  BRA    5DB6
....................             {Flanco2 = 0;}   
05DB4:  BCF    x84.5
....................              
....................       if(RIGHT)//Si oprime RIGHT 
05DB6:  BSF    F96.0
05DB8:  BTFSC  F84.0
05DBA:  BRA    5E56
....................       { 
....................          if(Flanco1 == 0) 
05DBC:  BTFSC  x84.4
05DBE:  BRA    5E54
....................             {Flanco1 = 1;delay_ms(30);unidad++; 
05DC0:  BSF    x84.4
05DC2:  MOVLW  1E
05DC4:  MOVLB  7
05DC6:  MOVWF  x57
05DC8:  MOVLB  0
05DCA:  CALL   16B6
05DCE:  MOVLB  6
05DD0:  INCF   xFD,F
....................                for(i=1;i<=4;i++) 
05DD2:  MOVLW  01
05DD4:  MOVWF  xFE
05DD6:  MOVF   xFE,W
05DD8:  SUBLW  04
05DDA:  BNC   5E52
....................                { 
....................                   if(unidad==i) 
05DDC:  MOVF   xFE,W
05DDE:  SUBWF  xFD,W
05DE0:  BNZ   5E1A
....................                   {displayContrasena(Contrasena[i-1],i*20,30,1);} 
05DE2:  MOVLW  01
05DE4:  SUBWF  xFE,W
05DE6:  CLRF   03
05DE8:  ADDLW  1F
05DEA:  MOVWF  FE9
05DEC:  MOVLW  07
05DEE:  ADDWFC 03,W
05DF0:  MOVWF  FEA
05DF2:  MOVFF  FEF,751
05DF6:  MOVF   xFE,W
05DF8:  MULLW  14
05DFA:  MOVFF  FF3,752
05DFE:  MOVLB  7
05E00:  MOVFF  751,753
05E04:  MOVFF  752,754
05E08:  MOVLW  1E
05E0A:  MOVWF  x55
05E0C:  MOVLW  01
05E0E:  MOVWF  x56
05E10:  MOVLB  0
05E12:  CALL   23F0
....................                   else 
05E16:  BRA    5E4C
05E18:  MOVLB  6
....................                   {displayContrasena(Contrasena[i-1],i*20,30,0);} 
05E1A:  MOVLW  01
05E1C:  SUBWF  xFE,W
05E1E:  CLRF   03
05E20:  ADDLW  1F
05E22:  MOVWF  FE9
05E24:  MOVLW  07
05E26:  ADDWFC 03,W
05E28:  MOVWF  FEA
05E2A:  MOVFF  FEF,751
05E2E:  MOVF   xFE,W
05E30:  MULLW  14
05E32:  MOVFF  FF3,752
05E36:  MOVLB  7
05E38:  MOVFF  751,753
05E3C:  MOVFF  752,754
05E40:  MOVLW  1E
05E42:  MOVWF  x55
05E44:  CLRF   x56
05E46:  MOVLB  0
05E48:  CALL   23F0
....................                } 
05E4C:  MOVLB  6
05E4E:  INCF   xFE,F
05E50:  BRA    5DD6
05E52:  MOVLB  4
....................             } 
....................       } 
....................          else 
05E54:  BRA    5E58
....................             {Flanco1 = 0;}   
05E56:  BCF    x84.4
....................      
....................       if(unidad>4) 
05E58:  MOVLB  6
05E5A:  MOVF   xFD,W
05E5C:  SUBLW  04
05E5E:  BTFSC  FD8.0
05E60:  BRA    615A
....................       {glcd_fillScreen(OFF);unidad=4; 
05E62:  MOVLB  7
05E64:  CLRF   x52
05E66:  MOVLB  0
05E68:  CALL   1B9A
05E6C:  MOVLW  04
05E6E:  MOVLB  6
05E70:  MOVWF  xFD
....................          if(Contrasena[0]==3&&Contrasena[1]==8&&Contrasena[2]==9&&Contrasena[3]==2) // Si Ingresa clave para reset general del sistema. 
05E72:  MOVLB  7
05E74:  MOVF   x1F,W
05E76:  SUBLW  03
05E78:  BTFSS  FD8.2
05E7A:  BRA    5F6A
05E7C:  MOVF   x20,W
05E7E:  SUBLW  08
05E80:  BNZ   5F6A
05E82:  MOVF   x21,W
05E84:  SUBLW  09
05E86:  BNZ   5F6A
05E88:  MOVF   x22,W
05E8A:  SUBLW  02
05E8C:  BNZ   5F6A
....................             {write_eeprom(10,0);delay_ms(20);write_eeprom(11,0);delay_ms(20);// Reestablece a contrasea de Fabrica y reinicia Programa. 
05E8E:  CLRF   FAA
05E90:  MOVLW  0A
05E92:  MOVWF  FA9
05E94:  CLRF   FA8
05E96:  BCF    FA6.6
05E98:  BCF    FA6.7
05E9A:  BSF    FA6.2
05E9C:  MOVF   FF2,W
05E9E:  MOVWF  00
05EA0:  BCF    FF2.7
05EA2:  MOVLB  F
05EA4:  MOVLW  55
05EA6:  MOVWF  FA7
05EA8:  MOVLW  AA
05EAA:  MOVWF  FA7
05EAC:  BSF    FA6.1
05EAE:  BTFSC  FA6.1
05EB0:  BRA    5EAE
05EB2:  BCF    FA6.2
05EB4:  MOVF   00,W
05EB6:  IORWF  FF2,F
05EB8:  MOVLW  14
05EBA:  MOVLB  7
05EBC:  MOVWF  x57
05EBE:  MOVLB  0
05EC0:  CALL   16B6
05EC4:  CLRF   FAA
05EC6:  MOVLW  0B
05EC8:  MOVWF  FA9
05ECA:  CLRF   FA8
05ECC:  BCF    FA6.6
05ECE:  BCF    FA6.7
05ED0:  BSF    FA6.2
05ED2:  MOVF   FF2,W
05ED4:  MOVWF  00
05ED6:  BCF    FF2.7
05ED8:  MOVLB  F
05EDA:  MOVLW  55
05EDC:  MOVWF  FA7
05EDE:  MOVLW  AA
05EE0:  MOVWF  FA7
05EE2:  BSF    FA6.1
05EE4:  BTFSC  FA6.1
05EE6:  BRA    5EE4
05EE8:  BCF    FA6.2
05EEA:  MOVF   00,W
05EEC:  IORWF  FF2,F
05EEE:  MOVLW  14
05EF0:  MOVLB  7
05EF2:  MOVWF  x57
05EF4:  MOVLB  0
05EF6:  CALL   16B6
....................              write_eeprom(12,0);delay_ms(20);write_eeprom(13,0);delay_ms(20); 
05EFA:  CLRF   FAA
05EFC:  MOVLW  0C
05EFE:  MOVWF  FA9
05F00:  CLRF   FA8
05F02:  BCF    FA6.6
05F04:  BCF    FA6.7
05F06:  BSF    FA6.2
05F08:  MOVF   FF2,W
05F0A:  MOVWF  00
05F0C:  BCF    FF2.7
05F0E:  MOVLB  F
05F10:  MOVLW  55
05F12:  MOVWF  FA7
05F14:  MOVLW  AA
05F16:  MOVWF  FA7
05F18:  BSF    FA6.1
05F1A:  BTFSC  FA6.1
05F1C:  BRA    5F1A
05F1E:  BCF    FA6.2
05F20:  MOVF   00,W
05F22:  IORWF  FF2,F
05F24:  MOVLW  14
05F26:  MOVLB  7
05F28:  MOVWF  x57
05F2A:  MOVLB  0
05F2C:  CALL   16B6
05F30:  CLRF   FAA
05F32:  MOVLW  0D
05F34:  MOVWF  FA9
05F36:  CLRF   FA8
05F38:  BCF    FA6.6
05F3A:  BCF    FA6.7
05F3C:  BSF    FA6.2
05F3E:  MOVF   FF2,W
05F40:  MOVWF  00
05F42:  BCF    FF2.7
05F44:  MOVLB  F
05F46:  MOVLW  55
05F48:  MOVWF  FA7
05F4A:  MOVLW  AA
05F4C:  MOVWF  FA7
05F4E:  BSF    FA6.1
05F50:  BTFSC  FA6.1
05F52:  BRA    5F50
05F54:  BCF    FA6.2
05F56:  MOVF   00,W
05F58:  IORWF  FF2,F
05F5A:  MOVLW  14
05F5C:  MOVLB  7
05F5E:  MOVWF  x57
05F60:  MOVLB  0
05F62:  CALL   16B6
....................              reset_cpu();}         
05F66:  RESET
05F68:  MOVLB  7
....................           
....................          if((Contrasena[0]==Password[0])&&(Contrasena[1]==Password[1])&&(Contrasena[2]==Password[2])&&(Contrasena[3]==Password[3])) 
05F6A:  MOVF   x23,W
05F6C:  SUBWF  x1F,W
05F6E:  BNZ   6040
05F70:  MOVF   x24,W
05F72:  SUBWF  x20,W
05F74:  BNZ   6040
05F76:  MOVF   x25,W
05F78:  SUBWF  x21,W
05F7A:  BNZ   6040
05F7C:  MOVF   x26,W
05F7E:  SUBWF  x22,W
05F80:  BNZ   6040
....................          { 
....................             glcd_fillScreen(OFF); 
05F82:  CLRF   x52
05F84:  MOVLB  0
05F86:  CALL   1B9A
....................             strcpy(Menus.Letra,"Clave"); 
05F8A:  MOVLW  04
05F8C:  MOVWF  FEA
05F8E:  MOVLW  18
05F90:  MOVWF  FE9
05F92:  MOVFF  FF2,751
05F96:  BCF    FF2.7
05F98:  MOVLW  00
05F9A:  CALL   085E
05F9E:  TBLRD*-
05FA0:  TBLRD*+
05FA2:  MOVF   FF5,W
05FA4:  MOVWF  FEE
05FA6:  IORLW  00
05FA8:  BNZ   5FA0
05FAA:  MOVLB  7
05FAC:  BTFSC  x51.7
05FAE:  BSF    FF2.7
....................             displayMenu(Menus.Letra,30,0,0,2); 
05FB0:  MOVLW  04
05FB2:  MOVWF  x52
05FB4:  MOVLW  18
05FB6:  MOVWF  x51
05FB8:  MOVLW  1E
05FBA:  MOVWF  x53
05FBC:  CLRF   x54
05FBE:  CLRF   x55
05FC0:  MOVLW  02
05FC2:  MOVWF  x56
05FC4:  MOVLB  0
05FC6:  CALL   21C8
....................             strcpy(Menus.Letra,"Correcta"); 
05FCA:  MOVLW  04
05FCC:  MOVWF  FEA
05FCE:  MOVLW  18
05FD0:  MOVWF  FE9
05FD2:  MOVFF  FF2,751
05FD6:  BCF    FF2.7
05FD8:  MOVLW  00
05FDA:  CALL   0882
05FDE:  TBLRD*-
05FE0:  TBLRD*+
05FE2:  MOVF   FF5,W
05FE4:  MOVWF  FEE
05FE6:  IORLW  00
05FE8:  BNZ   5FE0
05FEA:  MOVLB  7
05FEC:  BTFSC  x51.7
05FEE:  BSF    FF2.7
....................             displayMenu(Menus.Letra,15,30,0,2); 
05FF0:  MOVLW  04
05FF2:  MOVWF  x52
05FF4:  MOVLW  18
05FF6:  MOVWF  x51
05FF8:  MOVLW  0F
05FFA:  MOVWF  x53
05FFC:  MOVLW  1E
05FFE:  MOVWF  x54
06000:  CLRF   x55
06002:  MOVLW  02
06004:  MOVWF  x56
06006:  MOVLB  0
06008:  CALL   21C8
....................             Menu=1;glcd_update();delay_ms(1000); 
0600C:  MOVLW  01
0600E:  MOVLB  6
06010:  MOVWF  xFC
06012:  MOVLB  0
06014:  CALL   1BF4
06018:  MOVLW  04
0601A:  MOVLB  7
0601C:  MOVWF  x51
0601E:  MOVLW  FA
06020:  MOVWF  x57
06022:  MOVLB  0
06024:  CALL   16B6
06028:  MOVLB  7
0602A:  DECFSZ x51,F
0602C:  BRA    601E
....................             glcd_fillScreen(OFF);unidad=1; 
0602E:  CLRF   x52
06030:  MOVLB  0
06032:  CALL   1B9A
06036:  MOVLW  01
06038:  MOVLB  6
0603A:  MOVWF  xFD
....................          }// Esta parte se puede agregar en el Menu 1 dependiendo de la ubicacin del vidrio. 
....................          else 
0603C:  BRA    615A
0603E:  MOVLB  7
....................          { 
....................             glcd_fillScreen(OFF); 
06040:  CLRF   x52
06042:  MOVLB  0
06044:  CALL   1B9A
....................             strcpy(Menus.Letra,"Clave"); 
06048:  MOVLW  04
0604A:  MOVWF  FEA
0604C:  MOVLW  18
0604E:  MOVWF  FE9
06050:  MOVFF  FF2,751
06054:  BCF    FF2.7
06056:  MOVLW  00
06058:  CALL   085E
0605C:  TBLRD*-
0605E:  TBLRD*+
06060:  MOVF   FF5,W
06062:  MOVWF  FEE
06064:  IORLW  00
06066:  BNZ   605E
06068:  MOVLB  7
0606A:  BTFSC  x51.7
0606C:  BSF    FF2.7
....................             displayMenu(Menus.Letra,30,0,0,2); 
0606E:  MOVLW  04
06070:  MOVWF  x52
06072:  MOVLW  18
06074:  MOVWF  x51
06076:  MOVLW  1E
06078:  MOVWF  x53
0607A:  CLRF   x54
0607C:  CLRF   x55
0607E:  MOVLW  02
06080:  MOVWF  x56
06082:  MOVLB  0
06084:  CALL   21C8
....................             strcpy(Menus.Letra,"Incorrecta"); 
06088:  MOVLW  04
0608A:  MOVWF  FEA
0608C:  MOVLW  18
0608E:  MOVWF  FE9
06090:  MOVFF  FF2,751
06094:  BCF    FF2.7
06096:  MOVLW  00
06098:  CALL   08AA
0609C:  TBLRD*-
0609E:  TBLRD*+
060A0:  MOVF   FF5,W
060A2:  MOVWF  FEE
060A4:  IORLW  00
060A6:  BNZ   609E
060A8:  MOVLB  7
060AA:  BTFSC  x51.7
060AC:  BSF    FF2.7
....................             displayMenu(Menus.Letra,0,30,0,2); 
060AE:  MOVLW  04
060B0:  MOVWF  x52
060B2:  MOVLW  18
060B4:  MOVWF  x51
060B6:  CLRF   x53
060B8:  MOVLW  1E
060BA:  MOVWF  x54
060BC:  CLRF   x55
060BE:  MOVLW  02
060C0:  MOVWF  x56
060C2:  MOVLB  0
060C4:  CALL   21C8
....................             Menu=0;glcd_update();delay_ms(1000); 
060C8:  MOVLB  6
060CA:  CLRF   xFC
060CC:  MOVLB  0
060CE:  CALL   1BF4
060D2:  MOVLW  04
060D4:  MOVLB  7
060D6:  MOVWF  x51
060D8:  MOVLW  FA
060DA:  MOVWF  x57
060DC:  MOVLB  0
060DE:  CALL   16B6
060E2:  MOVLB  7
060E4:  DECFSZ x51,F
060E6:  BRA    60D8
....................             glcd_fillScreen(OFF);unidad=1; 
060E8:  CLRF   x52
060EA:  MOVLB  0
060EC:  CALL   1B9A
060F0:  MOVLW  01
060F2:  MOVLB  6
060F4:  MOVWF  xFD
....................             Contrasena[0]=0;Contrasena[1]=0;Contrasena[2]=0;Contrasena[3]=0; 
060F6:  MOVLB  7
060F8:  CLRF   x1F
060FA:  CLRF   x20
060FC:  CLRF   x21
060FE:  CLRF   x22
....................             displayContrasena(Contrasena[0],20,30,1); 
06100:  MOVFF  71F,753
06104:  MOVLW  14
06106:  MOVWF  x54
06108:  MOVLW  1E
0610A:  MOVWF  x55
0610C:  MOVLW  01
0610E:  MOVWF  x56
06110:  MOVLB  0
06112:  CALL   23F0
....................             displayContrasena(Contrasena[1],40,30,0); 
06116:  MOVFF  720,753
0611A:  MOVLW  28
0611C:  MOVLB  7
0611E:  MOVWF  x54
06120:  MOVLW  1E
06122:  MOVWF  x55
06124:  CLRF   x56
06126:  MOVLB  0
06128:  CALL   23F0
....................             displayContrasena(Contrasena[2],60,30,0); 
0612C:  MOVFF  721,753
06130:  MOVLW  3C
06132:  MOVLB  7
06134:  MOVWF  x54
06136:  MOVLW  1E
06138:  MOVWF  x55
0613A:  CLRF   x56
0613C:  MOVLB  0
0613E:  CALL   23F0
....................             displayContrasena(Contrasena[3],80,30,0); 
06142:  MOVFF  722,753
06146:  MOVLW  50
06148:  MOVLB  7
0614A:  MOVWF  x54
0614C:  MOVLW  1E
0614E:  MOVWF  x55
06150:  CLRF   x56
06152:  MOVLB  0
06154:  CALL   23F0
06158:  MOVLB  6
....................          } 
....................       } 
....................     } 
.................... //_--------------------------------------------------------------------------------------------------------------------------------------------------------        
....................  
.................... //_-------------------------------------------------------------------------------------------------------------------------------------------------------- 
....................       if(Menu==1){ //Menu Principal.       
0615A:  DECFSZ xFC,W
0615C:  BRA    677A
....................        
....................       if(visual==1) 
0615E:  MOVLB  4
06160:  BTFSS  x84.6
06162:  BRA    66F8
....................       { 
....................          if(Opcion>7) 
06164:  MOVLB  7
06166:  MOVF   x05,W
06168:  SUBLW  07
0616A:  BC    6170
....................          {Opcion=1;} 
0616C:  MOVLW  01
0616E:  MOVWF  x05
....................          if(Opcion<1) 
06170:  MOVF   x05,F
06172:  BNZ   6178
....................          {Opcion=7;} 
06174:  MOVLW  07
06176:  MOVWF  x05
....................           
....................          strcpy(Menus.Letra,"Menu Principal"); 
06178:  MOVLW  04
0617A:  MOVWF  FEA
0617C:  MOVLW  18
0617E:  MOVWF  FE9
06180:  MOVFF  FF2,751
06184:  BCF    FF2.7
06186:  MOVLW  00
06188:  MOVLB  0
0618A:  CALL   08D4
0618E:  TBLRD*-
06190:  TBLRD*+
06192:  MOVF   FF5,W
06194:  MOVWF  FEE
06196:  IORLW  00
06198:  BNZ   6190
0619A:  MOVLB  7
0619C:  BTFSC  x51.7
0619E:  BSF    FF2.7
....................          displayMenu(Menus.Letra,30,0,1,1); 
061A0:  MOVLW  04
061A2:  MOVWF  x52
061A4:  MOVLW  18
061A6:  MOVWF  x51
061A8:  MOVLW  1E
061AA:  MOVWF  x53
061AC:  CLRF   x54
061AE:  MOVLW  01
061B0:  MOVWF  x55
061B2:  MOVWF  x56
061B4:  MOVLB  0
061B6:  CALL   21C8
....................        
....................          if(Opcion<=6) 
061BA:  MOVLB  7
061BC:  MOVF   x05,W
061BE:  SUBLW  06
061C0:  BTFSS  FD8.0
061C2:  BRA    6528
....................          { 
....................             if(Opcion==1) 
061C4:  DECFSZ x05,W
061C6:  BRA    620E
....................                {strcpy(Menus.Letra,"Caucho"); 
061C8:  MOVLW  04
061CA:  MOVWF  FEA
061CC:  MOVLW  18
061CE:  MOVWF  FE9
061D0:  MOVFF  FF2,751
061D4:  BCF    FF2.7
061D6:  MOVLW  00
061D8:  MOVLB  0
061DA:  CALL   0902
061DE:  TBLRD*-
061E0:  TBLRD*+
061E2:  MOVF   FF5,W
061E4:  MOVWF  FEE
061E6:  IORLW  00
061E8:  BNZ   61E0
061EA:  MOVLB  7
061EC:  BTFSC  x51.7
061EE:  BSF    FF2.7
....................                displayMenu(Menus.Letra,0,10,1,1);} 
061F0:  MOVLW  04
061F2:  MOVWF  x52
061F4:  MOVLW  18
061F6:  MOVWF  x51
061F8:  CLRF   x53
061FA:  MOVLW  0A
061FC:  MOVWF  x54
061FE:  MOVLW  01
06200:  MOVWF  x55
06202:  MOVWF  x56
06204:  MOVLB  0
06206:  CALL   21C8
....................             else 
0620A:  BRA    6250
0620C:  MOVLB  7
....................                {strcpy(Menus.Letra,"Caucho"); 
0620E:  MOVLW  04
06210:  MOVWF  FEA
06212:  MOVLW  18
06214:  MOVWF  FE9
06216:  MOVFF  FF2,751
0621A:  BCF    FF2.7
0621C:  MOVLW  00
0621E:  MOVLB  0
06220:  CALL   0902
06224:  TBLRD*-
06226:  TBLRD*+
06228:  MOVF   FF5,W
0622A:  MOVWF  FEE
0622C:  IORLW  00
0622E:  BNZ   6226
06230:  MOVLB  7
06232:  BTFSC  x51.7
06234:  BSF    FF2.7
....................                displayMenu(Menus.Letra,0,10,0,1);} 
06236:  MOVLW  04
06238:  MOVWF  x52
0623A:  MOVLW  18
0623C:  MOVWF  x51
0623E:  CLRF   x53
06240:  MOVLW  0A
06242:  MOVWF  x54
06244:  CLRF   x55
06246:  MOVLW  01
06248:  MOVWF  x56
0624A:  MOVLB  0
0624C:  CALL   21C8
....................              
....................             if(Opcion==2)    
06250:  MOVLB  7
06252:  MOVF   x05,W
06254:  SUBLW  02
06256:  BNZ   629E
....................                {strcpy(Menus.Letra,"Liquidos"); 
06258:  MOVLW  04
0625A:  MOVWF  FEA
0625C:  MOVLW  18
0625E:  MOVWF  FE9
06260:  MOVFF  FF2,751
06264:  BCF    FF2.7
06266:  MOVLW  00
06268:  MOVLB  0
0626A:  CALL   0928
0626E:  TBLRD*-
06270:  TBLRD*+
06272:  MOVF   FF5,W
06274:  MOVWF  FEE
06276:  IORLW  00
06278:  BNZ   6270
0627A:  MOVLB  7
0627C:  BTFSC  x51.7
0627E:  BSF    FF2.7
....................                displayMenu(Menus.Letra,0,19,1,1);} 
06280:  MOVLW  04
06282:  MOVWF  x52
06284:  MOVLW  18
06286:  MOVWF  x51
06288:  CLRF   x53
0628A:  MOVLW  13
0628C:  MOVWF  x54
0628E:  MOVLW  01
06290:  MOVWF  x55
06292:  MOVWF  x56
06294:  MOVLB  0
06296:  CALL   21C8
....................             else 
0629A:  BRA    62E0
0629C:  MOVLB  7
....................                {strcpy(Menus.Letra,"Liquidos"); 
0629E:  MOVLW  04
062A0:  MOVWF  FEA
062A2:  MOVLW  18
062A4:  MOVWF  FE9
062A6:  MOVFF  FF2,751
062AA:  BCF    FF2.7
062AC:  MOVLW  00
062AE:  MOVLB  0
062B0:  CALL   0928
062B4:  TBLRD*-
062B6:  TBLRD*+
062B8:  MOVF   FF5,W
062BA:  MOVWF  FEE
062BC:  IORLW  00
062BE:  BNZ   62B6
062C0:  MOVLB  7
062C2:  BTFSC  x51.7
062C4:  BSF    FF2.7
....................                displayMenu(Menus.Letra,0,19,0,1);}    
062C6:  MOVLW  04
062C8:  MOVWF  x52
062CA:  MOVLW  18
062CC:  MOVWF  x51
062CE:  CLRF   x53
062D0:  MOVLW  13
062D2:  MOVWF  x54
062D4:  CLRF   x55
062D6:  MOVLW  01
062D8:  MOVWF  x56
062DA:  MOVLB  0
062DC:  CALL   21C8
....................                 
....................              if(Opcion==3)    
062E0:  MOVLB  7
062E2:  MOVF   x05,W
062E4:  SUBLW  03
062E6:  BNZ   632E
....................                {strcpy(Menus.Letra,"Instrumental Suave"); 
062E8:  MOVLW  04
062EA:  MOVWF  FEA
062EC:  MOVLW  18
062EE:  MOVWF  FE9
062F0:  MOVFF  FF2,751
062F4:  BCF    FF2.7
062F6:  MOVLW  00
062F8:  MOVLB  0
062FA:  CALL   0950
062FE:  TBLRD*-
06300:  TBLRD*+
06302:  MOVF   FF5,W
06304:  MOVWF  FEE
06306:  IORLW  00
06308:  BNZ   6300
0630A:  MOVLB  7
0630C:  BTFSC  x51.7
0630E:  BSF    FF2.7
....................                displayMenu(Menus.Letra,0,28,1,1);} 
06310:  MOVLW  04
06312:  MOVWF  x52
06314:  MOVLW  18
06316:  MOVWF  x51
06318:  CLRF   x53
0631A:  MOVLW  1C
0631C:  MOVWF  x54
0631E:  MOVLW  01
06320:  MOVWF  x55
06322:  MOVWF  x56
06324:  MOVLB  0
06326:  CALL   21C8
....................             else 
0632A:  BRA    6370
0632C:  MOVLB  7
....................                {strcpy(Menus.Letra,"Instrumental Suave"); 
0632E:  MOVLW  04
06330:  MOVWF  FEA
06332:  MOVLW  18
06334:  MOVWF  FE9
06336:  MOVFF  FF2,751
0633A:  BCF    FF2.7
0633C:  MOVLW  00
0633E:  MOVLB  0
06340:  CALL   0950
06344:  TBLRD*-
06346:  TBLRD*+
06348:  MOVF   FF5,W
0634A:  MOVWF  FEE
0634C:  IORLW  00
0634E:  BNZ   6346
06350:  MOVLB  7
06352:  BTFSC  x51.7
06354:  BSF    FF2.7
....................                displayMenu(Menus.Letra,0,28,0,1);} 
06356:  MOVLW  04
06358:  MOVWF  x52
0635A:  MOVLW  18
0635C:  MOVWF  x51
0635E:  CLRF   x53
06360:  MOVLW  1C
06362:  MOVWF  x54
06364:  CLRF   x55
06366:  MOVLW  01
06368:  MOVWF  x56
0636A:  MOVLB  0
0636C:  CALL   21C8
....................                 
....................             if(Opcion==4)    
06370:  MOVLB  7
06372:  MOVF   x05,W
06374:  SUBLW  04
06376:  BNZ   63BE
....................                {strcpy(Menus.Letra,"Textil e Instrumental"); 
06378:  MOVLW  04
0637A:  MOVWF  FEA
0637C:  MOVLW  18
0637E:  MOVWF  FE9
06380:  MOVFF  FF2,751
06384:  BCF    FF2.7
06386:  MOVLW  00
06388:  MOVLB  0
0638A:  CALL   0982
0638E:  TBLRD*-
06390:  TBLRD*+
06392:  MOVF   FF5,W
06394:  MOVWF  FEE
06396:  IORLW  00
06398:  BNZ   6390
0639A:  MOVLB  7
0639C:  BTFSC  x51.7
0639E:  BSF    FF2.7
....................                displayMenu(Menus.Letra,0,37,1,1);} 
063A0:  MOVLW  04
063A2:  MOVWF  x52
063A4:  MOVLW  18
063A6:  MOVWF  x51
063A8:  CLRF   x53
063AA:  MOVLW  25
063AC:  MOVWF  x54
063AE:  MOVLW  01
063B0:  MOVWF  x55
063B2:  MOVWF  x56
063B4:  MOVLB  0
063B6:  CALL   21C8
....................             else 
063BA:  BRA    6400
063BC:  MOVLB  7
....................                {strcpy(Menus.Letra,"Textil e Instrumental"); 
063BE:  MOVLW  04
063C0:  MOVWF  FEA
063C2:  MOVLW  18
063C4:  MOVWF  FE9
063C6:  MOVFF  FF2,751
063CA:  BCF    FF2.7
063CC:  MOVLW  00
063CE:  MOVLB  0
063D0:  CALL   0982
063D4:  TBLRD*-
063D6:  TBLRD*+
063D8:  MOVF   FF5,W
063DA:  MOVWF  FEE
063DC:  IORLW  00
063DE:  BNZ   63D6
063E0:  MOVLB  7
063E2:  BTFSC  x51.7
063E4:  BSF    FF2.7
....................                displayMenu(Menus.Letra,0,37,0,1);}    
063E6:  MOVLW  04
063E8:  MOVWF  x52
063EA:  MOVLW  18
063EC:  MOVWF  x51
063EE:  CLRF   x53
063F0:  MOVLW  25
063F2:  MOVWF  x54
063F4:  CLRF   x55
063F6:  MOVLW  01
063F8:  MOVWF  x56
063FA:  MOVLB  0
063FC:  CALL   21C8
....................                 
....................             if(Opcion==5)    
06400:  MOVLB  7
06402:  MOVF   x05,W
06404:  SUBLW  05
06406:  BNZ   644E
....................                {strcpy(Menus.Letra,"Personalizado"); 
06408:  MOVLW  04
0640A:  MOVWF  FEA
0640C:  MOVLW  18
0640E:  MOVWF  FE9
06410:  MOVFF  FF2,751
06414:  BCF    FF2.7
06416:  MOVLW  00
06418:  MOVLB  0
0641A:  CALL   09B6
0641E:  TBLRD*-
06420:  TBLRD*+
06422:  MOVF   FF5,W
06424:  MOVWF  FEE
06426:  IORLW  00
06428:  BNZ   6420
0642A:  MOVLB  7
0642C:  BTFSC  x51.7
0642E:  BSF    FF2.7
....................                displayMenu(Menus.Letra,0,46,1,1);} 
06430:  MOVLW  04
06432:  MOVWF  x52
06434:  MOVLW  18
06436:  MOVWF  x51
06438:  CLRF   x53
0643A:  MOVLW  2E
0643C:  MOVWF  x54
0643E:  MOVLW  01
06440:  MOVWF  x55
06442:  MOVWF  x56
06444:  MOVLB  0
06446:  CALL   21C8
....................             else 
0644A:  BRA    6490
0644C:  MOVLB  7
....................                {strcpy(Menus.Letra,"Personalizado"); 
0644E:  MOVLW  04
06450:  MOVWF  FEA
06452:  MOVLW  18
06454:  MOVWF  FE9
06456:  MOVFF  FF2,751
0645A:  BCF    FF2.7
0645C:  MOVLW  00
0645E:  MOVLB  0
06460:  CALL   09B6
06464:  TBLRD*-
06466:  TBLRD*+
06468:  MOVF   FF5,W
0646A:  MOVWF  FEE
0646C:  IORLW  00
0646E:  BNZ   6466
06470:  MOVLB  7
06472:  BTFSC  x51.7
06474:  BSF    FF2.7
....................                displayMenu(Menus.Letra,0,46,0,1);}   
06476:  MOVLW  04
06478:  MOVWF  x52
0647A:  MOVLW  18
0647C:  MOVWF  x51
0647E:  CLRF   x53
06480:  MOVLW  2E
06482:  MOVWF  x54
06484:  CLRF   x55
06486:  MOVLW  01
06488:  MOVWF  x56
0648A:  MOVLB  0
0648C:  CALL   21C8
....................                 
....................             if(Opcion==6)    
06490:  MOVLB  7
06492:  MOVF   x05,W
06494:  SUBLW  06
06496:  BNZ   64DE
....................                {strcpy(Menus.Letra,"Cambio Clave"); 
06498:  MOVLW  04
0649A:  MOVWF  FEA
0649C:  MOVLW  18
0649E:  MOVWF  FE9
064A0:  MOVFF  FF2,751
064A4:  BCF    FF2.7
064A6:  MOVLW  00
064A8:  MOVLB  0
064AA:  CALL   09E2
064AE:  TBLRD*-
064B0:  TBLRD*+
064B2:  MOVF   FF5,W
064B4:  MOVWF  FEE
064B6:  IORLW  00
064B8:  BNZ   64B0
064BA:  MOVLB  7
064BC:  BTFSC  x51.7
064BE:  BSF    FF2.7
....................                displayMenu(Menus.Letra,0,55,1,1);} 
064C0:  MOVLW  04
064C2:  MOVWF  x52
064C4:  MOVLW  18
064C6:  MOVWF  x51
064C8:  CLRF   x53
064CA:  MOVLW  37
064CC:  MOVWF  x54
064CE:  MOVLW  01
064D0:  MOVWF  x55
064D2:  MOVWF  x56
064D4:  MOVLB  0
064D6:  CALL   21C8
....................             else 
064DA:  BRA    6520
064DC:  MOVLB  7
....................                {strcpy(Menus.Letra,"Cambio Clave"); 
064DE:  MOVLW  04
064E0:  MOVWF  FEA
064E2:  MOVLW  18
064E4:  MOVWF  FE9
064E6:  MOVFF  FF2,751
064EA:  BCF    FF2.7
064EC:  MOVLW  00
064EE:  MOVLB  0
064F0:  CALL   09E2
064F4:  TBLRD*-
064F6:  TBLRD*+
064F8:  MOVF   FF5,W
064FA:  MOVWF  FEE
064FC:  IORLW  00
064FE:  BNZ   64F6
06500:  MOVLB  7
06502:  BTFSC  x51.7
06504:  BSF    FF2.7
....................                displayMenu(Menus.Letra,0,55,0,1);}      
06506:  MOVLW  04
06508:  MOVWF  x52
0650A:  MOVLW  18
0650C:  MOVWF  x51
0650E:  CLRF   x53
06510:  MOVLW  37
06512:  MOVWF  x54
06514:  CLRF   x55
06516:  MOVLW  01
06518:  MOVWF  x56
0651A:  MOVLB  0
0651C:  CALL   21C8
....................                visual=0; 
06520:  MOVLB  4
06522:  BCF    x84.6
....................          } 
....................          else 
06524:  BRA    66F8
06526:  MOVLB  7
....................          { 
....................             if(Opcion==7) 
06528:  MOVF   x05,W
0652A:  SUBLW  07
0652C:  BNZ   6574
....................                {strcpy(Menus.Letra,"Prueba Comp."); 
0652E:  MOVLW  04
06530:  MOVWF  FEA
06532:  MOVLW  18
06534:  MOVWF  FE9
06536:  MOVFF  FF2,751
0653A:  BCF    FF2.7
0653C:  MOVLW  00
0653E:  MOVLB  0
06540:  CALL   0A0E
06544:  TBLRD*-
06546:  TBLRD*+
06548:  MOVF   FF5,W
0654A:  MOVWF  FEE
0654C:  IORLW  00
0654E:  BNZ   6546
06550:  MOVLB  7
06552:  BTFSC  x51.7
06554:  BSF    FF2.7
....................                displayMenu(Menus.Letra,0,10,1,1);} 
06556:  MOVLW  04
06558:  MOVWF  x52
0655A:  MOVLW  18
0655C:  MOVWF  x51
0655E:  CLRF   x53
06560:  MOVLW  0A
06562:  MOVWF  x54
06564:  MOVLW  01
06566:  MOVWF  x55
06568:  MOVWF  x56
0656A:  MOVLB  0
0656C:  CALL   21C8
....................             else 
06570:  BRA    65B6
06572:  MOVLB  7
....................                {strcpy(Menus.Letra,"Prueba Comp."); 
06574:  MOVLW  04
06576:  MOVWF  FEA
06578:  MOVLW  18
0657A:  MOVWF  FE9
0657C:  MOVFF  FF2,751
06580:  BCF    FF2.7
06582:  MOVLW  00
06584:  MOVLB  0
06586:  CALL   0A0E
0658A:  TBLRD*-
0658C:  TBLRD*+
0658E:  MOVF   FF5,W
06590:  MOVWF  FEE
06592:  IORLW  00
06594:  BNZ   658C
06596:  MOVLB  7
06598:  BTFSC  x51.7
0659A:  BSF    FF2.7
....................                displayMenu(Menus.Letra,0,10,0,1);} 
0659C:  MOVLW  04
0659E:  MOVWF  x52
065A0:  MOVLW  18
065A2:  MOVWF  x51
065A4:  CLRF   x53
065A6:  MOVLW  0A
065A8:  MOVWF  x54
065AA:  CLRF   x55
065AC:  MOVLW  01
065AE:  MOVWF  x56
065B0:  MOVLB  0
065B2:  CALL   21C8
....................                 
....................                strcpy(Menus.Letra,"           "); 
065B6:  MOVLW  04
065B8:  MOVWF  FEA
065BA:  MOVLW  18
065BC:  MOVWF  FE9
065BE:  MOVFF  FF2,751
065C2:  BCF    FF2.7
065C4:  MOVLW  00
065C6:  CALL   0A3A
065CA:  TBLRD*-
065CC:  TBLRD*+
065CE:  MOVF   FF5,W
065D0:  MOVWF  FEE
065D2:  IORLW  00
065D4:  BNZ   65CC
065D6:  MOVLB  7
065D8:  BTFSC  x51.7
065DA:  BSF    FF2.7
....................                displayMenu(Menus.Letra,0,19,0,1); 
065DC:  MOVLW  04
065DE:  MOVWF  x52
065E0:  MOVLW  18
065E2:  MOVWF  x51
065E4:  CLRF   x53
065E6:  MOVLW  13
065E8:  MOVWF  x54
065EA:  CLRF   x55
065EC:  MOVLW  01
065EE:  MOVWF  x56
065F0:  MOVLB  0
065F2:  CALL   21C8
....................                 
....................                strcpy(Menus.Letra,"           "); 
065F6:  MOVLW  04
065F8:  MOVWF  FEA
065FA:  MOVLW  18
065FC:  MOVWF  FE9
065FE:  MOVFF  FF2,751
06602:  BCF    FF2.7
06604:  MOVLW  00
06606:  CALL   0A3A
0660A:  TBLRD*-
0660C:  TBLRD*+
0660E:  MOVF   FF5,W
06610:  MOVWF  FEE
06612:  IORLW  00
06614:  BNZ   660C
06616:  MOVLB  7
06618:  BTFSC  x51.7
0661A:  BSF    FF2.7
....................                displayMenu(Menus.Letra,0,28,0,1); 
0661C:  MOVLW  04
0661E:  MOVWF  x52
06620:  MOVLW  18
06622:  MOVWF  x51
06624:  CLRF   x53
06626:  MOVLW  1C
06628:  MOVWF  x54
0662A:  CLRF   x55
0662C:  MOVLW  01
0662E:  MOVWF  x56
06630:  MOVLB  0
06632:  CALL   21C8
....................                 
....................                strcpy(Menus.Letra,"           "); 
06636:  MOVLW  04
06638:  MOVWF  FEA
0663A:  MOVLW  18
0663C:  MOVWF  FE9
0663E:  MOVFF  FF2,751
06642:  BCF    FF2.7
06644:  MOVLW  00
06646:  CALL   0A3A
0664A:  TBLRD*-
0664C:  TBLRD*+
0664E:  MOVF   FF5,W
06650:  MOVWF  FEE
06652:  IORLW  00
06654:  BNZ   664C
06656:  MOVLB  7
06658:  BTFSC  x51.7
0665A:  BSF    FF2.7
....................                displayMenu(Menus.Letra,0,37,0,1); 
0665C:  MOVLW  04
0665E:  MOVWF  x52
06660:  MOVLW  18
06662:  MOVWF  x51
06664:  CLRF   x53
06666:  MOVLW  25
06668:  MOVWF  x54
0666A:  CLRF   x55
0666C:  MOVLW  01
0666E:  MOVWF  x56
06670:  MOVLB  0
06672:  CALL   21C8
....................                 
....................                strcpy(Menus.Letra,"           "); 
06676:  MOVLW  04
06678:  MOVWF  FEA
0667A:  MOVLW  18
0667C:  MOVWF  FE9
0667E:  MOVFF  FF2,751
06682:  BCF    FF2.7
06684:  MOVLW  00
06686:  CALL   0A3A
0668A:  TBLRD*-
0668C:  TBLRD*+
0668E:  MOVF   FF5,W
06690:  MOVWF  FEE
06692:  IORLW  00
06694:  BNZ   668C
06696:  MOVLB  7
06698:  BTFSC  x51.7
0669A:  BSF    FF2.7
....................                displayMenu(Menus.Letra,0,46,0,1); 
0669C:  MOVLW  04
0669E:  MOVWF  x52
066A0:  MOVLW  18
066A2:  MOVWF  x51
066A4:  CLRF   x53
066A6:  MOVLW  2E
066A8:  MOVWF  x54
066AA:  CLRF   x55
066AC:  MOVLW  01
066AE:  MOVWF  x56
066B0:  MOVLB  0
066B2:  CALL   21C8
....................                 
....................                strcpy(Menus.Letra,"           "); 
066B6:  MOVLW  04
066B8:  MOVWF  FEA
066BA:  MOVLW  18
066BC:  MOVWF  FE9
066BE:  MOVFF  FF2,751
066C2:  BCF    FF2.7
066C4:  MOVLW  00
066C6:  CALL   0A3A
066CA:  TBLRD*-
066CC:  TBLRD*+
066CE:  MOVF   FF5,W
066D0:  MOVWF  FEE
066D2:  IORLW  00
066D4:  BNZ   66CC
066D6:  MOVLB  7
066D8:  BTFSC  x51.7
066DA:  BSF    FF2.7
....................                displayMenu(Menus.Letra,0,55,0,1); 
066DC:  MOVLW  04
066DE:  MOVWF  x52
066E0:  MOVLW  18
066E2:  MOVWF  x51
066E4:  CLRF   x53
066E6:  MOVLW  37
066E8:  MOVWF  x54
066EA:  CLRF   x55
066EC:  MOVLW  01
066EE:  MOVWF  x56
066F0:  MOVLB  0
066F2:  CALL   21C8
066F6:  MOVLB  4
....................          } 
....................       } 
....................        
....................       if(UP){ 
066F8:  BSF    F92.4
066FA:  BTFSC  F80.4
066FC:  BRA    671A
....................          if(Flanco == 0){ 
066FE:  BTFSC  x84.3
06700:  BRA    6718
....................             Flanco = 1;delay_ms(30);Opcion--;visual=1; 
06702:  BSF    x84.3
06704:  MOVLW  1E
06706:  MOVLB  7
06708:  MOVWF  x57
0670A:  MOVLB  0
0670C:  CALL   16B6
06710:  MOVLB  7
06712:  DECF   x05,F
06714:  MOVLB  4
06716:  BSF    x84.6
....................          } 
....................       }else{ 
06718:  BRA    671C
....................          Flanco = 0; 
0671A:  BCF    x84.3
....................       } 
....................                    
....................       if(DOWN){ 
0671C:  BSF    F92.5
0671E:  BTFSC  F80.5
06720:  BRA    673E
....................          if(Flanco2 == 0){ 
06722:  BTFSC  x84.5
06724:  BRA    673C
....................             Flanco2 = 1;delay_ms(30);Opcion++;visual=1; 
06726:  BSF    x84.5
06728:  MOVLW  1E
0672A:  MOVLB  7
0672C:  MOVWF  x57
0672E:  MOVLB  0
06730:  CALL   16B6
06734:  MOVLB  7
06736:  INCF   x05,F
06738:  MOVLB  4
0673A:  BSF    x84.6
....................          }      
....................       }else{ 
0673C:  BRA    6740
....................          Flanco2 = 0; 
0673E:  BCF    x84.5
....................       } 
....................                 
....................        if(RIGHT)//Si oprime SET 
06740:  BSF    F96.0
06742:  BTFSC  F84.0
06744:  BRA    6776
....................          {  if(Flanco1 == 0)  
06746:  BTFSC  x84.4
06748:  BRA    6774
....................                {Flanco1 = 1;delay_ms(30);Menu=Opcion+3;Opcion=1;glcd_fillscreen(OFF);visual=1; 
0674A:  BSF    x84.4
0674C:  MOVLW  1E
0674E:  MOVLB  7
06750:  MOVWF  x57
06752:  MOVLB  0
06754:  CALL   16B6
06758:  MOVLW  03
0675A:  MOVLB  7
0675C:  ADDWF  x05,W
0675E:  MOVLB  6
06760:  MOVWF  xFC
06762:  MOVLW  01
06764:  MOVLB  7
06766:  MOVWF  x05
06768:  CLRF   x52
0676A:  MOVLB  0
0676C:  CALL   1B9A
06770:  MOVLB  4
06772:  BSF    x84.6
....................                } 
....................          } 
....................             else 
06774:  BRA    6778
....................                {Flanco1 = 0;}   
06776:  BCF    x84.4
06778:  MOVLB  6
....................    } 
.................... //_--------------------------------------------------------------------------------------------------------------------------------------------------------        
....................  
.................... //_--------------------------------------------------------------------------------------------------------------------------------------------------------       
....................       if(Menu==4){ // Menu de Caucho 
0677A:  MOVF   xFC,W
0677C:  SUBLW  04
0677E:  BTFSS  FD8.2
06780:  BRA    694E
....................        
....................       if(visual==1) 
06782:  MOVLB  4
06784:  BTFSS  x84.6
06786:  BRA    68DC
....................       { 
....................          glcd_imagen(2); //Guante 
06788:  MOVLW  02
0678A:  MOVLB  7
0678C:  MOVWF  x51
0678E:  MOVLB  0
06790:  CALL   3674
....................          strcpy(Menus.Letra,"Caucho"); 
06794:  MOVLW  04
06796:  MOVWF  FEA
06798:  MOVLW  18
0679A:  MOVWF  FE9
0679C:  MOVFF  FF2,751
067A0:  BCF    FF2.7
067A2:  MOVLW  00
067A4:  CALL   0902
067A8:  TBLRD*-
067AA:  TBLRD*+
067AC:  MOVF   FF5,W
067AE:  MOVWF  FEE
067B0:  IORLW  00
067B2:  BNZ   67AA
067B4:  MOVLB  7
067B6:  BTFSC  x51.7
067B8:  BSF    FF2.7
....................          displayMenu(Menus.Letra,20,0,1,2); 
067BA:  MOVLW  04
067BC:  MOVWF  x52
067BE:  MOVLW  18
067C0:  MOVWF  x51
067C2:  MOVLW  14
067C4:  MOVWF  x53
067C6:  CLRF   x54
067C8:  MOVLW  01
067CA:  MOVWF  x55
067CC:  MOVLW  02
067CE:  MOVWF  x56
067D0:  MOVLB  0
067D2:  CALL   21C8
....................          
....................          strcpy(Menus.Letra,"Caucho"); 
067D6:  MOVLW  04
067D8:  MOVWF  FEA
067DA:  MOVLW  18
067DC:  MOVWF  FE9
067DE:  MOVFF  FF2,751
067E2:  BCF    FF2.7
067E4:  MOVLW  00
067E6:  CALL   0902
067EA:  TBLRD*-
067EC:  TBLRD*+
067EE:  MOVF   FF5,W
067F0:  MOVWF  FEE
067F2:  IORLW  00
067F4:  BNZ   67EC
067F6:  MOVLB  7
067F8:  BTFSC  x51.7
067FA:  BSF    FF2.7
....................          displayMenu(Menus.Letra,7,55,0,1); 
067FC:  MOVLW  04
067FE:  MOVWF  x52
06800:  MOVLW  18
06802:  MOVWF  x51
06804:  MOVLW  07
06806:  MOVWF  x53
06808:  MOVLW  37
0680A:  MOVWF  x54
0680C:  CLRF   x55
0680E:  MOVLW  01
06810:  MOVWF  x56
06812:  MOVLB  0
06814:  CALL   21C8
....................           
....................          strcpy(Menus.Letra,"Temperatura:121 C"); 
06818:  MOVLW  04
0681A:  MOVWF  FEA
0681C:  MOVLW  18
0681E:  MOVWF  FE9
06820:  MOVFF  FF2,751
06824:  BCF    FF2.7
06826:  MOVLW  00
06828:  CALL   0A64
0682C:  TBLRD*-
0682E:  TBLRD*+
06830:  MOVF   FF5,W
06832:  MOVWF  FEE
06834:  IORLW  00
06836:  BNZ   682E
06838:  MOVLB  7
0683A:  BTFSC  x51.7
0683C:  BSF    FF2.7
....................          displayMenu(Menus.Letra,0,26,0,1); 
0683E:  MOVLW  04
06840:  MOVWF  x52
06842:  MOVLW  18
06844:  MOVWF  x51
06846:  CLRF   x53
06848:  MOVLW  1A
0684A:  MOVWF  x54
0684C:  CLRF   x55
0684E:  MOVLW  01
06850:  MOVWF  x56
06852:  MOVLB  0
06854:  CALL   21C8
....................          strcpy(Menus.Letra,"T. Esterilizacion:15m"); 
06858:  MOVLW  04
0685A:  MOVWF  FEA
0685C:  MOVLW  18
0685E:  MOVWF  FE9
06860:  MOVFF  FF2,751
06864:  BCF    FF2.7
06866:  MOVLW  00
06868:  CALL   0A94
0686C:  TBLRD*-
0686E:  TBLRD*+
06870:  MOVF   FF5,W
06872:  MOVWF  FEE
06874:  IORLW  00
06876:  BNZ   686E
06878:  MOVLB  7
0687A:  BTFSC  x51.7
0687C:  BSF    FF2.7
....................          displayMenu(Menus.Letra,0,36,0,1); 
0687E:  MOVLW  04
06880:  MOVWF  x52
06882:  MOVLW  18
06884:  MOVWF  x51
06886:  CLRF   x53
06888:  MOVLW  24
0688A:  MOVWF  x54
0688C:  CLRF   x55
0688E:  MOVLW  01
06890:  MOVWF  x56
06892:  MOVLB  0
06894:  CALL   21C8
....................          strcpy(Menus.Letra,"T. Secado= 15m"); 
06898:  MOVLW  04
0689A:  MOVWF  FEA
0689C:  MOVLW  18
0689E:  MOVWF  FE9
068A0:  MOVFF  FF2,751
068A4:  BCF    FF2.7
068A6:  MOVLW  00
068A8:  CALL   0AC8
068AC:  TBLRD*-
068AE:  TBLRD*+
068B0:  MOVF   FF5,W
068B2:  MOVWF  FEE
068B4:  IORLW  00
068B6:  BNZ   68AE
068B8:  MOVLB  7
068BA:  BTFSC  x51.7
068BC:  BSF    FF2.7
....................          displayMenu(Menus.Letra,0,46,0,1); 
068BE:  MOVLW  04
068C0:  MOVWF  x52
068C2:  MOVLW  18
068C4:  MOVWF  x51
068C6:  CLRF   x53
068C8:  MOVLW  2E
068CA:  MOVWF  x54
068CC:  CLRF   x55
068CE:  MOVLW  01
068D0:  MOVWF  x56
068D2:  MOVLB  0
068D4:  CALL   21C8
....................          visual=0; 
068D8:  MOVLB  4
068DA:  BCF    x84.6
....................       } 
....................        
....................       if(LEFT)// Si oprime Izquier|da 
068DC:  BSF    F96.1
068DE:  BTFSC  F84.1
068E0:  BRA    6902
....................       {  
....................          delay_ms(30);Menu=1;glcd_fillScreen(OFF);visual=1; 
068E2:  MOVLW  1E
068E4:  MOVLB  7
068E6:  MOVWF  x57
068E8:  MOVLB  0
068EA:  CALL   16B6
068EE:  MOVLW  01
068F0:  MOVLB  6
068F2:  MOVWF  xFC
068F4:  MOVLB  7
068F6:  CLRF   x52
068F8:  MOVLB  0
068FA:  CALL   1B9A
068FE:  MOVLB  4
06900:  BSF    x84.6
....................       } 
....................  
....................       if(RIGHT)// Si oprime derecha 
06902:  BSF    F96.0
06904:  BTFSC  F84.0
06906:  BRA    694C
....................       { 
....................          Testerilizacionp[0]=0;Testerilizacionp[1]=0;Testerilizacionp[2]=5;Testerilizacionp[3]=1; 
06908:  CLRF   x8F
0690A:  CLRF   x90
0690C:  MOVLW  05
0690E:  MOVWF  x91
06910:  MOVLW  01
06912:  MOVWF  x92
....................          visual=1; 
06914:  BSF    x84.6
....................          Tsecadop[0]=0;Tsecadop[1]=0;Tsecadop[2]=5;Tsecadop[3]=1; 
06916:  CLRF   x97
06918:  CLRF   x98
0691A:  MOVLW  05
0691C:  MOVWF  x99
0691E:  MOVLW  01
06920:  MOVWF  x9A
....................          Setpoint=121; 
06922:  MOVLW  79
06924:  MOVLB  7
06926:  MOVWF  x02
....................          Menu=20; 
06928:  MOVLW  14
0692A:  MOVLB  6
0692C:  MOVWF  xFC
....................          tiempo_secado=0; 
0692E:  MOVLB  7
06930:  CLRF   x07
....................          glcd_fillScreen(OFF); 
06932:  CLRF   x52
06934:  MOVLB  0
06936:  CALL   1B9A
....................          CuadroCalentando(ON); 
0693A:  MOVLW  01
0693C:  MOVLB  7
0693E:  MOVWF  x51
06940:  MOVLB  0
06942:  CALL   3730
....................          desfoguelento=0; 
06946:  MOVLB  4
06948:  BCF    x84.7
....................          IniciaCiclo=ON; 
0694A:  BSF    x83.0
0694C:  MOVLB  6
....................       } 
....................      
....................     }     
.................... //_--------------------------------------------------------------------------------------------------------------------------------------------------------     
....................  
.................... //_--------------------------------------------------------------------------------------------------------------------------------------------------------       
....................       if(Menu==5){ // Menu de Liquido       
0694E:  MOVF   xFC,W
06950:  SUBLW  05
06952:  BTFSS  FD8.2
06954:  BRA    6B22
....................        
....................       if(visual==1) 
06956:  MOVLB  4
06958:  BTFSS  x84.6
0695A:  BRA    6AB2
....................       { 
....................          glcd_imagen(4); //ErlenMeyer con Liquido 
0695C:  MOVLW  04
0695E:  MOVLB  7
06960:  MOVWF  x51
06962:  MOVLB  0
06964:  CALL   3674
....................          strcpy(Menus.Letra,"Liquidos"); 
06968:  MOVLW  04
0696A:  MOVWF  FEA
0696C:  MOVLW  18
0696E:  MOVWF  FE9
06970:  MOVFF  FF2,751
06974:  BCF    FF2.7
06976:  MOVLW  00
06978:  CALL   0928
0697C:  TBLRD*-
0697E:  TBLRD*+
06980:  MOVF   FF5,W
06982:  MOVWF  FEE
06984:  IORLW  00
06986:  BNZ   697E
06988:  MOVLB  7
0698A:  BTFSC  x51.7
0698C:  BSF    FF2.7
....................          displayMenu(Menus.Letra,20,0,1,2); 
0698E:  MOVLW  04
06990:  MOVWF  x52
06992:  MOVLW  18
06994:  MOVWF  x51
06996:  MOVLW  14
06998:  MOVWF  x53
0699A:  CLRF   x54
0699C:  MOVLW  01
0699E:  MOVWF  x55
069A0:  MOVLW  02
069A2:  MOVWF  x56
069A4:  MOVLB  0
069A6:  CALL   21C8
....................        
....................          strcpy(Menus.Letra,"Liquidos"); 
069AA:  MOVLW  04
069AC:  MOVWF  FEA
069AE:  MOVLW  18
069B0:  MOVWF  FE9
069B2:  MOVFF  FF2,751
069B6:  BCF    FF2.7
069B8:  MOVLW  00
069BA:  CALL   0928
069BE:  TBLRD*-
069C0:  TBLRD*+
069C2:  MOVF   FF5,W
069C4:  MOVWF  FEE
069C6:  IORLW  00
069C8:  BNZ   69C0
069CA:  MOVLB  7
069CC:  BTFSC  x51.7
069CE:  BSF    FF2.7
....................          displayMenu(Menus.Letra,7,55,2,1); 
069D0:  MOVLW  04
069D2:  MOVWF  x52
069D4:  MOVLW  18
069D6:  MOVWF  x51
069D8:  MOVLW  07
069DA:  MOVWF  x53
069DC:  MOVLW  37
069DE:  MOVWF  x54
069E0:  MOVLW  02
069E2:  MOVWF  x55
069E4:  MOVLW  01
069E6:  MOVWF  x56
069E8:  MOVLB  0
069EA:  CALL   21C8
....................           
....................          strcpy(Menus.Letra,"Temperatura:121 C"); 
069EE:  MOVLW  04
069F0:  MOVWF  FEA
069F2:  MOVLW  18
069F4:  MOVWF  FE9
069F6:  MOVFF  FF2,751
069FA:  BCF    FF2.7
069FC:  MOVLW  00
069FE:  CALL   0A64
06A02:  TBLRD*-
06A04:  TBLRD*+
06A06:  MOVF   FF5,W
06A08:  MOVWF  FEE
06A0A:  IORLW  00
06A0C:  BNZ   6A04
06A0E:  MOVLB  7
06A10:  BTFSC  x51.7
06A12:  BSF    FF2.7
....................          displayMenu(Menus.Letra,0,26,0,1); 
06A14:  MOVLW  04
06A16:  MOVWF  x52
06A18:  MOVLW  18
06A1A:  MOVWF  x51
06A1C:  CLRF   x53
06A1E:  MOVLW  1A
06A20:  MOVWF  x54
06A22:  CLRF   x55
06A24:  MOVLW  01
06A26:  MOVWF  x56
06A28:  MOVLB  0
06A2A:  CALL   21C8
....................          strcpy(Menus.Letra,"T. Esterilizacion:20m"); 
06A2E:  MOVLW  04
06A30:  MOVWF  FEA
06A32:  MOVLW  18
06A34:  MOVWF  FE9
06A36:  MOVFF  FF2,751
06A3A:  BCF    FF2.7
06A3C:  MOVLW  00
06A3E:  CALL   0AF6
06A42:  TBLRD*-
06A44:  TBLRD*+
06A46:  MOVF   FF5,W
06A48:  MOVWF  FEE
06A4A:  IORLW  00
06A4C:  BNZ   6A44
06A4E:  MOVLB  7
06A50:  BTFSC  x51.7
06A52:  BSF    FF2.7
....................          displayMenu(Menus.Letra,0,36,0,1); 
06A54:  MOVLW  04
06A56:  MOVWF  x52
06A58:  MOVLW  18
06A5A:  MOVWF  x51
06A5C:  CLRF   x53
06A5E:  MOVLW  24
06A60:  MOVWF  x54
06A62:  CLRF   x55
06A64:  MOVLW  01
06A66:  MOVWF  x56
06A68:  MOVLB  0
06A6A:  CALL   21C8
....................          strcpy(Menus.Letra,"T. Secado= N/A"); 
06A6E:  MOVLW  04
06A70:  MOVWF  FEA
06A72:  MOVLW  18
06A74:  MOVWF  FE9
06A76:  MOVFF  FF2,751
06A7A:  BCF    FF2.7
06A7C:  MOVLW  00
06A7E:  CALL   0B2A
06A82:  TBLRD*-
06A84:  TBLRD*+
06A86:  MOVF   FF5,W
06A88:  MOVWF  FEE
06A8A:  IORLW  00
06A8C:  BNZ   6A84
06A8E:  MOVLB  7
06A90:  BTFSC  x51.7
06A92:  BSF    FF2.7
....................          displayMenu(Menus.Letra,0,46,0,1);     
06A94:  MOVLW  04
06A96:  MOVWF  x52
06A98:  MOVLW  18
06A9A:  MOVWF  x51
06A9C:  CLRF   x53
06A9E:  MOVLW  2E
06AA0:  MOVWF  x54
06AA2:  CLRF   x55
06AA4:  MOVLW  01
06AA6:  MOVWF  x56
06AA8:  MOVLB  0
06AAA:  CALL   21C8
....................          visual=0; 
06AAE:  MOVLB  4
06AB0:  BCF    x84.6
....................       }    
....................           
....................       if(LEFT)// Si oprime Izquier|da 
06AB2:  BSF    F96.1
06AB4:  BTFSC  F84.1
06AB6:  BRA    6AD8
....................       {  
....................          delay_ms(30);Menu=1;glcd_fillScreen(OFF);visual=1; 
06AB8:  MOVLW  1E
06ABA:  MOVLB  7
06ABC:  MOVWF  x57
06ABE:  MOVLB  0
06AC0:  CALL   16B6
06AC4:  MOVLW  01
06AC6:  MOVLB  6
06AC8:  MOVWF  xFC
06ACA:  MOVLB  7
06ACC:  CLRF   x52
06ACE:  MOVLB  0
06AD0:  CALL   1B9A
06AD4:  MOVLB  4
06AD6:  BSF    x84.6
....................       }                
....................  
....................       if(RIGHT)// Si oprime derecha 
06AD8:  BSF    F96.0
06ADA:  BTFSC  F84.0
06ADC:  BRA    6B20
....................       { 
....................          Testerilizacionp[0]=0;Testerilizacionp[1]=0;Testerilizacionp[2]=0;Testerilizacionp[3]=2; 
06ADE:  CLRF   x8F
06AE0:  CLRF   x90
06AE2:  CLRF   x91
06AE4:  MOVLW  02
06AE6:  MOVWF  x92
....................          desfoguelento=1;visual=1; 
06AE8:  BSF    x84.7
06AEA:  BSF    x84.6
....................          Tsecadop[0]=0;Tsecadop[1]=0;Tsecadop[2]=0;Tsecadop[3]=0; 
06AEC:  CLRF   x97
06AEE:  CLRF   x98
06AF0:  CLRF   x99
06AF2:  CLRF   x9A
....................          Setpoint=121;Menu=14; 
06AF4:  MOVLW  79
06AF6:  MOVLB  7
06AF8:  MOVWF  x02
06AFA:  MOVLW  0E
06AFC:  MOVLB  6
06AFE:  MOVWF  xFC
....................          delay_ms(700);glcd_fillScreen(OFF); 
06B00:  MOVLW  04
06B02:  MOVLB  7
06B04:  MOVWF  x51
06B06:  MOVLW  AF
06B08:  MOVWF  x57
06B0A:  MOVLB  0
06B0C:  CALL   16B6
06B10:  MOVLB  7
06B12:  DECFSZ x51,F
06B14:  BRA    6B06
06B16:  CLRF   x52
06B18:  MOVLB  0
06B1A:  CALL   1B9A
06B1E:  MOVLB  4
06B20:  MOVLB  6
....................       } 
....................     }     
.................... //_--------------------------------------------------------------------------------------------------------------------------------------------------------     
....................  
.................... //_--------------------------------------------------------------------------------------------------------------------------------------------------------       
....................       if(Menu==6){ // Menu de Instrumental Suave      
06B22:  MOVF   xFC,W
06B24:  SUBLW  06
06B26:  BTFSS  FD8.2
06B28:  BRA    6CF6
....................        
....................       if(visual==1) 
06B2A:  MOVLB  4
06B2C:  BTFSS  x84.6
06B2E:  BRA    6C84
....................       { 
....................          glcd_imagen(3); //Erlen Meyer 
06B30:  MOVLW  03
06B32:  MOVLB  7
06B34:  MOVWF  x51
06B36:  MOVLB  0
06B38:  CALL   3674
....................           
....................          strcpy(Menus.Letra,"Ins. Suave"); 
06B3C:  MOVLW  04
06B3E:  MOVWF  FEA
06B40:  MOVLW  18
06B42:  MOVWF  FE9
06B44:  MOVFF  FF2,751
06B48:  BCF    FF2.7
06B4A:  MOVLW  00
06B4C:  CALL   0B58
06B50:  TBLRD*-
06B52:  TBLRD*+
06B54:  MOVF   FF5,W
06B56:  MOVWF  FEE
06B58:  IORLW  00
06B5A:  BNZ   6B52
06B5C:  MOVLB  7
06B5E:  BTFSC  x51.7
06B60:  BSF    FF2.7
....................          displayMenu(Menus.Letra,0,0,1,2); 
06B62:  MOVLW  04
06B64:  MOVWF  x52
06B66:  MOVLW  18
06B68:  MOVWF  x51
06B6A:  CLRF   x53
06B6C:  CLRF   x54
06B6E:  MOVLW  01
06B70:  MOVWF  x55
06B72:  MOVLW  02
06B74:  MOVWF  x56
06B76:  MOVLB  0
06B78:  CALL   21C8
....................           
....................          strcpy(Menus.Letra,"Instrumental Suave"); 
06B7C:  MOVLW  04
06B7E:  MOVWF  FEA
06B80:  MOVLW  18
06B82:  MOVWF  FE9
06B84:  MOVFF  FF2,751
06B88:  BCF    FF2.7
06B8A:  MOVLW  00
06B8C:  CALL   0950
06B90:  TBLRD*-
06B92:  TBLRD*+
06B94:  MOVF   FF5,W
06B96:  MOVWF  FEE
06B98:  IORLW  00
06B9A:  BNZ   6B92
06B9C:  MOVLB  7
06B9E:  BTFSC  x51.7
06BA0:  BSF    FF2.7
....................          displayMenu(Menus.Letra,7,55,2,1); 
06BA2:  MOVLW  04
06BA4:  MOVWF  x52
06BA6:  MOVLW  18
06BA8:  MOVWF  x51
06BAA:  MOVLW  07
06BAC:  MOVWF  x53
06BAE:  MOVLW  37
06BB0:  MOVWF  x54
06BB2:  MOVLW  02
06BB4:  MOVWF  x55
06BB6:  MOVLW  01
06BB8:  MOVWF  x56
06BBA:  MOVLB  0
06BBC:  CALL   21C8
....................           
....................          strcpy(Menus.Letra,"Temperatura:121 C"); 
06BC0:  MOVLW  04
06BC2:  MOVWF  FEA
06BC4:  MOVLW  18
06BC6:  MOVWF  FE9
06BC8:  MOVFF  FF2,751
06BCC:  BCF    FF2.7
06BCE:  MOVLW  00
06BD0:  CALL   0A64
06BD4:  TBLRD*-
06BD6:  TBLRD*+
06BD8:  MOVF   FF5,W
06BDA:  MOVWF  FEE
06BDC:  IORLW  00
06BDE:  BNZ   6BD6
06BE0:  MOVLB  7
06BE2:  BTFSC  x51.7
06BE4:  BSF    FF2.7
....................          displayMenu(Menus.Letra,0,26,0,1); 
06BE6:  MOVLW  04
06BE8:  MOVWF  x52
06BEA:  MOVLW  18
06BEC:  MOVWF  x51
06BEE:  CLRF   x53
06BF0:  MOVLW  1A
06BF2:  MOVWF  x54
06BF4:  CLRF   x55
06BF6:  MOVLW  01
06BF8:  MOVWF  x56
06BFA:  MOVLB  0
06BFC:  CALL   21C8
....................          strcpy(Menus.Letra,"T. Esterilizacion:15m"); 
06C00:  MOVLW  04
06C02:  MOVWF  FEA
06C04:  MOVLW  18
06C06:  MOVWF  FE9
06C08:  MOVFF  FF2,751
06C0C:  BCF    FF2.7
06C0E:  MOVLW  00
06C10:  CALL   0A94
06C14:  TBLRD*-
06C16:  TBLRD*+
06C18:  MOVF   FF5,W
06C1A:  MOVWF  FEE
06C1C:  IORLW  00
06C1E:  BNZ   6C16
06C20:  MOVLB  7
06C22:  BTFSC  x51.7
06C24:  BSF    FF2.7
....................          displayMenu(Menus.Letra,0,36,0,1); 
06C26:  MOVLW  04
06C28:  MOVWF  x52
06C2A:  MOVLW  18
06C2C:  MOVWF  x51
06C2E:  CLRF   x53
06C30:  MOVLW  24
06C32:  MOVWF  x54
06C34:  CLRF   x55
06C36:  MOVLW  01
06C38:  MOVWF  x56
06C3A:  MOVLB  0
06C3C:  CALL   21C8
....................          strcpy(Menus.Letra,"T. Secado= N/A"); 
06C40:  MOVLW  04
06C42:  MOVWF  FEA
06C44:  MOVLW  18
06C46:  MOVWF  FE9
06C48:  MOVFF  FF2,751
06C4C:  BCF    FF2.7
06C4E:  MOVLW  00
06C50:  CALL   0B2A
06C54:  TBLRD*-
06C56:  TBLRD*+
06C58:  MOVF   FF5,W
06C5A:  MOVWF  FEE
06C5C:  IORLW  00
06C5E:  BNZ   6C56
06C60:  MOVLB  7
06C62:  BTFSC  x51.7
06C64:  BSF    FF2.7
....................          displayMenu(Menus.Letra,0,46,0,1);            
06C66:  MOVLW  04
06C68:  MOVWF  x52
06C6A:  MOVLW  18
06C6C:  MOVWF  x51
06C6E:  CLRF   x53
06C70:  MOVLW  2E
06C72:  MOVWF  x54
06C74:  CLRF   x55
06C76:  MOVLW  01
06C78:  MOVWF  x56
06C7A:  MOVLB  0
06C7C:  CALL   21C8
....................          visual=0; 
06C80:  MOVLB  4
06C82:  BCF    x84.6
....................       } 
....................  
....................       if(LEFT)// Si oprime Izquier|da 
06C84:  BSF    F96.1
06C86:  BTFSC  F84.1
06C88:  BRA    6CAA
....................       {  
....................          delay_ms(30);Menu=1;glcd_fillScreen(OFF);visual=1; 
06C8A:  MOVLW  1E
06C8C:  MOVLB  7
06C8E:  MOVWF  x57
06C90:  MOVLB  0
06C92:  CALL   16B6
06C96:  MOVLW  01
06C98:  MOVLB  6
06C9A:  MOVWF  xFC
06C9C:  MOVLB  7
06C9E:  CLRF   x52
06CA0:  MOVLB  0
06CA2:  CALL   1B9A
06CA6:  MOVLB  4
06CA8:  BSF    x84.6
....................       }             
....................  
....................       if(RIGHT)// Si oprime derecha 
06CAA:  BSF    F96.0
06CAC:  BTFSC  F84.0
06CAE:  BRA    6CF4
....................       { 
....................          Testerilizacionp[0]=0;Testerilizacionp[1]=0;Testerilizacionp[2]=5;Testerilizacionp[3]=1; 
06CB0:  CLRF   x8F
06CB2:  CLRF   x90
06CB4:  MOVLW  05
06CB6:  MOVWF  x91
06CB8:  MOVLW  01
06CBA:  MOVWF  x92
....................          desfoguelento=1;visual=1; 
06CBC:  BSF    x84.7
06CBE:  BSF    x84.6
....................          Tsecadop[0]=0;Tsecadop[1]=0;Tsecadop[2]=0;Tsecadop[3]=0; 
06CC0:  CLRF   x97
06CC2:  CLRF   x98
06CC4:  CLRF   x99
06CC6:  CLRF   x9A
....................          Setpoint=121;Menu=14;delay_ms(700);glcd_fillScreen(OFF); 
06CC8:  MOVLW  79
06CCA:  MOVLB  7
06CCC:  MOVWF  x02
06CCE:  MOVLW  0E
06CD0:  MOVLB  6
06CD2:  MOVWF  xFC
06CD4:  MOVLW  04
06CD6:  MOVLB  7
06CD8:  MOVWF  x51
06CDA:  MOVLW  AF
06CDC:  MOVWF  x57
06CDE:  MOVLB  0
06CE0:  CALL   16B6
06CE4:  MOVLB  7
06CE6:  DECFSZ x51,F
06CE8:  BRA    6CDA
06CEA:  CLRF   x52
06CEC:  MOVLB  0
06CEE:  CALL   1B9A
06CF2:  MOVLB  4
06CF4:  MOVLB  6
....................       } 
....................      
....................     }     
.................... //_--------------------------------------------------------------------------------------------------------------------------------------------------------     
....................  
....................  //_-------------------------------------------------------------------------------------------------------------------------------------------------------- 
....................       if(Menu==7){ // Menu de textil e instrumental      
06CF6:  MOVF   xFC,W
06CF8:  SUBLW  07
06CFA:  BTFSS  FD8.2
06CFC:  BRA    6EC6
....................        
....................       if(visual==1) 
06CFE:  MOVLB  4
06D00:  BTFSS  x84.6
06D02:  BRA    6E56
....................       { 
....................          glcd_imagen(1); //Tijeras y Camisa 
06D04:  MOVLW  01
06D06:  MOVLB  7
06D08:  MOVWF  x51
06D0A:  MOVLB  0
06D0C:  CALL   3674
....................          strcpy(Menus.Letra,"Tex & Ins"); 
06D10:  MOVLW  04
06D12:  MOVWF  FEA
06D14:  MOVLW  18
06D16:  MOVWF  FE9
06D18:  MOVFF  FF2,751
06D1C:  BCF    FF2.7
06D1E:  MOVLW  00
06D20:  CALL   0B82
06D24:  TBLRD*-
06D26:  TBLRD*+
06D28:  MOVF   FF5,W
06D2A:  MOVWF  FEE
06D2C:  IORLW  00
06D2E:  BNZ   6D26
06D30:  MOVLB  7
06D32:  BTFSC  x51.7
06D34:  BSF    FF2.7
....................          displayMenu(Menus.Letra,0,0,1,2); 
06D36:  MOVLW  04
06D38:  MOVWF  x52
06D3A:  MOVLW  18
06D3C:  MOVWF  x51
06D3E:  CLRF   x53
06D40:  CLRF   x54
06D42:  MOVLW  01
06D44:  MOVWF  x55
06D46:  MOVLW  02
06D48:  MOVWF  x56
06D4A:  MOVLB  0
06D4C:  CALL   21C8
....................        
....................          strcpy(Menus.Letra,"Textil e Instrumental"); 
06D50:  MOVLW  04
06D52:  MOVWF  FEA
06D54:  MOVLW  18
06D56:  MOVWF  FE9
06D58:  MOVFF  FF2,751
06D5C:  BCF    FF2.7
06D5E:  MOVLW  00
06D60:  CALL   0982
06D64:  TBLRD*-
06D66:  TBLRD*+
06D68:  MOVF   FF5,W
06D6A:  MOVWF  FEE
06D6C:  IORLW  00
06D6E:  BNZ   6D66
06D70:  MOVLB  7
06D72:  BTFSC  x51.7
06D74:  BSF    FF2.7
....................          displayMenu(Menus.Letra,0,55,2,1); 
06D76:  MOVLW  04
06D78:  MOVWF  x52
06D7A:  MOVLW  18
06D7C:  MOVWF  x51
06D7E:  CLRF   x53
06D80:  MOVLW  37
06D82:  MOVWF  x54
06D84:  MOVLW  02
06D86:  MOVWF  x55
06D88:  MOVLW  01
06D8A:  MOVWF  x56
06D8C:  MOVLB  0
06D8E:  CALL   21C8
....................           
....................          strcpy(Menus.Letra,"Temperatura:121 C"); 
06D92:  MOVLW  04
06D94:  MOVWF  FEA
06D96:  MOVLW  18
06D98:  MOVWF  FE9
06D9A:  MOVFF  FF2,751
06D9E:  BCF    FF2.7
06DA0:  MOVLW  00
06DA2:  CALL   0A64
06DA6:  TBLRD*-
06DA8:  TBLRD*+
06DAA:  MOVF   FF5,W
06DAC:  MOVWF  FEE
06DAE:  IORLW  00
06DB0:  BNZ   6DA8
06DB2:  MOVLB  7
06DB4:  BTFSC  x51.7
06DB6:  BSF    FF2.7
....................          displayMenu(Menus.Letra,0,26,0,1); 
06DB8:  MOVLW  04
06DBA:  MOVWF  x52
06DBC:  MOVLW  18
06DBE:  MOVWF  x51
06DC0:  CLRF   x53
06DC2:  MOVLW  1A
06DC4:  MOVWF  x54
06DC6:  CLRF   x55
06DC8:  MOVLW  01
06DCA:  MOVWF  x56
06DCC:  MOVLB  0
06DCE:  CALL   21C8
....................          strcpy(Menus.Letra,"T. Esterilizacion:25m"); 
06DD2:  MOVLW  04
06DD4:  MOVWF  FEA
06DD6:  MOVLW  18
06DD8:  MOVWF  FE9
06DDA:  MOVFF  FF2,751
06DDE:  BCF    FF2.7
06DE0:  MOVLW  00
06DE2:  CALL   0BAA
06DE6:  TBLRD*-
06DE8:  TBLRD*+
06DEA:  MOVF   FF5,W
06DEC:  MOVWF  FEE
06DEE:  IORLW  00
06DF0:  BNZ   6DE8
06DF2:  MOVLB  7
06DF4:  BTFSC  x51.7
06DF6:  BSF    FF2.7
....................          displayMenu(Menus.Letra,0,36,0,1); 
06DF8:  MOVLW  04
06DFA:  MOVWF  x52
06DFC:  MOVLW  18
06DFE:  MOVWF  x51
06E00:  CLRF   x53
06E02:  MOVLW  24
06E04:  MOVWF  x54
06E06:  CLRF   x55
06E08:  MOVLW  01
06E0A:  MOVWF  x56
06E0C:  MOVLB  0
06E0E:  CALL   21C8
....................          strcpy(Menus.Letra,"T. Secado= 10m"); 
06E12:  MOVLW  04
06E14:  MOVWF  FEA
06E16:  MOVLW  18
06E18:  MOVWF  FE9
06E1A:  MOVFF  FF2,751
06E1E:  BCF    FF2.7
06E20:  MOVLW  00
06E22:  CALL   0BDE
06E26:  TBLRD*-
06E28:  TBLRD*+
06E2A:  MOVF   FF5,W
06E2C:  MOVWF  FEE
06E2E:  IORLW  00
06E30:  BNZ   6E28
06E32:  MOVLB  7
06E34:  BTFSC  x51.7
06E36:  BSF    FF2.7
....................          displayMenu(Menus.Letra,0,46,0,1);            
06E38:  MOVLW  04
06E3A:  MOVWF  x52
06E3C:  MOVLW  18
06E3E:  MOVWF  x51
06E40:  CLRF   x53
06E42:  MOVLW  2E
06E44:  MOVWF  x54
06E46:  CLRF   x55
06E48:  MOVLW  01
06E4A:  MOVWF  x56
06E4C:  MOVLB  0
06E4E:  CALL   21C8
....................          visual=0; 
06E52:  MOVLB  4
06E54:  BCF    x84.6
....................       } 
....................  
....................       if(LEFT)// Si oprime Izquier|da 
06E56:  BSF    F96.1
06E58:  BTFSC  F84.1
06E5A:  BRA    6E7C
....................       {  
....................          delay_ms(30);Menu=1;glcd_fillScreen(OFF);visual=1; 
06E5C:  MOVLW  1E
06E5E:  MOVLB  7
06E60:  MOVWF  x57
06E62:  MOVLB  0
06E64:  CALL   16B6
06E68:  MOVLW  01
06E6A:  MOVLB  6
06E6C:  MOVWF  xFC
06E6E:  MOVLB  7
06E70:  CLRF   x52
06E72:  MOVLB  0
06E74:  CALL   1B9A
06E78:  MOVLB  4
06E7A:  BSF    x84.6
....................       }                  
....................  
....................       if(RIGHT)// Si oprime derecha 
06E7C:  BSF    F96.0
06E7E:  BTFSC  F84.0
06E80:  BRA    6EC4
....................       { 
....................          Testerilizacionp[0]=0;Testerilizacionp[1]=0;Testerilizacionp[2]=5;Testerilizacionp[3]=2; 
06E82:  CLRF   x8F
06E84:  CLRF   x90
06E86:  MOVLW  05
06E88:  MOVWF  x91
06E8A:  MOVLW  02
06E8C:  MOVWF  x92
....................          visual=1; 
06E8E:  BSF    x84.6
....................          Tsecadop[0]=0;Tsecadop[1]=0;Tsecadop[2]=0;Tsecadop[3]=1; 
06E90:  CLRF   x97
06E92:  CLRF   x98
06E94:  CLRF   x99
06E96:  MOVLW  01
06E98:  MOVWF  x9A
....................          Setpoint=121; 
06E9A:  MOVLW  79
06E9C:  MOVLB  7
06E9E:  MOVWF  x02
....................          Menu=20; 
06EA0:  MOVLW  14
06EA2:  MOVLB  6
06EA4:  MOVWF  xFC
....................          tiempo_secado=0; 
06EA6:  MOVLB  7
06EA8:  CLRF   x07
....................          glcd_fillScreen(OFF); 
06EAA:  CLRF   x52
06EAC:  MOVLB  0
06EAE:  CALL   1B9A
....................          CuadroCalentando(ON); 
06EB2:  MOVLW  01
06EB4:  MOVLB  7
06EB6:  MOVWF  x51
06EB8:  MOVLB  0
06EBA:  CALL   3730
....................          desfoguelento=0; 
06EBE:  MOVLB  4
06EC0:  BCF    x84.7
....................          IniciaCiclo=ON; 
06EC2:  BSF    x83.0
06EC4:  MOVLB  6
....................       } 
....................      
....................     }     
.................... //_--------------------------------------------------------------------------------------------------------------------------------------------------------     
....................  
.................... //_--------------------------------------------------------------------------------------------------------------------------------------------------------       
....................       if(Menu==8){ // Menu de Proceso Personalizado 
06EC6:  MOVF   xFC,W
06EC8:  SUBLW  08
06ECA:  BTFSS  FD8.2
06ECC:  BRA    72B4
....................          
....................          if(visual==1) 
06ECE:  MOVLB  4
06ED0:  BTFSS  x84.6
06ED2:  BRA    71FA
....................          { 
....................             if(Opcion>5) 
06ED4:  MOVLB  7
06ED6:  MOVF   x05,W
06ED8:  SUBLW  05
06EDA:  BC    6EE0
....................             {Opcion=1;} 
06EDC:  MOVLW  01
06EDE:  MOVWF  x05
....................             if(Opcion<1) 
06EE0:  MOVF   x05,F
06EE2:  BNZ   6EE8
....................             {Opcion=5;} 
06EE4:  MOVLW  05
06EE6:  MOVWF  x05
....................              
....................             strcpy(Menus.Letra,"Proceso Personalizado"); 
06EE8:  MOVLW  04
06EEA:  MOVWF  FEA
06EEC:  MOVLW  18
06EEE:  MOVWF  FE9
06EF0:  MOVFF  FF2,751
06EF4:  BCF    FF2.7
06EF6:  MOVLW  00
06EF8:  MOVLB  0
06EFA:  CALL   0C0C
06EFE:  TBLRD*-
06F00:  TBLRD*+
06F02:  MOVF   FF5,W
06F04:  MOVWF  FEE
06F06:  IORLW  00
06F08:  BNZ   6F00
06F0A:  MOVLB  7
06F0C:  BTFSC  x51.7
06F0E:  BSF    FF2.7
....................             displayMenu(Menus.Letra,0,0,1,1); 
06F10:  MOVLW  04
06F12:  MOVWF  x52
06F14:  MOVLW  18
06F16:  MOVWF  x51
06F18:  CLRF   x53
06F1A:  CLRF   x54
06F1C:  MOVLW  01
06F1E:  MOVWF  x55
06F20:  MOVWF  x56
06F22:  MOVLB  0
06F24:  CALL   21C8
....................        
....................             if(Opcion==1)    
06F28:  MOVLB  7
06F2A:  DECFSZ x05,W
06F2C:  BRA    6F74
....................                {strcpy(Menus.Letra,"T. Esterilizacion"); 
06F2E:  MOVLW  04
06F30:  MOVWF  FEA
06F32:  MOVLW  18
06F34:  MOVWF  FE9
06F36:  MOVFF  FF2,751
06F3A:  BCF    FF2.7
06F3C:  MOVLW  00
06F3E:  MOVLB  0
06F40:  CALL   0C40
06F44:  TBLRD*-
06F46:  TBLRD*+
06F48:  MOVF   FF5,W
06F4A:  MOVWF  FEE
06F4C:  IORLW  00
06F4E:  BNZ   6F46
06F50:  MOVLB  7
06F52:  BTFSC  x51.7
06F54:  BSF    FF2.7
....................                displayMenu(Menus.Letra,0,10,1,1);} 
06F56:  MOVLW  04
06F58:  MOVWF  x52
06F5A:  MOVLW  18
06F5C:  MOVWF  x51
06F5E:  CLRF   x53
06F60:  MOVLW  0A
06F62:  MOVWF  x54
06F64:  MOVLW  01
06F66:  MOVWF  x55
06F68:  MOVWF  x56
06F6A:  MOVLB  0
06F6C:  CALL   21C8
....................             else 
06F70:  BRA    6FB6
06F72:  MOVLB  7
....................                {strcpy(Menus.Letra,"T. Esterilizacion"); 
06F74:  MOVLW  04
06F76:  MOVWF  FEA
06F78:  MOVLW  18
06F7A:  MOVWF  FE9
06F7C:  MOVFF  FF2,751
06F80:  BCF    FF2.7
06F82:  MOVLW  00
06F84:  MOVLB  0
06F86:  CALL   0C40
06F8A:  TBLRD*-
06F8C:  TBLRD*+
06F8E:  MOVF   FF5,W
06F90:  MOVWF  FEE
06F92:  IORLW  00
06F94:  BNZ   6F8C
06F96:  MOVLB  7
06F98:  BTFSC  x51.7
06F9A:  BSF    FF2.7
....................                displayMenu(Menus.Letra,0,10,0,1);} 
06F9C:  MOVLW  04
06F9E:  MOVWF  x52
06FA0:  MOVLW  18
06FA2:  MOVWF  x51
06FA4:  CLRF   x53
06FA6:  MOVLW  0A
06FA8:  MOVWF  x54
06FAA:  CLRF   x55
06FAC:  MOVLW  01
06FAE:  MOVWF  x56
06FB0:  MOVLB  0
06FB2:  CALL   21C8
....................              
....................             if(Opcion==2)    
06FB6:  MOVLB  7
06FB8:  MOVF   x05,W
06FBA:  SUBLW  02
06FBC:  BNZ   7004
....................                {strcpy(Menus.Letra,"T. Secado"); 
06FBE:  MOVLW  04
06FC0:  MOVWF  FEA
06FC2:  MOVLW  18
06FC4:  MOVWF  FE9
06FC6:  MOVFF  FF2,751
06FCA:  BCF    FF2.7
06FCC:  MOVLW  00
06FCE:  MOVLB  0
06FD0:  CALL   0C70
06FD4:  TBLRD*-
06FD6:  TBLRD*+
06FD8:  MOVF   FF5,W
06FDA:  MOVWF  FEE
06FDC:  IORLW  00
06FDE:  BNZ   6FD6
06FE0:  MOVLB  7
06FE2:  BTFSC  x51.7
06FE4:  BSF    FF2.7
....................                displayMenu(Menus.Letra,0,20,1,1);} 
06FE6:  MOVLW  04
06FE8:  MOVWF  x52
06FEA:  MOVLW  18
06FEC:  MOVWF  x51
06FEE:  CLRF   x53
06FF0:  MOVLW  14
06FF2:  MOVWF  x54
06FF4:  MOVLW  01
06FF6:  MOVWF  x55
06FF8:  MOVWF  x56
06FFA:  MOVLB  0
06FFC:  CALL   21C8
....................             else 
07000:  BRA    7046
07002:  MOVLB  7
....................                {strcpy(Menus.Letra,"T. Secado"); 
07004:  MOVLW  04
07006:  MOVWF  FEA
07008:  MOVLW  18
0700A:  MOVWF  FE9
0700C:  MOVFF  FF2,751
07010:  BCF    FF2.7
07012:  MOVLW  00
07014:  MOVLB  0
07016:  CALL   0C70
0701A:  TBLRD*-
0701C:  TBLRD*+
0701E:  MOVF   FF5,W
07020:  MOVWF  FEE
07022:  IORLW  00
07024:  BNZ   701C
07026:  MOVLB  7
07028:  BTFSC  x51.7
0702A:  BSF    FF2.7
....................                displayMenu(Menus.Letra,0,20,0,1);}    
0702C:  MOVLW  04
0702E:  MOVWF  x52
07030:  MOVLW  18
07032:  MOVWF  x51
07034:  CLRF   x53
07036:  MOVLW  14
07038:  MOVWF  x54
0703A:  CLRF   x55
0703C:  MOVLW  01
0703E:  MOVWF  x56
07040:  MOVLB  0
07042:  CALL   21C8
....................                 
....................              if(Opcion==3)    
07046:  MOVLB  7
07048:  MOVF   x05,W
0704A:  SUBLW  03
0704C:  BNZ   7094
....................                {strcpy(Menus.Letra,"Temperatura"); 
0704E:  MOVLW  04
07050:  MOVWF  FEA
07052:  MOVLW  18
07054:  MOVWF  FE9
07056:  MOVFF  FF2,751
0705A:  BCF    FF2.7
0705C:  MOVLW  00
0705E:  MOVLB  0
07060:  CALL   0C98
07064:  TBLRD*-
07066:  TBLRD*+
07068:  MOVF   FF5,W
0706A:  MOVWF  FEE
0706C:  IORLW  00
0706E:  BNZ   7066
07070:  MOVLB  7
07072:  BTFSC  x51.7
07074:  BSF    FF2.7
....................                displayMenu(Menus.Letra,0,30,1,1);} 
07076:  MOVLW  04
07078:  MOVWF  x52
0707A:  MOVLW  18
0707C:  MOVWF  x51
0707E:  CLRF   x53
07080:  MOVLW  1E
07082:  MOVWF  x54
07084:  MOVLW  01
07086:  MOVWF  x55
07088:  MOVWF  x56
0708A:  MOVLB  0
0708C:  CALL   21C8
....................             else 
07090:  BRA    70D6
07092:  MOVLB  7
....................                {strcpy(Menus.Letra,"Temperatura"); 
07094:  MOVLW  04
07096:  MOVWF  FEA
07098:  MOVLW  18
0709A:  MOVWF  FE9
0709C:  MOVFF  FF2,751
070A0:  BCF    FF2.7
070A2:  MOVLW  00
070A4:  MOVLB  0
070A6:  CALL   0C98
070AA:  TBLRD*-
070AC:  TBLRD*+
070AE:  MOVF   FF5,W
070B0:  MOVWF  FEE
070B2:  IORLW  00
070B4:  BNZ   70AC
070B6:  MOVLB  7
070B8:  BTFSC  x51.7
070BA:  BSF    FF2.7
....................                displayMenu(Menus.Letra,0,30,0,1);} 
070BC:  MOVLW  04
070BE:  MOVWF  x52
070C0:  MOVLW  18
070C2:  MOVWF  x51
070C4:  CLRF   x53
070C6:  MOVLW  1E
070C8:  MOVWF  x54
070CA:  CLRF   x55
070CC:  MOVLW  01
070CE:  MOVWF  x56
070D0:  MOVLB  0
070D2:  CALL   21C8
....................                 
....................             if(Opcion==4)    
070D6:  MOVLB  7
070D8:  MOVF   x05,W
070DA:  SUBLW  04
070DC:  BNZ   7124
....................                {strcpy(Menus.Letra,"Nivel de desfogue"); 
070DE:  MOVLW  04
070E0:  MOVWF  FEA
070E2:  MOVLW  18
070E4:  MOVWF  FE9
070E6:  MOVFF  FF2,751
070EA:  BCF    FF2.7
070EC:  MOVLW  00
070EE:  MOVLB  0
070F0:  CALL   0CC2
070F4:  TBLRD*-
070F6:  TBLRD*+
070F8:  MOVF   FF5,W
070FA:  MOVWF  FEE
070FC:  IORLW  00
070FE:  BNZ   70F6
07100:  MOVLB  7
07102:  BTFSC  x51.7
07104:  BSF    FF2.7
....................                displayMenu(Menus.Letra,0,40,1,1);} 
07106:  MOVLW  04
07108:  MOVWF  x52
0710A:  MOVLW  18
0710C:  MOVWF  x51
0710E:  CLRF   x53
07110:  MOVLW  28
07112:  MOVWF  x54
07114:  MOVLW  01
07116:  MOVWF  x55
07118:  MOVWF  x56
0711A:  MOVLB  0
0711C:  CALL   21C8
....................             else 
07120:  BRA    7166
07122:  MOVLB  7
....................                {strcpy(Menus.Letra,"Nivel de desfogue"); 
07124:  MOVLW  04
07126:  MOVWF  FEA
07128:  MOVLW  18
0712A:  MOVWF  FE9
0712C:  MOVFF  FF2,751
07130:  BCF    FF2.7
07132:  MOVLW  00
07134:  MOVLB  0
07136:  CALL   0CC2
0713A:  TBLRD*-
0713C:  TBLRD*+
0713E:  MOVF   FF5,W
07140:  MOVWF  FEE
07142:  IORLW  00
07144:  BNZ   713C
07146:  MOVLB  7
07148:  BTFSC  x51.7
0714A:  BSF    FF2.7
....................                displayMenu(Menus.Letra,0,40,0,1);}    
0714C:  MOVLW  04
0714E:  MOVWF  x52
07150:  MOVLW  18
07152:  MOVWF  x51
07154:  CLRF   x53
07156:  MOVLW  28
07158:  MOVWF  x54
0715A:  CLRF   x55
0715C:  MOVLW  01
0715E:  MOVWF  x56
07160:  MOVLB  0
07162:  CALL   21C8
....................                 
....................             if(Opcion==5)    
07166:  MOVLB  7
07168:  MOVF   x05,W
0716A:  SUBLW  05
0716C:  BNZ   71B4
....................                {strcpy(Menus.Letra,"Continuar"); 
0716E:  MOVLW  04
07170:  MOVWF  FEA
07172:  MOVLW  18
07174:  MOVWF  FE9
07176:  MOVFF  FF2,751
0717A:  BCF    FF2.7
0717C:  MOVLW  00
0717E:  MOVLB  0
07180:  CALL   0CF2
07184:  TBLRD*-
07186:  TBLRD*+
07188:  MOVF   FF5,W
0718A:  MOVWF  FEE
0718C:  IORLW  00
0718E:  BNZ   7186
07190:  MOVLB  7
07192:  BTFSC  x51.7
07194:  BSF    FF2.7
....................                displayMenu(Menus.Letra,0,50,1,1);} 
07196:  MOVLW  04
07198:  MOVWF  x52
0719A:  MOVLW  18
0719C:  MOVWF  x51
0719E:  CLRF   x53
071A0:  MOVLW  32
071A2:  MOVWF  x54
071A4:  MOVLW  01
071A6:  MOVWF  x55
071A8:  MOVWF  x56
071AA:  MOVLB  0
071AC:  CALL   21C8
....................             else 
071B0:  BRA    71F6
071B2:  MOVLB  7
....................                {strcpy(Menus.Letra,"Continuar"); 
071B4:  MOVLW  04
071B6:  MOVWF  FEA
071B8:  MOVLW  18
071BA:  MOVWF  FE9
071BC:  MOVFF  FF2,751
071C0:  BCF    FF2.7
071C2:  MOVLW  00
071C4:  MOVLB  0
071C6:  CALL   0CF2
071CA:  TBLRD*-
071CC:  TBLRD*+
071CE:  MOVF   FF5,W
071D0:  MOVWF  FEE
071D2:  IORLW  00
071D4:  BNZ   71CC
071D6:  MOVLB  7
071D8:  BTFSC  x51.7
071DA:  BSF    FF2.7
....................                displayMenu(Menus.Letra,0,50,0,1);}   
071DC:  MOVLW  04
071DE:  MOVWF  x52
071E0:  MOVLW  18
071E2:  MOVWF  x51
071E4:  CLRF   x53
071E6:  MOVLW  32
071E8:  MOVWF  x54
071EA:  CLRF   x55
071EC:  MOVLW  01
071EE:  MOVWF  x56
071F0:  MOVLB  0
071F2:  CALL   21C8
....................                           
....................             visual=0; 
071F6:  MOVLB  4
071F8:  BCF    x84.6
....................          } 
....................          if(UP)//Si oprime hacia arriba 
071FA:  BSF    F92.4
071FC:  BTFSC  F80.4
071FE:  BRA    721C
....................          {  if(Flanco == 0)  
07200:  BTFSC  x84.3
07202:  BRA    721A
....................                {Flanco = 1;delay_ms(30);Opcion--;visual=1; 
07204:  BSF    x84.3
07206:  MOVLW  1E
07208:  MOVLB  7
0720A:  MOVWF  x57
0720C:  MOVLB  0
0720E:  CALL   16B6
07212:  MOVLB  7
07214:  DECF   x05,F
07216:  MOVLB  4
07218:  BSF    x84.6
....................                } 
....................          } 
....................             else 
0721A:  BRA    721E
....................                {Flanco = 0;} 
0721C:  BCF    x84.3
....................                    
....................          if(DOWN)//Si oprime hacia abajo 
0721E:  BSF    F92.5
07220:  BTFSC  F80.5
07222:  BRA    7240
....................          {  if(Flanco2 == 0)  
07224:  BTFSC  x84.5
07226:  BRA    723E
....................                {Flanco2 = 1;delay_ms(30);Opcion++;visual=1; 
07228:  BSF    x84.5
0722A:  MOVLW  1E
0722C:  MOVLB  7
0722E:  MOVWF  x57
07230:  MOVLB  0
07232:  CALL   16B6
07236:  MOVLB  7
07238:  INCF   x05,F
0723A:  MOVLB  4
0723C:  BSF    x84.6
....................                }      
....................          } 
....................             else 
0723E:  BRA    7242
....................                {Flanco2 = 0;}   
07240:  BCF    x84.5
....................                 
....................          if(RIGHT)//Si oprime SET 
07242:  BSF    F96.0
07244:  BTFSC  F84.0
07246:  BRA    7280
....................          {  if(Flanco1 == 0)  
07248:  BTFSC  x84.4
0724A:  BRA    727E
....................                {Flanco1 = 1;delay_ms(300);Menu=Opcion+10;Opcion=1;glcd_fillscreen(OFF);visual=1; 
0724C:  BSF    x84.4
0724E:  MOVLW  02
07250:  MOVLB  7
07252:  MOVWF  x51
07254:  MOVLW  96
07256:  MOVWF  x57
07258:  MOVLB  0
0725A:  CALL   16B6
0725E:  MOVLB  7
07260:  DECFSZ x51,F
07262:  BRA    7254
07264:  MOVLW  0A
07266:  ADDWF  x05,W
07268:  MOVLB  6
0726A:  MOVWF  xFC
0726C:  MOVLW  01
0726E:  MOVLB  7
07270:  MOVWF  x05
07272:  CLRF   x52
07274:  MOVLB  0
07276:  CALL   1B9A
0727A:  MOVLB  4
0727C:  BSF    x84.6
....................                } 
....................          } 
....................             else 
0727E:  BRA    7282
....................                {Flanco1 = 0;}   
07280:  BCF    x84.4
....................                 
....................          if(LEFT)//Si oprime boton de Toma. 
07282:  BSF    F96.1
07284:  BTFSC  F84.1
07286:  BRA    72B2
....................          {delay_ms(700);Menu=1;glcd_fillscreen(OFF);visual=1;} 
07288:  MOVLW  04
0728A:  MOVLB  7
0728C:  MOVWF  x51
0728E:  MOVLW  AF
07290:  MOVWF  x57
07292:  MOVLB  0
07294:  CALL   16B6
07298:  MOVLB  7
0729A:  DECFSZ x51,F
0729C:  BRA    728E
0729E:  MOVLW  01
072A0:  MOVLB  6
072A2:  MOVWF  xFC
072A4:  MOVLB  7
072A6:  CLRF   x52
072A8:  MOVLB  0
072AA:  CALL   1B9A
072AE:  MOVLB  4
072B0:  BSF    x84.6
072B2:  MOVLB  6
....................           
....................     }     
.................... //_--------------------------------------------------------------------------------------------------------------------------------------------------------     
....................  
.................... //_--------------------------------------------------------------------------------------------------------------------------------------------------------       
....................       if(Menu==9){ // Menu de Cambio de Contrasea 
072B4:  MOVF   xFC,W
072B6:  SUBLW  09
072B8:  BTFSS  FD8.2
072BA:  BRA    777E
....................          
....................       strcpy(Menus.Letra,"Clave"); 
072BC:  MOVLW  04
072BE:  MOVWF  FEA
072C0:  MOVLW  18
072C2:  MOVWF  FE9
072C4:  MOVFF  FF2,751
072C8:  BCF    FF2.7
072CA:  MOVLW  00
072CC:  MOVLB  0
072CE:  CALL   085E
072D2:  TBLRD*-
072D4:  TBLRD*+
072D6:  MOVF   FF5,W
072D8:  MOVWF  FEE
072DA:  IORLW  00
072DC:  BNZ   72D4
072DE:  MOVLB  7
072E0:  BTFSC  x51.7
072E2:  BSF    FF2.7
....................       displayMenu(Menus.Letra,30,0,1,2);      
072E4:  MOVLW  04
072E6:  MOVWF  x52
072E8:  MOVLW  18
072EA:  MOVWF  x51
072EC:  MOVLW  1E
072EE:  MOVWF  x53
072F0:  CLRF   x54
072F2:  MOVLW  01
072F4:  MOVWF  x55
072F6:  MOVLW  02
072F8:  MOVWF  x56
072FA:  MOVLB  0
072FC:  CALL   21C8
....................        
....................       if(unidad==1) 
07300:  MOVLB  6
07302:  DECFSZ xFD,W
07304:  BRA    7364
....................       { 
....................          displayContrasena(Contrasena[0],20,30,1); 
07306:  MOVFF  71F,753
0730A:  MOVLW  14
0730C:  MOVLB  7
0730E:  MOVWF  x54
07310:  MOVLW  1E
07312:  MOVWF  x55
07314:  MOVLW  01
07316:  MOVWF  x56
07318:  MOVLB  0
0731A:  CALL   23F0
....................          displayContrasena(Contrasena[1],40,30,0); 
0731E:  MOVFF  720,753
07322:  MOVLW  28
07324:  MOVLB  7
07326:  MOVWF  x54
07328:  MOVLW  1E
0732A:  MOVWF  x55
0732C:  CLRF   x56
0732E:  MOVLB  0
07330:  CALL   23F0
....................          displayContrasena(Contrasena[2],60,30,0); 
07334:  MOVFF  721,753
07338:  MOVLW  3C
0733A:  MOVLB  7
0733C:  MOVWF  x54
0733E:  MOVLW  1E
07340:  MOVWF  x55
07342:  CLRF   x56
07344:  MOVLB  0
07346:  CALL   23F0
....................          displayContrasena(Contrasena[3],80,30,0); 
0734A:  MOVFF  722,753
0734E:  MOVLW  50
07350:  MOVLB  7
07352:  MOVWF  x54
07354:  MOVLW  1E
07356:  MOVWF  x55
07358:  CLRF   x56
0735A:  MOVLB  0
0735C:  CALL   23F0
....................       } 
....................       else 
07360:  BRA    748C
07362:  MOVLB  6
....................       { 
....................          if(unidad==2) 
07364:  MOVF   xFD,W
07366:  SUBLW  02
07368:  BNZ   73C8
....................          { 
....................             displayContrasena(Contrasena[0],20,30,0); 
0736A:  MOVFF  71F,753
0736E:  MOVLW  14
07370:  MOVLB  7
07372:  MOVWF  x54
07374:  MOVLW  1E
07376:  MOVWF  x55
07378:  CLRF   x56
0737A:  MOVLB  0
0737C:  CALL   23F0
....................             displayContrasena(Contrasena[1],40,30,1); 
07380:  MOVFF  720,753
07384:  MOVLW  28
07386:  MOVLB  7
07388:  MOVWF  x54
0738A:  MOVLW  1E
0738C:  MOVWF  x55
0738E:  MOVLW  01
07390:  MOVWF  x56
07392:  MOVLB  0
07394:  CALL   23F0
....................             displayContrasena(Contrasena[2],60,30,0); 
07398:  MOVFF  721,753
0739C:  MOVLW  3C
0739E:  MOVLB  7
073A0:  MOVWF  x54
073A2:  MOVLW  1E
073A4:  MOVWF  x55
073A6:  CLRF   x56
073A8:  MOVLB  0
073AA:  CALL   23F0
....................             displayContrasena(Contrasena[3],80,30,0); 
073AE:  MOVFF  722,753
073B2:  MOVLW  50
073B4:  MOVLB  7
073B6:  MOVWF  x54
073B8:  MOVLW  1E
073BA:  MOVWF  x55
073BC:  CLRF   x56
073BE:  MOVLB  0
073C0:  CALL   23F0
....................          } 
....................          else 
073C4:  BRA    748C
073C6:  MOVLB  6
....................          { 
....................             if(unidad==3) 
073C8:  MOVF   xFD,W
073CA:  SUBLW  03
073CC:  BNZ   742C
....................             { 
....................                displayContrasena(Contrasena[0],20,30,0); 
073CE:  MOVFF  71F,753
073D2:  MOVLW  14
073D4:  MOVLB  7
073D6:  MOVWF  x54
073D8:  MOVLW  1E
073DA:  MOVWF  x55
073DC:  CLRF   x56
073DE:  MOVLB  0
073E0:  CALL   23F0
....................                displayContrasena(Contrasena[1],40,30,0); 
073E4:  MOVFF  720,753
073E8:  MOVLW  28
073EA:  MOVLB  7
073EC:  MOVWF  x54
073EE:  MOVLW  1E
073F0:  MOVWF  x55
073F2:  CLRF   x56
073F4:  MOVLB  0
073F6:  CALL   23F0
....................                displayContrasena(Contrasena[2],60,30,1); 
073FA:  MOVFF  721,753
073FE:  MOVLW  3C
07400:  MOVLB  7
07402:  MOVWF  x54
07404:  MOVLW  1E
07406:  MOVWF  x55
07408:  MOVLW  01
0740A:  MOVWF  x56
0740C:  MOVLB  0
0740E:  CALL   23F0
....................                displayContrasena(Contrasena[3],80,30,0); 
07412:  MOVFF  722,753
07416:  MOVLW  50
07418:  MOVLB  7
0741A:  MOVWF  x54
0741C:  MOVLW  1E
0741E:  MOVWF  x55
07420:  CLRF   x56
07422:  MOVLB  0
07424:  CALL   23F0
....................             } 
....................             else 
07428:  BRA    748C
0742A:  MOVLB  6
....................             { 
....................                if(unidad==4) 
0742C:  MOVF   xFD,W
0742E:  SUBLW  04
07430:  BNZ   748E
....................                { 
....................                   displayContrasena(Contrasena[0],20,30,0); 
07432:  MOVFF  71F,753
07436:  MOVLW  14
07438:  MOVLB  7
0743A:  MOVWF  x54
0743C:  MOVLW  1E
0743E:  MOVWF  x55
07440:  CLRF   x56
07442:  MOVLB  0
07444:  CALL   23F0
....................                   displayContrasena(Contrasena[1],40,30,0); 
07448:  MOVFF  720,753
0744C:  MOVLW  28
0744E:  MOVLB  7
07450:  MOVWF  x54
07452:  MOVLW  1E
07454:  MOVWF  x55
07456:  CLRF   x56
07458:  MOVLB  0
0745A:  CALL   23F0
....................                   displayContrasena(Contrasena[2],60,30,0); 
0745E:  MOVFF  721,753
07462:  MOVLW  3C
07464:  MOVLB  7
07466:  MOVWF  x54
07468:  MOVLW  1E
0746A:  MOVWF  x55
0746C:  CLRF   x56
0746E:  MOVLB  0
07470:  CALL   23F0
....................                   displayContrasena(Contrasena[3],80,30,1); 
07474:  MOVFF  722,753
07478:  MOVLW  50
0747A:  MOVLB  7
0747C:  MOVWF  x54
0747E:  MOVLW  1E
07480:  MOVWF  x55
07482:  MOVLW  01
07484:  MOVWF  x56
07486:  MOVLB  0
07488:  CALL   23F0
0748C:  MOVLB  6
....................                } 
....................             } 
....................          } 
....................       } 
....................        
....................       if(UP)//Si oprime hacia arriba 
0748E:  BSF    F92.4
07490:  BTFSC  F80.4
07492:  BRA    7502
....................       { 
....................          if(Flanco == 0) 
07494:  MOVLB  4
07496:  BTFSC  x84.3
07498:  BRA    74FE
....................          { 
....................             Flanco = 1;delay_ms(30); 
0749A:  BSF    x84.3
0749C:  MOVLW  1E
0749E:  MOVLB  7
074A0:  MOVWF  x57
074A2:  MOVLB  0
074A4:  CALL   16B6
....................             for(i=1;i<=4;i++) 
074A8:  MOVLW  01
074AA:  MOVLB  6
074AC:  MOVWF  xFE
074AE:  MOVF   xFE,W
074B0:  SUBLW  04
074B2:  BNC   74FC
....................             { 
....................                if(unidad==i) 
074B4:  MOVF   xFE,W
074B6:  SUBWF  xFD,W
074B8:  BNZ   74F8
....................                { 
....................                   Contrasena[i-1]++; 
074BA:  MOVLW  01
074BC:  SUBWF  xFE,W
074BE:  CLRF   03
074C0:  ADDLW  1F
074C2:  MOVWF  FE9
074C4:  MOVLW  07
074C6:  ADDWFC 03,W
074C8:  MOVWF  FEA
074CA:  INCF   FEF,F
....................                   if(Contrasena[i-1]>9)    
074CC:  MOVLW  01
074CE:  SUBWF  xFE,W
074D0:  CLRF   03
074D2:  ADDLW  1F
074D4:  MOVWF  FE9
074D6:  MOVLW  07
074D8:  ADDWFC 03,W
074DA:  MOVWF  FEA
074DC:  BTFSC  FEF.7
074DE:  BRA    74F8
074E0:  MOVF   FEF,W
074E2:  SUBLW  09
074E4:  BC    74F8
....................                   { 
....................                      Contrasena[i-1]=0; 
074E6:  MOVLW  01
074E8:  SUBWF  xFE,W
074EA:  CLRF   03
074EC:  ADDLW  1F
074EE:  MOVWF  FE9
074F0:  MOVLW  07
074F2:  ADDWFC 03,W
074F4:  MOVWF  FEA
074F6:  CLRF   FEF
....................                   } 
....................                } 
....................             } 
074F8:  INCF   xFE,F
074FA:  BRA    74AE
074FC:  MOVLB  4
....................          } 
....................       } 
....................       else 
074FE:  BRA    7506
07500:  MOVLB  6
....................       { 
....................          Flanco = 0; 
07502:  MOVLB  4
07504:  BCF    x84.3
....................       } 
....................              
....................       if(DOWN)//Si oprime hacia abajo 
07506:  BSF    F92.5
07508:  BTFSC  F80.5
0750A:  BRA    7574
....................       { 
....................          if(Flanco2 == 0) 
0750C:  BTFSC  x84.5
0750E:  BRA    7572
....................             {Flanco2 = 1;delay_ms(30); 
07510:  BSF    x84.5
07512:  MOVLW  1E
07514:  MOVLB  7
07516:  MOVWF  x57
07518:  MOVLB  0
0751A:  CALL   16B6
....................                for(i=1;i<=4;i++) 
0751E:  MOVLW  01
07520:  MOVLB  6
07522:  MOVWF  xFE
07524:  MOVF   xFE,W
07526:  SUBLW  04
07528:  BNC   7570
....................                { 
....................                   if(unidad==i) 
0752A:  MOVF   xFE,W
0752C:  SUBWF  xFD,W
0752E:  BNZ   756C
....................                   {Contrasena[i-1]--;  
07530:  MOVLW  01
07532:  SUBWF  xFE,W
07534:  CLRF   03
07536:  ADDLW  1F
07538:  MOVWF  FE9
0753A:  MOVLW  07
0753C:  ADDWFC 03,W
0753E:  MOVWF  FEA
07540:  DECF   FEF,F
....................                      if(Contrasena[i-1]<0) 
07542:  MOVLW  01
07544:  SUBWF  xFE,W
07546:  CLRF   03
07548:  ADDLW  1F
0754A:  MOVWF  FE9
0754C:  MOVLW  07
0754E:  ADDWFC 03,W
07550:  MOVWF  FEA
07552:  BTFSC  FEF.7
07554:  BRA    7558
07556:  BRA    756C
....................                         {Contrasena[i-1]=9;} 
07558:  MOVLW  01
0755A:  SUBWF  xFE,W
0755C:  CLRF   03
0755E:  ADDLW  1F
07560:  MOVWF  FE9
07562:  MOVLW  07
07564:  ADDWFC 03,W
07566:  MOVWF  FEA
07568:  MOVLW  09
0756A:  MOVWF  FEF
....................                   } 
....................                }       
0756C:  INCF   xFE,F
0756E:  BRA    7524
07570:  MOVLB  4
....................             }      
....................       } 
....................       else 
07572:  BRA    7576
....................       { 
....................          Flanco2 = 0; 
07574:  BCF    x84.5
....................       } 
....................              
....................       if(RIGHT)//Si oprime RIGHT 
07576:  BSF    F96.0
07578:  BTFSC  F84.0
0757A:  BRA    75A0
....................       { 
....................          if(Flanco1 == 0) 
0757C:  BTFSC  x84.4
0757E:  BRA    759E
....................             {Flanco1 = 1;delay_ms(300);unidad++;} 
07580:  BSF    x84.4
07582:  MOVLW  02
07584:  MOVLB  7
07586:  MOVWF  x51
07588:  MOVLW  96
0758A:  MOVWF  x57
0758C:  MOVLB  0
0758E:  CALL   16B6
07592:  MOVLB  7
07594:  DECFSZ x51,F
07596:  BRA    7588
07598:  MOVLB  6
0759A:  INCF   xFD,F
0759C:  MOVLB  4
....................       } 
....................       else 
0759E:  BRA    75A2
....................       { 
....................          Flanco1 = 0; 
075A0:  BCF    x84.4
....................       } 
....................        
....................       if(LEFT)//Si oprime Izquierda 
075A2:  BSF    F96.1
075A4:  BTFSC  F84.1
075A6:  BRA    75CE
....................       { 
....................          delay_ms(700);Menu=1;glcd_fillscreen(OFF); 
075A8:  MOVLW  04
075AA:  MOVLB  7
075AC:  MOVWF  x51
075AE:  MOVLW  AF
075B0:  MOVWF  x57
075B2:  MOVLB  0
075B4:  CALL   16B6
075B8:  MOVLB  7
075BA:  DECFSZ x51,F
075BC:  BRA    75AE
075BE:  MOVLW  01
075C0:  MOVLB  6
075C2:  MOVWF  xFC
075C4:  MOVLB  7
075C6:  CLRF   x52
075C8:  MOVLB  0
075CA:  CALL   1B9A
....................       } 
....................        
....................       if(unidad>4) 
075CE:  MOVLB  6
075D0:  MOVF   xFD,W
075D2:  SUBLW  04
075D4:  BTFSC  FD8.0
075D6:  BRA    777E
....................       {glcd_fillScreen(OFF); 
075D8:  MOVLB  7
075DA:  CLRF   x52
075DC:  MOVLB  0
075DE:  CALL   1B9A
....................           
....................          if((Contrasena[0]==Password[0])&&(Contrasena[1]==Password[1])&&(Contrasena[2]==Password[2])&&(Contrasena[3]==Password[3])) 
075E2:  MOVLB  7
075E4:  MOVF   x23,W
075E6:  SUBWF  x1F,W
075E8:  BNZ   76BA
075EA:  MOVF   x24,W
075EC:  SUBWF  x20,W
075EE:  BNZ   76BA
075F0:  MOVF   x25,W
075F2:  SUBWF  x21,W
075F4:  BNZ   76BA
075F6:  MOVF   x26,W
075F8:  SUBWF  x22,W
075FA:  BNZ   76BA
....................          { 
....................             glcd_fillScreen(OFF); 
075FC:  CLRF   x52
075FE:  MOVLB  0
07600:  CALL   1B9A
....................             strcpy(Menus.Letra,"Clave"); 
07604:  MOVLW  04
07606:  MOVWF  FEA
07608:  MOVLW  18
0760A:  MOVWF  FE9
0760C:  MOVFF  FF2,751
07610:  BCF    FF2.7
07612:  MOVLW  00
07614:  CALL   085E
07618:  TBLRD*-
0761A:  TBLRD*+
0761C:  MOVF   FF5,W
0761E:  MOVWF  FEE
07620:  IORLW  00
07622:  BNZ   761A
07624:  MOVLB  7
07626:  BTFSC  x51.7
07628:  BSF    FF2.7
....................             displayMenu(Menus.Letra,30,0,0,2); 
0762A:  MOVLW  04
0762C:  MOVWF  x52
0762E:  MOVLW  18
07630:  MOVWF  x51
07632:  MOVLW  1E
07634:  MOVWF  x53
07636:  CLRF   x54
07638:  CLRF   x55
0763A:  MOVLW  02
0763C:  MOVWF  x56
0763E:  MOVLB  0
07640:  CALL   21C8
....................             strcpy(Menus.Letra,"Correcta"); 
07644:  MOVLW  04
07646:  MOVWF  FEA
07648:  MOVLW  18
0764A:  MOVWF  FE9
0764C:  MOVFF  FF2,751
07650:  BCF    FF2.7
07652:  MOVLW  00
07654:  CALL   0882
07658:  TBLRD*-
0765A:  TBLRD*+
0765C:  MOVF   FF5,W
0765E:  MOVWF  FEE
07660:  IORLW  00
07662:  BNZ   765A
07664:  MOVLB  7
07666:  BTFSC  x51.7
07668:  BSF    FF2.7
....................             displayMenu(Menus.Letra,15,30,0,2); 
0766A:  MOVLW  04
0766C:  MOVWF  x52
0766E:  MOVLW  18
07670:  MOVWF  x51
07672:  MOVLW  0F
07674:  MOVWF  x53
07676:  MOVLW  1E
07678:  MOVWF  x54
0767A:  CLRF   x55
0767C:  MOVLW  02
0767E:  MOVWF  x56
07680:  MOVLB  0
07682:  CALL   21C8
....................             Menu=91;glcd_update();delay_ms(1000); 
07686:  MOVLW  5B
07688:  MOVLB  6
0768A:  MOVWF  xFC
0768C:  MOVLB  0
0768E:  CALL   1BF4
07692:  MOVLW  04
07694:  MOVLB  7
07696:  MOVWF  x51
07698:  MOVLW  FA
0769A:  MOVWF  x57
0769C:  MOVLB  0
0769E:  CALL   16B6
076A2:  MOVLB  7
076A4:  DECFSZ x51,F
076A6:  BRA    7698
....................             glcd_fillScreen(OFF);unidad=1; 
076A8:  CLRF   x52
076AA:  MOVLB  0
076AC:  CALL   1B9A
076B0:  MOVLW  01
076B2:  MOVLB  6
076B4:  MOVWF  xFD
....................          }// Esta parte se puede agregar en el Menu 1 dependiendo de la ubicacin del vidrio. 
....................          else 
076B6:  BRA    777E
076B8:  MOVLB  7
....................          { 
....................             glcd_fillScreen(OFF); 
076BA:  CLRF   x52
076BC:  MOVLB  0
076BE:  CALL   1B9A
....................             strcpy(Menus.Letra,"Clave"); 
076C2:  MOVLW  04
076C4:  MOVWF  FEA
076C6:  MOVLW  18
076C8:  MOVWF  FE9
076CA:  MOVFF  FF2,751
076CE:  BCF    FF2.7
076D0:  MOVLW  00
076D2:  CALL   085E
076D6:  TBLRD*-
076D8:  TBLRD*+
076DA:  MOVF   FF5,W
076DC:  MOVWF  FEE
076DE:  IORLW  00
076E0:  BNZ   76D8
076E2:  MOVLB  7
076E4:  BTFSC  x51.7
076E6:  BSF    FF2.7
....................             displayMenu(Menus.Letra,30,0,0,2); 
076E8:  MOVLW  04
076EA:  MOVWF  x52
076EC:  MOVLW  18
076EE:  MOVWF  x51
076F0:  MOVLW  1E
076F2:  MOVWF  x53
076F4:  CLRF   x54
076F6:  CLRF   x55
076F8:  MOVLW  02
076FA:  MOVWF  x56
076FC:  MOVLB  0
076FE:  CALL   21C8
....................             strcpy(Menus.Letra,"Incorrecta"); 
07702:  MOVLW  04
07704:  MOVWF  FEA
07706:  MOVLW  18
07708:  MOVWF  FE9
0770A:  MOVFF  FF2,751
0770E:  BCF    FF2.7
07710:  MOVLW  00
07712:  CALL   08AA
07716:  TBLRD*-
07718:  TBLRD*+
0771A:  MOVF   FF5,W
0771C:  MOVWF  FEE
0771E:  IORLW  00
07720:  BNZ   7718
07722:  MOVLB  7
07724:  BTFSC  x51.7
07726:  BSF    FF2.7
....................             displayMenu(Menus.Letra,0,30,0,2); 
07728:  MOVLW  04
0772A:  MOVWF  x52
0772C:  MOVLW  18
0772E:  MOVWF  x51
07730:  CLRF   x53
07732:  MOVLW  1E
07734:  MOVWF  x54
07736:  CLRF   x55
07738:  MOVLW  02
0773A:  MOVWF  x56
0773C:  MOVLB  0
0773E:  CALL   21C8
....................             Menu=1;glcd_update();delay_ms(1000); 
07742:  MOVLW  01
07744:  MOVLB  6
07746:  MOVWF  xFC
07748:  MOVLB  0
0774A:  CALL   1BF4
0774E:  MOVLW  04
07750:  MOVLB  7
07752:  MOVWF  x51
07754:  MOVLW  FA
07756:  MOVWF  x57
07758:  MOVLB  0
0775A:  CALL   16B6
0775E:  MOVLB  7
07760:  DECFSZ x51,F
07762:  BRA    7754
....................             glcd_fillScreen(OFF);unidad=1; 
07764:  CLRF   x52
07766:  MOVLB  0
07768:  CALL   1B9A
0776C:  MOVLW  01
0776E:  MOVLB  6
07770:  MOVWF  xFD
....................             Contrasena[0]=0;Contrasena[1]=0;Contrasena[2]=0;Contrasena[3]=0; 
07772:  MOVLB  7
07774:  CLRF   x1F
07776:  CLRF   x20
07778:  CLRF   x21
0777A:  CLRF   x22
0777C:  MOVLB  6
....................          } 
....................       } 
....................     }     
.................... //_--------------------------------------------------------------------------------------------------------------------------------------------------------     
....................  
.................... //_--------------------------------------------------------------------------------------------------------------------------------------------------------       
....................       if(Menu==91){ // Menu de Cambio de Contrasea 
0777E:  MOVF   xFC,W
07780:  SUBLW  5B
07782:  BTFSS  FD8.2
07784:  BRA    7B76
....................          
....................       strcpy(Menus.Letra,"Clave Nueva"); 
07786:  MOVLW  04
07788:  MOVWF  FEA
0778A:  MOVLW  18
0778C:  MOVWF  FE9
0778E:  MOVFF  FF2,751
07792:  BCF    FF2.7
07794:  MOVLW  00
07796:  MOVLB  0
07798:  CALL   0D1A
0779C:  TBLRD*-
0779E:  TBLRD*+
077A0:  MOVF   FF5,W
077A2:  MOVWF  FEE
077A4:  IORLW  00
077A6:  BNZ   779E
077A8:  MOVLB  7
077AA:  BTFSC  x51.7
077AC:  BSF    FF2.7
....................       displayMenu(Menus.Letra,0,0,1,2);      
077AE:  MOVLW  04
077B0:  MOVWF  x52
077B2:  MOVLW  18
077B4:  MOVWF  x51
077B6:  CLRF   x53
077B8:  CLRF   x54
077BA:  MOVLW  01
077BC:  MOVWF  x55
077BE:  MOVLW  02
077C0:  MOVWF  x56
077C2:  MOVLB  0
077C4:  CALL   21C8
....................        
....................       if(unidad==1) 
077C8:  MOVLB  6
077CA:  DECFSZ xFD,W
077CC:  BRA    782C
....................       { 
....................          displayContrasena(Password[0],20,30,1); 
077CE:  MOVFF  723,753
077D2:  MOVLW  14
077D4:  MOVLB  7
077D6:  MOVWF  x54
077D8:  MOVLW  1E
077DA:  MOVWF  x55
077DC:  MOVLW  01
077DE:  MOVWF  x56
077E0:  MOVLB  0
077E2:  CALL   23F0
....................          displayContrasena(Password[1],40,30,0); 
077E6:  MOVFF  724,753
077EA:  MOVLW  28
077EC:  MOVLB  7
077EE:  MOVWF  x54
077F0:  MOVLW  1E
077F2:  MOVWF  x55
077F4:  CLRF   x56
077F6:  MOVLB  0
077F8:  CALL   23F0
....................          displayContrasena(Password[2],60,30,0); 
077FC:  MOVFF  725,753
07800:  MOVLW  3C
07802:  MOVLB  7
07804:  MOVWF  x54
07806:  MOVLW  1E
07808:  MOVWF  x55
0780A:  CLRF   x56
0780C:  MOVLB  0
0780E:  CALL   23F0
....................          displayContrasena(Password[3],80,30,0); 
07812:  MOVFF  726,753
07816:  MOVLW  50
07818:  MOVLB  7
0781A:  MOVWF  x54
0781C:  MOVLW  1E
0781E:  MOVWF  x55
07820:  CLRF   x56
07822:  MOVLB  0
07824:  CALL   23F0
....................       } 
....................       else 
07828:  BRA    7954
0782A:  MOVLB  6
....................       { 
....................          if(unidad==2) 
0782C:  MOVF   xFD,W
0782E:  SUBLW  02
07830:  BNZ   7890
....................          { 
....................             displayContrasena(Password[0],20,30,0); 
07832:  MOVFF  723,753
07836:  MOVLW  14
07838:  MOVLB  7
0783A:  MOVWF  x54
0783C:  MOVLW  1E
0783E:  MOVWF  x55
07840:  CLRF   x56
07842:  MOVLB  0
07844:  CALL   23F0
....................             displayContrasena(Password[1],40,30,1); 
07848:  MOVFF  724,753
0784C:  MOVLW  28
0784E:  MOVLB  7
07850:  MOVWF  x54
07852:  MOVLW  1E
07854:  MOVWF  x55
07856:  MOVLW  01
07858:  MOVWF  x56
0785A:  MOVLB  0
0785C:  CALL   23F0
....................             displayContrasena(Password[2],60,30,0); 
07860:  MOVFF  725,753
07864:  MOVLW  3C
07866:  MOVLB  7
07868:  MOVWF  x54
0786A:  MOVLW  1E
0786C:  MOVWF  x55
0786E:  CLRF   x56
07870:  MOVLB  0
07872:  CALL   23F0
....................             displayContrasena(Password[3],80,30,0); 
07876:  MOVFF  726,753
0787A:  MOVLW  50
0787C:  MOVLB  7
0787E:  MOVWF  x54
07880:  MOVLW  1E
07882:  MOVWF  x55
07884:  CLRF   x56
07886:  MOVLB  0
07888:  CALL   23F0
....................          } 
....................          else 
0788C:  BRA    7954
0788E:  MOVLB  6
....................          { 
....................             if(unidad==3) 
07890:  MOVF   xFD,W
07892:  SUBLW  03
07894:  BNZ   78F4
....................             { 
....................                displayContrasena(Password[0],20,30,0); 
07896:  MOVFF  723,753
0789A:  MOVLW  14
0789C:  MOVLB  7
0789E:  MOVWF  x54
078A0:  MOVLW  1E
078A2:  MOVWF  x55
078A4:  CLRF   x56
078A6:  MOVLB  0
078A8:  CALL   23F0
....................                displayContrasena(Password[1],40,30,0); 
078AC:  MOVFF  724,753
078B0:  MOVLW  28
078B2:  MOVLB  7
078B4:  MOVWF  x54
078B6:  MOVLW  1E
078B8:  MOVWF  x55
078BA:  CLRF   x56
078BC:  MOVLB  0
078BE:  CALL   23F0
....................                displayContrasena(Password[2],60,30,1); 
078C2:  MOVFF  725,753
078C6:  MOVLW  3C
078C8:  MOVLB  7
078CA:  MOVWF  x54
078CC:  MOVLW  1E
078CE:  MOVWF  x55
078D0:  MOVLW  01
078D2:  MOVWF  x56
078D4:  MOVLB  0
078D6:  CALL   23F0
....................                displayContrasena(Password[3],80,30,0); 
078DA:  MOVFF  726,753
078DE:  MOVLW  50
078E0:  MOVLB  7
078E2:  MOVWF  x54
078E4:  MOVLW  1E
078E6:  MOVWF  x55
078E8:  CLRF   x56
078EA:  MOVLB  0
078EC:  CALL   23F0
....................             } 
....................             else 
078F0:  BRA    7954
078F2:  MOVLB  6
....................             { 
....................                if(unidad==4) 
078F4:  MOVF   xFD,W
078F6:  SUBLW  04
078F8:  BNZ   7956
....................                { 
....................                   displayContrasena(Password[0],20,30,0); 
078FA:  MOVFF  723,753
078FE:  MOVLW  14
07900:  MOVLB  7
07902:  MOVWF  x54
07904:  MOVLW  1E
07906:  MOVWF  x55
07908:  CLRF   x56
0790A:  MOVLB  0
0790C:  CALL   23F0
....................                   displayContrasena(Password[1],40,30,0); 
07910:  MOVFF  724,753
07914:  MOVLW  28
07916:  MOVLB  7
07918:  MOVWF  x54
0791A:  MOVLW  1E
0791C:  MOVWF  x55
0791E:  CLRF   x56
07920:  MOVLB  0
07922:  CALL   23F0
....................                   displayContrasena(Password[2],60,30,0); 
07926:  MOVFF  725,753
0792A:  MOVLW  3C
0792C:  MOVLB  7
0792E:  MOVWF  x54
07930:  MOVLW  1E
07932:  MOVWF  x55
07934:  CLRF   x56
07936:  MOVLB  0
07938:  CALL   23F0
....................                   displayContrasena(Password[3],80,30,1); 
0793C:  MOVFF  726,753
07940:  MOVLW  50
07942:  MOVLB  7
07944:  MOVWF  x54
07946:  MOVLW  1E
07948:  MOVWF  x55
0794A:  MOVLW  01
0794C:  MOVWF  x56
0794E:  MOVLB  0
07950:  CALL   23F0
07954:  MOVLB  6
....................                } 
....................             } 
....................          } 
....................       } 
....................        
....................       if(UP)//Si oprime hacia arriba 
07956:  BSF    F92.4
07958:  BTFSC  F80.4
0795A:  BRA    79CA
....................       { 
....................          if(Flanco == 0) 
0795C:  MOVLB  4
0795E:  BTFSC  x84.3
07960:  BRA    79C6
....................          { 
....................             Flanco = 1;delay_ms(30); 
07962:  BSF    x84.3
07964:  MOVLW  1E
07966:  MOVLB  7
07968:  MOVWF  x57
0796A:  MOVLB  0
0796C:  CALL   16B6
....................             for(i=1;i<=4;i++) 
07970:  MOVLW  01
07972:  MOVLB  6
07974:  MOVWF  xFE
07976:  MOVF   xFE,W
07978:  SUBLW  04
0797A:  BNC   79C4
....................             { 
....................                if(unidad==i) 
0797C:  MOVF   xFE,W
0797E:  SUBWF  xFD,W
07980:  BNZ   79C0
....................                { 
....................                   Password[i-1]++; 
07982:  MOVLW  01
07984:  SUBWF  xFE,W
07986:  CLRF   03
07988:  ADDLW  23
0798A:  MOVWF  FE9
0798C:  MOVLW  07
0798E:  ADDWFC 03,W
07990:  MOVWF  FEA
07992:  INCF   FEF,F
....................                   if(Password[i-1]>9)    
07994:  MOVLW  01
07996:  SUBWF  xFE,W
07998:  CLRF   03
0799A:  ADDLW  23
0799C:  MOVWF  FE9
0799E:  MOVLW  07
079A0:  ADDWFC 03,W
079A2:  MOVWF  FEA
079A4:  BTFSC  FEF.7
079A6:  BRA    79C0
079A8:  MOVF   FEF,W
079AA:  SUBLW  09
079AC:  BC    79C0
....................                   { 
....................                      Password[i-1]=0; 
079AE:  MOVLW  01
079B0:  SUBWF  xFE,W
079B2:  CLRF   03
079B4:  ADDLW  23
079B6:  MOVWF  FE9
079B8:  MOVLW  07
079BA:  ADDWFC 03,W
079BC:  MOVWF  FEA
079BE:  CLRF   FEF
....................                   } 
....................                } 
....................             } 
079C0:  INCF   xFE,F
079C2:  BRA    7976
079C4:  MOVLB  4
....................          } 
....................       } 
....................       else 
079C6:  BRA    79CE
079C8:  MOVLB  6
....................       { 
....................          Flanco = 0; 
079CA:  MOVLB  4
079CC:  BCF    x84.3
....................       } 
....................              
....................       if(DOWN)//Si oprime hacia abajo 
079CE:  BSF    F92.5
079D0:  BTFSC  F80.5
079D2:  BRA    7A3C
....................       { 
....................          if(Flanco2 == 0) 
079D4:  BTFSC  x84.5
079D6:  BRA    7A3A
....................             {Flanco2 = 1;delay_ms(30); 
079D8:  BSF    x84.5
079DA:  MOVLW  1E
079DC:  MOVLB  7
079DE:  MOVWF  x57
079E0:  MOVLB  0
079E2:  CALL   16B6
....................                for(i=1;i<=4;i++) 
079E6:  MOVLW  01
079E8:  MOVLB  6
079EA:  MOVWF  xFE
079EC:  MOVF   xFE,W
079EE:  SUBLW  04
079F0:  BNC   7A38
....................                { 
....................                   if(unidad==i) 
079F2:  MOVF   xFE,W
079F4:  SUBWF  xFD,W
079F6:  BNZ   7A34
....................                   { 
....................                      Password[i-1]--; 
079F8:  MOVLW  01
079FA:  SUBWF  xFE,W
079FC:  CLRF   03
079FE:  ADDLW  23
07A00:  MOVWF  FE9
07A02:  MOVLW  07
07A04:  ADDWFC 03,W
07A06:  MOVWF  FEA
07A08:  DECF   FEF,F
....................                      if(Password[i-1]<0) 
07A0A:  MOVLW  01
07A0C:  SUBWF  xFE,W
07A0E:  CLRF   03
07A10:  ADDLW  23
07A12:  MOVWF  FE9
07A14:  MOVLW  07
07A16:  ADDWFC 03,W
07A18:  MOVWF  FEA
07A1A:  BTFSC  FEF.7
07A1C:  BRA    7A20
07A1E:  BRA    7A34
....................                      { 
....................                         Password[i-1]=9; 
07A20:  MOVLW  01
07A22:  SUBWF  xFE,W
07A24:  CLRF   03
07A26:  ADDLW  23
07A28:  MOVWF  FE9
07A2A:  MOVLW  07
07A2C:  ADDWFC 03,W
07A2E:  MOVWF  FEA
07A30:  MOVLW  09
07A32:  MOVWF  FEF
....................                      } 
....................                   } 
....................                }       
07A34:  INCF   xFE,F
07A36:  BRA    79EC
07A38:  MOVLB  4
....................             }      
....................       } 
....................       else 
07A3A:  BRA    7A3E
....................       { 
....................          Flanco2 = 0; 
07A3C:  BCF    x84.5
....................       } 
....................              
....................       if(RIGHT)//Si oprime RIGHT 
07A3E:  BSF    F96.0
07A40:  BTFSC  F84.0
07A42:  BRA    7A68
....................       { 
....................          if(Flanco1 == 0) 
07A44:  BTFSC  x84.4
07A46:  BRA    7A66
....................             {Flanco1 = 1;delay_ms(300);unidad++;} 
07A48:  BSF    x84.4
07A4A:  MOVLW  02
07A4C:  MOVLB  7
07A4E:  MOVWF  x51
07A50:  MOVLW  96
07A52:  MOVWF  x57
07A54:  MOVLB  0
07A56:  CALL   16B6
07A5A:  MOVLB  7
07A5C:  DECFSZ x51,F
07A5E:  BRA    7A50
07A60:  MOVLB  6
07A62:  INCF   xFD,F
07A64:  MOVLB  4
....................       } 
....................       else 
07A66:  BRA    7A6A
....................       { 
....................          Flanco1 = 0; 
07A68:  BCF    x84.4
....................       } 
....................        
....................       if(LEFT)//Si oprime Izquierda 
07A6A:  BSF    F96.1
07A6C:  BTFSC  F84.1
07A6E:  BRA    7A96
....................       { 
....................          delay_ms(700);Menu=1;glcd_fillscreen(OFF); 
07A70:  MOVLW  04
07A72:  MOVLB  7
07A74:  MOVWF  x51
07A76:  MOVLW  AF
07A78:  MOVWF  x57
07A7A:  MOVLB  0
07A7C:  CALL   16B6
07A80:  MOVLB  7
07A82:  DECFSZ x51,F
07A84:  BRA    7A76
07A86:  MOVLW  01
07A88:  MOVLB  6
07A8A:  MOVWF  xFC
07A8C:  MOVLB  7
07A8E:  CLRF   x52
07A90:  MOVLB  0
07A92:  CALL   1B9A
....................       } 
....................        
....................       if(unidad>4) 
07A96:  MOVLB  6
07A98:  MOVF   xFD,W
07A9A:  SUBLW  04
07A9C:  BC    7B76
....................       { 
....................          Opcion=1;unidad=1; 
07A9E:  MOVLW  01
07AA0:  MOVLB  7
07AA2:  MOVWF  x05
07AA4:  MOVLB  6
07AA6:  MOVWF  xFD
....................          write_eeprom(10,Password[0]);write_eeprom(11,Password[1]);write_eeprom(12,Password[2]);write_eeprom(13,Password[3]); 
07AA8:  CLRF   FAA
07AAA:  MOVLW  0A
07AAC:  MOVWF  FA9
07AAE:  MOVFF  723,FA8
07AB2:  BCF    FA6.6
07AB4:  BCF    FA6.7
07AB6:  BSF    FA6.2
07AB8:  MOVF   FF2,W
07ABA:  MOVWF  00
07ABC:  BCF    FF2.7
07ABE:  MOVLB  F
07AC0:  MOVLW  55
07AC2:  MOVWF  FA7
07AC4:  MOVLW  AA
07AC6:  MOVWF  FA7
07AC8:  BSF    FA6.1
07ACA:  BTFSC  FA6.1
07ACC:  BRA    7ACA
07ACE:  BCF    FA6.2
07AD0:  MOVF   00,W
07AD2:  IORWF  FF2,F
07AD4:  CLRF   FAA
07AD6:  MOVLW  0B
07AD8:  MOVWF  FA9
07ADA:  MOVFF  724,FA8
07ADE:  BCF    FA6.6
07AE0:  BCF    FA6.7
07AE2:  BSF    FA6.2
07AE4:  MOVF   FF2,W
07AE6:  MOVWF  00
07AE8:  BCF    FF2.7
07AEA:  MOVLW  55
07AEC:  MOVWF  FA7
07AEE:  MOVLW  AA
07AF0:  MOVWF  FA7
07AF2:  BSF    FA6.1
07AF4:  BTFSC  FA6.1
07AF6:  BRA    7AF4
07AF8:  BCF    FA6.2
07AFA:  MOVF   00,W
07AFC:  IORWF  FF2,F
07AFE:  CLRF   FAA
07B00:  MOVLW  0C
07B02:  MOVWF  FA9
07B04:  MOVFF  725,FA8
07B08:  BCF    FA6.6
07B0A:  BCF    FA6.7
07B0C:  BSF    FA6.2
07B0E:  MOVF   FF2,W
07B10:  MOVWF  00
07B12:  BCF    FF2.7
07B14:  MOVLW  55
07B16:  MOVWF  FA7
07B18:  MOVLW  AA
07B1A:  MOVWF  FA7
07B1C:  BSF    FA6.1
07B1E:  BTFSC  FA6.1
07B20:  BRA    7B1E
07B22:  BCF    FA6.2
07B24:  MOVF   00,W
07B26:  IORWF  FF2,F
07B28:  CLRF   FAA
07B2A:  MOVLW  0D
07B2C:  MOVWF  FA9
07B2E:  MOVFF  726,FA8
07B32:  BCF    FA6.6
07B34:  BCF    FA6.7
07B36:  BSF    FA6.2
07B38:  MOVF   FF2,W
07B3A:  MOVWF  00
07B3C:  BCF    FF2.7
07B3E:  MOVLW  55
07B40:  MOVWF  FA7
07B42:  MOVLW  AA
07B44:  MOVWF  FA7
07B46:  BSF    FA6.1
07B48:  BTFSC  FA6.1
07B4A:  BRA    7B48
07B4C:  BCF    FA6.2
07B4E:  MOVF   00,W
07B50:  IORWF  FF2,F
....................          delay_ms(1000);glcd_fillScreen(OFF);Menu=1; 
07B52:  MOVLW  04
07B54:  MOVLB  7
07B56:  MOVWF  x51
07B58:  MOVLW  FA
07B5A:  MOVWF  x57
07B5C:  MOVLB  0
07B5E:  CALL   16B6
07B62:  MOVLB  7
07B64:  DECFSZ x51,F
07B66:  BRA    7B58
07B68:  CLRF   x52
07B6A:  MOVLB  0
07B6C:  CALL   1B9A
07B70:  MOVLW  01
07B72:  MOVLB  6
07B74:  MOVWF  xFC
....................       } 
....................     }     
.................... //_--------------------------------------------------------------------------------------------------------------------------------------------------------     
....................  
.................... //_--------------------------------------------------------------------------------------------------------------------------------------------------------       
....................       if(Menu==10){ // Menu de Prueba de Componentes 
07B76:  MOVF   xFC,W
07B78:  SUBLW  0A
07B7A:  BTFSS  FD8.2
07B7C:  GOTO   895E
....................       PruebaEstados=ON; 
07B80:  MOVLB  4
07B82:  BSF    x84.1
....................          if(Opcion>8) 
07B84:  MOVLB  7
07B86:  MOVF   x05,W
07B88:  SUBLW  08
07B8A:  BC    7B90
....................          {Opcion=1;} 
07B8C:  MOVLW  01
07B8E:  MOVWF  x05
....................          if(Opcion<1) 
07B90:  MOVF   x05,F
07B92:  BNZ   7B98
....................          {Opcion=8;} 
07B94:  MOVLW  08
07B96:  MOVWF  x05
....................           
....................       if(Opcion<7){ 
07B98:  MOVF   x05,W
07B9A:  SUBLW  06
07B9C:  BTFSS  FD8.0
07B9E:  GOTO   8542
....................          if(Opcion==1)    
07BA2:  DECFSZ x05,W
07BA4:  BRA    7C78
....................          { 
....................             strcpy(Menus.Letra,"EV Desfogue"); 
07BA6:  MOVLW  04
07BA8:  MOVWF  FEA
07BAA:  MOVLW  18
07BAC:  MOVWF  FE9
07BAE:  MOVFF  FF2,751
07BB2:  BCF    FF2.7
07BB4:  MOVLW  00
07BB6:  MOVLB  0
07BB8:  CALL   0D44
07BBC:  TBLRD*-
07BBE:  TBLRD*+
07BC0:  MOVF   FF5,W
07BC2:  MOVWF  FEE
07BC4:  IORLW  00
07BC6:  BNZ   7BBE
07BC8:  MOVLB  7
07BCA:  BTFSC  x51.7
07BCC:  BSF    FF2.7
....................             if(EstadoDesfogue){ 
07BCE:  MOVLB  4
07BD0:  BTFSS  x83.6
07BD2:  BRA    7C26
....................                strcpy(Menus.Estado,"ON"); 
07BD4:  MOVLW  04
07BD6:  MOVWF  FEA
07BD8:  MOVLW  36
07BDA:  MOVWF  FE9
07BDC:  MOVFF  FF2,751
07BE0:  BCF    FF2.7
07BE2:  MOVLW  00
07BE4:  MOVLB  0
07BE6:  CALL   0D6E
07BEA:  TBLRD*-
07BEC:  TBLRD*+
07BEE:  MOVF   FF5,W
07BF0:  MOVWF  FEE
07BF2:  IORLW  00
07BF4:  BNZ   7BEC
07BF6:  MOVLB  7
07BF8:  BTFSC  x51.7
07BFA:  BSF    FF2.7
....................                displayTemps(Menus.Letra,Menus.Estado,0,9,1,1); 
07BFC:  MOVLW  04
07BFE:  MOVWF  x52
07C00:  MOVLW  18
07C02:  MOVWF  x51
07C04:  MOVLW  04
07C06:  MOVWF  x54
07C08:  MOVLW  36
07C0A:  MOVWF  x53
07C0C:  CLRF   x55
07C0E:  MOVLW  09
07C10:  MOVWF  x56
07C12:  MOVLW  01
07C14:  MOVWF  x57
07C16:  MOVWF  x58
07C18:  MOVLB  0
07C1A:  CALL   3772
....................                Desfogue_on; 
07C1E:  BCF    F8B.5
07C20:  BCF    F94.5
....................             } 
....................             else{ 
07C22:  BRA    7C74
07C24:  MOVLB  4
....................                strcpy(Menus.Estado,"OFF"); 
07C26:  MOVLW  04
07C28:  MOVWF  FEA
07C2A:  MOVLW  36
07C2C:  MOVWF  FE9
07C2E:  MOVFF  FF2,751
07C32:  BCF    FF2.7
07C34:  MOVLW  00
07C36:  MOVLB  0
07C38:  CALL   0D90
07C3C:  TBLRD*-
07C3E:  TBLRD*+
07C40:  MOVF   FF5,W
07C42:  MOVWF  FEE
07C44:  IORLW  00
07C46:  BNZ   7C3E
07C48:  MOVLB  7
07C4A:  BTFSC  x51.7
07C4C:  BSF    FF2.7
....................                displayTemps(Menus.Letra,Menus.Estado,0,9,1,1); 
07C4E:  MOVLW  04
07C50:  MOVWF  x52
07C52:  MOVLW  18
07C54:  MOVWF  x51
07C56:  MOVLW  04
07C58:  MOVWF  x54
07C5A:  MOVLW  36
07C5C:  MOVWF  x53
07C5E:  CLRF   x55
07C60:  MOVLW  09
07C62:  MOVWF  x56
07C64:  MOVLW  01
07C66:  MOVWF  x57
07C68:  MOVWF  x58
07C6A:  MOVLB  0
07C6C:  CALL   3772
....................                Desfogue_off; 
07C70:  BSF    F8B.5
07C72:  BCF    F94.5
....................             } 
....................          } 
....................          else 
07C74:  BRA    7D3E
07C76:  MOVLB  7
....................          { 
....................             strcpy(Menus.Letra,"EV Desfogue"); 
07C78:  MOVLW  04
07C7A:  MOVWF  FEA
07C7C:  MOVLW  18
07C7E:  MOVWF  FE9
07C80:  MOVFF  FF2,751
07C84:  BCF    FF2.7
07C86:  MOVLW  00
07C88:  MOVLB  0
07C8A:  CALL   0D44
07C8E:  TBLRD*-
07C90:  TBLRD*+
07C92:  MOVF   FF5,W
07C94:  MOVWF  FEE
07C96:  IORLW  00
07C98:  BNZ   7C90
07C9A:  MOVLB  7
07C9C:  BTFSC  x51.7
07C9E:  BSF    FF2.7
....................             if(EstadoDesfogue){ 
07CA0:  MOVLB  4
07CA2:  BTFSS  x83.6
07CA4:  BRA    7CF4
....................                strcpy(Menus.Estado,"ON"); 
07CA6:  MOVLW  04
07CA8:  MOVWF  FEA
07CAA:  MOVLW  36
07CAC:  MOVWF  FE9
07CAE:  MOVFF  FF2,751
07CB2:  BCF    FF2.7
07CB4:  MOVLW  00
07CB6:  MOVLB  0
07CB8:  CALL   0D6E
07CBC:  TBLRD*-
07CBE:  TBLRD*+
07CC0:  MOVF   FF5,W
07CC2:  MOVWF  FEE
07CC4:  IORLW  00
07CC6:  BNZ   7CBE
07CC8:  MOVLB  7
07CCA:  BTFSC  x51.7
07CCC:  BSF    FF2.7
....................                displayTemps(Menus.Letra,Menus.Estado,0,9,0,1); 
07CCE:  MOVLW  04
07CD0:  MOVWF  x52
07CD2:  MOVLW  18
07CD4:  MOVWF  x51
07CD6:  MOVLW  04
07CD8:  MOVWF  x54
07CDA:  MOVLW  36
07CDC:  MOVWF  x53
07CDE:  CLRF   x55
07CE0:  MOVLW  09
07CE2:  MOVWF  x56
07CE4:  CLRF   x57
07CE6:  MOVLW  01
07CE8:  MOVWF  x58
07CEA:  MOVLB  0
07CEC:  CALL   3772
....................             } 
....................             else{ 
07CF0:  BRA    7D3E
07CF2:  MOVLB  4
....................                strcpy(Menus.Estado,"OFF"); 
07CF4:  MOVLW  04
07CF6:  MOVWF  FEA
07CF8:  MOVLW  36
07CFA:  MOVWF  FE9
07CFC:  MOVFF  FF2,751
07D00:  BCF    FF2.7
07D02:  MOVLW  00
07D04:  MOVLB  0
07D06:  CALL   0D90
07D0A:  TBLRD*-
07D0C:  TBLRD*+
07D0E:  MOVF   FF5,W
07D10:  MOVWF  FEE
07D12:  IORLW  00
07D14:  BNZ   7D0C
07D16:  MOVLB  7
07D18:  BTFSC  x51.7
07D1A:  BSF    FF2.7
....................                displayTemps(Menus.Letra,Menus.Estado,0,9,0,1); 
07D1C:  MOVLW  04
07D1E:  MOVWF  x52
07D20:  MOVLW  18
07D22:  MOVWF  x51
07D24:  MOVLW  04
07D26:  MOVWF  x54
07D28:  MOVLW  36
07D2A:  MOVWF  x53
07D2C:  CLRF   x55
07D2E:  MOVLW  09
07D30:  MOVWF  x56
07D32:  CLRF   x57
07D34:  MOVLW  01
07D36:  MOVWF  x58
07D38:  MOVLB  0
07D3A:  CALL   3772
....................             } 
....................          } 
....................           
....................          if(Opcion==2)    
07D3E:  MOVLB  7
07D40:  MOVF   x05,W
07D42:  SUBLW  02
07D44:  BNZ   7E18
....................          { 
....................             strcpy(Menus.Letra,"EV Agua"); 
07D46:  MOVLW  04
07D48:  MOVWF  FEA
07D4A:  MOVLW  18
07D4C:  MOVWF  FE9
07D4E:  MOVFF  FF2,751
07D52:  BCF    FF2.7
07D54:  MOVLW  00
07D56:  MOVLB  0
07D58:  CALL   0DB2
07D5C:  TBLRD*-
07D5E:  TBLRD*+
07D60:  MOVF   FF5,W
07D62:  MOVWF  FEE
07D64:  IORLW  00
07D66:  BNZ   7D5E
07D68:  MOVLB  7
07D6A:  BTFSC  x51.7
07D6C:  BSF    FF2.7
....................             if(EstadoAgua){ 
07D6E:  MOVLB  4
07D70:  BTFSS  x83.7
07D72:  BRA    7DC6
....................                strcpy(Menus.Estado,"ON"); 
07D74:  MOVLW  04
07D76:  MOVWF  FEA
07D78:  MOVLW  36
07D7A:  MOVWF  FE9
07D7C:  MOVFF  FF2,751
07D80:  BCF    FF2.7
07D82:  MOVLW  00
07D84:  MOVLB  0
07D86:  CALL   0D6E
07D8A:  TBLRD*-
07D8C:  TBLRD*+
07D8E:  MOVF   FF5,W
07D90:  MOVWF  FEE
07D92:  IORLW  00
07D94:  BNZ   7D8C
07D96:  MOVLB  7
07D98:  BTFSC  x51.7
07D9A:  BSF    FF2.7
....................                displayTemps(Menus.Letra,Menus.Estado,0,18,1,1); 
07D9C:  MOVLW  04
07D9E:  MOVWF  x52
07DA0:  MOVLW  18
07DA2:  MOVWF  x51
07DA4:  MOVLW  04
07DA6:  MOVWF  x54
07DA8:  MOVLW  36
07DAA:  MOVWF  x53
07DAC:  CLRF   x55
07DAE:  MOVLW  12
07DB0:  MOVWF  x56
07DB2:  MOVLW  01
07DB4:  MOVWF  x57
07DB6:  MOVWF  x58
07DB8:  MOVLB  0
07DBA:  CALL   3772
....................                AguaIn_on; 
07DBE:  BCF    F8B.6
07DC0:  BCF    F94.6
....................             } 
....................             else{ 
07DC2:  BRA    7E14
07DC4:  MOVLB  4
....................                strcpy(Menus.Estado,"OFF"); 
07DC6:  MOVLW  04
07DC8:  MOVWF  FEA
07DCA:  MOVLW  36
07DCC:  MOVWF  FE9
07DCE:  MOVFF  FF2,751
07DD2:  BCF    FF2.7
07DD4:  MOVLW  00
07DD6:  MOVLB  0
07DD8:  CALL   0D90
07DDC:  TBLRD*-
07DDE:  TBLRD*+
07DE0:  MOVF   FF5,W
07DE2:  MOVWF  FEE
07DE4:  IORLW  00
07DE6:  BNZ   7DDE
07DE8:  MOVLB  7
07DEA:  BTFSC  x51.7
07DEC:  BSF    FF2.7
....................                displayTemps(Menus.Letra,Menus.Estado,0,18,1,1); 
07DEE:  MOVLW  04
07DF0:  MOVWF  x52
07DF2:  MOVLW  18
07DF4:  MOVWF  x51
07DF6:  MOVLW  04
07DF8:  MOVWF  x54
07DFA:  MOVLW  36
07DFC:  MOVWF  x53
07DFE:  CLRF   x55
07E00:  MOVLW  12
07E02:  MOVWF  x56
07E04:  MOVLW  01
07E06:  MOVWF  x57
07E08:  MOVWF  x58
07E0A:  MOVLB  0
07E0C:  CALL   3772
....................                AguaIn_off; 
07E10:  BSF    F8B.6
07E12:  BCF    F94.6
....................             } 
....................          } 
....................          else 
07E14:  BRA    7EDE
07E16:  MOVLB  7
....................          { 
....................             strcpy(Menus.Letra,"EV Agua"); 
07E18:  MOVLW  04
07E1A:  MOVWF  FEA
07E1C:  MOVLW  18
07E1E:  MOVWF  FE9
07E20:  MOVFF  FF2,751
07E24:  BCF    FF2.7
07E26:  MOVLW  00
07E28:  MOVLB  0
07E2A:  CALL   0DB2
07E2E:  TBLRD*-
07E30:  TBLRD*+
07E32:  MOVF   FF5,W
07E34:  MOVWF  FEE
07E36:  IORLW  00
07E38:  BNZ   7E30
07E3A:  MOVLB  7
07E3C:  BTFSC  x51.7
07E3E:  BSF    FF2.7
....................             if(EstadoAgua){ 
07E40:  MOVLB  4
07E42:  BTFSS  x83.7
07E44:  BRA    7E94
....................                strcpy(Menus.Estado,"ON"); 
07E46:  MOVLW  04
07E48:  MOVWF  FEA
07E4A:  MOVLW  36
07E4C:  MOVWF  FE9
07E4E:  MOVFF  FF2,751
07E52:  BCF    FF2.7
07E54:  MOVLW  00
07E56:  MOVLB  0
07E58:  CALL   0D6E
07E5C:  TBLRD*-
07E5E:  TBLRD*+
07E60:  MOVF   FF5,W
07E62:  MOVWF  FEE
07E64:  IORLW  00
07E66:  BNZ   7E5E
07E68:  MOVLB  7
07E6A:  BTFSC  x51.7
07E6C:  BSF    FF2.7
....................                displayTemps(Menus.Letra,Menus.Estado,0,18,0,1); 
07E6E:  MOVLW  04
07E70:  MOVWF  x52
07E72:  MOVLW  18
07E74:  MOVWF  x51
07E76:  MOVLW  04
07E78:  MOVWF  x54
07E7A:  MOVLW  36
07E7C:  MOVWF  x53
07E7E:  CLRF   x55
07E80:  MOVLW  12
07E82:  MOVWF  x56
07E84:  CLRF   x57
07E86:  MOVLW  01
07E88:  MOVWF  x58
07E8A:  MOVLB  0
07E8C:  CALL   3772
....................             }else{ 
07E90:  BRA    7EDE
07E92:  MOVLB  4
....................                strcpy(Menus.Estado,"OFF"); 
07E94:  MOVLW  04
07E96:  MOVWF  FEA
07E98:  MOVLW  36
07E9A:  MOVWF  FE9
07E9C:  MOVFF  FF2,751
07EA0:  BCF    FF2.7
07EA2:  MOVLW  00
07EA4:  MOVLB  0
07EA6:  CALL   0D90
07EAA:  TBLRD*-
07EAC:  TBLRD*+
07EAE:  MOVF   FF5,W
07EB0:  MOVWF  FEE
07EB2:  IORLW  00
07EB4:  BNZ   7EAC
07EB6:  MOVLB  7
07EB8:  BTFSC  x51.7
07EBA:  BSF    FF2.7
....................                displayTemps(Menus.Letra,Menus.Estado,0,18,0,1); 
07EBC:  MOVLW  04
07EBE:  MOVWF  x52
07EC0:  MOVLW  18
07EC2:  MOVWF  x51
07EC4:  MOVLW  04
07EC6:  MOVWF  x54
07EC8:  MOVLW  36
07ECA:  MOVWF  x53
07ECC:  CLRF   x55
07ECE:  MOVLW  12
07ED0:  MOVWF  x56
07ED2:  CLRF   x57
07ED4:  MOVLW  01
07ED6:  MOVWF  x58
07ED8:  MOVLB  0
07EDA:  CALL   3772
....................             } 
....................          } 
....................              
....................          if(Opcion==3)    
07EDE:  MOVLB  7
07EE0:  MOVF   x05,W
07EE2:  SUBLW  03
07EE4:  BNZ   7FB8
....................          { 
....................             strcpy(Menus.Letra,"SSR"); 
07EE6:  MOVLW  04
07EE8:  MOVWF  FEA
07EEA:  MOVLW  18
07EEC:  MOVWF  FE9
07EEE:  MOVFF  FF2,751
07EF2:  BCF    FF2.7
07EF4:  MOVLW  00
07EF6:  MOVLB  0
07EF8:  CALL   0DD8
07EFC:  TBLRD*-
07EFE:  TBLRD*+
07F00:  MOVF   FF5,W
07F02:  MOVWF  FEE
07F04:  IORLW  00
07F06:  BNZ   7EFE
07F08:  MOVLB  7
07F0A:  BTFSC  x51.7
07F0C:  BSF    FF2.7
....................             if(EstadoSSR){ 
07F0E:  MOVLB  4
07F10:  BTFSS  x84.0
07F12:  BRA    7F66
....................                strcpy(Menus.Estado,"ON"); 
07F14:  MOVLW  04
07F16:  MOVWF  FEA
07F18:  MOVLW  36
07F1A:  MOVWF  FE9
07F1C:  MOVFF  FF2,751
07F20:  BCF    FF2.7
07F22:  MOVLW  00
07F24:  MOVLB  0
07F26:  CALL   0D6E
07F2A:  TBLRD*-
07F2C:  TBLRD*+
07F2E:  MOVF   FF5,W
07F30:  MOVWF  FEE
07F32:  IORLW  00
07F34:  BNZ   7F2C
07F36:  MOVLB  7
07F38:  BTFSC  x51.7
07F3A:  BSF    FF2.7
....................                displayTemps(Menus.Letra,Menus.Estado,0,27,1,1); 
07F3C:  MOVLW  04
07F3E:  MOVWF  x52
07F40:  MOVLW  18
07F42:  MOVWF  x51
07F44:  MOVLW  04
07F46:  MOVWF  x54
07F48:  MOVLW  36
07F4A:  MOVWF  x53
07F4C:  CLRF   x55
07F4E:  MOVLW  1B
07F50:  MOVWF  x56
07F52:  MOVLW  01
07F54:  MOVWF  x57
07F56:  MOVWF  x58
07F58:  MOVLB  0
07F5A:  CALL   3772
....................                SSR_on; 
07F5E:  BCF    F8B.2
07F60:  BCF    F94.2
....................             }else{ 
07F62:  BRA    7FB4
07F64:  MOVLB  4
....................                strcpy(Menus.Estado,"OFF"); 
07F66:  MOVLW  04
07F68:  MOVWF  FEA
07F6A:  MOVLW  36
07F6C:  MOVWF  FE9
07F6E:  MOVFF  FF2,751
07F72:  BCF    FF2.7
07F74:  MOVLW  00
07F76:  MOVLB  0
07F78:  CALL   0D90
07F7C:  TBLRD*-
07F7E:  TBLRD*+
07F80:  MOVF   FF5,W
07F82:  MOVWF  FEE
07F84:  IORLW  00
07F86:  BNZ   7F7E
07F88:  MOVLB  7
07F8A:  BTFSC  x51.7
07F8C:  BSF    FF2.7
....................                displayTemps(Menus.Letra,Menus.Estado,0,27,1,1); 
07F8E:  MOVLW  04
07F90:  MOVWF  x52
07F92:  MOVLW  18
07F94:  MOVWF  x51
07F96:  MOVLW  04
07F98:  MOVWF  x54
07F9A:  MOVLW  36
07F9C:  MOVWF  x53
07F9E:  CLRF   x55
07FA0:  MOVLW  1B
07FA2:  MOVWF  x56
07FA4:  MOVLW  01
07FA6:  MOVWF  x57
07FA8:  MOVWF  x58
07FAA:  MOVLB  0
07FAC:  CALL   3772
....................                SSR_off; 
07FB0:  BSF    F8B.2
07FB2:  BCF    F94.2
....................             } 
....................          } 
....................          else 
07FB4:  BRA    807E
07FB6:  MOVLB  7
....................          { 
....................             strcpy(Menus.Letra,"SSR"); 
07FB8:  MOVLW  04
07FBA:  MOVWF  FEA
07FBC:  MOVLW  18
07FBE:  MOVWF  FE9
07FC0:  MOVFF  FF2,751
07FC4:  BCF    FF2.7
07FC6:  MOVLW  00
07FC8:  MOVLB  0
07FCA:  CALL   0DD8
07FCE:  TBLRD*-
07FD0:  TBLRD*+
07FD2:  MOVF   FF5,W
07FD4:  MOVWF  FEE
07FD6:  IORLW  00
07FD8:  BNZ   7FD0
07FDA:  MOVLB  7
07FDC:  BTFSC  x51.7
07FDE:  BSF    FF2.7
....................             if(EstadoSSR){ 
07FE0:  MOVLB  4
07FE2:  BTFSS  x84.0
07FE4:  BRA    8034
....................                strcpy(Menus.Estado,"ON"); 
07FE6:  MOVLW  04
07FE8:  MOVWF  FEA
07FEA:  MOVLW  36
07FEC:  MOVWF  FE9
07FEE:  MOVFF  FF2,751
07FF2:  BCF    FF2.7
07FF4:  MOVLW  00
07FF6:  MOVLB  0
07FF8:  CALL   0D6E
07FFC:  TBLRD*-
07FFE:  TBLRD*+
08000:  MOVF   FF5,W
08002:  MOVWF  FEE
08004:  IORLW  00
08006:  BNZ   7FFE
08008:  MOVLB  7
0800A:  BTFSC  x51.7
0800C:  BSF    FF2.7
....................                displayTemps(Menus.Letra,Menus.Estado,0,27,0,1); 
0800E:  MOVLW  04
08010:  MOVWF  x52
08012:  MOVLW  18
08014:  MOVWF  x51
08016:  MOVLW  04
08018:  MOVWF  x54
0801A:  MOVLW  36
0801C:  MOVWF  x53
0801E:  CLRF   x55
08020:  MOVLW  1B
08022:  MOVWF  x56
08024:  CLRF   x57
08026:  MOVLW  01
08028:  MOVWF  x58
0802A:  MOVLB  0
0802C:  CALL   3772
....................             }else{ 
08030:  BRA    807E
08032:  MOVLB  4
....................                strcpy(Menus.Estado,"OFF"); 
08034:  MOVLW  04
08036:  MOVWF  FEA
08038:  MOVLW  36
0803A:  MOVWF  FE9
0803C:  MOVFF  FF2,751
08040:  BCF    FF2.7
08042:  MOVLW  00
08044:  MOVLB  0
08046:  CALL   0D90
0804A:  TBLRD*-
0804C:  TBLRD*+
0804E:  MOVF   FF5,W
08050:  MOVWF  FEE
08052:  IORLW  00
08054:  BNZ   804C
08056:  MOVLB  7
08058:  BTFSC  x51.7
0805A:  BSF    FF2.7
....................                displayTemps(Menus.Letra,Menus.Estado,0,27,0,1); 
0805C:  MOVLW  04
0805E:  MOVWF  x52
08060:  MOVLW  18
08062:  MOVWF  x51
08064:  MOVLW  04
08066:  MOVWF  x54
08068:  MOVLW  36
0806A:  MOVWF  x53
0806C:  CLRF   x55
0806E:  MOVLW  1B
08070:  MOVWF  x56
08072:  CLRF   x57
08074:  MOVLW  01
08076:  MOVWF  x58
08078:  MOVLB  0
0807A:  CALL   3772
....................             } 
....................          } 
....................           
....................          if(Opcion==4)    
0807E:  MOVLB  7
08080:  MOVF   x05,W
08082:  SUBLW  04
08084:  BNZ   8150
....................          { 
....................             strcpy(Menus.Letra,"Nivel Alto"); 
08086:  MOVLW  04
08088:  MOVWF  FEA
0808A:  MOVLW  18
0808C:  MOVWF  FE9
0808E:  MOVFF  FF2,751
08092:  BCF    FF2.7
08094:  MOVLW  00
08096:  MOVLB  0
08098:  CALL   0DFA
0809C:  TBLRD*-
0809E:  TBLRD*+
080A0:  MOVF   FF5,W
080A2:  MOVWF  FEE
080A4:  IORLW  00
080A6:  BNZ   809E
080A8:  MOVLB  7
080AA:  BTFSC  x51.7
080AC:  BSF    FF2.7
....................             if(HIGH){ 
080AE:  BSF    F94.0
080B0:  BTFSS  F82.0
080B2:  BRA    8102
....................                strcpy(Menus.Estado,"ON"); 
080B4:  MOVLW  04
080B6:  MOVWF  FEA
080B8:  MOVLW  36
080BA:  MOVWF  FE9
080BC:  MOVFF  FF2,751
080C0:  BCF    FF2.7
080C2:  MOVLW  00
080C4:  MOVLB  0
080C6:  CALL   0D6E
080CA:  TBLRD*-
080CC:  TBLRD*+
080CE:  MOVF   FF5,W
080D0:  MOVWF  FEE
080D2:  IORLW  00
080D4:  BNZ   80CC
080D6:  MOVLB  7
080D8:  BTFSC  x51.7
080DA:  BSF    FF2.7
....................                displayTemps(Menus.Letra,Menus.Estado,0,36,1,1); 
080DC:  MOVLW  04
080DE:  MOVWF  x52
080E0:  MOVLW  18
080E2:  MOVWF  x51
080E4:  MOVLW  04
080E6:  MOVWF  x54
080E8:  MOVLW  36
080EA:  MOVWF  x53
080EC:  CLRF   x55
080EE:  MOVLW  24
080F0:  MOVWF  x56
080F2:  MOVLW  01
080F4:  MOVWF  x57
080F6:  MOVWF  x58
080F8:  MOVLB  0
080FA:  CALL   3772
....................             }else{ 
080FE:  BRA    814C
08100:  MOVLB  7
....................                strcpy(Menus.Estado,"OFF"); 
08102:  MOVLW  04
08104:  MOVWF  FEA
08106:  MOVLW  36
08108:  MOVWF  FE9
0810A:  MOVFF  FF2,751
0810E:  BCF    FF2.7
08110:  MOVLW  00
08112:  MOVLB  0
08114:  CALL   0D90
08118:  TBLRD*-
0811A:  TBLRD*+
0811C:  MOVF   FF5,W
0811E:  MOVWF  FEE
08120:  IORLW  00
08122:  BNZ   811A
08124:  MOVLB  7
08126:  BTFSC  x51.7
08128:  BSF    FF2.7
....................                displayTemps(Menus.Letra,Menus.Estado,0,36,1,1); 
0812A:  MOVLW  04
0812C:  MOVWF  x52
0812E:  MOVLW  18
08130:  MOVWF  x51
08132:  MOVLW  04
08134:  MOVWF  x54
08136:  MOVLW  36
08138:  MOVWF  x53
0813A:  CLRF   x55
0813C:  MOVLW  24
0813E:  MOVWF  x56
08140:  MOVLW  01
08142:  MOVWF  x57
08144:  MOVWF  x58
08146:  MOVLB  0
08148:  CALL   3772
....................             } 
....................          } 
....................          else 
0814C:  BRA    8216
0814E:  MOVLB  7
....................          { 
....................             strcpy(Menus.Letra,"Nivel Alto"); 
08150:  MOVLW  04
08152:  MOVWF  FEA
08154:  MOVLW  18
08156:  MOVWF  FE9
08158:  MOVFF  FF2,751
0815C:  BCF    FF2.7
0815E:  MOVLW  00
08160:  MOVLB  0
08162:  CALL   0DFA
08166:  TBLRD*-
08168:  TBLRD*+
0816A:  MOVF   FF5,W
0816C:  MOVWF  FEE
0816E:  IORLW  00
08170:  BNZ   8168
08172:  MOVLB  7
08174:  BTFSC  x51.7
08176:  BSF    FF2.7
....................             if(HIGH){ 
08178:  BSF    F94.0
0817A:  BTFSS  F82.0
0817C:  BRA    81CC
....................                strcpy(Menus.Estado,"ON"); 
0817E:  MOVLW  04
08180:  MOVWF  FEA
08182:  MOVLW  36
08184:  MOVWF  FE9
08186:  MOVFF  FF2,751
0818A:  BCF    FF2.7
0818C:  MOVLW  00
0818E:  MOVLB  0
08190:  CALL   0D6E
08194:  TBLRD*-
08196:  TBLRD*+
08198:  MOVF   FF5,W
0819A:  MOVWF  FEE
0819C:  IORLW  00
0819E:  BNZ   8196
081A0:  MOVLB  7
081A2:  BTFSC  x51.7
081A4:  BSF    FF2.7
....................                displayTemps(Menus.Letra,Menus.Estado,0,36,0,1); 
081A6:  MOVLW  04
081A8:  MOVWF  x52
081AA:  MOVLW  18
081AC:  MOVWF  x51
081AE:  MOVLW  04
081B0:  MOVWF  x54
081B2:  MOVLW  36
081B4:  MOVWF  x53
081B6:  CLRF   x55
081B8:  MOVLW  24
081BA:  MOVWF  x56
081BC:  CLRF   x57
081BE:  MOVLW  01
081C0:  MOVWF  x58
081C2:  MOVLB  0
081C4:  CALL   3772
....................             }else{ 
081C8:  BRA    8216
081CA:  MOVLB  7
....................                strcpy(Menus.Estado,"OFF"); 
081CC:  MOVLW  04
081CE:  MOVWF  FEA
081D0:  MOVLW  36
081D2:  MOVWF  FE9
081D4:  MOVFF  FF2,751
081D8:  BCF    FF2.7
081DA:  MOVLW  00
081DC:  MOVLB  0
081DE:  CALL   0D90
081E2:  TBLRD*-
081E4:  TBLRD*+
081E6:  MOVF   FF5,W
081E8:  MOVWF  FEE
081EA:  IORLW  00
081EC:  BNZ   81E4
081EE:  MOVLB  7
081F0:  BTFSC  x51.7
081F2:  BSF    FF2.7
....................                displayTemps(Menus.Letra,Menus.Estado,0,36,0,1); 
081F4:  MOVLW  04
081F6:  MOVWF  x52
081F8:  MOVLW  18
081FA:  MOVWF  x51
081FC:  MOVLW  04
081FE:  MOVWF  x54
08200:  MOVLW  36
08202:  MOVWF  x53
08204:  CLRF   x55
08206:  MOVLW  24
08208:  MOVWF  x56
0820A:  CLRF   x57
0820C:  MOVLW  01
0820E:  MOVWF  x58
08210:  MOVLB  0
08212:  CALL   3772
....................             } 
....................          } 
....................                 
....................          if(Opcion==5)    
08216:  MOVLB  7
08218:  MOVF   x05,W
0821A:  SUBLW  05
0821C:  BNZ   82E8
....................          { 
....................             strcpy(Menus.Letra,"Nivel Bajo"); 
0821E:  MOVLW  04
08220:  MOVWF  FEA
08222:  MOVLW  18
08224:  MOVWF  FE9
08226:  MOVFF  FF2,751
0822A:  BCF    FF2.7
0822C:  MOVLW  00
0822E:  MOVLB  0
08230:  CALL   0E24
08234:  TBLRD*-
08236:  TBLRD*+
08238:  MOVF   FF5,W
0823A:  MOVWF  FEE
0823C:  IORLW  00
0823E:  BNZ   8236
08240:  MOVLB  7
08242:  BTFSC  x51.7
08244:  BSF    FF2.7
....................             if(LOW){ 
08246:  BSF    F94.1
08248:  BTFSS  F82.1
0824A:  BRA    829A
....................                strcpy(Menus.Estado,"ON"); 
0824C:  MOVLW  04
0824E:  MOVWF  FEA
08250:  MOVLW  36
08252:  MOVWF  FE9
08254:  MOVFF  FF2,751
08258:  BCF    FF2.7
0825A:  MOVLW  00
0825C:  MOVLB  0
0825E:  CALL   0D6E
08262:  TBLRD*-
08264:  TBLRD*+
08266:  MOVF   FF5,W
08268:  MOVWF  FEE
0826A:  IORLW  00
0826C:  BNZ   8264
0826E:  MOVLB  7
08270:  BTFSC  x51.7
08272:  BSF    FF2.7
....................                displayTemps(Menus.Letra,Menus.Estado,0,45,1,1); 
08274:  MOVLW  04
08276:  MOVWF  x52
08278:  MOVLW  18
0827A:  MOVWF  x51
0827C:  MOVLW  04
0827E:  MOVWF  x54
08280:  MOVLW  36
08282:  MOVWF  x53
08284:  CLRF   x55
08286:  MOVLW  2D
08288:  MOVWF  x56
0828A:  MOVLW  01
0828C:  MOVWF  x57
0828E:  MOVWF  x58
08290:  MOVLB  0
08292:  CALL   3772
....................             }else{ 
08296:  BRA    82E4
08298:  MOVLB  7
....................                strcpy(Menus.Estado,"OFF"); 
0829A:  MOVLW  04
0829C:  MOVWF  FEA
0829E:  MOVLW  36
082A0:  MOVWF  FE9
082A2:  MOVFF  FF2,751
082A6:  BCF    FF2.7
082A8:  MOVLW  00
082AA:  MOVLB  0
082AC:  CALL   0D90
082B0:  TBLRD*-
082B2:  TBLRD*+
082B4:  MOVF   FF5,W
082B6:  MOVWF  FEE
082B8:  IORLW  00
082BA:  BNZ   82B2
082BC:  MOVLB  7
082BE:  BTFSC  x51.7
082C0:  BSF    FF2.7
....................                displayTemps(Menus.Letra,Menus.Estado,0,45,1,1); 
082C2:  MOVLW  04
082C4:  MOVWF  x52
082C6:  MOVLW  18
082C8:  MOVWF  x51
082CA:  MOVLW  04
082CC:  MOVWF  x54
082CE:  MOVLW  36
082D0:  MOVWF  x53
082D2:  CLRF   x55
082D4:  MOVLW  2D
082D6:  MOVWF  x56
082D8:  MOVLW  01
082DA:  MOVWF  x57
082DC:  MOVWF  x58
082DE:  MOVLB  0
082E0:  CALL   3772
....................             } 
....................          } 
....................          else 
082E4:  BRA    83AE
082E6:  MOVLB  7
....................          { 
....................             strcpy(Menus.Letra,"Nivel Bajo"); 
082E8:  MOVLW  04
082EA:  MOVWF  FEA
082EC:  MOVLW  18
082EE:  MOVWF  FE9
082F0:  MOVFF  FF2,751
082F4:  BCF    FF2.7
082F6:  MOVLW  00
082F8:  MOVLB  0
082FA:  CALL   0E24
082FE:  TBLRD*-
08300:  TBLRD*+
08302:  MOVF   FF5,W
08304:  MOVWF  FEE
08306:  IORLW  00
08308:  BNZ   8300
0830A:  MOVLB  7
0830C:  BTFSC  x51.7
0830E:  BSF    FF2.7
....................             if(LOW){ 
08310:  BSF    F94.1
08312:  BTFSS  F82.1
08314:  BRA    8364
....................                strcpy(Menus.Estado,"ON"); 
08316:  MOVLW  04
08318:  MOVWF  FEA
0831A:  MOVLW  36
0831C:  MOVWF  FE9
0831E:  MOVFF  FF2,751
08322:  BCF    FF2.7
08324:  MOVLW  00
08326:  MOVLB  0
08328:  CALL   0D6E
0832C:  TBLRD*-
0832E:  TBLRD*+
08330:  MOVF   FF5,W
08332:  MOVWF  FEE
08334:  IORLW  00
08336:  BNZ   832E
08338:  MOVLB  7
0833A:  BTFSC  x51.7
0833C:  BSF    FF2.7
....................                displayTemps(Menus.Letra,Menus.Estado,0,45,0,1); 
0833E:  MOVLW  04
08340:  MOVWF  x52
08342:  MOVLW  18
08344:  MOVWF  x51
08346:  MOVLW  04
08348:  MOVWF  x54
0834A:  MOVLW  36
0834C:  MOVWF  x53
0834E:  CLRF   x55
08350:  MOVLW  2D
08352:  MOVWF  x56
08354:  CLRF   x57
08356:  MOVLW  01
08358:  MOVWF  x58
0835A:  MOVLB  0
0835C:  CALL   3772
....................             }else{ 
08360:  BRA    83AE
08362:  MOVLB  7
....................                strcpy(Menus.Estado,"OFF"); 
08364:  MOVLW  04
08366:  MOVWF  FEA
08368:  MOVLW  36
0836A:  MOVWF  FE9
0836C:  MOVFF  FF2,751
08370:  BCF    FF2.7
08372:  MOVLW  00
08374:  MOVLB  0
08376:  CALL   0D90
0837A:  TBLRD*-
0837C:  TBLRD*+
0837E:  MOVF   FF5,W
08380:  MOVWF  FEE
08382:  IORLW  00
08384:  BNZ   837C
08386:  MOVLB  7
08388:  BTFSC  x51.7
0838A:  BSF    FF2.7
....................                displayTemps(Menus.Letra,Menus.Estado,0,45,0,1); 
0838C:  MOVLW  04
0838E:  MOVWF  x52
08390:  MOVLW  18
08392:  MOVWF  x51
08394:  MOVLW  04
08396:  MOVWF  x54
08398:  MOVLW  36
0839A:  MOVWF  x53
0839C:  CLRF   x55
0839E:  MOVLW  2D
083A0:  MOVWF  x56
083A2:  CLRF   x57
083A4:  MOVLW  01
083A6:  MOVWF  x58
083A8:  MOVLB  0
083AA:  CALL   3772
....................             } 
....................          } 
....................           
....................          if(Opcion==6)    
083AE:  MOVLB  7
083B0:  MOVF   x05,W
083B2:  SUBLW  06
083B4:  BNZ   847C
....................          { 
....................             strcpy(Menus.Letra,"Switch Puerta"); 
083B6:  MOVLW  04
083B8:  MOVWF  FEA
083BA:  MOVLW  18
083BC:  MOVWF  FE9
083BE:  MOVFF  FF2,751
083C2:  BCF    FF2.7
083C4:  MOVLW  00
083C6:  MOVLB  0
083C8:  CALL   0E4E
083CC:  TBLRD*-
083CE:  TBLRD*+
083D0:  MOVF   FF5,W
083D2:  MOVWF  FEE
083D4:  IORLW  00
083D6:  BNZ   83CE
083D8:  MOVLB  7
083DA:  BTFSC  x51.7
083DC:  BSF    FF2.7
....................             if(DOOR){ 
083DE:  BSF    F96.2
083E0:  BTFSC  F84.2
083E2:  BRA    8430
....................                strcpy(Menus.Estado,"OFF"); 
083E4:  MOVLW  04
083E6:  MOVWF  FEA
083E8:  MOVLW  36
083EA:  MOVWF  FE9
083EC:  MOVFF  FF2,751
083F0:  BCF    FF2.7
083F2:  MOVLW  00
083F4:  MOVLB  0
083F6:  CALL   0D90
083FA:  TBLRD*-
083FC:  TBLRD*+
083FE:  MOVF   FF5,W
08400:  MOVWF  FEE
08402:  IORLW  00
08404:  BNZ   83FC
08406:  MOVLB  7
08408:  BTFSC  x51.7
0840A:  BSF    FF2.7
....................                displayTemps(Menus.Letra,Menus.Estado,0,54,1,1); 
0840C:  MOVLW  04
0840E:  MOVWF  x52
08410:  MOVLW  18
08412:  MOVWF  x51
08414:  MOVLW  04
08416:  MOVWF  x54
08418:  MOVLW  36
0841A:  MOVWF  x53
0841C:  CLRF   x55
0841E:  MOVWF  x56
08420:  MOVLW  01
08422:  MOVWF  x57
08424:  MOVWF  x58
08426:  MOVLB  0
08428:  CALL   3772
....................             }else{ 
0842C:  BRA    8478
0842E:  MOVLB  7
....................                strcpy(Menus.Estado,"ON"); 
08430:  MOVLW  04
08432:  MOVWF  FEA
08434:  MOVLW  36
08436:  MOVWF  FE9
08438:  MOVFF  FF2,751
0843C:  BCF    FF2.7
0843E:  MOVLW  00
08440:  MOVLB  0
08442:  CALL   0D6E
08446:  TBLRD*-
08448:  TBLRD*+
0844A:  MOVF   FF5,W
0844C:  MOVWF  FEE
0844E:  IORLW  00
08450:  BNZ   8448
08452:  MOVLB  7
08454:  BTFSC  x51.7
08456:  BSF    FF2.7
....................                displayTemps(Menus.Letra,Menus.Estado,0,54,1,1); 
08458:  MOVLW  04
0845A:  MOVWF  x52
0845C:  MOVLW  18
0845E:  MOVWF  x51
08460:  MOVLW  04
08462:  MOVWF  x54
08464:  MOVLW  36
08466:  MOVWF  x53
08468:  CLRF   x55
0846A:  MOVWF  x56
0846C:  MOVLW  01
0846E:  MOVWF  x57
08470:  MOVWF  x58
08472:  MOVLB  0
08474:  CALL   3772
....................             } 
....................          } 
....................          else 
08478:  BRA    853E
0847A:  MOVLB  7
....................          { 
....................             strcpy(Menus.Letra,"Switch Puerta"); 
0847C:  MOVLW  04
0847E:  MOVWF  FEA
08480:  MOVLW  18
08482:  MOVWF  FE9
08484:  MOVFF  FF2,751
08488:  BCF    FF2.7
0848A:  MOVLW  00
0848C:  MOVLB  0
0848E:  CALL   0E4E
08492:  TBLRD*-
08494:  TBLRD*+
08496:  MOVF   FF5,W
08498:  MOVWF  FEE
0849A:  IORLW  00
0849C:  BNZ   8494
0849E:  MOVLB  7
084A0:  BTFSC  x51.7
084A2:  BSF    FF2.7
....................             if(DOOR){ 
084A4:  BSF    F96.2
084A6:  BTFSC  F84.2
084A8:  BRA    84F6
....................                strcpy(Menus.Estado,"OFF"); 
084AA:  MOVLW  04
084AC:  MOVWF  FEA
084AE:  MOVLW  36
084B0:  MOVWF  FE9
084B2:  MOVFF  FF2,751
084B6:  BCF    FF2.7
084B8:  MOVLW  00
084BA:  MOVLB  0
084BC:  CALL   0D90
084C0:  TBLRD*-
084C2:  TBLRD*+
084C4:  MOVF   FF5,W
084C6:  MOVWF  FEE
084C8:  IORLW  00
084CA:  BNZ   84C2
084CC:  MOVLB  7
084CE:  BTFSC  x51.7
084D0:  BSF    FF2.7
....................                displayTemps(Menus.Letra,Menus.Estado,0,54,0,1); 
084D2:  MOVLW  04
084D4:  MOVWF  x52
084D6:  MOVLW  18
084D8:  MOVWF  x51
084DA:  MOVLW  04
084DC:  MOVWF  x54
084DE:  MOVLW  36
084E0:  MOVWF  x53
084E2:  CLRF   x55
084E4:  MOVWF  x56
084E6:  CLRF   x57
084E8:  MOVLW  01
084EA:  MOVWF  x58
084EC:  MOVLB  0
084EE:  CALL   3772
....................             }else{ 
084F2:  BRA    853E
084F4:  MOVLB  7
....................                strcpy(Menus.Estado,"ON"); 
084F6:  MOVLW  04
084F8:  MOVWF  FEA
084FA:  MOVLW  36
084FC:  MOVWF  FE9
084FE:  MOVFF  FF2,751
08502:  BCF    FF2.7
08504:  MOVLW  00
08506:  MOVLB  0
08508:  CALL   0D6E
0850C:  TBLRD*-
0850E:  TBLRD*+
08510:  MOVF   FF5,W
08512:  MOVWF  FEE
08514:  IORLW  00
08516:  BNZ   850E
08518:  MOVLB  7
0851A:  BTFSC  x51.7
0851C:  BSF    FF2.7
....................                displayTemps(Menus.Letra,Menus.Estado,0,54,0,1); 
0851E:  MOVLW  04
08520:  MOVWF  x52
08522:  MOVLW  18
08524:  MOVWF  x51
08526:  MOVLW  04
08528:  MOVWF  x54
0852A:  MOVLW  36
0852C:  MOVWF  x53
0852E:  CLRF   x55
08530:  MOVWF  x56
08532:  CLRF   x57
08534:  MOVLW  01
08536:  MOVWF  x58
08538:  MOVLB  0
0853A:  CALL   3772
....................             } 
....................          } 
....................       }else{ 
0853E:  BRA    8870
08540:  MOVLB  7
....................          if(Opcion==7)    
08542:  MOVF   x05,W
08544:  SUBLW  07
08546:  BNZ   8612
....................          { 
....................             strcpy(Menus.Letra,"Termostato"); 
08548:  MOVLW  04
0854A:  MOVWF  FEA
0854C:  MOVLW  18
0854E:  MOVWF  FE9
08550:  MOVFF  FF2,751
08554:  BCF    FF2.7
08556:  MOVLW  00
08558:  MOVLB  0
0855A:  CALL   0E7A
0855E:  TBLRD*-
08560:  TBLRD*+
08562:  MOVF   FF5,W
08564:  MOVWF  FEE
08566:  IORLW  00
08568:  BNZ   8560
0856A:  MOVLB  7
0856C:  BTFSC  x51.7
0856E:  BSF    FF2.7
....................             if(TERM){ 
08570:  BSF    F93.7
08572:  BTFSC  F81.7
08574:  BRA    85C4
....................                strcpy(Menus.Estado,"OFF"); 
08576:  MOVLW  04
08578:  MOVWF  FEA
0857A:  MOVLW  36
0857C:  MOVWF  FE9
0857E:  MOVFF  FF2,751
08582:  BCF    FF2.7
08584:  MOVLW  00
08586:  MOVLB  0
08588:  CALL   0D90
0858C:  TBLRD*-
0858E:  TBLRD*+
08590:  MOVF   FF5,W
08592:  MOVWF  FEE
08594:  IORLW  00
08596:  BNZ   858E
08598:  MOVLB  7
0859A:  BTFSC  x51.7
0859C:  BSF    FF2.7
....................                displayTemps(Menus.Letra,Menus.Estado,0,18,1,1); 
0859E:  MOVLW  04
085A0:  MOVWF  x52
085A2:  MOVLW  18
085A4:  MOVWF  x51
085A6:  MOVLW  04
085A8:  MOVWF  x54
085AA:  MOVLW  36
085AC:  MOVWF  x53
085AE:  CLRF   x55
085B0:  MOVLW  12
085B2:  MOVWF  x56
085B4:  MOVLW  01
085B6:  MOVWF  x57
085B8:  MOVWF  x58
085BA:  MOVLB  0
085BC:  CALL   3772
....................             }else{ 
085C0:  BRA    860E
085C2:  MOVLB  7
....................                strcpy(Menus.Estado,"ON"); 
085C4:  MOVLW  04
085C6:  MOVWF  FEA
085C8:  MOVLW  36
085CA:  MOVWF  FE9
085CC:  MOVFF  FF2,751
085D0:  BCF    FF2.7
085D2:  MOVLW  00
085D4:  MOVLB  0
085D6:  CALL   0D6E
085DA:  TBLRD*-
085DC:  TBLRD*+
085DE:  MOVF   FF5,W
085E0:  MOVWF  FEE
085E2:  IORLW  00
085E4:  BNZ   85DC
085E6:  MOVLB  7
085E8:  BTFSC  x51.7
085EA:  BSF    FF2.7
....................                displayTemps(Menus.Letra,Menus.Estado,0,18,1,1); 
085EC:  MOVLW  04
085EE:  MOVWF  x52
085F0:  MOVLW  18
085F2:  MOVWF  x51
085F4:  MOVLW  04
085F6:  MOVWF  x54
085F8:  MOVLW  36
085FA:  MOVWF  x53
085FC:  CLRF   x55
085FE:  MOVLW  12
08600:  MOVWF  x56
08602:  MOVLW  01
08604:  MOVWF  x57
08606:  MOVWF  x58
08608:  MOVLB  0
0860A:  CALL   3772
....................             } 
....................          } 
....................          else 
0860E:  BRA    86D8
08610:  MOVLB  7
....................          { 
....................             strcpy(Menus.Letra,"Termostato"); 
08612:  MOVLW  04
08614:  MOVWF  FEA
08616:  MOVLW  18
08618:  MOVWF  FE9
0861A:  MOVFF  FF2,751
0861E:  BCF    FF2.7
08620:  MOVLW  00
08622:  MOVLB  0
08624:  CALL   0E7A
08628:  TBLRD*-
0862A:  TBLRD*+
0862C:  MOVF   FF5,W
0862E:  MOVWF  FEE
08630:  IORLW  00
08632:  BNZ   862A
08634:  MOVLB  7
08636:  BTFSC  x51.7
08638:  BSF    FF2.7
....................             if(TERM){ 
0863A:  BSF    F93.7
0863C:  BTFSC  F81.7
0863E:  BRA    868E
....................                strcpy(Menus.Estado,"OFF"); 
08640:  MOVLW  04
08642:  MOVWF  FEA
08644:  MOVLW  36
08646:  MOVWF  FE9
08648:  MOVFF  FF2,751
0864C:  BCF    FF2.7
0864E:  MOVLW  00
08650:  MOVLB  0
08652:  CALL   0D90
08656:  TBLRD*-
08658:  TBLRD*+
0865A:  MOVF   FF5,W
0865C:  MOVWF  FEE
0865E:  IORLW  00
08660:  BNZ   8658
08662:  MOVLB  7
08664:  BTFSC  x51.7
08666:  BSF    FF2.7
....................                displayTemps(Menus.Letra,Menus.Estado,0,18,0,1); 
08668:  MOVLW  04
0866A:  MOVWF  x52
0866C:  MOVLW  18
0866E:  MOVWF  x51
08670:  MOVLW  04
08672:  MOVWF  x54
08674:  MOVLW  36
08676:  MOVWF  x53
08678:  CLRF   x55
0867A:  MOVLW  12
0867C:  MOVWF  x56
0867E:  CLRF   x57
08680:  MOVLW  01
08682:  MOVWF  x58
08684:  MOVLB  0
08686:  CALL   3772
....................             }else{ 
0868A:  BRA    86D8
0868C:  MOVLB  7
....................                strcpy(Menus.Estado,"ON"); 
0868E:  MOVLW  04
08690:  MOVWF  FEA
08692:  MOVLW  36
08694:  MOVWF  FE9
08696:  MOVFF  FF2,751
0869A:  BCF    FF2.7
0869C:  MOVLW  00
0869E:  MOVLB  0
086A0:  CALL   0D6E
086A4:  TBLRD*-
086A6:  TBLRD*+
086A8:  MOVF   FF5,W
086AA:  MOVWF  FEE
086AC:  IORLW  00
086AE:  BNZ   86A6
086B0:  MOVLB  7
086B2:  BTFSC  x51.7
086B4:  BSF    FF2.7
....................                displayTemps(Menus.Letra,Menus.Estado,0,18,0,1); 
086B6:  MOVLW  04
086B8:  MOVWF  x52
086BA:  MOVLW  18
086BC:  MOVWF  x51
086BE:  MOVLW  04
086C0:  MOVWF  x54
086C2:  MOVLW  36
086C4:  MOVWF  x53
086C6:  CLRF   x55
086C8:  MOVLW  12
086CA:  MOVWF  x56
086CC:  CLRF   x57
086CE:  MOVLW  01
086D0:  MOVWF  x58
086D2:  MOVLB  0
086D4:  CALL   3772
....................             } 
....................          } 
....................           
....................          if(Opcion==8)    
086D8:  MOVLB  7
086DA:  MOVF   x05,W
086DC:  SUBLW  08
086DE:  BNZ   87AA
....................          { 
....................             strcpy(Menus.Letra,"Parada Emer."); 
086E0:  MOVLW  04
086E2:  MOVWF  FEA
086E4:  MOVLW  18
086E6:  MOVWF  FE9
086E8:  MOVFF  FF2,751
086EC:  BCF    FF2.7
086EE:  MOVLW  00
086F0:  MOVLB  0
086F2:  CALL   0EA4
086F6:  TBLRD*-
086F8:  TBLRD*+
086FA:  MOVF   FF5,W
086FC:  MOVWF  FEE
086FE:  IORLW  00
08700:  BNZ   86F8
08702:  MOVLB  7
08704:  BTFSC  x51.7
08706:  BSF    FF2.7
....................             if(STOP){ 
08708:  BSF    F93.6
0870A:  BTFSC  F81.6
0870C:  BRA    875C
....................                strcpy(Menus.Estado,"OFF"); 
0870E:  MOVLW  04
08710:  MOVWF  FEA
08712:  MOVLW  36
08714:  MOVWF  FE9
08716:  MOVFF  FF2,751
0871A:  BCF    FF2.7
0871C:  MOVLW  00
0871E:  MOVLB  0
08720:  CALL   0D90
08724:  TBLRD*-
08726:  TBLRD*+
08728:  MOVF   FF5,W
0872A:  MOVWF  FEE
0872C:  IORLW  00
0872E:  BNZ   8726
08730:  MOVLB  7
08732:  BTFSC  x51.7
08734:  BSF    FF2.7
....................                displayTemps(Menus.Letra,Menus.Estado,0,27,1,1); 
08736:  MOVLW  04
08738:  MOVWF  x52
0873A:  MOVLW  18
0873C:  MOVWF  x51
0873E:  MOVLW  04
08740:  MOVWF  x54
08742:  MOVLW  36
08744:  MOVWF  x53
08746:  CLRF   x55
08748:  MOVLW  1B
0874A:  MOVWF  x56
0874C:  MOVLW  01
0874E:  MOVWF  x57
08750:  MOVWF  x58
08752:  MOVLB  0
08754:  CALL   3772
....................             }else{ 
08758:  BRA    87A6
0875A:  MOVLB  7
....................                strcpy(Menus.Estado,"ON"); 
0875C:  MOVLW  04
0875E:  MOVWF  FEA
08760:  MOVLW  36
08762:  MOVWF  FE9
08764:  MOVFF  FF2,751
08768:  BCF    FF2.7
0876A:  MOVLW  00
0876C:  MOVLB  0
0876E:  CALL   0D6E
08772:  TBLRD*-
08774:  TBLRD*+
08776:  MOVF   FF5,W
08778:  MOVWF  FEE
0877A:  IORLW  00
0877C:  BNZ   8774
0877E:  MOVLB  7
08780:  BTFSC  x51.7
08782:  BSF    FF2.7
....................                displayTemps(Menus.Letra,Menus.Estado,0,27,1,1); 
08784:  MOVLW  04
08786:  MOVWF  x52
08788:  MOVLW  18
0878A:  MOVWF  x51
0878C:  MOVLW  04
0878E:  MOVWF  x54
08790:  MOVLW  36
08792:  MOVWF  x53
08794:  CLRF   x55
08796:  MOVLW  1B
08798:  MOVWF  x56
0879A:  MOVLW  01
0879C:  MOVWF  x57
0879E:  MOVWF  x58
087A0:  MOVLB  0
087A2:  CALL   3772
....................             } 
....................          } 
....................          else 
087A6:  BRA    8870
087A8:  MOVLB  7
....................          { 
....................             strcpy(Menus.Letra,"Parada Emer."); 
087AA:  MOVLW  04
087AC:  MOVWF  FEA
087AE:  MOVLW  18
087B0:  MOVWF  FE9
087B2:  MOVFF  FF2,751
087B6:  BCF    FF2.7
087B8:  MOVLW  00
087BA:  MOVLB  0
087BC:  CALL   0EA4
087C0:  TBLRD*-
087C2:  TBLRD*+
087C4:  MOVF   FF5,W
087C6:  MOVWF  FEE
087C8:  IORLW  00
087CA:  BNZ   87C2
087CC:  MOVLB  7
087CE:  BTFSC  x51.7
087D0:  BSF    FF2.7
....................             if(STOP){ 
087D2:  BSF    F93.6
087D4:  BTFSC  F81.6
087D6:  BRA    8826
....................                strcpy(Menus.Estado,"OFF"); 
087D8:  MOVLW  04
087DA:  MOVWF  FEA
087DC:  MOVLW  36
087DE:  MOVWF  FE9
087E0:  MOVFF  FF2,751
087E4:  BCF    FF2.7
087E6:  MOVLW  00
087E8:  MOVLB  0
087EA:  CALL   0D90
087EE:  TBLRD*-
087F0:  TBLRD*+
087F2:  MOVF   FF5,W
087F4:  MOVWF  FEE
087F6:  IORLW  00
087F8:  BNZ   87F0
087FA:  MOVLB  7
087FC:  BTFSC  x51.7
087FE:  BSF    FF2.7
....................                displayTemps(Menus.Letra,Menus.Estado,0,27,0,1); 
08800:  MOVLW  04
08802:  MOVWF  x52
08804:  MOVLW  18
08806:  MOVWF  x51
08808:  MOVLW  04
0880A:  MOVWF  x54
0880C:  MOVLW  36
0880E:  MOVWF  x53
08810:  CLRF   x55
08812:  MOVLW  1B
08814:  MOVWF  x56
08816:  CLRF   x57
08818:  MOVLW  01
0881A:  MOVWF  x58
0881C:  MOVLB  0
0881E:  CALL   3772
....................             }else{ 
08822:  BRA    8870
08824:  MOVLB  7
....................                strcpy(Menus.Estado,"ON"); 
08826:  MOVLW  04
08828:  MOVWF  FEA
0882A:  MOVLW  36
0882C:  MOVWF  FE9
0882E:  MOVFF  FF2,751
08832:  BCF    FF2.7
08834:  MOVLW  00
08836:  MOVLB  0
08838:  CALL   0D6E
0883C:  TBLRD*-
0883E:  TBLRD*+
08840:  MOVF   FF5,W
08842:  MOVWF  FEE
08844:  IORLW  00
08846:  BNZ   883E
08848:  MOVLB  7
0884A:  BTFSC  x51.7
0884C:  BSF    FF2.7
....................                displayTemps(Menus.Letra,Menus.Estado,0,27,0,1); 
0884E:  MOVLW  04
08850:  MOVWF  x52
08852:  MOVLW  18
08854:  MOVWF  x51
08856:  MOVLW  04
08858:  MOVWF  x54
0885A:  MOVLW  36
0885C:  MOVWF  x53
0885E:  CLRF   x55
08860:  MOVLW  1B
08862:  MOVWF  x56
08864:  CLRF   x57
08866:  MOVLW  01
08868:  MOVWF  x58
0886A:  MOVLB  0
0886C:  CALL   3772
....................             } 
....................          } 
....................       } 
....................           
....................          if(RIGHT)//Si oprime SET 
08870:  BSF    F96.0
08872:  BTFSC  F84.0
08874:  BRA    88A4
....................          {  
....................             if(Opcion==1) 
08876:  MOVLB  7
08878:  DECFSZ x05,W
0887A:  BRA    8882
....................                EstadoDesfogue=!EstadoDesfogue; 
0887C:  MOVLB  4
0887E:  BTG    x83.6
08880:  MOVLB  7
....................              
....................             if(Opcion==2) 
08882:  MOVF   x05,W
08884:  SUBLW  02
08886:  BNZ   888E
....................                EstadoAgua=!EstadoAgua; 
08888:  MOVLB  4
0888A:  BTG    x83.7
0888C:  MOVLB  7
....................                 
....................             if(Opcion==3) 
0888E:  MOVF   x05,W
08890:  SUBLW  03
08892:  BNZ   889A
....................                EstadoSSR=!EstadoSSR; 
08894:  MOVLB  4
08896:  BTG    x84.0
08898:  MOVLB  7
....................              
....................             delay_ms(100); 
0889A:  MOVLW  64
0889C:  MOVWF  x57
0889E:  MOVLB  0
088A0:  CALL   16B6
....................          } 
....................        
....................          strcpy(Menus.Letra,"Estados"); 
088A4:  MOVLW  04
088A6:  MOVWF  FEA
088A8:  MOVLW  18
088AA:  MOVWF  FE9
088AC:  MOVFF  FF2,751
088B0:  BCF    FF2.7
088B2:  MOVLW  00
088B4:  CALL   0ED0
088B8:  TBLRD*-
088BA:  TBLRD*+
088BC:  MOVF   FF5,W
088BE:  MOVWF  FEE
088C0:  IORLW  00
088C2:  BNZ   88BA
088C4:  MOVLB  7
088C6:  BTFSC  x51.7
088C8:  BSF    FF2.7
....................          displayMenu(Menus.Letra,0,0,1,1); 
088CA:  MOVLW  04
088CC:  MOVWF  x52
088CE:  MOVLW  18
088D0:  MOVWF  x51
088D2:  CLRF   x53
088D4:  CLRF   x54
088D6:  MOVLW  01
088D8:  MOVWF  x55
088DA:  MOVWF  x56
088DC:  MOVLB  0
088DE:  CALL   21C8
....................           
....................        
....................          if(UP)//Si oprime hacia arriba 
088E2:  BSF    F92.4
088E4:  BTFSC  F80.4
088E6:  BRA    8900
....................          {   
....................             Opcion--;delay_ms(100);glcd_fillscreen(OFF); 
088E8:  MOVLB  7
088EA:  DECF   x05,F
088EC:  MOVLW  64
088EE:  MOVWF  x57
088F0:  MOVLB  0
088F2:  CALL   16B6
088F6:  MOVLB  7
088F8:  CLRF   x52
088FA:  MOVLB  0
088FC:  CALL   1B9A
....................          } 
....................                 
....................          if(DOWN)//Si oprime hacia abajo 
08900:  BSF    F92.5
08902:  BTFSC  F80.5
08904:  BRA    891E
....................          {   
....................             Opcion++;delay_ms(100);glcd_fillscreen(OFF); 
08906:  MOVLB  7
08908:  INCF   x05,F
0890A:  MOVLW  64
0890C:  MOVWF  x57
0890E:  MOVLB  0
08910:  CALL   16B6
08914:  MOVLB  7
08916:  CLRF   x52
08918:  MOVLB  0
0891A:  CALL   1B9A
....................          } 
....................                            
....................          if(LEFT)//Si oprime boton de Toma. 
0891E:  BSF    F96.1
08920:  BTFSC  F84.1
08922:  BRA    895C
....................          { 
....................             PruebaEstados=OFF;Desfogue_off;AguaIn_off;SSR_off; 
08924:  MOVLB  4
08926:  BCF    x84.1
08928:  BSF    F8B.5
0892A:  BCF    F94.5
0892C:  BSF    F8B.6
0892E:  BCF    F94.6
08930:  BSF    F8B.2
08932:  BCF    F94.2
....................             glcd_fillscreen(OFF);Menu=1;delay_ms(500); 
08934:  MOVLB  7
08936:  CLRF   x52
08938:  MOVLB  0
0893A:  CALL   1B9A
0893E:  MOVLW  01
08940:  MOVLB  6
08942:  MOVWF  xFC
08944:  MOVLW  02
08946:  MOVLB  7
08948:  MOVWF  x51
0894A:  MOVLW  FA
0894C:  MOVWF  x57
0894E:  MOVLB  0
08950:  CALL   16B6
08954:  MOVLB  7
08956:  DECFSZ x51,F
08958:  BRA    894A
0895A:  MOVLB  0
0895C:  MOVLB  6
....................          } 
....................      } 
.................... //_--------------------------------------------------------------------------------------------------------------------------------------------------------     
....................  
.................... //_--------------------------------------------------------------------------------------------------------------------------------------------------------       
....................       if(Menu==11){ // Menu de Tiempo de Esterilizacin 
0895E:  MOVF   xFC,W
08960:  SUBLW  0B
08962:  BTFSS  FD8.2
08964:  BRA    8C82
....................       
....................       if(visual==1) 
08966:  MOVLB  4
08968:  BTFSS  x84.6
0896A:  BRA    8AF8
....................       { 
....................          if(unidad<1) 
0896C:  MOVLB  6
0896E:  MOVF   xFD,F
08970:  BNZ   8976
....................          {unidad=4;} 
08972:  MOVLW  04
08974:  MOVWF  xFD
....................           
....................          strcpy(Menus.Letra,"T. Ester."); 
08976:  MOVLW  04
08978:  MOVWF  FEA
0897A:  MOVLW  18
0897C:  MOVWF  FE9
0897E:  MOVFF  FF2,751
08982:  BCF    FF2.7
08984:  MOVLW  00
08986:  MOVLB  0
08988:  CALL   0EF6
0898C:  TBLRD*-
0898E:  TBLRD*+
08990:  MOVF   FF5,W
08992:  MOVWF  FEE
08994:  IORLW  00
08996:  BNZ   898E
08998:  MOVLB  7
0899A:  BTFSC  x51.7
0899C:  BSF    FF2.7
....................          displayMenu(Menus.Letra,0,0,1,2); 
0899E:  MOVLW  04
089A0:  MOVWF  x52
089A2:  MOVLW  18
089A4:  MOVWF  x51
089A6:  CLRF   x53
089A8:  CLRF   x54
089AA:  MOVLW  01
089AC:  MOVWF  x55
089AE:  MOVLW  02
089B0:  MOVWF  x56
089B2:  MOVLB  0
089B4:  CALL   21C8
....................           
....................          if(unidad==4) 
089B8:  MOVLB  6
089BA:  MOVF   xFD,W
089BC:  SUBLW  04
089BE:  BNZ   89DE
....................          {displayTiempo(Testerilizacionp[3],20,40,1,2);} 
089C0:  MOVFF  492,751
089C4:  MOVLW  14
089C6:  MOVLB  7
089C8:  MOVWF  x52
089CA:  MOVLW  28
089CC:  MOVWF  x53
089CE:  MOVLW  01
089D0:  MOVWF  x54
089D2:  MOVLW  02
089D4:  MOVWF  x55
089D6:  MOVLB  0
089D8:  CALL   3998
....................          else 
089DC:  BRA    89F8
....................          {displayTiempo(Testerilizacionp[3],20,40,0,2);} 
089DE:  MOVFF  492,751
089E2:  MOVLW  14
089E4:  MOVLB  7
089E6:  MOVWF  x52
089E8:  MOVLW  28
089EA:  MOVWF  x53
089EC:  CLRF   x54
089EE:  MOVLW  02
089F0:  MOVWF  x55
089F2:  MOVLB  0
089F4:  CALL   3998
....................           
....................          if(unidad==3) 
089F8:  MOVLB  6
089FA:  MOVF   xFD,W
089FC:  SUBLW  03
089FE:  BNZ   8A1C
....................          {displayTiempo(Testerilizacionp[2],40,40,1,2);} 
08A00:  MOVFF  491,751
08A04:  MOVLW  28
08A06:  MOVLB  7
08A08:  MOVWF  x52
08A0A:  MOVWF  x53
08A0C:  MOVLW  01
08A0E:  MOVWF  x54
08A10:  MOVLW  02
08A12:  MOVWF  x55
08A14:  MOVLB  0
08A16:  CALL   3998
....................          else 
08A1A:  BRA    8A34
....................          {displayTiempo(Testerilizacionp[2],40,40,0,2);} 
08A1C:  MOVFF  491,751
08A20:  MOVLW  28
08A22:  MOVLB  7
08A24:  MOVWF  x52
08A26:  MOVWF  x53
08A28:  CLRF   x54
08A2A:  MOVLW  02
08A2C:  MOVWF  x55
08A2E:  MOVLB  0
08A30:  CALL   3998
....................           
....................          if(unidad==2) 
08A34:  MOVLB  6
08A36:  MOVF   xFD,W
08A38:  SUBLW  02
08A3A:  BNZ   8A5A
....................          {displayTiempo(Testerilizacionp[1],70,40,1,2);} 
08A3C:  MOVFF  490,751
08A40:  MOVLW  46
08A42:  MOVLB  7
08A44:  MOVWF  x52
08A46:  MOVLW  28
08A48:  MOVWF  x53
08A4A:  MOVLW  01
08A4C:  MOVWF  x54
08A4E:  MOVLW  02
08A50:  MOVWF  x55
08A52:  MOVLB  0
08A54:  CALL   3998
....................          else 
08A58:  BRA    8A74
....................          {displayTiempo(Testerilizacionp[1],70,40,0,2);} 
08A5A:  MOVFF  490,751
08A5E:  MOVLW  46
08A60:  MOVLB  7
08A62:  MOVWF  x52
08A64:  MOVLW  28
08A66:  MOVWF  x53
08A68:  CLRF   x54
08A6A:  MOVLW  02
08A6C:  MOVWF  x55
08A6E:  MOVLB  0
08A70:  CALL   3998
....................           
....................          if(unidad==1) 
08A74:  MOVLB  6
08A76:  DECFSZ xFD,W
08A78:  BRA    8A98
....................          {displayTiempo(Testerilizacionp[0],90,40,1,2);} 
08A7A:  MOVFF  48F,751
08A7E:  MOVLW  5A
08A80:  MOVLB  7
08A82:  MOVWF  x52
08A84:  MOVLW  28
08A86:  MOVWF  x53
08A88:  MOVLW  01
08A8A:  MOVWF  x54
08A8C:  MOVLW  02
08A8E:  MOVWF  x55
08A90:  MOVLB  0
08A92:  CALL   3998
....................          else 
08A96:  BRA    8AB2
....................          {displayTiempo(Testerilizacionp[0],90,40,0,2);} 
08A98:  MOVFF  48F,751
08A9C:  MOVLW  5A
08A9E:  MOVLB  7
08AA0:  MOVWF  x52
08AA2:  MOVLW  28
08AA4:  MOVWF  x53
08AA6:  CLRF   x54
08AA8:  MOVLW  02
08AAA:  MOVWF  x55
08AAC:  MOVLB  0
08AAE:  CALL   3998
....................           
....................          strcpy(Menus.Letra,":"); 
08AB2:  MOVLW  04
08AB4:  MOVWF  FEA
08AB6:  MOVLW  18
08AB8:  MOVWF  FE9
08ABA:  MOVFF  FF2,751
08ABE:  BCF    FF2.7
08AC0:  MOVLW  00
08AC2:  CALL   06DE
08AC6:  TBLRD*-
08AC8:  TBLRD*+
08ACA:  MOVF   FF5,W
08ACC:  MOVWF  FEE
08ACE:  IORLW  00
08AD0:  BNZ   8AC8
08AD2:  MOVLB  7
08AD4:  BTFSC  x51.7
08AD6:  BSF    FF2.7
....................          displayMenu(Menus.Letra,60,42,2,2);      
08AD8:  MOVLW  04
08ADA:  MOVWF  x52
08ADC:  MOVLW  18
08ADE:  MOVWF  x51
08AE0:  MOVLW  3C
08AE2:  MOVWF  x53
08AE4:  MOVLW  2A
08AE6:  MOVWF  x54
08AE8:  MOVLW  02
08AEA:  MOVWF  x55
08AEC:  MOVWF  x56
08AEE:  MOVLB  0
08AF0:  CALL   21C8
....................           
....................          visual=0; 
08AF4:  MOVLB  4
08AF6:  BCF    x84.6
....................       } 
....................        
....................        
....................          if(UP)//Si oprime hacia arriba 
08AF8:  BSF    F92.4
08AFA:  BTFSC  F80.4
08AFC:  BRA    8B3E
....................          {   
....................             if(Testerilizacionp[unidad-1]<9) 
08AFE:  MOVLW  01
08B00:  MOVLB  6
08B02:  SUBWF  xFD,W
08B04:  CLRF   03
08B06:  ADDLW  8F
08B08:  MOVWF  FE9
08B0A:  MOVLW  04
08B0C:  ADDWFC 03,W
08B0E:  MOVWF  FEA
08B10:  BTFSC  FEF.7
08B12:  BRA    8B1A
08B14:  MOVF   FEF,W
08B16:  SUBLW  08
08B18:  BNC   8B40
....................             { 
....................                delay_ms(30);Testerilizacionp[unidad-1]++;visual=1; 
08B1A:  MOVLW  1E
08B1C:  MOVLB  7
08B1E:  MOVWF  x57
08B20:  MOVLB  0
08B22:  CALL   16B6
08B26:  MOVLW  01
08B28:  MOVLB  6
08B2A:  SUBWF  xFD,W
08B2C:  CLRF   03
08B2E:  ADDLW  8F
08B30:  MOVWF  FE9
08B32:  MOVLW  04
08B34:  ADDWFC 03,W
08B36:  MOVWF  FEA
08B38:  INCF   FEF,F
08B3A:  MOVLB  4
08B3C:  BSF    x84.6
08B3E:  MOVLB  6
....................             } 
....................          } 
....................                 
....................          if(DOWN)//Si oprime hacia abajo 
08B40:  BSF    F92.5
08B42:  BTFSC  F80.5
08B44:  BRA    8B86
....................          {   
....................             if(Testerilizacionp[unidad-1]>0) 
08B46:  MOVLW  01
08B48:  SUBWF  xFD,W
08B4A:  CLRF   03
08B4C:  ADDLW  8F
08B4E:  MOVWF  FE9
08B50:  MOVLW  04
08B52:  ADDWFC 03,W
08B54:  MOVWF  FEA
08B56:  BTFSC  FEF.7
08B58:  BRA    8B86
08B5A:  MOVF   FEF,W
08B5C:  SUBLW  00
08B5E:  BC    8B86
....................             { 
....................                delay_ms(30);Testerilizacionp[unidad-1]--;visual=1;      
08B60:  MOVLW  1E
08B62:  MOVLB  7
08B64:  MOVWF  x57
08B66:  MOVLB  0
08B68:  CALL   16B6
08B6C:  MOVLW  01
08B6E:  MOVLB  6
08B70:  SUBWF  xFD,W
08B72:  CLRF   03
08B74:  ADDLW  8F
08B76:  MOVWF  FE9
08B78:  MOVLW  04
08B7A:  ADDWFC 03,W
08B7C:  MOVWF  FEA
08B7E:  DECF   FEF,F
08B80:  MOVLB  4
08B82:  BSF    x84.6
08B84:  MOVLB  6
....................             } 
....................          } 
....................                 
....................          if(RIGHT)//Si oprime SET 
08B86:  BSF    F96.0
08B88:  BTFSC  F84.0
08B8A:  BRA    8BA2
....................          {   
....................             delay_ms(30);unidad--;visual=1; 
08B8C:  MOVLW  1E
08B8E:  MOVLB  7
08B90:  MOVWF  x57
08B92:  MOVLB  0
08B94:  CALL   16B6
08B98:  MOVLB  6
08B9A:  DECF   xFD,F
08B9C:  MOVLB  4
08B9E:  BSF    x84.6
08BA0:  MOVLB  6
....................          }  
....................                    
....................          if(LEFT)//Si oprime boton de Toma. 
08BA2:  BSF    F96.1
08BA4:  BTFSC  F84.1
08BA6:  BRA    8C82
....................          { 
....................             delay_ms(700);Menu=8;glcd_fillscreen(OFF);Opcion=1;visual=1; 
08BA8:  MOVLW  04
08BAA:  MOVLB  7
08BAC:  MOVWF  x51
08BAE:  MOVLW  AF
08BB0:  MOVWF  x57
08BB2:  MOVLB  0
08BB4:  CALL   16B6
08BB8:  MOVLB  7
08BBA:  DECFSZ x51,F
08BBC:  BRA    8BAE
08BBE:  MOVLW  08
08BC0:  MOVLB  6
08BC2:  MOVWF  xFC
08BC4:  MOVLB  7
08BC6:  CLRF   x52
08BC8:  MOVLB  0
08BCA:  CALL   1B9A
08BCE:  MOVLW  01
08BD0:  MOVLB  7
08BD2:  MOVWF  x05
08BD4:  MOVLB  4
08BD6:  BSF    x84.6
....................             write_eeprom(0,Testerilizacionp[0]);write_eeprom(1,Testerilizacionp[1]); 
08BD8:  CLRF   FAA
08BDA:  CLRF   FA9
08BDC:  MOVFF  48F,FA8
08BE0:  BCF    FA6.6
08BE2:  BCF    FA6.7
08BE4:  BSF    FA6.2
08BE6:  MOVF   FF2,W
08BE8:  MOVWF  00
08BEA:  BCF    FF2.7
08BEC:  MOVLB  F
08BEE:  MOVLW  55
08BF0:  MOVWF  FA7
08BF2:  MOVLW  AA
08BF4:  MOVWF  FA7
08BF6:  BSF    FA6.1
08BF8:  BTFSC  FA6.1
08BFA:  BRA    8BF8
08BFC:  BCF    FA6.2
08BFE:  MOVF   00,W
08C00:  IORWF  FF2,F
08C02:  CLRF   FAA
08C04:  MOVLW  01
08C06:  MOVWF  FA9
08C08:  MOVFF  490,FA8
08C0C:  BCF    FA6.6
08C0E:  BCF    FA6.7
08C10:  BSF    FA6.2
08C12:  MOVF   FF2,W
08C14:  MOVWF  00
08C16:  BCF    FF2.7
08C18:  MOVLW  55
08C1A:  MOVWF  FA7
08C1C:  MOVLW  AA
08C1E:  MOVWF  FA7
08C20:  BSF    FA6.1
08C22:  BTFSC  FA6.1
08C24:  BRA    8C22
08C26:  BCF    FA6.2
08C28:  MOVF   00,W
08C2A:  IORWF  FF2,F
....................             write_eeprom(2,Testerilizacionp[2]);write_eeprom(3,Testerilizacionp[3]); 
08C2C:  CLRF   FAA
08C2E:  MOVLW  02
08C30:  MOVWF  FA9
08C32:  MOVFF  491,FA8
08C36:  BCF    FA6.6
08C38:  BCF    FA6.7
08C3A:  BSF    FA6.2
08C3C:  MOVFF  FF2,00
08C40:  BCF    FF2.7
08C42:  MOVLW  55
08C44:  MOVWF  FA7
08C46:  MOVLW  AA
08C48:  MOVWF  FA7
08C4A:  BSF    FA6.1
08C4C:  BTFSC  FA6.1
08C4E:  BRA    8C4C
08C50:  BCF    FA6.2
08C52:  MOVF   00,W
08C54:  IORWF  FF2,F
08C56:  CLRF   FAA
08C58:  MOVLW  03
08C5A:  MOVWF  FA9
08C5C:  MOVFF  492,FA8
08C60:  BCF    FA6.6
08C62:  BCF    FA6.7
08C64:  BSF    FA6.2
08C66:  MOVFF  FF2,00
08C6A:  BCF    FF2.7
08C6C:  MOVLW  55
08C6E:  MOVWF  FA7
08C70:  MOVLW  AA
08C72:  MOVWF  FA7
08C74:  BSF    FA6.1
08C76:  BTFSC  FA6.1
08C78:  BRA    8C76
08C7A:  BCF    FA6.2
08C7C:  MOVF   00,W
08C7E:  IORWF  FF2,F
08C80:  MOVLB  6
....................          } 
....................      } 
.................... //_--------------------------------------------------------------------------------------------------------------------------------------------------------     
....................  
.................... //_--------------------------------------------------------------------------------------------------------------------------------------------------------       
....................       if(Menu==12){ // Menu de Tiempo de Secado 
08C82:  MOVF   xFC,W
08C84:  SUBLW  0C
08C86:  BTFSS  FD8.2
08C88:  BRA    8FA8
....................       
....................       if(visual==1) 
08C8A:  MOVLB  4
08C8C:  BTFSS  x84.6
08C8E:  BRA    8E1C
....................       { 
....................          if(unidad<1) 
08C90:  MOVLB  6
08C92:  MOVF   xFD,F
08C94:  BNZ   8C9A
....................          {unidad=4;} 
08C96:  MOVLW  04
08C98:  MOVWF  xFD
....................           
....................          strcpy(Menus.Letra," Secado"); 
08C9A:  MOVLW  04
08C9C:  MOVWF  FEA
08C9E:  MOVLW  18
08CA0:  MOVWF  FE9
08CA2:  MOVFF  FF2,751
08CA6:  BCF    FF2.7
08CA8:  MOVLW  00
08CAA:  MOVLB  0
08CAC:  CALL   0F1E
08CB0:  TBLRD*-
08CB2:  TBLRD*+
08CB4:  MOVF   FF5,W
08CB6:  MOVWF  FEE
08CB8:  IORLW  00
08CBA:  BNZ   8CB2
08CBC:  MOVLB  7
08CBE:  BTFSC  x51.7
08CC0:  BSF    FF2.7
....................          displayMenu(Menus.Letra,0,0,1,2); 
08CC2:  MOVLW  04
08CC4:  MOVWF  x52
08CC6:  MOVLW  18
08CC8:  MOVWF  x51
08CCA:  CLRF   x53
08CCC:  CLRF   x54
08CCE:  MOVLW  01
08CD0:  MOVWF  x55
08CD2:  MOVLW  02
08CD4:  MOVWF  x56
08CD6:  MOVLB  0
08CD8:  CALL   21C8
....................           
....................          if(unidad==4) 
08CDC:  MOVLB  6
08CDE:  MOVF   xFD,W
08CE0:  SUBLW  04
08CE2:  BNZ   8D02
....................          {displayTiempo(Tsecadop[3],20,40,1,2);} 
08CE4:  MOVFF  49A,751
08CE8:  MOVLW  14
08CEA:  MOVLB  7
08CEC:  MOVWF  x52
08CEE:  MOVLW  28
08CF0:  MOVWF  x53
08CF2:  MOVLW  01
08CF4:  MOVWF  x54
08CF6:  MOVLW  02
08CF8:  MOVWF  x55
08CFA:  MOVLB  0
08CFC:  CALL   3998
....................          else 
08D00:  BRA    8D1C
....................          {displayTiempo(Tsecadop[3],20,40,0,2);} 
08D02:  MOVFF  49A,751
08D06:  MOVLW  14
08D08:  MOVLB  7
08D0A:  MOVWF  x52
08D0C:  MOVLW  28
08D0E:  MOVWF  x53
08D10:  CLRF   x54
08D12:  MOVLW  02
08D14:  MOVWF  x55
08D16:  MOVLB  0
08D18:  CALL   3998
....................           
....................          if(unidad==3) 
08D1C:  MOVLB  6
08D1E:  MOVF   xFD,W
08D20:  SUBLW  03
08D22:  BNZ   8D40
....................          {displayTiempo(Tsecadop[2],40,40,1,2);} 
08D24:  MOVFF  499,751
08D28:  MOVLW  28
08D2A:  MOVLB  7
08D2C:  MOVWF  x52
08D2E:  MOVWF  x53
08D30:  MOVLW  01
08D32:  MOVWF  x54
08D34:  MOVLW  02
08D36:  MOVWF  x55
08D38:  MOVLB  0
08D3A:  CALL   3998
....................          else 
08D3E:  BRA    8D58
....................          {displayTiempo(Tsecadop[2],40,40,0,2);} 
08D40:  MOVFF  499,751
08D44:  MOVLW  28
08D46:  MOVLB  7
08D48:  MOVWF  x52
08D4A:  MOVWF  x53
08D4C:  CLRF   x54
08D4E:  MOVLW  02
08D50:  MOVWF  x55
08D52:  MOVLB  0
08D54:  CALL   3998
....................           
....................          if(unidad==2) 
08D58:  MOVLB  6
08D5A:  MOVF   xFD,W
08D5C:  SUBLW  02
08D5E:  BNZ   8D7E
....................          {displayTiempo(Tsecadop[1],70,40,1,2);} 
08D60:  MOVFF  498,751
08D64:  MOVLW  46
08D66:  MOVLB  7
08D68:  MOVWF  x52
08D6A:  MOVLW  28
08D6C:  MOVWF  x53
08D6E:  MOVLW  01
08D70:  MOVWF  x54
08D72:  MOVLW  02
08D74:  MOVWF  x55
08D76:  MOVLB  0
08D78:  CALL   3998
....................          else 
08D7C:  BRA    8D98
....................          {displayTiempo(Tsecadop[1],70,40,0,2);} 
08D7E:  MOVFF  498,751
08D82:  MOVLW  46
08D84:  MOVLB  7
08D86:  MOVWF  x52
08D88:  MOVLW  28
08D8A:  MOVWF  x53
08D8C:  CLRF   x54
08D8E:  MOVLW  02
08D90:  MOVWF  x55
08D92:  MOVLB  0
08D94:  CALL   3998
....................           
....................          if(unidad==1) 
08D98:  MOVLB  6
08D9A:  DECFSZ xFD,W
08D9C:  BRA    8DBC
....................          {displayTiempo(Tsecadop[0],90,40,1,2);} 
08D9E:  MOVFF  497,751
08DA2:  MOVLW  5A
08DA4:  MOVLB  7
08DA6:  MOVWF  x52
08DA8:  MOVLW  28
08DAA:  MOVWF  x53
08DAC:  MOVLW  01
08DAE:  MOVWF  x54
08DB0:  MOVLW  02
08DB2:  MOVWF  x55
08DB4:  MOVLB  0
08DB6:  CALL   3998
....................          else 
08DBA:  BRA    8DD6
....................          {displayTiempo(Tsecadop[0],90,40,0,2);} 
08DBC:  MOVFF  497,751
08DC0:  MOVLW  5A
08DC2:  MOVLB  7
08DC4:  MOVWF  x52
08DC6:  MOVLW  28
08DC8:  MOVWF  x53
08DCA:  CLRF   x54
08DCC:  MOVLW  02
08DCE:  MOVWF  x55
08DD0:  MOVLB  0
08DD2:  CALL   3998
....................           
....................          strcpy(Menus.Letra,":"); 
08DD6:  MOVLW  04
08DD8:  MOVWF  FEA
08DDA:  MOVLW  18
08DDC:  MOVWF  FE9
08DDE:  MOVFF  FF2,751
08DE2:  BCF    FF2.7
08DE4:  MOVLW  00
08DE6:  CALL   06DE
08DEA:  TBLRD*-
08DEC:  TBLRD*+
08DEE:  MOVF   FF5,W
08DF0:  MOVWF  FEE
08DF2:  IORLW  00
08DF4:  BNZ   8DEC
08DF6:  MOVLB  7
08DF8:  BTFSC  x51.7
08DFA:  BSF    FF2.7
....................          displayMenu(Menus.Letra,60,42,2,2);  
08DFC:  MOVLW  04
08DFE:  MOVWF  x52
08E00:  MOVLW  18
08E02:  MOVWF  x51
08E04:  MOVLW  3C
08E06:  MOVWF  x53
08E08:  MOVLW  2A
08E0A:  MOVWF  x54
08E0C:  MOVLW  02
08E0E:  MOVWF  x55
08E10:  MOVWF  x56
08E12:  MOVLB  0
08E14:  CALL   21C8
....................           
....................          visual=0; 
08E18:  MOVLB  4
08E1A:  BCF    x84.6
....................       } 
....................        
....................        
....................          if(UP)//Si oprime hacia arriba 
08E1C:  BSF    F92.4
08E1E:  BTFSC  F80.4
08E20:  BRA    8E62
....................          {   
....................             if(Tsecadop[unidad-1]<9) 
08E22:  MOVLW  01
08E24:  MOVLB  6
08E26:  SUBWF  xFD,W
08E28:  CLRF   03
08E2A:  ADDLW  97
08E2C:  MOVWF  FE9
08E2E:  MOVLW  04
08E30:  ADDWFC 03,W
08E32:  MOVWF  FEA
08E34:  BTFSC  FEF.7
08E36:  BRA    8E3E
08E38:  MOVF   FEF,W
08E3A:  SUBLW  08
08E3C:  BNC   8E64
....................             { 
....................                delay_ms(30);Tsecadop[unidad-1]++;visual=1; 
08E3E:  MOVLW  1E
08E40:  MOVLB  7
08E42:  MOVWF  x57
08E44:  MOVLB  0
08E46:  CALL   16B6
08E4A:  MOVLW  01
08E4C:  MOVLB  6
08E4E:  SUBWF  xFD,W
08E50:  CLRF   03
08E52:  ADDLW  97
08E54:  MOVWF  FE9
08E56:  MOVLW  04
08E58:  ADDWFC 03,W
08E5A:  MOVWF  FEA
08E5C:  INCF   FEF,F
08E5E:  MOVLB  4
08E60:  BSF    x84.6
08E62:  MOVLB  6
....................             } 
....................          } 
....................                 
....................          if(DOWN)//Si oprime hacia abajo 
08E64:  BSF    F92.5
08E66:  BTFSC  F80.5
08E68:  BRA    8EAA
....................          {   
....................             if(Tsecadop[unidad-1]>0) 
08E6A:  MOVLW  01
08E6C:  SUBWF  xFD,W
08E6E:  CLRF   03
08E70:  ADDLW  97
08E72:  MOVWF  FE9
08E74:  MOVLW  04
08E76:  ADDWFC 03,W
08E78:  MOVWF  FEA
08E7A:  BTFSC  FEF.7
08E7C:  BRA    8EAA
08E7E:  MOVF   FEF,W
08E80:  SUBLW  00
08E82:  BC    8EAA
....................             { 
....................                delay_ms(30);Tsecadop[unidad-1]--;visual=1;      
08E84:  MOVLW  1E
08E86:  MOVLB  7
08E88:  MOVWF  x57
08E8A:  MOVLB  0
08E8C:  CALL   16B6
08E90:  MOVLW  01
08E92:  MOVLB  6
08E94:  SUBWF  xFD,W
08E96:  CLRF   03
08E98:  ADDLW  97
08E9A:  MOVWF  FE9
08E9C:  MOVLW  04
08E9E:  ADDWFC 03,W
08EA0:  MOVWF  FEA
08EA2:  DECF   FEF,F
08EA4:  MOVLB  4
08EA6:  BSF    x84.6
08EA8:  MOVLB  6
....................             } 
....................          } 
....................                 
....................          if(RIGHT)//Si oprime SET 
08EAA:  BSF    F96.0
08EAC:  BTFSC  F84.0
08EAE:  BRA    8EC6
....................          {   
....................             delay_ms(30);unidad--;visual=1; 
08EB0:  MOVLW  1E
08EB2:  MOVLB  7
08EB4:  MOVWF  x57
08EB6:  MOVLB  0
08EB8:  CALL   16B6
08EBC:  MOVLB  6
08EBE:  DECF   xFD,F
08EC0:  MOVLB  4
08EC2:  BSF    x84.6
08EC4:  MOVLB  6
....................          }  
....................                    
....................          if(LEFT)//Si oprime boton de Toma. 
08EC6:  BSF    F96.1
08EC8:  BTFSC  F84.1
08ECA:  BRA    8FA8
....................          { 
....................             delay_ms(700);Menu=8;glcd_fillscreen(OFF);Opcion=1;visual=1; 
08ECC:  MOVLW  04
08ECE:  MOVLB  7
08ED0:  MOVWF  x51
08ED2:  MOVLW  AF
08ED4:  MOVWF  x57
08ED6:  MOVLB  0
08ED8:  CALL   16B6
08EDC:  MOVLB  7
08EDE:  DECFSZ x51,F
08EE0:  BRA    8ED2
08EE2:  MOVLW  08
08EE4:  MOVLB  6
08EE6:  MOVWF  xFC
08EE8:  MOVLB  7
08EEA:  CLRF   x52
08EEC:  MOVLB  0
08EEE:  CALL   1B9A
08EF2:  MOVLW  01
08EF4:  MOVLB  7
08EF6:  MOVWF  x05
08EF8:  MOVLB  4
08EFA:  BSF    x84.6
....................             write_eeprom(4,Tsecadop[0]);write_eeprom(5,Tsecadop[1]); 
08EFC:  CLRF   FAA
08EFE:  MOVLW  04
08F00:  MOVWF  FA9
08F02:  MOVFF  497,FA8
08F06:  BCF    FA6.6
08F08:  BCF    FA6.7
08F0A:  BSF    FA6.2
08F0C:  MOVF   FF2,W
08F0E:  MOVWF  00
08F10:  BCF    FF2.7
08F12:  MOVLB  F
08F14:  MOVLW  55
08F16:  MOVWF  FA7
08F18:  MOVLW  AA
08F1A:  MOVWF  FA7
08F1C:  BSF    FA6.1
08F1E:  BTFSC  FA6.1
08F20:  BRA    8F1E
08F22:  BCF    FA6.2
08F24:  MOVF   00,W
08F26:  IORWF  FF2,F
08F28:  CLRF   FAA
08F2A:  MOVLW  05
08F2C:  MOVWF  FA9
08F2E:  MOVFF  498,FA8
08F32:  BCF    FA6.6
08F34:  BCF    FA6.7
08F36:  BSF    FA6.2
08F38:  MOVF   FF2,W
08F3A:  MOVWF  00
08F3C:  BCF    FF2.7
08F3E:  MOVLW  55
08F40:  MOVWF  FA7
08F42:  MOVLW  AA
08F44:  MOVWF  FA7
08F46:  BSF    FA6.1
08F48:  BTFSC  FA6.1
08F4A:  BRA    8F48
08F4C:  BCF    FA6.2
08F4E:  MOVF   00,W
08F50:  IORWF  FF2,F
....................             write_eeprom(6,Tsecadop[2]);write_eeprom(7,Tsecadop[3]); 
08F52:  CLRF   FAA
08F54:  MOVLW  06
08F56:  MOVWF  FA9
08F58:  MOVFF  499,FA8
08F5C:  BCF    FA6.6
08F5E:  BCF    FA6.7
08F60:  BSF    FA6.2
08F62:  MOVFF  FF2,00
08F66:  BCF    FF2.7
08F68:  MOVLW  55
08F6A:  MOVWF  FA7
08F6C:  MOVLW  AA
08F6E:  MOVWF  FA7
08F70:  BSF    FA6.1
08F72:  BTFSC  FA6.1
08F74:  BRA    8F72
08F76:  BCF    FA6.2
08F78:  MOVF   00,W
08F7A:  IORWF  FF2,F
08F7C:  CLRF   FAA
08F7E:  MOVLW  07
08F80:  MOVWF  FA9
08F82:  MOVFF  49A,FA8
08F86:  BCF    FA6.6
08F88:  BCF    FA6.7
08F8A:  BSF    FA6.2
08F8C:  MOVFF  FF2,00
08F90:  BCF    FF2.7
08F92:  MOVLW  55
08F94:  MOVWF  FA7
08F96:  MOVLW  AA
08F98:  MOVWF  FA7
08F9A:  BSF    FA6.1
08F9C:  BTFSC  FA6.1
08F9E:  BRA    8F9C
08FA0:  BCF    FA6.2
08FA2:  MOVF   00,W
08FA4:  IORWF  FF2,F
08FA6:  MOVLB  6
....................          } 
....................      } 
.................... //_--------------------------------------------------------------------------------------------------------------------------------------------------------     
....................  
.................... //_--------------------------------------------------------------------------------------------------------------------------------------------------------       
....................       if(Menu==13){ // Menu de Temperatura 
08FA8:  MOVF   xFC,W
08FAA:  SUBLW  0D
08FAC:  BTFSS  FD8.2
08FAE:  BRA    90F2
....................       
....................       if(visual==1) 
08FB0:  MOVLB  4
08FB2:  BTFSS  x84.6
08FB4:  BRA    901C
....................       { 
....................          glcd_fillScreen(OFF); 
08FB6:  MOVLB  7
08FB8:  CLRF   x52
08FBA:  MOVLB  0
08FBC:  CALL   1B9A
....................          strcpy(Menus.Letra,"Temperatura"); 
08FC0:  MOVLW  04
08FC2:  MOVWF  FEA
08FC4:  MOVLW  18
08FC6:  MOVWF  FE9
08FC8:  MOVFF  FF2,751
08FCC:  BCF    FF2.7
08FCE:  MOVLW  00
08FD0:  CALL   0C98
08FD4:  TBLRD*-
08FD6:  TBLRD*+
08FD8:  MOVF   FF5,W
08FDA:  MOVWF  FEE
08FDC:  IORLW  00
08FDE:  BNZ   8FD6
08FE0:  MOVLB  7
08FE2:  BTFSC  x51.7
08FE4:  BSF    FF2.7
....................          displayMenu(Menus.Letra,0,0,1,2); 
08FE6:  MOVLW  04
08FE8:  MOVWF  x52
08FEA:  MOVLW  18
08FEC:  MOVWF  x51
08FEE:  CLRF   x53
08FF0:  CLRF   x54
08FF2:  MOVLW  01
08FF4:  MOVWF  x55
08FF6:  MOVLW  02
08FF8:  MOVWF  x56
08FFA:  MOVLB  0
08FFC:  CALL   21C8
....................           
....................          displayTiempo(Setpoint,30,30,0,3); 
09000:  MOVFF  702,751
09004:  MOVLW  1E
09006:  MOVLB  7
09008:  MOVWF  x52
0900A:  MOVWF  x53
0900C:  CLRF   x54
0900E:  MOVLW  03
09010:  MOVWF  x55
09012:  MOVLB  0
09014:  CALL   3998
....................           
....................          visual=0; 
09018:  MOVLB  4
0901A:  BCF    x84.6
....................       } 
....................        
....................          if(UP)//Si oprime hacia arriba 
0901C:  BSF    F92.4
0901E:  BTFSC  F80.4
09020:  BRA    9056
....................          {   
....................             if(Setpoint<134) 
09022:  MOVLB  7
09024:  MOVF   x02,W
09026:  SUBLW  85
09028:  BNC   9058
....................             { 
....................                if(Setpoint<100) 
0902A:  MOVF   x02,W
0902C:  SUBLW  63
0902E:  BNC   9044
....................                { 
....................                   Setpoint=100;delay_ms(100);visual=1; 
09030:  MOVLW  64
09032:  MOVWF  x02
09034:  MOVWF  x57
09036:  MOVLB  0
09038:  CALL   16B6
0903C:  MOVLB  4
0903E:  BSF    x84.6
....................                } 
....................                else 
09040:  BRA    9056
09042:  MOVLB  7
....................                { 
....................                   delay_ms(30);Setpoint++;visual=1; 
09044:  MOVLW  1E
09046:  MOVWF  x57
09048:  MOVLB  0
0904A:  CALL   16B6
0904E:  MOVLB  7
09050:  INCF   x02,F
09052:  MOVLB  4
09054:  BSF    x84.6
09056:  MOVLB  7
....................                } 
....................             } 
....................          } 
....................                 
....................          if(DOWN)//Si oprime hacia abajo 
09058:  BSF    F92.5
0905A:  BTFSC  F80.5
0905C:  BRA    9078
....................          {   
....................             if(Setpoint>105) 
0905E:  MOVF   x02,W
09060:  SUBLW  69
09062:  BC    9078
....................             { 
....................                delay_ms(30);Setpoint--;visual=1;      
09064:  MOVLW  1E
09066:  MOVWF  x57
09068:  MOVLB  0
0906A:  CALL   16B6
0906E:  MOVLB  7
09070:  DECF   x02,F
09072:  MOVLB  4
09074:  BSF    x84.6
09076:  MOVLB  7
....................             } 
....................          } 
....................                 
....................          if(RIGHT)//Si oprime SET 
09078:  BSF    F96.0
0907A:  BTFSC  F84.0
0907C:  BRA    908E
....................          {   
....................             delay_ms(30);visual=1; 
0907E:  MOVLW  1E
09080:  MOVWF  x57
09082:  MOVLB  0
09084:  CALL   16B6
09088:  MOVLB  4
0908A:  BSF    x84.6
0908C:  MOVLB  7
....................          }  
....................                    
....................          if(LEFT)//Si oprime boton de Toma. 
0908E:  BSF    F96.1
09090:  BTFSC  F84.1
09092:  BRA    90F0
....................          { 
....................             delay_ms(700);Menu=8;glcd_fillscreen(OFF);Opcion=1;visual=1; 
09094:  MOVLW  04
09096:  MOVWF  x51
09098:  MOVLW  AF
0909A:  MOVWF  x57
0909C:  MOVLB  0
0909E:  CALL   16B6
090A2:  MOVLB  7
090A4:  DECFSZ x51,F
090A6:  BRA    9098
090A8:  MOVLW  08
090AA:  MOVLB  6
090AC:  MOVWF  xFC
090AE:  MOVLB  7
090B0:  CLRF   x52
090B2:  MOVLB  0
090B4:  CALL   1B9A
090B8:  MOVLW  01
090BA:  MOVLB  7
090BC:  MOVWF  x05
090BE:  MOVLB  4
090C0:  BSF    x84.6
....................             write_eeprom(8,Setpoint); 
090C2:  CLRF   FAA
090C4:  MOVLW  08
090C6:  MOVWF  FA9
090C8:  MOVFF  702,FA8
090CC:  BCF    FA6.6
090CE:  BCF    FA6.7
090D0:  BSF    FA6.2
090D2:  MOVF   FF2,W
090D4:  MOVWF  00
090D6:  BCF    FF2.7
090D8:  MOVLB  F
090DA:  MOVLW  55
090DC:  MOVWF  FA7
090DE:  MOVLW  AA
090E0:  MOVWF  FA7
090E2:  BSF    FA6.1
090E4:  BTFSC  FA6.1
090E6:  BRA    90E4
090E8:  BCF    FA6.2
090EA:  MOVF   00,W
090EC:  IORWF  FF2,F
090EE:  MOVLB  7
090F0:  MOVLB  6
....................          } 
....................      } 
.................... //_--------------------------------------------------------------------------------------------------------------------------------------------------------     
....................  
.................... //_--------------------------------------------------------------------------------------------------------------------------------------------------------       
....................       if(Menu==14){ // Menu de Desfogue 
090F2:  MOVF   xFC,W
090F4:  SUBLW  0E
090F6:  BTFSS  FD8.2
090F8:  BRA    93EE
....................       if(Nivel>6) 
090FA:  MOVLB  7
090FC:  MOVF   x12,F
090FE:  BNZ   9106
09100:  MOVF   x11,W
09102:  SUBLW  06
09104:  BC    910C
....................          Nivel=6; 
09106:  CLRF   x12
09108:  MOVLW  06
0910A:  MOVWF  x11
....................           
....................       if(visual==1) 
0910C:  MOVLB  4
0910E:  BTFSS  x84.6
09110:  BRA    9172
....................       {          
....................          strcpy(Menus.Letra," Desfogue"); 
09112:  MOVLW  04
09114:  MOVWF  FEA
09116:  MOVLW  18
09118:  MOVWF  FE9
0911A:  MOVFF  FF2,751
0911E:  BCF    FF2.7
09120:  MOVLW  00
09122:  MOVLB  0
09124:  CALL   0F44
09128:  TBLRD*-
0912A:  TBLRD*+
0912C:  MOVF   FF5,W
0912E:  MOVWF  FEE
09130:  IORLW  00
09132:  BNZ   912A
09134:  MOVLB  7
09136:  BTFSC  x51.7
09138:  BSF    FF2.7
....................          displayMenu(Menus.Letra,0,0,1,2); 
0913A:  MOVLW  04
0913C:  MOVWF  x52
0913E:  MOVLW  18
09140:  MOVWF  x51
09142:  CLRF   x53
09144:  CLRF   x54
09146:  MOVLW  01
09148:  MOVWF  x55
0914A:  MOVLW  02
0914C:  MOVWF  x56
0914E:  MOVLB  0
09150:  CALL   21C8
....................           
....................          displayTiempo(Nivel,50,40,0,2); 
09154:  MOVFF  711,751
09158:  MOVLW  32
0915A:  MOVLB  7
0915C:  MOVWF  x52
0915E:  MOVLW  28
09160:  MOVWF  x53
09162:  CLRF   x54
09164:  MOVLW  02
09166:  MOVWF  x55
09168:  MOVLB  0
0916A:  CALL   3998
....................           
....................          visual=0; 
0916E:  MOVLB  4
09170:  BCF    x84.6
....................       } 
....................        
....................        
....................          if(UP)//Si oprime hacia arriba 
09172:  BSF    F92.4
09174:  BTFSC  F80.4
09176:  BRA    919A
....................          {   
....................             if(Nivel<6) 
09178:  MOVLB  7
0917A:  MOVF   x12,F
0917C:  BNZ   919C
0917E:  MOVF   x11,W
09180:  SUBLW  05
09182:  BNC   919C
....................             { 
....................                delay_ms(30);Nivel++;visual=1; 
09184:  MOVLW  1E
09186:  MOVWF  x57
09188:  MOVLB  0
0918A:  CALL   16B6
0918E:  MOVLB  7
09190:  INCF   x11,F
09192:  BTFSC  FD8.2
09194:  INCF   x12,F
09196:  MOVLB  4
09198:  BSF    x84.6
0919A:  MOVLB  7
....................             } 
....................          } 
....................                 
....................          if(DOWN)//Si oprime hacia abajo 
0919C:  BSF    F92.5
0919E:  BTFSC  F80.5
091A0:  BRA    91C6
....................          {   
....................             if(Nivel>1) 
091A2:  MOVF   x12,F
091A4:  BNZ   91AC
091A6:  MOVF   x11,W
091A8:  SUBLW  01
091AA:  BC    91C6
....................             { 
....................                delay_ms(30);Nivel--;visual=1;      
091AC:  MOVLW  1E
091AE:  MOVWF  x57
091B0:  MOVLB  0
091B2:  CALL   16B6
091B6:  MOVLB  7
091B8:  MOVF   x11,W
091BA:  BTFSC  FD8.2
091BC:  DECF   x12,F
091BE:  DECF   x11,F
091C0:  MOVLB  4
091C2:  BSF    x84.6
091C4:  MOVLB  7
....................             } 
....................          } 
....................           
....................          if(desfoguelento==1) 
091C6:  MOVLB  4
091C8:  BTFSS  x84.7
091CA:  BRA    9370
....................          { 
....................             if(RIGHT)//Si oprime SET 
091CC:  BSF    F96.0
091CE:  BTFSC  F84.0
091D0:  BRA    936E
....................             {   
....................                write_eeprom(9,Nivel); 
091D2:  CLRF   FAA
091D4:  MOVLW  09
091D6:  MOVWF  FA9
091D8:  MOVFF  711,FA8
091DC:  BCF    FA6.6
091DE:  BCF    FA6.7
091E0:  BSF    FA6.2
091E2:  MOVF   FF2,W
091E4:  MOVWF  00
091E6:  BCF    FF2.7
091E8:  MOVLB  F
091EA:  MOVLW  55
091EC:  MOVWF  FA7
091EE:  MOVLW  AA
091F0:  MOVWF  FA7
091F2:  BSF    FA6.1
091F4:  BTFSC  FA6.1
091F6:  BRA    91F4
091F8:  BCF    FA6.2
091FA:  MOVF   00,W
091FC:  IORWF  FF2,F
....................                Menu=20;glcd_rect(15, 18, 30, 53, NO, ON);tiempo_secado=0;glcd_fillScreen(OFF); 
091FE:  MOVLW  14
09200:  MOVLB  6
09202:  MOVWF  xFC
09204:  MOVLW  0F
09206:  MOVLB  7
09208:  MOVWF  x67
0920A:  MOVLW  12
0920C:  MOVWF  x68
0920E:  MOVLW  1E
09210:  MOVWF  x69
09212:  MOVLW  35
09214:  MOVWF  x6A
09216:  CLRF   x6B
09218:  MOVLW  01
0921A:  MOVWF  x6C
0921C:  MOVLB  0
0921E:  CALL   2106
09222:  MOVLB  7
09224:  CLRF   x07
09226:  CLRF   x52
09228:  MOVLB  0
0922A:  CALL   1B9A
....................                strcpy(Menus.Letra,"Calentando"); 
0922E:  MOVLW  04
09230:  MOVWF  FEA
09232:  MOVLW  18
09234:  MOVWF  FE9
09236:  MOVFF  FF2,751
0923A:  BCF    FF2.7
0923C:  MOVLW  00
0923E:  CALL   0F6C
09242:  TBLRD*-
09244:  TBLRD*+
09246:  MOVF   FF5,W
09248:  MOVWF  FEE
0924A:  IORLW  00
0924C:  BNZ   9244
0924E:  MOVLB  7
09250:  BTFSC  x51.7
09252:  BSF    FF2.7
....................                displayMenu(Menus.Letra,0,55,2,1); 
09254:  MOVLW  04
09256:  MOVWF  x52
09258:  MOVLW  18
0925A:  MOVWF  x51
0925C:  CLRF   x53
0925E:  MOVLW  37
09260:  MOVWF  x54
09262:  MOVLW  02
09264:  MOVWF  x55
09266:  MOVLW  01
09268:  MOVWF  x56
0926A:  MOVLB  0
0926C:  CALL   21C8
....................                CuadroCalentando(ON); 
09270:  MOVLW  01
09272:  MOVLB  7
09274:  MOVWF  x51
09276:  MOVLB  0
09278:  CALL   3730
....................                glcd_imagen(5); 
0927C:  MOVLW  05
0927E:  MOVLB  7
09280:  MOVWF  x51
09282:  MOVLB  0
09284:  CALL   3674
....................                strcpy(Menus.Letra,"T est:");displayMenu(Menus.Letra,0,0,2,1); 
09288:  MOVLW  04
0928A:  MOVWF  FEA
0928C:  MOVLW  18
0928E:  MOVWF  FE9
09290:  MOVFF  FF2,751
09294:  BCF    FF2.7
09296:  MOVLW  00
09298:  CALL   0F96
0929C:  TBLRD*-
0929E:  TBLRD*+
092A0:  MOVF   FF5,W
092A2:  MOVWF  FEE
092A4:  IORLW  00
092A6:  BNZ   929E
092A8:  MOVLB  7
092AA:  BTFSC  x51.7
092AC:  BSF    FF2.7
092AE:  MOVLW  04
092B0:  MOVWF  x52
092B2:  MOVLW  18
092B4:  MOVWF  x51
092B6:  CLRF   x53
092B8:  CLRF   x54
092BA:  MOVLW  02
092BC:  MOVWF  x55
092BE:  MOVLW  01
092C0:  MOVWF  x56
092C2:  MOVLB  0
092C4:  CALL   21C8
....................                strcpy(Menus.Letra,"T sec:");displayMenu(Menus.Letra,0,8,2,1); 
092C8:  MOVLW  04
092CA:  MOVWF  FEA
092CC:  MOVLW  18
092CE:  MOVWF  FE9
092D0:  MOVFF  FF2,751
092D4:  BCF    FF2.7
092D6:  MOVLW  00
092D8:  CALL   0FBC
092DC:  TBLRD*-
092DE:  TBLRD*+
092E0:  MOVF   FF5,W
092E2:  MOVWF  FEE
092E4:  IORLW  00
092E6:  BNZ   92DE
092E8:  MOVLB  7
092EA:  BTFSC  x51.7
092EC:  BSF    FF2.7
092EE:  MOVLW  04
092F0:  MOVWF  x52
092F2:  MOVLW  18
092F4:  MOVWF  x51
092F6:  CLRF   x53
092F8:  MOVLW  08
092FA:  MOVWF  x54
092FC:  MOVLW  02
092FE:  MOVWF  x55
09300:  MOVLW  01
09302:  MOVWF  x56
09304:  MOVLB  0
09306:  CALL   21C8
....................                glcd_circle(95,40,2,NO,ON); 
0930A:  MOVLW  5F
0930C:  MOVLB  7
0930E:  MOVWF  x51
09310:  MOVLW  28
09312:  MOVWF  x52
09314:  MOVLW  02
09316:  MOVWF  x53
09318:  CLRF   x54
0931A:  MOVLW  01
0931C:  MOVWF  x55
0931E:  MOVLB  0
09320:  CALL   3B3E
....................                strcpy(Menus.Letra,"C");displayMenu(Menus.Letra,102,40,2,2); 
09324:  MOVLW  04
09326:  MOVWF  FEA
09328:  MOVLW  18
0932A:  MOVWF  FE9
0932C:  MOVFF  FF2,751
09330:  BCF    FF2.7
09332:  MOVLW  00
09334:  CALL   0FE2
09338:  TBLRD*-
0933A:  TBLRD*+
0933C:  MOVF   FF5,W
0933E:  MOVWF  FEE
09340:  IORLW  00
09342:  BNZ   933A
09344:  MOVLB  7
09346:  BTFSC  x51.7
09348:  BSF    FF2.7
0934A:  MOVLW  04
0934C:  MOVWF  x52
0934E:  MOVLW  18
09350:  MOVWF  x51
09352:  MOVLW  66
09354:  MOVWF  x53
09356:  MOVLW  28
09358:  MOVWF  x54
0935A:  MOVLW  02
0935C:  MOVWF  x55
0935E:  MOVWF  x56
09360:  MOVLB  0
09362:  CALL   21C8
....................                MuestraTiemposProgramados(); 
09366:  CALL   3D68
....................                IniciaCiclo=ON; 
0936A:  MOVLB  4
0936C:  BSF    x83.0
....................             }       
....................          } 
....................          else 
0936E:  BRA    93EC
....................          { 
....................             if(LEFT)//Si oprime boton de Toma. 
09370:  BSF    F96.1
09372:  BTFSC  F84.1
09374:  BRA    93EC
....................             { 
....................                if(Nivel<6) 
09376:  MOVLB  7
09378:  MOVF   x12,F
0937A:  BNZ   938A
0937C:  MOVF   x11,W
0937E:  SUBLW  05
09380:  BNC   938A
....................                { 
....................                   desfoguelento=1; 
09382:  MOVLB  4
09384:  BSF    x84.7
....................                } 
....................                else 
09386:  BRA    938E
09388:  MOVLB  7
....................                { 
....................                   desfoguelento=0; 
0938A:  MOVLB  4
0938C:  BCF    x84.7
....................                } 
....................                delay_ms(700);Menu=8;glcd_fillscreen(OFF);Opcion=1;visual=1; 
0938E:  MOVLW  04
09390:  MOVLB  7
09392:  MOVWF  x51
09394:  MOVLW  AF
09396:  MOVWF  x57
09398:  MOVLB  0
0939A:  CALL   16B6
0939E:  MOVLB  7
093A0:  DECFSZ x51,F
093A2:  BRA    9394
093A4:  MOVLW  08
093A6:  MOVLB  6
093A8:  MOVWF  xFC
093AA:  MOVLB  7
093AC:  CLRF   x52
093AE:  MOVLB  0
093B0:  CALL   1B9A
093B4:  MOVLW  01
093B6:  MOVLB  7
093B8:  MOVWF  x05
093BA:  MOVLB  4
093BC:  BSF    x84.6
....................                write_eeprom(9,Nivel); 
093BE:  CLRF   FAA
093C0:  MOVLW  09
093C2:  MOVWF  FA9
093C4:  MOVFF  711,FA8
093C8:  BCF    FA6.6
093CA:  BCF    FA6.7
093CC:  BSF    FA6.2
093CE:  MOVF   FF2,W
093D0:  MOVWF  00
093D2:  BCF    FF2.7
093D4:  MOVLB  F
093D6:  MOVLW  55
093D8:  MOVWF  FA7
093DA:  MOVLW  AA
093DC:  MOVWF  FA7
093DE:  BSF    FA6.1
093E0:  BTFSC  FA6.1
093E2:  BRA    93E0
093E4:  BCF    FA6.2
093E6:  MOVF   00,W
093E8:  IORWF  FF2,F
093EA:  MOVLB  4
093EC:  MOVLB  6
....................             } 
....................          } 
....................      } 
.................... //_--------------------------------------------------------------------------------------------------------------------------------------------------------     
....................  
.................... //_-------------------------------------------------------------------------------------------------------------------------------------------------------- 
....................       if(Menu==15){ //Menu de Continuar 
093EE:  MOVF   xFC,W
093F0:  SUBLW  0F
093F2:  BTFSS  FD8.2
093F4:  BRA    9730
....................        
....................       if(visual==1) 
093F6:  MOVLB  4
093F8:  BTFSS  x84.6
093FA:  BRA    9560
....................       { 
....................          strcpy(Menus.Letra,"Continuar"); 
093FC:  MOVLW  04
093FE:  MOVWF  FEA
09400:  MOVLW  18
09402:  MOVWF  FE9
09404:  MOVFF  FF2,751
09408:  BCF    FF2.7
0940A:  MOVLW  00
0940C:  MOVLB  0
0940E:  CALL   0CF2
09412:  TBLRD*-
09414:  TBLRD*+
09416:  MOVF   FF5,W
09418:  MOVWF  FEE
0941A:  IORLW  00
0941C:  BNZ   9414
0941E:  MOVLB  7
09420:  BTFSC  x51.7
09422:  BSF    FF2.7
....................          displayMenu(Menus.Letra,0,0,1,2); 
09424:  MOVLW  04
09426:  MOVWF  x52
09428:  MOVLW  18
0942A:  MOVWF  x51
0942C:  CLRF   x53
0942E:  CLRF   x54
09430:  MOVLW  01
09432:  MOVWF  x55
09434:  MOVLW  02
09436:  MOVWF  x56
09438:  MOVLB  0
0943A:  CALL   21C8
....................           
....................          if(Opcion==2) 
0943E:  MOVLB  7
09440:  MOVF   x05,W
09442:  SUBLW  02
09444:  BNZ   94D0
....................          {strcpy(Menus.Letra,"SI"); 
09446:  MOVLW  04
09448:  MOVWF  FEA
0944A:  MOVLW  18
0944C:  MOVWF  FE9
0944E:  MOVFF  FF2,751
09452:  BCF    FF2.7
09454:  MOVLW  00
09456:  MOVLB  0
09458:  CALL   1002
0945C:  TBLRD*-
0945E:  TBLRD*+
09460:  MOVF   FF5,W
09462:  MOVWF  FEE
09464:  IORLW  00
09466:  BNZ   945E
09468:  MOVLB  7
0946A:  BTFSC  x51.7
0946C:  BSF    FF2.7
....................          displayMenu(Menus.Letra,50,25,1,2); 
0946E:  MOVLW  04
09470:  MOVWF  x52
09472:  MOVLW  18
09474:  MOVWF  x51
09476:  MOVLW  32
09478:  MOVWF  x53
0947A:  MOVLW  19
0947C:  MOVWF  x54
0947E:  MOVLW  01
09480:  MOVWF  x55
09482:  MOVLW  02
09484:  MOVWF  x56
09486:  MOVLB  0
09488:  CALL   21C8
....................          strcpy(Menus.Letra,"NO"); 
0948C:  MOVLW  04
0948E:  MOVWF  FEA
09490:  MOVLW  18
09492:  MOVWF  FE9
09494:  MOVFF  FF2,751
09498:  BCF    FF2.7
0949A:  MOVLW  00
0949C:  CALL   1024
094A0:  TBLRD*-
094A2:  TBLRD*+
094A4:  MOVF   FF5,W
094A6:  MOVWF  FEE
094A8:  IORLW  00
094AA:  BNZ   94A2
094AC:  MOVLB  7
094AE:  BTFSC  x51.7
094B0:  BSF    FF2.7
....................          displayMenu(Menus.Letra,50,45,0,2); 
094B2:  MOVLW  04
094B4:  MOVWF  x52
094B6:  MOVLW  18
094B8:  MOVWF  x51
094BA:  MOVLW  32
094BC:  MOVWF  x53
094BE:  MOVLW  2D
094C0:  MOVWF  x54
094C2:  CLRF   x55
094C4:  MOVLW  02
094C6:  MOVWF  x56
094C8:  MOVLB  0
094CA:  CALL   21C8
094CE:  MOVLB  7
....................          } 
....................          if(Opcion==1) 
094D0:  DECFSZ x05,W
094D2:  BRA    955C
....................          {strcpy(Menus.Letra,"SI"); 
094D4:  MOVLW  04
094D6:  MOVWF  FEA
094D8:  MOVLW  18
094DA:  MOVWF  FE9
094DC:  MOVFF  FF2,751
094E0:  BCF    FF2.7
094E2:  MOVLW  00
094E4:  MOVLB  0
094E6:  CALL   1002
094EA:  TBLRD*-
094EC:  TBLRD*+
094EE:  MOVF   FF5,W
094F0:  MOVWF  FEE
094F2:  IORLW  00
094F4:  BNZ   94EC
094F6:  MOVLB  7
094F8:  BTFSC  x51.7
094FA:  BSF    FF2.7
....................          displayMenu(Menus.Letra,50,25,0,2); 
094FC:  MOVLW  04
094FE:  MOVWF  x52
09500:  MOVLW  18
09502:  MOVWF  x51
09504:  MOVLW  32
09506:  MOVWF  x53
09508:  MOVLW  19
0950A:  MOVWF  x54
0950C:  CLRF   x55
0950E:  MOVLW  02
09510:  MOVWF  x56
09512:  MOVLB  0
09514:  CALL   21C8
....................          strcpy(Menus.Letra,"NO"); 
09518:  MOVLW  04
0951A:  MOVWF  FEA
0951C:  MOVLW  18
0951E:  MOVWF  FE9
09520:  MOVFF  FF2,751
09524:  BCF    FF2.7
09526:  MOVLW  00
09528:  CALL   1024
0952C:  TBLRD*-
0952E:  TBLRD*+
09530:  MOVF   FF5,W
09532:  MOVWF  FEE
09534:  IORLW  00
09536:  BNZ   952E
09538:  MOVLB  7
0953A:  BTFSC  x51.7
0953C:  BSF    FF2.7
....................          displayMenu(Menus.Letra,50,45,1,2); 
0953E:  MOVLW  04
09540:  MOVWF  x52
09542:  MOVLW  18
09544:  MOVWF  x51
09546:  MOVLW  32
09548:  MOVWF  x53
0954A:  MOVLW  2D
0954C:  MOVWF  x54
0954E:  MOVLW  01
09550:  MOVWF  x55
09552:  MOVLW  02
09554:  MOVWF  x56
09556:  MOVLB  0
09558:  CALL   21C8
....................          } 
....................          visual=0; 
0955C:  MOVLB  4
0955E:  BCF    x84.6
....................       } 
....................        
....................          
....................       if(UP)//Si oprime hacia arriba 
09560:  BSF    F92.4
09562:  BTFSC  F80.4
09564:  BRA    9574
....................       { 
....................          if(Opcion<2) 
09566:  MOVLB  7
09568:  MOVF   x05,W
0956A:  SUBLW  01
0956C:  BNC   9570
....................          { 
....................             Opcion++; 
0956E:  INCF   x05,F
....................          } 
....................          visual=1; 
09570:  MOVLB  4
09572:  BSF    x84.6
....................       } 
....................              
....................       if(DOWN)//Si oprime hacia abajo 
09574:  BSF    F92.5
09576:  BTFSC  F80.5
09578:  BRA    9588
....................       {   
....................          if(Opcion>1) 
0957A:  MOVLB  7
0957C:  MOVF   x05,W
0957E:  SUBLW  01
09580:  BC    9584
....................          { 
....................             Opcion--; 
09582:  DECF   x05,F
....................          }   
....................          visual=1; 
09584:  MOVLB  4
09586:  BSF    x84.6
....................       } 
....................              
....................       if(RIGHT)//Si oprime SET 
09588:  BSF    F96.0
0958A:  BTFSC  F84.0
0958C:  BRA    96F8
....................       {   
....................          if(Opcion==2) 
0958E:  MOVLB  7
09590:  MOVF   x05,W
09592:  SUBLW  02
09594:  BTFSS  FD8.2
09596:  BRA    96CA
....................          { 
....................             Menu=20;glcd_rect(15, 18, 30, 53, NO, ON);tiempo_secado=0;enable_interrupts(global);glcd_fillScreen(OFF); 
09598:  MOVLW  14
0959A:  MOVLB  6
0959C:  MOVWF  xFC
0959E:  MOVLW  0F
095A0:  MOVLB  7
095A2:  MOVWF  x67
095A4:  MOVLW  12
095A6:  MOVWF  x68
095A8:  MOVLW  1E
095AA:  MOVWF  x69
095AC:  MOVLW  35
095AE:  MOVWF  x6A
095B0:  CLRF   x6B
095B2:  MOVLW  01
095B4:  MOVWF  x6C
095B6:  MOVLB  0
095B8:  CALL   2106
095BC:  MOVLB  7
095BE:  CLRF   x07
095C0:  MOVLW  C0
095C2:  IORWF  FF2,F
095C4:  CLRF   x52
095C6:  MOVLB  0
095C8:  CALL   1B9A
....................             strcpy(Menus.Letra,"Calentando"); 
095CC:  MOVLW  04
095CE:  MOVWF  FEA
095D0:  MOVLW  18
095D2:  MOVWF  FE9
095D4:  MOVFF  FF2,751
095D8:  BCF    FF2.7
095DA:  MOVLW  00
095DC:  CALL   0F6C
095E0:  TBLRD*-
095E2:  TBLRD*+
095E4:  MOVF   FF5,W
095E6:  MOVWF  FEE
095E8:  IORLW  00
095EA:  BNZ   95E2
095EC:  MOVLB  7
095EE:  BTFSC  x51.7
095F0:  BSF    FF2.7
....................             displayMenu(Menus.Letra,0,55,2,1); 
095F2:  MOVLW  04
095F4:  MOVWF  x52
095F6:  MOVLW  18
095F8:  MOVWF  x51
095FA:  CLRF   x53
095FC:  MOVLW  37
095FE:  MOVWF  x54
09600:  MOVLW  02
09602:  MOVWF  x55
09604:  MOVLW  01
09606:  MOVWF  x56
09608:  MOVLB  0
0960A:  CALL   21C8
....................             CuadroCalentando(ON); 
0960E:  MOVLW  01
09610:  MOVLB  7
09612:  MOVWF  x51
09614:  MOVLB  0
09616:  CALL   3730
....................             glcd_imagen(5); 
0961A:  MOVLW  05
0961C:  MOVLB  7
0961E:  MOVWF  x51
09620:  MOVLB  0
09622:  CALL   3674
....................             strcpy(Menus.Letra,"T est:");displayMenu(Menus.Letra,0,0,2,1); 
09626:  MOVLW  04
09628:  MOVWF  FEA
0962A:  MOVLW  18
0962C:  MOVWF  FE9
0962E:  MOVFF  FF2,751
09632:  BCF    FF2.7
09634:  MOVLW  00
09636:  CALL   0F96
0963A:  TBLRD*-
0963C:  TBLRD*+
0963E:  MOVF   FF5,W
09640:  MOVWF  FEE
09642:  IORLW  00
09644:  BNZ   963C
09646:  MOVLB  7
09648:  BTFSC  x51.7
0964A:  BSF    FF2.7
0964C:  MOVLW  04
0964E:  MOVWF  x52
09650:  MOVLW  18
09652:  MOVWF  x51
09654:  CLRF   x53
09656:  CLRF   x54
09658:  MOVLW  02
0965A:  MOVWF  x55
0965C:  MOVLW  01
0965E:  MOVWF  x56
09660:  MOVLB  0
09662:  CALL   21C8
....................             strcpy(Menus.Letra,"T sec:");displayMenu(Menus.Letra,0,8,2,1); 
09666:  MOVLW  04
09668:  MOVWF  FEA
0966A:  MOVLW  18
0966C:  MOVWF  FE9
0966E:  MOVFF  FF2,751
09672:  BCF    FF2.7
09674:  MOVLW  00
09676:  CALL   0FBC
0967A:  TBLRD*-
0967C:  TBLRD*+
0967E:  MOVF   FF5,W
09680:  MOVWF  FEE
09682:  IORLW  00
09684:  BNZ   967C
09686:  MOVLB  7
09688:  BTFSC  x51.7
0968A:  BSF    FF2.7
0968C:  MOVLW  04
0968E:  MOVWF  x52
09690:  MOVLW  18
09692:  MOVWF  x51
09694:  CLRF   x53
09696:  MOVLW  08
09698:  MOVWF  x54
0969A:  MOVLW  02
0969C:  MOVWF  x55
0969E:  MOVLW  01
096A0:  MOVWF  x56
096A2:  MOVLB  0
096A4:  CALL   21C8
....................             MuestraTiemposProgramados(); 
096A8:  CALL   3D68
....................             if(Nivel<6) 
096AC:  MOVLB  7
096AE:  MOVF   x12,F
096B0:  BNZ   96C0
096B2:  MOVF   x11,W
096B4:  SUBLW  05
096B6:  BNC   96C0
....................                { 
....................                   desfoguelento=1; 
096B8:  MOVLB  4
096BA:  BSF    x84.7
....................                } 
....................                else 
096BC:  BRA    96C4
096BE:  MOVLB  7
....................                { 
....................                   desfoguelento=0; 
096C0:  MOVLB  4
096C2:  BCF    x84.7
....................                } 
....................                IniciaCiclo=ON; 
096C4:  BSF    x83.0
....................          } 
....................          else 
096C6:  BRA    96F8
096C8:  MOVLB  7
....................          { 
....................             delay_ms(700);Menu=8;glcd_fillscreen(OFF);Opcion=1;visual=1; 
096CA:  MOVLW  04
096CC:  MOVWF  x51
096CE:  MOVLW  AF
096D0:  MOVWF  x57
096D2:  MOVLB  0
096D4:  CALL   16B6
096D8:  MOVLB  7
096DA:  DECFSZ x51,F
096DC:  BRA    96CE
096DE:  MOVLW  08
096E0:  MOVLB  6
096E2:  MOVWF  xFC
096E4:  MOVLB  7
096E6:  CLRF   x52
096E8:  MOVLB  0
096EA:  CALL   1B9A
096EE:  MOVLW  01
096F0:  MOVLB  7
096F2:  MOVWF  x05
096F4:  MOVLB  4
096F6:  BSF    x84.6
....................          }          
....................       }  
....................                    
....................       if(LEFT)//Si oprime boton de Toma. 
096F8:  BSF    F96.1
096FA:  BTFSC  F84.1
096FC:  BRA    972E
....................       { 
....................          delay_ms(700);Menu=8;glcd_fillscreen(OFF);Opcion=1;visual=1; 
096FE:  MOVLW  04
09700:  MOVLB  7
09702:  MOVWF  x51
09704:  MOVLW  AF
09706:  MOVWF  x57
09708:  MOVLB  0
0970A:  CALL   16B6
0970E:  MOVLB  7
09710:  DECFSZ x51,F
09712:  BRA    9704
09714:  MOVLW  08
09716:  MOVLB  6
09718:  MOVWF  xFC
0971A:  MOVLB  7
0971C:  CLRF   x52
0971E:  MOVLB  0
09720:  CALL   1B9A
09724:  MOVLW  01
09726:  MOVLB  7
09728:  MOVWF  x05
0972A:  MOVLB  4
0972C:  BSF    x84.6
0972E:  MOVLB  6
....................       } 
....................      
....................      
....................     } 
.................... //_--------------------------------------------------------------------------------------------------------------------------------------------------------        
....................  
.................... //_--------------------------------------------------------------------------------------------------------------------------------------------------------     
....................    if(Menu==20){ // Este es el menu de cuando el proceso se inicio. 
09730:  MOVF   xFC,W
09732:  SUBLW  14
09734:  BTFSS  FD8.2
09736:  GOTO   A2D6
....................     
....................    //Lectura_Esclavos(); 
....................     
....................    //Envio_Esclavos(); 
....................    // Nuevo Flujo de Programa con logica 2018 para ajustar ciclos de Pre-Vacio y de Vacio al final del ciclo//    
....................     
....................    if(RIGHT){ 
0973A:  BSF    F96.0
0973C:  BTFSC  F84.0
0973E:  BRA    9762
....................       glcd_init(ON); 
09740:  MOVLW  01
09742:  MOVLB  7
09744:  MOVWF  x51
09746:  MOVLB  0
09748:  CALL   1CAC
....................       delay_ms(1000); 
0974C:  MOVLW  04
0974E:  MOVLB  7
09750:  MOVWF  x51
09752:  MOVLW  FA
09754:  MOVWF  x57
09756:  MOVLB  0
09758:  CALL   16B6
0975C:  MOVLB  7
0975E:  DECFSZ x51,F
09760:  BRA    9752
....................    } 
....................     
....................    if(TiempoCiclo>5400){ 
09762:  MOVLB  4
09764:  MOVF   x86,W
09766:  SUBLW  14
09768:  BC    9778
0976A:  XORLW  FF
0976C:  BNZ   9774
0976E:  MOVF   x85,W
09770:  SUBLW  18
09772:  BC    9778
....................       AlarmaTiempoProlongado=ON; 
09774:  BSF    x82.0
....................    }else{ 
09776:  BRA    977A
....................       AlarmaTiempoProlongado=OFF; 
09778:  BCF    x82.0
....................    } 
....................     
....................    if(Temperatura>Setpoint+3.0){ 
0977A:  MOVLB  7
0977C:  CLRF   x58
0977E:  MOVFF  702,757
09782:  MOVLB  0
09784:  CALL   16DE
09788:  BCF    FD8.1
0978A:  MOVFF  03,759
0978E:  MOVFF  02,758
09792:  MOVFF  01,757
09796:  MOVFF  00,756
0979A:  MOVLB  7
0979C:  CLRF   x5D
0979E:  CLRF   x5C
097A0:  MOVLW  40
097A2:  MOVWF  x5B
097A4:  MOVLW  80
097A6:  MOVWF  x5A
097A8:  MOVLB  0
097AA:  CALL   1872
097AE:  MOVFF  03,755
097B2:  MOVFF  02,754
097B6:  MOVFF  01,753
097BA:  MOVFF  00,752
097BE:  MOVFF  6E3,759
097C2:  MOVFF  6E2,758
097C6:  MOVFF  6E1,757
097CA:  MOVFF  6E0,756
097CE:  CALL   1AEA
097D2:  BNC   97D8
....................       AlarmaSobreTemperatura=ON; 
097D4:  MOVLB  4
097D6:  BSF    x82.1
....................    } 
....................     
....................    if(TiempoLlenado>600){ 
097D8:  MOVLB  4
097DA:  MOVF   x88,W
097DC:  SUBLW  01
097DE:  BC    97EE
097E0:  XORLW  FF
097E2:  BNZ   97EA
097E4:  MOVF   x87,W
097E6:  SUBLW  58
097E8:  BC    97EE
....................       AlarmaLlenado=ON; 
097EA:  BSF    x82.2
....................    }else{ 
097EC:  BRA    97F0
....................       AlarmaLlenado=OFF; 
097EE:  BCF    x82.2
....................    } 
....................     
....................    if(!TERM){ 
097F0:  BSF    F93.7
097F2:  BTFSS  F81.7
097F4:  BRA    97FA
....................       AlarmaTermostato=ON; 
097F6:  BSF    x82.3
....................    }else{ 
097F8:  BRA    97FC
....................       AlarmaTermostato=OFF; 
097FA:  BCF    x82.3
....................    } 
....................     
....................    if(!DOOR){ 
097FC:  BSF    F96.2
097FE:  BTFSS  F84.2
09800:  BRA    9806
....................       AlarmaPuerta=ON; 
09802:  BSF    x82.4
....................    }else{ 
09804:  BRA    9808
....................       AlarmaPuerta=OFF; 
09806:  BCF    x82.4
....................    } 
....................  
....................    if(!STOP){ 
09808:  BSF    F93.6
0980A:  BTFSS  F81.6
0980C:  BRA    9810
....................       AlarmaEmergencia=ON; 
0980E:  BSF    x82.5
....................    } 
....................     
....................    if(AlarmaPuerta || AlarmaTermostato || AlarmaLlenado || AlarmaSobreTemperatura || AlarmaTiempoProlongado || AlarmaEmergencia){ 
09810:  BTFSC  x82.4
09812:  BRA    9828
09814:  BTFSC  x82.3
09816:  BRA    9828
09818:  BTFSC  x82.2
0981A:  BRA    9828
0981C:  BTFSC  x82.1
0981E:  BRA    9828
09820:  BTFSC  x82.0
09822:  BRA    9828
09824:  BTFSS  x82.5
09826:  BRA    9AF2
....................       if(AlarmaTiempoProlongado) // Alarma de Error de Tiempo: Error por exceso de tiempo de calentamiento. 
09828:  BTFSS  x82.0
0982A:  BRA    989C
....................       { 
....................          BorraStatus(); 
0982C:  MOVLB  0
0982E:  CALL   3EA8
....................          strcpy(Menus.Letra,"Error:ET01");displayMenu(Menus.Letra,0,55,2,1); 
09832:  MOVLW  04
09834:  MOVWF  FEA
09836:  MOVLW  18
09838:  MOVWF  FE9
0983A:  MOVFF  FF2,751
0983E:  BCF    FF2.7
09840:  MOVLW  00
09842:  CALL   1046
09846:  TBLRD*-
09848:  TBLRD*+
0984A:  MOVF   FF5,W
0984C:  MOVWF  FEE
0984E:  IORLW  00
09850:  BNZ   9848
09852:  MOVLB  7
09854:  BTFSC  x51.7
09856:  BSF    FF2.7
09858:  MOVLW  04
0985A:  MOVWF  x52
0985C:  MOVLW  18
0985E:  MOVWF  x51
09860:  CLRF   x53
09862:  MOVLW  37
09864:  MOVWF  x54
09866:  MOVLW  02
09868:  MOVWF  x55
0986A:  MOVLW  01
0986C:  MOVWF  x56
0986E:  MOVLB  0
09870:  CALL   21C8
....................          Desfogue_on; 
09874:  BCF    F8B.5
09876:  BCF    F94.5
....................          //AguaIn_off; 
....................          SSR_off; 
09878:  BSF    F8B.2
0987A:  BCF    F94.2
....................          CuadroCalentando(OFF); 
0987C:  MOVLB  7
0987E:  CLRF   x51
09880:  MOVLB  0
09882:  CALL   3730
....................          CuadroDesfogando(OFF); 
09886:  MOVLB  7
09888:  CLRF   x51
0988A:  MOVLB  0
0988C:  CALL   3EC6
....................          CuadroEsterilizando(OFF); 
09890:  MOVLB  7
09892:  CLRF   x51
09894:  MOVLB  0
09896:  CALL   3F08
0989A:  MOVLB  4
....................       } 
....................        
....................       if(AlarmaSobreTemperatura) // Alarma de Sobre Temperatura 
0989C:  BTFSS  x82.1
0989E:  BRA    9918
....................       { 
....................          BorraStatus(); 
098A0:  MOVLB  0
098A2:  CALL   3EA8
....................          tiempo_esterilizacion=0;tiempo_secado=0;          
098A6:  MOVLB  7
098A8:  CLRF   x06
098AA:  CLRF   x07
....................          strcpy(Menus.Letra,"Error:ET02");displayMenu(Menus.Letra,0,55,2,1); 
098AC:  MOVLW  04
098AE:  MOVWF  FEA
098B0:  MOVLW  18
098B2:  MOVWF  FE9
098B4:  MOVFF  FF2,751
098B8:  BCF    FF2.7
098BA:  MOVLW  00
098BC:  MOVLB  0
098BE:  CALL   1070
098C2:  TBLRD*-
098C4:  TBLRD*+
098C6:  MOVF   FF5,W
098C8:  MOVWF  FEE
098CA:  IORLW  00
098CC:  BNZ   98C4
098CE:  MOVLB  7
098D0:  BTFSC  x51.7
098D2:  BSF    FF2.7
098D4:  MOVLW  04
098D6:  MOVWF  x52
098D8:  MOVLW  18
098DA:  MOVWF  x51
098DC:  CLRF   x53
098DE:  MOVLW  37
098E0:  MOVWF  x54
098E2:  MOVLW  02
098E4:  MOVWF  x55
098E6:  MOVLW  01
098E8:  MOVWF  x56
098EA:  MOVLB  0
098EC:  CALL   21C8
....................          Desfogue_on; 
098F0:  BCF    F8B.5
098F2:  BCF    F94.5
....................          //AguaIn_off; 
....................          SSR_off; 
098F4:  BSF    F8B.2
098F6:  BCF    F94.2
....................          CuadroCalentando(OFF); 
098F8:  MOVLB  7
098FA:  CLRF   x51
098FC:  MOVLB  0
098FE:  CALL   3730
....................          CuadroDesfogando(OFF); 
09902:  MOVLB  7
09904:  CLRF   x51
09906:  MOVLB  0
09908:  CALL   3EC6
....................          CuadroEsterilizando(OFF); 
0990C:  MOVLB  7
0990E:  CLRF   x51
09910:  MOVLB  0
09912:  CALL   3F08
09916:  MOVLB  4
....................       } 
....................           
....................       if(AlarmaTermostato) // Alarma de Termostato 
09918:  BTFSS  x82.3
0991A:  BRA    9990
....................       { 
....................          BorraStatus(); 
0991C:  MOVLB  0
0991E:  CALL   3EA8
....................          tiempo_esterilizacion=0;tiempo_secado=0;          
09922:  MOVLB  7
09924:  CLRF   x06
09926:  CLRF   x07
....................          strcpy(Menus.Letra,"Error:EA02");displayMenu(Menus.Letra,0,55,2,1);           
09928:  MOVLW  04
0992A:  MOVWF  FEA
0992C:  MOVLW  18
0992E:  MOVWF  FE9
09930:  MOVFF  FF2,751
09934:  BCF    FF2.7
09936:  MOVLW  00
09938:  MOVLB  0
0993A:  CALL   109A
0993E:  TBLRD*-
09940:  TBLRD*+
09942:  MOVF   FF5,W
09944:  MOVWF  FEE
09946:  IORLW  00
09948:  BNZ   9940
0994A:  MOVLB  7
0994C:  BTFSC  x51.7
0994E:  BSF    FF2.7
09950:  MOVLW  04
09952:  MOVWF  x52
09954:  MOVLW  18
09956:  MOVWF  x51
09958:  CLRF   x53
0995A:  MOVLW  37
0995C:  MOVWF  x54
0995E:  MOVLW  02
09960:  MOVWF  x55
09962:  MOVLW  01
09964:  MOVWF  x56
09966:  MOVLB  0
09968:  CALL   21C8
....................          //AguaIn_off; 
....................          SSR_off; 
0996C:  BSF    F8B.2
0996E:  BCF    F94.2
....................          CuadroCalentando(OFF); 
09970:  MOVLB  7
09972:  CLRF   x51
09974:  MOVLB  0
09976:  CALL   3730
....................          CuadroDesfogando(OFF); 
0997A:  MOVLB  7
0997C:  CLRF   x51
0997E:  MOVLB  0
09980:  CALL   3EC6
....................          CuadroEsterilizando(OFF); 
09984:  MOVLB  7
09986:  CLRF   x51
09988:  MOVLB  0
0998A:  CALL   3F08
0998E:  MOVLB  4
....................       } 
....................        
....................       if(AlarmaLlenado) 
09990:  BTFSS  x82.2
09992:  BRA    9A08
....................       { 
....................          BorraStatus(); 
09994:  MOVLB  0
09996:  CALL   3EA8
....................          strcpy(Menus.Letra,"Error:EA01");displayMenu(Menus.Letra,0,55,2,1); 
0999A:  MOVLW  04
0999C:  MOVWF  FEA
0999E:  MOVLW  18
099A0:  MOVWF  FE9
099A2:  MOVFF  FF2,751
099A6:  BCF    FF2.7
099A8:  MOVLW  00
099AA:  CALL   10C4
099AE:  TBLRD*-
099B0:  TBLRD*+
099B2:  MOVF   FF5,W
099B4:  MOVWF  FEE
099B6:  IORLW  00
099B8:  BNZ   99B0
099BA:  MOVLB  7
099BC:  BTFSC  x51.7
099BE:  BSF    FF2.7
099C0:  MOVLW  04
099C2:  MOVWF  x52
099C4:  MOVLW  18
099C6:  MOVWF  x51
099C8:  CLRF   x53
099CA:  MOVLW  37
099CC:  MOVWF  x54
099CE:  MOVLW  02
099D0:  MOVWF  x55
099D2:  MOVLW  01
099D4:  MOVWF  x56
099D6:  MOVLB  0
099D8:  CALL   21C8
....................          Desfogue_off; 
099DC:  BSF    F8B.5
099DE:  BCF    F94.5
....................          AguaIn_off; 
099E0:  BSF    F8B.6
099E2:  BCF    F94.6
....................          SSR_off; 
099E4:  BSF    F8B.2
099E6:  BCF    F94.2
....................          CuadroCalentando(OFF); 
099E8:  MOVLB  7
099EA:  CLRF   x51
099EC:  MOVLB  0
099EE:  CALL   3730
....................          CuadroDesfogando(OFF); 
099F2:  MOVLB  7
099F4:  CLRF   x51
099F6:  MOVLB  0
099F8:  CALL   3EC6
....................          CuadroEsterilizando(OFF); 
099FC:  MOVLB  7
099FE:  CLRF   x51
09A00:  MOVLB  0
09A02:  CALL   3F08
09A06:  MOVLB  4
....................       } 
....................        
....................       if(AlarmaPuerta) 
09A08:  BTFSS  x82.4
09A0A:  BRA    9A78
....................       { 
....................          BorraStatus(); 
09A0C:  MOVLB  0
09A0E:  CALL   3EA8
....................          strcpy(Menus.Letra,"Puerta Abierta");displayMenu(Menus.Letra,0,55,2,1); 
09A12:  MOVLW  04
09A14:  MOVWF  FEA
09A16:  MOVLW  18
09A18:  MOVWF  FE9
09A1A:  MOVFF  FF2,751
09A1E:  BCF    FF2.7
09A20:  MOVLW  00
09A22:  CALL   10EE
09A26:  TBLRD*-
09A28:  TBLRD*+
09A2A:  MOVF   FF5,W
09A2C:  MOVWF  FEE
09A2E:  IORLW  00
09A30:  BNZ   9A28
09A32:  MOVLB  7
09A34:  BTFSC  x51.7
09A36:  BSF    FF2.7
09A38:  MOVLW  04
09A3A:  MOVWF  x52
09A3C:  MOVLW  18
09A3E:  MOVWF  x51
09A40:  CLRF   x53
09A42:  MOVLW  37
09A44:  MOVWF  x54
09A46:  MOVLW  02
09A48:  MOVWF  x55
09A4A:  MOVLW  01
09A4C:  MOVWF  x56
09A4E:  MOVLB  0
09A50:  CALL   21C8
....................          SSR_off; 
09A54:  BSF    F8B.2
09A56:  BCF    F94.2
....................          CuadroCalentando(OFF); 
09A58:  MOVLB  7
09A5A:  CLRF   x51
09A5C:  MOVLB  0
09A5E:  CALL   3730
....................          CuadroDesfogando(OFF); 
09A62:  MOVLB  7
09A64:  CLRF   x51
09A66:  MOVLB  0
09A68:  CALL   3EC6
....................          CuadroEsterilizando(OFF); 
09A6C:  MOVLB  7
09A6E:  CLRF   x51
09A70:  MOVLB  0
09A72:  CALL   3F08
09A76:  MOVLB  4
....................       } 
....................        
....................       if(AlarmaEmergencia) 
09A78:  BTFSS  x82.5
09A7A:  BRA    9AF0
....................       { 
....................          BorraStatus(); 
09A7C:  MOVLB  0
09A7E:  CALL   3EA8
....................          strcpy(Menus.Letra,"Parada Emergencia");displayMenu(Menus.Letra,0,55,2,1); 
09A82:  MOVLW  04
09A84:  MOVWF  FEA
09A86:  MOVLW  18
09A88:  MOVWF  FE9
09A8A:  MOVFF  FF2,751
09A8E:  BCF    FF2.7
09A90:  MOVLW  00
09A92:  CALL   111C
09A96:  TBLRD*-
09A98:  TBLRD*+
09A9A:  MOVF   FF5,W
09A9C:  MOVWF  FEE
09A9E:  IORLW  00
09AA0:  BNZ   9A98
09AA2:  MOVLB  7
09AA4:  BTFSC  x51.7
09AA6:  BSF    FF2.7
09AA8:  MOVLW  04
09AAA:  MOVWF  x52
09AAC:  MOVLW  18
09AAE:  MOVWF  x51
09AB0:  CLRF   x53
09AB2:  MOVLW  37
09AB4:  MOVWF  x54
09AB6:  MOVLW  02
09AB8:  MOVWF  x55
09ABA:  MOVLW  01
09ABC:  MOVWF  x56
09ABE:  MOVLB  0
09AC0:  CALL   21C8
....................          Desfogue_on; 
09AC4:  BCF    F8B.5
09AC6:  BCF    F94.5
....................          AguaIn_off; 
09AC8:  BSF    F8B.6
09ACA:  BCF    F94.6
....................          SSR_off; 
09ACC:  BSF    F8B.2
09ACE:  BCF    F94.2
....................          CuadroCalentando(OFF); 
09AD0:  MOVLB  7
09AD2:  CLRF   x51
09AD4:  MOVLB  0
09AD6:  CALL   3730
....................          CuadroDesfogando(OFF); 
09ADA:  MOVLB  7
09ADC:  CLRF   x51
09ADE:  MOVLB  0
09AE0:  CALL   3EC6
....................          CuadroEsterilizando(OFF); 
09AE4:  MOVLB  7
09AE6:  CLRF   x51
09AE8:  MOVLB  0
09AEA:  CALL   3F08
09AEE:  MOVLB  4
....................       } 
....................    } 
....................    else 
09AF0:  BRA    9FD2
....................    { 
....................          if(!CalderinLleno) 
09AF2:  BTFSC  x82.7
09AF4:  BRA    9B46
....................          { 
....................             BorraStatus(); 
09AF6:  MOVLB  0
09AF8:  CALL   3EA8
....................             strcpy(Menus.Letra,"Llenando");displayMenu(Menus.Letra,0,55,2,1); 
09AFC:  MOVLW  04
09AFE:  MOVWF  FEA
09B00:  MOVLW  18
09B02:  MOVWF  FE9
09B04:  MOVFF  FF2,751
09B08:  BCF    FF2.7
09B0A:  MOVLW  00
09B0C:  CALL   114C
09B10:  TBLRD*-
09B12:  TBLRD*+
09B14:  MOVF   FF5,W
09B16:  MOVWF  FEE
09B18:  IORLW  00
09B1A:  BNZ   9B12
09B1C:  MOVLB  7
09B1E:  BTFSC  x51.7
09B20:  BSF    FF2.7
09B22:  MOVLW  04
09B24:  MOVWF  x52
09B26:  MOVLW  18
09B28:  MOVWF  x51
09B2A:  CLRF   x53
09B2C:  MOVLW  37
09B2E:  MOVWF  x54
09B30:  MOVLW  02
09B32:  MOVWF  x55
09B34:  MOVLW  01
09B36:  MOVWF  x56
09B38:  MOVLB  0
09B3A:  CALL   21C8
....................             Control=0; 
09B3E:  MOVLB  6
09B40:  CLRF   xFB
....................          } 
....................          else 
09B42:  BRA    9FD2
09B44:  MOVLB  4
....................          { 
....................             if(Temperatura>=((float)Setpoint-0.3)){ 
09B46:  MOVLB  7
09B48:  CLRF   x58
09B4A:  MOVFF  702,757
09B4E:  MOVLB  0
09B50:  CALL   16DE
09B54:  MOVFF  00,751
09B58:  MOVFF  01,752
09B5C:  MOVFF  02,753
09B60:  MOVFF  03,754
09B64:  BSF    FD8.1
09B66:  MOVFF  03,759
09B6A:  MOVFF  02,758
09B6E:  MOVFF  01,757
09B72:  MOVFF  00,756
09B76:  MOVLW  9A
09B78:  MOVLB  7
09B7A:  MOVWF  x5D
09B7C:  MOVLW  99
09B7E:  MOVWF  x5C
09B80:  MOVLW  19
09B82:  MOVWF  x5B
09B84:  MOVLW  7D
09B86:  MOVWF  x5A
09B88:  MOVLB  0
09B8A:  CALL   1872
09B8E:  MOVFF  03,755
09B92:  MOVFF  02,754
09B96:  MOVFF  01,753
09B9A:  MOVFF  00,752
09B9E:  MOVFF  6E3,759
09BA2:  MOVFF  6E2,758
09BA6:  MOVFF  6E1,757
09BAA:  MOVFF  6E0,756
09BAE:  CALL   1AEA
09BB2:  BC    9BB6
09BB4:  BNZ   9BBA
....................                Esterilizando=ON; 
09BB6:  MOVLB  4
09BB8:  BSF    x83.1
....................             } 
....................              
....................             if(Temperatura<((float)Setpoint-0.9) && !Desfogando){ 
09BBA:  MOVLB  7
09BBC:  CLRF   x58
09BBE:  MOVFF  702,757
09BC2:  MOVLB  0
09BC4:  CALL   16DE
09BC8:  MOVFF  00,751
09BCC:  MOVFF  01,752
09BD0:  MOVFF  02,753
09BD4:  MOVFF  03,754
09BD8:  BSF    FD8.1
09BDA:  MOVFF  03,759
09BDE:  MOVFF  02,758
09BE2:  MOVFF  01,757
09BE6:  MOVFF  00,756
09BEA:  MOVLW  66
09BEC:  MOVLB  7
09BEE:  MOVWF  x5D
09BF0:  MOVWF  x5C
09BF2:  MOVWF  x5B
09BF4:  MOVLW  7E
09BF6:  MOVWF  x5A
09BF8:  MOVLB  0
09BFA:  CALL   1872
09BFE:  MOVFF  6E3,755
09C02:  MOVFF  6E2,754
09C06:  MOVFF  6E1,753
09C0A:  MOVFF  6E0,752
09C0E:  MOVFF  03,759
09C12:  MOVFF  02,758
09C16:  MOVFF  01,757
09C1A:  MOVFF  00,756
09C1E:  CALL   1AEA
09C22:  BNC   9C30
09C24:  MOVLB  4
09C26:  BTFSS  x83.4
09C28:  BRA    9C2E
09C2A:  MOVLB  0
09C2C:  BRA    9C30
....................                Esterilizando=OFF; 
09C2E:  BCF    x83.1
....................             } 
....................              
....................             if(!Esterilizando) 
09C30:  MOVLB  4
09C32:  BTFSC  x83.1
09C34:  BRA    9CCA
....................             { 
....................                CuadroCalentando(ON); 
09C36:  MOVLW  01
09C38:  MOVLB  7
09C3A:  MOVWF  x51
09C3C:  MOVLB  0
09C3E:  CALL   3730
....................                BorraStatus(); 
09C42:  CALL   3EA8
....................                strcpy(Menus.Letra,"Calentando");displayMenu(Menus.Letra,0,55,2,1); 
09C46:  MOVLW  04
09C48:  MOVWF  FEA
09C4A:  MOVLW  18
09C4C:  MOVWF  FE9
09C4E:  MOVFF  FF2,751
09C52:  BCF    FF2.7
09C54:  MOVLW  00
09C56:  CALL   0F6C
09C5A:  TBLRD*-
09C5C:  TBLRD*+
09C5E:  MOVF   FF5,W
09C60:  MOVWF  FEE
09C62:  IORLW  00
09C64:  BNZ   9C5C
09C66:  MOVLB  7
09C68:  BTFSC  x51.7
09C6A:  BSF    FF2.7
09C6C:  MOVLW  04
09C6E:  MOVWF  x52
09C70:  MOVLW  18
09C72:  MOVWF  x51
09C74:  CLRF   x53
09C76:  MOVLW  37
09C78:  MOVWF  x54
09C7A:  MOVLW  02
09C7C:  MOVWF  x55
09C7E:  MOVLW  01
09C80:  MOVWF  x56
09C82:  MOVLB  0
09C84:  CALL   21C8
....................                Control=1; 
09C88:  MOVLW  01
09C8A:  MOVLB  6
09C8C:  MOVWF  xFB
....................                Controla(); 
09C8E:  MOVLB  0
09C90:  CALL   3F4A
....................                if(Temperatura<=85.0){ 
09C94:  MOVFF  6E3,755
09C98:  MOVFF  6E2,754
09C9C:  MOVFF  6E1,753
09CA0:  MOVFF  6E0,752
09CA4:  MOVLB  7
09CA6:  CLRF   x59
09CA8:  CLRF   x58
09CAA:  MOVLW  2A
09CAC:  MOVWF  x57
09CAE:  MOVLW  85
09CB0:  MOVWF  x56
09CB2:  MOVLB  0
09CB4:  CALL   1AEA
09CB8:  BC    9CBC
09CBA:  BNZ   9CC2
....................                   Desfogue_on; 
09CBC:  BCF    F8B.5
09CBE:  BCF    F94.5
....................                }else{ 
09CC0:  BRA    9CC6
....................                   Desfogue_off; 
09CC2:  BSF    F8B.5
09CC4:  BCF    F94.5
....................                } 
....................             }else{ 
09CC6:  BRA    9FD0
09CC8:  MOVLB  4
....................                if((Testerilizacion[0]>=Testerilizacionp[0])&&(Testerilizacion[1]>=Testerilizacionp[1])&& 
....................                (Testerilizacion[2]>=Testerilizacionp[2])&&(Testerilizacion[3]>=Testerilizacionp[3])){  
09CCA:  MOVF   x8F,W
09CCC:  XORLW  80
09CCE:  MOVWF  00
09CD0:  MOVF   x8B,W
09CD2:  XORLW  80
09CD4:  SUBWF  00,W
09CD6:  BZ    9CDC
09CD8:  BTFSC  FD8.0
09CDA:  BRA    9F68
09CDC:  MOVF   x90,W
09CDE:  XORLW  80
09CE0:  MOVWF  00
09CE2:  MOVF   x8C,W
09CE4:  XORLW  80
09CE6:  SUBWF  00,W
09CE8:  BZ    9CEE
09CEA:  BTFSC  FD8.0
09CEC:  BRA    9F68
09CEE:  MOVF   x91,W
09CF0:  XORLW  80
09CF2:  MOVWF  00
09CF4:  MOVF   x8D,W
09CF6:  XORLW  80
09CF8:  SUBWF  00,W
09CFA:  BZ    9D00
09CFC:  BTFSC  FD8.0
09CFE:  BRA    9F68
09D00:  MOVF   x92,W
09D02:  XORLW  80
09D04:  MOVWF  00
09D06:  MOVF   x8E,W
09D08:  XORLW  80
09D0A:  SUBWF  00,W
09D0C:  BZ    9D12
09D0E:  BTFSC  FD8.0
09D10:  BRA    9F68
....................                   if(desfoguelento){ 
09D12:  BTFSS  x84.7
09D14:  BRA    9DF0
....................                      if(PresionCamara<7){ 
09D16:  MOVLB  7
09D18:  MOVF   x18,F
09D1A:  BNZ   9D80
09D1C:  MOVF   x17,W
09D1E:  SUBLW  06
09D20:  BNC   9D80
....................                         Secando=OFF; 
09D22:  MOVLB  4
09D24:  BCF    x83.2
....................                         DesfogueSuave=OFF; 
09D26:  BCF    x83.5
....................                         Desfogue_on; 
09D28:  BCF    F8B.5
09D2A:  BCF    F94.5
....................                         CuadroDesfogando(OFF); 
09D2C:  MOVLB  7
09D2E:  CLRF   x51
09D30:  MOVLB  0
09D32:  CALL   3EC6
....................                         BorraStatus(); 
09D36:  CALL   3EA8
....................                         strcpy(Menus.Letra,"Ciclo Finalizado");displayMenu(Menus.Letra,0,55,2,1); 
09D3A:  MOVLW  04
09D3C:  MOVWF  FEA
09D3E:  MOVLW  18
09D40:  MOVWF  FE9
09D42:  MOVFF  FF2,751
09D46:  BCF    FF2.7
09D48:  MOVLW  00
09D4A:  CALL   1174
09D4E:  TBLRD*-
09D50:  TBLRD*+
09D52:  MOVF   FF5,W
09D54:  MOVWF  FEE
09D56:  IORLW  00
09D58:  BNZ   9D50
09D5A:  MOVLB  7
09D5C:  BTFSC  x51.7
09D5E:  BSF    FF2.7
09D60:  MOVLW  04
09D62:  MOVWF  x52
09D64:  MOVLW  18
09D66:  MOVWF  x51
09D68:  CLRF   x53
09D6A:  MOVLW  37
09D6C:  MOVWF  x54
09D6E:  MOVLW  02
09D70:  MOVWF  x55
09D72:  MOVLW  01
09D74:  MOVWF  x56
09D76:  MOVLB  0
09D78:  CALL   21C8
....................                      }else{ 
09D7C:  BRA    9DEC
09D7E:  MOVLB  7
....................                         Desfogando=ON; 
09D80:  MOVLB  4
09D82:  BSF    x83.4
....................                         DesfogueSuave=ON; 
09D84:  BSF    x83.5
....................                         CuadroEsterilizando(OFF); 
09D86:  MOVLB  7
09D88:  CLRF   x51
09D8A:  MOVLB  0
09D8C:  CALL   3F08
....................                         CuadroDesfogando(ON); 
09D90:  MOVLW  01
09D92:  MOVLB  7
09D94:  MOVWF  x51
09D96:  MOVLB  0
09D98:  CALL   3EC6
....................                         BorraStatus(); 
09D9C:  CALL   3EA8
....................                         strcpy(Menus.Letra,"Despresurizando");displayMenu(Menus.Letra,0,55,2,1); 
09DA0:  MOVLW  04
09DA2:  MOVWF  FEA
09DA4:  MOVLW  18
09DA6:  MOVWF  FE9
09DA8:  MOVFF  FF2,751
09DAC:  BCF    FF2.7
09DAE:  MOVLW  00
09DB0:  CALL   11A4
09DB4:  TBLRD*-
09DB6:  TBLRD*+
09DB8:  MOVF   FF5,W
09DBA:  MOVWF  FEE
09DBC:  IORLW  00
09DBE:  BNZ   9DB6
09DC0:  MOVLB  7
09DC2:  BTFSC  x51.7
09DC4:  BSF    FF2.7
09DC6:  MOVLW  04
09DC8:  MOVWF  x52
09DCA:  MOVLW  18
09DCC:  MOVWF  x51
09DCE:  CLRF   x53
09DD0:  MOVLW  37
09DD2:  MOVWF  x54
09DD4:  MOVLW  02
09DD6:  MOVWF  x55
09DD8:  MOVLW  01
09DDA:  MOVWF  x56
09DDC:  MOVLB  0
09DDE:  CALL   21C8
....................                         Control=0; 
09DE2:  MOVLB  6
09DE4:  CLRF   xFB
....................                         SSR_off; 
09DE6:  BSF    F8B.2
09DE8:  BCF    F94.2
09DEA:  MOVLB  0
....................                      } 
....................                   }else{ 
09DEC:  BRA    9F64
09DEE:  MOVLB  4
....................                      Desfogue_on; 
09DF0:  BCF    F8B.5
09DF2:  BCF    F94.5
....................                      SSR_off; 
09DF4:  BSF    F8B.2
09DF6:  BCF    F94.2
....................                      Control=0; 
09DF8:  MOVLB  6
09DFA:  CLRF   xFB
....................                      if(PresionCamara<7){ 
09DFC:  MOVLB  7
09DFE:  MOVF   x18,F
09E00:  BTFSS  FD8.2
09E02:  BRA    9EFA
09E04:  MOVF   x17,W
09E06:  SUBLW  06
09E08:  BTFSS  FD8.0
09E0A:  BRA    9EFA
....................                         if((Tsecado[0]>=Tsecadop[0])&&(Tsecado[1]>=Tsecadop[1])&&(Tsecado[2]>=Tsecadop[2])&&(Tsecado[3]>=Tsecadop[3])){ 
09E0C:  MOVLB  4
09E0E:  MOVF   x97,W
09E10:  XORLW  80
09E12:  MOVWF  00
09E14:  MOVF   x93,W
09E16:  XORLW  80
09E18:  SUBWF  00,W
09E1A:  BZ    9E1E
09E1C:  BC    9EA4
09E1E:  MOVF   x98,W
09E20:  XORLW  80
09E22:  MOVWF  00
09E24:  MOVF   x94,W
09E26:  XORLW  80
09E28:  SUBWF  00,W
09E2A:  BZ    9E2E
09E2C:  BC    9EA4
09E2E:  MOVF   x99,W
09E30:  XORLW  80
09E32:  MOVWF  00
09E34:  MOVF   x95,W
09E36:  XORLW  80
09E38:  SUBWF  00,W
09E3A:  BZ    9E3E
09E3C:  BC    9EA4
09E3E:  MOVF   x9A,W
09E40:  XORLW  80
09E42:  MOVWF  00
09E44:  MOVF   x96,W
09E46:  XORLW  80
09E48:  SUBWF  00,W
09E4A:  BZ    9E4E
09E4C:  BC    9EA4
....................                            Secando=OFF; 
09E4E:  BCF    x83.2
....................                            CuadroDesfogando(OFF); 
09E50:  MOVLB  7
09E52:  CLRF   x51
09E54:  MOVLB  0
09E56:  CALL   3EC6
....................                            BorraStatus(); 
09E5A:  CALL   3EA8
....................                            strcpy(Menus.Letra,"Ciclo Finalizado");displayMenu(Menus.Letra,0,55,2,1); 
09E5E:  MOVLW  04
09E60:  MOVWF  FEA
09E62:  MOVLW  18
09E64:  MOVWF  FE9
09E66:  MOVFF  FF2,751
09E6A:  BCF    FF2.7
09E6C:  MOVLW  00
09E6E:  CALL   1174
09E72:  TBLRD*-
09E74:  TBLRD*+
09E76:  MOVF   FF5,W
09E78:  MOVWF  FEE
09E7A:  IORLW  00
09E7C:  BNZ   9E74
09E7E:  MOVLB  7
09E80:  BTFSC  x51.7
09E82:  BSF    FF2.7
09E84:  MOVLW  04
09E86:  MOVWF  x52
09E88:  MOVLW  18
09E8A:  MOVWF  x51
09E8C:  CLRF   x53
09E8E:  MOVLW  37
09E90:  MOVWF  x54
09E92:  MOVLW  02
09E94:  MOVWF  x55
09E96:  MOVLW  01
09E98:  MOVWF  x56
09E9A:  MOVLB  0
09E9C:  CALL   21C8
....................                         }else{ 
09EA0:  BRA    9EF6
09EA2:  MOVLB  4
....................                            Secando=ON; 
09EA4:  BSF    x83.2
....................                            CuadroDesfogando(OFF); 
09EA6:  MOVLB  7
09EA8:  CLRF   x51
09EAA:  MOVLB  0
09EAC:  CALL   3EC6
....................                            BorraStatus(); 
09EB0:  CALL   3EA8
....................                            strcpy(Menus.Letra,"Secando");displayMenu(Menus.Letra,0,55,2,1); 
09EB4:  MOVLW  04
09EB6:  MOVWF  FEA
09EB8:  MOVLW  18
09EBA:  MOVWF  FE9
09EBC:  MOVFF  FF2,751
09EC0:  BCF    FF2.7
09EC2:  MOVLW  00
09EC4:  CALL   11D2
09EC8:  TBLRD*-
09ECA:  TBLRD*+
09ECC:  MOVF   FF5,W
09ECE:  MOVWF  FEE
09ED0:  IORLW  00
09ED2:  BNZ   9ECA
09ED4:  MOVLB  7
09ED6:  BTFSC  x51.7
09ED8:  BSF    FF2.7
09EDA:  MOVLW  04
09EDC:  MOVWF  x52
09EDE:  MOVLW  18
09EE0:  MOVWF  x51
09EE2:  CLRF   x53
09EE4:  MOVLW  37
09EE6:  MOVWF  x54
09EE8:  MOVLW  02
09EEA:  MOVWF  x55
09EEC:  MOVLW  01
09EEE:  MOVWF  x56
09EF0:  MOVLB  0
09EF2:  CALL   21C8
....................                         } 
....................                      }else{ 
09EF6:  BRA    9F64
09EF8:  MOVLB  7
....................                         Desfogando=ON; 
09EFA:  MOVLB  4
09EFC:  BSF    x83.4
....................                         CuadroEsterilizando(OFF); 
09EFE:  MOVLB  7
09F00:  CLRF   x51
09F02:  MOVLB  0
09F04:  CALL   3F08
....................                         CuadroDesfogando(ON); 
09F08:  MOVLW  01
09F0A:  MOVLB  7
09F0C:  MOVWF  x51
09F0E:  MOVLB  0
09F10:  CALL   3EC6
....................                         BorraStatus(); 
09F14:  CALL   3EA8
....................                         strcpy(Menus.Letra,"Despresurizando");displayMenu(Menus.Letra,0,55,2,1); 
09F18:  MOVLW  04
09F1A:  MOVWF  FEA
09F1C:  MOVLW  18
09F1E:  MOVWF  FE9
09F20:  MOVFF  FF2,751
09F24:  BCF    FF2.7
09F26:  MOVLW  00
09F28:  CALL   11A4
09F2C:  TBLRD*-
09F2E:  TBLRD*+
09F30:  MOVF   FF5,W
09F32:  MOVWF  FEE
09F34:  IORLW  00
09F36:  BNZ   9F2E
09F38:  MOVLB  7
09F3A:  BTFSC  x51.7
09F3C:  BSF    FF2.7
09F3E:  MOVLW  04
09F40:  MOVWF  x52
09F42:  MOVLW  18
09F44:  MOVWF  x51
09F46:  CLRF   x53
09F48:  MOVLW  37
09F4A:  MOVWF  x54
09F4C:  MOVLW  02
09F4E:  MOVWF  x55
09F50:  MOVLW  01
09F52:  MOVWF  x56
09F54:  MOVLB  0
09F56:  CALL   21C8
....................                         Control=0; 
09F5A:  MOVLB  6
09F5C:  CLRF   xFB
....................                         SSR_off; 
09F5E:  BSF    F8B.2
09F60:  BCF    F94.2
09F62:  MOVLB  0
....................                      } 
....................                   } 
....................                    
....................                }else{ 
09F64:  BRA    9FD0
09F66:  MOVLB  4
....................                   CuadroCalentando(OFF); 
09F68:  MOVLB  7
09F6A:  CLRF   x51
09F6C:  MOVLB  0
09F6E:  CALL   3730
....................                   CuadroEsterilizando(ON); 
09F72:  MOVLW  01
09F74:  MOVLB  7
09F76:  MOVWF  x51
09F78:  MOVLB  0
09F7A:  CALL   3F08
....................                   BorraStatus(); 
09F7E:  CALL   3EA8
....................                   strcpy(Menus.Letra,"Esterilizando");displayMenu(Menus.Letra,0,55,2,1); 
09F82:  MOVLW  04
09F84:  MOVWF  FEA
09F86:  MOVLW  18
09F88:  MOVWF  FE9
09F8A:  MOVFF  FF2,751
09F8E:  BCF    FF2.7
09F90:  MOVLW  00
09F92:  CALL   11F8
09F96:  TBLRD*-
09F98:  TBLRD*+
09F9A:  MOVF   FF5,W
09F9C:  MOVWF  FEE
09F9E:  IORLW  00
09FA0:  BNZ   9F98
09FA2:  MOVLB  7
09FA4:  BTFSC  x51.7
09FA6:  BSF    FF2.7
09FA8:  MOVLW  04
09FAA:  MOVWF  x52
09FAC:  MOVLW  18
09FAE:  MOVWF  x51
09FB0:  CLRF   x53
09FB2:  MOVLW  37
09FB4:  MOVWF  x54
09FB6:  MOVLW  02
09FB8:  MOVWF  x55
09FBA:  MOVLW  01
09FBC:  MOVWF  x56
09FBE:  MOVLB  0
09FC0:  CALL   21C8
....................                   Control=1; 
09FC4:  MOVLW  01
09FC6:  MOVLB  6
09FC8:  MOVWF  xFB
....................                   Controla(); 
09FCA:  MOVLB  0
09FCC:  CALL   3F4A
09FD0:  MOVLB  6
....................                } 
....................             } 
....................              
....................          } 
....................    } 
....................  
....................    if(Lectura==1)// Utilizado para visualizar la lectura de la temperatura 
09FD2:  MOVLB  6
09FD4:  BTFSS  xFA.0
09FD6:  BRA    A2D6
....................    {                       
....................       Lectura=0; 
09FD8:  BCF    xFA.0
....................       displayT(PresionCamara,31,35,1); 
09FDA:  MOVFF  718,758
09FDE:  MOVFF  717,757
09FE2:  MOVLB  0
09FE4:  CALL   16DE
09FE8:  MOVFF  00,751
09FEC:  MOVFF  01,752
09FF0:  MOVFF  02,753
09FF4:  MOVFF  03,754
09FF8:  MOVFF  03,758
09FFC:  MOVFF  02,757
0A000:  MOVFF  01,756
0A004:  MOVFF  00,755
0A008:  MOVLW  1F
0A00A:  MOVLB  7
0A00C:  MOVWF  x59
0A00E:  MOVLW  23
0A010:  MOVWF  x5A
0A012:  MOVLW  01
0A014:  MOVWF  x5B
0A016:  MOVLB  0
0A018:  GOTO   4594
....................       //displayT(PresionPreCamara,31,44,1); 
....................       glcd_rect(51, 35, 62, 48, YES, OFF);glcd_text57(52, 35, kpa, 1, ON); 
0A01C:  MOVLW  33
0A01E:  MOVLB  7
0A020:  MOVWF  x67
0A022:  MOVLW  23
0A024:  MOVWF  x68
0A026:  MOVLW  3E
0A028:  MOVWF  x69
0A02A:  MOVLW  30
0A02C:  MOVWF  x6A
0A02E:  MOVLW  01
0A030:  MOVWF  x6B
0A032:  CLRF   x6C
0A034:  MOVLB  0
0A036:  CALL   2106
0A03A:  MOVLW  34
0A03C:  MOVLB  7
0A03E:  MOVWF  x65
0A040:  MOVLW  23
0A042:  MOVWF  x66
0A044:  MOVLW  06
0A046:  MOVWF  x68
0A048:  MOVLW  F6
0A04A:  MOVWF  x67
0A04C:  MOVLW  01
0A04E:  MOVWF  x69
0A050:  MOVWF  x6A
0A052:  MOVLB  0
0A054:  CALL   1E10
....................       //glcd_rect(51, 44, 62, 48, YES, OFF);glcd_text57(52, 44, kpa, 1, ON); 
....................       displayTT(Temperatura,69,20,2); 
0A058:  MOVFF  6E3,754
0A05C:  MOVFF  6E2,753
0A060:  MOVFF  6E1,752
0A064:  MOVFF  6E0,751
0A068:  MOVLW  45
0A06A:  MOVLB  7
0A06C:  MOVWF  x55
0A06E:  MOVLW  14
0A070:  MOVWF  x56
0A072:  MOVLW  02
0A074:  MOVWF  x57
0A076:  MOVLB  0
0A078:  CALL   460E
....................       glcd_circle(95,40,2,NO,ON); 
0A07C:  MOVLW  5F
0A07E:  MOVLB  7
0A080:  MOVWF  x51
0A082:  MOVLW  28
0A084:  MOVWF  x52
0A086:  MOVLW  02
0A088:  MOVWF  x53
0A08A:  CLRF   x54
0A08C:  MOVLW  01
0A08E:  MOVWF  x55
0A090:  MOVLB  0
0A092:  CALL   3B3E
....................       strcpy(Menus.Letra,"C");displayMenu(Menus.Letra,102,40,2,2); 
0A096:  MOVLW  04
0A098:  MOVWF  FEA
0A09A:  MOVLW  18
0A09C:  MOVWF  FE9
0A09E:  MOVFF  FF2,751
0A0A2:  BCF    FF2.7
0A0A4:  MOVLW  00
0A0A6:  CALL   0FE2
0A0AA:  TBLRD*-
0A0AC:  TBLRD*+
0A0AE:  MOVF   FF5,W
0A0B0:  MOVWF  FEE
0A0B2:  IORLW  00
0A0B4:  BNZ   A0AC
0A0B6:  MOVLB  7
0A0B8:  BTFSC  x51.7
0A0BA:  BSF    FF2.7
0A0BC:  MOVLW  04
0A0BE:  MOVWF  x52
0A0C0:  MOVLW  18
0A0C2:  MOVWF  x51
0A0C4:  MOVLW  66
0A0C6:  MOVWF  x53
0A0C8:  MOVLW  28
0A0CA:  MOVWF  x54
0A0CC:  MOVLW  02
0A0CE:  MOVWF  x55
0A0D0:  MOVWF  x56
0A0D2:  MOVLB  0
0A0D4:  CALL   21C8
....................       displayTiempo(Setpoint,5,20,2,1); 
0A0D8:  MOVFF  702,751
0A0DC:  MOVLW  05
0A0DE:  MOVLB  7
0A0E0:  MOVWF  x52
0A0E2:  MOVLW  14
0A0E4:  MOVWF  x53
0A0E6:  MOVLW  02
0A0E8:  MOVWF  x54
0A0EA:  MOVLW  01
0A0EC:  MOVWF  x55
0A0EE:  MOVLB  0
0A0F0:  CALL   3998
....................  
....................       glcd_imagen(5); 
0A0F4:  MOVLW  05
0A0F6:  MOVLB  7
0A0F8:  MOVWF  x51
0A0FA:  MOVLB  0
0A0FC:  CALL   3674
....................       strcpy(Menus.Letra,"T est:");displayMenu(Menus.Letra,0,0,2,1); 
0A100:  MOVLW  04
0A102:  MOVWF  FEA
0A104:  MOVLW  18
0A106:  MOVWF  FE9
0A108:  MOVFF  FF2,751
0A10C:  BCF    FF2.7
0A10E:  MOVLW  00
0A110:  CALL   0F96
0A114:  TBLRD*-
0A116:  TBLRD*+
0A118:  MOVF   FF5,W
0A11A:  MOVWF  FEE
0A11C:  IORLW  00
0A11E:  BNZ   A116
0A120:  MOVLB  7
0A122:  BTFSC  x51.7
0A124:  BSF    FF2.7
0A126:  MOVLW  04
0A128:  MOVWF  x52
0A12A:  MOVLW  18
0A12C:  MOVWF  x51
0A12E:  CLRF   x53
0A130:  CLRF   x54
0A132:  MOVLW  02
0A134:  MOVWF  x55
0A136:  MOVLW  01
0A138:  MOVWF  x56
0A13A:  MOVLB  0
0A13C:  CALL   21C8
....................       strcpy(Menus.Letra,"T sec:");displayMenu(Menus.Letra,0,8,2,1); 
0A140:  MOVLW  04
0A142:  MOVWF  FEA
0A144:  MOVLW  18
0A146:  MOVWF  FE9
0A148:  MOVFF  FF2,751
0A14C:  BCF    FF2.7
0A14E:  MOVLW  00
0A150:  CALL   0FBC
0A154:  TBLRD*-
0A156:  TBLRD*+
0A158:  MOVF   FF5,W
0A15A:  MOVWF  FEE
0A15C:  IORLW  00
0A15E:  BNZ   A156
0A160:  MOVLB  7
0A162:  BTFSC  x51.7
0A164:  BSF    FF2.7
0A166:  MOVLW  04
0A168:  MOVWF  x52
0A16A:  MOVLW  18
0A16C:  MOVWF  x51
0A16E:  CLRF   x53
0A170:  MOVLW  08
0A172:  MOVWF  x54
0A174:  MOVLW  02
0A176:  MOVWF  x55
0A178:  MOVLW  01
0A17A:  MOVWF  x56
0A17C:  MOVLB  0
0A17E:  CALL   21C8
....................       MuestraTiemposProgramados(); 
0A182:  CALL   3D68
....................       // Muestra Valor de esterilizacion actual. 
....................       displayTiempo(Testerilizacion[3],80,0,0,1);displayTiempo(Testerilizacion[2],86,0,0,1); 
0A186:  MOVFF  48E,751
0A18A:  MOVLW  50
0A18C:  MOVLB  7
0A18E:  MOVWF  x52
0A190:  CLRF   x53
0A192:  CLRF   x54
0A194:  MOVLW  01
0A196:  MOVWF  x55
0A198:  MOVLB  0
0A19A:  CALL   3998
0A19E:  MOVFF  48D,751
0A1A2:  MOVLW  56
0A1A4:  MOVLB  7
0A1A6:  MOVWF  x52
0A1A8:  CLRF   x53
0A1AA:  CLRF   x54
0A1AC:  MOVLW  01
0A1AE:  MOVWF  x55
0A1B0:  MOVLB  0
0A1B2:  CALL   3998
....................       strcpy(Menus.Letra,":");displayMenu(Menus.Letra,92,0,2,1);  
0A1B6:  MOVLW  04
0A1B8:  MOVWF  FEA
0A1BA:  MOVLW  18
0A1BC:  MOVWF  FE9
0A1BE:  MOVFF  FF2,751
0A1C2:  BCF    FF2.7
0A1C4:  MOVLW  00
0A1C6:  CALL   06DE
0A1CA:  TBLRD*-
0A1CC:  TBLRD*+
0A1CE:  MOVF   FF5,W
0A1D0:  MOVWF  FEE
0A1D2:  IORLW  00
0A1D4:  BNZ   A1CC
0A1D6:  MOVLB  7
0A1D8:  BTFSC  x51.7
0A1DA:  BSF    FF2.7
0A1DC:  MOVLW  04
0A1DE:  MOVWF  x52
0A1E0:  MOVLW  18
0A1E2:  MOVWF  x51
0A1E4:  MOVLW  5C
0A1E6:  MOVWF  x53
0A1E8:  CLRF   x54
0A1EA:  MOVLW  02
0A1EC:  MOVWF  x55
0A1EE:  MOVLW  01
0A1F0:  MOVWF  x56
0A1F2:  MOVLB  0
0A1F4:  CALL   21C8
....................       displayTiempo(Testerilizacion[1],98,0,0,1);displayTiempo(Testerilizacion[0],104,0,0,1); 
0A1F8:  MOVFF  48C,751
0A1FC:  MOVLW  62
0A1FE:  MOVLB  7
0A200:  MOVWF  x52
0A202:  CLRF   x53
0A204:  CLRF   x54
0A206:  MOVLW  01
0A208:  MOVWF  x55
0A20A:  MOVLB  0
0A20C:  CALL   3998
0A210:  MOVFF  48B,751
0A214:  MOVLW  68
0A216:  MOVLB  7
0A218:  MOVWF  x52
0A21A:  CLRF   x53
0A21C:  CLRF   x54
0A21E:  MOVLW  01
0A220:  MOVWF  x55
0A222:  MOVLB  0
0A224:  CALL   3998
....................       // Muestra tiempo de secado actual. 
....................       displayTiempo(Tsecado[3],80,8,0,1);displayTiempo(Tsecado[2],86,8,0,1); 
0A228:  MOVFF  496,751
0A22C:  MOVLW  50
0A22E:  MOVLB  7
0A230:  MOVWF  x52
0A232:  MOVLW  08
0A234:  MOVWF  x53
0A236:  CLRF   x54
0A238:  MOVLW  01
0A23A:  MOVWF  x55
0A23C:  MOVLB  0
0A23E:  CALL   3998
0A242:  MOVFF  495,751
0A246:  MOVLW  56
0A248:  MOVLB  7
0A24A:  MOVWF  x52
0A24C:  MOVLW  08
0A24E:  MOVWF  x53
0A250:  CLRF   x54
0A252:  MOVLW  01
0A254:  MOVWF  x55
0A256:  MOVLB  0
0A258:  CALL   3998
....................       strcpy(Menus.Letra,":");displayMenu(Menus.Letra,92,8,2,1);  
0A25C:  MOVLW  04
0A25E:  MOVWF  FEA
0A260:  MOVLW  18
0A262:  MOVWF  FE9
0A264:  MOVFF  FF2,751
0A268:  BCF    FF2.7
0A26A:  MOVLW  00
0A26C:  CALL   06DE
0A270:  TBLRD*-
0A272:  TBLRD*+
0A274:  MOVF   FF5,W
0A276:  MOVWF  FEE
0A278:  IORLW  00
0A27A:  BNZ   A272
0A27C:  MOVLB  7
0A27E:  BTFSC  x51.7
0A280:  BSF    FF2.7
0A282:  MOVLW  04
0A284:  MOVWF  x52
0A286:  MOVLW  18
0A288:  MOVWF  x51
0A28A:  MOVLW  5C
0A28C:  MOVWF  x53
0A28E:  MOVLW  08
0A290:  MOVWF  x54
0A292:  MOVLW  02
0A294:  MOVWF  x55
0A296:  MOVLW  01
0A298:  MOVWF  x56
0A29A:  MOVLB  0
0A29C:  CALL   21C8
....................       displayTiempo(Tsecado[1],98,8,0,1);displayTiempo(Tsecado[0],104,8,0,1); 
0A2A0:  MOVFF  494,751
0A2A4:  MOVLW  62
0A2A6:  MOVLB  7
0A2A8:  MOVWF  x52
0A2AA:  MOVLW  08
0A2AC:  MOVWF  x53
0A2AE:  CLRF   x54
0A2B0:  MOVLW  01
0A2B2:  MOVWF  x55
0A2B4:  MOVLB  0
0A2B6:  CALL   3998
0A2BA:  MOVFF  493,751
0A2BE:  MOVLW  68
0A2C0:  MOVLB  7
0A2C2:  MOVWF  x52
0A2C4:  MOVLW  08
0A2C6:  MOVWF  x53
0A2C8:  CLRF   x54
0A2CA:  MOVLW  01
0A2CC:  MOVWF  x55
0A2CE:  MOVLB  0
0A2D0:  CALL   3998
0A2D4:  MOVLB  6
....................    } 
.................... } 
.................... //_-------------------------------------------------------------------------------------------------------------------------------------------------------- 
....................        
.................... //_-------------------------------------------------------------------------------------------------------------------------------------------------------- 
....................       if(Menu==100){ //Menu de Configuracin de Parametros de Control 
0A2D6:  MOVF   xFC,W
0A2D8:  SUBLW  64
0A2DA:  BTFSS  FD8.2
0A2DC:  BRA    AA00
....................        
....................       if(Opcion>10) 
0A2DE:  MOVLB  7
0A2E0:  MOVF   x05,W
0A2E2:  SUBLW  0A
0A2E4:  BC    A2EA
....................       {Opcion=1;} 
0A2E6:  MOVLW  01
0A2E8:  MOVWF  x05
....................       if(Opcion<1) 
0A2EA:  MOVF   x05,F
0A2EC:  BNZ   A2F2
....................       {Opcion=10;} 
0A2EE:  MOVLW  0A
0A2F0:  MOVWF  x05
....................        
....................       if(Opcion<=6){ 
0A2F2:  MOVF   x05,W
0A2F4:  SUBLW  06
0A2F6:  BTFSS  FD8.0
0A2F8:  BRA    A656
....................          if(Opcion==1)    
0A2FA:  DECFSZ x05,W
0A2FC:  BRA    A342
....................             {strcpy(Menus.Letra,"Proporcional"); 
0A2FE:  MOVLW  04
0A300:  MOVWF  FEA
0A302:  MOVLW  18
0A304:  MOVWF  FE9
0A306:  MOVFF  FF2,751
0A30A:  BCF    FF2.7
0A30C:  MOVLW  00
0A30E:  MOVLB  0
0A310:  CALL   1224
0A314:  TBLRD*-
0A316:  TBLRD*+
0A318:  MOVF   FF5,W
0A31A:  MOVWF  FEE
0A31C:  IORLW  00
0A31E:  BNZ   A316
0A320:  MOVLB  7
0A322:  BTFSC  x51.7
0A324:  BSF    FF2.7
....................             displayMenu(Menus.Letra,0,0,1,1);} 
0A326:  MOVLW  04
0A328:  MOVWF  x52
0A32A:  MOVLW  18
0A32C:  MOVWF  x51
0A32E:  CLRF   x53
0A330:  CLRF   x54
0A332:  MOVLW  01
0A334:  MOVWF  x55
0A336:  MOVWF  x56
0A338:  MOVLB  0
0A33A:  CALL   21C8
....................          else 
0A33E:  BRA    A382
0A340:  MOVLB  7
....................             {strcpy(Menus.Letra,"Proporcional"); 
0A342:  MOVLW  04
0A344:  MOVWF  FEA
0A346:  MOVLW  18
0A348:  MOVWF  FE9
0A34A:  MOVFF  FF2,751
0A34E:  BCF    FF2.7
0A350:  MOVLW  00
0A352:  MOVLB  0
0A354:  CALL   1224
0A358:  TBLRD*-
0A35A:  TBLRD*+
0A35C:  MOVF   FF5,W
0A35E:  MOVWF  FEE
0A360:  IORLW  00
0A362:  BNZ   A35A
0A364:  MOVLB  7
0A366:  BTFSC  x51.7
0A368:  BSF    FF2.7
....................             displayMenu(Menus.Letra,0,0,0,1);} 
0A36A:  MOVLW  04
0A36C:  MOVWF  x52
0A36E:  MOVLW  18
0A370:  MOVWF  x51
0A372:  CLRF   x53
0A374:  CLRF   x54
0A376:  CLRF   x55
0A378:  MOVLW  01
0A37A:  MOVWF  x56
0A37C:  MOVLB  0
0A37E:  CALL   21C8
....................           
....................          if(Opcion==2)    
0A382:  MOVLB  7
0A384:  MOVF   x05,W
0A386:  SUBLW  02
0A388:  BNZ   A3D0
....................             {strcpy(Menus.Letra,"Integral"); 
0A38A:  MOVLW  04
0A38C:  MOVWF  FEA
0A38E:  MOVLW  18
0A390:  MOVWF  FE9
0A392:  MOVFF  FF2,751
0A396:  BCF    FF2.7
0A398:  MOVLW  00
0A39A:  MOVLB  0
0A39C:  CALL   1250
0A3A0:  TBLRD*-
0A3A2:  TBLRD*+
0A3A4:  MOVF   FF5,W
0A3A6:  MOVWF  FEE
0A3A8:  IORLW  00
0A3AA:  BNZ   A3A2
0A3AC:  MOVLB  7
0A3AE:  BTFSC  x51.7
0A3B0:  BSF    FF2.7
....................             displayMenu(Menus.Letra,0,9,1,1);} 
0A3B2:  MOVLW  04
0A3B4:  MOVWF  x52
0A3B6:  MOVLW  18
0A3B8:  MOVWF  x51
0A3BA:  CLRF   x53
0A3BC:  MOVLW  09
0A3BE:  MOVWF  x54
0A3C0:  MOVLW  01
0A3C2:  MOVWF  x55
0A3C4:  MOVWF  x56
0A3C6:  MOVLB  0
0A3C8:  CALL   21C8
....................          else 
0A3CC:  BRA    A412
0A3CE:  MOVLB  7
....................             {strcpy(Menus.Letra,"Integral"); 
0A3D0:  MOVLW  04
0A3D2:  MOVWF  FEA
0A3D4:  MOVLW  18
0A3D6:  MOVWF  FE9
0A3D8:  MOVFF  FF2,751
0A3DC:  BCF    FF2.7
0A3DE:  MOVLW  00
0A3E0:  MOVLB  0
0A3E2:  CALL   1250
0A3E6:  TBLRD*-
0A3E8:  TBLRD*+
0A3EA:  MOVF   FF5,W
0A3EC:  MOVWF  FEE
0A3EE:  IORLW  00
0A3F0:  BNZ   A3E8
0A3F2:  MOVLB  7
0A3F4:  BTFSC  x51.7
0A3F6:  BSF    FF2.7
....................             displayMenu(Menus.Letra,0,9,0,1);} 
0A3F8:  MOVLW  04
0A3FA:  MOVWF  x52
0A3FC:  MOVLW  18
0A3FE:  MOVWF  x51
0A400:  CLRF   x53
0A402:  MOVLW  09
0A404:  MOVWF  x54
0A406:  CLRF   x55
0A408:  MOVLW  01
0A40A:  MOVWF  x56
0A40C:  MOVLB  0
0A40E:  CALL   21C8
....................              
....................          if(Opcion==3)    
0A412:  MOVLB  7
0A414:  MOVF   x05,W
0A416:  SUBLW  03
0A418:  BNZ   A460
....................             {strcpy(Menus.Letra,"Derivativo"); 
0A41A:  MOVLW  04
0A41C:  MOVWF  FEA
0A41E:  MOVLW  18
0A420:  MOVWF  FE9
0A422:  MOVFF  FF2,751
0A426:  BCF    FF2.7
0A428:  MOVLW  00
0A42A:  MOVLB  0
0A42C:  CALL   1278
0A430:  TBLRD*-
0A432:  TBLRD*+
0A434:  MOVF   FF5,W
0A436:  MOVWF  FEE
0A438:  IORLW  00
0A43A:  BNZ   A432
0A43C:  MOVLB  7
0A43E:  BTFSC  x51.7
0A440:  BSF    FF2.7
....................             displayMenu(Menus.Letra,0,18,1,1);} 
0A442:  MOVLW  04
0A444:  MOVWF  x52
0A446:  MOVLW  18
0A448:  MOVWF  x51
0A44A:  CLRF   x53
0A44C:  MOVLW  12
0A44E:  MOVWF  x54
0A450:  MOVLW  01
0A452:  MOVWF  x55
0A454:  MOVWF  x56
0A456:  MOVLB  0
0A458:  CALL   21C8
....................          else 
0A45C:  BRA    A4A2
0A45E:  MOVLB  7
....................             {strcpy(Menus.Letra,"Derivativo"); 
0A460:  MOVLW  04
0A462:  MOVWF  FEA
0A464:  MOVLW  18
0A466:  MOVWF  FE9
0A468:  MOVFF  FF2,751
0A46C:  BCF    FF2.7
0A46E:  MOVLW  00
0A470:  MOVLB  0
0A472:  CALL   1278
0A476:  TBLRD*-
0A478:  TBLRD*+
0A47A:  MOVF   FF5,W
0A47C:  MOVWF  FEE
0A47E:  IORLW  00
0A480:  BNZ   A478
0A482:  MOVLB  7
0A484:  BTFSC  x51.7
0A486:  BSF    FF2.7
....................             displayMenu(Menus.Letra,0,18,0,1);}    
0A488:  MOVLW  04
0A48A:  MOVWF  x52
0A48C:  MOVLW  18
0A48E:  MOVWF  x51
0A490:  CLRF   x53
0A492:  MOVLW  12
0A494:  MOVWF  x54
0A496:  CLRF   x55
0A498:  MOVLW  01
0A49A:  MOVWF  x56
0A49C:  MOVLB  0
0A49E:  CALL   21C8
....................           
....................          if(Opcion==4)    
0A4A2:  MOVLB  7
0A4A4:  MOVF   x05,W
0A4A6:  SUBLW  04
0A4A8:  BNZ   A4F0
....................             {strcpy(Menus.Letra,"Tciclo"); 
0A4AA:  MOVLW  04
0A4AC:  MOVWF  FEA
0A4AE:  MOVLW  18
0A4B0:  MOVWF  FE9
0A4B2:  MOVFF  FF2,751
0A4B6:  BCF    FF2.7
0A4B8:  MOVLW  00
0A4BA:  MOVLB  0
0A4BC:  CALL   12A2
0A4C0:  TBLRD*-
0A4C2:  TBLRD*+
0A4C4:  MOVF   FF5,W
0A4C6:  MOVWF  FEE
0A4C8:  IORLW  00
0A4CA:  BNZ   A4C2
0A4CC:  MOVLB  7
0A4CE:  BTFSC  x51.7
0A4D0:  BSF    FF2.7
....................             displayMenu(Menus.Letra,0,27,1,1);} 
0A4D2:  MOVLW  04
0A4D4:  MOVWF  x52
0A4D6:  MOVLW  18
0A4D8:  MOVWF  x51
0A4DA:  CLRF   x53
0A4DC:  MOVLW  1B
0A4DE:  MOVWF  x54
0A4E0:  MOVLW  01
0A4E2:  MOVWF  x55
0A4E4:  MOVWF  x56
0A4E6:  MOVLB  0
0A4E8:  CALL   21C8
....................          else 
0A4EC:  BRA    A532
0A4EE:  MOVLB  7
....................             {strcpy(Menus.Letra,"Tciclo"); 
0A4F0:  MOVLW  04
0A4F2:  MOVWF  FEA
0A4F4:  MOVLW  18
0A4F6:  MOVWF  FE9
0A4F8:  MOVFF  FF2,751
0A4FC:  BCF    FF2.7
0A4FE:  MOVLW  00
0A500:  MOVLB  0
0A502:  CALL   12A2
0A506:  TBLRD*-
0A508:  TBLRD*+
0A50A:  MOVF   FF5,W
0A50C:  MOVWF  FEE
0A50E:  IORLW  00
0A510:  BNZ   A508
0A512:  MOVLB  7
0A514:  BTFSC  x51.7
0A516:  BSF    FF2.7
....................             displayMenu(Menus.Letra,0,27,0,1);} 
0A518:  MOVLW  04
0A51A:  MOVWF  x52
0A51C:  MOVLW  18
0A51E:  MOVWF  x51
0A520:  CLRF   x53
0A522:  MOVLW  1B
0A524:  MOVWF  x54
0A526:  CLRF   x55
0A528:  MOVLW  01
0A52A:  MOVWF  x56
0A52C:  MOVLB  0
0A52E:  CALL   21C8
....................              
....................          if(Opcion==5)    
0A532:  MOVLB  7
0A534:  MOVF   x05,W
0A536:  SUBLW  05
0A538:  BNZ   A580
....................             {strcpy(Menus.Letra,"Ajuste +"); 
0A53A:  MOVLW  04
0A53C:  MOVWF  FEA
0A53E:  MOVLW  18
0A540:  MOVWF  FE9
0A542:  MOVFF  FF2,751
0A546:  BCF    FF2.7
0A548:  MOVLW  00
0A54A:  MOVLB  0
0A54C:  CALL   12C8
0A550:  TBLRD*-
0A552:  TBLRD*+
0A554:  MOVF   FF5,W
0A556:  MOVWF  FEE
0A558:  IORLW  00
0A55A:  BNZ   A552
0A55C:  MOVLB  7
0A55E:  BTFSC  x51.7
0A560:  BSF    FF2.7
....................             displayMenu(Menus.Letra,0,36,1,1);} 
0A562:  MOVLW  04
0A564:  MOVWF  x52
0A566:  MOVLW  18
0A568:  MOVWF  x51
0A56A:  CLRF   x53
0A56C:  MOVLW  24
0A56E:  MOVWF  x54
0A570:  MOVLW  01
0A572:  MOVWF  x55
0A574:  MOVWF  x56
0A576:  MOVLB  0
0A578:  CALL   21C8
....................          else 
0A57C:  BRA    A5C2
0A57E:  MOVLB  7
....................             {strcpy(Menus.Letra,"Ajuste +"); 
0A580:  MOVLW  04
0A582:  MOVWF  FEA
0A584:  MOVLW  18
0A586:  MOVWF  FE9
0A588:  MOVFF  FF2,751
0A58C:  BCF    FF2.7
0A58E:  MOVLW  00
0A590:  MOVLB  0
0A592:  CALL   12C8
0A596:  TBLRD*-
0A598:  TBLRD*+
0A59A:  MOVF   FF5,W
0A59C:  MOVWF  FEE
0A59E:  IORLW  00
0A5A0:  BNZ   A598
0A5A2:  MOVLB  7
0A5A4:  BTFSC  x51.7
0A5A6:  BSF    FF2.7
....................             displayMenu(Menus.Letra,0,36,0,1);}    
0A5A8:  MOVLW  04
0A5AA:  MOVWF  x52
0A5AC:  MOVLW  18
0A5AE:  MOVWF  x51
0A5B0:  CLRF   x53
0A5B2:  MOVLW  24
0A5B4:  MOVWF  x54
0A5B6:  CLRF   x55
0A5B8:  MOVLW  01
0A5BA:  MOVWF  x56
0A5BC:  MOVLB  0
0A5BE:  CALL   21C8
....................                          
....................          if(Opcion==6)    
0A5C2:  MOVLB  7
0A5C4:  MOVF   x05,W
0A5C6:  SUBLW  06
0A5C8:  BNZ   A610
....................             {strcpy(Menus.Letra,"Ajuste -"); 
0A5CA:  MOVLW  04
0A5CC:  MOVWF  FEA
0A5CE:  MOVLW  18
0A5D0:  MOVWF  FE9
0A5D2:  MOVFF  FF2,751
0A5D6:  BCF    FF2.7
0A5D8:  MOVLW  00
0A5DA:  MOVLB  0
0A5DC:  CALL   12F0
0A5E0:  TBLRD*-
0A5E2:  TBLRD*+
0A5E4:  MOVF   FF5,W
0A5E6:  MOVWF  FEE
0A5E8:  IORLW  00
0A5EA:  BNZ   A5E2
0A5EC:  MOVLB  7
0A5EE:  BTFSC  x51.7
0A5F0:  BSF    FF2.7
....................             displayMenu(Menus.Letra,0,45,1,1);} 
0A5F2:  MOVLW  04
0A5F4:  MOVWF  x52
0A5F6:  MOVLW  18
0A5F8:  MOVWF  x51
0A5FA:  CLRF   x53
0A5FC:  MOVLW  2D
0A5FE:  MOVWF  x54
0A600:  MOVLW  01
0A602:  MOVWF  x55
0A604:  MOVWF  x56
0A606:  MOVLB  0
0A608:  CALL   21C8
....................          else 
0A60C:  BRA    A652
0A60E:  MOVLB  7
....................             {strcpy(Menus.Letra,"Ajuste -"); 
0A610:  MOVLW  04
0A612:  MOVWF  FEA
0A614:  MOVLW  18
0A616:  MOVWF  FE9
0A618:  MOVFF  FF2,751
0A61C:  BCF    FF2.7
0A61E:  MOVLW  00
0A620:  MOVLB  0
0A622:  CALL   12F0
0A626:  TBLRD*-
0A628:  TBLRD*+
0A62A:  MOVF   FF5,W
0A62C:  MOVWF  FEE
0A62E:  IORLW  00
0A630:  BNZ   A628
0A632:  MOVLB  7
0A634:  BTFSC  x51.7
0A636:  BSF    FF2.7
....................             displayMenu(Menus.Letra,0,45,0,1);}      
0A638:  MOVLW  04
0A63A:  MOVWF  x52
0A63C:  MOVLW  18
0A63E:  MOVWF  x51
0A640:  CLRF   x53
0A642:  MOVLW  2D
0A644:  MOVWF  x54
0A646:  CLRF   x55
0A648:  MOVLW  01
0A64A:  MOVWF  x56
0A64C:  MOVLB  0
0A64E:  CALL   21C8
....................       } 
....................       else{ 
0A652:  BRA    A910
0A654:  MOVLB  7
....................          if(Opcion==7)    
0A656:  MOVF   x05,W
0A658:  SUBLW  07
0A65A:  BNZ   A6A0
....................             {strcpy(Menus.Letra,"Media Movil"); 
0A65C:  MOVLW  04
0A65E:  MOVWF  FEA
0A660:  MOVLW  18
0A662:  MOVWF  FE9
0A664:  MOVFF  FF2,751
0A668:  BCF    FF2.7
0A66A:  MOVLW  00
0A66C:  MOVLB  0
0A66E:  CALL   1318
0A672:  TBLRD*-
0A674:  TBLRD*+
0A676:  MOVF   FF5,W
0A678:  MOVWF  FEE
0A67A:  IORLW  00
0A67C:  BNZ   A674
0A67E:  MOVLB  7
0A680:  BTFSC  x51.7
0A682:  BSF    FF2.7
....................             displayMenu(Menus.Letra,0,0,1,1);} 
0A684:  MOVLW  04
0A686:  MOVWF  x52
0A688:  MOVLW  18
0A68A:  MOVWF  x51
0A68C:  CLRF   x53
0A68E:  CLRF   x54
0A690:  MOVLW  01
0A692:  MOVWF  x55
0A694:  MOVWF  x56
0A696:  MOVLB  0
0A698:  CALL   21C8
....................          else 
0A69C:  BRA    A6E0
0A69E:  MOVLB  7
....................             {strcpy(Menus.Letra,"Media Movil"); 
0A6A0:  MOVLW  04
0A6A2:  MOVWF  FEA
0A6A4:  MOVLW  18
0A6A6:  MOVWF  FE9
0A6A8:  MOVFF  FF2,751
0A6AC:  BCF    FF2.7
0A6AE:  MOVLW  00
0A6B0:  MOVLB  0
0A6B2:  CALL   1318
0A6B6:  TBLRD*-
0A6B8:  TBLRD*+
0A6BA:  MOVF   FF5,W
0A6BC:  MOVWF  FEE
0A6BE:  IORLW  00
0A6C0:  BNZ   A6B8
0A6C2:  MOVLB  7
0A6C4:  BTFSC  x51.7
0A6C6:  BSF    FF2.7
....................             displayMenu(Menus.Letra,0,0,0,1);}      
0A6C8:  MOVLW  04
0A6CA:  MOVWF  x52
0A6CC:  MOVLW  18
0A6CE:  MOVWF  x51
0A6D0:  CLRF   x53
0A6D2:  CLRF   x54
0A6D4:  CLRF   x55
0A6D6:  MOVLW  01
0A6D8:  MOVWF  x56
0A6DA:  MOVLB  0
0A6DC:  CALL   21C8
....................              
....................          if(Opcion==8)    
0A6E0:  MOVLB  7
0A6E2:  MOVF   x05,W
0A6E4:  SUBLW  08
0A6E6:  BNZ   A72E
....................             {strcpy(Menus.Letra,"Ganancia    "); 
0A6E8:  MOVLW  04
0A6EA:  MOVWF  FEA
0A6EC:  MOVLW  18
0A6EE:  MOVWF  FE9
0A6F0:  MOVFF  FF2,751
0A6F4:  BCF    FF2.7
0A6F6:  MOVLW  00
0A6F8:  MOVLB  0
0A6FA:  CALL   1342
0A6FE:  TBLRD*-
0A700:  TBLRD*+
0A702:  MOVF   FF5,W
0A704:  MOVWF  FEE
0A706:  IORLW  00
0A708:  BNZ   A700
0A70A:  MOVLB  7
0A70C:  BTFSC  x51.7
0A70E:  BSF    FF2.7
....................             displayMenu(Menus.Letra,0,9,1,1);} 
0A710:  MOVLW  04
0A712:  MOVWF  x52
0A714:  MOVLW  18
0A716:  MOVWF  x51
0A718:  CLRF   x53
0A71A:  MOVLW  09
0A71C:  MOVWF  x54
0A71E:  MOVLW  01
0A720:  MOVWF  x55
0A722:  MOVWF  x56
0A724:  MOVLB  0
0A726:  CALL   21C8
....................          else 
0A72A:  BRA    A770
0A72C:  MOVLB  7
....................             {strcpy(Menus.Letra,"Ganancia    "); 
0A72E:  MOVLW  04
0A730:  MOVWF  FEA
0A732:  MOVLW  18
0A734:  MOVWF  FE9
0A736:  MOVFF  FF2,751
0A73A:  BCF    FF2.7
0A73C:  MOVLW  00
0A73E:  MOVLB  0
0A740:  CALL   1342
0A744:  TBLRD*-
0A746:  TBLRD*+
0A748:  MOVF   FF5,W
0A74A:  MOVWF  FEE
0A74C:  IORLW  00
0A74E:  BNZ   A746
0A750:  MOVLB  7
0A752:  BTFSC  x51.7
0A754:  BSF    FF2.7
....................             displayMenu(Menus.Letra,0,9,0,1);}   
0A756:  MOVLW  04
0A758:  MOVWF  x52
0A75A:  MOVLW  18
0A75C:  MOVWF  x51
0A75E:  CLRF   x53
0A760:  MOVLW  09
0A762:  MOVWF  x54
0A764:  CLRF   x55
0A766:  MOVLW  01
0A768:  MOVWF  x56
0A76A:  MOVLB  0
0A76C:  CALL   21C8
....................              
....................          if(Opcion==9)    
0A770:  MOVLB  7
0A772:  MOVF   x05,W
0A774:  SUBLW  09
0A776:  BNZ   A7BE
....................             {strcpy(Menus.Letra,"R51         "); 
0A778:  MOVLW  04
0A77A:  MOVWF  FEA
0A77C:  MOVLW  18
0A77E:  MOVWF  FE9
0A780:  MOVFF  FF2,751
0A784:  BCF    FF2.7
0A786:  MOVLW  00
0A788:  MOVLB  0
0A78A:  CALL   136E
0A78E:  TBLRD*-
0A790:  TBLRD*+
0A792:  MOVF   FF5,W
0A794:  MOVWF  FEE
0A796:  IORLW  00
0A798:  BNZ   A790
0A79A:  MOVLB  7
0A79C:  BTFSC  x51.7
0A79E:  BSF    FF2.7
....................             displayMenu(Menus.Letra,0,18,1,1);} 
0A7A0:  MOVLW  04
0A7A2:  MOVWF  x52
0A7A4:  MOVLW  18
0A7A6:  MOVWF  x51
0A7A8:  CLRF   x53
0A7AA:  MOVLW  12
0A7AC:  MOVWF  x54
0A7AE:  MOVLW  01
0A7B0:  MOVWF  x55
0A7B2:  MOVWF  x56
0A7B4:  MOVLB  0
0A7B6:  CALL   21C8
....................          else 
0A7BA:  BRA    A800
0A7BC:  MOVLB  7
....................             {strcpy(Menus.Letra,"R51         "); 
0A7BE:  MOVLW  04
0A7C0:  MOVWF  FEA
0A7C2:  MOVLW  18
0A7C4:  MOVWF  FE9
0A7C6:  MOVFF  FF2,751
0A7CA:  BCF    FF2.7
0A7CC:  MOVLW  00
0A7CE:  MOVLB  0
0A7D0:  CALL   136E
0A7D4:  TBLRD*-
0A7D6:  TBLRD*+
0A7D8:  MOVF   FF5,W
0A7DA:  MOVWF  FEE
0A7DC:  IORLW  00
0A7DE:  BNZ   A7D6
0A7E0:  MOVLB  7
0A7E2:  BTFSC  x51.7
0A7E4:  BSF    FF2.7
....................             displayMenu(Menus.Letra,0,18,0,1);}      
0A7E6:  MOVLW  04
0A7E8:  MOVWF  x52
0A7EA:  MOVLW  18
0A7EC:  MOVWF  x51
0A7EE:  CLRF   x53
0A7F0:  MOVLW  12
0A7F2:  MOVWF  x54
0A7F4:  CLRF   x55
0A7F6:  MOVLW  01
0A7F8:  MOVWF  x56
0A7FA:  MOVLB  0
0A7FC:  CALL   21C8
....................           
....................          if(Opcion==10)    
0A800:  MOVLB  7
0A802:  MOVF   x05,W
0A804:  SUBLW  0A
0A806:  BNZ   A84E
....................             {strcpy(Menus.Letra,"RPT100 B     "); 
0A808:  MOVLW  04
0A80A:  MOVWF  FEA
0A80C:  MOVLW  18
0A80E:  MOVWF  FE9
0A810:  MOVFF  FF2,751
0A814:  BCF    FF2.7
0A816:  MOVLW  00
0A818:  MOVLB  0
0A81A:  CALL   139A
0A81E:  TBLRD*-
0A820:  TBLRD*+
0A822:  MOVF   FF5,W
0A824:  MOVWF  FEE
0A826:  IORLW  00
0A828:  BNZ   A820
0A82A:  MOVLB  7
0A82C:  BTFSC  x51.7
0A82E:  BSF    FF2.7
....................             displayMenu(Menus.Letra,0,27,1,1);} 
0A830:  MOVLW  04
0A832:  MOVWF  x52
0A834:  MOVLW  18
0A836:  MOVWF  x51
0A838:  CLRF   x53
0A83A:  MOVLW  1B
0A83C:  MOVWF  x54
0A83E:  MOVLW  01
0A840:  MOVWF  x55
0A842:  MOVWF  x56
0A844:  MOVLB  0
0A846:  CALL   21C8
....................          else 
0A84A:  BRA    A890
0A84C:  MOVLB  7
....................             {strcpy(Menus.Letra,"RPT100 B     "); 
0A84E:  MOVLW  04
0A850:  MOVWF  FEA
0A852:  MOVLW  18
0A854:  MOVWF  FE9
0A856:  MOVFF  FF2,751
0A85A:  BCF    FF2.7
0A85C:  MOVLW  00
0A85E:  MOVLB  0
0A860:  CALL   139A
0A864:  TBLRD*-
0A866:  TBLRD*+
0A868:  MOVF   FF5,W
0A86A:  MOVWF  FEE
0A86C:  IORLW  00
0A86E:  BNZ   A866
0A870:  MOVLB  7
0A872:  BTFSC  x51.7
0A874:  BSF    FF2.7
....................             displayMenu(Menus.Letra,0,27,0,1);}      
0A876:  MOVLW  04
0A878:  MOVWF  x52
0A87A:  MOVLW  18
0A87C:  MOVWF  x51
0A87E:  CLRF   x53
0A880:  MOVLW  1B
0A882:  MOVWF  x54
0A884:  CLRF   x55
0A886:  MOVLW  01
0A888:  MOVWF  x56
0A88A:  MOVLB  0
0A88C:  CALL   21C8
....................              
....................             strcpy(Menus.Letra,"            "); 
0A890:  MOVLW  04
0A892:  MOVWF  FEA
0A894:  MOVLW  18
0A896:  MOVWF  FE9
0A898:  MOVFF  FF2,751
0A89C:  BCF    FF2.7
0A89E:  MOVLW  00
0A8A0:  CALL   13C6
0A8A4:  TBLRD*-
0A8A6:  TBLRD*+
0A8A8:  MOVF   FF5,W
0A8AA:  MOVWF  FEE
0A8AC:  IORLW  00
0A8AE:  BNZ   A8A6
0A8B0:  MOVLB  7
0A8B2:  BTFSC  x51.7
0A8B4:  BSF    FF2.7
....................             displayMenu(Menus.Letra,0,36,0,1); 
0A8B6:  MOVLW  04
0A8B8:  MOVWF  x52
0A8BA:  MOVLW  18
0A8BC:  MOVWF  x51
0A8BE:  CLRF   x53
0A8C0:  MOVLW  24
0A8C2:  MOVWF  x54
0A8C4:  CLRF   x55
0A8C6:  MOVLW  01
0A8C8:  MOVWF  x56
0A8CA:  MOVLB  0
0A8CC:  CALL   21C8
....................              
....................             strcpy(Menus.Letra,"            "); 
0A8D0:  MOVLW  04
0A8D2:  MOVWF  FEA
0A8D4:  MOVLW  18
0A8D6:  MOVWF  FE9
0A8D8:  MOVFF  FF2,751
0A8DC:  BCF    FF2.7
0A8DE:  MOVLW  00
0A8E0:  CALL   13C6
0A8E4:  TBLRD*-
0A8E6:  TBLRD*+
0A8E8:  MOVF   FF5,W
0A8EA:  MOVWF  FEE
0A8EC:  IORLW  00
0A8EE:  BNZ   A8E6
0A8F0:  MOVLB  7
0A8F2:  BTFSC  x51.7
0A8F4:  BSF    FF2.7
....................             displayMenu(Menus.Letra,0,45,0,1); 
0A8F6:  MOVLW  04
0A8F8:  MOVWF  x52
0A8FA:  MOVLW  18
0A8FC:  MOVWF  x51
0A8FE:  CLRF   x53
0A900:  MOVLW  2D
0A902:  MOVWF  x54
0A904:  CLRF   x55
0A906:  MOVLW  01
0A908:  MOVWF  x56
0A90A:  MOVLB  0
0A90C:  CALL   21C8
....................       }    
....................        
....................          if(UP)//Si oprime hacia arriba 
0A910:  BSF    F92.4
0A912:  BTFSC  F80.4
0A914:  BRA    A940
....................          { 
....................             delay_ms(10); 
0A916:  MOVLW  0A
0A918:  MOVLB  7
0A91A:  MOVWF  x57
0A91C:  MOVLB  0
0A91E:  CALL   16B6
....................             if(Flanco == 0) 
0A922:  MOVLB  4
0A924:  BTFSC  x84.3
0A926:  BRA    A93E
....................                {Flanco = 1;delay_ms(30);Opcion--;visual=1; 
0A928:  BSF    x84.3
0A92A:  MOVLW  1E
0A92C:  MOVLB  7
0A92E:  MOVWF  x57
0A930:  MOVLB  0
0A932:  CALL   16B6
0A936:  MOVLB  7
0A938:  DECF   x05,F
0A93A:  MOVLB  4
0A93C:  BSF    x84.6
....................                } 
....................          } 
....................             else 
0A93E:  BRA    A944
....................                {Flanco = 0;} 
0A940:  MOVLB  4
0A942:  BCF    x84.3
....................                    
....................          if(DOWN)//Si oprime hacia abajo 
0A944:  BSF    F92.5
0A946:  BTFSC  F80.5
0A948:  BRA    A974
....................          { 
....................             delay_ms(10); 
0A94A:  MOVLW  0A
0A94C:  MOVLB  7
0A94E:  MOVWF  x57
0A950:  MOVLB  0
0A952:  CALL   16B6
....................             if(Flanco2 == 0) 
0A956:  MOVLB  4
0A958:  BTFSC  x84.5
0A95A:  BRA    A972
....................                {Flanco2 = 1;delay_ms(30);Opcion++;visual=1; 
0A95C:  BSF    x84.5
0A95E:  MOVLW  1E
0A960:  MOVLB  7
0A962:  MOVWF  x57
0A964:  MOVLB  0
0A966:  CALL   16B6
0A96A:  MOVLB  7
0A96C:  INCF   x05,F
0A96E:  MOVLB  4
0A970:  BSF    x84.6
....................                }      
....................          } 
....................             else 
0A972:  BRA    A976
....................                {Flanco2 = 0;}   
0A974:  BCF    x84.5
....................                 
....................          if(RIGHT)//Si oprime SET 
0A976:  BSF    F96.0
0A978:  BTFSC  F84.0
0A97A:  BRA    A9BA
....................          {   
....................             delay_ms(10); 
0A97C:  MOVLW  0A
0A97E:  MOVLB  7
0A980:  MOVWF  x57
0A982:  MOVLB  0
0A984:  CALL   16B6
....................             if(Flanco1 == 0) 
0A988:  MOVLB  4
0A98A:  BTFSC  x84.4
0A98C:  BRA    A9B8
....................                {Flanco1 = 1;delay_ms(30);Menu=Opcion+100;Opcion=1;glcd_fillscreen(OFF);visual=1; 
0A98E:  BSF    x84.4
0A990:  MOVLW  1E
0A992:  MOVLB  7
0A994:  MOVWF  x57
0A996:  MOVLB  0
0A998:  CALL   16B6
0A99C:  MOVLW  64
0A99E:  MOVLB  7
0A9A0:  ADDWF  x05,W
0A9A2:  MOVLB  6
0A9A4:  MOVWF  xFC
0A9A6:  MOVLW  01
0A9A8:  MOVLB  7
0A9AA:  MOVWF  x05
0A9AC:  CLRF   x52
0A9AE:  MOVLB  0
0A9B0:  CALL   1B9A
0A9B4:  MOVLB  4
0A9B6:  BSF    x84.6
....................                } 
....................          } 
....................             else 
0A9B8:  BRA    A9BC
....................                {Flanco1 = 0;}  
0A9BA:  BCF    x84.4
....................                 
....................          if(LEFT)//Si oprime boton de Toma. 
0A9BC:  BSF    F96.1
0A9BE:  BTFSC  F84.1
0A9C0:  BRA    A9FE
....................          { 
....................             delay_ms(10); 
0A9C2:  MOVLW  0A
0A9C4:  MOVLB  7
0A9C6:  MOVWF  x57
0A9C8:  MOVLB  0
0A9CA:  CALL   16B6
....................             delay_ms(700);Menu=1;glcd_fillscreen(OFF);Opcion=1;visual=1;             
0A9CE:  MOVLW  04
0A9D0:  MOVLB  7
0A9D2:  MOVWF  x51
0A9D4:  MOVLW  AF
0A9D6:  MOVWF  x57
0A9D8:  MOVLB  0
0A9DA:  CALL   16B6
0A9DE:  MOVLB  7
0A9E0:  DECFSZ x51,F
0A9E2:  BRA    A9D4
0A9E4:  MOVLW  01
0A9E6:  MOVLB  6
0A9E8:  MOVWF  xFC
0A9EA:  MOVLB  7
0A9EC:  CLRF   x52
0A9EE:  MOVLB  0
0A9F0:  CALL   1B9A
0A9F4:  MOVLW  01
0A9F6:  MOVLB  7
0A9F8:  MOVWF  x05
0A9FA:  MOVLB  4
0A9FC:  BSF    x84.6
0A9FE:  MOVLB  6
....................          }       
....................          
....................     } 
.................... //_--------------------------------------------------------------------------------------------------------------------------------------------------------        
....................  
.................... //_--------------------------------------------------------------------------------------------------------------------------------------------------------       
....................       if(Menu==101){ // Menu de Ajuste de Ganancia 
0AA00:  MOVF   xFC,W
0AA02:  SUBLW  65
0AA04:  BTFSS  FD8.2
0AA06:  BRA    AC90
....................        
....................       if(Ganancia>40) 
0AA08:  MOVLB  7
0AA0A:  CLRF   x55
0AA0C:  CLRF   x54
0AA0E:  MOVLW  20
0AA10:  MOVWF  x53
0AA12:  MOVLW  84
0AA14:  MOVWF  x52
0AA16:  MOVFF  6C7,759
0AA1A:  MOVFF  6C6,758
0AA1E:  MOVFF  6C5,757
0AA22:  MOVFF  6C4,756
0AA26:  MOVLB  0
0AA28:  CALL   1AEA
0AA2C:  BNC   AA3A
....................       { 
....................          Ganancia=2; 
0AA2E:  MOVLB  6
0AA30:  CLRF   xC7
0AA32:  CLRF   xC6
0AA34:  CLRF   xC5
0AA36:  MOVLW  80
0AA38:  MOVWF  xC4
....................       } 
....................        
....................       if(visual==1) 
0AA3A:  MOVLB  4
0AA3C:  BTFSS  x84.6
0AA3E:  BRA    AAC6
....................       { 
....................          glcd_fillScreen(OFF); 
0AA40:  MOVLB  7
0AA42:  CLRF   x52
0AA44:  MOVLB  0
0AA46:  CALL   1B9A
....................          strcpy(Menus.Letra,"P"); 
0AA4A:  MOVLW  04
0AA4C:  MOVWF  FEA
0AA4E:  MOVLW  18
0AA50:  MOVWF  FE9
0AA52:  MOVFF  FF2,751
0AA56:  BCF    FF2.7
0AA58:  MOVLW  00
0AA5A:  CALL   13F2
0AA5E:  TBLRD*-
0AA60:  TBLRD*+
0AA62:  MOVF   FF5,W
0AA64:  MOVWF  FEE
0AA66:  IORLW  00
0AA68:  BNZ   AA60
0AA6A:  MOVLB  7
0AA6C:  BTFSC  x51.7
0AA6E:  BSF    FF2.7
....................          displayMenu(Menus.Letra,0,0,1,2); 
0AA70:  MOVLW  04
0AA72:  MOVWF  x52
0AA74:  MOVLW  18
0AA76:  MOVWF  x51
0AA78:  CLRF   x53
0AA7A:  CLRF   x54
0AA7C:  MOVLW  01
0AA7E:  MOVWF  x55
0AA80:  MOVLW  02
0AA82:  MOVWF  x56
0AA84:  MOVLB  0
0AA86:  CALL   21C8
....................           
....................          displayTemperatura(Ganancia,30,30,0,3); 
0AA8A:  MOVFF  6C7,754
0AA8E:  MOVFF  6C6,753
0AA92:  MOVFF  6C5,752
0AA96:  MOVFF  6C4,751
0AA9A:  CALL   2A36
0AA9E:  MOVFF  02,752
0AAA2:  MOVFF  01,751
0AAA6:  MOVFF  02,754
0AAAA:  MOVFF  01,753
0AAAE:  MOVLW  1E
0AAB0:  MOVLB  7
0AAB2:  MOVWF  x55
0AAB4:  MOVWF  x56
0AAB6:  CLRF   x57
0AAB8:  MOVLW  03
0AABA:  MOVWF  x58
0AABC:  MOVLB  0
0AABE:  CALL   4746
....................           
....................          visual=0; 
0AAC2:  MOVLB  4
0AAC4:  BCF    x84.6
....................       } 
....................        
....................          if(UP)//Si oprime hacia arriba 
0AAC6:  BSF    F92.4
0AAC8:  BTFSC  F80.4
0AACA:  BRA    AB64
....................          {   
....................             delay_ms(10); 
0AACC:  MOVLW  0A
0AACE:  MOVLB  7
0AAD0:  MOVWF  x57
0AAD2:  MOVLB  0
0AAD4:  CALL   16B6
....................             if(Ganancia>40) 
0AAD8:  MOVLB  7
0AADA:  CLRF   x55
0AADC:  CLRF   x54
0AADE:  MOVLW  20
0AAE0:  MOVWF  x53
0AAE2:  MOVLW  84
0AAE4:  MOVWF  x52
0AAE6:  MOVFF  6C7,759
0AAEA:  MOVFF  6C6,758
0AAEE:  MOVFF  6C5,757
0AAF2:  MOVFF  6C4,756
0AAF6:  MOVLB  0
0AAF8:  CALL   1AEA
0AAFC:  BNC   AB20
....................             { 
....................                Ganancia=40;delay_ms(100);visual=1; 
0AAFE:  MOVLB  6
0AB00:  CLRF   xC7
0AB02:  CLRF   xC6
0AB04:  MOVLW  20
0AB06:  MOVWF  xC5
0AB08:  MOVLW  84
0AB0A:  MOVWF  xC4
0AB0C:  MOVLW  64
0AB0E:  MOVLB  7
0AB10:  MOVWF  x57
0AB12:  MOVLB  0
0AB14:  CALL   16B6
0AB18:  MOVLB  4
0AB1A:  BSF    x84.6
....................             } 
....................             else 
0AB1C:  BRA    AB64
0AB1E:  MOVLB  0
....................             { 
....................                delay_ms(30);Ganancia+=1.0;visual=1; 
0AB20:  MOVLW  1E
0AB22:  MOVLB  7
0AB24:  MOVWF  x57
0AB26:  MOVLB  0
0AB28:  CALL   16B6
0AB2C:  BCF    FD8.1
0AB2E:  MOVFF  6C7,759
0AB32:  MOVFF  6C6,758
0AB36:  MOVFF  6C5,757
0AB3A:  MOVFF  6C4,756
0AB3E:  MOVLB  7
0AB40:  CLRF   x5D
0AB42:  CLRF   x5C
0AB44:  CLRF   x5B
0AB46:  MOVLW  7F
0AB48:  MOVWF  x5A
0AB4A:  MOVLB  0
0AB4C:  CALL   1872
0AB50:  MOVFF  03,6C7
0AB54:  MOVFF  02,6C6
0AB58:  MOVFF  01,6C5
0AB5C:  MOVFF  00,6C4
0AB60:  MOVLB  4
0AB62:  BSF    x84.6
....................             } 
....................          } 
....................                 
....................          if(DOWN)//Si oprime hacia abajo 
0AB64:  BSF    F92.5
0AB66:  BTFSC  F80.5
0AB68:  BRA    ABDE
....................          {   
....................             delay_ms(10); 
0AB6A:  MOVLW  0A
0AB6C:  MOVLB  7
0AB6E:  MOVWF  x57
0AB70:  MOVLB  0
0AB72:  CALL   16B6
....................             if(Ganancia>1) 
0AB76:  MOVLB  7
0AB78:  CLRF   x55
0AB7A:  CLRF   x54
0AB7C:  CLRF   x53
0AB7E:  MOVLW  7F
0AB80:  MOVWF  x52
0AB82:  MOVFF  6C7,759
0AB86:  MOVFF  6C6,758
0AB8A:  MOVFF  6C5,757
0AB8E:  MOVFF  6C4,756
0AB92:  MOVLB  0
0AB94:  CALL   1AEA
0AB98:  BNC   ABE0
....................             { 
....................                delay_ms(30);Ganancia-=1.0;visual=1;      
0AB9A:  MOVLW  1E
0AB9C:  MOVLB  7
0AB9E:  MOVWF  x57
0ABA0:  MOVLB  0
0ABA2:  CALL   16B6
0ABA6:  BSF    FD8.1
0ABA8:  MOVFF  6C7,759
0ABAC:  MOVFF  6C6,758
0ABB0:  MOVFF  6C5,757
0ABB4:  MOVFF  6C4,756
0ABB8:  MOVLB  7
0ABBA:  CLRF   x5D
0ABBC:  CLRF   x5C
0ABBE:  CLRF   x5B
0ABC0:  MOVLW  7F
0ABC2:  MOVWF  x5A
0ABC4:  MOVLB  0
0ABC6:  CALL   1872
0ABCA:  MOVFF  03,6C7
0ABCE:  MOVFF  02,6C6
0ABD2:  MOVFF  01,6C5
0ABD6:  MOVFF  00,6C4
0ABDA:  MOVLB  4
0ABDC:  BSF    x84.6
0ABDE:  MOVLB  0
....................             } 
....................          } 
....................                 
....................          if(RIGHT)//Si oprime SET 
0ABE0:  BSF    F96.0
0ABE2:  BTFSC  F84.0
0ABE4:  BRA    AC04
....................          {   
....................             delay_ms(10); 
0ABE6:  MOVLW  0A
0ABE8:  MOVLB  7
0ABEA:  MOVWF  x57
0ABEC:  MOVLB  0
0ABEE:  CALL   16B6
....................             delay_ms(30);visual=1; 
0ABF2:  MOVLW  1E
0ABF4:  MOVLB  7
0ABF6:  MOVWF  x57
0ABF8:  MOVLB  0
0ABFA:  CALL   16B6
0ABFE:  MOVLB  4
0AC00:  BSF    x84.6
0AC02:  MOVLB  0
....................          }  
....................                    
....................          if(LEFT)//Si oprime boton de Toma. 
0AC04:  BSF    F96.1
0AC06:  BTFSC  F84.1
0AC08:  BRA    AC8E
....................          { 
....................             delay_ms(10); 
0AC0A:  MOVLW  0A
0AC0C:  MOVLB  7
0AC0E:  MOVWF  x57
0AC10:  MOVLB  0
0AC12:  CALL   16B6
....................             delay_ms(700);Menu=100;glcd_fillscreen(OFF);Opcion=1;visual=1; 
0AC16:  MOVLW  04
0AC18:  MOVLB  7
0AC1A:  MOVWF  x51
0AC1C:  MOVLW  AF
0AC1E:  MOVWF  x57
0AC20:  MOVLB  0
0AC22:  CALL   16B6
0AC26:  MOVLB  7
0AC28:  DECFSZ x51,F
0AC2A:  BRA    AC1C
0AC2C:  MOVLW  64
0AC2E:  MOVLB  6
0AC30:  MOVWF  xFC
0AC32:  MOVLB  7
0AC34:  CLRF   x52
0AC36:  MOVLB  0
0AC38:  CALL   1B9A
0AC3C:  MOVLW  01
0AC3E:  MOVLB  7
0AC40:  MOVWF  x05
0AC42:  MOVLB  4
0AC44:  BSF    x84.6
....................             write_eeprom(20,(int8)Ganancia); 
0AC46:  MOVFF  6C7,754
0AC4A:  MOVFF  6C6,753
0AC4E:  MOVFF  6C5,752
0AC52:  MOVFF  6C4,751
0AC56:  MOVLB  0
0AC58:  CALL   2A36
0AC5C:  MOVFF  01,751
0AC60:  CLRF   FAA
0AC62:  MOVLW  14
0AC64:  MOVWF  FA9
0AC66:  MOVFF  751,FA8
0AC6A:  BCF    FA6.6
0AC6C:  BCF    FA6.7
0AC6E:  BSF    FA6.2
0AC70:  MOVF   FF2,W
0AC72:  MOVWF  00
0AC74:  BCF    FF2.7
0AC76:  MOVLB  F
0AC78:  MOVLW  55
0AC7A:  MOVWF  FA7
0AC7C:  MOVLW  AA
0AC7E:  MOVWF  FA7
0AC80:  BSF    FA6.1
0AC82:  BTFSC  FA6.1
0AC84:  BRA    AC82
0AC86:  BCF    FA6.2
0AC88:  MOVF   00,W
0AC8A:  IORWF  FF2,F
0AC8C:  MOVLB  0
0AC8E:  MOVLB  6
....................          } 
....................      } 
.................... //_-------------------------------------------------------------------------------------------------------------------------------------------------------- 
....................  
.................... //_--------------------------------------------------------------------------------------------------------------------------------------------------------       
....................       if(Menu==102){ // Menu de Ajuste de Integral 
0AC90:  MOVF   xFC,W
0AC92:  SUBLW  66
0AC94:  BTFSS  FD8.2
0AC96:  BRA    AEA6
....................        
....................       if(Integral>40) 
0AC98:  MOVF   xF4,W
0AC9A:  SUBLW  28
0AC9C:  BC    ACA2
....................       { 
....................          Integral=1; 
0AC9E:  MOVLW  01
0ACA0:  MOVWF  xF4
....................       } 
....................        
....................       if(visual==1) 
0ACA2:  MOVLB  4
0ACA4:  BTFSS  x84.6
0ACA6:  BRA    AD10
....................       { 
....................          glcd_fillScreen(OFF); 
0ACA8:  MOVLB  7
0ACAA:  CLRF   x52
0ACAC:  MOVLB  0
0ACAE:  CALL   1B9A
....................          strcpy(Menus.Letra,"I"); 
0ACB2:  MOVLW  04
0ACB4:  MOVWF  FEA
0ACB6:  MOVLW  18
0ACB8:  MOVWF  FE9
0ACBA:  MOVFF  FF2,751
0ACBE:  BCF    FF2.7
0ACC0:  MOVLW  00
0ACC2:  CALL   1412
0ACC6:  TBLRD*-
0ACC8:  TBLRD*+
0ACCA:  MOVF   FF5,W
0ACCC:  MOVWF  FEE
0ACCE:  IORLW  00
0ACD0:  BNZ   ACC8
0ACD2:  MOVLB  7
0ACD4:  BTFSC  x51.7
0ACD6:  BSF    FF2.7
....................          displayMenu(Menus.Letra,0,0,1,2); 
0ACD8:  MOVLW  04
0ACDA:  MOVWF  x52
0ACDC:  MOVLW  18
0ACDE:  MOVWF  x51
0ACE0:  CLRF   x53
0ACE2:  CLRF   x54
0ACE4:  MOVLW  01
0ACE6:  MOVWF  x55
0ACE8:  MOVLW  02
0ACEA:  MOVWF  x56
0ACEC:  MOVLB  0
0ACEE:  CALL   21C8
....................           
....................          displayTemperatura(Integral,30,30,0,3); 
0ACF2:  MOVLB  7
0ACF4:  CLRF   x54
0ACF6:  MOVFF  6F4,753
0ACFA:  MOVLW  1E
0ACFC:  MOVWF  x55
0ACFE:  MOVWF  x56
0AD00:  CLRF   x57
0AD02:  MOVLW  03
0AD04:  MOVWF  x58
0AD06:  MOVLB  0
0AD08:  CALL   4746
....................           
....................          visual=0; 
0AD0C:  MOVLB  4
0AD0E:  BCF    x84.6
....................       } 
....................        
....................          if(UP)//Si oprime hacia arriba 
0AD10:  BSF    F92.4
0AD12:  BTFSC  F80.4
0AD14:  BRA    AD9C
....................          {   
....................             delay_ms(10); 
0AD16:  MOVLW  0A
0AD18:  MOVLB  7
0AD1A:  MOVWF  x57
0AD1C:  MOVLB  0
0AD1E:  CALL   16B6
....................             if(Integral>40) 
0AD22:  MOVLB  6
0AD24:  MOVF   xF4,W
0AD26:  SUBLW  28
0AD28:  BC    AD42
....................             { 
....................                Integral=40;delay_ms(100);visual=1; 
0AD2A:  MOVLW  28
0AD2C:  MOVWF  xF4
0AD2E:  MOVLW  64
0AD30:  MOVLB  7
0AD32:  MOVWF  x57
0AD34:  MOVLB  0
0AD36:  CALL   16B6
0AD3A:  MOVLB  4
0AD3C:  BSF    x84.6
....................             } 
....................             else 
0AD3E:  BRA    AD9C
0AD40:  MOVLB  6
....................             { 
....................                delay_ms(30);Integral+=1.0;visual=1; 
0AD42:  MOVLW  1E
0AD44:  MOVLB  7
0AD46:  MOVWF  x57
0AD48:  MOVLB  0
0AD4A:  CALL   16B6
0AD4E:  MOVLB  7
0AD50:  CLRF   x58
0AD52:  MOVFF  6F4,757
0AD56:  MOVLB  0
0AD58:  CALL   16DE
0AD5C:  BCF    FD8.1
0AD5E:  MOVFF  03,759
0AD62:  MOVFF  02,758
0AD66:  MOVFF  01,757
0AD6A:  MOVFF  00,756
0AD6E:  MOVLB  7
0AD70:  CLRF   x5D
0AD72:  CLRF   x5C
0AD74:  CLRF   x5B
0AD76:  MOVLW  7F
0AD78:  MOVWF  x5A
0AD7A:  MOVLB  0
0AD7C:  CALL   1872
0AD80:  MOVFF  03,754
0AD84:  MOVFF  02,753
0AD88:  MOVFF  01,752
0AD8C:  MOVFF  00,751
0AD90:  CALL   2A36
0AD94:  MOVFF  01,6F4
0AD98:  MOVLB  4
0AD9A:  BSF    x84.6
....................             } 
....................          } 
....................                 
....................          if(DOWN)//Si oprime hacia abajo 
0AD9C:  BSF    F92.5
0AD9E:  BTFSC  F80.5
0ADA0:  BRA    AE10
....................          {   
....................             delay_ms(10); 
0ADA2:  MOVLW  0A
0ADA4:  MOVLB  7
0ADA6:  MOVWF  x57
0ADA8:  MOVLB  0
0ADAA:  CALL   16B6
....................             if(Integral>1) 
0ADAE:  MOVLB  6
0ADB0:  MOVF   xF4,W
0ADB2:  SUBLW  01
0ADB4:  BC    AE12
....................             { 
....................                delay_ms(30);Integral-=1.0;visual=1;      
0ADB6:  MOVLW  1E
0ADB8:  MOVLB  7
0ADBA:  MOVWF  x57
0ADBC:  MOVLB  0
0ADBE:  CALL   16B6
0ADC2:  MOVLB  7
0ADC4:  CLRF   x58
0ADC6:  MOVFF  6F4,757
0ADCA:  MOVLB  0
0ADCC:  CALL   16DE
0ADD0:  BSF    FD8.1
0ADD2:  MOVFF  03,759
0ADD6:  MOVFF  02,758
0ADDA:  MOVFF  01,757
0ADDE:  MOVFF  00,756
0ADE2:  MOVLB  7
0ADE4:  CLRF   x5D
0ADE6:  CLRF   x5C
0ADE8:  CLRF   x5B
0ADEA:  MOVLW  7F
0ADEC:  MOVWF  x5A
0ADEE:  MOVLB  0
0ADF0:  CALL   1872
0ADF4:  MOVFF  03,754
0ADF8:  MOVFF  02,753
0ADFC:  MOVFF  01,752
0AE00:  MOVFF  00,751
0AE04:  CALL   2A36
0AE08:  MOVFF  01,6F4
0AE0C:  MOVLB  4
0AE0E:  BSF    x84.6
0AE10:  MOVLB  6
....................             } 
....................          } 
....................                 
....................          if(RIGHT)//Si oprime SET 
0AE12:  BSF    F96.0
0AE14:  BTFSC  F84.0
0AE16:  BRA    AE36
....................          {   
....................             delay_ms(10); 
0AE18:  MOVLW  0A
0AE1A:  MOVLB  7
0AE1C:  MOVWF  x57
0AE1E:  MOVLB  0
0AE20:  CALL   16B6
....................             delay_ms(30);visual=1; 
0AE24:  MOVLW  1E
0AE26:  MOVLB  7
0AE28:  MOVWF  x57
0AE2A:  MOVLB  0
0AE2C:  CALL   16B6
0AE30:  MOVLB  4
0AE32:  BSF    x84.6
0AE34:  MOVLB  6
....................          }  
....................                    
....................          if(LEFT)//Si oprime boton de Toma. 
0AE36:  BSF    F96.1
0AE38:  BTFSC  F84.1
0AE3A:  BRA    AEA6
....................          { 
....................             delay_ms(10); 
0AE3C:  MOVLW  0A
0AE3E:  MOVLB  7
0AE40:  MOVWF  x57
0AE42:  MOVLB  0
0AE44:  CALL   16B6
....................             delay_ms(700);Menu=100;glcd_fillscreen(OFF);Opcion=1;visual=1; 
0AE48:  MOVLW  04
0AE4A:  MOVLB  7
0AE4C:  MOVWF  x51
0AE4E:  MOVLW  AF
0AE50:  MOVWF  x57
0AE52:  MOVLB  0
0AE54:  CALL   16B6
0AE58:  MOVLB  7
0AE5A:  DECFSZ x51,F
0AE5C:  BRA    AE4E
0AE5E:  MOVLW  64
0AE60:  MOVLB  6
0AE62:  MOVWF  xFC
0AE64:  MOVLB  7
0AE66:  CLRF   x52
0AE68:  MOVLB  0
0AE6A:  CALL   1B9A
0AE6E:  MOVLW  01
0AE70:  MOVLB  7
0AE72:  MOVWF  x05
0AE74:  MOVLB  4
0AE76:  BSF    x84.6
....................             write_eeprom(26,(int8)Integral); 
0AE78:  CLRF   FAA
0AE7A:  MOVLW  1A
0AE7C:  MOVWF  FA9
0AE7E:  MOVFF  6F4,FA8
0AE82:  BCF    FA6.6
0AE84:  BCF    FA6.7
0AE86:  BSF    FA6.2
0AE88:  MOVF   FF2,W
0AE8A:  MOVWF  00
0AE8C:  BCF    FF2.7
0AE8E:  MOVLB  F
0AE90:  MOVLW  55
0AE92:  MOVWF  FA7
0AE94:  MOVLW  AA
0AE96:  MOVWF  FA7
0AE98:  BSF    FA6.1
0AE9A:  BTFSC  FA6.1
0AE9C:  BRA    AE9A
0AE9E:  BCF    FA6.2
0AEA0:  MOVF   00,W
0AEA2:  IORWF  FF2,F
0AEA4:  MOVLB  6
....................          } 
....................      } 
.................... //_-------------------------------------------------------------------------------------------------------------------------------------------------------- 
....................  
.................... //_--------------------------------------------------------------------------------------------------------------------------------------------------------       
....................       if(Menu==103){ // Menu de Ajuste de Derivativo 
0AEA6:  MOVF   xFC,W
0AEA8:  SUBLW  67
0AEAA:  BTFSS  FD8.2
0AEAC:  BRA    B0BC
....................        
....................       if(Derivativo>200) 
0AEAE:  MOVF   xF5,W
0AEB0:  SUBLW  C8
0AEB2:  BC    AEB8
....................       { 
....................          Derivativo=2; 
0AEB4:  MOVLW  02
0AEB6:  MOVWF  xF5
....................       } 
....................        
....................       if(visual==1) 
0AEB8:  MOVLB  4
0AEBA:  BTFSS  x84.6
0AEBC:  BRA    AF26
....................       { 
....................          glcd_fillScreen(OFF); 
0AEBE:  MOVLB  7
0AEC0:  CLRF   x52
0AEC2:  MOVLB  0
0AEC4:  CALL   1B9A
....................          strcpy(Menus.Letra,"D"); 
0AEC8:  MOVLW  04
0AECA:  MOVWF  FEA
0AECC:  MOVLW  18
0AECE:  MOVWF  FE9
0AED0:  MOVFF  FF2,751
0AED4:  BCF    FF2.7
0AED6:  MOVLW  00
0AED8:  CALL   1432
0AEDC:  TBLRD*-
0AEDE:  TBLRD*+
0AEE0:  MOVF   FF5,W
0AEE2:  MOVWF  FEE
0AEE4:  IORLW  00
0AEE6:  BNZ   AEDE
0AEE8:  MOVLB  7
0AEEA:  BTFSC  x51.7
0AEEC:  BSF    FF2.7
....................          displayMenu(Menus.Letra,0,0,1,2); 
0AEEE:  MOVLW  04
0AEF0:  MOVWF  x52
0AEF2:  MOVLW  18
0AEF4:  MOVWF  x51
0AEF6:  CLRF   x53
0AEF8:  CLRF   x54
0AEFA:  MOVLW  01
0AEFC:  MOVWF  x55
0AEFE:  MOVLW  02
0AF00:  MOVWF  x56
0AF02:  MOVLB  0
0AF04:  CALL   21C8
....................           
....................          displayTemperatura(Derivativo,30,30,0,3); 
0AF08:  MOVLB  7
0AF0A:  CLRF   x54
0AF0C:  MOVFF  6F5,753
0AF10:  MOVLW  1E
0AF12:  MOVWF  x55
0AF14:  MOVWF  x56
0AF16:  CLRF   x57
0AF18:  MOVLW  03
0AF1A:  MOVWF  x58
0AF1C:  MOVLB  0
0AF1E:  CALL   4746
....................           
....................          visual=0; 
0AF22:  MOVLB  4
0AF24:  BCF    x84.6
....................       } 
....................        
....................          if(UP)//Si oprime hacia arriba 
0AF26:  BSF    F92.4
0AF28:  BTFSC  F80.4
0AF2A:  BRA    AFB2
....................          {   
....................             delay_ms(10); 
0AF2C:  MOVLW  0A
0AF2E:  MOVLB  7
0AF30:  MOVWF  x57
0AF32:  MOVLB  0
0AF34:  CALL   16B6
....................             if(Derivativo>200) 
0AF38:  MOVLB  6
0AF3A:  MOVF   xF5,W
0AF3C:  SUBLW  C8
0AF3E:  BC    AF58
....................             { 
....................                Derivativo=200;delay_ms(100);visual=1; 
0AF40:  MOVLW  C8
0AF42:  MOVWF  xF5
0AF44:  MOVLW  64
0AF46:  MOVLB  7
0AF48:  MOVWF  x57
0AF4A:  MOVLB  0
0AF4C:  CALL   16B6
0AF50:  MOVLB  4
0AF52:  BSF    x84.6
....................             } 
....................             else 
0AF54:  BRA    AFB2
0AF56:  MOVLB  6
....................             { 
....................                delay_ms(30);Derivativo+=1.0;visual=1; 
0AF58:  MOVLW  1E
0AF5A:  MOVLB  7
0AF5C:  MOVWF  x57
0AF5E:  MOVLB  0
0AF60:  CALL   16B6
0AF64:  MOVLB  7
0AF66:  CLRF   x58
0AF68:  MOVFF  6F5,757
0AF6C:  MOVLB  0
0AF6E:  CALL   16DE
0AF72:  BCF    FD8.1
0AF74:  MOVFF  03,759
0AF78:  MOVFF  02,758
0AF7C:  MOVFF  01,757
0AF80:  MOVFF  00,756
0AF84:  MOVLB  7
0AF86:  CLRF   x5D
0AF88:  CLRF   x5C
0AF8A:  CLRF   x5B
0AF8C:  MOVLW  7F
0AF8E:  MOVWF  x5A
0AF90:  MOVLB  0
0AF92:  CALL   1872
0AF96:  MOVFF  03,754
0AF9A:  MOVFF  02,753
0AF9E:  MOVFF  01,752
0AFA2:  MOVFF  00,751
0AFA6:  CALL   2A36
0AFAA:  MOVFF  01,6F5
0AFAE:  MOVLB  4
0AFB0:  BSF    x84.6
....................             } 
....................          } 
....................                 
....................          if(DOWN)//Si oprime hacia abajo 
0AFB2:  BSF    F92.5
0AFB4:  BTFSC  F80.5
0AFB6:  BRA    B026
....................          {   
....................             delay_ms(10); 
0AFB8:  MOVLW  0A
0AFBA:  MOVLB  7
0AFBC:  MOVWF  x57
0AFBE:  MOVLB  0
0AFC0:  CALL   16B6
....................             if(Derivativo>1) 
0AFC4:  MOVLB  6
0AFC6:  MOVF   xF5,W
0AFC8:  SUBLW  01
0AFCA:  BC    B028
....................             { 
....................                delay_ms(30);Derivativo-=1.0;visual=1;      
0AFCC:  MOVLW  1E
0AFCE:  MOVLB  7
0AFD0:  MOVWF  x57
0AFD2:  MOVLB  0
0AFD4:  CALL   16B6
0AFD8:  MOVLB  7
0AFDA:  CLRF   x58
0AFDC:  MOVFF  6F5,757
0AFE0:  MOVLB  0
0AFE2:  CALL   16DE
0AFE6:  BSF    FD8.1
0AFE8:  MOVFF  03,759
0AFEC:  MOVFF  02,758
0AFF0:  MOVFF  01,757
0AFF4:  MOVFF  00,756
0AFF8:  MOVLB  7
0AFFA:  CLRF   x5D
0AFFC:  CLRF   x5C
0AFFE:  CLRF   x5B
0B000:  MOVLW  7F
0B002:  MOVWF  x5A
0B004:  MOVLB  0
0B006:  CALL   1872
0B00A:  MOVFF  03,754
0B00E:  MOVFF  02,753
0B012:  MOVFF  01,752
0B016:  MOVFF  00,751
0B01A:  CALL   2A36
0B01E:  MOVFF  01,6F5
0B022:  MOVLB  4
0B024:  BSF    x84.6
0B026:  MOVLB  6
....................             } 
....................          } 
....................                 
....................          if(RIGHT)//Si oprime SET 
0B028:  BSF    F96.0
0B02A:  BTFSC  F84.0
0B02C:  BRA    B04C
....................          {   
....................             delay_ms(10); 
0B02E:  MOVLW  0A
0B030:  MOVLB  7
0B032:  MOVWF  x57
0B034:  MOVLB  0
0B036:  CALL   16B6
....................             delay_ms(30);visual=1; 
0B03A:  MOVLW  1E
0B03C:  MOVLB  7
0B03E:  MOVWF  x57
0B040:  MOVLB  0
0B042:  CALL   16B6
0B046:  MOVLB  4
0B048:  BSF    x84.6
0B04A:  MOVLB  6
....................          }  
....................                    
....................          if(LEFT)//Si oprime boton de Toma. 
0B04C:  BSF    F96.1
0B04E:  BTFSC  F84.1
0B050:  BRA    B0BC
....................          { 
....................             delay_ms(10); 
0B052:  MOVLW  0A
0B054:  MOVLB  7
0B056:  MOVWF  x57
0B058:  MOVLB  0
0B05A:  CALL   16B6
....................             delay_ms(700);Menu=100;glcd_fillscreen(OFF);Opcion=1;visual=1; 
0B05E:  MOVLW  04
0B060:  MOVLB  7
0B062:  MOVWF  x51
0B064:  MOVLW  AF
0B066:  MOVWF  x57
0B068:  MOVLB  0
0B06A:  CALL   16B6
0B06E:  MOVLB  7
0B070:  DECFSZ x51,F
0B072:  BRA    B064
0B074:  MOVLW  64
0B076:  MOVLB  6
0B078:  MOVWF  xFC
0B07A:  MOVLB  7
0B07C:  CLRF   x52
0B07E:  MOVLB  0
0B080:  CALL   1B9A
0B084:  MOVLW  01
0B086:  MOVLB  7
0B088:  MOVWF  x05
0B08A:  MOVLB  4
0B08C:  BSF    x84.6
....................             write_eeprom(27,(int8)Derivativo); 
0B08E:  CLRF   FAA
0B090:  MOVLW  1B
0B092:  MOVWF  FA9
0B094:  MOVFF  6F5,FA8
0B098:  BCF    FA6.6
0B09A:  BCF    FA6.7
0B09C:  BSF    FA6.2
0B09E:  MOVF   FF2,W
0B0A0:  MOVWF  00
0B0A2:  BCF    FF2.7
0B0A4:  MOVLB  F
0B0A6:  MOVLW  55
0B0A8:  MOVWF  FA7
0B0AA:  MOVLW  AA
0B0AC:  MOVWF  FA7
0B0AE:  BSF    FA6.1
0B0B0:  BTFSC  FA6.1
0B0B2:  BRA    B0B0
0B0B4:  BCF    FA6.2
0B0B6:  MOVF   00,W
0B0B8:  IORWF  FF2,F
0B0BA:  MOVLB  6
....................          } 
....................      } 
.................... //_-------------------------------------------------------------------------------------------------------------------------------------------------------- 
....................  
.................... //_--------------------------------------------------------------------------------------------------------------------------------------------------------       
....................       if(Menu==104){ // Menu de Tiempo de Ciclo 
0B0BC:  MOVF   xFC,W
0B0BE:  SUBLW  68
0B0C0:  BTFSS  FD8.2
0B0C2:  BRA    B34E
....................        
....................       if(Tciclo>40) 
0B0C4:  MOVLB  7
0B0C6:  CLRF   x55
0B0C8:  CLRF   x54
0B0CA:  MOVLW  20
0B0CC:  MOVWF  x53
0B0CE:  MOVLW  84
0B0D0:  MOVWF  x52
0B0D2:  MOVFF  6AF,759
0B0D6:  MOVFF  6AE,758
0B0DA:  MOVFF  6AD,757
0B0DE:  MOVFF  6AC,756
0B0E2:  MOVLB  0
0B0E4:  CALL   1AEA
0B0E8:  BNC   B0F8
....................       { 
....................          Tciclo=40; 
0B0EA:  MOVLB  6
0B0EC:  CLRF   xAF
0B0EE:  CLRF   xAE
0B0F0:  MOVLW  20
0B0F2:  MOVWF  xAD
0B0F4:  MOVLW  84
0B0F6:  MOVWF  xAC
....................       } 
....................        
....................       if(visual==1) 
0B0F8:  MOVLB  4
0B0FA:  BTFSS  x84.6
0B0FC:  BRA    B184
....................       { 
....................          glcd_fillScreen(OFF); 
0B0FE:  MOVLB  7
0B100:  CLRF   x52
0B102:  MOVLB  0
0B104:  CALL   1B9A
....................          strcpy(Menus.Letra,"Tciclo"); 
0B108:  MOVLW  04
0B10A:  MOVWF  FEA
0B10C:  MOVLW  18
0B10E:  MOVWF  FE9
0B110:  MOVFF  FF2,751
0B114:  BCF    FF2.7
0B116:  MOVLW  00
0B118:  CALL   12A2
0B11C:  TBLRD*-
0B11E:  TBLRD*+
0B120:  MOVF   FF5,W
0B122:  MOVWF  FEE
0B124:  IORLW  00
0B126:  BNZ   B11E
0B128:  MOVLB  7
0B12A:  BTFSC  x51.7
0B12C:  BSF    FF2.7
....................          displayMenu(Menus.Letra,0,0,1,2); 
0B12E:  MOVLW  04
0B130:  MOVWF  x52
0B132:  MOVLW  18
0B134:  MOVWF  x51
0B136:  CLRF   x53
0B138:  CLRF   x54
0B13A:  MOVLW  01
0B13C:  MOVWF  x55
0B13E:  MOVLW  02
0B140:  MOVWF  x56
0B142:  MOVLB  0
0B144:  CALL   21C8
....................           
....................          displayTemperatura(Tciclo,30,30,0,3); 
0B148:  MOVFF  6AF,754
0B14C:  MOVFF  6AE,753
0B150:  MOVFF  6AD,752
0B154:  MOVFF  6AC,751
0B158:  CALL   2A36
0B15C:  MOVFF  02,752
0B160:  MOVFF  01,751
0B164:  MOVFF  02,754
0B168:  MOVFF  01,753
0B16C:  MOVLW  1E
0B16E:  MOVLB  7
0B170:  MOVWF  x55
0B172:  MOVWF  x56
0B174:  CLRF   x57
0B176:  MOVLW  03
0B178:  MOVWF  x58
0B17A:  MOVLB  0
0B17C:  CALL   4746
....................           
....................          visual=0; 
0B180:  MOVLB  4
0B182:  BCF    x84.6
....................       } 
....................        
....................          if(UP)//Si oprime hacia arriba 
0B184:  BSF    F92.4
0B186:  BTFSC  F80.4
0B188:  BRA    B222
....................          {   
....................             delay_ms(10); 
0B18A:  MOVLW  0A
0B18C:  MOVLB  7
0B18E:  MOVWF  x57
0B190:  MOVLB  0
0B192:  CALL   16B6
....................             if(Tciclo>40) 
0B196:  MOVLB  7
0B198:  CLRF   x55
0B19A:  CLRF   x54
0B19C:  MOVLW  20
0B19E:  MOVWF  x53
0B1A0:  MOVLW  84
0B1A2:  MOVWF  x52
0B1A4:  MOVFF  6AF,759
0B1A8:  MOVFF  6AE,758
0B1AC:  MOVFF  6AD,757
0B1B0:  MOVFF  6AC,756
0B1B4:  MOVLB  0
0B1B6:  CALL   1AEA
0B1BA:  BNC   B1DE
....................             { 
....................                Tciclo=40;delay_ms(100);visual=1; 
0B1BC:  MOVLB  6
0B1BE:  CLRF   xAF
0B1C0:  CLRF   xAE
0B1C2:  MOVLW  20
0B1C4:  MOVWF  xAD
0B1C6:  MOVLW  84
0B1C8:  MOVWF  xAC
0B1CA:  MOVLW  64
0B1CC:  MOVLB  7
0B1CE:  MOVWF  x57
0B1D0:  MOVLB  0
0B1D2:  CALL   16B6
0B1D6:  MOVLB  4
0B1D8:  BSF    x84.6
....................             } 
....................             else 
0B1DA:  BRA    B222
0B1DC:  MOVLB  0
....................             { 
....................                delay_ms(30);Tciclo+=1.0;visual=1; 
0B1DE:  MOVLW  1E
0B1E0:  MOVLB  7
0B1E2:  MOVWF  x57
0B1E4:  MOVLB  0
0B1E6:  CALL   16B6
0B1EA:  BCF    FD8.1
0B1EC:  MOVFF  6AF,759
0B1F0:  MOVFF  6AE,758
0B1F4:  MOVFF  6AD,757
0B1F8:  MOVFF  6AC,756
0B1FC:  MOVLB  7
0B1FE:  CLRF   x5D
0B200:  CLRF   x5C
0B202:  CLRF   x5B
0B204:  MOVLW  7F
0B206:  MOVWF  x5A
0B208:  MOVLB  0
0B20A:  CALL   1872
0B20E:  MOVFF  03,6AF
0B212:  MOVFF  02,6AE
0B216:  MOVFF  01,6AD
0B21A:  MOVFF  00,6AC
0B21E:  MOVLB  4
0B220:  BSF    x84.6
....................             } 
....................          } 
....................                 
....................          if(DOWN)//Si oprime hacia abajo 
0B222:  BSF    F92.5
0B224:  BTFSC  F80.5
0B226:  BRA    B29C
....................          {   
....................             delay_ms(10); 
0B228:  MOVLW  0A
0B22A:  MOVLB  7
0B22C:  MOVWF  x57
0B22E:  MOVLB  0
0B230:  CALL   16B6
....................             if(Tciclo>1) 
0B234:  MOVLB  7
0B236:  CLRF   x55
0B238:  CLRF   x54
0B23A:  CLRF   x53
0B23C:  MOVLW  7F
0B23E:  MOVWF  x52
0B240:  MOVFF  6AF,759
0B244:  MOVFF  6AE,758
0B248:  MOVFF  6AD,757
0B24C:  MOVFF  6AC,756
0B250:  MOVLB  0
0B252:  CALL   1AEA
0B256:  BNC   B29E
....................             { 
....................                delay_ms(30);Tciclo-=1.0;visual=1;      
0B258:  MOVLW  1E
0B25A:  MOVLB  7
0B25C:  MOVWF  x57
0B25E:  MOVLB  0
0B260:  CALL   16B6
0B264:  BSF    FD8.1
0B266:  MOVFF  6AF,759
0B26A:  MOVFF  6AE,758
0B26E:  MOVFF  6AD,757
0B272:  MOVFF  6AC,756
0B276:  MOVLB  7
0B278:  CLRF   x5D
0B27A:  CLRF   x5C
0B27C:  CLRF   x5B
0B27E:  MOVLW  7F
0B280:  MOVWF  x5A
0B282:  MOVLB  0
0B284:  CALL   1872
0B288:  MOVFF  03,6AF
0B28C:  MOVFF  02,6AE
0B290:  MOVFF  01,6AD
0B294:  MOVFF  00,6AC
0B298:  MOVLB  4
0B29A:  BSF    x84.6
0B29C:  MOVLB  0
....................             } 
....................          } 
....................                 
....................          if(RIGHT)//Si oprime SET 
0B29E:  BSF    F96.0
0B2A0:  BTFSC  F84.0
0B2A2:  BRA    B2C2
....................          {   
....................             delay_ms(10); 
0B2A4:  MOVLW  0A
0B2A6:  MOVLB  7
0B2A8:  MOVWF  x57
0B2AA:  MOVLB  0
0B2AC:  CALL   16B6
....................             delay_ms(30);visual=1; 
0B2B0:  MOVLW  1E
0B2B2:  MOVLB  7
0B2B4:  MOVWF  x57
0B2B6:  MOVLB  0
0B2B8:  CALL   16B6
0B2BC:  MOVLB  4
0B2BE:  BSF    x84.6
0B2C0:  MOVLB  0
....................          }  
....................                    
....................          if(LEFT)//Si oprime boton de Toma. 
0B2C2:  BSF    F96.1
0B2C4:  BTFSC  F84.1
0B2C6:  BRA    B34C
....................          { 
....................             delay_ms(10); 
0B2C8:  MOVLW  0A
0B2CA:  MOVLB  7
0B2CC:  MOVWF  x57
0B2CE:  MOVLB  0
0B2D0:  CALL   16B6
....................             delay_ms(700);Menu=100;glcd_fillscreen(OFF);Opcion=1;visual=1; 
0B2D4:  MOVLW  04
0B2D6:  MOVLB  7
0B2D8:  MOVWF  x51
0B2DA:  MOVLW  AF
0B2DC:  MOVWF  x57
0B2DE:  MOVLB  0
0B2E0:  CALL   16B6
0B2E4:  MOVLB  7
0B2E6:  DECFSZ x51,F
0B2E8:  BRA    B2DA
0B2EA:  MOVLW  64
0B2EC:  MOVLB  6
0B2EE:  MOVWF  xFC
0B2F0:  MOVLB  7
0B2F2:  CLRF   x52
0B2F4:  MOVLB  0
0B2F6:  CALL   1B9A
0B2FA:  MOVLW  01
0B2FC:  MOVLB  7
0B2FE:  MOVWF  x05
0B300:  MOVLB  4
0B302:  BSF    x84.6
....................             write_eeprom(25,(int8)Tciclo); 
0B304:  MOVFF  6AF,754
0B308:  MOVFF  6AE,753
0B30C:  MOVFF  6AD,752
0B310:  MOVFF  6AC,751
0B314:  MOVLB  0
0B316:  CALL   2A36
0B31A:  MOVFF  01,751
0B31E:  CLRF   FAA
0B320:  MOVLW  19
0B322:  MOVWF  FA9
0B324:  MOVFF  751,FA8
0B328:  BCF    FA6.6
0B32A:  BCF    FA6.7
0B32C:  BSF    FA6.2
0B32E:  MOVF   FF2,W
0B330:  MOVWF  00
0B332:  BCF    FF2.7
0B334:  MOVLB  F
0B336:  MOVLW  55
0B338:  MOVWF  FA7
0B33A:  MOVLW  AA
0B33C:  MOVWF  FA7
0B33E:  BSF    FA6.1
0B340:  BTFSC  FA6.1
0B342:  BRA    B340
0B344:  BCF    FA6.2
0B346:  MOVF   00,W
0B348:  IORWF  FF2,F
0B34A:  MOVLB  0
0B34C:  MOVLB  6
....................          } 
....................      } 
.................... //_-------------------------------------------------------------------------------------------------------------------------------------------------------- 
....................  
.................... //_--------------------------------------------------------------------------------------------------------------------------------------------------------       
....................       if(Menu==105){ // Menu de Ajuste de Ajuste+ 
0B34E:  MOVF   xFC,W
0B350:  SUBLW  69
0B352:  BTFSS  FD8.2
0B354:  BRA    B55E
....................        
....................       if(Ajuste>100) 
0B356:  MOVF   x9D,W
0B358:  SUBLW  64
0B35A:  BC    B35E
....................       { 
....................          Ajuste=0; 
0B35C:  CLRF   x9D
....................       } 
....................        
....................       if(visual==1) 
0B35E:  MOVLB  4
0B360:  BTFSS  x84.6
0B362:  BRA    B3CC
....................       { 
....................          glcd_fillScreen(OFF); 
0B364:  MOVLB  7
0B366:  CLRF   x52
0B368:  MOVLB  0
0B36A:  CALL   1B9A
....................          strcpy(Menus.Letra,"Ajuste"); 
0B36E:  MOVLW  04
0B370:  MOVWF  FEA
0B372:  MOVLW  18
0B374:  MOVWF  FE9
0B376:  MOVFF  FF2,751
0B37A:  BCF    FF2.7
0B37C:  MOVLW  00
0B37E:  CALL   1452
0B382:  TBLRD*-
0B384:  TBLRD*+
0B386:  MOVF   FF5,W
0B388:  MOVWF  FEE
0B38A:  IORLW  00
0B38C:  BNZ   B384
0B38E:  MOVLB  7
0B390:  BTFSC  x51.7
0B392:  BSF    FF2.7
....................          displayMenu(Menus.Letra,0,0,1,2); 
0B394:  MOVLW  04
0B396:  MOVWF  x52
0B398:  MOVLW  18
0B39A:  MOVWF  x51
0B39C:  CLRF   x53
0B39E:  CLRF   x54
0B3A0:  MOVLW  01
0B3A2:  MOVWF  x55
0B3A4:  MOVLW  02
0B3A6:  MOVWF  x56
0B3A8:  MOVLB  0
0B3AA:  CALL   21C8
....................           
....................          displayTemperatura(Ajuste,30,30,0,3); 
0B3AE:  MOVLB  7
0B3B0:  CLRF   x54
0B3B2:  MOVFF  69D,753
0B3B6:  MOVLW  1E
0B3B8:  MOVWF  x55
0B3BA:  MOVWF  x56
0B3BC:  CLRF   x57
0B3BE:  MOVLW  03
0B3C0:  MOVWF  x58
0B3C2:  MOVLB  0
0B3C4:  CALL   4746
....................           
....................          visual=0; 
0B3C8:  MOVLB  4
0B3CA:  BCF    x84.6
....................       } 
....................        
....................          if(UP)//Si oprime hacia arriba 
0B3CC:  BSF    F92.4
0B3CE:  BTFSC  F80.4
0B3D0:  BRA    B456
....................          {   
....................             delay_ms(10); 
0B3D2:  MOVLW  0A
0B3D4:  MOVLB  7
0B3D6:  MOVWF  x57
0B3D8:  MOVLB  0
0B3DA:  CALL   16B6
....................             if(Ajuste>100) 
0B3DE:  MOVLB  6
0B3E0:  MOVF   x9D,W
0B3E2:  SUBLW  64
0B3E4:  BC    B3FC
....................             { 
....................                Ajuste=100;delay_ms(100);visual=1; 
0B3E6:  MOVLW  64
0B3E8:  MOVWF  x9D
0B3EA:  MOVLB  7
0B3EC:  MOVWF  x57
0B3EE:  MOVLB  0
0B3F0:  CALL   16B6
0B3F4:  MOVLB  4
0B3F6:  BSF    x84.6
....................             } 
....................             else 
0B3F8:  BRA    B456
0B3FA:  MOVLB  6
....................             { 
....................                delay_ms(30);Ajuste+=1.0;visual=1; 
0B3FC:  MOVLW  1E
0B3FE:  MOVLB  7
0B400:  MOVWF  x57
0B402:  MOVLB  0
0B404:  CALL   16B6
0B408:  MOVLB  7
0B40A:  CLRF   x58
0B40C:  MOVFF  69D,757
0B410:  MOVLB  0
0B412:  CALL   16DE
0B416:  BCF    FD8.1
0B418:  MOVFF  03,759
0B41C:  MOVFF  02,758
0B420:  MOVFF  01,757
0B424:  MOVFF  00,756
0B428:  MOVLB  7
0B42A:  CLRF   x5D
0B42C:  CLRF   x5C
0B42E:  CLRF   x5B
0B430:  MOVLW  7F
0B432:  MOVWF  x5A
0B434:  MOVLB  0
0B436:  CALL   1872
0B43A:  MOVFF  03,754
0B43E:  MOVFF  02,753
0B442:  MOVFF  01,752
0B446:  MOVFF  00,751
0B44A:  CALL   2A36
0B44E:  MOVFF  01,69D
0B452:  MOVLB  4
0B454:  BSF    x84.6
....................             } 
....................          } 
....................                 
....................          if(DOWN)//Si oprime hacia abajo 
0B456:  BSF    F92.5
0B458:  BTFSC  F80.5
0B45A:  BRA    B4C8
....................          {   
....................             delay_ms(10); 
0B45C:  MOVLW  0A
0B45E:  MOVLB  7
0B460:  MOVWF  x57
0B462:  MOVLB  0
0B464:  CALL   16B6
....................             if(Ajuste>0) 
0B468:  MOVLB  6
0B46A:  MOVF   x9D,F
0B46C:  BZ    B4CA
....................             { 
....................                delay_ms(30);Ajuste-=1.0;visual=1;      
0B46E:  MOVLW  1E
0B470:  MOVLB  7
0B472:  MOVWF  x57
0B474:  MOVLB  0
0B476:  CALL   16B6
0B47A:  MOVLB  7
0B47C:  CLRF   x58
0B47E:  MOVFF  69D,757
0B482:  MOVLB  0
0B484:  CALL   16DE
0B488:  BSF    FD8.1
0B48A:  MOVFF  03,759
0B48E:  MOVFF  02,758
0B492:  MOVFF  01,757
0B496:  MOVFF  00,756
0B49A:  MOVLB  7
0B49C:  CLRF   x5D
0B49E:  CLRF   x5C
0B4A0:  CLRF   x5B
0B4A2:  MOVLW  7F
0B4A4:  MOVWF  x5A
0B4A6:  MOVLB  0
0B4A8:  CALL   1872
0B4AC:  MOVFF  03,754
0B4B0:  MOVFF  02,753
0B4B4:  MOVFF  01,752
0B4B8:  MOVFF  00,751
0B4BC:  CALL   2A36
0B4C0:  MOVFF  01,69D
0B4C4:  MOVLB  4
0B4C6:  BSF    x84.6
0B4C8:  MOVLB  6
....................             } 
....................          } 
....................                 
....................          if(RIGHT)//Si oprime SET 
0B4CA:  BSF    F96.0
0B4CC:  BTFSC  F84.0
0B4CE:  BRA    B4EE
....................          {   
....................             delay_ms(10); 
0B4D0:  MOVLW  0A
0B4D2:  MOVLB  7
0B4D4:  MOVWF  x57
0B4D6:  MOVLB  0
0B4D8:  CALL   16B6
....................             delay_ms(30);visual=1; 
0B4DC:  MOVLW  1E
0B4DE:  MOVLB  7
0B4E0:  MOVWF  x57
0B4E2:  MOVLB  0
0B4E4:  CALL   16B6
0B4E8:  MOVLB  4
0B4EA:  BSF    x84.6
0B4EC:  MOVLB  6
....................          }  
....................                    
....................          if(LEFT)//Si oprime boton de Toma. 
0B4EE:  BSF    F96.1
0B4F0:  BTFSC  F84.1
0B4F2:  BRA    B55E
....................          { 
....................             delay_ms(10); 
0B4F4:  MOVLW  0A
0B4F6:  MOVLB  7
0B4F8:  MOVWF  x57
0B4FA:  MOVLB  0
0B4FC:  CALL   16B6
....................             delay_ms(700);Menu=100;glcd_fillscreen(OFF);Opcion=1;visual=1; 
0B500:  MOVLW  04
0B502:  MOVLB  7
0B504:  MOVWF  x51
0B506:  MOVLW  AF
0B508:  MOVWF  x57
0B50A:  MOVLB  0
0B50C:  CALL   16B6
0B510:  MOVLB  7
0B512:  DECFSZ x51,F
0B514:  BRA    B506
0B516:  MOVLW  64
0B518:  MOVLB  6
0B51A:  MOVWF  xFC
0B51C:  MOVLB  7
0B51E:  CLRF   x52
0B520:  MOVLB  0
0B522:  CALL   1B9A
0B526:  MOVLW  01
0B528:  MOVLB  7
0B52A:  MOVWF  x05
0B52C:  MOVLB  4
0B52E:  BSF    x84.6
....................             write_eeprom(21,Ajuste); 
0B530:  CLRF   FAA
0B532:  MOVLW  15
0B534:  MOVWF  FA9
0B536:  MOVFF  69D,FA8
0B53A:  BCF    FA6.6
0B53C:  BCF    FA6.7
0B53E:  BSF    FA6.2
0B540:  MOVF   FF2,W
0B542:  MOVWF  00
0B544:  BCF    FF2.7
0B546:  MOVLB  F
0B548:  MOVLW  55
0B54A:  MOVWF  FA7
0B54C:  MOVLW  AA
0B54E:  MOVWF  FA7
0B550:  BSF    FA6.1
0B552:  BTFSC  FA6.1
0B554:  BRA    B552
0B556:  BCF    FA6.2
0B558:  MOVF   00,W
0B55A:  IORWF  FF2,F
0B55C:  MOVLB  6
....................          } 
....................      } 
.................... //_-------------------------------------------------------------------------------------------------------------------------------------------------------- 
....................  
.................... //_--------------------------------------------------------------------------------------------------------------------------------------------------------       
....................       if(Menu==106){ // Menu de Ajuste de Ajuste - 
0B55E:  MOVF   xFC,W
0B560:  SUBLW  6A
0B562:  BTFSS  FD8.2
0B564:  BRA    B76E
....................        
....................       if(Ajusten>100) 
0B566:  MOVF   x9E,W
0B568:  SUBLW  64
0B56A:  BC    B56E
....................       { 
....................          Ajusten=0; 
0B56C:  CLRF   x9E
....................       } 
....................        
....................       if(visual==1) 
0B56E:  MOVLB  4
0B570:  BTFSS  x84.6
0B572:  BRA    B5DC
....................       { 
....................          glcd_fillScreen(OFF); 
0B574:  MOVLB  7
0B576:  CLRF   x52
0B578:  MOVLB  0
0B57A:  CALL   1B9A
....................          strcpy(Menus.Letra,"Ajusten"); 
0B57E:  MOVLW  04
0B580:  MOVWF  FEA
0B582:  MOVLW  18
0B584:  MOVWF  FE9
0B586:  MOVFF  FF2,751
0B58A:  BCF    FF2.7
0B58C:  MOVLW  00
0B58E:  CALL   1478
0B592:  TBLRD*-
0B594:  TBLRD*+
0B596:  MOVF   FF5,W
0B598:  MOVWF  FEE
0B59A:  IORLW  00
0B59C:  BNZ   B594
0B59E:  MOVLB  7
0B5A0:  BTFSC  x51.7
0B5A2:  BSF    FF2.7
....................          displayMenu(Menus.Letra,0,0,1,2); 
0B5A4:  MOVLW  04
0B5A6:  MOVWF  x52
0B5A8:  MOVLW  18
0B5AA:  MOVWF  x51
0B5AC:  CLRF   x53
0B5AE:  CLRF   x54
0B5B0:  MOVLW  01
0B5B2:  MOVWF  x55
0B5B4:  MOVLW  02
0B5B6:  MOVWF  x56
0B5B8:  MOVLB  0
0B5BA:  CALL   21C8
....................           
....................          displayTemperatura(Ajusten,30,30,0,3); 
0B5BE:  MOVLB  7
0B5C0:  CLRF   x54
0B5C2:  MOVFF  69E,753
0B5C6:  MOVLW  1E
0B5C8:  MOVWF  x55
0B5CA:  MOVWF  x56
0B5CC:  CLRF   x57
0B5CE:  MOVLW  03
0B5D0:  MOVWF  x58
0B5D2:  MOVLB  0
0B5D4:  CALL   4746
....................           
....................          visual=0; 
0B5D8:  MOVLB  4
0B5DA:  BCF    x84.6
....................       } 
....................        
....................          if(UP)//Si oprime hacia arriba 
0B5DC:  BSF    F92.4
0B5DE:  BTFSC  F80.4
0B5E0:  BRA    B666
....................          {   
....................             delay_ms(10); 
0B5E2:  MOVLW  0A
0B5E4:  MOVLB  7
0B5E6:  MOVWF  x57
0B5E8:  MOVLB  0
0B5EA:  CALL   16B6
....................             if(Ajusten>100) 
0B5EE:  MOVLB  6
0B5F0:  MOVF   x9E,W
0B5F2:  SUBLW  64
0B5F4:  BC    B60C
....................             { 
....................                Ajusten=100;delay_ms(100);visual=1; 
0B5F6:  MOVLW  64
0B5F8:  MOVWF  x9E
0B5FA:  MOVLB  7
0B5FC:  MOVWF  x57
0B5FE:  MOVLB  0
0B600:  CALL   16B6
0B604:  MOVLB  4
0B606:  BSF    x84.6
....................             } 
....................             else 
0B608:  BRA    B666
0B60A:  MOVLB  6
....................             { 
....................                delay_ms(30);Ajusten+=1.0;visual=1; 
0B60C:  MOVLW  1E
0B60E:  MOVLB  7
0B610:  MOVWF  x57
0B612:  MOVLB  0
0B614:  CALL   16B6
0B618:  MOVLB  7
0B61A:  CLRF   x58
0B61C:  MOVFF  69E,757
0B620:  MOVLB  0
0B622:  CALL   16DE
0B626:  BCF    FD8.1
0B628:  MOVFF  03,759
0B62C:  MOVFF  02,758
0B630:  MOVFF  01,757
0B634:  MOVFF  00,756
0B638:  MOVLB  7
0B63A:  CLRF   x5D
0B63C:  CLRF   x5C
0B63E:  CLRF   x5B
0B640:  MOVLW  7F
0B642:  MOVWF  x5A
0B644:  MOVLB  0
0B646:  CALL   1872
0B64A:  MOVFF  03,754
0B64E:  MOVFF  02,753
0B652:  MOVFF  01,752
0B656:  MOVFF  00,751
0B65A:  CALL   2A36
0B65E:  MOVFF  01,69E
0B662:  MOVLB  4
0B664:  BSF    x84.6
....................             } 
....................          } 
....................                 
....................          if(DOWN)//Si oprime hacia abajo 
0B666:  BSF    F92.5
0B668:  BTFSC  F80.5
0B66A:  BRA    B6D8
....................          {   
....................             delay_ms(10); 
0B66C:  MOVLW  0A
0B66E:  MOVLB  7
0B670:  MOVWF  x57
0B672:  MOVLB  0
0B674:  CALL   16B6
....................             if(Ajusten>0) 
0B678:  MOVLB  6
0B67A:  MOVF   x9E,F
0B67C:  BZ    B6DA
....................             { 
....................                delay_ms(30);Ajusten-=1.0;visual=1;      
0B67E:  MOVLW  1E
0B680:  MOVLB  7
0B682:  MOVWF  x57
0B684:  MOVLB  0
0B686:  CALL   16B6
0B68A:  MOVLB  7
0B68C:  CLRF   x58
0B68E:  MOVFF  69E,757
0B692:  MOVLB  0
0B694:  CALL   16DE
0B698:  BSF    FD8.1
0B69A:  MOVFF  03,759
0B69E:  MOVFF  02,758
0B6A2:  MOVFF  01,757
0B6A6:  MOVFF  00,756
0B6AA:  MOVLB  7
0B6AC:  CLRF   x5D
0B6AE:  CLRF   x5C
0B6B0:  CLRF   x5B
0B6B2:  MOVLW  7F
0B6B4:  MOVWF  x5A
0B6B6:  MOVLB  0
0B6B8:  CALL   1872
0B6BC:  MOVFF  03,754
0B6C0:  MOVFF  02,753
0B6C4:  MOVFF  01,752
0B6C8:  MOVFF  00,751
0B6CC:  CALL   2A36
0B6D0:  MOVFF  01,69E
0B6D4:  MOVLB  4
0B6D6:  BSF    x84.6
0B6D8:  MOVLB  6
....................             } 
....................          } 
....................                 
....................          if(RIGHT)//Si oprime SET 
0B6DA:  BSF    F96.0
0B6DC:  BTFSC  F84.0
0B6DE:  BRA    B6FE
....................          {   
....................             delay_ms(10); 
0B6E0:  MOVLW  0A
0B6E2:  MOVLB  7
0B6E4:  MOVWF  x57
0B6E6:  MOVLB  0
0B6E8:  CALL   16B6
....................             delay_ms(30);visual=1; 
0B6EC:  MOVLW  1E
0B6EE:  MOVLB  7
0B6F0:  MOVWF  x57
0B6F2:  MOVLB  0
0B6F4:  CALL   16B6
0B6F8:  MOVLB  4
0B6FA:  BSF    x84.6
0B6FC:  MOVLB  6
....................          }  
....................                    
....................          if(LEFT)//Si oprime boton de Toma. 
0B6FE:  BSF    F96.1
0B700:  BTFSC  F84.1
0B702:  BRA    B76E
....................          { 
....................             delay_ms(10); 
0B704:  MOVLW  0A
0B706:  MOVLB  7
0B708:  MOVWF  x57
0B70A:  MOVLB  0
0B70C:  CALL   16B6
....................             delay_ms(700);Menu=100;glcd_fillscreen(OFF);Opcion=1;visual=1; 
0B710:  MOVLW  04
0B712:  MOVLB  7
0B714:  MOVWF  x51
0B716:  MOVLW  AF
0B718:  MOVWF  x57
0B71A:  MOVLB  0
0B71C:  CALL   16B6
0B720:  MOVLB  7
0B722:  DECFSZ x51,F
0B724:  BRA    B716
0B726:  MOVLW  64
0B728:  MOVLB  6
0B72A:  MOVWF  xFC
0B72C:  MOVLB  7
0B72E:  CLRF   x52
0B730:  MOVLB  0
0B732:  CALL   1B9A
0B736:  MOVLW  01
0B738:  MOVLB  7
0B73A:  MOVWF  x05
0B73C:  MOVLB  4
0B73E:  BSF    x84.6
....................             write_eeprom(22,Ajusten); 
0B740:  CLRF   FAA
0B742:  MOVLW  16
0B744:  MOVWF  FA9
0B746:  MOVFF  69E,FA8
0B74A:  BCF    FA6.6
0B74C:  BCF    FA6.7
0B74E:  BSF    FA6.2
0B750:  MOVF   FF2,W
0B752:  MOVWF  00
0B754:  BCF    FF2.7
0B756:  MOVLB  F
0B758:  MOVLW  55
0B75A:  MOVWF  FA7
0B75C:  MOVLW  AA
0B75E:  MOVWF  FA7
0B760:  BSF    FA6.1
0B762:  BTFSC  FA6.1
0B764:  BRA    B762
0B766:  BCF    FA6.2
0B768:  MOVF   00,W
0B76A:  IORWF  FF2,F
0B76C:  MOVLB  6
....................          } 
....................      } 
.................... //_-------------------------------------------------------------------------------------------------------------------------------------------------------- 
....................  
.................... //_--------------------------------------------------------------------------------------------------------------------------------------------------------       
....................       if(Menu==107){ // Menu de Ajuste de Media Movil 
0B76E:  MOVF   xFC,W
0B770:  SUBLW  6B
0B772:  BTFSS  FD8.2
0B774:  BRA    B984
....................        
....................       if(MediaMovil>80) 
0B776:  MOVF   x9F,W
0B778:  SUBLW  50
0B77A:  BC    B780
....................       { 
....................          MediaMovil=10; 
0B77C:  MOVLW  0A
0B77E:  MOVWF  x9F
....................       } 
....................        
....................       if(visual==1) 
0B780:  MOVLB  4
0B782:  BTFSS  x84.6
0B784:  BRA    B7EE
....................       { 
....................          glcd_fillScreen(OFF); 
0B786:  MOVLB  7
0B788:  CLRF   x52
0B78A:  MOVLB  0
0B78C:  CALL   1B9A
....................          strcpy(Menus.Letra,"Media"); 
0B790:  MOVLW  04
0B792:  MOVWF  FEA
0B794:  MOVLW  18
0B796:  MOVWF  FE9
0B798:  MOVFF  FF2,751
0B79C:  BCF    FF2.7
0B79E:  MOVLW  00
0B7A0:  CALL   149E
0B7A4:  TBLRD*-
0B7A6:  TBLRD*+
0B7A8:  MOVF   FF5,W
0B7AA:  MOVWF  FEE
0B7AC:  IORLW  00
0B7AE:  BNZ   B7A6
0B7B0:  MOVLB  7
0B7B2:  BTFSC  x51.7
0B7B4:  BSF    FF2.7
....................          displayMenu(Menus.Letra,0,0,1,2); 
0B7B6:  MOVLW  04
0B7B8:  MOVWF  x52
0B7BA:  MOVLW  18
0B7BC:  MOVWF  x51
0B7BE:  CLRF   x53
0B7C0:  CLRF   x54
0B7C2:  MOVLW  01
0B7C4:  MOVWF  x55
0B7C6:  MOVLW  02
0B7C8:  MOVWF  x56
0B7CA:  MOVLB  0
0B7CC:  CALL   21C8
....................           
....................          displayTemperatura(MediaMovil,30,30,0,3); 
0B7D0:  MOVLB  7
0B7D2:  CLRF   x54
0B7D4:  MOVFF  69F,753
0B7D8:  MOVLW  1E
0B7DA:  MOVWF  x55
0B7DC:  MOVWF  x56
0B7DE:  CLRF   x57
0B7E0:  MOVLW  03
0B7E2:  MOVWF  x58
0B7E4:  MOVLB  0
0B7E6:  CALL   4746
....................           
....................          visual=0; 
0B7EA:  MOVLB  4
0B7EC:  BCF    x84.6
....................       } 
....................        
....................          if(UP)//Si oprime hacia arriba 
0B7EE:  BSF    F92.4
0B7F0:  BTFSC  F80.4
0B7F2:  BRA    B87A
....................          {   
....................             delay_ms(10); 
0B7F4:  MOVLW  0A
0B7F6:  MOVLB  7
0B7F8:  MOVWF  x57
0B7FA:  MOVLB  0
0B7FC:  CALL   16B6
....................             if(MediaMovil>79) 
0B800:  MOVLB  6
0B802:  MOVF   x9F,W
0B804:  SUBLW  4F
0B806:  BC    B820
....................             { 
....................                MediaMovil=79;delay_ms(100);visual=1; 
0B808:  MOVLW  4F
0B80A:  MOVWF  x9F
0B80C:  MOVLW  64
0B80E:  MOVLB  7
0B810:  MOVWF  x57
0B812:  MOVLB  0
0B814:  CALL   16B6
0B818:  MOVLB  4
0B81A:  BSF    x84.6
....................             } 
....................             else 
0B81C:  BRA    B87A
0B81E:  MOVLB  6
....................             { 
....................                delay_ms(30);MediaMovil+=1.0;visual=1; 
0B820:  MOVLW  1E
0B822:  MOVLB  7
0B824:  MOVWF  x57
0B826:  MOVLB  0
0B828:  CALL   16B6
0B82C:  MOVLB  7
0B82E:  CLRF   x58
0B830:  MOVFF  69F,757
0B834:  MOVLB  0
0B836:  CALL   16DE
0B83A:  BCF    FD8.1
0B83C:  MOVFF  03,759
0B840:  MOVFF  02,758
0B844:  MOVFF  01,757
0B848:  MOVFF  00,756
0B84C:  MOVLB  7
0B84E:  CLRF   x5D
0B850:  CLRF   x5C
0B852:  CLRF   x5B
0B854:  MOVLW  7F
0B856:  MOVWF  x5A
0B858:  MOVLB  0
0B85A:  CALL   1872
0B85E:  MOVFF  03,754
0B862:  MOVFF  02,753
0B866:  MOVFF  01,752
0B86A:  MOVFF  00,751
0B86E:  CALL   2A36
0B872:  MOVFF  01,69F
0B876:  MOVLB  4
0B878:  BSF    x84.6
....................             } 
....................          } 
....................                 
....................          if(DOWN)//Si oprime hacia abajo 
0B87A:  BSF    F92.5
0B87C:  BTFSC  F80.5
0B87E:  BRA    B8EE
....................          {   
....................             delay_ms(10); 
0B880:  MOVLW  0A
0B882:  MOVLB  7
0B884:  MOVWF  x57
0B886:  MOVLB  0
0B888:  CALL   16B6
....................             if(MediaMovil>1) 
0B88C:  MOVLB  6
0B88E:  MOVF   x9F,W
0B890:  SUBLW  01
0B892:  BC    B8F0
....................             { 
....................                delay_ms(30);MediaMovil-=1.0;visual=1;      
0B894:  MOVLW  1E
0B896:  MOVLB  7
0B898:  MOVWF  x57
0B89A:  MOVLB  0
0B89C:  CALL   16B6
0B8A0:  MOVLB  7
0B8A2:  CLRF   x58
0B8A4:  MOVFF  69F,757
0B8A8:  MOVLB  0
0B8AA:  CALL   16DE
0B8AE:  BSF    FD8.1
0B8B0:  MOVFF  03,759
0B8B4:  MOVFF  02,758
0B8B8:  MOVFF  01,757
0B8BC:  MOVFF  00,756
0B8C0:  MOVLB  7
0B8C2:  CLRF   x5D
0B8C4:  CLRF   x5C
0B8C6:  CLRF   x5B
0B8C8:  MOVLW  7F
0B8CA:  MOVWF  x5A
0B8CC:  MOVLB  0
0B8CE:  CALL   1872
0B8D2:  MOVFF  03,754
0B8D6:  MOVFF  02,753
0B8DA:  MOVFF  01,752
0B8DE:  MOVFF  00,751
0B8E2:  CALL   2A36
0B8E6:  MOVFF  01,69F
0B8EA:  MOVLB  4
0B8EC:  BSF    x84.6
0B8EE:  MOVLB  6
....................             } 
....................          } 
....................                 
....................          if(RIGHT)//Si oprime SET 
0B8F0:  BSF    F96.0
0B8F2:  BTFSC  F84.0
0B8F4:  BRA    B914
....................          {   
....................             delay_ms(10); 
0B8F6:  MOVLW  0A
0B8F8:  MOVLB  7
0B8FA:  MOVWF  x57
0B8FC:  MOVLB  0
0B8FE:  CALL   16B6
....................             delay_ms(30);visual=1; 
0B902:  MOVLW  1E
0B904:  MOVLB  7
0B906:  MOVWF  x57
0B908:  MOVLB  0
0B90A:  CALL   16B6
0B90E:  MOVLB  4
0B910:  BSF    x84.6
0B912:  MOVLB  6
....................          }  
....................                    
....................          if(LEFT)//Si oprime boton de Toma. 
0B914:  BSF    F96.1
0B916:  BTFSC  F84.1
0B918:  BRA    B984
....................          { 
....................             delay_ms(10); 
0B91A:  MOVLW  0A
0B91C:  MOVLB  7
0B91E:  MOVWF  x57
0B920:  MOVLB  0
0B922:  CALL   16B6
....................             delay_ms(700);Menu=100;glcd_fillscreen(OFF);Opcion=1;visual=1; 
0B926:  MOVLW  04
0B928:  MOVLB  7
0B92A:  MOVWF  x51
0B92C:  MOVLW  AF
0B92E:  MOVWF  x57
0B930:  MOVLB  0
0B932:  CALL   16B6
0B936:  MOVLB  7
0B938:  DECFSZ x51,F
0B93A:  BRA    B92C
0B93C:  MOVLW  64
0B93E:  MOVLB  6
0B940:  MOVWF  xFC
0B942:  MOVLB  7
0B944:  CLRF   x52
0B946:  MOVLB  0
0B948:  CALL   1B9A
0B94C:  MOVLW  01
0B94E:  MOVLB  7
0B950:  MOVWF  x05
0B952:  MOVLB  4
0B954:  BSF    x84.6
....................             write_eeprom(24,(int8)MediaMovil); 
0B956:  CLRF   FAA
0B958:  MOVLW  18
0B95A:  MOVWF  FA9
0B95C:  MOVFF  69F,FA8
0B960:  BCF    FA6.6
0B962:  BCF    FA6.7
0B964:  BSF    FA6.2
0B966:  MOVF   FF2,W
0B968:  MOVWF  00
0B96A:  BCF    FF2.7
0B96C:  MOVLB  F
0B96E:  MOVLW  55
0B970:  MOVWF  FA7
0B972:  MOVLW  AA
0B974:  MOVWF  FA7
0B976:  BSF    FA6.1
0B978:  BTFSC  FA6.1
0B97A:  BRA    B978
0B97C:  BCF    FA6.2
0B97E:  MOVF   00,W
0B980:  IORWF  FF2,F
0B982:  MOVLB  6
....................          } 
....................      } 
.................... //_-------------------------------------------------------------------------------------------------------------------------------------------------------- 
....................  
.................... //_--------------------------------------------------------------------------------------------------------------------------------------------------------       
....................       if(Menu==108){ // Menu de Ganancia Instrumentacion 
0B984:  MOVF   xFC,W
0B986:  SUBLW  6C
0B988:  BTFSS  FD8.2
0B98A:  BRA    BC78
....................        
....................       if(Gain>50 || Gain<30) 
0B98C:  MOVLB  7
0B98E:  CLRF   x55
0B990:  CLRF   x54
0B992:  MOVLW  48
0B994:  MOVWF  x53
0B996:  MOVLW  84
0B998:  MOVWF  x52
0B99A:  MOVFF  67E,759
0B99E:  MOVFF  67D,758
0B9A2:  MOVFF  67C,757
0B9A6:  MOVFF  67B,756
0B9AA:  MOVLB  0
0B9AC:  CALL   1AEA
0B9B0:  BC    B9D8
0B9B2:  MOVFF  67E,755
0B9B6:  MOVFF  67D,754
0B9BA:  MOVFF  67C,753
0B9BE:  MOVFF  67B,752
0B9C2:  MOVLB  7
0B9C4:  CLRF   x59
0B9C6:  CLRF   x58
0B9C8:  MOVLW  70
0B9CA:  MOVWF  x57
0B9CC:  MOVLW  83
0B9CE:  MOVWF  x56
0B9D0:  MOVLB  0
0B9D2:  CALL   1AEA
0B9D6:  BNC   B9E8
....................       { 
....................          Gain=40; 
0B9D8:  MOVLB  6
0B9DA:  CLRF   x7E
0B9DC:  CLRF   x7D
0B9DE:  MOVLW  20
0B9E0:  MOVWF  x7C
0B9E2:  MOVLW  84
0B9E4:  MOVWF  x7B
0B9E6:  MOVLB  0
....................       } 
....................          strcpy(Menus.Letra,"Ganancia"); 
0B9E8:  MOVLW  04
0B9EA:  MOVWF  FEA
0B9EC:  MOVLW  18
0B9EE:  MOVWF  FE9
0B9F0:  MOVFF  FF2,751
0B9F4:  BCF    FF2.7
0B9F6:  MOVLW  00
0B9F8:  CALL   14C2
0B9FC:  TBLRD*-
0B9FE:  TBLRD*+
0BA00:  MOVF   FF5,W
0BA02:  MOVWF  FEE
0BA04:  IORLW  00
0BA06:  BNZ   B9FE
0BA08:  MOVLB  7
0BA0A:  BTFSC  x51.7
0BA0C:  BSF    FF2.7
....................          displayMenu(Menus.Letra,0,0,1,2); 
0BA0E:  MOVLW  04
0BA10:  MOVWF  x52
0BA12:  MOVLW  18
0BA14:  MOVWF  x51
0BA16:  CLRF   x53
0BA18:  CLRF   x54
0BA1A:  MOVLW  01
0BA1C:  MOVWF  x55
0BA1E:  MOVLW  02
0BA20:  MOVWF  x56
0BA22:  MOVLB  0
0BA24:  CALL   21C8
....................           
....................          displayTT(Gain,30,30,2); 
0BA28:  MOVFF  67E,754
0BA2C:  MOVFF  67D,753
0BA30:  MOVFF  67C,752
0BA34:  MOVFF  67B,751
0BA38:  MOVLW  1E
0BA3A:  MOVLB  7
0BA3C:  MOVWF  x55
0BA3E:  MOVWF  x56
0BA40:  MOVLW  02
0BA42:  MOVWF  x57
0BA44:  MOVLB  0
0BA46:  CALL   460E
....................  
....................        
....................          if(UP)//Si oprime hacia arriba 
0BA4A:  BSF    F92.4
0BA4C:  BTFSC  F80.4
0BA4E:  BRA    BA96
....................          {   
....................             delay_ms(10); 
0BA50:  MOVLW  0A
0BA52:  MOVLB  7
0BA54:  MOVWF  x57
0BA56:  MOVLB  0
0BA58:  CALL   16B6
....................             Gain+=0.1; 
0BA5C:  BCF    FD8.1
0BA5E:  MOVFF  67E,759
0BA62:  MOVFF  67D,758
0BA66:  MOVFF  67C,757
0BA6A:  MOVFF  67B,756
0BA6E:  MOVLW  CD
0BA70:  MOVLB  7
0BA72:  MOVWF  x5D
0BA74:  MOVLW  CC
0BA76:  MOVWF  x5C
0BA78:  MOVLW  4C
0BA7A:  MOVWF  x5B
0BA7C:  MOVLW  7B
0BA7E:  MOVWF  x5A
0BA80:  MOVLB  0
0BA82:  CALL   1872
0BA86:  MOVFF  03,67E
0BA8A:  MOVFF  02,67D
0BA8E:  MOVFF  01,67C
0BA92:  MOVFF  00,67B
....................          } 
....................                 
....................          if(DOWN)//Si oprime hacia abajo 
0BA96:  BSF    F92.5
0BA98:  BTFSC  F80.5
0BA9A:  BRA    BAE2
....................          {   
....................             delay_ms(10); 
0BA9C:  MOVLW  0A
0BA9E:  MOVLB  7
0BAA0:  MOVWF  x57
0BAA2:  MOVLB  0
0BAA4:  CALL   16B6
....................             Gain-=0.1; 
0BAA8:  BSF    FD8.1
0BAAA:  MOVFF  67E,759
0BAAE:  MOVFF  67D,758
0BAB2:  MOVFF  67C,757
0BAB6:  MOVFF  67B,756
0BABA:  MOVLW  CD
0BABC:  MOVLB  7
0BABE:  MOVWF  x5D
0BAC0:  MOVLW  CC
0BAC2:  MOVWF  x5C
0BAC4:  MOVLW  4C
0BAC6:  MOVWF  x5B
0BAC8:  MOVLW  7B
0BACA:  MOVWF  x5A
0BACC:  MOVLB  0
0BACE:  CALL   1872
0BAD2:  MOVFF  03,67E
0BAD6:  MOVFF  02,67D
0BADA:  MOVFF  01,67C
0BADE:  MOVFF  00,67B
....................          } 
....................                 
....................          if(RIGHT)//Si oprime SET 
0BAE2:  BSF    F96.0
0BAE4:  BTFSC  F84.0
0BAE6:  BRA    BB06
....................          {   
....................             delay_ms(10); 
0BAE8:  MOVLW  0A
0BAEA:  MOVLB  7
0BAEC:  MOVWF  x57
0BAEE:  MOVLB  0
0BAF0:  CALL   16B6
....................             delay_ms(30);visual=1; 
0BAF4:  MOVLW  1E
0BAF6:  MOVLB  7
0BAF8:  MOVWF  x57
0BAFA:  MOVLB  0
0BAFC:  CALL   16B6
0BB00:  MOVLB  4
0BB02:  BSF    x84.6
0BB04:  MOVLB  0
....................          }  
....................                    
....................          if(LEFT)//Si oprime boton de Toma. 
0BB06:  BSF    F96.1
0BB08:  BTFSC  F84.1
0BB0A:  BRA    BC76
....................          { 
....................             delay_ms(10); 
0BB0C:  MOVLW  0A
0BB0E:  MOVLB  7
0BB10:  MOVWF  x57
0BB12:  MOVLB  0
0BB14:  CALL   16B6
....................             delay_ms(700);Menu=100;glcd_fillscreen(OFF);Opcion=1;visual=1; 
0BB18:  MOVLW  04
0BB1A:  MOVLB  7
0BB1C:  MOVWF  x51
0BB1E:  MOVLW  AF
0BB20:  MOVWF  x57
0BB22:  MOVLB  0
0BB24:  CALL   16B6
0BB28:  MOVLB  7
0BB2A:  DECFSZ x51,F
0BB2C:  BRA    BB1E
0BB2E:  MOVLW  64
0BB30:  MOVLB  6
0BB32:  MOVWF  xFC
0BB34:  MOVLB  7
0BB36:  CLRF   x52
0BB38:  MOVLB  0
0BB3A:  CALL   1B9A
0BB3E:  MOVLW  01
0BB40:  MOVLB  7
0BB42:  MOVWF  x05
0BB44:  MOVLB  4
0BB46:  BSF    x84.6
....................             write_eeprom(28,(int8)Gain); 
0BB48:  MOVFF  67E,754
0BB4C:  MOVFF  67D,753
0BB50:  MOVFF  67C,752
0BB54:  MOVFF  67B,751
0BB58:  MOVLB  0
0BB5A:  CALL   2A36
0BB5E:  MOVFF  01,751
0BB62:  CLRF   FAA
0BB64:  MOVLW  1C
0BB66:  MOVWF  FA9
0BB68:  MOVFF  751,FA8
0BB6C:  BCF    FA6.6
0BB6E:  BCF    FA6.7
0BB70:  BSF    FA6.2
0BB72:  MOVF   FF2,W
0BB74:  MOVWF  00
0BB76:  BCF    FF2.7
0BB78:  MOVLB  F
0BB7A:  MOVLW  55
0BB7C:  MOVWF  FA7
0BB7E:  MOVLW  AA
0BB80:  MOVWF  FA7
0BB82:  BSF    FA6.1
0BB84:  BTFSC  FA6.1
0BB86:  BRA    BB84
0BB88:  BCF    FA6.2
0BB8A:  MOVF   00,W
0BB8C:  IORWF  FF2,F
....................             delay_ms(10); 
0BB8E:  MOVLW  0A
0BB90:  MOVLB  7
0BB92:  MOVWF  x57
0BB94:  MOVLB  0
0BB96:  CALL   16B6
....................             Temporal=Gain-((int8)Gain); 
0BB9A:  MOVFF  67E,754
0BB9E:  MOVFF  67D,753
0BBA2:  MOVFF  67C,752
0BBA6:  MOVFF  67B,751
0BBAA:  CALL   2A36
0BBAE:  MOVLB  7
0BBB0:  CLRF   x58
0BBB2:  MOVFF  01,757
0BBB6:  MOVLB  0
0BBB8:  CALL   16DE
0BBBC:  BSF    FD8.1
0BBBE:  MOVFF  67E,759
0BBC2:  MOVFF  67D,758
0BBC6:  MOVFF  67C,757
0BBCA:  MOVFF  67B,756
0BBCE:  MOVFF  03,75D
0BBD2:  MOVFF  02,75C
0BBD6:  MOVFF  01,75B
0BBDA:  MOVFF  00,75A
0BBDE:  CALL   1872
0BBE2:  MOVFF  03,686
0BBE6:  MOVFF  02,685
0BBEA:  MOVFF  01,684
0BBEE:  MOVFF  00,683
....................             Temporal=Temporal*10; 
0BBF2:  MOVFF  686,775
0BBF6:  MOVFF  685,774
0BBFA:  MOVFF  684,773
0BBFE:  MOVFF  683,772
0BC02:  MOVLB  7
0BC04:  CLRF   x79
0BC06:  CLRF   x78
0BC08:  MOVLW  20
0BC0A:  MOVWF  x77
0BC0C:  MOVLW  82
0BC0E:  MOVWF  x76
0BC10:  MOVLB  0
0BC12:  CALL   256E
0BC16:  MOVFF  03,686
0BC1A:  MOVFF  02,685
0BC1E:  MOVFF  01,684
0BC22:  MOVFF  00,683
....................             write_eeprom(29,(int8)Temporal); 
0BC26:  MOVFF  686,754
0BC2A:  MOVFF  685,753
0BC2E:  MOVFF  684,752
0BC32:  MOVFF  683,751
0BC36:  CALL   2A36
0BC3A:  MOVFF  01,751
0BC3E:  CLRF   FAA
0BC40:  MOVLW  1D
0BC42:  MOVWF  FA9
0BC44:  MOVFF  751,FA8
0BC48:  BCF    FA6.6
0BC4A:  BCF    FA6.7
0BC4C:  BSF    FA6.2
0BC4E:  MOVF   FF2,W
0BC50:  MOVWF  00
0BC52:  BCF    FF2.7
0BC54:  MOVLB  F
0BC56:  MOVLW  55
0BC58:  MOVWF  FA7
0BC5A:  MOVLW  AA
0BC5C:  MOVWF  FA7
0BC5E:  BSF    FA6.1
0BC60:  BTFSC  FA6.1
0BC62:  BRA    BC60
0BC64:  BCF    FA6.2
0BC66:  MOVF   00,W
0BC68:  IORWF  FF2,F
....................             delay_ms(10); 
0BC6A:  MOVLW  0A
0BC6C:  MOVLB  7
0BC6E:  MOVWF  x57
0BC70:  MOVLB  0
0BC72:  CALL   16B6
0BC76:  MOVLB  6
....................          } 
....................      } 
.................... //_-------------------------------------------------------------------------------------------------------------------------------------------------------- 
....................  
.................... //_--------------------------------------------------------------------------------------------------------------------------------------------------------       
....................       if(Menu==109){ // Menu de Ajuste R1 
0BC78:  MOVF   xFC,W
0BC7A:  SUBLW  6D
0BC7C:  BTFSS  FD8.2
0BC7E:  BRA    BEFE
....................        
....................       if(R1>6400 || R1<6000) 
0BC80:  MOVLB  7
0BC82:  CLRF   x55
0BC84:  CLRF   x54
0BC86:  MOVLW  48
0BC88:  MOVWF  x53
0BC8A:  MOVLW  8B
0BC8C:  MOVWF  x52
0BC8E:  MOVFF  6A7,759
0BC92:  MOVFF  6A6,758
0BC96:  MOVFF  6A5,757
0BC9A:  MOVFF  6A4,756
0BC9E:  MOVLB  0
0BCA0:  CALL   1AEA
0BCA4:  BC    BCCE
0BCA6:  MOVFF  6A7,755
0BCAA:  MOVFF  6A6,754
0BCAE:  MOVFF  6A5,753
0BCB2:  MOVFF  6A4,752
0BCB6:  MOVLB  7
0BCB8:  CLRF   x59
0BCBA:  MOVLW  80
0BCBC:  MOVWF  x58
0BCBE:  MOVLW  3B
0BCC0:  MOVWF  x57
0BCC2:  MOVLW  8B
0BCC4:  MOVWF  x56
0BCC6:  MOVLB  0
0BCC8:  CALL   1AEA
0BCCC:  BNC   BCE0
....................       { 
....................          R1=6200; 
0BCCE:  MOVLB  6
0BCD0:  CLRF   xA7
0BCD2:  MOVLW  C0
0BCD4:  MOVWF  xA6
0BCD6:  MOVLW  41
0BCD8:  MOVWF  xA5
0BCDA:  MOVLW  8B
0BCDC:  MOVWF  xA4
0BCDE:  MOVLB  0
....................       } 
....................  
....................          strcpy(Menus.Letra,"R51"); 
0BCE0:  MOVLW  04
0BCE2:  MOVWF  FEA
0BCE4:  MOVLW  18
0BCE6:  MOVWF  FE9
0BCE8:  MOVFF  FF2,751
0BCEC:  BCF    FF2.7
0BCEE:  MOVLW  00
0BCF0:  CALL   14EA
0BCF4:  TBLRD*-
0BCF6:  TBLRD*+
0BCF8:  MOVF   FF5,W
0BCFA:  MOVWF  FEE
0BCFC:  IORLW  00
0BCFE:  BNZ   BCF6
0BD00:  MOVLB  7
0BD02:  BTFSC  x51.7
0BD04:  BSF    FF2.7
....................          displayMenu(Menus.Letra,0,0,1,2); 
0BD06:  MOVLW  04
0BD08:  MOVWF  x52
0BD0A:  MOVLW  18
0BD0C:  MOVWF  x51
0BD0E:  CLRF   x53
0BD10:  CLRF   x54
0BD12:  MOVLW  01
0BD14:  MOVWF  x55
0BD16:  MOVLW  02
0BD18:  MOVWF  x56
0BD1A:  MOVLB  0
0BD1C:  CALL   21C8
....................           
....................          displayTemperatura(R1,30,30,0,3); 
0BD20:  MOVFF  6A7,754
0BD24:  MOVFF  6A6,753
0BD28:  MOVFF  6A5,752
0BD2C:  MOVFF  6A4,751
0BD30:  CALL   2A36
0BD34:  MOVFF  02,752
0BD38:  MOVFF  01,751
0BD3C:  MOVFF  02,754
0BD40:  MOVFF  01,753
0BD44:  MOVLW  1E
0BD46:  MOVLB  7
0BD48:  MOVWF  x55
0BD4A:  MOVWF  x56
0BD4C:  CLRF   x57
0BD4E:  MOVLW  03
0BD50:  MOVWF  x58
0BD52:  MOVLB  0
0BD54:  CALL   4746
....................  
....................          if(UP)//Si oprime hacia arriba 
0BD58:  BSF    F92.4
0BD5A:  BTFSC  F80.4
0BD5C:  BRA    BD9E
....................          {   
....................             delay_ms(10); 
0BD5E:  MOVLW  0A
0BD60:  MOVLB  7
0BD62:  MOVWF  x57
0BD64:  MOVLB  0
0BD66:  CALL   16B6
....................             R1+=1.0; 
0BD6A:  BCF    FD8.1
0BD6C:  MOVFF  6A7,759
0BD70:  MOVFF  6A6,758
0BD74:  MOVFF  6A5,757
0BD78:  MOVFF  6A4,756
0BD7C:  MOVLB  7
0BD7E:  CLRF   x5D
0BD80:  CLRF   x5C
0BD82:  CLRF   x5B
0BD84:  MOVLW  7F
0BD86:  MOVWF  x5A
0BD88:  MOVLB  0
0BD8A:  CALL   1872
0BD8E:  MOVFF  03,6A7
0BD92:  MOVFF  02,6A6
0BD96:  MOVFF  01,6A5
0BD9A:  MOVFF  00,6A4
....................          } 
....................                 
....................          if(DOWN)//Si oprime hacia abajo 
0BD9E:  BSF    F92.5
0BDA0:  BTFSC  F80.5
0BDA2:  BRA    BDE4
....................          {   
....................             delay_ms(10); 
0BDA4:  MOVLW  0A
0BDA6:  MOVLB  7
0BDA8:  MOVWF  x57
0BDAA:  MOVLB  0
0BDAC:  CALL   16B6
....................             R1-=1.0; 
0BDB0:  BSF    FD8.1
0BDB2:  MOVFF  6A7,759
0BDB6:  MOVFF  6A6,758
0BDBA:  MOVFF  6A5,757
0BDBE:  MOVFF  6A4,756
0BDC2:  MOVLB  7
0BDC4:  CLRF   x5D
0BDC6:  CLRF   x5C
0BDC8:  CLRF   x5B
0BDCA:  MOVLW  7F
0BDCC:  MOVWF  x5A
0BDCE:  MOVLB  0
0BDD0:  CALL   1872
0BDD4:  MOVFF  03,6A7
0BDD8:  MOVFF  02,6A6
0BDDC:  MOVFF  01,6A5
0BDE0:  MOVFF  00,6A4
....................          } 
....................                 
....................          if(RIGHT)//Si oprime SET 
0BDE4:  BSF    F96.0
0BDE6:  BTFSC  F84.0
0BDE8:  BRA    BE08
....................          {   
....................             delay_ms(10); 
0BDEA:  MOVLW  0A
0BDEC:  MOVLB  7
0BDEE:  MOVWF  x57
0BDF0:  MOVLB  0
0BDF2:  CALL   16B6
....................             delay_ms(30);visual=1; 
0BDF6:  MOVLW  1E
0BDF8:  MOVLB  7
0BDFA:  MOVWF  x57
0BDFC:  MOVLB  0
0BDFE:  CALL   16B6
0BE02:  MOVLB  4
0BE04:  BSF    x84.6
0BE06:  MOVLB  0
....................          }  
....................                    
....................          if(LEFT)//Si oprime boton de Toma. 
0BE08:  BSF    F96.1
0BE0A:  BTFSC  F84.1
0BE0C:  BRA    BEFC
....................          { 
....................             delay_ms(10); 
0BE0E:  MOVLW  0A
0BE10:  MOVLB  7
0BE12:  MOVWF  x57
0BE14:  MOVLB  0
0BE16:  CALL   16B6
....................             delay_ms(700);Menu=100;glcd_fillscreen(OFF);Opcion=1;visual=1; 
0BE1A:  MOVLW  04
0BE1C:  MOVLB  7
0BE1E:  MOVWF  x51
0BE20:  MOVLW  AF
0BE22:  MOVWF  x57
0BE24:  MOVLB  0
0BE26:  CALL   16B6
0BE2A:  MOVLB  7
0BE2C:  DECFSZ x51,F
0BE2E:  BRA    BE20
0BE30:  MOVLW  64
0BE32:  MOVLB  6
0BE34:  MOVWF  xFC
0BE36:  MOVLB  7
0BE38:  CLRF   x52
0BE3A:  MOVLB  0
0BE3C:  CALL   1B9A
0BE40:  MOVLW  01
0BE42:  MOVLB  7
0BE44:  MOVWF  x05
0BE46:  MOVLB  4
0BE48:  BSF    x84.6
....................             write_eeprom(30,make8((int16)R1,0)); 
0BE4A:  MOVFF  6A7,754
0BE4E:  MOVFF  6A6,753
0BE52:  MOVFF  6A5,752
0BE56:  MOVFF  6A4,751
0BE5A:  MOVLB  0
0BE5C:  CALL   2A36
0BE60:  MOVFF  02,752
0BE64:  MOVFF  01,751
0BE68:  MOVFF  751,753
0BE6C:  CLRF   FAA
0BE6E:  MOVLW  1E
0BE70:  MOVWF  FA9
0BE72:  MOVFF  753,FA8
0BE76:  BCF    FA6.6
0BE78:  BCF    FA6.7
0BE7A:  BSF    FA6.2
0BE7C:  MOVF   FF2,W
0BE7E:  MOVWF  00
0BE80:  BCF    FF2.7
0BE82:  MOVLB  F
0BE84:  MOVLW  55
0BE86:  MOVWF  FA7
0BE88:  MOVLW  AA
0BE8A:  MOVWF  FA7
0BE8C:  BSF    FA6.1
0BE8E:  BTFSC  FA6.1
0BE90:  BRA    BE8E
0BE92:  BCF    FA6.2
0BE94:  MOVF   00,W
0BE96:  IORWF  FF2,F
....................             delay_ms(10); 
0BE98:  MOVLW  0A
0BE9A:  MOVLB  7
0BE9C:  MOVWF  x57
0BE9E:  MOVLB  0
0BEA0:  CALL   16B6
....................             write_eeprom(31,make8((int16)R1,1)); 
0BEA4:  MOVFF  6A7,754
0BEA8:  MOVFF  6A6,753
0BEAC:  MOVFF  6A5,752
0BEB0:  MOVFF  6A4,751
0BEB4:  CALL   2A36
0BEB8:  MOVFF  02,752
0BEBC:  MOVFF  01,751
0BEC0:  MOVFF  752,753
0BEC4:  CLRF   FAA
0BEC6:  MOVLW  1F
0BEC8:  MOVWF  FA9
0BECA:  MOVFF  753,FA8
0BECE:  BCF    FA6.6
0BED0:  BCF    FA6.7
0BED2:  BSF    FA6.2
0BED4:  MOVF   FF2,W
0BED6:  MOVWF  00
0BED8:  BCF    FF2.7
0BEDA:  MOVLB  F
0BEDC:  MOVLW  55
0BEDE:  MOVWF  FA7
0BEE0:  MOVLW  AA
0BEE2:  MOVWF  FA7
0BEE4:  BSF    FA6.1
0BEE6:  BTFSC  FA6.1
0BEE8:  BRA    BEE6
0BEEA:  BCF    FA6.2
0BEEC:  MOVF   00,W
0BEEE:  IORWF  FF2,F
....................             delay_ms(10); 
0BEF0:  MOVLW  0A
0BEF2:  MOVLB  7
0BEF4:  MOVWF  x57
0BEF6:  MOVLB  0
0BEF8:  CALL   16B6
0BEFC:  MOVLB  6
....................          } 
....................      } 
.................... //_-------------------------------------------------------------------------------------------------------------------------------------------------------- 
....................  
.................... //_--------------------------------------------------------------------------------------------------------------------------------------------------------       
....................       if(Menu==110){ // Menu de Ajuste RPT100 
0BEFE:  MOVF   xFC,W
0BF00:  SUBLW  6E
0BF02:  BTFSS  FD8.2
0BF04:  BRA    C1C8
....................        
....................       if(RPT100>2.0) 
0BF06:  MOVLB  7
0BF08:  CLRF   x55
0BF0A:  CLRF   x54
0BF0C:  CLRF   x53
0BF0E:  MOVLW  80
0BF10:  MOVWF  x52
0BF12:  MOVFF  682,759
0BF16:  MOVFF  681,758
0BF1A:  MOVFF  680,757
0BF1E:  MOVFF  67F,756
0BF22:  MOVLB  0
0BF24:  CALL   1AEA
0BF28:  BNC   BF38
....................       { 
....................          RPT100=0.5; 
0BF2A:  MOVLB  6
0BF2C:  CLRF   x82
0BF2E:  CLRF   x81
0BF30:  CLRF   x80
0BF32:  MOVLW  7E
0BF34:  MOVWF  x7F
0BF36:  MOVLB  0
....................       } 
....................  
....................          strcpy(Menus.Letra,"RPT100"); 
0BF38:  MOVLW  04
0BF3A:  MOVWF  FEA
0BF3C:  MOVLW  18
0BF3E:  MOVWF  FE9
0BF40:  MOVFF  FF2,751
0BF44:  BCF    FF2.7
0BF46:  MOVLW  00
0BF48:  CALL   150C
0BF4C:  TBLRD*-
0BF4E:  TBLRD*+
0BF50:  MOVF   FF5,W
0BF52:  MOVWF  FEE
0BF54:  IORLW  00
0BF56:  BNZ   BF4E
0BF58:  MOVLB  7
0BF5A:  BTFSC  x51.7
0BF5C:  BSF    FF2.7
....................          displayMenu(Menus.Letra,0,0,1,2); 
0BF5E:  MOVLW  04
0BF60:  MOVWF  x52
0BF62:  MOVLW  18
0BF64:  MOVWF  x51
0BF66:  CLRF   x53
0BF68:  CLRF   x54
0BF6A:  MOVLW  01
0BF6C:  MOVWF  x55
0BF6E:  MOVLW  02
0BF70:  MOVWF  x56
0BF72:  MOVLB  0
0BF74:  CALL   21C8
....................           
....................          displayTT(RPT100,30,30,2); 
0BF78:  MOVFF  682,754
0BF7C:  MOVFF  681,753
0BF80:  MOVFF  680,752
0BF84:  MOVFF  67F,751
0BF88:  MOVLW  1E
0BF8A:  MOVLB  7
0BF8C:  MOVWF  x55
0BF8E:  MOVWF  x56
0BF90:  MOVLW  02
0BF92:  MOVWF  x57
0BF94:  MOVLB  0
0BF96:  CALL   460E
....................  
....................          if(UP)//Si oprime hacia arriba 
0BF9A:  BSF    F92.4
0BF9C:  BTFSC  F80.4
0BF9E:  BRA    BFE6
....................          {   
....................             delay_ms(10); 
0BFA0:  MOVLW  0A
0BFA2:  MOVLB  7
0BFA4:  MOVWF  x57
0BFA6:  MOVLB  0
0BFA8:  CALL   16B6
....................             RPT100+=0.1; 
0BFAC:  BCF    FD8.1
0BFAE:  MOVFF  682,759
0BFB2:  MOVFF  681,758
0BFB6:  MOVFF  680,757
0BFBA:  MOVFF  67F,756
0BFBE:  MOVLW  CD
0BFC0:  MOVLB  7
0BFC2:  MOVWF  x5D
0BFC4:  MOVLW  CC
0BFC6:  MOVWF  x5C
0BFC8:  MOVLW  4C
0BFCA:  MOVWF  x5B
0BFCC:  MOVLW  7B
0BFCE:  MOVWF  x5A
0BFD0:  MOVLB  0
0BFD2:  CALL   1872
0BFD6:  MOVFF  03,682
0BFDA:  MOVFF  02,681
0BFDE:  MOVFF  01,680
0BFE2:  MOVFF  00,67F
....................          } 
....................                 
....................          if(DOWN)//Si oprime hacia abajo 
0BFE6:  BSF    F92.5
0BFE8:  BTFSC  F80.5
0BFEA:  BRA    C032
....................          {   
....................             delay_ms(10); 
0BFEC:  MOVLW  0A
0BFEE:  MOVLB  7
0BFF0:  MOVWF  x57
0BFF2:  MOVLB  0
0BFF4:  CALL   16B6
....................             RPT100-=0.1; 
0BFF8:  BSF    FD8.1
0BFFA:  MOVFF  682,759
0BFFE:  MOVFF  681,758
0C002:  MOVFF  680,757
0C006:  MOVFF  67F,756
0C00A:  MOVLW  CD
0C00C:  MOVLB  7
0C00E:  MOVWF  x5D
0C010:  MOVLW  CC
0C012:  MOVWF  x5C
0C014:  MOVLW  4C
0C016:  MOVWF  x5B
0C018:  MOVLW  7B
0C01A:  MOVWF  x5A
0C01C:  MOVLB  0
0C01E:  CALL   1872
0C022:  MOVFF  03,682
0C026:  MOVFF  02,681
0C02A:  MOVFF  01,680
0C02E:  MOVFF  00,67F
....................          } 
....................                 
....................          if(RIGHT)//Si oprime SET 
0C032:  BSF    F96.0
0C034:  BTFSC  F84.0
0C036:  BRA    C056
....................          {   
....................             delay_ms(10); 
0C038:  MOVLW  0A
0C03A:  MOVLB  7
0C03C:  MOVWF  x57
0C03E:  MOVLB  0
0C040:  CALL   16B6
....................             delay_ms(30);visual=1; 
0C044:  MOVLW  1E
0C046:  MOVLB  7
0C048:  MOVWF  x57
0C04A:  MOVLB  0
0C04C:  CALL   16B6
0C050:  MOVLB  4
0C052:  BSF    x84.6
0C054:  MOVLB  0
....................          }  
....................                    
....................          if(LEFT)//Si oprime boton de Toma. 
0C056:  BSF    F96.1
0C058:  BTFSC  F84.1
0C05A:  BRA    C1C6
....................          { 
....................             delay_ms(10); 
0C05C:  MOVLW  0A
0C05E:  MOVLB  7
0C060:  MOVWF  x57
0C062:  MOVLB  0
0C064:  CALL   16B6
....................             delay_ms(700);Menu=100;glcd_fillscreen(OFF);Opcion=1;visual=1; 
0C068:  MOVLW  04
0C06A:  MOVLB  7
0C06C:  MOVWF  x51
0C06E:  MOVLW  AF
0C070:  MOVWF  x57
0C072:  MOVLB  0
0C074:  CALL   16B6
0C078:  MOVLB  7
0C07A:  DECFSZ x51,F
0C07C:  BRA    C06E
0C07E:  MOVLW  64
0C080:  MOVLB  6
0C082:  MOVWF  xFC
0C084:  MOVLB  7
0C086:  CLRF   x52
0C088:  MOVLB  0
0C08A:  CALL   1B9A
0C08E:  MOVLW  01
0C090:  MOVLB  7
0C092:  MOVWF  x05
0C094:  MOVLB  4
0C096:  BSF    x84.6
....................             write_eeprom(32,(int8)RPT100); 
0C098:  MOVFF  682,754
0C09C:  MOVFF  681,753
0C0A0:  MOVFF  680,752
0C0A4:  MOVFF  67F,751
0C0A8:  MOVLB  0
0C0AA:  CALL   2A36
0C0AE:  MOVFF  01,751
0C0B2:  CLRF   FAA
0C0B4:  MOVLW  20
0C0B6:  MOVWF  FA9
0C0B8:  MOVFF  751,FA8
0C0BC:  BCF    FA6.6
0C0BE:  BCF    FA6.7
0C0C0:  BSF    FA6.2
0C0C2:  MOVF   FF2,W
0C0C4:  MOVWF  00
0C0C6:  BCF    FF2.7
0C0C8:  MOVLB  F
0C0CA:  MOVLW  55
0C0CC:  MOVWF  FA7
0C0CE:  MOVLW  AA
0C0D0:  MOVWF  FA7
0C0D2:  BSF    FA6.1
0C0D4:  BTFSC  FA6.1
0C0D6:  BRA    C0D4
0C0D8:  BCF    FA6.2
0C0DA:  MOVF   00,W
0C0DC:  IORWF  FF2,F
....................             delay_ms(10); 
0C0DE:  MOVLW  0A
0C0E0:  MOVLB  7
0C0E2:  MOVWF  x57
0C0E4:  MOVLB  0
0C0E6:  CALL   16B6
....................             Temporal=RPT100-((int8)RPT100); 
0C0EA:  MOVFF  682,754
0C0EE:  MOVFF  681,753
0C0F2:  MOVFF  680,752
0C0F6:  MOVFF  67F,751
0C0FA:  CALL   2A36
0C0FE:  MOVLB  7
0C100:  CLRF   x58
0C102:  MOVFF  01,757
0C106:  MOVLB  0
0C108:  CALL   16DE
0C10C:  BSF    FD8.1
0C10E:  MOVFF  682,759
0C112:  MOVFF  681,758
0C116:  MOVFF  680,757
0C11A:  MOVFF  67F,756
0C11E:  MOVFF  03,75D
0C122:  MOVFF  02,75C
0C126:  MOVFF  01,75B
0C12A:  MOVFF  00,75A
0C12E:  CALL   1872
0C132:  MOVFF  03,686
0C136:  MOVFF  02,685
0C13A:  MOVFF  01,684
0C13E:  MOVFF  00,683
....................             Temporal=Temporal*10; 
0C142:  MOVFF  686,775
0C146:  MOVFF  685,774
0C14A:  MOVFF  684,773
0C14E:  MOVFF  683,772
0C152:  MOVLB  7
0C154:  CLRF   x79
0C156:  CLRF   x78
0C158:  MOVLW  20
0C15A:  MOVWF  x77
0C15C:  MOVLW  82
0C15E:  MOVWF  x76
0C160:  MOVLB  0
0C162:  CALL   256E
0C166:  MOVFF  03,686
0C16A:  MOVFF  02,685
0C16E:  MOVFF  01,684
0C172:  MOVFF  00,683
....................             write_eeprom(33,(int8)Temporal); 
0C176:  MOVFF  686,754
0C17A:  MOVFF  685,753
0C17E:  MOVFF  684,752
0C182:  MOVFF  683,751
0C186:  CALL   2A36
0C18A:  MOVFF  01,751
0C18E:  CLRF   FAA
0C190:  MOVLW  21
0C192:  MOVWF  FA9
0C194:  MOVFF  751,FA8
0C198:  BCF    FA6.6
0C19A:  BCF    FA6.7
0C19C:  BSF    FA6.2
0C19E:  MOVF   FF2,W
0C1A0:  MOVWF  00
0C1A2:  BCF    FF2.7
0C1A4:  MOVLB  F
0C1A6:  MOVLW  55
0C1A8:  MOVWF  FA7
0C1AA:  MOVLW  AA
0C1AC:  MOVWF  FA7
0C1AE:  BSF    FA6.1
0C1B0:  BTFSC  FA6.1
0C1B2:  BRA    C1B0
0C1B4:  BCF    FA6.2
0C1B6:  MOVF   00,W
0C1B8:  IORWF  FF2,F
....................             delay_ms(10); 
0C1BA:  MOVLW  0A
0C1BC:  MOVLB  7
0C1BE:  MOVWF  x57
0C1C0:  MOVLB  0
0C1C2:  CALL   16B6
0C1C6:  MOVLB  6
....................          } 
....................      } 
.................... //_-------------------------------------------------------------------------------------------------------------------------------------------------------- 
....................  
....................   while(Menu==200) 
....................  { 
0C1C8:  MOVF   xFC,W
0C1CA:  SUBLW  C8
0C1CC:  BNZ   C2B6
....................     
....................    displayTiempo(txbuf[0],0,10,2,1); 
0C1CE:  MOVFF  43C,751
0C1D2:  MOVLB  7
0C1D4:  CLRF   x52
0C1D6:  MOVLW  0A
0C1D8:  MOVWF  x53
0C1DA:  MOVLW  02
0C1DC:  MOVWF  x54
0C1DE:  MOVLW  01
0C1E0:  MOVWF  x55
0C1E2:  MOVLB  0
0C1E4:  CALL   3998
....................    displayTiempo(txbuf[1],0,20,2,1); 
0C1E8:  MOVFF  43D,751
0C1EC:  MOVLB  7
0C1EE:  CLRF   x52
0C1F0:  MOVLW  14
0C1F2:  MOVWF  x53
0C1F4:  MOVLW  02
0C1F6:  MOVWF  x54
0C1F8:  MOVLW  01
0C1FA:  MOVWF  x55
0C1FC:  MOVLB  0
0C1FE:  CALL   3998
....................    displayTiempo(txbuf[2],0,30,2,1); 
0C202:  MOVFF  43E,751
0C206:  MOVLB  7
0C208:  CLRF   x52
0C20A:  MOVLW  1E
0C20C:  MOVWF  x53
0C20E:  MOVLW  02
0C210:  MOVWF  x54
0C212:  MOVLW  01
0C214:  MOVWF  x55
0C216:  MOVLB  0
0C218:  CALL   3998
....................    displayTiempo(txbuf[3],0,40,2,1); 
0C21C:  MOVFF  43F,751
0C220:  MOVLB  7
0C222:  CLRF   x52
0C224:  MOVLW  28
0C226:  MOVWF  x53
0C228:  MOVLW  02
0C22A:  MOVWF  x54
0C22C:  MOVLW  01
0C22E:  MOVWF  x55
0C230:  MOVLB  0
0C232:  CALL   3998
....................    displayTiempo(SlaveA0Tx[0],0,50,2,1); 
0C236:  MOVFF  45C,751
0C23A:  MOVLB  7
0C23C:  CLRF   x52
0C23E:  MOVLW  32
0C240:  MOVWF  x53
0C242:  MOVLW  02
0C244:  MOVWF  x54
0C246:  MOVLW  01
0C248:  MOVWF  x55
0C24A:  MOVLB  0
0C24C:  CALL   3998
....................    Lectura_Esclavos(); 
0C250:  CALL   31BE
....................    Envio_Esclavos(); 
0C254:  CALL   2C60
....................    Opcion++; 
0C258:  MOVLB  7
0C25A:  INCF   x05,F
....................    displayTiempo(SlaveA0Tx[1],50,10,2,1); 
0C25C:  MOVFF  45D,751
0C260:  MOVLW  32
0C262:  MOVWF  x52
0C264:  MOVLW  0A
0C266:  MOVWF  x53
0C268:  MOVLW  02
0C26A:  MOVWF  x54
0C26C:  MOVLW  01
0C26E:  MOVWF  x55
0C270:  MOVLB  0
0C272:  CALL   3998
....................    displayTiempo(SlaveA0Tx[2],50,20,2,1); 
0C276:  MOVFF  45E,751
0C27A:  MOVLW  32
0C27C:  MOVLB  7
0C27E:  MOVWF  x52
0C280:  MOVLW  14
0C282:  MOVWF  x53
0C284:  MOVLW  02
0C286:  MOVWF  x54
0C288:  MOVLW  01
0C28A:  MOVWF  x55
0C28C:  MOVLB  0
0C28E:  CALL   3998
....................    displayTiempo(SlaveA0Tx[3],50,30,2,1);      
0C292:  MOVFF  45F,751
0C296:  MOVLW  32
0C298:  MOVLB  7
0C29A:  MOVWF  x52
0C29C:  MOVLW  1E
0C29E:  MOVWF  x53
0C2A0:  MOVLW  02
0C2A2:  MOVWF  x54
0C2A4:  MOVLW  01
0C2A6:  MOVWF  x55
0C2A8:  MOVLB  0
0C2AA:  CALL   3998
....................    glcd_update(); 
0C2AE:  CALL   1BF4
....................  } 
0C2B2:  MOVLB  6
0C2B4:  BRA    C1C8
....................    } 
0C2B6:  GOTO   59BA
.................... } 
0C2BA:  SLEEP 

Configuration Fuses:
   Word  1: 0200   HS NOIESO NOFCMEN
   Word  2: 1E1F   BROWNOUT NOWDT BORV20 NOPUT WDT32768
   Word  3: 0000   NOPBADEN NOLPT1OSC NOMCLR
   Word  4: 00B0   NOSTVREN NODEBUG NOLVP NOXINST BBSIZ4K
   Word  5: C03F   NOPROTECT NOCPD NOCPB
   Word  6: E03F   NOWRT NOWRTD NOWRTC NOWRTB
   Word  7: 403F   NOEBTR NOEBTRB
