CCS PCH C Compiler, Version 4.104, 5967               13-may.-19 11:49

               Filename: H:\JP\JP\Laboratorio\Autoclave\Autoclave Horizontal\Con Precamara\2018\Autoclave 110L-V3.1 TIM #004587910\Firmware V4.0\GLCD_Controller Corregido\GLCD_Controller.lst

               ROM used: 44736 bytes (46%)
                         Largest free fragment is 32768
               RAM used: 1018 (31%) at main() level
                         1057 (32%) worst case
               Stack:    5 worst case (4 in main + 1 for interrupts)

*
00000:  GOTO   52DA
*
00008:  GOTO   00BA
0000C:  NOP   
0000E:  NOP   
00010:  NOP   
00012:  NOP   
00014:  NOP   
00016:  NOP   
00018:  MOVWF  04
0001A:  MOVFF  FD8,05
0001E:  MOVFF  FE0,06
00022:  MOVLB  0
00024:  MOVFF  FE9,0C
00028:  MOVFF  FEA,07
0002C:  MOVFF  FE1,08
00030:  MOVFF  FE2,09
00034:  MOVFF  FD9,0A
00038:  MOVFF  FDA,0B
0003C:  MOVFF  FF3,12
00040:  MOVFF  FF4,13
00044:  MOVFF  FFA,14
00048:  MOVFF  FFB,15
0004C:  MOVFF  00,0E
00050:  MOVFF  01,0F
00054:  MOVFF  02,10
00058:  MOVFF  03,11
0005C:  BTFSS  FF2.5
0005E:  GOTO   0068
00062:  BTFSC  FF2.2
00064:  GOTO   01BE
00068:  BTFSS  F9D.0
0006A:  GOTO   0074
0006E:  BTFSC  F9E.0
00070:  GOTO   0216
00074:  MOVFF  0E,00
00078:  MOVFF  0F,01
0007C:  MOVFF  10,02
00080:  MOVFF  11,03
00084:  MOVFF  0C,FE9
00088:  MOVFF  07,FEA
0008C:  BSF    07.7
0008E:  MOVFF  08,FE1
00092:  MOVFF  09,FE2
00096:  MOVFF  0A,FD9
0009A:  MOVFF  0B,FDA
0009E:  MOVFF  12,FF3
000A2:  MOVFF  13,FF4
000A6:  MOVFF  14,FFA
000AA:  MOVFF  15,FFB
000AE:  MOVF   04,W
000B0:  MOVFF  06,FE0
000B4:  MOVFF  05,FD8
000B8:  RETFIE 0
000BA:  MOVWF  17
000BC:  MOVFF  FD8,18
000C0:  MOVFF  FE0,19
000C4:  MOVLB  0
000C6:  MOVFF  FE9,1F
000CA:  MOVFF  FEA,1A
000CE:  MOVFF  FE1,1B
000D2:  MOVFF  FE2,1C
000D6:  MOVFF  FD9,1D
000DA:  MOVFF  FDA,1E
000DE:  MOVFF  FF3,25
000E2:  MOVFF  FF4,26
000E6:  MOVFF  FFA,27
000EA:  MOVFF  FFB,28
000EE:  MOVFF  00,21
000F2:  MOVFF  01,22
000F6:  MOVFF  02,23
000FA:  MOVFF  03,24
000FE:  BTFSS  F9D.5
00100:  GOTO   010A
00104:  BTFSC  F9E.5
00106:  GOTO   0150
0010A:  MOVFF  21,00
0010E:  MOVFF  22,01
00112:  MOVFF  23,02
00116:  MOVFF  24,03
0011A:  MOVFF  1F,FE9
0011E:  MOVFF  1A,FEA
00122:  BSF    1A.7
00124:  MOVFF  1B,FE1
00128:  MOVFF  1C,FE2
0012C:  MOVFF  1D,FD9
00130:  MOVFF  1E,FDA
00134:  MOVFF  25,FF3
00138:  MOVFF  26,FF4
0013C:  MOVFF  27,FFA
00140:  MOVFF  28,FFB
00144:  MOVF   17,W
00146:  MOVFF  19,FE0
0014A:  MOVFF  18,FD8
0014E:  RETFIE 0
.................... //Falta crear menu de ajuste de variables y de norma CFR21 
....................  
.................... #include <18F4685.h> 
.................... //////// Standard Header file for the PIC18F4685 device //////////////// 
.................... #device PIC18F4685 
.................... #list 
....................  
.................... #device adc=10 
.................... #device HIGH_INTS=TRUE //Activamos niveles de prioridad 
.................... #fuses HS,WDT8192,NOPROTECT,NOLVP,NODEBUG,NOSTVREN,NOPUT,NOCPD,NOWRT,NOIESO,NOFCMEN,NOPBADEN,NOWRTC,NOWRTB,NOEBTR,NOEBTRB,NOCPB,NOXINST,NOLPT1OSC,NOMCLR 
.................... #use delay(clock=20000000) 
*
01BD4:  MOVLW  04
01BD6:  MOVWF  FEA
01BD8:  MOVLW  01
01BDA:  MOVWF  FE9
01BDC:  MOVF   FEF,W
01BDE:  BZ    1BFA
01BE0:  MOVLW  06
01BE2:  MOVWF  01
01BE4:  CLRF   00
01BE6:  DECFSZ 00,F
01BE8:  BRA    1BE6
01BEA:  DECFSZ 01,F
01BEC:  BRA    1BE4
01BEE:  MOVLW  7B
01BF0:  MOVWF  00
01BF2:  DECFSZ 00,F
01BF4:  BRA    1BF2
01BF6:  DECFSZ FEF,F
01BF8:  BRA    1BE0
01BFA:  RETLW  00
.................... #use i2c(Master,slow,sda=PIN_C4,scl=PIN_C3) 
*
03D92:  MOVLW  08
03D94:  MOVWF  01
03D96:  MOVLW  05
03D98:  MOVWF  00
03D9A:  DECFSZ 00,F
03D9C:  BRA    3D9A
03D9E:  BCF    F8B.3
03DA0:  BCF    F94.3
03DA2:  MOVLW  06
03DA4:  MOVWF  00
03DA6:  DECFSZ 00,F
03DA8:  BRA    3DA6
03DAA:  MOVLB  4
03DAC:  RLCF   x05,F
03DAE:  BCF    F8B.4
03DB0:  BTFSC  FD8.0
03DB2:  BSF    F94.4
03DB4:  BTFSS  FD8.0
03DB6:  BCF    F94.4
03DB8:  BSF    F94.3
03DBA:  BTFSS  F82.3
03DBC:  BRA    3DBA
03DBE:  DECFSZ 01,F
03DC0:  BRA    3DC4
03DC2:  BRA    3DC8
03DC4:  MOVLB  0
03DC6:  BRA    3D96
03DC8:  MOVLW  05
03DCA:  MOVWF  00
03DCC:  DECFSZ 00,F
03DCE:  BRA    3DCC
03DD0:  BCF    F8B.3
03DD2:  BCF    F94.3
03DD4:  NOP   
03DD6:  BSF    F94.4
03DD8:  MOVLW  06
03DDA:  MOVWF  00
03DDC:  DECFSZ 00,F
03DDE:  BRA    3DDC
03DE0:  MOVLW  06
03DE2:  MOVWF  00
03DE4:  DECFSZ 00,F
03DE6:  BRA    3DE4
03DE8:  BSF    F94.3
03DEA:  BTFSS  F82.3
03DEC:  BRA    3DEA
03DEE:  CLRF   01
03DF0:  MOVLW  06
03DF2:  MOVWF  00
03DF4:  DECFSZ 00,F
03DF6:  BRA    3DF4
03DF8:  BTFSC  F82.4
03DFA:  BSF    01.0
03DFC:  BCF    F8B.3
03DFE:  BCF    F94.3
03E00:  BCF    F8B.4
03E02:  BCF    F94.4
03E04:  MOVLB  0
03E06:  RETLW  00
*
03EA2:  MOVLW  08
03EA4:  MOVLB  3
03EA6:  MOVWF  xFA
03EA8:  MOVFF  00,3FB
03EAC:  BSF    F94.4
03EAE:  MOVLW  06
03EB0:  MOVWF  00
03EB2:  DECFSZ 00,F
03EB4:  BRA    3EB2
03EB6:  BSF    F94.3
03EB8:  BTFSS  F82.3
03EBA:  BRA    3EB8
03EBC:  BTFSC  F82.4
03EBE:  BSF    FD8.0
03EC0:  BTFSS  F82.4
03EC2:  BCF    FD8.0
03EC4:  RLCF   01,F
03EC6:  MOVLW  05
03EC8:  MOVWF  00
03ECA:  DECFSZ 00,F
03ECC:  BRA    3ECA
03ECE:  BCF    F94.3
03ED0:  BCF    F8B.3
03ED2:  DECFSZ xFA,F
03ED4:  BRA    3EAC
03ED6:  BSF    F94.4
03ED8:  MOVLW  06
03EDA:  MOVWF  00
03EDC:  DECFSZ 00,F
03EDE:  BRA    3EDC
03EE0:  BCF    F8B.4
03EE2:  MOVF   xFB,W
03EE4:  BTFSS  FD8.2
03EE6:  BCF    F94.4
03EE8:  NOP   
03EEA:  BSF    F94.3
03EEC:  BTFSS  F82.3
03EEE:  BRA    3EEC
03EF0:  MOVLW  05
03EF2:  MOVWF  00
03EF4:  DECFSZ 00,F
03EF6:  BRA    3EF4
03EF8:  BCF    F8B.3
03EFA:  BCF    F94.3
03EFC:  MOVLW  06
03EFE:  MOVWF  00
03F00:  DECFSZ 00,F
03F02:  BRA    3F00
03F04:  BCF    F8B.4
03F06:  BCF    F94.4
03F08:  MOVLB  0
03F0A:  GOTO   3F96 (RETURN)
.................... #use rs232(baud=9600, xmit=PIN_C6, rcv=PIN_C7, bits=8, parity=N) 
*
03422:  BTFSS  F9E.4
03424:  BRA    3422
03426:  MOVWF  FAD
03428:  RETLW  00
.................... //#include "HDM64GS12.c" 
.................... //#include "GRAPHICS.c" 
.................... ///#include "imagen.h" 
.................... #include <stdio.h> 
.................... /////////////////////////////////////////////////////////////////////////// 
.................... ////        (C) Copyright 1996,2003 Custom Computer Services           //// 
.................... //// This source code may only be used by licensed users of the CCS C  //// 
.................... //// compiler.  This source code may only be distributed to other      //// 
.................... //// licensed users of the CCS C compiler.  No other use, reproduction //// 
.................... //// or distribution is permitted without written permission.          //// 
.................... //// Derivative programs created using this software in object code    //// 
.................... //// form are not restricted in any way.                               //// 
.................... /////////////////////////////////////////////////////////////////////////// 
....................  
.................... #ifndef _STDIO 
.................... #define _STDIO 
.................... #include <string.h> 
.................... //////////////////////////////////////////////////////////////////////////// 
.................... ////        (C) Copyright 1996,2008 Custom Computer Services            //// 
.................... //// This source code may only be used by licensed users of the CCS C   //// 
.................... //// compiler.  This source code may only be distributed to other       //// 
.................... //// licensed users of the CCS C compiler.  No other use, reproduction  //// 
.................... //// or distribution is permitted without written permission.           //// 
.................... //// Derivative programs created using this software in object code     //// 
.................... //// form are not restricted in any way.                                //// 
.................... //////////////////////////////////////////////////////////////////////////// 
....................  
.................... #ifndef _STRING 
.................... #define _STRING 
.................... #include <stddef.h> 
.................... /////////////////////////////////////////////////////////////////////////// 
.................... ////        (C) Copyright 1996,2003 Custom Computer Services           //// 
.................... //// This source code may only be used by licensed users of the CCS C  //// 
.................... //// compiler.  This source code may only be distributed to other      //// 
.................... //// licensed users of the CCS C compiler.  No other use, reproduction //// 
.................... //// or distribution is permitted without written permission.          //// 
.................... //// Derivative programs created using this software in object code    //// 
.................... //// form are not restricted in any way.                               //// 
.................... /////////////////////////////////////////////////////////////////////////// 
....................  
.................... #ifndef _STDDEF 
....................  
.................... #define _STDDEF 
....................  
.................... #if sizeof(unsigned int8 *)==1 
.................... #define ptrdiff_t unsigned int8 
.................... #else 
.................... #define ptrdiff_t unsigned int16 
.................... #endif 
....................  
.................... #define size_t unsigned int8 
.................... #define wchar_t char 
.................... #define NULL 0 
....................  
.................... #define offsetof(s,f) (offsetofbit(s,f)/8) 
....................  
.................... #endif 
....................  
.................... #include <ctype.h> 
.................... //////////////////////////////////////////////////////////////////////////// 
.................... ////        (C) Copyright 1996,2003 Custom Computer Services            //// 
.................... //// This source code may only be used by licensed users of the CCS C   //// 
.................... //// compiler.  This source code may only be distributed to other       //// 
.................... //// licensed users of the CCS C compiler.  No other use, reproduction  //// 
.................... //// or distribution is permitted without written permission.           //// 
.................... //// Derivative programs created using this software in object code     //// 
.................... //// form are not restricted in any way.                                //// 
.................... //////////////////////////////////////////////////////////////////////////// 
....................  
.................... #ifndef _CTYPE 
.................... #define _CTYPE 
....................  
.................... #define islower(x)  isamong(x,"abcdefghijklmnopqrstuvwxyz") 
.................... #define isupper(x)  isamong(x,"ABCDEFGHIJKLMNOPQRSTUVWXYZ") 
.................... #define isalnum(x)  isamong(x,"0123456789ABCDEFGHIJKLMNOPQRSTUVWXYZabcdefghijklmnopqrstuvwxyz") 
.................... #define isalpha(x)  isamong(x,"ABCDEFGHIJKLMNOPQRSTUVWXYZabcdefghijklmnopqrstuvwxyz") 
.................... #define isdigit(x)  isamong(x,"0123456789") 
.................... #define isspace(x)  ((x)==' ') 
.................... #define isxdigit(x) isamong(x,"0123456789ABCDEFabcdef") 
.................... #define iscntrl(x)  ((x)<' ') 
.................... #define isprint(x)  ((x)>=' ') 
.................... #define isgraph(x)  ((x)>' ') 
.................... #define ispunct(x)  (((x)>' ')&&!isalnum(x)) 
....................  
.................... #endif 
....................  
....................  
....................  
....................  
....................  
.................... ////////////////////////////////////////////// 
.................... //// Uncomment the following define to    //// 
.................... //// allow some functions to use a        //// 
.................... //// quicker algorithm, but use more ROM  //// 
.................... ////                                      //// 
.................... //// #define FASTER_BUT_MORE_ROM          //// 
.................... ////////////////////////////////////////////// 
....................  
....................  
....................  
.................... /*Copying functions*/ 
.................... /* standard template: 
....................    void *memmove(void *s1, void *s2, size_t n). 
....................    Copies max of n characters safely (not following ending '\0') 
....................    from s2 in s1; if s2 has less than n characters, appends 0 */ 
....................  
.................... char *memmove(void *s1,char *s2,size_t n) 
.................... { 
....................    char *sc1; 
....................    char *sc2; 
....................    sc1=s1; 
....................    sc2=s2; 
....................    if(sc2<sc1 && sc1 <sc2 +n) 
....................       for(sc1+=n,sc2+=n;0<n;--n) 
....................          *--sc1=*--sc2; 
....................    else 
....................       for(;0<n;--n) 
....................          *sc1++=*sc2++; 
....................   return s1; 
....................   } 
....................  
.................... /* Standard template: char *strcpy(char *s1, const char *s2) 
....................    copies the string s2 including the null character to s1. 
....................    This is a compiler built in to handle the different address 
....................    spaces */ 
....................  
.................... #define strcopy strcpy 
....................  
.................... /* standard template: 
....................    char *strncpy(char *s1, const char *s2, size_t n). 
....................    Copies max of n characters (not following ending '\0') 
....................    from s2 in s1; if s2 has less than n characters, appends 0 */ 
....................  
.................... char *strncpy(char *s1, char *s2, size_t n) 
.................... { 
....................   char *s; 
....................  
....................   for (s = s1; n > 0 && *s2 != '\0'; n--) 
....................      *s++ = *s2++; 
....................   for (; n > 0; n--) 
....................      *s++ = '\0'; 
....................  
....................   return(s1); 
.................... } 
.................... /***********************************************************/ 
....................  
.................... /*concatenation functions*/ 
.................... /* standard template: char *strcat(char *s1, const char *s2) 
.................... appends s2 to s1*/ 
....................  
.................... char *strcat(char *s1, char *s2) 
.................... { 
....................    char *s; 
....................  
....................    for (s = s1; *s != '\0'; ++s); 
....................    while(*s2 != '\0') 
....................    { 
....................       *s = *s2; 
....................       ++s; 
....................       ++s2; 
....................    } 
....................  
....................    *s = '\0'; 
....................    return(s1); 
.................... } 
.................... /* standard template: char *strncat(char *s1, char *s2,size_t n) 
.................... appends not more than n characters from s2 to s1*/ 
....................  
.................... char *strncat(char *s1, char *s2, size_t n) 
.................... { 
....................    char *s; 
....................  
....................    for (s = s1; *s != '\0'; ++s); 
....................    while(*s2 != '\0' && 0<n) 
....................    { 
....................       *s = *s2; 
....................       ++s; 
....................       ++s2; 
....................       --n; 
....................    } 
....................  
....................    *s = '\0'; 
....................    return(s1); 
.................... } 
....................  
.................... /***********************************************************/ 
....................  
....................  
.................... /*comparison functions*/ 
.................... /* standard template: signed int memcmp(void *s1, void *s2). 
....................    Compares s1 & s2; returns -1 if s1<s2, 0 if s1=s2, 1 if s1>s2 */ 
....................  
.................... signed int8 memcmp(void * s1,char *s2,size_t n) 
.................... { 
.................... char *su1, *su2; 
.................... for(su1=s1, su2=s2; 0<n; ++su1, ++su2, --n) 
.................... { 
....................    if(*su1!=*su2) 
....................       return ((*su1<*su2)?-1:+1); 
.................... } 
.................... return 0; 
.................... } 
....................  
.................... /* standard template: int strcmp(const char *s1, const char *s2). 
....................    Compares s1 & s2; returns -1 if s1<s2, 0 if s1=s2, 1 if s1>s2 */ 
....................  
.................... signed int8 strcmp(char *s1, char *s2) 
.................... { 
....................    for (; *s1 == *s2; s1++, s2++) 
....................       if (*s1 == '\0') 
....................          return(0); 
....................    return((*s1 < *s2) ? -1: 1); 
.................... } 
.................... /* standard template: int strcoll(const char *s1, const char *s2). 
....................    Compares s1 & s2; returns -1 if s1<s2, 0 if s1=s2, 1 if s1>s2 */ 
....................  
.................... signed int8 strcoll(char *s1, char *s2) 
.................... { 
....................    for (; *s1 == *s2; s1++, s2++) 
....................       if (*s1 == '\0') 
....................          return(0); 
....................    return((*s1 < *s2) ? -1: 1); 
.................... } 
....................  
.................... /* standard template: 
....................    int strncmp(const char *s1, const char *s2, size_t n). 
....................    Compares max of n characters (not following 0) from s1 to s2; 
....................    returns same as strcmp */ 
....................  
.................... signed int8 strncmp(char *s1, char *s2, size_t n) 
.................... { 
....................    for (; n > 0; s1++, s2++, n--) 
....................       if (*s1 != *s2) 
....................          return((*s1 <*s2) ? -1: 1); 
....................       else if (*s1 == '\0') 
....................          return(0); 
....................    return(0); 
.................... } 
.................... /* standard template: 
....................    int strxfrm(const char *s1, const char *s2, size_t n). 
....................    transforms maximum of n characters from s2 and places them into s1*/ 
.................... size_t strxfrm(char *s1, char *s2, size_t n) 
.................... { 
....................   char *s; 
....................   unsigned int8 n1; 
....................   n1=n; 
....................   for (s = s1; n > 0 && *s2 != '\0'; n--) 
....................      *s++ = *s2++; 
....................   for (; n > 0; n--) 
....................      *s++ = '\0'; 
....................  
....................   return(n1); 
.................... } 
....................  
....................  
....................  
....................  
....................  
.................... /***********************************************************/ 
.................... /*Search functions*/ 
.................... /* standard template: void *memchr(const char *s, int c). 
....................    Finds first occurrence of c in n characters of s */ 
....................  
.................... char *memchr(void *s,unsigned int8 c,size_t n) 
.................... { 
....................    char uc; 
....................    char *su; 
....................    uc=c; 
....................    for(su=s;0<n;++su,--n) 
....................       if(*su==uc) 
....................       return su; 
....................    return NULL; 
.................... } 
....................  
.................... /* standard template: char *strchr(const char *s, int c). 
....................    Finds first occurrence of c in s */ 
....................  
.................... char *strchr(char *s, unsigned int8 c) 
.................... { 
....................    for (; *s != c; s++) 
....................       if (*s == '\0') 
....................          return(0); 
....................    return(s); 
.................... } 
.................... /* standard template: 
....................    size_t strcspn(const char *s1, const char *s2). 
....................    Computes length of max initial segment of s1 that 
....................    consists entirely of characters NOT from s2*/ 
....................  
.................... unsigned int8  strcspn(char *s1, char *s2) 
.................... { 
....................    char *sc1, *sc2; 
....................  
....................    for (sc1 = s1; *sc1 != 0; sc1++) 
....................       for (sc2 = s2; *sc2 != 0; sc2++) 
....................          if (*sc1 == *sc2) 
....................             return(sc1 - s1); 
....................    return(sc1 - s1); 
.................... } 
.................... /* standard template: 
....................    char *strpbrk(const char *s1, const char *s2). 
....................    Locates first occurence of any character from s2 in s1; 
....................    returns s1 if s2 is empty string */ 
....................  
.................... char *strpbrk(char *s1, char *s2) 
.................... { 
....................    char *sc1, *sc2; 
....................  
....................    for (sc1 = s1; *sc1 != 0; sc1++) 
....................       for (sc2 = s2; *sc2 != 0; sc2++) 
....................          if (*sc1 == *sc2) 
....................             return(sc1); 
....................    return(0); 
.................... } 
....................  
....................  
.................... /* standard template: char *strrchr(const char *s, int c). 
....................    Finds last occurrence of c in s */ 
....................  
.................... char *strrchr(char *s, unsigned int8 c) 
.................... { 
....................    char *p; 
....................  
....................    for (p = 0; ; s++) 
....................    { 
....................       if (*s == c) 
....................          p = s; 
....................       if (*s == '\0') 
....................          return(p); 
....................    } 
.................... } 
.................... /* computes length of max initial segment of s1 consisting 
....................    entirely of characters from s2 */ 
....................  
.................... unsigned int8  strspn(char *s1, char *s2) 
.................... { 
....................    char *sc1, *sc2; 
....................  
....................    for (sc1 = s1; *sc1 != 0; sc1++) 
....................       for (sc2 = s2; ; sc2++) 
....................     if (*sc2 == '\0') 
....................        return(sc1 - s1); 
....................          else if (*sc1 == *sc2) 
....................             break; 
....................    return(sc1 - s1); 
.................... } 
.................... /* standard template: 
....................    char *strstr(const char *s1, const char *s2); 
....................    Locates first occurence of character sequence s2 in s1; 
....................    returns 0 if s2 is empty string 
....................  
....................    Uncomment #define FASTER_BUT_MORE_ROM at the top of the 
....................    file to use the faster algorithm */ 
.................... char *strstr(char *s1, char *s2) 
.................... { 
....................    char *s, *t; 
....................  
....................    #ifdef FASTER_BUT_MORE_ROM 
....................    if (*s2 == '\0') 
....................          return(s1); 
....................    #endif 
....................  
....................    while (*s1) 
....................    { 
....................       for(s = s1, t = s2; *t && (*s == *t); ++s, ++t); 
....................  
....................       if (*t == '\0') 
....................          return s1; 
....................       ++s1; 
....................       #ifdef FASTER_BUT_MORE_ROM 
....................          while(*s1 != '\0' && *s1 != *s2) 
....................             ++s1; 
....................       #endif 
....................    } 
....................    return 0; 
.................... } 
....................  
.................... /* standard template: char *strtok(char *s1, const char *s2). 
....................  
....................    Finds next token in s1 delimited by a character from separator 
....................    string s2 (which can be different from call to call).  First call 
....................    starts at beginning of s1 searching for first character NOT 
....................    contained in s2; returns 0 if none is found. 
....................    If one is found, it is the start of first token (return value). 
....................    Function then searches from there for a character contained in s2. 
....................    If none is found, current token extends to end of s1, and subsequent 
....................    searches for a token will return 0.  If one is found, it is 
....................    overwritten by '\0', which terminates current token.  Function saves 
....................    pointer to following character from which next search will start. 
....................    Each subsequent call, with 0 as first argument, starts searching 
....................    from saved pointer */ 
....................  
.................... char *strtok(char *s1, char *s2) 
.................... { 
....................    char *beg, *end; 
....................    static char *save; 
....................  
....................    beg = (s1)? s1: save; 
....................    beg += strspn(beg, s2); 
....................    if (*beg == '\0') 
....................    { 
....................       *save = ' '; 
....................       return(0); 
....................    } 
....................    end = strpbrk(beg, s2); 
....................    if (*end != '\0') 
....................    { 
....................       *end = '\0'; 
....................       end++; 
....................    } 
....................    save = end; 
....................    return(beg); 
.................... } 
....................  
.................... /*****************************************************************/ 
.................... /*Miscellaneous functions*/ 
.................... /* standard template 
.................... maps error number in errnum to an error message string 
.................... Returns: Pointer to string 
.................... */ 
.................... #ifdef _ERRNO 
.................... char * strerror(unsigned int8 errnum) 
.................... { 
.................... char s[15]; 
.................... switch( errnum) 
.................... { 
.................... case 0: 
....................    strcpy(s,"no errors"); 
....................    return s; 
.................... case EDOM : 
....................    strcpy(s,"domain error"); 
....................    return s; 
.................... case ERANGE: 
....................    strcpy(s,"range error"); 
....................    return s; 
.................... } 
.................... } 
.................... #ENDIF 
.................... /* standard template: size_t strlen(const char *s). 
....................    Computes length of s1 (preceding terminating 0) */ 
....................  
.................... unsigned int8 strlen(char *s) 
.................... { 
....................    char *sc; 
....................  
....................    for (sc = s; *sc != 0; sc++); 
....................    return(sc - s); 
.................... } 
....................  
.................... /* standard template: size_t stricmp(const char *s1, const char *s2). 
....................    Compares s1 to s2 ignoring case (upper vs. lower) */ 
....................  
.................... signed int8 stricmp(char *s1, char *s2) 
.................... { 
....................  for(; *s1==*s2||(isalpha(*s1)&&isalpha(*s2)&&(*s1==*s2+32||*s2==*s1+32)); 
....................     s1++, s2++) 
....................     if (*s1 == '\0') 
....................        return(0); 
....................  return((*s1 < *s2) ? -1: 1); 
.................... } 
....................  
....................  
.................... /* standard template: char *strlwr(char *s). 
....................    Replaces uppercase letters by lowercase; 
....................    returns pointer to new string s */ 
....................  
.................... char *strlwr(char *s) 
.................... { 
....................    char *p; 
....................  
....................    for (p = s; *p != '\0'; p++) 
....................       if (*p >= 'A' && *p <='Z') 
....................          *p += 'a' - 'A'; 
....................    return(s); 
.................... } 
....................  
....................  
.................... /************************************************************/ 
....................  
....................  
.................... #endif 
....................  
.................... #ifndef getc 
.................... #define getc getch 
.................... #define getchar getch 
.................... #define puts(s) {printf(s); putchar(13); putchar(10);} 
.................... #define putc putchar 
.................... #endif 
.................... /* maps error number to an error message. Writes a sequence of characters to 
.................... stderr stream thus: if s is not null then string pointed to by s follwed by 
.................... a colon (:) and a space and the appropriate error message returned by strerror 
.................... function with argument errno 
....................  
.................... Returns: no value 
.................... */ 
....................  
.................... #ifdef _ERRNO 
.................... void perror(char *s) 
.................... { 
....................   if(s) 
....................   fprintf(STDERR,"%s: ",s); 
....................   fprintf(STDERR,"%s\r\n",strerror(errno)); 
.................... } 
.................... #endif 
.................... #endif 
....................  
.................... #include <string.h> 
.................... //////////////////////////////////////////////////////////////////////////// 
.................... ////        (C) Copyright 1996,2008 Custom Computer Services            //// 
.................... //// This source code may only be used by licensed users of the CCS C   //// 
.................... //// compiler.  This source code may only be distributed to other       //// 
.................... //// licensed users of the CCS C compiler.  No other use, reproduction  //// 
.................... //// or distribution is permitted without written permission.           //// 
.................... //// Derivative programs created using this software in object code     //// 
.................... //// form are not restricted in any way.                                //// 
.................... //////////////////////////////////////////////////////////////////////////// 
....................  
.................... #ifndef _STRING 
.................... #define _STRING 
.................... #include <stddef.h> 
.................... #include <ctype.h> 
....................  
....................  
....................  
.................... ////////////////////////////////////////////// 
.................... //// Uncomment the following define to    //// 
.................... //// allow some functions to use a        //// 
.................... //// quicker algorithm, but use more ROM  //// 
.................... ////                                      //// 
.................... //// #define FASTER_BUT_MORE_ROM          //// 
.................... ////////////////////////////////////////////// 
....................  
....................  
....................  
.................... /*Copying functions*/ 
.................... /* standard template: 
....................    void *memmove(void *s1, void *s2, size_t n). 
....................    Copies max of n characters safely (not following ending '\0') 
....................    from s2 in s1; if s2 has less than n characters, appends 0 */ 
....................  
.................... char *memmove(void *s1,char *s2,size_t n) 
.................... { 
....................    char *sc1; 
....................    char *sc2; 
....................    sc1=s1; 
....................    sc2=s2; 
....................    if(sc2<sc1 && sc1 <sc2 +n) 
....................       for(sc1+=n,sc2+=n;0<n;--n) 
....................          *--sc1=*--sc2; 
....................    else 
....................       for(;0<n;--n) 
....................          *sc1++=*sc2++; 
....................   return s1; 
....................   } 
....................  
.................... /* Standard template: char *strcpy(char *s1, const char *s2) 
....................    copies the string s2 including the null character to s1. 
....................    This is a compiler built in to handle the different address 
....................    spaces */ 
....................  
.................... #define strcopy strcpy 
....................  
.................... /* standard template: 
....................    char *strncpy(char *s1, const char *s2, size_t n). 
....................    Copies max of n characters (not following ending '\0') 
....................    from s2 in s1; if s2 has less than n characters, appends 0 */ 
....................  
.................... char *strncpy(char *s1, char *s2, size_t n) 
.................... { 
....................   char *s; 
....................  
....................   for (s = s1; n > 0 && *s2 != '\0'; n--) 
....................      *s++ = *s2++; 
....................   for (; n > 0; n--) 
....................      *s++ = '\0'; 
....................  
....................   return(s1); 
.................... } 
.................... /***********************************************************/ 
....................  
.................... /*concatenation functions*/ 
.................... /* standard template: char *strcat(char *s1, const char *s2) 
.................... appends s2 to s1*/ 
....................  
.................... char *strcat(char *s1, char *s2) 
.................... { 
....................    char *s; 
....................  
....................    for (s = s1; *s != '\0'; ++s); 
....................    while(*s2 != '\0') 
....................    { 
....................       *s = *s2; 
....................       ++s; 
....................       ++s2; 
....................    } 
....................  
....................    *s = '\0'; 
....................    return(s1); 
.................... } 
.................... /* standard template: char *strncat(char *s1, char *s2,size_t n) 
.................... appends not more than n characters from s2 to s1*/ 
....................  
.................... char *strncat(char *s1, char *s2, size_t n) 
.................... { 
....................    char *s; 
....................  
....................    for (s = s1; *s != '\0'; ++s); 
....................    while(*s2 != '\0' && 0<n) 
....................    { 
....................       *s = *s2; 
....................       ++s; 
....................       ++s2; 
....................       --n; 
....................    } 
....................  
....................    *s = '\0'; 
....................    return(s1); 
.................... } 
....................  
.................... /***********************************************************/ 
....................  
....................  
.................... /*comparison functions*/ 
.................... /* standard template: signed int memcmp(void *s1, void *s2). 
....................    Compares s1 & s2; returns -1 if s1<s2, 0 if s1=s2, 1 if s1>s2 */ 
....................  
.................... signed int8 memcmp(void * s1,char *s2,size_t n) 
.................... { 
.................... char *su1, *su2; 
.................... for(su1=s1, su2=s2; 0<n; ++su1, ++su2, --n) 
.................... { 
....................    if(*su1!=*su2) 
....................       return ((*su1<*su2)?-1:+1); 
.................... } 
.................... return 0; 
.................... } 
....................  
.................... /* standard template: int strcmp(const char *s1, const char *s2). 
....................    Compares s1 & s2; returns -1 if s1<s2, 0 if s1=s2, 1 if s1>s2 */ 
....................  
.................... signed int8 strcmp(char *s1, char *s2) 
.................... { 
....................    for (; *s1 == *s2; s1++, s2++) 
....................       if (*s1 == '\0') 
....................          return(0); 
....................    return((*s1 < *s2) ? -1: 1); 
.................... } 
.................... /* standard template: int strcoll(const char *s1, const char *s2). 
....................    Compares s1 & s2; returns -1 if s1<s2, 0 if s1=s2, 1 if s1>s2 */ 
....................  
.................... signed int8 strcoll(char *s1, char *s2) 
.................... { 
....................    for (; *s1 == *s2; s1++, s2++) 
....................       if (*s1 == '\0') 
....................          return(0); 
....................    return((*s1 < *s2) ? -1: 1); 
.................... } 
....................  
.................... /* standard template: 
....................    int strncmp(const char *s1, const char *s2, size_t n). 
....................    Compares max of n characters (not following 0) from s1 to s2; 
....................    returns same as strcmp */ 
....................  
.................... signed int8 strncmp(char *s1, char *s2, size_t n) 
.................... { 
....................    for (; n > 0; s1++, s2++, n--) 
....................       if (*s1 != *s2) 
....................          return((*s1 <*s2) ? -1: 1); 
....................       else if (*s1 == '\0') 
....................          return(0); 
....................    return(0); 
.................... } 
.................... /* standard template: 
....................    int strxfrm(const char *s1, const char *s2, size_t n). 
....................    transforms maximum of n characters from s2 and places them into s1*/ 
.................... size_t strxfrm(char *s1, char *s2, size_t n) 
.................... { 
....................   char *s; 
....................   unsigned int8 n1; 
....................   n1=n; 
....................   for (s = s1; n > 0 && *s2 != '\0'; n--) 
....................      *s++ = *s2++; 
....................   for (; n > 0; n--) 
....................      *s++ = '\0'; 
....................  
....................   return(n1); 
.................... } 
....................  
....................  
....................  
....................  
....................  
.................... /***********************************************************/ 
.................... /*Search functions*/ 
.................... /* standard template: void *memchr(const char *s, int c). 
....................    Finds first occurrence of c in n characters of s */ 
....................  
.................... char *memchr(void *s,unsigned int8 c,size_t n) 
.................... { 
....................    char uc; 
....................    char *su; 
....................    uc=c; 
....................    for(su=s;0<n;++su,--n) 
....................       if(*su==uc) 
....................       return su; 
....................    return NULL; 
.................... } 
....................  
.................... /* standard template: char *strchr(const char *s, int c). 
....................    Finds first occurrence of c in s */ 
....................  
.................... char *strchr(char *s, unsigned int8 c) 
.................... { 
....................    for (; *s != c; s++) 
....................       if (*s == '\0') 
....................          return(0); 
....................    return(s); 
.................... } 
.................... /* standard template: 
....................    size_t strcspn(const char *s1, const char *s2). 
....................    Computes length of max initial segment of s1 that 
....................    consists entirely of characters NOT from s2*/ 
....................  
.................... unsigned int8  strcspn(char *s1, char *s2) 
.................... { 
....................    char *sc1, *sc2; 
....................  
....................    for (sc1 = s1; *sc1 != 0; sc1++) 
....................       for (sc2 = s2; *sc2 != 0; sc2++) 
....................          if (*sc1 == *sc2) 
....................             return(sc1 - s1); 
....................    return(sc1 - s1); 
.................... } 
.................... /* standard template: 
....................    char *strpbrk(const char *s1, const char *s2). 
....................    Locates first occurence of any character from s2 in s1; 
....................    returns s1 if s2 is empty string */ 
....................  
.................... char *strpbrk(char *s1, char *s2) 
.................... { 
....................    char *sc1, *sc2; 
....................  
....................    for (sc1 = s1; *sc1 != 0; sc1++) 
....................       for (sc2 = s2; *sc2 != 0; sc2++) 
....................          if (*sc1 == *sc2) 
....................             return(sc1); 
....................    return(0); 
.................... } 
....................  
....................  
.................... /* standard template: char *strrchr(const char *s, int c). 
....................    Finds last occurrence of c in s */ 
....................  
.................... char *strrchr(char *s, unsigned int8 c) 
.................... { 
....................    char *p; 
....................  
....................    for (p = 0; ; s++) 
....................    { 
....................       if (*s == c) 
....................          p = s; 
....................       if (*s == '\0') 
....................          return(p); 
....................    } 
.................... } 
.................... /* computes length of max initial segment of s1 consisting 
....................    entirely of characters from s2 */ 
....................  
.................... unsigned int8  strspn(char *s1, char *s2) 
.................... { 
....................    char *sc1, *sc2; 
....................  
....................    for (sc1 = s1; *sc1 != 0; sc1++) 
....................       for (sc2 = s2; ; sc2++) 
....................     if (*sc2 == '\0') 
....................        return(sc1 - s1); 
....................          else if (*sc1 == *sc2) 
....................             break; 
....................    return(sc1 - s1); 
.................... } 
.................... /* standard template: 
....................    char *strstr(const char *s1, const char *s2); 
....................    Locates first occurence of character sequence s2 in s1; 
....................    returns 0 if s2 is empty string 
....................  
....................    Uncomment #define FASTER_BUT_MORE_ROM at the top of the 
....................    file to use the faster algorithm */ 
.................... char *strstr(char *s1, char *s2) 
.................... { 
....................    char *s, *t; 
....................  
....................    #ifdef FASTER_BUT_MORE_ROM 
....................    if (*s2 == '\0') 
....................          return(s1); 
....................    #endif 
....................  
....................    while (*s1) 
....................    { 
....................       for(s = s1, t = s2; *t && (*s == *t); ++s, ++t); 
....................  
....................       if (*t == '\0') 
....................          return s1; 
....................       ++s1; 
....................       #ifdef FASTER_BUT_MORE_ROM 
....................          while(*s1 != '\0' && *s1 != *s2) 
....................             ++s1; 
....................       #endif 
....................    } 
....................    return 0; 
.................... } 
....................  
.................... /* standard template: char *strtok(char *s1, const char *s2). 
....................  
....................    Finds next token in s1 delimited by a character from separator 
....................    string s2 (which can be different from call to call).  First call 
....................    starts at beginning of s1 searching for first character NOT 
....................    contained in s2; returns 0 if none is found. 
....................    If one is found, it is the start of first token (return value). 
....................    Function then searches from there for a character contained in s2. 
....................    If none is found, current token extends to end of s1, and subsequent 
....................    searches for a token will return 0.  If one is found, it is 
....................    overwritten by '\0', which terminates current token.  Function saves 
....................    pointer to following character from which next search will start. 
....................    Each subsequent call, with 0 as first argument, starts searching 
....................    from saved pointer */ 
....................  
.................... char *strtok(char *s1, char *s2) 
.................... { 
....................    char *beg, *end; 
....................    static char *save; 
....................  
....................    beg = (s1)? s1: save; 
....................    beg += strspn(beg, s2); 
....................    if (*beg == '\0') 
....................    { 
....................       *save = ' '; 
....................       return(0); 
....................    } 
....................    end = strpbrk(beg, s2); 
....................    if (*end != '\0') 
....................    { 
....................       *end = '\0'; 
....................       end++; 
....................    } 
....................    save = end; 
....................    return(beg); 
.................... } 
....................  
.................... /*****************************************************************/ 
.................... /*Miscellaneous functions*/ 
.................... /* standard template 
.................... maps error number in errnum to an error message string 
.................... Returns: Pointer to string 
.................... */ 
.................... #ifdef _ERRNO 
.................... char * strerror(unsigned int8 errnum) 
.................... { 
.................... char s[15]; 
.................... switch( errnum) 
.................... { 
.................... case 0: 
....................    strcpy(s,"no errors"); 
....................    return s; 
.................... case EDOM : 
....................    strcpy(s,"domain error"); 
....................    return s; 
.................... case ERANGE: 
....................    strcpy(s,"range error"); 
....................    return s; 
.................... } 
.................... } 
.................... #ENDIF 
.................... /* standard template: size_t strlen(const char *s). 
....................    Computes length of s1 (preceding terminating 0) */ 
....................  
.................... unsigned int8 strlen(char *s) 
.................... { 
....................    char *sc; 
....................  
....................    for (sc = s; *sc != 0; sc++); 
....................    return(sc - s); 
.................... } 
....................  
.................... /* standard template: size_t stricmp(const char *s1, const char *s2). 
....................    Compares s1 to s2 ignoring case (upper vs. lower) */ 
....................  
.................... signed int8 stricmp(char *s1, char *s2) 
.................... { 
....................  for(; *s1==*s2||(isalpha(*s1)&&isalpha(*s2)&&(*s1==*s2+32||*s2==*s1+32)); 
....................     s1++, s2++) 
....................     if (*s1 == '\0') 
....................        return(0); 
....................  return((*s1 < *s2) ? -1: 1); 
.................... } 
....................  
....................  
.................... /* standard template: char *strlwr(char *s). 
....................    Replaces uppercase letters by lowercase; 
....................    returns pointer to new string s */ 
....................  
.................... char *strlwr(char *s) 
.................... { 
....................    char *p; 
....................  
....................    for (p = s; *p != '\0'; p++) 
....................       if (*p >= 'A' && *p <='Z') 
....................          *p += 'a' - 'A'; 
....................    return(s); 
.................... } 
....................  
....................  
.................... /************************************************************/ 
....................  
....................  
.................... #endif 
....................  
.................... #include <stdlib.h> 
.................... /////////////////////////////////////////////////////////////////////////// 
.................... ////        (C) Copyright 1996,2007 Custom Computer Services           //// 
.................... //// This source code may only be used by licensed users of the CCS C  //// 
.................... //// compiler.  This source code may only be distributed to other      //// 
.................... //// licensed users of the CCS C compiler.  No other use, reproduction //// 
.................... //// or distribution is permitted without written permission.          //// 
.................... //// Derivative programs created using this software in object code    //// 
.................... //// form are not restricted in any way.                               //// 
.................... /////////////////////////////////////////////////////////////////////////// 
....................  
.................... #ifndef _STDLIB 
.................... #define _STDLIB 
....................  
.................... //--------------------------------------------------------------------------- 
.................... // Definitions and types 
.................... //--------------------------------------------------------------------------- 
....................  
.................... #ifndef RAND_MAX 
.................... #define RAND_MAX  32767    // The value of which is the maximum value 
....................                            // ... returned by the rand function 
.................... #endif 
....................  
....................  
.................... #IF (sizeof(int16*)>1) 
.................... #DEFINE LONG_POINTERS 1 
.................... #ELSE  
.................... #DEFINE LONG_POINTERS 0 
.................... #ENDIF 
....................  
.................... typedef struct { 
....................    signed int quot; 
....................    signed int rem; 
.................... } div_t; 
....................  
.................... typedef struct { 
....................    signed long quot; 
....................    signed long rem; 
.................... } ldiv_t; 
....................  
.................... #include <stddef.h> 
.................... /////////////////////////////////////////////////////////////////////////// 
.................... ////        (C) Copyright 1996,2003 Custom Computer Services           //// 
.................... //// This source code may only be used by licensed users of the CCS C  //// 
.................... //// compiler.  This source code may only be distributed to other      //// 
.................... //// licensed users of the CCS C compiler.  No other use, reproduction //// 
.................... //// or distribution is permitted without written permission.          //// 
.................... //// Derivative programs created using this software in object code    //// 
.................... //// form are not restricted in any way.                               //// 
.................... /////////////////////////////////////////////////////////////////////////// 
....................  
.................... #ifndef _STDDEF 
....................  
.................... #define _STDDEF 
....................  
.................... #if sizeof(unsigned int8 *)==1 
.................... #define ptrdiff_t unsigned int8 
.................... #else 
.................... #define ptrdiff_t unsigned int16 
.................... #endif 
....................  
.................... #define size_t unsigned int8 
.................... #define wchar_t char 
.................... #define NULL 0 
....................  
.................... #define offsetof(s,f) (offsetofbit(s,f)/8) 
....................  
.................... #endif 
....................  
....................  
.................... //--------------------------------------------------------------------------- 
.................... // String conversion functions 
.................... //--------------------------------------------------------------------------- 
....................  
.................... /* Standard template: signed int  atoi(char * s) 
....................  * converts the initial portion of the string s to a signed int 
....................  * returns the converted value if any, 0 otherwise 
....................  */ 
.................... signed int atoi(char *s); 
....................  
.................... /* Syntax: signed int32  atoi32(char * s) 
....................    converts the initial portion of the string s to a signed int32 
....................    returns the converted value if any, 0 otherwise*/ 
.................... #if (sizeof(long)==4) 
....................  #define atoi32(s) atol(s) 
.................... #else  
....................  signed int32 atoi32(char *s); 
.................... #endif 
....................  
.................... #if defined(__PCD__) 
.................... // The following functions only work on the 24 bit compiler 
.................... // for the 30F, 33F, 24F and 24H parts 
.................... /* Syntax: signed int48  atoi48(char * s) 
....................    converts the initial portion of the string s to a signed int48 
....................    returns the converted value if any, 0 otherwise*/ 
....................     
.................... signed int48 atoi48(char *s); 
....................  
.................... /* Syntax: signed int64  atoi64(char * s) 
....................    converts the initial portion of the string s to a signed int64 
....................    returns the converted value if any, 0 otherwise*/ 
.................... signed int64 atoi64(char *s); 
.................... #endif 
....................  
.................... /* Syntax: char *  itoa(signed int32 num, int8 base, char * s) 
....................    converts the signed int32 to a string and 
....................    returns the converted value if any, 0 otherwise*/ 
.................... char * itoa(signed int32 num, unsigned int base, char * s); 
....................  
.................... /* Standard template: signed int16  atol(char * s) 
....................  * converts the initial portion of the string s to a signed int16 
....................  * returns the converted value if any, 0 otherwise 
....................  */ 
.................... signed long atol(char *s); 
....................  
.................... /* Standard template: int16 strtoul(char * s,char *endptr,signed int base) 
....................  * converts the initial portion of the string s, represented as an 
....................  * integral value of radix base  to a signed long. 
....................  * Returns the converted value if any, 0 otherwise 
....................  * the final string is returned in the endptr, if endptr is not null 
....................  */ 
.................... signed long strtol(char *s,char *endptr, signed int base); 
....................  
.................... /* Standard template: int16 strtoul(char * s,char *endptr,signed int base) 
....................  * converts the initial portion of the string s, represented as an 
....................  * integral value of radix base to a unsigned long. 
....................  * returns the converted value if any, 0 otherwise 
....................  * the final string is returned in the endptr, if endptr is not null 
....................  */ 
.................... unsigned long strtoul(char *s,char *endptr, signed int base); 
....................  
.................... /* Standart template: float strtof(char * s,char *endptr) 
....................                       float48 strtof48(char *s,char *endptr); 
....................                       float64 strtod(char *s,char *endptr); 
....................  * converts the initial portion of the string s to a float32, float48 or float64, 
....................  * returns the converted value if any, 0 otherwise 
....................  * the final string is returned in the endptr, if endptr is not null                    
.................... */ 
.................... float strtof(char *s,char *endptr); 
.................... #if defined(__PCD__) 
.................... float48 strtof48(char *s,char *endptr); 
.................... float64 strtod(char *s,char *endptr); 
.................... #else 
.................... //provided for compatibility 
.................... #define strtof48(s, e) strtof(s, e) 
.................... #define strtod(s, e) strtof(s, e) 
.................... #endif 
....................  
.................... /* Standard template: float32 atof(char * s) 
....................  * converts the initial portion of the string s to a float. 
....................  * returns the converted value if any, 0 otherwise 
....................  */ 
.................... #define atof(s)   strtof(s, 0) 
....................  
.................... #if defined(__PCD__) 
.................... // The following functions only work on the 24 bit compiler 
.................... // for the 30F, 33F, 24F and 24H parts 
....................  
.................... /* Standard template: float48 atof48(char * s) 
....................  * converts the initial portion of the string s to a float. 
....................  * returns the converted value if any, 0 otherwise 
....................  */ 
.................... #define atof48(s) strtof48(s, 0) 
....................  
.................... /* Standard template: float64 atof64(char * s) 
....................  * converts the initial portion of the string s to a float. 
....................  * returns the converted value if any, 0 otherwise 
....................  */ 
.................... #define atof64(s) strtod(s, 0) 
.................... #endif 
....................  
.................... /* Standard template: float32 atoe(char * s) 
....................  * converts the initial portion of the string s to a float. 
....................  * returns the converted value if any, 0 otherwise 
....................  * also handles E format numbers 
....................  */ 
.................... #if !defined(__PCD__) 
.................... float atoe(char * s); 
.................... #endif 
....................  
.................... #if defined(__PCD__) 
.................... float32 atoe(char * s); 
.................... #endif 
....................  
.................... //--------------------------------------------------------------------------- 
.................... // Pseudo-random sequence generation functions 
.................... //--------------------------------------------------------------------------- 
....................  
.................... /* The rand function computes a sequence of pseudo-random integers in 
....................  * the range 0 to RAND_MAX 
....................  * 
....................  * Parameters: 
....................  *       (none) 
....................  * 
....................  * Returns: 
....................  *       The pseudo-random integer 
....................  */ 
.................... unsigned int16 rand(void); 
....................  
.................... /* The srand function uses the argument as a seed for a new sequence of 
....................  * pseudo-random numbers to be returned by subsequent calls to rand. 
....................  * 
....................  * Parameters: 
....................  *       [in] seed: The seed value to start from. You might need to pass 
....................  * 
....................  * Returns: 
....................  *       (none) 
....................  * 
....................  * Remarks 
....................  *          The srand function sets the starting point for generating 
....................  *       a series of pseudorandom integers. To reinitialize the 
....................  *       generator, use 1 as the seed argument. Any other value for 
....................  *       seed sets the generator to a random starting point. rand 
....................  *       retrieves the pseudorandom numbers that are generated. 
....................  *       Calling rand before any call to srand generates the same 
....................  *       sequence as calling srand with seed passed as 1. 
....................  *          Usually, you need to pass a time here from outer source 
....................  *       so that the numbers will be different every time you run. 
....................  */ 
.................... void srand(unsigned int32 seed); 
....................  
.................... //--------------------------------------------------------------------------- 
.................... // Memory management functions 
.................... //--------------------------------------------------------------------------- 
....................  
.................... // Comming soon 
....................  
.................... //--------------------------------------------------------------------------- 
.................... // Communication with the environment 
.................... //--------------------------------------------------------------------------- 
....................  
.................... /* The function returns 0 always 
....................  */ 
.................... signed int8 system(char *string); 
....................  
.................... //--------------------------------------------------------------------------- 
.................... // Searching and sorting utilities 
.................... //--------------------------------------------------------------------------- 
....................  
.................... /* Performs a binary search of a sorted array.. 
....................  * 
....................  * Parameters: 
....................  *       [in] key: Object to search for 
....................  *       [in] base: Pointer to base of search data 
....................  *       [in] num: Number of elements 
....................  *       [in] width: Width of elements 
....................  *       [in] compare: Function that compares two elements 
....................  * 
....................  * Returns: 
....................  *       bsearch returns a pointer to an occurrence of key in the array pointed 
....................  *       to by base. If key is not found, the function returns NULL. If the 
....................  *       array is not in order or contains duplicate records with identical keys, 
....................  *       the result is unpredictable. 
....................  */ 
.................... //void *bsearch(const void *key, const void *base, size_t num, size_t width, 
.................... //              int (*compare)(const void *, const void *)); 
....................  
.................... /* Performs the shell-metzner sort (not the quick sort algorithm). The contents 
....................  * of the array are sorted into ascending order according to a comparison 
....................  * function pointed to by compar. 
....................  * 
....................  * Parameters: 
....................  *       [in] base: Pointer to base of search data 
....................  *       [in] num: Number of elements 
....................  *       [in] width: Width of elements 
....................  *       [in] compare: Function that compares two elements 
....................  * 
....................  * Returns: 
....................  *       (none) 
....................  */ 
.................... //void *qsort(const void *base, size_t num, size_t width, 
.................... //              int (*compare)(const void *, const void *)); 
....................  
.................... //--------------------------------------------------------------------------- 
.................... // Integer arithmetic functions 
.................... //--------------------------------------------------------------------------- 
....................  
.................... #define labs abs 
....................  
.................... div_t div(signed int numer, signed int denom); 
.................... ldiv_t ldiv(signed long numer, signed long denom); 
....................  
.................... //--------------------------------------------------------------------------- 
.................... // Multibyte character functions 
.................... //--------------------------------------------------------------------------- 
....................  
.................... // Not supported 
....................  
.................... //--------------------------------------------------------------------------- 
.................... // Multibyte string functions 
.................... //--------------------------------------------------------------------------- 
....................  
.................... // Not supported 
....................  
....................  
.................... //--------------------------------------------------------------------------- 
.................... // Internal implementation 
.................... //--------------------------------------------------------------------------- 
....................  
.................... #include <stddef.h> 
.................... /////////////////////////////////////////////////////////////////////////// 
.................... ////        (C) Copyright 1996,2003 Custom Computer Services           //// 
.................... //// This source code may only be used by licensed users of the CCS C  //// 
.................... //// compiler.  This source code may only be distributed to other      //// 
.................... //// licensed users of the CCS C compiler.  No other use, reproduction //// 
.................... //// or distribution is permitted without written permission.          //// 
.................... //// Derivative programs created using this software in object code    //// 
.................... //// form are not restricted in any way.                               //// 
.................... /////////////////////////////////////////////////////////////////////////// 
....................  
.................... #ifndef _STDDEF 
....................  
.................... #define _STDDEF 
....................  
.................... #if sizeof(unsigned int8 *)==1 
.................... #define ptrdiff_t unsigned int8 
.................... #else 
.................... #define ptrdiff_t unsigned int16 
.................... #endif 
....................  
.................... #define size_t unsigned int8 
.................... #define wchar_t char 
.................... #define NULL 0 
....................  
.................... #define offsetof(s,f) (offsetofbit(s,f)/8) 
....................  
.................... #endif 
....................  
.................... #include <string.h> 
.................... //////////////////////////////////////////////////////////////////////////// 
.................... ////        (C) Copyright 1996,2008 Custom Computer Services            //// 
.................... //// This source code may only be used by licensed users of the CCS C   //// 
.................... //// compiler.  This source code may only be distributed to other       //// 
.................... //// licensed users of the CCS C compiler.  No other use, reproduction  //// 
.................... //// or distribution is permitted without written permission.           //// 
.................... //// Derivative programs created using this software in object code     //// 
.................... //// form are not restricted in any way.                                //// 
.................... //////////////////////////////////////////////////////////////////////////// 
....................  
.................... #ifndef _STRING 
.................... #define _STRING 
.................... #include <stddef.h> 
.................... #include <ctype.h> 
....................  
....................  
....................  
.................... ////////////////////////////////////////////// 
.................... //// Uncomment the following define to    //// 
.................... //// allow some functions to use a        //// 
.................... //// quicker algorithm, but use more ROM  //// 
.................... ////                                      //// 
.................... //// #define FASTER_BUT_MORE_ROM          //// 
.................... ////////////////////////////////////////////// 
....................  
....................  
....................  
.................... /*Copying functions*/ 
.................... /* standard template: 
....................    void *memmove(void *s1, void *s2, size_t n). 
....................    Copies max of n characters safely (not following ending '\0') 
....................    from s2 in s1; if s2 has less than n characters, appends 0 */ 
....................  
.................... char *memmove(void *s1,char *s2,size_t n) 
.................... { 
....................    char *sc1; 
....................    char *sc2; 
....................    sc1=s1; 
....................    sc2=s2; 
....................    if(sc2<sc1 && sc1 <sc2 +n) 
....................       for(sc1+=n,sc2+=n;0<n;--n) 
....................          *--sc1=*--sc2; 
....................    else 
....................       for(;0<n;--n) 
....................          *sc1++=*sc2++; 
....................   return s1; 
....................   } 
....................  
.................... /* Standard template: char *strcpy(char *s1, const char *s2) 
....................    copies the string s2 including the null character to s1. 
....................    This is a compiler built in to handle the different address 
....................    spaces */ 
....................  
.................... #define strcopy strcpy 
....................  
.................... /* standard template: 
....................    char *strncpy(char *s1, const char *s2, size_t n). 
....................    Copies max of n characters (not following ending '\0') 
....................    from s2 in s1; if s2 has less than n characters, appends 0 */ 
....................  
.................... char *strncpy(char *s1, char *s2, size_t n) 
.................... { 
....................   char *s; 
....................  
....................   for (s = s1; n > 0 && *s2 != '\0'; n--) 
....................      *s++ = *s2++; 
....................   for (; n > 0; n--) 
....................      *s++ = '\0'; 
....................  
....................   return(s1); 
.................... } 
.................... /***********************************************************/ 
....................  
.................... /*concatenation functions*/ 
.................... /* standard template: char *strcat(char *s1, const char *s2) 
.................... appends s2 to s1*/ 
....................  
.................... char *strcat(char *s1, char *s2) 
.................... { 
....................    char *s; 
....................  
....................    for (s = s1; *s != '\0'; ++s); 
....................    while(*s2 != '\0') 
....................    { 
....................       *s = *s2; 
....................       ++s; 
....................       ++s2; 
....................    } 
....................  
....................    *s = '\0'; 
....................    return(s1); 
.................... } 
.................... /* standard template: char *strncat(char *s1, char *s2,size_t n) 
.................... appends not more than n characters from s2 to s1*/ 
....................  
.................... char *strncat(char *s1, char *s2, size_t n) 
.................... { 
....................    char *s; 
....................  
....................    for (s = s1; *s != '\0'; ++s); 
....................    while(*s2 != '\0' && 0<n) 
....................    { 
....................       *s = *s2; 
....................       ++s; 
....................       ++s2; 
....................       --n; 
....................    } 
....................  
....................    *s = '\0'; 
....................    return(s1); 
.................... } 
....................  
.................... /***********************************************************/ 
....................  
....................  
.................... /*comparison functions*/ 
.................... /* standard template: signed int memcmp(void *s1, void *s2). 
....................    Compares s1 & s2; returns -1 if s1<s2, 0 if s1=s2, 1 if s1>s2 */ 
....................  
.................... signed int8 memcmp(void * s1,char *s2,size_t n) 
.................... { 
.................... char *su1, *su2; 
.................... for(su1=s1, su2=s2; 0<n; ++su1, ++su2, --n) 
.................... { 
....................    if(*su1!=*su2) 
....................       return ((*su1<*su2)?-1:+1); 
.................... } 
.................... return 0; 
.................... } 
....................  
.................... /* standard template: int strcmp(const char *s1, const char *s2). 
....................    Compares s1 & s2; returns -1 if s1<s2, 0 if s1=s2, 1 if s1>s2 */ 
....................  
.................... signed int8 strcmp(char *s1, char *s2) 
.................... { 
....................    for (; *s1 == *s2; s1++, s2++) 
....................       if (*s1 == '\0') 
....................          return(0); 
....................    return((*s1 < *s2) ? -1: 1); 
.................... } 
.................... /* standard template: int strcoll(const char *s1, const char *s2). 
....................    Compares s1 & s2; returns -1 if s1<s2, 0 if s1=s2, 1 if s1>s2 */ 
....................  
.................... signed int8 strcoll(char *s1, char *s2) 
.................... { 
....................    for (; *s1 == *s2; s1++, s2++) 
....................       if (*s1 == '\0') 
....................          return(0); 
....................    return((*s1 < *s2) ? -1: 1); 
.................... } 
....................  
.................... /* standard template: 
....................    int strncmp(const char *s1, const char *s2, size_t n). 
....................    Compares max of n characters (not following 0) from s1 to s2; 
....................    returns same as strcmp */ 
....................  
.................... signed int8 strncmp(char *s1, char *s2, size_t n) 
.................... { 
....................    for (; n > 0; s1++, s2++, n--) 
....................       if (*s1 != *s2) 
....................          return((*s1 <*s2) ? -1: 1); 
....................       else if (*s1 == '\0') 
....................          return(0); 
....................    return(0); 
.................... } 
.................... /* standard template: 
....................    int strxfrm(const char *s1, const char *s2, size_t n). 
....................    transforms maximum of n characters from s2 and places them into s1*/ 
.................... size_t strxfrm(char *s1, char *s2, size_t n) 
.................... { 
....................   char *s; 
....................   unsigned int8 n1; 
....................   n1=n; 
....................   for (s = s1; n > 0 && *s2 != '\0'; n--) 
....................      *s++ = *s2++; 
....................   for (; n > 0; n--) 
....................      *s++ = '\0'; 
....................  
....................   return(n1); 
.................... } 
....................  
....................  
....................  
....................  
....................  
.................... /***********************************************************/ 
.................... /*Search functions*/ 
.................... /* standard template: void *memchr(const char *s, int c). 
....................    Finds first occurrence of c in n characters of s */ 
....................  
.................... char *memchr(void *s,unsigned int8 c,size_t n) 
.................... { 
....................    char uc; 
....................    char *su; 
....................    uc=c; 
....................    for(su=s;0<n;++su,--n) 
....................       if(*su==uc) 
....................       return su; 
....................    return NULL; 
.................... } 
....................  
.................... /* standard template: char *strchr(const char *s, int c). 
....................    Finds first occurrence of c in s */ 
....................  
.................... char *strchr(char *s, unsigned int8 c) 
.................... { 
....................    for (; *s != c; s++) 
....................       if (*s == '\0') 
....................          return(0); 
....................    return(s); 
.................... } 
.................... /* standard template: 
....................    size_t strcspn(const char *s1, const char *s2). 
....................    Computes length of max initial segment of s1 that 
....................    consists entirely of characters NOT from s2*/ 
....................  
.................... unsigned int8  strcspn(char *s1, char *s2) 
.................... { 
....................    char *sc1, *sc2; 
....................  
....................    for (sc1 = s1; *sc1 != 0; sc1++) 
....................       for (sc2 = s2; *sc2 != 0; sc2++) 
....................          if (*sc1 == *sc2) 
....................             return(sc1 - s1); 
....................    return(sc1 - s1); 
.................... } 
.................... /* standard template: 
....................    char *strpbrk(const char *s1, const char *s2). 
....................    Locates first occurence of any character from s2 in s1; 
....................    returns s1 if s2 is empty string */ 
....................  
.................... char *strpbrk(char *s1, char *s2) 
.................... { 
....................    char *sc1, *sc2; 
....................  
....................    for (sc1 = s1; *sc1 != 0; sc1++) 
....................       for (sc2 = s2; *sc2 != 0; sc2++) 
....................          if (*sc1 == *sc2) 
....................             return(sc1); 
....................    return(0); 
.................... } 
....................  
....................  
.................... /* standard template: char *strrchr(const char *s, int c). 
....................    Finds last occurrence of c in s */ 
....................  
.................... char *strrchr(char *s, unsigned int8 c) 
.................... { 
....................    char *p; 
....................  
....................    for (p = 0; ; s++) 
....................    { 
....................       if (*s == c) 
....................          p = s; 
....................       if (*s == '\0') 
....................          return(p); 
....................    } 
.................... } 
.................... /* computes length of max initial segment of s1 consisting 
....................    entirely of characters from s2 */ 
....................  
.................... unsigned int8  strspn(char *s1, char *s2) 
.................... { 
....................    char *sc1, *sc2; 
....................  
....................    for (sc1 = s1; *sc1 != 0; sc1++) 
....................       for (sc2 = s2; ; sc2++) 
....................     if (*sc2 == '\0') 
....................        return(sc1 - s1); 
....................          else if (*sc1 == *sc2) 
....................             break; 
....................    return(sc1 - s1); 
.................... } 
.................... /* standard template: 
....................    char *strstr(const char *s1, const char *s2); 
....................    Locates first occurence of character sequence s2 in s1; 
....................    returns 0 if s2 is empty string 
....................  
....................    Uncomment #define FASTER_BUT_MORE_ROM at the top of the 
....................    file to use the faster algorithm */ 
.................... char *strstr(char *s1, char *s2) 
.................... { 
....................    char *s, *t; 
....................  
....................    #ifdef FASTER_BUT_MORE_ROM 
....................    if (*s2 == '\0') 
....................          return(s1); 
....................    #endif 
....................  
....................    while (*s1) 
....................    { 
....................       for(s = s1, t = s2; *t && (*s == *t); ++s, ++t); 
....................  
....................       if (*t == '\0') 
....................          return s1; 
....................       ++s1; 
....................       #ifdef FASTER_BUT_MORE_ROM 
....................          while(*s1 != '\0' && *s1 != *s2) 
....................             ++s1; 
....................       #endif 
....................    } 
....................    return 0; 
.................... } 
....................  
.................... /* standard template: char *strtok(char *s1, const char *s2). 
....................  
....................    Finds next token in s1 delimited by a character from separator 
....................    string s2 (which can be different from call to call).  First call 
....................    starts at beginning of s1 searching for first character NOT 
....................    contained in s2; returns 0 if none is found. 
....................    If one is found, it is the start of first token (return value). 
....................    Function then searches from there for a character contained in s2. 
....................    If none is found, current token extends to end of s1, and subsequent 
....................    searches for a token will return 0.  If one is found, it is 
....................    overwritten by '\0', which terminates current token.  Function saves 
....................    pointer to following character from which next search will start. 
....................    Each subsequent call, with 0 as first argument, starts searching 
....................    from saved pointer */ 
....................  
.................... char *strtok(char *s1, char *s2) 
.................... { 
....................    char *beg, *end; 
....................    static char *save; 
....................  
....................    beg = (s1)? s1: save; 
....................    beg += strspn(beg, s2); 
....................    if (*beg == '\0') 
....................    { 
....................       *save = ' '; 
....................       return(0); 
....................    } 
....................    end = strpbrk(beg, s2); 
....................    if (*end != '\0') 
....................    { 
....................       *end = '\0'; 
....................       end++; 
....................    } 
....................    save = end; 
....................    return(beg); 
.................... } 
....................  
.................... /*****************************************************************/ 
.................... /*Miscellaneous functions*/ 
.................... /* standard template 
.................... maps error number in errnum to an error message string 
.................... Returns: Pointer to string 
.................... */ 
.................... #ifdef _ERRNO 
.................... char * strerror(unsigned int8 errnum) 
.................... { 
.................... char s[15]; 
.................... switch( errnum) 
.................... { 
.................... case 0: 
....................    strcpy(s,"no errors"); 
....................    return s; 
.................... case EDOM : 
....................    strcpy(s,"domain error"); 
....................    return s; 
.................... case ERANGE: 
....................    strcpy(s,"range error"); 
....................    return s; 
.................... } 
.................... } 
.................... #ENDIF 
.................... /* standard template: size_t strlen(const char *s). 
....................    Computes length of s1 (preceding terminating 0) */ 
....................  
.................... unsigned int8 strlen(char *s) 
.................... { 
....................    char *sc; 
....................  
....................    for (sc = s; *sc != 0; sc++); 
....................    return(sc - s); 
.................... } 
....................  
.................... /* standard template: size_t stricmp(const char *s1, const char *s2). 
....................    Compares s1 to s2 ignoring case (upper vs. lower) */ 
....................  
.................... signed int8 stricmp(char *s1, char *s2) 
.................... { 
....................  for(; *s1==*s2||(isalpha(*s1)&&isalpha(*s2)&&(*s1==*s2+32||*s2==*s1+32)); 
....................     s1++, s2++) 
....................     if (*s1 == '\0') 
....................        return(0); 
....................  return((*s1 < *s2) ? -1: 1); 
.................... } 
....................  
....................  
.................... /* standard template: char *strlwr(char *s). 
....................    Replaces uppercase letters by lowercase; 
....................    returns pointer to new string s */ 
....................  
.................... char *strlwr(char *s) 
.................... { 
....................    char *p; 
....................  
....................    for (p = s; *p != '\0'; p++) 
....................       if (*p >= 'A' && *p <='Z') 
....................          *p += 'a' - 'A'; 
....................    return(s); 
.................... } 
....................  
....................  
.................... /************************************************************/ 
....................  
....................  
.................... #endif 
....................  
....................  
.................... div_t div(signed int numer, signed int denom) 
.................... { 
....................    div_t val; 
....................    val.quot = numer / denom; 
....................    val.rem = numer - (denom * val.quot); 
....................    return (val); 
.................... } 
....................  
.................... ldiv_t ldiv(signed long numer, signed long denom) 
.................... { 
....................    ldiv_t val; 
....................  
....................    val.quot = numer / denom; 
....................    val.rem = numer - (denom * val.quot); 
....................    return (val); 
.................... } 
....................  
.................... #if defined(__PCD__) 
.................... float32 atoe(char * s) 
.................... { 
....................    float32 pow10 = 1.0; 
....................    float32 result = 0.0; 
....................    unsigned int8 sign = 0; 
....................    unsigned int8 expsign = 0; 
....................    char c; 
....................    unsigned int8 ptr = 0; 
....................    unsigned int8 i; 
....................    float32 exp = 1.0; 
....................    unsigned int8 expcnt = 0; 
....................  
....................    c = s[ptr++]; 
....................  
....................    if ((c>='0' && c<='9') || c=='+' || c=='-' || c=='.' || c=='E' || c=='e') { 
....................       if(c == '-') { 
....................          sign = 1; 
....................          c = s[ptr++]; 
....................       } 
....................       if(c == '+') 
....................          c = s[ptr++]; 
....................  
....................       while((c >= '0' && c <= '9')) { 
....................          result = 10*result + c - '0'; 
....................          c = s[ptr++]; 
....................       } 
....................  
....................       if (c == '.') { 
....................          c = s[ptr++]; 
....................          while((c >= '0' && c <= '9')) { 
....................              pow10 = pow10*10; 
....................              result += (c - '0')/pow10; 
....................              c = s[ptr++]; 
....................          } 
....................       } 
....................  
....................       // Handling the exponent 
....................       if (c=='e' || c=='E') { 
....................          c = s[ptr++]; 
....................  
....................          if(c == '-') { 
....................             expsign = 1; 
....................             c = s[ptr++]; 
....................          } 
....................          if(c == '+') 
....................             c = s[ptr++]; 
....................  
....................          while((c >= '0' && c <= '9')) { 
....................             expcnt = 10*expcnt + c - '0'; 
....................             c = s[ptr++]; 
....................          } 
....................  
....................          for(i=0;i<expcnt;i++) 
....................             exp*=10; 
....................  
....................          if(expsign==1) 
....................             result/=exp; 
....................          else 
....................             result*=exp; 
....................       } 
....................    } 
....................  
....................    if (sign == 1) 
....................       result = -1*result; 
....................    return(result); 
.................... } 
.................... #endif 
....................  
.................... #if !defined(__PCD__) 
.................... float atoe(char * s) 
.................... { 
....................    float pow10 = 1.0; 
....................    float result = 0.0; 
....................    unsigned int8 sign = 0; 
....................    unsigned int8 expsign = 0; 
....................    char c; 
....................    unsigned int8 ptr = 0; 
....................    unsigned int8 i; 
....................    float exp = 1.0; 
....................    unsigned int8 expcnt = 0; 
....................  
....................    c = s[ptr++]; 
....................  
....................    if ((c>='0' && c<='9') || c=='+' || c=='-' || c=='.' || c=='E' || c=='e') { 
....................       if(c == '-') { 
....................          sign = 1; 
....................          c = s[ptr++]; 
....................       } 
....................       if(c == '+') 
....................          c = s[ptr++]; 
....................  
....................       while((c >= '0' && c <= '9')) { 
....................          result = 10*result + c - '0'; 
....................          c = s[ptr++]; 
....................       } 
....................  
....................       if (c == '.') { 
....................          c = s[ptr++]; 
....................          while((c >= '0' && c <= '9')) { 
....................              pow10 = pow10*10; 
....................              result += (c - '0')/pow10; 
....................              c = s[ptr++]; 
....................          } 
....................       } 
....................  
....................       // Handling the exponent 
....................       if (c=='e' || c=='E') { 
....................          c = s[ptr++]; 
....................  
....................          if(c == '-') { 
....................             expsign = 1; 
....................             c = s[ptr++]; 
....................          } 
....................          if(c == '+') 
....................             c = s[ptr++]; 
....................  
....................          while((c >= '0' && c <= '9')) { 
....................             expcnt = 10*expcnt + c - '0'; 
....................             c = s[ptr++]; 
....................          } 
....................  
....................          for(i=0;i<expcnt;i++) 
....................             exp*=10; 
....................  
....................          if(expsign==1) 
....................             result/=exp; 
....................          else 
....................             result*=exp; 
....................       } 
....................    } 
....................  
....................    if (sign == 1) 
....................       result = -1*result; 
....................    return(result); 
.................... } 
.................... #endif 
....................  
.................... signed int atoi(char *s) 
.................... { 
....................    signed int result; 
....................    unsigned int sign, base, index; 
....................    char c; 
....................  
....................    index = 0; 
....................    sign = 0; 
....................    base = 10; 
....................    result = 0; 
....................  
....................    if (!s) 
....................       return 0; 
....................    // Omit all preceeding alpha characters 
....................    c = s[index++]; 
....................  
....................    // increase index if either positive or negative sign is detected 
....................    if (c == '-') 
....................    { 
....................       sign = 1;         // Set the sign to negative 
....................       c = s[index++]; 
....................    } 
....................    else if (c == '+') 
....................    { 
....................       c = s[index++]; 
....................    } 
....................  
....................    if (c >= '0' && c <= '9') 
....................    { 
....................  
....................       // Check for hexa number 
....................       if (c == '0' && (s[index] == 'x' || s[index] == 'X')) 
....................       { 
....................          base = 16; 
....................          index++; 
....................          c = s[index++]; 
....................       } 
....................  
....................       // The number is a decimal number 
....................       if (base == 10) 
....................       { 
....................          while (c >= '0' && c <= '9') 
....................          { 
....................             result = 10*result + (c - '0'); 
....................             c = s[index++]; 
....................          } 
....................       } 
....................       else if (base == 16)    // The number is a hexa number 
....................       { 
....................          c = toupper(c); 
....................          while ( (c >= '0' && c <= '9') || (c >= 'A' && c<='F')) 
....................          { 
....................             if (c >= '0' && c <= '9') 
....................                result = (result << 4) + (c - '0'); 
....................             else 
....................                result = (result << 4) + (c - 'A' + 10); 
....................  
....................             c = s[index++]; 
....................             c = toupper(c); 
....................          } 
....................       } 
....................    } 
....................  
....................    if (sign == 1 && base == 10) 
....................        result = -result; 
....................  
....................    return(result); 
.................... } 
....................  
.................... signed long atol(char *s) 
.................... { 
....................    signed long result; 
....................    unsigned int sign, base, index; 
....................    char c; 
....................  
....................    index = 0; 
....................    sign = 0; 
....................    base = 10; 
....................    result = 0; 
....................  
....................    if (!s) 
....................       return 0; 
....................    c = s[index++]; 
....................  
....................    // increase index if either positive or negative sign is detected 
....................    if (c == '-') 
....................    { 
....................       sign = 1;         // Set the sign to negative 
....................       c = s[index++]; 
....................    } 
....................    else if (c == '+') 
....................    { 
....................       c = s[index++]; 
....................    } 
....................  
....................    if (c >= '0' && c <= '9') 
....................    { 
....................       if (c == '0' && (s[index] == 'x' || s[index] == 'X')) 
....................       { 
....................          base = 16; 
....................          index++; 
....................          c = s[index++]; 
....................       } 
....................  
....................       // The number is a decimal number 
....................       if (base == 10) 
....................       { 
....................          while (c >= '0' && c <= '9') 
....................          { 
....................             result = 10*result + (c - '0'); 
....................             c = s[index++]; 
....................          } 
....................       } 
....................       else if (base == 16)    // The number is a hexa number 
....................       { 
....................          c = toupper(c); 
....................          while ( (c >= '0' && c <= '9') || (c >= 'A' && c <='F')) 
....................          { 
....................             if (c >= '0' && c <= '9') 
....................                result = (result << 4) + (c - '0'); 
....................             else 
....................                result = (result << 4) + (c - 'A' + 10); 
....................  
....................             c = s[index++];c = toupper(c); 
....................          } 
....................       } 
....................    } 
....................  
....................    if (base == 10 && sign == 1) 
....................       result = -result; 
....................  
....................    return(result); 
.................... } 
....................  
.................... /* A fast routine to multiply by 10 
....................  */ 
.................... signed int32 mult_with10(int32 num) 
.................... { 
....................    return ( (num << 1) + (num << 3) ); 
.................... } 
....................  
.................... #if sizeof(long)==2 
.................... signed int32 atoi32(char *s) 
.................... { 
....................    signed int32 result; 
....................    int8 sign, base, index; 
....................    char c; 
....................  
....................    index = 0; 
....................    sign = 0; 
....................    base = 10; 
....................    result = 0; 
....................  
....................    if (!s) 
....................       return 0; 
....................    c = s[index++]; 
....................  
....................    // increase index if either positive or negative sign is detected 
....................    if (c == '-') 
....................    { 
....................       sign = 1;         // Set the sign to negative 
....................       c = s[index++]; 
....................    } 
....................    else if (c == '+') 
....................    { 
....................       c = s[index++]; 
....................    } 
....................  
....................    if (c >= '0' && c <= '9') 
....................    { 
....................       if (c == '0' && (s[index] == 'x' || s[index] == 'X')) 
....................       { 
....................          base = 16; 
....................          index++; 
....................          c = s[index++]; 
....................       } 
....................  
....................       // The number is a decimal number 
....................       if (base == 10) 
....................       { 
....................          while (c >= '0' && c <= '9') { 
....................             result = (result << 1) + (result << 3);  // result *= 10; 
....................             result += (c - '0'); 
....................             c = s[index++]; 
....................          } 
....................       } 
....................       else if (base == 16)    // The number is a hexa number 
....................       { 
....................          c = toupper(c); 
....................          while ((c >= '0' && c <= '9') || (c >= 'A' && c <='F')) 
....................          { 
....................             if (c >= '0' && c <= '9') 
....................                result = (result << 4) + (c - '0'); 
....................             else 
....................                result = (result << 4) + (c - 'A' + 10); 
....................  
....................             c = s[index++];c = toupper(c); 
....................          } 
....................       } 
....................    } 
....................  
....................    if (base == 10 && sign == 1) 
....................       result = -result; 
....................  
....................    return(result); 
.................... } 
.................... #endif 
....................  
.................... #if defined(__PCD__) 
....................  
.................... signed int48 atoi48(char *s) 
.................... { 
....................    signed int48 result; 
....................    int8 sign, base, index; 
....................    char c; 
....................  
....................    index = 0; 
....................    sign = 0; 
....................    base = 10; 
....................    result = 0; 
....................  
....................    if (!s) 
....................       return 0; 
....................    c = s[index++]; 
....................  
....................    // increase index if either positive or negative sign is detected 
....................    if (c == '-') 
....................    { 
....................       sign = 1;         // Set the sign to negative 
....................       c = s[index++]; 
....................    } 
....................    else if (c == '+') 
....................    { 
....................       c = s[index++]; 
....................    } 
....................  
....................    if (c >= '0' && c <= '9') 
....................    { 
....................       if (c == '0' && (s[index] == 'x' || s[index] == 'X')) 
....................       { 
....................          base = 16; 
....................          index++; 
....................          c = s[index++]; 
....................       } 
....................  
....................       // The number is a decimal number 
....................       if (base == 10) 
....................       { 
....................          while (c >= '0' && c <= '9') { 
....................             result = (result << 1) + (result << 3);  // result *= 10; 
....................             result += (c - '0'); 
....................             c = s[index++]; 
....................          } 
....................       } 
....................       else if (base == 16)    // The number is a hexa number 
....................       { 
....................          c = toupper(c); 
....................          while ((c >= '0' && c <= '9') || (c >= 'A' && c <='F')) 
....................          { 
....................             if (c >= '0' && c <= '9') 
....................                result = (result << 4) + (c - '0'); 
....................             else 
....................                result = (result << 4) + (c - 'A' + 10); 
....................  
....................             c = s[index++];c = toupper(c); 
....................          } 
....................       } 
....................    } 
....................  
....................    if (base == 10 && sign == 1) 
....................       result = -result; 
....................  
....................    return(result); 
.................... } 
....................  
.................... signed int64 atoi64(char *s) 
.................... { 
....................    signed int64 result; 
....................    int8 sign, base, index; 
....................    char c; 
....................  
....................    index = 0; 
....................    sign = 0; 
....................    base = 10; 
....................    result = 0; 
....................  
....................    if (!s) 
....................       return 0; 
....................    c = s[index++]; 
....................  
....................    // increase index if either positive or negative sign is detected 
....................    if (c == '-') 
....................    { 
....................       sign = 1;         // Set the sign to negative 
....................       c = s[index++]; 
....................    } 
....................    else if (c == '+') 
....................    { 
....................       c = s[index++]; 
....................    } 
....................  
....................    if (c >= '0' && c <= '9') 
....................    { 
....................       if (c == '0' && (s[index] == 'x' || s[index] == 'X')) 
....................       { 
....................          base = 16; 
....................          index++; 
....................          c = s[index++]; 
....................       } 
....................  
....................       // The number is a decimal number 
....................       if (base == 10) 
....................       { 
....................          while (c >= '0' && c <= '9') { 
....................             result = (result << 1) + (result << 3);  // result *= 10; 
....................             result += (c - '0'); 
....................             c = s[index++]; 
....................          } 
....................       } 
....................       else if (base == 16)    // The number is a hexa number 
....................       { 
....................          c = toupper(c); 
....................          while ((c >= '0' && c <= '9') || (c >= 'A' && c <='F')) 
....................          { 
....................             if (c >= '0' && c <= '9') 
....................                result = (result << 4) + (c - '0'); 
....................             else 
....................                result = (result << 4) + (c - 'A' + 10); 
....................  
....................             c = s[index++];c = toupper(c); 
....................          } 
....................       } 
....................    } 
....................  
....................    if (base == 10 && sign == 1) 
....................       result = -result; 
....................  
....................    return(result); 
.................... } 
.................... #endif 
....................  
.................... char * itoa(signed int32 num, unsigned int base, char * s) 
.................... { 
....................      unsigned int32 temp=1; 
....................      unsigned int8 i,sign=0,cnt=0; 
....................      char c; 
....................  
....................      if(num<0) { 
....................          sign=1;        // Check for negative number 
....................          num*=-1; 
....................      } 
....................  
....................      while(temp>0) { 
....................          temp=(num/base); 
....................          s[cnt]=(num%base)+'0';    // Conversion 
....................  
....................          if(s[cnt]>0x39) 
....................             s[cnt]+=0x7; 
....................  
....................          cnt++; 
....................          num=temp; 
....................      } 
....................  
....................      if(sign==1) { 
....................          s[cnt]=0x2D;      // Negative sign 
....................          cnt++; 
....................      } 
....................  
....................      for(i = 0;i<(int8)(cnt/2);i++) { 
....................  
....................          c=s[i]; 
....................          s[i]=s[cnt-i-1];        // Reverse the number 
....................          s[cnt-i-1]=c; 
....................      } 
....................      s[cnt]='\0';     // End the string 
....................      return s; 
.................... } 
....................  
.................... float strtof(char *s, char *endptr) 
.................... { 
....................    float pow10 = 1.0; 
....................    float result = 0.0; 
....................    int1 skip = 1, sign = 0, point = 0; 
....................    char c; 
....................    unsigned int8 ptr = 0; 
....................  
....................    if (!s) 
....................       return 0; 
....................  
....................    for(c=s[ptr++]; c!=0; c=s[ptr++]) 
....................    { 
....................       if (skip && !isspace(c)) 
....................       { 
....................          skip = 0; 
....................          if (c == '+') 
....................          { 
....................             sign = 0; 
....................             continue; 
....................          }             
....................          else if (c == '-') 
....................          { 
....................             sign = 1; 
....................             continue; 
....................          } 
....................       } 
....................       if (!skip && (c == '.') && !point) 
....................          point = 1; 
....................       else if (!skip && isdigit(c)) 
....................       { 
....................          c -= '0'; 
....................          if (point) 
....................          { 
....................             pow10 = pow10 * 10.0; 
....................             result += (float)c / pow10;    
....................          } 
....................          else 
....................          { 
....................             result = 10.0 * result + (float)c; 
....................          } 
....................       } 
....................       else if (!skip) 
....................          break; 
....................    } 
....................  
....................    if (sign) 
....................       result = -1*result; 
....................        
....................    if(endptr) 
....................    { 
....................       if (ptr) { 
....................          ptr--; 
....................        #IF LONG_POINTERS  
....................          *((long *)endptr)= s+ptr;  
....................        #ELSE 
....................          *((char *)endptr)=s+ptr; 
....................        #ENDIF 
....................       } 
....................       else 
....................       { 
....................       #IF LONG_POINTERS 
....................       *((long *)endptr)= s;  
....................       #ELSE 
....................       *((char *)endptr)=s; 
....................       #ENDIF 
....................       } 
....................    } 
....................  
....................    return(result); 
.................... } 
....................  
.................... #if defined(__PCD__) 
.................... float48 strtof48(char *s, char *endptr) 
.................... { 
....................    float48 pow10 = 1.0; 
....................    float48 result = 0.0; 
....................    int1 skip = 1, sign = 0, point = 0; 
....................    char c; 
....................    unsigned int8 ptr = 0; 
....................  
....................    if (!s) 
....................       return 0; 
....................  
....................    for(c=s[ptr++]; c!=0; c=s[ptr++]) 
....................    { 
....................       if (skip && !isspace(c)) 
....................       { 
....................          skip = 0; 
....................          if (c == '+') 
....................          { 
....................             sign = 0; 
....................             continue; 
....................          }             
....................          else if (c == '-') 
....................          { 
....................             sign = 1; 
....................             continue; 
....................          } 
....................       } 
....................       if (!skip && (c == '.') && !point) 
....................          point = 1; 
....................       else if (!skip && isdigit(c)) 
....................       { 
....................          c -= '0'; 
....................          if (point) 
....................          { 
....................             pow10 = pow10 * 10.0; 
....................             result += (float48)c / pow10;    
....................          } 
....................          else 
....................          { 
....................             result = 10.0 * result + (float48)c; 
....................          } 
....................       } 
....................       else if (!skip) 
....................          break; 
....................    } 
....................  
....................    if (sign) 
....................       result = -1*result; 
....................        
....................    if(endptr) 
....................    { 
....................       if (ptr) { 
....................          ptr--; 
....................        #IF LONG_POINTERS  
....................          *((long *)endptr)= s+ptr;  
....................        #ELSE 
....................          *((char *)endptr)=s+ptr; 
....................        #ENDIF 
....................       } 
....................       else 
....................       { 
....................       #IF LONG_POINTERS 
....................       *((long *)endptr)= s;  
....................       #ELSE 
....................       *((char *)endptr)=s; 
....................       #ENDIF 
....................       } 
....................    } 
....................  
....................    return(result); 
.................... } 
....................  
.................... float64 strtod(char *s, char *endptr) 
.................... { 
....................    float64 pow10 = 1.0; 
....................    float64 result = 0.0; 
....................    int1 skip = 1, sign = 0, point = 0; 
....................    char c; 
....................    unsigned int8 ptr = 0; 
....................  
....................    if (!s) 
....................       return 0; 
....................  
....................    for(c=s[ptr++]; c!=0; c=s[ptr++]) 
....................    { 
....................       if (skip && !isspace(c)) 
....................       { 
....................          skip = 0; 
....................          if (c == '+') 
....................          { 
....................             sign = 0; 
....................             continue; 
....................          }             
....................          else if (c == '-') 
....................          { 
....................             sign = 1; 
....................             continue; 
....................          } 
....................       } 
....................       if (!skip && (c == '.') && !point) 
....................          point = 1; 
....................       else if (!skip && isdigit(c)) 
....................       { 
....................          c -= '0'; 
....................          if (point) 
....................          { 
....................             pow10 = pow10 * 10.0; 
....................             result += (float64)c / pow10;    
....................          } 
....................          else 
....................          { 
....................             result = 10.0 * result + (float64)c; 
....................          } 
....................       } 
....................       else if (!skip) 
....................          break; 
....................    } 
....................  
....................    if (sign) 
....................       result = -1*result; 
....................        
....................    if(endptr) 
....................    { 
....................       if (ptr) { 
....................          ptr--; 
....................        #IF LONG_POINTERS  
....................          *((long *)endptr)= s+ptr;  
....................        #ELSE 
....................          *((char *)endptr)=s+ptr; 
....................        #ENDIF 
....................       } 
....................       else 
....................       { 
....................       #IF LONG_POINTERS 
....................       *((long *)endptr)= s;  
....................       #ELSE 
....................       *((char *)endptr)=s; 
....................       #ENDIF 
....................       } 
....................    } 
....................  
....................    return(result); 
.................... } 
.................... #endif 
....................  
.................... unsigned long strtoul(char *s, char *endptr, signed int base) 
.................... { 
....................    char *sc,*s1,*sd; 
....................    unsigned long x=0; 
....................    char sign; 
....................    char digits[]="0123456789abcdefghijklmnopqstuvwxyz"; 
....................    for(sc=s;isspace(*sc);++sc); 
....................    sign=*sc=='-'||*sc=='+'?*sc++:'+'; 
....................    if(sign=='-' || base <0 || base ==1|| base >36) // invalid base 
....................    goto StrtoulGO; 
....................  
....................    else if (base) 
....................    { 
....................       if(base==16 && *sc =='0'&&(sc[1]=='x' || sc[1]=='X')) 
....................          sc+=2; 
....................       if(base==8 && *sc =='0') 
....................          sc+=1; 
....................       if(base==2 && *sc =='0'&&sc[1]=='b') 
....................          sc+=2; 
....................  
....................    } 
....................    else if(*sc!='0') // base is 0, find base 
....................       base=10; 
....................    else if (sc[1]=='x' || sc[1]=='X') 
....................       base =16,sc+=2; 
....................    else if(sc[1]=='b') 
....................       base=2,sc+=2; 
....................    else 
....................       base=8; 
....................    for (s1=sc;*sc=='0';++sc);// skip leading zeroes 
....................    sd=memchr(digits,tolower(*sc),base); 
....................    for(; sd!=0; ) 
....................    { 
....................       x=x*base+(int16)(sd-digits); 
....................       ++sc; 
....................       sd=memchr(digits,tolower(*sc),base); 
....................    } 
....................    if(s1==sc) 
....................    { 
....................    StrtoulGO: 
....................       if (endptr) 
....................       { 
....................          #IF LONG_POINTERS 
....................          *((long *)endptr)= s;  
....................          #ELSE 
....................          *((char *)endptr)=s; 
....................          #ENDIF 
....................          } 
....................    return 0; 
....................    } 
....................    if (endptr) 
....................    { 
....................          #IF LONG_POINTERS 
....................          *((long *)endptr)= sc;  
....................          #ELSE 
....................          *((char *)endptr)=sc;  
....................          #ENDIF 
....................    } 
....................    return x; 
.................... } 
....................  
....................  
.................... signed long strtol(char *s,char *endptr, signed int base) 
.................... { 
....................    char *sc,*s1,*sd; 
....................    signed long x=0; 
....................    char sign; 
....................    char digits[]="0123456789abcdefghijklmnopqstuvwxyz"; 
....................    for(sc=s;isspace(*sc);++sc); 
....................    sign=*sc=='-'||*sc=='+'?*sc++:'+'; 
....................    if (base <0 || base ==1|| base >36) // invalid base 
....................    goto StrtolGO; 
....................    else if (base) 
....................    { 
....................       if(base==16 && *sc =='0'&&(sc[1]=='x' || sc[1]=='X')) 
....................          sc+=2; 
....................       if(base==8 && *sc =='0') 
....................          sc+=1; 
....................       if(base==2 && *sc =='0'&&sc[1]=='b') 
....................          sc+=2; 
....................  
....................    } 
....................    else if(*sc!='0') // base is 0, find base 
....................       base=10; 
....................    else if (sc[1]=='x' || sc[1]=='X') 
....................       base =16,sc+=2; 
....................    else if(sc[1]=='b') 
....................       base=2,sc+=2; 
....................    else 
....................       base=8; 
....................    for (s1=sc;*sc=='0';++sc);// skip leading zeroes 
....................  
....................    sd=memchr(digits,tolower(*sc),base); 
....................    for(;sd!=0;) 
....................    { 
....................       x=x*base+(int16)(sd-digits); 
....................       ++sc; 
....................       sd=memchr(digits,tolower(*sc),base); 
....................    } 
....................    if(s1==sc) 
....................    { 
....................    StrtolGO: 
....................       if (endptr) 
....................       { 
....................          #IF LONG_POINTERS 
....................          *((long *)endptr)= s;  
....................          #ELSE 
....................          *((char *)endptr)=s; 
....................          #ENDIF 
....................       } 
....................    return 0; 
....................    } 
....................    if(sign=='-') 
....................       x  =-x; 
....................    if (endptr) 
....................    { 
....................         #IF LONG_POINTERS 
....................          *((long *)endptr)= sc;  
....................         #ELSE 
....................         *((char *)endptr)=sc; 
....................         #ENDIF 
....................    } 
....................    return x; 
.................... } 
....................  
.................... signed int8 system(char *string) 
.................... { 
....................    return 0; 
.................... } 
....................  
.................... int8 mblen(char *s,size_t n) 
.................... { 
....................    return strlen(s); 
.................... } 
....................  
.................... int8 mbtowc(wchar_t *pwc,char *s,size_t n) 
.................... { 
....................    *pwc=*s; 
....................    return 1; 
.................... } 
....................  
.................... int8 wctomb(char *s,wchar_t wchar) 
.................... { 
....................    *s=wchar; 
....................    return 1; 
.................... } 
....................  
.................... size_t mbstowcs(wchar_t *pwcs,char *s,size_t n) 
.................... { 
....................    strncpy(pwcs,s,n); 
....................    return strlen(pwcs); 
.................... } 
....................  
.................... size_t wcstombs(char *s,wchar_t *pwcs,size_t n) 
.................... { 
....................    strncpy(s,pwcs,n); 
....................    return strlen(s); 
.................... } 
....................  
.................... //--------------------------------------------------------------------------- 
.................... // The random number implementation 
.................... //--------------------------------------------------------------------------- 
....................  
.................... unsigned int32 _Randseed; 
....................  
.................... unsigned int16 rand(void) 
.................... { 
....................    _Randseed = _Randseed * 1103515245 + 12345; 
....................    return ((unsigned int16)(_Randseed >> 16) % RAND_MAX); 
.................... } 
....................  
.................... void srand(unsigned int32 seed) 
.................... { 
....................    _Randseed = seed; 
.................... } 
....................  
.................... //--------------------------------------------------------------------------- 
.................... // Searching and sorting utilities implementation 
.................... //--------------------------------------------------------------------------- 
....................  
.................... #if !defined(__PCD__) 
.................... typedef signed int8 (*_Cmpfun)(char * p1,char * p2);  
.................... #else  
.................... typedef signed int16 (*_Cmpfun)(char * p1,char * p2);  
.................... #endif 
....................  
....................  
....................  
.................... void qsort(char * qdata, unsigned int qitems, unsigned int qsize, _Cmpfun cmp) { 
....................    unsigned int m,j,i,l; 
....................    int1 done; 
....................    unsigned int8 t[16]; 
....................  
....................    m = qitems/2; 
....................    while( m > 0 ) { 
....................      for(j=0; j<(qitems-m); ++j) { 
....................         i = j; 
....................         do 
....................         { 
....................            done=1; 
....................            l = i+m; 
....................            if( (*cmp)(qdata+i*qsize, qdata+l*qsize) > 0 ) { 
....................               memcpy(t, qdata+i*qsize, qsize); 
....................               memcpy(qdata+i*qsize, qdata+l*qsize, qsize); 
....................               memcpy(qdata+l*qsize, t, qsize); 
....................               if(m <= i) 
....................                 i -= m; 
....................                 done = 0; 
....................            } 
....................         } while(!done); 
....................      } 
....................      m = m/2; 
....................    } 
.................... } 
....................  
....................  
.................... char *bsearch(char *key, char *base, size_t num, size_t width,_Cmpfun cmp) 
.................... { 
....................    char *p, *q; 
....................    size_t n; 
....................    size_t pivot; 
....................    signed int val; 
....................  
....................    p = base; 
....................    n = num; 
....................  
....................    while (n > 0) 
....................    { 
....................       pivot = n >> 1; 
....................       q = p + width * pivot; 
....................  
....................       val = (*cmp)(key, q); 
....................  
....................       if (val < 0) 
....................          n = pivot; 
....................       else if (val == 0) 
....................          return ((char *)q); 
....................       else { 
....................          p = q + width; 
....................          n -= pivot + 1; 
....................       } 
....................    } 
....................  
....................    return NULL;      // There's no match 
.................... } 
....................  
....................  
.................... #endif 
....................  
.................... #include <DS1302.c> 
.................... ////////////////////////////////////////////////////////////////////////// 
.................... ////                               DS1302.C                           //// 
.................... ////                     Driver for Real Time Clock                   //// 
.................... ////                                                                  //// 
.................... ////  rtc_init()                                   Call after power up//// 
.................... ////                                                                  //// 
.................... ////  rtc_set_datetime(day,mth,year,dow,hour,min)  Set the date/time  //// 
.................... ////                                                                  //// 
.................... ////  rtc_get_date(day,mth,year,dow)               Get the date       //// 
.................... ////                                                                  //// 
.................... ////  rtc_get_time(hr,min,sec)                     Get the time       //// 
.................... ////                                                                  //// 
.................... ////  rtc_write_nvr(address,data)                  Write to NVR       //// 
.................... ////                                                                  //// 
.................... ////  data = rtc_read_nvr(address)                 Read from NVR      //// 
.................... ////                                                                  //// 
.................... ////  get_bcd(data)                              Convert data to BCD  //// 
.................... ////                                                                  //// 
.................... ////  rm_bcd(data)                               Convert data to int  //// 
.................... ////                                                                  //// 
.................... ////////////////////////////////////////////////////////////////////////// 
.................... ////        (C) Copyright 1996,2003 Custom Computer Services          //// 
.................... //// This source code may only be used by licensed users of the CCS C //// 
.................... //// compiler.  This source code may only be distributed to other     //// 
.................... //// licensed users of the CCS C compiler.  No other use, reproduction//// 
.................... //// or distribution is permitted without written permission.         //// 
.................... //// Derivative programs created using this software in object code   //// 
.................... //// form are not restricted in any way.                              //// 
.................... ////////////////////////////////////////////////////////////////////////// 
....................  
.................... //#ifndef RTC_SCLK 
....................  
.................... #define RTC_SCLK PIN_E1 
.................... #define RTC_IO   PIN_E2 
.................... #define RTC_RST  PIN_C0 
....................  
.................... //#endif 
....................  
.................... void write_ds1302_byte(BYTE cmd) { 
....................    BYTE i; 
....................  
....................    for(i=0;i<=7;++i) { 
*
027F6:  MOVLB  4
027F8:  CLRF   x00
027FA:  MOVF   x00,W
027FC:  SUBLW  07
027FE:  BNC   281E
....................       output_bit(RTC_IO, shift_right(&cmd,1,0) ); 
02800:  BCF    FD8.0
02802:  MOVLB  3
02804:  RRCF   xFF,F
02806:  BC    280C
02808:  BCF    F8D.2
0280A:  BRA    280E
0280C:  BSF    F8D.2
0280E:  BCF    F96.2
....................       output_high(RTC_SCLK); 
02810:  BCF    F96.1
02812:  BSF    F8D.1
....................       output_low(RTC_SCLK); 
02814:  BCF    F96.1
02816:  BCF    F8D.1
....................    } 
02818:  MOVLB  4
0281A:  INCF   x00,F
0281C:  BRA    27FA
.................... } 
0281E:  MOVLB  0
02820:  RETLW  00
....................  
.................... void write_ds1302(BYTE cmd, BYTE data) { 
....................  
....................    output_high(RTC_RST); 
02822:  BCF    F94.0
02824:  BSF    F8B.0
....................    write_ds1302_byte(cmd); 
02826:  MOVFF  3FD,3FF
0282A:  RCALL  27F6
....................    write_ds1302_byte(data); 
0282C:  MOVFF  3FE,3FF
02830:  RCALL  27F6
....................    output_low(RTC_RST); 
02832:  BCF    F94.0
02834:  BCF    F8B.0
.................... } 
02836:  RETLW  00
....................  
.................... BYTE read_ds1302(BYTE cmd) { 
....................    BYTE i,data; 
....................  
....................    output_high(RTC_RST); 
02838:  BCF    F94.0
0283A:  BSF    F8B.0
....................    write_ds1302_byte(cmd); 
0283C:  MOVFF  3FA,3FF
02840:  RCALL  27F6
....................     
....................    input(RTC_IO); 
02842:  BSF    F96.2
....................    delay_us(10); 
02844:  MOVLW  10
02846:  MOVWF  00
02848:  DECFSZ 00,F
0284A:  BRA    2848
0284C:  NOP   
....................           
....................    for(i=0;i<=7;++i) { 
0284E:  MOVLB  3
02850:  CLRF   xFB
02852:  MOVF   xFB,W
02854:  SUBLW  07
02856:  BNC   2882
....................       shift_right(&data,1,input(RTC_IO)); 
02858:  BSF    F96.2
0285A:  BTFSC  F84.2
0285C:  BRA    2862
0285E:  BCF    FD8.0
02860:  BRA    2864
02862:  BSF    FD8.0
02864:  RRCF   xFC,F
....................       output_high(RTC_SCLK); 
02866:  BCF    F96.1
02868:  BSF    F8D.1
....................       delay_us(20); 
0286A:  MOVLW  21
0286C:  MOVWF  00
0286E:  DECFSZ 00,F
02870:  BRA    286E
....................       output_low(RTC_SCLK); 
02872:  BCF    F96.1
02874:  BCF    F8D.1
....................       delay_us(20); 
02876:  MOVLW  21
02878:  MOVWF  00
0287A:  DECFSZ 00,F
0287C:  BRA    287A
....................    } 
0287E:  INCF   xFB,F
02880:  BRA    2852
....................    output_low(RTC_RST); 
02882:  BCF    F94.0
02884:  BCF    F8B.0
....................  
....................    return(data); 
02886:  MOVFF  3FC,01
.................... } 
0288A:  MOVLB  0
0288C:  RETLW  00
....................  
.................... void rtc_init() { 
....................    BYTE x; 
....................    output_low(RTC_RST); 
0288E:  BCF    F94.0
02890:  BCF    F8B.0
....................    delay_us(20); 
02892:  MOVLW  21
02894:  MOVWF  00
02896:  DECFSZ 00,F
02898:  BRA    2896
....................    output_low(RTC_SCLK); 
0289A:  BCF    F96.1
0289C:  BCF    F8D.1
....................    write_ds1302(0x8e,0); 
0289E:  MOVLW  8E
028A0:  MOVLB  3
028A2:  MOVWF  xFD
028A4:  CLRF   xFE
028A6:  MOVLB  0
028A8:  RCALL  2822
....................    write_ds1302(0x90,0xa4); 
028AA:  MOVLW  90
028AC:  MOVLB  3
028AE:  MOVWF  xFD
028B0:  MOVLW  A4
028B2:  MOVWF  xFE
028B4:  MOVLB  0
028B6:  RCALL  2822
....................    x=read_ds1302(0x81); 
028B8:  MOVLW  81
028BA:  MOVLB  3
028BC:  MOVWF  xFA
028BE:  MOVLB  0
028C0:  RCALL  2838
028C2:  MOVFF  01,3F6
....................    if((x & 0x80)!=0) 
028C6:  MOVLB  3
028C8:  MOVF   xF6,W
028CA:  ANDLW  80
028CC:  BZ    28DA
....................      write_ds1302(0x80,0); 
028CE:  MOVLW  80
028D0:  MOVWF  xFD
028D2:  CLRF   xFE
028D4:  MOVLB  0
028D6:  RCALL  2822
028D8:  MOVLB  3
.................... } 
028DA:  MOVLB  0
028DC:  GOTO   5ACC (RETURN)
....................  
.................... byte get_bcd(BYTE data) 
.................... { 
....................    byte nibh; 
....................    byte nibl; 
....................  
....................    nibh=data/10; 
*
04B1A:  MOVFF  3FC,3FF
04B1E:  MOVLW  0A
04B20:  MOVLB  4
04B22:  MOVWF  x00
04B24:  MOVLB  0
04B26:  RCALL  4610
04B28:  MOVFF  01,3FD
....................    nibl=data-(nibh*10); 
04B2C:  MOVLB  3
04B2E:  MOVF   xFD,W
04B30:  MULLW  0A
04B32:  MOVF   FF3,W
04B34:  SUBWF  xFC,W
04B36:  MOVWF  xFE
....................  
....................    return((nibh<<4)|nibl); 
04B38:  SWAPF  xFD,W
04B3A:  MOVWF  00
04B3C:  MOVLW  F0
04B3E:  ANDWF  00,F
04B40:  MOVF   00,W
04B42:  IORWF  xFE,W
04B44:  MOVWF  01
.................... } 
04B46:  MOVLB  0
04B48:  RETLW  00
....................  
.................... byte rm_bcd(BYTE data) 
.................... { 
....................    byte i; 
....................  
....................    i=data; 
*
044B0:  MOVFF  3FB,3FC
....................    data=(i>>4)*10; 
044B4:  MOVLB  3
044B6:  SWAPF  xFC,W
044B8:  MOVWF  00
044BA:  MOVLW  0F
044BC:  ANDWF  00,F
044BE:  MOVF   00,W
044C0:  MULLW  0A
044C2:  MOVFF  FF3,3FB
....................    data=data+(i<<4>>4); 
044C6:  SWAPF  xFC,W
044C8:  MOVWF  00
044CA:  MOVLW  F0
044CC:  ANDWF  00,F
044CE:  MOVF   00,W
044D0:  SWAPF  00,F
044D2:  MOVLW  0F
044D4:  ANDWF  00,F
044D6:  MOVF   00,W
044D8:  ADDWF  xFB,F
....................  
....................    return data; 
044DA:  MOVFF  3FB,01
.................... } 
044DE:  MOVLB  0
044E0:  RETLW  00
....................  
.................... void rtc_set_datetime(BYTE day, BYTE mth, BYTE year, BYTE dow, BYTE hr, BYTE min) { 
....................  
....................    write_ds1302(0x86,get_bcd(day)); 
*
04B4A:  MOVFF  3F6,3FC
04B4E:  RCALL  4B1A
04B50:  MOVFF  01,3FC
04B54:  MOVLW  86
04B56:  MOVLB  3
04B58:  MOVWF  xFD
04B5A:  MOVFF  01,3FE
04B5E:  MOVLB  0
04B60:  CALL   2822
....................    write_ds1302(0x88,get_bcd(mth)); 
04B64:  MOVFF  3F7,3FC
04B68:  RCALL  4B1A
04B6A:  MOVFF  01,3FC
04B6E:  MOVLW  88
04B70:  MOVLB  3
04B72:  MOVWF  xFD
04B74:  MOVFF  01,3FE
04B78:  MOVLB  0
04B7A:  CALL   2822
....................    write_ds1302(0x8c,get_bcd(year)); 
04B7E:  MOVFF  3F8,3FC
04B82:  RCALL  4B1A
04B84:  MOVFF  01,3FC
04B88:  MOVLW  8C
04B8A:  MOVLB  3
04B8C:  MOVWF  xFD
04B8E:  MOVFF  01,3FE
04B92:  MOVLB  0
04B94:  CALL   2822
....................    write_ds1302(0x8a,get_bcd(dow)); 
04B98:  MOVFF  3F9,3FC
04B9C:  RCALL  4B1A
04B9E:  MOVFF  01,3FC
04BA2:  MOVLW  8A
04BA4:  MOVLB  3
04BA6:  MOVWF  xFD
04BA8:  MOVFF  01,3FE
04BAC:  MOVLB  0
04BAE:  CALL   2822
....................    write_ds1302(0x84,get_bcd(hr)); 
04BB2:  MOVFF  3FA,3FC
04BB6:  RCALL  4B1A
04BB8:  MOVFF  01,3FC
04BBC:  MOVLW  84
04BBE:  MOVLB  3
04BC0:  MOVWF  xFD
04BC2:  MOVFF  01,3FE
04BC6:  MOVLB  0
04BC8:  CALL   2822
....................    write_ds1302(0x82,get_bcd(min)); 
04BCC:  MOVFF  3FB,3FC
04BD0:  RCALL  4B1A
04BD2:  MOVFF  01,3FC
04BD6:  MOVLW  82
04BD8:  MOVLB  3
04BDA:  MOVWF  xFD
04BDC:  MOVFF  01,3FE
04BE0:  MOVLB  0
04BE2:  CALL   2822
....................    write_ds1302(0x80,get_bcd(0)); 
04BE6:  MOVLB  3
04BE8:  CLRF   xFC
04BEA:  MOVLB  0
04BEC:  RCALL  4B1A
04BEE:  MOVFF  01,3FC
04BF2:  MOVLW  80
04BF4:  MOVLB  3
04BF6:  MOVWF  xFD
04BF8:  MOVFF  01,3FE
04BFC:  MOVLB  0
04BFE:  CALL   2822
.................... } 
04C02:  GOTO   8FAC (RETURN)
....................  
.................... void rtc_get_date(BYTE& day, BYTE& mth, BYTE& year, BYTE& dow) { 
....................    day = rm_bcd(read_ds1302(0x87)); 
*
05CD6:  MOVLW  87
05CD8:  MOVLB  3
05CDA:  MOVWF  xFA
05CDC:  MOVLB  0
05CDE:  CALL   2838
05CE2:  MOVFF  01,3F6
05CE6:  MOVFF  01,3FB
05CEA:  CALL   44B0
05CEE:  MOVFF  01,3C2
....................    mth = rm_bcd(read_ds1302(0x89)); 
05CF2:  MOVLW  89
05CF4:  MOVLB  3
05CF6:  MOVWF  xFA
05CF8:  MOVLB  0
05CFA:  CALL   2838
05CFE:  MOVFF  01,3F6
05D02:  MOVFF  01,3FB
05D06:  CALL   44B0
05D0A:  MOVFF  01,3C1
....................    year = rm_bcd(read_ds1302(0x8d)); 
05D0E:  MOVLW  8D
05D10:  MOVLB  3
05D12:  MOVWF  xFA
05D14:  MOVLB  0
05D16:  CALL   2838
05D1A:  MOVFF  01,3F6
05D1E:  MOVFF  01,3FB
05D22:  CALL   44B0
05D26:  MOVFF  01,3C0
....................    dow = rm_bcd(read_ds1302(0x8b)); 
05D2A:  MOVLW  8B
05D2C:  MOVLB  3
05D2E:  MOVWF  xFA
05D30:  MOVLB  0
05D32:  CALL   2838
05D36:  MOVFF  01,3F6
05D3A:  MOVFF  01,3FB
05D3E:  CALL   44B0
05D42:  MOVFF  01,3C6
.................... } 
....................  
.................... void rtc_get_time(BYTE& hr, BYTE& min, BYTE& sec) { 
....................    hr = rm_bcd(read_ds1302(0x85)); 
05D46:  MOVLW  85
05D48:  MOVLB  3
05D4A:  MOVWF  xFA
05D4C:  MOVLB  0
05D4E:  CALL   2838
05D52:  MOVFF  01,3F6
05D56:  MOVFF  01,3FB
05D5A:  CALL   44B0
05D5E:  MOVFF  01,3C3
....................    min = rm_bcd(read_ds1302(0x83)); 
05D62:  MOVLW  83
05D64:  MOVLB  3
05D66:  MOVWF  xFA
05D68:  MOVLB  0
05D6A:  CALL   2838
05D6E:  MOVFF  01,3F6
05D72:  MOVFF  01,3FB
05D76:  CALL   44B0
05D7A:  MOVFF  01,3C4
....................    sec = rm_bcd(read_ds1302(0x81)); 
05D7E:  MOVLW  81
05D80:  MOVLB  3
05D82:  MOVWF  xFA
05D84:  MOVLB  0
05D86:  CALL   2838
05D8A:  MOVFF  01,3F6
05D8E:  MOVFF  01,3FB
05D92:  CALL   44B0
05D96:  MOVFF  01,3C5
.................... } 
....................  
.................... void rtc_write_nvr(BYTE address, BYTE data) { 
....................    write_ds1302(address|0xc0,data); 
.................... } 
....................  
.................... BYTE rtc_read_nvr(BYTE address) { 
....................     return(read_ds1302(address|0xc1)); 
.................... } 
....................  
....................  
.................... #define   UP            !input(PIN_B6) 
.................... #define   DOWN          !input(PIN_B5) 
.................... #define   RIGHT         !input(PIN_B4) 
.................... #define   LEFT          !input(PIN_B3) 
....................  
.................... #define   DOOR          !input(PIN_B2) 
.................... #define   STOP          !input(PIN_B1) 
.................... #define   TERM          !input(PIN_B0) 
.................... #define   PRES          !input(PIN_A4) 
....................  
.................... #define   HIG           input(PIN_A5) 
.................... #define   LOW           input(PIN_E0) 
....................  
.................... #define   SSR_on           output_bit(PIN_C1,0) 
.................... #define   SSR_off          output_bit(PIN_C1,1) 
....................  
.................... #define   Buzzer_on        output_bit(PIN_C5,1) 
.................... #define   Buzzer_off       output_bit(PIN_C5,0) 
....................  
.................... #define   Solenoide_on     output_bit(PIN_D0,1) 
.................... #define   Solenoide_off    output_bit(PIN_D0,0) 
....................  
.................... #define   Desfogue_on      output_bit(PIN_D2,0) 
.................... #define   Desfogue_off     output_bit(PIN_D2,1) 
....................  
.................... #define   AguaIn_on        output_bit(PIN_D4,0) 
.................... #define   AguaIn_off       output_bit(PIN_D4,1) 
....................  
.................... #define   Paso_on          output_bit(PIN_D3,0) 
.................... #define   Paso_off         output_bit(PIN_D3,1) 
....................  
.................... #define OFF 0 
.................... #define ON  1 
.................... #define RX_BUFFER_SIZE  10 
.................... char Rx_Buffer[RX_BUFFER_SIZE+1]; 
.................... char Rx_Buffer2[RX_BUFFER_SIZE+1]; 
.................... char RX_Wr_Index=0; 
.................... char RX_Rd_Index=0; 
.................... char RX_Counter=0; 
.................... int1 RX_Buffer_Overflow=0; 
....................  
.................... #define TX_BUFFER_SIZE  24 
.................... char Tx_Buffer[TX_BUFFER_SIZE+1]; 
.................... char TX_Wr_Index=0; 
.................... char TX_Rd_Index=0; 
.................... char TX_Counter=0; 
.................... //int1 RX_Buffer_Overflow=0; 
....................  
.................... //Comunicacion//------------------------ 
.................... byte txbuf[0X20]; 
.................... byte SlaveA0Tx[0X20]; 
.................... byte dato=0;            //Contendr la informacin a enviar o recibir 
.................... byte direccion=0;       //Contendr la direccin del esclavo en el bus I2C 
.................... byte posicion=0;        //Contendr la posicin en el buffer de memoria del esclavo donde se almacenar o de donde se recuperar el dato 
.................... byte ByteConfig1=0,ByteConfig2=0,ByteConfig3=0; 
....................  
.................... /* Tabla de Modulos, Primera Fila Ao Regular y el siguiente ao Bisiesto 
.................... E   F   M   A   M   J   J   A   S   O   N   D 
.................... 0   3   3   6   1   4   6   2   5   0   3   5 
.................... 0   3   4   0   2   5   0   3   6   1   4   6 
.................... */ 
.................... int8 Regular[12]={0,3,3,6,1,4,6,2,5,0,3,5}; 
.................... int8 Bisiesto[12]={0,3,4,0,2,5,0,3,6,1,4,6}; 
....................  
.................... //Alarmas//--------------------- 
.................... short AlarmaTiempoProlongado=OFF,AlarmaSobreTemperatura=OFF,AlarmaLlenado=OFF,AlarmaTermostato=OFF,AlarmaPuerta=OFF,AlarmaEmergencia=OFF; 
....................  
.................... //Banderas//-------------------- 
.................... short IniciaLlenado=OFF,CalderinLleno=OFF,IniciaCiclo=OFF,Esterilizando=OFF,Secando=OFF,SensadoNivel=OFF,Desfogando=OFF,DesfogueSuave=OFF; 
.................... short EstadoDesfogue=OFF,EstadoAgua=OFF,EstadoSSR=OFF,PruebaEstados=OFF,disp_Guarda=OFF,Ciclo=OFF,flagCalentando=OFF,flagEsterilizando=OFF; 
.................... short flagDesfogando=OFF,Op=OFF,Op2=OFF,Minutos=OFF,Segundos=OFF,GuardaEEPROM=OFF,EstadoPaso=OFF,EstadoBloqueo=OFF,EstadoBuzzer=OFF,flagAlarma=OFF; 
.................... short flagBuzzer=OFF,flagSilencio=OFF,Finalizo=OFF,AlarmaPresion=OFF; 
....................  
.................... //Tiempos//--------------------- 
.................... int16 TiempoCiclo=0,TiempoLlenado=0,TiempoSensadoNivel=0,Tp=0,Tc=0; 
.................... signed int  Testerilizacion[4]={0,0,0,0};   // Tiempo transcurrido 
.................... signed int  Testerilizacionp[4]={0,0,0,0};   // Tiempo transcurrido 
.................... signed int  Tsecado[4]={0,0,0,0};   // Tiempo transcurrido 
.................... signed int  Tsecadop[4]={0,0,0,0};   // Tiempo transcurrido 
....................  
.................... //Control//------------------------ 
.................... float promedio[80]={0.0,0.0,0.0,0.0,0.0,0.0,0.0,0.0,0.0,0.0,0.0,0.0,0.0,0.0,0.0,0.0,0.0,0.0,0.0,0.0,0.0,0.0,0.0,0.0,0.0,0.0,0.0,0.0,0.0,0.0,0.0,0.0,0.0,0.0,0.0,0.0,0.0,0.0,0.0,0.0,0.0,0.0,0.0,0.0,0.0,0.0,0.0,0.0,0.0,0.0,0.0,0.0,0.0,0.0,0.0,0.0,0.0,0.0,0.0,0.0,0.0,0.0,0.0,0.0}; 
.................... float PromPresion[20]={0.0,0.0,0.0,0.0,0.0,0.0,0.0,0.0,0.0,0.0,0.0,0.0,0.0,0.0,0.0,0.0,0.0,0.0,0.0,0.0}; 
.................... float PromPresionp[20]={0.0,0.0,0.0,0.0,0.0,0.0,0.0,0.0,0.0,0.0,0.0,0.0,0.0,0.0,0.0,0.0,0.0,0.0,0.0,0.0}; 
.................... float Gain=141.6,RPT100=0.5,Temporal=0.0; 
.................... float R1=100,R2=3000,R3=100,R4=3000,R5=100,R6=3000,R7=3000,R8=3100,R9=3100,R10=3100,AN=0,BN=0; 
.................... float X[2]={0.0,0.0}; 
.................... float promediopresion=0.0,Aumento=0.0,promediopresionp=0.0; 
.................... int8 h=0,l=0,Ajuste=0,Ajusten=0,MediaMovil=20,TTrampa=0,n=0,PantallaPrincipal=0,TipoClave=0,Modulo=0,Digito=0; 
.................... float V0=0.0,Pt,Tciclo=10.0,Tpulso=0.0,error=0.0,Prom=0.0,Temperature=0.0,tmp=0.0,Ganancia=25.0,Ganancia2=20.0,desvio=1.0; 
.................... float V1=0.0,Presion=0.0,V2=0.0,Presionp=0.0; 
.................... float Temperatura=0.0,K=0.0012858,Pc=0.0,Pp=0.0; 
.................... float a=0.0011,b=2.3302,c=-244.0723; 
.................... int8 Integral=0,Derivativo=0; 
....................  
.................... //Varios//-------------------------------- 
.................... char kpa[]="kPa"; 
.................... short Flanco=0,Flanco1=0,Flanco2=0,visual=1,desfoguelento=0,Lectura=0,Grafica=0; 
.................... short disp_Stop=0,flagTC=0,flagPersonalizado=0,flagImprime=0,flagImprimir=0; 
.................... int8 Control=0,tiemporecta=0,Controlando=0,ActivaImpresion=1,timpresion=2,CalculoImpresion=0,Inicio=1,Dato_Exitoso=0,Dato2=0,z=0; 
.................... int8 Menu=0, MenuAnt=0,MenuAntt=240,unidad=1,i=0,CiclosL=0,CiclosH=0,CicloSeleccionado=0; 
.................... int8 Setpoint=0,Opcion=1,Opcion2=1,tiempo_esterilizacion=0,tiempo_secado=0,tiempoImpresion=0; 
.................... int16 tiempos=0,tiempos2=0,tiempos3=0,tiempoctrl=0,Nivel=0,tinicio=0,PresionCamara=0,PresionPreCamara=0,Ciclos=0,NivelSeleccionado=0; 
.................... signed int  Contrasena[4]={0,0,0,0};      // Contrasena de 4 digitos 
.................... signed int  Password[4]={0,0,0,0};        // Contrasena Almacenada de 4 digitos 
.................... int16 passw=0; 
.................... int8 r=0,t=0,r22=0,t2=0,TiempoControl=0; 
.................... int8 y=0,ConteoBuzzer=0; 
.................... int16 t_exhaust=0,tbuzzer=0,tsilencio=0; 
.................... int8 Year=18,Mes=9,Dia=13,Hora=0,Minuto=0,Segundo=0,dow=0; 
.................... int8 YearTx=0,MesTx=0,DiaTx=0,HoraTx=0,MinutoTx=0,SegundoTx=0,dowTx=0,SetTime=0,Imprime=0; 
.................... signed int8 G1=0,G2=0,sg1=0,sg2=0; 
....................  
.................... typedef struct{ 
....................    char Letra[30]; 
....................    char Estado[4]; 
.................... }MENUU; 
....................  
.................... MENUU Menus; 
....................  
.................... #include "Funciones.h" 
.................... void BorraBuffer(void){ 
.................... RX_Buffer[0]=0; 
*
045B2:  CLRF   30
.................... RX_Buffer[1]=0; 
045B4:  CLRF   31
.................... RX_Buffer[2]=0; 
045B6:  CLRF   32
.................... RX_Buffer[3]=0; 
045B8:  CLRF   33
.................... RX_Buffer[4]=0; 
045BA:  CLRF   34
.................... RX_Buffer[5]=0; 
045BC:  CLRF   35
.................... RX_Buffer[6]=0; 
045BE:  CLRF   36
.................... RX_Buffer[7]=0; 
045C0:  CLRF   37
.................... RX_Buffer[8]=0; 
045C2:  CLRF   38
.................... RX_Buffer[9]=0; 
045C4:  CLRF   39
....................  
.................... RX_Buffer2[0]=0; 
045C6:  CLRF   3B
.................... RX_Buffer2[1]=0; 
045C8:  CLRF   3C
.................... RX_Buffer2[2]=0; 
045CA:  CLRF   3D
.................... RX_Buffer2[3]=0; 
045CC:  CLRF   3E
.................... RX_Buffer2[4]=0; 
045CE:  CLRF   3F
.................... RX_Buffer2[5]=0; 
045D0:  CLRF   40
.................... RX_Buffer2[6]=0; 
045D2:  CLRF   41
.................... RX_Buffer2[7]=0; 
045D4:  CLRF   42
.................... RX_Buffer2[8]=0; 
045D6:  CLRF   43
.................... RX_Buffer2[9]=0; 
045D8:  CLRF   44
....................  
.................... } 
045DA:  GOTO   5DFE (RETURN)
....................  
.................... char bgetc(void){ 
....................    char c; 
....................    while(RX_Counter==0) 
....................       ; 
....................    c=Rx_Buffer2[RX_Rd_Index]; 
....................    if(++RX_Rd_Index>RX_BUFFER_SIZE) 
....................       RX_Rd_Index=0; 
....................    if(RX_Counter) 
....................       RX_Counter--; 
....................    return c; 
.................... } 
....................  
.................... void bputc(char c){ 
....................    char restart=0; 
....................    while(TX_Counter> (TX_BUFFER_SIZE-1)) 
....................       ; 
....................    if(TX_Counter==0) 
....................       restart=1; 
....................    TX_Buffer[TX_Wr_Index++]=c; 
....................    if(TX_Wr_Index>TX_BUFFER_SIZE) 
....................       TX_Wr_Index=0; 
....................     
....................    TX_Counter++; 
....................     
....................    if(restart==1) 
....................       enable_interrupts(int_tbe); 
.................... } 
....................  
.................... void SendDataDisplay(void){ 
.................... delay_us(10); 
*
0342A:  MOVLW  10
0342C:  MOVWF  00
0342E:  DECFSZ 00,F
03430:  BRA    342E
03432:  NOP   
.................... putc(0xFF); 
03434:  MOVLW  FF
03436:  RCALL  3422
.................... delay_us(10); 
03438:  MOVLW  10
0343A:  MOVWF  00
0343C:  DECFSZ 00,F
0343E:  BRA    343C
03440:  NOP   
.................... putc(0xFF); 
03442:  MOVLW  FF
03444:  RCALL  3422
.................... delay_us(10); 
03446:  MOVLW  10
03448:  MOVWF  00
0344A:  DECFSZ 00,F
0344C:  BRA    344A
0344E:  NOP   
.................... putc(0xFF); 
03450:  MOVLW  FF
03452:  RCALL  3422
.................... delay_us(10); 
03454:  MOVLW  10
03456:  MOVWF  00
03458:  DECFSZ 00,F
0345A:  BRA    3458
0345C:  NOP   
.................... } 
0345E:  RETLW  00
....................  
.................... short esBisiesto(int8 year) { 
....................      return ((year % 4 == 0 && year % 100 != 0) || year % 400 == 0); 
*
04AC6:  MOVLB  3
04AC8:  MOVF   xF6,W
04ACA:  ANDLW  03
04ACC:  BNZ   4AE2
04ACE:  MOVFF  3F6,3FF
04AD2:  MOVLW  64
04AD4:  MOVLB  4
04AD6:  MOVWF  x00
04AD8:  MOVLB  0
04ADA:  RCALL  4610
04ADC:  MOVF   00,F
04ADE:  BNZ   4B10
04AE0:  MOVLB  3
04AE2:  CLRF   xF8
04AE4:  MOVFF  3F6,3F7
04AE8:  MOVLW  01
04AEA:  MOVWF  xFA
04AEC:  MOVLW  90
04AEE:  MOVWF  xF9
04AF0:  MOVLB  0
04AF2:  BRA    4A7E
04AF4:  MOVFF  00,3F7
04AF8:  MOVLB  3
04AFA:  MOVFF  03,3F8
04AFE:  MOVF   xF7,F
04B00:  BNZ   4B0C
04B02:  MOVF   xF8,F
04B04:  BTFSS  FD8.2
04B06:  BRA    4B0C
04B08:  MOVLB  0
04B0A:  BRA    4B10
04B0C:  MOVLW  00
04B0E:  BRA    4B14
04B10:  MOVLW  01
04B12:  MOVLB  3
04B14:  MOVWF  01
.................... } 
04B16:  MOVLB  0
04B18:  RETLW  00
....................  
.................... void LimitaDia(){ 
....................    if(MesTx>12) 
*
04C06:  MOVLB  3
04C08:  MOVF   xC8,W
04C0A:  SUBLW  0C
04C0C:  BC    4C12
....................       MesTx=10; 
04C0E:  MOVLW  0A
04C10:  MOVWF  xC8
....................    if(DiaTx>31) 
04C12:  MOVF   xC9,W
04C14:  SUBLW  1F
04C16:  BC    4C1C
....................       DiaTx=16; 
04C18:  MOVLW  10
04C1A:  MOVWF  xC9
....................    if(YearTx>99) 
04C1C:  MOVF   xC7,W
04C1E:  SUBLW  63
04C20:  BC    4C26
....................       YearTx=18;    
04C22:  MOVLW  12
04C24:  MOVWF  xC7
....................    if(HoraTx>24) 
04C26:  MOVF   xCA,W
04C28:  SUBLW  18
04C2A:  BC    4C30
....................       HoraTx=11;       
04C2C:  MOVLW  0B
04C2E:  MOVWF  xCA
....................    if(MinutoTx>59) 
04C30:  MOVF   xCB,W
04C32:  SUBLW  3B
04C34:  BC    4C3A
....................       MinutoTx=30;       
04C36:  MOVLW  1E
04C38:  MOVWF  xCB
....................     
....................       if(MesTx==2){ 
04C3A:  MOVF   xC8,W
04C3C:  SUBLW  02
04C3E:  BNZ   4C6A
....................          if(esBisiesto(YearTx)){ 
04C40:  MOVFF  3C7,3F6
04C44:  MOVLB  0
04C46:  RCALL  4AC6
04C48:  MOVF   01,F
04C4A:  BZ    4C5C
....................             if(DiaTx>29){ 
04C4C:  MOVLB  3
04C4E:  MOVF   xC9,W
04C50:  SUBLW  1D
04C52:  BC    4C58
....................                DiaTx=29; 
04C54:  MOVLW  1D
04C56:  MOVWF  xC9
....................                //glcd_fillScreen(OFF); 
....................             } 
....................          }else{ 
04C58:  BRA    4C68
04C5A:  MOVLB  0
....................             if(DiaTx>28){ 
04C5C:  MOVLB  3
04C5E:  MOVF   xC9,W
04C60:  SUBLW  1C
04C62:  BC    4C68
....................                DiaTx=28; 
04C64:  MOVLW  1C
04C66:  MOVWF  xC9
....................                //glcd_fillScreen(OFF); 
....................             } 
....................          } 
....................       }else{ 
04C68:  BRA    4C94
....................          if(MesTx<=7){ 
04C6A:  MOVF   xC8,W
04C6C:  SUBLW  07
04C6E:  BNC   4C82
....................             if(MesTx % 2 ==0){ 
04C70:  MOVF   xC8,W
04C72:  ANDLW  01
04C74:  BNZ   4C80
....................                if(DiaTx>30){ 
04C76:  MOVF   xC9,W
04C78:  SUBLW  1E
04C7A:  BC    4C80
....................                   DiaTx=30;  
04C7C:  MOVLW  1E
04C7E:  MOVWF  xC9
....................                   //glcd_fillScreen(OFF); 
....................                } 
....................             } 
....................          }else{ 
04C80:  BRA    4C94
....................             if(MesTx % 2 ==1){ 
04C82:  MOVF   xC8,W
04C84:  ANDLW  01
04C86:  SUBLW  01
04C88:  BNZ   4C94
....................                if(DiaTx>30){ 
04C8A:  MOVF   xC9,W
04C8C:  SUBLW  1E
04C8E:  BC    4C94
....................                   DiaTx=30;  
04C90:  MOVLW  1E
04C92:  MOVWF  xC9
....................                   //glcd_fillScreen(OFF); 
....................                } 
....................             } 
....................          } 
....................       } 
.................... } 
04C94:  MOVLB  0
04C96:  GOTO   91FC (RETURN)
....................  
.................... void ActualizaRecta(){ 
....................    X[y]=Temperature; 
04C9A:  MOVLB  3
04C9C:  MOVF   xB8,W
04C9E:  MULLW  04
04CA0:  MOVF   FF3,W
04CA2:  CLRF   03
04CA4:  ADDLW  FE
04CA6:  MOVWF  FE9
04CA8:  MOVLW  02
04CAA:  ADDWFC 03,W
04CAC:  MOVWF  FEA
04CAE:  MOVFF  335,FEF
04CB2:  MOVFF  336,FEC
04CB6:  MOVFF  337,FEC
04CBA:  MOVFF  338,FEC
....................    y++; 
04CBE:  INCF   xB8,F
....................    if(y>=2) 
04CC0:  MOVF   xB8,W
04CC2:  SUBLW  01
04CC4:  BC    4D02
....................    { 
....................       y=0; 
04CC6:  CLRF   xB8
....................       Aumento=X[1]-X[0]; 
04CC8:  BSF    FD8.1
04CCA:  MOVFF  305,404
04CCE:  MOVFF  304,403
04CD2:  MOVFF  303,402
04CD6:  MOVFF  302,401
04CDA:  MOVFF  301,408
04CDE:  MOVFF  300,407
04CE2:  MOVFF  2FF,406
04CE6:  MOVFF  2FE,405
04CEA:  MOVLB  0
04CEC:  CALL   1DB0
04CF0:  MOVFF  03,30D
04CF4:  MOVFF  02,30C
04CF8:  MOVFF  01,30B
04CFC:  MOVFF  00,30A
04D00:  MOVLB  3
....................    } 
.................... } 
04D02:  MOVLB  0
04D04:  GOTO   4D82 (RETURN)
....................  
.................... // Funcion para conversor analogo-digital 
.................... float sensores(int x){ 
.................... float y;set_adc_channel(x);delay_ms(1);y=read_adc();return (y); 
*
03480:  MOVLB  3
03482:  RLCF   xF7,W
03484:  MOVWF  00
03486:  RLCF   00,F
03488:  MOVLW  FC
0348A:  ANDWF  00,F
0348C:  MOVFF  00,01
03490:  MOVF   FC2,W
03492:  ANDLW  C3
03494:  IORWF  00,W
03496:  MOVWF  FC2
03498:  MOVLW  01
0349A:  MOVLB  4
0349C:  MOVWF  x01
0349E:  MOVLB  0
034A0:  CALL   1BD4
034A4:  BSF    FC2.1
034A6:  BTFSC  FC2.1
034A8:  BRA    34A6
034AA:  MOVFF  FC4,402
034AE:  MOVFF  FC3,401
034B2:  MOVLB  0
034B4:  CALL   1BFC
034B8:  MOVFF  03,3FB
034BC:  MOVFF  02,3FA
034C0:  MOVFF  01,3F9
034C4:  MOVFF  00,3F8
034C8:  MOVFF  3F8,00
034CC:  MOVFF  3F9,01
034D0:  MOVFF  3FA,02
034D4:  MOVFF  3FB,03
.................... } 
034D8:  RETLW  00
.................... float LeerPT100(int media) 
.................... { 
....................    Prom=0.0; 
*
035F2:  MOVLB  3
035F4:  CLRF   x34
035F6:  CLRF   x33
035F8:  CLRF   x32
035FA:  CLRF   x31
....................    V0 = sensores(0);   //Lectura de Divisor de Voltaje de PT100 con resistencia de 6.18k (+-2%) 
035FC:  CLRF   xF7
035FE:  MOVLB  0
03600:  RCALL  3480
03602:  MOVFF  03,320
03606:  MOVFF  02,31F
0360A:  MOVFF  01,31E
0360E:  MOVFF  00,31D
....................    V0 = V0/154.6; // Se elimina la ganancia 
03612:  MOVFF  320,3FE
03616:  MOVFF  31F,3FD
0361A:  MOVFF  31E,3FC
0361E:  MOVFF  31D,3FB
03622:  MOVLW  9A
03624:  MOVLB  4
03626:  MOVWF  x02
03628:  MOVLW  99
0362A:  MOVWF  x01
0362C:  MOVLW  1A
0362E:  MOVWF  x00
03630:  MOVLW  86
03632:  MOVLB  3
03634:  MOVWF  xFF
03636:  MOVLB  0
03638:  CALL   1C32
0363C:  MOVFF  03,320
03640:  MOVFF  02,31F
03644:  MOVFF  01,31E
03648:  MOVFF  00,31D
....................    AN=1023*(R8+R9); 
0364C:  BCF    FD8.1
0364E:  MOVFF  2ED,404
03652:  MOVFF  2EC,403
03656:  MOVFF  2EB,402
0365A:  MOVFF  2EA,401
0365E:  MOVFF  2F1,408
03662:  MOVFF  2F0,407
03666:  MOVFF  2EF,406
0366A:  MOVFF  2EE,405
0366E:  CALL   1DB0
03672:  MOVLB  4
03674:  CLRF   x10
03676:  MOVLW  C0
03678:  MOVWF  x0F
0367A:  MOVLW  7F
0367C:  MOVWF  x0E
0367E:  MOVLW  88
03680:  MOVWF  x0D
03682:  MOVFF  03,414
03686:  MOVFF  02,413
0368A:  MOVFF  01,412
0368E:  MOVFF  00,411
03692:  MOVLB  0
03694:  RCALL  34DA
03696:  MOVFF  03,2F9
0369A:  MOVFF  02,2F8
0369E:  MOVFF  01,2F7
036A2:  MOVFF  00,2F6
....................    BN=(V0*(R8+R9))+(1023*R9); 
036A6:  BCF    FD8.1
036A8:  MOVFF  2ED,404
036AC:  MOVFF  2EC,403
036B0:  MOVFF  2EB,402
036B4:  MOVFF  2EA,401
036B8:  MOVFF  2F1,408
036BC:  MOVFF  2F0,407
036C0:  MOVFF  2EF,406
036C4:  MOVFF  2EE,405
036C8:  CALL   1DB0
036CC:  MOVFF  320,410
036D0:  MOVFF  31F,40F
036D4:  MOVFF  31E,40E
036D8:  MOVFF  31D,40D
036DC:  MOVFF  03,414
036E0:  MOVFF  02,413
036E4:  MOVFF  01,412
036E8:  MOVFF  00,411
036EC:  RCALL  34DA
036EE:  MOVFF  00,3F7
036F2:  MOVFF  01,3F8
036F6:  MOVFF  02,3F9
036FA:  MOVFF  03,3FA
036FE:  MOVLB  4
03700:  CLRF   x10
03702:  MOVLW  C0
03704:  MOVWF  x0F
03706:  MOVLW  7F
03708:  MOVWF  x0E
0370A:  MOVLW  88
0370C:  MOVWF  x0D
0370E:  MOVFF  2F1,414
03712:  MOVFF  2F0,413
03716:  MOVFF  2EF,412
0371A:  MOVFF  2EE,411
0371E:  MOVLB  0
03720:  RCALL  34DA
03722:  BCF    FD8.1
03724:  MOVFF  3FA,404
03728:  MOVFF  3F9,403
0372C:  MOVFF  3F8,402
03730:  MOVFF  3F7,401
03734:  MOVFF  03,408
03738:  MOVFF  02,407
0373C:  MOVFF  01,406
03740:  MOVFF  00,405
03744:  CALL   1DB0
03748:  MOVFF  03,2FD
0374C:  MOVFF  02,2FC
03750:  MOVFF  01,2FB
03754:  MOVFF  00,2FA
....................    Pt=(R10/((AN/BN)-1))-R7; 
03758:  MOVFF  2F9,3FE
0375C:  MOVFF  2F8,3FD
03760:  MOVFF  2F7,3FC
03764:  MOVFF  2F6,3FB
03768:  MOVFF  2FD,402
0376C:  MOVFF  2FC,401
03770:  MOVFF  2FB,400
03774:  MOVFF  2FA,3FF
03778:  CALL   1C32
0377C:  MOVFF  00,3F7
03780:  MOVFF  01,3F8
03784:  MOVFF  02,3F9
03788:  MOVFF  03,3FA
0378C:  BSF    FD8.1
0378E:  MOVFF  03,404
03792:  MOVFF  02,403
03796:  MOVFF  01,402
0379A:  MOVFF  00,401
0379E:  MOVLB  4
037A0:  CLRF   x08
037A2:  CLRF   x07
037A4:  CLRF   x06
037A6:  MOVLW  7F
037A8:  MOVWF  x05
037AA:  MOVLB  0
037AC:  CALL   1DB0
037B0:  MOVFF  2F5,3FE
037B4:  MOVFF  2F4,3FD
037B8:  MOVFF  2F3,3FC
037BC:  MOVFF  2F2,3FB
037C0:  MOVFF  03,402
037C4:  MOVFF  02,401
037C8:  MOVFF  01,400
037CC:  MOVFF  00,3FF
037D0:  CALL   1C32
037D4:  MOVFF  00,3F7
037D8:  MOVFF  01,3F8
037DC:  MOVFF  02,3F9
037E0:  MOVFF  03,3FA
037E4:  BSF    FD8.1
037E6:  MOVFF  03,404
037EA:  MOVFF  02,403
037EE:  MOVFF  01,402
037F2:  MOVFF  00,401
037F6:  MOVFF  2E9,408
037FA:  MOVFF  2E8,407
037FE:  MOVFF  2E7,406
03802:  MOVFF  2E6,405
03806:  CALL   1DB0
0380A:  MOVFF  03,324
0380E:  MOVFF  02,323
03812:  MOVFF  01,322
03816:  MOVFF  00,321
....................    //Pt=(R1)/((1024.0/V0)-1.0); // Se calcula el valor de la PT100 
....................    Pt=Pt-RPT100; //Ajuste de impedancia de cableado de PT100 
0381A:  BSF    FD8.1
0381C:  MOVFF  324,404
03820:  MOVFF  323,403
03824:  MOVFF  322,402
03828:  MOVFF  321,401
0382C:  MOVFF  2C9,408
03830:  MOVFF  2C8,407
03834:  MOVFF  2C7,406
03838:  MOVFF  2C6,405
0383C:  CALL   1DB0
03840:  MOVFF  03,324
03844:  MOVFF  02,323
03848:  MOVFF  01,322
0384C:  MOVFF  00,321
....................    //Temperature=(Pt-100.0)/(0.385);  // Ecuacin determinada por linealizacin en Matlab. Revisar este polinomio.   
....................              
....................    if(l>(media-1)) 
03850:  MOVLW  01
03852:  MOVLB  3
03854:  SUBWF  xF6,W
03856:  SUBWF  x13,W
03858:  BZ    385E
0385A:  BNC   385E
....................    {l=0;} 
0385C:  CLRF   x13
....................    //promedio[l]=Temperature;l++; 
....................    promedio[l]=Pt;l++; 
0385E:  CLRF   xF8
03860:  MOVFF  313,3F7
03864:  CLRF   xFA
03866:  MOVLW  04
03868:  MOVWF  xF9
0386A:  MOVLB  0
0386C:  RCALL  35D0
0386E:  MOVF   01,W
03870:  ADDLW  E2
03872:  MOVWF  FE9
03874:  MOVLW  00
03876:  ADDWFC 02,W
03878:  MOVWF  FEA
0387A:  MOVFF  321,FEF
0387E:  MOVFF  322,FEC
03882:  MOVFF  323,FEC
03886:  MOVFF  324,FEC
0388A:  MOVLB  3
0388C:  INCF   x13,F
....................           
....................    for(h=0;h<media;h++) 
0388E:  CLRF   x12
03890:  MOVF   xF6,W
03892:  SUBWF  x12,W
03894:  BC    3912
....................    { 
....................       Prom+=promedio[h]; 
03896:  CLRF   xF8
03898:  MOVFF  312,3F7
0389C:  CLRF   xFA
0389E:  MOVLW  04
038A0:  MOVWF  xF9
038A2:  MOVLB  0
038A4:  RCALL  35D0
038A6:  MOVFF  02,03
038AA:  MOVF   01,W
038AC:  ADDLW  E2
038AE:  MOVWF  FE9
038B0:  MOVLW  00
038B2:  ADDWFC 02,W
038B4:  MOVWF  FEA
038B6:  MOVFF  FEF,00
038BA:  MOVFF  FEC,01
038BE:  MOVFF  FEC,02
038C2:  MOVFF  FEC,03
038C6:  MOVFF  FEA,3F8
038CA:  MOVFF  FE9,3F7
038CE:  BCF    FD8.1
038D0:  MOVFF  334,404
038D4:  MOVFF  333,403
038D8:  MOVFF  332,402
038DC:  MOVFF  331,401
038E0:  MOVFF  03,408
038E4:  MOVFF  02,407
038E8:  MOVFF  01,406
038EC:  MOVFF  00,405
038F0:  CALL   1DB0
038F4:  MOVFF  3F8,FEA
038F8:  MOVFF  3F7,FE9
038FC:  MOVFF  03,334
03900:  MOVFF  02,333
03904:  MOVFF  01,332
03908:  MOVFF  00,331
....................    }  
0390C:  MOVLB  3
0390E:  INCF   x12,F
03910:  BRA    3890
....................    Prom=Prom/media;    
03912:  MOVLB  4
03914:  CLRF   x02
03916:  MOVFF  3F6,401
0391A:  MOVLB  0
0391C:  CALL   1BFC
03920:  MOVFF  334,3FE
03924:  MOVFF  333,3FD
03928:  MOVFF  332,3FC
0392C:  MOVFF  331,3FB
03930:  MOVFF  03,402
03934:  MOVFF  02,401
03938:  MOVFF  01,400
0393C:  MOVFF  00,3FF
03940:  CALL   1C32
03944:  MOVFF  03,334
03948:  MOVFF  02,333
0394C:  MOVFF  01,332
03950:  MOVFF  00,331
....................    //Temperature=(Prom-100.0)/(0.385);  // Ecuacin determinada por linealizacin en Matlab. Revisar este polinomio.   
....................    Temperature=((Prom*Prom)*a)+(Prom*b)+c;  // Ecuacin determinada por linealizacin en Matlab. Revisar este polinomio. 
03954:  MOVFF  334,410
03958:  MOVFF  333,40F
0395C:  MOVFF  332,40E
03960:  MOVFF  331,40D
03964:  MOVFF  334,414
03968:  MOVFF  333,413
0396C:  MOVFF  332,412
03970:  MOVFF  331,411
03974:  RCALL  34DA
03976:  MOVFF  00,3F7
0397A:  MOVFF  01,3F8
0397E:  MOVFF  02,3F9
03982:  MOVFF  03,3FA
03986:  MOVFF  03,410
0398A:  MOVFF  02,40F
0398E:  MOVFF  01,40E
03992:  MOVFF  00,40D
03996:  MOVFF  36C,414
0399A:  MOVFF  36B,413
0399E:  MOVFF  36A,412
039A2:  MOVFF  369,411
039A6:  RCALL  34DA
039A8:  MOVFF  00,3F7
039AC:  MOVFF  01,3F8
039B0:  MOVFF  02,3F9
039B4:  MOVFF  03,3FA
039B8:  MOVFF  334,410
039BC:  MOVFF  333,40F
039C0:  MOVFF  332,40E
039C4:  MOVFF  331,40D
039C8:  MOVFF  370,414
039CC:  MOVFF  36F,413
039D0:  MOVFF  36E,412
039D4:  MOVFF  36D,411
039D8:  RCALL  34DA
039DA:  BCF    FD8.1
039DC:  MOVFF  3FA,404
039E0:  MOVFF  3F9,403
039E4:  MOVFF  3F8,402
039E8:  MOVFF  3F7,401
039EC:  MOVFF  03,408
039F0:  MOVFF  02,407
039F4:  MOVFF  01,406
039F8:  MOVFF  00,405
039FC:  CALL   1DB0
03A00:  MOVFF  00,3F7
03A04:  MOVFF  01,3F8
03A08:  MOVFF  02,3F9
03A0C:  MOVFF  03,3FA
03A10:  BCF    FD8.1
03A12:  MOVFF  03,404
03A16:  MOVFF  02,403
03A1A:  MOVFF  01,402
03A1E:  MOVFF  00,401
03A22:  MOVFF  374,408
03A26:  MOVFF  373,407
03A2A:  MOVFF  372,406
03A2E:  MOVFF  371,405
03A32:  CALL   1DB0
03A36:  MOVFF  03,338
03A3A:  MOVFF  02,337
03A3E:  MOVFF  01,336
03A42:  MOVFF  00,335
....................    Temperature+=((float)Ajuste-(float)Ajusten); 
03A46:  MOVLB  4
03A48:  CLRF   x02
03A4A:  MOVFF  314,401
03A4E:  MOVLB  0
03A50:  CALL   1BFC
03A54:  MOVFF  00,3F7
03A58:  MOVFF  01,3F8
03A5C:  MOVFF  02,3F9
03A60:  MOVFF  03,3FA
03A64:  MOVLB  4
03A66:  CLRF   x02
03A68:  MOVFF  315,401
03A6C:  MOVLB  0
03A6E:  CALL   1BFC
03A72:  BSF    FD8.1
03A74:  MOVFF  3FA,404
03A78:  MOVFF  3F9,403
03A7C:  MOVFF  3F8,402
03A80:  MOVFF  3F7,401
03A84:  MOVFF  03,408
03A88:  MOVFF  02,407
03A8C:  MOVFF  01,406
03A90:  MOVFF  00,405
03A94:  CALL   1DB0
03A98:  BCF    FD8.1
03A9A:  MOVFF  338,404
03A9E:  MOVFF  337,403
03AA2:  MOVFF  336,402
03AA6:  MOVFF  335,401
03AAA:  MOVFF  03,408
03AAE:  MOVFF  02,407
03AB2:  MOVFF  01,406
03AB6:  MOVFF  00,405
03ABA:  CALL   1DB0
03ABE:  MOVFF  03,338
03AC2:  MOVFF  02,337
03AC6:  MOVFF  01,336
03ACA:  MOVFF  00,335
....................    //Temperature-=39.0; 
....................     
....................    //return Prom; 
....................    return Temperature; 
03ACE:  MOVFF  335,00
03AD2:  MOVFF  336,01
03AD6:  MOVFF  337,02
03ADA:  MOVFF  338,03
.................... } 
03ADE:  RETLW  00
....................  
.................... float Leer_Sensor_Presion_Camara(int media){ 
....................    promediopresion=0.0; 
*
0402C:  MOVLB  3
0402E:  CLRF   x09
04030:  CLRF   x08
04032:  CLRF   x07
04034:  CLRF   x06
....................    V1 = sensores(2);   //Lectura de Divisor de Voltaje de PT100 con resistencia de 1k (+-10%) 
04036:  MOVLW  02
04038:  MOVWF  xF7
0403A:  MOVLB  0
0403C:  CALL   3480
04040:  MOVFF  03,34C
04044:  MOVFF  02,34B
04048:  MOVFF  01,34A
0404C:  MOVFF  00,349
....................    //V1 = V1*(5.0/1024.0); 
....................    //Presion=(V1-0.2)/(K); 
....................    Presion=(((V1+G1)/1023)-0.04)/K; 
04050:  MOVLB  3
04052:  CLRF   xF8
04054:  MOVFF  3D0,3F7
04058:  BTFSC  xF7.7
0405A:  DECF   xF8,F
0405C:  MOVLB  0
0405E:  RCALL  3FDC
04060:  BCF    FD8.1
04062:  MOVFF  34C,404
04066:  MOVFF  34B,403
0406A:  MOVFF  34A,402
0406E:  MOVFF  349,401
04072:  MOVFF  03,408
04076:  MOVFF  02,407
0407A:  MOVFF  01,406
0407E:  MOVFF  00,405
04082:  CALL   1DB0
04086:  MOVFF  00,3F7
0408A:  MOVFF  01,3F8
0408E:  MOVFF  02,3F9
04092:  MOVFF  03,3FA
04096:  MOVFF  03,3FE
0409A:  MOVFF  02,3FD
0409E:  MOVFF  01,3FC
040A2:  MOVFF  00,3FB
040A6:  MOVLB  4
040A8:  CLRF   x02
040AA:  MOVLW  C0
040AC:  MOVWF  x01
040AE:  MOVLW  7F
040B0:  MOVWF  x00
040B2:  MOVLW  88
040B4:  MOVLB  3
040B6:  MOVWF  xFF
040B8:  MOVLB  0
040BA:  CALL   1C32
040BE:  MOVFF  00,3F7
040C2:  MOVFF  01,3F8
040C6:  MOVFF  02,3F9
040CA:  MOVFF  03,3FA
040CE:  BSF    FD8.1
040D0:  MOVFF  03,404
040D4:  MOVFF  02,403
040D8:  MOVFF  01,402
040DC:  MOVFF  00,401
040E0:  MOVLW  0A
040E2:  MOVLB  4
040E4:  MOVWF  x08
040E6:  MOVLW  D7
040E8:  MOVWF  x07
040EA:  MOVLW  23
040EC:  MOVWF  x06
040EE:  MOVLW  7A
040F0:  MOVWF  x05
040F2:  MOVLB  0
040F4:  CALL   1DB0
040F8:  MOVFF  00,3F7
040FC:  MOVFF  01,3F8
04100:  MOVFF  02,3F9
04104:  MOVFF  03,3FA
04108:  MOVFF  03,3FE
0410C:  MOVFF  02,3FD
04110:  MOVFF  01,3FC
04114:  MOVFF  00,3FB
04118:  MOVFF  360,402
0411C:  MOVFF  35F,401
04120:  MOVFF  35E,400
04124:  MOVFF  35D,3FF
04128:  CALL   1C32
0412C:  MOVFF  03,350
04130:  MOVFF  02,34F
04134:  MOVFF  01,34E
04138:  MOVFF  00,34D
....................     
....................    if(Presion<0.0) 
0413C:  MOVFF  350,3FD
04140:  MOVFF  34F,3FC
04144:  MOVFF  34E,3FB
04148:  MOVFF  34D,3FA
0414C:  MOVLB  4
0414E:  CLRF   x01
04150:  CLRF   x00
04152:  MOVLB  3
04154:  CLRF   xFF
04156:  CLRF   xFE
04158:  MOVLB  0
0415A:  CALL   28E0
0415E:  BNC   416A
....................    { 
....................       Presion=0.0; 
04160:  MOVLB  3
04162:  CLRF   x50
04164:  CLRF   x4F
04166:  CLRF   x4E
04168:  CLRF   x4D
....................    } 
....................     
....................    if(r>media-1) 
0416A:  MOVLW  01
0416C:  MOVLB  3
0416E:  SUBWF  xF6,W
04170:  SUBWF  xB3,W
04172:  BZ    4178
04174:  BNC   4178
....................    {r=0;} 
04176:  CLRF   xB3
....................    PromPresion[r]=Presion;r++; 
04178:  MOVF   xB3,W
0417A:  MULLW  04
0417C:  MOVF   FF3,W
0417E:  CLRF   03
04180:  ADDLW  22
04182:  MOVWF  FE9
04184:  MOVLW  02
04186:  ADDWFC 03,W
04188:  MOVWF  FEA
0418A:  MOVFF  34D,FEF
0418E:  MOVFF  34E,FEC
04192:  MOVFF  34F,FEC
04196:  MOVFF  350,FEC
0419A:  INCF   xB3,F
....................           
....................    for(t=0;t<=(media-1);t++) 
0419C:  CLRF   xB4
0419E:  MOVLW  01
041A0:  SUBWF  xF6,W
041A2:  SUBWF  xB4,W
041A4:  BZ    41A8
041A6:  BC    4218
....................    { 
....................       promediopresion+=PromPresion[t]; 
041A8:  MOVF   xB4,W
041AA:  MULLW  04
041AC:  MOVF   FF3,W
041AE:  CLRF   03
041B0:  ADDLW  22
041B2:  MOVWF  FE9
041B4:  MOVLW  02
041B6:  ADDWFC 03,W
041B8:  MOVWF  FEA
041BA:  MOVFF  FEF,00
041BE:  MOVFF  FEC,01
041C2:  MOVFF  FEC,02
041C6:  MOVFF  FEC,03
041CA:  MOVFF  FEA,3F8
041CE:  MOVFF  FE9,3F7
041D2:  BCF    FD8.1
041D4:  MOVFF  309,404
041D8:  MOVFF  308,403
041DC:  MOVFF  307,402
041E0:  MOVFF  306,401
041E4:  MOVFF  03,408
041E8:  MOVFF  02,407
041EC:  MOVFF  01,406
041F0:  MOVFF  00,405
041F4:  MOVLB  0
041F6:  CALL   1DB0
041FA:  MOVFF  3F8,FEA
041FE:  MOVFF  3F7,FE9
04202:  MOVFF  03,309
04206:  MOVFF  02,308
0420A:  MOVFF  01,307
0420E:  MOVFF  00,306
....................    }  
04212:  MOVLB  3
04214:  INCF   xB4,F
04216:  BRA    419E
....................    promediopresion=promediopresion/media;    
04218:  MOVLB  4
0421A:  CLRF   x02
0421C:  MOVFF  3F6,401
04220:  MOVLB  0
04222:  CALL   1BFC
04226:  MOVFF  309,3FE
0422A:  MOVFF  308,3FD
0422E:  MOVFF  307,3FC
04232:  MOVFF  306,3FB
04236:  MOVFF  03,402
0423A:  MOVFF  02,401
0423E:  MOVFF  01,400
04242:  MOVFF  00,3FF
04246:  CALL   1C32
0424A:  MOVFF  03,309
0424E:  MOVFF  02,308
04252:  MOVFF  01,307
04256:  MOVFF  00,306
....................     
....................    return promediopresion; 
0425A:  MOVFF  306,00
0425E:  MOVFF  307,01
04262:  MOVFF  308,02
04266:  MOVFF  309,03
.................... } 
0426A:  GOTO   5C92 (RETURN)
....................  
.................... float Leer_Sensor_Presion_PreCamara(int media){ 
....................    promediopresionp=0.0; 
0426E:  MOVLB  3
04270:  CLRF   x11
04272:  CLRF   x10
04274:  CLRF   x0F
04276:  CLRF   x0E
....................    V2 = sensores(3);   //Lectura de Divisor de Voltaje de PT100 con resistencia de 1k (+-10%) 
04278:  MOVLW  03
0427A:  MOVWF  xF7
0427C:  MOVLB  0
0427E:  CALL   3480
04282:  MOVFF  03,354
04286:  MOVFF  02,353
0428A:  MOVFF  01,352
0428E:  MOVFF  00,351
....................    //V2 = V2*(5.0/1024.0); 
....................    //Presionp=(V2-0.2)/(K); 
....................    Presionp=(((V2+G2)/1023)-0.04)/K; 
04292:  MOVLB  3
04294:  CLRF   xF8
04296:  MOVFF  3D1,3F7
0429A:  BTFSC  xF7.7
0429C:  DECF   xF8,F
0429E:  MOVLB  0
042A0:  RCALL  3FDC
042A2:  BCF    FD8.1
042A4:  MOVFF  354,404
042A8:  MOVFF  353,403
042AC:  MOVFF  352,402
042B0:  MOVFF  351,401
042B4:  MOVFF  03,408
042B8:  MOVFF  02,407
042BC:  MOVFF  01,406
042C0:  MOVFF  00,405
042C4:  CALL   1DB0
042C8:  MOVFF  00,3F7
042CC:  MOVFF  01,3F8
042D0:  MOVFF  02,3F9
042D4:  MOVFF  03,3FA
042D8:  MOVFF  03,3FE
042DC:  MOVFF  02,3FD
042E0:  MOVFF  01,3FC
042E4:  MOVFF  00,3FB
042E8:  MOVLB  4
042EA:  CLRF   x02
042EC:  MOVLW  C0
042EE:  MOVWF  x01
042F0:  MOVLW  7F
042F2:  MOVWF  x00
042F4:  MOVLW  88
042F6:  MOVLB  3
042F8:  MOVWF  xFF
042FA:  MOVLB  0
042FC:  CALL   1C32
04300:  MOVFF  00,3F7
04304:  MOVFF  01,3F8
04308:  MOVFF  02,3F9
0430C:  MOVFF  03,3FA
04310:  BSF    FD8.1
04312:  MOVFF  03,404
04316:  MOVFF  02,403
0431A:  MOVFF  01,402
0431E:  MOVFF  00,401
04322:  MOVLW  0A
04324:  MOVLB  4
04326:  MOVWF  x08
04328:  MOVLW  D7
0432A:  MOVWF  x07
0432C:  MOVLW  23
0432E:  MOVWF  x06
04330:  MOVLW  7A
04332:  MOVWF  x05
04334:  MOVLB  0
04336:  CALL   1DB0
0433A:  MOVFF  00,3F7
0433E:  MOVFF  01,3F8
04342:  MOVFF  02,3F9
04346:  MOVFF  03,3FA
0434A:  MOVFF  03,3FE
0434E:  MOVFF  02,3FD
04352:  MOVFF  01,3FC
04356:  MOVFF  00,3FB
0435A:  MOVFF  360,402
0435E:  MOVFF  35F,401
04362:  MOVFF  35E,400
04366:  MOVFF  35D,3FF
0436A:  CALL   1C32
0436E:  MOVFF  03,358
04372:  MOVFF  02,357
04376:  MOVFF  01,356
0437A:  MOVFF  00,355
....................     
....................    if(Presionp<0.0) 
0437E:  MOVFF  358,3FD
04382:  MOVFF  357,3FC
04386:  MOVFF  356,3FB
0438A:  MOVFF  355,3FA
0438E:  MOVLB  4
04390:  CLRF   x01
04392:  CLRF   x00
04394:  MOVLB  3
04396:  CLRF   xFF
04398:  CLRF   xFE
0439A:  MOVLB  0
0439C:  CALL   28E0
043A0:  BNC   43AC
....................    { 
....................       Presionp=0.0; 
043A2:  MOVLB  3
043A4:  CLRF   x58
043A6:  CLRF   x57
043A8:  CLRF   x56
043AA:  CLRF   x55
....................    } 
....................     
....................    if(r22>media-1) 
043AC:  MOVLW  01
043AE:  MOVLB  3
043B0:  SUBWF  xF6,W
043B2:  SUBWF  xB5,W
043B4:  BZ    43BA
043B6:  BNC   43BA
....................    {r22=0;} 
043B8:  CLRF   xB5
....................    PromPresionp[r22]=Presionp;r22++; 
043BA:  MOVF   xB5,W
043BC:  MULLW  04
043BE:  MOVF   FF3,W
043C0:  CLRF   03
043C2:  ADDLW  72
043C4:  MOVWF  FE9
043C6:  MOVLW  02
043C8:  ADDWFC 03,W
043CA:  MOVWF  FEA
043CC:  MOVFF  355,FEF
043D0:  MOVFF  356,FEC
043D4:  MOVFF  357,FEC
043D8:  MOVFF  358,FEC
043DC:  INCF   xB5,F
....................           
....................    for(t2=0;t2<=(media-1);t2++) 
043DE:  CLRF   xB6
043E0:  MOVLW  01
043E2:  SUBWF  xF6,W
043E4:  SUBWF  xB6,W
043E6:  BZ    43EA
043E8:  BC    445A
....................    { 
....................       promediopresionp+=PromPresionp[t2]; 
043EA:  MOVF   xB6,W
043EC:  MULLW  04
043EE:  MOVF   FF3,W
043F0:  CLRF   03
043F2:  ADDLW  72
043F4:  MOVWF  FE9
043F6:  MOVLW  02
043F8:  ADDWFC 03,W
043FA:  MOVWF  FEA
043FC:  MOVFF  FEF,00
04400:  MOVFF  FEC,01
04404:  MOVFF  FEC,02
04408:  MOVFF  FEC,03
0440C:  MOVFF  FEA,3F8
04410:  MOVFF  FE9,3F7
04414:  BCF    FD8.1
04416:  MOVFF  311,404
0441A:  MOVFF  310,403
0441E:  MOVFF  30F,402
04422:  MOVFF  30E,401
04426:  MOVFF  03,408
0442A:  MOVFF  02,407
0442E:  MOVFF  01,406
04432:  MOVFF  00,405
04436:  MOVLB  0
04438:  CALL   1DB0
0443C:  MOVFF  3F8,FEA
04440:  MOVFF  3F7,FE9
04444:  MOVFF  03,311
04448:  MOVFF  02,310
0444C:  MOVFF  01,30F
04450:  MOVFF  00,30E
....................    }  
04454:  MOVLB  3
04456:  INCF   xB6,F
04458:  BRA    43E0
....................    promediopresionp=promediopresionp/media;    
0445A:  MOVLB  4
0445C:  CLRF   x02
0445E:  MOVFF  3F6,401
04462:  MOVLB  0
04464:  CALL   1BFC
04468:  MOVFF  311,3FE
0446C:  MOVFF  310,3FD
04470:  MOVFF  30F,3FC
04474:  MOVFF  30E,3FB
04478:  MOVFF  03,402
0447C:  MOVFF  02,401
04480:  MOVFF  01,400
04484:  MOVFF  00,3FF
04488:  CALL   1C32
0448C:  MOVFF  03,311
04490:  MOVFF  02,310
04494:  MOVFF  01,30F
04498:  MOVFF  00,30E
....................     
....................    return promediopresionp; 
0449C:  MOVFF  30E,00
044A0:  MOVFF  30F,01
044A4:  MOVFF  310,02
044A8:  MOVFF  311,03
.................... } 
044AC:  GOTO   5CBA (RETURN)
....................  
.................... void Controla(){ 
....................    if(tiemporecta>=Derivativo/2.0) 
*
04D08:  MOVLB  4
04D0A:  CLRF   x02
04D0C:  MOVFF  376,401
04D10:  MOVLB  0
04D12:  CALL   1BFC
04D16:  MOVFF  03,3FE
04D1A:  MOVFF  02,3FD
04D1E:  MOVFF  01,3FC
04D22:  MOVFF  00,3FB
04D26:  MOVLB  4
04D28:  CLRF   x02
04D2A:  CLRF   x01
04D2C:  CLRF   x00
04D2E:  MOVLW  80
04D30:  MOVLB  3
04D32:  MOVWF  xFF
04D34:  MOVLB  0
04D36:  CALL   1C32
04D3A:  MOVFF  00,3F6
04D3E:  MOVFF  01,3F7
04D42:  MOVFF  02,3F8
04D46:  MOVFF  03,3F9
04D4A:  MOVLB  4
04D4C:  CLRF   x02
04D4E:  MOVFF  37E,401
04D52:  MOVLB  0
04D54:  CALL   1BFC
04D58:  MOVFF  3F9,3FD
04D5C:  MOVFF  3F8,3FC
04D60:  MOVFF  3F7,3FB
04D64:  MOVFF  3F6,3FA
04D68:  MOVFF  03,401
04D6C:  MOVFF  02,400
04D70:  MOVFF  01,3FF
04D74:  MOVFF  00,3FE
04D78:  CALL   28E0
04D7C:  BC    4D80
04D7E:  BNZ   4D86
....................    { 
....................       ActualizaRecta(); 
04D80:  BRA    4C9A
....................       tiemporecta=0; 
04D82:  MOVLB  3
04D84:  CLRF   x7E
....................    }  
.................... //-------------------------------Control de Calentamiento------------------------------------------------------------//          
....................    error=desvio+Setpoint-Temperatura;      // Clculo del error ****** 
04D86:  MOVLB  4
04D88:  CLRF   x02
04D8A:  MOVFF  38F,401
04D8E:  MOVLB  0
04D90:  CALL   1BFC
04D94:  BCF    FD8.1
04D96:  MOVFF  348,404
04D9A:  MOVFF  347,403
04D9E:  MOVFF  346,402
04DA2:  MOVFF  345,401
04DA6:  MOVFF  03,408
04DAA:  MOVFF  02,407
04DAE:  MOVFF  01,406
04DB2:  MOVFF  00,405
04DB6:  CALL   1DB0
04DBA:  MOVFF  00,3F6
04DBE:  MOVFF  01,3F7
04DC2:  MOVFF  02,3F8
04DC6:  MOVFF  03,3F9
04DCA:  BSF    FD8.1
04DCC:  MOVFF  03,404
04DD0:  MOVFF  02,403
04DD4:  MOVFF  01,402
04DD8:  MOVFF  00,401
04DDC:  MOVFF  35C,408
04DE0:  MOVFF  35B,407
04DE4:  MOVFF  35A,406
04DE8:  MOVFF  359,405
04DEC:  CALL   1DB0
04DF0:  MOVFF  03,330
04DF4:  MOVFF  02,32F
04DF8:  MOVFF  01,32E
04DFC:  MOVFF  00,32D
....................     
....................    if(error>1.0 && error<15 && Aumento<0.3) 
04E00:  MOVLB  3
04E02:  CLRF   xFD
04E04:  CLRF   xFC
04E06:  CLRF   xFB
04E08:  MOVLW  7F
04E0A:  MOVWF  xFA
04E0C:  MOVFF  330,401
04E10:  MOVFF  32F,400
04E14:  MOVFF  32E,3FF
04E18:  MOVFF  32D,3FE
04E1C:  MOVLB  0
04E1E:  CALL   28E0
04E22:  BTFSS  FD8.0
04E24:  BRA    5058
04E26:  MOVFF  330,3FD
04E2A:  MOVFF  32F,3FC
04E2E:  MOVFF  32E,3FB
04E32:  MOVFF  32D,3FA
04E36:  MOVLB  4
04E38:  CLRF   x01
04E3A:  CLRF   x00
04E3C:  MOVLW  70
04E3E:  MOVLB  3
04E40:  MOVWF  xFF
04E42:  MOVLW  82
04E44:  MOVWF  xFE
04E46:  MOVLB  0
04E48:  CALL   28E0
04E4C:  BTFSS  FD8.0
04E4E:  BRA    5058
04E50:  MOVFF  30D,3FD
04E54:  MOVFF  30C,3FC
04E58:  MOVFF  30B,3FB
04E5C:  MOVFF  30A,3FA
04E60:  MOVLW  9A
04E62:  MOVLB  4
04E64:  MOVWF  x01
04E66:  MOVLW  99
04E68:  MOVWF  x00
04E6A:  MOVLW  19
04E6C:  MOVLB  3
04E6E:  MOVWF  xFF
04E70:  MOVLW  7D
04E72:  MOVWF  xFE
04E74:  MOVLB  0
04E76:  CALL   28E0
04E7A:  BTFSS  FD8.0
04E7C:  BRA    5058
....................    { 
....................       if(Tpulso<4.0) 
04E7E:  MOVFF  32C,3FD
04E82:  MOVFF  32B,3FC
04E86:  MOVFF  32A,3FB
04E8A:  MOVFF  329,3FA
04E8E:  MOVLB  4
04E90:  CLRF   x01
04E92:  CLRF   x00
04E94:  MOVLB  3
04E96:  CLRF   xFF
04E98:  MOVLW  81
04E9A:  MOVWF  xFE
04E9C:  MOVLB  0
04E9E:  CALL   28E0
04EA2:  BTFSS  FD8.0
04EA4:  BRA    5054
....................       { 
....................          flagTC=1; 
04EA6:  MOVLB  3
04EA8:  BSF    x7B.5
....................          if(TiempoControl>=Derivativo) 
04EAA:  MOVF   x76,W
04EAC:  SUBWF  xB7,W
04EAE:  BTFSS  FD8.0
04EB0:  BRA    5050
....................          { 
....................             TiempoControl=0; 
04EB2:  CLRF   xB7
....................             if(Aumento<-0.5){ 
04EB4:  MOVFF  30D,3FD
04EB8:  MOVFF  30C,3FC
04EBC:  MOVFF  30B,3FB
04EC0:  MOVFF  30A,3FA
04EC4:  MOVLB  4
04EC6:  CLRF   x01
04EC8:  CLRF   x00
04ECA:  MOVLW  80
04ECC:  MOVLB  3
04ECE:  MOVWF  xFF
04ED0:  MOVLW  7E
04ED2:  MOVWF  xFE
04ED4:  MOVLB  0
04ED6:  CALL   28E0
04EDA:  BNC   4F4C
....................                Ganancia+=Integral+0.2; 
04EDC:  MOVLB  4
04EDE:  CLRF   x02
04EE0:  MOVFF  375,401
04EE4:  MOVLB  0
04EE6:  CALL   1BFC
04EEA:  BCF    FD8.1
04EEC:  MOVFF  03,404
04EF0:  MOVFF  02,403
04EF4:  MOVFF  01,402
04EF8:  MOVFF  00,401
04EFC:  MOVLW  CD
04EFE:  MOVLB  4
04F00:  MOVWF  x08
04F02:  MOVLW  CC
04F04:  MOVWF  x07
04F06:  MOVLW  4C
04F08:  MOVWF  x06
04F0A:  MOVLW  7C
04F0C:  MOVWF  x05
04F0E:  MOVLB  0
04F10:  CALL   1DB0
04F14:  BCF    FD8.1
04F16:  MOVFF  340,404
04F1A:  MOVFF  33F,403
04F1E:  MOVFF  33E,402
04F22:  MOVFF  33D,401
04F26:  MOVFF  03,408
04F2A:  MOVFF  02,407
04F2E:  MOVFF  01,406
04F32:  MOVFF  00,405
04F36:  CALL   1DB0
04F3A:  MOVFF  03,340
04F3E:  MOVFF  02,33F
04F42:  MOVFF  01,33E
04F46:  MOVFF  00,33D
....................             }else{ 
04F4A:  BRA    504E
....................                if(Aumento<-0.1){ 
04F4C:  MOVFF  30D,3FD
04F50:  MOVFF  30C,3FC
04F54:  MOVFF  30B,3FB
04F58:  MOVFF  30A,3FA
04F5C:  MOVLW  CD
04F5E:  MOVLB  4
04F60:  MOVWF  x01
04F62:  MOVLW  CC
04F64:  MOVWF  x00
04F66:  MOVLB  3
04F68:  MOVWF  xFF
04F6A:  MOVLW  7B
04F6C:  MOVWF  xFE
04F6E:  MOVLB  0
04F70:  CALL   28E0
04F74:  BNC   4FE6
....................                   Ganancia+=Integral-0.2; 
04F76:  MOVLB  4
04F78:  CLRF   x02
04F7A:  MOVFF  375,401
04F7E:  MOVLB  0
04F80:  CALL   1BFC
04F84:  BSF    FD8.1
04F86:  MOVFF  03,404
04F8A:  MOVFF  02,403
04F8E:  MOVFF  01,402
04F92:  MOVFF  00,401
04F96:  MOVLW  CD
04F98:  MOVLB  4
04F9A:  MOVWF  x08
04F9C:  MOVLW  CC
04F9E:  MOVWF  x07
04FA0:  MOVLW  4C
04FA2:  MOVWF  x06
04FA4:  MOVLW  7C
04FA6:  MOVWF  x05
04FA8:  MOVLB  0
04FAA:  CALL   1DB0
04FAE:  BCF    FD8.1
04FB0:  MOVFF  340,404
04FB4:  MOVFF  33F,403
04FB8:  MOVFF  33E,402
04FBC:  MOVFF  33D,401
04FC0:  MOVFF  03,408
04FC4:  MOVFF  02,407
04FC8:  MOVFF  01,406
04FCC:  MOVFF  00,405
04FD0:  CALL   1DB0
04FD4:  MOVFF  03,340
04FD8:  MOVFF  02,33F
04FDC:  MOVFF  01,33E
04FE0:  MOVFF  00,33D
....................                }else{ 
04FE4:  BRA    504E
....................                   Ganancia+=Integral-0.5; 
04FE6:  MOVLB  4
04FE8:  CLRF   x02
04FEA:  MOVFF  375,401
04FEE:  MOVLB  0
04FF0:  CALL   1BFC
04FF4:  BSF    FD8.1
04FF6:  MOVFF  03,404
04FFA:  MOVFF  02,403
04FFE:  MOVFF  01,402
05002:  MOVFF  00,401
05006:  MOVLB  4
05008:  CLRF   x08
0500A:  CLRF   x07
0500C:  CLRF   x06
0500E:  MOVLW  7E
05010:  MOVWF  x05
05012:  MOVLB  0
05014:  CALL   1DB0
05018:  BCF    FD8.1
0501A:  MOVFF  340,404
0501E:  MOVFF  33F,403
05022:  MOVFF  33E,402
05026:  MOVFF  33D,401
0502A:  MOVFF  03,408
0502E:  MOVFF  02,407
05032:  MOVFF  01,406
05036:  MOVFF  00,405
0503A:  CALL   1DB0
0503E:  MOVFF  03,340
05042:  MOVFF  02,33F
05046:  MOVFF  01,33E
0504A:  MOVFF  00,33D
0504E:  MOVLB  3
....................                } 
....................             } 
....................          } 
....................       }else{ 
05050:  BRA    5058
05052:  MOVLB  0
....................          flagTC=0; 
05054:  MOVLB  3
05056:  BCF    x7B.5
....................       } 
....................    } 
....................     
....................    if(error<-0.3) 
05058:  MOVFF  330,3FD
0505C:  MOVFF  32F,3FC
05060:  MOVFF  32E,3FB
05064:  MOVFF  32D,3FA
05068:  MOVLW  9A
0506A:  MOVLB  4
0506C:  MOVWF  x01
0506E:  MOVLW  99
05070:  MOVWF  x00
05072:  MOVLB  3
05074:  MOVWF  xFF
05076:  MOVLW  7D
05078:  MOVWF  xFE
0507A:  MOVLB  0
0507C:  CALL   28E0
05080:  BNC   5092
....................    { 
....................       Ganancia=Ganancia2; 
05082:  MOVFF  344,340
05086:  MOVFF  343,33F
0508A:  MOVFF  342,33E
0508E:  MOVFF  341,33D
....................    } 
....................     
....................    if(Ganancia<1) 
05092:  MOVFF  340,3FD
05096:  MOVFF  33F,3FC
0509A:  MOVFF  33E,3FB
0509E:  MOVFF  33D,3FA
050A2:  MOVLB  4
050A4:  CLRF   x01
050A6:  CLRF   x00
050A8:  MOVLB  3
050AA:  CLRF   xFF
050AC:  MOVLW  7F
050AE:  MOVWF  xFE
050B0:  MOVLB  0
050B2:  CALL   28E0
050B6:  BNC   50C4
....................    { 
....................       Ganancia=1; 
050B8:  MOVLB  3
050BA:  CLRF   x40
050BC:  CLRF   x3F
050BE:  CLRF   x3E
050C0:  MOVLW  7F
050C2:  MOVWF  x3D
....................    } 
....................     
....................    if(error<0.0)     // Anti Wind_DOWN     
050C4:  MOVFF  330,3FD
050C8:  MOVFF  32F,3FC
050CC:  MOVFF  32E,3FB
050D0:  MOVFF  32D,3FA
050D4:  MOVLB  4
050D6:  CLRF   x01
050D8:  CLRF   x00
050DA:  MOVLB  3
050DC:  CLRF   xFF
050DE:  CLRF   xFE
050E0:  MOVLB  0
050E2:  CALL   28E0
050E6:  BNC   50F4
....................    { 
....................       error=0.0; 
050E8:  MOVLB  3
050EA:  CLRF   x30
050EC:  CLRF   x2F
050EE:  CLRF   x2E
050F0:  CLRF   x2D
050F2:  MOVLB  0
....................    } 
....................    //tmp=(Setpoint-Prom)*Ganancia;  // Control Proporcional. 
....................    tmp=error*Ganancia;  // Control Proporcional. 
050F4:  MOVFF  330,410
050F8:  MOVFF  32F,40F
050FC:  MOVFF  32E,40E
05100:  MOVFF  32D,40D
05104:  MOVFF  340,414
05108:  MOVFF  33F,413
0510C:  MOVFF  33E,412
05110:  MOVFF  33D,411
05114:  CALL   34DA
05118:  MOVFF  03,33C
0511C:  MOVFF  02,33B
05120:  MOVFF  01,33A
05124:  MOVFF  00,339
....................           
....................    if(tmp>Setpoint)   // Anti Wind-UP       
05128:  MOVLB  4
0512A:  CLRF   x02
0512C:  MOVFF  38F,401
05130:  MOVLB  0
05132:  CALL   1BFC
05136:  MOVFF  03,3FD
0513A:  MOVFF  02,3FC
0513E:  MOVFF  01,3FB
05142:  MOVFF  00,3FA
05146:  MOVFF  33C,401
0514A:  MOVFF  33B,400
0514E:  MOVFF  33A,3FF
05152:  MOVFF  339,3FE
05156:  CALL   28E0
0515A:  BNC   517A
....................    { 
....................       tmp=Setpoint; 
0515C:  MOVLB  4
0515E:  CLRF   x02
05160:  MOVFF  38F,401
05164:  MOVLB  0
05166:  CALL   1BFC
0516A:  MOVFF  03,33C
0516E:  MOVFF  02,33B
05172:  MOVFF  01,33A
05176:  MOVFF  00,339
....................    } 
....................                 
....................    if(tmp<0.0)     // Anti Wind_DOWN     
0517A:  MOVFF  33C,3FD
0517E:  MOVFF  33B,3FC
05182:  MOVFF  33A,3FB
05186:  MOVFF  339,3FA
0518A:  MOVLB  4
0518C:  CLRF   x01
0518E:  CLRF   x00
05190:  MOVLB  3
05192:  CLRF   xFF
05194:  CLRF   xFE
05196:  MOVLB  0
05198:  CALL   28E0
0519C:  BNC   51A8
....................    { 
....................       tmp=0.0; 
0519E:  MOVLB  3
051A0:  CLRF   x3C
051A2:  CLRF   x3B
051A4:  CLRF   x3A
051A6:  CLRF   x39
....................    } 
....................     
....................    // Tpulso(t)= Tciclo*(y(t)-ymin)/(ymax - ymin); calculo de ciclo util para control de resistencia.ymax=140.ymin=0; 
....................    // Tpulso es float, hay que pasar ese ciclo a una salida de un puerto usando el TMR1. 
....................    Tpulso=(tmp/Setpoint)*Tciclo;   
051A8:  MOVLB  4
051AA:  CLRF   x02
051AC:  MOVFF  38F,401
051B0:  MOVLB  0
051B2:  CALL   1BFC
051B6:  MOVFF  33C,3FE
051BA:  MOVFF  33B,3FD
051BE:  MOVFF  33A,3FC
051C2:  MOVFF  339,3FB
051C6:  MOVFF  03,402
051CA:  MOVFF  02,401
051CE:  MOVFF  01,400
051D2:  MOVFF  00,3FF
051D6:  CALL   1C32
051DA:  MOVFF  00,3F6
051DE:  MOVFF  01,3F7
051E2:  MOVFF  02,3F8
051E6:  MOVFF  03,3F9
051EA:  MOVFF  03,410
051EE:  MOVFF  02,40F
051F2:  MOVFF  01,40E
051F6:  MOVFF  00,40D
051FA:  MOVFF  328,414
051FE:  MOVFF  327,413
05202:  MOVFF  326,412
05206:  MOVFF  325,411
0520A:  CALL   34DA
0520E:  MOVFF  03,32C
05212:  MOVFF  02,32B
05216:  MOVFF  01,32A
0521A:  MOVFF  00,329
....................                                        
....................    Tp=(Tpulso/0.005); 
0521E:  MOVFF  32C,3FE
05222:  MOVFF  32B,3FD
05226:  MOVFF  32A,3FC
0522A:  MOVFF  329,3FB
0522E:  MOVLW  0A
05230:  MOVLB  4
05232:  MOVWF  x02
05234:  MOVLW  D7
05236:  MOVWF  x01
05238:  MOVLW  23
0523A:  MOVWF  x00
0523C:  MOVLW  77
0523E:  MOVLB  3
05240:  MOVWF  xFF
05242:  MOVLB  0
05244:  CALL   1C32
05248:  MOVFF  03,404
0524C:  MOVFF  02,403
05250:  MOVFF  01,402
05254:  MOVFF  00,401
05258:  CALL   3C18
0525C:  MOVFF  02,CF
05260:  MOVFF  01,CE
....................    Tc=(Tciclo/0.005); 
05264:  MOVFF  328,3FE
05268:  MOVFF  327,3FD
0526C:  MOVFF  326,3FC
05270:  MOVFF  325,3FB
05274:  MOVLW  0A
05276:  MOVLB  4
05278:  MOVWF  x02
0527A:  MOVLW  D7
0527C:  MOVWF  x01
0527E:  MOVLW  23
05280:  MOVWF  x00
05282:  MOVLW  77
05284:  MOVLB  3
05286:  MOVWF  xFF
05288:  MOVLB  0
0528A:  CALL   1C32
0528E:  MOVFF  03,404
05292:  MOVFF  02,403
05296:  MOVFF  01,402
0529A:  MOVFF  00,401
0529E:  CALL   3C18
052A2:  MOVFF  02,D1
052A6:  MOVFF  01,D0
....................    Controlando=1;    
052AA:  MOVLW  01
052AC:  MOVLB  3
052AE:  MOVWF  x7F
.................... //--------------------------------------------------------------------------------------------------------------------//    
.................... } 
052B0:  MOVLB  0
052B2:  RETLW  00
....................  
.................... void Envio_I2C(direccion, posicion, dato){ 
....................  
....................    i2c_start();            // Comienzo comunicacin 
*
03E08:  BSF    F94.4
03E0A:  MOVLW  05
03E0C:  MOVWF  00
03E0E:  DECFSZ 00,F
03E10:  BRA    3E0E
03E12:  BSF    F94.3
03E14:  MOVLW  06
03E16:  MOVWF  00
03E18:  DECFSZ 00,F
03E1A:  BRA    3E18
03E1C:  BCF    F8B.4
03E1E:  BCF    F94.4
03E20:  MOVLW  05
03E22:  MOVWF  00
03E24:  DECFSZ 00,F
03E26:  BRA    3E24
03E28:  BCF    F8B.3
03E2A:  BCF    F94.3
....................    i2c_write(direccion);   // Direccin del esclavo en el bus I2C 
03E2C:  MOVFF  402,405
03E30:  RCALL  3D92
....................    i2c_write(posicion);    // Posicin donde se guardara el dato transmitido 
03E32:  MOVFF  403,405
03E36:  RCALL  3D92
....................    i2c_write(dato);        // Dato a transmitir 
03E38:  MOVFF  404,405
03E3C:  RCALL  3D92
....................    i2c_stop();             // Fin comunicacin 
03E3E:  BCF    F94.4
03E40:  NOP   
03E42:  BSF    F94.3
03E44:  BTFSS  F82.3
03E46:  BRA    3E44
03E48:  MOVLW  05
03E4A:  MOVWF  00
03E4C:  DECFSZ 00,F
03E4E:  BRA    3E4C
03E50:  BRA    3E52
03E52:  NOP   
03E54:  BSF    F94.4
03E56:  MOVLW  05
03E58:  MOVWF  00
03E5A:  DECFSZ 00,F
03E5C:  BRA    3E5A
....................  } 
03E5E:  GOTO   3E98 (RETURN)
....................  
.................... void Lectura_I2C (byte direccion, byte posicion, byte &dato) { 
....................  
....................    i2c_start();            // Comienzo de la comunicacin 
*
03F2A:  BSF    F94.4
03F2C:  MOVLW  05
03F2E:  MOVWF  00
03F30:  DECFSZ 00,F
03F32:  BRA    3F30
03F34:  BSF    F94.3
03F36:  MOVLW  06
03F38:  MOVWF  00
03F3A:  DECFSZ 00,F
03F3C:  BRA    3F3A
03F3E:  BCF    F8B.4
03F40:  BCF    F94.4
03F42:  MOVLW  05
03F44:  MOVWF  00
03F46:  DECFSZ 00,F
03F48:  BRA    3F46
03F4A:  BCF    F8B.3
03F4C:  BCF    F94.3
....................    i2c_write(direccion);   // Direccin del esclavo en el bus I2C 
03F4E:  MOVFF  3F6,405
03F52:  RCALL  3D92
....................    i2c_write(posicion);    // Posicin de donde se leer el dato en el esclavo 
03F54:  MOVFF  3F7,405
03F58:  RCALL  3D92
....................    i2c_start();            // Reinicio 
03F5A:  BSF    F94.4
03F5C:  MOVLW  05
03F5E:  MOVWF  00
03F60:  DECFSZ 00,F
03F62:  BRA    3F60
03F64:  BSF    F94.3
03F66:  MOVLW  06
03F68:  MOVWF  00
03F6A:  DECFSZ 00,F
03F6C:  BRA    3F6A
03F6E:  BTFSS  F82.3
03F70:  BRA    3F6E
03F72:  BCF    F8B.4
03F74:  BCF    F94.4
03F76:  MOVLW  05
03F78:  MOVWF  00
03F7A:  DECFSZ 00,F
03F7C:  BRA    3F7A
03F7E:  BCF    F8B.3
03F80:  BCF    F94.3
....................    i2c_write(direccion+1); // Direccin del esclavo en modo lectura 
03F82:  MOVLW  01
03F84:  MOVLB  3
03F86:  ADDWF  xF6,W
03F88:  MOVWF  xF8
03F8A:  MOVFF  FE8,405
03F8E:  MOVLB  0
03F90:  RCALL  3D92
....................    dato=i2c_read(0);       // Lectura del dato 
03F92:  CLRF   00
03F94:  BRA    3EA2
03F96:  MOVFF  01,A6
....................    i2c_stop();             // Fin comunicacin 
03F9A:  BCF    F94.4
03F9C:  NOP   
03F9E:  BSF    F94.3
03FA0:  BTFSS  F82.3
03FA2:  BRA    3FA0
03FA4:  MOVLW  05
03FA6:  MOVWF  00
03FA8:  DECFSZ 00,F
03FAA:  BRA    3FA8
03FAC:  BRA    3FAE
03FAE:  NOP   
03FB0:  BSF    F94.4
03FB2:  MOVLW  05
03FB4:  MOVWF  00
03FB6:  DECFSZ 00,F
03FB8:  BRA    3FB6
.................... } 
....................  
.................... void Carga_Vector(void){ 
....................    SlaveA0Tx[0]=(int8)Temperatura; 
*
03C54:  MOVFF  35C,404
03C58:  MOVFF  35B,403
03C5C:  MOVFF  35A,402
03C60:  MOVFF  359,401
03C64:  RCALL  3C18
03C66:  MOVFF  01,86
....................    SlaveA0Tx[1]=(Temperatura-((int8)Temperatura))*10; 
03C6A:  MOVFF  35C,404
03C6E:  MOVFF  35B,403
03C72:  MOVFF  35A,402
03C76:  MOVFF  359,401
03C7A:  RCALL  3C18
03C7C:  MOVLB  4
03C7E:  CLRF   x02
03C80:  MOVFF  01,401
03C84:  MOVLB  0
03C86:  CALL   1BFC
03C8A:  BSF    FD8.1
03C8C:  MOVFF  35C,404
03C90:  MOVFF  35B,403
03C94:  MOVFF  35A,402
03C98:  MOVFF  359,401
03C9C:  MOVFF  03,408
03CA0:  MOVFF  02,407
03CA4:  MOVFF  01,406
03CA8:  MOVFF  00,405
03CAC:  CALL   1DB0
03CB0:  MOVFF  00,401
03CB4:  MOVFF  01,402
03CB8:  MOVFF  02,403
03CBC:  MOVFF  03,404
03CC0:  MOVFF  03,410
03CC4:  MOVFF  02,40F
03CC8:  MOVFF  01,40E
03CCC:  MOVFF  00,40D
03CD0:  MOVLB  4
03CD2:  CLRF   x14
03CD4:  CLRF   x13
03CD6:  MOVLW  20
03CD8:  MOVWF  x12
03CDA:  MOVLW  82
03CDC:  MOVWF  x11
03CDE:  MOVLB  0
03CE0:  CALL   34DA
03CE4:  MOVFF  03,404
03CE8:  MOVFF  02,403
03CEC:  MOVFF  01,402
03CF0:  MOVFF  00,401
03CF4:  RCALL  3C18
03CF6:  MOVFF  01,87
....................    SlaveA0Tx[2]=make8((int16)PresionCamara,0); 
03CFA:  MOVFF  3A1,88
03CFE:  MOVLB  0
....................    SlaveA0Tx[3]=make8((int16)PresionCamara,1); 
03D00:  MOVFF  3A2,89
03D04:  MOVLB  0
....................    SlaveA0Tx[4]=make8((int16)PresionPreCamara,0); 
03D06:  MOVFF  3A3,8A
03D0A:  MOVLB  0
....................    SlaveA0Tx[5]=make8((int16)PresionPreCamara,1); 
03D0C:  MOVFF  3A4,8B
03D10:  MOVLB  0
....................    SlaveA0Tx[6]=(int8)Tpulso*10; 
03D12:  MOVFF  32C,404
03D16:  MOVFF  32B,403
03D1A:  MOVFF  32A,402
03D1E:  MOVFF  329,401
03D22:  RCALL  3C18
03D24:  MOVF   01,W
03D26:  MULLW  0A
03D28:  MOVFF  FF3,8C
....................    SlaveA0Tx[7]=HIG; 
03D2C:  BSF    F92.5
03D2E:  CLRF   x8D
03D30:  BTFSC  F80.5
03D32:  INCF   x8D,F
....................    SlaveA0Tx[8]=LOW; 
03D34:  BSF    F96.0
03D36:  CLRF   x8E
03D38:  BTFSC  F84.0
03D3A:  INCF   x8E,F
....................    SlaveA0Tx[9]=TERM; 
03D3C:  BSF    F93.0
03D3E:  CLRF   x8F
03D40:  BTFSS  F81.0
03D42:  INCF   x8F,F
....................    SlaveA0Tx[10]=DOOR; 
03D44:  BSF    F93.2
03D46:  CLRF   x90
03D48:  BTFSS  F81.2
03D4A:  INCF   x90,F
....................    SlaveA0Tx[11]=STOP; 
03D4C:  BSF    F93.1
03D4E:  CLRF   x91
03D50:  BTFSS  F81.1
03D52:  INCF   x91,F
....................    SlaveA0Tx[12]=(int8)error; 
03D54:  MOVFF  330,404
03D58:  MOVFF  32F,403
03D5C:  MOVFF  32E,402
03D60:  MOVFF  32D,401
03D64:  RCALL  3C18
03D66:  MOVFF  01,92
....................    SlaveA0Tx[13]=CicloSeleccionado; 
03D6A:  MOVFF  38E,93
....................    SlaveA0Tx[14]=SetTime; 
03D6E:  MOVFF  3CE,94
....................    SlaveA0Tx[15]=DiaTx; 
03D72:  MOVFF  3C9,95
....................    SlaveA0Tx[16]=MesTx; 
03D76:  MOVFF  3C8,96
....................    SlaveA0Tx[17]=YearTx; 
03D7A:  MOVFF  3C7,97
....................    SlaveA0Tx[18]=HoraTx; 
03D7E:  MOVFF  3CA,98
....................    SlaveA0Tx[19]=MinutoTx; 
03D82:  MOVFF  3CB,99
....................    SlaveA0Tx[20]=SegundoTx; 
03D86:  MOVFF  3CC,9A
....................    SlaveA0Tx[21]=Imprime; 
03D8A:  MOVFF  3CF,9B
.................... } 
03D8E:  GOTO   3E64 (RETURN)
....................  
.................... void Lee_Vector(void){ 
....................    /*Dia=txbuf[0]; 
....................    Mess=txbuf[1]; 
....................    Year=txbuf[2]; 
....................    Hora=txbuf[3]; 
....................    Minuto=txbuf[4]; 
....................    Segundo=txbuf[5]; 
....................    dow=txbuf[6];*/ 
.................... } 
*
00004:  GOTO   3FD8 (RETURN)
....................  
.................... void Envio_Esclavos(void){ 
....................    Carga_Vector(); 
*
03E62:  BRA    3C54
....................    for(i=0;i<22;i++) 
03E64:  MOVLB  3
03E66:  CLRF   x8B
03E68:  MOVF   x8B,W
03E6A:  SUBLW  15
03E6C:  BNC   3E9E
....................    { 
....................       direccion=0xA0; 
03E6E:  MOVLW  A0
03E70:  MOVLB  0
03E72:  MOVWF  xA7
....................       Envio_I2C(direccion,i,SlaveA0Tx[i]); 
03E74:  CLRF   03
03E76:  MOVLB  3
03E78:  MOVF   x8B,W
03E7A:  ADDLW  86
03E7C:  MOVWF  FE9
03E7E:  MOVLW  00
03E80:  ADDWFC 03,W
03E82:  MOVWF  FEA
03E84:  MOVFF  FEF,401
03E88:  MOVFF  A7,402
03E8C:  MOVFF  38B,403
03E90:  MOVFF  401,404
03E94:  MOVLB  0
03E96:  BRA    3E08
....................    }  
03E98:  MOVLB  3
03E9A:  INCF   x8B,F
03E9C:  BRA    3E68
.................... } 
03E9E:  MOVLB  0
03EA0:  RETLW  00
.................... void Lectura_Esclavos(void){ 
....................    for(i=0;i<7;i++) 
*
03F0E:  MOVLB  3
03F10:  CLRF   x8B
03F12:  MOVF   x8B,W
03F14:  SUBLW  06
03F16:  BNC   3FD2
....................    { 
....................       direccion=0xA0;                        //Direccin en el bus I2c 
03F18:  MOVLW  A0
03F1A:  MOVLB  0
03F1C:  MOVWF  xA7
....................       posicion=i;                         //Posicin de memoria a leer 
03F1E:  MOVFF  38B,A8
....................       Lectura_I2C(direccion, posicion, dato);    //Lectura por I2C 
03F22:  MOVFF  A7,3F6
03F26:  MOVFF  A8,3F7
....................       txbuf[i]=(int8)dato; 
*
03FBA:  CLRF   03
03FBC:  MOVLB  3
03FBE:  MOVF   x8B,W
03FC0:  ADDLW  66
03FC2:  MOVWF  FE9
03FC4:  MOVLW  00
03FC6:  ADDWFC 03,W
03FC8:  MOVWF  FEA
03FCA:  MOVFF  A6,FEF
....................    } 
03FCE:  INCF   x8B,F
03FD0:  BRA    3F12
....................    Lee_Vector(); 
03FD2:  MOVLB  0
03FD4:  GOTO   0004
.................... } 
03FD8:  GOTO   5C12 (RETURN)
....................  
.................... void LeeEEPROM(){ 
.................... //Lectura EEPROM//-------------------------- 
....................    Testerilizacionp[0]=read_eeprom(0); 
*
02024:  MOVFF  FF2,3F6
02028:  BCF    FF2.6
0202A:  BCF    FF2.7
0202C:  CLRF   FAA
0202E:  CLRF   FA9
02030:  BCF    FA6.6
02032:  BCF    FA6.7
02034:  BSF    FA6.0
02036:  MOVF   FA8,W
02038:  MOVLB  3
0203A:  BTFSC  xF6.6
0203C:  BSF    FF2.6
0203E:  BTFSC  xF6.7
02040:  BSF    FF2.7
02042:  MOVLB  0
02044:  MOVWF  xD6
....................    delay_ms(10); 
02046:  MOVLW  0A
02048:  MOVLB  4
0204A:  MOVWF  x01
0204C:  MOVLB  0
0204E:  RCALL  1BD4
....................    Testerilizacionp[1]=read_eeprom(1); 
02050:  MOVFF  FF2,3F6
02054:  BCF    FF2.6
02056:  BCF    FF2.7
02058:  CLRF   FAA
0205A:  MOVLW  01
0205C:  MOVWF  FA9
0205E:  BCF    FA6.6
02060:  BCF    FA6.7
02062:  BSF    FA6.0
02064:  MOVF   FA8,W
02066:  MOVLB  3
02068:  BTFSC  xF6.6
0206A:  BSF    FF2.6
0206C:  BTFSC  xF6.7
0206E:  BSF    FF2.7
02070:  MOVLB  0
02072:  MOVWF  xD7
....................    delay_ms(10); 
02074:  MOVLW  0A
02076:  MOVLB  4
02078:  MOVWF  x01
0207A:  MOVLB  0
0207C:  RCALL  1BD4
....................    Testerilizacionp[2]=read_eeprom(2); 
0207E:  MOVFF  FF2,3F6
02082:  BCF    FF2.6
02084:  BCF    FF2.7
02086:  CLRF   FAA
02088:  MOVLW  02
0208A:  MOVWF  FA9
0208C:  BCF    FA6.6
0208E:  BCF    FA6.7
02090:  BSF    FA6.0
02092:  MOVF   FA8,W
02094:  MOVLB  3
02096:  BTFSC  xF6.6
02098:  BSF    FF2.6
0209A:  BTFSC  xF6.7
0209C:  BSF    FF2.7
0209E:  MOVLB  0
020A0:  MOVWF  xD8
....................    delay_ms(10); 
020A2:  MOVLW  0A
020A4:  MOVLB  4
020A6:  MOVWF  x01
020A8:  MOVLB  0
020AA:  RCALL  1BD4
....................    Testerilizacionp[3]=read_eeprom(3); 
020AC:  MOVFF  FF2,3F6
020B0:  BCF    FF2.6
020B2:  BCF    FF2.7
020B4:  CLRF   FAA
020B6:  MOVLW  03
020B8:  MOVWF  FA9
020BA:  BCF    FA6.6
020BC:  BCF    FA6.7
020BE:  BSF    FA6.0
020C0:  MOVF   FA8,W
020C2:  MOVLB  3
020C4:  BTFSC  xF6.6
020C6:  BSF    FF2.6
020C8:  BTFSC  xF6.7
020CA:  BSF    FF2.7
020CC:  MOVLB  0
020CE:  MOVWF  xD9
....................    delay_ms(10); 
020D0:  MOVLW  0A
020D2:  MOVLB  4
020D4:  MOVWF  x01
020D6:  MOVLB  0
020D8:  RCALL  1BD4
....................    Tsecadop[0]=read_eeprom(4); 
020DA:  MOVFF  FF2,3F6
020DE:  BCF    FF2.6
020E0:  BCF    FF2.7
020E2:  CLRF   FAA
020E4:  MOVLW  04
020E6:  MOVWF  FA9
020E8:  BCF    FA6.6
020EA:  BCF    FA6.7
020EC:  BSF    FA6.0
020EE:  MOVF   FA8,W
020F0:  MOVLB  3
020F2:  BTFSC  xF6.6
020F4:  BSF    FF2.6
020F6:  BTFSC  xF6.7
020F8:  BSF    FF2.7
020FA:  MOVLB  0
020FC:  MOVWF  xDE
....................    delay_ms(10); 
020FE:  MOVLW  0A
02100:  MOVLB  4
02102:  MOVWF  x01
02104:  MOVLB  0
02106:  RCALL  1BD4
....................    Tsecadop[1]=read_eeprom(5); 
02108:  MOVFF  FF2,3F6
0210C:  BCF    FF2.6
0210E:  BCF    FF2.7
02110:  CLRF   FAA
02112:  MOVLW  05
02114:  MOVWF  FA9
02116:  BCF    FA6.6
02118:  BCF    FA6.7
0211A:  BSF    FA6.0
0211C:  MOVF   FA8,W
0211E:  MOVLB  3
02120:  BTFSC  xF6.6
02122:  BSF    FF2.6
02124:  BTFSC  xF6.7
02126:  BSF    FF2.7
02128:  MOVLB  0
0212A:  MOVWF  xDF
....................    delay_ms(10); 
0212C:  MOVLW  0A
0212E:  MOVLB  4
02130:  MOVWF  x01
02132:  MOVLB  0
02134:  RCALL  1BD4
....................    Tsecadop[2]=read_eeprom(6); 
02136:  MOVFF  FF2,3F6
0213A:  BCF    FF2.6
0213C:  BCF    FF2.7
0213E:  CLRF   FAA
02140:  MOVLW  06
02142:  MOVWF  FA9
02144:  BCF    FA6.6
02146:  BCF    FA6.7
02148:  BSF    FA6.0
0214A:  MOVF   FA8,W
0214C:  MOVLB  3
0214E:  BTFSC  xF6.6
02150:  BSF    FF2.6
02152:  BTFSC  xF6.7
02154:  BSF    FF2.7
02156:  MOVLB  0
02158:  MOVWF  xE0
....................    delay_ms(10); 
0215A:  MOVLW  0A
0215C:  MOVLB  4
0215E:  MOVWF  x01
02160:  MOVLB  0
02162:  RCALL  1BD4
....................    Tsecadop[3]=read_eeprom(7); 
02164:  MOVFF  FF2,3F6
02168:  BCF    FF2.6
0216A:  BCF    FF2.7
0216C:  CLRF   FAA
0216E:  MOVLW  07
02170:  MOVWF  FA9
02172:  BCF    FA6.6
02174:  BCF    FA6.7
02176:  BSF    FA6.0
02178:  MOVF   FA8,W
0217A:  MOVLB  3
0217C:  BTFSC  xF6.6
0217E:  BSF    FF2.6
02180:  BTFSC  xF6.7
02182:  BSF    FF2.7
02184:  MOVLB  0
02186:  MOVWF  xE1
....................    delay_ms(10); 
02188:  MOVLW  0A
0218A:  MOVLB  4
0218C:  MOVWF  x01
0218E:  MOVLB  0
02190:  RCALL  1BD4
....................    Setpoint=read_eeprom(8); 
02192:  MOVFF  FF2,3F6
02196:  BCF    FF2.6
02198:  BCF    FF2.7
0219A:  CLRF   FAA
0219C:  MOVLW  08
0219E:  MOVWF  FA9
021A0:  BCF    FA6.6
021A2:  BCF    FA6.7
021A4:  BSF    FA6.0
021A6:  MOVF   FA8,W
021A8:  MOVLB  3
021AA:  BTFSC  xF6.6
021AC:  BSF    FF2.6
021AE:  BTFSC  xF6.7
021B0:  BSF    FF2.7
021B2:  MOVWF  x8F
....................    delay_ms(10); 
021B4:  MOVLW  0A
021B6:  MOVLB  4
021B8:  MOVWF  x01
021BA:  MOVLB  0
021BC:  RCALL  1BD4
....................    Nivel=read_eeprom(9); 
021BE:  MOVFF  FF2,3F6
021C2:  BCF    FF2.6
021C4:  BCF    FF2.7
021C6:  CLRF   FAA
021C8:  MOVLW  09
021CA:  MOVWF  FA9
021CC:  BCF    FA6.6
021CE:  BCF    FA6.7
021D0:  BSF    FA6.0
021D2:  MOVF   FA8,W
021D4:  MOVLB  3
021D6:  BTFSC  xF6.6
021D8:  BSF    FF2.6
021DA:  BTFSC  xF6.7
021DC:  BSF    FF2.7
021DE:  CLRF   x9E
021E0:  MOVWF  x9D
....................    delay_ms(10); 
021E2:  MOVLW  0A
021E4:  MOVLB  4
021E6:  MOVWF  x01
021E8:  MOVLB  0
021EA:  RCALL  1BD4
....................    Password[0]=read_eeprom(10); 
021EC:  MOVFF  FF2,3F6
021F0:  BCF    FF2.6
021F2:  BCF    FF2.7
021F4:  CLRF   FAA
021F6:  MOVLW  0A
021F8:  MOVWF  FA9
021FA:  BCF    FA6.6
021FC:  BCF    FA6.7
021FE:  BSF    FA6.0
02200:  MOVF   FA8,W
02202:  MOVLB  3
02204:  BTFSC  xF6.6
02206:  BSF    FF2.6
02208:  BTFSC  xF6.7
0220A:  BSF    FF2.7
0220C:  MOVWF  xAD
....................    delay_ms(10); 
0220E:  MOVLW  0A
02210:  MOVLB  4
02212:  MOVWF  x01
02214:  MOVLB  0
02216:  RCALL  1BD4
....................    Password[1]=read_eeprom(11); 
02218:  MOVFF  FF2,3F6
0221C:  BCF    FF2.6
0221E:  BCF    FF2.7
02220:  CLRF   FAA
02222:  MOVLW  0B
02224:  MOVWF  FA9
02226:  BCF    FA6.6
02228:  BCF    FA6.7
0222A:  BSF    FA6.0
0222C:  MOVF   FA8,W
0222E:  MOVLB  3
02230:  BTFSC  xF6.6
02232:  BSF    FF2.6
02234:  BTFSC  xF6.7
02236:  BSF    FF2.7
02238:  MOVWF  xAE
....................    delay_ms(10); 
0223A:  MOVLW  0A
0223C:  MOVLB  4
0223E:  MOVWF  x01
02240:  MOVLB  0
02242:  RCALL  1BD4
....................    Password[2]=read_eeprom(12); 
02244:  MOVFF  FF2,3F6
02248:  BCF    FF2.6
0224A:  BCF    FF2.7
0224C:  CLRF   FAA
0224E:  MOVLW  0C
02250:  MOVWF  FA9
02252:  BCF    FA6.6
02254:  BCF    FA6.7
02256:  BSF    FA6.0
02258:  MOVF   FA8,W
0225A:  MOVLB  3
0225C:  BTFSC  xF6.6
0225E:  BSF    FF2.6
02260:  BTFSC  xF6.7
02262:  BSF    FF2.7
02264:  MOVWF  xAF
....................    delay_ms(10); 
02266:  MOVLW  0A
02268:  MOVLB  4
0226A:  MOVWF  x01
0226C:  MOVLB  0
0226E:  RCALL  1BD4
....................    Password[3]=read_eeprom(13); 
02270:  MOVFF  FF2,3F6
02274:  BCF    FF2.6
02276:  BCF    FF2.7
02278:  CLRF   FAA
0227A:  MOVLW  0D
0227C:  MOVWF  FA9
0227E:  BCF    FA6.6
02280:  BCF    FA6.7
02282:  BSF    FA6.0
02284:  MOVF   FA8,W
02286:  MOVLB  3
02288:  BTFSC  xF6.6
0228A:  BSF    FF2.6
0228C:  BTFSC  xF6.7
0228E:  BSF    FF2.7
02290:  MOVWF  xB0
....................    delay_ms(10); 
02292:  MOVLW  0A
02294:  MOVLB  4
02296:  MOVWF  x01
02298:  MOVLB  0
0229A:  RCALL  1BD4
....................    Ganancia=read_eeprom(20); 
0229C:  MOVFF  FF2,3F6
022A0:  BCF    FF2.6
022A2:  BCF    FF2.7
022A4:  CLRF   FAA
022A6:  MOVLW  14
022A8:  MOVWF  FA9
022AA:  BCF    FA6.6
022AC:  BCF    FA6.7
022AE:  BSF    FA6.0
022B0:  MOVF   FA8,W
022B2:  MOVLB  3
022B4:  BTFSC  xF6.6
022B6:  BSF    FF2.6
022B8:  BTFSC  xF6.7
022BA:  BSF    FF2.7
022BC:  MOVLB  4
022BE:  CLRF   x02
022C0:  MOVWF  x01
022C2:  MOVLB  0
022C4:  RCALL  1BFC
022C6:  MOVFF  03,340
022CA:  MOVFF  02,33F
022CE:  MOVFF  01,33E
022D2:  MOVFF  00,33D
....................    delay_ms(10); 
022D6:  MOVLW  0A
022D8:  MOVLB  4
022DA:  MOVWF  x01
022DC:  MOVLB  0
022DE:  RCALL  1BD4
....................    Ajuste=read_eeprom(21); 
022E0:  MOVFF  FF2,3F6
022E4:  BCF    FF2.6
022E6:  BCF    FF2.7
022E8:  CLRF   FAA
022EA:  MOVLW  15
022EC:  MOVWF  FA9
022EE:  BCF    FA6.6
022F0:  BCF    FA6.7
022F2:  BSF    FA6.0
022F4:  MOVF   FA8,W
022F6:  MOVLB  3
022F8:  BTFSC  xF6.6
022FA:  BSF    FF2.6
022FC:  BTFSC  xF6.7
022FE:  BSF    FF2.7
02300:  MOVWF  x14
....................    delay_ms(10); 
02302:  MOVLW  0A
02304:  MOVLB  4
02306:  MOVWF  x01
02308:  MOVLB  0
0230A:  RCALL  1BD4
....................    Ajusten=read_eeprom(22); 
0230C:  MOVFF  FF2,3F6
02310:  BCF    FF2.6
02312:  BCF    FF2.7
02314:  CLRF   FAA
02316:  MOVLW  16
02318:  MOVWF  FA9
0231A:  BCF    FA6.6
0231C:  BCF    FA6.7
0231E:  BSF    FA6.0
02320:  MOVF   FA8,W
02322:  MOVLB  3
02324:  BTFSC  xF6.6
02326:  BSF    FF2.6
02328:  BTFSC  xF6.7
0232A:  BSF    FF2.7
0232C:  MOVWF  x15
....................    delay_ms(10); 
0232E:  MOVLW  0A
02330:  MOVLB  4
02332:  MOVWF  x01
02334:  MOVLB  0
02336:  RCALL  1BD4
....................    //Desvio=read_eeprom(23); 
....................    MediaMovil=read_eeprom(24); 
02338:  MOVFF  FF2,3F6
0233C:  BCF    FF2.6
0233E:  BCF    FF2.7
02340:  CLRF   FAA
02342:  MOVLW  18
02344:  MOVWF  FA9
02346:  BCF    FA6.6
02348:  BCF    FA6.7
0234A:  BSF    FA6.0
0234C:  MOVF   FA8,W
0234E:  MOVLB  3
02350:  BTFSC  xF6.6
02352:  BSF    FF2.6
02354:  BTFSC  xF6.7
02356:  BSF    FF2.7
02358:  MOVWF  x16
....................    delay_ms(10); 
0235A:  MOVLW  0A
0235C:  MOVLB  4
0235E:  MOVWF  x01
02360:  MOVLB  0
02362:  RCALL  1BD4
....................    Tciclo=read_eeprom(25); 
02364:  MOVFF  FF2,3F6
02368:  BCF    FF2.6
0236A:  BCF    FF2.7
0236C:  CLRF   FAA
0236E:  MOVLW  19
02370:  MOVWF  FA9
02372:  BCF    FA6.6
02374:  BCF    FA6.7
02376:  BSF    FA6.0
02378:  MOVF   FA8,W
0237A:  MOVLB  3
0237C:  BTFSC  xF6.6
0237E:  BSF    FF2.6
02380:  BTFSC  xF6.7
02382:  BSF    FF2.7
02384:  MOVLB  4
02386:  CLRF   x02
02388:  MOVWF  x01
0238A:  MOVLB  0
0238C:  RCALL  1BFC
0238E:  MOVFF  03,328
02392:  MOVFF  02,327
02396:  MOVFF  01,326
0239A:  MOVFF  00,325
....................    delay_ms(10); 
0239E:  MOVLW  0A
023A0:  MOVLB  4
023A2:  MOVWF  x01
023A4:  MOVLB  0
023A6:  RCALL  1BD4
....................    Integral=read_eeprom(26); 
023A8:  MOVFF  FF2,3F6
023AC:  BCF    FF2.6
023AE:  BCF    FF2.7
023B0:  CLRF   FAA
023B2:  MOVLW  1A
023B4:  MOVWF  FA9
023B6:  BCF    FA6.6
023B8:  BCF    FA6.7
023BA:  BSF    FA6.0
023BC:  MOVF   FA8,W
023BE:  MOVLB  3
023C0:  BTFSC  xF6.6
023C2:  BSF    FF2.6
023C4:  BTFSC  xF6.7
023C6:  BSF    FF2.7
023C8:  MOVWF  x75
....................    delay_ms(10); 
023CA:  MOVLW  0A
023CC:  MOVLB  4
023CE:  MOVWF  x01
023D0:  MOVLB  0
023D2:  RCALL  1BD4
....................    Derivativo=read_eeprom(27); 
023D4:  MOVFF  FF2,3F6
023D8:  BCF    FF2.6
023DA:  BCF    FF2.7
023DC:  CLRF   FAA
023DE:  MOVLW  1B
023E0:  MOVWF  FA9
023E2:  BCF    FA6.6
023E4:  BCF    FA6.7
023E6:  BSF    FA6.0
023E8:  MOVF   FA8,W
023EA:  MOVLB  3
023EC:  BTFSC  xF6.6
023EE:  BSF    FF2.6
023F0:  BTFSC  xF6.7
023F2:  BSF    FF2.7
023F4:  MOVWF  x76
....................    delay_ms(10); 
023F6:  MOVLW  0A
023F8:  MOVLB  4
023FA:  MOVWF  x01
023FC:  MOVLB  0
023FE:  CALL   1BD4
....................    Temporal=read_eeprom(29); 
02402:  MOVFF  FF2,3F6
02406:  BCF    FF2.6
02408:  BCF    FF2.7
0240A:  CLRF   FAA
0240C:  MOVLW  1D
0240E:  MOVWF  FA9
02410:  BCF    FA6.6
02412:  BCF    FA6.7
02414:  BSF    FA6.0
02416:  MOVF   FA8,W
02418:  MOVLB  3
0241A:  BTFSC  xF6.6
0241C:  BSF    FF2.6
0241E:  BTFSC  xF6.7
02420:  BSF    FF2.7
02422:  MOVLB  4
02424:  CLRF   x02
02426:  MOVWF  x01
02428:  MOVLB  0
0242A:  CALL   1BFC
0242E:  MOVFF  03,2CD
02432:  MOVFF  02,2CC
02436:  MOVFF  01,2CB
0243A:  MOVFF  00,2CA
....................    Temporal=Temporal/10.0; 
0243E:  MOVFF  2CD,3FE
02442:  MOVFF  2CC,3FD
02446:  MOVFF  2CB,3FC
0244A:  MOVFF  2CA,3FB
0244E:  MOVLB  4
02450:  CLRF   x02
02452:  CLRF   x01
02454:  MOVLW  20
02456:  MOVWF  x00
02458:  MOVLW  82
0245A:  MOVLB  3
0245C:  MOVWF  xFF
0245E:  MOVLB  0
02460:  CALL   1C32
02464:  MOVFF  03,2CD
02468:  MOVFF  02,2CC
0246C:  MOVFF  01,2CB
02470:  MOVFF  00,2CA
....................    delay_ms(10); 
02474:  MOVLW  0A
02476:  MOVLB  4
02478:  MOVWF  x01
0247A:  MOVLB  0
0247C:  CALL   1BD4
....................    Gain=read_eeprom(28)+Temporal; 
02480:  MOVFF  FF2,3F6
02484:  BCF    FF2.6
02486:  BCF    FF2.7
02488:  CLRF   FAA
0248A:  MOVLW  1C
0248C:  MOVWF  FA9
0248E:  BCF    FA6.6
02490:  BCF    FA6.7
02492:  BSF    FA6.0
02494:  MOVF   FA8,W
02496:  MOVLB  3
02498:  BTFSC  xF6.6
0249A:  BSF    FF2.6
0249C:  BTFSC  xF6.7
0249E:  BSF    FF2.7
024A0:  MOVLB  4
024A2:  CLRF   x02
024A4:  MOVWF  x01
024A6:  MOVLB  0
024A8:  CALL   1BFC
024AC:  BCF    FD8.1
024AE:  MOVFF  03,404
024B2:  MOVFF  02,403
024B6:  MOVFF  01,402
024BA:  MOVFF  00,401
024BE:  MOVFF  2CD,408
024C2:  MOVFF  2CC,407
024C6:  MOVFF  2CB,406
024CA:  MOVFF  2CA,405
024CE:  RCALL  1DB0
024D0:  MOVFF  03,2C5
024D4:  MOVFF  02,2C4
024D8:  MOVFF  01,2C3
024DC:  MOVFF  00,2C2
....................    delay_ms(10); 
024E0:  MOVLW  0A
024E2:  MOVLB  4
024E4:  MOVWF  x01
024E6:  MOVLB  0
024E8:  CALL   1BD4
....................    R1=make16(read_eeprom(31),read_eeprom(30)); 
024EC:  MOVFF  FF2,3F6
024F0:  BCF    FF2.6
024F2:  BCF    FF2.7
024F4:  CLRF   FAA
024F6:  MOVLW  1F
024F8:  MOVWF  FA9
024FA:  BCF    FA6.6
024FC:  BCF    FA6.7
024FE:  BSF    FA6.0
02500:  MOVF   FA8,W
02502:  MOVLB  3
02504:  BTFSC  xF6.6
02506:  BSF    FF2.6
02508:  BTFSC  xF6.7
0250A:  BSF    FF2.7
0250C:  MOVWF  xF7
0250E:  MOVFF  FF2,3F8
02512:  BCF    FF2.6
02514:  BCF    FF2.7
02516:  CLRF   FAA
02518:  MOVLW  1E
0251A:  MOVWF  FA9
0251C:  BCF    FA6.6
0251E:  BCF    FA6.7
02520:  BSF    FA6.0
02522:  MOVF   FA8,W
02524:  BTFSC  xF8.6
02526:  BSF    FF2.6
02528:  BTFSC  xF8.7
0252A:  BSF    FF2.7
0252C:  MOVWF  xF9
0252E:  MOVFF  3F7,03
02532:  MOVF   xF9,W
02534:  MOVLB  4
02536:  MOVWF  x01
02538:  MOVFF  03,402
0253C:  MOVLB  0
0253E:  CALL   1BFC
02542:  MOVFF  03,2D1
02546:  MOVFF  02,2D0
0254A:  MOVFF  01,2CF
0254E:  MOVFF  00,2CE
....................    delay_ms(10); 
02552:  MOVLW  0A
02554:  MOVLB  4
02556:  MOVWF  x01
02558:  MOVLB  0
0255A:  CALL   1BD4
....................    Temporal=read_eeprom(33); 
0255E:  MOVFF  FF2,3F6
02562:  BCF    FF2.6
02564:  BCF    FF2.7
02566:  CLRF   FAA
02568:  MOVLW  21
0256A:  MOVWF  FA9
0256C:  BCF    FA6.6
0256E:  BCF    FA6.7
02570:  BSF    FA6.0
02572:  MOVF   FA8,W
02574:  MOVLB  3
02576:  BTFSC  xF6.6
02578:  BSF    FF2.6
0257A:  BTFSC  xF6.7
0257C:  BSF    FF2.7
0257E:  MOVLB  4
02580:  CLRF   x02
02582:  MOVWF  x01
02584:  MOVLB  0
02586:  CALL   1BFC
0258A:  MOVFF  03,2CD
0258E:  MOVFF  02,2CC
02592:  MOVFF  01,2CB
02596:  MOVFF  00,2CA
....................    Temporal=Temporal/10.0; 
0259A:  MOVFF  2CD,3FE
0259E:  MOVFF  2CC,3FD
025A2:  MOVFF  2CB,3FC
025A6:  MOVFF  2CA,3FB
025AA:  MOVLB  4
025AC:  CLRF   x02
025AE:  CLRF   x01
025B0:  MOVLW  20
025B2:  MOVWF  x00
025B4:  MOVLW  82
025B6:  MOVLB  3
025B8:  MOVWF  xFF
025BA:  MOVLB  0
025BC:  CALL   1C32
025C0:  MOVFF  03,2CD
025C4:  MOVFF  02,2CC
025C8:  MOVFF  01,2CB
025CC:  MOVFF  00,2CA
....................    delay_ms(10); 
025D0:  MOVLW  0A
025D2:  MOVLB  4
025D4:  MOVWF  x01
025D6:  MOVLB  0
025D8:  CALL   1BD4
....................    RPT100=read_eeprom(32)+Temporal; 
025DC:  MOVFF  FF2,3F6
025E0:  BCF    FF2.6
025E2:  BCF    FF2.7
025E4:  CLRF   FAA
025E6:  MOVLW  20
025E8:  MOVWF  FA9
025EA:  BCF    FA6.6
025EC:  BCF    FA6.7
025EE:  BSF    FA6.0
025F0:  MOVF   FA8,W
025F2:  MOVLB  3
025F4:  BTFSC  xF6.6
025F6:  BSF    FF2.6
025F8:  BTFSC  xF6.7
025FA:  BSF    FF2.7
025FC:  MOVLB  4
025FE:  CLRF   x02
02600:  MOVWF  x01
02602:  MOVLB  0
02604:  CALL   1BFC
02608:  BCF    FD8.1
0260A:  MOVFF  03,404
0260E:  MOVFF  02,403
02612:  MOVFF  01,402
02616:  MOVFF  00,401
0261A:  MOVFF  2CD,408
0261E:  MOVFF  2CC,407
02622:  MOVFF  2CB,406
02626:  MOVFF  2CA,405
0262A:  CALL   1DB0
0262E:  MOVFF  03,2C9
02632:  MOVFF  02,2C8
02636:  MOVFF  01,2C7
0263A:  MOVFF  00,2C6
....................    delay_ms(10); 
0263E:  MOVLW  0A
02640:  MOVLB  4
02642:  MOVWF  x01
02644:  MOVLB  0
02646:  CALL   1BD4
....................    CiclosL=read_eeprom(37); 
0264A:  MOVFF  FF2,3F6
0264E:  BCF    FF2.6
02650:  BCF    FF2.7
02652:  CLRF   FAA
02654:  MOVLW  25
02656:  MOVWF  FA9
02658:  BCF    FA6.6
0265A:  BCF    FA6.7
0265C:  BSF    FA6.0
0265E:  MOVF   FA8,W
02660:  MOVLB  3
02662:  BTFSC  xF6.6
02664:  BSF    FF2.6
02666:  BTFSC  xF6.7
02668:  BSF    FF2.7
0266A:  MOVWF  x8C
....................    delay_ms(10); 
0266C:  MOVLW  0A
0266E:  MOVLB  4
02670:  MOVWF  x01
02672:  MOVLB  0
02674:  CALL   1BD4
....................    CiclosH=read_eeprom(38); 
02678:  MOVFF  FF2,3F6
0267C:  BCF    FF2.6
0267E:  BCF    FF2.7
02680:  CLRF   FAA
02682:  MOVLW  26
02684:  MOVWF  FA9
02686:  BCF    FA6.6
02688:  BCF    FA6.7
0268A:  BSF    FA6.0
0268C:  MOVF   FA8,W
0268E:  MOVLB  3
02690:  BTFSC  xF6.6
02692:  BSF    FF2.6
02694:  BTFSC  xF6.7
02696:  BSF    FF2.7
02698:  MOVWF  x8D
....................    delay_ms(10); 
0269A:  MOVLW  0A
0269C:  MOVLB  4
0269E:  MOVWF  x01
026A0:  MOVLB  0
026A2:  CALL   1BD4
....................    Ciclos=make16(CiclosH,CiclosL); 
026A6:  MOVFF  38D,3A6
026AA:  MOVFF  38C,3A5
....................    delay_ms(10); 
026AE:  MOVLW  0A
026B0:  MOVLB  4
026B2:  MOVWF  x01
026B4:  MOVLB  0
026B6:  CALL   1BD4
....................    TTrampa=read_eeprom(39); 
026BA:  MOVFF  FF2,3F6
026BE:  BCF    FF2.6
026C0:  BCF    FF2.7
026C2:  CLRF   FAA
026C4:  MOVLW  27
026C6:  MOVWF  FA9
026C8:  BCF    FA6.6
026CA:  BCF    FA6.7
026CC:  BSF    FA6.0
026CE:  MOVF   FA8,W
026D0:  MOVLB  3
026D2:  BTFSC  xF6.6
026D4:  BSF    FF2.6
026D6:  BTFSC  xF6.7
026D8:  BSF    FF2.7
026DA:  MOVWF  x17
....................    delay_ms(10); 
026DC:  MOVLW  0A
026DE:  MOVLB  4
026E0:  MOVWF  x01
026E2:  MOVLB  0
026E4:  CALL   1BD4
....................    ActivaImpresion=read_eeprom(40); 
026E8:  MOVFF  FF2,3F6
026EC:  BCF    FF2.6
026EE:  BCF    FF2.7
026F0:  CLRF   FAA
026F2:  MOVLW  28
026F4:  MOVWF  FA9
026F6:  BCF    FA6.6
026F8:  BCF    FA6.7
026FA:  BSF    FA6.0
026FC:  MOVF   FA8,W
026FE:  MOVLB  3
02700:  BTFSC  xF6.6
02702:  BSF    FF2.6
02704:  BTFSC  xF6.7
02706:  BSF    FF2.7
02708:  MOVWF  x80
....................    delay_ms(10); 
0270A:  MOVLW  0A
0270C:  MOVLB  4
0270E:  MOVWF  x01
02710:  MOVLB  0
02712:  CALL   1BD4
....................    timpresion=read_eeprom(41); 
02716:  MOVFF  FF2,3F6
0271A:  BCF    FF2.6
0271C:  BCF    FF2.7
0271E:  CLRF   FAA
02720:  MOVLW  29
02722:  MOVWF  FA9
02724:  BCF    FA6.6
02726:  BCF    FA6.7
02728:  BSF    FA6.0
0272A:  MOVF   FA8,W
0272C:  MOVLB  3
0272E:  BTFSC  xF6.6
02730:  BSF    FF2.6
02732:  BTFSC  xF6.7
02734:  BSF    FF2.7
02736:  MOVWF  x81
....................    delay_ms(10); 
02738:  MOVLW  0A
0273A:  MOVLB  4
0273C:  MOVWF  x01
0273E:  MOVLB  0
02740:  CALL   1BD4
....................    G1=read_eeprom(42); 
02744:  MOVFF  FF2,3F6
02748:  BCF    FF2.6
0274A:  BCF    FF2.7
0274C:  CLRF   FAA
0274E:  MOVLW  2A
02750:  MOVWF  FA9
02752:  BCF    FA6.6
02754:  BCF    FA6.7
02756:  BSF    FA6.0
02758:  MOVF   FA8,W
0275A:  MOVLB  3
0275C:  BTFSC  xF6.6
0275E:  BSF    FF2.6
02760:  BTFSC  xF6.7
02762:  BSF    FF2.7
02764:  MOVWF  xD0
....................    delay_ms(10); 
02766:  MOVLW  0A
02768:  MOVLB  4
0276A:  MOVWF  x01
0276C:  MOVLB  0
0276E:  CALL   1BD4
....................    G2=read_eeprom(43); 
02772:  MOVFF  FF2,3F6
02776:  BCF    FF2.6
02778:  BCF    FF2.7
0277A:  CLRF   FAA
0277C:  MOVLW  2B
0277E:  MOVWF  FA9
02780:  BCF    FA6.6
02782:  BCF    FA6.7
02784:  BSF    FA6.0
02786:  MOVF   FA8,W
02788:  MOVLB  3
0278A:  BTFSC  xF6.6
0278C:  BSF    FF2.6
0278E:  BTFSC  xF6.7
02790:  BSF    FF2.7
02792:  MOVWF  xD1
....................    delay_ms(10); 
02794:  MOVLW  0A
02796:  MOVLB  4
02798:  MOVWF  x01
0279A:  MOVLB  0
0279C:  CALL   1BD4
....................    sg1=read_eeprom(44); 
027A0:  MOVFF  FF2,3F6
027A4:  BCF    FF2.6
027A6:  BCF    FF2.7
027A8:  CLRF   FAA
027AA:  MOVLW  2C
027AC:  MOVWF  FA9
027AE:  BCF    FA6.6
027B0:  BCF    FA6.7
027B2:  BSF    FA6.0
027B4:  MOVF   FA8,W
027B6:  MOVLB  3
027B8:  BTFSC  xF6.6
027BA:  BSF    FF2.6
027BC:  BTFSC  xF6.7
027BE:  BSF    FF2.7
027C0:  MOVWF  xD2
....................    delay_ms(10); 
027C2:  MOVLW  0A
027C4:  MOVLB  4
027C6:  MOVWF  x01
027C8:  MOVLB  0
027CA:  CALL   1BD4
....................    sg2=read_eeprom(45); 
027CE:  MOVFF  FF2,3F6
027D2:  BCF    FF2.6
027D4:  BCF    FF2.7
027D6:  CLRF   FAA
027D8:  MOVLW  2D
027DA:  MOVWF  FA9
027DC:  BCF    FA6.6
027DE:  BCF    FA6.7
027E0:  BSF    FA6.0
027E2:  MOVF   FA8,W
027E4:  MOVLB  3
027E6:  BTFSC  xF6.6
027E8:  BSF    FF2.6
027EA:  BTFSC  xF6.7
027EC:  BSF    FF2.7
027EE:  MOVWF  xD3
....................     
.................... } 
027F0:  MOVLB  0
027F2:  GOTO   5AC8 (RETURN)
....................  
.................... void LimitaValores(){ 
....................    if(Testerilizacionp[0]>9 || Testerilizacionp[0]<0){ 
*
029D8:  BTFSC  xD6.7
029DA:  BRA    29E2
029DC:  MOVF   xD6,W
029DE:  SUBLW  09
029E0:  BNC   29E8
029E2:  BTFSC  xD6.7
029E4:  BRA    29E8
029E6:  BRA    2A20
....................       Testerilizacionp[0]=0; 
029E8:  CLRF   xD6
....................       write_eeprom(0,0); 
029EA:  CLRF   FAA
029EC:  CLRF   FA9
029EE:  CLRF   FA8
029F0:  BCF    FA6.6
029F2:  BCF    FA6.7
029F4:  BSF    FA6.2
029F6:  MOVF   FF2,W
029F8:  MOVWF  00
029FA:  BCF    FF2.6
029FC:  BCF    FF2.7
029FE:  MOVLB  F
02A00:  MOVLW  55
02A02:  MOVWF  FA7
02A04:  MOVLW  AA
02A06:  MOVWF  FA7
02A08:  BSF    FA6.1
02A0A:  BTFSC  FA6.1
02A0C:  BRA    2A0A
02A0E:  BCF    FA6.2
02A10:  MOVF   00,W
02A12:  IORWF  FF2,F
....................       delay_ms(10); 
02A14:  MOVLW  0A
02A16:  MOVLB  4
02A18:  MOVWF  x01
02A1A:  MOVLB  0
02A1C:  CALL   1BD4
....................    } 
....................    if(Testerilizacionp[1]>9 || Testerilizacionp[1]<0){ 
02A20:  BTFSC  xD7.7
02A22:  BRA    2A2A
02A24:  MOVF   xD7,W
02A26:  SUBLW  09
02A28:  BNC   2A30
02A2A:  BTFSC  xD7.7
02A2C:  BRA    2A30
02A2E:  BRA    2A6A
....................       Testerilizacionp[1]=0; 
02A30:  CLRF   xD7
....................       write_eeprom(1,0); 
02A32:  CLRF   FAA
02A34:  MOVLW  01
02A36:  MOVWF  FA9
02A38:  CLRF   FA8
02A3A:  BCF    FA6.6
02A3C:  BCF    FA6.7
02A3E:  BSF    FA6.2
02A40:  MOVF   FF2,W
02A42:  MOVWF  00
02A44:  BCF    FF2.6
02A46:  BCF    FF2.7
02A48:  MOVLB  F
02A4A:  MOVLW  55
02A4C:  MOVWF  FA7
02A4E:  MOVLW  AA
02A50:  MOVWF  FA7
02A52:  BSF    FA6.1
02A54:  BTFSC  FA6.1
02A56:  BRA    2A54
02A58:  BCF    FA6.2
02A5A:  MOVF   00,W
02A5C:  IORWF  FF2,F
....................       delay_ms(10); 
02A5E:  MOVLW  0A
02A60:  MOVLB  4
02A62:  MOVWF  x01
02A64:  MOVLB  0
02A66:  CALL   1BD4
....................    } 
....................    if(Testerilizacionp[2]>9 || Testerilizacionp[2]<0){ 
02A6A:  BTFSC  xD8.7
02A6C:  BRA    2A74
02A6E:  MOVF   xD8,W
02A70:  SUBLW  09
02A72:  BNC   2A7A
02A74:  BTFSC  xD8.7
02A76:  BRA    2A7A
02A78:  BRA    2AB4
....................       Testerilizacionp[2]=0; 
02A7A:  CLRF   xD8
....................       write_eeprom(2,0); 
02A7C:  CLRF   FAA
02A7E:  MOVLW  02
02A80:  MOVWF  FA9
02A82:  CLRF   FA8
02A84:  BCF    FA6.6
02A86:  BCF    FA6.7
02A88:  BSF    FA6.2
02A8A:  MOVF   FF2,W
02A8C:  MOVWF  00
02A8E:  BCF    FF2.6
02A90:  BCF    FF2.7
02A92:  MOVLB  F
02A94:  MOVLW  55
02A96:  MOVWF  FA7
02A98:  MOVLW  AA
02A9A:  MOVWF  FA7
02A9C:  BSF    FA6.1
02A9E:  BTFSC  FA6.1
02AA0:  BRA    2A9E
02AA2:  BCF    FA6.2
02AA4:  MOVF   00,W
02AA6:  IORWF  FF2,F
....................       delay_ms(10); 
02AA8:  MOVLW  0A
02AAA:  MOVLB  4
02AAC:  MOVWF  x01
02AAE:  MOVLB  0
02AB0:  CALL   1BD4
....................    } 
....................    if(Testerilizacionp[3]>9 || Testerilizacionp[3]<0){ 
02AB4:  BTFSC  xD9.7
02AB6:  BRA    2ABE
02AB8:  MOVF   xD9,W
02ABA:  SUBLW  09
02ABC:  BNC   2AC4
02ABE:  BTFSC  xD9.7
02AC0:  BRA    2AC4
02AC2:  BRA    2AFE
....................       Testerilizacionp[3]=0; 
02AC4:  CLRF   xD9
....................       write_eeprom(3,0); 
02AC6:  CLRF   FAA
02AC8:  MOVLW  03
02ACA:  MOVWF  FA9
02ACC:  CLRF   FA8
02ACE:  BCF    FA6.6
02AD0:  BCF    FA6.7
02AD2:  BSF    FA6.2
02AD4:  MOVF   FF2,W
02AD6:  MOVWF  00
02AD8:  BCF    FF2.6
02ADA:  BCF    FF2.7
02ADC:  MOVLB  F
02ADE:  MOVLW  55
02AE0:  MOVWF  FA7
02AE2:  MOVLW  AA
02AE4:  MOVWF  FA7
02AE6:  BSF    FA6.1
02AE8:  BTFSC  FA6.1
02AEA:  BRA    2AE8
02AEC:  BCF    FA6.2
02AEE:  MOVF   00,W
02AF0:  IORWF  FF2,F
....................       delay_ms(10); 
02AF2:  MOVLW  0A
02AF4:  MOVLB  4
02AF6:  MOVWF  x01
02AF8:  MOVLB  0
02AFA:  CALL   1BD4
....................    } 
....................    if(Tsecadop[0]>9 || Tsecadop[0]<0){ 
02AFE:  BTFSC  xDE.7
02B00:  BRA    2B08
02B02:  MOVF   xDE,W
02B04:  SUBLW  09
02B06:  BNC   2B0E
02B08:  BTFSC  xDE.7
02B0A:  BRA    2B0E
02B0C:  BRA    2B48
....................       Tsecadop[0]=0; 
02B0E:  CLRF   xDE
....................       write_eeprom(4,0); 
02B10:  CLRF   FAA
02B12:  MOVLW  04
02B14:  MOVWF  FA9
02B16:  CLRF   FA8
02B18:  BCF    FA6.6
02B1A:  BCF    FA6.7
02B1C:  BSF    FA6.2
02B1E:  MOVF   FF2,W
02B20:  MOVWF  00
02B22:  BCF    FF2.6
02B24:  BCF    FF2.7
02B26:  MOVLB  F
02B28:  MOVLW  55
02B2A:  MOVWF  FA7
02B2C:  MOVLW  AA
02B2E:  MOVWF  FA7
02B30:  BSF    FA6.1
02B32:  BTFSC  FA6.1
02B34:  BRA    2B32
02B36:  BCF    FA6.2
02B38:  MOVF   00,W
02B3A:  IORWF  FF2,F
....................       delay_ms(10); 
02B3C:  MOVLW  0A
02B3E:  MOVLB  4
02B40:  MOVWF  x01
02B42:  MOVLB  0
02B44:  CALL   1BD4
....................    } 
....................    if(Tsecadop[1]>9 || Tsecadop[1]<0){ 
02B48:  BTFSC  xDF.7
02B4A:  BRA    2B52
02B4C:  MOVF   xDF,W
02B4E:  SUBLW  09
02B50:  BNC   2B58
02B52:  BTFSC  xDF.7
02B54:  BRA    2B58
02B56:  BRA    2B92
....................       Tsecadop[1]=0; 
02B58:  CLRF   xDF
....................       write_eeprom(5,0); 
02B5A:  CLRF   FAA
02B5C:  MOVLW  05
02B5E:  MOVWF  FA9
02B60:  CLRF   FA8
02B62:  BCF    FA6.6
02B64:  BCF    FA6.7
02B66:  BSF    FA6.2
02B68:  MOVF   FF2,W
02B6A:  MOVWF  00
02B6C:  BCF    FF2.6
02B6E:  BCF    FF2.7
02B70:  MOVLB  F
02B72:  MOVLW  55
02B74:  MOVWF  FA7
02B76:  MOVLW  AA
02B78:  MOVWF  FA7
02B7A:  BSF    FA6.1
02B7C:  BTFSC  FA6.1
02B7E:  BRA    2B7C
02B80:  BCF    FA6.2
02B82:  MOVF   00,W
02B84:  IORWF  FF2,F
....................       delay_ms(10); 
02B86:  MOVLW  0A
02B88:  MOVLB  4
02B8A:  MOVWF  x01
02B8C:  MOVLB  0
02B8E:  CALL   1BD4
....................    } 
....................    if(Tsecadop[2]>9 || Tsecadop[2]<0){ 
02B92:  BTFSC  xE0.7
02B94:  BRA    2B9C
02B96:  MOVF   xE0,W
02B98:  SUBLW  09
02B9A:  BNC   2BA2
02B9C:  BTFSC  xE0.7
02B9E:  BRA    2BA2
02BA0:  BRA    2BDC
....................       Tsecadop[2]=0; 
02BA2:  CLRF   xE0
....................       write_eeprom(6,0); 
02BA4:  CLRF   FAA
02BA6:  MOVLW  06
02BA8:  MOVWF  FA9
02BAA:  CLRF   FA8
02BAC:  BCF    FA6.6
02BAE:  BCF    FA6.7
02BB0:  BSF    FA6.2
02BB2:  MOVF   FF2,W
02BB4:  MOVWF  00
02BB6:  BCF    FF2.6
02BB8:  BCF    FF2.7
02BBA:  MOVLB  F
02BBC:  MOVLW  55
02BBE:  MOVWF  FA7
02BC0:  MOVLW  AA
02BC2:  MOVWF  FA7
02BC4:  BSF    FA6.1
02BC6:  BTFSC  FA6.1
02BC8:  BRA    2BC6
02BCA:  BCF    FA6.2
02BCC:  MOVF   00,W
02BCE:  IORWF  FF2,F
....................       delay_ms(10); 
02BD0:  MOVLW  0A
02BD2:  MOVLB  4
02BD4:  MOVWF  x01
02BD6:  MOVLB  0
02BD8:  CALL   1BD4
....................    } 
....................    if(Tsecadop[3]>9 || Tsecadop[3]<0){ 
02BDC:  BTFSC  xE1.7
02BDE:  BRA    2BE6
02BE0:  MOVF   xE1,W
02BE2:  SUBLW  09
02BE4:  BNC   2BEC
02BE6:  BTFSC  xE1.7
02BE8:  BRA    2BEC
02BEA:  BRA    2C26
....................       Tsecadop[3]=0; 
02BEC:  CLRF   xE1
....................       write_eeprom(7,0); 
02BEE:  CLRF   FAA
02BF0:  MOVLW  07
02BF2:  MOVWF  FA9
02BF4:  CLRF   FA8
02BF6:  BCF    FA6.6
02BF8:  BCF    FA6.7
02BFA:  BSF    FA6.2
02BFC:  MOVF   FF2,W
02BFE:  MOVWF  00
02C00:  BCF    FF2.6
02C02:  BCF    FF2.7
02C04:  MOVLB  F
02C06:  MOVLW  55
02C08:  MOVWF  FA7
02C0A:  MOVLW  AA
02C0C:  MOVWF  FA7
02C0E:  BSF    FA6.1
02C10:  BTFSC  FA6.1
02C12:  BRA    2C10
02C14:  BCF    FA6.2
02C16:  MOVF   00,W
02C18:  IORWF  FF2,F
....................       delay_ms(10); 
02C1A:  MOVLW  0A
02C1C:  MOVLB  4
02C1E:  MOVWF  x01
02C20:  MOVLB  0
02C22:  CALL   1BD4
....................    } 
....................    if(Setpoint>134){ 
02C26:  MOVLB  3
02C28:  MOVF   x8F,W
02C2A:  SUBLW  86
02C2C:  BC    2C6E
....................       Setpoint=121; 
02C2E:  MOVLW  79
02C30:  MOVWF  x8F
....................       write_eeprom(8,121); 
02C32:  CLRF   FAA
02C34:  MOVLW  08
02C36:  MOVWF  FA9
02C38:  MOVLW  79
02C3A:  MOVWF  FA8
02C3C:  BCF    FA6.6
02C3E:  BCF    FA6.7
02C40:  BSF    FA6.2
02C42:  MOVF   FF2,W
02C44:  MOVWF  00
02C46:  BCF    FF2.6
02C48:  BCF    FF2.7
02C4A:  MOVLB  F
02C4C:  MOVLW  55
02C4E:  MOVWF  FA7
02C50:  MOVLW  AA
02C52:  MOVWF  FA7
02C54:  BSF    FA6.1
02C56:  BTFSC  FA6.1
02C58:  BRA    2C56
02C5A:  BCF    FA6.2
02C5C:  MOVF   00,W
02C5E:  IORWF  FF2,F
....................       delay_ms(10); 
02C60:  MOVLW  0A
02C62:  MOVLB  4
02C64:  MOVWF  x01
02C66:  MOVLB  0
02C68:  CALL   1BD4
02C6C:  MOVLB  3
....................    } 
....................    if(Nivel>6){ 
02C6E:  MOVF   x9E,F
02C70:  BNZ   2C78
02C72:  MOVF   x9D,W
02C74:  SUBLW  06
02C76:  BC    2CBA
....................       Nivel=3; 
02C78:  CLRF   x9E
02C7A:  MOVLW  03
02C7C:  MOVWF  x9D
....................       write_eeprom(9,3); 
02C7E:  CLRF   FAA
02C80:  MOVLW  09
02C82:  MOVWF  FA9
02C84:  MOVLW  03
02C86:  MOVWF  FA8
02C88:  BCF    FA6.6
02C8A:  BCF    FA6.7
02C8C:  BSF    FA6.2
02C8E:  MOVF   FF2,W
02C90:  MOVWF  00
02C92:  BCF    FF2.6
02C94:  BCF    FF2.7
02C96:  MOVLB  F
02C98:  MOVLW  55
02C9A:  MOVWF  FA7
02C9C:  MOVLW  AA
02C9E:  MOVWF  FA7
02CA0:  BSF    FA6.1
02CA2:  BTFSC  FA6.1
02CA4:  BRA    2CA2
02CA6:  BCF    FA6.2
02CA8:  MOVF   00,W
02CAA:  IORWF  FF2,F
....................       delay_ms(10); 
02CAC:  MOVLW  0A
02CAE:  MOVLB  4
02CB0:  MOVWF  x01
02CB2:  MOVLB  0
02CB4:  CALL   1BD4
02CB8:  MOVLB  3
....................    } 
....................    if(Password[0]>9 || Password[0]<0){ 
02CBA:  BTFSC  xAD.7
02CBC:  BRA    2CC4
02CBE:  MOVF   xAD,W
02CC0:  SUBLW  09
02CC2:  BNC   2CCA
02CC4:  BTFSC  xAD.7
02CC6:  BRA    2CCA
02CC8:  BRA    2D06
....................       Password[0]=0; 
02CCA:  CLRF   xAD
....................       write_eeprom(10,0); 
02CCC:  CLRF   FAA
02CCE:  MOVLW  0A
02CD0:  MOVWF  FA9
02CD2:  CLRF   FA8
02CD4:  BCF    FA6.6
02CD6:  BCF    FA6.7
02CD8:  BSF    FA6.2
02CDA:  MOVF   FF2,W
02CDC:  MOVWF  00
02CDE:  BCF    FF2.6
02CE0:  BCF    FF2.7
02CE2:  MOVLB  F
02CE4:  MOVLW  55
02CE6:  MOVWF  FA7
02CE8:  MOVLW  AA
02CEA:  MOVWF  FA7
02CEC:  BSF    FA6.1
02CEE:  BTFSC  FA6.1
02CF0:  BRA    2CEE
02CF2:  BCF    FA6.2
02CF4:  MOVF   00,W
02CF6:  IORWF  FF2,F
....................       delay_ms(10); 
02CF8:  MOVLW  0A
02CFA:  MOVLB  4
02CFC:  MOVWF  x01
02CFE:  MOVLB  0
02D00:  CALL   1BD4
02D04:  MOVLB  3
....................    } 
....................    if(Password[1]>9 || Password[1]<0){ 
02D06:  BTFSC  xAE.7
02D08:  BRA    2D10
02D0A:  MOVF   xAE,W
02D0C:  SUBLW  09
02D0E:  BNC   2D16
02D10:  BTFSC  xAE.7
02D12:  BRA    2D16
02D14:  BRA    2D52
....................       Password[1]=0; 
02D16:  CLRF   xAE
....................       write_eeprom(11,0); 
02D18:  CLRF   FAA
02D1A:  MOVLW  0B
02D1C:  MOVWF  FA9
02D1E:  CLRF   FA8
02D20:  BCF    FA6.6
02D22:  BCF    FA6.7
02D24:  BSF    FA6.2
02D26:  MOVF   FF2,W
02D28:  MOVWF  00
02D2A:  BCF    FF2.6
02D2C:  BCF    FF2.7
02D2E:  MOVLB  F
02D30:  MOVLW  55
02D32:  MOVWF  FA7
02D34:  MOVLW  AA
02D36:  MOVWF  FA7
02D38:  BSF    FA6.1
02D3A:  BTFSC  FA6.1
02D3C:  BRA    2D3A
02D3E:  BCF    FA6.2
02D40:  MOVF   00,W
02D42:  IORWF  FF2,F
....................       delay_ms(10); 
02D44:  MOVLW  0A
02D46:  MOVLB  4
02D48:  MOVWF  x01
02D4A:  MOVLB  0
02D4C:  CALL   1BD4
02D50:  MOVLB  3
....................    } 
....................    if(Password[2]>9 || Password[2]<0){ 
02D52:  BTFSC  xAF.7
02D54:  BRA    2D5C
02D56:  MOVF   xAF,W
02D58:  SUBLW  09
02D5A:  BNC   2D62
02D5C:  BTFSC  xAF.7
02D5E:  BRA    2D62
02D60:  BRA    2D9E
....................       Password[2]=0; 
02D62:  CLRF   xAF
....................       write_eeprom(12,0); 
02D64:  CLRF   FAA
02D66:  MOVLW  0C
02D68:  MOVWF  FA9
02D6A:  CLRF   FA8
02D6C:  BCF    FA6.6
02D6E:  BCF    FA6.7
02D70:  BSF    FA6.2
02D72:  MOVF   FF2,W
02D74:  MOVWF  00
02D76:  BCF    FF2.6
02D78:  BCF    FF2.7
02D7A:  MOVLB  F
02D7C:  MOVLW  55
02D7E:  MOVWF  FA7
02D80:  MOVLW  AA
02D82:  MOVWF  FA7
02D84:  BSF    FA6.1
02D86:  BTFSC  FA6.1
02D88:  BRA    2D86
02D8A:  BCF    FA6.2
02D8C:  MOVF   00,W
02D8E:  IORWF  FF2,F
....................       delay_ms(10); 
02D90:  MOVLW  0A
02D92:  MOVLB  4
02D94:  MOVWF  x01
02D96:  MOVLB  0
02D98:  CALL   1BD4
02D9C:  MOVLB  3
....................    } 
....................    if(Password[3]>9 || Password[3]<0){ 
02D9E:  BTFSC  xB0.7
02DA0:  BRA    2DA8
02DA2:  MOVF   xB0,W
02DA4:  SUBLW  09
02DA6:  BNC   2DAE
02DA8:  BTFSC  xB0.7
02DAA:  BRA    2DAE
02DAC:  BRA    2DEA
....................       Password[3]=0; 
02DAE:  CLRF   xB0
....................       write_eeprom(13,0); 
02DB0:  CLRF   FAA
02DB2:  MOVLW  0D
02DB4:  MOVWF  FA9
02DB6:  CLRF   FA8
02DB8:  BCF    FA6.6
02DBA:  BCF    FA6.7
02DBC:  BSF    FA6.2
02DBE:  MOVF   FF2,W
02DC0:  MOVWF  00
02DC2:  BCF    FF2.6
02DC4:  BCF    FF2.7
02DC6:  MOVLB  F
02DC8:  MOVLW  55
02DCA:  MOVWF  FA7
02DCC:  MOVLW  AA
02DCE:  MOVWF  FA7
02DD0:  BSF    FA6.1
02DD2:  BTFSC  FA6.1
02DD4:  BRA    2DD2
02DD6:  BCF    FA6.2
02DD8:  MOVF   00,W
02DDA:  IORWF  FF2,F
....................       delay_ms(10); 
02DDC:  MOVLW  0A
02DDE:  MOVLB  4
02DE0:  MOVWF  x01
02DE2:  MOVLB  0
02DE4:  CALL   1BD4
02DE8:  MOVLB  3
....................    } 
....................    if(Ganancia>20.0){ 
02DEA:  CLRF   xFD
02DEC:  CLRF   xFC
02DEE:  MOVLW  20
02DF0:  MOVWF  xFB
02DF2:  MOVLW  83
02DF4:  MOVWF  xFA
02DF6:  MOVFF  340,401
02DFA:  MOVFF  33F,400
02DFE:  MOVFF  33E,3FF
02E02:  MOVFF  33D,3FE
02E06:  MOVLB  0
02E08:  RCALL  28E0
02E0A:  BNC   2E54
....................       Ganancia=15.0; 
02E0C:  MOVLB  3
02E0E:  CLRF   x40
02E10:  CLRF   x3F
02E12:  MOVLW  70
02E14:  MOVWF  x3E
02E16:  MOVLW  82
02E18:  MOVWF  x3D
....................       write_eeprom(20,15); 
02E1A:  CLRF   FAA
02E1C:  MOVLW  14
02E1E:  MOVWF  FA9
02E20:  MOVLW  0F
02E22:  MOVWF  FA8
02E24:  BCF    FA6.6
02E26:  BCF    FA6.7
02E28:  BSF    FA6.2
02E2A:  MOVF   FF2,W
02E2C:  MOVWF  00
02E2E:  BCF    FF2.6
02E30:  BCF    FF2.7
02E32:  MOVLB  F
02E34:  MOVLW  55
02E36:  MOVWF  FA7
02E38:  MOVLW  AA
02E3A:  MOVWF  FA7
02E3C:  BSF    FA6.1
02E3E:  BTFSC  FA6.1
02E40:  BRA    2E3E
02E42:  BCF    FA6.2
02E44:  MOVF   00,W
02E46:  IORWF  FF2,F
....................       delay_ms(10); 
02E48:  MOVLW  0A
02E4A:  MOVLB  4
02E4C:  MOVWF  x01
02E4E:  MOVLB  0
02E50:  CALL   1BD4
....................    } 
....................    if(Ajuste>50){ 
02E54:  MOVLB  3
02E56:  MOVF   x14,W
02E58:  SUBLW  32
02E5A:  BC    2E98
....................       Ajuste=0; 
02E5C:  CLRF   x14
....................       write_eeprom(21,0); 
02E5E:  CLRF   FAA
02E60:  MOVLW  15
02E62:  MOVWF  FA9
02E64:  CLRF   FA8
02E66:  BCF    FA6.6
02E68:  BCF    FA6.7
02E6A:  BSF    FA6.2
02E6C:  MOVF   FF2,W
02E6E:  MOVWF  00
02E70:  BCF    FF2.6
02E72:  BCF    FF2.7
02E74:  MOVLB  F
02E76:  MOVLW  55
02E78:  MOVWF  FA7
02E7A:  MOVLW  AA
02E7C:  MOVWF  FA7
02E7E:  BSF    FA6.1
02E80:  BTFSC  FA6.1
02E82:  BRA    2E80
02E84:  BCF    FA6.2
02E86:  MOVF   00,W
02E88:  IORWF  FF2,F
....................       delay_ms(10); 
02E8A:  MOVLW  0A
02E8C:  MOVLB  4
02E8E:  MOVWF  x01
02E90:  MOVLB  0
02E92:  CALL   1BD4
02E96:  MOVLB  3
....................    } 
....................    if(Ajusten>50){ 
02E98:  MOVF   x15,W
02E9A:  SUBLW  32
02E9C:  BC    2EDA
....................       Ajusten=0; 
02E9E:  CLRF   x15
....................       write_eeprom(22,0); 
02EA0:  CLRF   FAA
02EA2:  MOVLW  16
02EA4:  MOVWF  FA9
02EA6:  CLRF   FA8
02EA8:  BCF    FA6.6
02EAA:  BCF    FA6.7
02EAC:  BSF    FA6.2
02EAE:  MOVF   FF2,W
02EB0:  MOVWF  00
02EB2:  BCF    FF2.6
02EB4:  BCF    FF2.7
02EB6:  MOVLB  F
02EB8:  MOVLW  55
02EBA:  MOVWF  FA7
02EBC:  MOVLW  AA
02EBE:  MOVWF  FA7
02EC0:  BSF    FA6.1
02EC2:  BTFSC  FA6.1
02EC4:  BRA    2EC2
02EC6:  BCF    FA6.2
02EC8:  MOVF   00,W
02ECA:  IORWF  FF2,F
....................       delay_ms(10); 
02ECC:  MOVLW  0A
02ECE:  MOVLB  4
02ED0:  MOVWF  x01
02ED2:  MOVLB  0
02ED4:  CALL   1BD4
02ED8:  MOVLB  3
....................    } 
....................    if(MediaMovil>80){ 
02EDA:  MOVF   x16,W
02EDC:  SUBLW  50
02EDE:  BC    2F20
....................       MediaMovil=80; 
02EE0:  MOVLW  50
02EE2:  MOVWF  x16
....................       write_eeprom(24,80); 
02EE4:  CLRF   FAA
02EE6:  MOVLW  18
02EE8:  MOVWF  FA9
02EEA:  MOVLW  50
02EEC:  MOVWF  FA8
02EEE:  BCF    FA6.6
02EF0:  BCF    FA6.7
02EF2:  BSF    FA6.2
02EF4:  MOVF   FF2,W
02EF6:  MOVWF  00
02EF8:  BCF    FF2.6
02EFA:  BCF    FF2.7
02EFC:  MOVLB  F
02EFE:  MOVLW  55
02F00:  MOVWF  FA7
02F02:  MOVLW  AA
02F04:  MOVWF  FA7
02F06:  BSF    FA6.1
02F08:  BTFSC  FA6.1
02F0A:  BRA    2F08
02F0C:  BCF    FA6.2
02F0E:  MOVF   00,W
02F10:  IORWF  FF2,F
....................       delay_ms(10); 
02F12:  MOVLW  0A
02F14:  MOVLB  4
02F16:  MOVWF  x01
02F18:  MOVLB  0
02F1A:  CALL   1BD4
02F1E:  MOVLB  3
....................    } 
....................    if(Tciclo>10){ 
02F20:  CLRF   xFD
02F22:  CLRF   xFC
02F24:  MOVLW  20
02F26:  MOVWF  xFB
02F28:  MOVLW  82
02F2A:  MOVWF  xFA
02F2C:  MOVFF  328,401
02F30:  MOVFF  327,400
02F34:  MOVFF  326,3FF
02F38:  MOVFF  325,3FE
02F3C:  MOVLB  0
02F3E:  RCALL  28E0
02F40:  BNC   2F8A
....................       Tciclo=10; 
02F42:  MOVLB  3
02F44:  CLRF   x28
02F46:  CLRF   x27
02F48:  MOVLW  20
02F4A:  MOVWF  x26
02F4C:  MOVLW  82
02F4E:  MOVWF  x25
....................       write_eeprom(25,10); 
02F50:  CLRF   FAA
02F52:  MOVLW  19
02F54:  MOVWF  FA9
02F56:  MOVLW  0A
02F58:  MOVWF  FA8
02F5A:  BCF    FA6.6
02F5C:  BCF    FA6.7
02F5E:  BSF    FA6.2
02F60:  MOVF   FF2,W
02F62:  MOVWF  00
02F64:  BCF    FF2.6
02F66:  BCF    FF2.7
02F68:  MOVLB  F
02F6A:  MOVLW  55
02F6C:  MOVWF  FA7
02F6E:  MOVLW  AA
02F70:  MOVWF  FA7
02F72:  BSF    FA6.1
02F74:  BTFSC  FA6.1
02F76:  BRA    2F74
02F78:  BCF    FA6.2
02F7A:  MOVF   00,W
02F7C:  IORWF  FF2,F
....................       delay_ms(10); 
02F7E:  MOVLW  0A
02F80:  MOVLB  4
02F82:  MOVWF  x01
02F84:  MOVLB  0
02F86:  CALL   1BD4
....................    } 
....................    if(Integral>10.0){ 
02F8A:  MOVLB  4
02F8C:  CLRF   x02
02F8E:  MOVFF  375,401
02F92:  MOVLB  0
02F94:  CALL   1BFC
02F98:  MOVLB  3
02F9A:  CLRF   xFD
02F9C:  CLRF   xFC
02F9E:  MOVLW  20
02FA0:  MOVWF  xFB
02FA2:  MOVLW  82
02FA4:  MOVWF  xFA
02FA6:  MOVFF  03,401
02FAA:  MOVFF  02,400
02FAE:  MOVFF  01,3FF
02FB2:  MOVFF  00,3FE
02FB6:  MOVLB  0
02FB8:  RCALL  28E0
02FBA:  BNC   2FFC
....................       Integral=1.0; 
02FBC:  MOVLW  01
02FBE:  MOVLB  3
02FC0:  MOVWF  x75
....................       write_eeprom(26,1); 
02FC2:  CLRF   FAA
02FC4:  MOVLW  1A
02FC6:  MOVWF  FA9
02FC8:  MOVLW  01
02FCA:  MOVWF  FA8
02FCC:  BCF    FA6.6
02FCE:  BCF    FA6.7
02FD0:  BSF    FA6.2
02FD2:  MOVF   FF2,W
02FD4:  MOVWF  00
02FD6:  BCF    FF2.6
02FD8:  BCF    FF2.7
02FDA:  MOVLB  F
02FDC:  MOVLW  55
02FDE:  MOVWF  FA7
02FE0:  MOVLW  AA
02FE2:  MOVWF  FA7
02FE4:  BSF    FA6.1
02FE6:  BTFSC  FA6.1
02FE8:  BRA    2FE6
02FEA:  BCF    FA6.2
02FEC:  MOVF   00,W
02FEE:  IORWF  FF2,F
....................       delay_ms(10); 
02FF0:  MOVLW  0A
02FF2:  MOVLB  4
02FF4:  MOVWF  x01
02FF6:  MOVLB  0
02FF8:  CALL   1BD4
....................    } 
....................    if(Derivativo>90.0){ 
02FFC:  MOVLB  4
02FFE:  CLRF   x02
03000:  MOVFF  376,401
03004:  MOVLB  0
03006:  CALL   1BFC
0300A:  MOVLB  3
0300C:  CLRF   xFD
0300E:  CLRF   xFC
03010:  MOVLW  34
03012:  MOVWF  xFB
03014:  MOVLW  85
03016:  MOVWF  xFA
03018:  MOVFF  03,401
0301C:  MOVFF  02,400
03020:  MOVFF  01,3FF
03024:  MOVFF  00,3FE
03028:  MOVLB  0
0302A:  RCALL  28E0
0302C:  BNC   306E
....................       Derivativo=15.0; 
0302E:  MOVLW  0F
03030:  MOVLB  3
03032:  MOVWF  x76
....................       write_eeprom(27,15); 
03034:  CLRF   FAA
03036:  MOVLW  1B
03038:  MOVWF  FA9
0303A:  MOVLW  0F
0303C:  MOVWF  FA8
0303E:  BCF    FA6.6
03040:  BCF    FA6.7
03042:  BSF    FA6.2
03044:  MOVF   FF2,W
03046:  MOVWF  00
03048:  BCF    FF2.6
0304A:  BCF    FF2.7
0304C:  MOVLB  F
0304E:  MOVLW  55
03050:  MOVWF  FA7
03052:  MOVLW  AA
03054:  MOVWF  FA7
03056:  BSF    FA6.1
03058:  BTFSC  FA6.1
0305A:  BRA    3058
0305C:  BCF    FA6.2
0305E:  MOVF   00,W
03060:  IORWF  FF2,F
....................       delay_ms(10); 
03062:  MOVLW  0A
03064:  MOVLB  4
03066:  MOVWF  x01
03068:  MOVLB  0
0306A:  CALL   1BD4
....................    } 
....................    if(Gain>50){ 
0306E:  MOVLB  3
03070:  CLRF   xFD
03072:  CLRF   xFC
03074:  MOVLW  48
03076:  MOVWF  xFB
03078:  MOVLW  84
0307A:  MOVWF  xFA
0307C:  MOVFF  2C5,401
03080:  MOVFF  2C4,400
03084:  MOVFF  2C3,3FF
03088:  MOVFF  2C2,3FE
0308C:  MOVLB  0
0308E:  RCALL  28E0
03090:  BNC   3118
....................       Gain=40.2; 
03092:  MOVLW  CD
03094:  MOVLB  2
03096:  MOVWF  xC5
03098:  MOVLW  CC
0309A:  MOVWF  xC4
0309C:  MOVLW  20
0309E:  MOVWF  xC3
030A0:  MOVLW  84
030A2:  MOVWF  xC2
....................       write_eeprom(28,40); 
030A4:  CLRF   FAA
030A6:  MOVLW  1C
030A8:  MOVWF  FA9
030AA:  MOVLW  28
030AC:  MOVWF  FA8
030AE:  BCF    FA6.6
030B0:  BCF    FA6.7
030B2:  BSF    FA6.2
030B4:  MOVF   FF2,W
030B6:  MOVWF  00
030B8:  BCF    FF2.6
030BA:  BCF    FF2.7
030BC:  MOVLB  F
030BE:  MOVLW  55
030C0:  MOVWF  FA7
030C2:  MOVLW  AA
030C4:  MOVWF  FA7
030C6:  BSF    FA6.1
030C8:  BTFSC  FA6.1
030CA:  BRA    30C8
030CC:  BCF    FA6.2
030CE:  MOVF   00,W
030D0:  IORWF  FF2,F
....................       delay_ms(10); 
030D2:  MOVLW  0A
030D4:  MOVLB  4
030D6:  MOVWF  x01
030D8:  MOVLB  0
030DA:  CALL   1BD4
....................       write_eeprom(29,2); 
030DE:  CLRF   FAA
030E0:  MOVLW  1D
030E2:  MOVWF  FA9
030E4:  MOVLW  02
030E6:  MOVWF  FA8
030E8:  BCF    FA6.6
030EA:  BCF    FA6.7
030EC:  BSF    FA6.2
030EE:  MOVF   FF2,W
030F0:  MOVWF  00
030F2:  BCF    FF2.6
030F4:  BCF    FF2.7
030F6:  MOVLB  F
030F8:  MOVLW  55
030FA:  MOVWF  FA7
030FC:  MOVLW  AA
030FE:  MOVWF  FA7
03100:  BSF    FA6.1
03102:  BTFSC  FA6.1
03104:  BRA    3102
03106:  BCF    FA6.2
03108:  MOVF   00,W
0310A:  IORWF  FF2,F
....................       delay_ms(10); 
0310C:  MOVLW  0A
0310E:  MOVLB  4
03110:  MOVWF  x01
03112:  MOVLB  0
03114:  CALL   1BD4
....................    } 
....................    if(R1>6400){ 
03118:  MOVLB  3
0311A:  CLRF   xFD
0311C:  CLRF   xFC
0311E:  MOVLW  48
03120:  MOVWF  xFB
03122:  MOVLW  8B
03124:  MOVWF  xFA
03126:  MOVFF  2D1,401
0312A:  MOVFF  2D0,400
0312E:  MOVFF  2CF,3FF
03132:  MOVFF  2CE,3FE
03136:  MOVLB  0
03138:  CALL   28E0
0313C:  BNC   31C2
....................       R1=6200; 
0313E:  MOVLB  2
03140:  CLRF   xD1
03142:  MOVLW  C0
03144:  MOVWF  xD0
03146:  MOVLW  41
03148:  MOVWF  xCF
0314A:  MOVLW  8B
0314C:  MOVWF  xCE
....................       write_eeprom(30,0x38); 
0314E:  CLRF   FAA
03150:  MOVLW  1E
03152:  MOVWF  FA9
03154:  MOVLW  38
03156:  MOVWF  FA8
03158:  BCF    FA6.6
0315A:  BCF    FA6.7
0315C:  BSF    FA6.2
0315E:  MOVF   FF2,W
03160:  MOVWF  00
03162:  BCF    FF2.6
03164:  BCF    FF2.7
03166:  MOVLB  F
03168:  MOVLW  55
0316A:  MOVWF  FA7
0316C:  MOVLW  AA
0316E:  MOVWF  FA7
03170:  BSF    FA6.1
03172:  BTFSC  FA6.1
03174:  BRA    3172
03176:  BCF    FA6.2
03178:  MOVF   00,W
0317A:  IORWF  FF2,F
....................       delay_ms(10); 
0317C:  MOVLW  0A
0317E:  MOVLB  4
03180:  MOVWF  x01
03182:  MOVLB  0
03184:  CALL   1BD4
....................       write_eeprom(31,0x18); 
03188:  CLRF   FAA
0318A:  MOVLW  1F
0318C:  MOVWF  FA9
0318E:  MOVLW  18
03190:  MOVWF  FA8
03192:  BCF    FA6.6
03194:  BCF    FA6.7
03196:  BSF    FA6.2
03198:  MOVF   FF2,W
0319A:  MOVWF  00
0319C:  BCF    FF2.6
0319E:  BCF    FF2.7
031A0:  MOVLB  F
031A2:  MOVLW  55
031A4:  MOVWF  FA7
031A6:  MOVLW  AA
031A8:  MOVWF  FA7
031AA:  BSF    FA6.1
031AC:  BTFSC  FA6.1
031AE:  BRA    31AC
031B0:  BCF    FA6.2
031B2:  MOVF   00,W
031B4:  IORWF  FF2,F
....................       delay_ms(10); 
031B6:  MOVLW  0A
031B8:  MOVLB  4
031BA:  MOVWF  x01
031BC:  MOVLB  0
031BE:  CALL   1BD4
....................    } 
....................    if(RPT100>2.0){ 
031C2:  MOVLB  3
031C4:  CLRF   xFD
031C6:  CLRF   xFC
031C8:  CLRF   xFB
031CA:  MOVLW  80
031CC:  MOVWF  xFA
031CE:  MOVFF  2C9,401
031D2:  MOVFF  2C8,400
031D6:  MOVFF  2C7,3FF
031DA:  MOVFF  2C6,3FE
031DE:  MOVLB  0
031E0:  CALL   28E0
031E4:  BNC   3264
....................       RPT100=0.5; 
031E6:  MOVLB  2
031E8:  CLRF   xC9
031EA:  CLRF   xC8
031EC:  CLRF   xC7
031EE:  MOVLW  7E
031F0:  MOVWF  xC6
....................       write_eeprom(32,0); 
031F2:  CLRF   FAA
031F4:  MOVLW  20
031F6:  MOVWF  FA9
031F8:  CLRF   FA8
031FA:  BCF    FA6.6
031FC:  BCF    FA6.7
031FE:  BSF    FA6.2
03200:  MOVF   FF2,W
03202:  MOVWF  00
03204:  BCF    FF2.6
03206:  BCF    FF2.7
03208:  MOVLB  F
0320A:  MOVLW  55
0320C:  MOVWF  FA7
0320E:  MOVLW  AA
03210:  MOVWF  FA7
03212:  BSF    FA6.1
03214:  BTFSC  FA6.1
03216:  BRA    3214
03218:  BCF    FA6.2
0321A:  MOVF   00,W
0321C:  IORWF  FF2,F
....................       delay_ms(10); 
0321E:  MOVLW  0A
03220:  MOVLB  4
03222:  MOVWF  x01
03224:  MOVLB  0
03226:  CALL   1BD4
....................       write_eeprom(33,5); 
0322A:  CLRF   FAA
0322C:  MOVLW  21
0322E:  MOVWF  FA9
03230:  MOVLW  05
03232:  MOVWF  FA8
03234:  BCF    FA6.6
03236:  BCF    FA6.7
03238:  BSF    FA6.2
0323A:  MOVF   FF2,W
0323C:  MOVWF  00
0323E:  BCF    FF2.6
03240:  BCF    FF2.7
03242:  MOVLB  F
03244:  MOVLW  55
03246:  MOVWF  FA7
03248:  MOVLW  AA
0324A:  MOVWF  FA7
0324C:  BSF    FA6.1
0324E:  BTFSC  FA6.1
03250:  BRA    324E
03252:  BCF    FA6.2
03254:  MOVF   00,W
03256:  IORWF  FF2,F
....................       delay_ms(10); 
03258:  MOVLW  0A
0325A:  MOVLB  4
0325C:  MOVWF  x01
0325E:  MOVLB  0
03260:  CALL   1BD4
....................    } 
....................    if(Ciclos>60000){ 
03264:  MOVLB  3
03266:  MOVF   xA6,W
03268:  SUBLW  E9
0326A:  BC    32EC
0326C:  XORLW  FF
0326E:  BNZ   3276
03270:  MOVF   xA5,W
03272:  SUBLW  60
03274:  BC    32EC
....................       Ciclos=0; 
03276:  CLRF   xA6
03278:  CLRF   xA5
....................       write_eeprom(37,0); 
0327A:  CLRF   FAA
0327C:  MOVLW  25
0327E:  MOVWF  FA9
03280:  CLRF   FA8
03282:  BCF    FA6.6
03284:  BCF    FA6.7
03286:  BSF    FA6.2
03288:  MOVF   FF2,W
0328A:  MOVWF  00
0328C:  BCF    FF2.6
0328E:  BCF    FF2.7
03290:  MOVLB  F
03292:  MOVLW  55
03294:  MOVWF  FA7
03296:  MOVLW  AA
03298:  MOVWF  FA7
0329A:  BSF    FA6.1
0329C:  BTFSC  FA6.1
0329E:  BRA    329C
032A0:  BCF    FA6.2
032A2:  MOVF   00,W
032A4:  IORWF  FF2,F
....................       delay_ms(10); 
032A6:  MOVLW  0A
032A8:  MOVLB  4
032AA:  MOVWF  x01
032AC:  MOVLB  0
032AE:  CALL   1BD4
....................       write_eeprom(38,0); 
032B2:  CLRF   FAA
032B4:  MOVLW  26
032B6:  MOVWF  FA9
032B8:  CLRF   FA8
032BA:  BCF    FA6.6
032BC:  BCF    FA6.7
032BE:  BSF    FA6.2
032C0:  MOVF   FF2,W
032C2:  MOVWF  00
032C4:  BCF    FF2.6
032C6:  BCF    FF2.7
032C8:  MOVLB  F
032CA:  MOVLW  55
032CC:  MOVWF  FA7
032CE:  MOVLW  AA
032D0:  MOVWF  FA7
032D2:  BSF    FA6.1
032D4:  BTFSC  FA6.1
032D6:  BRA    32D4
032D8:  BCF    FA6.2
032DA:  MOVF   00,W
032DC:  IORWF  FF2,F
....................       delay_ms(10); 
032DE:  MOVLW  0A
032E0:  MOVLB  4
032E2:  MOVWF  x01
032E4:  MOVLB  0
032E6:  CALL   1BD4
032EA:  MOVLB  3
....................    } 
....................    if(TTrampa>100){ 
032EC:  MOVF   x17,W
032EE:  SUBLW  64
032F0:  BC    3332
....................       TTrampa=80; 
032F2:  MOVLW  50
032F4:  MOVWF  x17
....................       write_eeprom(39,80); 
032F6:  CLRF   FAA
032F8:  MOVLW  27
032FA:  MOVWF  FA9
032FC:  MOVLW  50
032FE:  MOVWF  FA8
03300:  BCF    FA6.6
03302:  BCF    FA6.7
03304:  BSF    FA6.2
03306:  MOVF   FF2,W
03308:  MOVWF  00
0330A:  BCF    FF2.6
0330C:  BCF    FF2.7
0330E:  MOVLB  F
03310:  MOVLW  55
03312:  MOVWF  FA7
03314:  MOVLW  AA
03316:  MOVWF  FA7
03318:  BSF    FA6.1
0331A:  BTFSC  FA6.1
0331C:  BRA    331A
0331E:  BCF    FA6.2
03320:  MOVF   00,W
03322:  IORWF  FF2,F
....................       delay_ms(10); 
03324:  MOVLW  0A
03326:  MOVLB  4
03328:  MOVWF  x01
0332A:  MOVLB  0
0332C:  CALL   1BD4
03330:  MOVLB  3
....................    } 
....................    if(ActivaImpresion>1){ 
03332:  MOVF   x80,W
03334:  SUBLW  01
03336:  BC    3378
....................       ActivaImpresion=1; 
03338:  MOVLW  01
0333A:  MOVWF  x80
....................       write_eeprom(40,1); 
0333C:  CLRF   FAA
0333E:  MOVLW  28
03340:  MOVWF  FA9
03342:  MOVLW  01
03344:  MOVWF  FA8
03346:  BCF    FA6.6
03348:  BCF    FA6.7
0334A:  BSF    FA6.2
0334C:  MOVF   FF2,W
0334E:  MOVWF  00
03350:  BCF    FF2.6
03352:  BCF    FF2.7
03354:  MOVLB  F
03356:  MOVLW  55
03358:  MOVWF  FA7
0335A:  MOVLW  AA
0335C:  MOVWF  FA7
0335E:  BSF    FA6.1
03360:  BTFSC  FA6.1
03362:  BRA    3360
03364:  BCF    FA6.2
03366:  MOVF   00,W
03368:  IORWF  FF2,F
....................       delay_ms(10); 
0336A:  MOVLW  0A
0336C:  MOVLB  4
0336E:  MOVWF  x01
03370:  MOVLB  0
03372:  CALL   1BD4
03376:  MOVLB  3
....................    } 
....................    if(timpresion>30){ 
03378:  MOVF   x81,W
0337A:  SUBLW  1E
0337C:  BC    33BE
....................       timpresion=2; 
0337E:  MOVLW  02
03380:  MOVWF  x81
....................       write_eeprom(41,2); 
03382:  CLRF   FAA
03384:  MOVLW  29
03386:  MOVWF  FA9
03388:  MOVLW  02
0338A:  MOVWF  FA8
0338C:  BCF    FA6.6
0338E:  BCF    FA6.7
03390:  BSF    FA6.2
03392:  MOVF   FF2,W
03394:  MOVWF  00
03396:  BCF    FF2.6
03398:  BCF    FF2.7
0339A:  MOVLB  F
0339C:  MOVLW  55
0339E:  MOVWF  FA7
033A0:  MOVLW  AA
033A2:  MOVWF  FA7
033A4:  BSF    FA6.1
033A6:  BTFSC  FA6.1
033A8:  BRA    33A6
033AA:  BCF    FA6.2
033AC:  MOVF   00,W
033AE:  IORWF  FF2,F
....................       delay_ms(10); 
033B0:  MOVLW  0A
033B2:  MOVLB  4
033B4:  MOVWF  x01
033B6:  MOVLB  0
033B8:  CALL   1BD4
033BC:  MOVLB  3
....................    } 
....................    if(sg1==10){ 
033BE:  MOVF   xD2,W
033C0:  SUBLW  0A
033C2:  BNZ   33D8
....................       G1=G1*(-1); 
033C4:  MOVFF  3D0,3F6
033C8:  MOVLW  FF
033CA:  MOVWF  xF7
033CC:  MOVLB  0
033CE:  CALL   298A
033D2:  MOVFF  01,3D0
033D6:  MOVLB  3
....................    } 
....................    if(sg2==10){ 
033D8:  MOVF   xD3,W
033DA:  SUBLW  0A
033DC:  BNZ   33F2
....................       G2=G2*(-1); 
033DE:  MOVFF  3D1,3F6
033E2:  MOVLW  FF
033E4:  MOVWF  xF7
033E6:  MOVLB  0
033E8:  CALL   298A
033EC:  MOVFF  01,3D1
033F0:  MOVLB  3
....................    } 
.................... } 
033F2:  MOVLB  0
033F4:  GOTO   5ADC (RETURN)
....................  
.................... void LeeDisplay(void){ 
....................    if(Dato_Exitoso==5){ 
*
03AE0:  MOVLB  3
03AE2:  MOVF   x84,W
03AE4:  SUBLW  05
03AE6:  BTFSS  FD8.2
03AE8:  BRA    3C06
....................          RX_Buffer[0]=RX_Buffer2[0]; 
03AEA:  MOVFF  3B,30
....................          RX_Buffer[1]=RX_Buffer2[1]; 
03AEE:  MOVFF  3C,31
....................          RX_Buffer[2]=RX_Buffer2[2]; 
03AF2:  MOVFF  3D,32
....................          RX_Buffer[3]=RX_Buffer2[3]; 
03AF6:  MOVFF  3E,33
....................          RX_Buffer[4]=RX_Buffer2[4]; 
03AFA:  MOVFF  3F,34
....................          RX_Buffer[5]=RX_Buffer2[5]; 
03AFE:  MOVFF  40,35
....................          RX_Buffer[6]=RX_Buffer2[6]; 
03B02:  MOVFF  41,36
....................          RX_Buffer[7]=RX_Buffer2[7]; 
03B06:  MOVFF  42,37
....................          RX_Buffer[8]=RX_Buffer2[8]; 
03B0A:  MOVFF  43,38
....................          RX_Buffer[9]=RX_Buffer2[9]; 
03B0E:  MOVFF  44,39
....................           
....................       if(RX_Buffer[3]==0x01){// Pregunta por la pagina en la que esta el display,01 es Contrasea de Acceso 
03B12:  DECFSZ 33,W
03B14:  BRA    3B24
....................          Menu=0; 
03B16:  CLRF   x87
....................          if(MenuAntt!=Menu) 
03B18:  MOVF   x87,W
03B1A:  SUBWF  x89,W
03B1C:  BZ    3B22
....................             MenuAntt=Menu; 
03B1E:  MOVFF  387,389
....................       }else if(RX_Buffer[3]==0x02){//02 es Menu Principal con PantallaPriincipal=0, y con PantallaPrincipal=1 es Ciclo Libre 
03B22:  BRA    3C04
03B24:  MOVF   33,W
03B26:  SUBLW  02
03B28:  BNZ   3B3A
....................          Menu=1; 
03B2A:  MOVLW  01
03B2C:  MOVWF  x87
....................          if(MenuAntt!=Menu) 
03B2E:  MOVF   x87,W
03B30:  SUBWF  x89,W
03B32:  BZ    3B38
....................             MenuAntt=Menu; 
03B34:  MOVFF  387,389
....................       }else if(RX_Buffer[3]==0x03){//03 es Tiempo Esterilizacion 
03B38:  BRA    3C04
03B3A:  MOVF   33,W
03B3C:  SUBLW  03
03B3E:  BNZ   3B50
....................          Menu=2; 
03B40:  MOVLW  02
03B42:  MOVWF  x87
....................          if(MenuAntt!=Menu) 
03B44:  MOVF   x87,W
03B46:  SUBWF  x89,W
03B48:  BZ    3B4E
....................             MenuAntt=Menu; 
03B4A:  MOVFF  387,389
....................       }else if(RX_Buffer[3]==0x04){//04 es Tiempo de Secado 
03B4E:  BRA    3C04
03B50:  MOVF   33,W
03B52:  SUBLW  04
03B54:  BNZ   3B66
....................          Menu=3; 
03B56:  MOVLW  03
03B58:  MOVWF  x87
....................          if(MenuAntt!=Menu) 
03B5A:  MOVF   x87,W
03B5C:  SUBWF  x89,W
03B5E:  BZ    3B64
....................             MenuAntt=Menu; 
03B60:  MOVFF  387,389
....................       }else if(RX_Buffer[3]==0x05){//05 es Temperatura 
03B64:  BRA    3C04
03B66:  MOVF   33,W
03B68:  SUBLW  05
03B6A:  BNZ   3B7C
....................          Menu=4; 
03B6C:  MOVLW  04
03B6E:  MOVWF  x87
....................          if(MenuAntt!=Menu) 
03B70:  MOVF   x87,W
03B72:  SUBWF  x89,W
03B74:  BZ    3B7A
....................             MenuAntt=Menu; 
03B76:  MOVFF  387,389
....................       }else if(RX_Buffer[3]==0x06){//06 es Nivel 
03B7A:  BRA    3C04
03B7C:  MOVF   33,W
03B7E:  SUBLW  06
03B80:  BNZ   3B92
....................          Menu=5; 
03B82:  MOVLW  05
03B84:  MOVWF  x87
....................          if(MenuAntt!=Menu) 
03B86:  MOVF   x87,W
03B88:  SUBWF  x89,W
03B8A:  BZ    3B90
....................             MenuAntt=Menu; 
03B8C:  MOVFF  387,389
....................       }else if(RX_Buffer[3]==0x07){//07 es Test de Componentes 
03B90:  BRA    3C04
03B92:  MOVF   33,W
03B94:  SUBLW  07
03B96:  BNZ   3BA8
....................          Menu=6; 
03B98:  MOVLW  06
03B9A:  MOVWF  x87
....................          if(MenuAntt!=Menu) 
03B9C:  MOVF   x87,W
03B9E:  SUBWF  x89,W
03BA0:  BZ    3BA6
....................             MenuAntt=Menu; 
03BA2:  MOVFF  387,389
....................       }else if(RX_Buffer[3]==0x08){//08 es Fecha y hora 
03BA6:  BRA    3C04
03BA8:  MOVF   33,W
03BAA:  SUBLW  08
03BAC:  BNZ   3BBE
....................          Menu=7; 
03BAE:  MOVLW  07
03BB0:  MOVWF  x87
....................          if(MenuAntt!=Menu) 
03BB2:  MOVF   x87,W
03BB4:  SUBWF  x89,W
03BB6:  BZ    3BBC
....................             MenuAntt=Menu; 
03BB8:  MOVFF  387,389
....................       }else if(RX_Buffer[3]==0x0f){//0f es Recibe caracteres de contrasea desde display 
03BBC:  BRA    3C04
03BBE:  MOVF   33,W
03BC0:  SUBLW  0F
03BC2:  BNZ   3BC6
....................           
....................       }else if(RX_Buffer[3]==0x1a){//1a es Menu de Funcionamiento 
03BC4:  BRA    3C04
03BC6:  MOVF   33,W
03BC8:  SUBLW  1A
03BCA:  BNZ   3BDC
....................          Menu=20; 
03BCC:  MOVLW  14
03BCE:  MOVWF  x87
....................          if(MenuAntt!=Menu) 
03BD0:  MOVF   x87,W
03BD2:  SUBWF  x89,W
03BD4:  BZ    3BDA
....................             MenuAntt=Menu; 
03BD6:  MOVFF  387,389
....................       }else if(RX_Buffer[3]==0x2c){//2c es Menu de Configuracion de Parametros 
03BDA:  BRA    3C04
03BDC:  MOVF   33,W
03BDE:  SUBLW  2C
03BE0:  BNZ   3BF2
....................          Menu=100; 
03BE2:  MOVLW  64
03BE4:  MOVWF  x87
....................          if(MenuAntt!=Menu) 
03BE6:  MOVF   x87,W
03BE8:  SUBWF  x89,W
03BEA:  BZ    3BF0
....................             MenuAntt=Menu; 
03BEC:  MOVFF  387,389
....................       }else if(RX_Buffer[3]==0xcc){//cc es Menu de Bienvenida 
03BF0:  BRA    3C04
03BF2:  MOVF   33,W
03BF4:  SUBLW  CC
03BF6:  BNZ   3C04
....................          Menu=240; 
03BF8:  MOVLW  F0
03BFA:  MOVWF  x87
....................          if(MenuAntt!=240) 
03BFC:  MOVF   x89,W
03BFE:  SUBLW  F0
03C00:  BZ    3C04
....................             reset_cpu(); 
03C02:  RESET
....................       } 
....................    }else{ 
03C04:  BRA    3C12
....................       for(z=0;z<RX_BUFFER_SIZE;z++){ 
03C06:  CLRF   x86
03C08:  MOVF   x86,W
03C0A:  SUBLW  09
03C0C:  BNC   3C12
....................             //Rx_Buffer[z]=0; 
....................             //Rx_Buffer2[z]=0; 
....................          } 
03C0E:  INCF   x86,F
03C10:  BRA    3C08
....................    } 
.................... } 
03C12:  MOVLB  0
03C14:  GOTO   5BFE (RETURN)
....................  
.................... void ConfiguraCiclo(int8 este0,este1,este2,este3,secado0,secado1,secado2,secado3,liquidos,ciclo,temperatura){ 
....................    Testerilizacionp[0]=este0;Testerilizacionp[1]=este1;Testerilizacionp[2]=este2;Testerilizacionp[3]=este3; 
*
046C6:  MOVFF  3F6,D6
046CA:  MOVFF  3F7,D7
046CE:  MOVFF  3F8,D8
046D2:  MOVFF  3F9,D9
....................    Tsecadop[0]=secado0;Tsecadop[1]=secado1;Tsecadop[2]=secado2;Tsecadop[3]=secado3; 
046D6:  MOVFF  3FA,DE
046DA:  MOVFF  3FB,DF
046DE:  MOVFF  3FC,E0
046E2:  MOVFF  3FD,E1
....................    Setpoint=temperatura;                
046E6:  MOVFF  400,38F
....................    tiempo_secado=0; 
046EA:  MOVLB  3
046EC:  CLRF   x93
....................    desfoguelento=liquidos; 
046EE:  BCF    x7B.1
046F0:  BTFSC  xFE.0
046F2:  BSF    x7B.1
....................    CicloSeleccionado=ciclo; 
046F4:  MOVFF  3FF,38E
....................    if(ActivaImpresion==1){ 
046F8:  DECFSZ x80,W
046FA:  BRA    4718
....................       Imprime=5; 
046FC:  MOVLW  05
046FE:  MOVWF  xCF
....................       Envio_Esclavos(); 
04700:  MOVLB  0
04702:  CALL   3E62
....................       delay_ms(100); 
04706:  MOVLW  64
04708:  MOVLB  4
0470A:  MOVWF  x01
0470C:  MOVLB  0
0470E:  CALL   1BD4
....................       Imprime=10; 
04712:  MOVLW  0A
04714:  MOVLB  3
04716:  MOVWF  xCF
....................    } 
....................    Testerilizacion[0]=Testerilizacionp[0];Testerilizacion[1]=Testerilizacionp[1];Testerilizacion[2]=Testerilizacionp[2];Testerilizacion[3]=Testerilizacionp[3]; 
04718:  MOVFF  D6,D2
0471C:  MOVFF  D7,D3
04720:  MOVFF  D8,D4
04724:  MOVFF  D9,D5
....................    Tsecado[0]=Tsecadop[0];Tsecado[1]=Tsecadop[1];Tsecado[2]=Tsecadop[2];Tsecado[3]=Tsecadop[3]; 
04728:  MOVFF  DE,DA
0472C:  MOVFF  DF,DB
04730:  MOVFF  E0,DC
04734:  MOVFF  E1,DD
.................... } 
04738:  MOVLB  0
0473A:  RETLW  00
....................  
.................... void ActivaAlarma(int8 Tipo){ 
....................     
....................    if(tsilencio>12000){ 
*
044E2:  MOVLB  3
044E4:  MOVF   xBF,W
044E6:  SUBLW  2D
044E8:  BC    44FE
044EA:  XORLW  FF
044EC:  BNZ   44F4
044EE:  MOVF   xBE,W
044F0:  SUBLW  E0
044F2:  BC    44FE
....................       tsilencio=0; 
044F4:  CLRF   xBF
044F6:  CLRF   xBE
....................       flagSilencio=OFF; 
044F8:  MOVLB  0
044FA:  BCF    xC7.2
044FC:  MOVLB  3
....................    } 
....................     
....................    if(Tipo==1){ // Alarma por Error 
044FE:  DECFSZ xF6,W
04500:  BRA    4556
....................    if(UP || DOWN || RIGHT || LEFT) 
04502:  BSF    F93.6
04504:  BTFSS  F81.6
04506:  BRA    451A
04508:  BSF    F93.5
0450A:  BTFSS  F81.5
0450C:  BRA    451A
0450E:  BSF    F93.4
04510:  BTFSS  F81.4
04512:  BRA    451A
04514:  BSF    F93.3
04516:  BTFSC  F81.3
04518:  BRA    451E
....................       flagSilencio=ON; 
0451A:  MOVLB  0
0451C:  BSF    xC7.2
....................        
....................       if(!flagSilencio){ 
0451E:  MOVLB  0
04520:  BTFSC  xC7.2
04522:  BRA    454E
....................          flagAlarma=1; 
04524:  BSF    xC7.0
....................          if(tbuzzer>200){ 
04526:  MOVLB  3
04528:  MOVF   xBD,F
0452A:  BNZ   4532
0452C:  MOVF   xBC,W
0452E:  SUBLW  C8
04530:  BC    454A
....................             tbuzzer=0; 
04532:  CLRF   xBD
04534:  CLRF   xBC
....................             flagBuzzer=!flagBuzzer; 
04536:  MOVLB  0
04538:  BTG    xC7.1
....................             if(flagBuzzer) 
0453A:  BTFSS  xC7.1
0453C:  BRA    4544
....................                Buzzer_on; 
0453E:  BSF    F8B.5
04540:  BCF    F94.5
....................             else 
04542:  BRA    4548
....................                Buzzer_off; 
04544:  BCF    F8B.5
04546:  BCF    F94.5
04548:  MOVLB  3
....................          } 
....................       }else{ 
0454A:  BRA    4554
0454C:  MOVLB  0
....................          Buzzer_off; 
0454E:  BCF    F8B.5
04550:  BCF    F94.5
04552:  MOVLB  3
....................       } 
....................    }else if(Tipo==2){ 
04554:  BRA    45AE
04556:  MOVF   xF6,W
04558:  SUBLW  02
0455A:  BNZ   45AE
....................    if(UP || DOWN || RIGHT || LEFT) 
0455C:  BSF    F93.6
0455E:  BTFSS  F81.6
04560:  BRA    4574
04562:  BSF    F93.5
04564:  BTFSS  F81.5
04566:  BRA    4574
04568:  BSF    F93.4
0456A:  BTFSS  F81.4
0456C:  BRA    4574
0456E:  BSF    F93.3
04570:  BTFSC  F81.3
04572:  BRA    4578
....................       ConteoBuzzer=21; 
04574:  MOVLW  15
04576:  MOVWF  xB9
....................        
....................       flagAlarma=1; 
04578:  MOVLB  0
0457A:  BSF    xC7.0
....................       if(ConteoBuzzer<20){    
0457C:  MOVLB  3
0457E:  MOVF   xB9,W
04580:  SUBLW  13
04582:  BNC   45AA
....................          if(tbuzzer>100){ 
04584:  MOVF   xBD,F
04586:  BNZ   458E
04588:  MOVF   xBC,W
0458A:  SUBLW  64
0458C:  BC    45A8
....................             tbuzzer=0; 
0458E:  CLRF   xBD
04590:  CLRF   xBC
....................             flagBuzzer=!flagBuzzer; 
04592:  MOVLB  0
04594:  BTG    xC7.1
....................             if(flagBuzzer) 
04596:  BTFSS  xC7.1
04598:  BRA    45A0
....................                Buzzer_on; 
0459A:  BSF    F8B.5
0459C:  BCF    F94.5
....................             else 
0459E:  BRA    45A4
....................                Buzzer_off; 
045A0:  BCF    F8B.5
045A2:  BCF    F94.5
....................                 
....................             ConteoBuzzer++;    
045A4:  MOVLB  3
045A6:  INCF   xB9,F
....................          } 
....................       }else{ 
045A8:  BRA    45AE
....................          Buzzer_off; 
045AA:  BCF    F8B.5
045AC:  BCF    F94.5
....................       } 
....................    } 
.................... } 
045AE:  MOVLB  0
045B0:  RETLW  00
....................  
.................... void CalientaChaqueta(){ 
....................    if(PresionPrecamara<130){ 
*
052B4:  MOVLB  3
052B6:  MOVF   xA4,F
052B8:  BNZ   52C6
052BA:  MOVF   xA3,W
052BC:  SUBLW  81
052BE:  BNC   52C6
....................       SSR_on; 
052C0:  BCF    F8B.1
052C2:  BCF    F94.1
....................    }else if(PresionPreCamara>150){ 
052C4:  BRA    52D4
052C6:  MOVF   xA4,F
052C8:  BNZ   52D0
052CA:  MOVF   xA3,W
052CC:  SUBLW  96
052CE:  BC    52D4
....................       SSR_off; 
052D0:  BSF    F8B.1
052D2:  BCF    F94.1
....................    } 
.................... } 
052D4:  MOVLB  0
052D6:  GOTO   9CDC (RETURN)
....................  
.................... void ApagaSalidas(){ 
....................    Desfogue_off; 
*
03460:  BSF    F8C.2
03462:  BCF    F95.2
....................    Paso_off; 
03464:  BSF    F8C.3
03466:  BCF    F95.3
....................    AguaIn_off; 
03468:  BSF    F8C.4
0346A:  BCF    F95.4
....................    Buzzer_off; 
0346C:  BCF    F8B.5
0346E:  BCF    F94.5
....................    Solenoide_off; 
03470:  BCF    F8C.0
03472:  BCF    F95.0
....................    SSR_off; 
03474:  BSF    F8B.1
03476:  BCF    F94.1
....................    Controlando=0; 
03478:  MOVLB  3
0347A:  CLRF   x7F
.................... } 
0347C:  MOVLB  0
0347E:  RETLW  00
....................  
....................  
.................... #int_rda HIGH 
.................... void serial_rx_isr(){ 
....................  
....................    Dato2=fgetc(); 
*
00150:  BTFSS  F9E.5
00152:  BRA    0150
00154:  MOVFF  FAE,385
00158:  MOVLB  3
....................    if(Dato2==0x65){//Inicio Comunicacion 
0015A:  MOVF   x85,W
0015C:  SUBLW  65
0015E:  BNZ   0166
....................       Inicio=1; 
00160:  MOVLW  01
00162:  MOVWF  x83
....................       RX_Wr_Index =0; 
00164:  CLRF   46
....................    } 
....................    //Inicio=1; 
....................    if(Inicio==1){ 
00166:  DECFSZ x83,W
00168:  BRA    017E
....................       Rx_Buffer2[RX_Wr_Index] = Dato2; 
0016A:  CLRF   03
0016C:  MOVF   46,W
0016E:  ADDLW  3B
00170:  MOVWF  FE9
00172:  MOVLW  00
00174:  ADDWFC 03,W
00176:  MOVWF  FEA
00178:  MOVFF  385,FEF
....................       RX_Wr_Index++; 
0017C:  INCF   46,F
....................    } 
....................    if(RX_Wr_Index >= RX_BUFFER_SIZE){ 
0017E:  MOVF   46,W
00180:  SUBLW  09
00182:  BC    0188
....................       RX_Wr_Index =0; 
00184:  CLRF   46
....................       Inicio=0; 
00186:  CLRF   x83
....................    } 
....................  
....................    if(RX_Wr_Index==0){ 
00188:  MOVF   46,F
0018A:  BNZ   01AC
....................       if(Rx_Buffer2[0]==0x65 && Rx_Buffer2[1]==0xff && Rx_Buffer2[2]==0xff && Rx_Buffer2[8]==0x00 && Rx_Buffer2[9]==0xff ){ 
0018C:  MOVF   3B,W
0018E:  SUBLW  65
00190:  BNZ   01A8
00192:  INCFSZ 3C,W
00194:  BRA    01A8
00196:  INCFSZ 3D,W
00198:  BRA    01A8
0019A:  MOVF   43,F
0019C:  BNZ   01A8
0019E:  INCFSZ 44,W
001A0:  BRA    01A8
....................          Dato_Exitoso=5; 
001A2:  MOVLW  05
001A4:  MOVWF  x84
....................       }else{ 
001A6:  BRA    01AC
....................          Dato_Exitoso=10; 
001A8:  MOVLW  0A
001AA:  MOVWF  x84
....................       } 
....................    } 
....................    //Dato_Exitoso=5; 
....................    if(Menu==20) 
001AC:  MOVF   x87,W
001AE:  SUBLW  14
001B0:  BNZ   01B6
....................      Buzzer_on; 
001B2:  BSF    F8B.5
001B4:  BCF    F94.5
.................... } 
....................  
001B6:  BCF    F9E.5
001B8:  MOVLB  0
001BA:  GOTO   010A
.................... #int_TIMER0 
.................... void temp0s(void){ 
....................    set_timer0(0); 
001BE:  CLRF   FD7
001C0:  CLRF   FD6
....................    t_exhaust++; 
001C2:  MOVLB  3
001C4:  INCF   xBA,F
001C6:  BTFSC  FD8.2
001C8:  INCF   xBB,F
....................    if(DesfogueSuave) 
001CA:  MOVLB  0
001CC:  BTFSS  xC4.6
001CE:  BRA    0210
....................    { 
....................       if(Nivel<6) 
001D0:  MOVLB  3
001D2:  MOVF   x9E,F
001D4:  BNZ   020A
001D6:  MOVF   x9D,W
001D8:  SUBLW  05
001DA:  BNC   020A
....................       { 
....................          if(t_exhaust<=NivelSeleccionado) // Si el tiempo es menor o igual al tiempo de control se enciende la resistencia de lo contrario se apaga. 
001DC:  MOVF   xBB,W
001DE:  SUBWF  xA8,W
001E0:  BNC   01F0
001E2:  BNZ   01EA
001E4:  MOVF   xBA,W
001E6:  SUBWF  xA7,W
001E8:  BNC   01F0
....................          { 
....................             Desfogue_on; 
001EA:  BCF    F8C.2
001EC:  BCF    F95.2
....................          }else{             
001EE:  BRA    01F4
....................             Desfogue_off; 
001F0:  BSF    F8C.2
001F2:  BCF    F95.2
....................          }    
....................        
....................          if(t_exhaust>=60000) // Si el tiempo de control es mayor al tiempo de ciclo se reinicia tiempo de control 
001F4:  MOVF   xBB,W
001F6:  SUBLW  E9
001F8:  BC    0208
001FA:  XORLW  FF
001FC:  BNZ   0204
001FE:  MOVF   xBA,W
00200:  SUBLW  5F
00202:  BC    0208
....................          { 
....................             t_exhaust=0; 
00204:  CLRF   xBB
00206:  CLRF   xBA
....................          } // tiempoctrl incrementa una unidad cada Xms, por eso se dividen los tiempos por 0.005. 
....................       } 
....................       else 
00208:  BRA    020E
....................       { 
....................          Desfogue_on; 
0020A:  BCF    F8C.2
0020C:  BCF    F95.2
0020E:  MOVLB  0
....................       } 
....................    }   
.................... } 
....................  
00210:  BCF    FF2.2
00212:  GOTO   0074
.................... #int_TIMER1 
.................... void temp1s(void){ 
....................    set_timer1(40536); // Se repite cada 5ms 
00216:  MOVLW  9E
00218:  MOVWF  FCF
0021A:  MOVLW  58
0021C:  MOVWF  FCE
....................    tiempos++; 
0021E:  MOVLB  3
00220:  INCF   x95,F
00222:  BTFSC  FD8.2
00224:  INCF   x96,F
....................    tiempos2++; 
00226:  INCF   x97,F
00228:  BTFSC  FD8.2
0022A:  INCF   x98,F
....................    tiempos3++; 
0022C:  INCF   x99,F
0022E:  BTFSC  FD8.2
00230:  INCF   x9A,F
....................    tiempoctrl++; 
00232:  INCF   x9B,F
00234:  BTFSC  FD8.2
00236:  INCF   x9C,F
....................     
....................    if(flagAlarma) 
00238:  MOVLB  0
0023A:  BTFSS  xC7.0
0023C:  BRA    0248
....................       tbuzzer++; 
0023E:  MOVLB  3
00240:  INCF   xBC,F
00242:  BTFSC  FD8.2
00244:  INCF   xBD,F
00246:  MOVLB  0
....................        
....................    if(flagSilencio)    
00248:  BTFSS  xC7.2
0024A:  BRA    0254
....................       tsilencio++; 
0024C:  MOVLB  3
0024E:  INCF   xBE,F
00250:  BTFSC  FD8.2
00252:  INCF   xBF,F
....................     
....................    if(Controlando==1){ 
00254:  MOVLB  3
00256:  DECFSZ x7F,W
00258:  BRA    0296
....................       if(tiempoctrl<Tp) // Si el tiempo es menor o igual al tiempo de control se enciende la resistencia de lo contrario se apaga. 
0025A:  MOVF   x9C,W
0025C:  MOVLB  0
0025E:  SUBWF  xCF,W
00260:  BNC   027A
00262:  BNZ   0274
00264:  MOVF   xCE,W
00266:  MOVLB  3
00268:  SUBWF  x9B,W
0026A:  BTFSS  FD8.0
0026C:  BRA    0272
0026E:  MOVLB  0
00270:  BRA    027A
00272:  MOVLB  0
....................       { 
....................          SSR_on; 
00274:  BCF    F8B.1
00276:  BCF    F94.1
....................       } 
....................       else          
00278:  BRA    027E
....................       { 
....................          SSR_off; 
0027A:  BSF    F8B.1
0027C:  BCF    F94.1
....................       } 
....................              
....................       if(tiempoctrl>=Tc) // Si el tiempo de control es mayor al tiempo de ciclo se reinicia tiempo de control 
0027E:  MOVF   xD1,W
00280:  MOVLB  3
00282:  SUBWF  x9C,W
00284:  BNC   0296
00286:  BNZ   0292
00288:  MOVLB  0
0028A:  MOVF   xD0,W
0028C:  MOVLB  3
0028E:  SUBWF  x9B,W
00290:  BNC   0296
....................       { 
....................          tiempoctrl=0; 
00292:  CLRF   x9C
00294:  CLRF   x9B
....................       } // tiempoctrl incrementa una unidad cada 5ms, por eso se dividen los tiempos por 0.005. 
....................    } 
....................     
....................    if(tiempos>=200)  // 12000 para que incremente cada minuto, 200para que incremente cada segundo. 
00296:  MOVF   x96,F
00298:  BNZ   02A2
0029A:  MOVF   x95,W
0029C:  SUBLW  C7
0029E:  BTFSC  FD8.0
002A0:  BRA    03B0
....................    { 
....................       if(flagTC) 
002A2:  BTFSS  x7B.5
002A4:  BRA    02A8
....................          TiempoControl++; 
002A6:  INCF   xB7,F
....................        
....................       tiemporecta++; 
002A8:  INCF   x7E,F
....................        
....................       if(IniciaCiclo && tiempoImpresion<CalculoImpresion){ 
002AA:  MOVLB  0
002AC:  BTFSS  xC4.1
002AE:  BRA    02C2
002B0:  MOVLB  3
002B2:  MOVF   x82,W
002B4:  SUBWF  x94,W
002B6:  BTFSS  FD8.0
002B8:  BRA    02BE
002BA:  MOVLB  0
002BC:  BRA    02C2
....................          tiempoImpresion++; 
002BE:  INCF   x94,F
....................       }else if(tiempoImpresion>=CalculoImpresion){ 
002C0:  BRA    02CE
002C2:  MOVLB  3
002C4:  MOVF   x82,W
002C6:  SUBWF  x94,W
002C8:  BNC   02CE
....................          flagImprime=1; 
002CA:  BSF    x7B.7
....................          tiempoImpresion=0; 
002CC:  CLRF   x94
....................       } 
....................        
....................       if(IniciaCiclo && !Esterilizando){ 
002CE:  MOVLB  0
002D0:  BTFSS  xC4.1
002D2:  BRA    02DE
002D4:  BTFSC  xC4.2
002D6:  BRA    02DE
....................          TiempoCiclo++; 
002D8:  INCF   xC8,F
002DA:  BTFSC  FD8.2
002DC:  INCF   xC9,F
....................       } 
....................        
....................       if(IniciaLlenado && !CalderinLleno){ 
002DE:  BTFSS  49.7
002E0:  BRA    02EC
002E2:  BTFSC  xC4.0
002E4:  BRA    02EC
....................          TiempoLlenado++; 
002E6:  INCF   xCA,F
002E8:  BTFSC  FD8.2
002EA:  INCF   xCB,F
....................       } 
....................        
....................       if(SensadoNivel){ 
002EC:  BTFSS  xC4.4
002EE:  BRA    02F6
....................          TiempoSensadoNivel++; 
002F0:  INCF   xCC,F
002F2:  BTFSC  FD8.2
002F4:  INCF   xCD,F
....................       } 
....................        
....................       tiempos=0;Lectura=1;tinicio++; 
002F6:  MOVLB  3
002F8:  CLRF   x96
002FA:  CLRF   x95
002FC:  BSF    x7B.2
002FE:  INCF   x9F,F
00300:  BTFSC  FD8.2
00302:  INCF   xA0,F
....................     
....................       if(Esterilizando && !Desfogando){                
00304:  MOVLB  0
00306:  BTFSS  xC4.2
00308:  BRA    035C
0030A:  BTFSC  xC4.5
0030C:  BRA    035C
....................          if(Testerilizacion[0]>0){ 
0030E:  BTFSC  xD2.7
00310:  BRA    031C
00312:  MOVF   xD2,W
00314:  SUBLW  00
00316:  BC    031C
....................             Testerilizacion[0]--; 
00318:  DECF   xD2,F
....................          }else if(Testerilizacion[1]>0){ 
0031A:  BRA    035C
0031C:  BTFSC  xD3.7
0031E:  BRA    032E
00320:  MOVF   xD3,W
00322:  SUBLW  00
00324:  BC    032E
....................             Testerilizacion[1]--; 
00326:  DECF   xD3,F
....................             Testerilizacion[0]=9; 
00328:  MOVLW  09
0032A:  MOVWF  xD2
....................          }else if(Testerilizacion[2]>0){ 
0032C:  BRA    035C
0032E:  BTFSC  xD4.7
00330:  BRA    0344
00332:  MOVF   xD4,W
00334:  SUBLW  00
00336:  BC    0344
....................             Testerilizacion[2]--; 
00338:  DECF   xD4,F
....................             Testerilizacion[1]=5; 
0033A:  MOVLW  05
0033C:  MOVWF  xD3
....................             Testerilizacion[0]=9; 
0033E:  MOVLW  09
00340:  MOVWF  xD2
....................          }else if(Testerilizacion[3]>0){ 
00342:  BRA    035C
00344:  BTFSC  xD5.7
00346:  BRA    035C
00348:  MOVF   xD5,W
0034A:  SUBLW  00
0034C:  BC    035C
....................             Testerilizacion[3]--; 
0034E:  DECF   xD5,F
....................             Testerilizacion[2]=9; 
00350:  MOVLW  09
00352:  MOVWF  xD4
....................             Testerilizacion[1]=5; 
00354:  MOVLW  05
00356:  MOVWF  xD3
....................             Testerilizacion[0]=9; 
00358:  MOVLW  09
0035A:  MOVWF  xD2
....................          } 
....................       } 
....................        
....................       if(Secando){ 
0035C:  BTFSS  xC4.3
0035E:  BRA    03AE
....................          if(Tsecado[0]>0){ 
00360:  BTFSC  xDA.7
00362:  BRA    036E
00364:  MOVF   xDA,W
00366:  SUBLW  00
00368:  BC    036E
....................             Tsecado[0]--; 
0036A:  DECF   xDA,F
....................          }else if(Tsecado[1]>0){ 
0036C:  BRA    03AE
0036E:  BTFSC  xDB.7
00370:  BRA    0380
00372:  MOVF   xDB,W
00374:  SUBLW  00
00376:  BC    0380
....................             Tsecado[1]--; 
00378:  DECF   xDB,F
....................             Tsecado[0]=9; 
0037A:  MOVLW  09
0037C:  MOVWF  xDA
....................          }else if(Tsecado[2]>0){ 
0037E:  BRA    03AE
00380:  BTFSC  xDC.7
00382:  BRA    0396
00384:  MOVF   xDC,W
00386:  SUBLW  00
00388:  BC    0396
....................             Tsecado[2]--; 
0038A:  DECF   xDC,F
....................             Tsecado[1]=5; 
0038C:  MOVLW  05
0038E:  MOVWF  xDB
....................             Tsecado[0]=9; 
00390:  MOVLW  09
00392:  MOVWF  xDA
....................          }else if(Tsecado[3]>0){ 
00394:  BRA    03AE
00396:  BTFSC  xDD.7
00398:  BRA    03AE
0039A:  MOVF   xDD,W
0039C:  SUBLW  00
0039E:  BC    03AE
....................             Tsecado[3]--; 
003A0:  DECF   xDD,F
....................             Tsecado[2]=9; 
003A2:  MOVLW  09
003A4:  MOVWF  xDC
....................             Tsecado[1]=5; 
003A6:  MOVLW  05
003A8:  MOVWF  xDB
....................             Tsecado[0]=9; 
003AA:  MOVLW  09
003AC:  MOVWF  xDA
003AE:  MOVLB  3
....................          } 
....................       } 
....................    } 
.................... } 
....................  
003B0:  BCF    F9E.0
003B2:  MOVLB  0
003B4:  GOTO   0074
.................... void main() 
.................... { 
*
052DA:  CLRF   FF8
052DC:  BCF    FF1.2
052DE:  BCF    F9F.0
052E0:  BSF    F9F.5
052E2:  BSF    FD0.7
052E4:  BSF    07.7
052E6:  CLRF   FEA
052E8:  CLRF   FE9
052EA:  BSF    FB8.3
052EC:  MOVLW  08
052EE:  MOVWF  FAF
052F0:  MOVLW  02
052F2:  MOVWF  FB0
052F4:  MOVLW  A6
052F6:  MOVWF  FAC
052F8:  MOVLW  90
052FA:  MOVWF  FAB
052FC:  CLRF   46
052FE:  CLRF   47
05300:  CLRF   48
05302:  BCF    49.0
05304:  CLRF   x63
05306:  CLRF   x64
05308:  CLRF   x65
0530A:  CLRF   xA6
0530C:  CLRF   xA7
0530E:  CLRF   xA8
05310:  CLRF   xA9
05312:  CLRF   xAA
05314:  CLRF   xAB
05316:  BCF    49.1
05318:  BCF    49.2
0531A:  BCF    49.3
0531C:  BCF    49.4
0531E:  BCF    49.5
05320:  BCF    49.6
05322:  BCF    49.7
05324:  BCF    xC4.0
05326:  BCF    xC4.1
05328:  BCF    xC4.2
0532A:  BCF    xC4.3
0532C:  BCF    xC4.4
0532E:  BCF    xC4.5
05330:  BCF    xC4.6
05332:  BCF    xC4.7
05334:  BCF    xC5.0
05336:  BCF    xC5.1
05338:  BCF    xC5.2
0533A:  BCF    xC5.3
0533C:  BCF    xC5.4
0533E:  BCF    xC5.5
05340:  BCF    xC5.6
05342:  BCF    xC5.7
05344:  BCF    xC6.0
05346:  BCF    xC6.1
05348:  BCF    xC6.2
0534A:  BCF    xC6.3
0534C:  BCF    xC6.4
0534E:  BCF    xC6.5
05350:  BCF    xC6.6
05352:  BCF    xC6.7
05354:  BCF    xC7.0
05356:  BCF    xC7.1
05358:  BCF    xC7.2
0535A:  BCF    xC7.3
0535C:  BCF    xC7.4
0535E:  CLRF   xC9
05360:  CLRF   xC8
05362:  CLRF   xCB
05364:  CLRF   xCA
05366:  CLRF   xCD
05368:  CLRF   xCC
0536A:  CLRF   xCF
0536C:  CLRF   xCE
0536E:  CLRF   xD1
05370:  CLRF   xD0
05372:  MOVLW  9A
05374:  MOVLB  2
05376:  MOVWF  xC5
05378:  MOVLW  99
0537A:  MOVWF  xC4
0537C:  MOVLW  0D
0537E:  MOVWF  xC3
05380:  MOVLW  86
05382:  MOVWF  xC2
05384:  CLRF   xC9
05386:  CLRF   xC8
05388:  CLRF   xC7
0538A:  MOVLW  7E
0538C:  MOVWF  xC6
0538E:  CLRF   xCD
05390:  CLRF   xCC
05392:  CLRF   xCB
05394:  CLRF   xCA
05396:  CLRF   xD1
05398:  CLRF   xD0
0539A:  MOVLW  48
0539C:  MOVWF  xCF
0539E:  MOVLW  85
053A0:  MOVWF  xCE
053A2:  CLRF   xD5
053A4:  MOVLW  80
053A6:  MOVWF  xD4
053A8:  MOVLW  3B
053AA:  MOVWF  xD3
053AC:  MOVLW  8A
053AE:  MOVWF  xD2
053B0:  CLRF   xD9
053B2:  CLRF   xD8
053B4:  MOVLW  48
053B6:  MOVWF  xD7
053B8:  MOVLW  85
053BA:  MOVWF  xD6
053BC:  CLRF   xDD
053BE:  MOVLW  80
053C0:  MOVWF  xDC
053C2:  MOVLW  3B
053C4:  MOVWF  xDB
053C6:  MOVLW  8A
053C8:  MOVWF  xDA
053CA:  CLRF   xE1
053CC:  CLRF   xE0
053CE:  MOVLW  48
053D0:  MOVWF  xDF
053D2:  MOVLW  85
053D4:  MOVWF  xDE
053D6:  CLRF   xE5
053D8:  MOVLW  80
053DA:  MOVWF  xE4
053DC:  MOVLW  3B
053DE:  MOVWF  xE3
053E0:  MOVLW  8A
053E2:  MOVWF  xE2
053E4:  CLRF   xE9
053E6:  MOVLW  80
053E8:  MOVWF  xE8
053EA:  MOVLW  3B
053EC:  MOVWF  xE7
053EE:  MOVLW  8A
053F0:  MOVWF  xE6
053F2:  CLRF   xED
053F4:  MOVLW  C0
053F6:  MOVWF  xEC
053F8:  MOVLW  41
053FA:  MOVWF  xEB
053FC:  MOVLW  8A
053FE:  MOVWF  xEA
05400:  CLRF   xF1
05402:  MOVLW  C0
05404:  MOVWF  xF0
05406:  MOVLW  41
05408:  MOVWF  xEF
0540A:  MOVLW  8A
0540C:  MOVWF  xEE
0540E:  CLRF   xF5
05410:  MOVLW  C0
05412:  MOVWF  xF4
05414:  MOVLW  41
05416:  MOVWF  xF3
05418:  MOVLW  8A
0541A:  MOVWF  xF2
0541C:  CLRF   xF9
0541E:  CLRF   xF8
05420:  CLRF   xF7
05422:  CLRF   xF6
05424:  CLRF   xFD
05426:  CLRF   xFC
05428:  CLRF   xFB
0542A:  CLRF   xFA
0542C:  MOVLB  3
0542E:  CLRF   x09
05430:  CLRF   x08
05432:  CLRF   x07
05434:  CLRF   x06
05436:  CLRF   x0D
05438:  CLRF   x0C
0543A:  CLRF   x0B
0543C:  CLRF   x0A
0543E:  CLRF   x11
05440:  CLRF   x10
05442:  CLRF   x0F
05444:  CLRF   x0E
05446:  CLRF   x12
05448:  CLRF   x13
0544A:  CLRF   x14
0544C:  CLRF   x15
0544E:  MOVLW  14
05450:  MOVWF  x16
05452:  CLRF   x17
05454:  CLRF   x18
05456:  CLRF   x19
05458:  CLRF   x1A
0545A:  CLRF   x1B
0545C:  CLRF   x1C
0545E:  CLRF   x20
05460:  CLRF   x1F
05462:  CLRF   x1E
05464:  CLRF   x1D
05466:  CLRF   x28
05468:  CLRF   x27
0546A:  MOVLW  20
0546C:  MOVWF  x26
0546E:  MOVLW  82
05470:  MOVWF  x25
05472:  CLRF   x2C
05474:  CLRF   x2B
05476:  CLRF   x2A
05478:  CLRF   x29
0547A:  CLRF   x30
0547C:  CLRF   x2F
0547E:  CLRF   x2E
05480:  CLRF   x2D
05482:  CLRF   x34
05484:  CLRF   x33
05486:  CLRF   x32
05488:  CLRF   x31
0548A:  CLRF   x38
0548C:  CLRF   x37
0548E:  CLRF   x36
05490:  CLRF   x35
05492:  CLRF   x3C
05494:  CLRF   x3B
05496:  CLRF   x3A
05498:  CLRF   x39
0549A:  CLRF   x40
0549C:  CLRF   x3F
0549E:  MOVLW  48
054A0:  MOVWF  x3E
054A2:  MOVLW  83
054A4:  MOVWF  x3D
054A6:  CLRF   x44
054A8:  CLRF   x43
054AA:  MOVLW  20
054AC:  MOVWF  x42
054AE:  MOVLW  83
054B0:  MOVWF  x41
054B2:  CLRF   x48
054B4:  CLRF   x47
054B6:  CLRF   x46
054B8:  MOVLW  7F
054BA:  MOVWF  x45
054BC:  CLRF   x4C
054BE:  CLRF   x4B
054C0:  CLRF   x4A
054C2:  CLRF   x49
054C4:  CLRF   x50
054C6:  CLRF   x4F
054C8:  CLRF   x4E
054CA:  CLRF   x4D
054CC:  CLRF   x54
054CE:  CLRF   x53
054D0:  CLRF   x52
054D2:  CLRF   x51
054D4:  CLRF   x58
054D6:  CLRF   x57
054D8:  CLRF   x56
054DA:  CLRF   x55
054DC:  CLRF   x5C
054DE:  CLRF   x5B
054E0:  CLRF   x5A
054E2:  CLRF   x59
054E4:  MOVLW  4A
054E6:  MOVWF  x60
054E8:  MOVLW  88
054EA:  MOVWF  x5F
054EC:  MOVLW  28
054EE:  MOVWF  x5E
054F0:  MOVLW  75
054F2:  MOVWF  x5D
054F4:  CLRF   x64
054F6:  CLRF   x63
054F8:  CLRF   x62
054FA:  CLRF   x61
054FC:  CLRF   x68
054FE:  CLRF   x67
05500:  CLRF   x66
05502:  CLRF   x65
05504:  MOVLW  E0
05506:  MOVWF  x6C
05508:  MOVLW  2D
0550A:  MOVWF  x6B
0550C:  MOVLW  10
0550E:  MOVWF  x6A
05510:  MOVLW  75
05512:  MOVWF  x69
05514:  MOVLW  FF
05516:  MOVWF  x70
05518:  MOVLW  21
0551A:  MOVWF  x6F
0551C:  MOVLW  15
0551E:  MOVWF  x6E
05520:  MOVLW  80
05522:  MOVWF  x6D
05524:  MOVLW  82
05526:  MOVWF  x74
05528:  MOVLW  12
0552A:  MOVWF  x73
0552C:  MOVLW  F4
0552E:  MOVWF  x72
05530:  MOVLW  86
05532:  MOVWF  x71
05534:  CLRF   x75
05536:  CLRF   x76
05538:  MOVLB  0
0553A:  BCF    xC7.5
0553C:  BCF    xC7.6
0553E:  BCF    xC7.7
05540:  MOVLB  3
05542:  BSF    x7B.0
05544:  BCF    x7B.1
05546:  BCF    x7B.2
05548:  BCF    x7B.3
0554A:  BCF    x7B.4
0554C:  BCF    x7B.5
0554E:  BCF    x7B.6
05550:  BCF    x7B.7
05552:  BCF    x7C.0
05554:  CLRF   x7D
05556:  CLRF   x7E
05558:  CLRF   x7F
0555A:  MOVLW  01
0555C:  MOVWF  x80
0555E:  MOVLW  02
05560:  MOVWF  x81
05562:  CLRF   x82
05564:  MOVLW  01
05566:  MOVWF  x83
05568:  CLRF   x84
0556A:  CLRF   x85
0556C:  CLRF   x86
0556E:  CLRF   x87
05570:  CLRF   x88
05572:  MOVLW  F0
05574:  MOVWF  x89
05576:  MOVLW  01
05578:  MOVWF  x8A
0557A:  CLRF   x8B
0557C:  CLRF   x8C
0557E:  CLRF   x8D
05580:  CLRF   x8E
05582:  CLRF   x8F
05584:  MOVWF  x90
05586:  MOVWF  x91
05588:  CLRF   x92
0558A:  CLRF   x93
0558C:  CLRF   x94
0558E:  CLRF   x96
05590:  CLRF   x95
05592:  CLRF   x98
05594:  CLRF   x97
05596:  CLRF   x9A
05598:  CLRF   x99
0559A:  CLRF   x9C
0559C:  CLRF   x9B
0559E:  CLRF   x9E
055A0:  CLRF   x9D
055A2:  CLRF   xA0
055A4:  CLRF   x9F
055A6:  CLRF   xA2
055A8:  CLRF   xA1
055AA:  CLRF   xA4
055AC:  CLRF   xA3
055AE:  CLRF   xA6
055B0:  CLRF   xA5
055B2:  CLRF   xA8
055B4:  CLRF   xA7
055B6:  CLRF   xB2
055B8:  CLRF   xB1
055BA:  CLRF   xB3
055BC:  CLRF   xB4
055BE:  CLRF   xB5
055C0:  CLRF   xB6
055C2:  CLRF   xB7
055C4:  CLRF   xB8
055C6:  CLRF   xB9
055C8:  CLRF   xBB
055CA:  CLRF   xBA
055CC:  CLRF   xBD
055CE:  CLRF   xBC
055D0:  CLRF   xBF
055D2:  CLRF   xBE
055D4:  MOVLW  12
055D6:  MOVWF  xC0
055D8:  MOVLW  09
055DA:  MOVWF  xC1
055DC:  MOVLW  0D
055DE:  MOVWF  xC2
055E0:  CLRF   xC3
055E2:  CLRF   xC4
055E4:  CLRF   xC5
055E6:  CLRF   xC6
055E8:  CLRF   xC7
055EA:  CLRF   xC8
055EC:  CLRF   xC9
055EE:  CLRF   xCA
055F0:  CLRF   xCB
055F2:  CLRF   xCC
055F4:  CLRF   xCD
055F6:  CLRF   xCE
055F8:  CLRF   xCF
055FA:  CLRF   xD0
055FC:  CLRF   xD1
055FE:  CLRF   xD2
05600:  CLRF   xD3
05602:  MOVF   FC1,W
05604:  ANDLW  C0
05606:  IORLW  0F
05608:  MOVWF  FC1
0560A:  MOVLW  07
0560C:  MOVWF  FB4
0560E:  CLRF   2A
05610:  CLRF   2B
05612:  MOVLB  0
05614:  CLRF   xAC
05616:  MOVLW  03
05618:  MOVWF  xAD
0561A:  MOVWF  xAE
0561C:  MOVLW  06
0561E:  MOVWF  xAF
05620:  MOVLW  01
05622:  MOVWF  xB0
05624:  MOVLW  04
05626:  MOVWF  xB1
05628:  MOVLW  06
0562A:  MOVWF  xB2
0562C:  MOVLW  02
0562E:  MOVWF  xB3
05630:  MOVLW  05
05632:  MOVWF  xB4
05634:  CLRF   xB5
05636:  MOVLW  03
05638:  MOVWF  xB6
0563A:  MOVLW  05
0563C:  MOVWF  xB7
0563E:  CLRF   xB8
05640:  MOVLW  03
05642:  MOVWF  xB9
05644:  MOVLW  04
05646:  MOVWF  xBA
05648:  CLRF   xBB
0564A:  MOVLW  02
0564C:  MOVWF  xBC
0564E:  MOVLW  05
05650:  MOVWF  xBD
05652:  CLRF   xBE
05654:  MOVLW  03
05656:  MOVWF  xBF
05658:  MOVLW  06
0565A:  MOVWF  xC0
0565C:  MOVLW  01
0565E:  MOVWF  xC1
05660:  MOVLW  04
05662:  MOVWF  xC2
05664:  MOVLW  06
05666:  MOVWF  xC3
05668:  CLRF   xD2
0566A:  CLRF   xD3
0566C:  CLRF   xD4
0566E:  CLRF   xD5
05670:  CLRF   xD6
05672:  CLRF   xD7
05674:  CLRF   xD8
05676:  CLRF   xD9
05678:  CLRF   xDA
0567A:  CLRF   xDB
0567C:  CLRF   xDC
0567E:  CLRF   xDD
05680:  CLRF   xDE
05682:  CLRF   xDF
05684:  CLRF   xE0
05686:  CLRF   xE1
05688:  CLRF   xE2
0568A:  CLRF   xE3
0568C:  CLRF   xE4
0568E:  CLRF   xE5
05690:  CLRF   xE6
05692:  CLRF   xE7
05694:  CLRF   xE8
05696:  CLRF   xE9
05698:  CLRF   xEA
0569A:  CLRF   xEB
0569C:  CLRF   xEC
0569E:  CLRF   xED
056A0:  CLRF   xEE
056A2:  CLRF   xEF
056A4:  CLRF   xF0
056A6:  CLRF   xF1
056A8:  CLRF   xF2
056AA:  CLRF   xF3
056AC:  CLRF   xF4
056AE:  CLRF   xF5
056B0:  CLRF   xF6
056B2:  CLRF   xF7
056B4:  CLRF   xF8
056B6:  CLRF   xF9
056B8:  CLRF   xFA
056BA:  CLRF   xFB
056BC:  CLRF   xFC
056BE:  CLRF   xFD
056C0:  CLRF   xFE
056C2:  CLRF   xFF
056C4:  MOVLB  1
056C6:  CLRF   x00
056C8:  CLRF   x01
056CA:  CLRF   x02
056CC:  CLRF   x03
056CE:  CLRF   x04
056D0:  CLRF   x05
056D2:  CLRF   x06
056D4:  CLRF   x07
056D6:  CLRF   x08
056D8:  CLRF   x09
056DA:  CLRF   x0A
056DC:  CLRF   x0B
056DE:  CLRF   x0C
056E0:  CLRF   x0D
056E2:  CLRF   x0E
056E4:  CLRF   x0F
056E6:  CLRF   x10
056E8:  CLRF   x11
056EA:  CLRF   x12
056EC:  CLRF   x13
056EE:  CLRF   x14
056F0:  CLRF   x15
056F2:  CLRF   x16
056F4:  CLRF   x17
056F6:  CLRF   x18
056F8:  CLRF   x19
056FA:  CLRF   x1A
056FC:  CLRF   x1B
056FE:  CLRF   x1C
05700:  CLRF   x1D
05702:  CLRF   x1E
05704:  CLRF   x1F
05706:  CLRF   x20
05708:  CLRF   x21
0570A:  CLRF   x22
0570C:  CLRF   x23
0570E:  CLRF   x24
05710:  CLRF   x25
05712:  CLRF   x26
05714:  CLRF   x27
05716:  CLRF   x28
05718:  CLRF   x29
0571A:  CLRF   x2A
0571C:  CLRF   x2B
0571E:  CLRF   x2C
05720:  CLRF   x2D
05722:  CLRF   x2E
05724:  CLRF   x2F
05726:  CLRF   x30
05728:  CLRF   x31
0572A:  CLRF   x32
0572C:  CLRF   x33
0572E:  CLRF   x34
05730:  CLRF   x35
05732:  CLRF   x36
05734:  CLRF   x37
05736:  CLRF   x38
05738:  CLRF   x39
0573A:  CLRF   x3A
0573C:  CLRF   x3B
0573E:  CLRF   x3C
05740:  CLRF   x3D
05742:  CLRF   x3E
05744:  CLRF   x3F
05746:  CLRF   x40
05748:  CLRF   x41
0574A:  CLRF   x42
0574C:  CLRF   x43
0574E:  CLRF   x44
05750:  CLRF   x45
05752:  CLRF   x46
05754:  CLRF   x47
05756:  CLRF   x48
05758:  CLRF   x49
0575A:  CLRF   x4A
0575C:  CLRF   x4B
0575E:  CLRF   x4C
05760:  CLRF   x4D
05762:  CLRF   x4E
05764:  CLRF   x4F
05766:  CLRF   x50
05768:  CLRF   x51
0576A:  CLRF   x52
0576C:  CLRF   x53
0576E:  CLRF   x54
05770:  CLRF   x55
05772:  CLRF   x56
05774:  CLRF   x57
05776:  CLRF   x58
05778:  CLRF   x59
0577A:  CLRF   x5A
0577C:  CLRF   x5B
0577E:  CLRF   x5C
05780:  CLRF   x5D
05782:  CLRF   x5E
05784:  CLRF   x5F
05786:  CLRF   x60
05788:  CLRF   x61
0578A:  CLRF   x62
0578C:  CLRF   x63
0578E:  CLRF   x64
05790:  CLRF   x65
05792:  CLRF   x66
05794:  CLRF   x67
05796:  CLRF   x68
05798:  CLRF   x69
0579A:  CLRF   x6A
0579C:  CLRF   x6B
0579E:  CLRF   x6C
057A0:  CLRF   x6D
057A2:  CLRF   x6E
057A4:  CLRF   x6F
057A6:  CLRF   x70
057A8:  CLRF   x71
057AA:  CLRF   x72
057AC:  CLRF   x73
057AE:  CLRF   x74
057B0:  CLRF   x75
057B2:  CLRF   x76
057B4:  CLRF   x77
057B6:  CLRF   x78
057B8:  CLRF   x79
057BA:  CLRF   x7A
057BC:  CLRF   x7B
057BE:  CLRF   x7C
057C0:  CLRF   x7D
057C2:  CLRF   x7E
057C4:  CLRF   x7F
057C6:  CLRF   x80
057C8:  CLRF   x81
057CA:  CLRF   x82
057CC:  CLRF   x83
057CE:  CLRF   x84
057D0:  CLRF   x85
057D2:  CLRF   x86
057D4:  CLRF   x87
057D6:  CLRF   x88
057D8:  CLRF   x89
057DA:  CLRF   x8A
057DC:  CLRF   x8B
057DE:  CLRF   x8C
057E0:  CLRF   x8D
057E2:  CLRF   x8E
057E4:  CLRF   x8F
057E6:  CLRF   x90
057E8:  CLRF   x91
057EA:  CLRF   x92
057EC:  CLRF   x93
057EE:  CLRF   x94
057F0:  CLRF   x95
057F2:  CLRF   x96
057F4:  CLRF   x97
057F6:  CLRF   x98
057F8:  CLRF   x99
057FA:  CLRF   x9A
057FC:  CLRF   x9B
057FE:  CLRF   x9C
05800:  CLRF   x9D
05802:  CLRF   x9E
05804:  CLRF   x9F
05806:  CLRF   xA0
05808:  CLRF   xA1
0580A:  CLRF   xA2
0580C:  CLRF   xA3
0580E:  CLRF   xA4
05810:  CLRF   xA5
05812:  CLRF   xA6
05814:  CLRF   xA7
05816:  CLRF   xA8
05818:  CLRF   xA9
0581A:  CLRF   xAA
0581C:  CLRF   xAB
0581E:  CLRF   xAC
05820:  CLRF   xAD
05822:  CLRF   xAE
05824:  CLRF   xAF
05826:  CLRF   xB0
05828:  CLRF   xB1
0582A:  CLRF   xB2
0582C:  CLRF   xB3
0582E:  CLRF   xB4
05830:  CLRF   xB5
05832:  CLRF   xB6
05834:  CLRF   xB7
05836:  CLRF   xB8
05838:  CLRF   xB9
0583A:  CLRF   xBA
0583C:  CLRF   xBB
0583E:  CLRF   xBC
05840:  CLRF   xBD
05842:  CLRF   xBE
05844:  CLRF   xBF
05846:  CLRF   xC0
05848:  CLRF   xC1
0584A:  CLRF   xC2
0584C:  CLRF   xC3
0584E:  CLRF   xC4
05850:  CLRF   xC5
05852:  CLRF   xC6
05854:  CLRF   xC7
05856:  CLRF   xC8
05858:  CLRF   xC9
0585A:  CLRF   xCA
0585C:  CLRF   xCB
0585E:  CLRF   xCC
05860:  CLRF   xCD
05862:  CLRF   xCE
05864:  CLRF   xCF
05866:  CLRF   xD0
05868:  CLRF   xD1
0586A:  CLRF   xD2
0586C:  CLRF   xD3
0586E:  CLRF   xD4
05870:  CLRF   xD5
05872:  CLRF   xD6
05874:  CLRF   xD7
05876:  CLRF   xD8
05878:  CLRF   xD9
0587A:  CLRF   xDA
0587C:  CLRF   xDB
0587E:  CLRF   xDC
05880:  CLRF   xDD
05882:  CLRF   xDE
05884:  CLRF   xDF
05886:  CLRF   xE0
05888:  CLRF   xE1
0588A:  CLRF   xE2
0588C:  CLRF   xE3
0588E:  CLRF   xE4
05890:  CLRF   xE5
05892:  CLRF   xE6
05894:  CLRF   xE7
05896:  CLRF   xE8
05898:  CLRF   xE9
0589A:  CLRF   xEA
0589C:  CLRF   xEB
0589E:  CLRF   xEC
058A0:  CLRF   xED
058A2:  CLRF   xEE
058A4:  CLRF   xEF
058A6:  CLRF   xF0
058A8:  CLRF   xF1
058AA:  CLRF   xF2
058AC:  CLRF   xF3
058AE:  CLRF   xF4
058B0:  CLRF   xF5
058B2:  CLRF   xF6
058B4:  CLRF   xF7
058B6:  CLRF   xF8
058B8:  CLRF   xF9
058BA:  CLRF   xFA
058BC:  CLRF   xFB
058BE:  CLRF   xFC
058C0:  CLRF   xFD
058C2:  CLRF   xFE
058C4:  CLRF   xFF
058C6:  MOVLB  2
058C8:  CLRF   x00
058CA:  CLRF   x01
058CC:  CLRF   x02
058CE:  CLRF   x03
058D0:  CLRF   x04
058D2:  CLRF   x05
058D4:  CLRF   x06
058D6:  CLRF   x07
058D8:  CLRF   x08
058DA:  CLRF   x09
058DC:  CLRF   x0A
058DE:  CLRF   x0B
058E0:  CLRF   x0C
058E2:  CLRF   x0D
058E4:  CLRF   x0E
058E6:  CLRF   x0F
058E8:  CLRF   x10
058EA:  CLRF   x11
058EC:  CLRF   x12
058EE:  CLRF   x13
058F0:  CLRF   x14
058F2:  CLRF   x15
058F4:  CLRF   x16
058F6:  CLRF   x17
058F8:  CLRF   x18
058FA:  CLRF   x19
058FC:  CLRF   x1A
058FE:  CLRF   x1B
05900:  CLRF   x1C
05902:  CLRF   x1D
05904:  CLRF   x1E
05906:  CLRF   x1F
05908:  CLRF   x20
0590A:  CLRF   x21
0590C:  CLRF   x22
0590E:  CLRF   x23
05910:  CLRF   x24
05912:  CLRF   x25
05914:  CLRF   x26
05916:  CLRF   x27
05918:  CLRF   x28
0591A:  CLRF   x29
0591C:  CLRF   x2A
0591E:  CLRF   x2B
05920:  CLRF   x2C
05922:  CLRF   x2D
05924:  CLRF   x2E
05926:  CLRF   x2F
05928:  CLRF   x30
0592A:  CLRF   x31
0592C:  CLRF   x32
0592E:  CLRF   x33
05930:  CLRF   x34
05932:  CLRF   x35
05934:  CLRF   x36
05936:  CLRF   x37
05938:  CLRF   x38
0593A:  CLRF   x39
0593C:  CLRF   x3A
0593E:  CLRF   x3B
05940:  CLRF   x3C
05942:  CLRF   x3D
05944:  CLRF   x3E
05946:  CLRF   x3F
05948:  CLRF   x40
0594A:  CLRF   x41
0594C:  CLRF   x42
0594E:  CLRF   x43
05950:  CLRF   x44
05952:  CLRF   x45
05954:  CLRF   x46
05956:  CLRF   x47
05958:  CLRF   x48
0595A:  CLRF   x49
0595C:  CLRF   x4A
0595E:  CLRF   x4B
05960:  CLRF   x4C
05962:  CLRF   x4D
05964:  CLRF   x4E
05966:  CLRF   x4F
05968:  CLRF   x50
0596A:  CLRF   x51
0596C:  CLRF   x52
0596E:  CLRF   x53
05970:  CLRF   x54
05972:  CLRF   x55
05974:  CLRF   x56
05976:  CLRF   x57
05978:  CLRF   x58
0597A:  CLRF   x59
0597C:  CLRF   x5A
0597E:  CLRF   x5B
05980:  CLRF   x5C
05982:  CLRF   x5D
05984:  CLRF   x5E
05986:  CLRF   x5F
05988:  CLRF   x60
0598A:  CLRF   x61
0598C:  CLRF   x62
0598E:  CLRF   x63
05990:  CLRF   x64
05992:  CLRF   x65
05994:  CLRF   x66
05996:  CLRF   x67
05998:  CLRF   x68
0599A:  CLRF   x69
0599C:  CLRF   x6A
0599E:  CLRF   x6B
059A0:  CLRF   x6C
059A2:  CLRF   x6D
059A4:  CLRF   x6E
059A6:  CLRF   x6F
059A8:  CLRF   x70
059AA:  CLRF   x71
059AC:  CLRF   x72
059AE:  CLRF   x73
059B0:  CLRF   x74
059B2:  CLRF   x75
059B4:  CLRF   x76
059B6:  CLRF   x77
059B8:  CLRF   x78
059BA:  CLRF   x79
059BC:  CLRF   x7A
059BE:  CLRF   x7B
059C0:  CLRF   x7C
059C2:  CLRF   x7D
059C4:  CLRF   x7E
059C6:  CLRF   x7F
059C8:  CLRF   x80
059CA:  CLRF   x81
059CC:  CLRF   x82
059CE:  CLRF   x83
059D0:  CLRF   x84
059D2:  CLRF   x85
059D4:  CLRF   x86
059D6:  CLRF   x87
059D8:  CLRF   x88
059DA:  CLRF   x89
059DC:  CLRF   x8A
059DE:  CLRF   x8B
059E0:  CLRF   x8C
059E2:  CLRF   x8D
059E4:  CLRF   x8E
059E6:  CLRF   x8F
059E8:  CLRF   x90
059EA:  CLRF   x91
059EC:  CLRF   x92
059EE:  CLRF   x93
059F0:  CLRF   x94
059F2:  CLRF   x95
059F4:  CLRF   x96
059F6:  CLRF   x97
059F8:  CLRF   x98
059FA:  CLRF   x99
059FC:  CLRF   x9A
059FE:  CLRF   x9B
05A00:  CLRF   x9C
05A02:  CLRF   x9D
05A04:  CLRF   x9E
05A06:  CLRF   x9F
05A08:  CLRF   xA0
05A0A:  CLRF   xA1
05A0C:  CLRF   xA2
05A0E:  CLRF   xA3
05A10:  CLRF   xA4
05A12:  CLRF   xA5
05A14:  CLRF   xA6
05A16:  CLRF   xA7
05A18:  CLRF   xA8
05A1A:  CLRF   xA9
05A1C:  CLRF   xAA
05A1E:  CLRF   xAB
05A20:  CLRF   xAC
05A22:  CLRF   xAD
05A24:  CLRF   xAE
05A26:  CLRF   xAF
05A28:  CLRF   xB0
05A2A:  CLRF   xB1
05A2C:  CLRF   xB2
05A2E:  CLRF   xB3
05A30:  CLRF   xB4
05A32:  CLRF   xB5
05A34:  CLRF   xB6
05A36:  CLRF   xB7
05A38:  CLRF   xB8
05A3A:  CLRF   xB9
05A3C:  CLRF   xBA
05A3E:  CLRF   xBB
05A40:  CLRF   xBC
05A42:  CLRF   xBD
05A44:  CLRF   xBE
05A46:  CLRF   xBF
05A48:  CLRF   xC0
05A4A:  CLRF   xC1
05A4C:  CLRF   xFE
05A4E:  CLRF   xFF
05A50:  MOVLB  3
05A52:  CLRF   x00
05A54:  CLRF   x01
05A56:  CLRF   x02
05A58:  CLRF   x03
05A5A:  CLRF   x04
05A5C:  CLRF   x05
05A5E:  MOVLW  6B
05A60:  MOVWF  x77
05A62:  MOVLW  50
05A64:  MOVWF  x78
05A66:  MOVLW  61
05A68:  MOVWF  x79
05A6A:  CLRF   x7A
05A6C:  CLRF   xA9
05A6E:  CLRF   xAA
05A70:  CLRF   xAB
05A72:  CLRF   xAC
05A74:  CLRF   xAD
05A76:  CLRF   xAE
05A78:  CLRF   xAF
05A7A:  CLRF   xB0
....................     
....................    for (posicion=0;posicion<0x10;posicion++){ 
05A7C:  MOVLB  0
05A7E:  CLRF   xA8
05A80:  MOVF   xA8,W
05A82:  SUBLW  0F
05A84:  BNC   5A9A
....................       SlaveA0Tx[posicion] = 0x00; 
05A86:  CLRF   03
05A88:  MOVF   xA8,W
05A8A:  ADDLW  86
05A8C:  MOVWF  FE9
05A8E:  MOVLW  00
05A90:  ADDWFC 03,W
05A92:  MOVWF  FEA
05A94:  CLRF   FEF
....................    } 
05A96:  INCF   xA8,F
05A98:  BRA    5A80
....................    setup_timer_0(RTCC_8_BIT|RTCC_DIV_1); 
05A9A:  MOVLW  C8
05A9C:  MOVWF  FD5
....................    enable_interrupts(INT_TIMER0); 
05A9E:  BSF    FF2.5
....................    setup_timer_1(T1_INTERNAL|T1_DIV_BY_1); 
05AA0:  MOVLW  85
05AA2:  MOVWF  FCD
....................    enable_interrupts(INT_TIMER1); 
05AA4:  BSF    F9D.0
....................    setup_adc_ports(AN0_TO_AN3); 
05AA6:  MOVF   FC1,W
05AA8:  ANDLW  C0
05AAA:  IORLW  0B
05AAC:  MOVWF  FC1
....................    setup_adc(ADC_CLOCK_DIV_32 ); 
05AAE:  MOVF   FC0,W
05AB0:  ANDLW  C0
05AB2:  IORLW  02
05AB4:  MOVWF  FC0
05AB6:  BSF    FC0.7
05AB8:  BSF    FC2.0
....................    port_b_pullups(true); 
05ABA:  BCF    FF1.7
....................    enable_interrupts(int_rda); 
05ABC:  BSF    F9D.5
....................    setup_wdt(WDT_ON); 
05ABE:  BSF    FD1.0
....................    enable_interrupts(global); 
05AC0:  MOVLW  C0
05AC2:  IORWF  FF2,F
....................    LeeEEPROM(); 
05AC4:  GOTO   2024
....................    rtc_init(); 
05AC8:  GOTO   288E
....................    delay_ms(1); 
05ACC:  MOVLW  01
05ACE:  MOVLB  4
05AD0:  MOVWF  x01
05AD2:  MOVLB  0
05AD4:  CALL   1BD4
....................    LimitaValores(); 
05AD8:  GOTO   29D8
....................    CalculoImpresion=timpresion*60; 
05ADC:  MOVLB  3
05ADE:  MOVF   x81,W
05AE0:  MULLW  3C
05AE2:  MOVFF  FF3,382
....................    printf("page Bienvenida"); 
05AE6:  MOVLW  B8
05AE8:  MOVWF  FF6
05AEA:  MOVLW  03
05AEC:  MOVWF  FF7
05AEE:  MOVLW  00
05AF0:  MOVWF  FF8
05AF2:  MOVLB  0
05AF4:  CALL   33F8
....................    SendDataDisplay(); 
05AF8:  CALL   342A
....................    printf("bkcmd=0"); 
05AFC:  MOVLW  C8
05AFE:  MOVWF  FF6
05B00:  MOVLW  03
05B02:  MOVWF  FF7
05B04:  MOVLW  00
05B06:  MOVWF  FF8
05B08:  CALL   33F8
....................    SendDataDisplay(); 
05B0C:  CALL   342A
....................    delay_ms(1500); 
05B10:  MOVLW  06
05B12:  MOVLB  3
05B14:  MOVWF  xF6
05B16:  MOVLW  FA
05B18:  MOVLB  4
05B1A:  MOVWF  x01
05B1C:  MOVLB  0
05B1E:  CALL   1BD4
05B22:  MOVLB  3
05B24:  DECFSZ xF6,F
05B26:  BRA    5B16
....................    printf("page Clave"); 
05B28:  MOVLW  D0
05B2A:  MOVWF  FF6
05B2C:  MOVLW  03
05B2E:  MOVWF  FF7
05B30:  MOVLW  00
05B32:  MOVWF  FF8
05B34:  MOVLB  0
05B36:  CALL   33F8
....................    SendDataDisplay(); 
05B3A:  CALL   342A
....................    ApagaSalidas(); 
05B3E:  CALL   3460
....................     
....................    for(i=0;i<MediaMovil;i++){ 
05B42:  MOVLB  3
05B44:  CLRF   x8B
05B46:  MOVF   x16,W
05B48:  SUBWF  x8B,W
05B4A:  BC    5B6C
....................       Temperatura=LeerPT100(MediaMovil); 
05B4C:  MOVFF  316,3F6
05B50:  MOVLB  0
05B52:  CALL   35F2
05B56:  MOVFF  03,35C
05B5A:  MOVFF  02,35B
05B5E:  MOVFF  01,35A
05B62:  MOVFF  00,359
....................    } 
05B66:  MOVLB  3
05B68:  INCF   x8B,F
05B6A:  BRA    5B46
....................     
....................    if(UP && DOWN && RIGHT && LEFT)//Si oprime boton de Toma. 
05B6C:  BSF    F93.6
05B6E:  BTFSC  F81.6
05B70:  BRA    5BF8
05B72:  BSF    F93.5
05B74:  BTFSC  F81.5
05B76:  BRA    5BF8
05B78:  BSF    F93.4
05B7A:  BTFSC  F81.4
05B7C:  BRA    5BF8
05B7E:  BSF    F93.3
05B80:  BTFSC  F81.3
05B82:  BRA    5BF8
....................    { 
....................       write_eeprom(37,0); 
05B84:  CLRF   FAA
05B86:  MOVLW  25
05B88:  MOVWF  FA9
05B8A:  CLRF   FA8
05B8C:  BCF    FA6.6
05B8E:  BCF    FA6.7
05B90:  BSF    FA6.2
05B92:  MOVF   FF2,W
05B94:  MOVWF  00
05B96:  BCF    FF2.6
05B98:  BCF    FF2.7
05B9A:  MOVLB  F
05B9C:  MOVLW  55
05B9E:  MOVWF  FA7
05BA0:  MOVLW  AA
05BA2:  MOVWF  FA7
05BA4:  BSF    FA6.1
05BA6:  BTFSC  FA6.1
05BA8:  BRA    5BA6
05BAA:  BCF    FA6.2
05BAC:  MOVF   00,W
05BAE:  IORWF  FF2,F
....................       delay_ms(20); 
05BB0:  MOVLW  14
05BB2:  MOVLB  4
05BB4:  MOVWF  x01
05BB6:  MOVLB  0
05BB8:  CALL   1BD4
....................       write_eeprom(38,0); 
05BBC:  CLRF   FAA
05BBE:  MOVLW  26
05BC0:  MOVWF  FA9
05BC2:  CLRF   FA8
05BC4:  BCF    FA6.6
05BC6:  BCF    FA6.7
05BC8:  BSF    FA6.2
05BCA:  MOVF   FF2,W
05BCC:  MOVWF  00
05BCE:  BCF    FF2.6
05BD0:  BCF    FF2.7
05BD2:  MOVLB  F
05BD4:  MOVLW  55
05BD6:  MOVWF  FA7
05BD8:  MOVLW  AA
05BDA:  MOVWF  FA7
05BDC:  BSF    FA6.1
05BDE:  BTFSC  FA6.1
05BE0:  BRA    5BDE
05BE2:  BCF    FA6.2
05BE4:  MOVF   00,W
05BE6:  IORWF  FF2,F
....................       delay_ms(20); 
05BE8:  MOVLW  14
05BEA:  MOVLB  4
05BEC:  MOVWF  x01
05BEE:  MOVLB  0
05BF0:  CALL   1BD4
....................       reset_cpu(); 
05BF4:  RESET
05BF6:  MOVLB  3
....................    } 
....................     
....................    while(true) 
....................    { 
....................       LeeDisplay(); 
05BF8:  MOVLB  0
05BFA:  GOTO   3AE0
....................       Envio_Esclavos(); 
05BFE:  CALL   3E62
....................       delay_ms(1); 
05C02:  MOVLW  01
05C04:  MOVLB  4
05C06:  MOVWF  x01
05C08:  MOVLB  0
05C0A:  CALL   1BD4
....................       Lectura_Esclavos(); 
05C0E:  GOTO   3F0E
....................       restart_wdt(); 
05C12:  CLRWDT
....................  
....................       // Monitoreo Nivel de Agua//-------------------------------------- 
....................             if(!LOW){//Si no sensa agua en el nivel alto y no se ha llenado el calderin          
05C14:  BSF    F96.0
05C16:  BTFSC  F84.0
05C18:  BRA    5C28
....................                TiempoSensadoNivel=0; 
05C1A:  CLRF   xCD
05C1C:  CLRF   xCC
....................                Controlando=0;    
05C1E:  MOVLB  3
05C20:  CLRF   x7F
....................                CalderinLleno=OFF; 
05C22:  MOVLB  0
05C24:  BCF    xC4.0
....................             } else{ 
05C26:  BRA    5C48
....................                if(HIG){ 
05C28:  BSF    F92.5
05C2A:  BTFSS  F80.5
05C2C:  BRA    5C42
....................                   SensadoNivel=ON; 
05C2E:  BSF    xC4.4
....................                   if(TiempoSensadoNivel>2) 
05C30:  MOVF   xCD,F
05C32:  BNZ   5C3A
05C34:  MOVF   xCC,W
05C36:  SUBLW  02
05C38:  BC    5C40
....................                   { 
....................                      SensadoNivel=OFF; 
05C3A:  BCF    xC4.4
....................                      CalderinLleno=ON; 
05C3C:  BSF    xC4.0
....................                      IniciaLlenado=OFF;                   
05C3E:  BCF    49.7
....................                   } 
....................                }else{ 
05C40:  BRA    5C48
....................                   SensadoNivel=OFF; 
05C42:  BCF    xC4.4
....................                   TiempoSensadoNivel=0; 
05C44:  CLRF   xCD
05C46:  CLRF   xCC
....................                } 
....................             } 
.................... // Tiempo de Grafica//-------------------------------------- 
....................       if(tiempos2>=4000){ 
05C48:  MOVLB  3
05C4A:  MOVF   x98,W
05C4C:  SUBLW  0E
05C4E:  BC    5C60
05C50:  XORLW  FF
05C52:  BNZ   5C5A
05C54:  MOVF   x97,W
05C56:  SUBLW  9F
05C58:  BC    5C60
....................          Grafica=1; 
05C5A:  BSF    x7B.3
....................          tiempos2=0; 
05C5C:  CLRF   x98
05C5E:  CLRF   x97
....................       } 
....................  
.................... // Tiempo de Muestreo//-------------------------------------- 
....................       if(tiempos3>=20){ 
05C60:  MOVF   x9A,F
05C62:  BNZ   5C6C
05C64:  MOVF   x99,W
05C66:  SUBLW  13
05C68:  BTFSC  FD8.0
05C6A:  BRA    5DA0
....................          Temperatura=LeerPt100(MediaMovil); 
05C6C:  MOVFF  316,3F6
05C70:  MOVLB  0
05C72:  CALL   35F2
05C76:  MOVFF  03,35C
05C7A:  MOVFF  02,35B
05C7E:  MOVFF  01,35A
05C82:  MOVFF  00,359
....................          PresionCamara=Leer_Sensor_Presion_Camara(5); 
05C86:  MOVLW  05
05C88:  MOVLB  3
05C8A:  MOVWF  xF6
05C8C:  MOVLB  0
05C8E:  GOTO   402C
05C92:  MOVFF  03,404
05C96:  MOVFF  02,403
05C9A:  MOVFF  01,402
05C9E:  MOVFF  00,401
05CA2:  CALL   3C18
05CA6:  MOVFF  02,3A2
05CAA:  MOVFF  01,3A1
....................          PresionPreCamara=Leer_Sensor_Presion_PreCamara(5); 
05CAE:  MOVLW  05
05CB0:  MOVLB  3
05CB2:  MOVWF  xF6
05CB4:  MOVLB  0
05CB6:  GOTO   426E
05CBA:  MOVFF  03,404
05CBE:  MOVFF  02,403
05CC2:  MOVFF  01,402
05CC6:  MOVFF  00,401
05CCA:  CALL   3C18
05CCE:  MOVFF  02,3A4
05CD2:  MOVFF  01,3A3
....................          rtc_get_date(Dia,Mes,Year,dow); 
....................          rtc_get_time(Hora,Minuto,Segundo); 
....................          tiempos3=0; 
*
05D9A:  MOVLB  3
05D9C:  CLRF   x9A
05D9E:  CLRF   x99
....................       } 
....................        
.................... // Monitoreo Parada Emergencia//--------------------------------------       
....................       if(!STOP && !IniciaCiclo && !PruebaEstados){ 
05DA0:  BSF    F93.1
05DA2:  BTFSS  F81.1
05DA4:  BRA    5E02
05DA6:  MOVLB  0
05DA8:  BTFSS  xC4.1
05DAA:  BRA    5DB0
05DAC:  MOVLB  3
05DAE:  BRA    5E02
05DB0:  BTFSS  xC5.2
05DB2:  BRA    5DB8
05DB4:  MOVLB  3
05DB6:  BRA    5E02
....................          if(!disp_Stop) 
05DB8:  MOVLB  3
05DBA:  BTFSC  x7B.4
05DBC:  BRA    5DC4
....................          { 
....................             disp_Stop=1;Menu=255; 
05DBE:  BSF    x7B.4
05DC0:  MOVLW  FF
05DC2:  MOVWF  x87
....................          } 
....................          Controlando=0; 
05DC4:  CLRF   x7F
....................          Desfogue_on; 
05DC6:  BCF    F8C.2
05DC8:  BCF    F95.2
....................          AguaIn_off; 
05DCA:  BSF    F8C.4
05DCC:  BCF    F95.4
....................          SSR_off; 
05DCE:  BSF    F8B.1
05DD0:  BCF    F94.1
....................          Paso_off; 
05DD2:  BSF    F8C.3
05DD4:  BCF    F95.3
....................          DesfogueSuave=OFF; 
05DD6:  MOVLB  0
05DD8:  BCF    xC4.6
....................          printf("page Emergencia"); 
05DDA:  MOVLW  DC
05DDC:  MOVWF  FF6
05DDE:  MOVLW  03
05DE0:  MOVWF  FF7
05DE2:  MOVLW  00
05DE4:  MOVWF  FF8
05DE6:  CALL   33F8
....................          SendDataDisplay(); 
05DEA:  CALL   342A
....................          ActivaAlarma(1); 
05DEE:  MOVLW  01
05DF0:  MOVLB  3
05DF2:  MOVWF  xF6
05DF4:  MOVLB  0
05DF6:  CALL   44E2
....................          BorraBuffer(); 
05DFA:  GOTO   45B2
....................       }else{ 
05DFE:  BRA    5E08
05E00:  MOVLB  3
....................          if(disp_Stop){ 
05E02:  BTFSS  x7B.4
05E04:  BRA    5E08
....................             reset_cpu(); 
05E06:  RESET
....................          } 
....................       }            
....................    //Buzzer_off;    
.................... //_-------------------------------------------------------------------------------------------------------------------------------------------------------- 
....................    if(Menu==240){ //Menu de Bienvenida. 
05E08:  MOVLB  3
05E0A:  MOVF   x87,W
05E0C:  SUBLW  F0
05E0E:  BNZ   5E5A
....................       printf("bkcmd=0"); 
05E10:  MOVLW  EC
05E12:  MOVWF  FF6
05E14:  MOVLW  03
05E16:  MOVWF  FF7
05E18:  MOVLW  00
05E1A:  MOVWF  FF8
05E1C:  MOVLB  0
05E1E:  CALL   33F8
....................       SendDataDisplay(); 
05E22:  CALL   342A
....................       delay_ms(1500); 
05E26:  MOVLW  06
05E28:  MOVLB  3
05E2A:  MOVWF  xF6
05E2C:  MOVLW  FA
05E2E:  MOVLB  4
05E30:  MOVWF  x01
05E32:  MOVLB  0
05E34:  CALL   1BD4
05E38:  MOVLB  3
05E3A:  DECFSZ xF6,F
05E3C:  BRA    5E2C
....................       printf("page Clave"); 
05E3E:  MOVLW  F4
05E40:  MOVWF  FF6
05E42:  MOVLW  03
05E44:  MOVWF  FF7
05E46:  MOVLW  00
05E48:  MOVWF  FF8
05E4A:  MOVLB  0
05E4C:  CALL   33F8
....................       SendDataDisplay(); 
05E50:  CALL   342A
....................       ApagaSalidas(); 
05E54:  CALL   3460
05E58:  MOVLB  3
....................    } 
.................... //_-------------------------------------------------------------------------------------------------------------------------------------------------------- 
....................  
.................... //_-------------------------------------------------------------------------------------------------------------------------------------------------------- 
....................     if(Menu==0){ //Menu de Contrasea de acceso. 
05E5A:  MOVF   x87,F
05E5C:  BTFSS  FD8.2
05E5E:  GOTO   6856
....................       ApagaSalidas(); 
05E62:  MOVLB  0
05E64:  CALL   3460
....................       //printf("bkcmd=0"); 
....................       //SendDataDisplay(); 
....................       if(Digito==1){ 
05E68:  MOVLB  3
05E6A:  DECFSZ x1C,W
05E6C:  BRA    5EB6
....................          printf("t0.txt=\"%u\"",Contrasena[0]); 
05E6E:  MOVLW  00
05E70:  MOVWF  FF6
05E72:  MOVLW  04
05E74:  MOVWF  FF7
05E76:  MOVLW  00
05E78:  MOVWF  FF8
05E7A:  MOVLW  08
05E7C:  MOVWF  xFA
05E7E:  MOVLB  0
05E80:  CALL   45DE
05E84:  MOVFF  3A9,3F7
05E88:  MOVLW  1B
05E8A:  MOVLB  3
05E8C:  MOVWF  xF8
05E8E:  MOVLB  0
05E90:  CALL   4646
05E94:  MOVLW  22
05E96:  BTFSS  F9E.4
05E98:  BRA    5E96
05E9A:  MOVWF  FAD
....................          SendDataDisplay(); 
05E9C:  CALL   342A
....................          printf("va0.val=1"); 
05EA0:  MOVLW  0C
05EA2:  MOVWF  FF6
05EA4:  MOVLW  04
05EA6:  MOVWF  FF7
05EA8:  MOVLW  00
05EAA:  MOVWF  FF8
05EAC:  CALL   33F8
....................          SendDataDisplay(); 
05EB0:  CALL   342A
05EB4:  MOVLB  3
....................       } 
....................        
....................       if(Digito==2){ 
05EB6:  MOVF   x1C,W
05EB8:  SUBLW  02
05EBA:  BNZ   5F14
....................          printf("t0.txt=\"%u%u\"",Contrasena[0],Contrasena[1]); 
05EBC:  MOVLW  16
05EBE:  MOVWF  FF6
05EC0:  MOVLW  04
05EC2:  MOVWF  FF7
05EC4:  MOVLW  00
05EC6:  MOVWF  FF8
05EC8:  MOVLW  08
05ECA:  MOVWF  xFA
05ECC:  MOVLB  0
05ECE:  CALL   45DE
05ED2:  MOVFF  3A9,3F7
05ED6:  MOVLW  1B
05ED8:  MOVLB  3
05EDA:  MOVWF  xF8
05EDC:  MOVLB  0
05EDE:  CALL   4646
05EE2:  MOVFF  3AA,3F7
05EE6:  MOVLW  1B
05EE8:  MOVLB  3
05EEA:  MOVWF  xF8
05EEC:  MOVLB  0
05EEE:  CALL   4646
05EF2:  MOVLW  22
05EF4:  BTFSS  F9E.4
05EF6:  BRA    5EF4
05EF8:  MOVWF  FAD
....................          SendDataDisplay(); 
05EFA:  CALL   342A
....................          printf("va0.val=2"); 
05EFE:  MOVLW  24
05F00:  MOVWF  FF6
05F02:  MOVLW  04
05F04:  MOVWF  FF7
05F06:  MOVLW  00
05F08:  MOVWF  FF8
05F0A:  CALL   33F8
....................          SendDataDisplay(); 
05F0E:  CALL   342A
05F12:  MOVLB  3
....................       } 
....................        
....................       if(Digito==3){ 
05F14:  MOVF   x1C,W
05F16:  SUBLW  03
05F18:  BNZ   5F82
....................          printf("t0.txt=\"%u%u%u\"",Contrasena[0],Contrasena[1],Contrasena[2]); 
05F1A:  MOVLW  2E
05F1C:  MOVWF  FF6
05F1E:  MOVLW  04
05F20:  MOVWF  FF7
05F22:  MOVLW  00
05F24:  MOVWF  FF8
05F26:  MOVLW  08
05F28:  MOVWF  xFA
05F2A:  MOVLB  0
05F2C:  CALL   45DE
05F30:  MOVFF  3A9,3F7
05F34:  MOVLW  1B
05F36:  MOVLB  3
05F38:  MOVWF  xF8
05F3A:  MOVLB  0
05F3C:  CALL   4646
05F40:  MOVFF  3AA,3F7
05F44:  MOVLW  1B
05F46:  MOVLB  3
05F48:  MOVWF  xF8
05F4A:  MOVLB  0
05F4C:  CALL   4646
05F50:  MOVFF  3AB,3F7
05F54:  MOVLW  1B
05F56:  MOVLB  3
05F58:  MOVWF  xF8
05F5A:  MOVLB  0
05F5C:  CALL   4646
05F60:  MOVLW  22
05F62:  BTFSS  F9E.4
05F64:  BRA    5F62
05F66:  MOVWF  FAD
....................          SendDataDisplay(); 
05F68:  CALL   342A
....................          printf("va0.val=3"); 
05F6C:  MOVLW  3E
05F6E:  MOVWF  FF6
05F70:  MOVLW  04
05F72:  MOVWF  FF7
05F74:  MOVLW  00
05F76:  MOVWF  FF8
05F78:  CALL   33F8
....................          SendDataDisplay(); 
05F7C:  CALL   342A
05F80:  MOVLB  3
....................       } 
....................        
....................       if(Digito==4){ 
05F82:  MOVF   x1C,W
05F84:  SUBLW  04
05F86:  BNZ   6000
....................          printf("t0.txt=\"%u%u%u%u\"",Contrasena[0],Contrasena[1],Contrasena[2],Contrasena[3]); 
05F88:  MOVLW  48
05F8A:  MOVWF  FF6
05F8C:  MOVLW  04
05F8E:  MOVWF  FF7
05F90:  MOVLW  00
05F92:  MOVWF  FF8
05F94:  MOVLW  08
05F96:  MOVWF  xFA
05F98:  MOVLB  0
05F9A:  CALL   45DE
05F9E:  MOVFF  3A9,3F7
05FA2:  MOVLW  1B
05FA4:  MOVLB  3
05FA6:  MOVWF  xF8
05FA8:  MOVLB  0
05FAA:  CALL   4646
05FAE:  MOVFF  3AA,3F7
05FB2:  MOVLW  1B
05FB4:  MOVLB  3
05FB6:  MOVWF  xF8
05FB8:  MOVLB  0
05FBA:  CALL   4646
05FBE:  MOVFF  3AB,3F7
05FC2:  MOVLW  1B
05FC4:  MOVLB  3
05FC6:  MOVWF  xF8
05FC8:  MOVLB  0
05FCA:  CALL   4646
05FCE:  MOVFF  3AC,3F7
05FD2:  MOVLW  1B
05FD4:  MOVLB  3
05FD6:  MOVWF  xF8
05FD8:  MOVLB  0
05FDA:  CALL   4646
05FDE:  MOVLW  22
05FE0:  BTFSS  F9E.4
05FE2:  BRA    5FE0
05FE4:  MOVWF  FAD
....................          SendDataDisplay(); 
05FE6:  CALL   342A
....................          printf("va0.val=4"); 
05FEA:  MOVLW  5A
05FEC:  MOVWF  FF6
05FEE:  MOVLW  04
05FF0:  MOVWF  FF7
05FF2:  MOVLW  00
05FF4:  MOVWF  FF8
05FF6:  CALL   33F8
....................          SendDataDisplay(); 
05FFA:  CALL   342A
05FFE:  MOVLB  3
....................       } 
....................        
....................       if(UP){ 
06000:  BSF    F93.6
06002:  BTFSC  F81.6
06004:  BRA    604E
....................          delay_ms(200); 
06006:  MOVLW  C8
06008:  MOVLB  4
0600A:  MOVWF  x01
0600C:  MOVLB  0
0600E:  CALL   1BD4
....................          if(UP){ 
06012:  BSF    F93.6
06014:  BTFSC  F81.6
06016:  BRA    6050
....................          if(Digito==0) 
06018:  MOVLB  3
0601A:  MOVF   x1C,F
0601C:  BNZ   6022
....................             Digito=1; 
0601E:  MOVLW  01
06020:  MOVWF  x1C
....................             if(Contrasena[Digito-1]<9) 
06022:  MOVLW  01
06024:  SUBWF  x1C,W
06026:  CLRF   03
06028:  ADDLW  A9
0602A:  MOVWF  FE9
0602C:  MOVLW  03
0602E:  ADDWFC 03,W
06030:  MOVWF  FEA
06032:  BTFSC  FEF.7
06034:  BRA    603C
06036:  MOVF   FEF,W
06038:  SUBLW  08
0603A:  BNC   604E
....................                Contrasena[Digito-1]++; 
0603C:  MOVLW  01
0603E:  SUBWF  x1C,W
06040:  CLRF   03
06042:  ADDLW  A9
06044:  MOVWF  FE9
06046:  MOVLW  03
06048:  ADDWFC 03,W
0604A:  MOVWF  FEA
0604C:  INCF   FEF,F
0604E:  MOVLB  0
....................          } 
....................       } 
....................        
....................       if(DOWN){ 
06050:  BSF    F93.5
06052:  BTFSC  F81.5
06054:  BRA    60A0
....................          delay_ms(200); 
06056:  MOVLW  C8
06058:  MOVLB  4
0605A:  MOVWF  x01
0605C:  MOVLB  0
0605E:  CALL   1BD4
....................          if(Digito==0) 
06062:  MOVLB  3
06064:  MOVF   x1C,F
06066:  BNZ   606C
....................             Digito=1; 
06068:  MOVLW  01
0606A:  MOVWF  x1C
....................          if(DOWN){ 
0606C:  BSF    F93.5
0606E:  BTFSC  F81.5
06070:  BRA    609E
....................             if(Contrasena[Digito-1]>0) 
06072:  MOVLW  01
06074:  SUBWF  x1C,W
06076:  CLRF   03
06078:  ADDLW  A9
0607A:  MOVWF  FE9
0607C:  MOVLW  03
0607E:  ADDWFC 03,W
06080:  MOVWF  FEA
06082:  BTFSC  FEF.7
06084:  BRA    609E
06086:  MOVF   FEF,W
06088:  SUBLW  00
0608A:  BC    609E
....................                Contrasena[Digito-1]--; 
0608C:  MOVLW  01
0608E:  SUBWF  x1C,W
06090:  CLRF   03
06092:  ADDLW  A9
06094:  MOVWF  FE9
06096:  MOVLW  03
06098:  ADDWFC 03,W
0609A:  MOVWF  FEA
0609C:  DECF   FEF,F
0609E:  MOVLB  0
....................          } 
....................       } 
....................        
....................       if(RIGHT){ 
060A0:  BSF    F93.4
060A2:  BTFSC  F81.4
060A4:  BRA    60BE
....................          delay_ms(200); 
060A6:  MOVLW  C8
060A8:  MOVLB  4
060AA:  MOVWF  x01
060AC:  MOVLB  0
060AE:  CALL   1BD4
....................          if(RIGHT){ 
060B2:  BSF    F93.4
060B4:  BTFSC  F81.4
060B6:  BRA    60BE
....................             Digito++; 
060B8:  MOVLB  3
060BA:  INCF   x1C,F
060BC:  MOVLB  0
....................          } 
....................       } 
....................        
....................       if(Digito>4){ 
060BE:  MOVLB  3
060C0:  MOVF   x1C,W
060C2:  SUBLW  04
060C4:  BTFSC  FD8.0
060C6:  BRA    6410
....................       Digito=0; 
060C8:  CLRF   x1C
....................       printf("t0.txt=\"\""); 
060CA:  MOVLW  64
060CC:  MOVWF  FF6
060CE:  MOVLW  04
060D0:  MOVWF  FF7
060D2:  MOVLW  00
060D4:  MOVWF  FF8
060D6:  MOVLB  0
060D8:  CALL   33F8
....................       SendDataDisplay(); 
060DC:  CALL   342A
....................          if(TipoClave==0){ 
060E0:  MOVLB  3
060E2:  MOVF   x1A,F
060E4:  BTFSS  FD8.2
060E6:  BRA    6234
....................             if(Contrasena[0]==3&&Contrasena[1]==8&&Contrasena[2]==9&&Contrasena[3]==2){ // Si Ingresa clave para reset general del sistema. 
060E8:  MOVF   xA9,W
060EA:  SUBLW  03
060EC:  BTFSS  FD8.2
060EE:  BRA    61E8
060F0:  MOVF   xAA,W
060F2:  SUBLW  08
060F4:  BTFSS  FD8.2
060F6:  BRA    61E8
060F8:  MOVF   xAB,W
060FA:  SUBLW  09
060FC:  BNZ   61E8
060FE:  MOVF   xAC,W
06100:  SUBLW  02
06102:  BNZ   61E8
....................                write_eeprom(10,0);delay_ms(20);write_eeprom(11,0);delay_ms(20);// Reestablece a contrasea de Fabrica y reinicia Programa. 
06104:  CLRF   FAA
06106:  MOVLW  0A
06108:  MOVWF  FA9
0610A:  CLRF   FA8
0610C:  BCF    FA6.6
0610E:  BCF    FA6.7
06110:  BSF    FA6.2
06112:  MOVF   FF2,W
06114:  MOVWF  00
06116:  BCF    FF2.6
06118:  BCF    FF2.7
0611A:  MOVLB  F
0611C:  MOVLW  55
0611E:  MOVWF  FA7
06120:  MOVLW  AA
06122:  MOVWF  FA7
06124:  BSF    FA6.1
06126:  BTFSC  FA6.1
06128:  BRA    6126
0612A:  BCF    FA6.2
0612C:  MOVF   00,W
0612E:  IORWF  FF2,F
06130:  MOVLW  14
06132:  MOVLB  4
06134:  MOVWF  x01
06136:  MOVLB  0
06138:  CALL   1BD4
0613C:  CLRF   FAA
0613E:  MOVLW  0B
06140:  MOVWF  FA9
06142:  CLRF   FA8
06144:  BCF    FA6.6
06146:  BCF    FA6.7
06148:  BSF    FA6.2
0614A:  MOVF   FF2,W
0614C:  MOVWF  00
0614E:  BCF    FF2.6
06150:  BCF    FF2.7
06152:  MOVLB  F
06154:  MOVLW  55
06156:  MOVWF  FA7
06158:  MOVLW  AA
0615A:  MOVWF  FA7
0615C:  BSF    FA6.1
0615E:  BTFSC  FA6.1
06160:  BRA    615E
06162:  BCF    FA6.2
06164:  MOVF   00,W
06166:  IORWF  FF2,F
06168:  MOVLW  14
0616A:  MOVLB  4
0616C:  MOVWF  x01
0616E:  MOVLB  0
06170:  CALL   1BD4
....................                write_eeprom(12,0);delay_ms(20);write_eeprom(13,0);delay_ms(20); 
06174:  CLRF   FAA
06176:  MOVLW  0C
06178:  MOVWF  FA9
0617A:  CLRF   FA8
0617C:  BCF    FA6.6
0617E:  BCF    FA6.7
06180:  BSF    FA6.2
06182:  MOVF   FF2,W
06184:  MOVWF  00
06186:  BCF    FF2.6
06188:  BCF    FF2.7
0618A:  MOVLB  F
0618C:  MOVLW  55
0618E:  MOVWF  FA7
06190:  MOVLW  AA
06192:  MOVWF  FA7
06194:  BSF    FA6.1
06196:  BTFSC  FA6.1
06198:  BRA    6196
0619A:  BCF    FA6.2
0619C:  MOVF   00,W
0619E:  IORWF  FF2,F
061A0:  MOVLW  14
061A2:  MOVLB  4
061A4:  MOVWF  x01
061A6:  MOVLB  0
061A8:  CALL   1BD4
061AC:  CLRF   FAA
061AE:  MOVLW  0D
061B0:  MOVWF  FA9
061B2:  CLRF   FA8
061B4:  BCF    FA6.6
061B6:  BCF    FA6.7
061B8:  BSF    FA6.2
061BA:  MOVF   FF2,W
061BC:  MOVWF  00
061BE:  BCF    FF2.6
061C0:  BCF    FF2.7
061C2:  MOVLB  F
061C4:  MOVLW  55
061C6:  MOVWF  FA7
061C8:  MOVLW  AA
061CA:  MOVWF  FA7
061CC:  BSF    FA6.1
061CE:  BTFSC  FA6.1
061D0:  BRA    61CE
061D2:  BCF    FA6.2
061D4:  MOVF   00,W
061D6:  IORWF  FF2,F
061D8:  MOVLW  14
061DA:  MOVLB  4
061DC:  MOVWF  x01
061DE:  MOVLB  0
061E0:  CALL   1BD4
....................                reset_cpu(); 
061E4:  RESET
061E6:  MOVLB  3
....................             } 
....................              
....................             if((Contrasena[0]==Password[0])&&(Contrasena[1]==Password[1])&&(Contrasena[2]==Password[2])&&(Contrasena[3]==Password[3])){ 
061E8:  MOVF   xAD,W
061EA:  SUBWF  xA9,W
061EC:  BNZ   621A
061EE:  MOVF   xAE,W
061F0:  SUBWF  xAA,W
061F2:  BNZ   621A
061F4:  MOVF   xAF,W
061F6:  SUBWF  xAB,W
061F8:  BNZ   621A
061FA:  MOVF   xB0,W
061FC:  SUBWF  xAC,W
061FE:  BNZ   621A
....................                //BorraBuffer(); 
....................                printf("page MenuPrincipal"); 
06200:  MOVLW  6E
06202:  MOVWF  FF6
06204:  MOVLW  04
06206:  MOVWF  FF7
06208:  MOVLW  00
0620A:  MOVWF  FF8
0620C:  MOVLB  0
0620E:  CALL   33F8
....................                SendDataDisplay(); 
06212:  CALL   342A
....................             }else{ 
06216:  BRA    6230
06218:  MOVLB  3
....................                //BorraBuffer(); 
....................                printf("page Clave"); 
0621A:  MOVLW  82
0621C:  MOVWF  FF6
0621E:  MOVLW  04
06220:  MOVWF  FF7
06222:  MOVLW  00
06224:  MOVWF  FF8
06226:  MOVLB  0
06228:  CALL   33F8
....................                SendDataDisplay(); 
0622C:  CALL   342A
....................             }  
....................          }else if(TipoClave==1){ 
06230:  BRA    640E
06232:  MOVLB  3
06234:  DECFSZ x1A,W
06236:  BRA    6284
....................             if(Contrasena[0]==4&&Contrasena[1]==4&&Contrasena[2]==4&&Contrasena[3]==4){ // Si Ingresa clave de Servicio Tecnico 
06238:  MOVF   xA9,W
0623A:  SUBLW  04
0623C:  BNZ   626A
0623E:  MOVF   xAA,W
06240:  SUBLW  04
06242:  BNZ   626A
06244:  MOVF   xAB,W
06246:  SUBLW  04
06248:  BNZ   626A
0624A:  MOVF   xAC,W
0624C:  SUBLW  04
0624E:  BNZ   626A
....................                printf("page Config"); 
06250:  MOVLW  8E
06252:  MOVWF  FF6
06254:  MOVLW  04
06256:  MOVWF  FF7
06258:  MOVLW  00
0625A:  MOVWF  FF8
0625C:  MOVLB  0
0625E:  CALL   33F8
....................                SendDataDisplay(); 
06262:  CALL   342A
....................             }else{ 
06266:  BRA    6280
06268:  MOVLB  3
....................                printf("page MenuPrincipal"); 
0626A:  MOVLW  9A
0626C:  MOVWF  FF6
0626E:  MOVLW  04
06270:  MOVWF  FF7
06272:  MOVLW  00
06274:  MOVWF  FF8
06276:  MOVLB  0
06278:  CALL   33F8
....................                SendDataDisplay(); 
0627C:  CALL   342A
....................             } 
....................          }else if(TipoClave==2){ 
06280:  BRA    640E
06282:  MOVLB  3
06284:  MOVF   x1A,W
06286:  SUBLW  02
06288:  BNZ   62EE
....................             if((Contrasena[0]==Password[0])&&(Contrasena[1]==Password[1])&&(Contrasena[2]==Password[2])&&(Contrasena[3]==Password[3])){ 
0628A:  MOVF   xAD,W
0628C:  SUBWF  xA9,W
0628E:  BNZ   62D4
06290:  MOVF   xAE,W
06292:  SUBWF  xAA,W
06294:  BNZ   62D4
06296:  MOVF   xAF,W
06298:  SUBWF  xAB,W
0629A:  BNZ   62D4
0629C:  MOVF   xB0,W
0629E:  SUBWF  xAC,W
062A0:  BNZ   62D4
....................                printf("page Clave"); 
062A2:  MOVLW  AE
062A4:  MOVWF  FF6
062A6:  MOVLW  04
062A8:  MOVWF  FF7
062AA:  MOVLW  00
062AC:  MOVWF  FF8
062AE:  MOVLB  0
062B0:  CALL   33F8
....................                SendDataDisplay(); 
062B4:  CALL   342A
....................                printf("titulo.txt=\"Clave Nueva\""); 
062B8:  MOVLW  BA
062BA:  MOVWF  FF6
062BC:  MOVLW  04
062BE:  MOVWF  FF7
062C0:  MOVLW  00
062C2:  MOVWF  FF8
062C4:  CALL   33F8
....................                SendDataDisplay(); 
062C8:  CALL   342A
....................                TipoClave=3; 
062CC:  MOVLW  03
062CE:  MOVLB  3
062D0:  MOVWF  x1A
....................             }else{ 
062D2:  BRA    62EC
....................                printf("page MenuPrincipal"); 
062D4:  MOVLW  D4
062D6:  MOVWF  FF6
062D8:  MOVLW  04
062DA:  MOVWF  FF7
062DC:  MOVLW  00
062DE:  MOVWF  FF8
062E0:  MOVLB  0
062E2:  CALL   33F8
....................                SendDataDisplay(); 
062E6:  CALL   342A
062EA:  MOVLB  3
....................             }  
....................          }else if(TipoClave==3){ 
062EC:  BRA    6410
062EE:  MOVF   x1A,W
062F0:  SUBLW  03
062F2:  BTFSS  FD8.2
062F4:  BRA    6410
....................             printf("titulo.txt=\"Clave Nueva\""); 
062F6:  MOVLW  E8
062F8:  MOVWF  FF6
062FA:  MOVLW  04
062FC:  MOVWF  FF7
062FE:  MOVLW  00
06300:  MOVWF  FF8
06302:  MOVLB  0
06304:  CALL   33F8
....................             SendDataDisplay(); 
06308:  CALL   342A
....................             printf("page MenuPrincipal"); 
0630C:  MOVLW  02
0630E:  MOVWF  FF6
06310:  MOVLW  05
06312:  MOVWF  FF7
06314:  MOVLW  00
06316:  MOVWF  FF8
06318:  CALL   33F8
....................             SendDataDisplay(); 
0631C:  CALL   342A
....................             if(!GuardaEEPROM){ 
06320:  BTFSC  xC6.4
06322:  BRA    640E
....................                write_eeprom(10,Contrasena[0]);delay_ms(20);write_eeprom(11,Contrasena[1]);delay_ms(20); 
06324:  CLRF   FAA
06326:  MOVLW  0A
06328:  MOVWF  FA9
0632A:  MOVFF  3A9,FA8
0632E:  BCF    FA6.6
06330:  BCF    FA6.7
06332:  BSF    FA6.2
06334:  MOVF   FF2,W
06336:  MOVWF  00
06338:  BCF    FF2.6
0633A:  BCF    FF2.7
0633C:  MOVLB  F
0633E:  MOVLW  55
06340:  MOVWF  FA7
06342:  MOVLW  AA
06344:  MOVWF  FA7
06346:  BSF    FA6.1
06348:  BTFSC  FA6.1
0634A:  BRA    6348
0634C:  BCF    FA6.2
0634E:  MOVF   00,W
06350:  IORWF  FF2,F
06352:  MOVLW  14
06354:  MOVLB  4
06356:  MOVWF  x01
06358:  MOVLB  0
0635A:  CALL   1BD4
0635E:  CLRF   FAA
06360:  MOVLW  0B
06362:  MOVWF  FA9
06364:  MOVFF  3AA,FA8
06368:  BCF    FA6.6
0636A:  BCF    FA6.7
0636C:  BSF    FA6.2
0636E:  MOVF   FF2,W
06370:  MOVWF  00
06372:  BCF    FF2.6
06374:  BCF    FF2.7
06376:  MOVLB  F
06378:  MOVLW  55
0637A:  MOVWF  FA7
0637C:  MOVLW  AA
0637E:  MOVWF  FA7
06380:  BSF    FA6.1
06382:  BTFSC  FA6.1
06384:  BRA    6382
06386:  BCF    FA6.2
06388:  MOVF   00,W
0638A:  IORWF  FF2,F
0638C:  MOVLW  14
0638E:  MOVLB  4
06390:  MOVWF  x01
06392:  MOVLB  0
06394:  CALL   1BD4
....................                write_eeprom(12,Contrasena[2]);delay_ms(20);write_eeprom(13,Contrasena[3]);delay_ms(20); 
06398:  CLRF   FAA
0639A:  MOVLW  0C
0639C:  MOVWF  FA9
0639E:  MOVFF  3AB,FA8
063A2:  BCF    FA6.6
063A4:  BCF    FA6.7
063A6:  BSF    FA6.2
063A8:  MOVF   FF2,W
063AA:  MOVWF  00
063AC:  BCF    FF2.6
063AE:  BCF    FF2.7
063B0:  MOVLB  F
063B2:  MOVLW  55
063B4:  MOVWF  FA7
063B6:  MOVLW  AA
063B8:  MOVWF  FA7
063BA:  BSF    FA6.1
063BC:  BTFSC  FA6.1
063BE:  BRA    63BC
063C0:  BCF    FA6.2
063C2:  MOVF   00,W
063C4:  IORWF  FF2,F
063C6:  MOVLW  14
063C8:  MOVLB  4
063CA:  MOVWF  x01
063CC:  MOVLB  0
063CE:  CALL   1BD4
063D2:  CLRF   FAA
063D4:  MOVLW  0D
063D6:  MOVWF  FA9
063D8:  MOVFF  3AC,FA8
063DC:  BCF    FA6.6
063DE:  BCF    FA6.7
063E0:  BSF    FA6.2
063E2:  MOVF   FF2,W
063E4:  MOVWF  00
063E6:  BCF    FF2.6
063E8:  BCF    FF2.7
063EA:  MOVLB  F
063EC:  MOVLW  55
063EE:  MOVWF  FA7
063F0:  MOVLW  AA
063F2:  MOVWF  FA7
063F4:  BSF    FA6.1
063F6:  BTFSC  FA6.1
063F8:  BRA    63F6
063FA:  BCF    FA6.2
063FC:  MOVF   00,W
063FE:  IORWF  FF2,F
06400:  MOVLW  14
06402:  MOVLB  4
06404:  MOVWF  x01
06406:  MOVLB  0
06408:  CALL   1BD4
....................                GuardaEEPROM=ON; 
0640C:  BSF    xC6.4
0640E:  MOVLB  3
....................             } 
....................          } 
....................       } 
....................        
....................       if(RX_Buffer[4]==0x11){//11 
06410:  MOVF   34,W
06412:  SUBLW  11
06414:  BNZ   6434
....................          if(TipoClave!=0){ 
06416:  MOVF   x1A,F
06418:  BZ    6434
....................             printf("page MenuPrincipal"); 
0641A:  MOVLW  16
0641C:  MOVWF  FF6
0641E:  MOVLW  05
06420:  MOVWF  FF7
06422:  MOVLW  00
06424:  MOVWF  FF8
06426:  MOVLB  0
06428:  CALL   33F8
....................             SendDataDisplay(); 
0642C:  CALL   342A
....................             PantallaPrincipal=0; 
06430:  MOVLB  3
06432:  CLRF   x19
....................          } 
....................       } 
....................        
....................       if(TipoClave==3){ 
06434:  MOVF   x1A,W
06436:  SUBLW  03
06438:  BNZ   6466
....................          printf("titulo.txt=\"Clave Nueva\""); 
0643A:  MOVLW  2A
0643C:  MOVWF  FF6
0643E:  MOVLW  05
06440:  MOVWF  FF7
06442:  MOVLW  00
06444:  MOVWF  FF8
06446:  MOVLB  0
06448:  CALL   33F8
....................          SendDataDisplay(); 
0644C:  CALL   342A
....................          printf("doevents"); 
06450:  MOVLW  44
06452:  MOVWF  FF6
06454:  MOVLW  05
06456:  MOVWF  FF7
06458:  MOVLW  00
0645A:  MOVWF  FF8
0645C:  CALL   33F8
....................          SendDataDisplay(); 
06460:  CALL   342A
06464:  MOVLB  3
....................       } 
....................        
....................       if(TipoClave==2){ 
06466:  MOVF   x1A,W
06468:  SUBLW  02
0646A:  BNZ   6498
....................          printf("titulo.txt=\"Clave Actual\""); 
0646C:  MOVLW  4E
0646E:  MOVWF  FF6
06470:  MOVLW  05
06472:  MOVWF  FF7
06474:  MOVLW  00
06476:  MOVWF  FF8
06478:  MOVLB  0
0647A:  CALL   33F8
....................          SendDataDisplay(); 
0647E:  CALL   342A
....................          printf("doevents"); 
06482:  MOVLW  68
06484:  MOVWF  FF6
06486:  MOVLW  05
06488:  MOVWF  FF7
0648A:  MOVLW  00
0648C:  MOVWF  FF8
0648E:  CALL   33F8
....................          SendDataDisplay(); 
06492:  CALL   342A
06496:  MOVLB  3
....................       } 
....................        
....................       if(TipoClave==1){ 
06498:  DECFSZ x1A,W
0649A:  BRA    64C8
....................          printf("titulo.txt=\"Clave Tecnico\""); 
0649C:  MOVLW  72
0649E:  MOVWF  FF6
064A0:  MOVLW  05
064A2:  MOVWF  FF7
064A4:  MOVLW  00
064A6:  MOVWF  FF8
064A8:  MOVLB  0
064AA:  CALL   33F8
....................          SendDataDisplay(); 
064AE:  CALL   342A
....................          printf("doevents"); 
064B2:  MOVLW  8E
064B4:  MOVWF  FF6
064B6:  MOVLW  05
064B8:  MOVWF  FF7
064BA:  MOVLW  00
064BC:  MOVWF  FF8
064BE:  CALL   33F8
....................          SendDataDisplay(); 
064C2:  CALL   342A
064C6:  MOVLB  3
....................       } 
....................        
....................       if(TipoClave==0){ 
064C8:  MOVF   x1A,F
064CA:  BNZ   64E4
....................          printf("titulo.txt=\"Ingrese Contrasea\""); 
064CC:  MOVLW  98
064CE:  MOVWF  FF6
064D0:  MOVLW  05
064D2:  MOVWF  FF7
064D4:  MOVLW  00
064D6:  MOVWF  FF8
064D8:  MOVLB  0
064DA:  CALL   33F8
....................          SendDataDisplay(); 
064DE:  CALL   342A
064E2:  MOVLB  3
....................       } 
....................       if(RX_Buffer[3]==0x0f){//0f, recibe caracteres ingresados desde el Display 
064E4:  MOVF   33,W
064E6:  SUBLW  0F
064E8:  BTFSS  FD8.2
064EA:  BRA    6856
....................           
....................          if(TipoClave==0){ 
064EC:  MOVF   x1A,F
064EE:  BTFSS  FD8.2
064F0:  BRA    6646
....................             if(RX_Buffer[4]==0x33&&RX_Buffer[5]==0x38&&RX_Buffer[6]==0x39&&RX_Buffer[7]==0x32){ // Si Ingresa clave para reset general del sistema. 
064F2:  MOVF   34,W
064F4:  SUBLW  33
064F6:  BTFSS  FD8.2
064F8:  BRA    65F2
064FA:  MOVF   35,W
064FC:  SUBLW  38
064FE:  BTFSS  FD8.2
06500:  BRA    65F2
06502:  MOVF   36,W
06504:  SUBLW  39
06506:  BNZ   65F2
06508:  MOVF   37,W
0650A:  SUBLW  32
0650C:  BNZ   65F2
....................                write_eeprom(10,0);delay_ms(20);write_eeprom(11,0);delay_ms(20);// Reestablece a contrasea de Fabrica y reinicia Programa. 
0650E:  CLRF   FAA
06510:  MOVLW  0A
06512:  MOVWF  FA9
06514:  CLRF   FA8
06516:  BCF    FA6.6
06518:  BCF    FA6.7
0651A:  BSF    FA6.2
0651C:  MOVF   FF2,W
0651E:  MOVWF  00
06520:  BCF    FF2.6
06522:  BCF    FF2.7
06524:  MOVLB  F
06526:  MOVLW  55
06528:  MOVWF  FA7
0652A:  MOVLW  AA
0652C:  MOVWF  FA7
0652E:  BSF    FA6.1
06530:  BTFSC  FA6.1
06532:  BRA    6530
06534:  BCF    FA6.2
06536:  MOVF   00,W
06538:  IORWF  FF2,F
0653A:  MOVLW  14
0653C:  MOVLB  4
0653E:  MOVWF  x01
06540:  MOVLB  0
06542:  CALL   1BD4
06546:  CLRF   FAA
06548:  MOVLW  0B
0654A:  MOVWF  FA9
0654C:  CLRF   FA8
0654E:  BCF    FA6.6
06550:  BCF    FA6.7
06552:  BSF    FA6.2
06554:  MOVF   FF2,W
06556:  MOVWF  00
06558:  BCF    FF2.6
0655A:  BCF    FF2.7
0655C:  MOVLB  F
0655E:  MOVLW  55
06560:  MOVWF  FA7
06562:  MOVLW  AA
06564:  MOVWF  FA7
06566:  BSF    FA6.1
06568:  BTFSC  FA6.1
0656A:  BRA    6568
0656C:  BCF    FA6.2
0656E:  MOVF   00,W
06570:  IORWF  FF2,F
06572:  MOVLW  14
06574:  MOVLB  4
06576:  MOVWF  x01
06578:  MOVLB  0
0657A:  CALL   1BD4
....................                write_eeprom(12,0);delay_ms(20);write_eeprom(13,0);delay_ms(20); 
0657E:  CLRF   FAA
06580:  MOVLW  0C
06582:  MOVWF  FA9
06584:  CLRF   FA8
06586:  BCF    FA6.6
06588:  BCF    FA6.7
0658A:  BSF    FA6.2
0658C:  MOVF   FF2,W
0658E:  MOVWF  00
06590:  BCF    FF2.6
06592:  BCF    FF2.7
06594:  MOVLB  F
06596:  MOVLW  55
06598:  MOVWF  FA7
0659A:  MOVLW  AA
0659C:  MOVWF  FA7
0659E:  BSF    FA6.1
065A0:  BTFSC  FA6.1
065A2:  BRA    65A0
065A4:  BCF    FA6.2
065A6:  MOVF   00,W
065A8:  IORWF  FF2,F
065AA:  MOVLW  14
065AC:  MOVLB  4
065AE:  MOVWF  x01
065B0:  MOVLB  0
065B2:  CALL   1BD4
065B6:  CLRF   FAA
065B8:  MOVLW  0D
065BA:  MOVWF  FA9
065BC:  CLRF   FA8
065BE:  BCF    FA6.6
065C0:  BCF    FA6.7
065C2:  BSF    FA6.2
065C4:  MOVF   FF2,W
065C6:  MOVWF  00
065C8:  BCF    FF2.6
065CA:  BCF    FF2.7
065CC:  MOVLB  F
065CE:  MOVLW  55
065D0:  MOVWF  FA7
065D2:  MOVLW  AA
065D4:  MOVWF  FA7
065D6:  BSF    FA6.1
065D8:  BTFSC  FA6.1
065DA:  BRA    65D8
065DC:  BCF    FA6.2
065DE:  MOVF   00,W
065E0:  IORWF  FF2,F
065E2:  MOVLW  14
065E4:  MOVLB  4
065E6:  MOVWF  x01
065E8:  MOVLB  0
065EA:  CALL   1BD4
....................                reset_cpu(); 
065EE:  RESET
065F0:  MOVLB  3
....................             } 
....................              
....................             if((RX_Buffer[4]==Password[0]+0x30)&&(RX_Buffer[5]==Password[1]+0x30)&&(RX_Buffer[6]==Password[2]+0x30)&&(RX_Buffer[7]==Password[3]+0x30)){ 
065F2:  MOVLW  30
065F4:  ADDWF  xAD,W
065F6:  SUBWF  34,W
065F8:  BNZ   662C
065FA:  MOVLW  30
065FC:  ADDWF  xAE,W
065FE:  SUBWF  35,W
06600:  BNZ   662C
06602:  MOVLW  30
06604:  ADDWF  xAF,W
06606:  SUBWF  36,W
06608:  BNZ   662C
0660A:  MOVLW  30
0660C:  ADDWF  xB0,W
0660E:  SUBWF  37,W
06610:  BNZ   662C
....................                //BorraBuffer(); 
....................                printf("page MenuPrincipal"); 
06612:  MOVLW  B8
06614:  MOVWF  FF6
06616:  MOVLW  05
06618:  MOVWF  FF7
0661A:  MOVLW  00
0661C:  MOVWF  FF8
0661E:  MOVLB  0
06620:  CALL   33F8
....................                SendDataDisplay(); 
06624:  CALL   342A
....................             }else{ 
06628:  BRA    6642
0662A:  MOVLB  3
....................                //BorraBuffer(); 
....................                printf("page Clave"); 
0662C:  MOVLW  CC
0662E:  MOVWF  FF6
06630:  MOVLW  05
06632:  MOVWF  FF7
06634:  MOVLW  00
06636:  MOVWF  FF8
06638:  MOVLB  0
0663A:  CALL   33F8
....................                SendDataDisplay(); 
0663E:  CALL   342A
....................             }  
....................          }else if(TipoClave==1){ 
06642:  BRA    6854
06644:  MOVLB  3
06646:  DECFSZ x1A,W
06648:  BRA    6696
....................             if(RX_Buffer[4]==0x34&&RX_Buffer[5]==0x34&&RX_Buffer[6]==0x34&&RX_Buffer[7]==0x34){ // Si Ingresa clave de Servicio Tecnico 
0664A:  MOVF   34,W
0664C:  SUBLW  34
0664E:  BNZ   667C
06650:  MOVF   35,W
06652:  SUBLW  34
06654:  BNZ   667C
06656:  MOVF   36,W
06658:  SUBLW  34
0665A:  BNZ   667C
0665C:  MOVF   37,W
0665E:  SUBLW  34
06660:  BNZ   667C
....................                printf("page Config"); 
06662:  MOVLW  D8
06664:  MOVWF  FF6
06666:  MOVLW  05
06668:  MOVWF  FF7
0666A:  MOVLW  00
0666C:  MOVWF  FF8
0666E:  MOVLB  0
06670:  CALL   33F8
....................                SendDataDisplay(); 
06674:  CALL   342A
....................             }else{ 
06678:  BRA    6692
0667A:  MOVLB  3
....................                printf("page MenuPrincipal"); 
0667C:  MOVLW  E4
0667E:  MOVWF  FF6
06680:  MOVLW  05
06682:  MOVWF  FF7
06684:  MOVLW  00
06686:  MOVWF  FF8
06688:  MOVLB  0
0668A:  CALL   33F8
....................                SendDataDisplay(); 
0668E:  CALL   342A
....................             } 
....................          }else if(TipoClave==2){ 
06692:  BRA    6854
06694:  MOVLB  3
06696:  MOVF   x1A,W
06698:  SUBLW  02
0669A:  BNZ   6710
....................             if((RX_Buffer[4]==Password[0]+0x30)&&(RX_Buffer[5]==Password[1]+0x30)&&(RX_Buffer[6]==Password[2]+0x30)&&(RX_Buffer[7]==Password[3]+0x30)){ 
0669C:  MOVLW  30
0669E:  ADDWF  xAD,W
066A0:  SUBWF  34,W
066A2:  BNZ   66F2
066A4:  MOVLW  30
066A6:  ADDWF  xAE,W
066A8:  SUBWF  35,W
066AA:  BNZ   66F2
066AC:  MOVLW  30
066AE:  ADDWF  xAF,W
066B0:  SUBWF  36,W
066B2:  BNZ   66F2
066B4:  MOVLW  30
066B6:  ADDWF  xB0,W
066B8:  SUBWF  37,W
066BA:  BNZ   66F2
....................                printf("page Clave"); 
066BC:  MOVLW  F8
066BE:  MOVWF  FF6
066C0:  MOVLW  05
066C2:  MOVWF  FF7
066C4:  MOVLW  00
066C6:  MOVWF  FF8
066C8:  MOVLB  0
066CA:  CALL   33F8
....................                SendDataDisplay(); 
066CE:  CALL   342A
....................                printf("titulo.txt=\"Clave Nueva\""); 
066D2:  MOVLW  04
066D4:  MOVWF  FF6
066D6:  MOVLW  06
066D8:  MOVWF  FF7
066DA:  MOVLW  00
066DC:  MOVWF  FF8
066DE:  CALL   33F8
....................                SendDataDisplay(); 
066E2:  CALL   342A
....................                TipoClave=3; 
066E6:  MOVLW  03
066E8:  MOVLB  3
066EA:  MOVWF  x1A
....................                RX_Buffer[3]=0x00; 
066EC:  CLRF   33
....................                RX_Buffer2[3]=0x00; 
066EE:  CLRF   3E
....................             }else{ 
066F0:  BRA    670E
....................                printf("page MenuPrincipal"); 
066F2:  MOVLW  1E
066F4:  MOVWF  FF6
066F6:  MOVLW  06
066F8:  MOVWF  FF7
066FA:  MOVLW  00
066FC:  MOVWF  FF8
066FE:  MOVLB  0
06700:  CALL   33F8
....................                SendDataDisplay(); 
06704:  CALL   342A
....................                RX_Buffer[3]=0x00; 
06708:  CLRF   33
....................                RX_Buffer2[3]=0x00; 
0670A:  CLRF   3E
0670C:  MOVLB  3
....................             }  
....................          }else if(TipoClave==3){ 
0670E:  BRA    6856
06710:  MOVF   x1A,W
06712:  SUBLW  03
06714:  BTFSS  FD8.2
06716:  BRA    6856
....................             printf("titulo.txt=\"Clave Nueva\""); 
06718:  MOVLW  32
0671A:  MOVWF  FF6
0671C:  MOVLW  06
0671E:  MOVWF  FF7
06720:  MOVLW  00
06722:  MOVWF  FF8
06724:  MOVLB  0
06726:  CALL   33F8
....................             SendDataDisplay(); 
0672A:  CALL   342A
....................             printf("page MenuPrincipal"); 
0672E:  MOVLW  4C
06730:  MOVWF  FF6
06732:  MOVLW  06
06734:  MOVWF  FF7
06736:  MOVLW  00
06738:  MOVWF  FF8
0673A:  CALL   33F8
....................             SendDataDisplay(); 
0673E:  CALL   342A
....................             if(!GuardaEEPROM){ 
06742:  BTFSC  xC6.4
06744:  BRA    6850
....................                write_eeprom(10,RX_Buffer[4]-0x30);delay_ms(20);write_eeprom(11,RX_Buffer[5]-0x30);delay_ms(20); 
06746:  MOVLW  30
06748:  SUBWF  34,W
0674A:  MOVLB  3
0674C:  MOVWF  xF6
0674E:  CLRF   FAA
06750:  MOVLW  0A
06752:  MOVWF  FA9
06754:  MOVFF  3F6,FA8
06758:  BCF    FA6.6
0675A:  BCF    FA6.7
0675C:  BSF    FA6.2
0675E:  MOVF   FF2,W
06760:  MOVWF  00
06762:  BCF    FF2.6
06764:  BCF    FF2.7
06766:  MOVLB  F
06768:  MOVLW  55
0676A:  MOVWF  FA7
0676C:  MOVLW  AA
0676E:  MOVWF  FA7
06770:  BSF    FA6.1
06772:  BTFSC  FA6.1
06774:  BRA    6772
06776:  BCF    FA6.2
06778:  MOVF   00,W
0677A:  IORWF  FF2,F
0677C:  MOVLW  14
0677E:  MOVLB  4
06780:  MOVWF  x01
06782:  MOVLB  0
06784:  CALL   1BD4
06788:  MOVLW  30
0678A:  SUBWF  35,W
0678C:  MOVLB  3
0678E:  MOVWF  xF6
06790:  CLRF   FAA
06792:  MOVLW  0B
06794:  MOVWF  FA9
06796:  MOVFF  3F6,FA8
0679A:  BCF    FA6.6
0679C:  BCF    FA6.7
0679E:  BSF    FA6.2
067A0:  MOVF   FF2,W
067A2:  MOVWF  00
067A4:  BCF    FF2.6
067A6:  BCF    FF2.7
067A8:  MOVLB  F
067AA:  MOVLW  55
067AC:  MOVWF  FA7
067AE:  MOVLW  AA
067B0:  MOVWF  FA7
067B2:  BSF    FA6.1
067B4:  BTFSC  FA6.1
067B6:  BRA    67B4
067B8:  BCF    FA6.2
067BA:  MOVF   00,W
067BC:  IORWF  FF2,F
067BE:  MOVLW  14
067C0:  MOVLB  4
067C2:  MOVWF  x01
067C4:  MOVLB  0
067C6:  CALL   1BD4
....................                write_eeprom(12,RX_Buffer[6]-0x30);delay_ms(20);write_eeprom(13,RX_Buffer[7]-0x30);delay_ms(20); 
067CA:  MOVLW  30
067CC:  SUBWF  36,W
067CE:  MOVLB  3
067D0:  MOVWF  xF6
067D2:  CLRF   FAA
067D4:  MOVLW  0C
067D6:  MOVWF  FA9
067D8:  MOVFF  3F6,FA8
067DC:  BCF    FA6.6
067DE:  BCF    FA6.7
067E0:  BSF    FA6.2
067E2:  MOVF   FF2,W
067E4:  MOVWF  00
067E6:  BCF    FF2.6
067E8:  BCF    FF2.7
067EA:  MOVLB  F
067EC:  MOVLW  55
067EE:  MOVWF  FA7
067F0:  MOVLW  AA
067F2:  MOVWF  FA7
067F4:  BSF    FA6.1
067F6:  BTFSC  FA6.1
067F8:  BRA    67F6
067FA:  BCF    FA6.2
067FC:  MOVF   00,W
067FE:  IORWF  FF2,F
06800:  MOVLW  14
06802:  MOVLB  4
06804:  MOVWF  x01
06806:  MOVLB  0
06808:  CALL   1BD4
0680C:  MOVLW  30
0680E:  SUBWF  37,W
06810:  MOVLB  3
06812:  MOVWF  xF6
06814:  CLRF   FAA
06816:  MOVLW  0D
06818:  MOVWF  FA9
0681A:  MOVFF  3F6,FA8
0681E:  BCF    FA6.6
06820:  BCF    FA6.7
06822:  BSF    FA6.2
06824:  MOVF   FF2,W
06826:  MOVWF  00
06828:  BCF    FF2.6
0682A:  BCF    FF2.7
0682C:  MOVLB  F
0682E:  MOVLW  55
06830:  MOVWF  FA7
06832:  MOVLW  AA
06834:  MOVWF  FA7
06836:  BSF    FA6.1
06838:  BTFSC  FA6.1
0683A:  BRA    6838
0683C:  BCF    FA6.2
0683E:  MOVF   00,W
06840:  IORWF  FF2,F
06842:  MOVLW  14
06844:  MOVLB  4
06846:  MOVWF  x01
06848:  MOVLB  0
0684A:  CALL   1BD4
....................                GuardaEEPROM=ON; 
0684E:  BSF    xC6.4
....................             } 
....................             RX_Buffer[3]=0x00; 
06850:  CLRF   33
....................             RX_Buffer2[3]=0x00; 
06852:  CLRF   3E
06854:  MOVLB  3
....................          } 
....................       } 
....................     } 
.................... //_--------------------------------------------------------------------------------------------------------------------------------------------------------        
....................  
.................... //_-------------------------------------------------------------------------------------------------------------------------------------------------------- 
....................    if(Menu==1){ //Menu Principal. 
06856:  DECFSZ x87,W
06858:  GOTO   7696
....................       printf("fecha.txt=\"Fecha:%02u/%02u/20%02u    Hora: %02u:%02u\"",Dia,Mes,Year,Hora,Minuto); 
0685C:  MOVLW  60
0685E:  MOVWF  FF6
06860:  MOVLW  06
06862:  MOVWF  FF7
06864:  MOVLW  00
06866:  MOVWF  FF8
06868:  MOVLW  11
0686A:  MOVWF  xFA
0686C:  MOVLB  0
0686E:  CALL   45DE
06872:  MOVFF  3C2,3F7
06876:  MOVLW  01
06878:  MOVLB  3
0687A:  MOVWF  xF8
0687C:  MOVLB  0
0687E:  CALL   4646
06882:  MOVLW  2F
06884:  BTFSS  F9E.4
06886:  BRA    6884
06888:  MOVWF  FAD
0688A:  MOVFF  3C1,3F7
0688E:  MOVLW  01
06890:  MOVLB  3
06892:  MOVWF  xF8
06894:  MOVLB  0
06896:  CALL   4646
0689A:  MOVLW  2F
0689C:  BTFSS  F9E.4
0689E:  BRA    689C
068A0:  MOVWF  FAD
068A2:  MOVLW  32
068A4:  BTFSS  F9E.4
068A6:  BRA    68A4
068A8:  MOVWF  FAD
068AA:  MOVLW  30
068AC:  BTFSS  F9E.4
068AE:  BRA    68AC
068B0:  MOVWF  FAD
068B2:  MOVFF  3C0,3F7
068B6:  MOVLW  01
068B8:  MOVLB  3
068BA:  MOVWF  xF8
068BC:  MOVLB  0
068BE:  CALL   4646
068C2:  MOVLW  81
068C4:  MOVWF  FF6
068C6:  MOVLW  06
068C8:  MOVWF  FF7
068CA:  MOVLW  00
068CC:  MOVWF  FF8
068CE:  MOVLW  0A
068D0:  MOVLB  3
068D2:  MOVWF  xFA
068D4:  MOVLB  0
068D6:  CALL   45DE
068DA:  MOVFF  3C3,3F7
068DE:  MOVLW  01
068E0:  MOVLB  3
068E2:  MOVWF  xF8
068E4:  MOVLB  0
068E6:  CALL   4646
068EA:  MOVLW  3A
068EC:  BTFSS  F9E.4
068EE:  BRA    68EC
068F0:  MOVWF  FAD
068F2:  MOVFF  3C4,3F7
068F6:  MOVLW  01
068F8:  MOVLB  3
068FA:  MOVWF  xF8
068FC:  MOVLB  0
068FE:  CALL   4646
06902:  MOVLW  22
06904:  BTFSS  F9E.4
06906:  BRA    6904
06908:  MOVWF  FAD
....................       SendDataDisplay(); 
0690A:  CALL   342A
....................       GuardaEEPROM=OFF; 
0690E:  BCF    xC6.4
....................       if(RX_Buffer[3]==0x0f || UP){//0f, recibe caracteres ingresados desde el Display 
06910:  MOVF   33,W
06912:  SUBLW  0F
06914:  BZ    691C
06916:  BSF    F93.6
06918:  BTFSC  F81.6
0691A:  BRA    6CDE
....................          delay_ms(5); 
0691C:  MOVLW  05
0691E:  MOVLB  4
06920:  MOVWF  x01
06922:  MOVLB  0
06924:  CALL   1BD4
....................          if(RX_Buffer[3]==0x0f || UP){ 
06928:  MOVF   33,W
0692A:  SUBLW  0F
0692C:  BZ    6934
0692E:  BSF    F93.6
06930:  BTFSC  F81.6
06932:  BRA    6CD8
....................          if(PantallaPrincipal==0){//Si esta en menu principal 
06934:  MOVLB  3
06936:  MOVF   x19,F
06938:  BTFSS  FD8.2
0693A:  BRA    6B7E
....................             if(RX_Buffer[4]==0x37){//Ajustes y pasa a solicitud de password de tecnico 
0693C:  MOVF   34,W
0693E:  SUBLW  37
06940:  BNZ   696C
....................                printf("page Clave"); 
06942:  MOVLW  96
06944:  MOVWF  FF6
06946:  MOVLW  06
06948:  MOVWF  FF7
0694A:  MOVLW  00
0694C:  MOVWF  FF8
0694E:  MOVLB  0
06950:  CALL   33F8
....................                SendDataDisplay();  
06954:  CALL   342A
....................                Op=OFF; 
06958:  BCF    xC6.0
....................                Op2=OFF; 
0695A:  BCF    xC6.1
....................                MenuAnt=Menu; 
0695C:  MOVFF  387,388
....................                TipoClave=1; 
06960:  MOVLW  01
06962:  MOVLB  3
06964:  MOVWF  x1A
....................                RX_Buffer[3]=0x00; 
06966:  CLRF   33
....................                RX_Buffer2[3]=0x00; 
06968:  CLRF   3E
....................                Opcion=0; 
0696A:  CLRF   x90
....................             }  
....................             if(Opcion==8){// Cambio de Clave 
0696C:  MOVF   x90,W
0696E:  SUBLW  08
06970:  BNZ   699E
....................                printf("page Clave"); 
06972:  MOVLW  A2
06974:  MOVWF  FF6
06976:  MOVLW  06
06978:  MOVWF  FF7
0697A:  MOVLW  00
0697C:  MOVWF  FF8
0697E:  MOVLB  0
06980:  CALL   33F8
....................                SendDataDisplay();  
06984:  CALL   342A
....................                Op=OFF; 
06988:  BCF    xC6.0
....................                Op2=OFF; 
0698A:  BCF    xC6.1
....................                MenuAnt=Menu; 
0698C:  MOVFF  387,388
....................                TipoClave=2; 
06990:  MOVLW  02
06992:  MOVLB  3
06994:  MOVWF  x1A
....................                RX_Buffer[3]=0x00; 
06996:  CLRF   33
....................                RX_Buffer2[3]=0x00; 
06998:  CLRF   3E
....................                Opcion=0; 
0699A:  CLRF   x90
....................             }else if(Opcion==7){//Hora y Fecha 
0699C:  BRA    6B7C
0699E:  MOVF   x90,W
069A0:  SUBLW  07
069A2:  BNZ   69E0
....................                printf("page Fecha"); 
069A4:  MOVLW  AE
069A6:  MOVWF  FF6
069A8:  MOVLW  06
069AA:  MOVWF  FF7
069AC:  MOVLW  00
069AE:  MOVWF  FF8
069B0:  MOVLB  0
069B2:  CALL   33F8
....................                SendDataDisplay();      
069B6:  CALL   342A
....................                PantallaPrincipal=0; 
069BA:  MOVLB  3
069BC:  CLRF   x19
....................                MenuAnt=Menu; 
069BE:  MOVFF  387,388
....................                Op=OFF; 
069C2:  MOVLB  0
069C4:  BCF    xC6.0
....................                Op2=OFF; 
069C6:  BCF    xC6.1
....................                DiaTx=Dia; 
069C8:  MOVFF  3C2,3C9
....................                MesTx=Mes; 
069CC:  MOVFF  3C1,3C8
....................                YearTx=Year; 
069D0:  MOVFF  3C0,3C7
....................                HoraTx=Hora; 
069D4:  MOVFF  3C3,3CA
....................                MinutoTx=Minuto; 
069D8:  MOVFF  3C4,3CB
....................             }else if(Opcion==6){//Test 
069DC:  BRA    6B7A
069DE:  MOVLB  3
069E0:  MOVF   x90,W
069E2:  SUBLW  06
069E4:  BNZ   6A0E
....................                printf("page Test"); 
069E6:  MOVLW  BA
069E8:  MOVWF  FF6
069EA:  MOVLW  06
069EC:  MOVWF  FF7
069EE:  MOVLW  00
069F0:  MOVWF  FF8
069F2:  MOVLB  0
069F4:  CALL   33F8
....................                SendDataDisplay();      
069F8:  CALL   342A
....................                PantallaPrincipal=0; 
069FC:  MOVLB  3
069FE:  CLRF   x19
....................                MenuAnt=Menu; 
06A00:  MOVFF  387,388
....................                Op=OFF; 
06A04:  MOVLB  0
06A06:  BCF    xC6.0
....................                Op2=OFF; 
06A08:  BCF    xC6.1
....................             }else if(Opcion==5){//Ciclo Personalizado 
06A0A:  BRA    6B7A
06A0C:  MOVLB  3
06A0E:  MOVF   x90,W
06A10:  SUBLW  05
06A12:  BNZ   6A3E
....................                printf("page MenuPrincipal"); 
06A14:  MOVLW  C4
06A16:  MOVWF  FF6
06A18:  MOVLW  06
06A1A:  MOVWF  FF7
06A1C:  MOVLW  00
06A1E:  MOVWF  FF8
06A20:  MOVLB  0
06A22:  CALL   33F8
....................                SendDataDisplay();      
06A26:  CALL   342A
....................                PantallaPrincipal=1; 
06A2A:  MOVLW  01
06A2C:  MOVLB  3
06A2E:  MOVWF  x19
....................                MenuAnt=Menu; 
06A30:  MOVFF  387,388
....................                Op=OFF; 
06A34:  MOVLB  0
06A36:  BCF    xC6.0
....................                Op2=OFF; 
06A38:  BCF    xC6.1
....................             }else if(Opcion==4){//LiquidosB Nivel de Desfogue  
06A3A:  BRA    6B7A
06A3C:  MOVLB  3
06A3E:  MOVF   x90,W
06A40:  SUBLW  04
06A42:  BNZ   6A8E
....................                printf("page Nivel"); 
06A44:  MOVLW  D8
06A46:  MOVWF  FF6
06A48:  MOVLW  06
06A4A:  MOVWF  FF7
06A4C:  MOVLW  00
06A4E:  MOVWF  FF8
06A50:  MOVLB  0
06A52:  CALL   33F8
....................                SendDataDisplay();        
06A56:  CALL   342A
....................                ConfiguraCiclo(0,0,0,3,0,0,0,0,1,4,121); 
06A5A:  MOVLB  3
06A5C:  CLRF   xF6
06A5E:  CLRF   xF7
06A60:  CLRF   xF8
06A62:  MOVLW  03
06A64:  MOVWF  xF9
06A66:  CLRF   xFA
06A68:  CLRF   xFB
06A6A:  CLRF   xFC
06A6C:  CLRF   xFD
06A6E:  MOVLW  01
06A70:  MOVWF  xFE
06A72:  MOVLW  04
06A74:  MOVWF  xFF
06A76:  MOVLW  79
06A78:  MOVLB  4
06A7A:  MOVWF  x00
06A7C:  MOVLB  0
06A7E:  CALL   46C6
....................                Op=OFF; 
06A82:  BCF    xC6.0
....................                Op2=OFF; 
06A84:  BCF    xC6.1
....................                MenuAnt=2; 
06A86:  MOVLW  02
06A88:  MOVLB  3
06A8A:  MOVWF  x88
....................             }else if(Opcion==3){//LiquidosA Nivel de Desfogue  
06A8C:  BRA    6B7C
06A8E:  MOVF   x90,W
06A90:  SUBLW  03
06A92:  BNZ   6ADE
....................                printf("page Nivel"); 
06A94:  MOVLW  E4
06A96:  MOVWF  FF6
06A98:  MOVLW  06
06A9A:  MOVWF  FF7
06A9C:  MOVLW  00
06A9E:  MOVWF  FF8
06AA0:  MOVLB  0
06AA2:  CALL   33F8
....................                SendDataDisplay();        
06AA6:  CALL   342A
....................                ConfiguraCiclo(0,0,5,1,0,0,0,0,1,3,121); 
06AAA:  MOVLB  3
06AAC:  CLRF   xF6
06AAE:  CLRF   xF7
06AB0:  MOVLW  05
06AB2:  MOVWF  xF8
06AB4:  MOVLW  01
06AB6:  MOVWF  xF9
06AB8:  CLRF   xFA
06ABA:  CLRF   xFB
06ABC:  CLRF   xFC
06ABE:  CLRF   xFD
06AC0:  MOVWF  xFE
06AC2:  MOVLW  03
06AC4:  MOVWF  xFF
06AC6:  MOVLW  79
06AC8:  MOVLB  4
06ACA:  MOVWF  x00
06ACC:  MOVLB  0
06ACE:  CALL   46C6
....................                Op=OFF; 
06AD2:  BCF    xC6.0
....................                Op2=OFF; 
06AD4:  BCF    xC6.1
....................                MenuAnt=2; 
06AD6:  MOVLW  02
06AD8:  MOVLB  3
06ADA:  MOVWF  x88
....................             }else if(Opcion==2){//Instrumental 
06ADC:  BRA    6B7C
06ADE:  MOVF   x90,W
06AE0:  SUBLW  02
06AE2:  BNZ   6B2E
....................                printf("page Funcionamiento"); 
06AE4:  MOVLW  F0
06AE6:  MOVWF  FF6
06AE8:  MOVLW  06
06AEA:  MOVWF  FF7
06AEC:  MOVLW  00
06AEE:  MOVWF  FF8
06AF0:  MOVLB  0
06AF2:  CALL   33F8
....................                SendDataDisplay();        
06AF6:  CALL   342A
....................                ConfiguraCiclo(0,0,3,0,0,0,5,0,0,2,134); 
06AFA:  MOVLB  3
06AFC:  CLRF   xF6
06AFE:  CLRF   xF7
06B00:  MOVLW  03
06B02:  MOVWF  xF8
06B04:  CLRF   xF9
06B06:  CLRF   xFA
06B08:  CLRF   xFB
06B0A:  MOVLW  05
06B0C:  MOVWF  xFC
06B0E:  CLRF   xFD
06B10:  CLRF   xFE
06B12:  MOVLW  02
06B14:  MOVWF  xFF
06B16:  MOVLW  86
06B18:  MOVLB  4
06B1A:  MOVWF  x00
06B1C:  MOVLB  0
06B1E:  CALL   46C6
....................                Op=OFF; 
06B22:  BCF    xC6.0
....................                Op2=OFF; 
06B24:  BCF    xC6.1
....................                MenuAnt=Menu; 
06B26:  MOVFF  387,388
....................                //if(Temperatura>60)TTrampa=TTrampa+5; 
....................             }else if(Opcion==1){//Plastico 
06B2A:  BRA    6B7A
06B2C:  MOVLB  3
06B2E:  DECFSZ x90,W
06B30:  BRA    6B7C
....................                printf("page Funcionamiento"); 
06B32:  MOVLW  04
06B34:  MOVWF  FF6
06B36:  MOVLW  07
06B38:  MOVWF  FF7
06B3A:  MOVLW  00
06B3C:  MOVWF  FF8
06B3E:  MOVLB  0
06B40:  CALL   33F8
....................                SendDataDisplay();        
06B44:  CALL   342A
....................                ConfiguraCiclo(0,0,5,1,0,0,3,0,0,1,121); 
06B48:  MOVLB  3
06B4A:  CLRF   xF6
06B4C:  CLRF   xF7
06B4E:  MOVLW  05
06B50:  MOVWF  xF8
06B52:  MOVLW  01
06B54:  MOVWF  xF9
06B56:  CLRF   xFA
06B58:  CLRF   xFB
06B5A:  MOVLW  03
06B5C:  MOVWF  xFC
06B5E:  CLRF   xFD
06B60:  CLRF   xFE
06B62:  MOVLW  01
06B64:  MOVWF  xFF
06B66:  MOVLW  79
06B68:  MOVLB  4
06B6A:  MOVWF  x00
06B6C:  MOVLB  0
06B6E:  CALL   46C6
....................                Op=OFF; 
06B72:  BCF    xC6.0
....................                Op2=OFF; 
06B74:  BCF    xC6.1
....................                MenuAnt=Menu; 
06B76:  MOVFF  387,388
06B7A:  MOVLB  3
....................                //if(Temperatura>60)TTrampa=TTrampa+5; 
....................             } 
....................          }else if(PantallaPrincipal==1){//Si esta en menu de ciclo libre 
06B7C:  BRA    6CDA
06B7E:  DECFSZ x19,W
06B80:  BRA    6CDA
....................             if(RX_Buffer[4]==0x37){//Ajustes y pasa a solicitud de password de tecnico 
06B82:  MOVF   34,W
06B84:  SUBLW  37
06B86:  BNZ   6BB2
....................                printf("page Clave"); 
06B88:  MOVLW  18
06B8A:  MOVWF  FF6
06B8C:  MOVLW  07
06B8E:  MOVWF  FF7
06B90:  MOVLW  00
06B92:  MOVWF  FF8
06B94:  MOVLB  0
06B96:  CALL   33F8
....................                SendDataDisplay();  
06B9A:  CALL   342A
....................                Op=OFF; 
06B9E:  BCF    xC6.0
....................                Op2=OFF; 
06BA0:  BCF    xC6.1
....................                MenuAnt=Menu; 
06BA2:  MOVFF  387,388
....................                TipoClave=1; 
06BA6:  MOVLW  01
06BA8:  MOVLB  3
06BAA:  MOVWF  x1A
....................                RX_Buffer[3]=0x00; 
06BAC:  CLRF   33
....................                RX_Buffer2[3]=0x00; 
06BAE:  CLRF   3E
....................                Opcion=0; 
06BB0:  CLRF   x90
....................             }  
....................             if(Opcion==15){// Iniciar Ciclo 
06BB2:  MOVF   x90,W
06BB4:  SUBLW  0F
06BB6:  BNZ   6C3C
....................                printf("page Funcionamiento"); 
06BB8:  MOVLW  24
06BBA:  MOVWF  FF6
06BBC:  MOVLW  07
06BBE:  MOVWF  FF7
06BC0:  MOVLW  00
06BC2:  MOVWF  FF8
06BC4:  MOVLB  0
06BC6:  CALL   33F8
....................                SendDataDisplay();   
06BCA:  CALL   342A
....................                MenuAnt=Menu; 
06BCE:  MOVFF  387,388
....................                IniciaCiclo=ON; 
06BD2:  BSF    xC4.1
....................                NivelSeleccionado=9990*Nivel; 
06BD4:  MOVLW  27
06BD6:  MOVLB  3
06BD8:  MOVWF  xF8
06BDA:  MOVLW  06
06BDC:  MOVWF  xF7
06BDE:  MOVFF  39E,3FA
06BE2:  MOVFF  39D,3F9
06BE6:  MOVLB  0
06BE8:  CALL   35D0
06BEC:  MOVFF  02,3A8
06BF0:  MOVFF  01,3A7
....................                CicloSeleccionado=5; 
06BF4:  MOVLW  05
06BF6:  MOVLB  3
06BF8:  MOVWF  x8E
....................                if(ActivaImpresion==1){ 
06BFA:  DECFSZ x80,W
06BFC:  BRA    6C1A
....................                   Imprime=5; 
06BFE:  MOVLW  05
06C00:  MOVWF  xCF
....................                   Envio_Esclavos(); 
06C02:  MOVLB  0
06C04:  CALL   3E62
....................                   delay_ms(100); 
06C08:  MOVLW  64
06C0A:  MOVLB  4
06C0C:  MOVWF  x01
06C0E:  MOVLB  0
06C10:  CALL   1BD4
....................                   Imprime=10; 
06C14:  MOVLW  0A
06C16:  MOVLB  3
06C18:  MOVWF  xCF
....................                } 
....................                Tsecado[0]=Tsecadop[0]; 
06C1A:  MOVFF  DE,DA
....................                Tsecado[1]=Tsecadop[1]; 
06C1E:  MOVFF  DF,DB
....................                Tsecado[2]=Tsecadop[2]; 
06C22:  MOVFF  E0,DC
....................                Tsecado[3]=Tsecadop[3]; 
06C26:  MOVFF  E1,DD
....................                Testerilizacion[0]=Testerilizacionp[0]; 
06C2A:  MOVFF  D6,D2
....................                Testerilizacion[1]=Testerilizacionp[1]; 
06C2E:  MOVFF  D7,D3
....................                Testerilizacion[2]=Testerilizacionp[2]; 
06C32:  MOVFF  D8,D4
....................                Testerilizacion[3]=Testerilizacionp[3]; 
06C36:  MOVFF  D9,D5
....................                //if(Temperatura>60)TTrampa=TTrampa+5; 
....................             }else if(Opcion==14){//Nivel de Desfogue 
06C3A:  BRA    6CDA
06C3C:  MOVF   x90,W
06C3E:  SUBLW  0E
06C40:  BNZ   6C64
....................                printf("page Nivel"); 
06C42:  MOVLW  38
06C44:  MOVWF  FF6
06C46:  MOVLW  07
06C48:  MOVWF  FF7
06C4A:  MOVLW  00
06C4C:  MOVWF  FF8
06C4E:  MOVLB  0
06C50:  CALL   33F8
....................                SendDataDisplay();     
06C54:  CALL   342A
....................                Op=OFF; 
06C58:  BCF    xC6.0
....................                Op2=OFF; 
06C5A:  BCF    xC6.1
....................                MenuAnt=1; 
06C5C:  MOVLW  01
06C5E:  MOVLB  3
06C60:  MOVWF  x88
....................             }else if(Opcion==13){//Temperatura  
06C62:  BRA    6CDA
06C64:  MOVF   x90,W
06C66:  SUBLW  0D
06C68:  BNZ   6C8C
....................                printf("page Temperatura"); 
06C6A:  MOVLW  44
06C6C:  MOVWF  FF6
06C6E:  MOVLW  07
06C70:  MOVWF  FF7
06C72:  MOVLW  00
06C74:  MOVWF  FF8
06C76:  MOVLB  0
06C78:  CALL   33F8
....................                SendDataDisplay();   
06C7C:  CALL   342A
....................                Op=OFF; 
06C80:  BCF    xC6.0
....................                Op2=OFF; 
06C82:  BCF    xC6.1
....................                MenuAnt=Menu; 
06C84:  MOVFF  387,388
....................             }else if(Opcion==12){//Tiempo de Secado 
06C88:  BRA    6CD8
06C8A:  MOVLB  3
06C8C:  MOVF   x90,W
06C8E:  SUBLW  0C
06C90:  BNZ   6CB4
....................                printf("page TiempoSec"); 
06C92:  MOVLW  56
06C94:  MOVWF  FF6
06C96:  MOVLW  07
06C98:  MOVWF  FF7
06C9A:  MOVLW  00
06C9C:  MOVWF  FF8
06C9E:  MOVLB  0
06CA0:  CALL   33F8
....................                SendDataDisplay();    
06CA4:  CALL   342A
....................                Op=OFF; 
06CA8:  BCF    xC6.0
....................                Op2=OFF; 
06CAA:  BCF    xC6.1
....................                MenuAnt=Menu; 
06CAC:  MOVFF  387,388
....................             }else if(Opcion==11){//Instrumental 
06CB0:  BRA    6CD8
06CB2:  MOVLB  3
06CB4:  MOVF   x90,W
06CB6:  SUBLW  0B
06CB8:  BNZ   6CDA
....................                printf("page TiempoEst"); 
06CBA:  MOVLW  66
06CBC:  MOVWF  FF6
06CBE:  MOVLW  07
06CC0:  MOVWF  FF7
06CC2:  MOVLW  00
06CC4:  MOVWF  FF8
06CC6:  MOVLB  0
06CC8:  CALL   33F8
....................                SendDataDisplay();  
06CCC:  CALL   342A
....................                Op=OFF; 
06CD0:  BCF    xC6.0
....................                Op2=OFF; 
06CD2:  BCF    xC6.1
....................                MenuAnt=Menu; 
06CD4:  MOVFF  387,388
06CD8:  MOVLB  3
....................             } 
....................          } 
....................          } 
....................       }else if(PantallaPrincipal==0){ 
06CDA:  GOTO   7648
06CDE:  MOVLB  3
06CE0:  MOVF   x19,F
06CE2:  BTFSS  FD8.2
06CE4:  BRA    724A
....................          if(Opcion>8) 
06CE6:  MOVF   x90,W
06CE8:  SUBLW  08
06CEA:  BC    6CF0
....................             Opcion=1; 
06CEC:  MOVLW  01
06CEE:  MOVWF  x90
....................              
....................          if(Opcion<1) 
06CF0:  MOVF   x90,F
06CF2:  BNZ   6CF8
....................             Opcion=8; 
06CF4:  MOVLW  08
06CF6:  MOVWF  x90
....................           
....................          if(RIGHT){ 
06CF8:  BSF    F93.4
06CFA:  BTFSC  F81.4
06CFC:  BRA    6D14
....................             delay_ms(200); 
06CFE:  MOVLW  C8
06D00:  MOVLB  4
06D02:  MOVWF  x01
06D04:  MOVLB  0
06D06:  CALL   1BD4
....................             if(RIGHT){ 
06D0A:  BSF    F93.4
06D0C:  BTFSC  F81.4
06D0E:  BRA    6D16
....................                Opcion++; 
06D10:  MOVLB  3
06D12:  INCF   x90,F
06D14:  MOVLB  0
....................             } 
....................          } 
....................           
....................          if(LEFT){ 
06D16:  BSF    F93.3
06D18:  BTFSC  F81.3
06D1A:  BRA    6D34
....................             delay_ms(200); 
06D1C:  MOVLW  C8
06D1E:  MOVLB  4
06D20:  MOVWF  x01
06D22:  MOVLB  0
06D24:  CALL   1BD4
....................             if(LEFT){ 
06D28:  BSF    F93.3
06D2A:  BTFSC  F81.3
06D2C:  BRA    6D34
....................                Opcion--; 
06D2E:  MOVLB  3
06D30:  DECF   x90,F
06D32:  MOVLB  0
....................             } 
....................          } 
....................           
....................          printf("ttitulo.txt=\"SELECCIONE SU CICLO\""); 
06D34:  MOVLW  76
06D36:  MOVWF  FF6
06D38:  MOVLW  07
06D3A:  MOVWF  FF7
06D3C:  MOVLW  00
06D3E:  MOVWF  FF8
06D40:  CALL   33F8
....................          SendDataDisplay(); 
06D44:  CALL   342A
....................              
....................          if(RX_Buffer[4]==0x0d && !Op){//Tecla Derecha Oprimida 
06D48:  MOVF   34,W
06D4A:  SUBLW  0D
06D4C:  BNZ   6D5C
06D4E:  BTFSC  xC6.0
06D50:  BRA    6D5C
....................             Opcion++; 
06D52:  MOVLB  3
06D54:  INCF   x90,F
....................             RX_Buffer[4]=0x00; 
06D56:  CLRF   34
....................             Op=ON; 
06D58:  MOVLB  0
06D5A:  BSF    xC6.0
....................             //BorraBuffer(); 
....................          } 
....................           
....................          if(RX_Buffer[4]==0x0c && Op){//Tecla Derecha Oprimida 
06D5C:  MOVF   34,W
06D5E:  SUBLW  0C
06D60:  BNZ   6D70
06D62:  BTFSS  xC6.0
06D64:  BRA    6D70
....................             Opcion++; 
06D66:  MOVLB  3
06D68:  INCF   x90,F
....................             RX_Buffer[4]=0x00; 
06D6A:  CLRF   34
....................             Op=OFF; 
06D6C:  MOVLB  0
06D6E:  BCF    xC6.0
....................             //BorraBuffer(); 
....................          } 
....................           
....................          if(RX_Buffer[4]==0x0e && !Op2){//Tecla Izquierda Oprimida 
06D70:  MOVF   34,W
06D72:  SUBLW  0E
06D74:  BNZ   6D84
06D76:  BTFSC  xC6.1
06D78:  BRA    6D84
....................             Opcion--; 
06D7A:  MOVLB  3
06D7C:  DECF   x90,F
....................             RX_Buffer[4]=0x00; 
06D7E:  CLRF   34
....................             Op2=ON; 
06D80:  MOVLB  0
06D82:  BSF    xC6.1
....................             //BorraBuffer(); 
....................          } 
....................           
....................          if(RX_Buffer[4]==0x0f && Op2){//Tecla Izquierda Oprimida 
06D84:  MOVF   34,W
06D86:  SUBLW  0F
06D88:  BNZ   6D98
06D8A:  BTFSS  xC6.1
06D8C:  BRA    6D98
....................             Opcion--; 
06D8E:  MOVLB  3
06D90:  DECF   x90,F
....................             RX_Buffer[4]=0x00; 
06D92:  CLRF   34
....................             Op2=OFF; 
06D94:  MOVLB  0
06D96:  BCF    xC6.1
....................             //BorraBuffer(); 
....................          } 
....................           
....................          if(Opcion==8){ 
06D98:  MOVLB  3
06D9A:  MOVF   x90,W
06D9C:  SUBLW  08
06D9E:  BNZ   6E30
....................             printf("bc.pic=83"); 
06DA0:  MOVLW  98
06DA2:  MOVWF  FF6
06DA4:  MOVLW  07
06DA6:  MOVWF  FF7
06DA8:  MOVLW  00
06DAA:  MOVWF  FF8
06DAC:  MOVLB  0
06DAE:  CALL   33F8
....................             SendDataDisplay(); 
06DB2:  CALL   342A
....................             printf("bd.pic=36"); 
06DB6:  MOVLW  A2
06DB8:  MOVWF  FF6
06DBA:  MOVLW  07
06DBC:  MOVWF  FF7
06DBE:  MOVLW  00
06DC0:  MOVWF  FF8
06DC2:  CALL   33F8
....................             SendDataDisplay(); 
06DC6:  CALL   342A
....................             printf("bi.pic=40"); 
06DCA:  MOVLW  AC
06DCC:  MOVWF  FF6
06DCE:  MOVLW  07
06DD0:  MOVWF  FF7
06DD2:  MOVLW  00
06DD4:  MOVWF  FF8
06DD6:  CALL   33F8
....................             SendDataDisplay(); 
06DDA:  CALL   342A
....................             printf("bc.pic2=83"); 
06DDE:  MOVLW  B6
06DE0:  MOVWF  FF6
06DE2:  MOVLW  07
06DE4:  MOVWF  FF7
06DE6:  MOVLW  00
06DE8:  MOVWF  FF8
06DEA:  CALL   33F8
....................             SendDataDisplay(); 
06DEE:  CALL   342A
....................             printf("bd.pic2=36"); 
06DF2:  MOVLW  C2
06DF4:  MOVWF  FF6
06DF6:  MOVLW  07
06DF8:  MOVWF  FF7
06DFA:  MOVLW  00
06DFC:  MOVWF  FF8
06DFE:  CALL   33F8
....................             SendDataDisplay(); 
06E02:  CALL   342A
....................             printf("bi.pic2=40"); 
06E06:  MOVLW  CE
06E08:  MOVWF  FF6
06E0A:  MOVLW  07
06E0C:  MOVWF  FF7
06E0E:  MOVLW  00
06E10:  MOVWF  FF8
06E12:  CALL   33F8
....................             SendDataDisplay(); 
06E16:  CALL   342A
....................             printf("textop.txt=\"CAMBIO DE CLAVE\""); 
06E1A:  MOVLW  DA
06E1C:  MOVWF  FF6
06E1E:  MOVLW  07
06E20:  MOVWF  FF7
06E22:  MOVLW  00
06E24:  MOVWF  FF8
06E26:  CALL   33F8
....................             SendDataDisplay(); 
06E2A:  CALL   342A
06E2E:  MOVLB  3
....................          } 
....................           
....................          if(Opcion==7){ 
06E30:  MOVF   x90,W
06E32:  SUBLW  07
06E34:  BNZ   6EC6
....................             printf("bc.pic=84"); 
06E36:  MOVLW  F8
06E38:  MOVWF  FF6
06E3A:  MOVLW  07
06E3C:  MOVWF  FF7
06E3E:  MOVLW  00
06E40:  MOVWF  FF8
06E42:  MOVLB  0
06E44:  CALL   33F8
....................             SendDataDisplay(); 
06E48:  CALL   342A
....................             printf("bd.pic=38"); 
06E4C:  MOVLW  02
06E4E:  MOVWF  FF6
06E50:  MOVLW  08
06E52:  MOVWF  FF7
06E54:  MOVLW  00
06E56:  MOVWF  FF8
06E58:  CALL   33F8
....................             SendDataDisplay(); 
06E5C:  CALL   342A
....................             printf("bi.pic=52"); 
06E60:  MOVLW  0C
06E62:  MOVWF  FF6
06E64:  MOVLW  08
06E66:  MOVWF  FF7
06E68:  MOVLW  00
06E6A:  MOVWF  FF8
06E6C:  CALL   33F8
....................             SendDataDisplay(); 
06E70:  CALL   342A
....................             printf("bc.pic2=84"); 
06E74:  MOVLW  16
06E76:  MOVWF  FF6
06E78:  MOVLW  08
06E7A:  MOVWF  FF7
06E7C:  MOVLW  00
06E7E:  MOVWF  FF8
06E80:  CALL   33F8
....................             SendDataDisplay(); 
06E84:  CALL   342A
....................             printf("bd.pic2=38"); 
06E88:  MOVLW  22
06E8A:  MOVWF  FF6
06E8C:  MOVLW  08
06E8E:  MOVWF  FF7
06E90:  MOVLW  00
06E92:  MOVWF  FF8
06E94:  CALL   33F8
....................             SendDataDisplay(); 
06E98:  CALL   342A
....................             printf("bi.pic2=52"); 
06E9C:  MOVLW  2E
06E9E:  MOVWF  FF6
06EA0:  MOVLW  08
06EA2:  MOVWF  FF7
06EA4:  MOVLW  00
06EA6:  MOVWF  FF8
06EA8:  CALL   33F8
....................             SendDataDisplay(); 
06EAC:  CALL   342A
....................             printf("textop.txt=\"HORA Y FECHA\""); 
06EB0:  MOVLW  3A
06EB2:  MOVWF  FF6
06EB4:  MOVLW  08
06EB6:  MOVWF  FF7
06EB8:  MOVLW  00
06EBA:  MOVWF  FF8
06EBC:  CALL   33F8
....................             SendDataDisplay(); 
06EC0:  CALL   342A
06EC4:  MOVLB  3
....................          } 
....................           
....................          if(Opcion==6){ 
06EC6:  MOVF   x90,W
06EC8:  SUBLW  06
06ECA:  BNZ   6F5C
....................             printf("bc.pic=93"); 
06ECC:  MOVLW  54
06ECE:  MOVWF  FF6
06ED0:  MOVLW  08
06ED2:  MOVWF  FF7
06ED4:  MOVLW  00
06ED6:  MOVWF  FF8
06ED8:  MOVLB  0
06EDA:  CALL   33F8
....................             SendDataDisplay(); 
06EDE:  CALL   342A
....................             printf("bd.pic=40"); 
06EE2:  MOVLW  5E
06EE4:  MOVWF  FF6
06EE6:  MOVLW  08
06EE8:  MOVWF  FF7
06EEA:  MOVLW  00
06EEC:  MOVWF  FF8
06EEE:  CALL   33F8
....................             SendDataDisplay(); 
06EF2:  CALL   342A
....................             printf("bi.pic=44"); 
06EF6:  MOVLW  68
06EF8:  MOVWF  FF6
06EFA:  MOVLW  08
06EFC:  MOVWF  FF7
06EFE:  MOVLW  00
06F00:  MOVWF  FF8
06F02:  CALL   33F8
....................             SendDataDisplay(); 
06F06:  CALL   342A
....................             printf("bc.pic2=93"); 
06F0A:  MOVLW  72
06F0C:  MOVWF  FF6
06F0E:  MOVLW  08
06F10:  MOVWF  FF7
06F12:  MOVLW  00
06F14:  MOVWF  FF8
06F16:  CALL   33F8
....................             SendDataDisplay(); 
06F1A:  CALL   342A
....................             printf("bd.pic2=40"); 
06F1E:  MOVLW  7E
06F20:  MOVWF  FF6
06F22:  MOVLW  08
06F24:  MOVWF  FF7
06F26:  MOVLW  00
06F28:  MOVWF  FF8
06F2A:  CALL   33F8
....................             SendDataDisplay(); 
06F2E:  CALL   342A
....................             printf("bi.pic2=44"); 
06F32:  MOVLW  8A
06F34:  MOVWF  FF6
06F36:  MOVLW  08
06F38:  MOVWF  FF7
06F3A:  MOVLW  00
06F3C:  MOVWF  FF8
06F3E:  CALL   33F8
....................             SendDataDisplay(); 
06F42:  CALL   342A
....................             printf("textop.txt=\"TEST COMPONENTES\""); 
06F46:  MOVLW  96
06F48:  MOVWF  FF6
06F4A:  MOVLW  08
06F4C:  MOVWF  FF7
06F4E:  MOVLW  00
06F50:  MOVWF  FF8
06F52:  CALL   33F8
....................             SendDataDisplay(); 
06F56:  CALL   342A
06F5A:  MOVLB  3
....................          } 
....................           
....................          if(Opcion==5){ 
06F5C:  MOVF   x90,W
06F5E:  SUBLW  05
06F60:  BNZ   6FF2
....................             printf("bc.pic=87"); 
06F62:  MOVLW  B4
06F64:  MOVWF  FF6
06F66:  MOVLW  08
06F68:  MOVWF  FF7
06F6A:  MOVLW  00
06F6C:  MOVWF  FF8
06F6E:  MOVLB  0
06F70:  CALL   33F8
....................             SendDataDisplay(); 
06F74:  CALL   342A
....................             printf("bd.pic=52"); 
06F78:  MOVLW  BE
06F7A:  MOVWF  FF6
06F7C:  MOVLW  08
06F7E:  MOVWF  FF7
06F80:  MOVLW  00
06F82:  MOVWF  FF8
06F84:  CALL   33F8
....................             SendDataDisplay(); 
06F88:  CALL   342A
....................             printf("bi.pic=46"); 
06F8C:  MOVLW  C8
06F8E:  MOVWF  FF6
06F90:  MOVLW  08
06F92:  MOVWF  FF7
06F94:  MOVLW  00
06F96:  MOVWF  FF8
06F98:  CALL   33F8
....................             SendDataDisplay(); 
06F9C:  CALL   342A
....................             printf("bc.pic2=87"); 
06FA0:  MOVLW  D2
06FA2:  MOVWF  FF6
06FA4:  MOVLW  08
06FA6:  MOVWF  FF7
06FA8:  MOVLW  00
06FAA:  MOVWF  FF8
06FAC:  CALL   33F8
....................             SendDataDisplay(); 
06FB0:  CALL   342A
....................             printf("bd.pic2=52"); 
06FB4:  MOVLW  DE
06FB6:  MOVWF  FF6
06FB8:  MOVLW  08
06FBA:  MOVWF  FF7
06FBC:  MOVLW  00
06FBE:  MOVWF  FF8
06FC0:  CALL   33F8
....................             SendDataDisplay(); 
06FC4:  CALL   342A
....................             printf("bi.pic2=46"); 
06FC8:  MOVLW  EA
06FCA:  MOVWF  FF6
06FCC:  MOVLW  08
06FCE:  MOVWF  FF7
06FD0:  MOVLW  00
06FD2:  MOVWF  FF8
06FD4:  CALL   33F8
....................             SendDataDisplay(); 
06FD8:  CALL   342A
....................             printf("textop.txt=\"LIBRE\""); 
06FDC:  MOVLW  F6
06FDE:  MOVWF  FF6
06FE0:  MOVLW  08
06FE2:  MOVWF  FF7
06FE4:  MOVLW  00
06FE6:  MOVWF  FF8
06FE8:  CALL   33F8
....................             SendDataDisplay(); 
06FEC:  CALL   342A
06FF0:  MOVLB  3
....................          } 
....................           
....................          if(Opcion==4){ 
06FF2:  MOVF   x90,W
06FF4:  SUBLW  04
06FF6:  BNZ   7088
....................             printf("bc.pic=89"); 
06FF8:  MOVLW  0A
06FFA:  MOVWF  FF6
06FFC:  MOVLW  09
06FFE:  MOVWF  FF7
07000:  MOVLW  00
07002:  MOVWF  FF8
07004:  MOVLB  0
07006:  CALL   33F8
....................             SendDataDisplay(); 
0700A:  CALL   342A
....................             printf("bd.pic=44"); 
0700E:  MOVLW  14
07010:  MOVWF  FF6
07012:  MOVLW  09
07014:  MOVWF  FF7
07016:  MOVLW  00
07018:  MOVWF  FF8
0701A:  CALL   33F8
....................             SendDataDisplay(); 
0701E:  CALL   342A
....................             printf("bi.pic=45"); 
07022:  MOVLW  1E
07024:  MOVWF  FF6
07026:  MOVLW  09
07028:  MOVWF  FF7
0702A:  MOVLW  00
0702C:  MOVWF  FF8
0702E:  CALL   33F8
....................             SendDataDisplay(); 
07032:  CALL   342A
....................             printf("bc.pic2=89"); 
07036:  MOVLW  28
07038:  MOVWF  FF6
0703A:  MOVLW  09
0703C:  MOVWF  FF7
0703E:  MOVLW  00
07040:  MOVWF  FF8
07042:  CALL   33F8
....................             SendDataDisplay(); 
07046:  CALL   342A
....................             printf("bd.pic2=44"); 
0704A:  MOVLW  34
0704C:  MOVWF  FF6
0704E:  MOVLW  09
07050:  MOVWF  FF7
07052:  MOVLW  00
07054:  MOVWF  FF8
07056:  CALL   33F8
....................             SendDataDisplay(); 
0705A:  CALL   342A
....................             printf("bi.pic2=45"); 
0705E:  MOVLW  40
07060:  MOVWF  FF6
07062:  MOVLW  09
07064:  MOVWF  FF7
07066:  MOVLW  00
07068:  MOVWF  FF8
0706A:  CALL   33F8
....................             SendDataDisplay(); 
0706E:  CALL   342A
....................             printf("textop.txt=\"LIQUIDOS B\""); 
07072:  MOVLW  4C
07074:  MOVWF  FF6
07076:  MOVLW  09
07078:  MOVWF  FF7
0707A:  MOVLW  00
0707C:  MOVWF  FF8
0707E:  CALL   33F8
....................             SendDataDisplay(); 
07082:  CALL   342A
07086:  MOVLB  3
....................          } 
....................      
....................          if(Opcion==3){ 
07088:  MOVF   x90,W
0708A:  SUBLW  03
0708C:  BNZ   711E
....................             printf("bc.pic=88"); 
0708E:  MOVLW  64
07090:  MOVWF  FF6
07092:  MOVLW  09
07094:  MOVWF  FF7
07096:  MOVLW  00
07098:  MOVWF  FF8
0709A:  MOVLB  0
0709C:  CALL   33F8
....................             SendDataDisplay(); 
070A0:  CALL   342A
....................             printf("bd.pic=46"); 
070A4:  MOVLW  6E
070A6:  MOVWF  FF6
070A8:  MOVLW  09
070AA:  MOVWF  FF7
070AC:  MOVLW  00
070AE:  MOVWF  FF8
070B0:  CALL   33F8
....................             SendDataDisplay(); 
070B4:  CALL   342A
....................             printf("bi.pic=37"); 
070B8:  MOVLW  78
070BA:  MOVWF  FF6
070BC:  MOVLW  09
070BE:  MOVWF  FF7
070C0:  MOVLW  00
070C2:  MOVWF  FF8
070C4:  CALL   33F8
....................             SendDataDisplay(); 
070C8:  CALL   342A
....................             printf("bc.pic2=88"); 
070CC:  MOVLW  82
070CE:  MOVWF  FF6
070D0:  MOVLW  09
070D2:  MOVWF  FF7
070D4:  MOVLW  00
070D6:  MOVWF  FF8
070D8:  CALL   33F8
....................             SendDataDisplay(); 
070DC:  CALL   342A
....................             printf("bd.pic2=46"); 
070E0:  MOVLW  8E
070E2:  MOVWF  FF6
070E4:  MOVLW  09
070E6:  MOVWF  FF7
070E8:  MOVLW  00
070EA:  MOVWF  FF8
070EC:  CALL   33F8
....................             SendDataDisplay(); 
070F0:  CALL   342A
....................             printf("bi.pic2=37"); 
070F4:  MOVLW  9A
070F6:  MOVWF  FF6
070F8:  MOVLW  09
070FA:  MOVWF  FF7
070FC:  MOVLW  00
070FE:  MOVWF  FF8
07100:  CALL   33F8
....................             SendDataDisplay(); 
07104:  CALL   342A
....................             printf("textop.txt=\"LIQUIDOS A\""); 
07108:  MOVLW  A6
0710A:  MOVWF  FF6
0710C:  MOVLW  09
0710E:  MOVWF  FF7
07110:  MOVLW  00
07112:  MOVWF  FF8
07114:  CALL   33F8
....................             SendDataDisplay(); 
07118:  CALL   342A
0711C:  MOVLB  3
....................          } 
....................           
....................          if(Opcion==2){ 
0711E:  MOVF   x90,W
07120:  SUBLW  02
07122:  BNZ   71B4
....................             printf("bc.pic=86"); 
07124:  MOVLW  BE
07126:  MOVWF  FF6
07128:  MOVLW  09
0712A:  MOVWF  FF7
0712C:  MOVLW  00
0712E:  MOVWF  FF8
07130:  MOVLB  0
07132:  CALL   33F8
....................             SendDataDisplay(); 
07136:  CALL   342A
....................             printf("bd.pic=45"); 
0713A:  MOVLW  C8
0713C:  MOVWF  FF6
0713E:  MOVLW  09
07140:  MOVWF  FF7
07142:  MOVLW  00
07144:  MOVWF  FF8
07146:  CALL   33F8
....................             SendDataDisplay(); 
0714A:  CALL   342A
....................             printf("bi.pic=36"); 
0714E:  MOVLW  D2
07150:  MOVWF  FF6
07152:  MOVLW  09
07154:  MOVWF  FF7
07156:  MOVLW  00
07158:  MOVWF  FF8
0715A:  CALL   33F8
....................             SendDataDisplay(); 
0715E:  CALL   342A
....................             printf("bc.pic2=86"); 
07162:  MOVLW  DC
07164:  MOVWF  FF6
07166:  MOVLW  09
07168:  MOVWF  FF7
0716A:  MOVLW  00
0716C:  MOVWF  FF8
0716E:  CALL   33F8
....................             SendDataDisplay(); 
07172:  CALL   342A
....................             printf("bd.pic2=45"); 
07176:  MOVLW  E8
07178:  MOVWF  FF6
0717A:  MOVLW  09
0717C:  MOVWF  FF7
0717E:  MOVLW  00
07180:  MOVWF  FF8
07182:  CALL   33F8
....................             SendDataDisplay(); 
07186:  CALL   342A
....................             printf("bi.pic2=36"); 
0718A:  MOVLW  F4
0718C:  MOVWF  FF6
0718E:  MOVLW  09
07190:  MOVWF  FF7
07192:  MOVLW  00
07194:  MOVWF  FF8
07196:  CALL   33F8
....................             SendDataDisplay(); 
0719A:  CALL   342A
....................             printf("textop.txt=\"INSTRUMENTAL\""); 
0719E:  MOVLW  00
071A0:  MOVWF  FF6
071A2:  MOVLW  0A
071A4:  MOVWF  FF7
071A6:  MOVLW  00
071A8:  MOVWF  FF8
071AA:  CALL   33F8
....................             SendDataDisplay(); 
071AE:  CALL   342A
071B2:  MOVLB  3
....................          } 
....................    
....................          if(Opcion==1){ 
071B4:  DECFSZ x90,W
071B6:  BRA    7248
....................             printf("bc.pic=91"); 
071B8:  MOVLW  1A
071BA:  MOVWF  FF6
071BC:  MOVLW  0A
071BE:  MOVWF  FF7
071C0:  MOVLW  00
071C2:  MOVWF  FF8
071C4:  MOVLB  0
071C6:  CALL   33F8
....................             SendDataDisplay(); 
071CA:  CALL   342A
....................             printf("bd.pic=37"); 
071CE:  MOVLW  24
071D0:  MOVWF  FF6
071D2:  MOVLW  0A
071D4:  MOVWF  FF7
071D6:  MOVLW  00
071D8:  MOVWF  FF8
071DA:  CALL   33F8
....................             SendDataDisplay(); 
071DE:  CALL   342A
....................             printf("bi.pic=38"); 
071E2:  MOVLW  2E
071E4:  MOVWF  FF6
071E6:  MOVLW  0A
071E8:  MOVWF  FF7
071EA:  MOVLW  00
071EC:  MOVWF  FF8
071EE:  CALL   33F8
....................             SendDataDisplay(); 
071F2:  CALL   342A
....................             printf("bc.pic2=91"); 
071F6:  MOVLW  38
071F8:  MOVWF  FF6
071FA:  MOVLW  0A
071FC:  MOVWF  FF7
071FE:  MOVLW  00
07200:  MOVWF  FF8
07202:  CALL   33F8
....................             SendDataDisplay(); 
07206:  CALL   342A
....................             printf("bd.pic2=37"); 
0720A:  MOVLW  44
0720C:  MOVWF  FF6
0720E:  MOVLW  0A
07210:  MOVWF  FF7
07212:  MOVLW  00
07214:  MOVWF  FF8
07216:  CALL   33F8
....................             SendDataDisplay(); 
0721A:  CALL   342A
....................             printf("bi.pic2=38"); 
0721E:  MOVLW  50
07220:  MOVWF  FF6
07222:  MOVLW  0A
07224:  MOVWF  FF7
07226:  MOVLW  00
07228:  MOVWF  FF8
0722A:  CALL   33F8
....................             SendDataDisplay(); 
0722E:  CALL   342A
....................             printf("textop.txt=\"PLASTICO\""); 
07232:  MOVLW  5C
07234:  MOVWF  FF6
07236:  MOVLW  0A
07238:  MOVWF  FF7
0723A:  MOVLW  00
0723C:  MOVWF  FF8
0723E:  CALL   33F8
....................             SendDataDisplay(); 
07242:  CALL   342A
07246:  MOVLB  3
....................          } 
....................       }else if(PantallaPrincipal==1){ 
07248:  BRA    7648
0724A:  DECFSZ x19,W
0724C:  BRA    7648
....................          printf("ttitulo.txt=\"CICLO LIBRE\""); 
0724E:  MOVLW  72
07250:  MOVWF  FF6
07252:  MOVLW  0A
07254:  MOVWF  FF7
07256:  MOVLW  00
07258:  MOVWF  FF8
0725A:  MOVLB  0
0725C:  CALL   33F8
....................          SendDataDisplay(); 
07260:  CALL   342A
....................          if(Opcion>15) 
07264:  MOVLB  3
07266:  MOVF   x90,W
07268:  SUBLW  0F
0726A:  BC    7270
....................             Opcion=11; 
0726C:  MOVLW  0B
0726E:  MOVWF  x90
....................              
....................          if(Opcion<11) 
07270:  MOVF   x90,W
07272:  SUBLW  0A
07274:  BNC   727A
....................             Opcion=15; 
07276:  MOVLW  0F
07278:  MOVWF  x90
....................              
....................          if(RIGHT){ 
0727A:  BSF    F93.4
0727C:  BTFSC  F81.4
0727E:  BRA    7296
....................             delay_ms(200); 
07280:  MOVLW  C8
07282:  MOVLB  4
07284:  MOVWF  x01
07286:  MOVLB  0
07288:  CALL   1BD4
....................             if(RIGHT){ 
0728C:  BSF    F93.4
0728E:  BTFSC  F81.4
07290:  BRA    7298
....................                Opcion++; 
07292:  MOVLB  3
07294:  INCF   x90,F
07296:  MOVLB  0
....................             } 
....................          } 
....................           
....................          if(LEFT){ 
07298:  BSF    F93.3
0729A:  BTFSC  F81.3
0729C:  BRA    72B6
....................             delay_ms(200); 
0729E:  MOVLW  C8
072A0:  MOVLB  4
072A2:  MOVWF  x01
072A4:  MOVLB  0
072A6:  CALL   1BD4
....................             if(LEFT){ 
072AA:  BSF    F93.3
072AC:  BTFSC  F81.3
072AE:  BRA    72B6
....................                Opcion--; 
072B0:  MOVLB  3
072B2:  DECF   x90,F
072B4:  MOVLB  0
....................             } 
....................          } 
....................              
....................          if(RX_Buffer[4]==0x0d && !Op){//Tecla Derecha Oprimida 
072B6:  MOVF   34,W
072B8:  SUBLW  0D
072BA:  BNZ   72CA
072BC:  BTFSC  xC6.0
072BE:  BRA    72CA
....................             Opcion++; 
072C0:  MOVLB  3
072C2:  INCF   x90,F
....................             RX_Buffer[4]=0x00; 
072C4:  CLRF   34
....................             Op=ON; 
072C6:  MOVLB  0
072C8:  BSF    xC6.0
....................             //BorraBuffer(); 
....................          } 
....................           
....................          if(RX_Buffer[4]==0x0c && Op){//Tecla Derecha Oprimida 
072CA:  MOVF   34,W
072CC:  SUBLW  0C
072CE:  BNZ   72DE
072D0:  BTFSS  xC6.0
072D2:  BRA    72DE
....................             Opcion++; 
072D4:  MOVLB  3
072D6:  INCF   x90,F
....................             RX_Buffer[4]=0x00; 
072D8:  CLRF   34
....................             Op=OFF; 
072DA:  MOVLB  0
072DC:  BCF    xC6.0
....................             //BorraBuffer(); 
....................          } 
....................           
....................          if(RX_Buffer[4]==0x0e && !Op2){//Tecla Izquierda Oprimida 
072DE:  MOVF   34,W
072E0:  SUBLW  0E
072E2:  BNZ   72F2
072E4:  BTFSC  xC6.1
072E6:  BRA    72F2
....................             Opcion--; 
072E8:  MOVLB  3
072EA:  DECF   x90,F
....................             RX_Buffer[4]=0x00; 
072EC:  CLRF   34
....................             Op2=ON; 
072EE:  MOVLB  0
072F0:  BSF    xC6.1
....................             //BorraBuffer(); 
....................          } 
....................           
....................          if(RX_Buffer[4]==0x0f && Op2){//Tecla Izquierda Oprimida 
072F2:  MOVF   34,W
072F4:  SUBLW  0F
072F6:  BNZ   7306
072F8:  BTFSS  xC6.1
072FA:  BRA    7306
....................             Opcion--; 
072FC:  MOVLB  3
072FE:  DECF   x90,F
....................             RX_Buffer[4]=0x00; 
07300:  CLRF   34
....................             Op2=OFF; 
07302:  MOVLB  0
07304:  BCF    xC6.1
....................             //BorraBuffer(); 
....................          } 
....................    
....................          if(Opcion==15){ 
07306:  MOVLB  3
07308:  MOVF   x90,W
0730A:  SUBLW  0F
0730C:  BNZ   739E
....................             printf("bc.pic=85"); 
0730E:  MOVLW  8C
07310:  MOVWF  FF6
07312:  MOVLW  0A
07314:  MOVWF  FF7
07316:  MOVLW  00
07318:  MOVWF  FF8
0731A:  MOVLB  0
0731C:  CALL   33F8
....................             SendDataDisplay(); 
07320:  CALL   342A
....................             printf("bd.pic=57"); 
07324:  MOVLW  96
07326:  MOVWF  FF6
07328:  MOVLW  0A
0732A:  MOVWF  FF7
0732C:  MOVLW  00
0732E:  MOVWF  FF8
07330:  CALL   33F8
....................             SendDataDisplay(); 
07334:  CALL   342A
....................             printf("bi.pic=47"); 
07338:  MOVLW  A0
0733A:  MOVWF  FF6
0733C:  MOVLW  0A
0733E:  MOVWF  FF7
07340:  MOVLW  00
07342:  MOVWF  FF8
07344:  CALL   33F8
....................             SendDataDisplay(); 
07348:  CALL   342A
....................             printf("bc.pic2=85"); 
0734C:  MOVLW  AA
0734E:  MOVWF  FF6
07350:  MOVLW  0A
07352:  MOVWF  FF7
07354:  MOVLW  00
07356:  MOVWF  FF8
07358:  CALL   33F8
....................             SendDataDisplay(); 
0735C:  CALL   342A
....................             printf("bd.pic2=57"); 
07360:  MOVLW  B6
07362:  MOVWF  FF6
07364:  MOVLW  0A
07366:  MOVWF  FF7
07368:  MOVLW  00
0736A:  MOVWF  FF8
0736C:  CALL   33F8
....................             SendDataDisplay(); 
07370:  CALL   342A
....................             printf("bi.pic2=47"); 
07374:  MOVLW  C2
07376:  MOVWF  FF6
07378:  MOVLW  0A
0737A:  MOVWF  FF7
0737C:  MOVLW  00
0737E:  MOVWF  FF8
07380:  CALL   33F8
....................             SendDataDisplay(); 
07384:  CALL   342A
....................             printf("textop.txt=\"INICIAR CICLO\""); 
07388:  MOVLW  CE
0738A:  MOVWF  FF6
0738C:  MOVLW  0A
0738E:  MOVWF  FF7
07390:  MOVLW  00
07392:  MOVWF  FF8
07394:  CALL   33F8
....................             SendDataDisplay(); 
07398:  CALL   342A
0739C:  MOVLB  3
....................          } 
....................           
....................          if(Opcion==14){ 
0739E:  MOVF   x90,W
073A0:  SUBLW  0E
073A2:  BNZ   7434
....................             printf("bc.pic=90"); 
073A4:  MOVLW  EA
073A6:  MOVWF  FF6
073A8:  MOVLW  0A
073AA:  MOVWF  FF7
073AC:  MOVLW  00
073AE:  MOVWF  FF8
073B0:  MOVLB  0
073B2:  CALL   33F8
....................             SendDataDisplay(); 
073B6:  CALL   342A
....................             printf("bd.pic=41"); 
073BA:  MOVLW  F4
073BC:  MOVWF  FF6
073BE:  MOVLW  0A
073C0:  MOVWF  FF7
073C2:  MOVLW  00
073C4:  MOVWF  FF8
073C6:  CALL   33F8
....................             SendDataDisplay(); 
073CA:  CALL   342A
....................             printf("bi.pic=56"); 
073CE:  MOVLW  FE
073D0:  MOVWF  FF6
073D2:  MOVLW  0A
073D4:  MOVWF  FF7
073D6:  MOVLW  00
073D8:  MOVWF  FF8
073DA:  CALL   33F8
....................             SendDataDisplay(); 
073DE:  CALL   342A
....................             printf("bc.pic2=90"); 
073E2:  MOVLW  08
073E4:  MOVWF  FF6
073E6:  MOVLW  0B
073E8:  MOVWF  FF7
073EA:  MOVLW  00
073EC:  MOVWF  FF8
073EE:  CALL   33F8
....................             SendDataDisplay(); 
073F2:  CALL   342A
....................             printf("bd.pic2=41"); 
073F6:  MOVLW  14
073F8:  MOVWF  FF6
073FA:  MOVLW  0B
073FC:  MOVWF  FF7
073FE:  MOVLW  00
07400:  MOVWF  FF8
07402:  CALL   33F8
....................             SendDataDisplay(); 
07406:  CALL   342A
....................             printf("bi.pic2=56"); 
0740A:  MOVLW  20
0740C:  MOVWF  FF6
0740E:  MOVLW  0B
07410:  MOVWF  FF7
07412:  MOVLW  00
07414:  MOVWF  FF8
07416:  CALL   33F8
....................             SendDataDisplay(); 
0741A:  CALL   342A
....................             printf("textop.txt=\"NIVEL DESFOGUE\""); 
0741E:  MOVLW  2C
07420:  MOVWF  FF6
07422:  MOVLW  0B
07424:  MOVWF  FF7
07426:  MOVLW  00
07428:  MOVWF  FF8
0742A:  CALL   33F8
....................             SendDataDisplay(); 
0742E:  CALL   342A
07432:  MOVLB  3
....................          } 
....................           
....................          if(Opcion==13){ 
07434:  MOVF   x90,W
07436:  SUBLW  0D
07438:  BNZ   74CA
....................             printf("bc.pic=92"); 
0743A:  MOVLW  48
0743C:  MOVWF  FF6
0743E:  MOVLW  0B
07440:  MOVWF  FF7
07442:  MOVLW  00
07444:  MOVWF  FF8
07446:  MOVLB  0
07448:  CALL   33F8
....................             SendDataDisplay(); 
0744C:  CALL   342A
....................             printf("bd.pic=47"); 
07450:  MOVLW  52
07452:  MOVWF  FF6
07454:  MOVLW  0B
07456:  MOVWF  FF7
07458:  MOVLW  00
0745A:  MOVWF  FF8
0745C:  CALL   33F8
....................             SendDataDisplay(); 
07460:  CALL   342A
....................             printf("bi.pic=58"); 
07464:  MOVLW  5C
07466:  MOVWF  FF6
07468:  MOVLW  0B
0746A:  MOVWF  FF7
0746C:  MOVLW  00
0746E:  MOVWF  FF8
07470:  CALL   33F8
....................             SendDataDisplay(); 
07474:  CALL   342A
....................             printf("bc.pic2=92"); 
07478:  MOVLW  66
0747A:  MOVWF  FF6
0747C:  MOVLW  0B
0747E:  MOVWF  FF7
07480:  MOVLW  00
07482:  MOVWF  FF8
07484:  CALL   33F8
....................             SendDataDisplay(); 
07488:  CALL   342A
....................             printf("bd.pic2=47"); 
0748C:  MOVLW  72
0748E:  MOVWF  FF6
07490:  MOVLW  0B
07492:  MOVWF  FF7
07494:  MOVLW  00
07496:  MOVWF  FF8
07498:  CALL   33F8
....................             SendDataDisplay(); 
0749C:  CALL   342A
....................             printf("bi.pic2=58"); 
074A0:  MOVLW  7E
074A2:  MOVWF  FF6
074A4:  MOVLW  0B
074A6:  MOVWF  FF7
074A8:  MOVLW  00
074AA:  MOVWF  FF8
074AC:  CALL   33F8
....................             SendDataDisplay(); 
074B0:  CALL   342A
....................             printf("textop.txt=\"TEMPERATURA\""); 
074B4:  MOVLW  8A
074B6:  MOVWF  FF6
074B8:  MOVLW  0B
074BA:  MOVWF  FF7
074BC:  MOVLW  00
074BE:  MOVWF  FF8
074C0:  CALL   33F8
....................             SendDataDisplay(); 
074C4:  CALL   342A
074C8:  MOVLB  3
....................          } 
....................           
....................          if(Opcion==12){ 
074CA:  MOVF   x90,W
074CC:  SUBLW  0C
074CE:  BNZ   7560
....................             printf("bc.pic=95"); 
074D0:  MOVLW  A4
074D2:  MOVWF  FF6
074D4:  MOVLW  0B
074D6:  MOVWF  FF7
074D8:  MOVLW  00
074DA:  MOVWF  FF8
074DC:  MOVLB  0
074DE:  CALL   33F8
....................             SendDataDisplay(); 
074E2:  CALL   342A
....................             printf("bd.pic=56"); 
074E6:  MOVLW  AE
074E8:  MOVWF  FF6
074EA:  MOVLW  0B
074EC:  MOVWF  FF7
074EE:  MOVLW  00
074F0:  MOVWF  FF8
074F2:  CALL   33F8
....................             SendDataDisplay(); 
074F6:  CALL   342A
....................             printf("bi.pic=57"); 
074FA:  MOVLW  B8
074FC:  MOVWF  FF6
074FE:  MOVLW  0B
07500:  MOVWF  FF7
07502:  MOVLW  00
07504:  MOVWF  FF8
07506:  CALL   33F8
....................             SendDataDisplay(); 
0750A:  CALL   342A
....................             printf("bc.pic2=95"); 
0750E:  MOVLW  C2
07510:  MOVWF  FF6
07512:  MOVLW  0B
07514:  MOVWF  FF7
07516:  MOVLW  00
07518:  MOVWF  FF8
0751A:  CALL   33F8
....................             SendDataDisplay(); 
0751E:  CALL   342A
....................             printf("bd.pic2=56"); 
07522:  MOVLW  CE
07524:  MOVWF  FF6
07526:  MOVLW  0B
07528:  MOVWF  FF7
0752A:  MOVLW  00
0752C:  MOVWF  FF8
0752E:  CALL   33F8
....................             SendDataDisplay(); 
07532:  CALL   342A
....................             printf("bi.pic2=57"); 
07536:  MOVLW  DA
07538:  MOVWF  FF6
0753A:  MOVLW  0B
0753C:  MOVWF  FF7
0753E:  MOVLW  00
07540:  MOVWF  FF8
07542:  CALL   33F8
....................             SendDataDisplay(); 
07546:  CALL   342A
....................             printf("textop.txt=\"T. SECADO\""); 
0754A:  MOVLW  E6
0754C:  MOVWF  FF6
0754E:  MOVLW  0B
07550:  MOVWF  FF7
07552:  MOVLW  00
07554:  MOVWF  FF8
07556:  CALL   33F8
....................             SendDataDisplay(); 
0755A:  CALL   342A
0755E:  MOVLB  3
....................          } 
....................  
....................          if(Opcion==11){ 
07560:  MOVF   x90,W
07562:  SUBLW  0B
07564:  BNZ   75F6
....................             printf("bc.pic=94"); 
07566:  MOVLW  FE
07568:  MOVWF  FF6
0756A:  MOVLW  0B
0756C:  MOVWF  FF7
0756E:  MOVLW  00
07570:  MOVWF  FF8
07572:  MOVLB  0
07574:  CALL   33F8
....................             SendDataDisplay(); 
07578:  CALL   342A
....................             printf("bd.pic=58"); 
0757C:  MOVLW  08
0757E:  MOVWF  FF6
07580:  MOVLW  0C
07582:  MOVWF  FF7
07584:  MOVLW  00
07586:  MOVWF  FF8
07588:  CALL   33F8
....................             SendDataDisplay(); 
0758C:  CALL   342A
....................             printf("bi.pic=41"); 
07590:  MOVLW  12
07592:  MOVWF  FF6
07594:  MOVLW  0C
07596:  MOVWF  FF7
07598:  MOVLW  00
0759A:  MOVWF  FF8
0759C:  CALL   33F8
....................             SendDataDisplay(); 
075A0:  CALL   342A
....................             printf("bc.pic2=94"); 
075A4:  MOVLW  1C
075A6:  MOVWF  FF6
075A8:  MOVLW  0C
075AA:  MOVWF  FF7
075AC:  MOVLW  00
075AE:  MOVWF  FF8
075B0:  CALL   33F8
....................             SendDataDisplay(); 
075B4:  CALL   342A
....................             printf("bd.pic2=58"); 
075B8:  MOVLW  28
075BA:  MOVWF  FF6
075BC:  MOVLW  0C
075BE:  MOVWF  FF7
075C0:  MOVLW  00
075C2:  MOVWF  FF8
075C4:  CALL   33F8
....................             SendDataDisplay(); 
075C8:  CALL   342A
....................             printf("bi.pic2=41"); 
075CC:  MOVLW  34
075CE:  MOVWF  FF6
075D0:  MOVLW  0C
075D2:  MOVWF  FF7
075D4:  MOVLW  00
075D6:  MOVWF  FF8
075D8:  CALL   33F8
....................             SendDataDisplay(); 
075DC:  CALL   342A
....................             printf("textop.txt=\"T. ESTERILIZACIN\""); 
075E0:  MOVLW  40
075E2:  MOVWF  FF6
075E4:  MOVLW  0C
075E6:  MOVWF  FF7
075E8:  MOVLW  00
075EA:  MOVWF  FF8
075EC:  CALL   33F8
....................             SendDataDisplay(); 
075F0:  CALL   342A
075F4:  MOVLB  3
....................          } 
....................           
....................          if(RX_Buffer[4]==0x11 || DOWN){//11 Boton de regresar 
075F6:  MOVF   34,W
075F8:  SUBLW  11
075FA:  BZ    7602
075FC:  BSF    F93.5
075FE:  BTFSC  F81.5
07600:  BRA    7648
....................             delay_ms(200); 
07602:  MOVLW  C8
07604:  MOVLB  4
07606:  MOVWF  x01
07608:  MOVLB  0
0760A:  CALL   1BD4
....................             if(RX_Buffer[4]==0x11 || DOWN){ 
0760E:  MOVF   34,W
07610:  SUBLW  11
07612:  BZ    761A
07614:  BSF    F93.5
07616:  BTFSC  F81.5
07618:  BRA    764A
....................                PantallaPrincipal=0; 
0761A:  MOVLB  3
0761C:  CLRF   x19
....................                printf("page MenuPrincipal"); 
0761E:  MOVLW  60
07620:  MOVWF  FF6
07622:  MOVLW  0C
07624:  MOVWF  FF7
07626:  MOVLW  00
07628:  MOVWF  FF8
0762A:  MOVLB  0
0762C:  CALL   33F8
....................                SendDataDisplay();  
07630:  CALL   342A
....................                Op=OFF; 
07634:  BCF    xC6.0
....................                Op2=OFF; 
07636:  BCF    xC6.1
....................                MenuAnt=Menu; 
07638:  MOVFF  387,388
....................                TipoClave=1; 
0763C:  MOVLW  01
0763E:  MOVLB  3
07640:  MOVWF  x1A
....................                RX_Buffer[3]=0x00; 
07642:  CLRF   33
....................                RX_Buffer2[3]=0x00; 
07644:  CLRF   3E
....................                Opcion=0; 
07646:  CLRF   x90
07648:  MOVLB  0
....................             } 
....................          }          
....................       } 
....................          if(RIGHT && LEFT){ 
0764A:  BSF    F93.4
0764C:  BTFSC  F81.4
0764E:  BRA    7698
07650:  BSF    F93.3
07652:  BTFSC  F81.3
07654:  BRA    7698
....................             delay_ms(20); 
07656:  MOVLW  14
07658:  MOVLB  4
0765A:  MOVWF  x01
0765C:  MOVLB  0
0765E:  CALL   1BD4
....................             if(RIGHT && LEFT){ 
07662:  BSF    F93.4
07664:  BTFSC  F81.4
07666:  BRA    7698
07668:  BSF    F93.3
0766A:  BTFSC  F81.3
0766C:  BRA    7698
....................                printf("page Clave"); 
0766E:  MOVLW  74
07670:  MOVWF  FF6
07672:  MOVLW  0C
07674:  MOVWF  FF7
07676:  MOVLW  00
07678:  MOVWF  FF8
0767A:  CALL   33F8
....................                SendDataDisplay();  
0767E:  CALL   342A
....................                Op=OFF; 
07682:  BCF    xC6.0
....................                Op2=OFF; 
07684:  BCF    xC6.1
....................                MenuAnt=Menu; 
07686:  MOVFF  387,388
....................                TipoClave=1; 
0768A:  MOVLW  01
0768C:  MOVLB  3
0768E:  MOVWF  x1A
....................                RX_Buffer[3]=0x00; 
07690:  CLRF   33
....................                RX_Buffer2[3]=0x00; 
07692:  CLRF   3E
....................                Opcion=0; 
07694:  CLRF   x90
07696:  MOVLB  0
....................             } 
....................          } 
....................    } 
.................... //_--------------------------------------------------------------------------------------------------------------------------------------------------------        
....................  
.................... //_-------------------------------------------------------------------------------------------------------------------------------------------------------- 
....................     if(Menu==2){ //Menu de Tiempo Esterilizacion      
07698:  MOVLB  3
0769A:  MOVF   x87,W
0769C:  SUBLW  02
0769E:  BTFSS  FD8.2
076A0:  BRA    7AF0
....................       printf("fecha.txt=\"Fecha:%02u/%02u/20%02u    Hora: %02u:%02u\"",Dia,Mes,Year,Hora,Minuto); 
076A2:  MOVLW  80
076A4:  MOVWF  FF6
076A6:  MOVLW  0C
076A8:  MOVWF  FF7
076AA:  MOVLW  00
076AC:  MOVWF  FF8
076AE:  MOVLW  11
076B0:  MOVWF  xFA
076B2:  MOVLB  0
076B4:  CALL   45DE
076B8:  MOVFF  3C2,3F7
076BC:  MOVLW  01
076BE:  MOVLB  3
076C0:  MOVWF  xF8
076C2:  MOVLB  0
076C4:  CALL   4646
076C8:  MOVLW  2F
076CA:  BTFSS  F9E.4
076CC:  BRA    76CA
076CE:  MOVWF  FAD
076D0:  MOVFF  3C1,3F7
076D4:  MOVLW  01
076D6:  MOVLB  3
076D8:  MOVWF  xF8
076DA:  MOVLB  0
076DC:  CALL   4646
076E0:  MOVLW  2F
076E2:  BTFSS  F9E.4
076E4:  BRA    76E2
076E6:  MOVWF  FAD
076E8:  MOVLW  32
076EA:  BTFSS  F9E.4
076EC:  BRA    76EA
076EE:  MOVWF  FAD
076F0:  MOVLW  30
076F2:  BTFSS  F9E.4
076F4:  BRA    76F2
076F6:  MOVWF  FAD
076F8:  MOVFF  3C0,3F7
076FC:  MOVLW  01
076FE:  MOVLB  3
07700:  MOVWF  xF8
07702:  MOVLB  0
07704:  CALL   4646
07708:  MOVLW  A1
0770A:  MOVWF  FF6
0770C:  MOVLW  0C
0770E:  MOVWF  FF7
07710:  MOVLW  00
07712:  MOVWF  FF8
07714:  MOVLW  0A
07716:  MOVLB  3
07718:  MOVWF  xFA
0771A:  MOVLB  0
0771C:  CALL   45DE
07720:  MOVFF  3C3,3F7
07724:  MOVLW  01
07726:  MOVLB  3
07728:  MOVWF  xF8
0772A:  MOVLB  0
0772C:  CALL   4646
07730:  MOVLW  3A
07732:  BTFSS  F9E.4
07734:  BRA    7732
07736:  MOVWF  FAD
07738:  MOVFF  3C4,3F7
0773C:  MOVLW  01
0773E:  MOVLB  3
07740:  MOVWF  xF8
07742:  MOVLB  0
07744:  CALL   4646
07748:  MOVLW  22
0774A:  BTFSS  F9E.4
0774C:  BRA    774A
0774E:  MOVWF  FAD
....................       SendDataDisplay(); 
07750:  CALL   342A
....................          if(RX_Buffer[4]==0x0a){//Selecciono Minutos 
07754:  MOVF   34,W
07756:  SUBLW  0A
07758:  BNZ   775E
....................             Minutos=ON; 
0775A:  BSF    xC6.2
....................             Segundos=OFF; 
0775C:  BCF    xC6.3
....................          } 
....................           
....................          if(RX_Buffer[4]==0x0b){//Selecciono Segundos 
0775E:  MOVF   34,W
07760:  SUBLW  0B
07762:  BNZ   7768
....................             Segundos=ON; 
07764:  BSF    xC6.3
....................             Minutos=OFF; 
07766:  BCF    xC6.2
....................          } 
....................           
....................          if(RX_Buffer[4]==0x11 || LEFT){//Selecciono Regresar 
07768:  MOVF   34,W
0776A:  SUBLW  11
0776C:  BZ    7774
0776E:  BSF    F93.3
07770:  BTFSC  F81.3
07772:  BRA    7894
....................             Segundos=OFF; 
07774:  BCF    xC6.3
....................             Minutos=OFF; 
07776:  BCF    xC6.2
....................             printf("page MenuPrincipal"); 
07778:  MOVLW  B6
0777A:  MOVWF  FF6
0777C:  MOVLW  0C
0777E:  MOVWF  FF7
07780:  MOVLW  00
07782:  MOVWF  FF8
07784:  CALL   33F8
....................             SendDataDisplay();   
07788:  CALL   342A
....................             PantallaPrincipal=1; 
0778C:  MOVLW  01
0778E:  MOVLB  3
07790:  MOVWF  x19
....................             Op=OFF; 
07792:  MOVLB  0
07794:  BCF    xC6.0
....................             Op2=OFF; 
07796:  BCF    xC6.1
....................             if(!GuardaEEPROM){ 
07798:  BTFSC  xC6.4
0779A:  BRA    7894
....................                write_eeprom(0,Testerilizacionp[0]);delay_ms(20);write_eeprom(1,Testerilizacionp[1]);delay_ms(20); 
0779C:  CLRF   FAA
0779E:  CLRF   FA9
077A0:  MOVFF  D6,FA8
077A4:  BCF    FA6.6
077A6:  BCF    FA6.7
077A8:  BSF    FA6.2
077AA:  MOVF   FF2,W
077AC:  MOVWF  00
077AE:  BCF    FF2.6
077B0:  BCF    FF2.7
077B2:  MOVLB  F
077B4:  MOVLW  55
077B6:  MOVWF  FA7
077B8:  MOVLW  AA
077BA:  MOVWF  FA7
077BC:  BSF    FA6.1
077BE:  BTFSC  FA6.1
077C0:  BRA    77BE
077C2:  BCF    FA6.2
077C4:  MOVF   00,W
077C6:  IORWF  FF2,F
077C8:  MOVLW  14
077CA:  MOVLB  4
077CC:  MOVWF  x01
077CE:  MOVLB  0
077D0:  CALL   1BD4
077D4:  CLRF   FAA
077D6:  MOVLW  01
077D8:  MOVWF  FA9
077DA:  MOVFF  D7,FA8
077DE:  BCF    FA6.6
077E0:  BCF    FA6.7
077E2:  BSF    FA6.2
077E4:  MOVF   FF2,W
077E6:  MOVWF  00
077E8:  BCF    FF2.6
077EA:  BCF    FF2.7
077EC:  MOVLB  F
077EE:  MOVLW  55
077F0:  MOVWF  FA7
077F2:  MOVLW  AA
077F4:  MOVWF  FA7
077F6:  BSF    FA6.1
077F8:  BTFSC  FA6.1
077FA:  BRA    77F8
077FC:  BCF    FA6.2
077FE:  MOVF   00,W
07800:  IORWF  FF2,F
07802:  MOVLW  14
07804:  MOVLB  4
07806:  MOVWF  x01
07808:  MOVLB  0
0780A:  CALL   1BD4
....................                write_eeprom(2,Testerilizacionp[2]);delay_ms(20);write_eeprom(3,Testerilizacionp[3]);delay_ms(20); 
0780E:  CLRF   FAA
07810:  MOVLW  02
07812:  MOVWF  FA9
07814:  MOVFF  D8,FA8
07818:  BCF    FA6.6
0781A:  BCF    FA6.7
0781C:  BSF    FA6.2
0781E:  MOVF   FF2,W
07820:  MOVWF  00
07822:  BCF    FF2.6
07824:  BCF    FF2.7
07826:  MOVLB  F
07828:  MOVLW  55
0782A:  MOVWF  FA7
0782C:  MOVLW  AA
0782E:  MOVWF  FA7
07830:  BSF    FA6.1
07832:  BTFSC  FA6.1
07834:  BRA    7832
07836:  BCF    FA6.2
07838:  MOVF   00,W
0783A:  IORWF  FF2,F
0783C:  MOVLW  14
0783E:  MOVLB  4
07840:  MOVWF  x01
07842:  MOVLB  0
07844:  CALL   1BD4
07848:  CLRF   FAA
0784A:  MOVLW  03
0784C:  MOVWF  FA9
0784E:  MOVFF  D9,FA8
07852:  BCF    FA6.6
07854:  BCF    FA6.7
07856:  BSF    FA6.2
07858:  MOVF   FF2,W
0785A:  MOVWF  00
0785C:  BCF    FF2.6
0785E:  BCF    FF2.7
07860:  MOVLB  F
07862:  MOVLW  55
07864:  MOVWF  FA7
07866:  MOVLW  AA
07868:  MOVWF  FA7
0786A:  BSF    FA6.1
0786C:  BTFSC  FA6.1
0786E:  BRA    786C
07870:  BCF    FA6.2
07872:  MOVF   00,W
07874:  IORWF  FF2,F
07876:  MOVLW  14
07878:  MOVLB  4
0787A:  MOVWF  x01
0787C:  MOVLB  0
0787E:  CALL   1BD4
....................                Testerilizacion[0]=Testerilizacionp[0]; 
07882:  MOVFF  D6,D2
....................                Testerilizacion[1]=Testerilizacionp[1]; 
07886:  MOVFF  D7,D3
....................                Testerilizacion[2]=Testerilizacionp[2]; 
0788A:  MOVFF  D8,D4
....................                Testerilizacion[3]=Testerilizacionp[3]; 
0788E:  MOVFF  D9,D5
....................                GuardaEEPROM=ON; 
07892:  BSF    xC6.4
....................             } 
....................          } 
....................           
....................          if(RIGHT){ 
07894:  BSF    F93.4
07896:  BTFSC  F81.4
07898:  BRA    790E
....................             delay_ms(200); 
0789A:  MOVLW  C8
0789C:  MOVLB  4
0789E:  MOVWF  x01
078A0:  MOVLB  0
078A2:  CALL   1BD4
....................             if(RIGHT){ 
078A6:  BSF    F93.4
078A8:  BTFSC  F81.4
078AA:  BRA    790E
....................                if(!Segundos){ 
078AC:  BTFSC  xC6.3
078AE:  BRA    78DE
....................                   Segundos=ON; 
078B0:  BSF    xC6.3
....................                   Minutos=OFF; 
078B2:  BCF    xC6.2
....................                   printf("tsecest.pco=65535"); 
078B4:  MOVLW  CA
078B6:  MOVWF  FF6
078B8:  MOVLW  0C
078BA:  MOVWF  FF7
078BC:  MOVLW  00
078BE:  MOVWF  FF8
078C0:  CALL   33F8
....................                   SendDataDisplay();   
078C4:  CALL   342A
....................                   printf("tminest.pco=0"); 
078C8:  MOVLW  DC
078CA:  MOVWF  FF6
078CC:  MOVLW  0C
078CE:  MOVWF  FF7
078D0:  MOVLW  00
078D2:  MOVWF  FF8
078D4:  CALL   33F8
....................                   SendDataDisplay();   
078D8:  CALL   342A
....................                }else if(!Minutos){ 
078DC:  BRA    790E
078DE:  BTFSC  xC6.2
078E0:  BRA    790E
....................                   Segundos=OFF; 
078E2:  BCF    xC6.3
....................                   Minutos=ON; 
078E4:  BSF    xC6.2
....................                   printf("tsecest.pco=0"); 
078E6:  MOVLW  EA
078E8:  MOVWF  FF6
078EA:  MOVLW  0C
078EC:  MOVWF  FF7
078EE:  MOVLW  00
078F0:  MOVWF  FF8
078F2:  CALL   33F8
....................                   SendDataDisplay();   
078F6:  CALL   342A
....................                   printf("tminest.pco=65535"); 
078FA:  MOVLW  F8
078FC:  MOVWF  FF6
078FE:  MOVLW  0C
07900:  MOVWF  FF7
07902:  MOVLW  00
07904:  MOVWF  FF8
07906:  CALL   33F8
....................                   SendDataDisplay();   
0790A:  CALL   342A
....................                } 
....................             } 
....................          } 
....................           
....................          if(UP){ 
0790E:  BSF    F93.6
07910:  BTFSC  F81.6
07912:  BRA    794E
....................             delay_ms(200); 
07914:  MOVLW  C8
07916:  MOVLB  4
07918:  MOVWF  x01
0791A:  MOVLB  0
0791C:  CALL   1BD4
....................             if(UP){ 
07920:  BSF    F93.6
07922:  BTFSC  F81.6
07924:  BRA    794E
....................                if(Segundos){ 
07926:  BTFSS  xC6.3
07928:  BRA    793A
....................                   Testerilizacionp[0]++; 
0792A:  INCF   xD6,F
....................                   if(Testerilizacionp[0]>9){ 
0792C:  BTFSC  xD6.7
0792E:  BRA    793A
07930:  MOVF   xD6,W
07932:  SUBLW  09
07934:  BC    793A
....................                      Testerilizacionp[1]++; 
07936:  INCF   xD7,F
....................                      Testerilizacionp[0]=0; 
07938:  CLRF   xD6
....................                   } 
....................                } 
....................                if(Minutos){ 
0793A:  BTFSS  xC6.2
0793C:  BRA    794E
....................                   Testerilizacionp[2]++; 
0793E:  INCF   xD8,F
....................                   if(Testerilizacionp[2]>9){ 
07940:  BTFSC  xD8.7
07942:  BRA    794E
07944:  MOVF   xD8,W
07946:  SUBLW  09
07948:  BC    794E
....................                      Testerilizacionp[3]++; 
0794A:  INCF   xD9,F
....................                      Testerilizacionp[2]=0; 
0794C:  CLRF   xD8
....................                   } 
....................                }     
....................             } 
....................          } 
....................           
....................          if(DOWN){ 
0794E:  BSF    F93.5
07950:  BTFSC  F81.5
07952:  BRA    798A
....................             delay_ms(200); 
07954:  MOVLW  C8
07956:  MOVLB  4
07958:  MOVWF  x01
0795A:  MOVLB  0
0795C:  CALL   1BD4
....................             if(DOWN){ 
07960:  BSF    F93.5
07962:  BTFSC  F81.5
07964:  BRA    798A
....................                if(Segundos){ 
07966:  BTFSS  xC6.3
07968:  BRA    7978
....................                   Testerilizacionp[0]--; 
0796A:  DECF   xD6,F
....................                   if(Testerilizacionp[0]<0){ 
0796C:  BTFSC  xD6.7
0796E:  BRA    7972
07970:  BRA    7978
....................                      Testerilizacionp[1]--; 
07972:  DECF   xD7,F
....................                      Testerilizacionp[0]=9; 
07974:  MOVLW  09
07976:  MOVWF  xD6
....................                   } 
....................                } 
....................                if(Minutos){ 
07978:  BTFSS  xC6.2
0797A:  BRA    798A
....................                   Testerilizacionp[2]--; 
0797C:  DECF   xD8,F
....................                   if(Testerilizacionp[2]<0){ 
0797E:  BTFSC  xD8.7
07980:  BRA    7984
07982:  BRA    798A
....................                      Testerilizacionp[3]--; 
07984:  DECF   xD9,F
....................                      Testerilizacionp[2]=9; 
07986:  MOVLW  09
07988:  MOVWF  xD8
....................                   } 
....................                }     
....................             } 
....................          } 
....................           
....................          if(RX_Buffer[4]==0x0d && !Op){//Tecla Arriba Oprimida 
0798A:  MOVF   34,W
0798C:  SUBLW  0D
0798E:  BNZ   79C0
07990:  BTFSC  xC6.0
07992:  BRA    79C0
....................             if(Segundos){ 
07994:  BTFSS  xC6.3
07996:  BRA    79A8
....................                Testerilizacionp[0]++; 
07998:  INCF   xD6,F
....................                if(Testerilizacionp[0]>9){ 
0799A:  BTFSC  xD6.7
0799C:  BRA    79A8
0799E:  MOVF   xD6,W
079A0:  SUBLW  09
079A2:  BC    79A8
....................                   Testerilizacionp[1]++; 
079A4:  INCF   xD7,F
....................                   Testerilizacionp[0]=0; 
079A6:  CLRF   xD6
....................                } 
....................             } 
....................             if(Minutos){ 
079A8:  BTFSS  xC6.2
079AA:  BRA    79BC
....................                Testerilizacionp[2]++; 
079AC:  INCF   xD8,F
....................                if(Testerilizacionp[2]>9){ 
079AE:  BTFSC  xD8.7
079B0:  BRA    79BC
079B2:  MOVF   xD8,W
079B4:  SUBLW  09
079B6:  BC    79BC
....................                   Testerilizacionp[3]++; 
079B8:  INCF   xD9,F
....................                   Testerilizacionp[2]=0; 
079BA:  CLRF   xD8
....................                } 
....................             } 
....................             RX_Buffer[4]=0x00; 
079BC:  CLRF   34
....................             Op=ON; 
079BE:  BSF    xC6.0
....................             //BorraBuffer(); 
....................          } 
....................           
....................          if(RX_Buffer[4]==0x0c && Op){//Tecla Derecha Oprimida 
079C0:  MOVF   34,W
079C2:  SUBLW  0C
079C4:  BNZ   79F6
079C6:  BTFSS  xC6.0
079C8:  BRA    79F6
....................             if(Segundos){ 
079CA:  BTFSS  xC6.3
079CC:  BRA    79DE
....................                Testerilizacionp[0]++; 
079CE:  INCF   xD6,F
....................                if(Testerilizacionp[0]>9){ 
079D0:  BTFSC  xD6.7
079D2:  BRA    79DE
079D4:  MOVF   xD6,W
079D6:  SUBLW  09
079D8:  BC    79DE
....................                   Testerilizacionp[1]++; 
079DA:  INCF   xD7,F
....................                   Testerilizacionp[0]=0; 
079DC:  CLRF   xD6
....................                } 
....................             } 
....................             if(Minutos){ 
079DE:  BTFSS  xC6.2
079E0:  BRA    79F2
....................                Testerilizacionp[2]++; 
079E2:  INCF   xD8,F
....................                if(Testerilizacionp[2]>9){ 
079E4:  BTFSC  xD8.7
079E6:  BRA    79F2
079E8:  MOVF   xD8,W
079EA:  SUBLW  09
079EC:  BC    79F2
....................                   Testerilizacionp[3]++; 
079EE:  INCF   xD9,F
....................                   Testerilizacionp[2]=0; 
079F0:  CLRF   xD8
....................                } 
....................             } 
....................             RX_Buffer[4]=0x00; 
079F2:  CLRF   34
....................             Op=OFF; 
079F4:  BCF    xC6.0
....................             //BorraBuffer(); 
....................          } 
....................           
....................          if(RX_Buffer[4]==0x0e && !Op2){//Tecla Izquierda Oprimida 
079F6:  MOVF   34,W
079F8:  SUBLW  0E
079FA:  BNZ   7A28
079FC:  BTFSC  xC6.1
079FE:  BRA    7A28
....................             if(Segundos){ 
07A00:  BTFSS  xC6.3
07A02:  BRA    7A12
....................                Testerilizacionp[0]--; 
07A04:  DECF   xD6,F
....................                if(Testerilizacionp[0]<0){ 
07A06:  BTFSC  xD6.7
07A08:  BRA    7A0C
07A0A:  BRA    7A12
....................                   Testerilizacionp[1]--; 
07A0C:  DECF   xD7,F
....................                   Testerilizacionp[0]=9; 
07A0E:  MOVLW  09
07A10:  MOVWF  xD6
....................                } 
....................             } 
....................             if(Minutos){ 
07A12:  BTFSS  xC6.2
07A14:  BRA    7A24
....................                Testerilizacionp[2]--; 
07A16:  DECF   xD8,F
....................                if(Testerilizacionp[2]<0){ 
07A18:  BTFSC  xD8.7
07A1A:  BRA    7A1E
07A1C:  BRA    7A24
....................                   Testerilizacionp[3]--; 
07A1E:  DECF   xD9,F
....................                   Testerilizacionp[2]=9; 
07A20:  MOVLW  09
07A22:  MOVWF  xD8
....................                } 
....................             } 
....................             RX_Buffer[4]=0x00; 
07A24:  CLRF   34
....................             Op2=ON; 
07A26:  BSF    xC6.1
....................             //BorraBuffer(); 
....................          } 
....................           
....................          if(RX_Buffer[4]==0x0f && Op2){//Tecla Izquierda Oprimida 
07A28:  MOVF   34,W
07A2A:  SUBLW  0F
07A2C:  BNZ   7A5A
07A2E:  BTFSS  xC6.1
07A30:  BRA    7A5A
....................              
....................             if(Segundos){ 
07A32:  BTFSS  xC6.3
07A34:  BRA    7A44
....................                Testerilizacionp[0]--; 
07A36:  DECF   xD6,F
....................                if(Testerilizacionp[0]<0){ 
07A38:  BTFSC  xD6.7
07A3A:  BRA    7A3E
07A3C:  BRA    7A44
....................                   Testerilizacionp[1]--; 
07A3E:  DECF   xD7,F
....................                   Testerilizacionp[0]=9; 
07A40:  MOVLW  09
07A42:  MOVWF  xD6
....................                } 
....................             } 
....................             if(Minutos){ 
07A44:  BTFSS  xC6.2
07A46:  BRA    7A56
....................                Testerilizacionp[2]--; 
07A48:  DECF   xD8,F
....................                if(Testerilizacionp[2]<0){ 
07A4A:  BTFSC  xD8.7
07A4C:  BRA    7A50
07A4E:  BRA    7A56
....................                   Testerilizacionp[3]--; 
07A50:  DECF   xD9,F
....................                   Testerilizacionp[2]=9; 
07A52:  MOVLW  09
07A54:  MOVWF  xD8
....................                } 
....................             } 
....................             RX_Buffer[4]=0x00; 
07A56:  CLRF   34
....................             Op2=OFF; 
07A58:  BCF    xC6.1
....................             //BorraBuffer(); 
....................          } 
....................          printf("tminest.txt=\"%02u\"",((Testerilizacionp[3]*10)+Testerilizacionp[2])); 
07A5A:  MOVFF  D9,3F6
07A5E:  MOVLW  0A
07A60:  MOVLB  3
07A62:  MOVWF  xF7
07A64:  MOVLB  0
07A66:  CALL   298A
07A6A:  MOVF   xD8,W
07A6C:  ADDWF  01,W
07A6E:  MOVLB  3
07A70:  MOVWF  xF6
07A72:  MOVLW  0A
07A74:  MOVWF  FF6
07A76:  MOVLW  0D
07A78:  MOVWF  FF7
07A7A:  MOVLW  00
07A7C:  MOVWF  FF8
07A7E:  MOVLW  0D
07A80:  MOVWF  xFA
07A82:  MOVLB  0
07A84:  CALL   45DE
07A88:  MOVFF  3F6,3F7
07A8C:  MOVLW  01
07A8E:  MOVLB  3
07A90:  MOVWF  xF8
07A92:  MOVLB  0
07A94:  CALL   4646
07A98:  MOVLW  22
07A9A:  BTFSS  F9E.4
07A9C:  BRA    7A9A
07A9E:  MOVWF  FAD
....................          SendDataDisplay(); 
07AA0:  CALL   342A
....................          printf("tsecest.txt=\"%02u\"",((Testerilizacionp[1]*10)+Testerilizacionp[0])); 
07AA4:  MOVFF  D7,3F6
07AA8:  MOVLW  0A
07AAA:  MOVLB  3
07AAC:  MOVWF  xF7
07AAE:  MOVLB  0
07AB0:  CALL   298A
07AB4:  MOVF   xD6,W
07AB6:  ADDWF  01,W
07AB8:  MOVLB  3
07ABA:  MOVWF  xF6
07ABC:  MOVLW  1E
07ABE:  MOVWF  FF6
07AC0:  MOVLW  0D
07AC2:  MOVWF  FF7
07AC4:  MOVLW  00
07AC6:  MOVWF  FF8
07AC8:  MOVLW  0D
07ACA:  MOVWF  xFA
07ACC:  MOVLB  0
07ACE:  CALL   45DE
07AD2:  MOVFF  3F6,3F7
07AD6:  MOVLW  01
07AD8:  MOVLB  3
07ADA:  MOVWF  xF8
07ADC:  MOVLB  0
07ADE:  CALL   4646
07AE2:  MOVLW  22
07AE4:  BTFSS  F9E.4
07AE6:  BRA    7AE4
07AE8:  MOVWF  FAD
....................          SendDataDisplay(); 
07AEA:  CALL   342A
07AEE:  MOVLB  3
....................     } 
.................... //_--------------------------------------------------------------------------------------------------------------------------------------------------------        
....................  
.................... //_-------------------------------------------------------------------------------------------------------------------------------------------------------- 
....................     if(Menu==3){ //Menu de Tiempo de Secado 
07AF0:  MOVF   x87,W
07AF2:  SUBLW  03
07AF4:  BTFSS  FD8.2
07AF6:  BRA    7F46
....................       printf("fecha.txt=\"Fecha:%02u/%02u/20%02u    Hora: %02u:%02u\"",Dia,Mes,Year,Hora,Minuto); 
07AF8:  MOVLW  32
07AFA:  MOVWF  FF6
07AFC:  MOVLW  0D
07AFE:  MOVWF  FF7
07B00:  MOVLW  00
07B02:  MOVWF  FF8
07B04:  MOVLW  11
07B06:  MOVWF  xFA
07B08:  MOVLB  0
07B0A:  CALL   45DE
07B0E:  MOVFF  3C2,3F7
07B12:  MOVLW  01
07B14:  MOVLB  3
07B16:  MOVWF  xF8
07B18:  MOVLB  0
07B1A:  CALL   4646
07B1E:  MOVLW  2F
07B20:  BTFSS  F9E.4
07B22:  BRA    7B20
07B24:  MOVWF  FAD
07B26:  MOVFF  3C1,3F7
07B2A:  MOVLW  01
07B2C:  MOVLB  3
07B2E:  MOVWF  xF8
07B30:  MOVLB  0
07B32:  CALL   4646
07B36:  MOVLW  2F
07B38:  BTFSS  F9E.4
07B3A:  BRA    7B38
07B3C:  MOVWF  FAD
07B3E:  MOVLW  32
07B40:  BTFSS  F9E.4
07B42:  BRA    7B40
07B44:  MOVWF  FAD
07B46:  MOVLW  30
07B48:  BTFSS  F9E.4
07B4A:  BRA    7B48
07B4C:  MOVWF  FAD
07B4E:  MOVFF  3C0,3F7
07B52:  MOVLW  01
07B54:  MOVLB  3
07B56:  MOVWF  xF8
07B58:  MOVLB  0
07B5A:  CALL   4646
07B5E:  MOVLW  53
07B60:  MOVWF  FF6
07B62:  MOVLW  0D
07B64:  MOVWF  FF7
07B66:  MOVLW  00
07B68:  MOVWF  FF8
07B6A:  MOVLW  0A
07B6C:  MOVLB  3
07B6E:  MOVWF  xFA
07B70:  MOVLB  0
07B72:  CALL   45DE
07B76:  MOVFF  3C3,3F7
07B7A:  MOVLW  01
07B7C:  MOVLB  3
07B7E:  MOVWF  xF8
07B80:  MOVLB  0
07B82:  CALL   4646
07B86:  MOVLW  3A
07B88:  BTFSS  F9E.4
07B8A:  BRA    7B88
07B8C:  MOVWF  FAD
07B8E:  MOVFF  3C4,3F7
07B92:  MOVLW  01
07B94:  MOVLB  3
07B96:  MOVWF  xF8
07B98:  MOVLB  0
07B9A:  CALL   4646
07B9E:  MOVLW  22
07BA0:  BTFSS  F9E.4
07BA2:  BRA    7BA0
07BA4:  MOVWF  FAD
....................       SendDataDisplay(); 
07BA6:  CALL   342A
....................          if(RX_Buffer[4]==0x0a){//Selecciono Minutos 
07BAA:  MOVF   34,W
07BAC:  SUBLW  0A
07BAE:  BNZ   7BB4
....................             Minutos=ON; 
07BB0:  BSF    xC6.2
....................             Segundos=OFF; 
07BB2:  BCF    xC6.3
....................          } 
....................           
....................          if(RX_Buffer[4]==0x0b){//Selecciono Segundos 
07BB4:  MOVF   34,W
07BB6:  SUBLW  0B
07BB8:  BNZ   7BBE
....................             Segundos=ON; 
07BBA:  BSF    xC6.3
....................             Minutos=OFF; 
07BBC:  BCF    xC6.2
....................          } 
....................           
....................          if(RX_Buffer[4]==0x11 || LEFT){//Selecciono Regresar 
07BBE:  MOVF   34,W
07BC0:  SUBLW  11
07BC2:  BZ    7BCA
07BC4:  BSF    F93.3
07BC6:  BTFSC  F81.3
07BC8:  BRA    7CEC
....................             Segundos=OFF; 
07BCA:  BCF    xC6.3
....................             Minutos=OFF; 
07BCC:  BCF    xC6.2
....................             printf("page MenuPrincipal"); 
07BCE:  MOVLW  68
07BD0:  MOVWF  FF6
07BD2:  MOVLW  0D
07BD4:  MOVWF  FF7
07BD6:  MOVLW  00
07BD8:  MOVWF  FF8
07BDA:  CALL   33F8
....................             SendDataDisplay();   
07BDE:  CALL   342A
....................             PantallaPrincipal=1; 
07BE2:  MOVLW  01
07BE4:  MOVLB  3
07BE6:  MOVWF  x19
....................             Op=OFF; 
07BE8:  MOVLB  0
07BEA:  BCF    xC6.0
....................             Op2=OFF; 
07BEC:  BCF    xC6.1
....................             if(!GuardaEEPROM){ 
07BEE:  BTFSC  xC6.4
07BF0:  BRA    7CEC
....................                write_eeprom(4,Tsecadop[0]);delay_ms(10);write_eeprom(5,Tsecadop[1]);delay_ms(10); 
07BF2:  CLRF   FAA
07BF4:  MOVLW  04
07BF6:  MOVWF  FA9
07BF8:  MOVFF  DE,FA8
07BFC:  BCF    FA6.6
07BFE:  BCF    FA6.7
07C00:  BSF    FA6.2
07C02:  MOVF   FF2,W
07C04:  MOVWF  00
07C06:  BCF    FF2.6
07C08:  BCF    FF2.7
07C0A:  MOVLB  F
07C0C:  MOVLW  55
07C0E:  MOVWF  FA7
07C10:  MOVLW  AA
07C12:  MOVWF  FA7
07C14:  BSF    FA6.1
07C16:  BTFSC  FA6.1
07C18:  BRA    7C16
07C1A:  BCF    FA6.2
07C1C:  MOVF   00,W
07C1E:  IORWF  FF2,F
07C20:  MOVLW  0A
07C22:  MOVLB  4
07C24:  MOVWF  x01
07C26:  MOVLB  0
07C28:  CALL   1BD4
07C2C:  CLRF   FAA
07C2E:  MOVLW  05
07C30:  MOVWF  FA9
07C32:  MOVFF  DF,FA8
07C36:  BCF    FA6.6
07C38:  BCF    FA6.7
07C3A:  BSF    FA6.2
07C3C:  MOVF   FF2,W
07C3E:  MOVWF  00
07C40:  BCF    FF2.6
07C42:  BCF    FF2.7
07C44:  MOVLB  F
07C46:  MOVLW  55
07C48:  MOVWF  FA7
07C4A:  MOVLW  AA
07C4C:  MOVWF  FA7
07C4E:  BSF    FA6.1
07C50:  BTFSC  FA6.1
07C52:  BRA    7C50
07C54:  BCF    FA6.2
07C56:  MOVF   00,W
07C58:  IORWF  FF2,F
07C5A:  MOVLW  0A
07C5C:  MOVLB  4
07C5E:  MOVWF  x01
07C60:  MOVLB  0
07C62:  CALL   1BD4
....................                write_eeprom(6,Tsecadop[2]);delay_ms(10);write_eeprom(7,Tsecadop[3]);delay_ms(10); 
07C66:  CLRF   FAA
07C68:  MOVLW  06
07C6A:  MOVWF  FA9
07C6C:  MOVFF  E0,FA8
07C70:  BCF    FA6.6
07C72:  BCF    FA6.7
07C74:  BSF    FA6.2
07C76:  MOVF   FF2,W
07C78:  MOVWF  00
07C7A:  BCF    FF2.6
07C7C:  BCF    FF2.7
07C7E:  MOVLB  F
07C80:  MOVLW  55
07C82:  MOVWF  FA7
07C84:  MOVLW  AA
07C86:  MOVWF  FA7
07C88:  BSF    FA6.1
07C8A:  BTFSC  FA6.1
07C8C:  BRA    7C8A
07C8E:  BCF    FA6.2
07C90:  MOVF   00,W
07C92:  IORWF  FF2,F
07C94:  MOVLW  0A
07C96:  MOVLB  4
07C98:  MOVWF  x01
07C9A:  MOVLB  0
07C9C:  CALL   1BD4
07CA0:  CLRF   FAA
07CA2:  MOVLW  07
07CA4:  MOVWF  FA9
07CA6:  MOVFF  E1,FA8
07CAA:  BCF    FA6.6
07CAC:  BCF    FA6.7
07CAE:  BSF    FA6.2
07CB0:  MOVF   FF2,W
07CB2:  MOVWF  00
07CB4:  BCF    FF2.6
07CB6:  BCF    FF2.7
07CB8:  MOVLB  F
07CBA:  MOVLW  55
07CBC:  MOVWF  FA7
07CBE:  MOVLW  AA
07CC0:  MOVWF  FA7
07CC2:  BSF    FA6.1
07CC4:  BTFSC  FA6.1
07CC6:  BRA    7CC4
07CC8:  BCF    FA6.2
07CCA:  MOVF   00,W
07CCC:  IORWF  FF2,F
07CCE:  MOVLW  0A
07CD0:  MOVLB  4
07CD2:  MOVWF  x01
07CD4:  MOVLB  0
07CD6:  CALL   1BD4
....................                Tsecado[0]=Tsecadop[0]; 
07CDA:  MOVFF  DE,DA
....................                Tsecado[1]=Tsecadop[1]; 
07CDE:  MOVFF  DF,DB
....................                Tsecado[2]=Tsecadop[2]; 
07CE2:  MOVFF  E0,DC
....................                Tsecado[3]=Tsecadop[3]; 
07CE6:  MOVFF  E1,DD
....................                GuardaEEPROM=ON; 
07CEA:  BSF    xC6.4
....................             } 
....................          } 
....................           
....................          if(RIGHT){ 
07CEC:  BSF    F93.4
07CEE:  BTFSC  F81.4
07CF0:  BRA    7D66
....................             delay_ms(200); 
07CF2:  MOVLW  C8
07CF4:  MOVLB  4
07CF6:  MOVWF  x01
07CF8:  MOVLB  0
07CFA:  CALL   1BD4
....................             if(RIGHT){ 
07CFE:  BSF    F93.4
07D00:  BTFSC  F81.4
07D02:  BRA    7D66
....................                if(!Segundos){ 
07D04:  BTFSC  xC6.3
07D06:  BRA    7D36
....................                   Segundos=ON; 
07D08:  BSF    xC6.3
....................                   Minutos=OFF; 
07D0A:  BCF    xC6.2
....................                   printf("tminsec.pco=0"); 
07D0C:  MOVLW  7C
07D0E:  MOVWF  FF6
07D10:  MOVLW  0D
07D12:  MOVWF  FF7
07D14:  MOVLW  00
07D16:  MOVWF  FF8
07D18:  CALL   33F8
....................                   SendDataDisplay();                    
07D1C:  CALL   342A
....................                   printf("tsecsec.pco=65535"); 
07D20:  MOVLW  8A
07D22:  MOVWF  FF6
07D24:  MOVLW  0D
07D26:  MOVWF  FF7
07D28:  MOVLW  00
07D2A:  MOVWF  FF8
07D2C:  CALL   33F8
....................                   SendDataDisplay();   
07D30:  CALL   342A
....................                }else if(!Minutos){ 
07D34:  BRA    7D66
07D36:  BTFSC  xC6.2
07D38:  BRA    7D66
....................                   Segundos=OFF; 
07D3A:  BCF    xC6.3
....................                   Minutos=ON; 
07D3C:  BSF    xC6.2
....................                   printf("tminsec.pco=65535"); 
07D3E:  MOVLW  9C
07D40:  MOVWF  FF6
07D42:  MOVLW  0D
07D44:  MOVWF  FF7
07D46:  MOVLW  00
07D48:  MOVWF  FF8
07D4A:  CALL   33F8
....................                   SendDataDisplay();   
07D4E:  CALL   342A
....................                   printf("tsecsec.pco=0"); 
07D52:  MOVLW  AE
07D54:  MOVWF  FF6
07D56:  MOVLW  0D
07D58:  MOVWF  FF7
07D5A:  MOVLW  00
07D5C:  MOVWF  FF8
07D5E:  CALL   33F8
....................                   SendDataDisplay();   
07D62:  CALL   342A
....................                } 
....................             } 
....................          } 
....................           
....................          if(UP){ 
07D66:  BSF    F93.6
07D68:  BTFSC  F81.6
07D6A:  BRA    7DA6
....................             delay_ms(200); 
07D6C:  MOVLW  C8
07D6E:  MOVLB  4
07D70:  MOVWF  x01
07D72:  MOVLB  0
07D74:  CALL   1BD4
....................             if(UP){ 
07D78:  BSF    F93.6
07D7A:  BTFSC  F81.6
07D7C:  BRA    7DA6
....................                if(Segundos){ 
07D7E:  BTFSS  xC6.3
07D80:  BRA    7D92
....................                   Tsecadop[0]++; 
07D82:  INCF   xDE,F
....................                   if(Tsecadop[0]>9){ 
07D84:  BTFSC  xDE.7
07D86:  BRA    7D92
07D88:  MOVF   xDE,W
07D8A:  SUBLW  09
07D8C:  BC    7D92
....................                      Tsecadop[1]++; 
07D8E:  INCF   xDF,F
....................                      Tsecadop[0]=0; 
07D90:  CLRF   xDE
....................                   } 
....................                } 
....................                if(Minutos){ 
07D92:  BTFSS  xC6.2
07D94:  BRA    7DA6
....................                   Tsecado[2]++; 
07D96:  INCF   xDC,F
....................                   if(Tsecadop[2]>9){ 
07D98:  BTFSC  xE0.7
07D9A:  BRA    7DA6
07D9C:  MOVF   xE0,W
07D9E:  SUBLW  09
07DA0:  BC    7DA6
....................                      Tsecadop[3]++; 
07DA2:  INCF   xE1,F
....................                      Tsecadop[2]=0; 
07DA4:  CLRF   xE0
....................                   } 
....................                }   
....................             } 
....................          } 
....................           
....................          if(DOWN){ 
07DA6:  BSF    F93.5
07DA8:  BTFSC  F81.5
07DAA:  BRA    7DE2
....................             delay_ms(200); 
07DAC:  MOVLW  C8
07DAE:  MOVLB  4
07DB0:  MOVWF  x01
07DB2:  MOVLB  0
07DB4:  CALL   1BD4
....................             if(DOWN){ 
07DB8:  BSF    F93.5
07DBA:  BTFSC  F81.5
07DBC:  BRA    7DE2
....................                if(Segundos){ 
07DBE:  BTFSS  xC6.3
07DC0:  BRA    7DD0
....................                   Tsecadop[0]--; 
07DC2:  DECF   xDE,F
....................                   if(Tsecadop[0]<0){ 
07DC4:  BTFSC  xDE.7
07DC6:  BRA    7DCA
07DC8:  BRA    7DD0
....................                      Tsecadop[1]--; 
07DCA:  DECF   xDF,F
....................                      Tsecadop[0]=9; 
07DCC:  MOVLW  09
07DCE:  MOVWF  xDE
....................                   } 
....................                } 
....................                if(Minutos){ 
07DD0:  BTFSS  xC6.2
07DD2:  BRA    7DE2
....................                   Tsecadop[2]--; 
07DD4:  DECF   xE0,F
....................                   if(Tsecadop[2]<0){ 
07DD6:  BTFSC  xE0.7
07DD8:  BRA    7DDC
07DDA:  BRA    7DE2
....................                      Tsecadop[3]--; 
07DDC:  DECF   xE1,F
....................                      Tsecadop[2]=9; 
07DDE:  MOVLW  09
07DE0:  MOVWF  xE0
....................                   } 
....................                }   
....................             } 
....................          } 
....................           
....................          if(RX_Buffer[4]==0x0d && !Op){//Tecla Arriba Oprimida 
07DE2:  MOVF   34,W
07DE4:  SUBLW  0D
07DE6:  BNZ   7E18
07DE8:  BTFSC  xC6.0
07DEA:  BRA    7E18
....................             if(Segundos){ 
07DEC:  BTFSS  xC6.3
07DEE:  BRA    7E00
....................                Tsecadop[0]++; 
07DF0:  INCF   xDE,F
....................                if(Tsecadop[0]>9){ 
07DF2:  BTFSC  xDE.7
07DF4:  BRA    7E00
07DF6:  MOVF   xDE,W
07DF8:  SUBLW  09
07DFA:  BC    7E00
....................                   Tsecadop[1]++; 
07DFC:  INCF   xDF,F
....................                   Tsecadop[0]=0; 
07DFE:  CLRF   xDE
....................                } 
....................             } 
....................             if(Minutos){ 
07E00:  BTFSS  xC6.2
07E02:  BRA    7E14
....................                Tsecado[2]++; 
07E04:  INCF   xDC,F
....................                if(Tsecadop[2]>9){ 
07E06:  BTFSC  xE0.7
07E08:  BRA    7E14
07E0A:  MOVF   xE0,W
07E0C:  SUBLW  09
07E0E:  BC    7E14
....................                   Tsecadop[3]++; 
07E10:  INCF   xE1,F
....................                   Tsecadop[2]=0; 
07E12:  CLRF   xE0
....................                } 
....................             } 
....................             RX_Buffer[4]=0x00; 
07E14:  CLRF   34
....................             Op=ON; 
07E16:  BSF    xC6.0
....................             //BorraBuffer(); 
....................          } 
....................           
....................          if(RX_Buffer[4]==0x0c && Op){//Tecla Derecha Oprimida 
07E18:  MOVF   34,W
07E1A:  SUBLW  0C
07E1C:  BNZ   7E4E
07E1E:  BTFSS  xC6.0
07E20:  BRA    7E4E
....................             if(Segundos){ 
07E22:  BTFSS  xC6.3
07E24:  BRA    7E36
....................                Tsecadop[0]++; 
07E26:  INCF   xDE,F
....................                if(Tsecadop[0]>9){ 
07E28:  BTFSC  xDE.7
07E2A:  BRA    7E36
07E2C:  MOVF   xDE,W
07E2E:  SUBLW  09
07E30:  BC    7E36
....................                   Tsecadop[1]++; 
07E32:  INCF   xDF,F
....................                   Tsecadop[0]=0; 
07E34:  CLRF   xDE
....................                } 
....................             } 
....................             if(Minutos){ 
07E36:  BTFSS  xC6.2
07E38:  BRA    7E4A
....................                Tsecadop[2]++; 
07E3A:  INCF   xE0,F
....................                if(Tsecadop[2]>9){ 
07E3C:  BTFSC  xE0.7
07E3E:  BRA    7E4A
07E40:  MOVF   xE0,W
07E42:  SUBLW  09
07E44:  BC    7E4A
....................                   Tsecadop[3]++; 
07E46:  INCF   xE1,F
....................                   Tsecadop[2]=0; 
07E48:  CLRF   xE0
....................                } 
....................             } 
....................             RX_Buffer[4]=0x00; 
07E4A:  CLRF   34
....................             Op=OFF; 
07E4C:  BCF    xC6.0
....................             //BorraBuffer(); 
....................          } 
....................           
....................          if(RX_Buffer[4]==0x0e && !Op2){//Tecla Izquierda Oprimida 
07E4E:  MOVF   34,W
07E50:  SUBLW  0E
07E52:  BNZ   7E7E
07E54:  BTFSC  xC6.1
07E56:  BRA    7E7E
....................             if(Segundos){ 
07E58:  BTFSS  xC6.3
07E5A:  BRA    7E6A
....................                Tsecadop[0]--; 
07E5C:  DECF   xDE,F
....................                if(Tsecadop[0]<0){ 
07E5E:  BTFSC  xDE.7
07E60:  BRA    7E64
07E62:  BRA    7E6A
....................                   Tsecadop[1]--; 
07E64:  DECF   xDF,F
....................                   Tsecadop[0]=9; 
07E66:  MOVLW  09
07E68:  MOVWF  xDE
....................                } 
....................             } 
....................             if(Minutos){ 
07E6A:  BTFSS  xC6.2
07E6C:  BRA    7E7A
....................                Tsecadop[2]--; 
07E6E:  DECF   xE0,F
....................                if(Tsecadop[2]<0){ 
07E70:  BTFSS  xE0.7
07E72:  BRA    7E7A
....................                   Tsecadop[3]--; 
07E74:  DECF   xE1,F
....................                   Tsecadop[2]=9; 
07E76:  MOVLW  09
07E78:  MOVWF  xE0
....................                } 
....................             } 
....................             RX_Buffer[4]=0x00; 
07E7A:  CLRF   34
....................             Op2=ON; 
07E7C:  BSF    xC6.1
....................             //BorraBuffer(); 
....................          } 
....................           
....................          if(RX_Buffer[4]==0x0f && Op2){//Tecla Izquierda Oprimida 
07E7E:  MOVF   34,W
07E80:  SUBLW  0F
07E82:  BNZ   7EB0
07E84:  BTFSS  xC6.1
07E86:  BRA    7EB0
....................             if(Segundos){ 
07E88:  BTFSS  xC6.3
07E8A:  BRA    7E9A
....................                Tsecadop[0]--; 
07E8C:  DECF   xDE,F
....................                if(Tsecadop[0]<0){ 
07E8E:  BTFSC  xDE.7
07E90:  BRA    7E94
07E92:  BRA    7E9A
....................                   Tsecadop[1]--; 
07E94:  DECF   xDF,F
....................                   Tsecadop[0]=9; 
07E96:  MOVLW  09
07E98:  MOVWF  xDE
....................                } 
....................             } 
....................             if(Minutos){ 
07E9A:  BTFSS  xC6.2
07E9C:  BRA    7EAC
....................                Tsecadop[2]--; 
07E9E:  DECF   xE0,F
....................                if(Tsecadop[2]<0){ 
07EA0:  BTFSC  xE0.7
07EA2:  BRA    7EA6
07EA4:  BRA    7EAC
....................                   Tsecadop[3]--; 
07EA6:  DECF   xE1,F
....................                   Tsecadop[2]=9; 
07EA8:  MOVLW  09
07EAA:  MOVWF  xE0
....................                } 
....................             } 
....................             RX_Buffer[4]=0x00; 
07EAC:  CLRF   34
....................             Op2=OFF; 
07EAE:  BCF    xC6.1
....................             //BorraBuffer(); 
....................          } 
....................       printf("tminsec.txt=\"%02u\"",((Tsecadop[3]*10)+Tsecadop[2])); 
07EB0:  MOVFF  E1,3F6
07EB4:  MOVLW  0A
07EB6:  MOVLB  3
07EB8:  MOVWF  xF7
07EBA:  MOVLB  0
07EBC:  CALL   298A
07EC0:  MOVF   xE0,W
07EC2:  ADDWF  01,W
07EC4:  MOVLB  3
07EC6:  MOVWF  xF6
07EC8:  MOVLW  BC
07ECA:  MOVWF  FF6
07ECC:  MOVLW  0D
07ECE:  MOVWF  FF7
07ED0:  MOVLW  00
07ED2:  MOVWF  FF8
07ED4:  MOVLW  0D
07ED6:  MOVWF  xFA
07ED8:  MOVLB  0
07EDA:  CALL   45DE
07EDE:  MOVFF  3F6,3F7
07EE2:  MOVLW  01
07EE4:  MOVLB  3
07EE6:  MOVWF  xF8
07EE8:  MOVLB  0
07EEA:  CALL   4646
07EEE:  MOVLW  22
07EF0:  BTFSS  F9E.4
07EF2:  BRA    7EF0
07EF4:  MOVWF  FAD
....................       SendDataDisplay(); 
07EF6:  CALL   342A
....................       printf("tsecsec.txt=\"%02u\"",((Tsecadop[1]*10)+Tsecadop[0])); 
07EFA:  MOVFF  DF,3F6
07EFE:  MOVLW  0A
07F00:  MOVLB  3
07F02:  MOVWF  xF7
07F04:  MOVLB  0
07F06:  CALL   298A
07F0A:  MOVF   xDE,W
07F0C:  ADDWF  01,W
07F0E:  MOVLB  3
07F10:  MOVWF  xF6
07F12:  MOVLW  D0
07F14:  MOVWF  FF6
07F16:  MOVLW  0D
07F18:  MOVWF  FF7
07F1A:  MOVLW  00
07F1C:  MOVWF  FF8
07F1E:  MOVLW  0D
07F20:  MOVWF  xFA
07F22:  MOVLB  0
07F24:  CALL   45DE
07F28:  MOVFF  3F6,3F7
07F2C:  MOVLW  01
07F2E:  MOVLB  3
07F30:  MOVWF  xF8
07F32:  MOVLB  0
07F34:  CALL   4646
07F38:  MOVLW  22
07F3A:  BTFSS  F9E.4
07F3C:  BRA    7F3A
07F3E:  MOVWF  FAD
....................       SendDataDisplay(); 
07F40:  CALL   342A
07F44:  MOVLB  3
....................     } 
.................... //_--------------------------------------------------------------------------------------------------------------------------------------------------------        
....................  
.................... //_-------------------------------------------------------------------------------------------------------------------------------------------------------- 
....................     if(Menu==4){ //Menu de Temperatura 
07F46:  MOVF   x87,W
07F48:  SUBLW  04
07F4A:  BTFSS  FD8.2
07F4C:  BRA    811C
....................       printf("fecha.txt=\"Fecha:%02u/%02u/20%02u    Hora: %02u:%02u\"",Dia,Mes,Year,Hora,Minuto); 
07F4E:  MOVLW  E4
07F50:  MOVWF  FF6
07F52:  MOVLW  0D
07F54:  MOVWF  FF7
07F56:  MOVLW  00
07F58:  MOVWF  FF8
07F5A:  MOVLW  11
07F5C:  MOVWF  xFA
07F5E:  MOVLB  0
07F60:  CALL   45DE
07F64:  MOVFF  3C2,3F7
07F68:  MOVLW  01
07F6A:  MOVLB  3
07F6C:  MOVWF  xF8
07F6E:  MOVLB  0
07F70:  CALL   4646
07F74:  MOVLW  2F
07F76:  BTFSS  F9E.4
07F78:  BRA    7F76
07F7A:  MOVWF  FAD
07F7C:  MOVFF  3C1,3F7
07F80:  MOVLW  01
07F82:  MOVLB  3
07F84:  MOVWF  xF8
07F86:  MOVLB  0
07F88:  CALL   4646
07F8C:  MOVLW  2F
07F8E:  BTFSS  F9E.4
07F90:  BRA    7F8E
07F92:  MOVWF  FAD
07F94:  MOVLW  32
07F96:  BTFSS  F9E.4
07F98:  BRA    7F96
07F9A:  MOVWF  FAD
07F9C:  MOVLW  30
07F9E:  BTFSS  F9E.4
07FA0:  BRA    7F9E
07FA2:  MOVWF  FAD
07FA4:  MOVFF  3C0,3F7
07FA8:  MOVLW  01
07FAA:  MOVLB  3
07FAC:  MOVWF  xF8
07FAE:  MOVLB  0
07FB0:  CALL   4646
07FB4:  MOVLW  05
07FB6:  MOVWF  FF6
07FB8:  MOVLW  0E
07FBA:  MOVWF  FF7
07FBC:  MOVLW  00
07FBE:  MOVWF  FF8
07FC0:  MOVLW  0A
07FC2:  MOVLB  3
07FC4:  MOVWF  xFA
07FC6:  MOVLB  0
07FC8:  CALL   45DE
07FCC:  MOVFF  3C3,3F7
07FD0:  MOVLW  01
07FD2:  MOVLB  3
07FD4:  MOVWF  xF8
07FD6:  MOVLB  0
07FD8:  CALL   4646
07FDC:  MOVLW  3A
07FDE:  BTFSS  F9E.4
07FE0:  BRA    7FDE
07FE2:  MOVWF  FAD
07FE4:  MOVFF  3C4,3F7
07FE8:  MOVLW  01
07FEA:  MOVLB  3
07FEC:  MOVWF  xF8
07FEE:  MOVLB  0
07FF0:  CALL   4646
07FF4:  MOVLW  22
07FF6:  BTFSS  F9E.4
07FF8:  BRA    7FF6
07FFA:  MOVWF  FAD
....................       SendDataDisplay(); 
07FFC:  CALL   342A
....................          if(Setpoint<105) 
08000:  MOVLB  3
08002:  MOVF   x8F,W
08004:  SUBLW  68
08006:  BNC   800C
....................             Setpoint=134; 
08008:  MOVLW  86
0800A:  MOVWF  x8F
....................          if(Setpoint>134) 
0800C:  MOVF   x8F,W
0800E:  SUBLW  86
08010:  BC    8016
....................             Setpoint=105; 
08012:  MOVLW  69
08014:  MOVWF  x8F
....................           
....................          if(RX_Buffer[4]==0x11 || LEFT){//Selecciono Regresar 
08016:  MOVF   34,W
08018:  SUBLW  11
0801A:  BZ    8022
0801C:  BSF    F93.3
0801E:  BTFSC  F81.3
08020:  BRA    808A
....................             Segundos=OFF; 
08022:  MOVLB  0
08024:  BCF    xC6.3
....................             Minutos=OFF; 
08026:  BCF    xC6.2
....................             printf("page MenuPrincipal"); 
08028:  MOVLW  1A
0802A:  MOVWF  FF6
0802C:  MOVLW  0E
0802E:  MOVWF  FF7
08030:  MOVLW  00
08032:  MOVWF  FF8
08034:  CALL   33F8
....................             SendDataDisplay();   
08038:  CALL   342A
....................             PantallaPrincipal=1; 
0803C:  MOVLW  01
0803E:  MOVLB  3
08040:  MOVWF  x19
....................             Op=OFF; 
08042:  MOVLB  0
08044:  BCF    xC6.0
....................             Op2=OFF; 
08046:  BCF    xC6.1
....................             if(!GuardaEEPROM){ 
08048:  BTFSC  xC6.4
0804A:  BRA    8088
....................                write_eeprom(8,Setpoint); 
0804C:  CLRF   FAA
0804E:  MOVLW  08
08050:  MOVWF  FA9
08052:  MOVFF  38F,FA8
08056:  BCF    FA6.6
08058:  BCF    FA6.7
0805A:  BSF    FA6.2
0805C:  MOVF   FF2,W
0805E:  MOVWF  00
08060:  BCF    FF2.6
08062:  BCF    FF2.7
08064:  MOVLB  F
08066:  MOVLW  55
08068:  MOVWF  FA7
0806A:  MOVLW  AA
0806C:  MOVWF  FA7
0806E:  BSF    FA6.1
08070:  BTFSC  FA6.1
08072:  BRA    8070
08074:  BCF    FA6.2
08076:  MOVF   00,W
08078:  IORWF  FF2,F
....................                delay_ms(10); 
0807A:  MOVLW  0A
0807C:  MOVLB  4
0807E:  MOVWF  x01
08080:  MOVLB  0
08082:  CALL   1BD4
....................                GuardaEEPROM=ON; 
08086:  BSF    xC6.4
08088:  MOVLB  3
....................             } 
....................          } 
....................           
....................          if(UP){ 
0808A:  BSF    F93.6
0808C:  BTFSC  F81.6
0808E:  BRA    80A6
....................             delay_ms(200); 
08090:  MOVLW  C8
08092:  MOVLB  4
08094:  MOVWF  x01
08096:  MOVLB  0
08098:  CALL   1BD4
....................             if(UP){ 
0809C:  BSF    F93.6
0809E:  BTFSC  F81.6
080A0:  BRA    80A8
....................                Setpoint++; 
080A2:  MOVLB  3
080A4:  INCF   x8F,F
080A6:  MOVLB  0
....................             } 
....................          } 
....................           
....................          if(DOWN){ 
080A8:  BSF    F93.5
080AA:  BTFSC  F81.5
080AC:  BRA    80C6
....................             delay_ms(200); 
080AE:  MOVLW  C8
080B0:  MOVLB  4
080B2:  MOVWF  x01
080B4:  MOVLB  0
080B6:  CALL   1BD4
....................             if(DOWN){ 
080BA:  BSF    F93.5
080BC:  BTFSC  F81.5
080BE:  BRA    80C6
....................                Setpoint--; 
080C0:  MOVLB  3
080C2:  DECF   x8F,F
080C4:  MOVLB  0
....................             } 
....................          } 
....................           
....................          if(RX_Buffer[4]==0x0d){//Tecla Arriba Oprimida 
080C6:  MOVF   34,W
080C8:  SUBLW  0D
080CA:  BNZ   80D6
....................             Setpoint++; 
080CC:  MOVLB  3
080CE:  INCF   x8F,F
....................             RX_Buffer[4]=0x00;   
080D0:  CLRF   34
....................             RX_Buffer2[4]=0x00;             
080D2:  CLRF   3F
080D4:  MOVLB  0
....................             //BorraBuffer(); 
....................          } 
....................           
....................          if(RX_Buffer[4]==0x0c){//Tecla Abajo Oprimida 
080D6:  MOVF   34,W
080D8:  SUBLW  0C
080DA:  BNZ   80E6
....................             Setpoint--; 
080DC:  MOVLB  3
080DE:  DECF   x8F,F
....................             RX_Buffer[4]=0x00; 
080E0:  CLRF   34
....................             RX_Buffer2[4]=0x00;             
080E2:  CLRF   3F
080E4:  MOVLB  0
....................             //BorraBuffer(); 
....................          } 
....................           
....................       printf("tsettem.txt=\"%03u\"",Setpoint); 
080E6:  MOVLW  2E
080E8:  MOVWF  FF6
080EA:  MOVLW  0E
080EC:  MOVWF  FF7
080EE:  MOVLW  00
080F0:  MOVWF  FF8
080F2:  MOVLW  0D
080F4:  MOVLB  3
080F6:  MOVWF  xFA
080F8:  MOVLB  0
080FA:  CALL   45DE
080FE:  MOVFF  38F,3F7
08102:  MOVLW  03
08104:  MOVLB  3
08106:  MOVWF  xF8
08108:  MOVLB  0
0810A:  CALL   4646
0810E:  MOVLW  22
08110:  BTFSS  F9E.4
08112:  BRA    8110
08114:  MOVWF  FAD
....................       SendDataDisplay(); 
08116:  CALL   342A
0811A:  MOVLB  3
....................     } 
.................... //_--------------------------------------------------------------------------------------------------------------------------------------------------------        
....................  
.................... //_--------------------------------------------------------------------------------------------------------------------------------------------------------       
....................    if(Menu==5){//Menu de Nivel 
0811C:  MOVF   x87,W
0811E:  SUBLW  05
08120:  BTFSS  FD8.2
08122:  BRA    8366
....................       printf("fecha.txt=\"Fecha:%02u/%02u/20%02u    Hora: %02u:%02u\"",Dia,Mes,Year,Hora,Minuto); 
08124:  MOVLW  42
08126:  MOVWF  FF6
08128:  MOVLW  0E
0812A:  MOVWF  FF7
0812C:  MOVLW  00
0812E:  MOVWF  FF8
08130:  MOVLW  11
08132:  MOVWF  xFA
08134:  MOVLB  0
08136:  CALL   45DE
0813A:  MOVFF  3C2,3F7
0813E:  MOVLW  01
08140:  MOVLB  3
08142:  MOVWF  xF8
08144:  MOVLB  0
08146:  CALL   4646
0814A:  MOVLW  2F
0814C:  BTFSS  F9E.4
0814E:  BRA    814C
08150:  MOVWF  FAD
08152:  MOVFF  3C1,3F7
08156:  MOVLW  01
08158:  MOVLB  3
0815A:  MOVWF  xF8
0815C:  MOVLB  0
0815E:  CALL   4646
08162:  MOVLW  2F
08164:  BTFSS  F9E.4
08166:  BRA    8164
08168:  MOVWF  FAD
0816A:  MOVLW  32
0816C:  BTFSS  F9E.4
0816E:  BRA    816C
08170:  MOVWF  FAD
08172:  MOVLW  30
08174:  BTFSS  F9E.4
08176:  BRA    8174
08178:  MOVWF  FAD
0817A:  MOVFF  3C0,3F7
0817E:  MOVLW  01
08180:  MOVLB  3
08182:  MOVWF  xF8
08184:  MOVLB  0
08186:  CALL   4646
0818A:  MOVLW  63
0818C:  MOVWF  FF6
0818E:  MOVLW  0E
08190:  MOVWF  FF7
08192:  MOVLW  00
08194:  MOVWF  FF8
08196:  MOVLW  0A
08198:  MOVLB  3
0819A:  MOVWF  xFA
0819C:  MOVLB  0
0819E:  CALL   45DE
081A2:  MOVFF  3C3,3F7
081A6:  MOVLW  01
081A8:  MOVLB  3
081AA:  MOVWF  xF8
081AC:  MOVLB  0
081AE:  CALL   4646
081B2:  MOVLW  3A
081B4:  BTFSS  F9E.4
081B6:  BRA    81B4
081B8:  MOVWF  FAD
081BA:  MOVFF  3C4,3F7
081BE:  MOVLW  01
081C0:  MOVLB  3
081C2:  MOVWF  xF8
081C4:  MOVLB  0
081C6:  CALL   4646
081CA:  MOVLW  22
081CC:  BTFSS  F9E.4
081CE:  BRA    81CC
081D0:  MOVWF  FAD
....................       SendDataDisplay(); 
081D2:  CALL   342A
....................          if(Nivel<1) 
081D6:  MOVLB  3
081D8:  MOVF   x9D,F
081DA:  BNZ   81E6
081DC:  MOVF   x9E,F
081DE:  BNZ   81E6
....................             Nivel=6; 
081E0:  CLRF   x9E
081E2:  MOVLW  06
081E4:  MOVWF  x9D
....................          if(Nivel>6) 
081E6:  MOVF   x9E,F
081E8:  BNZ   81F0
081EA:  MOVF   x9D,W
081EC:  SUBLW  06
081EE:  BC    81F6
....................             Nivel=1; 
081F0:  CLRF   x9E
081F2:  MOVLW  01
081F4:  MOVWF  x9D
....................           
....................          if(RX_Buffer[4]==0x11 || LEFT){//Selecciono Regresar 
081F6:  MOVF   34,W
081F8:  SUBLW  11
081FA:  BZ    8202
081FC:  BSF    F93.3
081FE:  BTFSC  F81.3
08200:  BRA    82C0
....................             Segundos=OFF; 
08202:  MOVLB  0
08204:  BCF    xC6.3
....................             Minutos=OFF;             
08206:  BCF    xC6.2
....................             tiempo_secado=0; 
08208:  MOVLB  3
0820A:  CLRF   x93
....................             if(Nivel<6) 
0820C:  MOVF   x9E,F
0820E:  BNZ   821A
08210:  MOVF   x9D,W
08212:  SUBLW  05
08214:  BNC   821A
....................                desfoguelento=1; 
08216:  BSF    x7B.1
....................             else             
08218:  BRA    821C
....................                desfoguelento=0; 
0821A:  BCF    x7B.1
....................             if(!GuardaEEPROM){     
0821C:  MOVLB  0
0821E:  BTFSC  xC6.4
08220:  BRA    827E
....................                write_eeprom(9,Nivel); 
08222:  CLRF   FAA
08224:  MOVLW  09
08226:  MOVWF  FA9
08228:  MOVFF  39D,FA8
0822C:  BCF    FA6.6
0822E:  BCF    FA6.7
08230:  BSF    FA6.2
08232:  MOVF   FF2,W
08234:  MOVWF  00
08236:  BCF    FF2.6
08238:  BCF    FF2.7
0823A:  MOVLB  F
0823C:  MOVLW  55
0823E:  MOVWF  FA7
08240:  MOVLW  AA
08242:  MOVWF  FA7
08244:  BSF    FA6.1
08246:  BTFSC  FA6.1
08248:  BRA    8246
0824A:  BCF    FA6.2
0824C:  MOVF   00,W
0824E:  IORWF  FF2,F
....................                delay_ms(20);             
08250:  MOVLW  14
08252:  MOVLB  4
08254:  MOVWF  x01
08256:  MOVLB  0
08258:  CALL   1BD4
....................                NivelSeleccionado=9990*Nivel; 
0825C:  MOVLW  27
0825E:  MOVLB  3
08260:  MOVWF  xF8
08262:  MOVLW  06
08264:  MOVWF  xF7
08266:  MOVFF  39E,3FA
0826A:  MOVFF  39D,3F9
0826E:  MOVLB  0
08270:  CALL   35D0
08274:  MOVFF  02,3A8
08278:  MOVFF  01,3A7
....................                GuardaEEPROM=ON; 
0827C:  BSF    xC6.4
....................             } 
....................             if(MenuAnt==1){ 
0827E:  MOVLB  3
08280:  DECFSZ x88,W
08282:  BRA    82A2
....................                //Buzzer_on; 
....................                printf("page MenuPrincipal"); 
08284:  MOVLW  78
08286:  MOVWF  FF6
08288:  MOVLW  0E
0828A:  MOVWF  FF7
0828C:  MOVLW  00
0828E:  MOVWF  FF8
08290:  MOVLB  0
08292:  CALL   33F8
....................                SendDataDisplay();  
08296:  CALL   342A
....................                PantallaPrincipal=1; 
0829A:  MOVLW  01
0829C:  MOVLB  3
0829E:  MOVWF  x19
....................             }else if(MenuAnt==2){ 
082A0:  BRA    82C0
082A2:  MOVF   x88,W
082A4:  SUBLW  02
082A6:  BNZ   82C0
....................                printf("page Funcionamiento"); 
082A8:  MOVLW  8C
082AA:  MOVWF  FF6
082AC:  MOVLW  0E
082AE:  MOVWF  FF7
082B0:  MOVLW  00
082B2:  MOVWF  FF8
082B4:  MOVLB  0
082B6:  CALL   33F8
....................                SendDataDisplay();  
082BA:  CALL   342A
082BE:  MOVLB  3
....................                //if(Temperatura>60)TTrampa=TTrampa+5; 
....................             } 
....................          } 
....................           
....................          if(UP){ 
082C0:  BSF    F93.6
082C2:  BTFSC  F81.6
082C4:  BRA    82E0
....................             delay_ms(200); 
082C6:  MOVLW  C8
082C8:  MOVLB  4
082CA:  MOVWF  x01
082CC:  MOVLB  0
082CE:  CALL   1BD4
....................             if(UP){ 
082D2:  BSF    F93.6
082D4:  BTFSC  F81.6
082D6:  BRA    82E2
....................                Nivel++; 
082D8:  MOVLB  3
082DA:  INCF   x9D,F
082DC:  BTFSC  FD8.2
082DE:  INCF   x9E,F
082E0:  MOVLB  0
....................             } 
....................          } 
....................           
....................          if(DOWN){ 
082E2:  BSF    F93.5
082E4:  BTFSC  F81.5
082E6:  BRA    8306
....................             delay_ms(200); 
082E8:  MOVLW  C8
082EA:  MOVLB  4
082EC:  MOVWF  x01
082EE:  MOVLB  0
082F0:  CALL   1BD4
....................             if(DOWN){ 
082F4:  BSF    F93.5
082F6:  BTFSC  F81.5
082F8:  BRA    8306
....................                Nivel--; 
082FA:  MOVLB  3
082FC:  MOVF   x9D,W
082FE:  BTFSC  FD8.2
08300:  DECF   x9E,F
08302:  DECF   x9D,F
08304:  MOVLB  0
....................             } 
....................          } 
....................           
....................          if(RX_Buffer[4]==0x0d){//Tecla Arriba Oprimida 
08306:  MOVF   34,W
08308:  SUBLW  0D
0830A:  BNZ   831A
....................             Nivel++; 
0830C:  MOVLB  3
0830E:  INCF   x9D,F
08310:  BTFSC  FD8.2
08312:  INCF   x9E,F
....................             RX_Buffer[4]=0x00;             
08314:  CLRF   34
....................             RX_Buffer2[4]=0x00;             
08316:  CLRF   3F
08318:  MOVLB  0
....................             //BorraBuffer(); 
....................          } 
....................           
....................          if(RX_Buffer[4]==0x0c){//Tecla Abajo Oprimida 
0831A:  MOVF   34,W
0831C:  SUBLW  0C
0831E:  BNZ   8330
....................             Nivel--; 
08320:  MOVLB  3
08322:  MOVF   x9D,W
08324:  BTFSC  FD8.2
08326:  DECF   x9E,F
08328:  DECF   x9D,F
....................             RX_Buffer[4]=0x00; 
0832A:  CLRF   34
....................             RX_Buffer2[4]=0x00;             
0832C:  CLRF   3F
0832E:  MOVLB  0
....................             //BorraBuffer(); 
....................          } 
....................           
....................       printf("tnivel.txt=\"%Lu\"",Nivel); 
08330:  MOVLW  A0
08332:  MOVWF  FF6
08334:  MOVLW  0E
08336:  MOVWF  FF7
08338:  MOVLW  00
0833A:  MOVWF  FF8
0833C:  MOVLW  0C
0833E:  MOVLB  3
08340:  MOVWF  xFA
08342:  MOVLB  0
08344:  CALL   45DE
08348:  MOVLW  10
0834A:  MOVWF  FE9
0834C:  MOVFF  39E,3F7
08350:  MOVFF  39D,3F6
08354:  CALL   473C
08358:  MOVLW  22
0835A:  BTFSS  F9E.4
0835C:  BRA    835A
0835E:  MOVWF  FAD
....................       SendDataDisplay(); 
08360:  CALL   342A
08364:  MOVLB  3
....................    } 
.................... //_--------------------------------------------------------------------------------------------------------------------------------------------------------       
....................  
.................... //_--------------------------------------------------------------------------------------------------------------------------------------------------------       
....................       if(Menu==6){ // Menu de Prueba de Componentes 
08366:  MOVF   x87,W
08368:  SUBLW  06
0836A:  BTFSS  FD8.2
0836C:  BRA    8A04
....................          PruebaEstados=ON; 
0836E:  MOVLB  0
08370:  BSF    xC5.2
....................           
....................          if(RX_Buffer[4]==0x01)//Oprimio EV Desfogue 
08372:  DECFSZ 34,W
08374:  BRA    837C
....................          { 
....................             EstadoDesfogue=!EstadoDesfogue; 
08376:  BTG    xC4.7
....................             RX_Buffer[4]=0x00; 
08378:  CLRF   34
....................             RX_Buffer2[4]=0x00; 
0837A:  CLRF   3F
....................          } 
....................           
....................          if(EstadoDesfogue){ 
0837C:  BTFSS  xC4.7
0837E:  BRA    839A
....................             printf("b0.bco=2016"); 
08380:  MOVLW  B2
08382:  MOVWF  FF6
08384:  MOVLW  0E
08386:  MOVWF  FF7
08388:  MOVLW  00
0838A:  MOVWF  FF8
0838C:  CALL   33F8
....................             SendDataDisplay();  
08390:  CALL   342A
....................             Desfogue_on; 
08394:  BCF    F8C.2
08396:  BCF    F95.2
....................          } 
....................          else{ 
08398:  BRA    83B2
....................             printf("b0.bco=63488"); 
0839A:  MOVLW  BE
0839C:  MOVWF  FF6
0839E:  MOVLW  0E
083A0:  MOVWF  FF7
083A2:  MOVLW  00
083A4:  MOVWF  FF8
083A6:  CALL   33F8
....................             SendDataDisplay();  
083AA:  CALL   342A
....................             Desfogue_off; 
083AE:  BSF    F8C.2
083B0:  BCF    F95.2
....................          } 
....................           
....................          if(RX_Buffer[4]==0x02)//Oprimio EV Agua 
083B2:  MOVF   34,W
083B4:  SUBLW  02
083B6:  BNZ   83BE
....................          { 
....................             EstadoAgua=!EstadoAgua; 
083B8:  BTG    xC5.0
....................             RX_Buffer[4]=0x00; 
083BA:  CLRF   34
....................             RX_Buffer2[4]=0x00; 
083BC:  CLRF   3F
....................          } 
....................           
....................          if(EstadoAgua){ 
083BE:  BTFSS  xC5.0
083C0:  BRA    83DC
....................             printf("b1.bco=2016"); 
083C2:  MOVLW  CC
083C4:  MOVWF  FF6
083C6:  MOVLW  0E
083C8:  MOVWF  FF7
083CA:  MOVLW  00
083CC:  MOVWF  FF8
083CE:  CALL   33F8
....................             SendDataDisplay();  
083D2:  CALL   342A
....................             AguaIn_on; 
083D6:  BCF    F8C.4
083D8:  BCF    F95.4
....................          } 
....................          else{ 
083DA:  BRA    83F4
....................             printf("b1.bco=63488"); 
083DC:  MOVLW  D8
083DE:  MOVWF  FF6
083E0:  MOVLW  0E
083E2:  MOVWF  FF7
083E4:  MOVLW  00
083E6:  MOVWF  FF8
083E8:  CALL   33F8
....................             SendDataDisplay();  
083EC:  CALL   342A
....................             AguaIn_off; 
083F0:  BSF    F8C.4
083F2:  BCF    F95.4
....................          } 
....................           
....................          if(RX_Buffer[4]==0x03)//Oprimio EV Paso 
083F4:  MOVF   34,W
083F6:  SUBLW  03
083F8:  BNZ   8400
....................          { 
....................             EstadoPaso=!EstadoPaso; 
083FA:  BTG    xC6.5
....................             RX_Buffer[4]=0x00; 
083FC:  CLRF   34
....................             RX_Buffer2[4]=0x00; 
083FE:  CLRF   3F
....................          } 
....................           
....................          if(EstadoPaso){ 
08400:  BTFSS  xC6.5
08402:  BRA    841E
....................             printf("b2.bco=2016"); 
08404:  MOVLW  E6
08406:  MOVWF  FF6
08408:  MOVLW  0E
0840A:  MOVWF  FF7
0840C:  MOVLW  00
0840E:  MOVWF  FF8
08410:  CALL   33F8
....................             SendDataDisplay();  
08414:  CALL   342A
....................             Paso_on; 
08418:  BCF    F8C.3
0841A:  BCF    F95.3
....................          } 
....................          else{ 
0841C:  BRA    8436
....................             printf("b2.bco=63488"); 
0841E:  MOVLW  F2
08420:  MOVWF  FF6
08422:  MOVLW  0E
08424:  MOVWF  FF7
08426:  MOVLW  00
08428:  MOVWF  FF8
0842A:  CALL   33F8
....................             SendDataDisplay();  
0842E:  CALL   342A
....................             Paso_off; 
08432:  BSF    F8C.3
08434:  BCF    F95.3
....................          } 
....................          
....................          if(RX_Buffer[4]==0x05)//Oprimio Bloqueo 
08436:  MOVF   34,W
08438:  SUBLW  05
0843A:  BNZ   8442
....................          { 
....................             EstadoBloqueo=!EstadoBloqueo; 
0843C:  BTG    xC6.6
....................             RX_Buffer[4]=0x00; 
0843E:  CLRF   34
....................             RX_Buffer2[4]=0x00; 
08440:  CLRF   3F
....................          } 
....................           
....................          if(EstadoBloqueo){ 
08442:  BTFSS  xC6.6
08444:  BRA    8460
....................             printf("b4.bco=2016"); 
08446:  MOVLW  00
08448:  MOVWF  FF6
0844A:  MOVLW  0F
0844C:  MOVWF  FF7
0844E:  MOVLW  00
08450:  MOVWF  FF8
08452:  CALL   33F8
....................             SendDataDisplay();  
08456:  CALL   342A
....................             Solenoide_on; 
0845A:  BSF    F8C.0
0845C:  BCF    F95.0
....................          } 
....................          else{ 
0845E:  BRA    8478
....................             printf("b4.bco=63488"); 
08460:  MOVLW  0C
08462:  MOVWF  FF6
08464:  MOVLW  0F
08466:  MOVWF  FF7
08468:  MOVLW  00
0846A:  MOVWF  FF8
0846C:  CALL   33F8
....................             SendDataDisplay();  
08470:  CALL   342A
....................             Solenoide_off; 
08474:  BCF    F8C.0
08476:  BCF    F95.0
....................          } 
....................           
....................          if(RX_Buffer[4]==0x07)//Oprimio SSR1 
08478:  MOVF   34,W
0847A:  SUBLW  07
0847C:  BNZ   8484
....................          { 
....................             EstadoSSR=!EstadoSSR; 
0847E:  BTG    xC5.1
....................             RX_Buffer[4]=0x00; 
08480:  CLRF   34
....................             RX_Buffer2[4]=0x00; 
08482:  CLRF   3F
....................          } 
....................           
....................          if(EstadoSSR){ 
08484:  BTFSS  xC5.1
08486:  BRA    84A2
....................             printf("b6.bco=2016"); 
08488:  MOVLW  1A
0848A:  MOVWF  FF6
0848C:  MOVLW  0F
0848E:  MOVWF  FF7
08490:  MOVLW  00
08492:  MOVWF  FF8
08494:  CALL   33F8
....................             SendDataDisplay();  
08498:  CALL   342A
....................             SSR_on; 
0849C:  BCF    F8B.1
0849E:  BCF    F94.1
....................          } 
....................          else{ 
084A0:  BRA    84BA
....................             printf("b6.bco=63488"); 
084A2:  MOVLW  26
084A4:  MOVWF  FF6
084A6:  MOVLW  0F
084A8:  MOVWF  FF7
084AA:  MOVLW  00
084AC:  MOVWF  FF8
084AE:  CALL   33F8
....................             SendDataDisplay();  
084B2:  CALL   342A
....................             SSR_off; 
084B6:  BSF    F8B.1
084B8:  BCF    F94.1
....................          } 
....................           
....................          if(DOOR){ 
084BA:  BSF    F93.2
084BC:  BTFSC  F81.2
084BE:  BRA    84D6
....................             printf("b8.bco=2016"); 
084C0:  MOVLW  34
084C2:  MOVWF  FF6
084C4:  MOVLW  0F
084C6:  MOVWF  FF7
084C8:  MOVLW  00
084CA:  MOVWF  FF8
084CC:  CALL   33F8
....................             SendDataDisplay();  
084D0:  CALL   342A
....................          }else{ 
084D4:  BRA    84EA
....................             printf("b8.bco=63488"); 
084D6:  MOVLW  40
084D8:  MOVWF  FF6
084DA:  MOVLW  0F
084DC:  MOVWF  FF7
084DE:  MOVLW  00
084E0:  MOVWF  FF8
084E2:  CALL   33F8
....................             SendDataDisplay();  
084E6:  CALL   342A
....................          } 
....................           
....................          if(TERM){ 
084EA:  BSF    F93.0
084EC:  BTFSC  F81.0
084EE:  BRA    8506
....................             printf("b9.bco=2016"); 
084F0:  MOVLW  4E
084F2:  MOVWF  FF6
084F4:  MOVLW  0F
084F6:  MOVWF  FF7
084F8:  MOVLW  00
084FA:  MOVWF  FF8
084FC:  CALL   33F8
....................             SendDataDisplay();  
08500:  CALL   342A
....................          }else{ 
08504:  BRA    851A
....................             printf("b9.bco=63488"); 
08506:  MOVLW  5A
08508:  MOVWF  FF6
0850A:  MOVLW  0F
0850C:  MOVWF  FF7
0850E:  MOVLW  00
08510:  MOVWF  FF8
08512:  CALL   33F8
....................             SendDataDisplay();  
08516:  CALL   342A
....................          } 
....................           
....................          if(STOP){ 
0851A:  BSF    F93.1
0851C:  BTFSC  F81.1
0851E:  BRA    8536
....................             printf("b10.bco=2016"); 
08520:  MOVLW  68
08522:  MOVWF  FF6
08524:  MOVLW  0F
08526:  MOVWF  FF7
08528:  MOVLW  00
0852A:  MOVWF  FF8
0852C:  CALL   33F8
....................             SendDataDisplay();  
08530:  CALL   342A
....................          }else{ 
08534:  BRA    854A
....................             printf("b10.bco=63488"); 
08536:  MOVLW  76
08538:  MOVWF  FF6
0853A:  MOVLW  0F
0853C:  MOVWF  FF7
0853E:  MOVLW  00
08540:  MOVWF  FF8
08542:  CALL   33F8
....................             SendDataDisplay();  
08546:  CALL   342A
....................          } 
....................           
....................          if(PRES){ 
0854A:  BSF    F92.4
0854C:  BTFSC  F80.4
0854E:  BRA    8566
....................             printf("b11.bco=2016"); 
08550:  MOVLW  84
08552:  MOVWF  FF6
08554:  MOVLW  0F
08556:  MOVWF  FF7
08558:  MOVLW  00
0855A:  MOVWF  FF8
0855C:  CALL   33F8
....................             SendDataDisplay();  
08560:  CALL   342A
....................          }else{ 
08564:  BRA    857A
....................             printf("b11.bco=63488"); 
08566:  MOVLW  92
08568:  MOVWF  FF6
0856A:  MOVLW  0F
0856C:  MOVWF  FF7
0856E:  MOVLW  00
08570:  MOVWF  FF8
08572:  CALL   33F8
....................             SendDataDisplay();  
08576:  CALL   342A
....................          } 
....................           
....................          if(RX_Buffer[4]==0x13)//Oprimio Buzzer 
0857A:  MOVF   34,W
0857C:  SUBLW  13
0857E:  BNZ   8586
....................          { 
....................             EstadoBuzzer=!EstadoBuzzer; 
08580:  BTG    xC6.7
....................             RX_Buffer[4]=0x00; 
08582:  CLRF   34
....................             RX_Buffer2[4]=0x00; 
08584:  CLRF   3F
....................          } 
....................           
....................          if(EstadoBuzzer){ 
08586:  BTFSS  xC6.7
08588:  BRA    85A4
....................             printf("b12.bco=2016"); 
0858A:  MOVLW  A0
0858C:  MOVWF  FF6
0858E:  MOVLW  0F
08590:  MOVWF  FF7
08592:  MOVLW  00
08594:  MOVWF  FF8
08596:  CALL   33F8
....................             SendDataDisplay();  
0859A:  CALL   342A
....................             Buzzer_on; 
0859E:  BSF    F8B.5
085A0:  BCF    F94.5
....................          } 
....................          else{ 
085A2:  BRA    85BC
....................             printf("b12.bco=63488"); 
085A4:  MOVLW  AE
085A6:  MOVWF  FF6
085A8:  MOVLW  0F
085AA:  MOVWF  FF7
085AC:  MOVLW  00
085AE:  MOVWF  FF8
085B0:  CALL   33F8
....................             SendDataDisplay();  
085B4:  CALL   342A
....................             Buzzer_off; 
085B8:  BCF    F8B.5
085BA:  BCF    F94.5
....................          } 
....................           
....................          if(HIG){ 
085BC:  BSF    F92.5
085BE:  BTFSS  F80.5
085C0:  BRA    85D8
....................             printf("b16.bco=2016"); 
085C2:  MOVLW  BC
085C4:  MOVWF  FF6
085C6:  MOVLW  0F
085C8:  MOVWF  FF7
085CA:  MOVLW  00
085CC:  MOVWF  FF8
085CE:  CALL   33F8
....................             SendDataDisplay();  
085D2:  CALL   342A
....................          }else{ 
085D6:  BRA    85EC
....................             printf("b16.bco=63488"); 
085D8:  MOVLW  CA
085DA:  MOVWF  FF6
085DC:  MOVLW  0F
085DE:  MOVWF  FF7
085E0:  MOVLW  00
085E2:  MOVWF  FF8
085E4:  CALL   33F8
....................             SendDataDisplay();  
085E8:  CALL   342A
....................          } 
....................           
....................          if(LOW){ 
085EC:  BSF    F96.0
085EE:  BTFSS  F84.0
085F0:  BRA    8608
....................             printf("b17.bco=2016"); 
085F2:  MOVLW  D8
085F4:  MOVWF  FF6
085F6:  MOVLW  0F
085F8:  MOVWF  FF7
085FA:  MOVLW  00
085FC:  MOVWF  FF8
085FE:  CALL   33F8
....................             SendDataDisplay();  
08602:  CALL   342A
....................          }else{ 
08606:  BRA    861C
....................             printf("b17.bco=63488"); 
08608:  MOVLW  E6
0860A:  MOVWF  FF6
0860C:  MOVLW  0F
0860E:  MOVWF  FF7
08610:  MOVLW  00
08612:  MOVWF  FF8
08614:  CALL   33F8
....................             SendDataDisplay();  
08618:  CALL   342A
....................          } 
....................           
....................          if(UP){ 
0861C:  BSF    F93.6
0861E:  BTFSC  F81.6
08620:  BRA    876A
....................             delay_ms(100); 
08622:  MOVLW  64
08624:  MOVLB  4
08626:  MOVWF  x01
08628:  MOVLB  0
0862A:  CALL   1BD4
....................             if(UP){ 
0862E:  BSF    F93.6
08630:  BTFSC  F81.6
08632:  BRA    876A
....................                G1=41-sensores(2); 
08634:  MOVLW  02
08636:  MOVLB  3
08638:  MOVWF  xF7
0863A:  MOVLB  0
0863C:  CALL   3480
08640:  MOVFF  FEA,3F7
08644:  MOVFF  FE9,3F6
08648:  BSF    FD8.1
0864A:  MOVLB  4
0864C:  CLRF   x04
0864E:  CLRF   x03
08650:  MOVLW  24
08652:  MOVWF  x02
08654:  MOVLW  84
08656:  MOVWF  x01
08658:  MOVFF  03,408
0865C:  MOVFF  02,407
08660:  MOVFF  01,406
08664:  MOVFF  00,405
08668:  MOVLB  0
0866A:  CALL   1DB0
0866E:  MOVFF  3F7,FEA
08672:  MOVFF  3F6,FE9
08676:  MOVFF  03,404
0867A:  MOVFF  02,403
0867E:  MOVFF  01,402
08682:  MOVFF  00,401
08686:  CALL   3C18
0868A:  MOVFF  01,3D0
....................                if(G1<0) 
0868E:  MOVLB  3
08690:  BTFSC  xD0.7
08692:  BRA    8696
08694:  BRA    869C
....................                   sg1=10; 
08696:  MOVLW  0A
08698:  MOVWF  xD2
....................                else 
0869A:  BRA    86A0
....................                   sg1=5; 
0869C:  MOVLW  05
0869E:  MOVWF  xD2
....................                    
....................                write_eeprom(42,(int8)G1); 
086A0:  CLRF   FAA
086A2:  MOVLW  2A
086A4:  MOVWF  FA9
086A6:  MOVFF  3D0,FA8
086AA:  BCF    FA6.6
086AC:  BCF    FA6.7
086AE:  BSF    FA6.2
086B0:  MOVF   FF2,W
086B2:  MOVWF  00
086B4:  BCF    FF2.6
086B6:  BCF    FF2.7
086B8:  MOVLB  F
086BA:  MOVLW  55
086BC:  MOVWF  FA7
086BE:  MOVLW  AA
086C0:  MOVWF  FA7
086C2:  BSF    FA6.1
086C4:  BTFSC  FA6.1
086C6:  BRA    86C4
086C8:  BCF    FA6.2
086CA:  MOVF   00,W
086CC:  IORWF  FF2,F
....................                delay_ms(10); 
086CE:  MOVLW  0A
086D0:  MOVLB  4
086D2:  MOVWF  x01
086D4:  MOVLB  0
086D6:  CALL   1BD4
....................                write_eeprom(44,(int8)sg1); 
086DA:  CLRF   FAA
086DC:  MOVLW  2C
086DE:  MOVWF  FA9
086E0:  MOVFF  3D2,FA8
086E4:  BCF    FA6.6
086E6:  BCF    FA6.7
086E8:  BSF    FA6.2
086EA:  MOVF   FF2,W
086EC:  MOVWF  00
086EE:  BCF    FF2.6
086F0:  BCF    FF2.7
086F2:  MOVLB  F
086F4:  MOVLW  55
086F6:  MOVWF  FA7
086F8:  MOVLW  AA
086FA:  MOVWF  FA7
086FC:  BSF    FA6.1
086FE:  BTFSC  FA6.1
08700:  BRA    86FE
08702:  BCF    FA6.2
08704:  MOVF   00,W
08706:  IORWF  FF2,F
....................                delay_ms(10); 
08708:  MOVLW  0A
0870A:  MOVLB  4
0870C:  MOVWF  x01
0870E:  MOVLB  0
08710:  CALL   1BD4
....................                Buzzer_on; 
08714:  BSF    F8B.5
08716:  BCF    F94.5
....................                delay_ms(1000); 
08718:  MOVLW  04
0871A:  MOVLB  3
0871C:  MOVWF  xF6
0871E:  MOVLW  FA
08720:  MOVLB  4
08722:  MOVWF  x01
08724:  MOVLB  0
08726:  CALL   1BD4
0872A:  MOVLB  3
0872C:  DECFSZ xF6,F
0872E:  BRA    871E
....................                Buzzer_off; 
08730:  BCF    F8B.5
08732:  BCF    F94.5
....................                delay_ms(1000); 
08734:  MOVLW  04
08736:  MOVWF  xF6
08738:  MOVLW  FA
0873A:  MOVLB  4
0873C:  MOVWF  x01
0873E:  MOVLB  0
08740:  CALL   1BD4
08744:  MOVLB  3
08746:  DECFSZ xF6,F
08748:  BRA    8738
....................                Buzzer_on; 
0874A:  BSF    F8B.5
0874C:  BCF    F94.5
....................                delay_ms(1000); 
0874E:  MOVLW  04
08750:  MOVWF  xF6
08752:  MOVLW  FA
08754:  MOVLB  4
08756:  MOVWF  x01
08758:  MOVLB  0
0875A:  CALL   1BD4
0875E:  MOVLB  3
08760:  DECFSZ xF6,F
08762:  BRA    8752
....................                Buzzer_off; 
08764:  BCF    F8B.5
08766:  BCF    F94.5
08768:  MOVLB  0
....................             } 
....................          } 
....................           
....................          if(DOWN){ 
0876A:  BSF    F93.5
0876C:  BTFSC  F81.5
0876E:  BRA    88B8
....................             delay_ms(100); 
08770:  MOVLW  64
08772:  MOVLB  4
08774:  MOVWF  x01
08776:  MOVLB  0
08778:  CALL   1BD4
....................             if(DOWN){ 
0877C:  BSF    F93.5
0877E:  BTFSC  F81.5
08780:  BRA    88B8
....................                G2=41-sensores(3); 
08782:  MOVLW  03
08784:  MOVLB  3
08786:  MOVWF  xF7
08788:  MOVLB  0
0878A:  CALL   3480
0878E:  MOVFF  FEA,3F7
08792:  MOVFF  FE9,3F6
08796:  BSF    FD8.1
08798:  MOVLB  4
0879A:  CLRF   x04
0879C:  CLRF   x03
0879E:  MOVLW  24
087A0:  MOVWF  x02
087A2:  MOVLW  84
087A4:  MOVWF  x01
087A6:  MOVFF  03,408
087AA:  MOVFF  02,407
087AE:  MOVFF  01,406
087B2:  MOVFF  00,405
087B6:  MOVLB  0
087B8:  CALL   1DB0
087BC:  MOVFF  3F7,FEA
087C0:  MOVFF  3F6,FE9
087C4:  MOVFF  03,404
087C8:  MOVFF  02,403
087CC:  MOVFF  01,402
087D0:  MOVFF  00,401
087D4:  CALL   3C18
087D8:  MOVFF  01,3D1
....................                if(G2<0) 
087DC:  MOVLB  3
087DE:  BTFSC  xD1.7
087E0:  BRA    87E4
087E2:  BRA    87EA
....................                   sg2=10; 
087E4:  MOVLW  0A
087E6:  MOVWF  xD3
....................                else 
087E8:  BRA    87EE
....................                   sg2=5; 
087EA:  MOVLW  05
087EC:  MOVWF  xD3
....................                    
....................                write_eeprom(43,(int8)G2); 
087EE:  CLRF   FAA
087F0:  MOVLW  2B
087F2:  MOVWF  FA9
087F4:  MOVFF  3D1,FA8
087F8:  BCF    FA6.6
087FA:  BCF    FA6.7
087FC:  BSF    FA6.2
087FE:  MOVF   FF2,W
08800:  MOVWF  00
08802:  BCF    FF2.6
08804:  BCF    FF2.7
08806:  MOVLB  F
08808:  MOVLW  55
0880A:  MOVWF  FA7
0880C:  MOVLW  AA
0880E:  MOVWF  FA7
08810:  BSF    FA6.1
08812:  BTFSC  FA6.1
08814:  BRA    8812
08816:  BCF    FA6.2
08818:  MOVF   00,W
0881A:  IORWF  FF2,F
....................                delay_ms(10); 
0881C:  MOVLW  0A
0881E:  MOVLB  4
08820:  MOVWF  x01
08822:  MOVLB  0
08824:  CALL   1BD4
....................                write_eeprom(45,(int8)sg2); 
08828:  CLRF   FAA
0882A:  MOVLW  2D
0882C:  MOVWF  FA9
0882E:  MOVFF  3D3,FA8
08832:  BCF    FA6.6
08834:  BCF    FA6.7
08836:  BSF    FA6.2
08838:  MOVF   FF2,W
0883A:  MOVWF  00
0883C:  BCF    FF2.6
0883E:  BCF    FF2.7
08840:  MOVLB  F
08842:  MOVLW  55
08844:  MOVWF  FA7
08846:  MOVLW  AA
08848:  MOVWF  FA7
0884A:  BSF    FA6.1
0884C:  BTFSC  FA6.1
0884E:  BRA    884C
08850:  BCF    FA6.2
08852:  MOVF   00,W
08854:  IORWF  FF2,F
....................                delay_ms(10); 
08856:  MOVLW  0A
08858:  MOVLB  4
0885A:  MOVWF  x01
0885C:  MOVLB  0
0885E:  CALL   1BD4
....................                Buzzer_on; 
08862:  BSF    F8B.5
08864:  BCF    F94.5
....................                delay_ms(1000); 
08866:  MOVLW  04
08868:  MOVLB  3
0886A:  MOVWF  xF6
0886C:  MOVLW  FA
0886E:  MOVLB  4
08870:  MOVWF  x01
08872:  MOVLB  0
08874:  CALL   1BD4
08878:  MOVLB  3
0887A:  DECFSZ xF6,F
0887C:  BRA    886C
....................                Buzzer_off; 
0887E:  BCF    F8B.5
08880:  BCF    F94.5
....................                delay_ms(1000); 
08882:  MOVLW  04
08884:  MOVWF  xF6
08886:  MOVLW  FA
08888:  MOVLB  4
0888A:  MOVWF  x01
0888C:  MOVLB  0
0888E:  CALL   1BD4
08892:  MOVLB  3
08894:  DECFSZ xF6,F
08896:  BRA    8886
....................                Buzzer_on; 
08898:  BSF    F8B.5
0889A:  BCF    F94.5
....................                delay_ms(1000); 
0889C:  MOVLW  04
0889E:  MOVWF  xF6
088A0:  MOVLW  FA
088A2:  MOVLB  4
088A4:  MOVWF  x01
088A6:  MOVLB  0
088A8:  CALL   1BD4
088AC:  MOVLB  3
088AE:  DECFSZ xF6,F
088B0:  BRA    88A0
....................                Buzzer_off; 
088B2:  BCF    F8B.5
088B4:  BCF    F94.5
088B6:  MOVLB  0
....................             } 
....................          } 
....................           
....................          printf("b13.txt=\"%3.0f\"",sensores(0)); 
088B8:  MOVLB  3
088BA:  CLRF   xF7
088BC:  MOVLB  0
088BE:  CALL   3480
088C2:  MOVFF  00,3F6
088C6:  MOVFF  01,3F7
088CA:  MOVFF  02,3F8
088CE:  MOVFF  03,3F9
088D2:  MOVLW  F4
088D4:  MOVWF  FF6
088D6:  MOVLW  0F
088D8:  MOVWF  FF7
088DA:  MOVLW  00
088DC:  MOVWF  FF8
088DE:  MOVLW  09
088E0:  MOVLB  3
088E2:  MOVWF  xFA
088E4:  MOVLB  0
088E6:  CALL   45DE
088EA:  MOVLW  02
088EC:  MOVWF  FE9
088EE:  MOVFF  3F9,3FD
088F2:  MOVFF  3F8,3FC
088F6:  MOVFF  3F7,3FB
088FA:  MOVFF  3F6,3FA
088FE:  MOVLB  3
08900:  CLRF   xFE
08902:  MOVLB  0
08904:  CALL   48AA
08908:  MOVLW  22
0890A:  BTFSS  F9E.4
0890C:  BRA    890A
0890E:  MOVWF  FAD
....................          SendDataDisplay(); 
08910:  CALL   342A
....................          printf("b14.txt=\"%3.0f\"",sensores(2)); 
08914:  MOVLW  02
08916:  MOVLB  3
08918:  MOVWF  xF7
0891A:  MOVLB  0
0891C:  CALL   3480
08920:  MOVFF  00,3F6
08924:  MOVFF  01,3F7
08928:  MOVFF  02,3F8
0892C:  MOVFF  03,3F9
08930:  MOVLW  04
08932:  MOVWF  FF6
08934:  MOVLW  10
08936:  MOVWF  FF7
08938:  MOVLW  00
0893A:  MOVWF  FF8
0893C:  MOVLW  09
0893E:  MOVLB  3
08940:  MOVWF  xFA
08942:  MOVLB  0
08944:  CALL   45DE
08948:  MOVLW  02
0894A:  MOVWF  FE9
0894C:  MOVFF  3F9,3FD
08950:  MOVFF  3F8,3FC
08954:  MOVFF  3F7,3FB
08958:  MOVFF  3F6,3FA
0895C:  MOVLB  3
0895E:  CLRF   xFE
08960:  MOVLB  0
08962:  CALL   48AA
08966:  MOVLW  22
08968:  BTFSS  F9E.4
0896A:  BRA    8968
0896C:  MOVWF  FAD
....................          SendDataDisplay(); 
0896E:  CALL   342A
....................          printf("b15.txt=\"%3.0f\"",sensores(3)); 
08972:  MOVLW  03
08974:  MOVLB  3
08976:  MOVWF  xF7
08978:  MOVLB  0
0897A:  CALL   3480
0897E:  MOVFF  00,3F6
08982:  MOVFF  01,3F7
08986:  MOVFF  02,3F8
0898A:  MOVFF  03,3F9
0898E:  MOVLW  14
08990:  MOVWF  FF6
08992:  MOVLW  10
08994:  MOVWF  FF7
08996:  MOVLW  00
08998:  MOVWF  FF8
0899A:  MOVLW  09
0899C:  MOVLB  3
0899E:  MOVWF  xFA
089A0:  MOVLB  0
089A2:  CALL   45DE
089A6:  MOVLW  02
089A8:  MOVWF  FE9
089AA:  MOVFF  3F9,3FD
089AE:  MOVFF  3F8,3FC
089B2:  MOVFF  3F7,3FB
089B6:  MOVFF  3F6,3FA
089BA:  MOVLB  3
089BC:  CLRF   xFE
089BE:  MOVLB  0
089C0:  CALL   48AA
089C4:  MOVLW  22
089C6:  BTFSS  F9E.4
089C8:  BRA    89C6
089CA:  MOVWF  FAD
....................          //printf("b15.txt=\"%3.0f\"",Presionp); 
....................          SendDataDisplay(); 
089CC:  CALL   342A
....................           
....................          if(RX_Buffer[4]==0x21)//Oprimio salir 
089D0:  MOVF   34,W
089D2:  SUBLW  21
089D4:  BNZ   8A02
....................          { 
....................             printf("page MenuPrincipal"); 
089D6:  MOVLW  24
089D8:  MOVWF  FF6
089DA:  MOVLW  10
089DC:  MOVWF  FF7
089DE:  MOVLW  00
089E0:  MOVWF  FF8
089E2:  CALL   33F8
....................             SendDataDisplay(); 
089E6:  CALL   342A
....................             PantallaPrincipal=0; 
089EA:  MOVLB  3
089EC:  CLRF   x19
....................             PruebaEstados=OFF;Desfogue_off;AguaIn_off;SSR_off; 
089EE:  MOVLB  0
089F0:  BCF    xC5.2
089F2:  BSF    F8C.2
089F4:  BCF    F95.2
089F6:  BSF    F8C.4
089F8:  BCF    F95.4
089FA:  BSF    F8B.1
089FC:  BCF    F94.1
....................             ApagaSalidas(); 
089FE:  CALL   3460
08A02:  MOVLB  3
....................             // Falta apagar Todo 
....................          } 
....................      } 
.................... //_--------------------------------------------------------------------------------------------------------------------------------------------------------     
....................  
.................... //_--------------------------------------------------------------------------------------------------------------------------------------------------------       
....................       if(Menu==7){ //Menu de Configuracin de Fecha y Hora 
08A04:  MOVF   x87,W
08A06:  SUBLW  07
08A08:  BTFSS  FD8.2
08A0A:  GOTO   91FE
....................        
....................          if(RX_Buffer[4]==0x0a){//Selecciono Hora 
08A0E:  MOVF   34,W
08A10:  SUBLW  0A
08A12:  BNZ   8A18
....................             Opcion=4; 
08A14:  MOVLW  04
08A16:  MOVWF  x90
....................          } 
....................           
....................          if(RX_Buffer[4]==0x0b){//Selecciono Minuto 
08A18:  MOVF   34,W
08A1A:  SUBLW  0B
08A1C:  BNZ   8A22
....................             Opcion=5; 
08A1E:  MOVLW  05
08A20:  MOVWF  x90
....................          } 
....................           
....................          if(RX_Buffer[4]==0x0c){//Selecciono Dia 
08A22:  MOVF   34,W
08A24:  SUBLW  0C
08A26:  BNZ   8A2C
....................             Opcion=1; 
08A28:  MOVLW  01
08A2A:  MOVWF  x90
....................          } 
....................           
....................          if(RX_Buffer[4]==0x0d){//Selecciono Hora 
08A2C:  MOVF   34,W
08A2E:  SUBLW  0D
08A30:  BNZ   8A36
....................             Opcion=2; 
08A32:  MOVLW  02
08A34:  MOVWF  x90
....................          } 
....................           
....................          if(RX_Buffer[4]==0x0e){//Selecciono Year 
08A36:  MOVF   34,W
08A38:  SUBLW  0E
08A3A:  BNZ   8A40
....................             Opcion=3; 
08A3C:  MOVLW  03
08A3E:  MOVWF  x90
....................          } 
....................           
....................          if(Opcion==1){ 
08A40:  DECFSZ x90,W
08A42:  BRA    8B12
....................             printf("tdia.bco=27501"); 
08A44:  MOVLW  38
08A46:  MOVWF  FF6
08A48:  MOVLW  10
08A4A:  MOVWF  FF7
08A4C:  MOVLW  00
08A4E:  MOVWF  FF8
08A50:  MOVLB  0
08A52:  CALL   33F8
....................             SendDataDisplay();   
08A56:  CALL   342A
....................             printf("tdia.pco=65535"); 
08A5A:  MOVLW  48
08A5C:  MOVWF  FF6
08A5E:  MOVLW  10
08A60:  MOVWF  FF7
08A62:  MOVLW  00
08A64:  MOVWF  FF8
08A66:  CALL   33F8
....................             SendDataDisplay();   
08A6A:  CALL   342A
....................             printf("tmes.bco=65535"); 
08A6E:  MOVLW  58
08A70:  MOVWF  FF6
08A72:  MOVLW  10
08A74:  MOVWF  FF7
08A76:  MOVLW  00
08A78:  MOVWF  FF8
08A7A:  CALL   33F8
....................             SendDataDisplay();   
08A7E:  CALL   342A
....................             printf("tmes.pco=0"); 
08A82:  MOVLW  68
08A84:  MOVWF  FF6
08A86:  MOVLW  10
08A88:  MOVWF  FF7
08A8A:  MOVLW  00
08A8C:  MOVWF  FF8
08A8E:  CALL   33F8
....................             SendDataDisplay();   
08A92:  CALL   342A
....................             printf("tyear.bco=65535"); 
08A96:  MOVLW  74
08A98:  MOVWF  FF6
08A9A:  MOVLW  10
08A9C:  MOVWF  FF7
08A9E:  MOVLW  00
08AA0:  MOVWF  FF8
08AA2:  CALL   33F8
....................             SendDataDisplay();   
08AA6:  CALL   342A
....................             printf("tyear.pco=0"); 
08AAA:  MOVLW  84
08AAC:  MOVWF  FF6
08AAE:  MOVLW  10
08AB0:  MOVWF  FF7
08AB2:  MOVLW  00
08AB4:  MOVWF  FF8
08AB6:  CALL   33F8
....................             SendDataDisplay();   
08ABA:  CALL   342A
....................             printf("thora.bco=65535"); 
08ABE:  MOVLW  90
08AC0:  MOVWF  FF6
08AC2:  MOVLW  10
08AC4:  MOVWF  FF7
08AC6:  MOVLW  00
08AC8:  MOVWF  FF8
08ACA:  CALL   33F8
....................             SendDataDisplay();   
08ACE:  CALL   342A
....................             printf("thora.pco=0"); 
08AD2:  MOVLW  A0
08AD4:  MOVWF  FF6
08AD6:  MOVLW  10
08AD8:  MOVWF  FF7
08ADA:  MOVLW  00
08ADC:  MOVWF  FF8
08ADE:  CALL   33F8
....................             SendDataDisplay();   
08AE2:  CALL   342A
....................             printf("tminutos.bco=65535"); 
08AE6:  MOVLW  AC
08AE8:  MOVWF  FF6
08AEA:  MOVLW  10
08AEC:  MOVWF  FF7
08AEE:  MOVLW  00
08AF0:  MOVWF  FF8
08AF2:  CALL   33F8
....................             SendDataDisplay();   
08AF6:  CALL   342A
....................             printf("tminutos.pco=0"); 
08AFA:  MOVLW  C0
08AFC:  MOVWF  FF6
08AFE:  MOVLW  10
08B00:  MOVWF  FF7
08B02:  MOVLW  00
08B04:  MOVWF  FF8
08B06:  CALL   33F8
....................             SendDataDisplay();   
08B0A:  CALL   342A
....................          }else if(Opcion==2){ 
08B0E:  BRA    8E5E
08B10:  MOVLB  3
08B12:  MOVF   x90,W
08B14:  SUBLW  02
08B16:  BNZ   8BE6
....................             printf("tdia.bco=65535"); 
08B18:  MOVLW  D0
08B1A:  MOVWF  FF6
08B1C:  MOVLW  10
08B1E:  MOVWF  FF7
08B20:  MOVLW  00
08B22:  MOVWF  FF8
08B24:  MOVLB  0
08B26:  CALL   33F8
....................             SendDataDisplay();   
08B2A:  CALL   342A
....................             printf("tdia.pco=0"); 
08B2E:  MOVLW  E0
08B30:  MOVWF  FF6
08B32:  MOVLW  10
08B34:  MOVWF  FF7
08B36:  MOVLW  00
08B38:  MOVWF  FF8
08B3A:  CALL   33F8
....................             SendDataDisplay();   
08B3E:  CALL   342A
....................             printf("tmes.bco=27501"); 
08B42:  MOVLW  EC
08B44:  MOVWF  FF6
08B46:  MOVLW  10
08B48:  MOVWF  FF7
08B4A:  MOVLW  00
08B4C:  MOVWF  FF8
08B4E:  CALL   33F8
....................             SendDataDisplay();   
08B52:  CALL   342A
....................             printf("tmes.pco=65535"); 
08B56:  MOVLW  FC
08B58:  MOVWF  FF6
08B5A:  MOVLW  10
08B5C:  MOVWF  FF7
08B5E:  MOVLW  00
08B60:  MOVWF  FF8
08B62:  CALL   33F8
....................             SendDataDisplay();   
08B66:  CALL   342A
....................             printf("tyear.bco=65535"); 
08B6A:  MOVLW  0C
08B6C:  MOVWF  FF6
08B6E:  MOVLW  11
08B70:  MOVWF  FF7
08B72:  MOVLW  00
08B74:  MOVWF  FF8
08B76:  CALL   33F8
....................             SendDataDisplay();   
08B7A:  CALL   342A
....................             printf("tyear.pco=0"); 
08B7E:  MOVLW  1C
08B80:  MOVWF  FF6
08B82:  MOVLW  11
08B84:  MOVWF  FF7
08B86:  MOVLW  00
08B88:  MOVWF  FF8
08B8A:  CALL   33F8
....................             SendDataDisplay();   
08B8E:  CALL   342A
....................             printf("thora.bco=65535"); 
08B92:  MOVLW  28
08B94:  MOVWF  FF6
08B96:  MOVLW  11
08B98:  MOVWF  FF7
08B9A:  MOVLW  00
08B9C:  MOVWF  FF8
08B9E:  CALL   33F8
....................             SendDataDisplay();   
08BA2:  CALL   342A
....................             printf("thora.pco=0"); 
08BA6:  MOVLW  38
08BA8:  MOVWF  FF6
08BAA:  MOVLW  11
08BAC:  MOVWF  FF7
08BAE:  MOVLW  00
08BB0:  MOVWF  FF8
08BB2:  CALL   33F8
....................             SendDataDisplay();   
08BB6:  CALL   342A
....................             printf("tminutos.bco=65535"); 
08BBA:  MOVLW  44
08BBC:  MOVWF  FF6
08BBE:  MOVLW  11
08BC0:  MOVWF  FF7
08BC2:  MOVLW  00
08BC4:  MOVWF  FF8
08BC6:  CALL   33F8
....................             SendDataDisplay();   
08BCA:  CALL   342A
....................             printf("tminutos.pco=0"); 
08BCE:  MOVLW  58
08BD0:  MOVWF  FF6
08BD2:  MOVLW  11
08BD4:  MOVWF  FF7
08BD6:  MOVLW  00
08BD8:  MOVWF  FF8
08BDA:  CALL   33F8
....................             SendDataDisplay(); 
08BDE:  CALL   342A
....................          }else if(Opcion==3){ 
08BE2:  BRA    8E5E
08BE4:  MOVLB  3
08BE6:  MOVF   x90,W
08BE8:  SUBLW  03
08BEA:  BNZ   8CBA
....................             printf("tdia.bco=65535"); 
08BEC:  MOVLW  68
08BEE:  MOVWF  FF6
08BF0:  MOVLW  11
08BF2:  MOVWF  FF7
08BF4:  MOVLW  00
08BF6:  MOVWF  FF8
08BF8:  MOVLB  0
08BFA:  CALL   33F8
....................             SendDataDisplay();   
08BFE:  CALL   342A
....................             printf("tdia.pco=0"); 
08C02:  MOVLW  78
08C04:  MOVWF  FF6
08C06:  MOVLW  11
08C08:  MOVWF  FF7
08C0A:  MOVLW  00
08C0C:  MOVWF  FF8
08C0E:  CALL   33F8
....................             SendDataDisplay();   
08C12:  CALL   342A
....................             printf("tmes.bco=65535"); 
08C16:  MOVLW  84
08C18:  MOVWF  FF6
08C1A:  MOVLW  11
08C1C:  MOVWF  FF7
08C1E:  MOVLW  00
08C20:  MOVWF  FF8
08C22:  CALL   33F8
....................             SendDataDisplay();   
08C26:  CALL   342A
....................             printf("tmes.pco=0"); 
08C2A:  MOVLW  94
08C2C:  MOVWF  FF6
08C2E:  MOVLW  11
08C30:  MOVWF  FF7
08C32:  MOVLW  00
08C34:  MOVWF  FF8
08C36:  CALL   33F8
....................             SendDataDisplay();   
08C3A:  CALL   342A
....................             printf("tyear.bco=27501"); 
08C3E:  MOVLW  A0
08C40:  MOVWF  FF6
08C42:  MOVLW  11
08C44:  MOVWF  FF7
08C46:  MOVLW  00
08C48:  MOVWF  FF8
08C4A:  CALL   33F8
....................             SendDataDisplay();   
08C4E:  CALL   342A
....................             printf("tyear.pco=65535"); 
08C52:  MOVLW  B0
08C54:  MOVWF  FF6
08C56:  MOVLW  11
08C58:  MOVWF  FF7
08C5A:  MOVLW  00
08C5C:  MOVWF  FF8
08C5E:  CALL   33F8
....................             SendDataDisplay();   
08C62:  CALL   342A
....................             printf("thora.bco=65535"); 
08C66:  MOVLW  C0
08C68:  MOVWF  FF6
08C6A:  MOVLW  11
08C6C:  MOVWF  FF7
08C6E:  MOVLW  00
08C70:  MOVWF  FF8
08C72:  CALL   33F8
....................             SendDataDisplay();   
08C76:  CALL   342A
....................             printf("thora.pco=0"); 
08C7A:  MOVLW  D0
08C7C:  MOVWF  FF6
08C7E:  MOVLW  11
08C80:  MOVWF  FF7
08C82:  MOVLW  00
08C84:  MOVWF  FF8
08C86:  CALL   33F8
....................             SendDataDisplay();   
08C8A:  CALL   342A
....................             printf("tminutos.bco=65535"); 
08C8E:  MOVLW  DC
08C90:  MOVWF  FF6
08C92:  MOVLW  11
08C94:  MOVWF  FF7
08C96:  MOVLW  00
08C98:  MOVWF  FF8
08C9A:  CALL   33F8
....................             SendDataDisplay();   
08C9E:  CALL   342A
....................             printf("tminutos.pco=0"); 
08CA2:  MOVLW  F0
08CA4:  MOVWF  FF6
08CA6:  MOVLW  11
08CA8:  MOVWF  FF7
08CAA:  MOVLW  00
08CAC:  MOVWF  FF8
08CAE:  CALL   33F8
....................             SendDataDisplay(); 
08CB2:  CALL   342A
....................          }else if(Opcion==4){ 
08CB6:  BRA    8E5E
08CB8:  MOVLB  3
08CBA:  MOVF   x90,W
08CBC:  SUBLW  04
08CBE:  BNZ   8D8E
....................             printf("tdia.bco=65535"); 
08CC0:  MOVLW  00
08CC2:  MOVWF  FF6
08CC4:  MOVLW  12
08CC6:  MOVWF  FF7
08CC8:  MOVLW  00
08CCA:  MOVWF  FF8
08CCC:  MOVLB  0
08CCE:  CALL   33F8
....................             SendDataDisplay();   
08CD2:  CALL   342A
....................             printf("tdia.pco=0"); 
08CD6:  MOVLW  10
08CD8:  MOVWF  FF6
08CDA:  MOVLW  12
08CDC:  MOVWF  FF7
08CDE:  MOVLW  00
08CE0:  MOVWF  FF8
08CE2:  CALL   33F8
....................             SendDataDisplay();   
08CE6:  CALL   342A
....................             printf("tmes.bco=65535"); 
08CEA:  MOVLW  1C
08CEC:  MOVWF  FF6
08CEE:  MOVLW  12
08CF0:  MOVWF  FF7
08CF2:  MOVLW  00
08CF4:  MOVWF  FF8
08CF6:  CALL   33F8
....................             SendDataDisplay();  
08CFA:  CALL   342A
....................             printf("tmes.pco=0"); 
08CFE:  MOVLW  2C
08D00:  MOVWF  FF6
08D02:  MOVLW  12
08D04:  MOVWF  FF7
08D06:  MOVLW  00
08D08:  MOVWF  FF8
08D0A:  CALL   33F8
....................             SendDataDisplay();   
08D0E:  CALL   342A
....................             printf("tyear.bco=65535"); 
08D12:  MOVLW  38
08D14:  MOVWF  FF6
08D16:  MOVLW  12
08D18:  MOVWF  FF7
08D1A:  MOVLW  00
08D1C:  MOVWF  FF8
08D1E:  CALL   33F8
....................             SendDataDisplay();   
08D22:  CALL   342A
....................             printf("tyear.pco=0"); 
08D26:  MOVLW  48
08D28:  MOVWF  FF6
08D2A:  MOVLW  12
08D2C:  MOVWF  FF7
08D2E:  MOVLW  00
08D30:  MOVWF  FF8
08D32:  CALL   33F8
....................             SendDataDisplay();   
08D36:  CALL   342A
....................             printf("thora.bco=27501"); 
08D3A:  MOVLW  54
08D3C:  MOVWF  FF6
08D3E:  MOVLW  12
08D40:  MOVWF  FF7
08D42:  MOVLW  00
08D44:  MOVWF  FF8
08D46:  CALL   33F8
....................             SendDataDisplay();   
08D4A:  CALL   342A
....................             printf("thora.pco=65535"); 
08D4E:  MOVLW  64
08D50:  MOVWF  FF6
08D52:  MOVLW  12
08D54:  MOVWF  FF7
08D56:  MOVLW  00
08D58:  MOVWF  FF8
08D5A:  CALL   33F8
....................             SendDataDisplay();   
08D5E:  CALL   342A
....................             printf("tminutos.bco=65535"); 
08D62:  MOVLW  74
08D64:  MOVWF  FF6
08D66:  MOVLW  12
08D68:  MOVWF  FF7
08D6A:  MOVLW  00
08D6C:  MOVWF  FF8
08D6E:  CALL   33F8
....................             SendDataDisplay();   
08D72:  CALL   342A
....................             printf("tminutos.pco=0"); 
08D76:  MOVLW  88
08D78:  MOVWF  FF6
08D7A:  MOVLW  12
08D7C:  MOVWF  FF7
08D7E:  MOVLW  00
08D80:  MOVWF  FF8
08D82:  CALL   33F8
....................             SendDataDisplay(); 
08D86:  CALL   342A
....................          }else if(Opcion==5){ 
08D8A:  BRA    8E5E
08D8C:  MOVLB  3
08D8E:  MOVF   x90,W
08D90:  SUBLW  05
08D92:  BNZ   8E60
....................             printf("tdia.bco=65535"); 
08D94:  MOVLW  98
08D96:  MOVWF  FF6
08D98:  MOVLW  12
08D9A:  MOVWF  FF7
08D9C:  MOVLW  00
08D9E:  MOVWF  FF8
08DA0:  MOVLB  0
08DA2:  CALL   33F8
....................             SendDataDisplay();   
08DA6:  CALL   342A
....................             printf("tdia.pco=0"); 
08DAA:  MOVLW  A8
08DAC:  MOVWF  FF6
08DAE:  MOVLW  12
08DB0:  MOVWF  FF7
08DB2:  MOVLW  00
08DB4:  MOVWF  FF8
08DB6:  CALL   33F8
....................             SendDataDisplay();   
08DBA:  CALL   342A
....................             printf("tmes.bco=65535"); 
08DBE:  MOVLW  B4
08DC0:  MOVWF  FF6
08DC2:  MOVLW  12
08DC4:  MOVWF  FF7
08DC6:  MOVLW  00
08DC8:  MOVWF  FF8
08DCA:  CALL   33F8
....................             SendDataDisplay();  
08DCE:  CALL   342A
....................             printf("tmes.pco=0"); 
08DD2:  MOVLW  C4
08DD4:  MOVWF  FF6
08DD6:  MOVLW  12
08DD8:  MOVWF  FF7
08DDA:  MOVLW  00
08DDC:  MOVWF  FF8
08DDE:  CALL   33F8
....................             SendDataDisplay();   
08DE2:  CALL   342A
....................             printf("tyear.bco=65535"); 
08DE6:  MOVLW  D0
08DE8:  MOVWF  FF6
08DEA:  MOVLW  12
08DEC:  MOVWF  FF7
08DEE:  MOVLW  00
08DF0:  MOVWF  FF8
08DF2:  CALL   33F8
....................             SendDataDisplay();   
08DF6:  CALL   342A
....................             printf("tyear.pco=0"); 
08DFA:  MOVLW  E0
08DFC:  MOVWF  FF6
08DFE:  MOVLW  12
08E00:  MOVWF  FF7
08E02:  MOVLW  00
08E04:  MOVWF  FF8
08E06:  CALL   33F8
....................             SendDataDisplay();   
08E0A:  CALL   342A
....................             printf("thora.bco=65535"); 
08E0E:  MOVLW  EC
08E10:  MOVWF  FF6
08E12:  MOVLW  12
08E14:  MOVWF  FF7
08E16:  MOVLW  00
08E18:  MOVWF  FF8
08E1A:  CALL   33F8
....................             SendDataDisplay();   
08E1E:  CALL   342A
....................             printf("thora.pco=0"); 
08E22:  MOVLW  FC
08E24:  MOVWF  FF6
08E26:  MOVLW  12
08E28:  MOVWF  FF7
08E2A:  MOVLW  00
08E2C:  MOVWF  FF8
08E2E:  CALL   33F8
....................             SendDataDisplay();   
08E32:  CALL   342A
....................             printf("tminutos.bco=27501"); 
08E36:  MOVLW  08
08E38:  MOVWF  FF6
08E3A:  MOVLW  13
08E3C:  MOVWF  FF7
08E3E:  MOVLW  00
08E40:  MOVWF  FF8
08E42:  CALL   33F8
....................             SendDataDisplay();   
08E46:  CALL   342A
....................             printf("tminutos.pco=65535"); 
08E4A:  MOVLW  1C
08E4C:  MOVWF  FF6
08E4E:  MOVLW  13
08E50:  MOVWF  FF7
08E52:  MOVLW  00
08E54:  MOVWF  FF8
08E56:  CALL   33F8
....................             SendDataDisplay(); 
08E5A:  CALL   342A
08E5E:  MOVLB  3
....................          } 
....................           
....................          if(RIGHT){ 
08E60:  BSF    F93.4
08E62:  BTFSC  F81.4
08E64:  BRA    8E7C
....................             delay_ms(200); 
08E66:  MOVLW  C8
08E68:  MOVLB  4
08E6A:  MOVWF  x01
08E6C:  MOVLB  0
08E6E:  CALL   1BD4
....................             if(RIGHT){ 
08E72:  BSF    F93.4
08E74:  BTFSC  F81.4
08E76:  BRA    8E7E
....................                Opcion++; 
08E78:  MOVLB  3
08E7A:  INCF   x90,F
08E7C:  MOVLB  0
....................             } 
....................          } 
....................          if(Opcion>5) 
08E7E:  MOVLB  3
08E80:  MOVF   x90,W
08E82:  SUBLW  05
08E84:  BC    8E8A
....................             Opcion=1; 
08E86:  MOVLW  01
08E88:  MOVWF  x90
....................          if(Opcion<1) 
08E8A:  MOVF   x90,F
08E8C:  BNZ   8E92
....................             Opcion=5; 
08E8E:  MOVLW  05
08E90:  MOVWF  x90
....................              
....................          if(RX_Buffer[4]==0x11 || LEFT){//Selecciono Regresar 
08E92:  MOVF   34,W
08E94:  SUBLW  11
08E96:  BZ    8E9E
08E98:  BSF    F93.3
08E9A:  BTFSC  F81.3
08E9C:  BRA    8FAE
....................             printf("page MenuPrincipal"); 
08E9E:  MOVLW  30
08EA0:  MOVWF  FF6
08EA2:  MOVLW  13
08EA4:  MOVWF  FF7
08EA6:  MOVLW  00
08EA8:  MOVWF  FF8
08EAA:  MOVLB  0
08EAC:  CALL   33F8
....................             SendDataDisplay();   
08EB0:  CALL   342A
....................             PantallaPrincipal=0; 
08EB4:  MOVLB  3
08EB6:  CLRF   x19
....................             Op=OFF; 
08EB8:  MOVLB  0
08EBA:  BCF    xC6.0
....................             Op2=OFF; 
08EBC:  BCF    xC6.1
....................              
....................             if(esBisiesto(YearTx)) 
08EBE:  MOVFF  3C7,3F6
08EC2:  CALL   4AC6
08EC6:  MOVF   01,F
08EC8:  BZ    8EE2
....................                Modulo=Bisiesto[MesTx]; 
08ECA:  CLRF   03
08ECC:  MOVLB  3
08ECE:  MOVF   xC8,W
08ED0:  ADDLW  B8
08ED2:  MOVWF  FE9
08ED4:  MOVLW  00
08ED6:  ADDWFC 03,W
08ED8:  MOVWF  FEA
08EDA:  MOVFF  FEF,31B
....................             else 
08EDE:  BRA    8EF6
08EE0:  MOVLB  0
....................                Modulo=Regular[MesTx]; 
08EE2:  CLRF   03
08EE4:  MOVLB  3
08EE6:  MOVF   xC8,W
08EE8:  ADDLW  AC
08EEA:  MOVWF  FE9
08EEC:  MOVLW  00
08EEE:  ADDWFC 03,W
08EF0:  MOVWF  FEA
08EF2:  MOVFF  FEF,31B
....................           
....................             dowTx=((YearTx-1)%7+((YearTx-1)/4-3*((YearTx-1)/100+1)/4)%7+Modulo+DiaTx%7)%7; 
08EF6:  MOVLW  01
08EF8:  SUBWF  xC7,W
08EFA:  MOVWF  xF7
08EFC:  MOVWF  xFF
08EFE:  MOVLW  07
08F00:  MOVLB  4
08F02:  MOVWF  x00
08F04:  MOVLB  0
08F06:  CALL   4610
08F0A:  MOVFF  00,3F6
08F0E:  MOVLW  01
08F10:  MOVLB  3
08F12:  SUBWF  xC7,W
08F14:  MOVWF  00
08F16:  RRCF   00,W
08F18:  MOVWF  xF7
08F1A:  RRCF   xF7,F
08F1C:  MOVLW  3F
08F1E:  ANDWF  xF7,F
08F20:  MOVLW  01
08F22:  SUBWF  xC7,W
08F24:  MOVWF  xF9
08F26:  MOVWF  xFF
08F28:  MOVLW  64
08F2A:  MOVLB  4
08F2C:  MOVWF  x00
08F2E:  MOVLB  0
08F30:  CALL   4610
08F34:  MOVLW  01
08F36:  ADDWF  01,W
08F38:  MULLW  03
08F3A:  MOVFF  FF3,00
08F3E:  RRCF   00,F
08F40:  RRCF   00,F
08F42:  MOVLW  3F
08F44:  ANDWF  00,F
08F46:  MOVF   00,W
08F48:  MOVLB  3
08F4A:  SUBWF  xF7,W
08F4C:  MOVWF  xF8
08F4E:  MOVWF  xFF
08F50:  MOVLW  07
08F52:  MOVLB  4
08F54:  MOVWF  x00
08F56:  MOVLB  0
08F58:  CALL   4610
08F5C:  MOVF   00,W
08F5E:  MOVLB  3
08F60:  ADDWF  xF6,W
08F62:  ADDWF  x1B,W
08F64:  MOVWF  xF6
08F66:  MOVFF  3C9,3FF
08F6A:  MOVLW  07
08F6C:  MOVLB  4
08F6E:  MOVWF  x00
08F70:  MOVLB  0
08F72:  CALL   4610
08F76:  MOVF   00,W
08F78:  MOVLB  3
08F7A:  ADDWF  xF6,W
08F7C:  MOVWF  xF7
08F7E:  MOVWF  xFF
08F80:  MOVLW  07
08F82:  MOVLB  4
08F84:  MOVWF  x00
08F86:  MOVLB  0
08F88:  CALL   4610
08F8C:  MOVFF  00,3CD
....................             rtc_set_datetime(DiaTx,MesTx,YearTx,dowTx,HoraTx,MinutoTx); 
08F90:  MOVFF  3C9,3F6
08F94:  MOVFF  3C8,3F7
08F98:  MOVFF  3C7,3F8
08F9C:  MOVFF  3CD,3F9
08FA0:  MOVFF  3CA,3FA
08FA4:  MOVFF  3CB,3FB
08FA8:  GOTO   4B4A
08FAC:  MOVLB  3
....................          } 
....................           
....................          if((RX_Buffer[4]==0x2a)|| UP){//Tecla Arriba Oprimida 
08FAE:  MOVF   34,W
08FB0:  SUBLW  2A
08FB2:  BZ    8FBA
08FB4:  BSF    F93.6
08FB6:  BTFSC  F81.6
08FB8:  BRA    9082
....................             delay_ms(200); 
08FBA:  MOVLW  C8
08FBC:  MOVLB  4
08FBE:  MOVWF  x01
08FC0:  MOVLB  0
08FC2:  CALL   1BD4
....................             if((RX_Buffer[4]==0x2a)|| UP){    
08FC6:  MOVF   34,W
08FC8:  SUBLW  2A
08FCA:  BZ    8FD2
08FCC:  BSF    F93.6
08FCE:  BTFSC  F81.6
08FD0:  BRA    9084
....................                if(Opcion==1){ 
08FD2:  MOVLB  3
08FD4:  DECFSZ x90,W
08FD6:  BRA    9040
....................                   if(MesTx==2){ 
08FD8:  MOVF   xC8,W
08FDA:  SUBLW  02
08FDC:  BNZ   9006
....................                      if(esBisiesto(YearTx)){ 
08FDE:  MOVFF  3C7,3F6
08FE2:  MOVLB  0
08FE4:  CALL   4AC6
08FE8:  MOVF   01,F
08FEA:  BZ    8FFA
....................                         if(DiaTx<29) 
08FEC:  MOVLB  3
08FEE:  MOVF   xC9,W
08FF0:  SUBLW  1C
08FF2:  BNC   8FF6
....................                            DiaTx++; 
08FF4:  INCF   xC9,F
....................                      }else{ 
08FF6:  BRA    9004
08FF8:  MOVLB  0
....................                         if(DiaTx<28) 
08FFA:  MOVLB  3
08FFC:  MOVF   xC9,W
08FFE:  SUBLW  1B
09000:  BNC   9004
....................                            DiaTx++; 
09002:  INCF   xC9,F
....................                      } 
....................                   }else{ 
09004:  BRA    903E
....................                      if(MesTx<=7){ 
09006:  MOVF   xC8,W
09008:  SUBLW  07
0900A:  BNC   9026
....................                         if(MesTx % 2 ==0){ 
0900C:  MOVF   xC8,W
0900E:  ANDLW  01
09010:  BNZ   901C
....................                            if(DiaTx<30) 
09012:  MOVF   xC9,W
09014:  SUBLW  1D
09016:  BNC   901A
....................                               DiaTx++;     
09018:  INCF   xC9,F
....................                         }else{ 
0901A:  BRA    9024
....................                            if(DiaTx<31) 
0901C:  MOVF   xC9,W
0901E:  SUBLW  1E
09020:  BNC   9024
....................                               DiaTx++;     
09022:  INCF   xC9,F
....................                         }     
....................                      }else{ 
09024:  BRA    903E
....................                         if(MesTx % 2 ==0){ 
09026:  MOVF   xC8,W
09028:  ANDLW  01
0902A:  BNZ   9036
....................                            if(DiaTx<31) 
0902C:  MOVF   xC9,W
0902E:  SUBLW  1E
09030:  BNC   9034
....................                               DiaTx++;     
09032:  INCF   xC9,F
....................                         }else{ 
09034:  BRA    903E
....................                            if(DiaTx<30) 
09036:  MOVF   xC9,W
09038:  SUBLW  1D
0903A:  BNC   903E
....................                               DiaTx++;     
0903C:  INCF   xC9,F
....................                         }     
....................                      } 
....................                   } 
....................                }else if(Opcion==2){ 
0903E:  BRA    907E
09040:  MOVF   x90,W
09042:  SUBLW  02
09044:  BNZ   9050
....................                if(MesTx<12) 
09046:  MOVF   xC8,W
09048:  SUBLW  0B
0904A:  BNC   904E
....................                   MesTx++; 
0904C:  INCF   xC8,F
....................                }else if(Opcion==3){ 
0904E:  BRA    907E
09050:  MOVF   x90,W
09052:  SUBLW  03
09054:  BNZ   9060
....................                   if(YearTx<99) 
09056:  MOVF   xC7,W
09058:  SUBLW  62
0905A:  BNC   905E
....................                      YearTx++; 
0905C:  INCF   xC7,F
....................                }else if(Opcion==4){ 
0905E:  BRA    907E
09060:  MOVF   x90,W
09062:  SUBLW  04
09064:  BNZ   9070
....................                   if(HoraTx<24) 
09066:  MOVF   xCA,W
09068:  SUBLW  17
0906A:  BNC   906E
....................                      HoraTx++; 
0906C:  INCF   xCA,F
....................                }else if(Opcion==5){ 
0906E:  BRA    907E
09070:  MOVF   x90,W
09072:  SUBLW  05
09074:  BNZ   907E
....................                   if(MinutoTx<59) 
09076:  MOVF   xCB,W
09078:  SUBLW  3A
0907A:  BNC   907E
....................                      MinutoTx++; 
0907C:  INCF   xCB,F
....................                } 
....................                RX_Buffer[4]=0x00; 
0907E:  CLRF   34
....................                RX_Buffer2[4]=0x00; 
09080:  CLRF   3F
09082:  MOVLB  0
....................                //BorraBuffer(); 
....................             } 
....................          } 
....................           
....................          if(RX_Buffer[4]==0x2b || DOWN){//Tecla Abajo Oprimida 
09084:  MOVF   34,W
09086:  SUBLW  2B
09088:  BZ    9090
0908A:  BSF    F93.5
0908C:  BTFSC  F81.5
0908E:  BRA    90F4
....................             delay_ms(200); 
09090:  MOVLW  C8
09092:  MOVLB  4
09094:  MOVWF  x01
09096:  MOVLB  0
09098:  CALL   1BD4
....................             if(RX_Buffer[4]==0x2b || DOWN){    
0909C:  MOVF   34,W
0909E:  SUBLW  2B
090A0:  BZ    90A8
090A2:  BSF    F93.5
090A4:  BTFSC  F81.5
090A6:  BRA    90F4
....................                if(Opcion==1){ 
090A8:  MOVLB  3
090AA:  DECFSZ x90,W
090AC:  BRA    90B6
....................                   if(DiaTx>0) 
090AE:  MOVF   xC9,F
090B0:  BZ    90B4
....................                      DiaTx--; 
090B2:  DECF   xC9,F
....................                }else if(Opcion==2){ 
090B4:  BRA    90EE
090B6:  MOVF   x90,W
090B8:  SUBLW  02
090BA:  BNZ   90C6
....................                   if(MesTx>1) 
090BC:  MOVF   xC8,W
090BE:  SUBLW  01
090C0:  BC    90C4
....................                      MesTx--; 
090C2:  DECF   xC8,F
....................                }else if(Opcion==3){ 
090C4:  BRA    90EE
090C6:  MOVF   x90,W
090C8:  SUBLW  03
090CA:  BNZ   90D4
....................                   if(YearTx>0) 
090CC:  MOVF   xC7,F
090CE:  BZ    90D2
....................                      YearTx--; 
090D0:  DECF   xC7,F
....................                }else if(Opcion==4){ 
090D2:  BRA    90EE
090D4:  MOVF   x90,W
090D6:  SUBLW  04
090D8:  BNZ   90E2
....................                   if(HoraTx>0) 
090DA:  MOVF   xCA,F
090DC:  BZ    90E0
....................                      HoraTx--; 
090DE:  DECF   xCA,F
....................                }else if(Opcion==5){ 
090E0:  BRA    90EE
090E2:  MOVF   x90,W
090E4:  SUBLW  05
090E6:  BNZ   90EE
....................                   if(MinutoTx>0) 
090E8:  MOVF   xCB,F
090EA:  BZ    90EE
....................                      MinutoTx--; 
090EC:  DECF   xCB,F
....................                } 
....................                RX_Buffer[4]=0x00; 
090EE:  CLRF   34
....................                RX_Buffer2[4]=0x00; 
090F0:  CLRF   3F
090F2:  MOVLB  0
....................                //BorraBuffer(); 
....................             } 
....................          } 
....................        
....................       printf("thora.txt=\"%02u\"",HoraTx); 
090F4:  MOVLW  44
090F6:  MOVWF  FF6
090F8:  MOVLW  13
090FA:  MOVWF  FF7
090FC:  MOVLW  00
090FE:  MOVWF  FF8
09100:  MOVLW  0B
09102:  MOVLB  3
09104:  MOVWF  xFA
09106:  MOVLB  0
09108:  CALL   45DE
0910C:  MOVFF  3CA,3F7
09110:  MOVLW  01
09112:  MOVLB  3
09114:  MOVWF  xF8
09116:  MOVLB  0
09118:  CALL   4646
0911C:  MOVLW  22
0911E:  BTFSS  F9E.4
09120:  BRA    911E
09122:  MOVWF  FAD
....................       SendDataDisplay(); 
09124:  CALL   342A
....................       printf("tminutos.txt=\"%02u\"",MinutoTx); 
09128:  MOVLW  56
0912A:  MOVWF  FF6
0912C:  MOVLW  13
0912E:  MOVWF  FF7
09130:  MOVLW  00
09132:  MOVWF  FF8
09134:  MOVLW  0E
09136:  MOVLB  3
09138:  MOVWF  xFA
0913A:  MOVLB  0
0913C:  CALL   45DE
09140:  MOVFF  3CB,3F7
09144:  MOVLW  01
09146:  MOVLB  3
09148:  MOVWF  xF8
0914A:  MOVLB  0
0914C:  CALL   4646
09150:  MOVLW  22
09152:  BTFSS  F9E.4
09154:  BRA    9152
09156:  MOVWF  FAD
....................       SendDataDisplay(); 
09158:  CALL   342A
....................       printf("tdia.txt=\"%02u\"",DiaTx); 
0915C:  MOVLW  6A
0915E:  MOVWF  FF6
09160:  MOVLW  13
09162:  MOVWF  FF7
09164:  MOVLW  00
09166:  MOVWF  FF8
09168:  MOVLW  0A
0916A:  MOVLB  3
0916C:  MOVWF  xFA
0916E:  MOVLB  0
09170:  CALL   45DE
09174:  MOVFF  3C9,3F7
09178:  MOVLW  01
0917A:  MOVLB  3
0917C:  MOVWF  xF8
0917E:  MOVLB  0
09180:  CALL   4646
09184:  MOVLW  22
09186:  BTFSS  F9E.4
09188:  BRA    9186
0918A:  MOVWF  FAD
....................       SendDataDisplay(); 
0918C:  CALL   342A
....................       printf("tmes.txt=\"%02u\"",MesTx); 
09190:  MOVLW  7A
09192:  MOVWF  FF6
09194:  MOVLW  13
09196:  MOVWF  FF7
09198:  MOVLW  00
0919A:  MOVWF  FF8
0919C:  MOVLW  0A
0919E:  MOVLB  3
091A0:  MOVWF  xFA
091A2:  MOVLB  0
091A4:  CALL   45DE
091A8:  MOVFF  3C8,3F7
091AC:  MOVLW  01
091AE:  MOVLB  3
091B0:  MOVWF  xF8
091B2:  MOVLB  0
091B4:  CALL   4646
091B8:  MOVLW  22
091BA:  BTFSS  F9E.4
091BC:  BRA    91BA
091BE:  MOVWF  FAD
....................       SendDataDisplay(); 
091C0:  CALL   342A
....................       printf("tyear.txt=\"%02u\"",YearTx); 
091C4:  MOVLW  8A
091C6:  MOVWF  FF6
091C8:  MOVLW  13
091CA:  MOVWF  FF7
091CC:  MOVLW  00
091CE:  MOVWF  FF8
091D0:  MOVLW  0B
091D2:  MOVLB  3
091D4:  MOVWF  xFA
091D6:  MOVLB  0
091D8:  CALL   45DE
091DC:  MOVFF  3C7,3F7
091E0:  MOVLW  01
091E2:  MOVLB  3
091E4:  MOVWF  xF8
091E6:  MOVLB  0
091E8:  CALL   4646
091EC:  MOVLW  22
091EE:  BTFSS  F9E.4
091F0:  BRA    91EE
091F2:  MOVWF  FAD
....................       SendDataDisplay(); 
091F4:  CALL   342A
....................       LimitaDia();   
091F8:  GOTO   4C06
091FC:  MOVLB  3
....................     } 
.................... //_--------------------------------------------------------------------------------------------------------------------------------------------------------        
....................  
.................... //_--------------------------------------------------------------------------------------------------------------------------------------------------------     
....................    if(Menu==20){ // Este es el menu de cuando el proceso se inicio. 
091FE:  MOVF   x87,W
09200:  SUBLW  14
09202:  BTFSS  FD8.2
09204:  GOTO   A0D4
....................    //Lectura_Esclavos(); 
....................     
....................    //Envio_Esclavos(); 
....................    if(CicloSeleccionado==1){ 
09208:  DECFSZ x8E,W
0920A:  BRA    923A
....................       printf("t2f.txt=\"1\""); 
0920C:  MOVLW  9C
0920E:  MOVWF  FF6
09210:  MOVLW  13
09212:  MOVWF  FF7
09214:  MOVLW  00
09216:  MOVWF  FF8
09218:  MOVLB  0
0921A:  CALL   33F8
....................       SendDataDisplay(); 
0921E:  CALL   342A
....................       printf("t3f.txt=\"PLASTICO\""); 
09222:  MOVLW  A8
09224:  MOVWF  FF6
09226:  MOVLW  13
09228:  MOVWF  FF7
0922A:  MOVLW  00
0922C:  MOVWF  FF8
0922E:  CALL   33F8
....................       SendDataDisplay(); 
09232:  CALL   342A
....................    }else if(CicloSeleccionado==2){ 
09236:  BRA    9306
09238:  MOVLB  3
0923A:  MOVF   x8E,W
0923C:  SUBLW  02
0923E:  BNZ   926E
....................       printf("t2f.txt=\"2\""); 
09240:  MOVLW  BC
09242:  MOVWF  FF6
09244:  MOVLW  13
09246:  MOVWF  FF7
09248:  MOVLW  00
0924A:  MOVWF  FF8
0924C:  MOVLB  0
0924E:  CALL   33F8
....................       SendDataDisplay(); 
09252:  CALL   342A
....................       printf("t3f.txt=\"INSTRUMENTAL\""); 
09256:  MOVLW  C8
09258:  MOVWF  FF6
0925A:  MOVLW  13
0925C:  MOVWF  FF7
0925E:  MOVLW  00
09260:  MOVWF  FF8
09262:  CALL   33F8
....................       SendDataDisplay(); 
09266:  CALL   342A
....................    }else if(CicloSeleccionado==3){ 
0926A:  BRA    9306
0926C:  MOVLB  3
0926E:  MOVF   x8E,W
09270:  SUBLW  03
09272:  BNZ   92A2
....................       printf("t2f.txt=\"3\""); 
09274:  MOVLW  E0
09276:  MOVWF  FF6
09278:  MOVLW  13
0927A:  MOVWF  FF7
0927C:  MOVLW  00
0927E:  MOVWF  FF8
09280:  MOVLB  0
09282:  CALL   33F8
....................       SendDataDisplay(); 
09286:  CALL   342A
....................       printf("t3f.txt=\"LIQUIDOS A\""); 
0928A:  MOVLW  EC
0928C:  MOVWF  FF6
0928E:  MOVLW  13
09290:  MOVWF  FF7
09292:  MOVLW  00
09294:  MOVWF  FF8
09296:  CALL   33F8
....................       SendDataDisplay(); 
0929A:  CALL   342A
....................    }else if(CicloSeleccionado==4){ 
0929E:  BRA    9306
092A0:  MOVLB  3
092A2:  MOVF   x8E,W
092A4:  SUBLW  04
092A6:  BNZ   92D6
....................       printf("t2f.txt=\"4\""); 
092A8:  MOVLW  02
092AA:  MOVWF  FF6
092AC:  MOVLW  14
092AE:  MOVWF  FF7
092B0:  MOVLW  00
092B2:  MOVWF  FF8
092B4:  MOVLB  0
092B6:  CALL   33F8
....................       SendDataDisplay(); 
092BA:  CALL   342A
....................       printf("t3f.txt=\"LIQUIDOS B\""); 
092BE:  MOVLW  0E
092C0:  MOVWF  FF6
092C2:  MOVLW  14
092C4:  MOVWF  FF7
092C6:  MOVLW  00
092C8:  MOVWF  FF8
092CA:  CALL   33F8
....................       SendDataDisplay(); 
092CE:  CALL   342A
....................    }else if(CicloSeleccionado==5){ 
092D2:  BRA    9306
092D4:  MOVLB  3
092D6:  MOVF   x8E,W
092D8:  SUBLW  05
092DA:  BNZ   9308
....................       printf("t2f.txt=\"5\""); 
092DC:  MOVLW  24
092DE:  MOVWF  FF6
092E0:  MOVLW  14
092E2:  MOVWF  FF7
092E4:  MOVLW  00
092E6:  MOVWF  FF8
092E8:  MOVLB  0
092EA:  CALL   33F8
....................       SendDataDisplay(); 
092EE:  CALL   342A
....................       printf("t3f.txt=\"LIBRE\""); 
092F2:  MOVLW  30
092F4:  MOVWF  FF6
092F6:  MOVLW  14
092F8:  MOVWF  FF7
092FA:  MOVLW  00
092FC:  MOVWF  FF8
092FE:  CALL   33F8
....................       SendDataDisplay(); 
09302:  CALL   342A
09306:  MOVLB  3
....................    } 
....................     
....................    if(RIGHT){ 
09308:  BSF    F93.4
0930A:  BTFSC  F81.4
0930C:  BRA    932E
....................       //glcd_init(ON); 
....................       delay_ms(1000); 
0930E:  MOVLW  04
09310:  MOVWF  xF6
09312:  MOVLW  FA
09314:  MOVLB  4
09316:  MOVWF  x01
09318:  MOVLB  0
0931A:  CALL   1BD4
0931E:  MOVLB  3
09320:  DECFSZ xF6,F
09322:  BRA    9312
....................       flagCalentando=OFF; 
09324:  MOVLB  0
09326:  BCF    xC5.5
....................       flagDesfogando=OFF; 
09328:  BCF    xC5.7
....................       flagEsterilizando=OFF; 
0932A:  BCF    xC5.6
0932C:  MOVLB  3
....................    } 
....................     
....................    if(PresionPreCamara>302 || PresionCamara>255){ 
0932E:  MOVF   xA4,W
09330:  SUBLW  00
09332:  BC    933E
09334:  XORLW  FF
09336:  BNZ   9344
09338:  MOVF   xA3,W
0933A:  SUBLW  2E
0933C:  BNC   9344
0933E:  MOVF   xA2,W
09340:  SUBLW  00
09342:  BC    9348
....................       AlarmaPresion=ON; 
09344:  MOVLB  0
09346:  BSF    xC7.4
....................    } 
....................     
....................    if(TiempoCiclo>1800){ 
09348:  MOVLB  0
0934A:  MOVF   xC9,W
0934C:  SUBLW  06
0934E:  BC    936C
09350:  XORLW  FF
09352:  BNZ   935A
09354:  MOVF   xC8,W
09356:  SUBLW  08
09358:  BC    936C
....................       if(PresionPrecamara<10){ 
0935A:  MOVLB  3
0935C:  MOVF   xA4,F
0935E:  BNZ   9368
09360:  MOVF   xA3,W
09362:  SUBLW  09
09364:  BNC   9368
....................          AlarmaTiempoProlongado=ON; 
09366:  BSF    49.1
....................       } 
....................    }else{ 
09368:  BRA    936E
0936A:  MOVLB  0
....................       AlarmaTiempoProlongado=OFF; 
0936C:  BCF    49.1
....................    } 
....................     
....................    if(Temperatura>Setpoint+3.0){ 
0936E:  MOVLB  4
09370:  CLRF   x02
09372:  MOVFF  38F,401
09376:  MOVLB  0
09378:  CALL   1BFC
0937C:  BCF    FD8.1
0937E:  MOVFF  03,404
09382:  MOVFF  02,403
09386:  MOVFF  01,402
0938A:  MOVFF  00,401
0938E:  MOVLB  4
09390:  CLRF   x08
09392:  CLRF   x07
09394:  MOVLW  40
09396:  MOVWF  x06
09398:  MOVLW  80
0939A:  MOVWF  x05
0939C:  MOVLB  0
0939E:  CALL   1DB0
093A2:  MOVFF  03,3FD
093A6:  MOVFF  02,3FC
093AA:  MOVFF  01,3FB
093AE:  MOVFF  00,3FA
093B2:  MOVFF  35C,401
093B6:  MOVFF  35B,400
093BA:  MOVFF  35A,3FF
093BE:  MOVFF  359,3FE
093C2:  CALL   28E0
093C6:  BNC   93CA
....................       AlarmaSobreTemperatura=ON; 
093C8:  BSF    49.2
....................    } 
....................     
....................    if(TiempoLlenado>600){ 
093CA:  MOVF   xCB,W
093CC:  SUBLW  01
093CE:  BC    93DE
093D0:  XORLW  FF
093D2:  BNZ   93DA
093D4:  MOVF   xCA,W
093D6:  SUBLW  58
093D8:  BC    93DE
....................       AlarmaLlenado=ON; 
093DA:  BSF    49.3
....................    }else{ 
093DC:  BRA    93E0
....................       AlarmaLlenado=OFF; 
093DE:  BCF    49.3
....................    } 
....................     
....................    if(!TERM){ 
093E0:  BSF    F93.0
093E2:  BTFSS  F81.0
093E4:  BRA    93E8
....................       AlarmaTermostato=ON; 
093E6:  BSF    49.4
....................    } 
....................     
....................    if(!DOOR){ 
093E8:  BSF    F93.2
093EA:  BTFSS  F81.2
093EC:  BRA    93FE
....................       //Desfogue_off; 
....................       //Solenoide_off; 
....................       Paso_off; 
093EE:  BSF    F8C.3
093F0:  BCF    F95.3
....................       if(!Secando && !Finalizo){ 
093F2:  BTFSC  xC4.3
093F4:  BRA    93FC
093F6:  BTFSC  xC7.3
093F8:  BRA    93FC
....................          AlarmaPuerta=ON; 
093FA:  BSF    49.5
....................       } 
....................    }else{ 
093FC:  BRA    9400
....................       AlarmaPuerta=OFF; 
093FE:  BCF    49.5
....................    } 
....................  
....................    if(!STOP){ 
09400:  BSF    F93.1
09402:  BTFSS  F81.1
09404:  BRA    9408
....................       AlarmaEmergencia=ON; 
09406:  BSF    49.6
....................    } 
....................     
....................    if(AlarmaPuerta || AlarmaTermostato || AlarmaLlenado || AlarmaSobreTemperatura || AlarmaTiempoProlongado || AlarmaEmergencia || AlarmaPresion){ 
09408:  BTFSC  49.5
0940A:  BRA    9424
0940C:  BTFSC  49.4
0940E:  BRA    9424
09410:  BTFSC  49.3
09412:  BRA    9424
09414:  BTFSC  49.2
09416:  BRA    9424
09418:  BTFSC  49.1
0941A:  BRA    9424
0941C:  BTFSC  49.6
0941E:  BRA    9424
09420:  BTFSS  xC7.4
09422:  BRA    9722
....................       ActivaAlarma(1); 
09424:  MOVLW  01
09426:  MOVLB  3
09428:  MOVWF  xF6
0942A:  MOVLB  0
0942C:  CALL   44E2
....................       if(AlarmaEmergencia) 
09430:  BTFSS  49.6
09432:  BRA    94A0
....................       { 
....................          printf("Funcionamiento.t4f.txt=\" Parada de Emergencia\""); 
09434:  MOVLW  40
09436:  MOVWF  FF6
09438:  MOVLW  14
0943A:  MOVWF  FF7
0943C:  MOVLW  00
0943E:  MOVWF  FF8
09440:  CALL   33F8
....................          SendDataDisplay(); 
09444:  CALL   342A
....................          printf("Funcionamiento.t5f.txt=\" Cancelado\""); 
09448:  MOVLW  70
0944A:  MOVWF  FF6
0944C:  MOVLW  14
0944E:  MOVWF  FF7
09450:  MOVLW  00
09452:  MOVWF  FF8
09454:  CALL   33F8
....................          SendDataDisplay(); 
09458:  CALL   342A
....................          Desfogue_on; 
0945C:  BCF    F8C.2
0945E:  BCF    F95.2
....................          AguaIn_off; 
09460:  BSF    F8C.4
09462:  BCF    F95.4
....................          SSR_off; 
09464:  BSF    F8B.1
09466:  BCF    F94.1
....................          Paso_off; 
09468:  BSF    F8C.3
0946A:  BCF    F95.3
....................          Esterilizando=OFF; 
0946C:  BCF    xC4.2
....................          Desfogando=OFF; 
0946E:  BCF    xC4.5
....................          DesfogueSuave=OFF; 
09470:  BCF    xC4.6
....................          //IniciaCiclo=OFF; 
....................          Controlando=0; 
09472:  MOVLB  3
09474:  CLRF   x7F
....................          if(!flagImprimir && ActivaImpresion==1){ 
09476:  BTFSC  x7C.0
09478:  BRA    949C
0947A:  DECFSZ x80,W
0947C:  BRA    949C
....................             Imprime=20; 
0947E:  MOVLW  14
09480:  MOVWF  xCF
....................             Envio_Esclavos(); 
09482:  MOVLB  0
09484:  CALL   3E62
....................             delay_ms(100); 
09488:  MOVLW  64
0948A:  MOVLB  4
0948C:  MOVWF  x01
0948E:  MOVLB  0
09490:  CALL   1BD4
....................             Imprime=10; 
09494:  MOVLW  0A
09496:  MOVLB  3
09498:  MOVWF  xCF
....................             flagImprimir=1; 
0949A:  BSF    x7C.0
....................          } 
....................       }else{ 
0949C:  BRA    971E
0949E:  MOVLB  0
....................          if(AlarmaPuerta) 
094A0:  BTFSS  49.5
094A2:  BRA    94E4
....................          { 
....................             printf("Funcionamiento.t4f.txt=\" Puerta Abierta\""); 
094A4:  MOVLW  94
094A6:  MOVWF  FF6
094A8:  MOVLW  14
094AA:  MOVWF  FF7
094AC:  MOVLW  00
094AE:  MOVWF  FF8
094B0:  CALL   33F8
....................             SendDataDisplay(); 
094B4:  CALL   342A
....................             printf("Funcionamiento.t5f.txt=\" Pausado\""); 
094B8:  MOVLW  BE
094BA:  MOVWF  FF6
094BC:  MOVLW  14
094BE:  MOVWF  FF7
094C0:  MOVLW  00
094C2:  MOVWF  FF8
094C4:  CALL   33F8
....................             SendDataDisplay(); 
094C8:  CALL   342A
....................             SSR_off; 
094CC:  BSF    F8B.1
094CE:  BCF    F94.1
....................             Paso_off; 
094D0:  BSF    F8C.3
094D2:  BCF    F95.3
....................             IniciaLlenado=OFF; 
094D4:  BCF    49.7
....................             IniciaCiclo=OFF; 
094D6:  BCF    xC4.1
....................             Controlando=0; 
094D8:  MOVLB  3
094DA:  CLRF   x7F
....................             Solenoide_off; 
094DC:  BCF    F8C.0
094DE:  BCF    F95.0
....................          }else{ 
094E0:  BRA    971E
094E2:  MOVLB  0
....................             if(AlarmaLlenado) 
094E4:  BTFSS  49.3
094E6:  BRA    954E
....................             { 
....................                printf("Funcionamiento.t4f.txt=\" Tiempo Llenado\""); 
094E8:  MOVLW  E0
094EA:  MOVWF  FF6
094EC:  MOVLW  14
094EE:  MOVWF  FF7
094F0:  MOVLW  00
094F2:  MOVWF  FF8
094F4:  CALL   33F8
....................                SendDataDisplay(); 
094F8:  CALL   342A
....................                printf("Funcionamiento.t5f.txt=\" Cancelado\""); 
094FC:  MOVLW  0A
094FE:  MOVWF  FF6
09500:  MOVLW  15
09502:  MOVWF  FF7
09504:  MOVLW  00
09506:  MOVWF  FF8
09508:  CALL   33F8
....................                SendDataDisplay(); 
0950C:  CALL   342A
....................                Desfogue_off; 
09510:  BSF    F8C.2
09512:  BCF    F95.2
....................                AguaIn_off; 
09514:  BSF    F8C.4
09516:  BCF    F95.4
....................                SSR_off; 
09518:  BSF    F8B.1
0951A:  BCF    F94.1
....................                Paso_off; 
0951C:  BSF    F8C.3
0951E:  BCF    F95.3
....................                Controlando=0; 
09520:  MOVLB  3
09522:  CLRF   x7F
....................                if(!flagImprimir && ActivaImpresion==1){ 
09524:  BTFSC  x7C.0
09526:  BRA    954A
09528:  DECFSZ x80,W
0952A:  BRA    954A
....................                   Imprime=21; 
0952C:  MOVLW  15
0952E:  MOVWF  xCF
....................                   Envio_Esclavos(); 
09530:  MOVLB  0
09532:  CALL   3E62
....................                   delay_ms(100); 
09536:  MOVLW  64
09538:  MOVLB  4
0953A:  MOVWF  x01
0953C:  MOVLB  0
0953E:  CALL   1BD4
....................                   Imprime=10; 
09542:  MOVLW  0A
09544:  MOVLB  3
09546:  MOVWF  xCF
....................                   flagImprimir=1; 
09548:  BSF    x7C.0
....................                } 
....................             }else{ 
0954A:  BRA    971E
0954C:  MOVLB  0
....................                if(AlarmaTermostato) // Alarma de Termostato 
0954E:  BTFSS  49.4
09550:  BRA    95C6
....................                { 
....................                   tiempo_esterilizacion=0;tiempo_secado=0;          
09552:  MOVLB  3
09554:  CLRF   x92
09556:  CLRF   x93
....................                   printf("Funcionamiento.t4f.txt=\" Termostato\""); 
09558:  MOVLW  2E
0955A:  MOVWF  FF6
0955C:  MOVLW  15
0955E:  MOVWF  FF7
09560:  MOVLW  00
09562:  MOVWF  FF8
09564:  MOVLB  0
09566:  CALL   33F8
....................                   SendDataDisplay(); 
0956A:  CALL   342A
....................                   printf("Funcionamiento.t5f.txt=\" Cancelado\""); 
0956E:  MOVLW  54
09570:  MOVWF  FF6
09572:  MOVLW  15
09574:  MOVWF  FF7
09576:  MOVLW  00
09578:  MOVWF  FF8
0957A:  CALL   33F8
....................                   SendDataDisplay(); 
0957E:  CALL   342A
....................                   Desfogue_on; 
09582:  BCF    F8C.2
09584:  BCF    F95.2
....................                   AguaIn_off; 
09586:  BSF    F8C.4
09588:  BCF    F95.4
....................                   SSR_off; 
0958A:  BSF    F8B.1
0958C:  BCF    F94.1
....................                   Paso_off; 
0958E:  BSF    F8C.3
09590:  BCF    F95.3
....................                   Esterilizando=OFF; 
09592:  BCF    xC4.2
....................                   Desfogando=OFF; 
09594:  BCF    xC4.5
....................                   IniciaCiclo=OFF; 
09596:  BCF    xC4.1
....................                   Controlando=0; 
09598:  MOVLB  3
0959A:  CLRF   x7F
....................                   if(!flagImprimir && ActivaImpresion==1){ 
0959C:  BTFSC  x7C.0
0959E:  BRA    95C2
095A0:  DECFSZ x80,W
095A2:  BRA    95C2
....................                      Imprime=22; 
095A4:  MOVLW  16
095A6:  MOVWF  xCF
....................                      Envio_Esclavos(); 
095A8:  MOVLB  0
095AA:  CALL   3E62
....................                      delay_ms(100); 
095AE:  MOVLW  64
095B0:  MOVLB  4
095B2:  MOVWF  x01
095B4:  MOVLB  0
095B6:  CALL   1BD4
....................                      Imprime=10; 
095BA:  MOVLW  0A
095BC:  MOVLB  3
095BE:  MOVWF  xCF
....................                      flagImprimir=1; 
095C0:  BSF    x7C.0
....................                   } 
....................                }else{ 
095C2:  BRA    971E
095C4:  MOVLB  0
....................                   if(AlarmaSobreTemperatura) // Alarma de Sobre Temperatura 
095C6:  BTFSS  49.2
095C8:  BRA    9638
....................                   { 
....................                      tiempo_esterilizacion=0;tiempo_secado=0;          
095CA:  MOVLB  3
095CC:  CLRF   x92
095CE:  CLRF   x93
....................                      printf("Funcionamiento.t4f.txt=\" Sobretemperatura\""); 
095D0:  MOVLW  78
095D2:  MOVWF  FF6
095D4:  MOVLW  15
095D6:  MOVWF  FF7
095D8:  MOVLW  00
095DA:  MOVWF  FF8
095DC:  MOVLB  0
095DE:  CALL   33F8
....................                      SendDataDisplay(); 
095E2:  CALL   342A
....................                      printf("Funcionamiento.t5f.txt=\" Cancelado\""); 
095E6:  MOVLW  A4
095E8:  MOVWF  FF6
095EA:  MOVLW  15
095EC:  MOVWF  FF7
095EE:  MOVLW  00
095F0:  MOVWF  FF8
095F2:  CALL   33F8
....................                      SendDataDisplay();   
095F6:  CALL   342A
....................                      Desfogue_on; 
095FA:  BCF    F8C.2
095FC:  BCF    F95.2
....................                      SSR_off; 
095FE:  BSF    F8B.1
09600:  BCF    F94.1
....................                      Paso_off; 
09602:  BSF    F8C.3
09604:  BCF    F95.3
....................                      Controlando=0; 
09606:  MOVLB  3
09608:  CLRF   x7F
....................                      AguaIn_off; 
0960A:  BSF    F8C.4
0960C:  BCF    F95.4
....................                      if(!flagImprimir && ActivaImpresion==1){ 
0960E:  BTFSC  x7C.0
09610:  BRA    9634
09612:  DECFSZ x80,W
09614:  BRA    9634
....................                         Imprime=23; 
09616:  MOVLW  17
09618:  MOVWF  xCF
....................                         Envio_Esclavos(); 
0961A:  MOVLB  0
0961C:  CALL   3E62
....................                         delay_ms(100); 
09620:  MOVLW  64
09622:  MOVLB  4
09624:  MOVWF  x01
09626:  MOVLB  0
09628:  CALL   1BD4
....................                         Imprime=10; 
0962C:  MOVLW  0A
0962E:  MOVLB  3
09630:  MOVWF  xCF
....................                         flagImprimir=1; 
09632:  BSF    x7C.0
....................                      } 
....................                   }else{ 
09634:  BRA    971E
09636:  MOVLB  0
....................                      if(AlarmaTiempoProlongado) // Alarma de Error de Tiempo: Error por exceso de tiempo de calentamiento. 
09638:  BTFSS  49.1
0963A:  BRA    96A2
....................                      { 
....................                         printf("Funcionamiento.t4f.txt=\" Tiempo Prolongado\""); 
0963C:  MOVLW  C8
0963E:  MOVWF  FF6
09640:  MOVLW  15
09642:  MOVWF  FF7
09644:  MOVLW  00
09646:  MOVWF  FF8
09648:  CALL   33F8
....................                         SendDataDisplay(); 
0964C:  CALL   342A
....................                         printf("Funcionamiento.t5f.txt=\" Cancelado\""); 
09650:  MOVLW  F4
09652:  MOVWF  FF6
09654:  MOVLW  15
09656:  MOVWF  FF7
09658:  MOVLW  00
0965A:  MOVWF  FF8
0965C:  CALL   33F8
....................                         SendDataDisplay(); 
09660:  CALL   342A
....................                         Desfogue_on; 
09664:  BCF    F8C.2
09666:  BCF    F95.2
....................                         AguaIn_off; 
09668:  BSF    F8C.4
0966A:  BCF    F95.4
....................                         SSR_off; 
0966C:  BSF    F8B.1
0966E:  BCF    F94.1
....................                         Paso_off; 
09670:  BSF    F8C.3
09672:  BCF    F95.3
....................                         Controlando=0; 
09674:  MOVLB  3
09676:  CLRF   x7F
....................                         if(!flagImprimir && ActivaImpresion==1){ 
09678:  BTFSC  x7C.0
0967A:  BRA    969E
0967C:  DECFSZ x80,W
0967E:  BRA    969E
....................                            Imprime=24; 
09680:  MOVLW  18
09682:  MOVWF  xCF
....................                            Envio_Esclavos(); 
09684:  MOVLB  0
09686:  CALL   3E62
....................                            delay_ms(100); 
0968A:  MOVLW  64
0968C:  MOVLB  4
0968E:  MOVWF  x01
09690:  MOVLB  0
09692:  CALL   1BD4
....................                            Imprime=10; 
09696:  MOVLW  0A
09698:  MOVLB  3
0969A:  MOVWF  xCF
....................                            flagImprimir=1; 
0969C:  BSF    x7C.0
....................                         } 
....................                      }else{ 
0969E:  BRA    971E
096A0:  MOVLB  0
....................                         if(AlarmaPresion) // Alarma de Error de SobrePresion: Error por exceso de Presion. 
096A2:  BTFSS  xC7.4
096A4:  BRA    9720
....................                         { 
....................                            printf("Funcionamiento.t4f.txt=\" SobrePresin\""); 
096A6:  MOVLW  18
096A8:  MOVWF  FF6
096AA:  MOVLW  16
096AC:  MOVWF  FF7
096AE:  MOVLW  00
096B0:  MOVWF  FF8
096B2:  CALL   33F8
....................                            SendDataDisplay(); 
096B6:  CALL   342A
....................                            printf("Funcionamiento.t5f.txt=\" Cancelado\""); 
096BA:  MOVLW  40
096BC:  MOVWF  FF6
096BE:  MOVLW  16
096C0:  MOVWF  FF7
096C2:  MOVLW  00
096C4:  MOVWF  FF8
096C6:  CALL   33F8
....................                            SendDataDisplay(); 
096CA:  CALL   342A
....................                            Desfogue_on; 
096CE:  BCF    F8C.2
096D0:  BCF    F95.2
....................                            AguaIn_off; 
096D2:  BSF    F8C.4
096D4:  BCF    F95.4
....................                            SSR_off; 
096D6:  BSF    F8B.1
096D8:  BCF    F94.1
....................                            if(PresionPreCamara>20 && DOOR) 
096DA:  MOVLB  3
096DC:  MOVF   xA4,F
096DE:  BNZ   96E6
096E0:  MOVF   xA3,W
096E2:  SUBLW  14
096E4:  BC    96F2
096E6:  BSF    F93.2
096E8:  BTFSC  F81.2
096EA:  BRA    96F2
....................                               Paso_on; 
096EC:  BCF    F8C.3
096EE:  BCF    F95.3
....................                            else 
096F0:  BRA    96F6
....................                               Paso_off; 
096F2:  BSF    F8C.3
096F4:  BCF    F95.3
....................                            Controlando=0; 
096F6:  CLRF   x7F
....................                            if(!flagImprimir && ActivaImpresion==1){ 
096F8:  BTFSC  x7C.0
096FA:  BRA    971E
096FC:  DECFSZ x80,W
096FE:  BRA    971E
....................                               Imprime=24; 
09700:  MOVLW  18
09702:  MOVWF  xCF
....................                               Envio_Esclavos(); 
09704:  MOVLB  0
09706:  CALL   3E62
....................                               delay_ms(100); 
0970A:  MOVLW  64
0970C:  MOVLB  4
0970E:  MOVWF  x01
09710:  MOVLB  0
09712:  CALL   1BD4
....................                               Imprime=10; 
09716:  MOVLW  0A
09718:  MOVLB  3
0971A:  MOVWF  xCF
....................                               flagImprimir=1; 
0971C:  BSF    x7C.0
0971E:  MOVLB  0
....................                            } 
....................                         } 
....................                      } 
....................                   } 
....................                } 
....................             } 
....................          } 
....................       } 
....................    } 
....................    else 
09720:  BRA    9D66
....................    {   
....................       Buzzer_off; 
09722:  BCF    F8B.5
09724:  BCF    F94.5
....................       IniciaCiclo=ON; 
09726:  BSF    xC4.1
....................       if(flagImprime && ActivaImpresion==1){ 
09728:  MOVLB  3
0972A:  BTFSS  x7B.7
0972C:  BRA    9750
0972E:  DECFSZ x80,W
09730:  BRA    9750
....................          Imprime=5; 
09732:  MOVLW  05
09734:  MOVWF  xCF
....................          Envio_Esclavos(); 
09736:  MOVLB  0
09738:  CALL   3E62
....................          delay_ms(100); 
0973C:  MOVLW  64
0973E:  MOVLB  4
09740:  MOVWF  x01
09742:  MOVLB  0
09744:  CALL   1BD4
....................          Imprime=10; 
09748:  MOVLW  0A
0974A:  MOVLB  3
0974C:  MOVWF  xCF
....................          flagImprime=0; 
0974E:  BCF    x7B.7
....................       } 
....................          if(!CalderinLleno){ 
09750:  MOVLB  0
09752:  BTFSC  xC4.0
09754:  BRA    9796
....................             printf("Funcionamiento.t4f.txt=\" Ninguna\""); 
09756:  MOVLW  64
09758:  MOVWF  FF6
0975A:  MOVLW  16
0975C:  MOVWF  FF7
0975E:  MOVLW  00
09760:  MOVWF  FF8
09762:  CALL   33F8
....................             SendDataDisplay(); 
09766:  CALL   342A
....................             printf("Funcionamiento.t5f.txt=\" Llenando\""); 
0976A:  MOVLW  86
0976C:  MOVWF  FF6
0976E:  MOVLW  16
09770:  MOVWF  FF7
09772:  MOVLW  00
09774:  MOVWF  FF8
09776:  CALL   33F8
....................             SendDataDisplay(); 
0977A:  CALL   342A
....................             Control=0; 
0977E:  MOVLB  3
09780:  CLRF   x7D
....................             IniciaLlenado=ON; 
09782:  BSF    49.7
....................             Controlando=0; 
09784:  CLRF   x7F
....................             Desfogue_on; 
09786:  BCF    F8C.2
09788:  BCF    F95.2
....................             AguaIn_on; 
0978A:  BCF    F8C.4
0978C:  BCF    F95.4
....................             Paso_off; 
0978E:  BSF    F8C.3
09790:  BCF    F95.3
....................          } 
....................          else{ 
09792:  BRA    9D68
09794:  MOVLB  0
....................             AguaIn_off; 
09796:  BSF    F8C.4
09798:  BCF    F95.4
....................             if(Temperatura>=((float)Setpoint-0.3)){ 
0979A:  MOVLB  4
0979C:  CLRF   x02
0979E:  MOVFF  38F,401
097A2:  MOVLB  0
097A4:  CALL   1BFC
097A8:  MOVFF  00,3F6
097AC:  MOVFF  01,3F7
097B0:  MOVFF  02,3F8
097B4:  MOVFF  03,3F9
097B8:  BSF    FD8.1
097BA:  MOVFF  03,404
097BE:  MOVFF  02,403
097C2:  MOVFF  01,402
097C6:  MOVFF  00,401
097CA:  MOVLW  9A
097CC:  MOVLB  4
097CE:  MOVWF  x08
097D0:  MOVLW  99
097D2:  MOVWF  x07
097D4:  MOVLW  19
097D6:  MOVWF  x06
097D8:  MOVLW  7D
097DA:  MOVWF  x05
097DC:  MOVLB  0
097DE:  CALL   1DB0
097E2:  MOVFF  03,3FD
097E6:  MOVFF  02,3FC
097EA:  MOVFF  01,3FB
097EE:  MOVFF  00,3FA
097F2:  MOVFF  35C,401
097F6:  MOVFF  35B,400
097FA:  MOVFF  35A,3FF
097FE:  MOVFF  359,3FE
09802:  CALL   28E0
09806:  BC    980A
09808:  BNZ   980C
....................                Esterilizando=ON; 
0980A:  BSF    xC4.2
....................             } 
....................              
....................             if(Temperatura<((float)Setpoint-0.9) && !Desfogando){ 
0980C:  MOVLB  4
0980E:  CLRF   x02
09810:  MOVFF  38F,401
09814:  MOVLB  0
09816:  CALL   1BFC
0981A:  MOVFF  00,3F6
0981E:  MOVFF  01,3F7
09822:  MOVFF  02,3F8
09826:  MOVFF  03,3F9
0982A:  BSF    FD8.1
0982C:  MOVFF  03,404
09830:  MOVFF  02,403
09834:  MOVFF  01,402
09838:  MOVFF  00,401
0983C:  MOVLW  66
0983E:  MOVLB  4
09840:  MOVWF  x08
09842:  MOVWF  x07
09844:  MOVWF  x06
09846:  MOVLW  7E
09848:  MOVWF  x05
0984A:  MOVLB  0
0984C:  CALL   1DB0
09850:  MOVFF  35C,3FD
09854:  MOVFF  35B,3FC
09858:  MOVFF  35A,3FB
0985C:  MOVFF  359,3FA
09860:  MOVFF  03,401
09864:  MOVFF  02,400
09868:  MOVFF  01,3FF
0986C:  MOVFF  00,3FE
09870:  CALL   28E0
09874:  BNC   987C
09876:  BTFSC  xC4.5
09878:  BRA    987C
....................                Esterilizando=OFF; 
0987A:  BCF    xC4.2
....................             } 
....................              
....................             if(!Esterilizando){ 
0987C:  BTFSC  xC4.2
0987E:  BRA    9928
....................                printf("Funcionamiento.t4f.txt=\" Ninguna\""); 
09880:  MOVLW  AA
09882:  MOVWF  FF6
09884:  MOVLW  16
09886:  MOVWF  FF7
09888:  MOVLW  00
0988A:  MOVWF  FF8
0988C:  CALL   33F8
....................                SendDataDisplay(); 
09890:  CALL   342A
....................                printf("Funcionamiento.t5f.txt=\" Calentando\""); 
09894:  MOVLW  CC
09896:  MOVWF  FF6
09898:  MOVLW  16
0989A:  MOVWF  FF7
0989C:  MOVLW  00
0989E:  MOVWF  FF8
098A0:  CALL   33F8
....................                SendDataDisplay(); 
098A4:  CALL   342A
....................                Control=1; 
098A8:  MOVLW  01
098AA:  MOVLB  3
098AC:  MOVWF  x7D
....................                Controla(); 
098AE:  MOVLB  0
098B0:  CALL   4D08
....................                if(PresionPreCamara>100){ 
098B4:  MOVLB  3
098B6:  MOVF   xA4,F
098B8:  BNZ   98C0
098BA:  MOVF   xA3,W
098BC:  SUBLW  64
098BE:  BC    98C4
....................                   Paso_on; 
098C0:  BCF    F8C.3
098C2:  BCF    F95.3
....................                } 
....................                if(Temperatura<=TTrampa){ 
098C4:  MOVLB  4
098C6:  CLRF   x02
098C8:  MOVFF  317,401
098CC:  MOVLB  0
098CE:  CALL   1BFC
098D2:  MOVFF  35C,3FD
098D6:  MOVFF  35B,3FC
098DA:  MOVFF  35A,3FB
098DE:  MOVFF  359,3FA
098E2:  MOVFF  03,401
098E6:  MOVFF  02,400
098EA:  MOVFF  01,3FF
098EE:  MOVFF  00,3FE
098F2:  CALL   28E0
098F6:  BC    98FA
098F8:  BNZ   991E
....................                   if(PresionCamara>5){ 
098FA:  MOVLB  3
098FC:  MOVF   xA2,F
098FE:  BNZ   9906
09900:  MOVF   xA1,W
09902:  SUBLW  05
09904:  BC    990C
....................                      Desfogue_on; 
09906:  BCF    F8C.2
09908:  BCF    F95.2
....................                   }else if(PresionCamara<2){ 
0990A:  BRA    991A
0990C:  MOVF   xA2,F
0990E:  BNZ   991A
09910:  MOVF   xA1,W
09912:  SUBLW  01
09914:  BNC   991A
....................                      Desfogue_off; 
09916:  BSF    F8C.2
09918:  BCF    F95.2
....................                   } 
....................                }else{ 
0991A:  BRA    9924
0991C:  MOVLB  0
....................                   Desfogue_off; 
0991E:  BSF    F8C.2
09920:  BCF    F95.2
09922:  MOVLB  3
....................                } 
....................             }else{ 
09924:  BRA    9D68
09926:  MOVLB  0
....................                TiempoCiclo=0; 
09928:  CLRF   xC9
0992A:  CLRF   xC8
....................                if((Testerilizacion[0]==0)&&(Testerilizacion[1]==0)&& 
....................                (Testerilizacion[2]==0)&&(Testerilizacion[3]==0)){  
0992C:  MOVF   xD2,F
0992E:  BTFSS  FD8.2
09930:  BRA    9D2A
09932:  MOVF   xD3,F
09934:  BTFSS  FD8.2
09936:  BRA    9D2A
09938:  MOVF   xD4,F
0993A:  BTFSS  FD8.2
0993C:  BRA    9D2A
0993E:  MOVF   xD5,F
09940:  BTFSS  FD8.2
09942:  BRA    9D2A
....................                   if(desfoguelento){ 
09944:  MOVLB  3
09946:  BTFSS  x7B.1
09948:  BRA    9B16
....................                      Controlando=0; 
0994A:  CLRF   x7F
....................                      if(PresionCamara<25){ 
0994C:  MOVF   xA2,F
0994E:  BTFSS  FD8.2
09950:  BRA    9AD2
09952:  MOVF   xA1,W
09954:  SUBLW  18
09956:  BTFSS  FD8.0
09958:  BRA    9AD2
....................                         Secando=OFF; 
0995A:  MOVLB  0
0995C:  BCF    xC4.3
....................                         DesfogueSuave=OFF; 
0995E:  BCF    xC4.6
....................                         Paso_off; 
09960:  BSF    F8C.3
09962:  BCF    F95.3
....................                         if(!DOOR){ 
09964:  BSF    F93.2
09966:  BTFSS  F81.2
09968:  BRA    9978
....................                            Desfogue_off; 
0996A:  BSF    F8C.2
0996C:  BCF    F95.2
....................                            Solenoide_off; 
0996E:  BCF    F8C.0
09970:  BCF    F95.0
....................                            Paso_off; 
09972:  BSF    F8C.3
09974:  BCF    F95.3
....................                         }else{ 
09976:  BRA    9984
....................                            Desfogue_on; 
09978:  BCF    F8C.2
0997A:  BCF    F95.2
....................                            Solenoide_off; 
0997C:  BCF    F8C.0
0997E:  BCF    F95.0
....................                            Paso_off; 
09980:  BSF    F8C.3
09982:  BCF    F95.3
....................                         } 
....................                         if(PresionCamara<2){ 
09984:  MOVLB  3
09986:  MOVF   xA2,F
09988:  BTFSS  FD8.2
0998A:  BRA    9ACC
0998C:  MOVF   xA1,W
0998E:  SUBLW  01
09990:  BTFSS  FD8.0
09992:  BRA    9ACC
....................                            if((RX_Buffer[3]==0x0f || UP) && DOOR){//0f, recibe caracteres ingresados desde el Display 
09994:  MOVF   33,W
09996:  SUBLW  0F
09998:  BZ    99A0
0999A:  BSF    F93.6
0999C:  BTFSC  F81.6
0999E:  BRA    99E4
099A0:  BSF    F93.2
099A2:  BTFSC  F81.2
099A4:  BRA    99E4
....................                               delay_ms(50); 
099A6:  MOVLW  32
099A8:  MOVLB  4
099AA:  MOVWF  x01
099AC:  MOVLB  0
099AE:  CALL   1BD4
....................                               if((RX_Buffer[3]==0x0f || UP) && DOOR){ 
099B2:  MOVF   33,W
099B4:  SUBLW  0F
099B6:  BZ    99BE
099B8:  BSF    F93.6
099BA:  BTFSC  F81.6
099BC:  BRA    99E6
099BE:  BSF    F93.2
099C0:  BTFSC  F81.2
099C2:  BRA    99E6
....................                                  Solenoide_on; 
099C4:  BSF    F8C.0
099C6:  BCF    F95.0
....................                                  delay_ms(2000); 
099C8:  MOVLW  08
099CA:  MOVLB  3
099CC:  MOVWF  xF6
099CE:  MOVLW  FA
099D0:  MOVLB  4
099D2:  MOVWF  x01
099D4:  MOVLB  0
099D6:  CALL   1BD4
099DA:  MOVLB  3
099DC:  DECFSZ xF6,F
099DE:  BRA    99CE
....................                                  Solenoide_off; 
099E0:  BCF    F8C.0
099E2:  BCF    F95.0
099E4:  MOVLB  0
....................                               } 
....................                            } 
....................                            ActivaAlarma(2); 
099E6:  MOVLW  02
099E8:  MOVLB  3
099EA:  MOVWF  xF6
099EC:  MOVLB  0
099EE:  CALL   44E2
....................                            printf("Funcionamiento.t4f.txt=\" Ninguna\""); 
099F2:  MOVLW  F2
099F4:  MOVWF  FF6
099F6:  MOVLW  16
099F8:  MOVWF  FF7
099FA:  MOVLW  00
099FC:  MOVWF  FF8
099FE:  CALL   33F8
....................                            SendDataDisplay(); 
09A02:  CALL   342A
....................                            printf("Funcionamiento.t5f.txt=\" Finalizado\""); 
09A06:  MOVLW  14
09A08:  MOVWF  FF6
09A0A:  MOVLW  17
09A0C:  MOVWF  FF7
09A0E:  MOVLW  00
09A10:  MOVWF  FF8
09A12:  CALL   33F8
....................                            SendDataDisplay(); 
09A16:  CALL   342A
....................                            Finalizo=ON; 
09A1A:  BSF    xC7.3
....................                            TiempoCiclo=0; 
09A1C:  CLRF   xC9
09A1E:  CLRF   xC8
....................                            if(!Ciclo){ 
09A20:  BTFSC  xC5.4
09A22:  BRA    9ACE
....................                               Ciclo=ON; 
09A24:  BSF    xC5.4
....................                               Ciclos++; 
09A26:  MOVLB  3
09A28:  INCF   xA5,F
09A2A:  BTFSC  FD8.2
09A2C:  INCF   xA6,F
....................                               CiclosL=make8(Ciclos,0); 
09A2E:  MOVFF  3A5,38C
....................                               CiclosH=make8(Ciclos,1); 
09A32:  MOVFF  3A6,38D
....................                               write_eeprom(37,CiclosL); 
09A36:  CLRF   FAA
09A38:  MOVLW  25
09A3A:  MOVWF  FA9
09A3C:  MOVFF  38C,FA8
09A40:  BCF    FA6.6
09A42:  BCF    FA6.7
09A44:  BSF    FA6.2
09A46:  MOVF   FF2,W
09A48:  MOVWF  00
09A4A:  BCF    FF2.6
09A4C:  BCF    FF2.7
09A4E:  MOVLB  F
09A50:  MOVLW  55
09A52:  MOVWF  FA7
09A54:  MOVLW  AA
09A56:  MOVWF  FA7
09A58:  BSF    FA6.1
09A5A:  BTFSC  FA6.1
09A5C:  BRA    9A5A
09A5E:  BCF    FA6.2
09A60:  MOVF   00,W
09A62:  IORWF  FF2,F
....................                               delay_ms(20); 
09A64:  MOVLW  14
09A66:  MOVLB  4
09A68:  MOVWF  x01
09A6A:  MOVLB  0
09A6C:  CALL   1BD4
....................                               write_eeprom(38,CiclosH); 
09A70:  CLRF   FAA
09A72:  MOVLW  26
09A74:  MOVWF  FA9
09A76:  MOVFF  38D,FA8
09A7A:  BCF    FA6.6
09A7C:  BCF    FA6.7
09A7E:  BSF    FA6.2
09A80:  MOVF   FF2,W
09A82:  MOVWF  00
09A84:  BCF    FF2.6
09A86:  BCF    FF2.7
09A88:  MOVLB  F
09A8A:  MOVLW  55
09A8C:  MOVWF  FA7
09A8E:  MOVLW  AA
09A90:  MOVWF  FA7
09A92:  BSF    FA6.1
09A94:  BTFSC  FA6.1
09A96:  BRA    9A94
09A98:  BCF    FA6.2
09A9A:  MOVF   00,W
09A9C:  IORWF  FF2,F
....................                               delay_ms(20); 
09A9E:  MOVLW  14
09AA0:  MOVLB  4
09AA2:  MOVWF  x01
09AA4:  MOVLB  0
09AA6:  CALL   1BD4
....................                               if(ActivaImpresion==1){ 
09AAA:  MOVLB  3
09AAC:  DECFSZ x80,W
09AAE:  BRA    9ACC
....................                                  Imprime=25; 
09AB0:  MOVLW  19
09AB2:  MOVWF  xCF
....................                                  Envio_Esclavos(); 
09AB4:  MOVLB  0
09AB6:  CALL   3E62
....................                                  delay_ms(100); 
09ABA:  MOVLW  64
09ABC:  MOVLB  4
09ABE:  MOVWF  x01
09AC0:  MOVLB  0
09AC2:  CALL   1BD4
....................                                  Imprime=10; 
09AC6:  MOVLW  0A
09AC8:  MOVLB  3
09ACA:  MOVWF  xCF
09ACC:  MOVLB  0
....................                               } 
....................                            } 
....................                         } 
....................                      }else{ 
09ACE:  BRA    9B12
09AD0:  MOVLB  3
....................                         Desfogando=ON; 
09AD2:  MOVLB  0
09AD4:  BSF    xC4.5
....................                         DesfogueSuave=ON; 
09AD6:  BSF    xC4.6
....................                         printf("Funcionamiento.t4f.txt=\" Ninguna\""); 
09AD8:  MOVLW  3A
09ADA:  MOVWF  FF6
09ADC:  MOVLW  17
09ADE:  MOVWF  FF7
09AE0:  MOVLW  00
09AE2:  MOVWF  FF8
09AE4:  CALL   33F8
....................                         SendDataDisplay(); 
09AE8:  CALL   342A
....................                         printf("Funcionamiento.t5f.txt=\" Despresurizando\""); 
09AEC:  MOVLW  5C
09AEE:  MOVWF  FF6
09AF0:  MOVLW  17
09AF2:  MOVWF  FF7
09AF4:  MOVLW  00
09AF6:  MOVWF  FF8
09AF8:  CALL   33F8
....................                         SendDataDisplay(); 
09AFC:  CALL   342A
....................                         Control=0; 
09B00:  MOVLB  3
09B02:  CLRF   x7D
....................                         SSR_off; 
09B04:  BSF    F8B.1
09B06:  BCF    F94.1
....................                         Paso_off; 
09B08:  BSF    F8C.3
09B0A:  BCF    F95.3
....................                         TiempoCiclo=0; 
09B0C:  MOVLB  0
09B0E:  CLRF   xC9
09B10:  CLRF   xC8
....................                      } 
....................                   }else{ 
09B12:  BRA    9D28
09B14:  MOVLB  3
....................                      //SSR_off; 
....................                      Paso_off; 
09B16:  BSF    F8C.3
09B18:  BCF    F95.3
....................                      Controlando=0; 
09B1A:  CLRF   x7F
....................                      Control=0; 
09B1C:  CLRF   x7D
....................                      if(PresionCamara<2){ 
09B1E:  MOVF   xA2,F
09B20:  BTFSS  FD8.2
09B22:  BRA    9CE4
09B24:  MOVF   xA1,W
09B26:  SUBLW  01
09B28:  BTFSS  FD8.0
09B2A:  BRA    9CE4
....................                         if((Tsecado[0]==0)&&(Tsecado[1]==0)&&(Tsecado[2]==0)&&(Tsecado[3]==0)){ 
09B2C:  MOVLB  0
09B2E:  MOVF   xDA,F
09B30:  BTFSS  FD8.2
09B32:  BRA    9CAA
09B34:  MOVF   xDB,F
09B36:  BTFSS  FD8.2
09B38:  BRA    9CAA
09B3A:  MOVF   xDC,F
09B3C:  BTFSS  FD8.2
09B3E:  BRA    9CAA
09B40:  MOVF   xDD,F
09B42:  BTFSS  FD8.2
09B44:  BRA    9CAA
....................                            if((RX_Buffer[3]==0x0f || UP) && DOOR){//0f, recibe caracteres ingresados desde el Display 
09B46:  MOVF   33,W
09B48:  SUBLW  0F
09B4A:  BZ    9B52
09B4C:  BSF    F93.6
09B4E:  BTFSC  F81.6
09B50:  BRA    9B98
09B52:  BSF    F93.2
09B54:  BTFSC  F81.2
09B56:  BRA    9B98
....................                               delay_ms(50); 
09B58:  MOVLW  32
09B5A:  MOVLB  4
09B5C:  MOVWF  x01
09B5E:  MOVLB  0
09B60:  CALL   1BD4
....................                               if((RX_Buffer[3]==0x0f || UP) && DOOR){ 
09B64:  MOVF   33,W
09B66:  SUBLW  0F
09B68:  BZ    9B70
09B6A:  BSF    F93.6
09B6C:  BTFSC  F81.6
09B6E:  BRA    9B98
09B70:  BSF    F93.2
09B72:  BTFSC  F81.2
09B74:  BRA    9B98
....................                                  Solenoide_on; 
09B76:  BSF    F8C.0
09B78:  BCF    F95.0
....................                                  delay_ms(2000); 
09B7A:  MOVLW  08
09B7C:  MOVLB  3
09B7E:  MOVWF  xF6
09B80:  MOVLW  FA
09B82:  MOVLB  4
09B84:  MOVWF  x01
09B86:  MOVLB  0
09B88:  CALL   1BD4
09B8C:  MOVLB  3
09B8E:  DECFSZ xF6,F
09B90:  BRA    9B80
....................                                  Solenoide_off; 
09B92:  BCF    F8C.0
09B94:  BCF    F95.0
09B96:  MOVLB  0
....................                               } 
....................                            } 
....................                            if(!DOOR){ 
09B98:  BSF    F93.2
09B9A:  BTFSS  F81.2
09B9C:  BRA    9BAC
....................                               Desfogue_off; 
09B9E:  BSF    F8C.2
09BA0:  BCF    F95.2
....................                               Solenoide_off; 
09BA2:  BCF    F8C.0
09BA4:  BCF    F95.0
....................                               Paso_off; 
09BA6:  BSF    F8C.3
09BA8:  BCF    F95.3
....................                            }else{ 
09BAA:  BRA    9BB8
....................                               Desfogue_on; 
09BAC:  BCF    F8C.2
09BAE:  BCF    F95.2
....................                               Solenoide_off; 
09BB0:  BCF    F8C.0
09BB2:  BCF    F95.0
....................                               Paso_off; 
09BB4:  BSF    F8C.3
09BB6:  BCF    F95.3
....................                            } 
....................                            SSR_off; 
09BB8:  BSF    F8B.1
09BBA:  BCF    F94.1
....................                            ActivaAlarma(2); 
09BBC:  MOVLW  02
09BBE:  MOVLB  3
09BC0:  MOVWF  xF6
09BC2:  MOVLB  0
09BC4:  CALL   44E2
....................                            Secando=OFF; 
09BC8:  BCF    xC4.3
....................                            printf("Funcionamiento.t4f.txt=\" Ninguna\""); 
09BCA:  MOVLW  86
09BCC:  MOVWF  FF6
09BCE:  MOVLW  17
09BD0:  MOVWF  FF7
09BD2:  MOVLW  00
09BD4:  MOVWF  FF8
09BD6:  CALL   33F8
....................                            SendDataDisplay(); 
09BDA:  CALL   342A
....................                            printf("Funcionamiento.t5f.txt=\" Finalizado\""); 
09BDE:  MOVLW  A8
09BE0:  MOVWF  FF6
09BE2:  MOVLW  17
09BE4:  MOVWF  FF7
09BE6:  MOVLW  00
09BE8:  MOVWF  FF8
09BEA:  CALL   33F8
....................                            SendDataDisplay(); 
09BEE:  CALL   342A
....................                            Finalizo=ON; 
09BF2:  BSF    xC7.3
....................                            TiempoCiclo=0; 
09BF4:  CLRF   xC9
09BF6:  CLRF   xC8
....................                            if(!Ciclo){ 
09BF8:  BTFSC  xC5.4
09BFA:  BRA    9CA6
....................                               Ciclo=ON; 
09BFC:  BSF    xC5.4
....................                               Ciclos++; 
09BFE:  MOVLB  3
09C00:  INCF   xA5,F
09C02:  BTFSC  FD8.2
09C04:  INCF   xA6,F
....................                               CiclosL=make8(Ciclos,0); 
09C06:  MOVFF  3A5,38C
....................                               CiclosH=make8(Ciclos,1); 
09C0A:  MOVFF  3A6,38D
....................                               write_eeprom(37,CiclosL); 
09C0E:  CLRF   FAA
09C10:  MOVLW  25
09C12:  MOVWF  FA9
09C14:  MOVFF  38C,FA8
09C18:  BCF    FA6.6
09C1A:  BCF    FA6.7
09C1C:  BSF    FA6.2
09C1E:  MOVF   FF2,W
09C20:  MOVWF  00
09C22:  BCF    FF2.6
09C24:  BCF    FF2.7
09C26:  MOVLB  F
09C28:  MOVLW  55
09C2A:  MOVWF  FA7
09C2C:  MOVLW  AA
09C2E:  MOVWF  FA7
09C30:  BSF    FA6.1
09C32:  BTFSC  FA6.1
09C34:  BRA    9C32
09C36:  BCF    FA6.2
09C38:  MOVF   00,W
09C3A:  IORWF  FF2,F
....................                               delay_ms(20); 
09C3C:  MOVLW  14
09C3E:  MOVLB  4
09C40:  MOVWF  x01
09C42:  MOVLB  0
09C44:  CALL   1BD4
....................                               write_eeprom(38,CiclosH); 
09C48:  CLRF   FAA
09C4A:  MOVLW  26
09C4C:  MOVWF  FA9
09C4E:  MOVFF  38D,FA8
09C52:  BCF    FA6.6
09C54:  BCF    FA6.7
09C56:  BSF    FA6.2
09C58:  MOVF   FF2,W
09C5A:  MOVWF  00
09C5C:  BCF    FF2.6
09C5E:  BCF    FF2.7
09C60:  MOVLB  F
09C62:  MOVLW  55
09C64:  MOVWF  FA7
09C66:  MOVLW  AA
09C68:  MOVWF  FA7
09C6A:  BSF    FA6.1
09C6C:  BTFSC  FA6.1
09C6E:  BRA    9C6C
09C70:  BCF    FA6.2
09C72:  MOVF   00,W
09C74:  IORWF  FF2,F
....................                               delay_ms(20); 
09C76:  MOVLW  14
09C78:  MOVLB  4
09C7A:  MOVWF  x01
09C7C:  MOVLB  0
09C7E:  CALL   1BD4
....................                               if(ActivaImpresion==1){ 
09C82:  MOVLB  3
09C84:  DECFSZ x80,W
09C86:  BRA    9CA4
....................                                  Imprime=25; 
09C88:  MOVLW  19
09C8A:  MOVWF  xCF
....................                                  Envio_Esclavos(); 
09C8C:  MOVLB  0
09C8E:  CALL   3E62
....................                                  delay_ms(100); 
09C92:  MOVLW  64
09C94:  MOVLB  4
09C96:  MOVWF  x01
09C98:  MOVLB  0
09C9A:  CALL   1BD4
....................                                  Imprime=10; 
09C9E:  MOVLW  0A
09CA0:  MOVLB  3
09CA2:  MOVWF  xCF
09CA4:  MOVLB  0
....................                               } 
....................                            } 
....................                            Secando=OFF; 
09CA6:  BCF    xC4.3
....................                         }else{ 
09CA8:  BRA    9CE0
....................                            Secando=ON; 
09CAA:  BSF    xC4.3
....................                            printf("Funcionamiento.t4f.txt=\" Ninguna\""); 
09CAC:  MOVLW  CE
09CAE:  MOVWF  FF6
09CB0:  MOVLW  17
09CB2:  MOVWF  FF7
09CB4:  MOVLW  00
09CB6:  MOVWF  FF8
09CB8:  CALL   33F8
....................                            SendDataDisplay(); 
09CBC:  CALL   342A
....................                            printf("Funcionamiento.t5f.txt=\" Secando\""); 
09CC0:  MOVLW  F0
09CC2:  MOVWF  FF6
09CC4:  MOVLW  17
09CC6:  MOVWF  FF7
09CC8:  MOVLW  00
09CCA:  MOVWF  FF8
09CCC:  CALL   33F8
....................                            SendDataDisplay(); 
09CD0:  CALL   342A
....................                            Paso_off; 
09CD4:  BSF    F8C.3
09CD6:  BCF    F95.3
....................                            CalientaChaqueta(); 
09CD8:  GOTO   52B4
....................                            TiempoCiclo=0; 
09CDC:  CLRF   xC9
09CDE:  CLRF   xC8
....................                         } 
....................                      }else{ 
09CE0:  BRA    9D28
09CE2:  MOVLB  3
....................                         Desfogando=ON; 
09CE4:  MOVLB  0
09CE6:  BSF    xC4.5
....................                         printf("Funcionamiento.t4f.txt=\" Ninguna\""); 
09CE8:  MOVLW  12
09CEA:  MOVWF  FF6
09CEC:  MOVLW  18
09CEE:  MOVWF  FF7
09CF0:  MOVLW  00
09CF2:  MOVWF  FF8
09CF4:  CALL   33F8
....................                         SendDataDisplay(); 
09CF8:  CALL   342A
....................                         printf("Funcionamiento.t5f.txt=\" Despresurizando\""); 
09CFC:  MOVLW  34
09CFE:  MOVWF  FF6
09D00:  MOVLW  18
09D02:  MOVWF  FF7
09D04:  MOVLW  00
09D06:  MOVWF  FF8
09D08:  CALL   33F8
....................                         SendDataDisplay(); 
09D0C:  CALL   342A
....................                         Control=0; 
09D10:  MOVLB  3
09D12:  CLRF   x7D
....................                         SSR_off; 
09D14:  BSF    F8B.1
09D16:  BCF    F94.1
....................                         Controlando=0; 
09D18:  CLRF   x7F
....................                         Paso_off; 
09D1A:  BSF    F8C.3
09D1C:  BCF    F95.3
....................                         Desfogue_on; 
09D1E:  BCF    F8C.2
09D20:  BCF    F95.2
....................                         TiempoCiclo=0; 
09D22:  MOVLB  0
09D24:  CLRF   xC9
09D26:  CLRF   xC8
....................                      } 
....................                   } 
....................                    
....................                }else{ 
09D28:  BRA    9D66
....................                   printf("Funcionamiento.t4f.txt=\" Ninguna\""); 
09D2A:  MOVLW  5E
09D2C:  MOVWF  FF6
09D2E:  MOVLW  18
09D30:  MOVWF  FF7
09D32:  MOVLW  00
09D34:  MOVWF  FF8
09D36:  CALL   33F8
....................                   SendDataDisplay(); 
09D3A:  CALL   342A
....................                   printf("Funcionamiento.t5f.txt=\" Esterilizando\""); 
09D3E:  MOVLW  80
09D40:  MOVWF  FF6
09D42:  MOVLW  18
09D44:  MOVWF  FF7
09D46:  MOVLW  00
09D48:  MOVWF  FF8
09D4A:  CALL   33F8
....................                   SendDataDisplay(); 
09D4E:  CALL   342A
....................                   Paso_on; 
09D52:  BCF    F8C.3
09D54:  BCF    F95.3
....................                   Control=1; 
09D56:  MOVLW  01
09D58:  MOVLB  3
09D5A:  MOVWF  x7D
....................                   Controla(); 
09D5C:  MOVLB  0
09D5E:  CALL   4D08
....................                   TiempoCiclo=0; 
09D62:  CLRF   xC9
09D64:  CLRF   xC8
09D66:  MOVLB  3
....................                } 
....................             } 
....................          } 
....................    } 
....................  
....................    if(Grafica==1){ 
09D68:  BTFSS  x7B.3
09D6A:  BRA    9DDE
....................       printf("add 14,0,%1.0f",Temperatura*1.5); 
09D6C:  MOVFF  35C,410
09D70:  MOVFF  35B,40F
09D74:  MOVFF  35A,40E
09D78:  MOVFF  359,40D
09D7C:  MOVLB  4
09D7E:  CLRF   x14
09D80:  CLRF   x13
09D82:  MOVLW  40
09D84:  MOVWF  x12
09D86:  MOVLW  7F
09D88:  MOVWF  x11
09D8A:  MOVLB  0
09D8C:  CALL   34DA
09D90:  MOVFF  00,3F6
09D94:  MOVFF  01,3F7
09D98:  MOVFF  02,3F8
09D9C:  MOVFF  03,3F9
09DA0:  MOVLW  A8
09DA2:  MOVWF  FF6
09DA4:  MOVLW  18
09DA6:  MOVWF  FF7
09DA8:  MOVLW  00
09DAA:  MOVWF  FF8
09DAC:  MOVLW  09
09DAE:  MOVLB  3
09DB0:  MOVWF  xFA
09DB2:  MOVLB  0
09DB4:  CALL   45DE
09DB8:  MOVLW  00
09DBA:  MOVWF  FE9
09DBC:  MOVFF  3F9,3FD
09DC0:  MOVFF  3F8,3FC
09DC4:  MOVFF  3F7,3FB
09DC8:  MOVFF  3F6,3FA
09DCC:  MOVLB  3
09DCE:  CLRF   xFE
09DD0:  MOVLB  0
09DD2:  CALL   48AA
....................       SendDataDisplay(); 
09DD6:  CALL   342A
....................       Grafica=0; 
09DDA:  MOVLB  3
09DDC:  BCF    x7B.3
....................    } 
....................    if(Lectura==1)// Utilizado para visualizar la lectura de la temperatura 
09DDE:  BTFSS  x7B.2
09DE0:  BRA    A0D4
....................    {                       
....................       Lectura=0; 
09DE2:  BCF    x7B.2
....................       printf("t6f.txt=\"%3.1f\"",Temperatura); 
09DE4:  MOVLW  B8
09DE6:  MOVWF  FF6
09DE8:  MOVLW  18
09DEA:  MOVWF  FF7
09DEC:  MOVLW  00
09DEE:  MOVWF  FF8
09DF0:  MOVLW  09
09DF2:  MOVWF  xFA
09DF4:  MOVLB  0
09DF6:  CALL   45DE
09DFA:  MOVLW  02
09DFC:  MOVWF  FE9
09DFE:  MOVFF  35C,3FD
09E02:  MOVFF  35B,3FC
09E06:  MOVFF  35A,3FB
09E0A:  MOVFF  359,3FA
09E0E:  MOVLW  01
09E10:  MOVLB  3
09E12:  MOVWF  xFE
09E14:  MOVLB  0
09E16:  CALL   48AA
09E1A:  MOVLW  22
09E1C:  BTFSS  F9E.4
09E1E:  BRA    9E1C
09E20:  MOVWF  FAD
....................       SendDataDisplay(); 
09E22:  CALL   342A
....................       printf("Funcionamiento.t7f.txt=\"%03LukPa\"",PresionCamara); 
09E26:  MOVLW  C8
09E28:  MOVWF  FF6
09E2A:  MOVLW  18
09E2C:  MOVWF  FF7
09E2E:  MOVLW  00
09E30:  MOVWF  FF8
09E32:  MOVLW  18
09E34:  MOVLB  3
09E36:  MOVWF  xFA
09E38:  MOVLB  0
09E3A:  CALL   45DE
09E3E:  MOVLW  0A
09E40:  MOVWF  FE9
09E42:  MOVFF  3A2,3F7
09E46:  MOVFF  3A1,3F6
09E4A:  CALL   473C
09E4E:  MOVLW  E5
09E50:  MOVWF  FF6
09E52:  MOVLW  18
09E54:  MOVWF  FF7
09E56:  MOVLW  00
09E58:  MOVWF  FF8
09E5A:  MOVLW  04
09E5C:  MOVLB  3
09E5E:  MOVWF  xFA
09E60:  MOVLB  0
09E62:  CALL   45DE
....................       SendDataDisplay(); 
09E66:  CALL   342A
....................       printf("Funcionamiento.t12f.txt=\"%03LukPa\"",PresionPreCamara); 
09E6A:  MOVLW  EA
09E6C:  MOVWF  FF6
09E6E:  MOVLW  18
09E70:  MOVWF  FF7
09E72:  MOVLW  00
09E74:  MOVWF  FF8
09E76:  MOVLW  19
09E78:  MOVLB  3
09E7A:  MOVWF  xFA
09E7C:  MOVLB  0
09E7E:  CALL   45DE
09E82:  MOVLW  0A
09E84:  MOVWF  FE9
09E86:  MOVFF  3A4,3F7
09E8A:  MOVFF  3A3,3F6
09E8E:  CALL   473C
09E92:  MOVLW  08
09E94:  MOVWF  FF6
09E96:  MOVLW  19
09E98:  MOVWF  FF7
09E9A:  MOVLW  00
09E9C:  MOVWF  FF8
09E9E:  MOVLW  04
09EA0:  MOVLB  3
09EA2:  MOVWF  xFA
09EA4:  MOVLB  0
09EA6:  CALL   45DE
....................       SendDataDisplay(); 
09EAA:  CALL   342A
....................       printf("Funcionamiento.t9f.txt=\"%03u\"",Setpoint); 
09EAE:  MOVLW  0E
09EB0:  MOVWF  FF6
09EB2:  MOVLW  19
09EB4:  MOVWF  FF7
09EB6:  MOVLW  00
09EB8:  MOVWF  FF8
09EBA:  MOVLW  18
09EBC:  MOVLB  3
09EBE:  MOVWF  xFA
09EC0:  MOVLB  0
09EC2:  CALL   45DE
09EC6:  MOVFF  38F,3F7
09ECA:  MOVLW  03
09ECC:  MOVLB  3
09ECE:  MOVWF  xF8
09ED0:  MOVLB  0
09ED2:  CALL   4646
09ED6:  MOVLW  22
09ED8:  BTFSS  F9E.4
09EDA:  BRA    9ED8
09EDC:  MOVWF  FAD
....................       SendDataDisplay();       
09EDE:  CALL   342A
....................       printf("Funcionamiento.t10f.txt=\"%02u\"",((Testerilizacion[3]*10)+Testerilizacion[2])); 
09EE2:  MOVFF  D5,3F6
09EE6:  MOVLW  0A
09EE8:  MOVLB  3
09EEA:  MOVWF  xF7
09EEC:  MOVLB  0
09EEE:  CALL   298A
09EF2:  MOVF   xD4,W
09EF4:  ADDWF  01,W
09EF6:  MOVLB  3
09EF8:  MOVWF  xF6
09EFA:  MOVLW  2C
09EFC:  MOVWF  FF6
09EFE:  MOVLW  19
09F00:  MOVWF  FF7
09F02:  MOVLW  00
09F04:  MOVWF  FF8
09F06:  MOVLW  19
09F08:  MOVWF  xFA
09F0A:  MOVLB  0
09F0C:  CALL   45DE
09F10:  MOVFF  3F6,3F7
09F14:  MOVLW  01
09F16:  MOVLB  3
09F18:  MOVWF  xF8
09F1A:  MOVLB  0
09F1C:  CALL   4646
09F20:  MOVLW  22
09F22:  BTFSS  F9E.4
09F24:  BRA    9F22
09F26:  MOVWF  FAD
....................       SendDataDisplay();       
09F28:  CALL   342A
....................       printf("Funcionamiento.t13f.txt=\"%02u\"",((Testerilizacion[1]*10)+Testerilizacion[0])); 
09F2C:  MOVFF  D3,3F6
09F30:  MOVLW  0A
09F32:  MOVLB  3
09F34:  MOVWF  xF7
09F36:  MOVLB  0
09F38:  CALL   298A
09F3C:  MOVF   xD2,W
09F3E:  ADDWF  01,W
09F40:  MOVLB  3
09F42:  MOVWF  xF6
09F44:  MOVLW  4C
09F46:  MOVWF  FF6
09F48:  MOVLW  19
09F4A:  MOVWF  FF7
09F4C:  MOVLW  00
09F4E:  MOVWF  FF8
09F50:  MOVLW  19
09F52:  MOVWF  xFA
09F54:  MOVLB  0
09F56:  CALL   45DE
09F5A:  MOVFF  3F6,3F7
09F5E:  MOVLW  01
09F60:  MOVLB  3
09F62:  MOVWF  xF8
09F64:  MOVLB  0
09F66:  CALL   4646
09F6A:  MOVLW  22
09F6C:  BTFSS  F9E.4
09F6E:  BRA    9F6C
09F70:  MOVWF  FAD
....................       SendDataDisplay();       
09F72:  CALL   342A
....................       printf("Funcionamiento.t11f.txt=\"%02u\"",((Tsecado[3]*10)+Tsecado[2])); 
09F76:  MOVFF  DD,3F6
09F7A:  MOVLW  0A
09F7C:  MOVLB  3
09F7E:  MOVWF  xF7
09F80:  MOVLB  0
09F82:  CALL   298A
09F86:  MOVF   xDC,W
09F88:  ADDWF  01,W
09F8A:  MOVLB  3
09F8C:  MOVWF  xF6
09F8E:  MOVLW  6C
09F90:  MOVWF  FF6
09F92:  MOVLW  19
09F94:  MOVWF  FF7
09F96:  MOVLW  00
09F98:  MOVWF  FF8
09F9A:  MOVLW  19
09F9C:  MOVWF  xFA
09F9E:  MOVLB  0
09FA0:  CALL   45DE
09FA4:  MOVFF  3F6,3F7
09FA8:  MOVLW  01
09FAA:  MOVLB  3
09FAC:  MOVWF  xF8
09FAE:  MOVLB  0
09FB0:  CALL   4646
09FB4:  MOVLW  22
09FB6:  BTFSS  F9E.4
09FB8:  BRA    9FB6
09FBA:  MOVWF  FAD
....................       SendDataDisplay();       
09FBC:  CALL   342A
....................       printf("Funcionamiento.t16f.txt=\"%02u\"",((Tsecado[1]*10)+Tsecado[0])); 
09FC0:  MOVFF  DB,3F6
09FC4:  MOVLW  0A
09FC6:  MOVLB  3
09FC8:  MOVWF  xF7
09FCA:  MOVLB  0
09FCC:  CALL   298A
09FD0:  MOVF   xDA,W
09FD2:  ADDWF  01,W
09FD4:  MOVLB  3
09FD6:  MOVWF  xF6
09FD8:  MOVLW  8C
09FDA:  MOVWF  FF6
09FDC:  MOVLW  19
09FDE:  MOVWF  FF7
09FE0:  MOVLW  00
09FE2:  MOVWF  FF8
09FE4:  MOVLW  19
09FE6:  MOVWF  xFA
09FE8:  MOVLB  0
09FEA:  CALL   45DE
09FEE:  MOVFF  3F6,3F7
09FF2:  MOVLW  01
09FF4:  MOVLB  3
09FF6:  MOVWF  xF8
09FF8:  MOVLB  0
09FFA:  CALL   4646
09FFE:  MOVLW  22
0A000:  BTFSS  F9E.4
0A002:  BRA    A000
0A004:  MOVWF  FAD
....................       SendDataDisplay();       
0A006:  CALL   342A
....................        
....................       printf("fecha.txt=\"Fecha:%02u/%02u/20%02u    Hora: %02u:%02u\"",Dia,Mes,Year,Hora,Minuto); 
0A00A:  MOVLW  AC
0A00C:  MOVWF  FF6
0A00E:  MOVLW  19
0A010:  MOVWF  FF7
0A012:  MOVLW  00
0A014:  MOVWF  FF8
0A016:  MOVLW  11
0A018:  MOVLB  3
0A01A:  MOVWF  xFA
0A01C:  MOVLB  0
0A01E:  CALL   45DE
0A022:  MOVFF  3C2,3F7
0A026:  MOVLW  01
0A028:  MOVLB  3
0A02A:  MOVWF  xF8
0A02C:  MOVLB  0
0A02E:  CALL   4646
0A032:  MOVLW  2F
0A034:  BTFSS  F9E.4
0A036:  BRA    A034
0A038:  MOVWF  FAD
0A03A:  MOVFF  3C1,3F7
0A03E:  MOVLW  01
0A040:  MOVLB  3
0A042:  MOVWF  xF8
0A044:  MOVLB  0
0A046:  CALL   4646
0A04A:  MOVLW  2F
0A04C:  BTFSS  F9E.4
0A04E:  BRA    A04C
0A050:  MOVWF  FAD
0A052:  MOVLW  32
0A054:  BTFSS  F9E.4
0A056:  BRA    A054
0A058:  MOVWF  FAD
0A05A:  MOVLW  30
0A05C:  BTFSS  F9E.4
0A05E:  BRA    A05C
0A060:  MOVWF  FAD
0A062:  MOVFF  3C0,3F7
0A066:  MOVLW  01
0A068:  MOVLB  3
0A06A:  MOVWF  xF8
0A06C:  MOVLB  0
0A06E:  CALL   4646
0A072:  MOVLW  CD
0A074:  MOVWF  FF6
0A076:  MOVLW  19
0A078:  MOVWF  FF7
0A07A:  MOVLW  00
0A07C:  MOVWF  FF8
0A07E:  MOVLW  0A
0A080:  MOVLB  3
0A082:  MOVWF  xFA
0A084:  MOVLB  0
0A086:  CALL   45DE
0A08A:  MOVFF  3C3,3F7
0A08E:  MOVLW  01
0A090:  MOVLB  3
0A092:  MOVWF  xF8
0A094:  MOVLB  0
0A096:  CALL   4646
0A09A:  MOVLW  3A
0A09C:  BTFSS  F9E.4
0A09E:  BRA    A09C
0A0A0:  MOVWF  FAD
0A0A2:  MOVFF  3C4,3F7
0A0A6:  MOVLW  01
0A0A8:  MOVLB  3
0A0AA:  MOVWF  xF8
0A0AC:  MOVLB  0
0A0AE:  CALL   4646
0A0B2:  MOVLW  22
0A0B4:  BTFSS  F9E.4
0A0B6:  BRA    A0B4
0A0B8:  MOVWF  FAD
....................       SendDataDisplay(); 
0A0BA:  CALL   342A
....................       printf("fecha.font=2"); 
0A0BE:  MOVLW  E2
0A0C0:  MOVWF  FF6
0A0C2:  MOVLW  19
0A0C4:  MOVWF  FF7
0A0C6:  MOVLW  00
0A0C8:  MOVWF  FF8
0A0CA:  CALL   33F8
....................       SendDataDisplay(); 
0A0CE:  CALL   342A
0A0D2:  MOVLB  3
....................    } 
....................  
.................... } 
.................... //_-------------------------------------------------------------------------------------------------------------------------------------------------------- 
....................  
.................... //_-------------------------------------------------------------------------------------------------------------------------------------------------------- 
....................       if(Menu==100){ //Menu de Configuracin de Parametros de Control 
0A0D4:  MOVF   x87,W
0A0D6:  SUBLW  64
0A0D8:  BTFSS  FD8.2
0A0DA:  GOTO   AEBA
....................       
....................       if(Opcion2>10) 
0A0DE:  MOVF   x91,W
0A0E0:  SUBLW  0A
0A0E2:  BC    A0E8
....................          Opcion2=1; 
0A0E4:  MOVLW  01
0A0E6:  MOVWF  x91
....................       if(Opcion2<1) 
0A0E8:  MOVF   x91,F
0A0EA:  BNZ   A0F0
....................          Opcion2=10; 
0A0EC:  MOVLW  0A
0A0EE:  MOVWF  x91
....................        
....................       if(Opcion2==1){ 
0A0F0:  DECFSZ x91,W
0A0F2:  BRA    A272
....................          printf("Config.t2c.txt=\"Proporcional\""); 
0A0F4:  MOVLW  F0
0A0F6:  MOVWF  FF6
0A0F8:  MOVLW  19
0A0FA:  MOVWF  FF7
0A0FC:  MOVLW  00
0A0FE:  MOVWF  FF8
0A100:  MOVLB  0
0A102:  CALL   33F8
....................          SendDataDisplay();       
0A106:  CALL   342A
....................          printf("t3c.txt=\"%2.0f\"",Ganancia); 
0A10A:  MOVLW  0E
0A10C:  MOVWF  FF6
0A10E:  MOVLW  1A
0A110:  MOVWF  FF7
0A112:  MOVLW  00
0A114:  MOVWF  FF8
0A116:  MOVLW  09
0A118:  MOVLB  3
0A11A:  MOVWF  xFA
0A11C:  MOVLB  0
0A11E:  CALL   45DE
0A122:  MOVLW  01
0A124:  MOVWF  FE9
0A126:  MOVFF  340,3FD
0A12A:  MOVFF  33F,3FC
0A12E:  MOVFF  33E,3FB
0A132:  MOVFF  33D,3FA
0A136:  MOVLB  3
0A138:  CLRF   xFE
0A13A:  MOVLB  0
0A13C:  CALL   48AA
0A140:  MOVLW  22
0A142:  BTFSS  F9E.4
0A144:  BRA    A142
0A146:  MOVWF  FAD
....................          SendDataDisplay(); 
0A148:  CALL   342A
....................          if(RX_Buffer[4]==0x0a || UP){//Tecla Arriba Oprimida 
0A14C:  MOVF   34,W
0A14E:  SUBLW  0A
0A150:  BZ    A158
0A152:  BSF    F93.6
0A154:  BTFSC  F81.6
0A156:  BRA    A1A8
....................             delay_ms(20); 
0A158:  MOVLW  14
0A15A:  MOVLB  4
0A15C:  MOVWF  x01
0A15E:  MOVLB  0
0A160:  CALL   1BD4
....................             if(RX_Buffer[4]==0x0a || UP){ 
0A164:  MOVF   34,W
0A166:  SUBLW  0A
0A168:  BZ    A170
0A16A:  BSF    F93.6
0A16C:  BTFSC  F81.6
0A16E:  BRA    A1A8
....................                Ganancia+=1.0; 
0A170:  BCF    FD8.1
0A172:  MOVFF  340,404
0A176:  MOVFF  33F,403
0A17A:  MOVFF  33E,402
0A17E:  MOVFF  33D,401
0A182:  MOVLB  4
0A184:  CLRF   x08
0A186:  CLRF   x07
0A188:  CLRF   x06
0A18A:  MOVLW  7F
0A18C:  MOVWF  x05
0A18E:  MOVLB  0
0A190:  CALL   1DB0
0A194:  MOVFF  03,340
0A198:  MOVFF  02,33F
0A19C:  MOVFF  01,33E
0A1A0:  MOVFF  00,33D
....................                RX_Buffer[4]=0x00;   
0A1A4:  CLRF   34
....................                RX_Buffer2[4]=0x00;             
0A1A6:  CLRF   3F
....................                //BorraBuffer(); 
....................             } 
....................          } 
....................              
....................          if(RX_Buffer[4]==0x0b || DOWN){//Tecla Abajo Oprimida 
0A1A8:  MOVF   34,W
0A1AA:  SUBLW  0B
0A1AC:  BZ    A1B4
0A1AE:  BSF    F93.5
0A1B0:  BTFSC  F81.5
0A1B2:  BRA    A204
....................             delay_ms(20); 
0A1B4:  MOVLW  14
0A1B6:  MOVLB  4
0A1B8:  MOVWF  x01
0A1BA:  MOVLB  0
0A1BC:  CALL   1BD4
....................             if(RX_Buffer[4]==0x0b || DOWN){ 
0A1C0:  MOVF   34,W
0A1C2:  SUBLW  0B
0A1C4:  BZ    A1CC
0A1C6:  BSF    F93.5
0A1C8:  BTFSC  F81.5
0A1CA:  BRA    A204
....................                Ganancia-=1.0; 
0A1CC:  BSF    FD8.1
0A1CE:  MOVFF  340,404
0A1D2:  MOVFF  33F,403
0A1D6:  MOVFF  33E,402
0A1DA:  MOVFF  33D,401
0A1DE:  MOVLB  4
0A1E0:  CLRF   x08
0A1E2:  CLRF   x07
0A1E4:  CLRF   x06
0A1E6:  MOVLW  7F
0A1E8:  MOVWF  x05
0A1EA:  MOVLB  0
0A1EC:  CALL   1DB0
0A1F0:  MOVFF  03,340
0A1F4:  MOVFF  02,33F
0A1F8:  MOVFF  01,33E
0A1FC:  MOVFF  00,33D
....................                RX_Buffer[4]=0x00; 
0A200:  CLRF   34
....................                RX_Buffer2[4]=0x00;             
0A202:  CLRF   3F
....................                //BorraBuffer(); 
....................             } 
....................          } 
....................           
....................          if(Ganancia>40) 
0A204:  MOVLB  3
0A206:  CLRF   xFD
0A208:  CLRF   xFC
0A20A:  MOVLW  20
0A20C:  MOVWF  xFB
0A20E:  MOVLW  84
0A210:  MOVWF  xFA
0A212:  MOVFF  340,401
0A216:  MOVFF  33F,400
0A21A:  MOVFF  33E,3FF
0A21E:  MOVFF  33D,3FE
0A222:  MOVLB  0
0A224:  CALL   28E0
0A228:  BNC   A236
....................             Ganancia=1; 
0A22A:  MOVLB  3
0A22C:  CLRF   x40
0A22E:  CLRF   x3F
0A230:  CLRF   x3E
0A232:  MOVLW  7F
0A234:  MOVWF  x3D
....................          if(Ganancia<1) 
0A236:  MOVFF  340,3FD
0A23A:  MOVFF  33F,3FC
0A23E:  MOVFF  33E,3FB
0A242:  MOVFF  33D,3FA
0A246:  MOVLB  4
0A248:  CLRF   x01
0A24A:  CLRF   x00
0A24C:  MOVLB  3
0A24E:  CLRF   xFF
0A250:  MOVLW  7F
0A252:  MOVWF  xFE
0A254:  MOVLB  0
0A256:  CALL   28E0
0A25A:  BNC   A26C
....................             Ganancia=40; 
0A25C:  MOVLB  3
0A25E:  CLRF   x40
0A260:  CLRF   x3F
0A262:  MOVLW  20
0A264:  MOVWF  x3E
0A266:  MOVLW  84
0A268:  MOVWF  x3D
0A26A:  MOVLB  0
....................       }else if(Opcion2==2){ 
0A26C:  GOTO   AA2C
0A270:  MOVLB  3
0A272:  MOVF   x91,W
0A274:  SUBLW  02
0A276:  BNZ   A336
....................          printf("Config.t2c.txt=\"Derivativo\""); 
0A278:  MOVLW  1E
0A27A:  MOVWF  FF6
0A27C:  MOVLW  1A
0A27E:  MOVWF  FF7
0A280:  MOVLW  00
0A282:  MOVWF  FF8
0A284:  MOVLB  0
0A286:  CALL   33F8
....................          SendDataDisplay();       
0A28A:  CALL   342A
....................          printf("t3c.txt=\"%u\"",Derivativo); 
0A28E:  MOVLW  3A
0A290:  MOVWF  FF6
0A292:  MOVLW  1A
0A294:  MOVWF  FF7
0A296:  MOVLW  00
0A298:  MOVWF  FF8
0A29A:  MOVLW  09
0A29C:  MOVLB  3
0A29E:  MOVWF  xFA
0A2A0:  MOVLB  0
0A2A2:  CALL   45DE
0A2A6:  MOVFF  376,3F7
0A2AA:  MOVLW  1B
0A2AC:  MOVLB  3
0A2AE:  MOVWF  xF8
0A2B0:  MOVLB  0
0A2B2:  CALL   4646
0A2B6:  MOVLW  22
0A2B8:  BTFSS  F9E.4
0A2BA:  BRA    A2B8
0A2BC:  MOVWF  FAD
....................          SendDataDisplay(); 
0A2BE:  CALL   342A
....................          if(RX_Buffer[4]==0x0a || UP){//Tecla Arriba Oprimida 
0A2C2:  MOVF   34,W
0A2C4:  SUBLW  0A
0A2C6:  BZ    A2CE
0A2C8:  BSF    F93.6
0A2CA:  BTFSC  F81.6
0A2CC:  BRA    A2F0
....................             delay_ms(20); 
0A2CE:  MOVLW  14
0A2D0:  MOVLB  4
0A2D2:  MOVWF  x01
0A2D4:  MOVLB  0
0A2D6:  CALL   1BD4
....................             if(RX_Buffer[4]==0x0a || UP){ 
0A2DA:  MOVF   34,W
0A2DC:  SUBLW  0A
0A2DE:  BZ    A2E6
0A2E0:  BSF    F93.6
0A2E2:  BTFSC  F81.6
0A2E4:  BRA    A2F0
....................                Derivativo++; 
0A2E6:  MOVLB  3
0A2E8:  INCF   x76,F
....................                RX_Buffer[4]=0x00;   
0A2EA:  CLRF   34
....................                RX_Buffer2[4]=0x00;             
0A2EC:  CLRF   3F
0A2EE:  MOVLB  0
....................                //BorraBuffer(); 
....................             } 
....................          } 
....................              
....................          if(RX_Buffer[4]==0x0b || DOWN){//Tecla Abajo Oprimida 
0A2F0:  MOVF   34,W
0A2F2:  SUBLW  0B
0A2F4:  BZ    A2FC
0A2F6:  BSF    F93.5
0A2F8:  BTFSC  F81.5
0A2FA:  BRA    A31E
....................             delay_ms(20); 
0A2FC:  MOVLW  14
0A2FE:  MOVLB  4
0A300:  MOVWF  x01
0A302:  MOVLB  0
0A304:  CALL   1BD4
....................             if(RX_Buffer[4]==0x0b || DOWN){ 
0A308:  MOVF   34,W
0A30A:  SUBLW  0B
0A30C:  BZ    A314
0A30E:  BSF    F93.5
0A310:  BTFSC  F81.5
0A312:  BRA    A31E
....................                Derivativo--; 
0A314:  MOVLB  3
0A316:  DECF   x76,F
....................                RX_Buffer[4]=0x00; 
0A318:  CLRF   34
....................                RX_Buffer2[4]=0x00;             
0A31A:  CLRF   3F
0A31C:  MOVLB  0
....................                //BorraBuffer(); 
....................             } 
....................          } 
....................           
....................           
....................          if(Derivativo>40) 
0A31E:  MOVLB  3
0A320:  MOVF   x76,W
0A322:  SUBLW  28
0A324:  BC    A32A
....................             Derivativo=1; 
0A326:  MOVLW  01
0A328:  MOVWF  x76
....................          if(Derivativo<1) 
0A32A:  MOVF   x76,F
0A32C:  BNZ   A332
....................             Derivativo=40; 
0A32E:  MOVLW  28
0A330:  MOVWF  x76
....................       }else if(Opcion2==3){ 
0A332:  GOTO   AA2E
0A336:  MOVF   x91,W
0A338:  SUBLW  03
0A33A:  BNZ   A3F8
....................          printf("Config.t2c.txt=\"Integral\""); 
0A33C:  MOVLW  48
0A33E:  MOVWF  FF6
0A340:  MOVLW  1A
0A342:  MOVWF  FF7
0A344:  MOVLW  00
0A346:  MOVWF  FF8
0A348:  MOVLB  0
0A34A:  CALL   33F8
....................          SendDataDisplay();       
0A34E:  CALL   342A
....................          printf("t3c.txt=\"%u\"",Integral); 
0A352:  MOVLW  62
0A354:  MOVWF  FF6
0A356:  MOVLW  1A
0A358:  MOVWF  FF7
0A35A:  MOVLW  00
0A35C:  MOVWF  FF8
0A35E:  MOVLW  09
0A360:  MOVLB  3
0A362:  MOVWF  xFA
0A364:  MOVLB  0
0A366:  CALL   45DE
0A36A:  MOVFF  375,3F7
0A36E:  MOVLW  1B
0A370:  MOVLB  3
0A372:  MOVWF  xF8
0A374:  MOVLB  0
0A376:  CALL   4646
0A37A:  MOVLW  22
0A37C:  BTFSS  F9E.4
0A37E:  BRA    A37C
0A380:  MOVWF  FAD
....................          SendDataDisplay(); 
0A382:  CALL   342A
....................          if(RX_Buffer[4]==0x0a || UP){//Tecla Arriba Oprimida 
0A386:  MOVF   34,W
0A388:  SUBLW  0A
0A38A:  BZ    A392
0A38C:  BSF    F93.6
0A38E:  BTFSC  F81.6
0A390:  BRA    A3B4
....................             delay_ms(20); 
0A392:  MOVLW  14
0A394:  MOVLB  4
0A396:  MOVWF  x01
0A398:  MOVLB  0
0A39A:  CALL   1BD4
....................             if(RX_Buffer[4]==0x0a || UP){ 
0A39E:  MOVF   34,W
0A3A0:  SUBLW  0A
0A3A2:  BZ    A3AA
0A3A4:  BSF    F93.6
0A3A6:  BTFSC  F81.6
0A3A8:  BRA    A3B4
....................                Integral++; 
0A3AA:  MOVLB  3
0A3AC:  INCF   x75,F
....................                RX_Buffer[4]=0x00;   
0A3AE:  CLRF   34
....................                RX_Buffer2[4]=0x00;             
0A3B0:  CLRF   3F
0A3B2:  MOVLB  0
....................                //BorraBuffer(); 
....................             } 
....................          } 
....................              
....................          if(RX_Buffer[4]==0x0b || DOWN){//Tecla Abajo Oprimida 
0A3B4:  MOVF   34,W
0A3B6:  SUBLW  0B
0A3B8:  BZ    A3C0
0A3BA:  BSF    F93.5
0A3BC:  BTFSC  F81.5
0A3BE:  BRA    A3E2
....................             delay_ms(20); 
0A3C0:  MOVLW  14
0A3C2:  MOVLB  4
0A3C4:  MOVWF  x01
0A3C6:  MOVLB  0
0A3C8:  CALL   1BD4
....................             if(RX_Buffer[4]==0x0b || DOWN){ 
0A3CC:  MOVF   34,W
0A3CE:  SUBLW  0B
0A3D0:  BZ    A3D8
0A3D2:  BSF    F93.5
0A3D4:  BTFSC  F81.5
0A3D6:  BRA    A3E2
....................                Integral--; 
0A3D8:  MOVLB  3
0A3DA:  DECF   x75,F
....................                RX_Buffer[4]=0x00; 
0A3DC:  CLRF   34
....................                RX_Buffer2[4]=0x00;             
0A3DE:  CLRF   3F
0A3E0:  MOVLB  0
....................                //BorraBuffer(); 
....................             } 
....................          } 
....................           
....................          if(Integral>40) 
0A3E2:  MOVLB  3
0A3E4:  MOVF   x75,W
0A3E6:  SUBLW  28
0A3E8:  BC    A3EE
....................             Integral=1; 
0A3EA:  MOVLW  01
0A3EC:  MOVWF  x75
....................          if(Integral<1) 
0A3EE:  MOVF   x75,F
0A3F0:  BNZ   A3F6
....................             Integral=40; 
0A3F2:  MOVLW  28
0A3F4:  MOVWF  x75
....................       }else if(Opcion2==4){ 
0A3F6:  BRA    AA2E
0A3F8:  MOVF   x91,W
0A3FA:  SUBLW  04
0A3FC:  BTFSS  FD8.2
0A3FE:  BRA    A580
....................          printf("Config.t2c.txt=\"Tciclo\""); 
0A400:  MOVLW  70
0A402:  MOVWF  FF6
0A404:  MOVLW  1A
0A406:  MOVWF  FF7
0A408:  MOVLW  00
0A40A:  MOVWF  FF8
0A40C:  MOVLB  0
0A40E:  CALL   33F8
....................          SendDataDisplay();       
0A412:  CALL   342A
....................          printf("t3c.txt=\"%2.0f\"",Tciclo); 
0A416:  MOVLW  88
0A418:  MOVWF  FF6
0A41A:  MOVLW  1A
0A41C:  MOVWF  FF7
0A41E:  MOVLW  00
0A420:  MOVWF  FF8
0A422:  MOVLW  09
0A424:  MOVLB  3
0A426:  MOVWF  xFA
0A428:  MOVLB  0
0A42A:  CALL   45DE
0A42E:  MOVLW  01
0A430:  MOVWF  FE9
0A432:  MOVFF  328,3FD
0A436:  MOVFF  327,3FC
0A43A:  MOVFF  326,3FB
0A43E:  MOVFF  325,3FA
0A442:  MOVLB  3
0A444:  CLRF   xFE
0A446:  MOVLB  0
0A448:  CALL   48AA
0A44C:  MOVLW  22
0A44E:  BTFSS  F9E.4
0A450:  BRA    A44E
0A452:  MOVWF  FAD
....................          SendDataDisplay(); 
0A454:  CALL   342A
....................          if(RX_Buffer[4]==0x0a || UP){//Tecla Arriba Oprimida 
0A458:  MOVF   34,W
0A45A:  SUBLW  0A
0A45C:  BZ    A464
0A45E:  BSF    F93.6
0A460:  BTFSC  F81.6
0A462:  BRA    A4B4
....................             delay_ms(20); 
0A464:  MOVLW  14
0A466:  MOVLB  4
0A468:  MOVWF  x01
0A46A:  MOVLB  0
0A46C:  CALL   1BD4
....................             if(RX_Buffer[4]==0x0a || UP){ 
0A470:  MOVF   34,W
0A472:  SUBLW  0A
0A474:  BZ    A47C
0A476:  BSF    F93.6
0A478:  BTFSC  F81.6
0A47A:  BRA    A4B4
....................                Tciclo+=1.0; 
0A47C:  BCF    FD8.1
0A47E:  MOVFF  328,404
0A482:  MOVFF  327,403
0A486:  MOVFF  326,402
0A48A:  MOVFF  325,401
0A48E:  MOVLB  4
0A490:  CLRF   x08
0A492:  CLRF   x07
0A494:  CLRF   x06
0A496:  MOVLW  7F
0A498:  MOVWF  x05
0A49A:  MOVLB  0
0A49C:  CALL   1DB0
0A4A0:  MOVFF  03,328
0A4A4:  MOVFF  02,327
0A4A8:  MOVFF  01,326
0A4AC:  MOVFF  00,325
....................                RX_Buffer[4]=0x00;   
0A4B0:  CLRF   34
....................                RX_Buffer2[4]=0x00;             
0A4B2:  CLRF   3F
....................                //BorraBuffer(); 
....................             } 
....................          } 
....................              
....................          if(RX_Buffer[4]==0x0b || DOWN){//Tecla Abajo Oprimida 
0A4B4:  MOVF   34,W
0A4B6:  SUBLW  0B
0A4B8:  BZ    A4C0
0A4BA:  BSF    F93.5
0A4BC:  BTFSC  F81.5
0A4BE:  BRA    A510
....................             delay_ms(20); 
0A4C0:  MOVLW  14
0A4C2:  MOVLB  4
0A4C4:  MOVWF  x01
0A4C6:  MOVLB  0
0A4C8:  CALL   1BD4
....................             if(RX_Buffer[4]==0x0b || DOWN){ 
0A4CC:  MOVF   34,W
0A4CE:  SUBLW  0B
0A4D0:  BZ    A4D8
0A4D2:  BSF    F93.5
0A4D4:  BTFSC  F81.5
0A4D6:  BRA    A510
....................                Tciclo-=1.0; 
0A4D8:  BSF    FD8.1
0A4DA:  MOVFF  328,404
0A4DE:  MOVFF  327,403
0A4E2:  MOVFF  326,402
0A4E6:  MOVFF  325,401
0A4EA:  MOVLB  4
0A4EC:  CLRF   x08
0A4EE:  CLRF   x07
0A4F0:  CLRF   x06
0A4F2:  MOVLW  7F
0A4F4:  MOVWF  x05
0A4F6:  MOVLB  0
0A4F8:  CALL   1DB0
0A4FC:  MOVFF  03,328
0A500:  MOVFF  02,327
0A504:  MOVFF  01,326
0A508:  MOVFF  00,325
....................                RX_Buffer[4]=0x00; 
0A50C:  CLRF   34
....................                RX_Buffer2[4]=0x00;             
0A50E:  CLRF   3F
....................                //BorraBuffer(); 
....................             } 
....................          } 
....................           
....................          if(Tciclo>20) 
0A510:  MOVLB  3
0A512:  CLRF   xFD
0A514:  CLRF   xFC
0A516:  MOVLW  20
0A518:  MOVWF  xFB
0A51A:  MOVLW  83
0A51C:  MOVWF  xFA
0A51E:  MOVFF  328,401
0A522:  MOVFF  327,400
0A526:  MOVFF  326,3FF
0A52A:  MOVFF  325,3FE
0A52E:  MOVLB  0
0A530:  CALL   28E0
0A534:  BNC   A544
....................             Tciclo=5; 
0A536:  MOVLB  3
0A538:  CLRF   x28
0A53A:  CLRF   x27
0A53C:  MOVLW  20
0A53E:  MOVWF  x26
0A540:  MOVLW  81
0A542:  MOVWF  x25
....................          if(Tciclo<5) 
0A544:  MOVFF  328,3FD
0A548:  MOVFF  327,3FC
0A54C:  MOVFF  326,3FB
0A550:  MOVFF  325,3FA
0A554:  MOVLB  4
0A556:  CLRF   x01
0A558:  CLRF   x00
0A55A:  MOVLW  20
0A55C:  MOVLB  3
0A55E:  MOVWF  xFF
0A560:  MOVLW  81
0A562:  MOVWF  xFE
0A564:  MOVLB  0
0A566:  CALL   28E0
0A56A:  BNC   A57C
....................             Tciclo=20; 
0A56C:  MOVLB  3
0A56E:  CLRF   x28
0A570:  CLRF   x27
0A572:  MOVLW  20
0A574:  MOVWF  x26
0A576:  MOVLW  83
0A578:  MOVWF  x25
0A57A:  MOVLB  0
....................       }else if(Opcion2==5){ 
0A57C:  BRA    AA2C
0A57E:  MOVLB  3
0A580:  MOVF   x91,W
0A582:  SUBLW  05
0A584:  BNZ   A63A
....................          printf("Config.t2c.txt=\"Ajuste +\""); 
0A586:  MOVLW  98
0A588:  MOVWF  FF6
0A58A:  MOVLW  1A
0A58C:  MOVWF  FF7
0A58E:  MOVLW  00
0A590:  MOVWF  FF8
0A592:  MOVLB  0
0A594:  CALL   33F8
....................          SendDataDisplay();       
0A598:  CALL   342A
....................          printf("t3c.txt=\"%u\"",Ajuste); 
0A59C:  MOVLW  B2
0A59E:  MOVWF  FF6
0A5A0:  MOVLW  1A
0A5A2:  MOVWF  FF7
0A5A4:  MOVLW  00
0A5A6:  MOVWF  FF8
0A5A8:  MOVLW  09
0A5AA:  MOVLB  3
0A5AC:  MOVWF  xFA
0A5AE:  MOVLB  0
0A5B0:  CALL   45DE
0A5B4:  MOVFF  314,3F7
0A5B8:  MOVLW  1B
0A5BA:  MOVLB  3
0A5BC:  MOVWF  xF8
0A5BE:  MOVLB  0
0A5C0:  CALL   4646
0A5C4:  MOVLW  22
0A5C6:  BTFSS  F9E.4
0A5C8:  BRA    A5C6
0A5CA:  MOVWF  FAD
....................          SendDataDisplay(); 
0A5CC:  CALL   342A
....................          if(RX_Buffer[4]==0x0a || UP){//Tecla Arriba Oprimida 
0A5D0:  MOVF   34,W
0A5D2:  SUBLW  0A
0A5D4:  BZ    A5DC
0A5D6:  BSF    F93.6
0A5D8:  BTFSC  F81.6
0A5DA:  BRA    A604
....................             delay_ms(20); 
0A5DC:  MOVLW  14
0A5DE:  MOVLB  4
0A5E0:  MOVWF  x01
0A5E2:  MOVLB  0
0A5E4:  CALL   1BD4
....................             if(RX_Buffer[4]==0x0a || UP){ 
0A5E8:  MOVF   34,W
0A5EA:  SUBLW  0A
0A5EC:  BZ    A5F4
0A5EE:  BSF    F93.6
0A5F0:  BTFSC  F81.6
0A5F2:  BRA    A604
....................                if(Ajuste<40) 
0A5F4:  MOVLB  3
0A5F6:  MOVF   x14,W
0A5F8:  SUBLW  27
0A5FA:  BNC   A5FE
....................                   Ajuste++; 
0A5FC:  INCF   x14,F
....................                RX_Buffer[4]=0x00;   
0A5FE:  CLRF   34
....................                RX_Buffer2[4]=0x00;             
0A600:  CLRF   3F
0A602:  MOVLB  0
....................                //BorraBuffer(); 
....................             } 
....................          } 
....................              
....................          if(RX_Buffer[4]==0x0b || DOWN){//Tecla Abajo Oprimida 
0A604:  MOVF   34,W
0A606:  SUBLW  0B
0A608:  BZ    A610
0A60A:  BSF    F93.5
0A60C:  BTFSC  F81.5
0A60E:  BRA    A636
....................             delay_ms(20); 
0A610:  MOVLW  14
0A612:  MOVLB  4
0A614:  MOVWF  x01
0A616:  MOVLB  0
0A618:  CALL   1BD4
....................             if(RX_Buffer[4]==0x0b || DOWN){ 
0A61C:  MOVF   34,W
0A61E:  SUBLW  0B
0A620:  BZ    A628
0A622:  BSF    F93.5
0A624:  BTFSC  F81.5
0A626:  BRA    A636
....................                if(Ajuste>0) 
0A628:  MOVLB  3
0A62A:  MOVF   x14,F
0A62C:  BZ    A630
....................                   Ajuste--; 
0A62E:  DECF   x14,F
....................                RX_Buffer[4]=0x00; 
0A630:  CLRF   34
....................                RX_Buffer2[4]=0x00;             
0A632:  CLRF   3F
0A634:  MOVLB  0
....................                //BorraBuffer(); 
....................             } 
....................          } 
....................       }else if(Opcion2==6){ 
0A636:  BRA    AA2C
0A638:  MOVLB  3
0A63A:  MOVF   x91,W
0A63C:  SUBLW  06
0A63E:  BNZ   A6F4
....................          printf("Config.t2c.txt=\"Ajuste -\""); 
0A640:  MOVLW  C0
0A642:  MOVWF  FF6
0A644:  MOVLW  1A
0A646:  MOVWF  FF7
0A648:  MOVLW  00
0A64A:  MOVWF  FF8
0A64C:  MOVLB  0
0A64E:  CALL   33F8
....................          SendDataDisplay();       
0A652:  CALL   342A
....................          printf("t3c.txt=\"%u\"",Ajusten); 
0A656:  MOVLW  DA
0A658:  MOVWF  FF6
0A65A:  MOVLW  1A
0A65C:  MOVWF  FF7
0A65E:  MOVLW  00
0A660:  MOVWF  FF8
0A662:  MOVLW  09
0A664:  MOVLB  3
0A666:  MOVWF  xFA
0A668:  MOVLB  0
0A66A:  CALL   45DE
0A66E:  MOVFF  315,3F7
0A672:  MOVLW  1B
0A674:  MOVLB  3
0A676:  MOVWF  xF8
0A678:  MOVLB  0
0A67A:  CALL   4646
0A67E:  MOVLW  22
0A680:  BTFSS  F9E.4
0A682:  BRA    A680
0A684:  MOVWF  FAD
....................          SendDataDisplay(); 
0A686:  CALL   342A
....................          if(RX_Buffer[4]==0x0a || UP){//Tecla Arriba Oprimida 
0A68A:  MOVF   34,W
0A68C:  SUBLW  0A
0A68E:  BZ    A696
0A690:  BSF    F93.6
0A692:  BTFSC  F81.6
0A694:  BRA    A6BE
....................             delay_ms(20); 
0A696:  MOVLW  14
0A698:  MOVLB  4
0A69A:  MOVWF  x01
0A69C:  MOVLB  0
0A69E:  CALL   1BD4
....................             if(RX_Buffer[4]==0x0a || UP){ 
0A6A2:  MOVF   34,W
0A6A4:  SUBLW  0A
0A6A6:  BZ    A6AE
0A6A8:  BSF    F93.6
0A6AA:  BTFSC  F81.6
0A6AC:  BRA    A6BE
....................                if(Ajusten<40) 
0A6AE:  MOVLB  3
0A6B0:  MOVF   x15,W
0A6B2:  SUBLW  27
0A6B4:  BNC   A6B8
....................                   Ajusten++; 
0A6B6:  INCF   x15,F
....................                RX_Buffer[4]=0x00;   
0A6B8:  CLRF   34
....................                RX_Buffer2[4]=0x00;             
0A6BA:  CLRF   3F
0A6BC:  MOVLB  0
....................                //BorraBuffer(); 
....................             } 
....................          } 
....................              
....................          if(RX_Buffer[4]==0x0b || DOWN){//Tecla Abajo Oprimida 
0A6BE:  MOVF   34,W
0A6C0:  SUBLW  0B
0A6C2:  BZ    A6CA
0A6C4:  BSF    F93.5
0A6C6:  BTFSC  F81.5
0A6C8:  BRA    A6F0
....................             delay_ms(20); 
0A6CA:  MOVLW  14
0A6CC:  MOVLB  4
0A6CE:  MOVWF  x01
0A6D0:  MOVLB  0
0A6D2:  CALL   1BD4
....................             if(RX_Buffer[4]==0x0b || DOWN){ 
0A6D6:  MOVF   34,W
0A6D8:  SUBLW  0B
0A6DA:  BZ    A6E2
0A6DC:  BSF    F93.5
0A6DE:  BTFSC  F81.5
0A6E0:  BRA    A6F0
....................                if(Ajusten>0) 
0A6E2:  MOVLB  3
0A6E4:  MOVF   x15,F
0A6E6:  BZ    A6EA
....................                   Ajusten--; 
0A6E8:  DECF   x15,F
....................                RX_Buffer[4]=0x00; 
0A6EA:  CLRF   34
....................                RX_Buffer2[4]=0x00;             
0A6EC:  CLRF   3F
0A6EE:  MOVLB  0
....................                //BorraBuffer(); 
....................             } 
....................          } 
....................       }else if(Opcion2==7){ 
0A6F0:  BRA    AA2C
0A6F2:  MOVLB  3
0A6F4:  MOVF   x91,W
0A6F6:  SUBLW  07
0A6F8:  BNZ   A7B0
....................          printf("Config.t2c.txt=\"Media\""); 
0A6FA:  MOVLW  E8
0A6FC:  MOVWF  FF6
0A6FE:  MOVLW  1A
0A700:  MOVWF  FF7
0A702:  MOVLW  00
0A704:  MOVWF  FF8
0A706:  MOVLB  0
0A708:  CALL   33F8
....................          SendDataDisplay();       
0A70C:  CALL   342A
....................          printf("t3c.txt=\"%u\"",MediaMovil); 
0A710:  MOVLW  00
0A712:  MOVWF  FF6
0A714:  MOVLW  1B
0A716:  MOVWF  FF7
0A718:  MOVLW  00
0A71A:  MOVWF  FF8
0A71C:  MOVLW  09
0A71E:  MOVLB  3
0A720:  MOVWF  xFA
0A722:  MOVLB  0
0A724:  CALL   45DE
0A728:  MOVFF  316,3F7
0A72C:  MOVLW  1B
0A72E:  MOVLB  3
0A730:  MOVWF  xF8
0A732:  MOVLB  0
0A734:  CALL   4646
0A738:  MOVLW  22
0A73A:  BTFSS  F9E.4
0A73C:  BRA    A73A
0A73E:  MOVWF  FAD
....................          SendDataDisplay(); 
0A740:  CALL   342A
....................          if(RX_Buffer[4]==0x0a || UP){//Tecla Arriba Oprimida 
0A744:  MOVF   34,W
0A746:  SUBLW  0A
0A748:  BZ    A750
0A74A:  BSF    F93.6
0A74C:  BTFSC  F81.6
0A74E:  BRA    A778
....................             delay_ms(20); 
0A750:  MOVLW  14
0A752:  MOVLB  4
0A754:  MOVWF  x01
0A756:  MOVLB  0
0A758:  CALL   1BD4
....................             if(RX_Buffer[4]==0x0a || UP){ 
0A75C:  MOVF   34,W
0A75E:  SUBLW  0A
0A760:  BZ    A768
0A762:  BSF    F93.6
0A764:  BTFSC  F81.6
0A766:  BRA    A778
....................                if(MediaMovil<80) 
0A768:  MOVLB  3
0A76A:  MOVF   x16,W
0A76C:  SUBLW  4F
0A76E:  BNC   A772
....................                   MediaMovil++; 
0A770:  INCF   x16,F
....................                RX_Buffer[4]=0x00;   
0A772:  CLRF   34
....................                RX_Buffer2[4]=0x00;             
0A774:  CLRF   3F
0A776:  MOVLB  0
....................                //BorraBuffer(); 
....................             } 
....................          } 
....................              
....................          if(RX_Buffer[4]==0x0b || DOWN){//Tecla Abajo Oprimida 
0A778:  MOVF   34,W
0A77A:  SUBLW  0B
0A77C:  BZ    A784
0A77E:  BSF    F93.5
0A780:  BTFSC  F81.5
0A782:  BRA    A7AC
....................             delay_ms(20); 
0A784:  MOVLW  14
0A786:  MOVLB  4
0A788:  MOVWF  x01
0A78A:  MOVLB  0
0A78C:  CALL   1BD4
....................             if(RX_Buffer[4]==0x0b || DOWN){ 
0A790:  MOVF   34,W
0A792:  SUBLW  0B
0A794:  BZ    A79C
0A796:  BSF    F93.5
0A798:  BTFSC  F81.5
0A79A:  BRA    A7AC
....................                if(MediaMovil>10) 
0A79C:  MOVLB  3
0A79E:  MOVF   x16,W
0A7A0:  SUBLW  0A
0A7A2:  BC    A7A6
....................                   MediaMovil--; 
0A7A4:  DECF   x16,F
....................                RX_Buffer[4]=0x00; 
0A7A6:  CLRF   34
....................                RX_Buffer2[4]=0x00;             
0A7A8:  CLRF   3F
0A7AA:  MOVLB  0
....................                //BorraBuffer(); 
....................             } 
....................          } 
....................       }else if(Opcion2==8){ 
0A7AC:  BRA    AA2C
0A7AE:  MOVLB  3
0A7B0:  MOVF   x91,W
0A7B2:  SUBLW  08
0A7B4:  BTFSS  FD8.2
0A7B6:  BRA    A920
....................          printf("Config.t2c.txt=\"RPT100B\""); 
0A7B8:  MOVLW  0E
0A7BA:  MOVWF  FF6
0A7BC:  MOVLW  1B
0A7BE:  MOVWF  FF7
0A7C0:  MOVLW  00
0A7C2:  MOVWF  FF8
0A7C4:  MOVLB  0
0A7C6:  CALL   33F8
....................          SendDataDisplay();       
0A7CA:  CALL   342A
....................          printf("t3c.txt=\"%2.1f\"",RPT100); 
0A7CE:  MOVLW  28
0A7D0:  MOVWF  FF6
0A7D2:  MOVLW  1B
0A7D4:  MOVWF  FF7
0A7D6:  MOVLW  00
0A7D8:  MOVWF  FF8
0A7DA:  MOVLW  09
0A7DC:  MOVLB  3
0A7DE:  MOVWF  xFA
0A7E0:  MOVLB  0
0A7E2:  CALL   45DE
0A7E6:  MOVLW  01
0A7E8:  MOVWF  FE9
0A7EA:  MOVFF  2C9,3FD
0A7EE:  MOVFF  2C8,3FC
0A7F2:  MOVFF  2C7,3FB
0A7F6:  MOVFF  2C6,3FA
0A7FA:  MOVLB  3
0A7FC:  MOVWF  xFE
0A7FE:  MOVLB  0
0A800:  CALL   48AA
0A804:  MOVLW  22
0A806:  BTFSS  F9E.4
0A808:  BRA    A806
0A80A:  MOVWF  FAD
....................          SendDataDisplay(); 
0A80C:  CALL   342A
....................          if(RX_Buffer[4]==0x0a || UP){//Tecla Arriba Oprimida 
0A810:  MOVF   34,W
0A812:  SUBLW  0A
0A814:  BZ    A81C
0A816:  BSF    F93.6
0A818:  BTFSC  F81.6
0A81A:  BRA    A898
....................             delay_ms(20); 
0A81C:  MOVLW  14
0A81E:  MOVLB  4
0A820:  MOVWF  x01
0A822:  MOVLB  0
0A824:  CALL   1BD4
....................             if(RX_Buffer[4]==0x0a || UP){ 
0A828:  MOVF   34,W
0A82A:  SUBLW  0A
0A82C:  BZ    A834
0A82E:  BSF    F93.6
0A830:  BTFSC  F81.6
0A832:  BRA    A898
....................                if(RPT100<2.0) 
0A834:  MOVFF  2C9,3FD
0A838:  MOVFF  2C8,3FC
0A83C:  MOVFF  2C7,3FB
0A840:  MOVFF  2C6,3FA
0A844:  MOVLB  4
0A846:  CLRF   x01
0A848:  CLRF   x00
0A84A:  MOVLB  3
0A84C:  CLRF   xFF
0A84E:  MOVLW  80
0A850:  MOVWF  xFE
0A852:  MOVLB  0
0A854:  CALL   28E0
0A858:  BNC   A894
....................                   RPT100+=0.1; 
0A85A:  BCF    FD8.1
0A85C:  MOVFF  2C9,404
0A860:  MOVFF  2C8,403
0A864:  MOVFF  2C7,402
0A868:  MOVFF  2C6,401
0A86C:  MOVLW  CD
0A86E:  MOVLB  4
0A870:  MOVWF  x08
0A872:  MOVLW  CC
0A874:  MOVWF  x07
0A876:  MOVLW  4C
0A878:  MOVWF  x06
0A87A:  MOVLW  7B
0A87C:  MOVWF  x05
0A87E:  MOVLB  0
0A880:  CALL   1DB0
0A884:  MOVFF  03,2C9
0A888:  MOVFF  02,2C8
0A88C:  MOVFF  01,2C7
0A890:  MOVFF  00,2C6
....................                RX_Buffer[4]=0x00;   
0A894:  CLRF   34
....................                RX_Buffer2[4]=0x00;             
0A896:  CLRF   3F
....................                //BorraBuffer(); 
....................             } 
....................          } 
....................              
....................          if(RX_Buffer[4]==0x0b || DOWN){//Tecla Abajo Oprimida 
0A898:  MOVF   34,W
0A89A:  SUBLW  0B
0A89C:  BZ    A8A4
0A89E:  BSF    F93.5
0A8A0:  BTFSC  F81.5
0A8A2:  BRA    A91C
....................             delay_ms(20); 
0A8A4:  MOVLW  14
0A8A6:  MOVLB  4
0A8A8:  MOVWF  x01
0A8AA:  MOVLB  0
0A8AC:  CALL   1BD4
....................             if(RX_Buffer[4]==0x0b || DOWN){ 
0A8B0:  MOVF   34,W
0A8B2:  SUBLW  0B
0A8B4:  BZ    A8BC
0A8B6:  BSF    F93.5
0A8B8:  BTFSC  F81.5
0A8BA:  BRA    A91C
....................                if(RPT100>0.0) 
0A8BC:  MOVLB  3
0A8BE:  CLRF   xFD
0A8C0:  CLRF   xFC
0A8C2:  CLRF   xFB
0A8C4:  CLRF   xFA
0A8C6:  MOVFF  2C9,401
0A8CA:  MOVFF  2C8,400
0A8CE:  MOVFF  2C7,3FF
0A8D2:  MOVFF  2C6,3FE
0A8D6:  MOVLB  0
0A8D8:  CALL   28E0
0A8DC:  BNC   A918
....................                   RPT100-=0.1; 
0A8DE:  BSF    FD8.1
0A8E0:  MOVFF  2C9,404
0A8E4:  MOVFF  2C8,403
0A8E8:  MOVFF  2C7,402
0A8EC:  MOVFF  2C6,401
0A8F0:  MOVLW  CD
0A8F2:  MOVLB  4
0A8F4:  MOVWF  x08
0A8F6:  MOVLW  CC
0A8F8:  MOVWF  x07
0A8FA:  MOVLW  4C
0A8FC:  MOVWF  x06
0A8FE:  MOVLW  7B
0A900:  MOVWF  x05
0A902:  MOVLB  0
0A904:  CALL   1DB0
0A908:  MOVFF  03,2C9
0A90C:  MOVFF  02,2C8
0A910:  MOVFF  01,2C7
0A914:  MOVFF  00,2C6
....................                RX_Buffer[4]=0x00; 
0A918:  CLRF   34
....................                RX_Buffer2[4]=0x00;             
0A91A:  CLRF   3F
....................                //BorraBuffer(); 
....................             } 
....................          } 
....................       }else if(Opcion2==9){ 
0A91C:  BRA    AA2C
0A91E:  MOVLB  3
0A920:  MOVF   x91,W
0A922:  SUBLW  09
0A924:  BNZ   A9DC
....................          printf("Config.t2c.txt=\"TTrampa\""); 
0A926:  MOVLW  38
0A928:  MOVWF  FF6
0A92A:  MOVLW  1B
0A92C:  MOVWF  FF7
0A92E:  MOVLW  00
0A930:  MOVWF  FF8
0A932:  MOVLB  0
0A934:  CALL   33F8
....................          SendDataDisplay();       
0A938:  CALL   342A
....................          printf("t3c.txt=\"%02u\"",TTrampa); 
0A93C:  MOVLW  52
0A93E:  MOVWF  FF6
0A940:  MOVLW  1B
0A942:  MOVWF  FF7
0A944:  MOVLW  00
0A946:  MOVWF  FF8
0A948:  MOVLW  09
0A94A:  MOVLB  3
0A94C:  MOVWF  xFA
0A94E:  MOVLB  0
0A950:  CALL   45DE
0A954:  MOVFF  317,3F7
0A958:  MOVLW  01
0A95A:  MOVLB  3
0A95C:  MOVWF  xF8
0A95E:  MOVLB  0
0A960:  CALL   4646
0A964:  MOVLW  22
0A966:  BTFSS  F9E.4
0A968:  BRA    A966
0A96A:  MOVWF  FAD
....................          SendDataDisplay(); 
0A96C:  CALL   342A
....................          if(RX_Buffer[4]==0x0a || UP){//Tecla Arriba Oprimida 
0A970:  MOVF   34,W
0A972:  SUBLW  0A
0A974:  BZ    A97C
0A976:  BSF    F93.6
0A978:  BTFSC  F81.6
0A97A:  BRA    A9A4
....................             delay_ms(20); 
0A97C:  MOVLW  14
0A97E:  MOVLB  4
0A980:  MOVWF  x01
0A982:  MOVLB  0
0A984:  CALL   1BD4
....................             if(RX_Buffer[4]==0x0a || UP){ 
0A988:  MOVF   34,W
0A98A:  SUBLW  0A
0A98C:  BZ    A994
0A98E:  BSF    F93.6
0A990:  BTFSC  F81.6
0A992:  BRA    A9A4
....................                if(TTrampa<100) 
0A994:  MOVLB  3
0A996:  MOVF   x17,W
0A998:  SUBLW  63
0A99A:  BNC   A99E
....................                   TTrampa++; 
0A99C:  INCF   x17,F
....................                RX_Buffer[4]=0x00;   
0A99E:  CLRF   34
....................                RX_Buffer2[4]=0x00;             
0A9A0:  CLRF   3F
0A9A2:  MOVLB  0
....................                //BorraBuffer(); 
....................             } 
....................          } 
....................              
....................          if(RX_Buffer[4]==0x0b || DOWN){//Tecla Abajo Oprimida 
0A9A4:  MOVF   34,W
0A9A6:  SUBLW  0B
0A9A8:  BZ    A9B0
0A9AA:  BSF    F93.5
0A9AC:  BTFSC  F81.5
0A9AE:  BRA    A9D8
....................             delay_ms(20); 
0A9B0:  MOVLW  14
0A9B2:  MOVLB  4
0A9B4:  MOVWF  x01
0A9B6:  MOVLB  0
0A9B8:  CALL   1BD4
....................             if(RX_Buffer[4]==0x0b || DOWN){ 
0A9BC:  MOVF   34,W
0A9BE:  SUBLW  0B
0A9C0:  BZ    A9C8
0A9C2:  BSF    F93.5
0A9C4:  BTFSC  F81.5
0A9C6:  BRA    A9D8
....................                if(TTrampa>50) 
0A9C8:  MOVLB  3
0A9CA:  MOVF   x17,W
0A9CC:  SUBLW  32
0A9CE:  BC    A9D2
....................                   TTrampa--; 
0A9D0:  DECF   x17,F
....................                RX_Buffer[4]=0x00; 
0A9D2:  CLRF   34
....................                RX_Buffer2[4]=0x00;             
0A9D4:  CLRF   3F
0A9D6:  MOVLB  0
....................                //BorraBuffer(); 
....................             } 
....................          } 
....................       }else if(Opcion2==10){ 
0A9D8:  BRA    AA2C
0A9DA:  MOVLB  3
0A9DC:  MOVF   x91,W
0A9DE:  SUBLW  0A
0A9E0:  BNZ   AA2E
....................          printf("Config.t2c.txt=\"Ciclos\""); 
0A9E2:  MOVLW  62
0A9E4:  MOVWF  FF6
0A9E6:  MOVLW  1B
0A9E8:  MOVWF  FF7
0A9EA:  MOVLW  00
0A9EC:  MOVWF  FF8
0A9EE:  MOVLB  0
0A9F0:  CALL   33F8
....................          SendDataDisplay();       
0A9F4:  CALL   342A
....................          printf("t3c.txt=\"%03Lu\"",Ciclos); 
0A9F8:  MOVLW  7A
0A9FA:  MOVWF  FF6
0A9FC:  MOVLW  1B
0A9FE:  MOVWF  FF7
0AA00:  MOVLW  00
0AA02:  MOVWF  FF8
0AA04:  MOVLW  09
0AA06:  MOVLB  3
0AA08:  MOVWF  xFA
0AA0A:  MOVLB  0
0AA0C:  CALL   45DE
0AA10:  MOVLW  0A
0AA12:  MOVWF  FE9
0AA14:  MOVFF  3A6,3F7
0AA18:  MOVFF  3A5,3F6
0AA1C:  CALL   473C
0AA20:  MOVLW  22
0AA22:  BTFSS  F9E.4
0AA24:  BRA    AA22
0AA26:  MOVWF  FAD
....................          SendDataDisplay(); 
0AA28:  CALL   342A
0AA2C:  MOVLB  3
....................       } 
....................        
....................       if(RX_Buffer[4]==0x0c || LEFT){//Tecla Izquierda Oprimida 
0AA2E:  MOVF   34,W
0AA30:  SUBLW  0C
0AA32:  BZ    AA3A
0AA34:  BSF    F93.3
0AA36:  BTFSC  F81.3
0AA38:  BRA    AA5A
....................          delay_ms(20); 
0AA3A:  MOVLW  14
0AA3C:  MOVLB  4
0AA3E:  MOVWF  x01
0AA40:  MOVLB  0
0AA42:  CALL   1BD4
....................          if(RX_Buffer[4]==0x0c || LEFT){ 
0AA46:  MOVF   34,W
0AA48:  SUBLW  0C
0AA4A:  BZ    AA52
0AA4C:  BSF    F93.3
0AA4E:  BTFSC  F81.3
0AA50:  BRA    AA5C
....................             Opcion2++; 
0AA52:  MOVLB  3
0AA54:  INCF   x91,F
....................             RX_Buffer[4]=0x00;   
0AA56:  CLRF   34
....................             RX_Buffer2[4]=0x00;             
0AA58:  CLRF   3F
0AA5A:  MOVLB  0
....................             //BorraBuffer(); 
....................          } 
....................       } 
....................           
....................       if(RX_Buffer[4]==0x0d || RIGHT){//Tecla Derecha Oprimida 
0AA5C:  MOVF   34,W
0AA5E:  SUBLW  0D
0AA60:  BZ    AA68
0AA62:  BSF    F93.4
0AA64:  BTFSC  F81.4
0AA66:  BRA    AA8A
....................          delay_ms(20); 
0AA68:  MOVLW  14
0AA6A:  MOVLB  4
0AA6C:  MOVWF  x01
0AA6E:  MOVLB  0
0AA70:  CALL   1BD4
....................          if(RX_Buffer[4]==0x0d || RIGHT){ 
0AA74:  MOVF   34,W
0AA76:  SUBLW  0D
0AA78:  BZ    AA80
0AA7A:  BSF    F93.4
0AA7C:  BTFSC  F81.4
0AA7E:  BRA    AA8A
....................             Opcion2--; 
0AA80:  MOVLB  3
0AA82:  DECF   x91,F
....................             RX_Buffer[4]=0x00; 
0AA84:  CLRF   34
....................             RX_Buffer2[4]=0x00;             
0AA86:  CLRF   3F
0AA88:  MOVLB  0
....................             //BorraBuffer(); 
....................          } 
....................       } 
....................        
....................       if(RX_Buffer[4]==0x11 || (RIGHT && LEFT)){//Tecla Regresar 
0AA8A:  MOVF   34,W
0AA8C:  SUBLW  11
0AA8E:  BZ    AA9C
0AA90:  BSF    F93.4
0AA92:  BTFSC  F81.4
0AA94:  BRA    AE04
0AA96:  BSF    F93.3
0AA98:  BTFSC  F81.3
0AA9A:  BRA    AE04
....................          delay_ms(20); 
0AA9C:  MOVLW  14
0AA9E:  MOVLB  4
0AAA0:  MOVWF  x01
0AAA2:  MOVLB  0
0AAA4:  CALL   1BD4
....................          if(RX_Buffer[4]==0x11 || (RIGHT && LEFT)){ 
0AAA8:  MOVF   34,W
0AAAA:  SUBLW  11
0AAAC:  BZ    AABA
0AAAE:  BSF    F93.4
0AAB0:  BTFSC  F81.4
0AAB2:  BRA    AE04
0AAB4:  BSF    F93.3
0AAB6:  BTFSC  F81.3
0AAB8:  BRA    AE04
....................             if(!GuardaEEPROM){ 
0AABA:  BTFSC  xC6.4
0AABC:  BRA    ADF0
....................                write_eeprom(20,(int8)Ganancia); 
0AABE:  MOVFF  340,404
0AAC2:  MOVFF  33F,403
0AAC6:  MOVFF  33E,402
0AACA:  MOVFF  33D,401
0AACE:  CALL   3C18
0AAD2:  MOVFF  01,3F6
0AAD6:  CLRF   FAA
0AAD8:  MOVLW  14
0AADA:  MOVWF  FA9
0AADC:  MOVFF  3F6,FA8
0AAE0:  BCF    FA6.6
0AAE2:  BCF    FA6.7
0AAE4:  BSF    FA6.2
0AAE6:  MOVF   FF2,W
0AAE8:  MOVWF  00
0AAEA:  BCF    FF2.6
0AAEC:  BCF    FF2.7
0AAEE:  MOVLB  F
0AAF0:  MOVLW  55
0AAF2:  MOVWF  FA7
0AAF4:  MOVLW  AA
0AAF6:  MOVWF  FA7
0AAF8:  BSF    FA6.1
0AAFA:  BTFSC  FA6.1
0AAFC:  BRA    AAFA
0AAFE:  BCF    FA6.2
0AB00:  MOVF   00,W
0AB02:  IORWF  FF2,F
....................                delay_ms(10); 
0AB04:  MOVLW  0A
0AB06:  MOVLB  4
0AB08:  MOVWF  x01
0AB0A:  MOVLB  0
0AB0C:  CALL   1BD4
....................                write_eeprom(26,(int8)Integral); 
0AB10:  CLRF   FAA
0AB12:  MOVLW  1A
0AB14:  MOVWF  FA9
0AB16:  MOVFF  375,FA8
0AB1A:  BCF    FA6.6
0AB1C:  BCF    FA6.7
0AB1E:  BSF    FA6.2
0AB20:  MOVF   FF2,W
0AB22:  MOVWF  00
0AB24:  BCF    FF2.6
0AB26:  BCF    FF2.7
0AB28:  MOVLB  F
0AB2A:  MOVLW  55
0AB2C:  MOVWF  FA7
0AB2E:  MOVLW  AA
0AB30:  MOVWF  FA7
0AB32:  BSF    FA6.1
0AB34:  BTFSC  FA6.1
0AB36:  BRA    AB34
0AB38:  BCF    FA6.2
0AB3A:  MOVF   00,W
0AB3C:  IORWF  FF2,F
....................                delay_ms(10); 
0AB3E:  MOVLW  0A
0AB40:  MOVLB  4
0AB42:  MOVWF  x01
0AB44:  MOVLB  0
0AB46:  CALL   1BD4
....................                write_eeprom(27,(int8)Derivativo); 
0AB4A:  CLRF   FAA
0AB4C:  MOVLW  1B
0AB4E:  MOVWF  FA9
0AB50:  MOVFF  376,FA8
0AB54:  BCF    FA6.6
0AB56:  BCF    FA6.7
0AB58:  BSF    FA6.2
0AB5A:  MOVF   FF2,W
0AB5C:  MOVWF  00
0AB5E:  BCF    FF2.6
0AB60:  BCF    FF2.7
0AB62:  MOVLB  F
0AB64:  MOVLW  55
0AB66:  MOVWF  FA7
0AB68:  MOVLW  AA
0AB6A:  MOVWF  FA7
0AB6C:  BSF    FA6.1
0AB6E:  BTFSC  FA6.1
0AB70:  BRA    AB6E
0AB72:  BCF    FA6.2
0AB74:  MOVF   00,W
0AB76:  IORWF  FF2,F
....................                delay_ms(10); 
0AB78:  MOVLW  0A
0AB7A:  MOVLB  4
0AB7C:  MOVWF  x01
0AB7E:  MOVLB  0
0AB80:  CALL   1BD4
....................                write_eeprom(25,(int8)Tciclo); 
0AB84:  MOVFF  328,404
0AB88:  MOVFF  327,403
0AB8C:  MOVFF  326,402
0AB90:  MOVFF  325,401
0AB94:  CALL   3C18
0AB98:  MOVFF  01,3F6
0AB9C:  CLRF   FAA
0AB9E:  MOVLW  19
0ABA0:  MOVWF  FA9
0ABA2:  MOVFF  3F6,FA8
0ABA6:  BCF    FA6.6
0ABA8:  BCF    FA6.7
0ABAA:  BSF    FA6.2
0ABAC:  MOVF   FF2,W
0ABAE:  MOVWF  00
0ABB0:  BCF    FF2.6
0ABB2:  BCF    FF2.7
0ABB4:  MOVLB  F
0ABB6:  MOVLW  55
0ABB8:  MOVWF  FA7
0ABBA:  MOVLW  AA
0ABBC:  MOVWF  FA7
0ABBE:  BSF    FA6.1
0ABC0:  BTFSC  FA6.1
0ABC2:  BRA    ABC0
0ABC4:  BCF    FA6.2
0ABC6:  MOVF   00,W
0ABC8:  IORWF  FF2,F
....................                delay_ms(10); 
0ABCA:  MOVLW  0A
0ABCC:  MOVLB  4
0ABCE:  MOVWF  x01
0ABD0:  MOVLB  0
0ABD2:  CALL   1BD4
....................                write_eeprom(21,Ajuste); 
0ABD6:  CLRF   FAA
0ABD8:  MOVLW  15
0ABDA:  MOVWF  FA9
0ABDC:  MOVFF  314,FA8
0ABE0:  BCF    FA6.6
0ABE2:  BCF    FA6.7
0ABE4:  BSF    FA6.2
0ABE6:  MOVF   FF2,W
0ABE8:  MOVWF  00
0ABEA:  BCF    FF2.6
0ABEC:  BCF    FF2.7
0ABEE:  MOVLB  F
0ABF0:  MOVLW  55
0ABF2:  MOVWF  FA7
0ABF4:  MOVLW  AA
0ABF6:  MOVWF  FA7
0ABF8:  BSF    FA6.1
0ABFA:  BTFSC  FA6.1
0ABFC:  BRA    ABFA
0ABFE:  BCF    FA6.2
0AC00:  MOVF   00,W
0AC02:  IORWF  FF2,F
....................                delay_ms(10); 
0AC04:  MOVLW  0A
0AC06:  MOVLB  4
0AC08:  MOVWF  x01
0AC0A:  MOVLB  0
0AC0C:  CALL   1BD4
....................                write_eeprom(22,Ajusten); 
0AC10:  CLRF   FAA
0AC12:  MOVLW  16
0AC14:  MOVWF  FA9
0AC16:  MOVFF  315,FA8
0AC1A:  BCF    FA6.6
0AC1C:  BCF    FA6.7
0AC1E:  BSF    FA6.2
0AC20:  MOVF   FF2,W
0AC22:  MOVWF  00
0AC24:  BCF    FF2.6
0AC26:  BCF    FF2.7
0AC28:  MOVLB  F
0AC2A:  MOVLW  55
0AC2C:  MOVWF  FA7
0AC2E:  MOVLW  AA
0AC30:  MOVWF  FA7
0AC32:  BSF    FA6.1
0AC34:  BTFSC  FA6.1
0AC36:  BRA    AC34
0AC38:  BCF    FA6.2
0AC3A:  MOVF   00,W
0AC3C:  IORWF  FF2,F
....................                delay_ms(10); 
0AC3E:  MOVLW  0A
0AC40:  MOVLB  4
0AC42:  MOVWF  x01
0AC44:  MOVLB  0
0AC46:  CALL   1BD4
....................                write_eeprom(24,(int8)MediaMovil); 
0AC4A:  CLRF   FAA
0AC4C:  MOVLW  18
0AC4E:  MOVWF  FA9
0AC50:  MOVFF  316,FA8
0AC54:  BCF    FA6.6
0AC56:  BCF    FA6.7
0AC58:  BSF    FA6.2
0AC5A:  MOVF   FF2,W
0AC5C:  MOVWF  00
0AC5E:  BCF    FF2.6
0AC60:  BCF    FF2.7
0AC62:  MOVLB  F
0AC64:  MOVLW  55
0AC66:  MOVWF  FA7
0AC68:  MOVLW  AA
0AC6A:  MOVWF  FA7
0AC6C:  BSF    FA6.1
0AC6E:  BTFSC  FA6.1
0AC70:  BRA    AC6E
0AC72:  BCF    FA6.2
0AC74:  MOVF   00,W
0AC76:  IORWF  FF2,F
....................                delay_ms(10); 
0AC78:  MOVLW  0A
0AC7A:  MOVLB  4
0AC7C:  MOVWF  x01
0AC7E:  MOVLB  0
0AC80:  CALL   1BD4
....................                write_eeprom(32,(int8)RPT100); 
0AC84:  MOVFF  2C9,404
0AC88:  MOVFF  2C8,403
0AC8C:  MOVFF  2C7,402
0AC90:  MOVFF  2C6,401
0AC94:  CALL   3C18
0AC98:  MOVFF  01,3F6
0AC9C:  CLRF   FAA
0AC9E:  MOVLW  20
0ACA0:  MOVWF  FA9
0ACA2:  MOVFF  3F6,FA8
0ACA6:  BCF    FA6.6
0ACA8:  BCF    FA6.7
0ACAA:  BSF    FA6.2
0ACAC:  MOVF   FF2,W
0ACAE:  MOVWF  00
0ACB0:  BCF    FF2.6
0ACB2:  BCF    FF2.7
0ACB4:  MOVLB  F
0ACB6:  MOVLW  55
0ACB8:  MOVWF  FA7
0ACBA:  MOVLW  AA
0ACBC:  MOVWF  FA7
0ACBE:  BSF    FA6.1
0ACC0:  BTFSC  FA6.1
0ACC2:  BRA    ACC0
0ACC4:  BCF    FA6.2
0ACC6:  MOVF   00,W
0ACC8:  IORWF  FF2,F
....................                delay_ms(10); 
0ACCA:  MOVLW  0A
0ACCC:  MOVLB  4
0ACCE:  MOVWF  x01
0ACD0:  MOVLB  0
0ACD2:  CALL   1BD4
....................                Temporal=RPT100-((int8)RPT100); 
0ACD6:  MOVFF  2C9,404
0ACDA:  MOVFF  2C8,403
0ACDE:  MOVFF  2C7,402
0ACE2:  MOVFF  2C6,401
0ACE6:  CALL   3C18
0ACEA:  MOVLB  4
0ACEC:  CLRF   x02
0ACEE:  MOVFF  01,401
0ACF2:  MOVLB  0
0ACF4:  CALL   1BFC
0ACF8:  BSF    FD8.1
0ACFA:  MOVFF  2C9,404
0ACFE:  MOVFF  2C8,403
0AD02:  MOVFF  2C7,402
0AD06:  MOVFF  2C6,401
0AD0A:  MOVFF  03,408
0AD0E:  MOVFF  02,407
0AD12:  MOVFF  01,406
0AD16:  MOVFF  00,405
0AD1A:  CALL   1DB0
0AD1E:  MOVFF  03,2CD
0AD22:  MOVFF  02,2CC
0AD26:  MOVFF  01,2CB
0AD2A:  MOVFF  00,2CA
....................                Temporal=Temporal*10; 
0AD2E:  MOVFF  2CD,410
0AD32:  MOVFF  2CC,40F
0AD36:  MOVFF  2CB,40E
0AD3A:  MOVFF  2CA,40D
0AD3E:  MOVLB  4
0AD40:  CLRF   x14
0AD42:  CLRF   x13
0AD44:  MOVLW  20
0AD46:  MOVWF  x12
0AD48:  MOVLW  82
0AD4A:  MOVWF  x11
0AD4C:  MOVLB  0
0AD4E:  CALL   34DA
0AD52:  MOVFF  03,2CD
0AD56:  MOVFF  02,2CC
0AD5A:  MOVFF  01,2CB
0AD5E:  MOVFF  00,2CA
....................                write_eeprom(33,(int8)Temporal); 
0AD62:  MOVFF  2CD,404
0AD66:  MOVFF  2CC,403
0AD6A:  MOVFF  2CB,402
0AD6E:  MOVFF  2CA,401
0AD72:  CALL   3C18
0AD76:  MOVFF  01,3F6
0AD7A:  CLRF   FAA
0AD7C:  MOVLW  21
0AD7E:  MOVWF  FA9
0AD80:  MOVFF  3F6,FA8
0AD84:  BCF    FA6.6
0AD86:  BCF    FA6.7
0AD88:  BSF    FA6.2
0AD8A:  MOVF   FF2,W
0AD8C:  MOVWF  00
0AD8E:  BCF    FF2.6
0AD90:  BCF    FF2.7
0AD92:  MOVLB  F
0AD94:  MOVLW  55
0AD96:  MOVWF  FA7
0AD98:  MOVLW  AA
0AD9A:  MOVWF  FA7
0AD9C:  BSF    FA6.1
0AD9E:  BTFSC  FA6.1
0ADA0:  BRA    AD9E
0ADA2:  BCF    FA6.2
0ADA4:  MOVF   00,W
0ADA6:  IORWF  FF2,F
....................                delay_ms(10); 
0ADA8:  MOVLW  0A
0ADAA:  MOVLB  4
0ADAC:  MOVWF  x01
0ADAE:  MOVLB  0
0ADB0:  CALL   1BD4
....................                write_eeprom(39,TTrampa); 
0ADB4:  CLRF   FAA
0ADB6:  MOVLW  27
0ADB8:  MOVWF  FA9
0ADBA:  MOVFF  317,FA8
0ADBE:  BCF    FA6.6
0ADC0:  BCF    FA6.7
0ADC2:  BSF    FA6.2
0ADC4:  MOVF   FF2,W
0ADC6:  MOVWF  00
0ADC8:  BCF    FF2.6
0ADCA:  BCF    FF2.7
0ADCC:  MOVLB  F
0ADCE:  MOVLW  55
0ADD0:  MOVWF  FA7
0ADD2:  MOVLW  AA
0ADD4:  MOVWF  FA7
0ADD6:  BSF    FA6.1
0ADD8:  BTFSC  FA6.1
0ADDA:  BRA    ADD8
0ADDC:  BCF    FA6.2
0ADDE:  MOVF   00,W
0ADE0:  IORWF  FF2,F
....................                delay_ms(10); 
0ADE2:  MOVLW  0A
0ADE4:  MOVLB  4
0ADE6:  MOVWF  x01
0ADE8:  MOVLB  0
0ADEA:  CALL   1BD4
....................                GuardaEEPROM=ON; 
0ADEE:  BSF    xC6.4
....................             } 
....................             printf("page MenuPrincipal"); 
0ADF0:  MOVLW  8A
0ADF2:  MOVWF  FF6
0ADF4:  MOVLW  1B
0ADF6:  MOVWF  FF7
0ADF8:  MOVLW  00
0ADFA:  MOVWF  FF8
0ADFC:  CALL   33F8
....................             SendDataDisplay(); 
0AE00:  CALL   342A
....................             //BorraBuffer(); 
....................          } 
....................       } 
....................       printf("fecha.txt=\"Fecha:%02u/%02u/20%02u    Hora: %02u:%02u\"",Dia,Mes,Year,Hora,Minuto); 
0AE04:  MOVLW  9E
0AE06:  MOVWF  FF6
0AE08:  MOVLW  1B
0AE0A:  MOVWF  FF7
0AE0C:  MOVLW  00
0AE0E:  MOVWF  FF8
0AE10:  MOVLW  11
0AE12:  MOVLB  3
0AE14:  MOVWF  xFA
0AE16:  MOVLB  0
0AE18:  CALL   45DE
0AE1C:  MOVFF  3C2,3F7
0AE20:  MOVLW  01
0AE22:  MOVLB  3
0AE24:  MOVWF  xF8
0AE26:  MOVLB  0
0AE28:  CALL   4646
0AE2C:  MOVLW  2F
0AE2E:  BTFSS  F9E.4
0AE30:  BRA    AE2E
0AE32:  MOVWF  FAD
0AE34:  MOVFF  3C1,3F7
0AE38:  MOVLW  01
0AE3A:  MOVLB  3
0AE3C:  MOVWF  xF8
0AE3E:  MOVLB  0
0AE40:  CALL   4646
0AE44:  MOVLW  2F
0AE46:  BTFSS  F9E.4
0AE48:  BRA    AE46
0AE4A:  MOVWF  FAD
0AE4C:  MOVLW  32
0AE4E:  BTFSS  F9E.4
0AE50:  BRA    AE4E
0AE52:  MOVWF  FAD
0AE54:  MOVLW  30
0AE56:  BTFSS  F9E.4
0AE58:  BRA    AE56
0AE5A:  MOVWF  FAD
0AE5C:  MOVFF  3C0,3F7
0AE60:  MOVLW  01
0AE62:  MOVLB  3
0AE64:  MOVWF  xF8
0AE66:  MOVLB  0
0AE68:  CALL   4646
0AE6C:  MOVLW  BF
0AE6E:  MOVWF  FF6
0AE70:  MOVLW  1B
0AE72:  MOVWF  FF7
0AE74:  MOVLW  00
0AE76:  MOVWF  FF8
0AE78:  MOVLW  0A
0AE7A:  MOVLB  3
0AE7C:  MOVWF  xFA
0AE7E:  MOVLB  0
0AE80:  CALL   45DE
0AE84:  MOVFF  3C3,3F7
0AE88:  MOVLW  01
0AE8A:  MOVLB  3
0AE8C:  MOVWF  xF8
0AE8E:  MOVLB  0
0AE90:  CALL   4646
0AE94:  MOVLW  3A
0AE96:  BTFSS  F9E.4
0AE98:  BRA    AE96
0AE9A:  MOVWF  FAD
0AE9C:  MOVFF  3C4,3F7
0AEA0:  MOVLW  01
0AEA2:  MOVLB  3
0AEA4:  MOVWF  xF8
0AEA6:  MOVLB  0
0AEA8:  CALL   4646
0AEAC:  MOVLW  22
0AEAE:  BTFSS  F9E.4
0AEB0:  BRA    AEAE
0AEB2:  MOVWF  FAD
....................       SendDataDisplay();  
0AEB4:  CALL   342A
0AEB8:  MOVLB  3
....................     } 
.................... //_--------------------------------------------------------------------------------------------------------------------------------------------------------        
....................  
....................    } 
0AEBA:  GOTO   5BF8
.................... } 
0AEBE:  SLEEP 

Configuration Fuses:
   Word  1: 0200   HS NOIESO NOFCMEN
   Word  2: 1B1F   BROWNOUT WDT BORV20 NOPUT WDT8192
   Word  3: 0000   NOPBADEN NOLPT1OSC NOMCLR
   Word  4: 00B0   NOSTVREN NODEBUG NOLVP NOXINST BBSIZ4K
   Word  5: C03F   NOPROTECT NOCPD NOCPB
   Word  6: E03F   NOWRT NOWRTD NOWRTC NOWRTB
   Word  7: 403F   NOEBTR NOEBTRB
