CCS PCH C Compiler, Version 4.104, 5967               26-may.-21 16:23

               Filename: D:\Laboratorio\Autoclave\Autoclave Horizontal\Sin Precamara\2021\Autoclave 55L Rodam #0045885XX OP202183\Firmware V4.1.0 - Reservorio-Presion-200Ciclos-Impresora-DobleDisplay\GLCD_Controller_V3.0.1 - PruebaRelojI2C\GLCD_Controller.lst

               ROM used: 58870 bytes (60%)
                         Largest free fragment is 32768
               RAM used: 1151 (35%) at main() level
                         1179 (35%) worst case
               Stack:    5 worst case (4 in main + 1 for interrupts)

*
00000:  GOTO   7588
*
00008:  GOTO   00BA
0000C:  NOP   
0000E:  NOP   
00010:  NOP   
00012:  NOP   
00014:  NOP   
00016:  NOP   
00018:  MOVWF  04
0001A:  MOVFF  FD8,05
0001E:  MOVFF  FE0,06
00022:  MOVLB  0
00024:  MOVFF  FE9,0C
00028:  MOVFF  FEA,07
0002C:  MOVFF  FE1,08
00030:  MOVFF  FE2,09
00034:  MOVFF  FD9,0A
00038:  MOVFF  FDA,0B
0003C:  MOVFF  FF3,12
00040:  MOVFF  FF4,13
00044:  MOVFF  FFA,14
00048:  MOVFF  FFB,15
0004C:  MOVFF  00,0E
00050:  MOVFF  01,0F
00054:  MOVFF  02,10
00058:  MOVFF  03,11
0005C:  BTFSS  FF2.5
0005E:  GOTO   0068
00062:  BTFSC  FF2.2
00064:  GOTO   03BA
00068:  BTFSS  F9D.0
0006A:  GOTO   0074
0006E:  BTFSC  F9E.0
00070:  GOTO   0412
00074:  MOVFF  0E,00
00078:  MOVFF  0F,01
0007C:  MOVFF  10,02
00080:  MOVFF  11,03
00084:  MOVFF  0C,FE9
00088:  MOVFF  07,FEA
0008C:  BSF    07.7
0008E:  MOVFF  08,FE1
00092:  MOVFF  09,FE2
00096:  MOVFF  0A,FD9
0009A:  MOVFF  0B,FDA
0009E:  MOVFF  12,FF3
000A2:  MOVFF  13,FF4
000A6:  MOVFF  14,FFA
000AA:  MOVFF  15,FFB
000AE:  MOVF   04,W
000B0:  MOVFF  06,FE0
000B4:  MOVFF  05,FD8
000B8:  RETFIE 0
000BA:  MOVWF  17
000BC:  MOVFF  FD8,18
000C0:  MOVFF  FE0,19
000C4:  MOVLB  0
000C6:  MOVFF  FE9,1F
000CA:  MOVFF  FEA,1A
000CE:  MOVFF  FE1,1B
000D2:  MOVFF  FE2,1C
000D6:  MOVFF  FD9,1D
000DA:  MOVFF  FDA,1E
000DE:  MOVFF  FF3,25
000E2:  MOVFF  FF4,26
000E6:  MOVFF  FFA,27
000EA:  MOVFF  FFB,28
000EE:  MOVFF  00,21
000F2:  MOVFF  01,22
000F6:  MOVFF  02,23
000FA:  MOVFF  03,24
000FE:  BTFSS  F9D.5
00100:  GOTO   010A
00104:  BTFSC  F9E.5
00106:  GOTO   034C
0010A:  MOVFF  21,00
0010E:  MOVFF  22,01
00112:  MOVFF  23,02
00116:  MOVFF  24,03
0011A:  MOVFF  1F,FE9
0011E:  MOVFF  1A,FEA
00122:  BSF    1A.7
00124:  MOVFF  1B,FE1
00128:  MOVFF  1C,FE2
0012C:  MOVFF  1D,FD9
00130:  MOVFF  1E,FDA
00134:  MOVFF  25,FF3
00138:  MOVFF  26,FF4
0013C:  MOVFF  27,FFA
00140:  MOVFF  28,FFB
00144:  MOVF   17,W
00146:  MOVFF  19,FE0
0014A:  MOVFF  18,FD8
0014E:  RETFIE 0
.................... //Falta crear menu de ajuste de variables y de norma CFR21 
....................  
.................... #include <18F4685.h> 
.................... //////// Standard Header file for the PIC18F4685 device //////////////// 
.................... #device PIC18F4685 
.................... #list 
....................  
.................... #device adc=10 
.................... #device HIGH_INTS=TRUE //Activamos niveles de prioridad 
.................... #fuses HS,WDT8192,NOPROTECT,NOLVP,NODEBUG,NOSTVREN,PUT,NOCPD,NOWRT,NOIESO,NOFCMEN,NOPBADEN,NOWRTC,NOWRTB,NOEBTR,NOEBTRB,NOCPB,NOXINST,NOLPT1OSC,NOMCLR,NOBROWNOUT,BORV42 
.................... #use delay(clock=20000000) 
*
01B28:  MOVLW  04
01B2A:  MOVWF  FEA
01B2C:  MOVLW  8D
01B2E:  MOVWF  FE9
01B30:  MOVF   FEF,W
01B32:  BZ    1B4E
01B34:  MOVLW  06
01B36:  MOVWF  01
01B38:  CLRF   00
01B3A:  DECFSZ 00,F
01B3C:  BRA    1B3A
01B3E:  DECFSZ 01,F
01B40:  BRA    1B38
01B42:  MOVLW  7B
01B44:  MOVWF  00
01B46:  DECFSZ 00,F
01B48:  BRA    1B46
01B4A:  DECFSZ FEF,F
01B4C:  BRA    1B34
01B4E:  RETLW  00
.................... #use i2c(Master,slow,sda=PIN_C4,scl=PIN_C3) 
*
0465A:  MOVLW  08
0465C:  MOVWF  01
0465E:  MOVLW  05
04660:  MOVWF  00
04662:  DECFSZ 00,F
04664:  BRA    4662
04666:  BCF    F8B.3
04668:  BCF    F94.3
0466A:  MOVLW  06
0466C:  MOVWF  00
0466E:  DECFSZ 00,F
04670:  BRA    466E
04672:  MOVLB  4
04674:  RLCF   x95,F
04676:  BCF    F8B.4
04678:  BTFSC  FD8.0
0467A:  BSF    F94.4
0467C:  BTFSS  FD8.0
0467E:  BCF    F94.4
04680:  BSF    F94.3
04682:  BTFSS  F82.3
04684:  BRA    4682
04686:  DECFSZ 01,F
04688:  BRA    468C
0468A:  BRA    4690
0468C:  MOVLB  0
0468E:  BRA    465E
04690:  MOVLW  05
04692:  MOVWF  00
04694:  DECFSZ 00,F
04696:  BRA    4694
04698:  BCF    F8B.3
0469A:  BCF    F94.3
0469C:  NOP   
0469E:  BSF    F94.4
046A0:  MOVLW  06
046A2:  MOVWF  00
046A4:  DECFSZ 00,F
046A6:  BRA    46A4
046A8:  MOVLW  06
046AA:  MOVWF  00
046AC:  DECFSZ 00,F
046AE:  BRA    46AC
046B0:  BSF    F94.3
046B2:  BTFSS  F82.3
046B4:  BRA    46B2
046B6:  CLRF   01
046B8:  MOVLW  06
046BA:  MOVWF  00
046BC:  DECFSZ 00,F
046BE:  BRA    46BC
046C0:  BTFSC  F82.4
046C2:  BSF    01.0
046C4:  BCF    F8B.3
046C6:  BCF    F94.3
046C8:  BCF    F8B.4
046CA:  BCF    F94.4
046CC:  MOVLB  0
046CE:  RETLW  00
*
0477C:  MOVLW  08
0477E:  MOVLB  4
04780:  MOVWF  x7D
04782:  MOVFF  00,47E
04786:  BSF    F94.4
04788:  MOVLW  06
0478A:  MOVWF  00
0478C:  DECFSZ 00,F
0478E:  BRA    478C
04790:  BSF    F94.3
04792:  BTFSS  F82.3
04794:  BRA    4792
04796:  BTFSC  F82.4
04798:  BSF    FD8.0
0479A:  BTFSS  F82.4
0479C:  BCF    FD8.0
0479E:  RLCF   01,F
047A0:  MOVLW  05
047A2:  MOVWF  00
047A4:  DECFSZ 00,F
047A6:  BRA    47A4
047A8:  BCF    F94.3
047AA:  BCF    F8B.3
047AC:  DECFSZ x7D,F
047AE:  BRA    4786
047B0:  BSF    F94.4
047B2:  MOVLW  06
047B4:  MOVWF  00
047B6:  DECFSZ 00,F
047B8:  BRA    47B6
047BA:  BCF    F8B.4
047BC:  MOVF   x7E,W
047BE:  BTFSS  FD8.2
047C0:  BCF    F94.4
047C2:  NOP   
047C4:  BSF    F94.3
047C6:  BTFSS  F82.3
047C8:  BRA    47C6
047CA:  MOVLW  05
047CC:  MOVWF  00
047CE:  DECFSZ 00,F
047D0:  BRA    47CE
047D2:  BCF    F8B.3
047D4:  BCF    F94.3
047D6:  MOVLW  06
047D8:  MOVWF  00
047DA:  DECFSZ 00,F
047DC:  BRA    47DA
047DE:  BCF    F8B.4
047E0:  BCF    F94.4
047E2:  MOVLB  0
047E4:  RETLW  00
.................... #use rs232(baud=9600, xmit=PIN_C6, rcv=PIN_C7, bits=8, parity=N) 
*
03936:  BTFSS  F9E.4
03938:  BRA    3936
0393A:  MOVWF  FAD
0393C:  RETLW  00
.................... //#include "HDM64GS12.c" 
.................... //#include "GRAPHICS.c" 
.................... ///#include "imagen.h" 
.................... #include <stdio.h> 
.................... /////////////////////////////////////////////////////////////////////////// 
.................... ////        (C) Copyright 1996,2003 Custom Computer Services           //// 
.................... //// This source code may only be used by licensed users of the CCS C  //// 
.................... //// compiler.  This source code may only be distributed to other      //// 
.................... //// licensed users of the CCS C compiler.  No other use, reproduction //// 
.................... //// or distribution is permitted without written permission.          //// 
.................... //// Derivative programs created using this software in object code    //// 
.................... //// form are not restricted in any way.                               //// 
.................... /////////////////////////////////////////////////////////////////////////// 
....................  
.................... #ifndef _STDIO 
.................... #define _STDIO 
.................... #include <string.h> 
.................... //////////////////////////////////////////////////////////////////////////// 
.................... ////        (C) Copyright 1996,2008 Custom Computer Services            //// 
.................... //// This source code may only be used by licensed users of the CCS C   //// 
.................... //// compiler.  This source code may only be distributed to other       //// 
.................... //// licensed users of the CCS C compiler.  No other use, reproduction  //// 
.................... //// or distribution is permitted without written permission.           //// 
.................... //// Derivative programs created using this software in object code     //// 
.................... //// form are not restricted in any way.                                //// 
.................... //////////////////////////////////////////////////////////////////////////// 
....................  
.................... #ifndef _STRING 
.................... #define _STRING 
.................... #include <stddef.h> 
.................... /////////////////////////////////////////////////////////////////////////// 
.................... ////        (C) Copyright 1996,2003 Custom Computer Services           //// 
.................... //// This source code may only be used by licensed users of the CCS C  //// 
.................... //// compiler.  This source code may only be distributed to other      //// 
.................... //// licensed users of the CCS C compiler.  No other use, reproduction //// 
.................... //// or distribution is permitted without written permission.          //// 
.................... //// Derivative programs created using this software in object code    //// 
.................... //// form are not restricted in any way.                               //// 
.................... /////////////////////////////////////////////////////////////////////////// 
....................  
.................... #ifndef _STDDEF 
....................  
.................... #define _STDDEF 
....................  
.................... #if sizeof(unsigned int8 *)==1 
.................... #define ptrdiff_t unsigned int8 
.................... #else 
.................... #define ptrdiff_t unsigned int16 
.................... #endif 
....................  
.................... #define size_t unsigned int8 
.................... #define wchar_t char 
.................... #define NULL 0 
....................  
.................... #define offsetof(s,f) (offsetofbit(s,f)/8) 
....................  
.................... #endif 
....................  
.................... #include <ctype.h> 
.................... //////////////////////////////////////////////////////////////////////////// 
.................... ////        (C) Copyright 1996,2003 Custom Computer Services            //// 
.................... //// This source code may only be used by licensed users of the CCS C   //// 
.................... //// compiler.  This source code may only be distributed to other       //// 
.................... //// licensed users of the CCS C compiler.  No other use, reproduction  //// 
.................... //// or distribution is permitted without written permission.           //// 
.................... //// Derivative programs created using this software in object code     //// 
.................... //// form are not restricted in any way.                                //// 
.................... //////////////////////////////////////////////////////////////////////////// 
....................  
.................... #ifndef _CTYPE 
.................... #define _CTYPE 
....................  
.................... #define islower(x)  isamong(x,"abcdefghijklmnopqrstuvwxyz") 
.................... #define isupper(x)  isamong(x,"ABCDEFGHIJKLMNOPQRSTUVWXYZ") 
.................... #define isalnum(x)  isamong(x,"0123456789ABCDEFGHIJKLMNOPQRSTUVWXYZabcdefghijklmnopqrstuvwxyz") 
.................... #define isalpha(x)  isamong(x,"ABCDEFGHIJKLMNOPQRSTUVWXYZabcdefghijklmnopqrstuvwxyz") 
.................... #define isdigit(x)  isamong(x,"0123456789") 
.................... #define isspace(x)  ((x)==' ') 
.................... #define isxdigit(x) isamong(x,"0123456789ABCDEFabcdef") 
.................... #define iscntrl(x)  ((x)<' ') 
.................... #define isprint(x)  ((x)>=' ') 
.................... #define isgraph(x)  ((x)>' ') 
.................... #define ispunct(x)  (((x)>' ')&&!isalnum(x)) 
....................  
.................... #endif 
....................  
....................  
....................  
....................  
....................  
.................... ////////////////////////////////////////////// 
.................... //// Uncomment the following define to    //// 
.................... //// allow some functions to use a        //// 
.................... //// quicker algorithm, but use more ROM  //// 
.................... ////                                      //// 
.................... //// #define FASTER_BUT_MORE_ROM          //// 
.................... ////////////////////////////////////////////// 
....................  
....................  
....................  
.................... /*Copying functions*/ 
.................... /* standard template: 
....................    void *memmove(void *s1, void *s2, size_t n). 
....................    Copies max of n characters safely (not following ending '\0') 
....................    from s2 in s1; if s2 has less than n characters, appends 0 */ 
....................  
.................... char *memmove(void *s1,char *s2,size_t n) 
.................... { 
....................    char *sc1; 
....................    char *sc2; 
....................    sc1=s1; 
....................    sc2=s2; 
....................    if(sc2<sc1 && sc1 <sc2 +n) 
....................       for(sc1+=n,sc2+=n;0<n;--n) 
....................          *--sc1=*--sc2; 
....................    else 
....................       for(;0<n;--n) 
....................          *sc1++=*sc2++; 
....................   return s1; 
....................   } 
....................  
.................... /* Standard template: char *strcpy(char *s1, const char *s2) 
....................    copies the string s2 including the null character to s1. 
....................    This is a compiler built in to handle the different address 
....................    spaces */ 
....................  
.................... #define strcopy strcpy 
....................  
.................... /* standard template: 
....................    char *strncpy(char *s1, const char *s2, size_t n). 
....................    Copies max of n characters (not following ending '\0') 
....................    from s2 in s1; if s2 has less than n characters, appends 0 */ 
....................  
.................... char *strncpy(char *s1, char *s2, size_t n) 
.................... { 
....................   char *s; 
....................  
....................   for (s = s1; n > 0 && *s2 != '\0'; n--) 
....................      *s++ = *s2++; 
....................   for (; n > 0; n--) 
....................      *s++ = '\0'; 
....................  
....................   return(s1); 
.................... } 
.................... /***********************************************************/ 
....................  
.................... /*concatenation functions*/ 
.................... /* standard template: char *strcat(char *s1, const char *s2) 
.................... appends s2 to s1*/ 
....................  
.................... char *strcat(char *s1, char *s2) 
.................... { 
....................    char *s; 
....................  
....................    for (s = s1; *s != '\0'; ++s); 
....................    while(*s2 != '\0') 
....................    { 
....................       *s = *s2; 
....................       ++s; 
....................       ++s2; 
....................    } 
....................  
....................    *s = '\0'; 
....................    return(s1); 
.................... } 
.................... /* standard template: char *strncat(char *s1, char *s2,size_t n) 
.................... appends not more than n characters from s2 to s1*/ 
....................  
.................... char *strncat(char *s1, char *s2, size_t n) 
.................... { 
....................    char *s; 
....................  
....................    for (s = s1; *s != '\0'; ++s); 
....................    while(*s2 != '\0' && 0<n) 
....................    { 
....................       *s = *s2; 
....................       ++s; 
....................       ++s2; 
....................       --n; 
....................    } 
....................  
....................    *s = '\0'; 
....................    return(s1); 
.................... } 
....................  
.................... /***********************************************************/ 
....................  
....................  
.................... /*comparison functions*/ 
.................... /* standard template: signed int memcmp(void *s1, void *s2). 
....................    Compares s1 & s2; returns -1 if s1<s2, 0 if s1=s2, 1 if s1>s2 */ 
....................  
.................... signed int8 memcmp(void * s1,char *s2,size_t n) 
.................... { 
.................... char *su1, *su2; 
.................... for(su1=s1, su2=s2; 0<n; ++su1, ++su2, --n) 
.................... { 
....................    if(*su1!=*su2) 
....................       return ((*su1<*su2)?-1:+1); 
.................... } 
.................... return 0; 
.................... } 
....................  
.................... /* standard template: int strcmp(const char *s1, const char *s2). 
....................    Compares s1 & s2; returns -1 if s1<s2, 0 if s1=s2, 1 if s1>s2 */ 
....................  
.................... signed int8 strcmp(char *s1, char *s2) 
.................... { 
....................    for (; *s1 == *s2; s1++, s2++) 
....................       if (*s1 == '\0') 
....................          return(0); 
....................    return((*s1 < *s2) ? -1: 1); 
.................... } 
.................... /* standard template: int strcoll(const char *s1, const char *s2). 
....................    Compares s1 & s2; returns -1 if s1<s2, 0 if s1=s2, 1 if s1>s2 */ 
....................  
.................... signed int8 strcoll(char *s1, char *s2) 
.................... { 
....................    for (; *s1 == *s2; s1++, s2++) 
....................       if (*s1 == '\0') 
....................          return(0); 
....................    return((*s1 < *s2) ? -1: 1); 
.................... } 
....................  
.................... /* standard template: 
....................    int strncmp(const char *s1, const char *s2, size_t n). 
....................    Compares max of n characters (not following 0) from s1 to s2; 
....................    returns same as strcmp */ 
....................  
.................... signed int8 strncmp(char *s1, char *s2, size_t n) 
.................... { 
....................    for (; n > 0; s1++, s2++, n--) 
....................       if (*s1 != *s2) 
....................          return((*s1 <*s2) ? -1: 1); 
....................       else if (*s1 == '\0') 
....................          return(0); 
....................    return(0); 
.................... } 
.................... /* standard template: 
....................    int strxfrm(const char *s1, const char *s2, size_t n). 
....................    transforms maximum of n characters from s2 and places them into s1*/ 
.................... size_t strxfrm(char *s1, char *s2, size_t n) 
.................... { 
....................   char *s; 
....................   unsigned int8 n1; 
....................   n1=n; 
....................   for (s = s1; n > 0 && *s2 != '\0'; n--) 
....................      *s++ = *s2++; 
....................   for (; n > 0; n--) 
....................      *s++ = '\0'; 
....................  
....................   return(n1); 
.................... } 
....................  
....................  
....................  
....................  
....................  
.................... /***********************************************************/ 
.................... /*Search functions*/ 
.................... /* standard template: void *memchr(const char *s, int c). 
....................    Finds first occurrence of c in n characters of s */ 
....................  
.................... char *memchr(void *s,unsigned int8 c,size_t n) 
.................... { 
....................    char uc; 
....................    char *su; 
....................    uc=c; 
....................    for(su=s;0<n;++su,--n) 
....................       if(*su==uc) 
....................       return su; 
....................    return NULL; 
.................... } 
....................  
.................... /* standard template: char *strchr(const char *s, int c). 
....................    Finds first occurrence of c in s */ 
....................  
.................... char *strchr(char *s, unsigned int8 c) 
.................... { 
....................    for (; *s != c; s++) 
....................       if (*s == '\0') 
....................          return(0); 
....................    return(s); 
.................... } 
.................... /* standard template: 
....................    size_t strcspn(const char *s1, const char *s2). 
....................    Computes length of max initial segment of s1 that 
....................    consists entirely of characters NOT from s2*/ 
....................  
.................... unsigned int8  strcspn(char *s1, char *s2) 
.................... { 
....................    char *sc1, *sc2; 
....................  
....................    for (sc1 = s1; *sc1 != 0; sc1++) 
....................       for (sc2 = s2; *sc2 != 0; sc2++) 
....................          if (*sc1 == *sc2) 
....................             return(sc1 - s1); 
....................    return(sc1 - s1); 
.................... } 
.................... /* standard template: 
....................    char *strpbrk(const char *s1, const char *s2). 
....................    Locates first occurence of any character from s2 in s1; 
....................    returns s1 if s2 is empty string */ 
....................  
.................... char *strpbrk(char *s1, char *s2) 
.................... { 
....................    char *sc1, *sc2; 
....................  
....................    for (sc1 = s1; *sc1 != 0; sc1++) 
....................       for (sc2 = s2; *sc2 != 0; sc2++) 
....................          if (*sc1 == *sc2) 
....................             return(sc1); 
....................    return(0); 
.................... } 
....................  
....................  
.................... /* standard template: char *strrchr(const char *s, int c). 
....................    Finds last occurrence of c in s */ 
....................  
.................... char *strrchr(char *s, unsigned int8 c) 
.................... { 
....................    char *p; 
....................  
....................    for (p = 0; ; s++) 
....................    { 
....................       if (*s == c) 
....................          p = s; 
....................       if (*s == '\0') 
....................          return(p); 
....................    } 
.................... } 
.................... /* computes length of max initial segment of s1 consisting 
....................    entirely of characters from s2 */ 
....................  
.................... unsigned int8  strspn(char *s1, char *s2) 
.................... { 
....................    char *sc1, *sc2; 
....................  
....................    for (sc1 = s1; *sc1 != 0; sc1++) 
....................       for (sc2 = s2; ; sc2++) 
....................     if (*sc2 == '\0') 
....................        return(sc1 - s1); 
....................          else if (*sc1 == *sc2) 
....................             break; 
....................    return(sc1 - s1); 
.................... } 
.................... /* standard template: 
....................    char *strstr(const char *s1, const char *s2); 
....................    Locates first occurence of character sequence s2 in s1; 
....................    returns 0 if s2 is empty string 
....................  
....................    Uncomment #define FASTER_BUT_MORE_ROM at the top of the 
....................    file to use the faster algorithm */ 
.................... char *strstr(char *s1, char *s2) 
.................... { 
....................    char *s, *t; 
....................  
....................    #ifdef FASTER_BUT_MORE_ROM 
....................    if (*s2 == '\0') 
....................          return(s1); 
....................    #endif 
....................  
....................    while (*s1) 
....................    { 
....................       for(s = s1, t = s2; *t && (*s == *t); ++s, ++t); 
....................  
....................       if (*t == '\0') 
....................          return s1; 
....................       ++s1; 
....................       #ifdef FASTER_BUT_MORE_ROM 
....................          while(*s1 != '\0' && *s1 != *s2) 
....................             ++s1; 
....................       #endif 
....................    } 
....................    return 0; 
.................... } 
....................  
.................... /* standard template: char *strtok(char *s1, const char *s2). 
....................  
....................    Finds next token in s1 delimited by a character from separator 
....................    string s2 (which can be different from call to call).  First call 
....................    starts at beginning of s1 searching for first character NOT 
....................    contained in s2; returns 0 if none is found. 
....................    If one is found, it is the start of first token (return value). 
....................    Function then searches from there for a character contained in s2. 
....................    If none is found, current token extends to end of s1, and subsequent 
....................    searches for a token will return 0.  If one is found, it is 
....................    overwritten by '\0', which terminates current token.  Function saves 
....................    pointer to following character from which next search will start. 
....................    Each subsequent call, with 0 as first argument, starts searching 
....................    from saved pointer */ 
....................  
.................... char *strtok(char *s1, char *s2) 
.................... { 
....................    char *beg, *end; 
....................    static char *save; 
....................  
....................    beg = (s1)? s1: save; 
....................    beg += strspn(beg, s2); 
....................    if (*beg == '\0') 
....................    { 
....................       *save = ' '; 
....................       return(0); 
....................    } 
....................    end = strpbrk(beg, s2); 
....................    if (*end != '\0') 
....................    { 
....................       *end = '\0'; 
....................       end++; 
....................    } 
....................    save = end; 
....................    return(beg); 
.................... } 
....................  
.................... /*****************************************************************/ 
.................... /*Miscellaneous functions*/ 
.................... /* standard template 
.................... maps error number in errnum to an error message string 
.................... Returns: Pointer to string 
.................... */ 
.................... #ifdef _ERRNO 
.................... char * strerror(unsigned int8 errnum) 
.................... { 
.................... char s[15]; 
.................... switch( errnum) 
.................... { 
.................... case 0: 
....................    strcpy(s,"no errors"); 
....................    return s; 
.................... case EDOM : 
....................    strcpy(s,"domain error"); 
....................    return s; 
.................... case ERANGE: 
....................    strcpy(s,"range error"); 
....................    return s; 
.................... } 
.................... } 
.................... #ENDIF 
.................... /* standard template: size_t strlen(const char *s). 
....................    Computes length of s1 (preceding terminating 0) */ 
....................  
.................... unsigned int8 strlen(char *s) 
.................... { 
....................    char *sc; 
....................  
....................    for (sc = s; *sc != 0; sc++); 
....................    return(sc - s); 
.................... } 
....................  
.................... /* standard template: size_t stricmp(const char *s1, const char *s2). 
....................    Compares s1 to s2 ignoring case (upper vs. lower) */ 
....................  
.................... signed int8 stricmp(char *s1, char *s2) 
.................... { 
....................  for(; *s1==*s2||(isalpha(*s1)&&isalpha(*s2)&&(*s1==*s2+32||*s2==*s1+32)); 
....................     s1++, s2++) 
....................     if (*s1 == '\0') 
....................        return(0); 
....................  return((*s1 < *s2) ? -1: 1); 
.................... } 
....................  
....................  
.................... /* standard template: char *strlwr(char *s). 
....................    Replaces uppercase letters by lowercase; 
....................    returns pointer to new string s */ 
....................  
.................... char *strlwr(char *s) 
.................... { 
....................    char *p; 
....................  
....................    for (p = s; *p != '\0'; p++) 
....................       if (*p >= 'A' && *p <='Z') 
....................          *p += 'a' - 'A'; 
....................    return(s); 
.................... } 
....................  
....................  
.................... /************************************************************/ 
....................  
....................  
.................... #endif 
....................  
.................... #ifndef getc 
.................... #define getc getch 
.................... #define getchar getch 
.................... #define puts(s) {printf(s); putchar(13); putchar(10);} 
.................... #define putc putchar 
.................... #endif 
.................... /* maps error number to an error message. Writes a sequence of characters to 
.................... stderr stream thus: if s is not null then string pointed to by s follwed by 
.................... a colon (:) and a space and the appropriate error message returned by strerror 
.................... function with argument errno 
....................  
.................... Returns: no value 
.................... */ 
....................  
.................... #ifdef _ERRNO 
.................... void perror(char *s) 
.................... { 
....................   if(s) 
....................   fprintf(STDERR,"%s: ",s); 
....................   fprintf(STDERR,"%s\r\n",strerror(errno)); 
.................... } 
.................... #endif 
.................... #endif 
....................  
.................... #include <string.h> 
.................... //////////////////////////////////////////////////////////////////////////// 
.................... ////        (C) Copyright 1996,2008 Custom Computer Services            //// 
.................... //// This source code may only be used by licensed users of the CCS C   //// 
.................... //// compiler.  This source code may only be distributed to other       //// 
.................... //// licensed users of the CCS C compiler.  No other use, reproduction  //// 
.................... //// or distribution is permitted without written permission.           //// 
.................... //// Derivative programs created using this software in object code     //// 
.................... //// form are not restricted in any way.                                //// 
.................... //////////////////////////////////////////////////////////////////////////// 
....................  
.................... #ifndef _STRING 
.................... #define _STRING 
.................... #include <stddef.h> 
.................... #include <ctype.h> 
....................  
....................  
....................  
.................... ////////////////////////////////////////////// 
.................... //// Uncomment the following define to    //// 
.................... //// allow some functions to use a        //// 
.................... //// quicker algorithm, but use more ROM  //// 
.................... ////                                      //// 
.................... //// #define FASTER_BUT_MORE_ROM          //// 
.................... ////////////////////////////////////////////// 
....................  
....................  
....................  
.................... /*Copying functions*/ 
.................... /* standard template: 
....................    void *memmove(void *s1, void *s2, size_t n). 
....................    Copies max of n characters safely (not following ending '\0') 
....................    from s2 in s1; if s2 has less than n characters, appends 0 */ 
....................  
.................... char *memmove(void *s1,char *s2,size_t n) 
.................... { 
....................    char *sc1; 
....................    char *sc2; 
....................    sc1=s1; 
....................    sc2=s2; 
....................    if(sc2<sc1 && sc1 <sc2 +n) 
....................       for(sc1+=n,sc2+=n;0<n;--n) 
....................          *--sc1=*--sc2; 
....................    else 
....................       for(;0<n;--n) 
....................          *sc1++=*sc2++; 
....................   return s1; 
....................   } 
....................  
.................... /* Standard template: char *strcpy(char *s1, const char *s2) 
....................    copies the string s2 including the null character to s1. 
....................    This is a compiler built in to handle the different address 
....................    spaces */ 
....................  
.................... #define strcopy strcpy 
....................  
.................... /* standard template: 
....................    char *strncpy(char *s1, const char *s2, size_t n). 
....................    Copies max of n characters (not following ending '\0') 
....................    from s2 in s1; if s2 has less than n characters, appends 0 */ 
....................  
.................... char *strncpy(char *s1, char *s2, size_t n) 
.................... { 
....................   char *s; 
....................  
....................   for (s = s1; n > 0 && *s2 != '\0'; n--) 
....................      *s++ = *s2++; 
....................   for (; n > 0; n--) 
....................      *s++ = '\0'; 
....................  
....................   return(s1); 
.................... } 
.................... /***********************************************************/ 
....................  
.................... /*concatenation functions*/ 
.................... /* standard template: char *strcat(char *s1, const char *s2) 
.................... appends s2 to s1*/ 
....................  
.................... char *strcat(char *s1, char *s2) 
.................... { 
....................    char *s; 
....................  
....................    for (s = s1; *s != '\0'; ++s); 
....................    while(*s2 != '\0') 
....................    { 
....................       *s = *s2; 
....................       ++s; 
....................       ++s2; 
....................    } 
....................  
....................    *s = '\0'; 
....................    return(s1); 
.................... } 
.................... /* standard template: char *strncat(char *s1, char *s2,size_t n) 
.................... appends not more than n characters from s2 to s1*/ 
....................  
.................... char *strncat(char *s1, char *s2, size_t n) 
.................... { 
....................    char *s; 
....................  
....................    for (s = s1; *s != '\0'; ++s); 
....................    while(*s2 != '\0' && 0<n) 
....................    { 
....................       *s = *s2; 
....................       ++s; 
....................       ++s2; 
....................       --n; 
....................    } 
....................  
....................    *s = '\0'; 
....................    return(s1); 
.................... } 
....................  
.................... /***********************************************************/ 
....................  
....................  
.................... /*comparison functions*/ 
.................... /* standard template: signed int memcmp(void *s1, void *s2). 
....................    Compares s1 & s2; returns -1 if s1<s2, 0 if s1=s2, 1 if s1>s2 */ 
....................  
.................... signed int8 memcmp(void * s1,char *s2,size_t n) 
.................... { 
.................... char *su1, *su2; 
.................... for(su1=s1, su2=s2; 0<n; ++su1, ++su2, --n) 
.................... { 
....................    if(*su1!=*su2) 
....................       return ((*su1<*su2)?-1:+1); 
.................... } 
.................... return 0; 
.................... } 
....................  
.................... /* standard template: int strcmp(const char *s1, const char *s2). 
....................    Compares s1 & s2; returns -1 if s1<s2, 0 if s1=s2, 1 if s1>s2 */ 
....................  
.................... signed int8 strcmp(char *s1, char *s2) 
.................... { 
....................    for (; *s1 == *s2; s1++, s2++) 
....................       if (*s1 == '\0') 
....................          return(0); 
....................    return((*s1 < *s2) ? -1: 1); 
.................... } 
.................... /* standard template: int strcoll(const char *s1, const char *s2). 
....................    Compares s1 & s2; returns -1 if s1<s2, 0 if s1=s2, 1 if s1>s2 */ 
....................  
.................... signed int8 strcoll(char *s1, char *s2) 
.................... { 
....................    for (; *s1 == *s2; s1++, s2++) 
....................       if (*s1 == '\0') 
....................          return(0); 
....................    return((*s1 < *s2) ? -1: 1); 
.................... } 
....................  
.................... /* standard template: 
....................    int strncmp(const char *s1, const char *s2, size_t n). 
....................    Compares max of n characters (not following 0) from s1 to s2; 
....................    returns same as strcmp */ 
....................  
.................... signed int8 strncmp(char *s1, char *s2, size_t n) 
.................... { 
....................    for (; n > 0; s1++, s2++, n--) 
....................       if (*s1 != *s2) 
....................          return((*s1 <*s2) ? -1: 1); 
....................       else if (*s1 == '\0') 
....................          return(0); 
....................    return(0); 
.................... } 
.................... /* standard template: 
....................    int strxfrm(const char *s1, const char *s2, size_t n). 
....................    transforms maximum of n characters from s2 and places them into s1*/ 
.................... size_t strxfrm(char *s1, char *s2, size_t n) 
.................... { 
....................   char *s; 
....................   unsigned int8 n1; 
....................   n1=n; 
....................   for (s = s1; n > 0 && *s2 != '\0'; n--) 
....................      *s++ = *s2++; 
....................   for (; n > 0; n--) 
....................      *s++ = '\0'; 
....................  
....................   return(n1); 
.................... } 
....................  
....................  
....................  
....................  
....................  
.................... /***********************************************************/ 
.................... /*Search functions*/ 
.................... /* standard template: void *memchr(const char *s, int c). 
....................    Finds first occurrence of c in n characters of s */ 
....................  
.................... char *memchr(void *s,unsigned int8 c,size_t n) 
.................... { 
....................    char uc; 
....................    char *su; 
....................    uc=c; 
....................    for(su=s;0<n;++su,--n) 
....................       if(*su==uc) 
....................       return su; 
....................    return NULL; 
.................... } 
....................  
.................... /* standard template: char *strchr(const char *s, int c). 
....................    Finds first occurrence of c in s */ 
....................  
.................... char *strchr(char *s, unsigned int8 c) 
.................... { 
....................    for (; *s != c; s++) 
....................       if (*s == '\0') 
....................          return(0); 
....................    return(s); 
.................... } 
.................... /* standard template: 
....................    size_t strcspn(const char *s1, const char *s2). 
....................    Computes length of max initial segment of s1 that 
....................    consists entirely of characters NOT from s2*/ 
....................  
.................... unsigned int8  strcspn(char *s1, char *s2) 
.................... { 
....................    char *sc1, *sc2; 
....................  
....................    for (sc1 = s1; *sc1 != 0; sc1++) 
....................       for (sc2 = s2; *sc2 != 0; sc2++) 
....................          if (*sc1 == *sc2) 
....................             return(sc1 - s1); 
....................    return(sc1 - s1); 
.................... } 
.................... /* standard template: 
....................    char *strpbrk(const char *s1, const char *s2). 
....................    Locates first occurence of any character from s2 in s1; 
....................    returns s1 if s2 is empty string */ 
....................  
.................... char *strpbrk(char *s1, char *s2) 
.................... { 
....................    char *sc1, *sc2; 
....................  
....................    for (sc1 = s1; *sc1 != 0; sc1++) 
....................       for (sc2 = s2; *sc2 != 0; sc2++) 
....................          if (*sc1 == *sc2) 
....................             return(sc1); 
....................    return(0); 
.................... } 
....................  
....................  
.................... /* standard template: char *strrchr(const char *s, int c). 
....................    Finds last occurrence of c in s */ 
....................  
.................... char *strrchr(char *s, unsigned int8 c) 
.................... { 
....................    char *p; 
....................  
....................    for (p = 0; ; s++) 
....................    { 
....................       if (*s == c) 
....................          p = s; 
....................       if (*s == '\0') 
....................          return(p); 
....................    } 
.................... } 
.................... /* computes length of max initial segment of s1 consisting 
....................    entirely of characters from s2 */ 
....................  
.................... unsigned int8  strspn(char *s1, char *s2) 
.................... { 
....................    char *sc1, *sc2; 
....................  
....................    for (sc1 = s1; *sc1 != 0; sc1++) 
....................       for (sc2 = s2; ; sc2++) 
....................     if (*sc2 == '\0') 
....................        return(sc1 - s1); 
....................          else if (*sc1 == *sc2) 
....................             break; 
....................    return(sc1 - s1); 
.................... } 
.................... /* standard template: 
....................    char *strstr(const char *s1, const char *s2); 
....................    Locates first occurence of character sequence s2 in s1; 
....................    returns 0 if s2 is empty string 
....................  
....................    Uncomment #define FASTER_BUT_MORE_ROM at the top of the 
....................    file to use the faster algorithm */ 
.................... char *strstr(char *s1, char *s2) 
.................... { 
....................    char *s, *t; 
....................  
....................    #ifdef FASTER_BUT_MORE_ROM 
....................    if (*s2 == '\0') 
....................          return(s1); 
....................    #endif 
....................  
....................    while (*s1) 
....................    { 
....................       for(s = s1, t = s2; *t && (*s == *t); ++s, ++t); 
....................  
....................       if (*t == '\0') 
....................          return s1; 
....................       ++s1; 
....................       #ifdef FASTER_BUT_MORE_ROM 
....................          while(*s1 != '\0' && *s1 != *s2) 
....................             ++s1; 
....................       #endif 
....................    } 
....................    return 0; 
.................... } 
....................  
.................... /* standard template: char *strtok(char *s1, const char *s2). 
....................  
....................    Finds next token in s1 delimited by a character from separator 
....................    string s2 (which can be different from call to call).  First call 
....................    starts at beginning of s1 searching for first character NOT 
....................    contained in s2; returns 0 if none is found. 
....................    If one is found, it is the start of first token (return value). 
....................    Function then searches from there for a character contained in s2. 
....................    If none is found, current token extends to end of s1, and subsequent 
....................    searches for a token will return 0.  If one is found, it is 
....................    overwritten by '\0', which terminates current token.  Function saves 
....................    pointer to following character from which next search will start. 
....................    Each subsequent call, with 0 as first argument, starts searching 
....................    from saved pointer */ 
....................  
.................... char *strtok(char *s1, char *s2) 
.................... { 
....................    char *beg, *end; 
....................    static char *save; 
....................  
....................    beg = (s1)? s1: save; 
....................    beg += strspn(beg, s2); 
....................    if (*beg == '\0') 
....................    { 
....................       *save = ' '; 
....................       return(0); 
....................    } 
....................    end = strpbrk(beg, s2); 
....................    if (*end != '\0') 
....................    { 
....................       *end = '\0'; 
....................       end++; 
....................    } 
....................    save = end; 
....................    return(beg); 
.................... } 
....................  
.................... /*****************************************************************/ 
.................... /*Miscellaneous functions*/ 
.................... /* standard template 
.................... maps error number in errnum to an error message string 
.................... Returns: Pointer to string 
.................... */ 
.................... #ifdef _ERRNO 
.................... char * strerror(unsigned int8 errnum) 
.................... { 
.................... char s[15]; 
.................... switch( errnum) 
.................... { 
.................... case 0: 
....................    strcpy(s,"no errors"); 
....................    return s; 
.................... case EDOM : 
....................    strcpy(s,"domain error"); 
....................    return s; 
.................... case ERANGE: 
....................    strcpy(s,"range error"); 
....................    return s; 
.................... } 
.................... } 
.................... #ENDIF 
.................... /* standard template: size_t strlen(const char *s). 
....................    Computes length of s1 (preceding terminating 0) */ 
....................  
.................... unsigned int8 strlen(char *s) 
.................... { 
....................    char *sc; 
....................  
....................    for (sc = s; *sc != 0; sc++); 
....................    return(sc - s); 
.................... } 
....................  
.................... /* standard template: size_t stricmp(const char *s1, const char *s2). 
....................    Compares s1 to s2 ignoring case (upper vs. lower) */ 
....................  
.................... signed int8 stricmp(char *s1, char *s2) 
.................... { 
....................  for(; *s1==*s2||(isalpha(*s1)&&isalpha(*s2)&&(*s1==*s2+32||*s2==*s1+32)); 
....................     s1++, s2++) 
....................     if (*s1 == '\0') 
....................        return(0); 
....................  return((*s1 < *s2) ? -1: 1); 
.................... } 
....................  
....................  
.................... /* standard template: char *strlwr(char *s). 
....................    Replaces uppercase letters by lowercase; 
....................    returns pointer to new string s */ 
....................  
.................... char *strlwr(char *s) 
.................... { 
....................    char *p; 
....................  
....................    for (p = s; *p != '\0'; p++) 
....................       if (*p >= 'A' && *p <='Z') 
....................          *p += 'a' - 'A'; 
....................    return(s); 
.................... } 
....................  
....................  
.................... /************************************************************/ 
....................  
....................  
.................... #endif 
....................  
.................... #include <stdlib.h> 
.................... /////////////////////////////////////////////////////////////////////////// 
.................... ////        (C) Copyright 1996,2007 Custom Computer Services           //// 
.................... //// This source code may only be used by licensed users of the CCS C  //// 
.................... //// compiler.  This source code may only be distributed to other      //// 
.................... //// licensed users of the CCS C compiler.  No other use, reproduction //// 
.................... //// or distribution is permitted without written permission.          //// 
.................... //// Derivative programs created using this software in object code    //// 
.................... //// form are not restricted in any way.                               //// 
.................... /////////////////////////////////////////////////////////////////////////// 
....................  
.................... #ifndef _STDLIB 
.................... #define _STDLIB 
....................  
.................... //--------------------------------------------------------------------------- 
.................... // Definitions and types 
.................... //--------------------------------------------------------------------------- 
....................  
.................... #ifndef RAND_MAX 
.................... #define RAND_MAX  32767    // The value of which is the maximum value 
....................                            // ... returned by the rand function 
.................... #endif 
....................  
....................  
.................... #IF (sizeof(int16*)>1) 
.................... #DEFINE LONG_POINTERS 1 
.................... #ELSE  
.................... #DEFINE LONG_POINTERS 0 
.................... #ENDIF 
....................  
.................... typedef struct { 
....................    signed int quot; 
....................    signed int rem; 
.................... } div_t; 
....................  
.................... typedef struct { 
....................    signed long quot; 
....................    signed long rem; 
.................... } ldiv_t; 
....................  
.................... #include <stddef.h> 
.................... /////////////////////////////////////////////////////////////////////////// 
.................... ////        (C) Copyright 1996,2003 Custom Computer Services           //// 
.................... //// This source code may only be used by licensed users of the CCS C  //// 
.................... //// compiler.  This source code may only be distributed to other      //// 
.................... //// licensed users of the CCS C compiler.  No other use, reproduction //// 
.................... //// or distribution is permitted without written permission.          //// 
.................... //// Derivative programs created using this software in object code    //// 
.................... //// form are not restricted in any way.                               //// 
.................... /////////////////////////////////////////////////////////////////////////// 
....................  
.................... #ifndef _STDDEF 
....................  
.................... #define _STDDEF 
....................  
.................... #if sizeof(unsigned int8 *)==1 
.................... #define ptrdiff_t unsigned int8 
.................... #else 
.................... #define ptrdiff_t unsigned int16 
.................... #endif 
....................  
.................... #define size_t unsigned int8 
.................... #define wchar_t char 
.................... #define NULL 0 
....................  
.................... #define offsetof(s,f) (offsetofbit(s,f)/8) 
....................  
.................... #endif 
....................  
....................  
.................... //--------------------------------------------------------------------------- 
.................... // String conversion functions 
.................... //--------------------------------------------------------------------------- 
....................  
.................... /* Standard template: signed int  atoi(char * s) 
....................  * converts the initial portion of the string s to a signed int 
....................  * returns the converted value if any, 0 otherwise 
....................  */ 
.................... signed int atoi(char *s); 
....................  
.................... /* Syntax: signed int32  atoi32(char * s) 
....................    converts the initial portion of the string s to a signed int32 
....................    returns the converted value if any, 0 otherwise*/ 
.................... #if (sizeof(long)==4) 
....................  #define atoi32(s) atol(s) 
.................... #else  
....................  signed int32 atoi32(char *s); 
.................... #endif 
....................  
.................... #if defined(__PCD__) 
.................... // The following functions only work on the 24 bit compiler 
.................... // for the 30F, 33F, 24F and 24H parts 
.................... /* Syntax: signed int48  atoi48(char * s) 
....................    converts the initial portion of the string s to a signed int48 
....................    returns the converted value if any, 0 otherwise*/ 
....................     
.................... signed int48 atoi48(char *s); 
....................  
.................... /* Syntax: signed int64  atoi64(char * s) 
....................    converts the initial portion of the string s to a signed int64 
....................    returns the converted value if any, 0 otherwise*/ 
.................... signed int64 atoi64(char *s); 
.................... #endif 
....................  
.................... /* Syntax: char *  itoa(signed int32 num, int8 base, char * s) 
....................    converts the signed int32 to a string and 
....................    returns the converted value if any, 0 otherwise*/ 
.................... char * itoa(signed int32 num, unsigned int base, char * s); 
....................  
.................... /* Standard template: signed int16  atol(char * s) 
....................  * converts the initial portion of the string s to a signed int16 
....................  * returns the converted value if any, 0 otherwise 
....................  */ 
.................... signed long atol(char *s); 
....................  
.................... /* Standard template: int16 strtoul(char * s,char *endptr,signed int base) 
....................  * converts the initial portion of the string s, represented as an 
....................  * integral value of radix base  to a signed long. 
....................  * Returns the converted value if any, 0 otherwise 
....................  * the final string is returned in the endptr, if endptr is not null 
....................  */ 
.................... signed long strtol(char *s,char *endptr, signed int base); 
....................  
.................... /* Standard template: int16 strtoul(char * s,char *endptr,signed int base) 
....................  * converts the initial portion of the string s, represented as an 
....................  * integral value of radix base to a unsigned long. 
....................  * returns the converted value if any, 0 otherwise 
....................  * the final string is returned in the endptr, if endptr is not null 
....................  */ 
.................... unsigned long strtoul(char *s,char *endptr, signed int base); 
....................  
.................... /* Standart template: float strtof(char * s,char *endptr) 
....................                       float48 strtof48(char *s,char *endptr); 
....................                       float64 strtod(char *s,char *endptr); 
....................  * converts the initial portion of the string s to a float32, float48 or float64, 
....................  * returns the converted value if any, 0 otherwise 
....................  * the final string is returned in the endptr, if endptr is not null                    
.................... */ 
.................... float strtof(char *s,char *endptr); 
.................... #if defined(__PCD__) 
.................... float48 strtof48(char *s,char *endptr); 
.................... float64 strtod(char *s,char *endptr); 
.................... #else 
.................... //provided for compatibility 
.................... #define strtof48(s, e) strtof(s, e) 
.................... #define strtod(s, e) strtof(s, e) 
.................... #endif 
....................  
.................... /* Standard template: float32 atof(char * s) 
....................  * converts the initial portion of the string s to a float. 
....................  * returns the converted value if any, 0 otherwise 
....................  */ 
.................... #define atof(s)   strtof(s, 0) 
....................  
.................... #if defined(__PCD__) 
.................... // The following functions only work on the 24 bit compiler 
.................... // for the 30F, 33F, 24F and 24H parts 
....................  
.................... /* Standard template: float48 atof48(char * s) 
....................  * converts the initial portion of the string s to a float. 
....................  * returns the converted value if any, 0 otherwise 
....................  */ 
.................... #define atof48(s) strtof48(s, 0) 
....................  
.................... /* Standard template: float64 atof64(char * s) 
....................  * converts the initial portion of the string s to a float. 
....................  * returns the converted value if any, 0 otherwise 
....................  */ 
.................... #define atof64(s) strtod(s, 0) 
.................... #endif 
....................  
.................... /* Standard template: float32 atoe(char * s) 
....................  * converts the initial portion of the string s to a float. 
....................  * returns the converted value if any, 0 otherwise 
....................  * also handles E format numbers 
....................  */ 
.................... #if !defined(__PCD__) 
.................... float atoe(char * s); 
.................... #endif 
....................  
.................... #if defined(__PCD__) 
.................... float32 atoe(char * s); 
.................... #endif 
....................  
.................... //--------------------------------------------------------------------------- 
.................... // Pseudo-random sequence generation functions 
.................... //--------------------------------------------------------------------------- 
....................  
.................... /* The rand function computes a sequence of pseudo-random integers in 
....................  * the range 0 to RAND_MAX 
....................  * 
....................  * Parameters: 
....................  *       (none) 
....................  * 
....................  * Returns: 
....................  *       The pseudo-random integer 
....................  */ 
.................... unsigned int16 rand(void); 
....................  
.................... /* The srand function uses the argument as a seed for a new sequence of 
....................  * pseudo-random numbers to be returned by subsequent calls to rand. 
....................  * 
....................  * Parameters: 
....................  *       [in] seed: The seed value to start from. You might need to pass 
....................  * 
....................  * Returns: 
....................  *       (none) 
....................  * 
....................  * Remarks 
....................  *          The srand function sets the starting point for generating 
....................  *       a series of pseudorandom integers. To reinitialize the 
....................  *       generator, use 1 as the seed argument. Any other value for 
....................  *       seed sets the generator to a random starting point. rand 
....................  *       retrieves the pseudorandom numbers that are generated. 
....................  *       Calling rand before any call to srand generates the same 
....................  *       sequence as calling srand with seed passed as 1. 
....................  *          Usually, you need to pass a time here from outer source 
....................  *       so that the numbers will be different every time you run. 
....................  */ 
.................... void srand(unsigned int32 seed); 
....................  
.................... //--------------------------------------------------------------------------- 
.................... // Memory management functions 
.................... //--------------------------------------------------------------------------- 
....................  
.................... // Comming soon 
....................  
.................... //--------------------------------------------------------------------------- 
.................... // Communication with the environment 
.................... //--------------------------------------------------------------------------- 
....................  
.................... /* The function returns 0 always 
....................  */ 
.................... signed int8 system(char *string); 
....................  
.................... //--------------------------------------------------------------------------- 
.................... // Searching and sorting utilities 
.................... //--------------------------------------------------------------------------- 
....................  
.................... /* Performs a binary search of a sorted array.. 
....................  * 
....................  * Parameters: 
....................  *       [in] key: Object to search for 
....................  *       [in] base: Pointer to base of search data 
....................  *       [in] num: Number of elements 
....................  *       [in] width: Width of elements 
....................  *       [in] compare: Function that compares two elements 
....................  * 
....................  * Returns: 
....................  *       bsearch returns a pointer to an occurrence of key in the array pointed 
....................  *       to by base. If key is not found, the function returns NULL. If the 
....................  *       array is not in order or contains duplicate records with identical keys, 
....................  *       the result is unpredictable. 
....................  */ 
.................... //void *bsearch(const void *key, const void *base, size_t num, size_t width, 
.................... //              int (*compare)(const void *, const void *)); 
....................  
.................... /* Performs the shell-metzner sort (not the quick sort algorithm). The contents 
....................  * of the array are sorted into ascending order according to a comparison 
....................  * function pointed to by compar. 
....................  * 
....................  * Parameters: 
....................  *       [in] base: Pointer to base of search data 
....................  *       [in] num: Number of elements 
....................  *       [in] width: Width of elements 
....................  *       [in] compare: Function that compares two elements 
....................  * 
....................  * Returns: 
....................  *       (none) 
....................  */ 
.................... //void *qsort(const void *base, size_t num, size_t width, 
.................... //              int (*compare)(const void *, const void *)); 
....................  
.................... //--------------------------------------------------------------------------- 
.................... // Integer arithmetic functions 
.................... //--------------------------------------------------------------------------- 
....................  
.................... #define labs abs 
....................  
.................... div_t div(signed int numer, signed int denom); 
.................... ldiv_t ldiv(signed long numer, signed long denom); 
....................  
.................... //--------------------------------------------------------------------------- 
.................... // Multibyte character functions 
.................... //--------------------------------------------------------------------------- 
....................  
.................... // Not supported 
....................  
.................... //--------------------------------------------------------------------------- 
.................... // Multibyte string functions 
.................... //--------------------------------------------------------------------------- 
....................  
.................... // Not supported 
....................  
....................  
.................... //--------------------------------------------------------------------------- 
.................... // Internal implementation 
.................... //--------------------------------------------------------------------------- 
....................  
.................... #include <stddef.h> 
.................... /////////////////////////////////////////////////////////////////////////// 
.................... ////        (C) Copyright 1996,2003 Custom Computer Services           //// 
.................... //// This source code may only be used by licensed users of the CCS C  //// 
.................... //// compiler.  This source code may only be distributed to other      //// 
.................... //// licensed users of the CCS C compiler.  No other use, reproduction //// 
.................... //// or distribution is permitted without written permission.          //// 
.................... //// Derivative programs created using this software in object code    //// 
.................... //// form are not restricted in any way.                               //// 
.................... /////////////////////////////////////////////////////////////////////////// 
....................  
.................... #ifndef _STDDEF 
....................  
.................... #define _STDDEF 
....................  
.................... #if sizeof(unsigned int8 *)==1 
.................... #define ptrdiff_t unsigned int8 
.................... #else 
.................... #define ptrdiff_t unsigned int16 
.................... #endif 
....................  
.................... #define size_t unsigned int8 
.................... #define wchar_t char 
.................... #define NULL 0 
....................  
.................... #define offsetof(s,f) (offsetofbit(s,f)/8) 
....................  
.................... #endif 
....................  
.................... #include <string.h> 
.................... //////////////////////////////////////////////////////////////////////////// 
.................... ////        (C) Copyright 1996,2008 Custom Computer Services            //// 
.................... //// This source code may only be used by licensed users of the CCS C   //// 
.................... //// compiler.  This source code may only be distributed to other       //// 
.................... //// licensed users of the CCS C compiler.  No other use, reproduction  //// 
.................... //// or distribution is permitted without written permission.           //// 
.................... //// Derivative programs created using this software in object code     //// 
.................... //// form are not restricted in any way.                                //// 
.................... //////////////////////////////////////////////////////////////////////////// 
....................  
.................... #ifndef _STRING 
.................... #define _STRING 
.................... #include <stddef.h> 
.................... #include <ctype.h> 
....................  
....................  
....................  
.................... ////////////////////////////////////////////// 
.................... //// Uncomment the following define to    //// 
.................... //// allow some functions to use a        //// 
.................... //// quicker algorithm, but use more ROM  //// 
.................... ////                                      //// 
.................... //// #define FASTER_BUT_MORE_ROM          //// 
.................... ////////////////////////////////////////////// 
....................  
....................  
....................  
.................... /*Copying functions*/ 
.................... /* standard template: 
....................    void *memmove(void *s1, void *s2, size_t n). 
....................    Copies max of n characters safely (not following ending '\0') 
....................    from s2 in s1; if s2 has less than n characters, appends 0 */ 
....................  
.................... char *memmove(void *s1,char *s2,size_t n) 
.................... { 
....................    char *sc1; 
....................    char *sc2; 
....................    sc1=s1; 
....................    sc2=s2; 
....................    if(sc2<sc1 && sc1 <sc2 +n) 
....................       for(sc1+=n,sc2+=n;0<n;--n) 
....................          *--sc1=*--sc2; 
....................    else 
....................       for(;0<n;--n) 
....................          *sc1++=*sc2++; 
....................   return s1; 
....................   } 
....................  
.................... /* Standard template: char *strcpy(char *s1, const char *s2) 
....................    copies the string s2 including the null character to s1. 
....................    This is a compiler built in to handle the different address 
....................    spaces */ 
....................  
.................... #define strcopy strcpy 
....................  
.................... /* standard template: 
....................    char *strncpy(char *s1, const char *s2, size_t n). 
....................    Copies max of n characters (not following ending '\0') 
....................    from s2 in s1; if s2 has less than n characters, appends 0 */ 
....................  
.................... char *strncpy(char *s1, char *s2, size_t n) 
.................... { 
....................   char *s; 
....................  
....................   for (s = s1; n > 0 && *s2 != '\0'; n--) 
....................      *s++ = *s2++; 
....................   for (; n > 0; n--) 
....................      *s++ = '\0'; 
....................  
....................   return(s1); 
.................... } 
.................... /***********************************************************/ 
....................  
.................... /*concatenation functions*/ 
.................... /* standard template: char *strcat(char *s1, const char *s2) 
.................... appends s2 to s1*/ 
....................  
.................... char *strcat(char *s1, char *s2) 
.................... { 
....................    char *s; 
....................  
....................    for (s = s1; *s != '\0'; ++s); 
....................    while(*s2 != '\0') 
....................    { 
....................       *s = *s2; 
....................       ++s; 
....................       ++s2; 
....................    } 
....................  
....................    *s = '\0'; 
....................    return(s1); 
.................... } 
.................... /* standard template: char *strncat(char *s1, char *s2,size_t n) 
.................... appends not more than n characters from s2 to s1*/ 
....................  
.................... char *strncat(char *s1, char *s2, size_t n) 
.................... { 
....................    char *s; 
....................  
....................    for (s = s1; *s != '\0'; ++s); 
....................    while(*s2 != '\0' && 0<n) 
....................    { 
....................       *s = *s2; 
....................       ++s; 
....................       ++s2; 
....................       --n; 
....................    } 
....................  
....................    *s = '\0'; 
....................    return(s1); 
.................... } 
....................  
.................... /***********************************************************/ 
....................  
....................  
.................... /*comparison functions*/ 
.................... /* standard template: signed int memcmp(void *s1, void *s2). 
....................    Compares s1 & s2; returns -1 if s1<s2, 0 if s1=s2, 1 if s1>s2 */ 
....................  
.................... signed int8 memcmp(void * s1,char *s2,size_t n) 
.................... { 
.................... char *su1, *su2; 
.................... for(su1=s1, su2=s2; 0<n; ++su1, ++su2, --n) 
.................... { 
....................    if(*su1!=*su2) 
....................       return ((*su1<*su2)?-1:+1); 
.................... } 
.................... return 0; 
.................... } 
....................  
.................... /* standard template: int strcmp(const char *s1, const char *s2). 
....................    Compares s1 & s2; returns -1 if s1<s2, 0 if s1=s2, 1 if s1>s2 */ 
....................  
.................... signed int8 strcmp(char *s1, char *s2) 
.................... { 
....................    for (; *s1 == *s2; s1++, s2++) 
....................       if (*s1 == '\0') 
....................          return(0); 
....................    return((*s1 < *s2) ? -1: 1); 
.................... } 
.................... /* standard template: int strcoll(const char *s1, const char *s2). 
....................    Compares s1 & s2; returns -1 if s1<s2, 0 if s1=s2, 1 if s1>s2 */ 
....................  
.................... signed int8 strcoll(char *s1, char *s2) 
.................... { 
....................    for (; *s1 == *s2; s1++, s2++) 
....................       if (*s1 == '\0') 
....................          return(0); 
....................    return((*s1 < *s2) ? -1: 1); 
.................... } 
....................  
.................... /* standard template: 
....................    int strncmp(const char *s1, const char *s2, size_t n). 
....................    Compares max of n characters (not following 0) from s1 to s2; 
....................    returns same as strcmp */ 
....................  
.................... signed int8 strncmp(char *s1, char *s2, size_t n) 
.................... { 
....................    for (; n > 0; s1++, s2++, n--) 
....................       if (*s1 != *s2) 
....................          return((*s1 <*s2) ? -1: 1); 
....................       else if (*s1 == '\0') 
....................          return(0); 
....................    return(0); 
.................... } 
.................... /* standard template: 
....................    int strxfrm(const char *s1, const char *s2, size_t n). 
....................    transforms maximum of n characters from s2 and places them into s1*/ 
.................... size_t strxfrm(char *s1, char *s2, size_t n) 
.................... { 
....................   char *s; 
....................   unsigned int8 n1; 
....................   n1=n; 
....................   for (s = s1; n > 0 && *s2 != '\0'; n--) 
....................      *s++ = *s2++; 
....................   for (; n > 0; n--) 
....................      *s++ = '\0'; 
....................  
....................   return(n1); 
.................... } 
....................  
....................  
....................  
....................  
....................  
.................... /***********************************************************/ 
.................... /*Search functions*/ 
.................... /* standard template: void *memchr(const char *s, int c). 
....................    Finds first occurrence of c in n characters of s */ 
....................  
.................... char *memchr(void *s,unsigned int8 c,size_t n) 
.................... { 
....................    char uc; 
....................    char *su; 
....................    uc=c; 
....................    for(su=s;0<n;++su,--n) 
....................       if(*su==uc) 
....................       return su; 
....................    return NULL; 
.................... } 
....................  
.................... /* standard template: char *strchr(const char *s, int c). 
....................    Finds first occurrence of c in s */ 
....................  
.................... char *strchr(char *s, unsigned int8 c) 
.................... { 
....................    for (; *s != c; s++) 
....................       if (*s == '\0') 
....................          return(0); 
....................    return(s); 
.................... } 
.................... /* standard template: 
....................    size_t strcspn(const char *s1, const char *s2). 
....................    Computes length of max initial segment of s1 that 
....................    consists entirely of characters NOT from s2*/ 
....................  
.................... unsigned int8  strcspn(char *s1, char *s2) 
.................... { 
....................    char *sc1, *sc2; 
....................  
....................    for (sc1 = s1; *sc1 != 0; sc1++) 
....................       for (sc2 = s2; *sc2 != 0; sc2++) 
....................          if (*sc1 == *sc2) 
....................             return(sc1 - s1); 
....................    return(sc1 - s1); 
.................... } 
.................... /* standard template: 
....................    char *strpbrk(const char *s1, const char *s2). 
....................    Locates first occurence of any character from s2 in s1; 
....................    returns s1 if s2 is empty string */ 
....................  
.................... char *strpbrk(char *s1, char *s2) 
.................... { 
....................    char *sc1, *sc2; 
....................  
....................    for (sc1 = s1; *sc1 != 0; sc1++) 
....................       for (sc2 = s2; *sc2 != 0; sc2++) 
....................          if (*sc1 == *sc2) 
....................             return(sc1); 
....................    return(0); 
.................... } 
....................  
....................  
.................... /* standard template: char *strrchr(const char *s, int c). 
....................    Finds last occurrence of c in s */ 
....................  
.................... char *strrchr(char *s, unsigned int8 c) 
.................... { 
....................    char *p; 
....................  
....................    for (p = 0; ; s++) 
....................    { 
....................       if (*s == c) 
....................          p = s; 
....................       if (*s == '\0') 
....................          return(p); 
....................    } 
.................... } 
.................... /* computes length of max initial segment of s1 consisting 
....................    entirely of characters from s2 */ 
....................  
.................... unsigned int8  strspn(char *s1, char *s2) 
.................... { 
....................    char *sc1, *sc2; 
....................  
....................    for (sc1 = s1; *sc1 != 0; sc1++) 
....................       for (sc2 = s2; ; sc2++) 
....................     if (*sc2 == '\0') 
....................        return(sc1 - s1); 
....................          else if (*sc1 == *sc2) 
....................             break; 
....................    return(sc1 - s1); 
.................... } 
.................... /* standard template: 
....................    char *strstr(const char *s1, const char *s2); 
....................    Locates first occurence of character sequence s2 in s1; 
....................    returns 0 if s2 is empty string 
....................  
....................    Uncomment #define FASTER_BUT_MORE_ROM at the top of the 
....................    file to use the faster algorithm */ 
.................... char *strstr(char *s1, char *s2) 
.................... { 
....................    char *s, *t; 
....................  
....................    #ifdef FASTER_BUT_MORE_ROM 
....................    if (*s2 == '\0') 
....................          return(s1); 
....................    #endif 
....................  
....................    while (*s1) 
....................    { 
....................       for(s = s1, t = s2; *t && (*s == *t); ++s, ++t); 
....................  
....................       if (*t == '\0') 
....................          return s1; 
....................       ++s1; 
....................       #ifdef FASTER_BUT_MORE_ROM 
....................          while(*s1 != '\0' && *s1 != *s2) 
....................             ++s1; 
....................       #endif 
....................    } 
....................    return 0; 
.................... } 
....................  
.................... /* standard template: char *strtok(char *s1, const char *s2). 
....................  
....................    Finds next token in s1 delimited by a character from separator 
....................    string s2 (which can be different from call to call).  First call 
....................    starts at beginning of s1 searching for first character NOT 
....................    contained in s2; returns 0 if none is found. 
....................    If one is found, it is the start of first token (return value). 
....................    Function then searches from there for a character contained in s2. 
....................    If none is found, current token extends to end of s1, and subsequent 
....................    searches for a token will return 0.  If one is found, it is 
....................    overwritten by '\0', which terminates current token.  Function saves 
....................    pointer to following character from which next search will start. 
....................    Each subsequent call, with 0 as first argument, starts searching 
....................    from saved pointer */ 
....................  
.................... char *strtok(char *s1, char *s2) 
.................... { 
....................    char *beg, *end; 
....................    static char *save; 
....................  
....................    beg = (s1)? s1: save; 
....................    beg += strspn(beg, s2); 
....................    if (*beg == '\0') 
....................    { 
....................       *save = ' '; 
....................       return(0); 
....................    } 
....................    end = strpbrk(beg, s2); 
....................    if (*end != '\0') 
....................    { 
....................       *end = '\0'; 
....................       end++; 
....................    } 
....................    save = end; 
....................    return(beg); 
.................... } 
....................  
.................... /*****************************************************************/ 
.................... /*Miscellaneous functions*/ 
.................... /* standard template 
.................... maps error number in errnum to an error message string 
.................... Returns: Pointer to string 
.................... */ 
.................... #ifdef _ERRNO 
.................... char * strerror(unsigned int8 errnum) 
.................... { 
.................... char s[15]; 
.................... switch( errnum) 
.................... { 
.................... case 0: 
....................    strcpy(s,"no errors"); 
....................    return s; 
.................... case EDOM : 
....................    strcpy(s,"domain error"); 
....................    return s; 
.................... case ERANGE: 
....................    strcpy(s,"range error"); 
....................    return s; 
.................... } 
.................... } 
.................... #ENDIF 
.................... /* standard template: size_t strlen(const char *s). 
....................    Computes length of s1 (preceding terminating 0) */ 
....................  
.................... unsigned int8 strlen(char *s) 
.................... { 
....................    char *sc; 
....................  
....................    for (sc = s; *sc != 0; sc++); 
....................    return(sc - s); 
.................... } 
....................  
.................... /* standard template: size_t stricmp(const char *s1, const char *s2). 
....................    Compares s1 to s2 ignoring case (upper vs. lower) */ 
....................  
.................... signed int8 stricmp(char *s1, char *s2) 
.................... { 
....................  for(; *s1==*s2||(isalpha(*s1)&&isalpha(*s2)&&(*s1==*s2+32||*s2==*s1+32)); 
....................     s1++, s2++) 
....................     if (*s1 == '\0') 
....................        return(0); 
....................  return((*s1 < *s2) ? -1: 1); 
.................... } 
....................  
....................  
.................... /* standard template: char *strlwr(char *s). 
....................    Replaces uppercase letters by lowercase; 
....................    returns pointer to new string s */ 
....................  
.................... char *strlwr(char *s) 
.................... { 
....................    char *p; 
....................  
....................    for (p = s; *p != '\0'; p++) 
....................       if (*p >= 'A' && *p <='Z') 
....................          *p += 'a' - 'A'; 
....................    return(s); 
.................... } 
....................  
....................  
.................... /************************************************************/ 
....................  
....................  
.................... #endif 
....................  
....................  
.................... div_t div(signed int numer, signed int denom) 
.................... { 
....................    div_t val; 
....................    val.quot = numer / denom; 
....................    val.rem = numer - (denom * val.quot); 
....................    return (val); 
.................... } 
....................  
.................... ldiv_t ldiv(signed long numer, signed long denom) 
.................... { 
....................    ldiv_t val; 
....................  
....................    val.quot = numer / denom; 
....................    val.rem = numer - (denom * val.quot); 
....................    return (val); 
.................... } 
....................  
.................... #if defined(__PCD__) 
.................... float32 atoe(char * s) 
.................... { 
....................    float32 pow10 = 1.0; 
....................    float32 result = 0.0; 
....................    unsigned int8 sign = 0; 
....................    unsigned int8 expsign = 0; 
....................    char c; 
....................    unsigned int8 ptr = 0; 
....................    unsigned int8 i; 
....................    float32 exp = 1.0; 
....................    unsigned int8 expcnt = 0; 
....................  
....................    c = s[ptr++]; 
....................  
....................    if ((c>='0' && c<='9') || c=='+' || c=='-' || c=='.' || c=='E' || c=='e') { 
....................       if(c == '-') { 
....................          sign = 1; 
....................          c = s[ptr++]; 
....................       } 
....................       if(c == '+') 
....................          c = s[ptr++]; 
....................  
....................       while((c >= '0' && c <= '9')) { 
....................          result = 10*result + c - '0'; 
....................          c = s[ptr++]; 
....................       } 
....................  
....................       if (c == '.') { 
....................          c = s[ptr++]; 
....................          while((c >= '0' && c <= '9')) { 
....................              pow10 = pow10*10; 
....................              result += (c - '0')/pow10; 
....................              c = s[ptr++]; 
....................          } 
....................       } 
....................  
....................       // Handling the exponent 
....................       if (c=='e' || c=='E') { 
....................          c = s[ptr++]; 
....................  
....................          if(c == '-') { 
....................             expsign = 1; 
....................             c = s[ptr++]; 
....................          } 
....................          if(c == '+') 
....................             c = s[ptr++]; 
....................  
....................          while((c >= '0' && c <= '9')) { 
....................             expcnt = 10*expcnt + c - '0'; 
....................             c = s[ptr++]; 
....................          } 
....................  
....................          for(i=0;i<expcnt;i++) 
....................             exp*=10; 
....................  
....................          if(expsign==1) 
....................             result/=exp; 
....................          else 
....................             result*=exp; 
....................       } 
....................    } 
....................  
....................    if (sign == 1) 
....................       result = -1*result; 
....................    return(result); 
.................... } 
.................... #endif 
....................  
.................... #if !defined(__PCD__) 
.................... float atoe(char * s) 
.................... { 
....................    float pow10 = 1.0; 
....................    float result = 0.0; 
....................    unsigned int8 sign = 0; 
....................    unsigned int8 expsign = 0; 
....................    char c; 
....................    unsigned int8 ptr = 0; 
....................    unsigned int8 i; 
....................    float exp = 1.0; 
....................    unsigned int8 expcnt = 0; 
....................  
....................    c = s[ptr++]; 
....................  
....................    if ((c>='0' && c<='9') || c=='+' || c=='-' || c=='.' || c=='E' || c=='e') { 
....................       if(c == '-') { 
....................          sign = 1; 
....................          c = s[ptr++]; 
....................       } 
....................       if(c == '+') 
....................          c = s[ptr++]; 
....................  
....................       while((c >= '0' && c <= '9')) { 
....................          result = 10*result + c - '0'; 
....................          c = s[ptr++]; 
....................       } 
....................  
....................       if (c == '.') { 
....................          c = s[ptr++]; 
....................          while((c >= '0' && c <= '9')) { 
....................              pow10 = pow10*10; 
....................              result += (c - '0')/pow10; 
....................              c = s[ptr++]; 
....................          } 
....................       } 
....................  
....................       // Handling the exponent 
....................       if (c=='e' || c=='E') { 
....................          c = s[ptr++]; 
....................  
....................          if(c == '-') { 
....................             expsign = 1; 
....................             c = s[ptr++]; 
....................          } 
....................          if(c == '+') 
....................             c = s[ptr++]; 
....................  
....................          while((c >= '0' && c <= '9')) { 
....................             expcnt = 10*expcnt + c - '0'; 
....................             c = s[ptr++]; 
....................          } 
....................  
....................          for(i=0;i<expcnt;i++) 
....................             exp*=10; 
....................  
....................          if(expsign==1) 
....................             result/=exp; 
....................          else 
....................             result*=exp; 
....................       } 
....................    } 
....................  
....................    if (sign == 1) 
....................       result = -1*result; 
....................    return(result); 
.................... } 
.................... #endif 
....................  
.................... signed int atoi(char *s) 
.................... { 
....................    signed int result; 
....................    unsigned int sign, base, index; 
....................    char c; 
....................  
....................    index = 0; 
....................    sign = 0; 
....................    base = 10; 
....................    result = 0; 
....................  
....................    if (!s) 
....................       return 0; 
....................    // Omit all preceeding alpha characters 
....................    c = s[index++]; 
....................  
....................    // increase index if either positive or negative sign is detected 
....................    if (c == '-') 
....................    { 
....................       sign = 1;         // Set the sign to negative 
....................       c = s[index++]; 
....................    } 
....................    else if (c == '+') 
....................    { 
....................       c = s[index++]; 
....................    } 
....................  
....................    if (c >= '0' && c <= '9') 
....................    { 
....................  
....................       // Check for hexa number 
....................       if (c == '0' && (s[index] == 'x' || s[index] == 'X')) 
....................       { 
....................          base = 16; 
....................          index++; 
....................          c = s[index++]; 
....................       } 
....................  
....................       // The number is a decimal number 
....................       if (base == 10) 
....................       { 
....................          while (c >= '0' && c <= '9') 
....................          { 
....................             result = 10*result + (c - '0'); 
....................             c = s[index++]; 
....................          } 
....................       } 
....................       else if (base == 16)    // The number is a hexa number 
....................       { 
....................          c = toupper(c); 
....................          while ( (c >= '0' && c <= '9') || (c >= 'A' && c<='F')) 
....................          { 
....................             if (c >= '0' && c <= '9') 
....................                result = (result << 4) + (c - '0'); 
....................             else 
....................                result = (result << 4) + (c - 'A' + 10); 
....................  
....................             c = s[index++]; 
....................             c = toupper(c); 
....................          } 
....................       } 
....................    } 
....................  
....................    if (sign == 1 && base == 10) 
....................        result = -result; 
....................  
....................    return(result); 
.................... } 
....................  
.................... signed long atol(char *s) 
.................... { 
....................    signed long result; 
....................    unsigned int sign, base, index; 
....................    char c; 
....................  
....................    index = 0; 
....................    sign = 0; 
....................    base = 10; 
....................    result = 0; 
....................  
....................    if (!s) 
....................       return 0; 
....................    c = s[index++]; 
....................  
....................    // increase index if either positive or negative sign is detected 
....................    if (c == '-') 
....................    { 
....................       sign = 1;         // Set the sign to negative 
....................       c = s[index++]; 
....................    } 
....................    else if (c == '+') 
....................    { 
....................       c = s[index++]; 
....................    } 
....................  
....................    if (c >= '0' && c <= '9') 
....................    { 
....................       if (c == '0' && (s[index] == 'x' || s[index] == 'X')) 
....................       { 
....................          base = 16; 
....................          index++; 
....................          c = s[index++]; 
....................       } 
....................  
....................       // The number is a decimal number 
....................       if (base == 10) 
....................       { 
....................          while (c >= '0' && c <= '9') 
....................          { 
....................             result = 10*result + (c - '0'); 
....................             c = s[index++]; 
....................          } 
....................       } 
....................       else if (base == 16)    // The number is a hexa number 
....................       { 
....................          c = toupper(c); 
....................          while ( (c >= '0' && c <= '9') || (c >= 'A' && c <='F')) 
....................          { 
....................             if (c >= '0' && c <= '9') 
....................                result = (result << 4) + (c - '0'); 
....................             else 
....................                result = (result << 4) + (c - 'A' + 10); 
....................  
....................             c = s[index++];c = toupper(c); 
....................          } 
....................       } 
....................    } 
....................  
....................    if (base == 10 && sign == 1) 
....................       result = -result; 
....................  
....................    return(result); 
.................... } 
....................  
.................... /* A fast routine to multiply by 10 
....................  */ 
.................... signed int32 mult_with10(int32 num) 
.................... { 
....................    return ( (num << 1) + (num << 3) ); 
.................... } 
....................  
.................... #if sizeof(long)==2 
.................... signed int32 atoi32(char *s) 
.................... { 
....................    signed int32 result; 
....................    int8 sign, base, index; 
....................    char c; 
....................  
....................    index = 0; 
....................    sign = 0; 
....................    base = 10; 
....................    result = 0; 
....................  
....................    if (!s) 
....................       return 0; 
....................    c = s[index++]; 
....................  
....................    // increase index if either positive or negative sign is detected 
....................    if (c == '-') 
....................    { 
....................       sign = 1;         // Set the sign to negative 
....................       c = s[index++]; 
....................    } 
....................    else if (c == '+') 
....................    { 
....................       c = s[index++]; 
....................    } 
....................  
....................    if (c >= '0' && c <= '9') 
....................    { 
....................       if (c == '0' && (s[index] == 'x' || s[index] == 'X')) 
....................       { 
....................          base = 16; 
....................          index++; 
....................          c = s[index++]; 
....................       } 
....................  
....................       // The number is a decimal number 
....................       if (base == 10) 
....................       { 
....................          while (c >= '0' && c <= '9') { 
....................             result = (result << 1) + (result << 3);  // result *= 10; 
....................             result += (c - '0'); 
....................             c = s[index++]; 
....................          } 
....................       } 
....................       else if (base == 16)    // The number is a hexa number 
....................       { 
....................          c = toupper(c); 
....................          while ((c >= '0' && c <= '9') || (c >= 'A' && c <='F')) 
....................          { 
....................             if (c >= '0' && c <= '9') 
....................                result = (result << 4) + (c - '0'); 
....................             else 
....................                result = (result << 4) + (c - 'A' + 10); 
....................  
....................             c = s[index++];c = toupper(c); 
....................          } 
....................       } 
....................    } 
....................  
....................    if (base == 10 && sign == 1) 
....................       result = -result; 
....................  
....................    return(result); 
.................... } 
.................... #endif 
....................  
.................... #if defined(__PCD__) 
....................  
.................... signed int48 atoi48(char *s) 
.................... { 
....................    signed int48 result; 
....................    int8 sign, base, index; 
....................    char c; 
....................  
....................    index = 0; 
....................    sign = 0; 
....................    base = 10; 
....................    result = 0; 
....................  
....................    if (!s) 
....................       return 0; 
....................    c = s[index++]; 
....................  
....................    // increase index if either positive or negative sign is detected 
....................    if (c == '-') 
....................    { 
....................       sign = 1;         // Set the sign to negative 
....................       c = s[index++]; 
....................    } 
....................    else if (c == '+') 
....................    { 
....................       c = s[index++]; 
....................    } 
....................  
....................    if (c >= '0' && c <= '9') 
....................    { 
....................       if (c == '0' && (s[index] == 'x' || s[index] == 'X')) 
....................       { 
....................          base = 16; 
....................          index++; 
....................          c = s[index++]; 
....................       } 
....................  
....................       // The number is a decimal number 
....................       if (base == 10) 
....................       { 
....................          while (c >= '0' && c <= '9') { 
....................             result = (result << 1) + (result << 3);  // result *= 10; 
....................             result += (c - '0'); 
....................             c = s[index++]; 
....................          } 
....................       } 
....................       else if (base == 16)    // The number is a hexa number 
....................       { 
....................          c = toupper(c); 
....................          while ((c >= '0' && c <= '9') || (c >= 'A' && c <='F')) 
....................          { 
....................             if (c >= '0' && c <= '9') 
....................                result = (result << 4) + (c - '0'); 
....................             else 
....................                result = (result << 4) + (c - 'A' + 10); 
....................  
....................             c = s[index++];c = toupper(c); 
....................          } 
....................       } 
....................    } 
....................  
....................    if (base == 10 && sign == 1) 
....................       result = -result; 
....................  
....................    return(result); 
.................... } 
....................  
.................... signed int64 atoi64(char *s) 
.................... { 
....................    signed int64 result; 
....................    int8 sign, base, index; 
....................    char c; 
....................  
....................    index = 0; 
....................    sign = 0; 
....................    base = 10; 
....................    result = 0; 
....................  
....................    if (!s) 
....................       return 0; 
....................    c = s[index++]; 
....................  
....................    // increase index if either positive or negative sign is detected 
....................    if (c == '-') 
....................    { 
....................       sign = 1;         // Set the sign to negative 
....................       c = s[index++]; 
....................    } 
....................    else if (c == '+') 
....................    { 
....................       c = s[index++]; 
....................    } 
....................  
....................    if (c >= '0' && c <= '9') 
....................    { 
....................       if (c == '0' && (s[index] == 'x' || s[index] == 'X')) 
....................       { 
....................          base = 16; 
....................          index++; 
....................          c = s[index++]; 
....................       } 
....................  
....................       // The number is a decimal number 
....................       if (base == 10) 
....................       { 
....................          while (c >= '0' && c <= '9') { 
....................             result = (result << 1) + (result << 3);  // result *= 10; 
....................             result += (c - '0'); 
....................             c = s[index++]; 
....................          } 
....................       } 
....................       else if (base == 16)    // The number is a hexa number 
....................       { 
....................          c = toupper(c); 
....................          while ((c >= '0' && c <= '9') || (c >= 'A' && c <='F')) 
....................          { 
....................             if (c >= '0' && c <= '9') 
....................                result = (result << 4) + (c - '0'); 
....................             else 
....................                result = (result << 4) + (c - 'A' + 10); 
....................  
....................             c = s[index++];c = toupper(c); 
....................          } 
....................       } 
....................    } 
....................  
....................    if (base == 10 && sign == 1) 
....................       result = -result; 
....................  
....................    return(result); 
.................... } 
.................... #endif 
....................  
.................... char * itoa(signed int32 num, unsigned int base, char * s) 
.................... { 
....................      unsigned int32 temp=1; 
....................      unsigned int8 i,sign=0,cnt=0; 
....................      char c; 
....................  
....................      if(num<0) { 
....................          sign=1;        // Check for negative number 
....................          num*=-1; 
....................      } 
....................  
....................      while(temp>0) { 
....................          temp=(num/base); 
....................          s[cnt]=(num%base)+'0';    // Conversion 
....................  
....................          if(s[cnt]>0x39) 
....................             s[cnt]+=0x7; 
....................  
....................          cnt++; 
....................          num=temp; 
....................      } 
....................  
....................      if(sign==1) { 
....................          s[cnt]=0x2D;      // Negative sign 
....................          cnt++; 
....................      } 
....................  
....................      for(i = 0;i<(int8)(cnt/2);i++) { 
....................  
....................          c=s[i]; 
....................          s[i]=s[cnt-i-1];        // Reverse the number 
....................          s[cnt-i-1]=c; 
....................      } 
....................      s[cnt]='\0';     // End the string 
....................      return s; 
.................... } 
....................  
.................... float strtof(char *s, char *endptr) 
.................... { 
....................    float pow10 = 1.0; 
....................    float result = 0.0; 
....................    int1 skip = 1, sign = 0, point = 0; 
....................    char c; 
....................    unsigned int8 ptr = 0; 
....................  
....................    if (!s) 
....................       return 0; 
....................  
....................    for(c=s[ptr++]; c!=0; c=s[ptr++]) 
....................    { 
....................       if (skip && !isspace(c)) 
....................       { 
....................          skip = 0; 
....................          if (c == '+') 
....................          { 
....................             sign = 0; 
....................             continue; 
....................          }             
....................          else if (c == '-') 
....................          { 
....................             sign = 1; 
....................             continue; 
....................          } 
....................       } 
....................       if (!skip && (c == '.') && !point) 
....................          point = 1; 
....................       else if (!skip && isdigit(c)) 
....................       { 
....................          c -= '0'; 
....................          if (point) 
....................          { 
....................             pow10 = pow10 * 10.0; 
....................             result += (float)c / pow10;    
....................          } 
....................          else 
....................          { 
....................             result = 10.0 * result + (float)c; 
....................          } 
....................       } 
....................       else if (!skip) 
....................          break; 
....................    } 
....................  
....................    if (sign) 
....................       result = -1*result; 
....................        
....................    if(endptr) 
....................    { 
....................       if (ptr) { 
....................          ptr--; 
....................        #IF LONG_POINTERS  
....................          *((long *)endptr)= s+ptr;  
....................        #ELSE 
....................          *((char *)endptr)=s+ptr; 
....................        #ENDIF 
....................       } 
....................       else 
....................       { 
....................       #IF LONG_POINTERS 
....................       *((long *)endptr)= s;  
....................       #ELSE 
....................       *((char *)endptr)=s; 
....................       #ENDIF 
....................       } 
....................    } 
....................  
....................    return(result); 
.................... } 
....................  
.................... #if defined(__PCD__) 
.................... float48 strtof48(char *s, char *endptr) 
.................... { 
....................    float48 pow10 = 1.0; 
....................    float48 result = 0.0; 
....................    int1 skip = 1, sign = 0, point = 0; 
....................    char c; 
....................    unsigned int8 ptr = 0; 
....................  
....................    if (!s) 
....................       return 0; 
....................  
....................    for(c=s[ptr++]; c!=0; c=s[ptr++]) 
....................    { 
....................       if (skip && !isspace(c)) 
....................       { 
....................          skip = 0; 
....................          if (c == '+') 
....................          { 
....................             sign = 0; 
....................             continue; 
....................          }             
....................          else if (c == '-') 
....................          { 
....................             sign = 1; 
....................             continue; 
....................          } 
....................       } 
....................       if (!skip && (c == '.') && !point) 
....................          point = 1; 
....................       else if (!skip && isdigit(c)) 
....................       { 
....................          c -= '0'; 
....................          if (point) 
....................          { 
....................             pow10 = pow10 * 10.0; 
....................             result += (float48)c / pow10;    
....................          } 
....................          else 
....................          { 
....................             result = 10.0 * result + (float48)c; 
....................          } 
....................       } 
....................       else if (!skip) 
....................          break; 
....................    } 
....................  
....................    if (sign) 
....................       result = -1*result; 
....................        
....................    if(endptr) 
....................    { 
....................       if (ptr) { 
....................          ptr--; 
....................        #IF LONG_POINTERS  
....................          *((long *)endptr)= s+ptr;  
....................        #ELSE 
....................          *((char *)endptr)=s+ptr; 
....................        #ENDIF 
....................       } 
....................       else 
....................       { 
....................       #IF LONG_POINTERS 
....................       *((long *)endptr)= s;  
....................       #ELSE 
....................       *((char *)endptr)=s; 
....................       #ENDIF 
....................       } 
....................    } 
....................  
....................    return(result); 
.................... } 
....................  
.................... float64 strtod(char *s, char *endptr) 
.................... { 
....................    float64 pow10 = 1.0; 
....................    float64 result = 0.0; 
....................    int1 skip = 1, sign = 0, point = 0; 
....................    char c; 
....................    unsigned int8 ptr = 0; 
....................  
....................    if (!s) 
....................       return 0; 
....................  
....................    for(c=s[ptr++]; c!=0; c=s[ptr++]) 
....................    { 
....................       if (skip && !isspace(c)) 
....................       { 
....................          skip = 0; 
....................          if (c == '+') 
....................          { 
....................             sign = 0; 
....................             continue; 
....................          }             
....................          else if (c == '-') 
....................          { 
....................             sign = 1; 
....................             continue; 
....................          } 
....................       } 
....................       if (!skip && (c == '.') && !point) 
....................          point = 1; 
....................       else if (!skip && isdigit(c)) 
....................       { 
....................          c -= '0'; 
....................          if (point) 
....................          { 
....................             pow10 = pow10 * 10.0; 
....................             result += (float64)c / pow10;    
....................          } 
....................          else 
....................          { 
....................             result = 10.0 * result + (float64)c; 
....................          } 
....................       } 
....................       else if (!skip) 
....................          break; 
....................    } 
....................  
....................    if (sign) 
....................       result = -1*result; 
....................        
....................    if(endptr) 
....................    { 
....................       if (ptr) { 
....................          ptr--; 
....................        #IF LONG_POINTERS  
....................          *((long *)endptr)= s+ptr;  
....................        #ELSE 
....................          *((char *)endptr)=s+ptr; 
....................        #ENDIF 
....................       } 
....................       else 
....................       { 
....................       #IF LONG_POINTERS 
....................       *((long *)endptr)= s;  
....................       #ELSE 
....................       *((char *)endptr)=s; 
....................       #ENDIF 
....................       } 
....................    } 
....................  
....................    return(result); 
.................... } 
.................... #endif 
....................  
.................... unsigned long strtoul(char *s, char *endptr, signed int base) 
.................... { 
....................    char *sc,*s1,*sd; 
....................    unsigned long x=0; 
....................    char sign; 
....................    char digits[]="0123456789abcdefghijklmnopqstuvwxyz"; 
....................    for(sc=s;isspace(*sc);++sc); 
....................    sign=*sc=='-'||*sc=='+'?*sc++:'+'; 
....................    if(sign=='-' || base <0 || base ==1|| base >36) // invalid base 
....................    goto StrtoulGO; 
....................  
....................    else if (base) 
....................    { 
....................       if(base==16 && *sc =='0'&&(sc[1]=='x' || sc[1]=='X')) 
....................          sc+=2; 
....................       if(base==8 && *sc =='0') 
....................          sc+=1; 
....................       if(base==2 && *sc =='0'&&sc[1]=='b') 
....................          sc+=2; 
....................  
....................    } 
....................    else if(*sc!='0') // base is 0, find base 
....................       base=10; 
....................    else if (sc[1]=='x' || sc[1]=='X') 
....................       base =16,sc+=2; 
....................    else if(sc[1]=='b') 
....................       base=2,sc+=2; 
....................    else 
....................       base=8; 
....................    for (s1=sc;*sc=='0';++sc);// skip leading zeroes 
....................    sd=memchr(digits,tolower(*sc),base); 
....................    for(; sd!=0; ) 
....................    { 
....................       x=x*base+(int16)(sd-digits); 
....................       ++sc; 
....................       sd=memchr(digits,tolower(*sc),base); 
....................    } 
....................    if(s1==sc) 
....................    { 
....................    StrtoulGO: 
....................       if (endptr) 
....................       { 
....................          #IF LONG_POINTERS 
....................          *((long *)endptr)= s;  
....................          #ELSE 
....................          *((char *)endptr)=s; 
....................          #ENDIF 
....................          } 
....................    return 0; 
....................    } 
....................    if (endptr) 
....................    { 
....................          #IF LONG_POINTERS 
....................          *((long *)endptr)= sc;  
....................          #ELSE 
....................          *((char *)endptr)=sc;  
....................          #ENDIF 
....................    } 
....................    return x; 
.................... } 
....................  
....................  
.................... signed long strtol(char *s,char *endptr, signed int base) 
.................... { 
....................    char *sc,*s1,*sd; 
....................    signed long x=0; 
....................    char sign; 
....................    char digits[]="0123456789abcdefghijklmnopqstuvwxyz"; 
....................    for(sc=s;isspace(*sc);++sc); 
....................    sign=*sc=='-'||*sc=='+'?*sc++:'+'; 
....................    if (base <0 || base ==1|| base >36) // invalid base 
....................    goto StrtolGO; 
....................    else if (base) 
....................    { 
....................       if(base==16 && *sc =='0'&&(sc[1]=='x' || sc[1]=='X')) 
....................          sc+=2; 
....................       if(base==8 && *sc =='0') 
....................          sc+=1; 
....................       if(base==2 && *sc =='0'&&sc[1]=='b') 
....................          sc+=2; 
....................  
....................    } 
....................    else if(*sc!='0') // base is 0, find base 
....................       base=10; 
....................    else if (sc[1]=='x' || sc[1]=='X') 
....................       base =16,sc+=2; 
....................    else if(sc[1]=='b') 
....................       base=2,sc+=2; 
....................    else 
....................       base=8; 
....................    for (s1=sc;*sc=='0';++sc);// skip leading zeroes 
....................  
....................    sd=memchr(digits,tolower(*sc),base); 
....................    for(;sd!=0;) 
....................    { 
....................       x=x*base+(int16)(sd-digits); 
....................       ++sc; 
....................       sd=memchr(digits,tolower(*sc),base); 
....................    } 
....................    if(s1==sc) 
....................    { 
....................    StrtolGO: 
....................       if (endptr) 
....................       { 
....................          #IF LONG_POINTERS 
....................          *((long *)endptr)= s;  
....................          #ELSE 
....................          *((char *)endptr)=s; 
....................          #ENDIF 
....................       } 
....................    return 0; 
....................    } 
....................    if(sign=='-') 
....................       x  =-x; 
....................    if (endptr) 
....................    { 
....................         #IF LONG_POINTERS 
....................          *((long *)endptr)= sc;  
....................         #ELSE 
....................         *((char *)endptr)=sc; 
....................         #ENDIF 
....................    } 
....................    return x; 
.................... } 
....................  
.................... signed int8 system(char *string) 
.................... { 
....................    return 0; 
.................... } 
....................  
.................... int8 mblen(char *s,size_t n) 
.................... { 
....................    return strlen(s); 
.................... } 
....................  
.................... int8 mbtowc(wchar_t *pwc,char *s,size_t n) 
.................... { 
....................    *pwc=*s; 
....................    return 1; 
.................... } 
....................  
.................... int8 wctomb(char *s,wchar_t wchar) 
.................... { 
....................    *s=wchar; 
....................    return 1; 
.................... } 
....................  
.................... size_t mbstowcs(wchar_t *pwcs,char *s,size_t n) 
.................... { 
....................    strncpy(pwcs,s,n); 
....................    return strlen(pwcs); 
.................... } 
....................  
.................... size_t wcstombs(char *s,wchar_t *pwcs,size_t n) 
.................... { 
....................    strncpy(s,pwcs,n); 
....................    return strlen(s); 
.................... } 
....................  
.................... //--------------------------------------------------------------------------- 
.................... // The random number implementation 
.................... //--------------------------------------------------------------------------- 
....................  
.................... unsigned int32 _Randseed; 
....................  
.................... unsigned int16 rand(void) 
.................... { 
....................    _Randseed = _Randseed * 1103515245 + 12345; 
....................    return ((unsigned int16)(_Randseed >> 16) % RAND_MAX); 
.................... } 
....................  
.................... void srand(unsigned int32 seed) 
.................... { 
....................    _Randseed = seed; 
.................... } 
....................  
.................... //--------------------------------------------------------------------------- 
.................... // Searching and sorting utilities implementation 
.................... //--------------------------------------------------------------------------- 
....................  
.................... #if !defined(__PCD__) 
.................... typedef signed int8 (*_Cmpfun)(char * p1,char * p2);  
.................... #else  
.................... typedef signed int16 (*_Cmpfun)(char * p1,char * p2);  
.................... #endif 
....................  
....................  
....................  
.................... void qsort(char * qdata, unsigned int qitems, unsigned int qsize, _Cmpfun cmp) { 
....................    unsigned int m,j,i,l; 
....................    int1 done; 
....................    unsigned int8 t[16]; 
....................  
....................    m = qitems/2; 
....................    while( m > 0 ) { 
....................      for(j=0; j<(qitems-m); ++j) { 
....................         i = j; 
....................         do 
....................         { 
....................            done=1; 
....................            l = i+m; 
....................            if( (*cmp)(qdata+i*qsize, qdata+l*qsize) > 0 ) { 
....................               memcpy(t, qdata+i*qsize, qsize); 
....................               memcpy(qdata+i*qsize, qdata+l*qsize, qsize); 
....................               memcpy(qdata+l*qsize, t, qsize); 
....................               if(m <= i) 
....................                 i -= m; 
....................                 done = 0; 
....................            } 
....................         } while(!done); 
....................      } 
....................      m = m/2; 
....................    } 
.................... } 
....................  
....................  
.................... char *bsearch(char *key, char *base, size_t num, size_t width,_Cmpfun cmp) 
.................... { 
....................    char *p, *q; 
....................    size_t n; 
....................    size_t pivot; 
....................    signed int val; 
....................  
....................    p = base; 
....................    n = num; 
....................  
....................    while (n > 0) 
....................    { 
....................       pivot = n >> 1; 
....................       q = p + width * pivot; 
....................  
....................       val = (*cmp)(key, q); 
....................  
....................       if (val < 0) 
....................          n = pivot; 
....................       else if (val == 0) 
....................          return ((char *)q); 
....................       else { 
....................          p = q + width; 
....................          n -= pivot + 1; 
....................       } 
....................    } 
....................  
....................    return NULL;      // There's no match 
.................... } 
....................  
....................  
.................... #endif 
....................  
.................... //#include <DS1302.c> 
.................... #include <24512.c> 
.................... /////////////////////////////////////////////////////////////////////////// 
.................... ////   Library for a 24LC512 serial EEPROM                             //// 
.................... ////                                                                   //// 
.................... ////   init_ext_eeprom();    Call before the other functions are used  //// 
.................... ////                                                                   //// 
.................... ////   write_ext_eeprom(a, d);  Write the byte d to the address a      //// 
.................... ////                                                                   //// 
.................... ////   d = read_ext_eeprom(a);   Read the byte d from the address a    //// 
.................... ////                                                                   //// 
.................... ////   The main program may define eeprom_sda                          //// 
.................... ////   and eeprom_scl to override the defaults below.                  //// 
.................... ////                                                                   //// 
.................... /////////////////////////////////////////////////////////////////////////// 
.................... ////        (C) Copyright 1996,2003 Custom Computer Services           //// 
.................... //// This source code may only be used by licensed users of the CCS C  //// 
.................... //// compiler.  This source code may only be distributed to other      //// 
.................... //// licensed users of the CCS C compiler.  No other use, reproduction //// 
.................... //// or distribution is permitted without written permission.          //// 
.................... //// Derivative programs created using this software in object code    //// 
.................... //// form are not restricted in any way.                               //// 
.................... /////////////////////////////////////////////////////////////////////////// 
....................  
.................... #ifndef EEPROM_SDA 
....................  
.................... #define EEPROM_SDA  PIN_C4 
.................... #define EEPROM_SCL  PIN_C3 
....................  
.................... #endif 
....................  
.................... //#use i2c(master, sda=EEPROM_SDA, scl=EEPROM_SCL) 
....................  
.................... #define EEPROM_ADDRESS long int 
.................... #define EEPROM_SIZE   65535 
....................  
.................... void init_ext_eeprom() 
.................... { 
....................    output_float(EEPROM_SCL); 
....................    output_float(EEPROM_SDA); 
....................  
.................... } 
....................  
.................... void write_ext_eeprom(long int address, BYTE data) 
.................... { 
....................    short int status; 
....................    i2c_start(); 
*
04DC0:  BSF    F94.4
04DC2:  MOVLW  05
04DC4:  MOVWF  00
04DC6:  DECFSZ 00,F
04DC8:  BRA    4DC6
04DCA:  BSF    F94.3
04DCC:  MOVLW  06
04DCE:  MOVWF  00
04DD0:  DECFSZ 00,F
04DD2:  BRA    4DD0
04DD4:  BCF    F8B.4
04DD6:  BCF    F94.4
04DD8:  MOVLW  05
04DDA:  MOVWF  00
04DDC:  DECFSZ 00,F
04DDE:  BRA    4DDC
04DE0:  BCF    F8B.3
04DE2:  BCF    F94.3
....................    i2c_write(0xa0); 
04DE4:  MOVLW  A0
04DE6:  MOVLB  4
04DE8:  MOVWF  x95
04DEA:  MOVLB  0
04DEC:  RCALL  465A
....................    i2c_write(address>>8); 
04DEE:  MOVFF  490,493
04DF2:  MOVLB  4
04DF4:  CLRF   x94
04DF6:  MOVFF  490,495
04DFA:  MOVLB  0
04DFC:  RCALL  465A
....................    i2c_write(address); 
04DFE:  MOVFF  48F,495
04E02:  RCALL  465A
....................    i2c_write(data); 
04E04:  MOVFF  491,495
04E08:  RCALL  465A
....................    i2c_stop(); 
04E0A:  BCF    F94.4
04E0C:  NOP   
04E0E:  BSF    F94.3
04E10:  BTFSS  F82.3
04E12:  BRA    4E10
04E14:  MOVLW  05
04E16:  MOVWF  00
04E18:  DECFSZ 00,F
04E1A:  BRA    4E18
04E1C:  BRA    4E1E
04E1E:  NOP   
04E20:  BSF    F94.4
04E22:  MOVLW  05
04E24:  MOVWF  00
04E26:  DECFSZ 00,F
04E28:  BRA    4E26
....................    i2c_start(); 
04E2A:  BSF    F94.4
04E2C:  MOVLW  05
04E2E:  MOVWF  00
04E30:  DECFSZ 00,F
04E32:  BRA    4E30
04E34:  BSF    F94.3
04E36:  MOVLW  06
04E38:  MOVWF  00
04E3A:  DECFSZ 00,F
04E3C:  BRA    4E3A
04E3E:  BCF    F8B.4
04E40:  BCF    F94.4
04E42:  MOVLW  05
04E44:  MOVWF  00
04E46:  DECFSZ 00,F
04E48:  BRA    4E46
04E4A:  BCF    F8B.3
04E4C:  BCF    F94.3
....................    status=i2c_write(0xa0); 
04E4E:  MOVLW  A0
04E50:  MOVLB  4
04E52:  MOVWF  x95
04E54:  MOVLB  0
04E56:  RCALL  465A
04E58:  MOVF   01,W
04E5A:  MOVLB  4
04E5C:  BCF    x92.0
04E5E:  BTFSC  01.0
04E60:  BSF    x92.0
....................    //while(status==1) 
....................    //{ 
....................       i2c_start(); 
04E62:  BSF    F94.4
04E64:  MOVLW  05
04E66:  MOVWF  00
04E68:  DECFSZ 00,F
04E6A:  BRA    4E68
04E6C:  BSF    F94.3
04E6E:  MOVLW  06
04E70:  MOVWF  00
04E72:  DECFSZ 00,F
04E74:  BRA    4E72
04E76:  BTFSS  F82.3
04E78:  BRA    4E76
04E7A:  BCF    F8B.4
04E7C:  BCF    F94.4
04E7E:  MOVLW  05
04E80:  MOVWF  00
04E82:  DECFSZ 00,F
04E84:  BRA    4E82
04E86:  BCF    F8B.3
04E88:  BCF    F94.3
....................       status=i2c_write(0xa0); 
04E8A:  MOVLW  A0
04E8C:  MOVWF  x95
04E8E:  MOVLB  0
04E90:  CALL   465A
04E94:  MOVF   01,W
04E96:  MOVLB  4
04E98:  BCF    x92.0
04E9A:  BTFSC  01.0
04E9C:  BSF    x92.0
....................    //} 
....................    i2c_stop(); 
04E9E:  BCF    F94.4
04EA0:  NOP   
04EA2:  BSF    F94.3
04EA4:  BTFSS  F82.3
04EA6:  BRA    4EA4
04EA8:  MOVLW  05
04EAA:  MOVWF  00
04EAC:  DECFSZ 00,F
04EAE:  BRA    4EAC
04EB0:  BRA    4EB2
04EB2:  NOP   
04EB4:  BSF    F94.4
04EB6:  MOVLW  05
04EB8:  MOVWF  00
04EBA:  DECFSZ 00,F
04EBC:  BRA    4EBA
.................... } 
04EBE:  MOVLB  0
04EC0:  RETLW  00
....................  
.................... BYTE read_ext_eeprom(long int address) { 
....................    BYTE data; 
....................    i2c_start(); 
*
05696:  BSF    F94.4
05698:  MOVLW  05
0569A:  MOVWF  00
0569C:  DECFSZ 00,F
0569E:  BRA    569C
056A0:  BSF    F94.3
056A2:  MOVLW  06
056A4:  MOVWF  00
056A6:  DECFSZ 00,F
056A8:  BRA    56A6
056AA:  BCF    F8B.4
056AC:  BCF    F94.4
056AE:  MOVLW  05
056B0:  MOVWF  00
056B2:  DECFSZ 00,F
056B4:  BRA    56B2
056B6:  BCF    F8B.3
056B8:  BCF    F94.3
....................    i2c_write(0xa0); 
056BA:  MOVLW  A0
056BC:  MOVLB  4
056BE:  MOVWF  x95
056C0:  MOVLB  0
056C2:  CALL   465A
....................    i2c_write(address>>8); 
056C6:  MOVFF  47A,47C
056CA:  MOVLB  4
056CC:  CLRF   x7D
056CE:  MOVFF  47A,495
056D2:  MOVLB  0
056D4:  CALL   465A
....................    i2c_write(address); 
056D8:  MOVFF  479,495
056DC:  CALL   465A
....................    i2c_start(); 
056E0:  BSF    F94.4
056E2:  MOVLW  05
056E4:  MOVWF  00
056E6:  DECFSZ 00,F
056E8:  BRA    56E6
056EA:  BSF    F94.3
056EC:  MOVLW  06
056EE:  MOVWF  00
056F0:  DECFSZ 00,F
056F2:  BRA    56F0
056F4:  BTFSS  F82.3
056F6:  BRA    56F4
056F8:  BCF    F8B.4
056FA:  BCF    F94.4
056FC:  MOVLW  05
056FE:  MOVWF  00
05700:  DECFSZ 00,F
05702:  BRA    5700
05704:  BCF    F8B.3
05706:  BCF    F94.3
....................    i2c_write(0xa1); 
05708:  MOVLW  A1
0570A:  MOVLB  4
0570C:  MOVWF  x95
0570E:  MOVLB  0
05710:  CALL   465A
....................    data=i2c_read(0); 
05714:  CLRF   00
05716:  CALL   477C
0571A:  MOVFF  01,47B
....................    i2c_stop(); 
0571E:  BCF    F94.4
05720:  NOP   
05722:  BSF    F94.3
05724:  BTFSS  F82.3
05726:  BRA    5724
05728:  MOVLW  05
0572A:  MOVWF  00
0572C:  DECFSZ 00,F
0572E:  BRA    572C
05730:  BRA    5732
05732:  NOP   
05734:  BSF    F94.4
05736:  MOVLW  05
05738:  MOVWF  00
0573A:  DECFSZ 00,F
0573C:  BRA    573A
....................    return(data); 
0573E:  MOVLB  4
05740:  MOVFF  47B,01
.................... } 
05744:  MOVLB  0
05746:  RETLW  00
....................  
....................  
.................... //-----Defines para configuracion de logica de funcionamiento de autoclave---// 
.................... #define PT100Fija //Define para autcolaves con reservorio y Pt100 fija (NO FLEXIBLE) 
.................... #define Reservorio //Define para autoclaves con reservorio 
.................... #define Absoluta //Define para el sensor de presion Absoluta 
.................... #define Tmax 128 
.................... #define Tmin 105 
.................... #define ULKA 
.................... //--------------------------------------------------------------------------// 
....................  
.................... #define   UP            !input(PIN_B3) 
.................... #define   DOWN          !input(PIN_B2) 
.................... #define   RIGHT         !input(PIN_B1) 
.................... #define   LEFT          !input(PIN_B0) 
....................  
.................... #define   DOORL         !input(PIN_B7) 
.................... #define   DOOR          !input(PIN_B6) 
.................... #define   STOP          !input(PIN_B5) 
.................... #define   TERM          !input(PIN_B4) 
....................  
.................... //#define   LOW           input(PIN_C1) 
.................... //#define   HIG           input(PIN_C0) 
....................  
.................... #define   SSR_on           output_bit(PIN_E1,1) 
.................... #define   SSR_off          output_bit(PIN_E1,0) 
....................  
.................... #define   SSR2_on          output_bit(PIN_E2,1) 
.................... #define   SSR2_off         output_bit(PIN_E2,0) 
....................  
.................... #define   Buzzer_on        output_bit(PIN_D7,1) 
.................... #define   Buzzer_off       output_bit(PIN_D7,0) 
....................  
.................... #define   Desfogue_on      output_bit(PIN_C1,0) 
.................... #define   Desfogue_off     output_bit(PIN_C1,1) 
....................  
.................... #define   Agua_on          output_bit(PIN_C2,0) 
.................... #define   Agua_off         output_bit(PIN_C2,1) 
....................  
.................... #define   Bomba_on         output_bit(PIN_C0,0) 
.................... #define   Bomba_off        output_bit(PIN_C0,1) 
....................  
.................... #define OFF 0 
.................... #define ON  1 
.................... #define RX_BUFFER_SIZE  10 
.................... char Rx_Buffer[RX_BUFFER_SIZE+1]; 
.................... char Rx_Buffer2[RX_BUFFER_SIZE+1]; 
.................... char RX_Wr_Index=0; 
.................... char RX_Rd_Index=0; 
.................... char RX_Counter=0; 
....................  
.................... #define TX_BUFFER_SIZE  24 
.................... char Tx_Buffer[TX_BUFFER_SIZE+1]; 
.................... char TX_Wr_Index=0; 
.................... char TX_Counter=0; 
.................... //int1 RX_Buffer_Overflow=0; 
....................  
.................... //Comunicacion//------------------------ 
.................... byte txbuf[40]; 
.................... byte SlaveA0Tx[40]; 
.................... byte dato=0;            //Contendr la informacin a enviar o recibir 
.................... byte direccion=0;       //Contendr la direccin del esclavo en el bus I2C 
.................... byte posicion=0;        //Contendr la posicin en el buffer de memoria del esclavo donde se almacenar o de donde se recuperar el dato 
....................  
.................... /* Tabla de Modulos, Primera Fila Ao Regular y el siguiente ao Bisiesto 
.................... E   F   M   A   M   J   J   A   S   O   N   D 
.................... 0   3   3   6   1   4   6   2   5   0   3   5 
.................... 0   3   4   0   2   5   0   3   6   1   4   6 
.................... */ 
.................... int8 Regular[12]={0,3,3,6,1,4,6,2,5,0,3,5}; 
.................... int8 Bisiesto[12]={0,3,4,0,2,5,0,3,6,1,4,6}; 
....................  
.................... //Alarmas//--------------------- 
.................... short AlarmaTiempoProlongado=OFF,AlarmaSobreTemperatura=OFF,AlarmaLlenado=OFF,AlarmaTermostato=OFF,AlarmaPuerta=OFF,AlarmaEmergencia=OFF,AlarmaCiclo=OFF,AlarmaPuertaL=OFF,borra=OFF; 
....................  
.................... //Banderas//-------------------- 
.................... short IniciaLlenado=OFF,CalderinLleno=OFF,IniciaCiclo=OFF,Esterilizando=OFF,Secando=OFF,SensadoNivel=OFF,Desfogando=OFF,DesfogueSuave=OFF,LOW=OFF,HIG=OFF; 
.................... short EstadoDesfogue=OFF,EstadoAgua=OFF,EstadoSSR=OFF,PruebaEstados=OFF,Ciclo=OFF,flagCalentando=OFF,flagEsterilizando=OFF,EstadoAire=OFF; 
.................... short flagDesfogando=OFF,Op=OFF,Op2=OFF,Minutos=OFF,Segundos=OFF,GuardaEEPROM=OFF,EstadoPaso=OFF,EstadoBuzzer=OFF,flagAlarma=OFF; 
.................... short flagBuzzer=OFF,flagSilencio=OFF,Finalizo=OFF,AlarmaPresion=OFF,Libre=OFF,purga=OFF,entro=OFF,Aire=OFF,disp_Guarda=OFF,guardaCiclo=OFF,flagBombaAgua=OFF,flagBombaAguaOff=OFF; 
....................  
.................... //Tiempos//--------------------- 
.................... int16 TiempoCiclo=0,TiempoLlenado=0,TiempoSensadoNivel=0,Tp=0,Tc=0,tguarda=0; 
.................... signed int  Testerilizacion[5]={0,0,0,0,0};   // Tiempo transcurrido 
.................... signed int  Testerilizacionp[5]={0,0,0,0,0};   // Tiempo transcurrido 
.................... signed int  Tsecado[4]={0,0,0,0};   // Tiempo transcurrido 
.................... signed int  Tsecadop[4]={0,0,0,0};   // Tiempo transcurrido 
....................  
.................... //Control//------------------------ 
.................... float promedio[80]={0.0,0.0,0.0,0.0,0.0,0.0,0.0,0.0,0.0,0.0,0.0,0.0,0.0,0.0,0.0,0.0,0.0,0.0,0.0,0.0,0.0,0.0,0.0,0.0,0.0,0.0,0.0,0.0,0.0,0.0,0.0,0.0,0.0,0.0,0.0,0.0,0.0,0.0,0.0,0.0,0.0,0.0,0.0,0.0,0.0,0.0,0.0,0.0,0.0,0.0,0.0,0.0,0.0,0.0,0.0,0.0,0.0,0.0,0.0,0.0,0.0,0.0,0.0,0.0}; 
.................... float PromPresion[20]={0.0,0.0,0.0,0.0,0.0,0.0,0.0,0.0,0.0,0.0,0.0,0.0,0.0,0.0,0.0,0.0,0.0,0.0,0.0,0.0}; 
.................... float PromPresionp[20]={0.0,0.0,0.0,0.0,0.0,0.0,0.0,0.0,0.0,0.0,0.0,0.0,0.0,0.0,0.0,0.0,0.0,0.0,0.0,0.0}; 
.................... float Gain=141.6,RPT100=0.5,Temporal=0.0; 
.................... float R1=100,R10=6800; 
.................... float X[2]={0.0,0.0}; 
.................... float Xx[2]={0.0,0.0}; 
.................... float promediopresion=0.0,Aumento=0.0,Aumento2=0.0,promediopresionp=0.0; 
.................... int8 h=0,l=0,Ajuste=0,Ajusten=0,MediaMovil=20,TTrampa=0,PantallaPrincipal=0,TipoClave=0,Modulo=0,Digito=0,yy=0,cicloVisto=0,cicloVisualizado=0,j=0,codigoAlarma=0,codigoAnt=0; 
.................... int16 posicionDato=0; 
.................... float V0=0.0,Pt,Tciclo=10.0,Tpulso=0.0,error=0.0,Prom=0.0,Temperature=0.0,tmp=0.0,Ganancia=25.0,Ganancia2=20.0,desvio=1.2,tmp2=0.0; 
.................... float V1=0.0,Presion=0.0,V2=0.0,Presionp=0.0; 
.................... float Temperatura=0.0,K=0.0012858; 
.................... float a=0.0011,b=2.3302,c=-244.0723; 
.................... int8 Integral=0,Derivativo=0,CicloLibre=0; 
.................... float p1=0.0000011617,p2=-0.0010575,p3=0.44114,p4=65.043,Tactual=0.0; 
....................  
.................... //Varios//-------------------------------- 
.................... short desfoguelento=0,Lectura=0,Grafica=0; 
.................... short disp_Stop=0,flagTC=0,flagImprime=0,flagImprimir=0; 
.................... int8 Control=0,tiemporecta=0,Controlando=0,ActivaImpresion=1,timpresion=2,CalculoImpresion=0,Inicio=1,Dato_Exitoso=0,Dato2=0,z=0; 
.................... int8 Menu=0, MenuAnt=0,MenuAntt=240,i=0,CiclosL=0,CiclosH=0,CicloSeleccionado=0; 
.................... int8 Setpoint=0,Opcion=1,Opcion2=1,tiempo_esterilizacion=0,tiempo_secado=0,tiempoImpresion=0; 
.................... int16 tiempos=0,tiempos2=0,tiempos3=0,tiempoctrl=0,Nivel=0,tinicio=0,PresionCamara=0,PresionPreCamara=0,Ciclos=0,NivelSeleccionado=0,tBombaAgua=0,tBombaAguaOff=0; 
.................... signed int  Contrasena[4]={0,0,0,0};      // Contrasena de 4 digitos 
.................... signed int  Password[4]={0,0,0,0};        // Contrasena Almacenada de 4 digitos 
.................... int8 r=0,t=0,r22=0,t2=0,TiempoControl=0; 
.................... int8 y=0,ConteoBuzzer=0; 
.................... int16 t_exhaust=0,tbuzzer=0,tsilencio=0,tiempoAgua=0,tStop=0,tTermostato=0; 
.................... int8 Year=18,Mes=9,Dia=13,Hora=0,Minuto=0,Segundo=0,dow=0,mEst=0,sEst=0,mSec=0,sSec=0; 
.................... int8 YearTx=0,MesTx=0,DiaTx=0,HoraTx=0,MinutoTx=0,SegundoTx=0,dowTx=0,SetTime=0,Imprime=0; 
.................... int8 Atmosferica=72; 
.................... signed int8 G1=0,G2=0,sg1=0,sg2=0; 
.................... int8 iconoGrande[9]={25,16,22,24,23,28,20,46,69}; 
.................... int8 iconoPeque[9]={34,36,18,33,32,38,19,17,68}; 
.................... char const texto[9][20]={"LIQUIDOS A","CAUCHO","INSTRUMENTAL","LIQUIDOS B","LIBRE","TEST","HORA Y FECHA","CLAVE","DATOS"}; 
.................... int8 diaCiclos=0,mesCiclos=0,yearCiclos=0,usuarioCiclos=0,cicloCiclos=0; 
....................  
.................... float TCiclos[7]; 
.................... int16 PcCiclos[7]; 
.................... int16 PpcCiclos[7]; 
.................... int8 horaCiclos[7]; 
.................... int8 minutoCiclos[7]; 
.................... int8 ACiclos[7]; 
....................  
.................... typedef struct{ 
....................    int8 Temperatura; 
....................    int8 MinutoestH; 
....................    int8 MinutoestL; 
....................    int8 Segundoest; 
....................    int8 Minutosec; 
....................    int8 Segundosec; 
....................    int8 PulsosVacio; 
....................    int8 NivelVacio; 
....................    int8 NivelDesfogue; 
....................    int8 Minutoest; 
.................... }Personalizado; 
....................  
.................... Personalizado CiclosPersonalizados[4]; 
....................  
.................... #include "Funciones.h" 
.................... float inttofloat(int8 decimal){ 
....................    float tmp; 
....................    tmp=decimal; 
05748:  MOVLB  4
0574A:  CLRF   x8A
0574C:  MOVFF  478,489
05750:  MOVLB  0
05752:  CALL   1B50
05756:  MOVFF  03,47C
0575A:  MOVFF  02,47B
0575E:  MOVFF  01,47A
05762:  MOVFF  00,479
....................    return tmp/10; 
05766:  MOVFF  47C,480
0576A:  MOVFF  47B,47F
0576E:  MOVFF  47A,47E
05772:  MOVFF  479,47D
05776:  MOVLB  4
05778:  CLRF   x84
0577A:  CLRF   x83
0577C:  MOVLW  20
0577E:  MOVWF  x82
05780:  MOVLW  82
05782:  MOVWF  x81
05784:  MOVLB  0
05786:  CALL   1B86
.................... } 
0578A:  GOTO   5AA2 (RETURN)
....................  
.................... void BorraBuffer(void){ 
.................... RX_Buffer[0]=0; 
*
04A0A:  CLRF   30
.................... RX_Buffer[1]=0; 
04A0C:  CLRF   31
.................... RX_Buffer[2]=0; 
04A0E:  CLRF   32
.................... RX_Buffer[3]=0; 
04A10:  CLRF   33
.................... RX_Buffer[4]=0; 
04A12:  CLRF   34
.................... RX_Buffer[5]=0; 
04A14:  CLRF   35
.................... RX_Buffer[6]=0; 
04A16:  CLRF   36
.................... RX_Buffer[7]=0; 
04A18:  CLRF   37
.................... RX_Buffer[8]=0; 
04A1A:  CLRF   38
.................... RX_Buffer[9]=0; 
04A1C:  CLRF   39
....................  
.................... RX_Buffer2[0]=0; 
04A1E:  CLRF   3B
.................... RX_Buffer2[1]=0; 
04A20:  CLRF   3C
.................... RX_Buffer2[2]=0; 
04A22:  CLRF   3D
.................... RX_Buffer2[3]=0; 
04A24:  CLRF   3E
.................... RX_Buffer2[4]=0; 
04A26:  CLRF   3F
.................... RX_Buffer2[5]=0; 
04A28:  CLRF   40
.................... RX_Buffer2[6]=0; 
04A2A:  CLRF   41
.................... RX_Buffer2[7]=0; 
04A2C:  CLRF   42
.................... RX_Buffer2[8]=0; 
04A2E:  CLRF   43
.................... RX_Buffer2[9]=0; 
04A30:  CLRF   44
....................  
.................... } 
04A32:  GOTO   82A8 (RETURN)
....................  
.................... char bgetc(void){ 
....................    char c; 
....................    while(RX_Counter==0) 
....................       ; 
....................    c=Rx_Buffer2[RX_Rd_Index]; 
....................    if(++RX_Rd_Index>RX_BUFFER_SIZE) 
....................       RX_Rd_Index=0; 
....................    if(RX_Counter) 
....................       RX_Counter--; 
....................    return c; 
.................... } 
....................  
.................... void bputc(char c){ 
....................    char restart=0; 
....................    while(TX_Counter> (TX_BUFFER_SIZE-1)) 
....................       ; 
....................    if(TX_Counter==0) 
....................       restart=1; 
....................    TX_Buffer[TX_Wr_Index++]=c; 
....................    if(TX_Wr_Index>TX_BUFFER_SIZE) 
....................       TX_Wr_Index=0; 
....................     
....................    TX_Counter++; 
....................     
....................    if(restart==1) 
....................       enable_interrupts(int_tbe); 
.................... } 
....................  
.................... void SendDataDisplay(void){ 
.................... delay_us(10); 
*
0393E:  MOVLW  10
03940:  MOVWF  00
03942:  DECFSZ 00,F
03944:  BRA    3942
03946:  NOP   
.................... putc(0xFF); 
03948:  MOVLW  FF
0394A:  RCALL  3936
.................... delay_us(10); 
0394C:  MOVLW  10
0394E:  MOVWF  00
03950:  DECFSZ 00,F
03952:  BRA    3950
03954:  NOP   
.................... putc(0xFF); 
03956:  MOVLW  FF
03958:  RCALL  3936
.................... delay_us(10); 
0395A:  MOVLW  10
0395C:  MOVWF  00
0395E:  DECFSZ 00,F
03960:  BRA    395E
03962:  NOP   
.................... putc(0xFF); 
03964:  MOVLW  FF
03966:  RCALL  3936
.................... delay_us(10); 
03968:  MOVLW  10
0396A:  MOVWF  00
0396C:  DECFSZ 00,F
0396E:  BRA    396C
03970:  NOP   
.................... } 
03972:  RETLW  00
....................  
.................... short esBisiesto(int8 year) { 
....................      return ((year % 4 == 0 && year % 100 != 0) || year % 400 == 0); 
*
0557C:  MOVLB  4
0557E:  MOVF   x74,W
05580:  ANDLW  03
05582:  BNZ   5598
05584:  MOVFF  474,47E
05588:  MOVLW  64
0558A:  MOVWF  x7F
0558C:  MOVLB  0
0558E:  CALL   4A68
05592:  MOVF   00,F
05594:  BNZ   55C8
05596:  MOVLB  4
05598:  CLRF   x8E
0559A:  MOVFF  474,48D
0559E:  MOVLW  01
055A0:  MOVWF  x90
055A2:  MOVLW  90
055A4:  MOVWF  x8F
055A6:  MOVLB  0
055A8:  CALL   4D7A
055AC:  MOVFF  00,475
055B0:  MOVLB  4
055B2:  MOVFF  03,476
055B6:  MOVF   x75,F
055B8:  BNZ   55C4
055BA:  MOVF   x76,F
055BC:  BTFSS  FD8.2
055BE:  BRA    55C4
055C0:  MOVLB  0
055C2:  BRA    55C8
055C4:  MOVLW  00
055C6:  BRA    55CC
055C8:  MOVLW  01
055CA:  MOVLB  4
055CC:  MOVWF  01
.................... } 
055CE:  MOVLB  0
055D0:  RETLW  00
....................  
.................... void LimitaDia(){ 
....................    if(MesTx>12) 
055D2:  MOVLB  3
055D4:  MOVF   xDB,W
055D6:  SUBLW  0C
055D8:  BC    55DE
....................       MesTx=10; 
055DA:  MOVLW  0A
055DC:  MOVWF  xDB
....................    if(DiaTx>31) 
055DE:  MOVF   xDC,W
055E0:  SUBLW  1F
055E2:  BC    55E8
....................       DiaTx=16; 
055E4:  MOVLW  10
055E6:  MOVWF  xDC
....................    if(YearTx>99) 
055E8:  MOVF   xDA,W
055EA:  SUBLW  63
055EC:  BC    55F2
....................       YearTx=18;    
055EE:  MOVLW  12
055F0:  MOVWF  xDA
....................    if(HoraTx>24) 
055F2:  MOVF   xDD,W
055F4:  SUBLW  18
055F6:  BC    55FC
....................       HoraTx=11;       
055F8:  MOVLW  0B
055FA:  MOVWF  xDD
....................    if(MinutoTx>59) 
055FC:  MOVF   xDE,W
055FE:  SUBLW  3B
05600:  BC    5606
....................       MinutoTx=30;       
05602:  MOVLW  1E
05604:  MOVWF  xDE
....................     
....................       if(MesTx==2){ 
05606:  MOVF   xDB,W
05608:  SUBLW  02
0560A:  BNZ   5636
....................          if(esBisiesto(YearTx)){ 
0560C:  MOVFF  3DA,474
05610:  MOVLB  0
05612:  RCALL  557C
05614:  MOVF   01,F
05616:  BZ    5628
....................             if(DiaTx>29){ 
05618:  MOVLB  3
0561A:  MOVF   xDC,W
0561C:  SUBLW  1D
0561E:  BC    5624
....................                DiaTx=29; 
05620:  MOVLW  1D
05622:  MOVWF  xDC
....................                //glcd_fillScreen(OFF); 
....................             } 
....................          }else{ 
05624:  BRA    5634
05626:  MOVLB  0
....................             if(DiaTx>28){ 
05628:  MOVLB  3
0562A:  MOVF   xDC,W
0562C:  SUBLW  1C
0562E:  BC    5634
....................                DiaTx=28; 
05630:  MOVLW  1C
05632:  MOVWF  xDC
....................                //glcd_fillScreen(OFF); 
....................             } 
....................          } 
....................       }else{ 
05634:  BRA    5660
....................          if(MesTx<=7){ 
05636:  MOVF   xDB,W
05638:  SUBLW  07
0563A:  BNC   564E
....................             if(MesTx % 2 ==0){ 
0563C:  MOVF   xDB,W
0563E:  ANDLW  01
05640:  BNZ   564C
....................                if(DiaTx>30){ 
05642:  MOVF   xDC,W
05644:  SUBLW  1E
05646:  BC    564C
....................                   DiaTx=30;  
05648:  MOVLW  1E
0564A:  MOVWF  xDC
....................                   //glcd_fillScreen(OFF); 
....................                } 
....................             } 
....................          }else{ 
0564C:  BRA    5660
....................             if(MesTx % 2 ==1){ 
0564E:  MOVF   xDB,W
05650:  ANDLW  01
05652:  SUBLW  01
05654:  BNZ   5660
....................                if(DiaTx>30){ 
05656:  MOVF   xDC,W
05658:  SUBLW  1E
0565A:  BC    5660
....................                   DiaTx=30;  
0565C:  MOVLW  1E
0565E:  MOVWF  xDC
....................                   //glcd_fillScreen(OFF); 
....................                } 
....................             } 
....................          } 
....................       } 
.................... } 
05660:  MOVLB  0
05662:  GOTO   B1FE (RETURN)
....................  
.................... void ActualizaRecta(){ 
....................    X[y]=Temperature; 
*
06F2E:  MOVLB  3
06F30:  MOVF   xC1,W
06F32:  MULLW  04
06F34:  MOVF   FF3,W
06F36:  CLRF   03
06F38:  ADDLW  E7
06F3A:  MOVWF  FE9
06F3C:  MOVLW  02
06F3E:  ADDWFC 03,W
06F40:  MOVWF  FEA
06F42:  MOVFF  331,FEF
06F46:  MOVFF  332,FEC
06F4A:  MOVFF  333,FEC
06F4E:  MOVFF  334,FEC
....................    y++; 
06F52:  INCF   xC1,F
....................    if(y>=2) 
06F54:  MOVF   xC1,W
06F56:  SUBLW  01
06F58:  BC    6F96
....................    { 
....................       y=0; 
06F5A:  CLRF   xC1
....................       Aumento=X[1]-X[0]; 
06F5C:  BSF    FD8.1
06F5E:  MOVFF  2EE,48C
06F62:  MOVFF  2ED,48B
06F66:  MOVFF  2EC,48A
06F6A:  MOVFF  2EB,489
06F6E:  MOVFF  2EA,490
06F72:  MOVFF  2E9,48F
06F76:  MOVFF  2E8,48E
06F7A:  MOVFF  2E7,48D
06F7E:  MOVLB  0
06F80:  CALL   1CE4
06F84:  MOVFF  03,2FE
06F88:  MOVFF  02,2FD
06F8C:  MOVFF  01,2FC
06F90:  MOVFF  00,2FB
06F94:  MOVLB  3
....................    } 
.................... } 
06F96:  MOVLB  0
06F98:  GOTO   7014 (RETURN)
....................  
.................... void ActualizaRectaPresion(){ 
....................    Xx[yy]=Tactual; 
....................    yy++; 
....................    if(yy>=2){ 
....................       yy=0; 
....................       Aumento2=Xx[1]-Xx[0]; 
....................    } 
.................... } 
....................  
.................... // Funcion para conversor analogo-digital 
.................... float sensores(int x){ 
.................... float y;set_adc_channel(x);delay_ms(1);y=read_adc();return (y); 
*
03992:  MOVLB  4
03994:  RLCF   x7D,W
03996:  MOVWF  00
03998:  RLCF   00,F
0399A:  MOVLW  FC
0399C:  ANDWF  00,F
0399E:  MOVFF  00,01
039A2:  MOVF   FC2,W
039A4:  ANDLW  C3
039A6:  IORWF  00,W
039A8:  MOVWF  FC2
039AA:  MOVLW  01
039AC:  MOVWF  x8D
039AE:  MOVLB  0
039B0:  CALL   1B28
039B4:  BSF    FC2.1
039B6:  BTFSC  FC2.1
039B8:  BRA    39B6
039BA:  MOVFF  FC4,48A
039BE:  MOVFF  FC3,489
039C2:  MOVLB  0
039C4:  CALL   1B50
039C8:  MOVFF  03,481
039CC:  MOVFF  02,480
039D0:  MOVFF  01,47F
039D4:  MOVFF  00,47E
039D8:  MOVFF  47E,00
039DC:  MOVFF  47F,01
039E0:  MOVFF  480,02
039E4:  MOVFF  481,03
.................... } 
039E8:  RETLW  00
.................... float LeerPT100(int media) 
.................... { 
*
03B02:  MOVLB  4
03B04:  CLRF   x78
03B06:  CLRF   x77
03B08:  CLRF   x76
03B0A:  CLRF   x75
03B0C:  CLRF   x7C
03B0E:  CLRF   x7B
03B10:  CLRF   x7A
03B12:  CLRF   x79
....................    float ajp=0.0,ajn=0.0; 
....................    Prom=0.0; 
03B14:  MOVLB  3
03B16:  CLRF   x30
03B18:  CLRF   x2F
03B1A:  CLRF   x2E
03B1C:  CLRF   x2D
....................    V0 = sensores(0);   //Lectura de Divisor de Voltaje de PT100 con resistencia de 6.18k (+-2%) 
03B1E:  MOVLB  4
03B20:  CLRF   x7D
03B22:  MOVLB  0
03B24:  RCALL  3992
03B26:  MOVFF  03,31C
03B2A:  MOVFF  02,31B
03B2E:  MOVFF  01,31A
03B32:  MOVFF  00,319
....................    V0 = V0/105.56; // Se elimina la ganancia 
03B36:  MOVFF  31C,480
03B3A:  MOVFF  31B,47F
03B3E:  MOVFF  31A,47E
03B42:  MOVFF  319,47D
03B46:  MOVLW  B8
03B48:  MOVLB  4
03B4A:  MOVWF  x84
03B4C:  MOVLW  1E
03B4E:  MOVWF  x83
03B50:  MOVLW  53
03B52:  MOVWF  x82
03B54:  MOVLW  85
03B56:  MOVWF  x81
03B58:  MOVLB  0
03B5A:  CALL   1B86
03B5E:  MOVFF  03,31C
03B62:  MOVFF  02,31B
03B66:  MOVFF  01,31A
03B6A:  MOVFF  00,319
....................    //V0 += 14.82; 
....................    V0 += 14.79;//5.039V 72.5mV 
03B6E:  BCF    FD8.1
03B70:  MOVFF  31C,48C
03B74:  MOVFF  31B,48B
03B78:  MOVFF  31A,48A
03B7C:  MOVFF  319,489
03B80:  MOVLW  D7
03B82:  MOVLB  4
03B84:  MOVWF  x90
03B86:  MOVLW  A3
03B88:  MOVWF  x8F
03B8A:  MOVLW  6C
03B8C:  MOVWF  x8E
03B8E:  MOVLW  82
03B90:  MOVWF  x8D
03B92:  MOVLB  0
03B94:  CALL   1CE4
03B98:  MOVFF  03,31C
03B9C:  MOVFF  02,31B
03BA0:  MOVFF  01,31A
03BA4:  MOVFF  00,319
....................    Pt=R10/((1023/V0)-1); 
03BA8:  MOVLB  4
03BAA:  CLRF   x80
03BAC:  MOVLW  C0
03BAE:  MOVWF  x7F
03BB0:  MOVLW  7F
03BB2:  MOVWF  x7E
03BB4:  MOVLW  88
03BB6:  MOVWF  x7D
03BB8:  MOVFF  31C,484
03BBC:  MOVFF  31B,483
03BC0:  MOVFF  31A,482
03BC4:  MOVFF  319,481
03BC8:  MOVLB  0
03BCA:  CALL   1B86
03BCE:  MOVFF  00,47D
03BD2:  MOVFF  01,47E
03BD6:  MOVFF  02,47F
03BDA:  MOVFF  03,480
03BDE:  BSF    FD8.1
03BE0:  MOVFF  03,48C
03BE4:  MOVFF  02,48B
03BE8:  MOVFF  01,48A
03BEC:  MOVFF  00,489
03BF0:  MOVLB  4
03BF2:  CLRF   x90
03BF4:  CLRF   x8F
03BF6:  CLRF   x8E
03BF8:  MOVLW  7F
03BFA:  MOVWF  x8D
03BFC:  MOVLB  0
03BFE:  CALL   1CE4
03C02:  MOVFF  2E6,480
03C06:  MOVFF  2E5,47F
03C0A:  MOVFF  2E4,47E
03C0E:  MOVFF  2E3,47D
03C12:  MOVFF  03,484
03C16:  MOVFF  02,483
03C1A:  MOVFF  01,482
03C1E:  MOVFF  00,481
03C22:  CALL   1B86
03C26:  MOVFF  03,320
03C2A:  MOVFF  02,31F
03C2E:  MOVFF  01,31E
03C32:  MOVFF  00,31D
....................              
....................    if(l>(media-1)) 
03C36:  MOVLW  01
03C38:  MOVLB  4
03C3A:  SUBWF  x74,W
03C3C:  MOVLB  3
03C3E:  SUBWF  x08,W
03C40:  BZ    3C46
03C42:  BNC   3C46
....................    {l=0;} 
03C44:  CLRF   x08
....................    //promedio[l]=Temperature;l++; 
....................    promedio[l]=Pt;l++; 
03C46:  MOVLB  4
03C48:  CLRF   x90
03C4A:  MOVFF  308,48F
03C4E:  CLRF   x92
03C50:  MOVLW  04
03C52:  MOVWF  x91
03C54:  MOVLB  0
03C56:  RCALL  39EA
03C58:  MOVF   01,W
03C5A:  ADDLW  F3
03C5C:  MOVWF  FE9
03C5E:  MOVLW  00
03C60:  ADDWFC 02,W
03C62:  MOVWF  FEA
03C64:  MOVFF  31D,FEF
03C68:  MOVFF  31E,FEC
03C6C:  MOVFF  31F,FEC
03C70:  MOVFF  320,FEC
03C74:  MOVLB  3
03C76:  INCF   x08,F
....................           
....................    for(h=0;h<media;h++) 
03C78:  CLRF   x07
03C7A:  MOVLB  4
03C7C:  MOVF   x74,W
03C7E:  MOVLB  3
03C80:  SUBWF  x07,W
03C82:  BC    3D02
....................    { 
....................       Prom+=promedio[h]; 
03C84:  MOVLB  4
03C86:  CLRF   x90
03C88:  MOVFF  307,48F
03C8C:  CLRF   x92
03C8E:  MOVLW  04
03C90:  MOVWF  x91
03C92:  MOVLB  0
03C94:  RCALL  39EA
03C96:  MOVFF  02,03
03C9A:  MOVF   01,W
03C9C:  ADDLW  F3
03C9E:  MOVWF  FE9
03CA0:  MOVLW  00
03CA2:  ADDWFC 02,W
03CA4:  MOVWF  FEA
03CA6:  MOVFF  FEF,00
03CAA:  MOVFF  FEC,01
03CAE:  MOVFF  FEC,02
03CB2:  MOVFF  FEC,03
03CB6:  MOVFF  FEA,47E
03CBA:  MOVFF  FE9,47D
03CBE:  BCF    FD8.1
03CC0:  MOVFF  330,48C
03CC4:  MOVFF  32F,48B
03CC8:  MOVFF  32E,48A
03CCC:  MOVFF  32D,489
03CD0:  MOVFF  03,490
03CD4:  MOVFF  02,48F
03CD8:  MOVFF  01,48E
03CDC:  MOVFF  00,48D
03CE0:  CALL   1CE4
03CE4:  MOVFF  47E,FEA
03CE8:  MOVFF  47D,FE9
03CEC:  MOVFF  03,330
03CF0:  MOVFF  02,32F
03CF4:  MOVFF  01,32E
03CF8:  MOVFF  00,32D
....................    }  
03CFC:  MOVLB  3
03CFE:  INCF   x07,F
03D00:  BRA    3C7A
....................    Prom=Prom/media;    
03D02:  MOVLB  4
03D04:  CLRF   x8A
03D06:  MOVFF  474,489
03D0A:  MOVLB  0
03D0C:  CALL   1B50
03D10:  MOVFF  330,480
03D14:  MOVFF  32F,47F
03D18:  MOVFF  32E,47E
03D1C:  MOVFF  32D,47D
03D20:  MOVFF  03,484
03D24:  MOVFF  02,483
03D28:  MOVFF  01,482
03D2C:  MOVFF  00,481
03D30:  CALL   1B86
03D34:  MOVFF  03,330
03D38:  MOVFF  02,32F
03D3C:  MOVFF  01,32E
03D40:  MOVFF  00,32D
....................    //Temperature=(Prom-100.0)/(0.385);  // Ecuacin determinada por linealizacin en Matlab. Revisar este polinomio.   
....................    Temperature=((Prom*Prom)*a)+(Prom*b)+c;  // Ecuacin determinada por linealizacin en Matlab. Revisar este polinomio. 
03D44:  MOVFF  330,490
03D48:  MOVFF  32F,48F
03D4C:  MOVFF  32E,48E
03D50:  MOVFF  32D,48D
03D54:  MOVFF  330,494
03D58:  MOVFF  32F,493
03D5C:  MOVFF  32E,492
03D60:  MOVFF  32D,491
03D64:  RCALL  3A0C
03D66:  MOVFF  00,47D
03D6A:  MOVFF  01,47E
03D6E:  MOVFF  02,47F
03D72:  MOVFF  03,480
03D76:  MOVFF  03,490
03D7A:  MOVFF  02,48F
03D7E:  MOVFF  01,48E
03D82:  MOVFF  00,48D
03D86:  MOVFF  364,494
03D8A:  MOVFF  363,493
03D8E:  MOVFF  362,492
03D92:  MOVFF  361,491
03D96:  RCALL  3A0C
03D98:  MOVFF  00,47D
03D9C:  MOVFF  01,47E
03DA0:  MOVFF  02,47F
03DA4:  MOVFF  03,480
03DA8:  MOVFF  330,490
03DAC:  MOVFF  32F,48F
03DB0:  MOVFF  32E,48E
03DB4:  MOVFF  32D,48D
03DB8:  MOVFF  368,494
03DBC:  MOVFF  367,493
03DC0:  MOVFF  366,492
03DC4:  MOVFF  365,491
03DC8:  RCALL  3A0C
03DCA:  BCF    FD8.1
03DCC:  MOVFF  480,48C
03DD0:  MOVFF  47F,48B
03DD4:  MOVFF  47E,48A
03DD8:  MOVFF  47D,489
03DDC:  MOVFF  03,490
03DE0:  MOVFF  02,48F
03DE4:  MOVFF  01,48E
03DE8:  MOVFF  00,48D
03DEC:  CALL   1CE4
03DF0:  MOVFF  00,47D
03DF4:  MOVFF  01,47E
03DF8:  MOVFF  02,47F
03DFC:  MOVFF  03,480
03E00:  BCF    FD8.1
03E02:  MOVFF  03,48C
03E06:  MOVFF  02,48B
03E0A:  MOVFF  01,48A
03E0E:  MOVFF  00,489
03E12:  MOVFF  36C,490
03E16:  MOVFF  36B,48F
03E1A:  MOVFF  36A,48E
03E1E:  MOVFF  369,48D
03E22:  CALL   1CE4
03E26:  MOVFF  03,334
03E2A:  MOVFF  02,333
03E2E:  MOVFF  01,332
03E32:  MOVFF  00,331
....................    ajp=(float)Ajuste; 
03E36:  MOVLB  4
03E38:  CLRF   x8A
03E3A:  MOVFF  309,489
03E3E:  MOVLB  0
03E40:  CALL   1B50
03E44:  MOVFF  03,478
03E48:  MOVFF  02,477
03E4C:  MOVFF  01,476
03E50:  MOVFF  00,475
....................    ajp=ajp/10; 
03E54:  MOVFF  478,480
03E58:  MOVFF  477,47F
03E5C:  MOVFF  476,47E
03E60:  MOVFF  475,47D
03E64:  MOVLB  4
03E66:  CLRF   x84
03E68:  CLRF   x83
03E6A:  MOVLW  20
03E6C:  MOVWF  x82
03E6E:  MOVLW  82
03E70:  MOVWF  x81
03E72:  MOVLB  0
03E74:  CALL   1B86
03E78:  MOVFF  03,478
03E7C:  MOVFF  02,477
03E80:  MOVFF  01,476
03E84:  MOVFF  00,475
....................    ajn=(float)Ajusten; 
03E88:  MOVLB  4
03E8A:  CLRF   x8A
03E8C:  MOVFF  30A,489
03E90:  MOVLB  0
03E92:  CALL   1B50
03E96:  MOVFF  03,47C
03E9A:  MOVFF  02,47B
03E9E:  MOVFF  01,47A
03EA2:  MOVFF  00,479
....................    ajn=ajn/10; 
03EA6:  MOVFF  47C,480
03EAA:  MOVFF  47B,47F
03EAE:  MOVFF  47A,47E
03EB2:  MOVFF  479,47D
03EB6:  MOVLB  4
03EB8:  CLRF   x84
03EBA:  CLRF   x83
03EBC:  MOVLW  20
03EBE:  MOVWF  x82
03EC0:  MOVLW  82
03EC2:  MOVWF  x81
03EC4:  MOVLB  0
03EC6:  CALL   1B86
03ECA:  MOVFF  03,47C
03ECE:  MOVFF  02,47B
03ED2:  MOVFF  01,47A
03ED6:  MOVFF  00,479
....................    Temperature+=(ajp-ajn); 
03EDA:  BSF    FD8.1
03EDC:  MOVFF  478,48C
03EE0:  MOVFF  477,48B
03EE4:  MOVFF  476,48A
03EE8:  MOVFF  475,489
03EEC:  MOVFF  47C,490
03EF0:  MOVFF  47B,48F
03EF4:  MOVFF  47A,48E
03EF8:  MOVFF  479,48D
03EFC:  CALL   1CE4
03F00:  BCF    FD8.1
03F02:  MOVFF  334,48C
03F06:  MOVFF  333,48B
03F0A:  MOVFF  332,48A
03F0E:  MOVFF  331,489
03F12:  MOVFF  03,490
03F16:  MOVFF  02,48F
03F1A:  MOVFF  01,48E
03F1E:  MOVFF  00,48D
03F22:  CALL   1CE4
03F26:  MOVFF  03,334
03F2A:  MOVFF  02,333
03F2E:  MOVFF  01,332
03F32:  MOVFF  00,331
....................    //Temperature-=39.0; 
....................     
....................    //return Prom; 
....................    return Temperature; 
03F36:  MOVFF  331,00
03F3A:  MOVFF  332,01
03F3E:  MOVFF  333,02
03F42:  MOVFF  334,03
.................... } 
03F46:  RETLW  00
....................  
.................... float Leer_Sensor_Presion_Camara(int media){ 
....................    promediopresion=0.0; 
03F48:  MOVLB  2
03F4A:  CLRF   xFA
03F4C:  CLRF   xF9
03F4E:  CLRF   xF8
03F50:  CLRF   xF7
....................    V1 = sensores(5);   //Lectura de Divisor de Voltaje de PT100 con resistencia de 1k (+-10%) 
03F52:  MOVLW  05
03F54:  MOVLB  4
03F56:  MOVWF  x7D
03F58:  MOVLB  0
03F5A:  RCALL  3992
03F5C:  MOVFF  03,34C
03F60:  MOVFF  02,34B
03F64:  MOVFF  01,34A
03F68:  MOVFF  00,349
....................    //V1 = V1*(5.0/1024.0); 
....................    //Presion=(V1-0.2)/(K); 
....................    Presion=(((V1)/1023)-0.04)/K; 
03F6C:  MOVFF  34C,480
03F70:  MOVFF  34B,47F
03F74:  MOVFF  34A,47E
03F78:  MOVFF  349,47D
03F7C:  MOVLB  4
03F7E:  CLRF   x84
03F80:  MOVLW  C0
03F82:  MOVWF  x83
03F84:  MOVLW  7F
03F86:  MOVWF  x82
03F88:  MOVLW  88
03F8A:  MOVWF  x81
03F8C:  MOVLB  0
03F8E:  CALL   1B86
03F92:  MOVFF  00,475
03F96:  MOVFF  01,476
03F9A:  MOVFF  02,477
03F9E:  MOVFF  03,478
03FA2:  BSF    FD8.1
03FA4:  MOVFF  03,48C
03FA8:  MOVFF  02,48B
03FAC:  MOVFF  01,48A
03FB0:  MOVFF  00,489
03FB4:  MOVLW  0A
03FB6:  MOVLB  4
03FB8:  MOVWF  x90
03FBA:  MOVLW  D7
03FBC:  MOVWF  x8F
03FBE:  MOVLW  23
03FC0:  MOVWF  x8E
03FC2:  MOVLW  7A
03FC4:  MOVWF  x8D
03FC6:  MOVLB  0
03FC8:  CALL   1CE4
03FCC:  MOVFF  00,475
03FD0:  MOVFF  01,476
03FD4:  MOVFF  02,477
03FD8:  MOVFF  03,478
03FDC:  MOVFF  03,480
03FE0:  MOVFF  02,47F
03FE4:  MOVFF  01,47E
03FE8:  MOVFF  00,47D
03FEC:  MOVFF  360,484
03FF0:  MOVFF  35F,483
03FF4:  MOVFF  35E,482
03FF8:  MOVFF  35D,481
03FFC:  CALL   1B86
04000:  MOVFF  03,350
04004:  MOVFF  02,34F
04008:  MOVFF  01,34E
0400C:  MOVFF  00,34D
....................     
....................    if(Presion<0.0) 
04010:  MOVFF  350,47B
04014:  MOVFF  34F,47A
04018:  MOVFF  34E,479
0401C:  MOVFF  34D,478
04020:  MOVLB  4
04022:  CLRF   x7F
04024:  CLRF   x7E
04026:  CLRF   x7D
04028:  CLRF   x7C
0402A:  MOVLB  0
0402C:  CALL   2D46
04030:  BNC   403C
....................    { 
....................       Presion=0.0; 
04032:  MOVLB  3
04034:  CLRF   x50
04036:  CLRF   x4F
04038:  CLRF   x4E
0403A:  CLRF   x4D
....................    } 
....................     
....................    if(r>media-1) 
0403C:  MOVLW  01
0403E:  MOVLB  4
04040:  SUBWF  x74,W
04042:  MOVLB  3
04044:  SUBWF  xBC,W
04046:  BZ    404C
04048:  BNC   404C
....................    {r=0;} 
0404A:  CLRF   xBC
....................    PromPresion[r]=Presion;r++; 
0404C:  MOVF   xBC,W
0404E:  MULLW  04
04050:  MOVF   FF3,W
04052:  CLRF   03
04054:  ADDLW  33
04056:  MOVWF  FE9
04058:  MOVLW  02
0405A:  ADDWFC 03,W
0405C:  MOVWF  FEA
0405E:  MOVFF  34D,FEF
04062:  MOVFF  34E,FEC
04066:  MOVFF  34F,FEC
0406A:  MOVFF  350,FEC
0406E:  INCF   xBC,F
....................           
....................    for(t=0;t<=(media-1);t++) 
04070:  CLRF   xBD
04072:  MOVLW  01
04074:  MOVLB  4
04076:  SUBWF  x74,W
04078:  MOVLB  3
0407A:  SUBWF  xBD,W
0407C:  BZ    4080
0407E:  BC    40F0
....................    { 
....................       promediopresion+=PromPresion[t]; 
04080:  MOVF   xBD,W
04082:  MULLW  04
04084:  MOVF   FF3,W
04086:  CLRF   03
04088:  ADDLW  33
0408A:  MOVWF  FE9
0408C:  MOVLW  02
0408E:  ADDWFC 03,W
04090:  MOVWF  FEA
04092:  MOVFF  FEF,00
04096:  MOVFF  FEC,01
0409A:  MOVFF  FEC,02
0409E:  MOVFF  FEC,03
040A2:  MOVFF  FEA,476
040A6:  MOVFF  FE9,475
040AA:  BCF    FD8.1
040AC:  MOVFF  2FA,48C
040B0:  MOVFF  2F9,48B
040B4:  MOVFF  2F8,48A
040B8:  MOVFF  2F7,489
040BC:  MOVFF  03,490
040C0:  MOVFF  02,48F
040C4:  MOVFF  01,48E
040C8:  MOVFF  00,48D
040CC:  MOVLB  0
040CE:  CALL   1CE4
040D2:  MOVFF  476,FEA
040D6:  MOVFF  475,FE9
040DA:  MOVFF  03,2FA
040DE:  MOVFF  02,2F9
040E2:  MOVFF  01,2F8
040E6:  MOVFF  00,2F7
....................    }  
040EA:  MOVLB  3
040EC:  INCF   xBD,F
040EE:  BRA    4072
....................    promediopresion=promediopresion/media;    
040F0:  MOVLB  4
040F2:  CLRF   x8A
040F4:  MOVFF  474,489
040F8:  MOVLB  0
040FA:  CALL   1B50
040FE:  MOVFF  2FA,480
04102:  MOVFF  2F9,47F
04106:  MOVFF  2F8,47E
0410A:  MOVFF  2F7,47D
0410E:  MOVFF  03,484
04112:  MOVFF  02,483
04116:  MOVFF  01,482
0411A:  MOVFF  00,481
0411E:  CALL   1B86
04122:  MOVFF  03,2FA
04126:  MOVFF  02,2F9
0412A:  MOVFF  01,2F8
0412E:  MOVFF  00,2F7
....................     
....................    return promediopresion; 
04132:  MOVFF  2F7,00
04136:  MOVFF  2F8,01
0413A:  MOVFF  2F9,02
0413E:  MOVFF  2FA,03
.................... } 
04142:  RETLW  00
....................  
.................... float Leer_Sensor_Presion_PreCamara(int media){ 
....................    promediopresionp=0.0; 
*
04180:  MOVLB  3
04182:  CLRF   x06
04184:  CLRF   x05
04186:  CLRF   x04
04188:  CLRF   x03
....................    V2 = sensores(4);   //Lectura de Divisor de Voltaje de PT100 con resistencia de 1k (+-10%) 
0418A:  MOVLW  04
0418C:  MOVLB  4
0418E:  MOVWF  x7D
04190:  MOVLB  0
04192:  CALL   3992
04196:  MOVFF  03,354
0419A:  MOVFF  02,353
0419E:  MOVFF  01,352
041A2:  MOVFF  00,351
....................    //V2 = V2*(5.0/1024.0); 
....................    //Presionp=(V2-0.2)/(K); 
....................    Presionp=(((V2)/1023)-0.04)/K; 
041A6:  MOVFF  354,480
041AA:  MOVFF  353,47F
041AE:  MOVFF  352,47E
041B2:  MOVFF  351,47D
041B6:  MOVLB  4
041B8:  CLRF   x84
041BA:  MOVLW  C0
041BC:  MOVWF  x83
041BE:  MOVLW  7F
041C0:  MOVWF  x82
041C2:  MOVLW  88
041C4:  MOVWF  x81
041C6:  MOVLB  0
041C8:  CALL   1B86
041CC:  MOVFF  00,475
041D0:  MOVFF  01,476
041D4:  MOVFF  02,477
041D8:  MOVFF  03,478
041DC:  BSF    FD8.1
041DE:  MOVFF  03,48C
041E2:  MOVFF  02,48B
041E6:  MOVFF  01,48A
041EA:  MOVFF  00,489
041EE:  MOVLW  0A
041F0:  MOVLB  4
041F2:  MOVWF  x90
041F4:  MOVLW  D7
041F6:  MOVWF  x8F
041F8:  MOVLW  23
041FA:  MOVWF  x8E
041FC:  MOVLW  7A
041FE:  MOVWF  x8D
04200:  MOVLB  0
04202:  CALL   1CE4
04206:  MOVFF  00,475
0420A:  MOVFF  01,476
0420E:  MOVFF  02,477
04212:  MOVFF  03,478
04216:  MOVFF  03,480
0421A:  MOVFF  02,47F
0421E:  MOVFF  01,47E
04222:  MOVFF  00,47D
04226:  MOVFF  360,484
0422A:  MOVFF  35F,483
0422E:  MOVFF  35E,482
04232:  MOVFF  35D,481
04236:  CALL   1B86
0423A:  MOVFF  03,358
0423E:  MOVFF  02,357
04242:  MOVFF  01,356
04246:  MOVFF  00,355
....................     
....................    if(Presionp<0.0) 
0424A:  MOVFF  358,47B
0424E:  MOVFF  357,47A
04252:  MOVFF  356,479
04256:  MOVFF  355,478
0425A:  MOVLB  4
0425C:  CLRF   x7F
0425E:  CLRF   x7E
04260:  CLRF   x7D
04262:  CLRF   x7C
04264:  MOVLB  0
04266:  CALL   2D46
0426A:  BNC   4276
....................    { 
....................       Presionp=0.0; 
0426C:  MOVLB  3
0426E:  CLRF   x58
04270:  CLRF   x57
04272:  CLRF   x56
04274:  CLRF   x55
....................    } 
....................     
....................    if(r22>media-1) 
04276:  MOVLW  01
04278:  MOVLB  4
0427A:  SUBWF  x74,W
0427C:  MOVLB  3
0427E:  SUBWF  xBE,W
04280:  BZ    4286
04282:  BNC   4286
....................    {r22=0;} 
04284:  CLRF   xBE
....................    PromPresionp[r22]=Presionp;r22++; 
04286:  MOVF   xBE,W
04288:  MULLW  04
0428A:  MOVF   FF3,W
0428C:  CLRF   03
0428E:  ADDLW  83
04290:  MOVWF  FE9
04292:  MOVLW  02
04294:  ADDWFC 03,W
04296:  MOVWF  FEA
04298:  MOVFF  355,FEF
0429C:  MOVFF  356,FEC
042A0:  MOVFF  357,FEC
042A4:  MOVFF  358,FEC
042A8:  INCF   xBE,F
....................           
....................    for(t2=0;t2<=(media-1);t2++) 
042AA:  CLRF   xBF
042AC:  MOVLW  01
042AE:  MOVLB  4
042B0:  SUBWF  x74,W
042B2:  MOVLB  3
042B4:  SUBWF  xBF,W
042B6:  BZ    42BA
042B8:  BC    432A
....................    { 
....................       promediopresionp+=PromPresionp[t2]; 
042BA:  MOVF   xBF,W
042BC:  MULLW  04
042BE:  MOVF   FF3,W
042C0:  CLRF   03
042C2:  ADDLW  83
042C4:  MOVWF  FE9
042C6:  MOVLW  02
042C8:  ADDWFC 03,W
042CA:  MOVWF  FEA
042CC:  MOVFF  FEF,00
042D0:  MOVFF  FEC,01
042D4:  MOVFF  FEC,02
042D8:  MOVFF  FEC,03
042DC:  MOVFF  FEA,476
042E0:  MOVFF  FE9,475
042E4:  BCF    FD8.1
042E6:  MOVFF  306,48C
042EA:  MOVFF  305,48B
042EE:  MOVFF  304,48A
042F2:  MOVFF  303,489
042F6:  MOVFF  03,490
042FA:  MOVFF  02,48F
042FE:  MOVFF  01,48E
04302:  MOVFF  00,48D
04306:  MOVLB  0
04308:  CALL   1CE4
0430C:  MOVFF  476,FEA
04310:  MOVFF  475,FE9
04314:  MOVFF  03,306
04318:  MOVFF  02,305
0431C:  MOVFF  01,304
04320:  MOVFF  00,303
....................    }  
04324:  MOVLB  3
04326:  INCF   xBF,F
04328:  BRA    42AC
....................    promediopresionp=promediopresionp/media;    
0432A:  MOVLB  4
0432C:  CLRF   x8A
0432E:  MOVFF  474,489
04332:  MOVLB  0
04334:  CALL   1B50
04338:  MOVFF  306,480
0433C:  MOVFF  305,47F
04340:  MOVFF  304,47E
04344:  MOVFF  303,47D
04348:  MOVFF  03,484
0434C:  MOVFF  02,483
04350:  MOVFF  01,482
04354:  MOVFF  00,481
04358:  CALL   1B86
0435C:  MOVFF  03,306
04360:  MOVFF  02,305
04364:  MOVFF  01,304
04368:  MOVFF  00,303
....................     
....................    return promediopresionp; 
0436C:  MOVFF  303,00
04370:  MOVFF  304,01
04374:  MOVFF  305,02
04378:  MOVFF  306,03
.................... } 
0437C:  GOTO   7E9E (RETURN)
....................  
.................... void Controla(){ 
....................    if(tiemporecta>=Derivativo/2.0) 
*
06F9C:  MOVLB  4
06F9E:  CLRF   x8A
06FA0:  MOVFF  36E,489
06FA4:  MOVLB  0
06FA6:  CALL   1B50
06FAA:  MOVFF  03,480
06FAE:  MOVFF  02,47F
06FB2:  MOVFF  01,47E
06FB6:  MOVFF  00,47D
06FBA:  MOVLB  4
06FBC:  CLRF   x84
06FBE:  CLRF   x83
06FC0:  CLRF   x82
06FC2:  MOVLW  80
06FC4:  MOVWF  x81
06FC6:  MOVLB  0
06FC8:  CALL   1B86
06FCC:  MOVFF  00,474
06FD0:  MOVFF  01,475
06FD4:  MOVFF  02,476
06FD8:  MOVFF  03,477
06FDC:  MOVLB  4
06FDE:  CLRF   x8A
06FE0:  MOVFF  386,489
06FE4:  MOVLB  0
06FE6:  CALL   1B50
06FEA:  MOVFF  477,47B
06FEE:  MOVFF  476,47A
06FF2:  MOVFF  475,479
06FF6:  MOVFF  474,478
06FFA:  MOVFF  03,47F
06FFE:  MOVFF  02,47E
07002:  MOVFF  01,47D
07006:  MOVFF  00,47C
0700A:  CALL   2D46
0700E:  BC    7012
07010:  BNZ   7018
....................    { 
....................       ActualizaRecta(); 
07012:  BRA    6F2E
....................       tiemporecta=0; 
07014:  MOVLB  3
07016:  CLRF   x86
....................    }  
.................... //-------------------------------Control de Calentamiento------------------------------------------------------------//          
....................    error=desvio+Setpoint-Temperatura;      // Clculo del error ****** 
07018:  MOVLB  4
0701A:  CLRF   x8A
0701C:  MOVFF  396,489
07020:  MOVLB  0
07022:  CALL   1B50
07026:  BCF    FD8.1
07028:  MOVFF  344,48C
0702C:  MOVFF  343,48B
07030:  MOVFF  342,48A
07034:  MOVFF  341,489
07038:  MOVFF  03,490
0703C:  MOVFF  02,48F
07040:  MOVFF  01,48E
07044:  MOVFF  00,48D
07048:  CALL   1CE4
0704C:  MOVFF  00,474
07050:  MOVFF  01,475
07054:  MOVFF  02,476
07058:  MOVFF  03,477
0705C:  BSF    FD8.1
0705E:  MOVFF  03,48C
07062:  MOVFF  02,48B
07066:  MOVFF  01,48A
0706A:  MOVFF  00,489
0706E:  MOVFF  35C,490
07072:  MOVFF  35B,48F
07076:  MOVFF  35A,48E
0707A:  MOVFF  359,48D
0707E:  CALL   1CE4
07082:  MOVFF  03,32C
07086:  MOVFF  02,32B
0708A:  MOVFF  01,32A
0708E:  MOVFF  00,329
....................     
....................    if(error>1.0 && error<30 && Aumento<0.3){ 
07092:  MOVLB  4
07094:  CLRF   x7B
07096:  CLRF   x7A
07098:  CLRF   x79
0709A:  MOVLW  7F
0709C:  MOVWF  x78
0709E:  MOVFF  32C,47F
070A2:  MOVFF  32B,47E
070A6:  MOVFF  32A,47D
070AA:  MOVFF  329,47C
070AE:  MOVLB  0
070B0:  CALL   2D46
070B4:  BTFSS  FD8.0
070B6:  BRA    72E2
070B8:  MOVFF  32C,47B
070BC:  MOVFF  32B,47A
070C0:  MOVFF  32A,479
070C4:  MOVFF  329,478
070C8:  MOVLB  4
070CA:  CLRF   x7F
070CC:  CLRF   x7E
070CE:  MOVLW  70
070D0:  MOVWF  x7D
070D2:  MOVLW  83
070D4:  MOVWF  x7C
070D6:  MOVLB  0
070D8:  CALL   2D46
070DC:  BTFSS  FD8.0
070DE:  BRA    72E2
070E0:  MOVFF  2FE,47B
070E4:  MOVFF  2FD,47A
070E8:  MOVFF  2FC,479
070EC:  MOVFF  2FB,478
070F0:  MOVLW  9A
070F2:  MOVLB  4
070F4:  MOVWF  x7F
070F6:  MOVLW  99
070F8:  MOVWF  x7E
070FA:  MOVLW  19
070FC:  MOVWF  x7D
070FE:  MOVLW  7D
07100:  MOVWF  x7C
07102:  MOVLB  0
07104:  CALL   2D46
07108:  BTFSS  FD8.0
0710A:  BRA    72E2
....................       if(Tpulso<6.0){ 
0710C:  MOVFF  328,47B
07110:  MOVFF  327,47A
07114:  MOVFF  326,479
07118:  MOVFF  325,478
0711C:  MOVLB  4
0711E:  CLRF   x7F
07120:  CLRF   x7E
07122:  MOVLW  40
07124:  MOVWF  x7D
07126:  MOVLW  81
07128:  MOVWF  x7C
0712A:  MOVLB  0
0712C:  CALL   2D46
07130:  BTFSS  FD8.0
07132:  BRA    72DE
....................          flagTC=1; 
07134:  MOVLB  3
07136:  BSF    x84.4
....................          if(TiempoControl>=Derivativo){ 
07138:  MOVF   x6E,W
0713A:  SUBWF  xC0,W
0713C:  BTFSS  FD8.0
0713E:  BRA    72DA
....................             TiempoControl=0; 
07140:  CLRF   xC0
....................             if(Aumento<-0.5){ 
07142:  MOVFF  2FE,47B
07146:  MOVFF  2FD,47A
0714A:  MOVFF  2FC,479
0714E:  MOVFF  2FB,478
07152:  MOVLB  4
07154:  CLRF   x7F
07156:  CLRF   x7E
07158:  MOVLW  80
0715A:  MOVWF  x7D
0715C:  MOVLW  7E
0715E:  MOVWF  x7C
07160:  MOVLB  0
07162:  CALL   2D46
07166:  BNC   71D8
....................                Ganancia+=Integral+0.2; 
07168:  MOVLB  4
0716A:  CLRF   x8A
0716C:  MOVFF  36D,489
07170:  MOVLB  0
07172:  CALL   1B50
07176:  BCF    FD8.1
07178:  MOVFF  03,48C
0717C:  MOVFF  02,48B
07180:  MOVFF  01,48A
07184:  MOVFF  00,489
07188:  MOVLW  CD
0718A:  MOVLB  4
0718C:  MOVWF  x90
0718E:  MOVLW  CC
07190:  MOVWF  x8F
07192:  MOVLW  4C
07194:  MOVWF  x8E
07196:  MOVLW  7C
07198:  MOVWF  x8D
0719A:  MOVLB  0
0719C:  CALL   1CE4
071A0:  BCF    FD8.1
071A2:  MOVFF  33C,48C
071A6:  MOVFF  33B,48B
071AA:  MOVFF  33A,48A
071AE:  MOVFF  339,489
071B2:  MOVFF  03,490
071B6:  MOVFF  02,48F
071BA:  MOVFF  01,48E
071BE:  MOVFF  00,48D
071C2:  CALL   1CE4
071C6:  MOVFF  03,33C
071CA:  MOVFF  02,33B
071CE:  MOVFF  01,33A
071D2:  MOVFF  00,339
....................             }else{ 
071D6:  BRA    72D8
....................                if(Aumento<-0.1){ 
071D8:  MOVFF  2FE,47B
071DC:  MOVFF  2FD,47A
071E0:  MOVFF  2FC,479
071E4:  MOVFF  2FB,478
071E8:  MOVLW  CD
071EA:  MOVLB  4
071EC:  MOVWF  x7F
071EE:  MOVLW  CC
071F0:  MOVWF  x7E
071F2:  MOVWF  x7D
071F4:  MOVLW  7B
071F6:  MOVWF  x7C
071F8:  MOVLB  0
071FA:  CALL   2D46
071FE:  BNC   7270
....................                   Ganancia+=Integral-0.2; 
07200:  MOVLB  4
07202:  CLRF   x8A
07204:  MOVFF  36D,489
07208:  MOVLB  0
0720A:  CALL   1B50
0720E:  BSF    FD8.1
07210:  MOVFF  03,48C
07214:  MOVFF  02,48B
07218:  MOVFF  01,48A
0721C:  MOVFF  00,489
07220:  MOVLW  CD
07222:  MOVLB  4
07224:  MOVWF  x90
07226:  MOVLW  CC
07228:  MOVWF  x8F
0722A:  MOVLW  4C
0722C:  MOVWF  x8E
0722E:  MOVLW  7C
07230:  MOVWF  x8D
07232:  MOVLB  0
07234:  CALL   1CE4
07238:  BCF    FD8.1
0723A:  MOVFF  33C,48C
0723E:  MOVFF  33B,48B
07242:  MOVFF  33A,48A
07246:  MOVFF  339,489
0724A:  MOVFF  03,490
0724E:  MOVFF  02,48F
07252:  MOVFF  01,48E
07256:  MOVFF  00,48D
0725A:  CALL   1CE4
0725E:  MOVFF  03,33C
07262:  MOVFF  02,33B
07266:  MOVFF  01,33A
0726A:  MOVFF  00,339
....................                }else{ 
0726E:  BRA    72D8
....................                   Ganancia+=Integral-0.5; 
07270:  MOVLB  4
07272:  CLRF   x8A
07274:  MOVFF  36D,489
07278:  MOVLB  0
0727A:  CALL   1B50
0727E:  BSF    FD8.1
07280:  MOVFF  03,48C
07284:  MOVFF  02,48B
07288:  MOVFF  01,48A
0728C:  MOVFF  00,489
07290:  MOVLB  4
07292:  CLRF   x90
07294:  CLRF   x8F
07296:  CLRF   x8E
07298:  MOVLW  7E
0729A:  MOVWF  x8D
0729C:  MOVLB  0
0729E:  CALL   1CE4
072A2:  BCF    FD8.1
072A4:  MOVFF  33C,48C
072A8:  MOVFF  33B,48B
072AC:  MOVFF  33A,48A
072B0:  MOVFF  339,489
072B4:  MOVFF  03,490
072B8:  MOVFF  02,48F
072BC:  MOVFF  01,48E
072C0:  MOVFF  00,48D
072C4:  CALL   1CE4
072C8:  MOVFF  03,33C
072CC:  MOVFF  02,33B
072D0:  MOVFF  01,33A
072D4:  MOVFF  00,339
072D8:  MOVLB  3
....................                } 
....................             } 
....................          } 
....................       }else{ 
072DA:  BRA    72E2
072DC:  MOVLB  0
....................          flagTC=0; 
072DE:  MOVLB  3
072E0:  BCF    x84.4
....................       } 
....................    } 
....................     
....................    if(error<-0.3) 
072E2:  MOVFF  32C,47B
072E6:  MOVFF  32B,47A
072EA:  MOVFF  32A,479
072EE:  MOVFF  329,478
072F2:  MOVLW  9A
072F4:  MOVLB  4
072F6:  MOVWF  x7F
072F8:  MOVLW  99
072FA:  MOVWF  x7E
072FC:  MOVWF  x7D
072FE:  MOVLW  7D
07300:  MOVWF  x7C
07302:  MOVLB  0
07304:  CALL   2D46
07308:  BNC   731A
....................       Ganancia=Ganancia2; 
0730A:  MOVFF  340,33C
0730E:  MOVFF  33F,33B
07312:  MOVFF  33E,33A
07316:  MOVFF  33D,339
....................     
....................    if(Ganancia<1) 
0731A:  MOVFF  33C,47B
0731E:  MOVFF  33B,47A
07322:  MOVFF  33A,479
07326:  MOVFF  339,478
0732A:  MOVLB  4
0732C:  CLRF   x7F
0732E:  CLRF   x7E
07330:  CLRF   x7D
07332:  MOVLW  7F
07334:  MOVWF  x7C
07336:  MOVLB  0
07338:  CALL   2D46
0733C:  BNC   734A
....................       Ganancia=1; 
0733E:  MOVLB  3
07340:  CLRF   x3C
07342:  CLRF   x3B
07344:  CLRF   x3A
07346:  MOVLW  7F
07348:  MOVWF  x39
....................        
....................    if(error<0.0)     // Anti Wind_DOWN     
0734A:  MOVFF  32C,47B
0734E:  MOVFF  32B,47A
07352:  MOVFF  32A,479
07356:  MOVFF  329,478
0735A:  MOVLB  4
0735C:  CLRF   x7F
0735E:  CLRF   x7E
07360:  CLRF   x7D
07362:  CLRF   x7C
07364:  MOVLB  0
07366:  CALL   2D46
0736A:  BNC   7378
....................       error=0.0; 
0736C:  MOVLB  3
0736E:  CLRF   x2C
07370:  CLRF   x2B
07372:  CLRF   x2A
07374:  CLRF   x29
07376:  MOVLB  0
....................     
....................    //tmp=(Setpoint-Prom)*Ganancia;  // Control Proporcional. 
....................    tmp=error*Ganancia;  // Control Proporcional. 
07378:  MOVFF  32C,490
0737C:  MOVFF  32B,48F
07380:  MOVFF  32A,48E
07384:  MOVFF  329,48D
07388:  MOVFF  33C,494
0738C:  MOVFF  33B,493
07390:  MOVFF  33A,492
07394:  MOVFF  339,491
07398:  CALL   3A0C
0739C:  MOVFF  03,338
073A0:  MOVFF  02,337
073A4:  MOVFF  01,336
073A8:  MOVFF  00,335
....................           
....................    if(tmp>Setpoint)   // Anti Wind-UP       
073AC:  MOVLB  4
073AE:  CLRF   x8A
073B0:  MOVFF  396,489
073B4:  MOVLB  0
073B6:  CALL   1B50
073BA:  MOVFF  03,47B
073BE:  MOVFF  02,47A
073C2:  MOVFF  01,479
073C6:  MOVFF  00,478
073CA:  MOVFF  338,47F
073CE:  MOVFF  337,47E
073D2:  MOVFF  336,47D
073D6:  MOVFF  335,47C
073DA:  CALL   2D46
073DE:  BNC   73FE
....................       tmp=Setpoint; 
073E0:  MOVLB  4
073E2:  CLRF   x8A
073E4:  MOVFF  396,489
073E8:  MOVLB  0
073EA:  CALL   1B50
073EE:  MOVFF  03,338
073F2:  MOVFF  02,337
073F6:  MOVFF  01,336
073FA:  MOVFF  00,335
....................                   
....................    if(tmp<0.0)     // Anti Wind_DOWN     
073FE:  MOVFF  338,47B
07402:  MOVFF  337,47A
07406:  MOVFF  336,479
0740A:  MOVFF  335,478
0740E:  MOVLB  4
07410:  CLRF   x7F
07412:  CLRF   x7E
07414:  CLRF   x7D
07416:  CLRF   x7C
07418:  MOVLB  0
0741A:  CALL   2D46
0741E:  BNC   742A
....................       tmp=0.0; 
07420:  MOVLB  3
07422:  CLRF   x38
07424:  CLRF   x37
07426:  CLRF   x36
07428:  CLRF   x35
....................     
....................    // Tpulso(t)= Tciclo*(y(t)-ymin)/(ymax - ymin); calculo de ciclo util para control de resistencia.ymax=140.ymin=0; 
....................    // Tpulso es float, hay que pasar ese ciclo a una salida de un puerto usando el TMR1. 
....................    tmp2=(tmp/Setpoint); 
0742A:  MOVLB  4
0742C:  CLRF   x8A
0742E:  MOVFF  396,489
07432:  MOVLB  0
07434:  CALL   1B50
07438:  MOVFF  338,480
0743C:  MOVFF  337,47F
07440:  MOVFF  336,47E
07444:  MOVFF  335,47D
07448:  MOVFF  03,484
0744C:  MOVFF  02,483
07450:  MOVFF  01,482
07454:  MOVFF  00,481
07458:  CALL   1B86
0745C:  MOVFF  03,348
07460:  MOVFF  02,347
07464:  MOVFF  01,346
07468:  MOVFF  00,345
....................    //if(tmp2>0.8) 
....................    //tmp2=0.8; 
....................    Tpulso=tmp2*Tciclo;   
0746C:  MOVFF  348,490
07470:  MOVFF  347,48F
07474:  MOVFF  346,48E
07478:  MOVFF  345,48D
0747C:  MOVFF  324,494
07480:  MOVFF  323,493
07484:  MOVFF  322,492
07488:  MOVFF  321,491
0748C:  CALL   3A0C
07490:  MOVFF  03,328
07494:  MOVFF  02,327
07498:  MOVFF  01,326
0749C:  MOVFF  00,325
....................                                        
....................    Tp=(Tpulso/0.005); 
074A0:  MOVFF  328,480
074A4:  MOVFF  327,47F
074A8:  MOVFF  326,47E
074AC:  MOVFF  325,47D
074B0:  MOVLW  0A
074B2:  MOVLB  4
074B4:  MOVWF  x84
074B6:  MOVLW  D7
074B8:  MOVWF  x83
074BA:  MOVLW  23
074BC:  MOVWF  x82
074BE:  MOVLW  77
074C0:  MOVWF  x81
074C2:  MOVLB  0
074C4:  CALL   1B86
074C8:  MOVFF  03,48C
074CC:  MOVFF  02,48B
074D0:  MOVFF  01,48A
074D4:  MOVFF  00,489
074D8:  CALL   4144
074DC:  MOVFF  02,DC
074E0:  MOVFF  01,DB
....................    Tc=(Tciclo/0.005); 
074E4:  MOVFF  324,480
074E8:  MOVFF  323,47F
074EC:  MOVFF  322,47E
074F0:  MOVFF  321,47D
074F4:  MOVLW  0A
074F6:  MOVLB  4
074F8:  MOVWF  x84
074FA:  MOVLW  D7
074FC:  MOVWF  x83
074FE:  MOVLW  23
07500:  MOVWF  x82
07502:  MOVLW  77
07504:  MOVWF  x81
07506:  MOVLB  0
07508:  CALL   1B86
0750C:  MOVFF  03,48C
07510:  MOVFF  02,48B
07514:  MOVFF  01,48A
07518:  MOVFF  00,489
0751C:  CALL   4144
07520:  MOVFF  02,DE
07524:  MOVFF  01,DD
....................    Controlando=1;    
07528:  MOVLW  01
0752A:  MOVLB  3
0752C:  MOVWF  x87
.................... //--------------------------------------------------------------------------------------------------------------------//    
.................... } 
0752E:  MOVLB  0
07530:  RETLW  00
....................  
.................... void ControlaPresion(){ 
....................    float prc=0.0;    
....................    if(tiemporecta>=Derivativo/2.0){ 
....................       ActualizaRectaPresion(); 
....................       tiemporecta=0; 
....................    }  
....................    prc=(float)PresionCamara; 
....................    Tactual=((prc)*(prc)*(prc)*p1)+((prc)*(prc)*p2)+(p3*prc)+p4; 
.................... //-------------------------------Control de Calentamiento------------------------------------------------------------//          
....................    if(Esterilizando){ 
....................       error=desvio+Setpoint-Tactual;      // Clculo del error ****** 
....................    }else{ 
....................       error=desvio+1.0+Setpoint-Tactual;      // Clculo del error ****** 
....................    } 
....................     
....................    if(error>1.0 && error<20 && Aumento2<0.3){ 
....................       if(Tpulso<=6.0){ 
....................          flagTC=1; 
....................          if(TiempoControl>=Derivativo){ 
....................             TiempoControl=0; 
....................             if(Aumento2<-0.5){ 
....................                Ganancia+=Integral+0.2; 
....................             }else{ 
....................                if(Aumento2<-0.1){ 
....................                   Ganancia+=Integral-0.2; 
....................                }else{ 
....................                   Ganancia+=Integral-0.5; 
....................                } 
....................             } 
....................          } 
....................       }else{ 
....................          flagTC=0; 
....................       } 
....................    } 
....................     
....................    if(error<-0.3) 
....................       Ganancia=Ganancia2; 
....................     
....................    if(Ganancia<1) 
....................       Ganancia=1; 
....................     
....................    if(error<0.0)     // Anti Wind_DOWN     
....................       error=0.0; 
....................    //tmp=(Setpoint-Prom)*Ganancia;  // Control Proporcional. 
....................    tmp=error*Ganancia;  // Control Proporcional. 
....................           
....................    if(tmp>Setpoint)   // Anti Wind-UP       
....................       tmp=Setpoint; 
....................                 
....................    if(tmp<0.0)     // Anti Wind_DOWN     
....................       tmp=0.0; 
....................     
....................    // Tpulso(t)= Tciclo*(y(t)-ymin)/(ymax - ymin); calculo de ciclo util para control de resistencia.ymax=140.ymin=0; 
....................    // Tpulso es float, hay que pasar ese ciclo a una salida de un puerto usando el TMR1. 
....................    tmp2=(tmp/Setpoint); 
....................    //if(tmp2>0.8) 
....................    //tmp2=0.8; 
....................    Tpulso=tmp2*Tciclo;   
....................                                        
....................    Tp=(Tpulso/0.005); 
....................    Tc=(Tciclo/0.005); 
....................    Controlando=1;    
.................... //--------------------------------------------------------------------------------------------------------------------//    
.................... } 
....................  
....................  
.................... void Envio_I2C(direccion,int16 posicion2, dato){ 
....................  
....................    i2c_start();            // Comienzo comunicacin 
*
046D0:  BSF    F94.4
046D2:  MOVLW  05
046D4:  MOVWF  00
046D6:  DECFSZ 00,F
046D8:  BRA    46D6
046DA:  BSF    F94.3
046DC:  MOVLW  06
046DE:  MOVWF  00
046E0:  DECFSZ 00,F
046E2:  BRA    46E0
046E4:  BCF    F8B.4
046E6:  BCF    F94.4
046E8:  MOVLW  05
046EA:  MOVWF  00
046EC:  DECFSZ 00,F
046EE:  BRA    46EC
046F0:  BCF    F8B.3
046F2:  BCF    F94.3
....................    i2c_write(direccion);   // Direccin del esclavo en el bus I2C 
046F4:  MOVFF  48A,495
046F8:  RCALL  465A
....................    i2c_write(make8(posicion2,0));    // Posicin donde se guardara el dato transmitido 
046FA:  MOVFF  48B,48E
046FE:  MOVFF  48B,495
04702:  RCALL  465A
....................    i2c_write(make8(posicion2,1)); 
04704:  MOVFF  48C,48E
04708:  MOVFF  48C,495
0470C:  RCALL  465A
....................    i2c_write(dato);        // Dato a transmitir 
0470E:  MOVFF  48D,495
04712:  RCALL  465A
....................    i2c_stop();             // Fin comunicacin 
04714:  BCF    F94.4
04716:  NOP   
04718:  BSF    F94.3
0471A:  BTFSS  F82.3
0471C:  BRA    471A
0471E:  MOVLW  05
04720:  MOVWF  00
04722:  DECFSZ 00,F
04724:  BRA    4722
04726:  BRA    4728
04728:  NOP   
0472A:  BSF    F94.4
0472C:  MOVLW  05
0472E:  MOVWF  00
04730:  DECFSZ 00,F
04732:  BRA    4730
....................  } 
04734:  GOTO   4772 (RETURN)
....................  
.................... void Lectura_I2C (byte direccion, byte posicion, byte &dato) { 
....................  
....................    i2c_start();            // Comienzo de la comunicacin 
....................    i2c_write(direccion);   // Direccin del esclavo en el bus I2C 
....................    i2c_write(posicion);    // Posicin de donde se leer el dato en el esclavo 
....................    i2c_start();            // Reinicio 
....................    i2c_write(direccion+1); // Direccin del esclavo en modo lectura 
....................    dato=i2c_read(0);       // Lectura del dato 
....................    i2c_stop();             // Fin comunicacin 
.................... } 
....................  
.................... void Carga_Vector(void){ 
....................    SlaveA0Tx[0]=(int8)Temperatura; 
*
04510:  MOVFF  35C,48C
04514:  MOVFF  35B,48B
04518:  MOVFF  35A,48A
0451C:  MOVFF  359,489
04520:  RCALL  4144
04522:  MOVFF  01,8C
....................    SlaveA0Tx[1]=(Temperatura-((int8)Temperatura))*10; 
04526:  MOVFF  35C,48C
0452A:  MOVFF  35B,48B
0452E:  MOVFF  35A,48A
04532:  MOVFF  359,489
04536:  RCALL  4144
04538:  MOVLB  4
0453A:  CLRF   x8A
0453C:  MOVFF  01,489
04540:  MOVLB  0
04542:  CALL   1B50
04546:  BSF    FD8.1
04548:  MOVFF  35C,48C
0454C:  MOVFF  35B,48B
04550:  MOVFF  35A,48A
04554:  MOVFF  359,489
04558:  MOVFF  03,490
0455C:  MOVFF  02,48F
04560:  MOVFF  01,48E
04564:  MOVFF  00,48D
04568:  CALL   1CE4
0456C:  MOVFF  00,489
04570:  MOVFF  01,48A
04574:  MOVFF  02,48B
04578:  MOVFF  03,48C
0457C:  MOVFF  03,490
04580:  MOVFF  02,48F
04584:  MOVFF  01,48E
04588:  MOVFF  00,48D
0458C:  MOVLB  4
0458E:  CLRF   x94
04590:  CLRF   x93
04592:  MOVLW  20
04594:  MOVWF  x92
04596:  MOVLW  82
04598:  MOVWF  x91
0459A:  MOVLB  0
0459C:  CALL   3A0C
045A0:  MOVFF  03,48C
045A4:  MOVFF  02,48B
045A8:  MOVFF  01,48A
045AC:  MOVFF  00,489
045B0:  RCALL  4144
045B2:  MOVFF  01,8D
....................    SlaveA0Tx[2]=make8((int16)PresionCamara,0); 
045B6:  MOVFF  3A8,8E
045BA:  MOVLB  0
....................    SlaveA0Tx[3]=make8((int16)PresionCamara,1); 
045BC:  MOVFF  3A9,8F
045C0:  MOVLB  0
....................    SlaveA0Tx[4]=make8((int16)PresionPreCamara,0); 
045C2:  MOVFF  3AA,90
045C6:  MOVLB  0
....................    SlaveA0Tx[5]=make8((int16)PresionPreCamara,1); 
045C8:  MOVFF  3AB,91
045CC:  MOVLB  0
....................    SlaveA0Tx[6]=(int8)Tpulso*10; 
045CE:  MOVFF  328,48C
045D2:  MOVFF  327,48B
045D6:  MOVFF  326,48A
045DA:  MOVFF  325,489
045DE:  RCALL  4144
045E0:  MOVF   01,W
045E2:  MULLW  0A
045E4:  MOVFF  FF3,92
....................    //SlaveA0Tx[7]=HIG; 
....................    SlaveA0Tx[8]=LOW; 
045E8:  CLRF   x94
045EA:  BTFSC  xD1.1
045EC:  INCF   x94,F
....................    SlaveA0Tx[9]=TERM; 
045EE:  BSF    F93.4
045F0:  CLRF   x95
045F2:  BTFSS  F81.4
045F4:  INCF   x95,F
....................    SlaveA0Tx[10]=DOOR; 
045F6:  BSF    F93.6
045F8:  CLRF   x96
045FA:  BTFSS  F81.6
045FC:  INCF   x96,F
....................    SlaveA0Tx[11]=STOP; 
045FE:  BSF    F93.5
04600:  CLRF   x97
04602:  BTFSS  F81.5
04604:  INCF   x97,F
....................    SlaveA0Tx[12]=(int8)error; 
04606:  MOVFF  32C,48C
0460A:  MOVFF  32B,48B
0460E:  MOVFF  32A,48A
04612:  MOVFF  329,489
04616:  RCALL  4144
04618:  MOVFF  01,98
....................    SlaveA0Tx[13]=CicloSeleccionado; 
0461C:  MOVFF  395,99
....................    SlaveA0Tx[14]=SetTime; 
04620:  MOVFF  3E1,9A
....................    SlaveA0Tx[15]=DiaTx; 
04624:  MOVFF  3DC,9B
....................    SlaveA0Tx[16]=MesTx; 
04628:  MOVFF  3DB,9C
....................    SlaveA0Tx[17]=YearTx; 
0462C:  MOVFF  3DA,9D
....................    SlaveA0Tx[18]=HoraTx; 
04630:  MOVFF  3DD,9E
....................    SlaveA0Tx[19]=MinutoTx; 
04634:  MOVFF  3DE,9F
....................    SlaveA0Tx[20]=SegundoTx; 
04638:  MOVFF  3DF,A0
....................    SlaveA0Tx[21]=Imprime; 
0463C:  MOVFF  3E2,A1
....................    SlaveA0Tx[22]=make8(Ciclos,0); 
04640:  MOVFF  3AC,A2
04644:  MOVLB  0
....................    SlaveA0Tx[23]=make8(Ciclos,1); 
04646:  MOVFF  3AD,A3
0464A:  MOVLB  0
....................    SlaveA0Tx[24]=EstadoBuzzer; 
0464C:  CLRF   xA4
0464E:  BTFSC  xD3.2
04650:  INCF   xA4,F
....................    SlaveA0Tx[25]=codigoAlarma; 
04652:  MOVFF  315,A5
.................... } 
04656:  GOTO   473A (RETURN)
....................  
.................... void Lee_Vector(void){ 
....................    //Dia=txbuf[0]; 
....................    if(txbuf[8]==44){  
*
047E6:  MOVF   x6C,W
047E8:  SUBLW  2C
047EA:  BNZ   4808
....................       Mes=txbuf[1]; 
047EC:  MOVFF  65,3D0
....................       Year=txbuf[2]; 
047F0:  MOVFF  66,3CF
....................       Hora=txbuf[3]; 
047F4:  MOVFF  67,3D2
....................       Minuto=txbuf[4]; 
047F8:  MOVFF  68,3D3
....................       Segundo=txbuf[5]; 
047FC:  MOVFF  69,3D4
....................       dow=txbuf[6]; 
04800:  MOVFF  6A,3D5
....................       Dia=txbuf[7]; 
04804:  MOVFF  6B,3D1
....................    } 
.................... } 
04808:  GOTO   48D2 (RETURN)
....................  
.................... void Envio_Esclavos(void){ 
....................    Carga_Vector(); 
*
04738:  BRA    4510
....................    for(i=0;i<26;i++){ 
0473A:  MOVLB  3
0473C:  CLRF   x92
0473E:  MOVF   x92,W
04740:  SUBLW  19
04742:  BNC   4778
....................       direccion=0xC0; 
04744:  MOVLW  C0
04746:  MOVLB  0
04748:  MOVWF  xB5
....................       Envio_I2C(direccion,i,SlaveA0Tx[i]); 
0474A:  CLRF   03
0474C:  MOVLB  3
0474E:  MOVF   x92,W
04750:  ADDLW  8C
04752:  MOVWF  FE9
04754:  MOVLW  00
04756:  ADDWFC 03,W
04758:  MOVWF  FEA
0475A:  MOVFF  FEF,489
0475E:  MOVFF  B5,48A
04762:  MOVLB  4
04764:  CLRF   x8C
04766:  MOVFF  392,48B
0476A:  MOVFF  489,48D
0476E:  MOVLB  0
04770:  BRA    46D0
....................    }  
04772:  MOVLB  3
04774:  INCF   x92,F
04776:  BRA    473E
.................... } 
04778:  MOVLB  0
0477A:  RETLW  00
....................  
.................... void Lectura_Esclavos(void){ 
....................    for(i=0;i<9;i++){ 
*
0480C:  MOVLB  3
0480E:  CLRF   x92
04810:  MOVF   x92,W
04812:  SUBLW  08
04814:  BNC   48CE
....................       direccion=0xC0;                        //Direccin en el bus I2c 
04816:  MOVLW  C0
04818:  MOVLB  0
0481A:  MOVWF  xB5
....................       posicion=i;                         //Posicin de memoria a leer 
0481C:  MOVFF  392,B6
....................       //Lectura_I2C(direccion, posicion, dato);    //Lectura por I2C 
....................       i2c_start();            // Comienzo de la comunicacin 
04820:  BSF    F94.4
04822:  MOVLW  05
04824:  MOVWF  00
04826:  DECFSZ 00,F
04828:  BRA    4826
0482A:  BSF    F94.3
0482C:  MOVLW  06
0482E:  MOVWF  00
04830:  DECFSZ 00,F
04832:  BRA    4830
04834:  BCF    F8B.4
04836:  BCF    F94.4
04838:  MOVLW  05
0483A:  MOVWF  00
0483C:  DECFSZ 00,F
0483E:  BRA    483C
04840:  BCF    F8B.3
04842:  BCF    F94.3
....................       i2c_write(direccion);   // Direccin del esclavo en el bus I2C 
04844:  MOVFF  B5,495
04848:  RCALL  465A
....................       i2c_write(i);    // Posicin de donde se leer el dato en el esclavo 
0484A:  MOVFF  392,495
0484E:  RCALL  465A
....................       i2c_write(0);    // Posicin de donde se leer el dato en el esclavo 
04850:  MOVLB  4
04852:  CLRF   x95
04854:  MOVLB  0
04856:  RCALL  465A
....................       i2c_start();            // Reinicio 
04858:  BSF    F94.4
0485A:  MOVLW  05
0485C:  MOVWF  00
0485E:  DECFSZ 00,F
04860:  BRA    485E
04862:  BSF    F94.3
04864:  MOVLW  06
04866:  MOVWF  00
04868:  DECFSZ 00,F
0486A:  BRA    4868
0486C:  BTFSS  F82.3
0486E:  BRA    486C
04870:  BCF    F8B.4
04872:  BCF    F94.4
04874:  MOVLW  05
04876:  MOVWF  00
04878:  DECFSZ 00,F
0487A:  BRA    4878
0487C:  BCF    F8B.3
0487E:  BCF    F94.3
....................       i2c_write(direccion+1); // Direccin del esclavo en modo lectura 
04880:  MOVLW  01
04882:  ADDWF  xB5,W
04884:  MOVLB  4
04886:  MOVWF  x74
04888:  MOVWF  x95
0488A:  MOVLB  0
0488C:  RCALL  465A
....................       dato=i2c_read(0);       // Lectura del dato 
0488E:  CLRF   00
04890:  RCALL  477C
04892:  MOVFF  01,B4
....................       i2c_stop();   
04896:  BCF    F94.4
04898:  NOP   
0489A:  BSF    F94.3
0489C:  BTFSS  F82.3
0489E:  BRA    489C
048A0:  MOVLW  05
048A2:  MOVWF  00
048A4:  DECFSZ 00,F
048A6:  BRA    48A4
048A8:  BRA    48AA
048AA:  NOP   
048AC:  BSF    F94.4
048AE:  MOVLW  05
048B0:  MOVWF  00
048B2:  DECFSZ 00,F
048B4:  BRA    48B2
....................       txbuf[i]=(int8)dato; 
048B6:  CLRF   03
048B8:  MOVLB  3
048BA:  MOVF   x92,W
048BC:  ADDLW  64
048BE:  MOVWF  FE9
048C0:  MOVLW  00
048C2:  ADDWFC 03,W
048C4:  MOVWF  FEA
048C6:  MOVFF  B4,FEF
....................    } 
048CA:  INCF   x92,F
048CC:  BRA    4810
....................    Lee_Vector(); 
048CE:  MOVLB  0
048D0:  BRA    47E6
.................... } 
048D2:  GOTO   8090 (RETURN)
....................  
.................... void LeeEEPROM(){ 
.................... //Lectura EEPROM//-------------------------- 
....................    Testerilizacionp[0]=read_eeprom(0); 
*
01F5C:  MOVFF  FF2,474
01F60:  BCF    FF2.6
01F62:  BCF    FF2.7
01F64:  CLRF   FAA
01F66:  CLRF   FA9
01F68:  BCF    FA6.6
01F6A:  BCF    FA6.7
01F6C:  BSF    FA6.0
01F6E:  MOVF   FA8,W
01F70:  MOVLB  4
01F72:  BTFSC  x74.6
01F74:  BSF    FF2.6
01F76:  BTFSC  x74.7
01F78:  BSF    FF2.7
01F7A:  MOVLB  0
01F7C:  MOVWF  xE6
....................    delay_ms(10); 
01F7E:  MOVLW  0A
01F80:  MOVLB  4
01F82:  MOVWF  x8D
01F84:  MOVLB  0
01F86:  RCALL  1B28
....................    Testerilizacionp[1]=read_eeprom(1); 
01F88:  MOVFF  FF2,474
01F8C:  BCF    FF2.6
01F8E:  BCF    FF2.7
01F90:  CLRF   FAA
01F92:  MOVLW  01
01F94:  MOVWF  FA9
01F96:  BCF    FA6.6
01F98:  BCF    FA6.7
01F9A:  BSF    FA6.0
01F9C:  MOVF   FA8,W
01F9E:  MOVLB  4
01FA0:  BTFSC  x74.6
01FA2:  BSF    FF2.6
01FA4:  BTFSC  x74.7
01FA6:  BSF    FF2.7
01FA8:  MOVLB  0
01FAA:  MOVWF  xE7
....................    delay_ms(10); 
01FAC:  MOVLW  0A
01FAE:  MOVLB  4
01FB0:  MOVWF  x8D
01FB2:  MOVLB  0
01FB4:  RCALL  1B28
....................    Testerilizacionp[2]=read_eeprom(2); 
01FB6:  MOVFF  FF2,474
01FBA:  BCF    FF2.6
01FBC:  BCF    FF2.7
01FBE:  CLRF   FAA
01FC0:  MOVLW  02
01FC2:  MOVWF  FA9
01FC4:  BCF    FA6.6
01FC6:  BCF    FA6.7
01FC8:  BSF    FA6.0
01FCA:  MOVF   FA8,W
01FCC:  MOVLB  4
01FCE:  BTFSC  x74.6
01FD0:  BSF    FF2.6
01FD2:  BTFSC  x74.7
01FD4:  BSF    FF2.7
01FD6:  MOVLB  0
01FD8:  MOVWF  xE8
....................    delay_ms(10); 
01FDA:  MOVLW  0A
01FDC:  MOVLB  4
01FDE:  MOVWF  x8D
01FE0:  MOVLB  0
01FE2:  RCALL  1B28
....................    Testerilizacionp[3]=read_eeprom(3); 
01FE4:  MOVFF  FF2,474
01FE8:  BCF    FF2.6
01FEA:  BCF    FF2.7
01FEC:  CLRF   FAA
01FEE:  MOVLW  03
01FF0:  MOVWF  FA9
01FF2:  BCF    FA6.6
01FF4:  BCF    FA6.7
01FF6:  BSF    FA6.0
01FF8:  MOVF   FA8,W
01FFA:  MOVLB  4
01FFC:  BTFSC  x74.6
01FFE:  BSF    FF2.6
02000:  BTFSC  x74.7
02002:  BSF    FF2.7
02004:  MOVLB  0
02006:  MOVWF  xE9
....................    delay_ms(10); 
02008:  MOVLW  0A
0200A:  MOVLB  4
0200C:  MOVWF  x8D
0200E:  MOVLB  0
02010:  RCALL  1B28
....................    Tsecadop[0]=read_eeprom(4); 
02012:  MOVFF  FF2,474
02016:  BCF    FF2.6
02018:  BCF    FF2.7
0201A:  CLRF   FAA
0201C:  MOVLW  04
0201E:  MOVWF  FA9
02020:  BCF    FA6.6
02022:  BCF    FA6.7
02024:  BSF    FA6.0
02026:  MOVF   FA8,W
02028:  MOVLB  4
0202A:  BTFSC  x74.6
0202C:  BSF    FF2.6
0202E:  BTFSC  x74.7
02030:  BSF    FF2.7
02032:  MOVLB  0
02034:  MOVWF  xEF
....................    delay_ms(10); 
02036:  MOVLW  0A
02038:  MOVLB  4
0203A:  MOVWF  x8D
0203C:  MOVLB  0
0203E:  RCALL  1B28
....................    Tsecadop[1]=read_eeprom(5); 
02040:  MOVFF  FF2,474
02044:  BCF    FF2.6
02046:  BCF    FF2.7
02048:  CLRF   FAA
0204A:  MOVLW  05
0204C:  MOVWF  FA9
0204E:  BCF    FA6.6
02050:  BCF    FA6.7
02052:  BSF    FA6.0
02054:  MOVF   FA8,W
02056:  MOVLB  4
02058:  BTFSC  x74.6
0205A:  BSF    FF2.6
0205C:  BTFSC  x74.7
0205E:  BSF    FF2.7
02060:  MOVLB  0
02062:  MOVWF  xF0
....................    delay_ms(10); 
02064:  MOVLW  0A
02066:  MOVLB  4
02068:  MOVWF  x8D
0206A:  MOVLB  0
0206C:  RCALL  1B28
....................    Tsecadop[2]=read_eeprom(6); 
0206E:  MOVFF  FF2,474
02072:  BCF    FF2.6
02074:  BCF    FF2.7
02076:  CLRF   FAA
02078:  MOVLW  06
0207A:  MOVWF  FA9
0207C:  BCF    FA6.6
0207E:  BCF    FA6.7
02080:  BSF    FA6.0
02082:  MOVF   FA8,W
02084:  MOVLB  4
02086:  BTFSC  x74.6
02088:  BSF    FF2.6
0208A:  BTFSC  x74.7
0208C:  BSF    FF2.7
0208E:  MOVLB  0
02090:  MOVWF  xF1
....................    delay_ms(10); 
02092:  MOVLW  0A
02094:  MOVLB  4
02096:  MOVWF  x8D
02098:  MOVLB  0
0209A:  RCALL  1B28
....................    Tsecadop[3]=read_eeprom(7); 
0209C:  MOVFF  FF2,474
020A0:  BCF    FF2.6
020A2:  BCF    FF2.7
020A4:  CLRF   FAA
020A6:  MOVLW  07
020A8:  MOVWF  FA9
020AA:  BCF    FA6.6
020AC:  BCF    FA6.7
020AE:  BSF    FA6.0
020B0:  MOVF   FA8,W
020B2:  MOVLB  4
020B4:  BTFSC  x74.6
020B6:  BSF    FF2.6
020B8:  BTFSC  x74.7
020BA:  BSF    FF2.7
020BC:  MOVLB  0
020BE:  MOVWF  xF2
....................    delay_ms(10); 
020C0:  MOVLW  0A
020C2:  MOVLB  4
020C4:  MOVWF  x8D
020C6:  MOVLB  0
020C8:  RCALL  1B28
....................    Setpoint=read_eeprom(8); 
020CA:  MOVFF  FF2,474
020CE:  BCF    FF2.6
020D0:  BCF    FF2.7
020D2:  CLRF   FAA
020D4:  MOVLW  08
020D6:  MOVWF  FA9
020D8:  BCF    FA6.6
020DA:  BCF    FA6.7
020DC:  BSF    FA6.0
020DE:  MOVF   FA8,W
020E0:  MOVLB  4
020E2:  BTFSC  x74.6
020E4:  BSF    FF2.6
020E6:  BTFSC  x74.7
020E8:  BSF    FF2.7
020EA:  MOVLB  3
020EC:  MOVWF  x96
....................    delay_ms(10); 
020EE:  MOVLW  0A
020F0:  MOVLB  4
020F2:  MOVWF  x8D
020F4:  MOVLB  0
020F6:  RCALL  1B28
....................    Nivel=read_eeprom(9); 
020F8:  MOVFF  FF2,474
020FC:  BCF    FF2.6
020FE:  BCF    FF2.7
02100:  CLRF   FAA
02102:  MOVLW  09
02104:  MOVWF  FA9
02106:  BCF    FA6.6
02108:  BCF    FA6.7
0210A:  BSF    FA6.0
0210C:  MOVF   FA8,W
0210E:  MOVLB  4
02110:  BTFSC  x74.6
02112:  BSF    FF2.6
02114:  BTFSC  x74.7
02116:  BSF    FF2.7
02118:  MOVLB  3
0211A:  CLRF   xA5
0211C:  MOVWF  xA4
....................    delay_ms(10); 
0211E:  MOVLW  0A
02120:  MOVLB  4
02122:  MOVWF  x8D
02124:  MOVLB  0
02126:  RCALL  1B28
....................    Password[0]=read_eeprom(10); 
02128:  MOVFF  FF2,474
0212C:  BCF    FF2.6
0212E:  BCF    FF2.7
02130:  CLRF   FAA
02132:  MOVLW  0A
02134:  MOVWF  FA9
02136:  BCF    FA6.6
02138:  BCF    FA6.7
0213A:  BSF    FA6.0
0213C:  MOVF   FA8,W
0213E:  MOVLB  4
02140:  BTFSC  x74.6
02142:  BSF    FF2.6
02144:  BTFSC  x74.7
02146:  BSF    FF2.7
02148:  MOVLB  3
0214A:  MOVWF  xB8
....................    delay_ms(10); 
0214C:  MOVLW  0A
0214E:  MOVLB  4
02150:  MOVWF  x8D
02152:  MOVLB  0
02154:  RCALL  1B28
....................    Password[1]=read_eeprom(11); 
02156:  MOVFF  FF2,474
0215A:  BCF    FF2.6
0215C:  BCF    FF2.7
0215E:  CLRF   FAA
02160:  MOVLW  0B
02162:  MOVWF  FA9
02164:  BCF    FA6.6
02166:  BCF    FA6.7
02168:  BSF    FA6.0
0216A:  MOVF   FA8,W
0216C:  MOVLB  4
0216E:  BTFSC  x74.6
02170:  BSF    FF2.6
02172:  BTFSC  x74.7
02174:  BSF    FF2.7
02176:  MOVLB  3
02178:  MOVWF  xB9
....................    delay_ms(10); 
0217A:  MOVLW  0A
0217C:  MOVLB  4
0217E:  MOVWF  x8D
02180:  MOVLB  0
02182:  RCALL  1B28
....................    Password[2]=read_eeprom(12); 
02184:  MOVFF  FF2,474
02188:  BCF    FF2.6
0218A:  BCF    FF2.7
0218C:  CLRF   FAA
0218E:  MOVLW  0C
02190:  MOVWF  FA9
02192:  BCF    FA6.6
02194:  BCF    FA6.7
02196:  BSF    FA6.0
02198:  MOVF   FA8,W
0219A:  MOVLB  4
0219C:  BTFSC  x74.6
0219E:  BSF    FF2.6
021A0:  BTFSC  x74.7
021A2:  BSF    FF2.7
021A4:  MOVLB  3
021A6:  MOVWF  xBA
....................    delay_ms(10); 
021A8:  MOVLW  0A
021AA:  MOVLB  4
021AC:  MOVWF  x8D
021AE:  MOVLB  0
021B0:  RCALL  1B28
....................    Password[3]=read_eeprom(13); 
021B2:  MOVFF  FF2,474
021B6:  BCF    FF2.6
021B8:  BCF    FF2.7
021BA:  CLRF   FAA
021BC:  MOVLW  0D
021BE:  MOVWF  FA9
021C0:  BCF    FA6.6
021C2:  BCF    FA6.7
021C4:  BSF    FA6.0
021C6:  MOVF   FA8,W
021C8:  MOVLB  4
021CA:  BTFSC  x74.6
021CC:  BSF    FF2.6
021CE:  BTFSC  x74.7
021D0:  BSF    FF2.7
021D2:  MOVLB  3
021D4:  MOVWF  xBB
....................    delay_ms(10); 
021D6:  MOVLW  0A
021D8:  MOVLB  4
021DA:  MOVWF  x8D
021DC:  MOVLB  0
021DE:  RCALL  1B28
....................    Ganancia=read_eeprom(20); 
021E0:  MOVFF  FF2,474
021E4:  BCF    FF2.6
021E6:  BCF    FF2.7
021E8:  CLRF   FAA
021EA:  MOVLW  14
021EC:  MOVWF  FA9
021EE:  BCF    FA6.6
021F0:  BCF    FA6.7
021F2:  BSF    FA6.0
021F4:  MOVF   FA8,W
021F6:  MOVLB  4
021F8:  BTFSC  x74.6
021FA:  BSF    FF2.6
021FC:  BTFSC  x74.7
021FE:  BSF    FF2.7
02200:  CLRF   x8A
02202:  MOVWF  x89
02204:  MOVLB  0
02206:  RCALL  1B50
02208:  MOVFF  03,33C
0220C:  MOVFF  02,33B
02210:  MOVFF  01,33A
02214:  MOVFF  00,339
....................    delay_ms(10); 
02218:  MOVLW  0A
0221A:  MOVLB  4
0221C:  MOVWF  x8D
0221E:  MOVLB  0
02220:  RCALL  1B28
....................    Ajuste=read_eeprom(21); 
02222:  MOVFF  FF2,474
02226:  BCF    FF2.6
02228:  BCF    FF2.7
0222A:  CLRF   FAA
0222C:  MOVLW  15
0222E:  MOVWF  FA9
02230:  BCF    FA6.6
02232:  BCF    FA6.7
02234:  BSF    FA6.0
02236:  MOVF   FA8,W
02238:  MOVLB  4
0223A:  BTFSC  x74.6
0223C:  BSF    FF2.6
0223E:  BTFSC  x74.7
02240:  BSF    FF2.7
02242:  MOVLB  3
02244:  MOVWF  x09
....................    delay_ms(10); 
02246:  MOVLW  0A
02248:  MOVLB  4
0224A:  MOVWF  x8D
0224C:  MOVLB  0
0224E:  RCALL  1B28
....................    Ajusten=read_eeprom(22); 
02250:  MOVFF  FF2,474
02254:  BCF    FF2.6
02256:  BCF    FF2.7
02258:  CLRF   FAA
0225A:  MOVLW  16
0225C:  MOVWF  FA9
0225E:  BCF    FA6.6
02260:  BCF    FA6.7
02262:  BSF    FA6.0
02264:  MOVF   FA8,W
02266:  MOVLB  4
02268:  BTFSC  x74.6
0226A:  BSF    FF2.6
0226C:  BTFSC  x74.7
0226E:  BSF    FF2.7
02270:  MOVLB  3
02272:  MOVWF  x0A
....................    delay_ms(10); 
02274:  MOVLW  0A
02276:  MOVLB  4
02278:  MOVWF  x8D
0227A:  MOVLB  0
0227C:  RCALL  1B28
....................    //Desvio=read_eeprom(23); 
....................    MediaMovil=read_eeprom(24); 
0227E:  MOVFF  FF2,474
02282:  BCF    FF2.6
02284:  BCF    FF2.7
02286:  CLRF   FAA
02288:  MOVLW  18
0228A:  MOVWF  FA9
0228C:  BCF    FA6.6
0228E:  BCF    FA6.7
02290:  BSF    FA6.0
02292:  MOVF   FA8,W
02294:  MOVLB  4
02296:  BTFSC  x74.6
02298:  BSF    FF2.6
0229A:  BTFSC  x74.7
0229C:  BSF    FF2.7
0229E:  MOVLB  3
022A0:  MOVWF  x0B
....................    delay_ms(10); 
022A2:  MOVLW  0A
022A4:  MOVLB  4
022A6:  MOVWF  x8D
022A8:  MOVLB  0
022AA:  RCALL  1B28
....................    Tciclo=read_eeprom(25); 
022AC:  MOVFF  FF2,474
022B0:  BCF    FF2.6
022B2:  BCF    FF2.7
022B4:  CLRF   FAA
022B6:  MOVLW  19
022B8:  MOVWF  FA9
022BA:  BCF    FA6.6
022BC:  BCF    FA6.7
022BE:  BSF    FA6.0
022C0:  MOVF   FA8,W
022C2:  MOVLB  4
022C4:  BTFSC  x74.6
022C6:  BSF    FF2.6
022C8:  BTFSC  x74.7
022CA:  BSF    FF2.7
022CC:  CLRF   x8A
022CE:  MOVWF  x89
022D0:  MOVLB  0
022D2:  RCALL  1B50
022D4:  MOVFF  03,324
022D8:  MOVFF  02,323
022DC:  MOVFF  01,322
022E0:  MOVFF  00,321
....................    delay_ms(10); 
022E4:  MOVLW  0A
022E6:  MOVLB  4
022E8:  MOVWF  x8D
022EA:  MOVLB  0
022EC:  RCALL  1B28
....................    Integral=read_eeprom(26); 
022EE:  MOVFF  FF2,474
022F2:  BCF    FF2.6
022F4:  BCF    FF2.7
022F6:  CLRF   FAA
022F8:  MOVLW  1A
022FA:  MOVWF  FA9
022FC:  BCF    FA6.6
022FE:  BCF    FA6.7
02300:  BSF    FA6.0
02302:  MOVF   FA8,W
02304:  MOVLB  4
02306:  BTFSC  x74.6
02308:  BSF    FF2.6
0230A:  BTFSC  x74.7
0230C:  BSF    FF2.7
0230E:  MOVLB  3
02310:  MOVWF  x6D
....................    delay_ms(10); 
02312:  MOVLW  0A
02314:  MOVLB  4
02316:  MOVWF  x8D
02318:  MOVLB  0
0231A:  RCALL  1B28
....................    Derivativo=read_eeprom(27); 
0231C:  MOVFF  FF2,474
02320:  BCF    FF2.6
02322:  BCF    FF2.7
02324:  CLRF   FAA
02326:  MOVLW  1B
02328:  MOVWF  FA9
0232A:  BCF    FA6.6
0232C:  BCF    FA6.7
0232E:  BSF    FA6.0
02330:  MOVF   FA8,W
02332:  MOVLB  4
02334:  BTFSC  x74.6
02336:  BSF    FF2.6
02338:  BTFSC  x74.7
0233A:  BSF    FF2.7
0233C:  MOVLB  3
0233E:  MOVWF  x6E
....................    delay_ms(10); 
02340:  MOVLW  0A
02342:  MOVLB  4
02344:  MOVWF  x8D
02346:  MOVLB  0
02348:  CALL   1B28
....................    Temporal=read_eeprom(29); 
0234C:  MOVFF  FF2,474
02350:  BCF    FF2.6
02352:  BCF    FF2.7
02354:  CLRF   FAA
02356:  MOVLW  1D
02358:  MOVWF  FA9
0235A:  BCF    FA6.6
0235C:  BCF    FA6.7
0235E:  BSF    FA6.0
02360:  MOVF   FA8,W
02362:  MOVLB  4
02364:  BTFSC  x74.6
02366:  BSF    FF2.6
02368:  BTFSC  x74.7
0236A:  BSF    FF2.7
0236C:  CLRF   x8A
0236E:  MOVWF  x89
02370:  MOVLB  0
02372:  CALL   1B50
02376:  MOVFF  03,2DE
0237A:  MOVFF  02,2DD
0237E:  MOVFF  01,2DC
02382:  MOVFF  00,2DB
....................    Temporal=Temporal/10.0; 
02386:  MOVFF  2DE,480
0238A:  MOVFF  2DD,47F
0238E:  MOVFF  2DC,47E
02392:  MOVFF  2DB,47D
02396:  MOVLB  4
02398:  CLRF   x84
0239A:  CLRF   x83
0239C:  MOVLW  20
0239E:  MOVWF  x82
023A0:  MOVLW  82
023A2:  MOVWF  x81
023A4:  MOVLB  0
023A6:  CALL   1B86
023AA:  MOVFF  03,2DE
023AE:  MOVFF  02,2DD
023B2:  MOVFF  01,2DC
023B6:  MOVFF  00,2DB
....................    delay_ms(10); 
023BA:  MOVLW  0A
023BC:  MOVLB  4
023BE:  MOVWF  x8D
023C0:  MOVLB  0
023C2:  CALL   1B28
....................    Gain=read_eeprom(28)+Temporal; 
023C6:  MOVFF  FF2,474
023CA:  BCF    FF2.6
023CC:  BCF    FF2.7
023CE:  CLRF   FAA
023D0:  MOVLW  1C
023D2:  MOVWF  FA9
023D4:  BCF    FA6.6
023D6:  BCF    FA6.7
023D8:  BSF    FA6.0
023DA:  MOVF   FA8,W
023DC:  MOVLB  4
023DE:  BTFSC  x74.6
023E0:  BSF    FF2.6
023E2:  BTFSC  x74.7
023E4:  BSF    FF2.7
023E6:  CLRF   x8A
023E8:  MOVWF  x89
023EA:  MOVLB  0
023EC:  CALL   1B50
023F0:  BCF    FD8.1
023F2:  MOVFF  03,48C
023F6:  MOVFF  02,48B
023FA:  MOVFF  01,48A
023FE:  MOVFF  00,489
02402:  MOVFF  2DE,490
02406:  MOVFF  2DD,48F
0240A:  MOVFF  2DC,48E
0240E:  MOVFF  2DB,48D
02412:  RCALL  1CE4
02414:  MOVFF  03,2D6
02418:  MOVFF  02,2D5
0241C:  MOVFF  01,2D4
02420:  MOVFF  00,2D3
....................    delay_ms(10); 
02424:  MOVLW  0A
02426:  MOVLB  4
02428:  MOVWF  x8D
0242A:  MOVLB  0
0242C:  CALL   1B28
....................    R1=make16(read_eeprom(31),read_eeprom(30)); 
02430:  MOVFF  FF2,474
02434:  BCF    FF2.6
02436:  BCF    FF2.7
02438:  CLRF   FAA
0243A:  MOVLW  1F
0243C:  MOVWF  FA9
0243E:  BCF    FA6.6
02440:  BCF    FA6.7
02442:  BSF    FA6.0
02444:  MOVF   FA8,W
02446:  MOVLB  4
02448:  BTFSC  x74.6
0244A:  BSF    FF2.6
0244C:  BTFSC  x74.7
0244E:  BSF    FF2.7
02450:  MOVWF  x75
02452:  MOVFF  FF2,476
02456:  BCF    FF2.6
02458:  BCF    FF2.7
0245A:  CLRF   FAA
0245C:  MOVLW  1E
0245E:  MOVWF  FA9
02460:  BCF    FA6.6
02462:  BCF    FA6.7
02464:  BSF    FA6.0
02466:  MOVF   FA8,W
02468:  BTFSC  x76.6
0246A:  BSF    FF2.6
0246C:  BTFSC  x76.7
0246E:  BSF    FF2.7
02470:  MOVWF  x77
02472:  MOVFF  475,03
02476:  MOVF   x77,W
02478:  MOVWF  x89
0247A:  MOVFF  03,48A
0247E:  MOVLB  0
02480:  CALL   1B50
02484:  MOVFF  03,2E2
02488:  MOVFF  02,2E1
0248C:  MOVFF  01,2E0
02490:  MOVFF  00,2DF
....................    delay_ms(10); 
02494:  MOVLW  0A
02496:  MOVLB  4
02498:  MOVWF  x8D
0249A:  MOVLB  0
0249C:  CALL   1B28
....................    Temporal=read_eeprom(33); 
024A0:  MOVFF  FF2,474
024A4:  BCF    FF2.6
024A6:  BCF    FF2.7
024A8:  CLRF   FAA
024AA:  MOVLW  21
024AC:  MOVWF  FA9
024AE:  BCF    FA6.6
024B0:  BCF    FA6.7
024B2:  BSF    FA6.0
024B4:  MOVF   FA8,W
024B6:  MOVLB  4
024B8:  BTFSC  x74.6
024BA:  BSF    FF2.6
024BC:  BTFSC  x74.7
024BE:  BSF    FF2.7
024C0:  CLRF   x8A
024C2:  MOVWF  x89
024C4:  MOVLB  0
024C6:  CALL   1B50
024CA:  MOVFF  03,2DE
024CE:  MOVFF  02,2DD
024D2:  MOVFF  01,2DC
024D6:  MOVFF  00,2DB
....................    Temporal=Temporal/10.0; 
024DA:  MOVFF  2DE,480
024DE:  MOVFF  2DD,47F
024E2:  MOVFF  2DC,47E
024E6:  MOVFF  2DB,47D
024EA:  MOVLB  4
024EC:  CLRF   x84
024EE:  CLRF   x83
024F0:  MOVLW  20
024F2:  MOVWF  x82
024F4:  MOVLW  82
024F6:  MOVWF  x81
024F8:  MOVLB  0
024FA:  CALL   1B86
024FE:  MOVFF  03,2DE
02502:  MOVFF  02,2DD
02506:  MOVFF  01,2DC
0250A:  MOVFF  00,2DB
....................    delay_ms(10); 
0250E:  MOVLW  0A
02510:  MOVLB  4
02512:  MOVWF  x8D
02514:  MOVLB  0
02516:  CALL   1B28
....................    RPT100=read_eeprom(32)+Temporal; 
0251A:  MOVFF  FF2,474
0251E:  BCF    FF2.6
02520:  BCF    FF2.7
02522:  CLRF   FAA
02524:  MOVLW  20
02526:  MOVWF  FA9
02528:  BCF    FA6.6
0252A:  BCF    FA6.7
0252C:  BSF    FA6.0
0252E:  MOVF   FA8,W
02530:  MOVLB  4
02532:  BTFSC  x74.6
02534:  BSF    FF2.6
02536:  BTFSC  x74.7
02538:  BSF    FF2.7
0253A:  CLRF   x8A
0253C:  MOVWF  x89
0253E:  MOVLB  0
02540:  CALL   1B50
02544:  BCF    FD8.1
02546:  MOVFF  03,48C
0254A:  MOVFF  02,48B
0254E:  MOVFF  01,48A
02552:  MOVFF  00,489
02556:  MOVFF  2DE,490
0255A:  MOVFF  2DD,48F
0255E:  MOVFF  2DC,48E
02562:  MOVFF  2DB,48D
02566:  CALL   1CE4
0256A:  MOVFF  03,2DA
0256E:  MOVFF  02,2D9
02572:  MOVFF  01,2D8
02576:  MOVFF  00,2D7
....................    delay_ms(10); 
0257A:  MOVLW  0A
0257C:  MOVLB  4
0257E:  MOVWF  x8D
02580:  MOVLB  0
02582:  CALL   1B28
....................    CiclosL=read_eeprom(37); 
02586:  MOVFF  FF2,474
0258A:  BCF    FF2.6
0258C:  BCF    FF2.7
0258E:  CLRF   FAA
02590:  MOVLW  25
02592:  MOVWF  FA9
02594:  BCF    FA6.6
02596:  BCF    FA6.7
02598:  BSF    FA6.0
0259A:  MOVF   FA8,W
0259C:  MOVLB  4
0259E:  BTFSC  x74.6
025A0:  BSF    FF2.6
025A2:  BTFSC  x74.7
025A4:  BSF    FF2.7
025A6:  MOVLB  3
025A8:  MOVWF  x93
....................    delay_ms(10); 
025AA:  MOVLW  0A
025AC:  MOVLB  4
025AE:  MOVWF  x8D
025B0:  MOVLB  0
025B2:  CALL   1B28
....................    CiclosH=read_eeprom(38); 
025B6:  MOVFF  FF2,474
025BA:  BCF    FF2.6
025BC:  BCF    FF2.7
025BE:  CLRF   FAA
025C0:  MOVLW  26
025C2:  MOVWF  FA9
025C4:  BCF    FA6.6
025C6:  BCF    FA6.7
025C8:  BSF    FA6.0
025CA:  MOVF   FA8,W
025CC:  MOVLB  4
025CE:  BTFSC  x74.6
025D0:  BSF    FF2.6
025D2:  BTFSC  x74.7
025D4:  BSF    FF2.7
025D6:  MOVLB  3
025D8:  MOVWF  x94
....................    delay_ms(10); 
025DA:  MOVLW  0A
025DC:  MOVLB  4
025DE:  MOVWF  x8D
025E0:  MOVLB  0
025E2:  CALL   1B28
....................    Ciclos=make16(CiclosH,CiclosL); 
025E6:  MOVFF  394,3AD
025EA:  MOVFF  393,3AC
....................    delay_ms(10); 
025EE:  MOVLW  0A
025F0:  MOVLB  4
025F2:  MOVWF  x8D
025F4:  MOVLB  0
025F6:  CALL   1B28
....................    TTrampa=read_eeprom(39); 
025FA:  MOVFF  FF2,474
025FE:  BCF    FF2.6
02600:  BCF    FF2.7
02602:  CLRF   FAA
02604:  MOVLW  27
02606:  MOVWF  FA9
02608:  BCF    FA6.6
0260A:  BCF    FA6.7
0260C:  BSF    FA6.0
0260E:  MOVF   FA8,W
02610:  MOVLB  4
02612:  BTFSC  x74.6
02614:  BSF    FF2.6
02616:  BTFSC  x74.7
02618:  BSF    FF2.7
0261A:  MOVLB  3
0261C:  MOVWF  x0C
....................    delay_ms(10); 
0261E:  MOVLW  0A
02620:  MOVLB  4
02622:  MOVWF  x8D
02624:  MOVLB  0
02626:  CALL   1B28
....................    ActivaImpresion=read_eeprom(40); 
0262A:  MOVFF  FF2,474
0262E:  BCF    FF2.6
02630:  BCF    FF2.7
02632:  CLRF   FAA
02634:  MOVLW  28
02636:  MOVWF  FA9
02638:  BCF    FA6.6
0263A:  BCF    FA6.7
0263C:  BSF    FA6.0
0263E:  MOVF   FA8,W
02640:  MOVLB  4
02642:  BTFSC  x74.6
02644:  BSF    FF2.6
02646:  BTFSC  x74.7
02648:  BSF    FF2.7
0264A:  MOVLB  3
0264C:  MOVWF  x88
....................    delay_ms(10); 
0264E:  MOVLW  0A
02650:  MOVLB  4
02652:  MOVWF  x8D
02654:  MOVLB  0
02656:  CALL   1B28
....................    timpresion=read_eeprom(41); 
0265A:  MOVFF  FF2,474
0265E:  BCF    FF2.6
02660:  BCF    FF2.7
02662:  CLRF   FAA
02664:  MOVLW  29
02666:  MOVWF  FA9
02668:  BCF    FA6.6
0266A:  BCF    FA6.7
0266C:  BSF    FA6.0
0266E:  MOVF   FA8,W
02670:  MOVLB  4
02672:  BTFSC  x74.6
02674:  BSF    FF2.6
02676:  BTFSC  x74.7
02678:  BSF    FF2.7
0267A:  MOVLB  3
0267C:  MOVWF  x89
....................    delay_ms(10); 
0267E:  MOVLW  0A
02680:  MOVLB  4
02682:  MOVWF  x8D
02684:  MOVLB  0
02686:  CALL   1B28
....................    G1=read_eeprom(42); 
0268A:  MOVFF  FF2,474
0268E:  BCF    FF2.6
02690:  BCF    FF2.7
02692:  CLRF   FAA
02694:  MOVLW  2A
02696:  MOVWF  FA9
02698:  BCF    FA6.6
0269A:  BCF    FA6.7
0269C:  BSF    FA6.0
0269E:  MOVF   FA8,W
026A0:  MOVLB  4
026A2:  BTFSC  x74.6
026A4:  BSF    FF2.6
026A6:  BTFSC  x74.7
026A8:  BSF    FF2.7
026AA:  MOVLB  3
026AC:  MOVWF  xE4
....................    delay_ms(10); 
026AE:  MOVLW  0A
026B0:  MOVLB  4
026B2:  MOVWF  x8D
026B4:  MOVLB  0
026B6:  CALL   1B28
....................    G2=read_eeprom(43); 
026BA:  MOVFF  FF2,474
026BE:  BCF    FF2.6
026C0:  BCF    FF2.7
026C2:  CLRF   FAA
026C4:  MOVLW  2B
026C6:  MOVWF  FA9
026C8:  BCF    FA6.6
026CA:  BCF    FA6.7
026CC:  BSF    FA6.0
026CE:  MOVF   FA8,W
026D0:  MOVLB  4
026D2:  BTFSC  x74.6
026D4:  BSF    FF2.6
026D6:  BTFSC  x74.7
026D8:  BSF    FF2.7
026DA:  MOVLB  3
026DC:  MOVWF  xE5
....................    delay_ms(10); 
026DE:  MOVLW  0A
026E0:  MOVLB  4
026E2:  MOVWF  x8D
026E4:  MOVLB  0
026E6:  CALL   1B28
....................    sg1=read_eeprom(44); 
026EA:  MOVFF  FF2,474
026EE:  BCF    FF2.6
026F0:  BCF    FF2.7
026F2:  CLRF   FAA
026F4:  MOVLW  2C
026F6:  MOVWF  FA9
026F8:  BCF    FA6.6
026FA:  BCF    FA6.7
026FC:  BSF    FA6.0
026FE:  MOVF   FA8,W
02700:  MOVLB  4
02702:  BTFSC  x74.6
02704:  BSF    FF2.6
02706:  BTFSC  x74.7
02708:  BSF    FF2.7
0270A:  MOVLB  3
0270C:  MOVWF  xE6
....................    delay_ms(10); 
0270E:  MOVLW  0A
02710:  MOVLB  4
02712:  MOVWF  x8D
02714:  MOVLB  0
02716:  CALL   1B28
....................    sg2=read_eeprom(45); 
0271A:  MOVFF  FF2,474
0271E:  BCF    FF2.6
02720:  BCF    FF2.7
02722:  CLRF   FAA
02724:  MOVLW  2D
02726:  MOVWF  FA9
02728:  BCF    FA6.6
0272A:  BCF    FA6.7
0272C:  BSF    FA6.0
0272E:  MOVF   FA8,W
02730:  MOVLB  4
02732:  BTFSC  x74.6
02734:  BSF    FF2.6
02736:  BTFSC  x74.7
02738:  BSF    FF2.7
0273A:  MOVLB  3
0273C:  MOVWF  xE7
....................    delay_ms(10); 
0273E:  MOVLW  0A
02740:  MOVLB  4
02742:  MOVWF  x8D
02744:  MOVLB  0
02746:  CALL   1B28
....................    Atmosferica=read_eeprom(46); 
0274A:  MOVFF  FF2,474
0274E:  BCF    FF2.6
02750:  BCF    FF2.7
02752:  CLRF   FAA
02754:  MOVLW  2E
02756:  MOVWF  FA9
02758:  BCF    FA6.6
0275A:  BCF    FA6.7
0275C:  BSF    FA6.0
0275E:  MOVF   FA8,W
02760:  MOVLB  4
02762:  BTFSC  x74.6
02764:  BSF    FF2.6
02766:  BTFSC  x74.7
02768:  BSF    FF2.7
0276A:  MOVLB  3
0276C:  MOVWF  xE3
....................     
....................    for(i=0;i<4;i++){//Lee valores almacenados de ciclos personalizados 
0276E:  CLRF   x92
02770:  MOVF   x92,W
02772:  SUBLW  03
02774:  BTFSS  FD8.0
02776:  BRA    2D40
....................       CiclosPersonalizados[i].Temperatura=read_eeprom(100+(i*8));  
02778:  MOVF   x92,W
0277A:  MULLW  0A
0277C:  MOVF   FF3,W
0277E:  MOVLB  4
02780:  CLRF   x75
02782:  MOVWF  x74
02784:  MOVLW  4C
02786:  ADDWF  x74,W
02788:  MOVWF  FE9
0278A:  MOVLW  04
0278C:  ADDWFC x75,W
0278E:  MOVWF  FEA
02790:  MOVLB  3
02792:  MOVF   x92,W
02794:  MULLW  08
02796:  MOVF   FF3,W
02798:  ADDLW  64
0279A:  MOVLB  4
0279C:  MOVWF  x76
0279E:  MOVFF  FF2,477
027A2:  BCF    FF2.6
027A4:  BCF    FF2.7
027A6:  CLRF   FAA
027A8:  MOVFF  476,FA9
027AC:  BCF    FA6.6
027AE:  BCF    FA6.7
027B0:  BSF    FA6.0
027B2:  MOVF   FA8,W
027B4:  BTFSC  x77.6
027B6:  BSF    FF2.6
027B8:  BTFSC  x77.7
027BA:  BSF    FF2.7
027BC:  MOVWF  FEF
....................       CiclosPersonalizados[i].MinutoestH=read_eeprom(101+(i*8));  
027BE:  MOVLB  3
027C0:  MOVF   x92,W
027C2:  MULLW  0A
027C4:  MOVF   FF3,W
027C6:  MOVLB  4
027C8:  CLRF   x75
027CA:  MOVWF  x74
027CC:  MOVLW  01
027CE:  ADDWF  x74,W
027D0:  MOVWF  01
027D2:  MOVLW  00
027D4:  ADDWFC x75,W
027D6:  MOVWF  03
027D8:  MOVF   01,W
027DA:  ADDLW  4C
027DC:  MOVWF  FE9
027DE:  MOVLW  04
027E0:  ADDWFC 03,W
027E2:  MOVWF  FEA
027E4:  MOVLB  3
027E6:  MOVF   x92,W
027E8:  MULLW  08
027EA:  MOVF   FF3,W
027EC:  ADDLW  65
027EE:  MOVLB  4
027F0:  MOVWF  x76
027F2:  MOVFF  FF2,477
027F6:  BCF    FF2.6
027F8:  BCF    FF2.7
027FA:  CLRF   FAA
027FC:  MOVFF  476,FA9
02800:  BCF    FA6.6
02802:  BCF    FA6.7
02804:  BSF    FA6.0
02806:  MOVF   FA8,W
02808:  BTFSC  x77.6
0280A:  BSF    FF2.6
0280C:  BTFSC  x77.7
0280E:  BSF    FF2.7
02810:  MOVWF  FEF
....................       CiclosPersonalizados[i].Minutoest=read_eeprom(102+(i*8));  
02812:  MOVLB  3
02814:  MOVF   x92,W
02816:  MULLW  0A
02818:  MOVF   FF3,W
0281A:  MOVLB  4
0281C:  CLRF   x75
0281E:  MOVWF  x74
02820:  MOVLW  09
02822:  ADDWF  x74,W
02824:  MOVWF  01
02826:  MOVLW  00
02828:  ADDWFC x75,W
0282A:  MOVWF  03
0282C:  MOVF   01,W
0282E:  ADDLW  4C
02830:  MOVWF  FE9
02832:  MOVLW  04
02834:  ADDWFC 03,W
02836:  MOVWF  FEA
02838:  MOVLB  3
0283A:  MOVF   x92,W
0283C:  MULLW  08
0283E:  MOVF   FF3,W
02840:  ADDLW  66
02842:  MOVLB  4
02844:  MOVWF  x76
02846:  MOVFF  FF2,477
0284A:  BCF    FF2.6
0284C:  BCF    FF2.7
0284E:  CLRF   FAA
02850:  MOVFF  476,FA9
02854:  BCF    FA6.6
02856:  BCF    FA6.7
02858:  BSF    FA6.0
0285A:  MOVF   FA8,W
0285C:  BTFSC  x77.6
0285E:  BSF    FF2.6
02860:  BTFSC  x77.7
02862:  BSF    FF2.7
02864:  MOVWF  FEF
....................       CiclosPersonalizados[i].Segundoest=read_eeprom(103+(i*8));  
02866:  MOVLB  3
02868:  MOVF   x92,W
0286A:  MULLW  0A
0286C:  MOVF   FF3,W
0286E:  MOVLB  4
02870:  CLRF   x75
02872:  MOVWF  x74
02874:  MOVLW  03
02876:  ADDWF  x74,W
02878:  MOVWF  01
0287A:  MOVLW  00
0287C:  ADDWFC x75,W
0287E:  MOVWF  03
02880:  MOVF   01,W
02882:  ADDLW  4C
02884:  MOVWF  FE9
02886:  MOVLW  04
02888:  ADDWFC 03,W
0288A:  MOVWF  FEA
0288C:  MOVLB  3
0288E:  MOVF   x92,W
02890:  MULLW  08
02892:  MOVF   FF3,W
02894:  ADDLW  67
02896:  MOVLB  4
02898:  MOVWF  x76
0289A:  MOVFF  FF2,477
0289E:  BCF    FF2.6
028A0:  BCF    FF2.7
028A2:  CLRF   FAA
028A4:  MOVFF  476,FA9
028A8:  BCF    FA6.6
028AA:  BCF    FA6.7
028AC:  BSF    FA6.0
028AE:  MOVF   FA8,W
028B0:  BTFSC  x77.6
028B2:  BSF    FF2.6
028B4:  BTFSC  x77.7
028B6:  BSF    FF2.7
028B8:  MOVWF  FEF
....................       CiclosPersonalizados[i].Minutosec=read_eeprom(104+(i*8));  
028BA:  MOVLB  3
028BC:  MOVF   x92,W
028BE:  MULLW  0A
028C0:  MOVF   FF3,W
028C2:  MOVLB  4
028C4:  CLRF   x75
028C6:  MOVWF  x74
028C8:  MOVLW  04
028CA:  ADDWF  x74,W
028CC:  MOVWF  01
028CE:  MOVLW  00
028D0:  ADDWFC x75,W
028D2:  MOVWF  03
028D4:  MOVF   01,W
028D6:  ADDLW  4C
028D8:  MOVWF  FE9
028DA:  MOVLW  04
028DC:  ADDWFC 03,W
028DE:  MOVWF  FEA
028E0:  MOVLB  3
028E2:  MOVF   x92,W
028E4:  MULLW  08
028E6:  MOVF   FF3,W
028E8:  ADDLW  68
028EA:  MOVLB  4
028EC:  MOVWF  x76
028EE:  MOVFF  FF2,477
028F2:  BCF    FF2.6
028F4:  BCF    FF2.7
028F6:  CLRF   FAA
028F8:  MOVFF  476,FA9
028FC:  BCF    FA6.6
028FE:  BCF    FA6.7
02900:  BSF    FA6.0
02902:  MOVF   FA8,W
02904:  BTFSC  x77.6
02906:  BSF    FF2.6
02908:  BTFSC  x77.7
0290A:  BSF    FF2.7
0290C:  MOVWF  FEF
....................       CiclosPersonalizados[i].Segundosec=read_eeprom(105+(i*8));  
0290E:  MOVLB  3
02910:  MOVF   x92,W
02912:  MULLW  0A
02914:  MOVF   FF3,W
02916:  MOVLB  4
02918:  CLRF   x75
0291A:  MOVWF  x74
0291C:  MOVLW  05
0291E:  ADDWF  x74,W
02920:  MOVWF  01
02922:  MOVLW  00
02924:  ADDWFC x75,W
02926:  MOVWF  03
02928:  MOVF   01,W
0292A:  ADDLW  4C
0292C:  MOVWF  FE9
0292E:  MOVLW  04
02930:  ADDWFC 03,W
02932:  MOVWF  FEA
02934:  MOVLB  3
02936:  MOVF   x92,W
02938:  MULLW  08
0293A:  MOVF   FF3,W
0293C:  ADDLW  69
0293E:  MOVLB  4
02940:  MOVWF  x76
02942:  MOVFF  FF2,477
02946:  BCF    FF2.6
02948:  BCF    FF2.7
0294A:  CLRF   FAA
0294C:  MOVFF  476,FA9
02950:  BCF    FA6.6
02952:  BCF    FA6.7
02954:  BSF    FA6.0
02956:  MOVF   FA8,W
02958:  BTFSC  x77.6
0295A:  BSF    FF2.6
0295C:  BTFSC  x77.7
0295E:  BSF    FF2.7
02960:  MOVWF  FEF
....................       CiclosPersonalizados[i].PulsosVacio=read_eeprom(106+(i*8));  
02962:  MOVLB  3
02964:  MOVF   x92,W
02966:  MULLW  0A
02968:  MOVF   FF3,W
0296A:  MOVLB  4
0296C:  CLRF   x75
0296E:  MOVWF  x74
02970:  MOVLW  06
02972:  ADDWF  x74,W
02974:  MOVWF  01
02976:  MOVLW  00
02978:  ADDWFC x75,W
0297A:  MOVWF  03
0297C:  MOVF   01,W
0297E:  ADDLW  4C
02980:  MOVWF  FE9
02982:  MOVLW  04
02984:  ADDWFC 03,W
02986:  MOVWF  FEA
02988:  MOVLB  3
0298A:  MOVF   x92,W
0298C:  MULLW  08
0298E:  MOVF   FF3,W
02990:  ADDLW  6A
02992:  MOVLB  4
02994:  MOVWF  x76
02996:  MOVFF  FF2,477
0299A:  BCF    FF2.6
0299C:  BCF    FF2.7
0299E:  CLRF   FAA
029A0:  MOVFF  476,FA9
029A4:  BCF    FA6.6
029A6:  BCF    FA6.7
029A8:  BSF    FA6.0
029AA:  MOVF   FA8,W
029AC:  BTFSC  x77.6
029AE:  BSF    FF2.6
029B0:  BTFSC  x77.7
029B2:  BSF    FF2.7
029B4:  MOVWF  FEF
....................       CiclosPersonalizados[i].NivelDesfogue=read_eeprom(107+(i*8));  
029B6:  MOVLB  3
029B8:  MOVF   x92,W
029BA:  MULLW  0A
029BC:  MOVF   FF3,W
029BE:  MOVLB  4
029C0:  CLRF   x75
029C2:  MOVWF  x74
029C4:  MOVLW  08
029C6:  ADDWF  x74,W
029C8:  MOVWF  01
029CA:  MOVLW  00
029CC:  ADDWFC x75,W
029CE:  MOVWF  03
029D0:  MOVF   01,W
029D2:  ADDLW  4C
029D4:  MOVWF  FE9
029D6:  MOVLW  04
029D8:  ADDWFC 03,W
029DA:  MOVWF  FEA
029DC:  MOVLB  3
029DE:  MOVF   x92,W
029E0:  MULLW  08
029E2:  MOVF   FF3,W
029E4:  ADDLW  6B
029E6:  MOVLB  4
029E8:  MOVWF  x76
029EA:  MOVFF  FF2,477
029EE:  BCF    FF2.6
029F0:  BCF    FF2.7
029F2:  CLRF   FAA
029F4:  MOVFF  476,FA9
029F8:  BCF    FA6.6
029FA:  BCF    FA6.7
029FC:  BSF    FA6.0
029FE:  MOVF   FA8,W
02A00:  BTFSC  x77.6
02A02:  BSF    FF2.6
02A04:  BTFSC  x77.7
02A06:  BSF    FF2.7
02A08:  MOVWF  FEF
....................        
....................       if(CiclosPersonalizados[i].Temperatura>134 || CiclosPersonalizados[i].Temperatura<105) 
02A0A:  MOVLB  3
02A0C:  MOVF   x92,W
02A0E:  MULLW  0A
02A10:  MOVF   FF3,W
02A12:  MOVLB  4
02A14:  CLRF   x75
02A16:  MOVWF  x74
02A18:  MOVLW  4C
02A1A:  ADDWF  x74,W
02A1C:  MOVWF  FE9
02A1E:  MOVLW  04
02A20:  ADDWFC x75,W
02A22:  MOVWF  FEA
02A24:  MOVF   FEF,W
02A26:  SUBLW  86
02A28:  BNC   2A4A
02A2A:  MOVLB  3
02A2C:  MOVF   x92,W
02A2E:  MULLW  0A
02A30:  MOVF   FF3,W
02A32:  MOVLB  4
02A34:  CLRF   x75
02A36:  MOVWF  x74
02A38:  MOVLW  4C
02A3A:  ADDWF  x74,W
02A3C:  MOVWF  FE9
02A3E:  MOVLW  04
02A40:  ADDWFC x75,W
02A42:  MOVWF  FEA
02A44:  MOVF   FEF,W
02A46:  SUBLW  68
02A48:  BNC   2A68
....................          CiclosPersonalizados[i].Temperatura=121; 
02A4A:  MOVLB  3
02A4C:  MOVF   x92,W
02A4E:  MULLW  0A
02A50:  MOVF   FF3,W
02A52:  MOVLB  4
02A54:  CLRF   x75
02A56:  MOVWF  x74
02A58:  MOVLW  4C
02A5A:  ADDWF  x74,W
02A5C:  MOVWF  FE9
02A5E:  MOVLW  04
02A60:  ADDWFC x75,W
02A62:  MOVWF  FEA
02A64:  MOVLW  79
02A66:  MOVWF  FEF
....................       if(CiclosPersonalizados[i].Minutoest>59) 
02A68:  MOVLB  3
02A6A:  MOVF   x92,W
02A6C:  MULLW  0A
02A6E:  MOVF   FF3,W
02A70:  MOVLB  4
02A72:  CLRF   x75
02A74:  MOVWF  x74
02A76:  MOVLW  09
02A78:  ADDWF  x74,W
02A7A:  MOVWF  01
02A7C:  MOVLW  00
02A7E:  ADDWFC x75,W
02A80:  MOVWF  03
02A82:  MOVF   01,W
02A84:  ADDLW  4C
02A86:  MOVWF  FE9
02A88:  MOVLW  04
02A8A:  ADDWFC 03,W
02A8C:  MOVWF  FEA
02A8E:  MOVF   FEF,W
02A90:  SUBLW  3B
02A92:  BC    2ABC
....................          CiclosPersonalizados[i].Minutoest=0; 
02A94:  MOVLB  3
02A96:  MOVF   x92,W
02A98:  MULLW  0A
02A9A:  MOVF   FF3,W
02A9C:  MOVLB  4
02A9E:  CLRF   x75
02AA0:  MOVWF  x74
02AA2:  MOVLW  09
02AA4:  ADDWF  x74,W
02AA6:  MOVWF  01
02AA8:  MOVLW  00
02AAA:  ADDWFC x75,W
02AAC:  MOVWF  03
02AAE:  MOVF   01,W
02AB0:  ADDLW  4C
02AB2:  MOVWF  FE9
02AB4:  MOVLW  04
02AB6:  ADDWFC 03,W
02AB8:  MOVWF  FEA
02ABA:  CLRF   FEF
....................       if(CiclosPersonalizados[i].Segundoest>59) 
02ABC:  MOVLB  3
02ABE:  MOVF   x92,W
02AC0:  MULLW  0A
02AC2:  MOVF   FF3,W
02AC4:  MOVLB  4
02AC6:  CLRF   x75
02AC8:  MOVWF  x74
02ACA:  MOVLW  03
02ACC:  ADDWF  x74,W
02ACE:  MOVWF  01
02AD0:  MOVLW  00
02AD2:  ADDWFC x75,W
02AD4:  MOVWF  03
02AD6:  MOVF   01,W
02AD8:  ADDLW  4C
02ADA:  MOVWF  FE9
02ADC:  MOVLW  04
02ADE:  ADDWFC 03,W
02AE0:  MOVWF  FEA
02AE2:  MOVF   FEF,W
02AE4:  SUBLW  3B
02AE6:  BC    2B10
....................          CiclosPersonalizados[i].Segundoest=0; 
02AE8:  MOVLB  3
02AEA:  MOVF   x92,W
02AEC:  MULLW  0A
02AEE:  MOVF   FF3,W
02AF0:  MOVLB  4
02AF2:  CLRF   x75
02AF4:  MOVWF  x74
02AF6:  MOVLW  03
02AF8:  ADDWF  x74,W
02AFA:  MOVWF  01
02AFC:  MOVLW  00
02AFE:  ADDWFC x75,W
02B00:  MOVWF  03
02B02:  MOVF   01,W
02B04:  ADDLW  4C
02B06:  MOVWF  FE9
02B08:  MOVLW  04
02B0A:  ADDWFC 03,W
02B0C:  MOVWF  FEA
02B0E:  CLRF   FEF
....................       if(CiclosPersonalizados[i].Minutosec>59) 
02B10:  MOVLB  3
02B12:  MOVF   x92,W
02B14:  MULLW  0A
02B16:  MOVF   FF3,W
02B18:  MOVLB  4
02B1A:  CLRF   x75
02B1C:  MOVWF  x74
02B1E:  MOVLW  04
02B20:  ADDWF  x74,W
02B22:  MOVWF  01
02B24:  MOVLW  00
02B26:  ADDWFC x75,W
02B28:  MOVWF  03
02B2A:  MOVF   01,W
02B2C:  ADDLW  4C
02B2E:  MOVWF  FE9
02B30:  MOVLW  04
02B32:  ADDWFC 03,W
02B34:  MOVWF  FEA
02B36:  MOVF   FEF,W
02B38:  SUBLW  3B
02B3A:  BC    2B64
....................          CiclosPersonalizados[i].Minutosec=0;    
02B3C:  MOVLB  3
02B3E:  MOVF   x92,W
02B40:  MULLW  0A
02B42:  MOVF   FF3,W
02B44:  MOVLB  4
02B46:  CLRF   x75
02B48:  MOVWF  x74
02B4A:  MOVLW  04
02B4C:  ADDWF  x74,W
02B4E:  MOVWF  01
02B50:  MOVLW  00
02B52:  ADDWFC x75,W
02B54:  MOVWF  03
02B56:  MOVF   01,W
02B58:  ADDLW  4C
02B5A:  MOVWF  FE9
02B5C:  MOVLW  04
02B5E:  ADDWFC 03,W
02B60:  MOVWF  FEA
02B62:  CLRF   FEF
....................       if(CiclosPersonalizados[i].Segundoest>59) 
02B64:  MOVLB  3
02B66:  MOVF   x92,W
02B68:  MULLW  0A
02B6A:  MOVF   FF3,W
02B6C:  MOVLB  4
02B6E:  CLRF   x75
02B70:  MOVWF  x74
02B72:  MOVLW  03
02B74:  ADDWF  x74,W
02B76:  MOVWF  01
02B78:  MOVLW  00
02B7A:  ADDWFC x75,W
02B7C:  MOVWF  03
02B7E:  MOVF   01,W
02B80:  ADDLW  4C
02B82:  MOVWF  FE9
02B84:  MOVLW  04
02B86:  ADDWFC 03,W
02B88:  MOVWF  FEA
02B8A:  MOVF   FEF,W
02B8C:  SUBLW  3B
02B8E:  BC    2BB8
....................          CiclosPersonalizados[i].Segundoest=0; 
02B90:  MOVLB  3
02B92:  MOVF   x92,W
02B94:  MULLW  0A
02B96:  MOVF   FF3,W
02B98:  MOVLB  4
02B9A:  CLRF   x75
02B9C:  MOVWF  x74
02B9E:  MOVLW  03
02BA0:  ADDWF  x74,W
02BA2:  MOVWF  01
02BA4:  MOVLW  00
02BA6:  ADDWFC x75,W
02BA8:  MOVWF  03
02BAA:  MOVF   01,W
02BAC:  ADDLW  4C
02BAE:  MOVWF  FE9
02BB0:  MOVLW  04
02BB2:  ADDWFC 03,W
02BB4:  MOVWF  FEA
02BB6:  CLRF   FEF
....................       if(CiclosPersonalizados[i].Segundosec>59) 
02BB8:  MOVLB  3
02BBA:  MOVF   x92,W
02BBC:  MULLW  0A
02BBE:  MOVF   FF3,W
02BC0:  MOVLB  4
02BC2:  CLRF   x75
02BC4:  MOVWF  x74
02BC6:  MOVLW  05
02BC8:  ADDWF  x74,W
02BCA:  MOVWF  01
02BCC:  MOVLW  00
02BCE:  ADDWFC x75,W
02BD0:  MOVWF  03
02BD2:  MOVF   01,W
02BD4:  ADDLW  4C
02BD6:  MOVWF  FE9
02BD8:  MOVLW  04
02BDA:  ADDWFC 03,W
02BDC:  MOVWF  FEA
02BDE:  MOVF   FEF,W
02BE0:  SUBLW  3B
02BE2:  BC    2C0C
....................          CiclosPersonalizados[i].Segundosec=0;       
02BE4:  MOVLB  3
02BE6:  MOVF   x92,W
02BE8:  MULLW  0A
02BEA:  MOVF   FF3,W
02BEC:  MOVLB  4
02BEE:  CLRF   x75
02BF0:  MOVWF  x74
02BF2:  MOVLW  05
02BF4:  ADDWF  x74,W
02BF6:  MOVWF  01
02BF8:  MOVLW  00
02BFA:  ADDWFC x75,W
02BFC:  MOVWF  03
02BFE:  MOVF   01,W
02C00:  ADDLW  4C
02C02:  MOVWF  FE9
02C04:  MOVLW  04
02C06:  ADDWFC 03,W
02C08:  MOVWF  FEA
02C0A:  CLRF   FEF
....................       if(CiclosPersonalizados[i].PulsosVacio>15) 
02C0C:  MOVLB  3
02C0E:  MOVF   x92,W
02C10:  MULLW  0A
02C12:  MOVF   FF3,W
02C14:  MOVLB  4
02C16:  CLRF   x75
02C18:  MOVWF  x74
02C1A:  MOVLW  06
02C1C:  ADDWF  x74,W
02C1E:  MOVWF  01
02C20:  MOVLW  00
02C22:  ADDWFC x75,W
02C24:  MOVWF  03
02C26:  MOVF   01,W
02C28:  ADDLW  4C
02C2A:  MOVWF  FE9
02C2C:  MOVLW  04
02C2E:  ADDWFC 03,W
02C30:  MOVWF  FEA
02C32:  MOVF   FEF,W
02C34:  SUBLW  0F
02C36:  BC    2C62
....................          CiclosPersonalizados[i].PulsosVacio=4; 
02C38:  MOVLB  3
02C3A:  MOVF   x92,W
02C3C:  MULLW  0A
02C3E:  MOVF   FF3,W
02C40:  MOVLB  4
02C42:  CLRF   x75
02C44:  MOVWF  x74
02C46:  MOVLW  06
02C48:  ADDWF  x74,W
02C4A:  MOVWF  01
02C4C:  MOVLW  00
02C4E:  ADDWFC x75,W
02C50:  MOVWF  03
02C52:  MOVF   01,W
02C54:  ADDLW  4C
02C56:  MOVWF  FE9
02C58:  MOVLW  04
02C5A:  ADDWFC 03,W
02C5C:  MOVWF  FEA
02C5E:  MOVLW  04
02C60:  MOVWF  FEF
....................       if(CiclosPersonalizados[i].NivelVacio>100 || CiclosPersonalizados[i].NivelVacio<10) 
02C62:  MOVLB  3
02C64:  MOVF   x92,W
02C66:  MULLW  0A
02C68:  MOVF   FF3,W
02C6A:  MOVLB  4
02C6C:  CLRF   x75
02C6E:  MOVWF  x74
02C70:  MOVLW  07
02C72:  ADDWF  x74,W
02C74:  MOVWF  01
02C76:  MOVLW  00
02C78:  ADDWFC x75,W
02C7A:  MOVWF  03
02C7C:  MOVF   01,W
02C7E:  ADDLW  4C
02C80:  MOVWF  FE9
02C82:  MOVLW  04
02C84:  ADDWFC 03,W
02C86:  MOVWF  FEA
02C88:  MOVF   FEF,W
02C8A:  SUBLW  64
02C8C:  BNC   2CBA
02C8E:  MOVLB  3
02C90:  MOVF   x92,W
02C92:  MULLW  0A
02C94:  MOVF   FF3,W
02C96:  MOVLB  4
02C98:  CLRF   x75
02C9A:  MOVWF  x74
02C9C:  MOVLW  07
02C9E:  ADDWF  x74,W
02CA0:  MOVWF  01
02CA2:  MOVLW  00
02CA4:  ADDWFC x75,W
02CA6:  MOVWF  03
02CA8:  MOVF   01,W
02CAA:  ADDLW  4C
02CAC:  MOVWF  FE9
02CAE:  MOVLW  04
02CB0:  ADDWFC 03,W
02CB2:  MOVWF  FEA
02CB4:  MOVF   FEF,W
02CB6:  SUBLW  09
02CB8:  BNC   2CE4
....................          CiclosPersonalizados[i].NivelVacio=25;    
02CBA:  MOVLB  3
02CBC:  MOVF   x92,W
02CBE:  MULLW  0A
02CC0:  MOVF   FF3,W
02CC2:  MOVLB  4
02CC4:  CLRF   x75
02CC6:  MOVWF  x74
02CC8:  MOVLW  07
02CCA:  ADDWF  x74,W
02CCC:  MOVWF  01
02CCE:  MOVLW  00
02CD0:  ADDWFC x75,W
02CD2:  MOVWF  03
02CD4:  MOVF   01,W
02CD6:  ADDLW  4C
02CD8:  MOVWF  FE9
02CDA:  MOVLW  04
02CDC:  ADDWFC 03,W
02CDE:  MOVWF  FEA
02CE0:  MOVLW  19
02CE2:  MOVWF  FEF
....................       if(CiclosPersonalizados[i].NivelDesfogue>6) 
02CE4:  MOVLB  3
02CE6:  MOVF   x92,W
02CE8:  MULLW  0A
02CEA:  MOVF   FF3,W
02CEC:  MOVLB  4
02CEE:  CLRF   x75
02CF0:  MOVWF  x74
02CF2:  MOVLW  08
02CF4:  ADDWF  x74,W
02CF6:  MOVWF  01
02CF8:  MOVLW  00
02CFA:  ADDWFC x75,W
02CFC:  MOVWF  03
02CFE:  MOVF   01,W
02D00:  ADDLW  4C
02D02:  MOVWF  FE9
02D04:  MOVLW  04
02D06:  ADDWFC 03,W
02D08:  MOVWF  FEA
02D0A:  MOVF   FEF,W
02D0C:  SUBLW  06
02D0E:  BC    2D3A
....................          CiclosPersonalizados[i].NivelDesfogue=6; 
02D10:  MOVLB  3
02D12:  MOVF   x92,W
02D14:  MULLW  0A
02D16:  MOVF   FF3,W
02D18:  MOVLB  4
02D1A:  CLRF   x75
02D1C:  MOVWF  x74
02D1E:  MOVLW  08
02D20:  ADDWF  x74,W
02D22:  MOVWF  01
02D24:  MOVLW  00
02D26:  ADDWFC x75,W
02D28:  MOVWF  03
02D2A:  MOVF   01,W
02D2C:  ADDLW  4C
02D2E:  MOVWF  FE9
02D30:  MOVLW  04
02D32:  ADDWFC 03,W
02D34:  MOVWF  FEA
02D36:  MOVLW  06
02D38:  MOVWF  FEF
....................    } 
02D3A:  MOVLB  3
02D3C:  INCF   x92,F
02D3E:  BRA    2770
.................... } 
02D40:  MOVLB  0
02D42:  GOTO   7DD2 (RETURN)
....................  
.................... void LimitaValores(){ 
....................    if(Testerilizacionp[0]>9 || Testerilizacionp[0]<0){ 
*
02E0E:  BTFSC  xE6.7
02E10:  BRA    2E18
02E12:  MOVF   xE6,W
02E14:  SUBLW  09
02E16:  BNC   2E1E
02E18:  BTFSC  xE6.7
02E1A:  BRA    2E1E
02E1C:  BRA    2E56
....................       Testerilizacionp[0]=0; 
02E1E:  CLRF   xE6
....................       write_eeprom(0,0); 
02E20:  CLRF   FAA
02E22:  CLRF   FA9
02E24:  CLRF   FA8
02E26:  BCF    FA6.6
02E28:  BCF    FA6.7
02E2A:  BSF    FA6.2
02E2C:  MOVF   FF2,W
02E2E:  MOVWF  00
02E30:  BCF    FF2.6
02E32:  BCF    FF2.7
02E34:  MOVLB  F
02E36:  MOVLW  55
02E38:  MOVWF  FA7
02E3A:  MOVLW  AA
02E3C:  MOVWF  FA7
02E3E:  BSF    FA6.1
02E40:  BTFSC  FA6.1
02E42:  BRA    2E40
02E44:  BCF    FA6.2
02E46:  MOVF   00,W
02E48:  IORWF  FF2,F
....................       delay_ms(10); 
02E4A:  MOVLW  0A
02E4C:  MOVLB  4
02E4E:  MOVWF  x8D
02E50:  MOVLB  0
02E52:  CALL   1B28
....................    } 
....................    if(Testerilizacionp[1]>9 || Testerilizacionp[1]<0){ 
02E56:  BTFSC  xE7.7
02E58:  BRA    2E60
02E5A:  MOVF   xE7,W
02E5C:  SUBLW  09
02E5E:  BNC   2E66
02E60:  BTFSC  xE7.7
02E62:  BRA    2E66
02E64:  BRA    2EA0
....................       Testerilizacionp[1]=0; 
02E66:  CLRF   xE7
....................       write_eeprom(1,0); 
02E68:  CLRF   FAA
02E6A:  MOVLW  01
02E6C:  MOVWF  FA9
02E6E:  CLRF   FA8
02E70:  BCF    FA6.6
02E72:  BCF    FA6.7
02E74:  BSF    FA6.2
02E76:  MOVF   FF2,W
02E78:  MOVWF  00
02E7A:  BCF    FF2.6
02E7C:  BCF    FF2.7
02E7E:  MOVLB  F
02E80:  MOVLW  55
02E82:  MOVWF  FA7
02E84:  MOVLW  AA
02E86:  MOVWF  FA7
02E88:  BSF    FA6.1
02E8A:  BTFSC  FA6.1
02E8C:  BRA    2E8A
02E8E:  BCF    FA6.2
02E90:  MOVF   00,W
02E92:  IORWF  FF2,F
....................       delay_ms(10); 
02E94:  MOVLW  0A
02E96:  MOVLB  4
02E98:  MOVWF  x8D
02E9A:  MOVLB  0
02E9C:  CALL   1B28
....................    } 
....................    if(Testerilizacionp[2]>9 || Testerilizacionp[2]<0){ 
02EA0:  BTFSC  xE8.7
02EA2:  BRA    2EAA
02EA4:  MOVF   xE8,W
02EA6:  SUBLW  09
02EA8:  BNC   2EB0
02EAA:  BTFSC  xE8.7
02EAC:  BRA    2EB0
02EAE:  BRA    2EEA
....................       Testerilizacionp[2]=0; 
02EB0:  CLRF   xE8
....................       write_eeprom(2,0); 
02EB2:  CLRF   FAA
02EB4:  MOVLW  02
02EB6:  MOVWF  FA9
02EB8:  CLRF   FA8
02EBA:  BCF    FA6.6
02EBC:  BCF    FA6.7
02EBE:  BSF    FA6.2
02EC0:  MOVF   FF2,W
02EC2:  MOVWF  00
02EC4:  BCF    FF2.6
02EC6:  BCF    FF2.7
02EC8:  MOVLB  F
02ECA:  MOVLW  55
02ECC:  MOVWF  FA7
02ECE:  MOVLW  AA
02ED0:  MOVWF  FA7
02ED2:  BSF    FA6.1
02ED4:  BTFSC  FA6.1
02ED6:  BRA    2ED4
02ED8:  BCF    FA6.2
02EDA:  MOVF   00,W
02EDC:  IORWF  FF2,F
....................       delay_ms(10); 
02EDE:  MOVLW  0A
02EE0:  MOVLB  4
02EE2:  MOVWF  x8D
02EE4:  MOVLB  0
02EE6:  CALL   1B28
....................    } 
....................    if(Testerilizacionp[3]>9 || Testerilizacionp[3]<0){ 
02EEA:  BTFSC  xE9.7
02EEC:  BRA    2EF4
02EEE:  MOVF   xE9,W
02EF0:  SUBLW  09
02EF2:  BNC   2EFA
02EF4:  BTFSC  xE9.7
02EF6:  BRA    2EFA
02EF8:  BRA    2F34
....................       Testerilizacionp[3]=0; 
02EFA:  CLRF   xE9
....................       write_eeprom(3,0); 
02EFC:  CLRF   FAA
02EFE:  MOVLW  03
02F00:  MOVWF  FA9
02F02:  CLRF   FA8
02F04:  BCF    FA6.6
02F06:  BCF    FA6.7
02F08:  BSF    FA6.2
02F0A:  MOVF   FF2,W
02F0C:  MOVWF  00
02F0E:  BCF    FF2.6
02F10:  BCF    FF2.7
02F12:  MOVLB  F
02F14:  MOVLW  55
02F16:  MOVWF  FA7
02F18:  MOVLW  AA
02F1A:  MOVWF  FA7
02F1C:  BSF    FA6.1
02F1E:  BTFSC  FA6.1
02F20:  BRA    2F1E
02F22:  BCF    FA6.2
02F24:  MOVF   00,W
02F26:  IORWF  FF2,F
....................       delay_ms(10); 
02F28:  MOVLW  0A
02F2A:  MOVLB  4
02F2C:  MOVWF  x8D
02F2E:  MOVLB  0
02F30:  CALL   1B28
....................    } 
....................    if(Tsecadop[0]>9 || Tsecadop[0]<0){ 
02F34:  BTFSC  xEF.7
02F36:  BRA    2F3E
02F38:  MOVF   xEF,W
02F3A:  SUBLW  09
02F3C:  BNC   2F44
02F3E:  BTFSC  xEF.7
02F40:  BRA    2F44
02F42:  BRA    2F7E
....................       Tsecadop[0]=0; 
02F44:  CLRF   xEF
....................       write_eeprom(4,0); 
02F46:  CLRF   FAA
02F48:  MOVLW  04
02F4A:  MOVWF  FA9
02F4C:  CLRF   FA8
02F4E:  BCF    FA6.6
02F50:  BCF    FA6.7
02F52:  BSF    FA6.2
02F54:  MOVF   FF2,W
02F56:  MOVWF  00
02F58:  BCF    FF2.6
02F5A:  BCF    FF2.7
02F5C:  MOVLB  F
02F5E:  MOVLW  55
02F60:  MOVWF  FA7
02F62:  MOVLW  AA
02F64:  MOVWF  FA7
02F66:  BSF    FA6.1
02F68:  BTFSC  FA6.1
02F6A:  BRA    2F68
02F6C:  BCF    FA6.2
02F6E:  MOVF   00,W
02F70:  IORWF  FF2,F
....................       delay_ms(10); 
02F72:  MOVLW  0A
02F74:  MOVLB  4
02F76:  MOVWF  x8D
02F78:  MOVLB  0
02F7A:  CALL   1B28
....................    } 
....................    if(Tsecadop[1]>9 || Tsecadop[1]<0){ 
02F7E:  BTFSC  xF0.7
02F80:  BRA    2F88
02F82:  MOVF   xF0,W
02F84:  SUBLW  09
02F86:  BNC   2F8E
02F88:  BTFSC  xF0.7
02F8A:  BRA    2F8E
02F8C:  BRA    2FC8
....................       Tsecadop[1]=0; 
02F8E:  CLRF   xF0
....................       write_eeprom(5,0); 
02F90:  CLRF   FAA
02F92:  MOVLW  05
02F94:  MOVWF  FA9
02F96:  CLRF   FA8
02F98:  BCF    FA6.6
02F9A:  BCF    FA6.7
02F9C:  BSF    FA6.2
02F9E:  MOVF   FF2,W
02FA0:  MOVWF  00
02FA2:  BCF    FF2.6
02FA4:  BCF    FF2.7
02FA6:  MOVLB  F
02FA8:  MOVLW  55
02FAA:  MOVWF  FA7
02FAC:  MOVLW  AA
02FAE:  MOVWF  FA7
02FB0:  BSF    FA6.1
02FB2:  BTFSC  FA6.1
02FB4:  BRA    2FB2
02FB6:  BCF    FA6.2
02FB8:  MOVF   00,W
02FBA:  IORWF  FF2,F
....................       delay_ms(10); 
02FBC:  MOVLW  0A
02FBE:  MOVLB  4
02FC0:  MOVWF  x8D
02FC2:  MOVLB  0
02FC4:  CALL   1B28
....................    } 
....................    if(Tsecadop[2]>9 || Tsecadop[2]<0){ 
02FC8:  BTFSC  xF1.7
02FCA:  BRA    2FD2
02FCC:  MOVF   xF1,W
02FCE:  SUBLW  09
02FD0:  BNC   2FD8
02FD2:  BTFSC  xF1.7
02FD4:  BRA    2FD8
02FD6:  BRA    3012
....................       Tsecadop[2]=0; 
02FD8:  CLRF   xF1
....................       write_eeprom(6,0); 
02FDA:  CLRF   FAA
02FDC:  MOVLW  06
02FDE:  MOVWF  FA9
02FE0:  CLRF   FA8
02FE2:  BCF    FA6.6
02FE4:  BCF    FA6.7
02FE6:  BSF    FA6.2
02FE8:  MOVF   FF2,W
02FEA:  MOVWF  00
02FEC:  BCF    FF2.6
02FEE:  BCF    FF2.7
02FF0:  MOVLB  F
02FF2:  MOVLW  55
02FF4:  MOVWF  FA7
02FF6:  MOVLW  AA
02FF8:  MOVWF  FA7
02FFA:  BSF    FA6.1
02FFC:  BTFSC  FA6.1
02FFE:  BRA    2FFC
03000:  BCF    FA6.2
03002:  MOVF   00,W
03004:  IORWF  FF2,F
....................       delay_ms(10); 
03006:  MOVLW  0A
03008:  MOVLB  4
0300A:  MOVWF  x8D
0300C:  MOVLB  0
0300E:  CALL   1B28
....................    } 
....................    if(Tsecadop[3]>9 || Tsecadop[3]<0){ 
03012:  BTFSC  xF2.7
03014:  BRA    301C
03016:  MOVF   xF2,W
03018:  SUBLW  09
0301A:  BNC   3022
0301C:  BTFSC  xF2.7
0301E:  BRA    3022
03020:  BRA    305C
....................       Tsecadop[3]=0; 
03022:  CLRF   xF2
....................       write_eeprom(7,0); 
03024:  CLRF   FAA
03026:  MOVLW  07
03028:  MOVWF  FA9
0302A:  CLRF   FA8
0302C:  BCF    FA6.6
0302E:  BCF    FA6.7
03030:  BSF    FA6.2
03032:  MOVF   FF2,W
03034:  MOVWF  00
03036:  BCF    FF2.6
03038:  BCF    FF2.7
0303A:  MOVLB  F
0303C:  MOVLW  55
0303E:  MOVWF  FA7
03040:  MOVLW  AA
03042:  MOVWF  FA7
03044:  BSF    FA6.1
03046:  BTFSC  FA6.1
03048:  BRA    3046
0304A:  BCF    FA6.2
0304C:  MOVF   00,W
0304E:  IORWF  FF2,F
....................       delay_ms(10); 
03050:  MOVLW  0A
03052:  MOVLB  4
03054:  MOVWF  x8D
03056:  MOVLB  0
03058:  CALL   1B28
....................    } 
....................    if(Setpoint>134){ 
0305C:  MOVLB  3
0305E:  MOVF   x96,W
03060:  SUBLW  86
03062:  BC    30A4
....................       Setpoint=134; 
03064:  MOVLW  86
03066:  MOVWF  x96
....................       write_eeprom(8,134); 
03068:  CLRF   FAA
0306A:  MOVLW  08
0306C:  MOVWF  FA9
0306E:  MOVLW  86
03070:  MOVWF  FA8
03072:  BCF    FA6.6
03074:  BCF    FA6.7
03076:  BSF    FA6.2
03078:  MOVF   FF2,W
0307A:  MOVWF  00
0307C:  BCF    FF2.6
0307E:  BCF    FF2.7
03080:  MOVLB  F
03082:  MOVLW  55
03084:  MOVWF  FA7
03086:  MOVLW  AA
03088:  MOVWF  FA7
0308A:  BSF    FA6.1
0308C:  BTFSC  FA6.1
0308E:  BRA    308C
03090:  BCF    FA6.2
03092:  MOVF   00,W
03094:  IORWF  FF2,F
....................       delay_ms(10); 
03096:  MOVLW  0A
03098:  MOVLB  4
0309A:  MOVWF  x8D
0309C:  MOVLB  0
0309E:  CALL   1B28
030A2:  MOVLB  3
....................    } 
....................    if(Nivel>6){ 
030A4:  MOVF   xA5,F
030A6:  BNZ   30AE
030A8:  MOVF   xA4,W
030AA:  SUBLW  06
030AC:  BC    30F0
....................       Nivel=3; 
030AE:  CLRF   xA5
030B0:  MOVLW  03
030B2:  MOVWF  xA4
....................       write_eeprom(9,3); 
030B4:  CLRF   FAA
030B6:  MOVLW  09
030B8:  MOVWF  FA9
030BA:  MOVLW  03
030BC:  MOVWF  FA8
030BE:  BCF    FA6.6
030C0:  BCF    FA6.7
030C2:  BSF    FA6.2
030C4:  MOVF   FF2,W
030C6:  MOVWF  00
030C8:  BCF    FF2.6
030CA:  BCF    FF2.7
030CC:  MOVLB  F
030CE:  MOVLW  55
030D0:  MOVWF  FA7
030D2:  MOVLW  AA
030D4:  MOVWF  FA7
030D6:  BSF    FA6.1
030D8:  BTFSC  FA6.1
030DA:  BRA    30D8
030DC:  BCF    FA6.2
030DE:  MOVF   00,W
030E0:  IORWF  FF2,F
....................       delay_ms(10); 
030E2:  MOVLW  0A
030E4:  MOVLB  4
030E6:  MOVWF  x8D
030E8:  MOVLB  0
030EA:  CALL   1B28
030EE:  MOVLB  3
....................    } 
....................    if(Password[0]>9 || Password[0]<0){ 
030F0:  BTFSC  xB8.7
030F2:  BRA    30FA
030F4:  MOVF   xB8,W
030F6:  SUBLW  09
030F8:  BNC   3100
030FA:  BTFSC  xB8.7
030FC:  BRA    3100
030FE:  BRA    313C
....................       Password[0]=0; 
03100:  CLRF   xB8
....................       write_eeprom(10,0); 
03102:  CLRF   FAA
03104:  MOVLW  0A
03106:  MOVWF  FA9
03108:  CLRF   FA8
0310A:  BCF    FA6.6
0310C:  BCF    FA6.7
0310E:  BSF    FA6.2
03110:  MOVF   FF2,W
03112:  MOVWF  00
03114:  BCF    FF2.6
03116:  BCF    FF2.7
03118:  MOVLB  F
0311A:  MOVLW  55
0311C:  MOVWF  FA7
0311E:  MOVLW  AA
03120:  MOVWF  FA7
03122:  BSF    FA6.1
03124:  BTFSC  FA6.1
03126:  BRA    3124
03128:  BCF    FA6.2
0312A:  MOVF   00,W
0312C:  IORWF  FF2,F
....................       delay_ms(10); 
0312E:  MOVLW  0A
03130:  MOVLB  4
03132:  MOVWF  x8D
03134:  MOVLB  0
03136:  CALL   1B28
0313A:  MOVLB  3
....................    } 
....................    if(Password[1]>9 || Password[1]<0){ 
0313C:  BTFSC  xB9.7
0313E:  BRA    3146
03140:  MOVF   xB9,W
03142:  SUBLW  09
03144:  BNC   314C
03146:  BTFSC  xB9.7
03148:  BRA    314C
0314A:  BRA    3188
....................       Password[1]=0; 
0314C:  CLRF   xB9
....................       write_eeprom(11,0); 
0314E:  CLRF   FAA
03150:  MOVLW  0B
03152:  MOVWF  FA9
03154:  CLRF   FA8
03156:  BCF    FA6.6
03158:  BCF    FA6.7
0315A:  BSF    FA6.2
0315C:  MOVF   FF2,W
0315E:  MOVWF  00
03160:  BCF    FF2.6
03162:  BCF    FF2.7
03164:  MOVLB  F
03166:  MOVLW  55
03168:  MOVWF  FA7
0316A:  MOVLW  AA
0316C:  MOVWF  FA7
0316E:  BSF    FA6.1
03170:  BTFSC  FA6.1
03172:  BRA    3170
03174:  BCF    FA6.2
03176:  MOVF   00,W
03178:  IORWF  FF2,F
....................       delay_ms(10); 
0317A:  MOVLW  0A
0317C:  MOVLB  4
0317E:  MOVWF  x8D
03180:  MOVLB  0
03182:  CALL   1B28
03186:  MOVLB  3
....................    } 
....................    if(Password[2]>9 || Password[2]<0){ 
03188:  BTFSC  xBA.7
0318A:  BRA    3192
0318C:  MOVF   xBA,W
0318E:  SUBLW  09
03190:  BNC   3198
03192:  BTFSC  xBA.7
03194:  BRA    3198
03196:  BRA    31D4
....................       Password[2]=0; 
03198:  CLRF   xBA
....................       write_eeprom(12,0); 
0319A:  CLRF   FAA
0319C:  MOVLW  0C
0319E:  MOVWF  FA9
031A0:  CLRF   FA8
031A2:  BCF    FA6.6
031A4:  BCF    FA6.7
031A6:  BSF    FA6.2
031A8:  MOVF   FF2,W
031AA:  MOVWF  00
031AC:  BCF    FF2.6
031AE:  BCF    FF2.7
031B0:  MOVLB  F
031B2:  MOVLW  55
031B4:  MOVWF  FA7
031B6:  MOVLW  AA
031B8:  MOVWF  FA7
031BA:  BSF    FA6.1
031BC:  BTFSC  FA6.1
031BE:  BRA    31BC
031C0:  BCF    FA6.2
031C2:  MOVF   00,W
031C4:  IORWF  FF2,F
....................       delay_ms(10); 
031C6:  MOVLW  0A
031C8:  MOVLB  4
031CA:  MOVWF  x8D
031CC:  MOVLB  0
031CE:  CALL   1B28
031D2:  MOVLB  3
....................    } 
....................    if(Password[3]>9 || Password[3]<0){ 
031D4:  BTFSC  xBB.7
031D6:  BRA    31DE
031D8:  MOVF   xBB,W
031DA:  SUBLW  09
031DC:  BNC   31E4
031DE:  BTFSC  xBB.7
031E0:  BRA    31E4
031E2:  BRA    321E
....................       Password[3]=0; 
031E4:  CLRF   xBB
....................       write_eeprom(13,0); 
031E6:  CLRF   FAA
031E8:  MOVLW  0D
031EA:  MOVWF  FA9
031EC:  CLRF   FA8
031EE:  BCF    FA6.6
031F0:  BCF    FA6.7
031F2:  BSF    FA6.2
031F4:  MOVF   FF2,W
031F6:  MOVWF  00
031F8:  BCF    FF2.6
031FA:  BCF    FF2.7
031FC:  MOVLB  F
031FE:  MOVLW  55
03200:  MOVWF  FA7
03202:  MOVLW  AA
03204:  MOVWF  FA7
03206:  BSF    FA6.1
03208:  BTFSC  FA6.1
0320A:  BRA    3208
0320C:  BCF    FA6.2
0320E:  MOVF   00,W
03210:  IORWF  FF2,F
....................       delay_ms(10); 
03212:  MOVLW  0A
03214:  MOVLB  4
03216:  MOVWF  x8D
03218:  MOVLB  0
0321A:  CALL   1B28
....................    } 
....................    if(Ganancia>12.0 || Ganancia<1){ 
0321E:  MOVLB  4
03220:  CLRF   x7B
03222:  CLRF   x7A
03224:  MOVLW  40
03226:  MOVWF  x79
03228:  MOVLW  82
0322A:  MOVWF  x78
0322C:  MOVFF  33C,47F
03230:  MOVFF  33B,47E
03234:  MOVFF  33A,47D
03238:  MOVFF  339,47C
0323C:  MOVLB  0
0323E:  RCALL  2D46
03240:  BC    3264
03242:  MOVFF  33C,47B
03246:  MOVFF  33B,47A
0324A:  MOVFF  33A,479
0324E:  MOVFF  339,478
03252:  MOVLB  4
03254:  CLRF   x7F
03256:  CLRF   x7E
03258:  CLRF   x7D
0325A:  MOVLW  7F
0325C:  MOVWF  x7C
0325E:  MOVLB  0
03260:  RCALL  2D46
03262:  BNC   32AC
....................       Ganancia=12.0; 
03264:  MOVLB  3
03266:  CLRF   x3C
03268:  CLRF   x3B
0326A:  MOVLW  40
0326C:  MOVWF  x3A
0326E:  MOVLW  82
03270:  MOVWF  x39
....................       write_eeprom(20,12); 
03272:  CLRF   FAA
03274:  MOVLW  14
03276:  MOVWF  FA9
03278:  MOVLW  0C
0327A:  MOVWF  FA8
0327C:  BCF    FA6.6
0327E:  BCF    FA6.7
03280:  BSF    FA6.2
03282:  MOVF   FF2,W
03284:  MOVWF  00
03286:  BCF    FF2.6
03288:  BCF    FF2.7
0328A:  MOVLB  F
0328C:  MOVLW  55
0328E:  MOVWF  FA7
03290:  MOVLW  AA
03292:  MOVWF  FA7
03294:  BSF    FA6.1
03296:  BTFSC  FA6.1
03298:  BRA    3296
0329A:  BCF    FA6.2
0329C:  MOVF   00,W
0329E:  IORWF  FF2,F
....................       delay_ms(10); 
032A0:  MOVLW  0A
032A2:  MOVLB  4
032A4:  MOVWF  x8D
032A6:  MOVLB  0
032A8:  CALL   1B28
....................    } 
....................    if(Ajuste>100){ 
032AC:  MOVLB  3
032AE:  MOVF   x09,W
032B0:  SUBLW  64
032B2:  BC    32F0
....................       Ajuste=0; 
032B4:  CLRF   x09
....................       write_eeprom(21,0); 
032B6:  CLRF   FAA
032B8:  MOVLW  15
032BA:  MOVWF  FA9
032BC:  CLRF   FA8
032BE:  BCF    FA6.6
032C0:  BCF    FA6.7
032C2:  BSF    FA6.2
032C4:  MOVF   FF2,W
032C6:  MOVWF  00
032C8:  BCF    FF2.6
032CA:  BCF    FF2.7
032CC:  MOVLB  F
032CE:  MOVLW  55
032D0:  MOVWF  FA7
032D2:  MOVLW  AA
032D4:  MOVWF  FA7
032D6:  BSF    FA6.1
032D8:  BTFSC  FA6.1
032DA:  BRA    32D8
032DC:  BCF    FA6.2
032DE:  MOVF   00,W
032E0:  IORWF  FF2,F
....................       delay_ms(10); 
032E2:  MOVLW  0A
032E4:  MOVLB  4
032E6:  MOVWF  x8D
032E8:  MOVLB  0
032EA:  CALL   1B28
032EE:  MOVLB  3
....................    } 
....................    if(Ajusten>100){ 
032F0:  MOVF   x0A,W
032F2:  SUBLW  64
032F4:  BC    3332
....................       Ajusten=0; 
032F6:  CLRF   x0A
....................       write_eeprom(22,0); 
032F8:  CLRF   FAA
032FA:  MOVLW  16
032FC:  MOVWF  FA9
032FE:  CLRF   FA8
03300:  BCF    FA6.6
03302:  BCF    FA6.7
03304:  BSF    FA6.2
03306:  MOVF   FF2,W
03308:  MOVWF  00
0330A:  BCF    FF2.6
0330C:  BCF    FF2.7
0330E:  MOVLB  F
03310:  MOVLW  55
03312:  MOVWF  FA7
03314:  MOVLW  AA
03316:  MOVWF  FA7
03318:  BSF    FA6.1
0331A:  BTFSC  FA6.1
0331C:  BRA    331A
0331E:  BCF    FA6.2
03320:  MOVF   00,W
03322:  IORWF  FF2,F
....................       delay_ms(10); 
03324:  MOVLW  0A
03326:  MOVLB  4
03328:  MOVWF  x8D
0332A:  MOVLB  0
0332C:  CALL   1B28
03330:  MOVLB  3
....................    } 
....................    if(MediaMovil>80 || MediaMovil<20){ 
03332:  MOVF   x0B,W
03334:  SUBLW  50
03336:  BNC   333E
03338:  MOVF   x0B,W
0333A:  SUBLW  13
0333C:  BNC   337C
....................       MediaMovil=80; 
0333E:  MOVLW  50
03340:  MOVWF  x0B
....................       write_eeprom(24,80); 
03342:  CLRF   FAA
03344:  MOVLW  18
03346:  MOVWF  FA9
03348:  MOVLW  50
0334A:  MOVWF  FA8
0334C:  BCF    FA6.6
0334E:  BCF    FA6.7
03350:  BSF    FA6.2
03352:  MOVF   FF2,W
03354:  MOVWF  00
03356:  BCF    FF2.6
03358:  BCF    FF2.7
0335A:  MOVLB  F
0335C:  MOVLW  55
0335E:  MOVWF  FA7
03360:  MOVLW  AA
03362:  MOVWF  FA7
03364:  BSF    FA6.1
03366:  BTFSC  FA6.1
03368:  BRA    3366
0336A:  BCF    FA6.2
0336C:  MOVF   00,W
0336E:  IORWF  FF2,F
....................       delay_ms(10); 
03370:  MOVLW  0A
03372:  MOVLB  4
03374:  MOVWF  x8D
03376:  MOVLB  0
03378:  CALL   1B28
....................    } 
....................    if(Tciclo>10 || Tciclo<5){ 
0337C:  MOVLB  4
0337E:  CLRF   x7B
03380:  CLRF   x7A
03382:  MOVLW  20
03384:  MOVWF  x79
03386:  MOVLW  82
03388:  MOVWF  x78
0338A:  MOVFF  324,47F
0338E:  MOVFF  323,47E
03392:  MOVFF  322,47D
03396:  MOVFF  321,47C
0339A:  MOVLB  0
0339C:  RCALL  2D46
0339E:  BC    33C4
033A0:  MOVFF  324,47B
033A4:  MOVFF  323,47A
033A8:  MOVFF  322,479
033AC:  MOVFF  321,478
033B0:  MOVLB  4
033B2:  CLRF   x7F
033B4:  CLRF   x7E
033B6:  MOVLW  20
033B8:  MOVWF  x7D
033BA:  MOVLW  81
033BC:  MOVWF  x7C
033BE:  MOVLB  0
033C0:  RCALL  2D46
033C2:  BNC   340C
....................       Tciclo=10; 
033C4:  MOVLB  3
033C6:  CLRF   x24
033C8:  CLRF   x23
033CA:  MOVLW  20
033CC:  MOVWF  x22
033CE:  MOVLW  82
033D0:  MOVWF  x21
....................       write_eeprom(25,10); 
033D2:  CLRF   FAA
033D4:  MOVLW  19
033D6:  MOVWF  FA9
033D8:  MOVLW  0A
033DA:  MOVWF  FA8
033DC:  BCF    FA6.6
033DE:  BCF    FA6.7
033E0:  BSF    FA6.2
033E2:  MOVF   FF2,W
033E4:  MOVWF  00
033E6:  BCF    FF2.6
033E8:  BCF    FF2.7
033EA:  MOVLB  F
033EC:  MOVLW  55
033EE:  MOVWF  FA7
033F0:  MOVLW  AA
033F2:  MOVWF  FA7
033F4:  BSF    FA6.1
033F6:  BTFSC  FA6.1
033F8:  BRA    33F6
033FA:  BCF    FA6.2
033FC:  MOVF   00,W
033FE:  IORWF  FF2,F
....................       delay_ms(10); 
03400:  MOVLW  0A
03402:  MOVLB  4
03404:  MOVWF  x8D
03406:  MOVLB  0
03408:  CALL   1B28
....................    } 
....................    if(Integral>10.0 || Integral<1.0){ 
0340C:  MOVLB  4
0340E:  CLRF   x8A
03410:  MOVFF  36D,489
03414:  MOVLB  0
03416:  CALL   1B50
0341A:  MOVLB  4
0341C:  CLRF   x7B
0341E:  CLRF   x7A
03420:  MOVLW  20
03422:  MOVWF  x79
03424:  MOVLW  82
03426:  MOVWF  x78
03428:  MOVFF  03,47F
0342C:  MOVFF  02,47E
03430:  MOVFF  01,47D
03434:  MOVFF  00,47C
03438:  MOVLB  0
0343A:  RCALL  2D46
0343C:  BC    346E
0343E:  MOVLB  4
03440:  CLRF   x8A
03442:  MOVFF  36D,489
03446:  MOVLB  0
03448:  CALL   1B50
0344C:  MOVFF  03,47B
03450:  MOVFF  02,47A
03454:  MOVFF  01,479
03458:  MOVFF  00,478
0345C:  MOVLB  4
0345E:  CLRF   x7F
03460:  CLRF   x7E
03462:  CLRF   x7D
03464:  MOVLW  7F
03466:  MOVWF  x7C
03468:  MOVLB  0
0346A:  RCALL  2D46
0346C:  BNC   34AE
....................       Integral=1.0; 
0346E:  MOVLW  01
03470:  MOVLB  3
03472:  MOVWF  x6D
....................       write_eeprom(26,1); 
03474:  CLRF   FAA
03476:  MOVLW  1A
03478:  MOVWF  FA9
0347A:  MOVLW  01
0347C:  MOVWF  FA8
0347E:  BCF    FA6.6
03480:  BCF    FA6.7
03482:  BSF    FA6.2
03484:  MOVF   FF2,W
03486:  MOVWF  00
03488:  BCF    FF2.6
0348A:  BCF    FF2.7
0348C:  MOVLB  F
0348E:  MOVLW  55
03490:  MOVWF  FA7
03492:  MOVLW  AA
03494:  MOVWF  FA7
03496:  BSF    FA6.1
03498:  BTFSC  FA6.1
0349A:  BRA    3498
0349C:  BCF    FA6.2
0349E:  MOVF   00,W
034A0:  IORWF  FF2,F
....................       delay_ms(10); 
034A2:  MOVLW  0A
034A4:  MOVLB  4
034A6:  MOVWF  x8D
034A8:  MOVLB  0
034AA:  CALL   1B28
....................    } 
....................    if(Derivativo>20.0 || Derivativo<5){ 
034AE:  MOVLB  4
034B0:  CLRF   x8A
034B2:  MOVFF  36E,489
034B6:  MOVLB  0
034B8:  CALL   1B50
034BC:  MOVLB  4
034BE:  CLRF   x7B
034C0:  CLRF   x7A
034C2:  MOVLW  20
034C4:  MOVWF  x79
034C6:  MOVLW  83
034C8:  MOVWF  x78
034CA:  MOVFF  03,47F
034CE:  MOVFF  02,47E
034D2:  MOVFF  01,47D
034D6:  MOVFF  00,47C
034DA:  MOVLB  0
034DC:  RCALL  2D46
034DE:  BC    34EA
034E0:  MOVLB  3
034E2:  MOVF   x6E,W
034E4:  SUBLW  04
034E6:  BNC   352A
034E8:  MOVLB  0
....................       Derivativo=15.0; 
034EA:  MOVLW  0F
034EC:  MOVLB  3
034EE:  MOVWF  x6E
....................       write_eeprom(27,15); 
034F0:  CLRF   FAA
034F2:  MOVLW  1B
034F4:  MOVWF  FA9
034F6:  MOVLW  0F
034F8:  MOVWF  FA8
034FA:  BCF    FA6.6
034FC:  BCF    FA6.7
034FE:  BSF    FA6.2
03500:  MOVF   FF2,W
03502:  MOVWF  00
03504:  BCF    FF2.6
03506:  BCF    FF2.7
03508:  MOVLB  F
0350A:  MOVLW  55
0350C:  MOVWF  FA7
0350E:  MOVLW  AA
03510:  MOVWF  FA7
03512:  BSF    FA6.1
03514:  BTFSC  FA6.1
03516:  BRA    3514
03518:  BCF    FA6.2
0351A:  MOVF   00,W
0351C:  IORWF  FF2,F
....................       delay_ms(10); 
0351E:  MOVLW  0A
03520:  MOVLB  4
03522:  MOVWF  x8D
03524:  MOVLB  0
03526:  CALL   1B28
....................    } 
....................    if(Gain>50){ 
0352A:  MOVLB  4
0352C:  CLRF   x7B
0352E:  CLRF   x7A
03530:  MOVLW  48
03532:  MOVWF  x79
03534:  MOVLW  84
03536:  MOVWF  x78
03538:  MOVFF  2D6,47F
0353C:  MOVFF  2D5,47E
03540:  MOVFF  2D4,47D
03544:  MOVFF  2D3,47C
03548:  MOVLB  0
0354A:  CALL   2D46
0354E:  BNC   35D6
....................       Gain=40.2; 
03550:  MOVLW  CD
03552:  MOVLB  2
03554:  MOVWF  xD6
03556:  MOVLW  CC
03558:  MOVWF  xD5
0355A:  MOVLW  20
0355C:  MOVWF  xD4
0355E:  MOVLW  84
03560:  MOVWF  xD3
....................       write_eeprom(28,40); 
03562:  CLRF   FAA
03564:  MOVLW  1C
03566:  MOVWF  FA9
03568:  MOVLW  28
0356A:  MOVWF  FA8
0356C:  BCF    FA6.6
0356E:  BCF    FA6.7
03570:  BSF    FA6.2
03572:  MOVF   FF2,W
03574:  MOVWF  00
03576:  BCF    FF2.6
03578:  BCF    FF2.7
0357A:  MOVLB  F
0357C:  MOVLW  55
0357E:  MOVWF  FA7
03580:  MOVLW  AA
03582:  MOVWF  FA7
03584:  BSF    FA6.1
03586:  BTFSC  FA6.1
03588:  BRA    3586
0358A:  BCF    FA6.2
0358C:  MOVF   00,W
0358E:  IORWF  FF2,F
....................       delay_ms(10); 
03590:  MOVLW  0A
03592:  MOVLB  4
03594:  MOVWF  x8D
03596:  MOVLB  0
03598:  CALL   1B28
....................       write_eeprom(29,2); 
0359C:  CLRF   FAA
0359E:  MOVLW  1D
035A0:  MOVWF  FA9
035A2:  MOVLW  02
035A4:  MOVWF  FA8
035A6:  BCF    FA6.6
035A8:  BCF    FA6.7
035AA:  BSF    FA6.2
035AC:  MOVF   FF2,W
035AE:  MOVWF  00
035B0:  BCF    FF2.6
035B2:  BCF    FF2.7
035B4:  MOVLB  F
035B6:  MOVLW  55
035B8:  MOVWF  FA7
035BA:  MOVLW  AA
035BC:  MOVWF  FA7
035BE:  BSF    FA6.1
035C0:  BTFSC  FA6.1
035C2:  BRA    35C0
035C4:  BCF    FA6.2
035C6:  MOVF   00,W
035C8:  IORWF  FF2,F
....................       delay_ms(10); 
035CA:  MOVLW  0A
035CC:  MOVLB  4
035CE:  MOVWF  x8D
035D0:  MOVLB  0
035D2:  CALL   1B28
....................    } 
....................    if(R1>6400){ 
035D6:  MOVLB  4
035D8:  CLRF   x7B
035DA:  CLRF   x7A
035DC:  MOVLW  48
035DE:  MOVWF  x79
035E0:  MOVLW  8B
035E2:  MOVWF  x78
035E4:  MOVFF  2E2,47F
035E8:  MOVFF  2E1,47E
035EC:  MOVFF  2E0,47D
035F0:  MOVFF  2DF,47C
035F4:  MOVLB  0
035F6:  CALL   2D46
035FA:  BNC   3680
....................       R1=6200; 
035FC:  MOVLB  2
035FE:  CLRF   xE2
03600:  MOVLW  C0
03602:  MOVWF  xE1
03604:  MOVLW  41
03606:  MOVWF  xE0
03608:  MOVLW  8B
0360A:  MOVWF  xDF
....................       write_eeprom(30,0x38); 
0360C:  CLRF   FAA
0360E:  MOVLW  1E
03610:  MOVWF  FA9
03612:  MOVLW  38
03614:  MOVWF  FA8
03616:  BCF    FA6.6
03618:  BCF    FA6.7
0361A:  BSF    FA6.2
0361C:  MOVF   FF2,W
0361E:  MOVWF  00
03620:  BCF    FF2.6
03622:  BCF    FF2.7
03624:  MOVLB  F
03626:  MOVLW  55
03628:  MOVWF  FA7
0362A:  MOVLW  AA
0362C:  MOVWF  FA7
0362E:  BSF    FA6.1
03630:  BTFSC  FA6.1
03632:  BRA    3630
03634:  BCF    FA6.2
03636:  MOVF   00,W
03638:  IORWF  FF2,F
....................       delay_ms(10); 
0363A:  MOVLW  0A
0363C:  MOVLB  4
0363E:  MOVWF  x8D
03640:  MOVLB  0
03642:  CALL   1B28
....................       write_eeprom(31,0x18); 
03646:  CLRF   FAA
03648:  MOVLW  1F
0364A:  MOVWF  FA9
0364C:  MOVLW  18
0364E:  MOVWF  FA8
03650:  BCF    FA6.6
03652:  BCF    FA6.7
03654:  BSF    FA6.2
03656:  MOVF   FF2,W
03658:  MOVWF  00
0365A:  BCF    FF2.6
0365C:  BCF    FF2.7
0365E:  MOVLB  F
03660:  MOVLW  55
03662:  MOVWF  FA7
03664:  MOVLW  AA
03666:  MOVWF  FA7
03668:  BSF    FA6.1
0366A:  BTFSC  FA6.1
0366C:  BRA    366A
0366E:  BCF    FA6.2
03670:  MOVF   00,W
03672:  IORWF  FF2,F
....................       delay_ms(10); 
03674:  MOVLW  0A
03676:  MOVLB  4
03678:  MOVWF  x8D
0367A:  MOVLB  0
0367C:  CALL   1B28
....................    } 
....................    if(RPT100>2.0){ 
03680:  MOVLB  4
03682:  CLRF   x7B
03684:  CLRF   x7A
03686:  CLRF   x79
03688:  MOVLW  80
0368A:  MOVWF  x78
0368C:  MOVFF  2DA,47F
03690:  MOVFF  2D9,47E
03694:  MOVFF  2D8,47D
03698:  MOVFF  2D7,47C
0369C:  MOVLB  0
0369E:  CALL   2D46
036A2:  BNC   3722
....................       RPT100=0.5; 
036A4:  MOVLB  2
036A6:  CLRF   xDA
036A8:  CLRF   xD9
036AA:  CLRF   xD8
036AC:  MOVLW  7E
036AE:  MOVWF  xD7
....................       write_eeprom(32,0); 
036B0:  CLRF   FAA
036B2:  MOVLW  20
036B4:  MOVWF  FA9
036B6:  CLRF   FA8
036B8:  BCF    FA6.6
036BA:  BCF    FA6.7
036BC:  BSF    FA6.2
036BE:  MOVF   FF2,W
036C0:  MOVWF  00
036C2:  BCF    FF2.6
036C4:  BCF    FF2.7
036C6:  MOVLB  F
036C8:  MOVLW  55
036CA:  MOVWF  FA7
036CC:  MOVLW  AA
036CE:  MOVWF  FA7
036D0:  BSF    FA6.1
036D2:  BTFSC  FA6.1
036D4:  BRA    36D2
036D6:  BCF    FA6.2
036D8:  MOVF   00,W
036DA:  IORWF  FF2,F
....................       delay_ms(10); 
036DC:  MOVLW  0A
036DE:  MOVLB  4
036E0:  MOVWF  x8D
036E2:  MOVLB  0
036E4:  CALL   1B28
....................       write_eeprom(33,5); 
036E8:  CLRF   FAA
036EA:  MOVLW  21
036EC:  MOVWF  FA9
036EE:  MOVLW  05
036F0:  MOVWF  FA8
036F2:  BCF    FA6.6
036F4:  BCF    FA6.7
036F6:  BSF    FA6.2
036F8:  MOVF   FF2,W
036FA:  MOVWF  00
036FC:  BCF    FF2.6
036FE:  BCF    FF2.7
03700:  MOVLB  F
03702:  MOVLW  55
03704:  MOVWF  FA7
03706:  MOVLW  AA
03708:  MOVWF  FA7
0370A:  BSF    FA6.1
0370C:  BTFSC  FA6.1
0370E:  BRA    370C
03710:  BCF    FA6.2
03712:  MOVF   00,W
03714:  IORWF  FF2,F
....................       delay_ms(10); 
03716:  MOVLW  0A
03718:  MOVLB  4
0371A:  MOVWF  x8D
0371C:  MOVLB  0
0371E:  CALL   1B28
....................    } 
....................    if(Ciclos>60000){ 
03722:  MOVLB  3
03724:  MOVF   xAD,W
03726:  SUBLW  E9
03728:  BC    37AA
0372A:  XORLW  FF
0372C:  BNZ   3734
0372E:  MOVF   xAC,W
03730:  SUBLW  60
03732:  BC    37AA
....................       Ciclos=0; 
03734:  CLRF   xAD
03736:  CLRF   xAC
....................       write_eeprom(37,0); 
03738:  CLRF   FAA
0373A:  MOVLW  25
0373C:  MOVWF  FA9
0373E:  CLRF   FA8
03740:  BCF    FA6.6
03742:  BCF    FA6.7
03744:  BSF    FA6.2
03746:  MOVF   FF2,W
03748:  MOVWF  00
0374A:  BCF    FF2.6
0374C:  BCF    FF2.7
0374E:  MOVLB  F
03750:  MOVLW  55
03752:  MOVWF  FA7
03754:  MOVLW  AA
03756:  MOVWF  FA7
03758:  BSF    FA6.1
0375A:  BTFSC  FA6.1
0375C:  BRA    375A
0375E:  BCF    FA6.2
03760:  MOVF   00,W
03762:  IORWF  FF2,F
....................       delay_ms(10); 
03764:  MOVLW  0A
03766:  MOVLB  4
03768:  MOVWF  x8D
0376A:  MOVLB  0
0376C:  CALL   1B28
....................       write_eeprom(38,0); 
03770:  CLRF   FAA
03772:  MOVLW  26
03774:  MOVWF  FA9
03776:  CLRF   FA8
03778:  BCF    FA6.6
0377A:  BCF    FA6.7
0377C:  BSF    FA6.2
0377E:  MOVF   FF2,W
03780:  MOVWF  00
03782:  BCF    FF2.6
03784:  BCF    FF2.7
03786:  MOVLB  F
03788:  MOVLW  55
0378A:  MOVWF  FA7
0378C:  MOVLW  AA
0378E:  MOVWF  FA7
03790:  BSF    FA6.1
03792:  BTFSC  FA6.1
03794:  BRA    3792
03796:  BCF    FA6.2
03798:  MOVF   00,W
0379A:  IORWF  FF2,F
....................       delay_ms(10); 
0379C:  MOVLW  0A
0379E:  MOVLB  4
037A0:  MOVWF  x8D
037A2:  MOVLB  0
037A4:  CALL   1B28
037A8:  MOVLB  3
....................    } 
....................    if(TTrampa>100 || Ttrampa<50){ 
037AA:  MOVF   x0C,W
037AC:  SUBLW  64
037AE:  BNC   37B6
037B0:  MOVF   x0C,W
037B2:  SUBLW  31
037B4:  BNC   37F6
....................       TTrampa=80; 
037B6:  MOVLW  50
037B8:  MOVWF  x0C
....................       write_eeprom(39,80); 
037BA:  CLRF   FAA
037BC:  MOVLW  27
037BE:  MOVWF  FA9
037C0:  MOVLW  50
037C2:  MOVWF  FA8
037C4:  BCF    FA6.6
037C6:  BCF    FA6.7
037C8:  BSF    FA6.2
037CA:  MOVF   FF2,W
037CC:  MOVWF  00
037CE:  BCF    FF2.6
037D0:  BCF    FF2.7
037D2:  MOVLB  F
037D4:  MOVLW  55
037D6:  MOVWF  FA7
037D8:  MOVLW  AA
037DA:  MOVWF  FA7
037DC:  BSF    FA6.1
037DE:  BTFSC  FA6.1
037E0:  BRA    37DE
037E2:  BCF    FA6.2
037E4:  MOVF   00,W
037E6:  IORWF  FF2,F
....................       delay_ms(10); 
037E8:  MOVLW  0A
037EA:  MOVLB  4
037EC:  MOVWF  x8D
037EE:  MOVLB  0
037F0:  CALL   1B28
037F4:  MOVLB  3
....................    } 
....................    if(ActivaImpresion>1){ 
037F6:  MOVF   x88,W
037F8:  SUBLW  01
037FA:  BC    383C
....................       ActivaImpresion=1; 
037FC:  MOVLW  01
037FE:  MOVWF  x88
....................       write_eeprom(40,1); 
03800:  CLRF   FAA
03802:  MOVLW  28
03804:  MOVWF  FA9
03806:  MOVLW  01
03808:  MOVWF  FA8
0380A:  BCF    FA6.6
0380C:  BCF    FA6.7
0380E:  BSF    FA6.2
03810:  MOVF   FF2,W
03812:  MOVWF  00
03814:  BCF    FF2.6
03816:  BCF    FF2.7
03818:  MOVLB  F
0381A:  MOVLW  55
0381C:  MOVWF  FA7
0381E:  MOVLW  AA
03820:  MOVWF  FA7
03822:  BSF    FA6.1
03824:  BTFSC  FA6.1
03826:  BRA    3824
03828:  BCF    FA6.2
0382A:  MOVF   00,W
0382C:  IORWF  FF2,F
....................       delay_ms(10); 
0382E:  MOVLW  0A
03830:  MOVLB  4
03832:  MOVWF  x8D
03834:  MOVLB  0
03836:  CALL   1B28
0383A:  MOVLB  3
....................    } 
....................    if(timpresion>30){ 
0383C:  MOVF   x89,W
0383E:  SUBLW  1E
03840:  BC    3882
....................       timpresion=2; 
03842:  MOVLW  02
03844:  MOVWF  x89
....................       write_eeprom(41,2); 
03846:  CLRF   FAA
03848:  MOVLW  29
0384A:  MOVWF  FA9
0384C:  MOVLW  02
0384E:  MOVWF  FA8
03850:  BCF    FA6.6
03852:  BCF    FA6.7
03854:  BSF    FA6.2
03856:  MOVF   FF2,W
03858:  MOVWF  00
0385A:  BCF    FF2.6
0385C:  BCF    FF2.7
0385E:  MOVLB  F
03860:  MOVLW  55
03862:  MOVWF  FA7
03864:  MOVLW  AA
03866:  MOVWF  FA7
03868:  BSF    FA6.1
0386A:  BTFSC  FA6.1
0386C:  BRA    386A
0386E:  BCF    FA6.2
03870:  MOVF   00,W
03872:  IORWF  FF2,F
....................       delay_ms(10); 
03874:  MOVLW  0A
03876:  MOVLB  4
03878:  MOVWF  x8D
0387A:  MOVLB  0
0387C:  CALL   1B28
03880:  MOVLB  3
....................    } 
....................    if(Atmosferica>100 || Atmosferica<50){ 
03882:  MOVF   xE3,W
03884:  SUBLW  64
03886:  BNC   388E
03888:  MOVF   xE3,W
0388A:  SUBLW  31
0388C:  BNC   38CE
....................       Atmosferica=72; 
0388E:  MOVLW  48
03890:  MOVWF  xE3
....................       write_eeprom(46,72); 
03892:  CLRF   FAA
03894:  MOVLW  2E
03896:  MOVWF  FA9
03898:  MOVLW  48
0389A:  MOVWF  FA8
0389C:  BCF    FA6.6
0389E:  BCF    FA6.7
038A0:  BSF    FA6.2
038A2:  MOVF   FF2,W
038A4:  MOVWF  00
038A6:  BCF    FF2.6
038A8:  BCF    FF2.7
038AA:  MOVLB  F
038AC:  MOVLW  55
038AE:  MOVWF  FA7
038B0:  MOVLW  AA
038B2:  MOVWF  FA7
038B4:  BSF    FA6.1
038B6:  BTFSC  FA6.1
038B8:  BRA    38B6
038BA:  BCF    FA6.2
038BC:  MOVF   00,W
038BE:  IORWF  FF2,F
....................       delay_ms(10); 
038C0:  MOVLW  0A
038C2:  MOVLB  4
038C4:  MOVWF  x8D
038C6:  MOVLB  0
038C8:  CALL   1B28
038CC:  MOVLB  3
....................    } 
....................    if(sg1==10){ 
038CE:  MOVF   xE6,W
038D0:  SUBLW  0A
038D2:  BNZ   38EA
....................       G1=G1*(-1); 
038D4:  MOVFF  3E4,476
038D8:  MOVLW  FF
038DA:  MOVLB  4
038DC:  MOVWF  x77
038DE:  MOVLB  0
038E0:  CALL   2DC0
038E4:  MOVFF  01,3E4
038E8:  MOVLB  3
....................    } 
....................    if(sg2==10){ 
038EA:  MOVF   xE7,W
038EC:  SUBLW  0A
038EE:  BNZ   3906
....................       G2=G2*(-1); 
038F0:  MOVFF  3E5,476
038F4:  MOVLW  FF
038F6:  MOVLB  4
038F8:  MOVWF  x77
038FA:  MOVLB  0
038FC:  CALL   2DC0
03900:  MOVFF  01,3E5
03904:  MOVLB  3
....................    } 
.................... } 
03906:  MOVLB  0
03908:  GOTO   7DE2 (RETURN)
....................  
.................... void LeeDisplay(void){ 
....................    if(Dato_Exitoso==5){ 
*
04380:  MOVLB  3
04382:  MOVF   x8C,W
04384:  SUBLW  05
04386:  BTFSS  FD8.2
04388:  BRA    44FE
....................          RX_Buffer[0]=RX_Buffer2[0]; 
0438A:  MOVFF  3B,30
....................          RX_Buffer[1]=RX_Buffer2[1]; 
0438E:  MOVFF  3C,31
....................          RX_Buffer[2]=RX_Buffer2[2]; 
04392:  MOVFF  3D,32
....................          RX_Buffer[3]=RX_Buffer2[3]; 
04396:  MOVFF  3E,33
....................          RX_Buffer[4]=RX_Buffer2[4]; 
0439A:  MOVFF  3F,34
....................          RX_Buffer[5]=RX_Buffer2[5]; 
0439E:  MOVFF  40,35
....................          RX_Buffer[6]=RX_Buffer2[6]; 
043A2:  MOVFF  41,36
....................          RX_Buffer[7]=RX_Buffer2[7]; 
043A6:  MOVFF  42,37
....................          RX_Buffer[8]=RX_Buffer2[8]; 
043AA:  MOVFF  43,38
....................          RX_Buffer[9]=RX_Buffer2[9]; 
043AE:  MOVFF  44,39
....................           
....................       if(RX_Buffer[3]==0x01){// Pregunta por la pagina en la que esta el display,01 es Contrasea de Acceso 
043B2:  DECFSZ 33,W
043B4:  BRA    43C4
....................          Menu=0; 
043B6:  CLRF   x8F
....................          if(MenuAntt!=Menu) 
043B8:  MOVF   x8F,W
043BA:  SUBWF  x91,W
043BC:  BZ    43C2
....................             MenuAntt=Menu; 
043BE:  MOVFF  38F,391
....................       }else if(RX_Buffer[3]==0x02){//02 es Menu Principal con PantallaPriincipal=0, y con PantallaPrincipal=1 es Ciclo Libre 
043C2:  BRA    44FC
043C4:  MOVF   33,W
043C6:  SUBLW  02
043C8:  BNZ   43DA
....................          Menu=1; 
043CA:  MOVLW  01
043CC:  MOVWF  x8F
....................          if(MenuAntt!=Menu) 
043CE:  MOVF   x8F,W
043D0:  SUBWF  x91,W
043D2:  BZ    43D8
....................             MenuAntt=Menu; 
043D4:  MOVFF  38F,391
....................       }else if(RX_Buffer[3]==0x03){//03 es Tiempo Esterilizacion 
043D8:  BRA    44FC
043DA:  MOVF   33,W
043DC:  SUBLW  03
043DE:  BNZ   43F0
....................          Menu=2; 
043E0:  MOVLW  02
043E2:  MOVWF  x8F
....................          if(MenuAntt!=Menu) 
043E4:  MOVF   x8F,W
043E6:  SUBWF  x91,W
043E8:  BZ    43EE
....................             MenuAntt=Menu; 
043EA:  MOVFF  38F,391
....................       }else if(RX_Buffer[3]==0x04){//04 es Tiempo de Secado 
043EE:  BRA    44FC
043F0:  MOVF   33,W
043F2:  SUBLW  04
043F4:  BNZ   4406
....................          Menu=3; 
043F6:  MOVLW  03
043F8:  MOVWF  x8F
....................          if(MenuAntt!=Menu) 
043FA:  MOVF   x8F,W
043FC:  SUBWF  x91,W
043FE:  BZ    4404
....................             MenuAntt=Menu; 
04400:  MOVFF  38F,391
....................       }else if(RX_Buffer[3]==0x05){//05 es Temperatura 
04404:  BRA    44FC
04406:  MOVF   33,W
04408:  SUBLW  05
0440A:  BNZ   441C
....................          Menu=4; 
0440C:  MOVLW  04
0440E:  MOVWF  x8F
....................          if(MenuAntt!=Menu) 
04410:  MOVF   x8F,W
04412:  SUBWF  x91,W
04414:  BZ    441A
....................             MenuAntt=Menu; 
04416:  MOVFF  38F,391
....................       }else if(RX_Buffer[3]==0x06){//06 es Nivel 
0441A:  BRA    44FC
0441C:  MOVF   33,W
0441E:  SUBLW  06
04420:  BNZ   4432
....................          Menu=5; 
04422:  MOVLW  05
04424:  MOVWF  x8F
....................          if(MenuAntt!=Menu) 
04426:  MOVF   x8F,W
04428:  SUBWF  x91,W
0442A:  BZ    4430
....................             MenuAntt=Menu; 
0442C:  MOVFF  38F,391
....................       }else if(RX_Buffer[3]==0x07){//07 es Test de Componentes 
04430:  BRA    44FC
04432:  MOVF   33,W
04434:  SUBLW  07
04436:  BNZ   4448
....................          Menu=6; 
04438:  MOVLW  06
0443A:  MOVWF  x8F
....................          if(MenuAntt!=Menu) 
0443C:  MOVF   x8F,W
0443E:  SUBWF  x91,W
04440:  BZ    4446
....................             MenuAntt=Menu; 
04442:  MOVFF  38F,391
....................       }else if(RX_Buffer[3]==0x08){//08 es Fecha y hora 
04446:  BRA    44FC
04448:  MOVF   33,W
0444A:  SUBLW  08
0444C:  BNZ   445E
....................          Menu=7; 
0444E:  MOVLW  07
04450:  MOVWF  x8F
....................          if(MenuAntt!=Menu) 
04452:  MOVF   x8F,W
04454:  SUBWF  x91,W
04456:  BZ    445C
....................             MenuAntt=Menu; 
04458:  MOVFF  38F,391
....................       }else if(RX_Buffer[3]==0x09){//09 es Ciclos Personalizados 
0445C:  BRA    44FC
0445E:  MOVF   33,W
04460:  SUBLW  09
04462:  BNZ   4474
....................          Menu=8; 
04464:  MOVLW  08
04466:  MOVWF  x8F
....................          if(MenuAntt!=Menu) 
04468:  MOVF   x8F,W
0446A:  SUBWF  x91,W
0446C:  BZ    4472
....................             MenuAntt=Menu; 
0446E:  MOVFF  38F,391
....................       }else if(RX_Buffer[3]==0x0d){//0d es Ciclos 
04472:  BRA    44FC
04474:  MOVF   33,W
04476:  SUBLW  0D
04478:  BNZ   448A
....................          Menu=12; 
0447A:  MOVLW  0C
0447C:  MOVWF  x8F
....................          if(MenuAntt!=Menu) 
0447E:  MOVF   x8F,W
04480:  SUBWF  x91,W
04482:  BZ    4488
....................             MenuAntt=Menu; 
04484:  MOVFF  38F,391
....................       }else if(RX_Buffer[3]==0x0f){//0f es Recibe caracteres de contrasea desde display 
04488:  BRA    44FC
0448A:  MOVF   33,W
0448C:  SUBLW  0F
0448E:  BNZ   4492
....................           
....................       }else if(RX_Buffer[3]==0x1a){//1a es Menu de Funcionamiento 
04490:  BRA    44FC
04492:  MOVF   33,W
04494:  SUBLW  1A
04496:  BNZ   44A8
....................          Menu=20; 
04498:  MOVLW  14
0449A:  MOVWF  x8F
....................          if(MenuAntt!=Menu) 
0449C:  MOVF   x8F,W
0449E:  SUBWF  x91,W
044A0:  BZ    44A6
....................             MenuAntt=Menu; 
044A2:  MOVFF  38F,391
....................       }else if(RX_Buffer[3]==0x1b){//1b es Menu de clave correcta 
044A6:  BRA    44FC
044A8:  MOVF   33,W
044AA:  SUBLW  1B
044AC:  BNZ   44BE
....................          Menu=15; 
044AE:  MOVLW  0F
044B0:  MOVWF  x8F
....................          if(MenuAntt!=Menu) 
044B2:  MOVF   x8F,W
044B4:  SUBWF  x91,W
044B6:  BZ    44BC
....................             MenuAntt=Menu; 
044B8:  MOVFF  38F,391
....................       }else if(RX_Buffer[3]==0x1c){//1c es Menu de clave incorrecta 
044BC:  BRA    44FC
044BE:  MOVF   33,W
044C0:  SUBLW  1C
044C2:  BNZ   44D4
....................          Menu=16; 
044C4:  MOVLW  10
044C6:  MOVWF  x8F
....................          if(MenuAntt!=Menu) 
044C8:  MOVF   x8F,W
044CA:  SUBWF  x91,W
044CC:  BZ    44D2
....................             MenuAntt=Menu; 
044CE:  MOVFF  38F,391
....................       }else if(RX_Buffer[3]==0x2c){//2c es Menu de Configuracion de Parametros 
044D2:  BRA    44FC
044D4:  MOVF   33,W
044D6:  SUBLW  2C
044D8:  BNZ   44EA
....................          Menu=100; 
044DA:  MOVLW  64
044DC:  MOVWF  x8F
....................          if(MenuAntt!=Menu) 
044DE:  MOVF   x8F,W
044E0:  SUBWF  x91,W
044E2:  BZ    44E8
....................             MenuAntt=Menu; 
044E4:  MOVFF  38F,391
....................       }else if(RX_Buffer[3]==0xcc){//cc es Menu de Bienvenida 
044E8:  BRA    44FC
044EA:  MOVF   33,W
044EC:  SUBLW  CC
044EE:  BNZ   44FC
....................          Menu=240; 
044F0:  MOVLW  F0
044F2:  MOVWF  x8F
....................          if(MenuAntt!=240) 
044F4:  MOVF   x91,W
044F6:  SUBLW  F0
044F8:  BZ    44FC
....................             reset_cpu(); 
044FA:  RESET
....................       } 
....................    }else{ 
044FC:  BRA    450A
....................       for(z=0;z<RX_BUFFER_SIZE;z++){ 
044FE:  CLRF   x8E
04500:  MOVF   x8E,W
04502:  SUBLW  09
04504:  BNC   450A
....................             //Rx_Buffer[z]=0; 
....................             //Rx_Buffer2[z]=0; 
....................          } 
04506:  INCF   x8E,F
04508:  BRA    4500
....................    } 
.................... } 
0450A:  MOVLB  0
0450C:  GOTO   807C (RETURN)
....................  
.................... void ActivaAlarma(int8 Tipo){ 
....................     
....................    if(tsilencio>12000){ 
*
04934:  MOVLB  3
04936:  MOVF   xC8,W
04938:  SUBLW  2D
0493A:  BC    494E
0493C:  XORLW  FF
0493E:  BNZ   4946
04940:  MOVF   xC7,W
04942:  SUBLW  E0
04944:  BC    494E
....................       tsilencio=0; 
04946:  CLRF   xC8
04948:  CLRF   xC7
....................       flagSilencio=OFF; 
0494A:  MOVLB  0
0494C:  BCF    xD3.5
....................    } 
....................     
....................    if(Tipo==1){ // Alarma por Error 
0494E:  MOVLB  4
04950:  DECFSZ x74,W
04952:  BRA    49AA
....................    if(UP || DOWN || RIGHT || LEFT) 
04954:  BSF    F93.3
04956:  BTFSS  F81.3
04958:  BRA    496C
0495A:  BSF    F93.2
0495C:  BTFSS  F81.2
0495E:  BRA    496C
04960:  BSF    F93.1
04962:  BTFSS  F81.1
04964:  BRA    496C
04966:  BSF    F93.0
04968:  BTFSC  F81.0
0496A:  BRA    4970
....................       flagSilencio=ON; 
0496C:  MOVLB  0
0496E:  BSF    xD3.5
....................        
....................       if(!flagSilencio){ 
04970:  MOVLB  0
04972:  BTFSC  xD3.5
04974:  BRA    49A0
....................          flagAlarma=1; 
04976:  BSF    xD3.3
....................          if(tbuzzer>200){ 
04978:  MOVLB  3
0497A:  MOVF   xC6,F
0497C:  BNZ   4984
0497E:  MOVF   xC5,W
04980:  SUBLW  C8
04982:  BC    499C
....................             tbuzzer=0; 
04984:  CLRF   xC6
04986:  CLRF   xC5
....................             flagBuzzer=!flagBuzzer; 
04988:  MOVLB  0
0498A:  BTG    xD3.4
....................             if(flagBuzzer) 
0498C:  BTFSS  xD3.4
0498E:  BRA    4996
....................                Buzzer_on; 
04990:  BSF    F8C.7
04992:  BCF    F95.7
....................             else 
04994:  BRA    499A
....................                Buzzer_off; 
04996:  BCF    F8C.7
04998:  BCF    F95.7
0499A:  MOVLB  3
....................          } 
....................       }else{ 
0499C:  BRA    49A6
0499E:  MOVLB  0
....................          Buzzer_off; 
049A0:  BCF    F8C.7
049A2:  BCF    F95.7
049A4:  MOVLB  3
....................       } 
....................    }else if(Tipo==2){ 
049A6:  BRA    4A04
049A8:  MOVLB  4
049AA:  MOVF   x74,W
049AC:  SUBLW  02
049AE:  BNZ   4A06
....................    if(UP || DOWN || RIGHT || LEFT) 
049B0:  BSF    F93.3
049B2:  BTFSS  F81.3
049B4:  BRA    49C8
049B6:  BSF    F93.2
049B8:  BTFSS  F81.2
049BA:  BRA    49C8
049BC:  BSF    F93.1
049BE:  BTFSS  F81.1
049C0:  BRA    49C8
049C2:  BSF    F93.0
049C4:  BTFSC  F81.0
049C6:  BRA    49CE
....................       ConteoBuzzer=21; 
049C8:  MOVLW  15
049CA:  MOVLB  3
049CC:  MOVWF  xC2
....................        
....................       flagAlarma=1; 
049CE:  MOVLB  0
049D0:  BSF    xD3.3
....................       if(ConteoBuzzer<20){    
049D2:  MOVLB  3
049D4:  MOVF   xC2,W
049D6:  SUBLW  13
049D8:  BNC   4A00
....................          if(tbuzzer>100){ 
049DA:  MOVF   xC6,F
049DC:  BNZ   49E4
049DE:  MOVF   xC5,W
049E0:  SUBLW  64
049E2:  BC    49FE
....................             tbuzzer=0; 
049E4:  CLRF   xC6
049E6:  CLRF   xC5
....................             flagBuzzer=!flagBuzzer; 
049E8:  MOVLB  0
049EA:  BTG    xD3.4
....................             if(flagBuzzer) 
049EC:  BTFSS  xD3.4
049EE:  BRA    49F6
....................                Buzzer_on; 
049F0:  BSF    F8C.7
049F2:  BCF    F95.7
....................             else 
049F4:  BRA    49FA
....................                Buzzer_off; 
049F6:  BCF    F8C.7
049F8:  BCF    F95.7
....................                 
....................             ConteoBuzzer++;    
049FA:  MOVLB  3
049FC:  INCF   xC2,F
....................          } 
....................       }else{ 
049FE:  BRA    4A04
....................          Buzzer_off; 
04A00:  BCF    F8C.7
04A02:  BCF    F95.7
04A04:  MOVLB  4
....................       } 
....................    } 
.................... } 
04A06:  MOVLB  0
04A08:  RETLW  00
....................  
.................... void CalientaChaqueta(){ 
....................    /*if(PresionPrecamara<130){ 
....................       SSR_on; 
....................    }else if(PresionPreCamara>150){ 
....................       SSR_off; 
....................    } 
....................    */                                  
....................    Tp=50; 
*
07532:  CLRF   xDC
07534:  MOVLW  32
07536:  MOVWF  xDB
....................    Tc=(Tciclo/0.005); 
07538:  MOVFF  324,480
0753C:  MOVFF  323,47F
07540:  MOVFF  322,47E
07544:  MOVFF  321,47D
07548:  MOVLW  0A
0754A:  MOVLB  4
0754C:  MOVWF  x84
0754E:  MOVLW  D7
07550:  MOVWF  x83
07552:  MOVLW  23
07554:  MOVWF  x82
07556:  MOVLW  77
07558:  MOVWF  x81
0755A:  MOVLB  0
0755C:  CALL   1B86
07560:  MOVFF  03,48C
07564:  MOVFF  02,48B
07568:  MOVFF  01,48A
0756C:  MOVFF  00,489
07570:  CALL   4144
07574:  MOVFF  02,DE
07578:  MOVFF  01,DD
....................    Controlando=1;  
0757C:  MOVLW  01
0757E:  MOVLB  3
07580:  MOVWF  x87
.................... } 
07582:  MOVLB  0
07584:  GOTO   D334 (RETURN)
....................  
.................... void ApagaSalidas(){ 
....................    Desfogue_off; 
*
03974:  BSF    F8B.1
03976:  BCF    F94.1
....................    Bomba_off; 
03978:  BSF    F8B.0
0397A:  BCF    F94.0
....................    Buzzer_off; 
0397C:  BCF    F8C.7
0397E:  BCF    F95.7
....................    SSR_off; 
03980:  BCF    F8D.1
03982:  BCF    F96.1
....................    Aire=OFF; 
03984:  BCF    xD4.3
....................    Agua_off; 
03986:  BSF    F8B.2
03988:  BCF    F94.2
....................    Controlando=0; 
0398A:  MOVLB  3
0398C:  CLRF   x87
.................... } 
0398E:  MOVLB  0
03990:  RETLW  00
....................  
.................... void purgaAire(){ 
....................    if(!purga){ 
....................       for(i=0;i<4;i++){ 
....................          Desfogue_on; 
....................          delay_ms(2000); 
....................          Desfogue_off; 
....................          delay_ms(1000); 
....................       } 
....................       purga=ON; 
....................    } 
.................... } 
....................  
.................... int8 extraeDecima(int8 tiempo){ 
*
05666:  MOVLB  4
05668:  CLRF   x7C
0566A:  CLRF   x7D
....................    int8 tmp=0,decima=0; 
....................    tmp=tiempo/10; 
0566C:  MOVFF  47B,47E
05670:  MOVLW  0A
05672:  MOVWF  x7F
05674:  MOVLB  0
05676:  CALL   4A68
0567A:  MOVFF  01,47C
....................    tmp=tmp*10; 
0567E:  MOVLB  4
05680:  MOVF   x7C,W
05682:  MULLW  0A
05684:  MOVFF  FF3,47C
....................    decima=tiempo-tmp; 
05688:  MOVF   x7C,W
0568A:  SUBWF  x7B,W
0568C:  MOVWF  x7D
....................    return decima; 
0568E:  MOVFF  47D,01
.................... } 
05692:  MOVLB  0
05694:  RETLW  00
....................  
.................... int8 extraeDecimal(float data){ 
*
06978:  MOVLB  4
0697A:  CLRF   x81
0697C:  CLRF   x80
0697E:  CLRF   x7F
06980:  CLRF   x7E
06982:  CLRF   x85
06984:  CLRF   x84
06986:  CLRF   x83
06988:  CLRF   x82
....................    float entero=0; 
....................    float tmp=0.0; 
....................     
....................    entero=(int8)data; 
0698A:  MOVFF  47D,48C
0698E:  MOVFF  47C,48B
06992:  MOVFF  47B,48A
06996:  MOVFF  47A,489
0699A:  MOVLB  0
0699C:  CALL   4144
069A0:  MOVLB  4
069A2:  CLRF   x8A
069A4:  MOVFF  01,489
069A8:  MOVLB  0
069AA:  CALL   1B50
069AE:  MOVFF  03,481
069B2:  MOVFF  02,480
069B6:  MOVFF  01,47F
069BA:  MOVFF  00,47E
....................    tmp=(data-entero)*10; 
069BE:  BSF    FD8.1
069C0:  MOVFF  47D,48C
069C4:  MOVFF  47C,48B
069C8:  MOVFF  47B,48A
069CC:  MOVFF  47A,489
069D0:  MOVFF  481,490
069D4:  MOVFF  480,48F
069D8:  MOVFF  47F,48E
069DC:  MOVFF  47E,48D
069E0:  CALL   1CE4
069E4:  MOVFF  00,486
069E8:  MOVFF  01,487
069EC:  MOVFF  02,488
069F0:  MOVFF  03,489
069F4:  MOVFF  03,490
069F8:  MOVFF  02,48F
069FC:  MOVFF  01,48E
06A00:  MOVFF  00,48D
06A04:  MOVLB  4
06A06:  CLRF   x94
06A08:  CLRF   x93
06A0A:  MOVLW  20
06A0C:  MOVWF  x92
06A0E:  MOVLW  82
06A10:  MOVWF  x91
06A12:  MOVLB  0
06A14:  CALL   3A0C
06A18:  MOVFF  03,485
06A1C:  MOVFF  02,484
06A20:  MOVFF  01,483
06A24:  MOVFF  00,482
....................    return (int8)tmp; 
06A28:  MOVFF  485,48C
06A2C:  MOVFF  484,48B
06A30:  MOVFF  483,48A
06A34:  MOVFF  482,489
06A38:  CALL   4144
06A3C:  MOVF   01,W
.................... } 
06A3E:  GOTO   6B76 (RETURN)
....................  
.................... void actualizaTabla(){ 
....................    diaCiclos=read_ext_eeprom(2+(cicloVisto*320)); 
*
0578E:  MOVLB  4
05790:  CLRF   x90
05792:  MOVFF  312,48F
05796:  MOVLW  01
05798:  MOVWF  x92
0579A:  MOVLW  40
0579C:  MOVWF  x91
0579E:  MOVLB  0
057A0:  CALL   39EA
057A4:  MOVFF  02,03
057A8:  MOVF   01,W
057AA:  ADDLW  02
057AC:  MOVLB  4
057AE:  MOVWF  x74
057B0:  MOVLW  00
057B2:  ADDWFC 02,W
057B4:  MOVWF  x75
057B6:  MOVWF  x7A
057B8:  MOVFF  474,479
057BC:  MOVLB  0
057BE:  RCALL  5696
057C0:  MOVFF  01,3FA
....................          if(diaCiclos>31) 
057C4:  MOVLB  3
057C6:  MOVF   xFA,W
057C8:  SUBLW  1F
057CA:  BC    57D0
....................             diaCiclos=1; 
057CC:  MOVLW  01
057CE:  MOVWF  xFA
....................          mesCiclos=read_ext_eeprom(3+(cicloVisto*320)); 
057D0:  MOVLB  4
057D2:  CLRF   x90
057D4:  MOVFF  312,48F
057D8:  MOVLW  01
057DA:  MOVWF  x92
057DC:  MOVLW  40
057DE:  MOVWF  x91
057E0:  MOVLB  0
057E2:  CALL   39EA
057E6:  MOVFF  02,03
057EA:  MOVF   01,W
057EC:  ADDLW  03
057EE:  MOVLB  4
057F0:  MOVWF  x74
057F2:  MOVLW  00
057F4:  ADDWFC 02,W
057F6:  MOVWF  x75
057F8:  MOVWF  x7A
057FA:  MOVFF  474,479
057FE:  MOVLB  0
05800:  RCALL  5696
05802:  MOVFF  01,3FB
....................          if(mesCiclos>12) 
05806:  MOVLB  3
05808:  MOVF   xFB,W
0580A:  SUBLW  0C
0580C:  BC    5812
....................             mesCiclos=1; 
0580E:  MOVLW  01
05810:  MOVWF  xFB
....................          yearCiclos=read_ext_eeprom(4+(cicloVisto*320)); 
05812:  MOVLB  4
05814:  CLRF   x90
05816:  MOVFF  312,48F
0581A:  MOVLW  01
0581C:  MOVWF  x92
0581E:  MOVLW  40
05820:  MOVWF  x91
05822:  MOVLB  0
05824:  CALL   39EA
05828:  MOVFF  02,03
0582C:  MOVF   01,W
0582E:  ADDLW  04
05830:  MOVLB  4
05832:  MOVWF  x74
05834:  MOVLW  00
05836:  ADDWFC 02,W
05838:  MOVWF  x75
0583A:  MOVWF  x7A
0583C:  MOVFF  474,479
05840:  MOVLB  0
05842:  RCALL  5696
05844:  MOVFF  01,3FC
....................          if(yearCiclos>99) 
05848:  MOVLB  3
0584A:  MOVF   xFC,W
0584C:  SUBLW  63
0584E:  BC    5854
....................             yearCiclos=19; 
05850:  MOVLW  13
05852:  MOVWF  xFC
....................          cicloCiclos=read_ext_eeprom(1+(cicloVisto*320)); 
05854:  MOVLB  4
05856:  CLRF   x90
05858:  MOVFF  312,48F
0585C:  MOVLW  01
0585E:  MOVWF  x92
05860:  MOVLW  40
05862:  MOVWF  x91
05864:  MOVLB  0
05866:  CALL   39EA
0586A:  MOVFF  02,03
0586E:  MOVF   01,W
05870:  ADDLW  01
05872:  MOVLB  4
05874:  MOVWF  x74
05876:  MOVLW  00
05878:  ADDWFC 02,W
0587A:  MOVWF  x75
0587C:  MOVWF  x7A
0587E:  MOVFF  474,479
05882:  MOVLB  0
05884:  RCALL  5696
05886:  MOVFF  01,3FE
....................          if(cicloCiclos>20) 
0588A:  MOVLB  3
0588C:  MOVF   xFE,W
0588E:  SUBLW  14
05890:  BC    5896
....................             cicloCiclos=1; 
05892:  MOVLW  01
05894:  MOVWF  xFE
....................          usuarioCiclos=read_ext_eeprom((cicloVisto*320)); 
05896:  MOVLB  4
05898:  CLRF   x90
0589A:  MOVFF  312,48F
0589E:  MOVLW  01
058A0:  MOVWF  x92
058A2:  MOVLW  40
058A4:  MOVWF  x91
058A6:  MOVLB  0
058A8:  CALL   39EA
058AC:  MOVFF  02,475
058B0:  MOVFF  01,474
058B4:  MOVFF  02,47A
058B8:  MOVFF  01,479
058BC:  RCALL  5696
058BE:  MOVFF  01,3FD
....................          if(usuarioCiclos>10) 
058C2:  MOVLB  3
058C4:  MOVF   xFD,W
058C6:  SUBLW  0A
058C8:  BC    58CE
....................             usuarioCiclos=1; 
058CA:  MOVLW  01
058CC:  MOVWF  xFD
....................          for(i=0;i<7;i++){//Lee Valores para completar la Tabla 
058CE:  CLRF   x92
058D0:  MOVF   x92,W
058D2:  SUBLW  06
058D4:  BTFSS  FD8.0
058D6:  BRA    5E0C
....................             horaCiclos[i]=read_ext_eeprom((cicloVisto*320)+11+((cicloVisualizado+i)*9)); 
058D8:  CLRF   03
058DA:  MOVF   x92,W
058DC:  ADDLW  37
058DE:  MOVWF  01
058E0:  MOVLW  04
058E2:  ADDWFC 03,F
058E4:  MOVFF  01,474
058E8:  MOVLB  4
058EA:  MOVFF  03,475
058EE:  CLRF   x90
058F0:  MOVFF  312,48F
058F4:  MOVLW  01
058F6:  MOVWF  x92
058F8:  MOVLW  40
058FA:  MOVWF  x91
058FC:  MOVLB  0
058FE:  CALL   39EA
05902:  MOVFF  02,477
05906:  MOVFF  01,476
0590A:  MOVLW  0B
0590C:  MOVLB  4
0590E:  ADDWF  x76,F
05910:  MOVLW  00
05912:  ADDWFC x77,F
05914:  MOVLB  3
05916:  MOVF   x92,W
05918:  ADDWF  x13,W
0591A:  MULLW  09
0591C:  MOVF   FF3,W
0591E:  MOVLB  4
05920:  ADDWF  x76,F
05922:  MOVLW  00
05924:  ADDWFC x77,F
05926:  MOVFF  477,47A
0592A:  MOVFF  476,479
0592E:  MOVLB  0
05930:  RCALL  5696
05932:  MOVFF  475,FEA
05936:  MOVFF  474,FE9
0593A:  MOVFF  01,FEF
....................             if(horaCiclos[i]>24) 
0593E:  CLRF   03
05940:  MOVLB  3
05942:  MOVF   x92,W
05944:  ADDLW  37
05946:  MOVWF  FE9
05948:  MOVLW  04
0594A:  ADDWFC 03,W
0594C:  MOVWF  FEA
0594E:  MOVF   FEF,W
05950:  SUBLW  18
05952:  BC    5964
....................                horaCiclos[i]=0; 
05954:  CLRF   03
05956:  MOVF   x92,W
05958:  ADDLW  37
0595A:  MOVWF  FE9
0595C:  MOVLW  04
0595E:  ADDWFC 03,W
05960:  MOVWF  FEA
05962:  CLRF   FEF
....................             minutoCiclos[i]=read_ext_eeprom((cicloVisto*320)+12+((cicloVisualizado+i)*9)); 
05964:  CLRF   03
05966:  MOVF   x92,W
05968:  ADDLW  3E
0596A:  MOVWF  01
0596C:  MOVLW  04
0596E:  ADDWFC 03,F
05970:  MOVFF  01,474
05974:  MOVLB  4
05976:  MOVFF  03,475
0597A:  CLRF   x90
0597C:  MOVFF  312,48F
05980:  MOVLW  01
05982:  MOVWF  x92
05984:  MOVLW  40
05986:  MOVWF  x91
05988:  MOVLB  0
0598A:  CALL   39EA
0598E:  MOVFF  02,477
05992:  MOVFF  01,476
05996:  MOVLW  0C
05998:  MOVLB  4
0599A:  ADDWF  x76,F
0599C:  MOVLW  00
0599E:  ADDWFC x77,F
059A0:  MOVLB  3
059A2:  MOVF   x92,W
059A4:  ADDWF  x13,W
059A6:  MULLW  09
059A8:  MOVF   FF3,W
059AA:  MOVLB  4
059AC:  ADDWF  x76,F
059AE:  MOVLW  00
059B0:  ADDWFC x77,F
059B2:  MOVFF  477,47A
059B6:  MOVFF  476,479
059BA:  MOVLB  0
059BC:  RCALL  5696
059BE:  MOVFF  475,FEA
059C2:  MOVFF  474,FE9
059C6:  MOVFF  01,FEF
....................             if(minutoCiclos[i]>59) 
059CA:  CLRF   03
059CC:  MOVLB  3
059CE:  MOVF   x92,W
059D0:  ADDLW  3E
059D2:  MOVWF  FE9
059D4:  MOVLW  04
059D6:  ADDWFC 03,W
059D8:  MOVWF  FEA
059DA:  MOVF   FEF,W
059DC:  SUBLW  3B
059DE:  BC    59F0
....................                minutoCiclos[i]=0; 
059E0:  CLRF   03
059E2:  MOVF   x92,W
059E4:  ADDLW  3E
059E6:  MOVWF  FE9
059E8:  MOVLW  04
059EA:  ADDWFC 03,W
059EC:  MOVWF  FEA
059EE:  CLRF   FEF
....................             TCiclos[i]=read_ext_eeprom((cicloVisto*320)+5+((cicloVisualizado+i)*9))+inttofloat(read_ext_eeprom((cicloVisto*320)+6+((cicloVisualizado+i)*9))); 
059F0:  MOVF   x92,W
059F2:  MULLW  04
059F4:  MOVF   FF3,W
059F6:  CLRF   03
059F8:  ADDLW  FF
059FA:  MOVWF  01
059FC:  MOVLW  03
059FE:  ADDWFC 03,F
05A00:  MOVFF  01,474
05A04:  MOVLB  4
05A06:  MOVFF  03,475
05A0A:  CLRF   x90
05A0C:  MOVFF  312,48F
05A10:  MOVLW  01
05A12:  MOVWF  x92
05A14:  MOVLW  40
05A16:  MOVWF  x91
05A18:  MOVLB  0
05A1A:  CALL   39EA
05A1E:  MOVFF  02,477
05A22:  MOVFF  01,476
05A26:  MOVLW  05
05A28:  MOVLB  4
05A2A:  ADDWF  x76,F
05A2C:  MOVLW  00
05A2E:  ADDWFC x77,F
05A30:  MOVLB  3
05A32:  MOVF   x92,W
05A34:  ADDWF  x13,W
05A36:  MULLW  09
05A38:  MOVF   FF3,W
05A3A:  MOVLB  4
05A3C:  ADDWF  x76,F
05A3E:  MOVLW  00
05A40:  ADDWFC x77,F
05A42:  MOVFF  477,47A
05A46:  MOVFF  476,479
05A4A:  MOVLB  0
05A4C:  RCALL  5696
05A4E:  MOVFF  01,476
05A52:  MOVLB  4
05A54:  CLRF   x90
05A56:  MOVFF  312,48F
05A5A:  MOVLW  01
05A5C:  MOVWF  x92
05A5E:  MOVLW  40
05A60:  MOVWF  x91
05A62:  MOVLB  0
05A64:  CALL   39EA
05A68:  MOVFF  02,478
05A6C:  MOVFF  01,477
05A70:  MOVLW  06
05A72:  MOVLB  4
05A74:  ADDWF  x77,F
05A76:  MOVLW  00
05A78:  ADDWFC x78,F
05A7A:  MOVLB  3
05A7C:  MOVF   x92,W
05A7E:  ADDWF  x13,W
05A80:  MULLW  09
05A82:  MOVF   FF3,W
05A84:  MOVLB  4
05A86:  ADDWF  x77,F
05A88:  MOVLW  00
05A8A:  ADDWFC x78,F
05A8C:  MOVFF  478,47A
05A90:  MOVFF  477,479
05A94:  MOVLB  0
05A96:  RCALL  5696
05A98:  MOVFF  01,477
05A9C:  MOVFF  01,478
05AA0:  BRA    5748
05AA2:  MOVFF  00,477
05AA6:  MOVFF  01,478
05AAA:  MOVFF  02,479
05AAE:  MOVFF  03,47A
05AB2:  MOVLB  4
05AB4:  CLRF   x8A
05AB6:  MOVFF  476,489
05ABA:  MOVLB  0
05ABC:  CALL   1B50
05AC0:  MOVFF  FEA,47C
05AC4:  MOVFF  FE9,47B
05AC8:  BCF    FD8.1
05ACA:  MOVFF  03,48C
05ACE:  MOVFF  02,48B
05AD2:  MOVFF  01,48A
05AD6:  MOVFF  00,489
05ADA:  MOVFF  47A,490
05ADE:  MOVFF  479,48F
05AE2:  MOVFF  478,48E
05AE6:  MOVFF  477,48D
05AEA:  CALL   1CE4
05AEE:  MOVFF  47C,FEA
05AF2:  MOVFF  47B,FE9
05AF6:  MOVFF  475,FEA
05AFA:  MOVFF  474,FE9
05AFE:  MOVFF  00,FEF
05B02:  MOVFF  01,FEC
05B06:  MOVFF  02,FEC
05B0A:  MOVFF  03,FEC
....................             if(TCiclos[i]>150) 
05B0E:  MOVLB  3
05B10:  MOVF   x92,W
05B12:  MULLW  04
05B14:  MOVF   FF3,W
05B16:  CLRF   03
05B18:  ADDLW  FF
05B1A:  MOVWF  FE9
05B1C:  MOVLW  03
05B1E:  ADDWFC 03,W
05B20:  MOVWF  FEA
05B22:  MOVFF  FEF,474
05B26:  MOVFF  FEC,475
05B2A:  MOVFF  FEC,476
05B2E:  MOVFF  FEC,477
05B32:  MOVLB  4
05B34:  CLRF   x7B
05B36:  CLRF   x7A
05B38:  MOVLW  16
05B3A:  MOVWF  x79
05B3C:  MOVLW  86
05B3E:  MOVWF  x78
05B40:  MOVFF  477,47F
05B44:  MOVFF  476,47E
05B48:  MOVFF  475,47D
05B4C:  MOVFF  474,47C
05B50:  MOVLB  0
05B52:  CALL   2D46
05B56:  BNC   5B76
....................                TCiclos[i]=0; 
05B58:  MOVLB  3
05B5A:  MOVF   x92,W
05B5C:  MULLW  04
05B5E:  MOVF   FF3,W
05B60:  CLRF   03
05B62:  ADDLW  FF
05B64:  MOVWF  FE9
05B66:  MOVLW  03
05B68:  ADDWFC 03,W
05B6A:  MOVWF  FEA
05B6C:  CLRF   FEF
05B6E:  CLRF   FEC
05B70:  CLRF   FEC
05B72:  CLRF   FEC
05B74:  MOVLB  0
....................             PcCiclos[i]=make16(read_ext_eeprom((cicloVisto*320)+7+((cicloVisualizado+i)*9)),read_ext_eeprom((cicloVisto*320)+8+((cicloVisualizado+i)*9))); 
05B76:  BCF    FD8.0
05B78:  MOVLB  3
05B7A:  RLCF   x92,W
05B7C:  CLRF   03
05B7E:  ADDLW  1B
05B80:  MOVWF  01
05B82:  MOVLW  04
05B84:  ADDWFC 03,F
05B86:  MOVFF  01,474
05B8A:  MOVLB  4
05B8C:  MOVFF  03,475
05B90:  CLRF   x90
05B92:  MOVFF  312,48F
05B96:  MOVLW  01
05B98:  MOVWF  x92
05B9A:  MOVLW  40
05B9C:  MOVWF  x91
05B9E:  MOVLB  0
05BA0:  CALL   39EA
05BA4:  MOVFF  02,477
05BA8:  MOVFF  01,476
05BAC:  MOVLW  07
05BAE:  MOVLB  4
05BB0:  ADDWF  x76,F
05BB2:  MOVLW  00
05BB4:  ADDWFC x77,F
05BB6:  MOVLB  3
05BB8:  MOVF   x92,W
05BBA:  ADDWF  x13,W
05BBC:  MULLW  09
05BBE:  MOVF   FF3,W
05BC0:  MOVLB  4
05BC2:  ADDWF  x76,F
05BC4:  MOVLW  00
05BC6:  ADDWFC x77,F
05BC8:  MOVFF  477,47A
05BCC:  MOVFF  476,479
05BD0:  MOVLB  0
05BD2:  RCALL  5696
05BD4:  MOVFF  01,476
05BD8:  MOVLB  4
05BDA:  CLRF   x90
05BDC:  MOVFF  312,48F
05BE0:  MOVLW  01
05BE2:  MOVWF  x92
05BE4:  MOVLW  40
05BE6:  MOVWF  x91
05BE8:  MOVLB  0
05BEA:  CALL   39EA
05BEE:  MOVFF  02,478
05BF2:  MOVFF  01,477
05BF6:  MOVLW  08
05BF8:  MOVLB  4
05BFA:  ADDWF  x77,F
05BFC:  MOVLW  00
05BFE:  ADDWFC x78,F
05C00:  MOVLB  3
05C02:  MOVF   x92,W
05C04:  ADDWF  x13,W
05C06:  MULLW  09
05C08:  MOVF   FF3,W
05C0A:  MOVLB  4
05C0C:  ADDWF  x77,F
05C0E:  MOVLW  00
05C10:  ADDWFC x78,F
05C12:  MOVFF  478,47A
05C16:  MOVFF  477,479
05C1A:  MOVLB  0
05C1C:  RCALL  5696
05C1E:  MOVFF  475,FEA
05C22:  MOVFF  474,FE9
05C26:  MOVFF  476,FEC
05C2A:  MOVF   FED,F
05C2C:  MOVFF  01,FEF
....................             if(PcCiclos[i]>400) 
05C30:  BCF    FD8.0
05C32:  MOVLB  3
05C34:  RLCF   x92,W
05C36:  CLRF   03
05C38:  ADDLW  1B
05C3A:  MOVWF  FE9
05C3C:  MOVLW  04
05C3E:  ADDWFC 03,W
05C40:  MOVWF  FEA
05C42:  MOVFF  FEC,475
05C46:  MOVF   FED,F
05C48:  MOVFF  FEF,474
05C4C:  MOVLB  4
05C4E:  MOVF   x75,W
05C50:  SUBLW  00
05C52:  BC    5C78
05C54:  XORLW  FF
05C56:  BNZ   5C5E
05C58:  MOVF   x74,W
05C5A:  SUBLW  90
05C5C:  BC    5C78
....................                PcCiclos[i]=0; 
05C5E:  BCF    FD8.0
05C60:  MOVLB  3
05C62:  RLCF   x92,W
05C64:  CLRF   03
05C66:  ADDLW  1B
05C68:  MOVWF  FE9
05C6A:  MOVLW  04
05C6C:  ADDWFC 03,W
05C6E:  MOVWF  FEA
05C70:  CLRF   FEC
05C72:  MOVF   FED,F
05C74:  CLRF   FEF
05C76:  MOVLB  4
....................             PpcCiclos[i]=make16(read_ext_eeprom((cicloVisto*320)+9+((cicloVisualizado+i)*9)),read_ext_eeprom((cicloVisto*320)+10+((cicloVisualizado+i)*9))); 
05C78:  BCF    FD8.0
05C7A:  MOVLB  3
05C7C:  RLCF   x92,W
05C7E:  CLRF   03
05C80:  ADDLW  29
05C82:  MOVWF  01
05C84:  MOVLW  04
05C86:  ADDWFC 03,F
05C88:  MOVFF  01,474
05C8C:  MOVLB  4
05C8E:  MOVFF  03,475
05C92:  CLRF   x90
05C94:  MOVFF  312,48F
05C98:  MOVLW  01
05C9A:  MOVWF  x92
05C9C:  MOVLW  40
05C9E:  MOVWF  x91
05CA0:  MOVLB  0
05CA2:  CALL   39EA
05CA6:  MOVFF  02,477
05CAA:  MOVFF  01,476
05CAE:  MOVLW  09
05CB0:  MOVLB  4
05CB2:  ADDWF  x76,F
05CB4:  MOVLW  00
05CB6:  ADDWFC x77,F
05CB8:  MOVLB  3
05CBA:  MOVF   x92,W
05CBC:  ADDWF  x13,W
05CBE:  MULLW  09
05CC0:  MOVF   FF3,W
05CC2:  MOVLB  4
05CC4:  ADDWF  x76,F
05CC6:  MOVLW  00
05CC8:  ADDWFC x77,F
05CCA:  MOVFF  477,47A
05CCE:  MOVFF  476,479
05CD2:  MOVLB  0
05CD4:  RCALL  5696
05CD6:  MOVFF  01,476
05CDA:  MOVLB  4
05CDC:  CLRF   x90
05CDE:  MOVFF  312,48F
05CE2:  MOVLW  01
05CE4:  MOVWF  x92
05CE6:  MOVLW  40
05CE8:  MOVWF  x91
05CEA:  MOVLB  0
05CEC:  CALL   39EA
05CF0:  MOVFF  02,478
05CF4:  MOVFF  01,477
05CF8:  MOVLW  0A
05CFA:  MOVLB  4
05CFC:  ADDWF  x77,F
05CFE:  MOVLW  00
05D00:  ADDWFC x78,F
05D02:  MOVLB  3
05D04:  MOVF   x92,W
05D06:  ADDWF  x13,W
05D08:  MULLW  09
05D0A:  MOVF   FF3,W
05D0C:  MOVLB  4
05D0E:  ADDWF  x77,F
05D10:  MOVLW  00
05D12:  ADDWFC x78,F
05D14:  MOVFF  478,47A
05D18:  MOVFF  477,479
05D1C:  MOVLB  0
05D1E:  RCALL  5696
05D20:  MOVFF  475,FEA
05D24:  MOVFF  474,FE9
05D28:  MOVFF  476,FEC
05D2C:  MOVF   FED,F
05D2E:  MOVFF  01,FEF
....................             if(PpcCiclos[i]>400) 
05D32:  BCF    FD8.0
05D34:  MOVLB  3
05D36:  RLCF   x92,W
05D38:  CLRF   03
05D3A:  ADDLW  29
05D3C:  MOVWF  FE9
05D3E:  MOVLW  04
05D40:  ADDWFC 03,W
05D42:  MOVWF  FEA
05D44:  MOVFF  FEC,475
05D48:  MOVF   FED,F
05D4A:  MOVFF  FEF,474
05D4E:  MOVLB  4
05D50:  MOVF   x75,W
05D52:  SUBLW  00
05D54:  BC    5D7A
05D56:  XORLW  FF
05D58:  BNZ   5D60
05D5A:  MOVF   x74,W
05D5C:  SUBLW  90
05D5E:  BC    5D7A
....................                PpcCiclos[i]=0; 
05D60:  BCF    FD8.0
05D62:  MOVLB  3
05D64:  RLCF   x92,W
05D66:  CLRF   03
05D68:  ADDLW  29
05D6A:  MOVWF  FE9
05D6C:  MOVLW  04
05D6E:  ADDWFC 03,W
05D70:  MOVWF  FEA
05D72:  CLRF   FEC
05D74:  MOVF   FED,F
05D76:  CLRF   FEF
05D78:  MOVLB  4
....................             ACiclos[i]=read_ext_eeprom((cicloVisto*320)+13+((cicloVisualizado+i)*9)); 
05D7A:  CLRF   03
05D7C:  MOVLB  3
05D7E:  MOVF   x92,W
05D80:  ADDLW  45
05D82:  MOVWF  01
05D84:  MOVLW  04
05D86:  ADDWFC 03,F
05D88:  MOVFF  01,474
05D8C:  MOVLB  4
05D8E:  MOVFF  03,475
05D92:  CLRF   x90
05D94:  MOVFF  312,48F
05D98:  MOVLW  01
05D9A:  MOVWF  x92
05D9C:  MOVLW  40
05D9E:  MOVWF  x91
05DA0:  MOVLB  0
05DA2:  CALL   39EA
05DA6:  MOVFF  02,477
05DAA:  MOVFF  01,476
05DAE:  MOVLW  0D
05DB0:  MOVLB  4
05DB2:  ADDWF  x76,F
05DB4:  MOVLW  00
05DB6:  ADDWFC x77,F
05DB8:  MOVLB  3
05DBA:  MOVF   x92,W
05DBC:  ADDWF  x13,W
05DBE:  MULLW  09
05DC0:  MOVF   FF3,W
05DC2:  MOVLB  4
05DC4:  ADDWF  x76,F
05DC6:  MOVLW  00
05DC8:  ADDWFC x77,F
05DCA:  MOVFF  477,47A
05DCE:  MOVFF  476,479
05DD2:  MOVLB  0
05DD4:  RCALL  5696
05DD6:  MOVFF  475,FEA
05DDA:  MOVFF  474,FE9
05DDE:  MOVFF  01,FEF
....................             if(ACiclos[i]>30) 
05DE2:  CLRF   03
05DE4:  MOVLB  3
05DE6:  MOVF   x92,W
05DE8:  ADDLW  45
05DEA:  MOVWF  FE9
05DEC:  MOVLW  04
05DEE:  ADDWFC 03,W
05DF0:  MOVWF  FEA
05DF2:  MOVF   FEF,W
05DF4:  SUBLW  1E
05DF6:  BC    5E08
....................                ACiclos[i]=0; 
05DF8:  CLRF   03
05DFA:  MOVF   x92,W
05DFC:  ADDLW  45
05DFE:  MOVWF  FE9
05E00:  MOVLW  04
05E02:  ADDWFC 03,W
05E04:  MOVWF  FEA
05E06:  CLRF   FEF
....................          } 
05E08:  INCF   x92,F
05E0A:  BRA    58D0
.................... } 
05E0C:  MOVLB  0
05E0E:  RETLW  00
.................... void GuardaDatoEstatico(){ 
*
0677A:  MOVLB  4
0677C:  CLRF   x75
0677E:  CLRF   x74
06780:  CLRF   x77
06782:  CLRF   x76
....................    int16 posCiclo=0,cicloMemoria=0; 
....................    posCiclo=Ciclos/200; 
06784:  MOVFF  3AD,48E
06788:  MOVFF  3AC,48D
0678C:  CLRF   x90
0678E:  MOVLW  C8
06790:  MOVWF  x8F
06792:  MOVLB  0
06794:  CALL   4D7A
06798:  MOVFF  02,475
0679C:  MOVFF  01,474
....................    cicloMemoria=Ciclos-(posCiclo*200); 
067A0:  MOVFF  475,490
067A4:  MOVFF  474,48F
067A8:  MOVLB  4
067AA:  CLRF   x92
067AC:  MOVLW  C8
067AE:  MOVWF  x91
067B0:  MOVLB  0
067B2:  CALL   39EA
067B6:  MOVF   01,W
067B8:  MOVLB  3
067BA:  SUBWF  xAC,W
067BC:  MOVLB  4
067BE:  MOVWF  x76
067C0:  MOVF   02,W
067C2:  MOVLB  3
067C4:  SUBWFB xAD,W
067C6:  MOVLB  4
067C8:  MOVWF  x77
....................    if(!disp_Guarda){ 
067CA:  MOVLB  0
067CC:  BTFSC  xD4.4
067CE:  BRA    6974
....................       write_ext_eeprom(cicloMemoria*320,1); 
067D0:  MOVFF  477,490
067D4:  MOVFF  476,48F
067D8:  MOVLW  01
067DA:  MOVLB  4
067DC:  MOVWF  x92
067DE:  MOVLW  40
067E0:  MOVWF  x91
067E2:  MOVLB  0
067E4:  CALL   39EA
067E8:  MOVFF  02,479
067EC:  MOVFF  01,478
067F0:  MOVFF  02,490
067F4:  MOVFF  01,48F
067F8:  MOVLW  01
067FA:  MOVLB  4
067FC:  MOVWF  x91
067FE:  MOVLB  0
06800:  CALL   4DC0
....................       delay_ms(10); 
06804:  MOVLW  0A
06806:  MOVLB  4
06808:  MOVWF  x8D
0680A:  MOVLB  0
0680C:  CALL   1B28
....................       if(!Libre) 
06810:  BTFSC  xD4.0
06812:  BRA    6850
....................          write_ext_eeprom(1+(cicloMemoria*320),CicloSeleccionado); 
06814:  MOVFF  477,490
06818:  MOVFF  476,48F
0681C:  MOVLW  01
0681E:  MOVLB  4
06820:  MOVWF  x92
06822:  MOVLW  40
06824:  MOVWF  x91
06826:  MOVLB  0
06828:  CALL   39EA
0682C:  MOVFF  02,03
06830:  MOVF   01,W
06832:  ADDLW  01
06834:  MOVLB  4
06836:  MOVWF  x78
06838:  MOVLW  00
0683A:  ADDWFC 02,W
0683C:  MOVWF  x79
0683E:  MOVWF  x90
06840:  MOVFF  478,48F
06844:  MOVFF  395,491
06848:  MOVLB  0
0684A:  CALL   4DC0
....................       else 
0684E:  BRA    6894
....................          write_ext_eeprom(1+(cicloMemoria*320),CicloLibre+4); 
06850:  MOVFF  477,490
06854:  MOVFF  476,48F
06858:  MOVLW  01
0685A:  MOVLB  4
0685C:  MOVWF  x92
0685E:  MOVLW  40
06860:  MOVWF  x91
06862:  MOVLB  0
06864:  CALL   39EA
06868:  MOVFF  02,03
0686C:  MOVF   01,W
0686E:  ADDLW  01
06870:  MOVLB  4
06872:  MOVWF  x78
06874:  MOVLW  00
06876:  ADDWFC 02,W
06878:  MOVWF  x79
0687A:  MOVLW  04
0687C:  MOVLB  3
0687E:  ADDWF  x6F,W
06880:  MOVLB  4
06882:  MOVWF  x7A
06884:  MOVFF  479,490
06888:  MOVFF  478,48F
0688C:  MOVWF  x91
0688E:  MOVLB  0
06890:  CALL   4DC0
....................       delay_ms(10); 
06894:  MOVLW  0A
06896:  MOVLB  4
06898:  MOVWF  x8D
0689A:  MOVLB  0
0689C:  CALL   1B28
....................       write_ext_eeprom(2+(cicloMemoria*320),Dia); 
068A0:  MOVFF  477,490
068A4:  MOVFF  476,48F
068A8:  MOVLW  01
068AA:  MOVLB  4
068AC:  MOVWF  x92
068AE:  MOVLW  40
068B0:  MOVWF  x91
068B2:  MOVLB  0
068B4:  CALL   39EA
068B8:  MOVFF  02,03
068BC:  MOVF   01,W
068BE:  ADDLW  02
068C0:  MOVLB  4
068C2:  MOVWF  x78
068C4:  MOVLW  00
068C6:  ADDWFC 02,W
068C8:  MOVWF  x79
068CA:  MOVWF  x90
068CC:  MOVFF  478,48F
068D0:  MOVFF  3D1,491
068D4:  MOVLB  0
068D6:  CALL   4DC0
....................       delay_ms(10); 
068DA:  MOVLW  0A
068DC:  MOVLB  4
068DE:  MOVWF  x8D
068E0:  MOVLB  0
068E2:  CALL   1B28
....................       write_ext_eeprom(3+(cicloMemoria*320),Mes); 
068E6:  MOVFF  477,490
068EA:  MOVFF  476,48F
068EE:  MOVLW  01
068F0:  MOVLB  4
068F2:  MOVWF  x92
068F4:  MOVLW  40
068F6:  MOVWF  x91
068F8:  MOVLB  0
068FA:  CALL   39EA
068FE:  MOVFF  02,03
06902:  MOVF   01,W
06904:  ADDLW  03
06906:  MOVLB  4
06908:  MOVWF  x78
0690A:  MOVLW  00
0690C:  ADDWFC 02,W
0690E:  MOVWF  x79
06910:  MOVWF  x90
06912:  MOVFF  478,48F
06916:  MOVFF  3D0,491
0691A:  MOVLB  0
0691C:  CALL   4DC0
....................       delay_ms(10); 
06920:  MOVLW  0A
06922:  MOVLB  4
06924:  MOVWF  x8D
06926:  MOVLB  0
06928:  CALL   1B28
....................       write_ext_eeprom(4+(cicloMemoria*320),Year); 
0692C:  MOVFF  477,490
06930:  MOVFF  476,48F
06934:  MOVLW  01
06936:  MOVLB  4
06938:  MOVWF  x92
0693A:  MOVLW  40
0693C:  MOVWF  x91
0693E:  MOVLB  0
06940:  CALL   39EA
06944:  MOVFF  02,03
06948:  MOVF   01,W
0694A:  ADDLW  04
0694C:  MOVLB  4
0694E:  MOVWF  x78
06950:  MOVLW  00
06952:  ADDWFC 02,W
06954:  MOVWF  x79
06956:  MOVWF  x90
06958:  MOVFF  478,48F
0695C:  MOVFF  3CF,491
06960:  MOVLB  0
06962:  CALL   4DC0
....................       delay_ms(10);  
06966:  MOVLW  0A
06968:  MOVLB  4
0696A:  MOVWF  x8D
0696C:  MOVLB  0
0696E:  CALL   1B28
....................       disp_Guarda=1; 
06972:  BSF    xD4.4
....................    }    
.................... } 
06974:  GOTO   C642 (RETURN)
....................  
.................... void GuardaDatoCiclo(){ 
*
06A42:  MOVLB  4
06A44:  CLRF   x75
06A46:  CLRF   x74
06A48:  CLRF   x77
06A4A:  CLRF   x76
....................    int16 posCiclo=0,cicloMemoria=0; 
....................    posCiclo=Ciclos/200; 
06A4C:  MOVFF  3AD,48E
06A50:  MOVFF  3AC,48D
06A54:  CLRF   x90
06A56:  MOVLW  C8
06A58:  MOVWF  x8F
06A5A:  MOVLB  0
06A5C:  CALL   4D7A
06A60:  MOVFF  02,475
06A64:  MOVFF  01,474
....................    if(!Ciclo){ 
06A68:  BTFSC  xD1.7
06A6A:  BRA    6E9E
....................       cicloMemoria=Ciclos-(posCiclo*200); 
06A6C:  MOVFF  475,490
06A70:  MOVFF  474,48F
06A74:  MOVLB  4
06A76:  CLRF   x92
06A78:  MOVLW  C8
06A7A:  MOVWF  x91
06A7C:  MOVLB  0
06A7E:  CALL   39EA
06A82:  MOVF   01,W
06A84:  MOVLB  3
06A86:  SUBWF  xAC,W
06A88:  MOVLB  4
06A8A:  MOVWF  x76
06A8C:  MOVF   02,W
06A8E:  MOVLB  3
06A90:  SUBWFB xAD,W
06A92:  MOVLB  4
06A94:  MOVWF  x77
....................       write_ext_eeprom(5+(cicloMemoria*320)+(posicionDato*9),(int8)Temperatura); 
06A96:  MOVFF  477,490
06A9A:  MOVFF  476,48F
06A9E:  MOVLW  01
06AA0:  MOVWF  x92
06AA2:  MOVLW  40
06AA4:  MOVWF  x91
06AA6:  MOVLB  0
06AA8:  CALL   39EA
06AAC:  MOVFF  02,03
06AB0:  MOVF   01,W
06AB2:  ADDLW  05
06AB4:  MOVLB  4
06AB6:  MOVWF  x78
06AB8:  MOVLW  00
06ABA:  ADDWFC 02,W
06ABC:  MOVWF  x79
06ABE:  MOVFF  318,490
06AC2:  MOVFF  317,48F
06AC6:  CLRF   x92
06AC8:  MOVLW  09
06ACA:  MOVWF  x91
06ACC:  MOVLB  0
06ACE:  CALL   39EA
06AD2:  MOVFF  02,03
06AD6:  MOVF   01,W
06AD8:  MOVLB  4
06ADA:  ADDWF  x78,F
06ADC:  MOVF   02,W
06ADE:  ADDWFC x79,F
06AE0:  MOVFF  35C,48C
06AE4:  MOVFF  35B,48B
06AE8:  MOVFF  35A,48A
06AEC:  MOVFF  359,489
06AF0:  MOVLB  0
06AF2:  CALL   4144
06AF6:  MOVFF  01,47A
06AFA:  MOVFF  479,490
06AFE:  MOVFF  478,48F
06B02:  MOVFF  01,491
06B06:  CALL   4DC0
....................       delay_ms(10); 
06B0A:  MOVLW  0A
06B0C:  MOVLB  4
06B0E:  MOVWF  x8D
06B10:  MOVLB  0
06B12:  CALL   1B28
....................       write_ext_eeprom(6+(cicloMemoria*320)+(posicionDato*9),extraeDecimal(Temperatura)); 
06B16:  MOVFF  477,490
06B1A:  MOVFF  476,48F
06B1E:  MOVLW  01
06B20:  MOVLB  4
06B22:  MOVWF  x92
06B24:  MOVLW  40
06B26:  MOVWF  x91
06B28:  MOVLB  0
06B2A:  CALL   39EA
06B2E:  MOVFF  02,03
06B32:  MOVF   01,W
06B34:  ADDLW  06
06B36:  MOVLB  4
06B38:  MOVWF  x78
06B3A:  MOVLW  00
06B3C:  ADDWFC 02,W
06B3E:  MOVWF  x79
06B40:  MOVFF  318,490
06B44:  MOVFF  317,48F
06B48:  CLRF   x92
06B4A:  MOVLW  09
06B4C:  MOVWF  x91
06B4E:  MOVLB  0
06B50:  CALL   39EA
06B54:  MOVFF  02,03
06B58:  MOVF   01,W
06B5A:  MOVLB  4
06B5C:  ADDWF  x78,F
06B5E:  MOVF   02,W
06B60:  ADDWFC x79,F
06B62:  MOVFF  35C,47D
06B66:  MOVFF  35B,47C
06B6A:  MOVFF  35A,47B
06B6E:  MOVFF  359,47A
06B72:  MOVLB  0
06B74:  BRA    6978
06B76:  MOVFF  01,47A
06B7A:  MOVFF  479,490
06B7E:  MOVFF  478,48F
06B82:  MOVFF  01,491
06B86:  CALL   4DC0
....................       delay_ms(10); 
06B8A:  MOVLW  0A
06B8C:  MOVLB  4
06B8E:  MOVWF  x8D
06B90:  MOVLB  0
06B92:  CALL   1B28
....................       write_ext_eeprom(7+(cicloMemoria*320)+(posicionDato*9),make8(PresionCamara,1)); 
06B96:  MOVFF  477,490
06B9A:  MOVFF  476,48F
06B9E:  MOVLW  01
06BA0:  MOVLB  4
06BA2:  MOVWF  x92
06BA4:  MOVLW  40
06BA6:  MOVWF  x91
06BA8:  MOVLB  0
06BAA:  CALL   39EA
06BAE:  MOVFF  02,03
06BB2:  MOVF   01,W
06BB4:  ADDLW  07
06BB6:  MOVLB  4
06BB8:  MOVWF  x78
06BBA:  MOVLW  00
06BBC:  ADDWFC 02,W
06BBE:  MOVWF  x79
06BC0:  MOVFF  318,490
06BC4:  MOVFF  317,48F
06BC8:  CLRF   x92
06BCA:  MOVLW  09
06BCC:  MOVWF  x91
06BCE:  MOVLB  0
06BD0:  CALL   39EA
06BD4:  MOVFF  02,03
06BD8:  MOVF   01,W
06BDA:  MOVLB  4
06BDC:  ADDWF  x78,F
06BDE:  MOVF   02,W
06BE0:  ADDWFC x79,F
06BE2:  MOVFF  3A9,47A
06BE6:  MOVFF  479,490
06BEA:  MOVFF  478,48F
06BEE:  MOVFF  3A9,491
06BF2:  MOVLB  0
06BF4:  CALL   4DC0
....................       delay_ms(10); 
06BF8:  MOVLW  0A
06BFA:  MOVLB  4
06BFC:  MOVWF  x8D
06BFE:  MOVLB  0
06C00:  CALL   1B28
....................       write_ext_eeprom(8+(cicloMemoria*320)+(posicionDato*9),make8(PresionCamara,0)); 
06C04:  MOVFF  477,490
06C08:  MOVFF  476,48F
06C0C:  MOVLW  01
06C0E:  MOVLB  4
06C10:  MOVWF  x92
06C12:  MOVLW  40
06C14:  MOVWF  x91
06C16:  MOVLB  0
06C18:  CALL   39EA
06C1C:  MOVFF  02,03
06C20:  MOVF   01,W
06C22:  ADDLW  08
06C24:  MOVLB  4
06C26:  MOVWF  x78
06C28:  MOVLW  00
06C2A:  ADDWFC 02,W
06C2C:  MOVWF  x79
06C2E:  MOVFF  318,490
06C32:  MOVFF  317,48F
06C36:  CLRF   x92
06C38:  MOVLW  09
06C3A:  MOVWF  x91
06C3C:  MOVLB  0
06C3E:  CALL   39EA
06C42:  MOVFF  02,03
06C46:  MOVF   01,W
06C48:  MOVLB  4
06C4A:  ADDWF  x78,F
06C4C:  MOVF   02,W
06C4E:  ADDWFC x79,F
06C50:  MOVFF  3A8,47A
06C54:  MOVFF  479,490
06C58:  MOVFF  478,48F
06C5C:  MOVFF  3A8,491
06C60:  MOVLB  0
06C62:  CALL   4DC0
....................       delay_ms(10); 
06C66:  MOVLW  0A
06C68:  MOVLB  4
06C6A:  MOVWF  x8D
06C6C:  MOVLB  0
06C6E:  CALL   1B28
....................       write_ext_eeprom(9+(cicloMemoria*320)+(posicionDato*9),make8(PresionPreCamara,1)); 
06C72:  MOVFF  477,490
06C76:  MOVFF  476,48F
06C7A:  MOVLW  01
06C7C:  MOVLB  4
06C7E:  MOVWF  x92
06C80:  MOVLW  40
06C82:  MOVWF  x91
06C84:  MOVLB  0
06C86:  CALL   39EA
06C8A:  MOVFF  02,03
06C8E:  MOVF   01,W
06C90:  ADDLW  09
06C92:  MOVLB  4
06C94:  MOVWF  x78
06C96:  MOVLW  00
06C98:  ADDWFC 02,W
06C9A:  MOVWF  x79
06C9C:  MOVFF  318,490
06CA0:  MOVFF  317,48F
06CA4:  CLRF   x92
06CA6:  MOVLW  09
06CA8:  MOVWF  x91
06CAA:  MOVLB  0
06CAC:  CALL   39EA
06CB0:  MOVFF  02,03
06CB4:  MOVF   01,W
06CB6:  MOVLB  4
06CB8:  ADDWF  x78,F
06CBA:  MOVF   02,W
06CBC:  ADDWFC x79,F
06CBE:  MOVFF  3AB,47A
06CC2:  MOVFF  479,490
06CC6:  MOVFF  478,48F
06CCA:  MOVFF  3AB,491
06CCE:  MOVLB  0
06CD0:  CALL   4DC0
....................       delay_ms(10); 
06CD4:  MOVLW  0A
06CD6:  MOVLB  4
06CD8:  MOVWF  x8D
06CDA:  MOVLB  0
06CDC:  CALL   1B28
....................       write_ext_eeprom(10+(cicloMemoria*320)+(posicionDato*9),make8(PresionPreCamara,0)); 
06CE0:  MOVFF  477,490
06CE4:  MOVFF  476,48F
06CE8:  MOVLW  01
06CEA:  MOVLB  4
06CEC:  MOVWF  x92
06CEE:  MOVLW  40
06CF0:  MOVWF  x91
06CF2:  MOVLB  0
06CF4:  CALL   39EA
06CF8:  MOVFF  02,03
06CFC:  MOVF   01,W
06CFE:  ADDLW  0A
06D00:  MOVLB  4
06D02:  MOVWF  x78
06D04:  MOVLW  00
06D06:  ADDWFC 02,W
06D08:  MOVWF  x79
06D0A:  MOVFF  318,490
06D0E:  MOVFF  317,48F
06D12:  CLRF   x92
06D14:  MOVLW  09
06D16:  MOVWF  x91
06D18:  MOVLB  0
06D1A:  CALL   39EA
06D1E:  MOVFF  02,03
06D22:  MOVF   01,W
06D24:  MOVLB  4
06D26:  ADDWF  x78,F
06D28:  MOVF   02,W
06D2A:  ADDWFC x79,F
06D2C:  MOVFF  3AA,47A
06D30:  MOVFF  479,490
06D34:  MOVFF  478,48F
06D38:  MOVFF  3AA,491
06D3C:  MOVLB  0
06D3E:  CALL   4DC0
....................       delay_ms(10); 
06D42:  MOVLW  0A
06D44:  MOVLB  4
06D46:  MOVWF  x8D
06D48:  MOVLB  0
06D4A:  CALL   1B28
....................       write_ext_eeprom(11+(cicloMemoria*320)+(posicionDato*9),Hora); 
06D4E:  MOVFF  477,490
06D52:  MOVFF  476,48F
06D56:  MOVLW  01
06D58:  MOVLB  4
06D5A:  MOVWF  x92
06D5C:  MOVLW  40
06D5E:  MOVWF  x91
06D60:  MOVLB  0
06D62:  CALL   39EA
06D66:  MOVFF  02,03
06D6A:  MOVF   01,W
06D6C:  ADDLW  0B
06D6E:  MOVLB  4
06D70:  MOVWF  x78
06D72:  MOVLW  00
06D74:  ADDWFC 02,W
06D76:  MOVWF  x79
06D78:  MOVFF  318,490
06D7C:  MOVFF  317,48F
06D80:  CLRF   x92
06D82:  MOVLW  09
06D84:  MOVWF  x91
06D86:  MOVLB  0
06D88:  CALL   39EA
06D8C:  MOVFF  02,03
06D90:  MOVF   01,W
06D92:  MOVLB  4
06D94:  ADDWF  x78,F
06D96:  MOVF   02,W
06D98:  ADDWFC x79,F
06D9A:  MOVFF  479,490
06D9E:  MOVFF  478,48F
06DA2:  MOVFF  3D2,491
06DA6:  MOVLB  0
06DA8:  CALL   4DC0
....................       delay_ms(10); 
06DAC:  MOVLW  0A
06DAE:  MOVLB  4
06DB0:  MOVWF  x8D
06DB2:  MOVLB  0
06DB4:  CALL   1B28
....................       write_ext_eeprom(12+(cicloMemoria*320)+(posicionDato*9),Minuto); 
06DB8:  MOVFF  477,490
06DBC:  MOVFF  476,48F
06DC0:  MOVLW  01
06DC2:  MOVLB  4
06DC4:  MOVWF  x92
06DC6:  MOVLW  40
06DC8:  MOVWF  x91
06DCA:  MOVLB  0
06DCC:  CALL   39EA
06DD0:  MOVFF  02,03
06DD4:  MOVF   01,W
06DD6:  ADDLW  0C
06DD8:  MOVLB  4
06DDA:  MOVWF  x78
06DDC:  MOVLW  00
06DDE:  ADDWFC 02,W
06DE0:  MOVWF  x79
06DE2:  MOVFF  318,490
06DE6:  MOVFF  317,48F
06DEA:  CLRF   x92
06DEC:  MOVLW  09
06DEE:  MOVWF  x91
06DF0:  MOVLB  0
06DF2:  CALL   39EA
06DF6:  MOVFF  02,03
06DFA:  MOVF   01,W
06DFC:  MOVLB  4
06DFE:  ADDWF  x78,F
06E00:  MOVF   02,W
06E02:  ADDWFC x79,F
06E04:  MOVFF  479,490
06E08:  MOVFF  478,48F
06E0C:  MOVFF  3D3,491
06E10:  MOVLB  0
06E12:  CALL   4DC0
....................       delay_ms(10); 
06E16:  MOVLW  0A
06E18:  MOVLB  4
06E1A:  MOVWF  x8D
06E1C:  MOVLB  0
06E1E:  CALL   1B28
....................       write_ext_eeprom(13+(cicloMemoria*320)+(posicionDato*9),codigoAlarma); 
06E22:  MOVFF  477,490
06E26:  MOVFF  476,48F
06E2A:  MOVLW  01
06E2C:  MOVLB  4
06E2E:  MOVWF  x92
06E30:  MOVLW  40
06E32:  MOVWF  x91
06E34:  MOVLB  0
06E36:  CALL   39EA
06E3A:  MOVFF  02,03
06E3E:  MOVF   01,W
06E40:  ADDLW  0D
06E42:  MOVLB  4
06E44:  MOVWF  x78
06E46:  MOVLW  00
06E48:  ADDWFC 02,W
06E4A:  MOVWF  x79
06E4C:  MOVFF  318,490
06E50:  MOVFF  317,48F
06E54:  CLRF   x92
06E56:  MOVLW  09
06E58:  MOVWF  x91
06E5A:  MOVLB  0
06E5C:  CALL   39EA
06E60:  MOVFF  02,03
06E64:  MOVF   01,W
06E66:  MOVLB  4
06E68:  ADDWF  x78,F
06E6A:  MOVF   02,W
06E6C:  ADDWFC x79,F
06E6E:  MOVFF  479,490
06E72:  MOVFF  478,48F
06E76:  MOVFF  315,491
06E7A:  MOVLB  0
06E7C:  CALL   4DC0
....................       delay_ms(10); 
06E80:  MOVLW  0A
06E82:  MOVLB  4
06E84:  MOVWF  x8D
06E86:  MOVLB  0
06E88:  CALL   1B28
....................     
....................       if(posicionDato<35) 
06E8C:  MOVLB  3
06E8E:  MOVF   x18,F
06E90:  BNZ   6E9E
06E92:  MOVF   x17,W
06E94:  SUBLW  22
06E96:  BNC   6E9E
....................          ++posicionDato; 
06E98:  INCF   x17,F
06E9A:  BTFSC  FD8.2
06E9C:  INCF   x18,F
06E9E:  MOVLB  0
....................    } 
.................... } 
06EA0:  RETLW  00
....................  
.................... void borraDatoCiclo(){ 
*
04EC2:  MOVLB  4
04EC4:  CLRF   x8A
04EC6:  CLRF   x89
04EC8:  CLRF   x8C
04ECA:  CLRF   x8B
....................    int16 posCiclo=0,cicloMemoria=0; 
....................    posCiclo=Ciclos/200; 
04ECC:  MOVFF  3AD,48E
04ED0:  MOVFF  3AC,48D
04ED4:  CLRF   x90
04ED6:  MOVLW  C8
04ED8:  MOVWF  x8F
04EDA:  MOVLB  0
04EDC:  RCALL  4D7A
04EDE:  MOVFF  02,48A
04EE2:  MOVFF  01,489
....................    cicloMemoria=Ciclos-(posCiclo*200); 
04EE6:  MOVFF  48A,490
04EEA:  MOVFF  489,48F
04EEE:  MOVLB  4
04EF0:  CLRF   x92
04EF2:  MOVLW  C8
04EF4:  MOVWF  x91
04EF6:  MOVLB  0
04EF8:  CALL   39EA
04EFC:  MOVF   01,W
04EFE:  MOVLB  3
04F00:  SUBWF  xAC,W
04F02:  MOVLB  4
04F04:  MOVWF  x8B
04F06:  MOVF   02,W
04F08:  MOVLB  3
04F0A:  SUBWFB xAD,W
04F0C:  MOVLB  4
04F0E:  MOVWF  x8C
....................    write_ext_eeprom(cicloMemoria*320,1); 
04F10:  MOVFF  48C,490
04F14:  MOVFF  48B,48F
04F18:  MOVLW  01
04F1A:  MOVWF  x92
04F1C:  MOVLW  40
04F1E:  MOVWF  x91
04F20:  MOVLB  0
04F22:  CALL   39EA
04F26:  MOVFF  02,48E
04F2A:  MOVFF  01,48D
04F2E:  MOVFF  02,490
04F32:  MOVFF  01,48F
04F36:  MOVLW  01
04F38:  MOVLB  4
04F3A:  MOVWF  x91
04F3C:  MOVLB  0
04F3E:  RCALL  4DC0
....................    delay_ms(5); 
04F40:  MOVLW  05
04F42:  MOVLB  4
04F44:  MOVWF  x8D
04F46:  MOVLB  0
04F48:  CALL   1B28
....................    write_ext_eeprom(1+(cicloMemoria*320),0); 
04F4C:  MOVFF  48C,490
04F50:  MOVFF  48B,48F
04F54:  MOVLW  01
04F56:  MOVLB  4
04F58:  MOVWF  x92
04F5A:  MOVLW  40
04F5C:  MOVWF  x91
04F5E:  MOVLB  0
04F60:  CALL   39EA
04F64:  MOVFF  02,03
04F68:  MOVF   01,W
04F6A:  ADDLW  01
04F6C:  MOVLB  4
04F6E:  MOVWF  x8D
04F70:  MOVLW  00
04F72:  ADDWFC 02,W
04F74:  MOVWF  x8E
04F76:  MOVWF  x90
04F78:  MOVFF  48D,48F
04F7C:  CLRF   x91
04F7E:  MOVLB  0
04F80:  RCALL  4DC0
....................    delay_ms(5); 
04F82:  MOVLW  05
04F84:  MOVLB  4
04F86:  MOVWF  x8D
04F88:  MOVLB  0
04F8A:  CALL   1B28
....................    write_ext_eeprom(2+(cicloMemoria*320),0); 
04F8E:  MOVFF  48C,490
04F92:  MOVFF  48B,48F
04F96:  MOVLW  01
04F98:  MOVLB  4
04F9A:  MOVWF  x92
04F9C:  MOVLW  40
04F9E:  MOVWF  x91
04FA0:  MOVLB  0
04FA2:  CALL   39EA
04FA6:  MOVFF  02,03
04FAA:  MOVF   01,W
04FAC:  ADDLW  02
04FAE:  MOVLB  4
04FB0:  MOVWF  x8D
04FB2:  MOVLW  00
04FB4:  ADDWFC 02,W
04FB6:  MOVWF  x8E
04FB8:  MOVWF  x90
04FBA:  MOVFF  48D,48F
04FBE:  CLRF   x91
04FC0:  MOVLB  0
04FC2:  RCALL  4DC0
....................    delay_ms(5); 
04FC4:  MOVLW  05
04FC6:  MOVLB  4
04FC8:  MOVWF  x8D
04FCA:  MOVLB  0
04FCC:  CALL   1B28
....................    write_ext_eeprom(3+(cicloMemoria*320),0); 
04FD0:  MOVFF  48C,490
04FD4:  MOVFF  48B,48F
04FD8:  MOVLW  01
04FDA:  MOVLB  4
04FDC:  MOVWF  x92
04FDE:  MOVLW  40
04FE0:  MOVWF  x91
04FE2:  MOVLB  0
04FE4:  CALL   39EA
04FE8:  MOVFF  02,03
04FEC:  MOVF   01,W
04FEE:  ADDLW  03
04FF0:  MOVLB  4
04FF2:  MOVWF  x8D
04FF4:  MOVLW  00
04FF6:  ADDWFC 02,W
04FF8:  MOVWF  x8E
04FFA:  MOVWF  x90
04FFC:  MOVFF  48D,48F
05000:  CLRF   x91
05002:  MOVLB  0
05004:  RCALL  4DC0
....................    delay_ms(5); 
05006:  MOVLW  05
05008:  MOVLB  4
0500A:  MOVWF  x8D
0500C:  MOVLB  0
0500E:  CALL   1B28
....................    write_ext_eeprom(4+(cicloMemoria*320),0); 
05012:  MOVFF  48C,490
05016:  MOVFF  48B,48F
0501A:  MOVLW  01
0501C:  MOVLB  4
0501E:  MOVWF  x92
05020:  MOVLW  40
05022:  MOVWF  x91
05024:  MOVLB  0
05026:  CALL   39EA
0502A:  MOVFF  02,03
0502E:  MOVF   01,W
05030:  ADDLW  04
05032:  MOVLB  4
05034:  MOVWF  x8D
05036:  MOVLW  00
05038:  ADDWFC 02,W
0503A:  MOVWF  x8E
0503C:  MOVWF  x90
0503E:  MOVFF  48D,48F
05042:  CLRF   x91
05044:  MOVLB  0
05046:  RCALL  4DC0
....................    delay_ms(5); 
05048:  MOVLW  05
0504A:  MOVLB  4
0504C:  MOVWF  x8D
0504E:  MOVLB  0
05050:  CALL   1B28
....................    for(posicionDato=0;posicionDato<35;posicionDato++){ 
05054:  MOVLB  3
05056:  CLRF   x18
05058:  CLRF   x17
0505A:  MOVF   x18,F
0505C:  BTFSS  FD8.2
0505E:  BRA    5408
05060:  MOVF   x17,W
05062:  SUBLW  22
05064:  BTFSS  FD8.0
05066:  BRA    5408
....................       write_ext_eeprom(5+(cicloMemoria*320)+(posicionDato*9),0); 
05068:  MOVFF  48C,490
0506C:  MOVFF  48B,48F
05070:  MOVLW  01
05072:  MOVLB  4
05074:  MOVWF  x92
05076:  MOVLW  40
05078:  MOVWF  x91
0507A:  MOVLB  0
0507C:  CALL   39EA
05080:  MOVFF  02,03
05084:  MOVF   01,W
05086:  ADDLW  05
05088:  MOVLB  4
0508A:  MOVWF  x8D
0508C:  MOVLW  00
0508E:  ADDWFC 02,W
05090:  MOVWF  x8E
05092:  MOVFF  318,490
05096:  MOVFF  317,48F
0509A:  CLRF   x92
0509C:  MOVLW  09
0509E:  MOVWF  x91
050A0:  MOVLB  0
050A2:  CALL   39EA
050A6:  MOVFF  02,03
050AA:  MOVF   01,W
050AC:  MOVLB  4
050AE:  ADDWF  x8D,F
050B0:  MOVF   02,W
050B2:  ADDWFC x8E,F
050B4:  MOVFF  48E,490
050B8:  MOVFF  48D,48F
050BC:  CLRF   x91
050BE:  MOVLB  0
050C0:  RCALL  4DC0
....................       delay_ms(5); 
050C2:  MOVLW  05
050C4:  MOVLB  4
050C6:  MOVWF  x8D
050C8:  MOVLB  0
050CA:  CALL   1B28
....................       write_ext_eeprom(6+(cicloMemoria*320)+(posicionDato*9),0); 
050CE:  MOVFF  48C,490
050D2:  MOVFF  48B,48F
050D6:  MOVLW  01
050D8:  MOVLB  4
050DA:  MOVWF  x92
050DC:  MOVLW  40
050DE:  MOVWF  x91
050E0:  MOVLB  0
050E2:  CALL   39EA
050E6:  MOVFF  02,03
050EA:  MOVF   01,W
050EC:  ADDLW  06
050EE:  MOVLB  4
050F0:  MOVWF  x8D
050F2:  MOVLW  00
050F4:  ADDWFC 02,W
050F6:  MOVWF  x8E
050F8:  MOVFF  318,490
050FC:  MOVFF  317,48F
05100:  CLRF   x92
05102:  MOVLW  09
05104:  MOVWF  x91
05106:  MOVLB  0
05108:  CALL   39EA
0510C:  MOVFF  02,03
05110:  MOVF   01,W
05112:  MOVLB  4
05114:  ADDWF  x8D,F
05116:  MOVF   02,W
05118:  ADDWFC x8E,F
0511A:  MOVFF  48E,490
0511E:  MOVFF  48D,48F
05122:  CLRF   x91
05124:  MOVLB  0
05126:  RCALL  4DC0
....................       delay_ms(5); 
05128:  MOVLW  05
0512A:  MOVLB  4
0512C:  MOVWF  x8D
0512E:  MOVLB  0
05130:  CALL   1B28
....................       write_ext_eeprom(7+(cicloMemoria*320)+(posicionDato*9),0); 
05134:  MOVFF  48C,490
05138:  MOVFF  48B,48F
0513C:  MOVLW  01
0513E:  MOVLB  4
05140:  MOVWF  x92
05142:  MOVLW  40
05144:  MOVWF  x91
05146:  MOVLB  0
05148:  CALL   39EA
0514C:  MOVFF  02,03
05150:  MOVF   01,W
05152:  ADDLW  07
05154:  MOVLB  4
05156:  MOVWF  x8D
05158:  MOVLW  00
0515A:  ADDWFC 02,W
0515C:  MOVWF  x8E
0515E:  MOVFF  318,490
05162:  MOVFF  317,48F
05166:  CLRF   x92
05168:  MOVLW  09
0516A:  MOVWF  x91
0516C:  MOVLB  0
0516E:  CALL   39EA
05172:  MOVFF  02,03
05176:  MOVF   01,W
05178:  MOVLB  4
0517A:  ADDWF  x8D,F
0517C:  MOVF   02,W
0517E:  ADDWFC x8E,F
05180:  MOVFF  48E,490
05184:  MOVFF  48D,48F
05188:  CLRF   x91
0518A:  MOVLB  0
0518C:  RCALL  4DC0
....................       delay_ms(5); 
0518E:  MOVLW  05
05190:  MOVLB  4
05192:  MOVWF  x8D
05194:  MOVLB  0
05196:  CALL   1B28
....................       write_ext_eeprom(8+(cicloMemoria*320)+(posicionDato*9),0); 
0519A:  MOVFF  48C,490
0519E:  MOVFF  48B,48F
051A2:  MOVLW  01
051A4:  MOVLB  4
051A6:  MOVWF  x92
051A8:  MOVLW  40
051AA:  MOVWF  x91
051AC:  MOVLB  0
051AE:  CALL   39EA
051B2:  MOVFF  02,03
051B6:  MOVF   01,W
051B8:  ADDLW  08
051BA:  MOVLB  4
051BC:  MOVWF  x8D
051BE:  MOVLW  00
051C0:  ADDWFC 02,W
051C2:  MOVWF  x8E
051C4:  MOVFF  318,490
051C8:  MOVFF  317,48F
051CC:  CLRF   x92
051CE:  MOVLW  09
051D0:  MOVWF  x91
051D2:  MOVLB  0
051D4:  CALL   39EA
051D8:  MOVFF  02,03
051DC:  MOVF   01,W
051DE:  MOVLB  4
051E0:  ADDWF  x8D,F
051E2:  MOVF   02,W
051E4:  ADDWFC x8E,F
051E6:  MOVFF  48E,490
051EA:  MOVFF  48D,48F
051EE:  CLRF   x91
051F0:  MOVLB  0
051F2:  RCALL  4DC0
....................       delay_ms(5); 
051F4:  MOVLW  05
051F6:  MOVLB  4
051F8:  MOVWF  x8D
051FA:  MOVLB  0
051FC:  CALL   1B28
....................       write_ext_eeprom(9+(cicloMemoria*320)+(posicionDato*9),0); 
05200:  MOVFF  48C,490
05204:  MOVFF  48B,48F
05208:  MOVLW  01
0520A:  MOVLB  4
0520C:  MOVWF  x92
0520E:  MOVLW  40
05210:  MOVWF  x91
05212:  MOVLB  0
05214:  CALL   39EA
05218:  MOVFF  02,03
0521C:  MOVF   01,W
0521E:  ADDLW  09
05220:  MOVLB  4
05222:  MOVWF  x8D
05224:  MOVLW  00
05226:  ADDWFC 02,W
05228:  MOVWF  x8E
0522A:  MOVFF  318,490
0522E:  MOVFF  317,48F
05232:  CLRF   x92
05234:  MOVLW  09
05236:  MOVWF  x91
05238:  MOVLB  0
0523A:  CALL   39EA
0523E:  MOVFF  02,03
05242:  MOVF   01,W
05244:  MOVLB  4
05246:  ADDWF  x8D,F
05248:  MOVF   02,W
0524A:  ADDWFC x8E,F
0524C:  MOVFF  48E,490
05250:  MOVFF  48D,48F
05254:  CLRF   x91
05256:  MOVLB  0
05258:  RCALL  4DC0
....................       delay_ms(5); 
0525A:  MOVLW  05
0525C:  MOVLB  4
0525E:  MOVWF  x8D
05260:  MOVLB  0
05262:  CALL   1B28
....................       write_ext_eeprom(10+(cicloMemoria*320)+(posicionDato*9),0); 
05266:  MOVFF  48C,490
0526A:  MOVFF  48B,48F
0526E:  MOVLW  01
05270:  MOVLB  4
05272:  MOVWF  x92
05274:  MOVLW  40
05276:  MOVWF  x91
05278:  MOVLB  0
0527A:  CALL   39EA
0527E:  MOVFF  02,03
05282:  MOVF   01,W
05284:  ADDLW  0A
05286:  MOVLB  4
05288:  MOVWF  x8D
0528A:  MOVLW  00
0528C:  ADDWFC 02,W
0528E:  MOVWF  x8E
05290:  MOVFF  318,490
05294:  MOVFF  317,48F
05298:  CLRF   x92
0529A:  MOVLW  09
0529C:  MOVWF  x91
0529E:  MOVLB  0
052A0:  CALL   39EA
052A4:  MOVFF  02,03
052A8:  MOVF   01,W
052AA:  MOVLB  4
052AC:  ADDWF  x8D,F
052AE:  MOVF   02,W
052B0:  ADDWFC x8E,F
052B2:  MOVFF  48E,490
052B6:  MOVFF  48D,48F
052BA:  CLRF   x91
052BC:  MOVLB  0
052BE:  RCALL  4DC0
....................       delay_ms(5); 
052C0:  MOVLW  05
052C2:  MOVLB  4
052C4:  MOVWF  x8D
052C6:  MOVLB  0
052C8:  CALL   1B28
....................       write_ext_eeprom(11+(cicloMemoria*320)+(posicionDato*9),0); 
052CC:  MOVFF  48C,490
052D0:  MOVFF  48B,48F
052D4:  MOVLW  01
052D6:  MOVLB  4
052D8:  MOVWF  x92
052DA:  MOVLW  40
052DC:  MOVWF  x91
052DE:  MOVLB  0
052E0:  CALL   39EA
052E4:  MOVFF  02,03
052E8:  MOVF   01,W
052EA:  ADDLW  0B
052EC:  MOVLB  4
052EE:  MOVWF  x8D
052F0:  MOVLW  00
052F2:  ADDWFC 02,W
052F4:  MOVWF  x8E
052F6:  MOVFF  318,490
052FA:  MOVFF  317,48F
052FE:  CLRF   x92
05300:  MOVLW  09
05302:  MOVWF  x91
05304:  MOVLB  0
05306:  CALL   39EA
0530A:  MOVFF  02,03
0530E:  MOVF   01,W
05310:  MOVLB  4
05312:  ADDWF  x8D,F
05314:  MOVF   02,W
05316:  ADDWFC x8E,F
05318:  MOVFF  48E,490
0531C:  MOVFF  48D,48F
05320:  CLRF   x91
05322:  MOVLB  0
05324:  RCALL  4DC0
....................       delay_ms(5); 
05326:  MOVLW  05
05328:  MOVLB  4
0532A:  MOVWF  x8D
0532C:  MOVLB  0
0532E:  CALL   1B28
....................       write_ext_eeprom(12+(cicloMemoria*320)+(posicionDato*9),0); 
05332:  MOVFF  48C,490
05336:  MOVFF  48B,48F
0533A:  MOVLW  01
0533C:  MOVLB  4
0533E:  MOVWF  x92
05340:  MOVLW  40
05342:  MOVWF  x91
05344:  MOVLB  0
05346:  CALL   39EA
0534A:  MOVFF  02,03
0534E:  MOVF   01,W
05350:  ADDLW  0C
05352:  MOVLB  4
05354:  MOVWF  x8D
05356:  MOVLW  00
05358:  ADDWFC 02,W
0535A:  MOVWF  x8E
0535C:  MOVFF  318,490
05360:  MOVFF  317,48F
05364:  CLRF   x92
05366:  MOVLW  09
05368:  MOVWF  x91
0536A:  MOVLB  0
0536C:  CALL   39EA
05370:  MOVFF  02,03
05374:  MOVF   01,W
05376:  MOVLB  4
05378:  ADDWF  x8D,F
0537A:  MOVF   02,W
0537C:  ADDWFC x8E,F
0537E:  MOVFF  48E,490
05382:  MOVFF  48D,48F
05386:  CLRF   x91
05388:  MOVLB  0
0538A:  RCALL  4DC0
....................       delay_ms(5); 
0538C:  MOVLW  05
0538E:  MOVLB  4
05390:  MOVWF  x8D
05392:  MOVLB  0
05394:  CALL   1B28
....................       write_ext_eeprom(13+(cicloMemoria*320)+(posicionDato*9),0); 
05398:  MOVFF  48C,490
0539C:  MOVFF  48B,48F
053A0:  MOVLW  01
053A2:  MOVLB  4
053A4:  MOVWF  x92
053A6:  MOVLW  40
053A8:  MOVWF  x91
053AA:  MOVLB  0
053AC:  CALL   39EA
053B0:  MOVFF  02,03
053B4:  MOVF   01,W
053B6:  ADDLW  0D
053B8:  MOVLB  4
053BA:  MOVWF  x8D
053BC:  MOVLW  00
053BE:  ADDWFC 02,W
053C0:  MOVWF  x8E
053C2:  MOVFF  318,490
053C6:  MOVFF  317,48F
053CA:  CLRF   x92
053CC:  MOVLW  09
053CE:  MOVWF  x91
053D0:  MOVLB  0
053D2:  CALL   39EA
053D6:  MOVFF  02,03
053DA:  MOVF   01,W
053DC:  MOVLB  4
053DE:  ADDWF  x8D,F
053E0:  MOVF   02,W
053E2:  ADDWFC x8E,F
053E4:  MOVFF  48E,490
053E8:  MOVFF  48D,48F
053EC:  CLRF   x91
053EE:  MOVLB  0
053F0:  RCALL  4DC0
....................       delay_ms(5); 
053F2:  MOVLW  05
053F4:  MOVLB  4
053F6:  MOVWF  x8D
053F8:  MOVLB  0
053FA:  CALL   1B28
....................    } 
053FE:  MOVLB  3
05400:  INCF   x17,F
05402:  BTFSC  FD8.2
05404:  INCF   x18,F
05406:  BRA    505A
....................    posicionDato=0; 
05408:  CLRF   x18
0540A:  CLRF   x17
.................... } 
0540C:  MOVLB  0
0540E:  GOTO   54AE (RETURN)
....................  
.................... void incrementaCiclos(){ 
....................    if(!Ciclo){ 
*
06EA2:  BTFSC  xD1.7
06EA4:  BRA    6F2C
....................       Ciclo=ON; 
06EA6:  BSF    xD1.7
....................       Ciclos++; 
06EA8:  MOVLB  3
06EAA:  INCF   xAC,F
06EAC:  BTFSC  FD8.2
06EAE:  INCF   xAD,F
....................       CiclosL=make8(Ciclos,0); 
06EB0:  MOVFF  3AC,393
....................       CiclosH=make8(Ciclos,1); 
06EB4:  MOVFF  3AD,394
....................       write_eeprom(37,CiclosL); 
06EB8:  CLRF   FAA
06EBA:  MOVLW  25
06EBC:  MOVWF  FA9
06EBE:  MOVFF  393,FA8
06EC2:  BCF    FA6.6
06EC4:  BCF    FA6.7
06EC6:  BSF    FA6.2
06EC8:  MOVF   FF2,W
06ECA:  MOVWF  00
06ECC:  BCF    FF2.6
06ECE:  BCF    FF2.7
06ED0:  MOVLB  F
06ED2:  MOVLW  55
06ED4:  MOVWF  FA7
06ED6:  MOVLW  AA
06ED8:  MOVWF  FA7
06EDA:  BSF    FA6.1
06EDC:  BTFSC  FA6.1
06EDE:  BRA    6EDC
06EE0:  BCF    FA6.2
06EE2:  MOVF   00,W
06EE4:  IORWF  FF2,F
....................       delay_ms(20); 
06EE6:  MOVLW  14
06EE8:  MOVLB  4
06EEA:  MOVWF  x8D
06EEC:  MOVLB  0
06EEE:  CALL   1B28
....................       write_eeprom(38,CiclosH); 
06EF2:  CLRF   FAA
06EF4:  MOVLW  26
06EF6:  MOVWF  FA9
06EF8:  MOVFF  394,FA8
06EFC:  BCF    FA6.6
06EFE:  BCF    FA6.7
06F00:  BSF    FA6.2
06F02:  MOVF   FF2,W
06F04:  MOVWF  00
06F06:  BCF    FF2.6
06F08:  BCF    FF2.7
06F0A:  MOVLB  F
06F0C:  MOVLW  55
06F0E:  MOVWF  FA7
06F10:  MOVLW  AA
06F12:  MOVWF  FA7
06F14:  BSF    FA6.1
06F16:  BTFSC  FA6.1
06F18:  BRA    6F16
06F1A:  BCF    FA6.2
06F1C:  MOVF   00,W
06F1E:  IORWF  FF2,F
....................       delay_ms(20); 
06F20:  MOVLW  14
06F22:  MOVLB  4
06F24:  MOVWF  x8D
06F26:  MOVLB  0
06F28:  CALL   1B28
....................    } 
.................... } 
06F2C:  RETLW  00
....................  
.................... void exportarData(){ 
*
05E10:  MOVLB  4
05E12:  CLRF   x75
05E14:  CLRF   x74
05E16:  CLRF   x76
.................... int16 posicion=0; 
.................... int8 tmp=0; 
.................... posicion=40; 
05E18:  CLRF   x75
05E1A:  MOVLW  28
05E1C:  MOVWF  x74
.................... direccion=0xB0; 
05E1E:  MOVLW  B0
05E20:  MOVLB  0
05E22:  MOVWF  xB5
.................... //Buzzer_on; 
.................... //Inicio de Transmision 
.................... i2c_start();            // Comienzo comunicacin 
05E24:  BSF    F94.4
05E26:  MOVLW  05
05E28:  MOVWF  00
05E2A:  DECFSZ 00,F
05E2C:  BRA    5E2A
05E2E:  BSF    F94.3
05E30:  MOVLW  06
05E32:  MOVWF  00
05E34:  DECFSZ 00,F
05E36:  BRA    5E34
05E38:  BCF    F8B.4
05E3A:  BCF    F94.4
05E3C:  MOVLW  05
05E3E:  MOVWF  00
05E40:  DECFSZ 00,F
05E42:  BRA    5E40
05E44:  BCF    F8B.3
05E46:  BCF    F94.3
.................... i2c_write(direccion);   // Direccin del esclavo en el bus I2C 
05E48:  MOVFF  B5,495
05E4C:  CALL   465A
.................... i2c_write(make8(posicion,0));    // Posicin donde se guardara el dato transmitido 
05E50:  MOVFF  474,477
05E54:  MOVFF  474,495
05E58:  CALL   465A
.................... i2c_write(make8(posicion,1));    // Posicin donde se guardara el dato transmitido 
05E5C:  MOVFF  475,477
05E60:  MOVFF  475,495
05E64:  CALL   465A
.................... i2c_write(0xff);        // Dato a transmitir 
05E68:  MOVLW  FF
05E6A:  MOVLB  4
05E6C:  MOVWF  x95
05E6E:  MOVLB  0
05E70:  CALL   465A
.................... i2c_stop(); 
05E74:  BCF    F94.4
05E76:  NOP   
05E78:  BSF    F94.3
05E7A:  BTFSS  F82.3
05E7C:  BRA    5E7A
05E7E:  MOVLW  05
05E80:  MOVWF  00
05E82:  DECFSZ 00,F
05E84:  BRA    5E82
05E86:  BRA    5E88
05E88:  NOP   
05E8A:  BSF    F94.4
05E8C:  MOVLW  05
05E8E:  MOVWF  00
05E90:  DECFSZ 00,F
05E92:  BRA    5E90
.................... ++posicion; 
05E94:  MOVLB  4
05E96:  INCF   x74,F
05E98:  BTFSC  FD8.2
05E9A:  INCF   x75,F
.................... i2c_start();            // Comienzo comunicacin 
05E9C:  BSF    F94.4
05E9E:  MOVLW  05
05EA0:  MOVWF  00
05EA2:  DECFSZ 00,F
05EA4:  BRA    5EA2
05EA6:  BSF    F94.3
05EA8:  MOVLW  06
05EAA:  MOVWF  00
05EAC:  DECFSZ 00,F
05EAE:  BRA    5EAC
05EB0:  BCF    F8B.4
05EB2:  BCF    F94.4
05EB4:  MOVLW  05
05EB6:  MOVWF  00
05EB8:  DECFSZ 00,F
05EBA:  BRA    5EB8
05EBC:  BCF    F8B.3
05EBE:  BCF    F94.3
.................... i2c_write(direccion);   // Direccin del esclavo en el bus I2C 
05EC0:  MOVFF  B5,495
05EC4:  MOVLB  0
05EC6:  CALL   465A
.................... i2c_write(make8(posicion,0));    // Posicin donde se guardara el dato transmitido 
05ECA:  MOVFF  474,477
05ECE:  MOVFF  474,495
05ED2:  CALL   465A
.................... i2c_write(make8(posicion,1));    // Posicin donde se guardara el dato transmitido 
05ED6:  MOVFF  475,477
05EDA:  MOVFF  475,495
05EDE:  CALL   465A
.................... i2c_write(0xff);        // Dato a transmitir 
05EE2:  MOVLW  FF
05EE4:  MOVLB  4
05EE6:  MOVWF  x95
05EE8:  MOVLB  0
05EEA:  CALL   465A
.................... i2c_stop(); 
05EEE:  BCF    F94.4
05EF0:  NOP   
05EF2:  BSF    F94.3
05EF4:  BTFSS  F82.3
05EF6:  BRA    5EF4
05EF8:  MOVLW  05
05EFA:  MOVWF  00
05EFC:  DECFSZ 00,F
05EFE:  BRA    5EFC
05F00:  BRA    5F02
05F02:  NOP   
05F04:  BSF    F94.4
05F06:  MOVLW  05
05F08:  MOVWF  00
05F0A:  DECFSZ 00,F
05F0C:  BRA    5F0A
.................... ++posicion; 
05F0E:  MOVLB  4
05F10:  INCF   x74,F
05F12:  BTFSC  FD8.2
05F14:  INCF   x75,F
.................... //Se envian 2 veces ff para indicar que se inicia la transmision. 
....................  
....................    for(i=0;i<5;i++){ 
05F16:  MOVLB  3
05F18:  CLRF   x92
05F1A:  MOVF   x92,W
05F1C:  SUBLW  04
05F1E:  BNC   5FD6
....................       tmp=read_ext_eeprom((cicloVisto*320)+i); 
05F20:  MOVLB  4
05F22:  CLRF   x90
05F24:  MOVFF  312,48F
05F28:  MOVLW  01
05F2A:  MOVWF  x92
05F2C:  MOVLW  40
05F2E:  MOVWF  x91
05F30:  MOVLB  0
05F32:  CALL   39EA
05F36:  MOVFF  02,478
05F3A:  MOVFF  01,477
05F3E:  MOVLB  3
05F40:  MOVF   x92,W
05F42:  MOVLB  4
05F44:  ADDWF  x77,F
05F46:  MOVLW  00
05F48:  ADDWFC x78,F
05F4A:  MOVFF  478,47A
05F4E:  MOVFF  477,479
05F52:  MOVLB  0
05F54:  CALL   5696
05F58:  MOVFF  01,476
....................       //if(tmp>250) 
....................       //   tmp=20; 
....................       i2c_start();            // Comienzo comunicacin 
05F5C:  BSF    F94.4
05F5E:  MOVLW  05
05F60:  MOVWF  00
05F62:  DECFSZ 00,F
05F64:  BRA    5F62
05F66:  BSF    F94.3
05F68:  MOVLW  06
05F6A:  MOVWF  00
05F6C:  DECFSZ 00,F
05F6E:  BRA    5F6C
05F70:  BCF    F8B.4
05F72:  BCF    F94.4
05F74:  MOVLW  05
05F76:  MOVWF  00
05F78:  DECFSZ 00,F
05F7A:  BRA    5F78
05F7C:  BCF    F8B.3
05F7E:  BCF    F94.3
....................       i2c_write(direccion);   // Direccin del esclavo en el bus I2C 
05F80:  MOVFF  B5,495
05F84:  CALL   465A
....................       i2c_write(make8(posicion,0));    // Posicin donde se guardara el dato transmitido 
05F88:  MOVFF  474,477
05F8C:  MOVFF  474,495
05F90:  CALL   465A
....................       i2c_write(make8(posicion,1));    // Posicin donde se guardara el dato transmitido 
05F94:  MOVFF  475,477
05F98:  MOVFF  475,495
05F9C:  CALL   465A
....................       i2c_write(tmp);        // Dato a transmitir 
05FA0:  MOVFF  476,495
05FA4:  CALL   465A
....................       i2c_stop();  
05FA8:  BCF    F94.4
05FAA:  NOP   
05FAC:  BSF    F94.3
05FAE:  BTFSS  F82.3
05FB0:  BRA    5FAE
05FB2:  MOVLW  05
05FB4:  MOVWF  00
05FB6:  DECFSZ 00,F
05FB8:  BRA    5FB6
05FBA:  BRA    5FBC
05FBC:  NOP   
05FBE:  BSF    F94.4
05FC0:  MOVLW  05
05FC2:  MOVWF  00
05FC4:  DECFSZ 00,F
05FC6:  BRA    5FC4
....................       ++posicion; 
05FC8:  MOVLB  4
05FCA:  INCF   x74,F
05FCC:  BTFSC  FD8.2
05FCE:  INCF   x75,F
....................    } 
05FD0:  MOVLB  3
05FD2:  INCF   x92,F
05FD4:  BRA    5F1A
....................    for(i=0;i<35;i++){//Lee Valores para completar la Tabla 
05FD6:  CLRF   x92
05FD8:  MOVF   x92,W
05FDA:  SUBLW  22
05FDC:  BNC   60B2
....................       for(j=5;j<14;j++){//Lee Valores para completar la Tabla 
05FDE:  MOVLW  05
05FE0:  MOVWF  x14
05FE2:  MOVF   x14,W
05FE4:  SUBLW  0D
05FE6:  BNC   60AE
....................          tmp=read_ext_eeprom((cicloVisto*320)+j+(i*9)); 
05FE8:  MOVLB  4
05FEA:  CLRF   x90
05FEC:  MOVFF  312,48F
05FF0:  MOVLW  01
05FF2:  MOVWF  x92
05FF4:  MOVLW  40
05FF6:  MOVWF  x91
05FF8:  MOVLB  0
05FFA:  CALL   39EA
05FFE:  MOVFF  02,478
06002:  MOVFF  01,477
06006:  MOVLB  3
06008:  MOVF   x14,W
0600A:  MOVLB  4
0600C:  ADDWF  x77,F
0600E:  MOVLW  00
06010:  ADDWFC x78,F
06012:  MOVLB  3
06014:  MOVF   x92,W
06016:  MULLW  09
06018:  MOVF   FF3,W
0601A:  MOVLB  4
0601C:  ADDWF  x77,F
0601E:  MOVLW  00
06020:  ADDWFC x78,F
06022:  MOVFF  478,47A
06026:  MOVFF  477,479
0602A:  MOVLB  0
0602C:  CALL   5696
06030:  MOVFF  01,476
....................          //if(tmp>250) 
....................          //   tmp=20; 
....................          i2c_start();            // Comienzo comunicacin 
06034:  BSF    F94.4
06036:  MOVLW  05
06038:  MOVWF  00
0603A:  DECFSZ 00,F
0603C:  BRA    603A
0603E:  BSF    F94.3
06040:  MOVLW  06
06042:  MOVWF  00
06044:  DECFSZ 00,F
06046:  BRA    6044
06048:  BCF    F8B.4
0604A:  BCF    F94.4
0604C:  MOVLW  05
0604E:  MOVWF  00
06050:  DECFSZ 00,F
06052:  BRA    6050
06054:  BCF    F8B.3
06056:  BCF    F94.3
....................          i2c_write(direccion);   // Direccin del esclavo en el bus I2C 
06058:  MOVFF  B5,495
0605C:  CALL   465A
....................          i2c_write(make8(posicion,0));    // Posicin donde se guardara el dato transmitido 
06060:  MOVFF  474,477
06064:  MOVFF  474,495
06068:  CALL   465A
....................          i2c_write(make8(posicion,1));    // Posicin donde se guardara el dato transmitido 
0606C:  MOVFF  475,477
06070:  MOVFF  475,495
06074:  CALL   465A
....................          i2c_write(tmp);        // Dato a transmitir 
06078:  MOVFF  476,495
0607C:  CALL   465A
....................          i2c_stop();  
06080:  BCF    F94.4
06082:  NOP   
06084:  BSF    F94.3
06086:  BTFSS  F82.3
06088:  BRA    6086
0608A:  MOVLW  05
0608C:  MOVWF  00
0608E:  DECFSZ 00,F
06090:  BRA    608E
06092:  BRA    6094
06094:  NOP   
06096:  BSF    F94.4
06098:  MOVLW  05
0609A:  MOVWF  00
0609C:  DECFSZ 00,F
0609E:  BRA    609C
....................          ++posicion; 
060A0:  MOVLB  4
060A2:  INCF   x74,F
060A4:  BTFSC  FD8.2
060A6:  INCF   x75,F
....................       } 
060A8:  MOVLB  3
060AA:  INCF   x14,F
060AC:  BRA    5FE2
....................    } 
060AE:  INCF   x92,F
060B0:  BRA    5FD8
....................  
.................... //Fin de Transmision 
.................... i2c_start();            // Comienzo comunicacin 
060B2:  BSF    F94.4
060B4:  MOVLW  05
060B6:  MOVWF  00
060B8:  DECFSZ 00,F
060BA:  BRA    60B8
060BC:  BSF    F94.3
060BE:  MOVLW  06
060C0:  MOVWF  00
060C2:  DECFSZ 00,F
060C4:  BRA    60C2
060C6:  BCF    F8B.4
060C8:  BCF    F94.4
060CA:  MOVLW  05
060CC:  MOVWF  00
060CE:  DECFSZ 00,F
060D0:  BRA    60CE
060D2:  BCF    F8B.3
060D4:  BCF    F94.3
.................... i2c_write(direccion);   // Direccin del esclavo en el bus I2C 
060D6:  MOVFF  B5,495
060DA:  MOVLB  0
060DC:  CALL   465A
.................... i2c_write(make8(posicion,0));    // Posicin donde se guardara el dato transmitido 
060E0:  MOVFF  474,477
060E4:  MOVFF  474,495
060E8:  CALL   465A
.................... i2c_write(make8(posicion,1));    // Posicin donde se guardara el dato transmitido 
060EC:  MOVFF  475,477
060F0:  MOVFF  475,495
060F4:  CALL   465A
.................... i2c_write(0x1f);        // Dato a transmitir 
060F8:  MOVLW  1F
060FA:  MOVLB  4
060FC:  MOVWF  x95
060FE:  MOVLB  0
06100:  CALL   465A
.................... i2c_stop(); 
06104:  BCF    F94.4
06106:  NOP   
06108:  BSF    F94.3
0610A:  BTFSS  F82.3
0610C:  BRA    610A
0610E:  MOVLW  05
06110:  MOVWF  00
06112:  DECFSZ 00,F
06114:  BRA    6112
06116:  BRA    6118
06118:  NOP   
0611A:  BSF    F94.4
0611C:  MOVLW  05
0611E:  MOVWF  00
06120:  DECFSZ 00,F
06122:  BRA    6120
.................... ++posicion; 
06124:  MOVLB  4
06126:  INCF   x74,F
06128:  BTFSC  FD8.2
0612A:  INCF   x75,F
.................... i2c_start();            // Comienzo comunicacin 
0612C:  BSF    F94.4
0612E:  MOVLW  05
06130:  MOVWF  00
06132:  DECFSZ 00,F
06134:  BRA    6132
06136:  BSF    F94.3
06138:  MOVLW  06
0613A:  MOVWF  00
0613C:  DECFSZ 00,F
0613E:  BRA    613C
06140:  BCF    F8B.4
06142:  BCF    F94.4
06144:  MOVLW  05
06146:  MOVWF  00
06148:  DECFSZ 00,F
0614A:  BRA    6148
0614C:  BCF    F8B.3
0614E:  BCF    F94.3
.................... i2c_write(direccion);   // Direccin del esclavo en el bus I2C 
06150:  MOVFF  B5,495
06154:  MOVLB  0
06156:  CALL   465A
.................... i2c_write(make8(posicion,0));    // Posicin donde se guardara el dato transmitido 
0615A:  MOVFF  474,477
0615E:  MOVFF  474,495
06162:  CALL   465A
.................... i2c_write(make8(posicion,1));    // Posicin donde se guardara el dato transmitido 
06166:  MOVFF  475,477
0616A:  MOVFF  475,495
0616E:  CALL   465A
.................... i2c_write(0x1f);        // Dato a transmitir 
06172:  MOVLW  1F
06174:  MOVLB  4
06176:  MOVWF  x95
06178:  MOVLB  0
0617A:  CALL   465A
.................... i2c_stop(); 
0617E:  BCF    F94.4
06180:  NOP   
06182:  BSF    F94.3
06184:  BTFSS  F82.3
06186:  BRA    6184
06188:  MOVLW  05
0618A:  MOVWF  00
0618C:  DECFSZ 00,F
0618E:  BRA    618C
06190:  BRA    6192
06192:  NOP   
06194:  BSF    F94.4
06196:  MOVLW  05
06198:  MOVWF  00
0619A:  DECFSZ 00,F
0619C:  BRA    619A
.................... ++posicion; 
0619E:  MOVLB  4
061A0:  INCF   x74,F
061A2:  BTFSC  FD8.2
061A4:  INCF   x75,F
.................... //Se envian 2 veces 1f para indicar que se inicia la transmision. 
.................... delay_ms(200); 
061A6:  MOVLW  C8
061A8:  MOVWF  x8D
061AA:  MOVLB  0
061AC:  CALL   1B28
.................... //Buzzer_off; 
.................... } 
061B0:  GOTO   C214 (RETURN)
....................  
.................... void codificaAlarma(){ 
....................    if(ACiclos[i]==0){ 
061B4:  CLRF   03
061B6:  MOVLB  3
061B8:  MOVF   x92,W
061BA:  ADDLW  45
061BC:  MOVWF  FE9
061BE:  MOVLW  04
061C0:  ADDWFC 03,W
061C2:  MOVWF  FEA
061C4:  MOVF   FEF,F
061C6:  BNZ   6206
....................       printf("A%u.txt=\"----\"",i+1); 
061C8:  MOVLW  01
061CA:  ADDWF  x92,W
061CC:  MOVLB  4
061CE:  MOVWF  x74
061D0:  MOVLW  41
061D2:  BTFSS  F9E.4
061D4:  BRA    61D2
061D6:  MOVWF  FAD
061D8:  MOVFF  474,479
061DC:  MOVLW  1B
061DE:  MOVWF  x7A
061E0:  MOVLB  0
061E2:  CALL   4A94
061E6:  MOVLW  F9
061E8:  MOVWF  FF6
061EA:  MOVLW  01
061EC:  MOVWF  FF7
061EE:  MOVLW  00
061F0:  MOVWF  FF8
061F2:  MOVLW  0B
061F4:  MOVLB  4
061F6:  MOVWF  x79
061F8:  MOVLB  0
061FA:  CALL   4A36
....................       SendDataDisplay(); 
061FE:  CALL   393E
....................    }else if(ACiclos[i]==1){ 
06202:  BRA    6772
06204:  MOVLB  3
06206:  CLRF   03
06208:  MOVF   x92,W
0620A:  ADDLW  45
0620C:  MOVWF  FE9
0620E:  MOVLW  04
06210:  ADDWFC 03,W
06212:  MOVWF  FEA
06214:  DECFSZ FEF,W
06216:  BRA    6256
....................       printf("A%u.txt=\"Parada\"",i+1); 
06218:  MOVLW  01
0621A:  ADDWF  x92,W
0621C:  MOVLB  4
0621E:  MOVWF  x74
06220:  MOVLW  41
06222:  BTFSS  F9E.4
06224:  BRA    6222
06226:  MOVWF  FAD
06228:  MOVFF  474,479
0622C:  MOVLW  1B
0622E:  MOVWF  x7A
06230:  MOVLB  0
06232:  CALL   4A94
06236:  MOVLW  09
06238:  MOVWF  FF6
0623A:  MOVLW  02
0623C:  MOVWF  FF7
0623E:  MOVLW  00
06240:  MOVWF  FF8
06242:  MOVLW  0D
06244:  MOVLB  4
06246:  MOVWF  x79
06248:  MOVLB  0
0624A:  CALL   4A36
....................       SendDataDisplay(); 
0624E:  CALL   393E
....................    }else if(ACiclos[i]==2){ 
06252:  BRA    6772
06254:  MOVLB  3
06256:  CLRF   03
06258:  MOVF   x92,W
0625A:  ADDLW  45
0625C:  MOVWF  FE9
0625E:  MOVLW  04
06260:  ADDWFC 03,W
06262:  MOVWF  FEA
06264:  MOVF   FEF,W
06266:  SUBLW  02
06268:  BNZ   62A8
....................       printf("A%u.txt=\"Puerta S\"",i+1); 
0626A:  MOVLW  01
0626C:  ADDWF  x92,W
0626E:  MOVLB  4
06270:  MOVWF  x74
06272:  MOVLW  41
06274:  BTFSS  F9E.4
06276:  BRA    6274
06278:  MOVWF  FAD
0627A:  MOVFF  474,479
0627E:  MOVLW  1B
06280:  MOVWF  x7A
06282:  MOVLB  0
06284:  CALL   4A94
06288:  MOVLW  1B
0628A:  MOVWF  FF6
0628C:  MOVLW  02
0628E:  MOVWF  FF7
06290:  MOVLW  00
06292:  MOVWF  FF8
06294:  MOVLW  0F
06296:  MOVLB  4
06298:  MOVWF  x79
0629A:  MOVLB  0
0629C:  CALL   4A36
....................       SendDataDisplay(); 
062A0:  CALL   393E
....................    }else if(ACiclos[i]==3){ 
062A4:  BRA    6772
062A6:  MOVLB  3
062A8:  CLRF   03
062AA:  MOVF   x92,W
062AC:  ADDLW  45
062AE:  MOVWF  FE9
062B0:  MOVLW  04
062B2:  ADDWFC 03,W
062B4:  MOVWF  FEA
062B6:  MOVF   FEF,W
062B8:  SUBLW  03
062BA:  BNZ   62FA
....................       printf("A%u.txt=\"Termostato\"",i+1); 
062BC:  MOVLW  01
062BE:  ADDWF  x92,W
062C0:  MOVLB  4
062C2:  MOVWF  x74
062C4:  MOVLW  41
062C6:  BTFSS  F9E.4
062C8:  BRA    62C6
062CA:  MOVWF  FAD
062CC:  MOVFF  474,479
062D0:  MOVLW  1B
062D2:  MOVWF  x7A
062D4:  MOVLB  0
062D6:  CALL   4A94
062DA:  MOVLW  2F
062DC:  MOVWF  FF6
062DE:  MOVLW  02
062E0:  MOVWF  FF7
062E2:  MOVLW  00
062E4:  MOVWF  FF8
062E6:  MOVLW  11
062E8:  MOVLB  4
062EA:  MOVWF  x79
062EC:  MOVLB  0
062EE:  CALL   4A36
....................       SendDataDisplay(); 
062F2:  CALL   393E
....................    }else if(ACiclos[i]==4){ 
062F6:  BRA    6772
062F8:  MOVLB  3
062FA:  CLRF   03
062FC:  MOVF   x92,W
062FE:  ADDLW  45
06300:  MOVWF  FE9
06302:  MOVLW  04
06304:  ADDWFC 03,W
06306:  MOVWF  FEA
06308:  MOVF   FEF,W
0630A:  SUBLW  04
0630C:  BNZ   634C
....................       printf("A%u.txt=\"SobreT\"",i+1); 
0630E:  MOVLW  01
06310:  ADDWF  x92,W
06312:  MOVLB  4
06314:  MOVWF  x74
06316:  MOVLW  41
06318:  BTFSS  F9E.4
0631A:  BRA    6318
0631C:  MOVWF  FAD
0631E:  MOVFF  474,479
06322:  MOVLW  1B
06324:  MOVWF  x7A
06326:  MOVLB  0
06328:  CALL   4A94
0632C:  MOVLW  45
0632E:  MOVWF  FF6
06330:  MOVLW  02
06332:  MOVWF  FF7
06334:  MOVLW  00
06336:  MOVWF  FF8
06338:  MOVLW  0D
0633A:  MOVLB  4
0633C:  MOVWF  x79
0633E:  MOVLB  0
06340:  CALL   4A36
....................       SendDataDisplay(); 
06344:  CALL   393E
....................    }else if(ACiclos[i]==5){ 
06348:  BRA    6772
0634A:  MOVLB  3
0634C:  CLRF   03
0634E:  MOVF   x92,W
06350:  ADDLW  45
06352:  MOVWF  FE9
06354:  MOVLW  04
06356:  ADDWFC 03,W
06358:  MOVWF  FEA
0635A:  MOVF   FEF,W
0635C:  SUBLW  05
0635E:  BNZ   639E
....................       printf("A%u.txt=\"Tiempo\"",i+1); 
06360:  MOVLW  01
06362:  ADDWF  x92,W
06364:  MOVLB  4
06366:  MOVWF  x74
06368:  MOVLW  41
0636A:  BTFSS  F9E.4
0636C:  BRA    636A
0636E:  MOVWF  FAD
06370:  MOVFF  474,479
06374:  MOVLW  1B
06376:  MOVWF  x7A
06378:  MOVLB  0
0637A:  CALL   4A94
0637E:  MOVLW  57
06380:  MOVWF  FF6
06382:  MOVLW  02
06384:  MOVWF  FF7
06386:  MOVLW  00
06388:  MOVWF  FF8
0638A:  MOVLW  0D
0638C:  MOVLB  4
0638E:  MOVWF  x79
06390:  MOVLB  0
06392:  CALL   4A36
....................       SendDataDisplay(); 
06396:  CALL   393E
....................    }else if(ACiclos[i]==6){ 
0639A:  BRA    6772
0639C:  MOVLB  3
0639E:  CLRF   03
063A0:  MOVF   x92,W
063A2:  ADDLW  45
063A4:  MOVWF  FE9
063A6:  MOVLW  04
063A8:  ADDWFC 03,W
063AA:  MOVWF  FEA
063AC:  MOVF   FEF,W
063AE:  SUBLW  06
063B0:  BNZ   63F0
....................       printf("A%u.txt=\"Presion\"",i+1); 
063B2:  MOVLW  01
063B4:  ADDWF  x92,W
063B6:  MOVLB  4
063B8:  MOVWF  x74
063BA:  MOVLW  41
063BC:  BTFSS  F9E.4
063BE:  BRA    63BC
063C0:  MOVWF  FAD
063C2:  MOVFF  474,479
063C6:  MOVLW  1B
063C8:  MOVWF  x7A
063CA:  MOVLB  0
063CC:  CALL   4A94
063D0:  MOVLW  69
063D2:  MOVWF  FF6
063D4:  MOVLW  02
063D6:  MOVWF  FF7
063D8:  MOVLW  00
063DA:  MOVWF  FF8
063DC:  MOVLW  0E
063DE:  MOVLB  4
063E0:  MOVWF  x79
063E2:  MOVLB  0
063E4:  CALL   4A36
....................       SendDataDisplay(); 
063E8:  CALL   393E
....................    }else if(ACiclos[i]==7){ 
063EC:  BRA    6772
063EE:  MOVLB  3
063F0:  CLRF   03
063F2:  MOVF   x92,W
063F4:  ADDLW  45
063F6:  MOVWF  FE9
063F8:  MOVLW  04
063FA:  ADDWFC 03,W
063FC:  MOVWF  FEA
063FE:  MOVF   FEF,W
06400:  SUBLW  07
06402:  BNZ   6442
....................       printf("A%u.txt=\"ERR Ciclo\"",i+1); 
06404:  MOVLW  01
06406:  ADDWF  x92,W
06408:  MOVLB  4
0640A:  MOVWF  x74
0640C:  MOVLW  41
0640E:  BTFSS  F9E.4
06410:  BRA    640E
06412:  MOVWF  FAD
06414:  MOVFF  474,479
06418:  MOVLW  1B
0641A:  MOVWF  x7A
0641C:  MOVLB  0
0641E:  CALL   4A94
06422:  MOVLW  7B
06424:  MOVWF  FF6
06426:  MOVLW  02
06428:  MOVWF  FF7
0642A:  MOVLW  00
0642C:  MOVWF  FF8
0642E:  MOVLW  10
06430:  MOVLB  4
06432:  MOVWF  x79
06434:  MOVLB  0
06436:  CALL   4A36
....................       SendDataDisplay(); 
0643A:  CALL   393E
....................    }else if(ACiclos[i]==8){ 
0643E:  BRA    6772
06440:  MOVLB  3
06442:  CLRF   03
06444:  MOVF   x92,W
06446:  ADDLW  45
06448:  MOVWF  FE9
0644A:  MOVLW  04
0644C:  ADDWFC 03,W
0644E:  MOVWF  FEA
06450:  MOVF   FEF,W
06452:  SUBLW  08
06454:  BNZ   6494
....................       printf("A%u.txt=\"Llenado\"",i+1); 
06456:  MOVLW  01
06458:  ADDWF  x92,W
0645A:  MOVLB  4
0645C:  MOVWF  x74
0645E:  MOVLW  41
06460:  BTFSS  F9E.4
06462:  BRA    6460
06464:  MOVWF  FAD
06466:  MOVFF  474,479
0646A:  MOVLW  1B
0646C:  MOVWF  x7A
0646E:  MOVLB  0
06470:  CALL   4A94
06474:  MOVLW  8F
06476:  MOVWF  FF6
06478:  MOVLW  02
0647A:  MOVWF  FF7
0647C:  MOVLW  00
0647E:  MOVWF  FF8
06480:  MOVLW  0E
06482:  MOVLB  4
06484:  MOVWF  x79
06486:  MOVLB  0
06488:  CALL   4A36
....................       SendDataDisplay(); 
0648C:  CALL   393E
....................    }else if(ACiclos[i]==9){ 
06490:  BRA    6772
06492:  MOVLB  3
06494:  CLRF   03
06496:  MOVF   x92,W
06498:  ADDLW  45
0649A:  MOVWF  FE9
0649C:  MOVLW  04
0649E:  ADDWFC 03,W
064A0:  MOVWF  FEA
064A2:  MOVF   FEF,W
064A4:  SUBLW  09
064A6:  BNZ   64E6
....................       printf("A%u.txt=\"Puerta L\"",i+1); 
064A8:  MOVLW  01
064AA:  ADDWF  x92,W
064AC:  MOVLB  4
064AE:  MOVWF  x74
064B0:  MOVLW  41
064B2:  BTFSS  F9E.4
064B4:  BRA    64B2
064B6:  MOVWF  FAD
064B8:  MOVFF  474,479
064BC:  MOVLW  1B
064BE:  MOVWF  x7A
064C0:  MOVLB  0
064C2:  CALL   4A94
064C6:  MOVLW  A1
064C8:  MOVWF  FF6
064CA:  MOVLW  02
064CC:  MOVWF  FF7
064CE:  MOVLW  00
064D0:  MOVWF  FF8
064D2:  MOVLW  0F
064D4:  MOVLB  4
064D6:  MOVWF  x79
064D8:  MOVLB  0
064DA:  CALL   4A36
....................       SendDataDisplay(); 
064DE:  CALL   393E
....................    }else if(ACiclos[i]==10){ 
064E2:  BRA    6772
064E4:  MOVLB  3
064E6:  CLRF   03
064E8:  MOVF   x92,W
064EA:  ADDLW  45
064EC:  MOVWF  FE9
064EE:  MOVLW  04
064F0:  ADDWFC 03,W
064F2:  MOVWF  FEA
064F4:  MOVF   FEF,W
064F6:  SUBLW  0A
064F8:  BNZ   6538
....................       printf("A%u.txt=\"Llenando\"",i+1); 
064FA:  MOVLW  01
064FC:  ADDWF  x92,W
064FE:  MOVLB  4
06500:  MOVWF  x74
06502:  MOVLW  41
06504:  BTFSS  F9E.4
06506:  BRA    6504
06508:  MOVWF  FAD
0650A:  MOVFF  474,479
0650E:  MOVLW  1B
06510:  MOVWF  x7A
06512:  MOVLB  0
06514:  CALL   4A94
06518:  MOVLW  B5
0651A:  MOVWF  FF6
0651C:  MOVLW  02
0651E:  MOVWF  FF7
06520:  MOVLW  00
06522:  MOVWF  FF8
06524:  MOVLW  0F
06526:  MOVLB  4
06528:  MOVWF  x79
0652A:  MOVLB  0
0652C:  CALL   4A36
....................       SendDataDisplay(); 
06530:  CALL   393E
....................    }else if(ACiclos[i]==11){ 
06534:  BRA    6772
06536:  MOVLB  3
06538:  CLRF   03
0653A:  MOVF   x92,W
0653C:  ADDLW  45
0653E:  MOVWF  FE9
06540:  MOVLW  04
06542:  ADDWFC 03,W
06544:  MOVWF  FEA
06546:  MOVF   FEF,W
06548:  SUBLW  0B
0654A:  BNZ   658A
....................       printf("A%u.txt=\"Vacio\"",i+1); 
0654C:  MOVLW  01
0654E:  ADDWF  x92,W
06550:  MOVLB  4
06552:  MOVWF  x74
06554:  MOVLW  41
06556:  BTFSS  F9E.4
06558:  BRA    6556
0655A:  MOVWF  FAD
0655C:  MOVFF  474,479
06560:  MOVLW  1B
06562:  MOVWF  x7A
06564:  MOVLB  0
06566:  CALL   4A94
0656A:  MOVLW  C9
0656C:  MOVWF  FF6
0656E:  MOVLW  02
06570:  MOVWF  FF7
06572:  MOVLW  00
06574:  MOVWF  FF8
06576:  MOVLW  0C
06578:  MOVLB  4
0657A:  MOVWF  x79
0657C:  MOVLB  0
0657E:  CALL   4A36
....................       SendDataDisplay(); 
06582:  CALL   393E
....................    }else if(ACiclos[i]==12){ 
06586:  BRA    6772
06588:  MOVLB  3
0658A:  CLRF   03
0658C:  MOVF   x92,W
0658E:  ADDLW  45
06590:  MOVWF  FE9
06592:  MOVLW  04
06594:  ADDWFC 03,W
06596:  MOVWF  FEA
06598:  MOVF   FEF,W
0659A:  SUBLW  0C
0659C:  BNZ   65DC
....................       printf("A%u.txt=\"Calen\"",i+1); 
0659E:  MOVLW  01
065A0:  ADDWF  x92,W
065A2:  MOVLB  4
065A4:  MOVWF  x74
065A6:  MOVLW  41
065A8:  BTFSS  F9E.4
065AA:  BRA    65A8
065AC:  MOVWF  FAD
065AE:  MOVFF  474,479
065B2:  MOVLW  1B
065B4:  MOVWF  x7A
065B6:  MOVLB  0
065B8:  CALL   4A94
065BC:  MOVLW  D9
065BE:  MOVWF  FF6
065C0:  MOVLW  02
065C2:  MOVWF  FF7
065C4:  MOVLW  00
065C6:  MOVWF  FF8
065C8:  MOVLW  0C
065CA:  MOVLB  4
065CC:  MOVWF  x79
065CE:  MOVLB  0
065D0:  CALL   4A36
....................       SendDataDisplay(); 
065D4:  CALL   393E
....................    }else if(ACiclos[i]==13){ 
065D8:  BRA    6772
065DA:  MOVLB  3
065DC:  CLRF   03
065DE:  MOVF   x92,W
065E0:  ADDLW  45
065E2:  MOVWF  FE9
065E4:  MOVLW  04
065E6:  ADDWFC 03,W
065E8:  MOVWF  FEA
065EA:  MOVF   FEF,W
065EC:  SUBLW  0D
065EE:  BNZ   662E
....................       printf("A%u.txt=\"Desfoga\"",i+1); 
065F0:  MOVLW  01
065F2:  ADDWF  x92,W
065F4:  MOVLB  4
065F6:  MOVWF  x74
065F8:  MOVLW  41
065FA:  BTFSS  F9E.4
065FC:  BRA    65FA
065FE:  MOVWF  FAD
06600:  MOVFF  474,479
06604:  MOVLW  1B
06606:  MOVWF  x7A
06608:  MOVLB  0
0660A:  CALL   4A94
0660E:  MOVLW  E9
06610:  MOVWF  FF6
06612:  MOVLW  02
06614:  MOVWF  FF7
06616:  MOVLW  00
06618:  MOVWF  FF8
0661A:  MOVLW  0E
0661C:  MOVLB  4
0661E:  MOVWF  x79
06620:  MOVLB  0
06622:  CALL   4A36
....................       SendDataDisplay(); 
06626:  CALL   393E
....................    }else if(ACiclos[i]==14){ 
0662A:  BRA    6772
0662C:  MOVLB  3
0662E:  CLRF   03
06630:  MOVF   x92,W
06632:  ADDLW  45
06634:  MOVWF  FE9
06636:  MOVLW  04
06638:  ADDWFC 03,W
0663A:  MOVWF  FEA
0663C:  MOVF   FEF,W
0663E:  SUBLW  0E
06640:  BNZ   6680
....................       printf("A%u.txt=\"Finalizado\"",i+1); 
06642:  MOVLW  01
06644:  ADDWF  x92,W
06646:  MOVLB  4
06648:  MOVWF  x74
0664A:  MOVLW  41
0664C:  BTFSS  F9E.4
0664E:  BRA    664C
06650:  MOVWF  FAD
06652:  MOVFF  474,479
06656:  MOVLW  1B
06658:  MOVWF  x7A
0665A:  MOVLB  0
0665C:  CALL   4A94
06660:  MOVLW  FB
06662:  MOVWF  FF6
06664:  MOVLW  02
06666:  MOVWF  FF7
06668:  MOVLW  00
0666A:  MOVWF  FF8
0666C:  MOVLW  11
0666E:  MOVLB  4
06670:  MOVWF  x79
06672:  MOVLB  0
06674:  CALL   4A36
....................       SendDataDisplay(); 
06678:  CALL   393E
....................    }else if(ACiclos[i]==15){ 
0667C:  BRA    6772
0667E:  MOVLB  3
06680:  CLRF   03
06682:  MOVF   x92,W
06684:  ADDLW  45
06686:  MOVWF  FE9
06688:  MOVLW  04
0668A:  ADDWFC 03,W
0668C:  MOVWF  FEA
0668E:  MOVF   FEF,W
06690:  SUBLW  0F
06692:  BNZ   66D2
....................       printf("A%u.txt=\"Secando\"",i+1); 
06694:  MOVLW  01
06696:  ADDWF  x92,W
06698:  MOVLB  4
0669A:  MOVWF  x74
0669C:  MOVLW  41
0669E:  BTFSS  F9E.4
066A0:  BRA    669E
066A2:  MOVWF  FAD
066A4:  MOVFF  474,479
066A8:  MOVLW  1B
066AA:  MOVWF  x7A
066AC:  MOVLB  0
066AE:  CALL   4A94
066B2:  MOVLW  11
066B4:  MOVWF  FF6
066B6:  MOVLW  03
066B8:  MOVWF  FF7
066BA:  MOVLW  00
066BC:  MOVWF  FF8
066BE:  MOVLW  0E
066C0:  MOVLB  4
066C2:  MOVWF  x79
066C4:  MOVLB  0
066C6:  CALL   4A36
....................       SendDataDisplay(); 
066CA:  CALL   393E
....................    }else if(ACiclos[i]==16){ 
066CE:  BRA    6772
066D0:  MOVLB  3
066D2:  CLRF   03
066D4:  MOVF   x92,W
066D6:  ADDLW  45
066D8:  MOVWF  FE9
066DA:  MOVLW  04
066DC:  ADDWFC 03,W
066DE:  MOVWF  FEA
066E0:  MOVF   FEF,W
066E2:  SUBLW  10
066E4:  BNZ   6724
....................       printf("A%u.txt=\"Esterilizando\"",i+1); 
066E6:  MOVLW  01
066E8:  ADDWF  x92,W
066EA:  MOVLB  4
066EC:  MOVWF  x74
066EE:  MOVLW  41
066F0:  BTFSS  F9E.4
066F2:  BRA    66F0
066F4:  MOVWF  FAD
066F6:  MOVFF  474,479
066FA:  MOVLW  1B
066FC:  MOVWF  x7A
066FE:  MOVLB  0
06700:  CALL   4A94
06704:  MOVLW  23
06706:  MOVWF  FF6
06708:  MOVLW  03
0670A:  MOVWF  FF7
0670C:  MOVLW  00
0670E:  MOVWF  FF8
06710:  MOVLW  14
06712:  MOVLB  4
06714:  MOVWF  x79
06716:  MOVLB  0
06718:  CALL   4A36
....................       SendDataDisplay(); 
0671C:  CALL   393E
....................    }else if(ACiclos[i]==17){ 
06720:  BRA    6772
06722:  MOVLB  3
06724:  CLRF   03
06726:  MOVF   x92,W
06728:  ADDLW  45
0672A:  MOVWF  FE9
0672C:  MOVLW  04
0672E:  ADDWFC 03,W
06730:  MOVWF  FEA
06732:  MOVF   FEF,W
06734:  SUBLW  11
06736:  BNZ   6774
....................       printf("A%u.txt=\"Enfriando\"",i+1); 
06738:  MOVLW  01
0673A:  ADDWF  x92,W
0673C:  MOVLB  4
0673E:  MOVWF  x74
06740:  MOVLW  41
06742:  BTFSS  F9E.4
06744:  BRA    6742
06746:  MOVWF  FAD
06748:  MOVFF  474,479
0674C:  MOVLW  1B
0674E:  MOVWF  x7A
06750:  MOVLB  0
06752:  CALL   4A94
06756:  MOVLW  3B
06758:  MOVWF  FF6
0675A:  MOVLW  03
0675C:  MOVWF  FF7
0675E:  MOVLW  00
06760:  MOVWF  FF8
06762:  MOVLW  10
06764:  MOVLB  4
06766:  MOVWF  x79
06768:  MOVLB  0
0676A:  CALL   4A36
....................       SendDataDisplay(); 
0676E:  CALL   393E
06772:  MOVLB  3
....................    } 
.................... } 
06774:  MOVLB  0
06776:  GOTO   C5B4 (RETURN)
....................  
.................... void enciendeBombaAgua(){ 
....................    if(tBombaAgua>120){//Enciende 120 segundos 
*
048D6:  MOVLB  3
048D8:  MOVF   xB1,F
048DA:  BNZ   48E2
048DC:  MOVF   xB0,W
048DE:  SUBLW  78
048E0:  BC    4902
....................       Agua_off; 
048E2:  BSF    F8B.2
048E4:  BCF    F94.2
....................       Bomba_off; 
048E6:  BSF    F8B.0
048E8:  BCF    F94.0
....................       flagBombaAgua=OFF; 
048EA:  MOVLB  0
048EC:  BCF    xD4.6
....................       flagBombaAguaOff=ON; 
048EE:  BSF    xD4.7
....................       if(tBombaAguaOff>=60){//Apaga 60 segundos 
048F0:  MOVLB  3
048F2:  MOVF   xB3,F
048F4:  BNZ   48FC
048F6:  MOVF   xB2,W
048F8:  SUBLW  3B
048FA:  BC    4900
....................          tBombaAgua=0; 
048FC:  CLRF   xB1
048FE:  CLRF   xB0
....................       } 
....................    }else{ 
04900:  BRA    4916
....................       Agua_on; 
04902:  BCF    F8B.2
04904:  BCF    F94.2
....................       Bomba_on; 
04906:  BCF    F8B.0
04908:  BCF    F94.0
....................       flagBombaAgua=ON; 
0490A:  MOVLB  0
0490C:  BSF    xD4.6
....................       flagBombaAguaOff=OFF; 
0490E:  BCF    xD4.7
....................       tBombaAguaOff=0; 
04910:  MOVLB  3
04912:  CLRF   xB3
04914:  CLRF   xB2
....................    } 
.................... } 
04916:  MOVLB  0
04918:  RETLW  00
....................  
.................... void apagaBombaAgua(){ 
....................    Agua_off; 
0491A:  BSF    F8B.2
0491C:  BCF    F94.2
....................    Bomba_off; 
0491E:  BSF    F8B.0
04920:  BCF    F94.0
....................    flagBombaAgua=OFF; 
04922:  BCF    xD4.6
....................    flagBombaAguaOff=OFF; 
04924:  BCF    xD4.7
....................    tBombaAguaOff=0; 
04926:  MOVLB  3
04928:  CLRF   xB3
0492A:  CLRF   xB2
....................    tBombaAgua=0; 
0492C:  CLRF   xB1
0492E:  CLRF   xB0
.................... } 
04930:  MOVLB  0
04932:  RETLW  00
....................  
....................  
.................... void ConfiguraCiclo(int8 este0,este1,este2,este3,secado0,secado1,secado2,secado3,liquidos,ciclo,temperatura){ 
....................    Testerilizacionp[0]=este0;Testerilizacionp[1]=este1;Testerilizacionp[2]=este2;Testerilizacionp[3]=este3; 
*
05412:  MOVFF  47E,E6
05416:  MOVFF  47F,E7
0541A:  MOVFF  480,E8
0541E:  MOVFF  481,E9
....................    Tsecadop[0]=secado0;Tsecadop[1]=secado1;Tsecadop[2]=secado2;Tsecadop[3]=secado3; 
05422:  MOVFF  482,EF
05426:  MOVFF  483,F0
0542A:  MOVFF  484,F1
0542E:  MOVFF  485,F2
....................    Setpoint=temperatura;                
05432:  MOVFF  488,396
....................    tiempo_secado=0; 
05436:  MOVLB  3
05438:  CLRF   x9A
....................    desfoguelento=liquidos; 
0543A:  BCF    x84.0
0543C:  MOVLB  4
0543E:  BTFSS  x86.0
05440:  BRA    5448
05442:  MOVLB  3
05444:  BSF    x84.0
05446:  MOVLB  4
....................    CicloSeleccionado=ciclo; 
05448:  MOVFF  487,395
....................    Testerilizacion[0]=Testerilizacionp[0];Testerilizacion[1]=Testerilizacionp[1];Testerilizacion[2]=Testerilizacionp[2]; 
0544C:  MOVFF  E6,E1
05450:  MOVFF  E7,E2
05454:  MOVFF  E8,E3
....................    Testerilizacion[3]=Testerilizacionp[3];Testerilizacion[4]=Testerilizacionp[4]; 
05458:  MOVFF  E9,E4
0545C:  MOVFF  EA,E5
....................    Tsecado[0]=Tsecadop[0];Tsecado[1]=Tsecadop[1];Tsecado[2]=Tsecadop[2];Tsecado[3]=Tsecadop[3]; 
05460:  MOVFF  EF,EB
05464:  MOVFF  F0,EC
05468:  MOVFF  F1,ED
0546C:  MOVFF  F2,EE
....................    sEst=este0+(este1*10); 
05470:  MOVF   x7F,W
05472:  MULLW  0A
05474:  MOVF   FF3,W
05476:  ADDWF  x7E,W
05478:  MOVLB  3
0547A:  MOVWF  xD7
....................    mEst=este2+(este3*10); 
0547C:  MOVLB  4
0547E:  MOVF   x81,W
05480:  MULLW  0A
05482:  MOVF   FF3,W
05484:  ADDWF  x80,W
05486:  MOVLB  3
05488:  MOVWF  xD6
....................    sSec=secado0+(secado1*10); 
0548A:  MOVLB  4
0548C:  MOVF   x83,W
0548E:  MULLW  0A
05490:  MOVF   FF3,W
05492:  ADDWF  x82,W
05494:  MOVLB  3
05496:  MOVWF  xD9
....................    mSec=secado2+(secado3*10); 
05498:  MOVLB  4
0549A:  MOVF   x85,W
0549C:  MULLW  0A
0549E:  MOVF   FF3,W
054A0:  ADDWF  x84,W
054A2:  MOVLB  3
054A4:  MOVWF  xD8
....................    if(!borra){ 
054A6:  MOVLB  0
054A8:  BTFSC  xD0.0
054AA:  BRA    54B0
....................       borraDatoCiclo(); 
054AC:  BRA    4EC2
....................       borra=ON; 
054AE:  BSF    xD0.0
....................    } 
....................    Imprime=15; 
054B0:  MOVLW  0F
054B2:  MOVLB  3
054B4:  MOVWF  xE2
....................    Envio_Esclavos(); 
054B6:  MOVLB  0
054B8:  CALL   4738
....................    delay_ms(100); 
054BC:  MOVLW  64
054BE:  MOVLB  4
054C0:  MOVWF  x8D
054C2:  MOVLB  0
054C4:  CALL   1B28
....................    Imprime=10; 
054C8:  MOVLW  0A
054CA:  MOVLB  3
054CC:  MOVWF  xE2
.................... } 
054CE:  MOVLB  0
054D0:  RETLW  00
....................  
....................  
.................... #int_rda HIGH 
.................... void serial_rx_isr(){ 
....................  
....................    Dato2=fgetc(); 
*
0034C:  BTFSS  F9E.5
0034E:  BRA    034C
00350:  MOVFF  FAE,38D
00354:  MOVLB  3
....................    if(Dato2==0x65){//Inicio Comunicacion 
00356:  MOVF   x8D,W
00358:  SUBLW  65
0035A:  BNZ   0362
....................       Inicio=1; 
0035C:  MOVLW  01
0035E:  MOVWF  x8B
....................       RX_Wr_Index =0; 
00360:  CLRF   46
....................    } 
....................    //Inicio=1; 
....................    if(Inicio==1){ 
00362:  DECFSZ x8B,W
00364:  BRA    037A
....................       Rx_Buffer2[RX_Wr_Index] = Dato2; 
00366:  CLRF   03
00368:  MOVF   46,W
0036A:  ADDLW  3B
0036C:  MOVWF  FE9
0036E:  MOVLW  00
00370:  ADDWFC 03,W
00372:  MOVWF  FEA
00374:  MOVFF  38D,FEF
....................       RX_Wr_Index++; 
00378:  INCF   46,F
....................    } 
....................    if(RX_Wr_Index >= RX_BUFFER_SIZE){ 
0037A:  MOVF   46,W
0037C:  SUBLW  09
0037E:  BC    0384
....................       RX_Wr_Index =0; 
00380:  CLRF   46
....................       Inicio=0; 
00382:  CLRF   x8B
....................    } 
....................  
....................    if(RX_Wr_Index==0){ 
00384:  MOVF   46,F
00386:  BNZ   03A8
....................       if(Rx_Buffer2[0]==0x65 && Rx_Buffer2[1]==0xff && Rx_Buffer2[2]==0xff && Rx_Buffer2[8]==0x00 && Rx_Buffer2[9]==0xff ){ 
00388:  MOVF   3B,W
0038A:  SUBLW  65
0038C:  BNZ   03A4
0038E:  INCFSZ 3C,W
00390:  BRA    03A4
00392:  INCFSZ 3D,W
00394:  BRA    03A4
00396:  MOVF   43,F
00398:  BNZ   03A4
0039A:  INCFSZ 44,W
0039C:  BRA    03A4
....................          Dato_Exitoso=5; 
0039E:  MOVLW  05
003A0:  MOVWF  x8C
....................       }else{ 
003A2:  BRA    03A8
....................          Dato_Exitoso=10; 
003A4:  MOVLW  0A
003A6:  MOVWF  x8C
....................       } 
....................    } 
....................    //Dato_Exitoso=5; 
....................    if(Menu==20) 
003A8:  MOVF   x8F,W
003AA:  SUBLW  14
003AC:  BNZ   03B2
....................      Buzzer_on; 
003AE:  BSF    F8C.7
003B0:  BCF    F95.7
.................... } 
....................  
003B2:  BCF    F9E.5
003B4:  MOVLB  0
003B6:  GOTO   010A
.................... #int_TIMER0 
.................... void temp0s(void){ 
....................    set_timer0(0); 
003BA:  CLRF   FD7
003BC:  CLRF   FD6
....................    t_exhaust++; 
003BE:  MOVLB  3
003C0:  INCF   xC3,F
003C2:  BTFSC  FD8.2
003C4:  INCF   xC4,F
....................    if(DesfogueSuave){ 
003C6:  MOVLB  0
003C8:  BTFSS  xD1.0
003CA:  BRA    040C
....................       if(Nivel<6){ 
003CC:  MOVLB  3
003CE:  MOVF   xA5,F
003D0:  BNZ   0406
003D2:  MOVF   xA4,W
003D4:  SUBLW  05
003D6:  BNC   0406
....................          if(t_exhaust<=NivelSeleccionado) // Si el tiempo es menor o igual al tiempo de control se enciende la resistencia de lo contrario se apaga. 
003D8:  MOVF   xC4,W
003DA:  SUBWF  xAF,W
003DC:  BNC   03EC
003DE:  BNZ   03E6
003E0:  MOVF   xC3,W
003E2:  SUBWF  xAE,W
003E4:  BNC   03EC
....................             Desfogue_on; 
003E6:  BCF    F8B.1
003E8:  BCF    F94.1
....................          else             
003EA:  BRA    03F0
....................             Desfogue_off; 
003EC:  BSF    F8B.1
003EE:  BCF    F94.1
....................        
....................          if(t_exhaust>=60000) // Si el tiempo de control es mayor al tiempo de ciclo se reinicia tiempo de control          
003F0:  MOVF   xC4,W
003F2:  SUBLW  E9
003F4:  BC    0404
003F6:  XORLW  FF
003F8:  BNZ   0400
003FA:  MOVF   xC3,W
003FC:  SUBLW  5F
003FE:  BC    0404
....................             t_exhaust=0; // tiempoctrl incrementa una unidad cada Xms, por eso se dividen los tiempos por 0.005. 
00400:  CLRF   xC4
00402:  CLRF   xC3
....................       }else{ 
00404:  BRA    040A
....................          Desfogue_on; 
00406:  BCF    F8B.1
00408:  BCF    F94.1
0040A:  MOVLB  0
....................       } 
....................    }   
.................... } 
....................  
0040C:  BCF    FF2.2
0040E:  GOTO   0074
.................... #int_TIMER1 
.................... void temp1s(void){ 
....................    set_timer1(40536); // Se repite cada 5ms 
00412:  MOVLW  9E
00414:  MOVWF  FCF
00416:  MOVLW  58
00418:  MOVWF  FCE
....................    tiempos++; 
0041A:  MOVLB  3
0041C:  INCF   x9C,F
0041E:  BTFSC  FD8.2
00420:  INCF   x9D,F
....................    tiempos2++; 
00422:  INCF   x9E,F
00424:  BTFSC  FD8.2
00426:  INCF   x9F,F
....................    tiempos3++; 
00428:  INCF   xA0,F
0042A:  BTFSC  FD8.2
0042C:  INCF   xA1,F
....................    tiempoctrl++; 
0042E:  INCF   xA2,F
00430:  BTFSC  FD8.2
00432:  INCF   xA3,F
....................     
....................    if(!STOP){ 
00434:  BSF    F93.5
00436:  BTFSS  F81.5
00438:  BRA    0442
....................       tStop++; 
0043A:  INCF   xCB,F
0043C:  BTFSC  FD8.2
0043E:  INCF   xCC,F
....................    }else{ 
00440:  BRA    0446
....................       tStop=0; 
00442:  CLRF   xCC
00444:  CLRF   xCB
....................    } 
....................     
....................    if(!TERM){ 
00446:  BSF    F93.4
00448:  BTFSS  F81.4
0044A:  BRA    0454
....................       tTermostato++; 
0044C:  INCF   xCD,F
0044E:  BTFSC  FD8.2
00450:  INCF   xCE,F
....................    }else{ 
00452:  BRA    0458
....................       tTermostato=0; 
00454:  CLRF   xCE
00456:  CLRF   xCD
....................    } 
....................     
....................    if(flagAlarma) 
00458:  MOVLB  0
0045A:  BTFSS  xD3.3
0045C:  BRA    0468
....................       tbuzzer++; 
0045E:  MOVLB  3
00460:  INCF   xC5,F
00462:  BTFSC  FD8.2
00464:  INCF   xC6,F
00466:  MOVLB  0
....................        
....................    if(flagSilencio)    
00468:  BTFSS  xD3.5
0046A:  BRA    0474
....................       tsilencio++; 
0046C:  MOVLB  3
0046E:  INCF   xC7,F
00470:  BTFSC  FD8.2
00472:  INCF   xC8,F
....................     
....................    if(Controlando==1){ 
00474:  MOVLB  3
00476:  DECFSZ x87,W
00478:  BRA    04B6
....................       if(tiempoctrl<Tp) // Si el tiempo es menor o igual al tiempo de control se enciende la resistencia de lo contrario se apaga. 
0047A:  MOVF   xA3,W
0047C:  MOVLB  0
0047E:  SUBWF  xDC,W
00480:  BNC   049A
00482:  BNZ   0494
00484:  MOVF   xDB,W
00486:  MOVLB  3
00488:  SUBWF  xA2,W
0048A:  BTFSS  FD8.0
0048C:  BRA    0492
0048E:  MOVLB  0
00490:  BRA    049A
00492:  MOVLB  0
....................          SSR_on; 
00494:  BSF    F8D.1
00496:  BCF    F96.1
....................       else          
00498:  BRA    049E
....................          SSR_off; 
0049A:  BCF    F8D.1
0049C:  BCF    F96.1
....................              
....................       if(tiempoctrl>=Tc) // Si el tiempo de control es mayor al tiempo de ciclo se reinicia tiempo de control 
0049E:  MOVF   xDE,W
004A0:  MOVLB  3
004A2:  SUBWF  xA3,W
004A4:  BNC   04B6
004A6:  BNZ   04B2
004A8:  MOVLB  0
004AA:  MOVF   xDD,W
004AC:  MOVLB  3
004AE:  SUBWF  xA2,W
004B0:  BNC   04B6
....................          tiempoctrl=0;// tiempoctrl incrementa una unidad cada 5ms, por eso se dividen los tiempos por 0.005. 
004B2:  CLRF   xA3
004B4:  CLRF   xA2
....................    } 
....................     
....................    if(tiempos>=200)  // 12000 para que incremente cada minuto, 200para que incremente cada segundo. 
004B6:  MOVF   x9D,F
004B8:  BNZ   04C2
004BA:  MOVF   x9C,W
004BC:  SUBLW  C7
004BE:  BTFSC  FD8.0
004C0:  BRA    0600
....................    { 
....................       if(flagTC) 
004C2:  BTFSS  x84.4
004C4:  BRA    04C8
....................          TiempoControl++; 
004C6:  INCF   xC0,F
....................        
....................       tiemporecta++; 
004C8:  INCF   x86,F
....................        
....................       if(flagBombaAgua) 
004CA:  MOVLB  0
004CC:  BTFSS  xD4.6
004CE:  BRA    04DA
....................          tBombaAgua++; 
004D0:  MOVLB  3
004D2:  INCF   xB0,F
004D4:  BTFSC  FD8.2
004D6:  INCF   xB1,F
004D8:  MOVLB  0
....................        
....................       if(flagBombaAguaOff) 
004DA:  BTFSS  xD4.7
004DC:  BRA    04E8
....................          tBombaAguaOff++; 
004DE:  MOVLB  3
004E0:  INCF   xB2,F
004E2:  BTFSC  FD8.2
004E4:  INCF   xB3,F
004E6:  MOVLB  0
....................        
....................       if(IniciaCiclo && tiempoImpresion<CalculoImpresion){ 
004E8:  BTFSS  xD0.3
004EA:  BRA    04FE
004EC:  MOVLB  3
004EE:  MOVF   x8A,W
004F0:  SUBWF  x9B,W
004F2:  BTFSS  FD8.0
004F4:  BRA    04FA
004F6:  MOVLB  0
004F8:  BRA    04FE
....................          tiempoImpresion++; 
004FA:  INCF   x9B,F
....................       }else if(tiempoImpresion>=CalculoImpresion){ 
004FC:  BRA    050A
004FE:  MOVLB  3
00500:  MOVF   x8A,W
00502:  SUBWF  x9B,W
00504:  BNC   050A
....................          flagImprime=1; 
00506:  BSF    x84.5
....................          tiempoImpresion=0; 
00508:  CLRF   x9B
....................       } 
....................        
....................       if(IniciaCiclo && !Esterilizando){ 
0050A:  MOVLB  0
0050C:  BTFSS  xD0.3
0050E:  BRA    0524
00510:  BTFSC  xD0.4
00512:  BRA    0524
....................          TiempoCiclo++; 
00514:  INCF   xD5,F
00516:  BTFSC  FD8.2
00518:  INCF   xD6,F
....................          tiempoAgua++; 
0051A:  MOVLB  3
0051C:  INCF   xC9,F
0051E:  BTFSC  FD8.2
00520:  INCF   xCA,F
00522:  MOVLB  0
....................       } 
....................        
....................       if(IniciaLlenado && !CalderinLleno){ 
00524:  BTFSS  xD0.1
00526:  BRA    0532
00528:  BTFSC  xD0.2
0052A:  BRA    0532
....................          TiempoLlenado++; 
0052C:  INCF   xD7,F
0052E:  BTFSC  FD8.2
00530:  INCF   xD8,F
....................       } 
....................        
....................       if(SensadoNivel){ 
00532:  BTFSS  xD0.6
00534:  BRA    053C
....................          TiempoSensadoNivel++; 
00536:  INCF   xD9,F
00538:  BTFSC  FD8.2
0053A:  INCF   xDA,F
....................       } 
....................        
....................       if(guardaCiclo) 
0053C:  BTFSS  xD4.5
0053E:  BRA    0546
....................          tguarda++;  
00540:  INCF   xDF,F
00542:  BTFSC  FD8.2
00544:  INCF   xE0,F
....................        
....................       tiempos=0;Lectura=1;tinicio++; 
00546:  MOVLB  3
00548:  CLRF   x9D
0054A:  CLRF   x9C
0054C:  BSF    x84.1
0054E:  INCF   xA6,F
00550:  BTFSC  FD8.2
00552:  INCF   xA7,F
....................     
....................       if(Esterilizando && !Desfogando){                
00554:  MOVLB  0
00556:  BTFSS  xD0.4
00558:  BRA    05AC
0055A:  BTFSC  xD0.7
0055C:  BRA    05AC
....................          if(Testerilizacion[0]>0){ 
0055E:  BTFSC  xE1.7
00560:  BRA    056C
00562:  MOVF   xE1,W
00564:  SUBLW  00
00566:  BC    056C
....................             Testerilizacion[0]--; 
00568:  DECF   xE1,F
....................          }else if(Testerilizacion[1]>0){ 
0056A:  BRA    05AC
0056C:  BTFSC  xE2.7
0056E:  BRA    057E
00570:  MOVF   xE2,W
00572:  SUBLW  00
00574:  BC    057E
....................             Testerilizacion[1]--; 
00576:  DECF   xE2,F
....................             Testerilizacion[0]=9; 
00578:  MOVLW  09
0057A:  MOVWF  xE1
....................          }else if(Testerilizacion[2]>0){ 
0057C:  BRA    05AC
0057E:  BTFSC  xE3.7
00580:  BRA    0594
00582:  MOVF   xE3,W
00584:  SUBLW  00
00586:  BC    0594
....................             Testerilizacion[2]--; 
00588:  DECF   xE3,F
....................             Testerilizacion[1]=5; 
0058A:  MOVLW  05
0058C:  MOVWF  xE2
....................             Testerilizacion[0]=9; 
0058E:  MOVLW  09
00590:  MOVWF  xE1
....................          }else if(Testerilizacion[3]>0){ 
00592:  BRA    05AC
00594:  BTFSC  xE4.7
00596:  BRA    05AC
00598:  MOVF   xE4,W
0059A:  SUBLW  00
0059C:  BC    05AC
....................             Testerilizacion[3]--; 
0059E:  DECF   xE4,F
....................             Testerilizacion[2]=9; 
005A0:  MOVLW  09
005A2:  MOVWF  xE3
....................             Testerilizacion[1]=5; 
005A4:  MOVLW  05
005A6:  MOVWF  xE2
....................             Testerilizacion[0]=9; 
005A8:  MOVLW  09
005AA:  MOVWF  xE1
....................          } 
....................       } 
....................        
....................       if(Secando){ 
005AC:  BTFSS  xD0.5
005AE:  BRA    05FE
....................          if(Tsecado[0]>0){ 
005B0:  BTFSC  xEB.7
005B2:  BRA    05BE
005B4:  MOVF   xEB,W
005B6:  SUBLW  00
005B8:  BC    05BE
....................             Tsecado[0]--; 
005BA:  DECF   xEB,F
....................          }else if(Tsecado[1]>0){ 
005BC:  BRA    05FE
005BE:  BTFSC  xEC.7
005C0:  BRA    05D0
005C2:  MOVF   xEC,W
005C4:  SUBLW  00
005C6:  BC    05D0
....................             Tsecado[1]--; 
005C8:  DECF   xEC,F
....................             Tsecado[0]=9; 
005CA:  MOVLW  09
005CC:  MOVWF  xEB
....................          }else if(Tsecado[2]>0){ 
005CE:  BRA    05FE
005D0:  BTFSC  xED.7
005D2:  BRA    05E6
005D4:  MOVF   xED,W
005D6:  SUBLW  00
005D8:  BC    05E6
....................             Tsecado[2]--; 
005DA:  DECF   xED,F
....................             Tsecado[1]=5; 
005DC:  MOVLW  05
005DE:  MOVWF  xEC
....................             Tsecado[0]=9; 
005E0:  MOVLW  09
005E2:  MOVWF  xEB
....................          }else if(Tsecado[3]>0){ 
005E4:  BRA    05FE
005E6:  BTFSC  xEE.7
005E8:  BRA    05FE
005EA:  MOVF   xEE,W
005EC:  SUBLW  00
005EE:  BC    05FE
....................             Tsecado[3]--; 
005F0:  DECF   xEE,F
....................             Tsecado[2]=9; 
005F2:  MOVLW  09
005F4:  MOVWF  xED
....................             Tsecado[1]=5; 
005F6:  MOVLW  05
005F8:  MOVWF  xEC
....................             Tsecado[0]=9; 
005FA:  MOVLW  09
005FC:  MOVWF  xEB
005FE:  MOVLB  3
....................          } 
....................       } 
....................    } 
.................... } 
....................  
00600:  BCF    F9E.0
00602:  MOVLB  0
00604:  GOTO   0074
.................... void main() 
.................... { 
*
07588:  CLRF   FF8
0758A:  BCF    FF1.2
0758C:  BCF    F9F.0
0758E:  BSF    F9F.5
07590:  BSF    FD0.7
07592:  BSF    07.7
07594:  CLRF   FEA
07596:  CLRF   FE9
07598:  BSF    FB8.3
0759A:  MOVLW  08
0759C:  MOVWF  FAF
0759E:  MOVLW  02
075A0:  MOVWF  FB0
075A2:  MOVLW  A6
075A4:  MOVWF  FAC
075A6:  MOVLW  90
075A8:  MOVWF  FAB
075AA:  CLRF   46
075AC:  CLRF   47
075AE:  CLRF   48
075B0:  CLRF   x62
075B2:  CLRF   x63
075B4:  CLRF   xB4
075B6:  CLRF   xB5
075B8:  CLRF   xB6
075BA:  BCF    xCF.0
075BC:  BCF    xCF.1
075BE:  BCF    xCF.2
075C0:  BCF    xCF.3
075C2:  BCF    xCF.4
075C4:  BCF    xCF.5
075C6:  BCF    xCF.6
075C8:  BCF    xCF.7
075CA:  BCF    xD0.0
075CC:  BCF    xD0.1
075CE:  BCF    xD0.2
075D0:  BCF    xD0.3
075D2:  BCF    xD0.4
075D4:  BCF    xD0.5
075D6:  BCF    xD0.6
075D8:  BCF    xD0.7
075DA:  BCF    xD1.0
075DC:  BCF    xD1.1
075DE:  BCF    xD1.2
075E0:  BCF    xD1.3
075E2:  BCF    xD1.4
075E4:  BCF    xD1.5
075E6:  BCF    xD1.6
075E8:  BCF    xD1.7
075EA:  BCF    xD2.0
075EC:  BCF    xD2.1
075EE:  BCF    xD2.2
075F0:  BCF    xD2.3
075F2:  BCF    xD2.4
075F4:  BCF    xD2.5
075F6:  BCF    xD2.6
075F8:  BCF    xD2.7
075FA:  BCF    xD3.0
075FC:  BCF    xD3.1
075FE:  BCF    xD3.2
07600:  BCF    xD3.3
07602:  BCF    xD3.4
07604:  BCF    xD3.5
07606:  BCF    xD3.6
07608:  BCF    xD3.7
0760A:  BCF    xD4.0
0760C:  BCF    xD4.1
0760E:  BCF    xD4.2
07610:  BCF    xD4.3
07612:  BCF    xD4.4
07614:  BCF    xD4.5
07616:  BCF    xD4.6
07618:  BCF    xD4.7
0761A:  CLRF   xD6
0761C:  CLRF   xD5
0761E:  CLRF   xD8
07620:  CLRF   xD7
07622:  CLRF   xDA
07624:  CLRF   xD9
07626:  CLRF   xDC
07628:  CLRF   xDB
0762A:  CLRF   xDE
0762C:  CLRF   xDD
0762E:  CLRF   xE0
07630:  CLRF   xDF
07632:  MOVLW  9A
07634:  MOVLB  2
07636:  MOVWF  xD6
07638:  MOVLW  99
0763A:  MOVWF  xD5
0763C:  MOVLW  0D
0763E:  MOVWF  xD4
07640:  MOVLW  86
07642:  MOVWF  xD3
07644:  CLRF   xDA
07646:  CLRF   xD9
07648:  CLRF   xD8
0764A:  MOVLW  7E
0764C:  MOVWF  xD7
0764E:  CLRF   xDE
07650:  CLRF   xDD
07652:  CLRF   xDC
07654:  CLRF   xDB
07656:  CLRF   xE2
07658:  CLRF   xE1
0765A:  MOVLW  48
0765C:  MOVWF  xE0
0765E:  MOVLW  85
07660:  MOVWF  xDF
07662:  CLRF   xE6
07664:  MOVLW  80
07666:  MOVWF  xE5
07668:  MOVLW  54
0766A:  MOVWF  xE4
0766C:  MOVLW  8B
0766E:  MOVWF  xE3
07670:  CLRF   xFA
07672:  CLRF   xF9
07674:  CLRF   xF8
07676:  CLRF   xF7
07678:  CLRF   xFE
0767A:  CLRF   xFD
0767C:  CLRF   xFC
0767E:  CLRF   xFB
07680:  MOVLB  3
07682:  CLRF   x02
07684:  CLRF   x01
07686:  CLRF   x00
07688:  MOVLB  2
0768A:  CLRF   xFF
0768C:  MOVLB  3
0768E:  CLRF   x06
07690:  CLRF   x05
07692:  CLRF   x04
07694:  CLRF   x03
07696:  CLRF   x07
07698:  CLRF   x08
0769A:  CLRF   x09
0769C:  CLRF   x0A
0769E:  MOVLW  14
076A0:  MOVWF  x0B
076A2:  CLRF   x0C
076A4:  CLRF   x0D
076A6:  CLRF   x0E
076A8:  CLRF   x0F
076AA:  CLRF   x10
076AC:  CLRF   x11
076AE:  CLRF   x12
076B0:  CLRF   x13
076B2:  CLRF   x14
076B4:  CLRF   x15
076B6:  CLRF   x16
076B8:  CLRF   x18
076BA:  CLRF   x17
076BC:  CLRF   x1C
076BE:  CLRF   x1B
076C0:  CLRF   x1A
076C2:  CLRF   x19
076C4:  CLRF   x24
076C6:  CLRF   x23
076C8:  MOVLW  20
076CA:  MOVWF  x22
076CC:  MOVLW  82
076CE:  MOVWF  x21
076D0:  CLRF   x28
076D2:  CLRF   x27
076D4:  CLRF   x26
076D6:  CLRF   x25
076D8:  CLRF   x2C
076DA:  CLRF   x2B
076DC:  CLRF   x2A
076DE:  CLRF   x29
076E0:  CLRF   x30
076E2:  CLRF   x2F
076E4:  CLRF   x2E
076E6:  CLRF   x2D
076E8:  CLRF   x34
076EA:  CLRF   x33
076EC:  CLRF   x32
076EE:  CLRF   x31
076F0:  CLRF   x38
076F2:  CLRF   x37
076F4:  CLRF   x36
076F6:  CLRF   x35
076F8:  CLRF   x3C
076FA:  CLRF   x3B
076FC:  MOVLW  48
076FE:  MOVWF  x3A
07700:  MOVLW  83
07702:  MOVWF  x39
07704:  CLRF   x40
07706:  CLRF   x3F
07708:  MOVLW  20
0770A:  MOVWF  x3E
0770C:  MOVLW  83
0770E:  MOVWF  x3D
07710:  MOVLW  9A
07712:  MOVWF  x44
07714:  MOVLW  99
07716:  MOVWF  x43
07718:  MOVLW  19
0771A:  MOVWF  x42
0771C:  MOVLW  7F
0771E:  MOVWF  x41
07720:  CLRF   x48
07722:  CLRF   x47
07724:  CLRF   x46
07726:  CLRF   x45
07728:  CLRF   x4C
0772A:  CLRF   x4B
0772C:  CLRF   x4A
0772E:  CLRF   x49
07730:  CLRF   x50
07732:  CLRF   x4F
07734:  CLRF   x4E
07736:  CLRF   x4D
07738:  CLRF   x54
0773A:  CLRF   x53
0773C:  CLRF   x52
0773E:  CLRF   x51
07740:  CLRF   x58
07742:  CLRF   x57
07744:  CLRF   x56
07746:  CLRF   x55
07748:  CLRF   x5C
0774A:  CLRF   x5B
0774C:  CLRF   x5A
0774E:  CLRF   x59
07750:  MOVLW  4A
07752:  MOVWF  x60
07754:  MOVLW  88
07756:  MOVWF  x5F
07758:  MOVLW  28
0775A:  MOVWF  x5E
0775C:  MOVLW  75
0775E:  MOVWF  x5D
07760:  MOVLW  E0
07762:  MOVWF  x64
07764:  MOVLW  2D
07766:  MOVWF  x63
07768:  MOVLW  10
0776A:  MOVWF  x62
0776C:  MOVLW  75
0776E:  MOVWF  x61
07770:  MOVLW  FF
07772:  MOVWF  x68
07774:  MOVLW  21
07776:  MOVWF  x67
07778:  MOVLW  15
0777A:  MOVWF  x66
0777C:  MOVLW  80
0777E:  MOVWF  x65
07780:  MOVLW  82
07782:  MOVWF  x6C
07784:  MOVLW  12
07786:  MOVWF  x6B
07788:  MOVLW  F4
0778A:  MOVWF  x6A
0778C:  MOVLW  86
0778E:  MOVWF  x69
07790:  CLRF   x6D
07792:  CLRF   x6E
07794:  CLRF   x6F
07796:  MOVLW  B5
07798:  MOVWF  x73
0779A:  MOVLW  EB
0779C:  MOVWF  x72
0779E:  MOVLW  1B
077A0:  MOVWF  x71
077A2:  MOVLW  6B
077A4:  MOVWF  x70
077A6:  MOVLW  D0
077A8:  MOVWF  x77
077AA:  MOVLW  9B
077AC:  MOVWF  x76
077AE:  MOVLW  8A
077B0:  MOVWF  x75
077B2:  MOVLW  75
077B4:  MOVWF  x74
077B6:  MOVLW  1A
077B8:  MOVWF  x7B
077BA:  MOVLW  DD
077BC:  MOVWF  x7A
077BE:  MOVLW  61
077C0:  MOVWF  x79
077C2:  MOVLW  7D
077C4:  MOVWF  x78
077C6:  MOVLW  04
077C8:  MOVWF  x7F
077CA:  MOVLW  16
077CC:  MOVWF  x7E
077CE:  MOVLW  02
077D0:  MOVWF  x7D
077D2:  MOVLW  85
077D4:  MOVWF  x7C
077D6:  CLRF   x83
077D8:  CLRF   x82
077DA:  CLRF   x81
077DC:  CLRF   x80
077DE:  BCF    x84.0
077E0:  BCF    x84.1
077E2:  BCF    x84.2
077E4:  BCF    x84.3
077E6:  BCF    x84.4
077E8:  BCF    x84.5
077EA:  BCF    x84.6
077EC:  CLRF   x85
077EE:  CLRF   x86
077F0:  CLRF   x87
077F2:  MOVLW  01
077F4:  MOVWF  x88
077F6:  MOVLW  02
077F8:  MOVWF  x89
077FA:  CLRF   x8A
077FC:  MOVLW  01
077FE:  MOVWF  x8B
07800:  CLRF   x8C
07802:  CLRF   x8D
07804:  CLRF   x8E
07806:  CLRF   x8F
07808:  CLRF   x90
0780A:  MOVLW  F0
0780C:  MOVWF  x91
0780E:  CLRF   x92
07810:  CLRF   x93
07812:  CLRF   x94
07814:  CLRF   x95
07816:  CLRF   x96
07818:  MOVLW  01
0781A:  MOVWF  x97
0781C:  MOVWF  x98
0781E:  CLRF   x99
07820:  CLRF   x9A
07822:  CLRF   x9B
07824:  CLRF   x9D
07826:  CLRF   x9C
07828:  CLRF   x9F
0782A:  CLRF   x9E
0782C:  CLRF   xA1
0782E:  CLRF   xA0
07830:  CLRF   xA3
07832:  CLRF   xA2
07834:  CLRF   xA5
07836:  CLRF   xA4
07838:  CLRF   xA7
0783A:  CLRF   xA6
0783C:  CLRF   xA9
0783E:  CLRF   xA8
07840:  CLRF   xAB
07842:  CLRF   xAA
07844:  CLRF   xAD
07846:  CLRF   xAC
07848:  CLRF   xAF
0784A:  CLRF   xAE
0784C:  CLRF   xB1
0784E:  CLRF   xB0
07850:  CLRF   xB3
07852:  CLRF   xB2
07854:  CLRF   xBC
07856:  CLRF   xBD
07858:  CLRF   xBE
0785A:  CLRF   xBF
0785C:  CLRF   xC0
0785E:  CLRF   xC1
07860:  CLRF   xC2
07862:  CLRF   xC4
07864:  CLRF   xC3
07866:  CLRF   xC6
07868:  CLRF   xC5
0786A:  CLRF   xC8
0786C:  CLRF   xC7
0786E:  CLRF   xCA
07870:  CLRF   xC9
07872:  CLRF   xCC
07874:  CLRF   xCB
07876:  CLRF   xCE
07878:  CLRF   xCD
0787A:  MOVLW  12
0787C:  MOVWF  xCF
0787E:  MOVLW  09
07880:  MOVWF  xD0
07882:  MOVLW  0D
07884:  MOVWF  xD1
07886:  CLRF   xD2
07888:  CLRF   xD3
0788A:  CLRF   xD4
0788C:  CLRF   xD5
0788E:  CLRF   xD6
07890:  CLRF   xD7
07892:  CLRF   xD8
07894:  CLRF   xD9
07896:  CLRF   xDA
07898:  CLRF   xDB
0789A:  CLRF   xDC
0789C:  CLRF   xDD
0789E:  CLRF   xDE
078A0:  CLRF   xDF
078A2:  CLRF   xE0
078A4:  CLRF   xE1
078A6:  CLRF   xE2
078A8:  MOVLW  48
078AA:  MOVWF  xE3
078AC:  CLRF   xE4
078AE:  CLRF   xE5
078B0:  CLRF   xE6
078B2:  CLRF   xE7
078B4:  CLRF   xFA
078B6:  CLRF   xFB
078B8:  CLRF   xFC
078BA:  CLRF   xFD
078BC:  CLRF   xFE
078BE:  MOVF   FC1,W
078C0:  ANDLW  C0
078C2:  IORLW  0F
078C4:  MOVWF  FC1
078C6:  MOVLW  07
078C8:  MOVWF  FB4
078CA:  CLRF   2A
078CC:  CLRF   2B
078CE:  MOVLB  0
078D0:  CLRF   xB7
078D2:  MOVLW  03
078D4:  MOVWF  xB8
078D6:  MOVWF  xB9
078D8:  MOVLW  06
078DA:  MOVWF  xBA
078DC:  MOVLW  01
078DE:  MOVWF  xBB
078E0:  MOVLW  04
078E2:  MOVWF  xBC
078E4:  MOVLW  06
078E6:  MOVWF  xBD
078E8:  MOVLW  02
078EA:  MOVWF  xBE
078EC:  MOVLW  05
078EE:  MOVWF  xBF
078F0:  CLRF   xC0
078F2:  MOVLW  03
078F4:  MOVWF  xC1
078F6:  MOVLW  05
078F8:  MOVWF  xC2
078FA:  CLRF   xC3
078FC:  MOVLW  03
078FE:  MOVWF  xC4
07900:  MOVLW  04
07902:  MOVWF  xC5
07904:  CLRF   xC6
07906:  MOVLW  02
07908:  MOVWF  xC7
0790A:  MOVLW  05
0790C:  MOVWF  xC8
0790E:  CLRF   xC9
07910:  MOVLW  03
07912:  MOVWF  xCA
07914:  MOVLW  06
07916:  MOVWF  xCB
07918:  MOVLW  01
0791A:  MOVWF  xCC
0791C:  MOVLW  04
0791E:  MOVWF  xCD
07920:  MOVLW  06
07922:  MOVWF  xCE
07924:  CLRF   xE1
07926:  CLRF   xE2
07928:  CLRF   xE3
0792A:  CLRF   xE4
0792C:  CLRF   xE5
0792E:  CLRF   xE6
07930:  CLRF   xE7
07932:  CLRF   xE8
07934:  CLRF   xE9
07936:  CLRF   xEA
07938:  CLRF   xEB
0793A:  CLRF   xEC
0793C:  CLRF   xED
0793E:  CLRF   xEE
07940:  CLRF   xEF
07942:  CLRF   xF0
07944:  CLRF   xF1
07946:  CLRF   xF2
07948:  CLRF   xF3
0794A:  CLRF   xF4
0794C:  CLRF   xF5
0794E:  CLRF   xF6
07950:  CLRF   xF7
07952:  CLRF   xF8
07954:  CLRF   xF9
07956:  CLRF   xFA
07958:  CLRF   xFB
0795A:  CLRF   xFC
0795C:  CLRF   xFD
0795E:  CLRF   xFE
07960:  CLRF   xFF
07962:  MOVLB  1
07964:  CLRF   x00
07966:  CLRF   x01
07968:  CLRF   x02
0796A:  CLRF   x03
0796C:  CLRF   x04
0796E:  CLRF   x05
07970:  CLRF   x06
07972:  CLRF   x07
07974:  CLRF   x08
07976:  CLRF   x09
07978:  CLRF   x0A
0797A:  CLRF   x0B
0797C:  CLRF   x0C
0797E:  CLRF   x0D
07980:  CLRF   x0E
07982:  CLRF   x0F
07984:  CLRF   x10
07986:  CLRF   x11
07988:  CLRF   x12
0798A:  CLRF   x13
0798C:  CLRF   x14
0798E:  CLRF   x15
07990:  CLRF   x16
07992:  CLRF   x17
07994:  CLRF   x18
07996:  CLRF   x19
07998:  CLRF   x1A
0799A:  CLRF   x1B
0799C:  CLRF   x1C
0799E:  CLRF   x1D
079A0:  CLRF   x1E
079A2:  CLRF   x1F
079A4:  CLRF   x20
079A6:  CLRF   x21
079A8:  CLRF   x22
079AA:  CLRF   x23
079AC:  CLRF   x24
079AE:  CLRF   x25
079B0:  CLRF   x26
079B2:  CLRF   x27
079B4:  CLRF   x28
079B6:  CLRF   x29
079B8:  CLRF   x2A
079BA:  CLRF   x2B
079BC:  CLRF   x2C
079BE:  CLRF   x2D
079C0:  CLRF   x2E
079C2:  CLRF   x2F
079C4:  CLRF   x30
079C6:  CLRF   x31
079C8:  CLRF   x32
079CA:  CLRF   x33
079CC:  CLRF   x34
079CE:  CLRF   x35
079D0:  CLRF   x36
079D2:  CLRF   x37
079D4:  CLRF   x38
079D6:  CLRF   x39
079D8:  CLRF   x3A
079DA:  CLRF   x3B
079DC:  CLRF   x3C
079DE:  CLRF   x3D
079E0:  CLRF   x3E
079E2:  CLRF   x3F
079E4:  CLRF   x40
079E6:  CLRF   x41
079E8:  CLRF   x42
079EA:  CLRF   x43
079EC:  CLRF   x44
079EE:  CLRF   x45
079F0:  CLRF   x46
079F2:  CLRF   x47
079F4:  CLRF   x48
079F6:  CLRF   x49
079F8:  CLRF   x4A
079FA:  CLRF   x4B
079FC:  CLRF   x4C
079FE:  CLRF   x4D
07A00:  CLRF   x4E
07A02:  CLRF   x4F
07A04:  CLRF   x50
07A06:  CLRF   x51
07A08:  CLRF   x52
07A0A:  CLRF   x53
07A0C:  CLRF   x54
07A0E:  CLRF   x55
07A10:  CLRF   x56
07A12:  CLRF   x57
07A14:  CLRF   x58
07A16:  CLRF   x59
07A18:  CLRF   x5A
07A1A:  CLRF   x5B
07A1C:  CLRF   x5C
07A1E:  CLRF   x5D
07A20:  CLRF   x5E
07A22:  CLRF   x5F
07A24:  CLRF   x60
07A26:  CLRF   x61
07A28:  CLRF   x62
07A2A:  CLRF   x63
07A2C:  CLRF   x64
07A2E:  CLRF   x65
07A30:  CLRF   x66
07A32:  CLRF   x67
07A34:  CLRF   x68
07A36:  CLRF   x69
07A38:  CLRF   x6A
07A3A:  CLRF   x6B
07A3C:  CLRF   x6C
07A3E:  CLRF   x6D
07A40:  CLRF   x6E
07A42:  CLRF   x6F
07A44:  CLRF   x70
07A46:  CLRF   x71
07A48:  CLRF   x72
07A4A:  CLRF   x73
07A4C:  CLRF   x74
07A4E:  CLRF   x75
07A50:  CLRF   x76
07A52:  CLRF   x77
07A54:  CLRF   x78
07A56:  CLRF   x79
07A58:  CLRF   x7A
07A5A:  CLRF   x7B
07A5C:  CLRF   x7C
07A5E:  CLRF   x7D
07A60:  CLRF   x7E
07A62:  CLRF   x7F
07A64:  CLRF   x80
07A66:  CLRF   x81
07A68:  CLRF   x82
07A6A:  CLRF   x83
07A6C:  CLRF   x84
07A6E:  CLRF   x85
07A70:  CLRF   x86
07A72:  CLRF   x87
07A74:  CLRF   x88
07A76:  CLRF   x89
07A78:  CLRF   x8A
07A7A:  CLRF   x8B
07A7C:  CLRF   x8C
07A7E:  CLRF   x8D
07A80:  CLRF   x8E
07A82:  CLRF   x8F
07A84:  CLRF   x90
07A86:  CLRF   x91
07A88:  CLRF   x92
07A8A:  CLRF   x93
07A8C:  CLRF   x94
07A8E:  CLRF   x95
07A90:  CLRF   x96
07A92:  CLRF   x97
07A94:  CLRF   x98
07A96:  CLRF   x99
07A98:  CLRF   x9A
07A9A:  CLRF   x9B
07A9C:  CLRF   x9C
07A9E:  CLRF   x9D
07AA0:  CLRF   x9E
07AA2:  CLRF   x9F
07AA4:  CLRF   xA0
07AA6:  CLRF   xA1
07AA8:  CLRF   xA2
07AAA:  CLRF   xA3
07AAC:  CLRF   xA4
07AAE:  CLRF   xA5
07AB0:  CLRF   xA6
07AB2:  CLRF   xA7
07AB4:  CLRF   xA8
07AB6:  CLRF   xA9
07AB8:  CLRF   xAA
07ABA:  CLRF   xAB
07ABC:  CLRF   xAC
07ABE:  CLRF   xAD
07AC0:  CLRF   xAE
07AC2:  CLRF   xAF
07AC4:  CLRF   xB0
07AC6:  CLRF   xB1
07AC8:  CLRF   xB2
07ACA:  CLRF   xB3
07ACC:  CLRF   xB4
07ACE:  CLRF   xB5
07AD0:  CLRF   xB6
07AD2:  CLRF   xB7
07AD4:  CLRF   xB8
07AD6:  CLRF   xB9
07AD8:  CLRF   xBA
07ADA:  CLRF   xBB
07ADC:  CLRF   xBC
07ADE:  CLRF   xBD
07AE0:  CLRF   xBE
07AE2:  CLRF   xBF
07AE4:  CLRF   xC0
07AE6:  CLRF   xC1
07AE8:  CLRF   xC2
07AEA:  CLRF   xC3
07AEC:  CLRF   xC4
07AEE:  CLRF   xC5
07AF0:  CLRF   xC6
07AF2:  CLRF   xC7
07AF4:  CLRF   xC8
07AF6:  CLRF   xC9
07AF8:  CLRF   xCA
07AFA:  CLRF   xCB
07AFC:  CLRF   xCC
07AFE:  CLRF   xCD
07B00:  CLRF   xCE
07B02:  CLRF   xCF
07B04:  CLRF   xD0
07B06:  CLRF   xD1
07B08:  CLRF   xD2
07B0A:  CLRF   xD3
07B0C:  CLRF   xD4
07B0E:  CLRF   xD5
07B10:  CLRF   xD6
07B12:  CLRF   xD7
07B14:  CLRF   xD8
07B16:  CLRF   xD9
07B18:  CLRF   xDA
07B1A:  CLRF   xDB
07B1C:  CLRF   xDC
07B1E:  CLRF   xDD
07B20:  CLRF   xDE
07B22:  CLRF   xDF
07B24:  CLRF   xE0
07B26:  CLRF   xE1
07B28:  CLRF   xE2
07B2A:  CLRF   xE3
07B2C:  CLRF   xE4
07B2E:  CLRF   xE5
07B30:  CLRF   xE6
07B32:  CLRF   xE7
07B34:  CLRF   xE8
07B36:  CLRF   xE9
07B38:  CLRF   xEA
07B3A:  CLRF   xEB
07B3C:  CLRF   xEC
07B3E:  CLRF   xED
07B40:  CLRF   xEE
07B42:  CLRF   xEF
07B44:  CLRF   xF0
07B46:  CLRF   xF1
07B48:  CLRF   xF2
07B4A:  CLRF   xF3
07B4C:  CLRF   xF4
07B4E:  CLRF   xF5
07B50:  CLRF   xF6
07B52:  CLRF   xF7
07B54:  CLRF   xF8
07B56:  CLRF   xF9
07B58:  CLRF   xFA
07B5A:  CLRF   xFB
07B5C:  CLRF   xFC
07B5E:  CLRF   xFD
07B60:  CLRF   xFE
07B62:  CLRF   xFF
07B64:  MOVLB  2
07B66:  CLRF   x00
07B68:  CLRF   x01
07B6A:  CLRF   x02
07B6C:  CLRF   x03
07B6E:  CLRF   x04
07B70:  CLRF   x05
07B72:  CLRF   x06
07B74:  CLRF   x07
07B76:  CLRF   x08
07B78:  CLRF   x09
07B7A:  CLRF   x0A
07B7C:  CLRF   x0B
07B7E:  CLRF   x0C
07B80:  CLRF   x0D
07B82:  CLRF   x0E
07B84:  CLRF   x0F
07B86:  CLRF   x10
07B88:  CLRF   x11
07B8A:  CLRF   x12
07B8C:  CLRF   x13
07B8E:  CLRF   x14
07B90:  CLRF   x15
07B92:  CLRF   x16
07B94:  CLRF   x17
07B96:  CLRF   x18
07B98:  CLRF   x19
07B9A:  CLRF   x1A
07B9C:  CLRF   x1B
07B9E:  CLRF   x1C
07BA0:  CLRF   x1D
07BA2:  CLRF   x1E
07BA4:  CLRF   x1F
07BA6:  CLRF   x20
07BA8:  CLRF   x21
07BAA:  CLRF   x22
07BAC:  CLRF   x23
07BAE:  CLRF   x24
07BB0:  CLRF   x25
07BB2:  CLRF   x26
07BB4:  CLRF   x27
07BB6:  CLRF   x28
07BB8:  CLRF   x29
07BBA:  CLRF   x2A
07BBC:  CLRF   x2B
07BBE:  CLRF   x2C
07BC0:  CLRF   x2D
07BC2:  CLRF   x2E
07BC4:  CLRF   x2F
07BC6:  CLRF   x30
07BC8:  CLRF   x31
07BCA:  CLRF   x32
07BCC:  CLRF   x33
07BCE:  CLRF   x34
07BD0:  CLRF   x35
07BD2:  CLRF   x36
07BD4:  CLRF   x37
07BD6:  CLRF   x38
07BD8:  CLRF   x39
07BDA:  CLRF   x3A
07BDC:  CLRF   x3B
07BDE:  CLRF   x3C
07BE0:  CLRF   x3D
07BE2:  CLRF   x3E
07BE4:  CLRF   x3F
07BE6:  CLRF   x40
07BE8:  CLRF   x41
07BEA:  CLRF   x42
07BEC:  CLRF   x43
07BEE:  CLRF   x44
07BF0:  CLRF   x45
07BF2:  CLRF   x46
07BF4:  CLRF   x47
07BF6:  CLRF   x48
07BF8:  CLRF   x49
07BFA:  CLRF   x4A
07BFC:  CLRF   x4B
07BFE:  CLRF   x4C
07C00:  CLRF   x4D
07C02:  CLRF   x4E
07C04:  CLRF   x4F
07C06:  CLRF   x50
07C08:  CLRF   x51
07C0A:  CLRF   x52
07C0C:  CLRF   x53
07C0E:  CLRF   x54
07C10:  CLRF   x55
07C12:  CLRF   x56
07C14:  CLRF   x57
07C16:  CLRF   x58
07C18:  CLRF   x59
07C1A:  CLRF   x5A
07C1C:  CLRF   x5B
07C1E:  CLRF   x5C
07C20:  CLRF   x5D
07C22:  CLRF   x5E
07C24:  CLRF   x5F
07C26:  CLRF   x60
07C28:  CLRF   x61
07C2A:  CLRF   x62
07C2C:  CLRF   x63
07C2E:  CLRF   x64
07C30:  CLRF   x65
07C32:  CLRF   x66
07C34:  CLRF   x67
07C36:  CLRF   x68
07C38:  CLRF   x69
07C3A:  CLRF   x6A
07C3C:  CLRF   x6B
07C3E:  CLRF   x6C
07C40:  CLRF   x6D
07C42:  CLRF   x6E
07C44:  CLRF   x6F
07C46:  CLRF   x70
07C48:  CLRF   x71
07C4A:  CLRF   x72
07C4C:  CLRF   x73
07C4E:  CLRF   x74
07C50:  CLRF   x75
07C52:  CLRF   x76
07C54:  CLRF   x77
07C56:  CLRF   x78
07C58:  CLRF   x79
07C5A:  CLRF   x7A
07C5C:  CLRF   x7B
07C5E:  CLRF   x7C
07C60:  CLRF   x7D
07C62:  CLRF   x7E
07C64:  CLRF   x7F
07C66:  CLRF   x80
07C68:  CLRF   x81
07C6A:  CLRF   x82
07C6C:  CLRF   x83
07C6E:  CLRF   x84
07C70:  CLRF   x85
07C72:  CLRF   x86
07C74:  CLRF   x87
07C76:  CLRF   x88
07C78:  CLRF   x89
07C7A:  CLRF   x8A
07C7C:  CLRF   x8B
07C7E:  CLRF   x8C
07C80:  CLRF   x8D
07C82:  CLRF   x8E
07C84:  CLRF   x8F
07C86:  CLRF   x90
07C88:  CLRF   x91
07C8A:  CLRF   x92
07C8C:  CLRF   x93
07C8E:  CLRF   x94
07C90:  CLRF   x95
07C92:  CLRF   x96
07C94:  CLRF   x97
07C96:  CLRF   x98
07C98:  CLRF   x99
07C9A:  CLRF   x9A
07C9C:  CLRF   x9B
07C9E:  CLRF   x9C
07CA0:  CLRF   x9D
07CA2:  CLRF   x9E
07CA4:  CLRF   x9F
07CA6:  CLRF   xA0
07CA8:  CLRF   xA1
07CAA:  CLRF   xA2
07CAC:  CLRF   xA3
07CAE:  CLRF   xA4
07CB0:  CLRF   xA5
07CB2:  CLRF   xA6
07CB4:  CLRF   xA7
07CB6:  CLRF   xA8
07CB8:  CLRF   xA9
07CBA:  CLRF   xAA
07CBC:  CLRF   xAB
07CBE:  CLRF   xAC
07CC0:  CLRF   xAD
07CC2:  CLRF   xAE
07CC4:  CLRF   xAF
07CC6:  CLRF   xB0
07CC8:  CLRF   xB1
07CCA:  CLRF   xB2
07CCC:  CLRF   xB3
07CCE:  CLRF   xB4
07CD0:  CLRF   xB5
07CD2:  CLRF   xB6
07CD4:  CLRF   xB7
07CD6:  CLRF   xB8
07CD8:  CLRF   xB9
07CDA:  CLRF   xBA
07CDC:  CLRF   xBB
07CDE:  CLRF   xBC
07CE0:  CLRF   xBD
07CE2:  CLRF   xBE
07CE4:  CLRF   xBF
07CE6:  CLRF   xC0
07CE8:  CLRF   xC1
07CEA:  CLRF   xC2
07CEC:  CLRF   xC3
07CEE:  CLRF   xC4
07CF0:  CLRF   xC5
07CF2:  CLRF   xC6
07CF4:  CLRF   xC7
07CF6:  CLRF   xC8
07CF8:  CLRF   xC9
07CFA:  CLRF   xCA
07CFC:  CLRF   xCB
07CFE:  CLRF   xCC
07D00:  CLRF   xCD
07D02:  CLRF   xCE
07D04:  CLRF   xCF
07D06:  CLRF   xD0
07D08:  CLRF   xD1
07D0A:  CLRF   xD2
07D0C:  CLRF   xE7
07D0E:  CLRF   xE8
07D10:  CLRF   xE9
07D12:  CLRF   xEA
07D14:  CLRF   xEB
07D16:  CLRF   xEC
07D18:  CLRF   xED
07D1A:  CLRF   xEE
07D1C:  CLRF   xEF
07D1E:  CLRF   xF0
07D20:  CLRF   xF1
07D22:  CLRF   xF2
07D24:  CLRF   xF3
07D26:  CLRF   xF4
07D28:  CLRF   xF5
07D2A:  CLRF   xF6
07D2C:  MOVLB  3
07D2E:  CLRF   xB4
07D30:  CLRF   xB5
07D32:  CLRF   xB6
07D34:  CLRF   xB7
07D36:  CLRF   xB8
07D38:  CLRF   xB9
07D3A:  CLRF   xBA
07D3C:  CLRF   xBB
07D3E:  MOVLW  19
07D40:  MOVWF  xE8
07D42:  MOVLW  10
07D44:  MOVWF  xE9
07D46:  MOVLW  16
07D48:  MOVWF  xEA
07D4A:  MOVLW  18
07D4C:  MOVWF  xEB
07D4E:  MOVLW  17
07D50:  MOVWF  xEC
07D52:  MOVLW  1C
07D54:  MOVWF  xED
07D56:  MOVLW  14
07D58:  MOVWF  xEE
07D5A:  MOVLW  2E
07D5C:  MOVWF  xEF
07D5E:  MOVLW  45
07D60:  MOVWF  xF0
07D62:  MOVLW  22
07D64:  MOVWF  xF1
07D66:  MOVLW  24
07D68:  MOVWF  xF2
07D6A:  MOVLW  12
07D6C:  MOVWF  xF3
07D6E:  MOVLW  21
07D70:  MOVWF  xF4
07D72:  MOVLW  20
07D74:  MOVWF  xF5
07D76:  MOVLW  26
07D78:  MOVWF  xF6
07D7A:  MOVLW  13
07D7C:  MOVWF  xF7
07D7E:  MOVLW  11
07D80:  MOVWF  xF8
07D82:  MOVLW  44
07D84:  MOVWF  xF9
....................     
....................    for (posicion=0;posicion<0x10;posicion++){ 
07D86:  MOVLB  0
07D88:  CLRF   xB6
07D8A:  MOVF   xB6,W
07D8C:  SUBLW  0F
07D8E:  BNC   7DA4
....................       SlaveA0Tx[posicion] = 0x00; 
07D90:  CLRF   03
07D92:  MOVF   xB6,W
07D94:  ADDLW  8C
07D96:  MOVWF  FE9
07D98:  MOVLW  00
07D9A:  ADDWFC 03,W
07D9C:  MOVWF  FEA
07D9E:  CLRF   FEF
....................    } 
07DA0:  INCF   xB6,F
07DA2:  BRA    7D8A
....................    setup_timer_0(RTCC_8_BIT|RTCC_DIV_1); 
07DA4:  MOVLW  C8
07DA6:  MOVWF  FD5
....................    enable_interrupts(INT_TIMER0); 
07DA8:  BSF    FF2.5
....................    setup_timer_1(T1_INTERNAL|T1_DIV_BY_1); 
07DAA:  MOVLW  85
07DAC:  MOVWF  FCD
....................    enable_interrupts(INT_TIMER1); 
07DAE:  BSF    F9D.0
....................    setup_adc_ports(AN0_TO_AN3); 
07DB0:  MOVF   FC1,W
07DB2:  ANDLW  C0
07DB4:  IORLW  0B
07DB6:  MOVWF  FC1
....................    setup_adc(ADC_CLOCK_DIV_32 ); 
07DB8:  MOVF   FC0,W
07DBA:  ANDLW  C0
07DBC:  IORLW  02
07DBE:  MOVWF  FC0
07DC0:  BSF    FC0.7
07DC2:  BSF    FC2.0
....................    port_b_pullups(true); 
07DC4:  BCF    FF1.7
....................    enable_interrupts(int_rda); 
07DC6:  BSF    F9D.5
....................    setup_wdt(WDT_ON); 
07DC8:  BSF    FD1.0
....................    enable_interrupts(global); 
07DCA:  MOVLW  C0
07DCC:  IORWF  FF2,F
....................    LeeEEPROM(); 
07DCE:  GOTO   1F5C
....................    //rtc_init(); 
....................    delay_ms(1); 
07DD2:  MOVLW  01
07DD4:  MOVLB  4
07DD6:  MOVWF  x8D
07DD8:  MOVLB  0
07DDA:  CALL   1B28
....................    LimitaValores(); 
07DDE:  GOTO   2E0E
....................    CalculoImpresion=timpresion*60; 
07DE2:  MOVLB  3
07DE4:  MOVF   x89,W
07DE6:  MULLW  3C
07DE8:  MOVFF  FF3,38A
....................    printf("page Bienvenida"); 
07DEC:  MOVLW  08
07DEE:  MOVWF  FF6
07DF0:  MOVLW  06
07DF2:  MOVWF  FF7
07DF4:  MOVLW  00
07DF6:  MOVWF  FF8
07DF8:  MOVLB  0
07DFA:  CALL   390C
....................    SendDataDisplay(); 
07DFE:  CALL   393E
....................    printf("bkcmd=0"); 
07E02:  MOVLW  18
07E04:  MOVWF  FF6
07E06:  MOVLW  06
07E08:  MOVWF  FF7
07E0A:  MOVLW  00
07E0C:  MOVWF  FF8
07E0E:  CALL   390C
....................    SendDataDisplay(); 
07E12:  CALL   393E
....................    delay_ms(1500); 
07E16:  MOVLW  06
07E18:  MOVLB  4
07E1A:  MOVWF  x74
07E1C:  MOVLW  FA
07E1E:  MOVWF  x8D
07E20:  MOVLB  0
07E22:  CALL   1B28
07E26:  MOVLB  4
07E28:  DECFSZ x74,F
07E2A:  BRA    7E1C
....................    printf("page Clave"); 
07E2C:  MOVLW  20
07E2E:  MOVWF  FF6
07E30:  MOVLW  06
07E32:  MOVWF  FF7
07E34:  MOVLW  00
07E36:  MOVWF  FF8
07E38:  MOVLB  0
07E3A:  CALL   390C
....................    SendDataDisplay(); 
07E3E:  CALL   393E
....................    ApagaSalidas(); 
07E42:  CALL   3974
....................     
....................    for(i=0;i<MediaMovil;i++){ 
07E46:  MOVLB  3
07E48:  CLRF   x92
07E4A:  MOVF   x0B,W
07E4C:  SUBWF  x92,W
07E4E:  BC    7EC0
....................       Temperatura=LeerPT100(MediaMovil); 
07E50:  MOVFF  30B,474
07E54:  MOVLB  0
07E56:  CALL   3B02
07E5A:  MOVFF  03,35C
07E5E:  MOVFF  02,35B
07E62:  MOVFF  01,35A
07E66:  MOVFF  00,359
....................       PresionCamara=Leer_Sensor_Presion_Camara(5); 
07E6A:  MOVLW  05
07E6C:  MOVLB  4
07E6E:  MOVWF  x74
07E70:  MOVLB  0
07E72:  CALL   3F48
07E76:  MOVFF  03,48C
07E7A:  MOVFF  02,48B
07E7E:  MOVFF  01,48A
07E82:  MOVFF  00,489
07E86:  CALL   4144
07E8A:  MOVFF  02,3A9
07E8E:  MOVFF  01,3A8
....................       PresionPreCamara=Leer_Sensor_Presion_PreCamara(5); 
07E92:  MOVLW  05
07E94:  MOVLB  4
07E96:  MOVWF  x74
07E98:  MOVLB  0
07E9A:  GOTO   4180
07E9E:  MOVFF  03,48C
07EA2:  MOVFF  02,48B
07EA6:  MOVFF  01,48A
07EAA:  MOVFF  00,489
07EAE:  CALL   4144
07EB2:  MOVFF  02,3AB
07EB6:  MOVFF  01,3AA
....................    } 
07EBA:  MOVLB  3
07EBC:  INCF   x92,F
07EBE:  BRA    7E4A
....................     
....................    if(UP && DOWN && RIGHT && LEFT){//Si oprime boton de Toma.    
07EC0:  BSF    F93.3
07EC2:  BTFSC  F81.3
07EC4:  BRA    7F4C
07EC6:  BSF    F93.2
07EC8:  BTFSC  F81.2
07ECA:  BRA    7F4C
07ECC:  BSF    F93.1
07ECE:  BTFSC  F81.1
07ED0:  BRA    7F4C
07ED2:  BSF    F93.0
07ED4:  BTFSC  F81.0
07ED6:  BRA    7F4C
....................       write_eeprom(37,0); 
07ED8:  CLRF   FAA
07EDA:  MOVLW  25
07EDC:  MOVWF  FA9
07EDE:  CLRF   FA8
07EE0:  BCF    FA6.6
07EE2:  BCF    FA6.7
07EE4:  BSF    FA6.2
07EE6:  MOVF   FF2,W
07EE8:  MOVWF  00
07EEA:  BCF    FF2.6
07EEC:  BCF    FF2.7
07EEE:  MOVLB  F
07EF0:  MOVLW  55
07EF2:  MOVWF  FA7
07EF4:  MOVLW  AA
07EF6:  MOVWF  FA7
07EF8:  BSF    FA6.1
07EFA:  BTFSC  FA6.1
07EFC:  BRA    7EFA
07EFE:  BCF    FA6.2
07F00:  MOVF   00,W
07F02:  IORWF  FF2,F
....................       delay_ms(20); 
07F04:  MOVLW  14
07F06:  MOVLB  4
07F08:  MOVWF  x8D
07F0A:  MOVLB  0
07F0C:  CALL   1B28
....................       write_eeprom(38,0); 
07F10:  CLRF   FAA
07F12:  MOVLW  26
07F14:  MOVWF  FA9
07F16:  CLRF   FA8
07F18:  BCF    FA6.6
07F1A:  BCF    FA6.7
07F1C:  BSF    FA6.2
07F1E:  MOVF   FF2,W
07F20:  MOVWF  00
07F22:  BCF    FF2.6
07F24:  BCF    FF2.7
07F26:  MOVLB  F
07F28:  MOVLW  55
07F2A:  MOVWF  FA7
07F2C:  MOVLW  AA
07F2E:  MOVWF  FA7
07F30:  BSF    FA6.1
07F32:  BTFSC  FA6.1
07F34:  BRA    7F32
07F36:  BCF    FA6.2
07F38:  MOVF   00,W
07F3A:  IORWF  FF2,F
....................       delay_ms(20); 
07F3C:  MOVLW  14
07F3E:  MOVLB  4
07F40:  MOVWF  x8D
07F42:  MOVLB  0
07F44:  CALL   1B28
....................       reset_cpu(); 
07F48:  RESET
07F4A:  MOVLB  3
....................    } 
....................     
....................    #if defined(PT100Fija) && !defined(Absoluta) 
....................       Atmosferica=0; 
....................    #else 
....................       if(!DOOR){ 
07F4C:  BSF    F93.6
07F4E:  BTFSS  F81.6
07F50:  BRA    8076
....................          if(abs((float)PresionCamara-(float)Atmosferica)>=3 && PresionCamara<102){//Funcion de Auto Ajuste de Presion Atmosferica 
07F52:  MOVFF  3A9,48A
07F56:  MOVFF  3A8,489
07F5A:  MOVLB  0
07F5C:  CALL   1B50
07F60:  MOVFF  00,474
07F64:  MOVFF  01,475
07F68:  MOVFF  02,476
07F6C:  MOVFF  03,477
07F70:  MOVLB  4
07F72:  CLRF   x8A
07F74:  MOVFF  3E3,489
07F78:  MOVLB  0
07F7A:  CALL   1B50
07F7E:  BSF    FD8.1
07F80:  MOVFF  477,48C
07F84:  MOVFF  476,48B
07F88:  MOVFF  475,48A
07F8C:  MOVFF  474,489
07F90:  MOVFF  03,490
07F94:  MOVFF  02,48F
07F98:  MOVFF  01,48E
07F9C:  MOVFF  00,48D
07FA0:  CALL   1CE4
07FA4:  MOVFF  00,474
07FA8:  MOVFF  01,475
07FAC:  MOVFF  02,476
07FB0:  MOVFF  03,477
07FB4:  MOVFF  00,00
07FB8:  MOVFF  01,01
07FBC:  MOVFF  02,02
07FC0:  MOVFF  03,03
07FC4:  BCF    01.7
07FC6:  MOVFF  00,474
07FCA:  MOVFF  01,475
07FCE:  MOVFF  02,476
07FD2:  MOVFF  03,477
07FD6:  MOVLB  4
07FD8:  CLRF   x7B
07FDA:  CLRF   x7A
07FDC:  MOVLW  40
07FDE:  MOVWF  x79
07FE0:  MOVLW  80
07FE2:  MOVWF  x78
07FE4:  MOVFF  03,47F
07FE8:  MOVFF  02,47E
07FEC:  MOVFF  01,47D
07FF0:  MOVFF  00,47C
07FF4:  MOVLB  0
07FF6:  CALL   2D46
07FFA:  BC    7FFE
07FFC:  BNZ   8074
07FFE:  MOVLB  3
08000:  MOVF   xA9,F
08002:  BTFSC  FD8.2
08004:  BRA    800A
08006:  MOVLB  0
08008:  BRA    8074
0800A:  MOVF   xA8,W
0800C:  SUBLW  65
0800E:  BTFSC  FD8.0
08010:  BRA    8016
08012:  MOVLB  0
08014:  BRA    8074
....................             Atmosferica=PresionCamara; 
08016:  MOVFF  3A8,3E3
....................             write_eeprom(31,Atmosferica); 
0801A:  CLRF   FAA
0801C:  MOVLW  1F
0801E:  MOVWF  FA9
08020:  MOVFF  3E3,FA8
08024:  BCF    FA6.6
08026:  BCF    FA6.7
08028:  BSF    FA6.2
0802A:  MOVF   FF2,W
0802C:  MOVWF  00
0802E:  BCF    FF2.6
08030:  BCF    FF2.7
08032:  MOVLB  F
08034:  MOVLW  55
08036:  MOVWF  FA7
08038:  MOVLW  AA
0803A:  MOVWF  FA7
0803C:  BSF    FA6.1
0803E:  BTFSC  FA6.1
08040:  BRA    803E
08042:  BCF    FA6.2
08044:  MOVF   00,W
08046:  IORWF  FF2,F
....................             delay_ms(10); 
08048:  MOVLW  0A
0804A:  MOVLB  4
0804C:  MOVWF  x8D
0804E:  MOVLB  0
08050:  CALL   1B28
....................             Buzzer_on; 
08054:  BSF    F8C.7
08056:  BCF    F95.7
....................             delay_ms(1000); 
08058:  MOVLW  04
0805A:  MOVLB  4
0805C:  MOVWF  x74
0805E:  MOVLW  FA
08060:  MOVWF  x8D
08062:  MOVLB  0
08064:  CALL   1B28
08068:  MOVLB  4
0806A:  DECFSZ x74,F
0806C:  BRA    805E
....................             Buzzer_off; 
0806E:  BCF    F8C.7
08070:  BCF    F95.7
08072:  MOVLB  0
08074:  MOVLB  3
....................          } 
....................       } 
....................    #endif 
....................    while(true) 
....................    { 
....................       LeeDisplay(); 
08076:  MOVLB  0
08078:  GOTO   4380
....................       Envio_Esclavos(); 
0807C:  CALL   4738
....................       delay_ms(1); 
08080:  MOVLW  01
08082:  MOVLB  4
08084:  MOVWF  x8D
08086:  MOVLB  0
08088:  CALL   1B28
....................       Lectura_Esclavos(); 
0808C:  GOTO   480C
....................       restart_wdt(); 
08090:  CLRWDT
....................        
....................       if(!Esterilizando || Desfogando){ 
08092:  BTFSS  xD0.4
08094:  BRA    809A
08096:  BTFSS  xD0.7
08098:  BRA    80A4
....................          CalculoImpresion=180; 
0809A:  MOVLW  B4
0809C:  MOVLB  3
0809E:  MOVWF  x8A
....................       }else{ 
080A0:  BRA    80AA
080A2:  MOVLB  0
....................          CalculoImpresion=60; 
080A4:  MOVLW  3C
080A6:  MOVLB  3
080A8:  MOVWF  x8A
....................       } 
....................        
....................       // Monitoreo Nivel de Agua//-------------------------------------- 
....................             if(!LOW){//Si no sensa agua en el nivel alto y no se ha llenado el calderin          
080AA:  MOVLB  0
080AC:  BTFSC  xD1.1
080AE:  BRA    8126
....................                TiempoSensadoNivel=0; 
080B0:  CLRF   xDA
080B2:  CLRF   xD9
....................                Controlando=0;    
080B4:  MOVLB  3
080B6:  CLRF   x87
....................                if(tiempoAgua<600){ 
080B8:  MOVF   xCA,W
080BA:  SUBLW  02
080BC:  BNC   80CA
080BE:  BNZ   80C6
080C0:  MOVF   xC9,W
080C2:  SUBLW  57
080C4:  BNC   80CA
....................                   CalderinLleno=OFF; 
080C6:  MOVLB  0
080C8:  BCF    xD0.2
....................                } 
....................                SensadoNivel=OFF; 
080CA:  MOVLB  0
080CC:  BCF    xD0.6
....................                TiempoSensadoNivel=0; 
080CE:  CLRF   xDA
080D0:  CLRF   xD9
....................                #ifdef ULKA 
....................                   if(!PruebaEstados){ 
080D2:  BTFSC  xD1.6
080D4:  BRA    8124
....................                      if(PresionCamara<=((int16)Atmosferica+10) && Menu!=20 && HIG && Menu!=255){ 
080D6:  MOVLB  4
080D8:  CLRF   x75
080DA:  MOVFF  3E3,474
080DE:  MOVLW  0A
080E0:  ADDWF  x74,W
080E2:  MOVWF  01
080E4:  MOVLW  00
080E6:  ADDWFC x75,W
080E8:  MOVWF  03
080EA:  MOVF   01,W
080EC:  MOVLB  3
080EE:  MOVF   xA9,W
080F0:  SUBWF  03,W
080F2:  BNC   811A
080F4:  BNZ   80FC
080F6:  MOVF   xA8,W
080F8:  SUBWF  01,W
080FA:  BNC   811A
080FC:  MOVF   x8F,W
080FE:  SUBLW  14
08100:  BZ    811A
08102:  MOVLB  0
08104:  BTFSC  xD1.2
08106:  BRA    810C
08108:  MOVLB  3
0810A:  BRA    811A
0810C:  MOVLB  3
0810E:  INCFSZ x8F,W
08110:  BRA    8114
08112:  BRA    811A
....................                         enciendeBombaAgua(); 
08114:  MOVLB  0
08116:  CALL   48D6
....................                      } 
....................                      if(!HIG){ 
0811A:  MOVLB  0
0811C:  BTFSC  xD1.2
0811E:  BRA    8124
....................                         apagaBombaAgua(); 
08120:  CALL   491A
....................                      } 
....................                   } 
....................                #endif 
....................             } else{ 
08124:  BRA    814A
....................                SensadoNivel=ON; 
08126:  BSF    xD0.6
....................                if(TiempoSensadoNivel>5){ 
08128:  MOVF   xDA,F
0812A:  BNZ   8132
0812C:  MOVF   xD9,W
0812E:  SUBLW  05
08130:  BC    814A
....................                   SensadoNivel=OFF; 
08132:  BCF    xD0.6
....................                   CalderinLleno=ON; 
08134:  BSF    xD0.2
....................                   IniciaLlenado=OFF;                   
08136:  BCF    xD0.1
....................                   #ifdef ULKA 
....................                      if(!PruebaEstados){ 
08138:  BTFSC  xD1.6
0813A:  BRA    814A
....................                         if(Menu!=20){ 
0813C:  MOVLB  3
0813E:  MOVF   x8F,W
08140:  SUBLW  14
08142:  BZ    814C
....................                            apagaBombaAgua(); 
08144:  MOVLB  0
08146:  CALL   491A
0814A:  MOVLB  3
....................                         } 
....................                      } 
....................                   #endif 
....................                } 
....................             } 
.................... // Tiempo de Grafica//-------------------------------------- 
....................       if(tiempos2>=6000){ 
0814C:  MOVF   x9F,W
0814E:  SUBLW  16
08150:  BC    8162
08152:  XORLW  FF
08154:  BNZ   815C
08156:  MOVF   x9E,W
08158:  SUBLW  6F
0815A:  BC    8162
....................          Grafica=1; 
0815C:  BSF    x84.2
....................          tiempos2=0; 
0815E:  CLRF   x9F
08160:  CLRF   x9E
....................       } 
....................  
.................... // Tiempo de Muestreo//-------------------------------------- 
....................       if(tiempos3>=20){ 
08162:  MOVF   xA1,F
08164:  BNZ   816C
08166:  MOVF   xA0,W
08168:  SUBLW  13
0816A:  BC    8246
....................          Temperatura=LeerPt100(MediaMovil); 
0816C:  MOVFF  30B,474
08170:  MOVLB  0
08172:  CALL   3B02
08176:  MOVFF  03,35C
0817A:  MOVFF  02,35B
0817E:  MOVFF  01,35A
08182:  MOVFF  00,359
....................          PresionCamara=Leer_Sensor_Presion_Camara(10); 
08186:  MOVLW  0A
08188:  MOVLB  4
0818A:  MOVWF  x74
0818C:  MOVLB  0
0818E:  CALL   3F48
08192:  MOVFF  03,48C
08196:  MOVFF  02,48B
0819A:  MOVFF  01,48A
0819E:  MOVFF  00,489
081A2:  CALL   4144
081A6:  MOVFF  02,3A9
081AA:  MOVFF  01,3A8
....................          PresionPreCamara=0;//Leer_Sensor_Presion_PreCamara(10); 
081AE:  MOVLB  3
081B0:  CLRF   xAB
081B2:  CLRF   xAA
....................          //rtc_get_date(Dia,Mes,Year,dow); 
....................          //rtc_get_time(Hora,Minuto,Segundo); 
....................          if(sensores(2)<512) 
081B4:  MOVLW  02
081B6:  MOVLB  4
081B8:  MOVWF  x7D
081BA:  MOVLB  0
081BC:  CALL   3992
081C0:  MOVFF  00,474
081C4:  MOVFF  01,475
081C8:  MOVFF  02,476
081CC:  MOVFF  03,477
081D0:  MOVFF  03,47B
081D4:  MOVFF  02,47A
081D8:  MOVFF  01,479
081DC:  MOVFF  00,478
081E0:  MOVLB  4
081E2:  CLRF   x7F
081E4:  CLRF   x7E
081E6:  CLRF   x7D
081E8:  MOVLW  88
081EA:  MOVWF  x7C
081EC:  MOVLB  0
081EE:  CALL   2D46
081F2:  BNC   81F8
....................             LOW=ON; 
081F4:  BSF    xD1.1
....................          else 
081F6:  BRA    81FA
....................             LOW=OFF; 
081F8:  BCF    xD1.1
....................           
....................          if(sensores(3)<512)//3 
081FA:  MOVLW  03
081FC:  MOVLB  4
081FE:  MOVWF  x7D
08200:  MOVLB  0
08202:  CALL   3992
08206:  MOVFF  00,474
0820A:  MOVFF  01,475
0820E:  MOVFF  02,476
08212:  MOVFF  03,477
08216:  MOVFF  03,47B
0821A:  MOVFF  02,47A
0821E:  MOVFF  01,479
08222:  MOVFF  00,478
08226:  MOVLB  4
08228:  CLRF   x7F
0822A:  CLRF   x7E
0822C:  CLRF   x7D
0822E:  MOVLW  88
08230:  MOVWF  x7C
08232:  MOVLB  0
08234:  CALL   2D46
08238:  BNC   823E
....................             HIG=ON; 
0823A:  BSF    xD1.2
....................          else 
0823C:  BRA    8240
....................             HIG=OFF; 
0823E:  BCF    xD1.2
....................          tiempos3=0; 
08240:  MOVLB  3
08242:  CLRF   xA1
08244:  CLRF   xA0
....................       } 
....................        
.................... // Monitoreo Parada Emergencia//--------------------------------------       
....................       if(!STOP && !IniciaCiclo && !PruebaEstados){ 
08246:  BSF    F93.5
08248:  BTFSS  F81.5
0824A:  BRA    82AC
0824C:  MOVLB  0
0824E:  BTFSS  xD0.3
08250:  BRA    8256
08252:  MOVLB  3
08254:  BRA    82AC
08256:  BTFSS  xD1.6
08258:  BRA    825E
0825A:  MOVLB  3
0825C:  BRA    82AC
....................          if(!disp_Stop){ 
0825E:  MOVLB  3
08260:  BTFSC  x84.3
08262:  BRA    8282
....................             disp_Stop=1;Menu=255; 
08264:  BSF    x84.3
08266:  MOVLW  FF
08268:  MOVWF  x8F
....................             printf("page Emergencia"); 
0826A:  MOVLW  2C
0826C:  MOVWF  FF6
0826E:  MOVLW  06
08270:  MOVWF  FF7
08272:  MOVLW  00
08274:  MOVWF  FF8
08276:  MOVLB  0
08278:  CALL   390C
....................             SendDataDisplay(); 
0827C:  CALL   393E
08280:  MOVLB  3
....................          } 
....................          Controlando=0; 
08282:  CLRF   x87
....................          Desfogue_on; 
08284:  BCF    F8B.1
08286:  BCF    F94.1
....................          SSR_off; 
08288:  BCF    F8D.1
0828A:  BCF    F96.1
....................          Bomba_off; 
0828C:  BSF    F8B.0
0828E:  BCF    F94.0
....................          Agua_off; 
08290:  BSF    F8B.2
08292:  BCF    F94.2
....................          DesfogueSuave=OFF; 
08294:  MOVLB  0
08296:  BCF    xD1.0
....................          ActivaAlarma(1); 
08298:  MOVLW  01
0829A:  MOVLB  4
0829C:  MOVWF  x74
0829E:  MOVLB  0
082A0:  CALL   4934
....................          BorraBuffer(); 
082A4:  GOTO   4A0A
....................       }else{ 
082A8:  BRA    82B2
082AA:  MOVLB  3
....................          if(disp_Stop){ 
082AC:  BTFSS  x84.3
082AE:  BRA    82B2
....................             reset_cpu(); 
082B0:  RESET
....................          } 
....................       }            
....................    //Buzzer_off;    
.................... //_-------------------------------------------------------------------------------------------------------------------------------------------------------- 
....................    if(Menu==240){ //Menu de Bienvenida. 
082B2:  MOVLB  3
082B4:  MOVF   x8F,W
082B6:  SUBLW  F0
082B8:  BNZ   8302
....................       printf("bkcmd=0"); 
082BA:  MOVLW  3C
082BC:  MOVWF  FF6
082BE:  MOVLW  06
082C0:  MOVWF  FF7
082C2:  MOVLW  00
082C4:  MOVWF  FF8
082C6:  MOVLB  0
082C8:  CALL   390C
....................       SendDataDisplay(); 
082CC:  CALL   393E
....................       delay_ms(1500); 
082D0:  MOVLW  06
082D2:  MOVLB  4
082D4:  MOVWF  x74
082D6:  MOVLW  FA
082D8:  MOVWF  x8D
082DA:  MOVLB  0
082DC:  CALL   1B28
082E0:  MOVLB  4
082E2:  DECFSZ x74,F
082E4:  BRA    82D6
....................       printf("page Clave"); 
082E6:  MOVLW  44
082E8:  MOVWF  FF6
082EA:  MOVLW  06
082EC:  MOVWF  FF7
082EE:  MOVLW  00
082F0:  MOVWF  FF8
082F2:  MOVLB  0
082F4:  CALL   390C
....................       SendDataDisplay(); 
082F8:  CALL   393E
....................       ApagaSalidas(); 
082FC:  CALL   3974
08300:  MOVLB  3
....................    } 
.................... //_-------------------------------------------------------------------------------------------------------------------------------------------------------- 
....................  
.................... //_-------------------------------------------------------------------------------------------------------------------------------------------------------- 
....................     if(Menu==0){ //Menu de Contrasea de acceso. 
08302:  MOVF   x8F,F
08304:  BTFSS  FD8.2
08306:  GOTO   8D6C
....................       //ApagaSalidas(); 
....................       entro=OFF; 
0830A:  MOVLB  0
0830C:  BCF    xD4.2
....................       if(Digito==1){ 
0830E:  MOVLB  3
08310:  DECFSZ x10,W
08312:  BRA    835E
....................          printf("t0.txt=\"%u\"",Contrasena[0]); 
08314:  MOVLW  50
08316:  MOVWF  FF6
08318:  MOVLW  06
0831A:  MOVWF  FF7
0831C:  MOVLW  00
0831E:  MOVWF  FF8
08320:  MOVLW  08
08322:  MOVLB  4
08324:  MOVWF  x79
08326:  MOVLB  0
08328:  CALL   4A36
0832C:  MOVFF  3B4,479
08330:  MOVLW  1B
08332:  MOVLB  4
08334:  MOVWF  x7A
08336:  MOVLB  0
08338:  CALL   4A94
0833C:  MOVLW  22
0833E:  BTFSS  F9E.4
08340:  BRA    833E
08342:  MOVWF  FAD
....................          SendDataDisplay(); 
08344:  CALL   393E
....................          printf("va0.val=1"); 
08348:  MOVLW  5C
0834A:  MOVWF  FF6
0834C:  MOVLW  06
0834E:  MOVWF  FF7
08350:  MOVLW  00
08352:  MOVWF  FF8
08354:  CALL   390C
....................          SendDataDisplay(); 
08358:  CALL   393E
0835C:  MOVLB  3
....................       } 
....................        
....................       if(Digito==2){ 
0835E:  MOVF   x10,W
08360:  SUBLW  02
08362:  BNZ   83BE
....................          printf("t0.txt=\"%u%u\"",Contrasena[0],Contrasena[1]); 
08364:  MOVLW  66
08366:  MOVWF  FF6
08368:  MOVLW  06
0836A:  MOVWF  FF7
0836C:  MOVLW  00
0836E:  MOVWF  FF8
08370:  MOVLW  08
08372:  MOVLB  4
08374:  MOVWF  x79
08376:  MOVLB  0
08378:  CALL   4A36
0837C:  MOVFF  3B4,479
08380:  MOVLW  1B
08382:  MOVLB  4
08384:  MOVWF  x7A
08386:  MOVLB  0
08388:  CALL   4A94
0838C:  MOVFF  3B5,479
08390:  MOVLW  1B
08392:  MOVLB  4
08394:  MOVWF  x7A
08396:  MOVLB  0
08398:  CALL   4A94
0839C:  MOVLW  22
0839E:  BTFSS  F9E.4
083A0:  BRA    839E
083A2:  MOVWF  FAD
....................          SendDataDisplay(); 
083A4:  CALL   393E
....................          printf("va0.val=2"); 
083A8:  MOVLW  74
083AA:  MOVWF  FF6
083AC:  MOVLW  06
083AE:  MOVWF  FF7
083B0:  MOVLW  00
083B2:  MOVWF  FF8
083B4:  CALL   390C
....................          SendDataDisplay(); 
083B8:  CALL   393E
083BC:  MOVLB  3
....................       } 
....................        
....................       if(Digito==3){ 
083BE:  MOVF   x10,W
083C0:  SUBLW  03
083C2:  BNZ   842E
....................          printf("t0.txt=\"%u%u%u\"",Contrasena[0],Contrasena[1],Contrasena[2]); 
083C4:  MOVLW  7E
083C6:  MOVWF  FF6
083C8:  MOVLW  06
083CA:  MOVWF  FF7
083CC:  MOVLW  00
083CE:  MOVWF  FF8
083D0:  MOVLW  08
083D2:  MOVLB  4
083D4:  MOVWF  x79
083D6:  MOVLB  0
083D8:  CALL   4A36
083DC:  MOVFF  3B4,479
083E0:  MOVLW  1B
083E2:  MOVLB  4
083E4:  MOVWF  x7A
083E6:  MOVLB  0
083E8:  CALL   4A94
083EC:  MOVFF  3B5,479
083F0:  MOVLW  1B
083F2:  MOVLB  4
083F4:  MOVWF  x7A
083F6:  MOVLB  0
083F8:  CALL   4A94
083FC:  MOVFF  3B6,479
08400:  MOVLW  1B
08402:  MOVLB  4
08404:  MOVWF  x7A
08406:  MOVLB  0
08408:  CALL   4A94
0840C:  MOVLW  22
0840E:  BTFSS  F9E.4
08410:  BRA    840E
08412:  MOVWF  FAD
....................          SendDataDisplay(); 
08414:  CALL   393E
....................          printf("va0.val=3"); 
08418:  MOVLW  8E
0841A:  MOVWF  FF6
0841C:  MOVLW  06
0841E:  MOVWF  FF7
08420:  MOVLW  00
08422:  MOVWF  FF8
08424:  CALL   390C
....................          SendDataDisplay(); 
08428:  CALL   393E
0842C:  MOVLB  3
....................       } 
....................        
....................       if(Digito==4){ 
0842E:  MOVF   x10,W
08430:  SUBLW  04
08432:  BNZ   84AE
....................          printf("t0.txt=\"%u%u%u%u\"",Contrasena[0],Contrasena[1],Contrasena[2],Contrasena[3]); 
08434:  MOVLW  98
08436:  MOVWF  FF6
08438:  MOVLW  06
0843A:  MOVWF  FF7
0843C:  MOVLW  00
0843E:  MOVWF  FF8
08440:  MOVLW  08
08442:  MOVLB  4
08444:  MOVWF  x79
08446:  MOVLB  0
08448:  CALL   4A36
0844C:  MOVFF  3B4,479
08450:  MOVLW  1B
08452:  MOVLB  4
08454:  MOVWF  x7A
08456:  MOVLB  0
08458:  CALL   4A94
0845C:  MOVFF  3B5,479
08460:  MOVLW  1B
08462:  MOVLB  4
08464:  MOVWF  x7A
08466:  MOVLB  0
08468:  CALL   4A94
0846C:  MOVFF  3B6,479
08470:  MOVLW  1B
08472:  MOVLB  4
08474:  MOVWF  x7A
08476:  MOVLB  0
08478:  CALL   4A94
0847C:  MOVFF  3B7,479
08480:  MOVLW  1B
08482:  MOVLB  4
08484:  MOVWF  x7A
08486:  MOVLB  0
08488:  CALL   4A94
0848C:  MOVLW  22
0848E:  BTFSS  F9E.4
08490:  BRA    848E
08492:  MOVWF  FAD
....................          SendDataDisplay(); 
08494:  CALL   393E
....................          printf("va0.val=4"); 
08498:  MOVLW  AA
0849A:  MOVWF  FF6
0849C:  MOVLW  06
0849E:  MOVWF  FF7
084A0:  MOVLW  00
084A2:  MOVWF  FF8
084A4:  CALL   390C
....................          SendDataDisplay(); 
084A8:  CALL   393E
084AC:  MOVLB  3
....................       } 
....................        
....................       if(UP){ 
084AE:  BSF    F93.3
084B0:  BTFSC  F81.3
084B2:  BRA    84FC
....................          delay_ms(100); 
084B4:  MOVLW  64
084B6:  MOVLB  4
084B8:  MOVWF  x8D
084BA:  MOVLB  0
084BC:  CALL   1B28
....................          if(UP){ 
084C0:  BSF    F93.3
084C2:  BTFSC  F81.3
084C4:  BRA    84FE
....................          if(Digito==0) 
084C6:  MOVLB  3
084C8:  MOVF   x10,F
084CA:  BNZ   84D0
....................             Digito=1; 
084CC:  MOVLW  01
084CE:  MOVWF  x10
....................             if(Contrasena[Digito-1]<9) 
084D0:  MOVLW  01
084D2:  SUBWF  x10,W
084D4:  CLRF   03
084D6:  ADDLW  B4
084D8:  MOVWF  FE9
084DA:  MOVLW  03
084DC:  ADDWFC 03,W
084DE:  MOVWF  FEA
084E0:  BTFSC  FEF.7
084E2:  BRA    84EA
084E4:  MOVF   FEF,W
084E6:  SUBLW  08
084E8:  BNC   84FC
....................                Contrasena[Digito-1]++; 
084EA:  MOVLW  01
084EC:  SUBWF  x10,W
084EE:  CLRF   03
084F0:  ADDLW  B4
084F2:  MOVWF  FE9
084F4:  MOVLW  03
084F6:  ADDWFC 03,W
084F8:  MOVWF  FEA
084FA:  INCF   FEF,F
084FC:  MOVLB  0
....................          } 
....................       } 
....................        
....................       if(DOWN){ 
084FE:  BSF    F93.2
08500:  BTFSC  F81.2
08502:  BRA    854E
....................          delay_ms(100); 
08504:  MOVLW  64
08506:  MOVLB  4
08508:  MOVWF  x8D
0850A:  MOVLB  0
0850C:  CALL   1B28
....................          if(Digito==0) 
08510:  MOVLB  3
08512:  MOVF   x10,F
08514:  BNZ   851A
....................             Digito=1; 
08516:  MOVLW  01
08518:  MOVWF  x10
....................          if(DOWN){ 
0851A:  BSF    F93.2
0851C:  BTFSC  F81.2
0851E:  BRA    854C
....................             if(Contrasena[Digito-1]>0) 
08520:  MOVLW  01
08522:  SUBWF  x10,W
08524:  CLRF   03
08526:  ADDLW  B4
08528:  MOVWF  FE9
0852A:  MOVLW  03
0852C:  ADDWFC 03,W
0852E:  MOVWF  FEA
08530:  BTFSC  FEF.7
08532:  BRA    854C
08534:  MOVF   FEF,W
08536:  SUBLW  00
08538:  BC    854C
....................                Contrasena[Digito-1]--; 
0853A:  MOVLW  01
0853C:  SUBWF  x10,W
0853E:  CLRF   03
08540:  ADDLW  B4
08542:  MOVWF  FE9
08544:  MOVLW  03
08546:  ADDWFC 03,W
08548:  MOVWF  FEA
0854A:  DECF   FEF,F
0854C:  MOVLB  0
....................          } 
....................       } 
....................        
....................       if(RIGHT){ 
0854E:  BSF    F93.1
08550:  BTFSC  F81.1
08552:  BRA    856C
....................          delay_ms(100); 
08554:  MOVLW  64
08556:  MOVLB  4
08558:  MOVWF  x8D
0855A:  MOVLB  0
0855C:  CALL   1B28
....................          if(RIGHT){ 
08560:  BSF    F93.1
08562:  BTFSC  F81.1
08564:  BRA    856C
....................             Digito++; 
08566:  MOVLB  3
08568:  INCF   x10,F
0856A:  MOVLB  0
....................          } 
....................       } 
....................        
....................       if(Digito>4){ 
0856C:  MOVLB  3
0856E:  MOVF   x10,W
08570:  SUBLW  04
08572:  BTFSC  FD8.0
08574:  BRA    88BE
....................       Digito=0; 
08576:  CLRF   x10
....................       printf("t0.txt=\"\""); 
08578:  MOVLW  B4
0857A:  MOVWF  FF6
0857C:  MOVLW  06
0857E:  MOVWF  FF7
08580:  MOVLW  00
08582:  MOVWF  FF8
08584:  MOVLB  0
08586:  CALL   390C
....................       SendDataDisplay(); 
0858A:  CALL   393E
....................          if(TipoClave==0){ 
0858E:  MOVLB  3
08590:  MOVF   x0E,F
08592:  BTFSS  FD8.2
08594:  BRA    86E2
....................             if(Contrasena[0]==3&&Contrasena[1]==8&&Contrasena[2]==9&&Contrasena[3]==2){ // Si Ingresa clave para reset general del sistema. 
08596:  MOVF   xB4,W
08598:  SUBLW  03
0859A:  BTFSS  FD8.2
0859C:  BRA    8696
0859E:  MOVF   xB5,W
085A0:  SUBLW  08
085A2:  BTFSS  FD8.2
085A4:  BRA    8696
085A6:  MOVF   xB6,W
085A8:  SUBLW  09
085AA:  BNZ   8696
085AC:  MOVF   xB7,W
085AE:  SUBLW  02
085B0:  BNZ   8696
....................                write_eeprom(10,0);delay_ms(20);write_eeprom(11,0);delay_ms(20);// Reestablece a contrasea de Fabrica y reinicia Programa. 
085B2:  CLRF   FAA
085B4:  MOVLW  0A
085B6:  MOVWF  FA9
085B8:  CLRF   FA8
085BA:  BCF    FA6.6
085BC:  BCF    FA6.7
085BE:  BSF    FA6.2
085C0:  MOVF   FF2,W
085C2:  MOVWF  00
085C4:  BCF    FF2.6
085C6:  BCF    FF2.7
085C8:  MOVLB  F
085CA:  MOVLW  55
085CC:  MOVWF  FA7
085CE:  MOVLW  AA
085D0:  MOVWF  FA7
085D2:  BSF    FA6.1
085D4:  BTFSC  FA6.1
085D6:  BRA    85D4
085D8:  BCF    FA6.2
085DA:  MOVF   00,W
085DC:  IORWF  FF2,F
085DE:  MOVLW  14
085E0:  MOVLB  4
085E2:  MOVWF  x8D
085E4:  MOVLB  0
085E6:  CALL   1B28
085EA:  CLRF   FAA
085EC:  MOVLW  0B
085EE:  MOVWF  FA9
085F0:  CLRF   FA8
085F2:  BCF    FA6.6
085F4:  BCF    FA6.7
085F6:  BSF    FA6.2
085F8:  MOVF   FF2,W
085FA:  MOVWF  00
085FC:  BCF    FF2.6
085FE:  BCF    FF2.7
08600:  MOVLB  F
08602:  MOVLW  55
08604:  MOVWF  FA7
08606:  MOVLW  AA
08608:  MOVWF  FA7
0860A:  BSF    FA6.1
0860C:  BTFSC  FA6.1
0860E:  BRA    860C
08610:  BCF    FA6.2
08612:  MOVF   00,W
08614:  IORWF  FF2,F
08616:  MOVLW  14
08618:  MOVLB  4
0861A:  MOVWF  x8D
0861C:  MOVLB  0
0861E:  CALL   1B28
....................                write_eeprom(12,0);delay_ms(20);write_eeprom(13,0);delay_ms(20); 
08622:  CLRF   FAA
08624:  MOVLW  0C
08626:  MOVWF  FA9
08628:  CLRF   FA8
0862A:  BCF    FA6.6
0862C:  BCF    FA6.7
0862E:  BSF    FA6.2
08630:  MOVF   FF2,W
08632:  MOVWF  00
08634:  BCF    FF2.6
08636:  BCF    FF2.7
08638:  MOVLB  F
0863A:  MOVLW  55
0863C:  MOVWF  FA7
0863E:  MOVLW  AA
08640:  MOVWF  FA7
08642:  BSF    FA6.1
08644:  BTFSC  FA6.1
08646:  BRA    8644
08648:  BCF    FA6.2
0864A:  MOVF   00,W
0864C:  IORWF  FF2,F
0864E:  MOVLW  14
08650:  MOVLB  4
08652:  MOVWF  x8D
08654:  MOVLB  0
08656:  CALL   1B28
0865A:  CLRF   FAA
0865C:  MOVLW  0D
0865E:  MOVWF  FA9
08660:  CLRF   FA8
08662:  BCF    FA6.6
08664:  BCF    FA6.7
08666:  BSF    FA6.2
08668:  MOVF   FF2,W
0866A:  MOVWF  00
0866C:  BCF    FF2.6
0866E:  BCF    FF2.7
08670:  MOVLB  F
08672:  MOVLW  55
08674:  MOVWF  FA7
08676:  MOVLW  AA
08678:  MOVWF  FA7
0867A:  BSF    FA6.1
0867C:  BTFSC  FA6.1
0867E:  BRA    867C
08680:  BCF    FA6.2
08682:  MOVF   00,W
08684:  IORWF  FF2,F
08686:  MOVLW  14
08688:  MOVLB  4
0868A:  MOVWF  x8D
0868C:  MOVLB  0
0868E:  CALL   1B28
....................                reset_cpu(); 
08692:  RESET
08694:  MOVLB  3
....................             } 
....................              
....................             if((Contrasena[0]==Password[0])&&(Contrasena[1]==Password[1])&&(Contrasena[2]==Password[2])&&(Contrasena[3]==Password[3])){ 
08696:  MOVF   xB8,W
08698:  SUBWF  xB4,W
0869A:  BNZ   86C8
0869C:  MOVF   xB9,W
0869E:  SUBWF  xB5,W
086A0:  BNZ   86C8
086A2:  MOVF   xBA,W
086A4:  SUBWF  xB6,W
086A6:  BNZ   86C8
086A8:  MOVF   xBB,W
086AA:  SUBWF  xB7,W
086AC:  BNZ   86C8
....................                //BorraBuffer(); 
....................                printf("page ClaveCorrecta"); 
086AE:  MOVLW  BE
086B0:  MOVWF  FF6
086B2:  MOVLW  06
086B4:  MOVWF  FF7
086B6:  MOVLW  00
086B8:  MOVWF  FF8
086BA:  MOVLB  0
086BC:  CALL   390C
....................                SendDataDisplay(); 
086C0:  CALL   393E
....................             }else{ 
086C4:  BRA    86DE
086C6:  MOVLB  3
....................                //BorraBuffer(); 
....................                printf("page ClaveBad"); 
086C8:  MOVLW  D2
086CA:  MOVWF  FF6
086CC:  MOVLW  06
086CE:  MOVWF  FF7
086D0:  MOVLW  00
086D2:  MOVWF  FF8
086D4:  MOVLB  0
086D6:  CALL   390C
....................                SendDataDisplay(); 
086DA:  CALL   393E
....................             }  
....................          }else if(TipoClave==1){ 
086DE:  BRA    88BC
086E0:  MOVLB  3
086E2:  DECFSZ x0E,W
086E4:  BRA    8732
....................             if(Contrasena[0]==4&&Contrasena[1]==4&&Contrasena[2]==4&&Contrasena[3]==4){ // Si Ingresa clave de Servicio Tecnico 
086E6:  MOVF   xB4,W
086E8:  SUBLW  04
086EA:  BNZ   8718
086EC:  MOVF   xB5,W
086EE:  SUBLW  04
086F0:  BNZ   8718
086F2:  MOVF   xB6,W
086F4:  SUBLW  04
086F6:  BNZ   8718
086F8:  MOVF   xB7,W
086FA:  SUBLW  04
086FC:  BNZ   8718
....................                printf("page Config"); 
086FE:  MOVLW  E0
08700:  MOVWF  FF6
08702:  MOVLW  06
08704:  MOVWF  FF7
08706:  MOVLW  00
08708:  MOVWF  FF8
0870A:  MOVLB  0
0870C:  CALL   390C
....................                SendDataDisplay(); 
08710:  CALL   393E
....................             }else{ 
08714:  BRA    872E
08716:  MOVLB  3
....................                printf("page MenuPrincipal"); 
08718:  MOVLW  EC
0871A:  MOVWF  FF6
0871C:  MOVLW  06
0871E:  MOVWF  FF7
08720:  MOVLW  00
08722:  MOVWF  FF8
08724:  MOVLB  0
08726:  CALL   390C
....................                SendDataDisplay(); 
0872A:  CALL   393E
....................             } 
....................          }else if(TipoClave==2){ 
0872E:  BRA    88BC
08730:  MOVLB  3
08732:  MOVF   x0E,W
08734:  SUBLW  02
08736:  BNZ   879C
....................             if((Contrasena[0]==Password[0])&&(Contrasena[1]==Password[1])&&(Contrasena[2]==Password[2])&&(Contrasena[3]==Password[3])){ 
08738:  MOVF   xB8,W
0873A:  SUBWF  xB4,W
0873C:  BNZ   8782
0873E:  MOVF   xB9,W
08740:  SUBWF  xB5,W
08742:  BNZ   8782
08744:  MOVF   xBA,W
08746:  SUBWF  xB6,W
08748:  BNZ   8782
0874A:  MOVF   xBB,W
0874C:  SUBWF  xB7,W
0874E:  BNZ   8782
....................                printf("page Clave"); 
08750:  MOVLW  00
08752:  MOVWF  FF6
08754:  MOVLW  07
08756:  MOVWF  FF7
08758:  MOVLW  00
0875A:  MOVWF  FF8
0875C:  MOVLB  0
0875E:  CALL   390C
....................                SendDataDisplay(); 
08762:  CALL   393E
....................                printf("titulo.txt=\"Clave Nueva\""); 
08766:  MOVLW  0C
08768:  MOVWF  FF6
0876A:  MOVLW  07
0876C:  MOVWF  FF7
0876E:  MOVLW  00
08770:  MOVWF  FF8
08772:  CALL   390C
....................                SendDataDisplay(); 
08776:  CALL   393E
....................                TipoClave=3; 
0877A:  MOVLW  03
0877C:  MOVLB  3
0877E:  MOVWF  x0E
....................             }else{ 
08780:  BRA    879A
....................                printf("page MenuPrincipal"); 
08782:  MOVLW  26
08784:  MOVWF  FF6
08786:  MOVLW  07
08788:  MOVWF  FF7
0878A:  MOVLW  00
0878C:  MOVWF  FF8
0878E:  MOVLB  0
08790:  CALL   390C
....................                SendDataDisplay(); 
08794:  CALL   393E
08798:  MOVLB  3
....................             }  
....................          }else if(TipoClave==3){ 
0879A:  BRA    88BE
0879C:  MOVF   x0E,W
0879E:  SUBLW  03
087A0:  BTFSS  FD8.2
087A2:  BRA    88BE
....................             printf("titulo.txt=\"Clave Nueva\""); 
087A4:  MOVLW  3A
087A6:  MOVWF  FF6
087A8:  MOVLW  07
087AA:  MOVWF  FF7
087AC:  MOVLW  00
087AE:  MOVWF  FF8
087B0:  MOVLB  0
087B2:  CALL   390C
....................             SendDataDisplay(); 
087B6:  CALL   393E
....................             printf("page MenuPrincipal"); 
087BA:  MOVLW  54
087BC:  MOVWF  FF6
087BE:  MOVLW  07
087C0:  MOVWF  FF7
087C2:  MOVLW  00
087C4:  MOVWF  FF8
087C6:  CALL   390C
....................             SendDataDisplay(); 
087CA:  CALL   393E
....................             if(!GuardaEEPROM){ 
087CE:  BTFSC  xD3.0
087D0:  BRA    88BC
....................                write_eeprom(10,Contrasena[0]);delay_ms(20);write_eeprom(11,Contrasena[1]);delay_ms(20); 
087D2:  CLRF   FAA
087D4:  MOVLW  0A
087D6:  MOVWF  FA9
087D8:  MOVFF  3B4,FA8
087DC:  BCF    FA6.6
087DE:  BCF    FA6.7
087E0:  BSF    FA6.2
087E2:  MOVF   FF2,W
087E4:  MOVWF  00
087E6:  BCF    FF2.6
087E8:  BCF    FF2.7
087EA:  MOVLB  F
087EC:  MOVLW  55
087EE:  MOVWF  FA7
087F0:  MOVLW  AA
087F2:  MOVWF  FA7
087F4:  BSF    FA6.1
087F6:  BTFSC  FA6.1
087F8:  BRA    87F6
087FA:  BCF    FA6.2
087FC:  MOVF   00,W
087FE:  IORWF  FF2,F
08800:  MOVLW  14
08802:  MOVLB  4
08804:  MOVWF  x8D
08806:  MOVLB  0
08808:  CALL   1B28
0880C:  CLRF   FAA
0880E:  MOVLW  0B
08810:  MOVWF  FA9
08812:  MOVFF  3B5,FA8
08816:  BCF    FA6.6
08818:  BCF    FA6.7
0881A:  BSF    FA6.2
0881C:  MOVF   FF2,W
0881E:  MOVWF  00
08820:  BCF    FF2.6
08822:  BCF    FF2.7
08824:  MOVLB  F
08826:  MOVLW  55
08828:  MOVWF  FA7
0882A:  MOVLW  AA
0882C:  MOVWF  FA7
0882E:  BSF    FA6.1
08830:  BTFSC  FA6.1
08832:  BRA    8830
08834:  BCF    FA6.2
08836:  MOVF   00,W
08838:  IORWF  FF2,F
0883A:  MOVLW  14
0883C:  MOVLB  4
0883E:  MOVWF  x8D
08840:  MOVLB  0
08842:  CALL   1B28
....................                write_eeprom(12,Contrasena[2]);delay_ms(20);write_eeprom(13,Contrasena[3]);delay_ms(20); 
08846:  CLRF   FAA
08848:  MOVLW  0C
0884A:  MOVWF  FA9
0884C:  MOVFF  3B6,FA8
08850:  BCF    FA6.6
08852:  BCF    FA6.7
08854:  BSF    FA6.2
08856:  MOVF   FF2,W
08858:  MOVWF  00
0885A:  BCF    FF2.6
0885C:  BCF    FF2.7
0885E:  MOVLB  F
08860:  MOVLW  55
08862:  MOVWF  FA7
08864:  MOVLW  AA
08866:  MOVWF  FA7
08868:  BSF    FA6.1
0886A:  BTFSC  FA6.1
0886C:  BRA    886A
0886E:  BCF    FA6.2
08870:  MOVF   00,W
08872:  IORWF  FF2,F
08874:  MOVLW  14
08876:  MOVLB  4
08878:  MOVWF  x8D
0887A:  MOVLB  0
0887C:  CALL   1B28
08880:  CLRF   FAA
08882:  MOVLW  0D
08884:  MOVWF  FA9
08886:  MOVFF  3B7,FA8
0888A:  BCF    FA6.6
0888C:  BCF    FA6.7
0888E:  BSF    FA6.2
08890:  MOVF   FF2,W
08892:  MOVWF  00
08894:  BCF    FF2.6
08896:  BCF    FF2.7
08898:  MOVLB  F
0889A:  MOVLW  55
0889C:  MOVWF  FA7
0889E:  MOVLW  AA
088A0:  MOVWF  FA7
088A2:  BSF    FA6.1
088A4:  BTFSC  FA6.1
088A6:  BRA    88A4
088A8:  BCF    FA6.2
088AA:  MOVF   00,W
088AC:  IORWF  FF2,F
088AE:  MOVLW  14
088B0:  MOVLB  4
088B2:  MOVWF  x8D
088B4:  MOVLB  0
088B6:  CALL   1B28
....................                GuardaEEPROM=ON; 
088BA:  BSF    xD3.0
088BC:  MOVLB  3
....................             } 
....................          } 
....................       } 
....................        
....................       if(RX_Buffer[4]==0x11){//11 
088BE:  MOVF   34,W
088C0:  SUBLW  11
088C2:  BNZ   88E2
....................          if(TipoClave!=0){ 
088C4:  MOVF   x0E,F
088C6:  BZ    88E2
....................             printf("page MenuPrincipal"); 
088C8:  MOVLW  68
088CA:  MOVWF  FF6
088CC:  MOVLW  07
088CE:  MOVWF  FF7
088D0:  MOVLW  00
088D2:  MOVWF  FF8
088D4:  MOVLB  0
088D6:  CALL   390C
....................             SendDataDisplay(); 
088DA:  CALL   393E
....................             PantallaPrincipal=0; 
088DE:  MOVLB  3
088E0:  CLRF   x0D
....................          } 
....................       } 
....................        
....................       if(TipoClave==3){ 
088E2:  MOVF   x0E,W
088E4:  SUBLW  03
088E6:  BNZ   8914
....................          printf("titulo.txt=\"Clave Nueva\""); 
088E8:  MOVLW  7C
088EA:  MOVWF  FF6
088EC:  MOVLW  07
088EE:  MOVWF  FF7
088F0:  MOVLW  00
088F2:  MOVWF  FF8
088F4:  MOVLB  0
088F6:  CALL   390C
....................          SendDataDisplay(); 
088FA:  CALL   393E
....................          printf("doevents"); 
088FE:  MOVLW  96
08900:  MOVWF  FF6
08902:  MOVLW  07
08904:  MOVWF  FF7
08906:  MOVLW  00
08908:  MOVWF  FF8
0890A:  CALL   390C
....................          SendDataDisplay(); 
0890E:  CALL   393E
08912:  MOVLB  3
....................       } 
....................        
....................       if(TipoClave==2){ 
08914:  MOVF   x0E,W
08916:  SUBLW  02
08918:  BNZ   8946
....................          printf("titulo.txt=\"Clave Actual\""); 
0891A:  MOVLW  A0
0891C:  MOVWF  FF6
0891E:  MOVLW  07
08920:  MOVWF  FF7
08922:  MOVLW  00
08924:  MOVWF  FF8
08926:  MOVLB  0
08928:  CALL   390C
....................          SendDataDisplay(); 
0892C:  CALL   393E
....................          printf("doevents"); 
08930:  MOVLW  BA
08932:  MOVWF  FF6
08934:  MOVLW  07
08936:  MOVWF  FF7
08938:  MOVLW  00
0893A:  MOVWF  FF8
0893C:  CALL   390C
....................          SendDataDisplay(); 
08940:  CALL   393E
08944:  MOVLB  3
....................       } 
....................        
....................       if(TipoClave==1){ 
08946:  DECFSZ x0E,W
08948:  BRA    8976
....................          printf("titulo.txt=\"Clave Tecnico\""); 
0894A:  MOVLW  C4
0894C:  MOVWF  FF6
0894E:  MOVLW  07
08950:  MOVWF  FF7
08952:  MOVLW  00
08954:  MOVWF  FF8
08956:  MOVLB  0
08958:  CALL   390C
....................          SendDataDisplay(); 
0895C:  CALL   393E
....................          printf("doevents"); 
08960:  MOVLW  E0
08962:  MOVWF  FF6
08964:  MOVLW  07
08966:  MOVWF  FF7
08968:  MOVLW  00
0896A:  MOVWF  FF8
0896C:  CALL   390C
....................          SendDataDisplay(); 
08970:  CALL   393E
08974:  MOVLB  3
....................       } 
....................        
....................       if(TipoClave==0){ 
08976:  MOVF   x0E,F
08978:  BNZ   8992
....................          printf("titulo.txt=\"Ingrese Contrasea\""); 
0897A:  MOVLW  EA
0897C:  MOVWF  FF6
0897E:  MOVLW  07
08980:  MOVWF  FF7
08982:  MOVLW  00
08984:  MOVWF  FF8
08986:  MOVLB  0
08988:  CALL   390C
....................          SendDataDisplay(); 
0898C:  CALL   393E
08990:  MOVLB  3
....................       } 
....................       if(RX_Buffer[3]==0x0f){//0f, recibe caracteres ingresados desde el Display 
08992:  MOVF   33,W
08994:  SUBLW  0F
08996:  BTFSS  FD8.2
08998:  BRA    8D6C
....................          if(TipoClave==0){ 
0899A:  MOVF   x0E,F
0899C:  BTFSS  FD8.2
0899E:  BRA    8B2C
....................             if(RX_Buffer[4]==0x33&&RX_Buffer[5]==0x38&&RX_Buffer[6]==0x39&&RX_Buffer[7]==0x32){ // Si Ingresa clave para reset general del sistema. 
089A0:  MOVF   34,W
089A2:  SUBLW  33
089A4:  BTFSS  FD8.2
089A6:  BRA    8AA0
089A8:  MOVF   35,W
089AA:  SUBLW  38
089AC:  BTFSS  FD8.2
089AE:  BRA    8AA0
089B0:  MOVF   36,W
089B2:  SUBLW  39
089B4:  BNZ   8AA0
089B6:  MOVF   37,W
089B8:  SUBLW  32
089BA:  BNZ   8AA0
....................                write_eeprom(10,0);delay_ms(20);write_eeprom(11,0);delay_ms(20);// Reestablece a contrasea de Fabrica y reinicia Programa. 
089BC:  CLRF   FAA
089BE:  MOVLW  0A
089C0:  MOVWF  FA9
089C2:  CLRF   FA8
089C4:  BCF    FA6.6
089C6:  BCF    FA6.7
089C8:  BSF    FA6.2
089CA:  MOVF   FF2,W
089CC:  MOVWF  00
089CE:  BCF    FF2.6
089D0:  BCF    FF2.7
089D2:  MOVLB  F
089D4:  MOVLW  55
089D6:  MOVWF  FA7
089D8:  MOVLW  AA
089DA:  MOVWF  FA7
089DC:  BSF    FA6.1
089DE:  BTFSC  FA6.1
089E0:  BRA    89DE
089E2:  BCF    FA6.2
089E4:  MOVF   00,W
089E6:  IORWF  FF2,F
089E8:  MOVLW  14
089EA:  MOVLB  4
089EC:  MOVWF  x8D
089EE:  MOVLB  0
089F0:  CALL   1B28
089F4:  CLRF   FAA
089F6:  MOVLW  0B
089F8:  MOVWF  FA9
089FA:  CLRF   FA8
089FC:  BCF    FA6.6
089FE:  BCF    FA6.7
08A00:  BSF    FA6.2
08A02:  MOVF   FF2,W
08A04:  MOVWF  00
08A06:  BCF    FF2.6
08A08:  BCF    FF2.7
08A0A:  MOVLB  F
08A0C:  MOVLW  55
08A0E:  MOVWF  FA7
08A10:  MOVLW  AA
08A12:  MOVWF  FA7
08A14:  BSF    FA6.1
08A16:  BTFSC  FA6.1
08A18:  BRA    8A16
08A1A:  BCF    FA6.2
08A1C:  MOVF   00,W
08A1E:  IORWF  FF2,F
08A20:  MOVLW  14
08A22:  MOVLB  4
08A24:  MOVWF  x8D
08A26:  MOVLB  0
08A28:  CALL   1B28
....................                write_eeprom(12,0);delay_ms(20);write_eeprom(13,0);delay_ms(20); 
08A2C:  CLRF   FAA
08A2E:  MOVLW  0C
08A30:  MOVWF  FA9
08A32:  CLRF   FA8
08A34:  BCF    FA6.6
08A36:  BCF    FA6.7
08A38:  BSF    FA6.2
08A3A:  MOVF   FF2,W
08A3C:  MOVWF  00
08A3E:  BCF    FF2.6
08A40:  BCF    FF2.7
08A42:  MOVLB  F
08A44:  MOVLW  55
08A46:  MOVWF  FA7
08A48:  MOVLW  AA
08A4A:  MOVWF  FA7
08A4C:  BSF    FA6.1
08A4E:  BTFSC  FA6.1
08A50:  BRA    8A4E
08A52:  BCF    FA6.2
08A54:  MOVF   00,W
08A56:  IORWF  FF2,F
08A58:  MOVLW  14
08A5A:  MOVLB  4
08A5C:  MOVWF  x8D
08A5E:  MOVLB  0
08A60:  CALL   1B28
08A64:  CLRF   FAA
08A66:  MOVLW  0D
08A68:  MOVWF  FA9
08A6A:  CLRF   FA8
08A6C:  BCF    FA6.6
08A6E:  BCF    FA6.7
08A70:  BSF    FA6.2
08A72:  MOVF   FF2,W
08A74:  MOVWF  00
08A76:  BCF    FF2.6
08A78:  BCF    FF2.7
08A7A:  MOVLB  F
08A7C:  MOVLW  55
08A7E:  MOVWF  FA7
08A80:  MOVLW  AA
08A82:  MOVWF  FA7
08A84:  BSF    FA6.1
08A86:  BTFSC  FA6.1
08A88:  BRA    8A86
08A8A:  BCF    FA6.2
08A8C:  MOVF   00,W
08A8E:  IORWF  FF2,F
08A90:  MOVLW  14
08A92:  MOVLB  4
08A94:  MOVWF  x8D
08A96:  MOVLB  0
08A98:  CALL   1B28
....................                reset_cpu(); 
08A9C:  RESET
08A9E:  MOVLB  3
....................             } 
....................             if(RX_Buffer[4]>=0x30 && RX_Buffer[5]>=0x30 && RX_Buffer[6]>=0x30 && RX_Buffer[7]>=0x30 
....................             && RX_Buffer[4]<=0x39 && RX_Buffer[5]<=0x39 && RX_Buffer[6]<=0x39 && RX_Buffer[7]<=0x39){ 
08AA0:  MOVF   34,W
08AA2:  SUBLW  2F
08AA4:  BC    8B2A
08AA6:  MOVF   35,W
08AA8:  SUBLW  2F
08AAA:  BC    8B2A
08AAC:  MOVF   36,W
08AAE:  SUBLW  2F
08AB0:  BC    8B2A
08AB2:  MOVF   37,W
08AB4:  SUBLW  2F
08AB6:  BC    8B2A
08AB8:  MOVF   34,W
08ABA:  SUBLW  39
08ABC:  BNC   8B2A
08ABE:  MOVF   35,W
08AC0:  SUBLW  39
08AC2:  BNC   8B2A
08AC4:  MOVF   36,W
08AC6:  SUBLW  39
08AC8:  BNC   8B2A
08ACA:  MOVF   37,W
08ACC:  SUBLW  39
08ACE:  BNC   8B2A
....................             if((RX_Buffer[4]==Password[0]+0x30)&&(RX_Buffer[5]==Password[1]+0x30)&&(RX_Buffer[6]==Password[2]+0x30)&&(RX_Buffer[7]==Password[3]+0x30)){ 
08AD0:  MOVLW  30
08AD2:  ADDWF  xB8,W
08AD4:  SUBWF  34,W
08AD6:  BNZ   8B0E
08AD8:  MOVLW  30
08ADA:  ADDWF  xB9,W
08ADC:  SUBWF  35,W
08ADE:  BNZ   8B0E
08AE0:  MOVLW  30
08AE2:  ADDWF  xBA,W
08AE4:  SUBWF  36,W
08AE6:  BNZ   8B0E
08AE8:  MOVLW  30
08AEA:  ADDWF  xBB,W
08AEC:  SUBWF  37,W
08AEE:  BNZ   8B0E
....................                   printf("page ClaveCorrecta"); 
08AF0:  MOVLW  0A
08AF2:  MOVWF  FF6
08AF4:  MOVLW  08
08AF6:  MOVWF  FF7
08AF8:  MOVLW  00
08AFA:  MOVWF  FF8
08AFC:  MOVLB  0
08AFE:  CALL   390C
....................                   //printf("page MenuPrincipal"); 
....................                   SendDataDisplay(); 
08B02:  CALL   393E
....................                   RX_Buffer[3]=0x00;RX_Buffer2[3]=0x00;   
08B06:  CLRF   33
08B08:  CLRF   3E
....................                }else{ 
08B0A:  BRA    8B28
08B0C:  MOVLB  3
....................                   printf("page ClaveBad"); 
08B0E:  MOVLW  1E
08B10:  MOVWF  FF6
08B12:  MOVLW  08
08B14:  MOVWF  FF7
08B16:  MOVLW  00
08B18:  MOVWF  FF8
08B1A:  MOVLB  0
08B1C:  CALL   390C
....................                   SendDataDisplay(); 
08B20:  CALL   393E
....................                   RX_Buffer[3]=0x00;RX_Buffer2[3]=0x00;   
08B24:  CLRF   33
08B26:  CLRF   3E
08B28:  MOVLB  3
....................                }  
....................             } 
....................          }else if(TipoClave==1){ 
08B2A:  BRA    8D6C
08B2C:  DECFSZ x0E,W
08B2E:  BRA    8B7C
....................             if(RX_Buffer[4]==0x34&&RX_Buffer[5]==0x34&&RX_Buffer[6]==0x34&&RX_Buffer[7]==0x34){ // Si Ingresa clave de Servicio Tecnico 
08B30:  MOVF   34,W
08B32:  SUBLW  34
08B34:  BNZ   8B62
08B36:  MOVF   35,W
08B38:  SUBLW  34
08B3A:  BNZ   8B62
08B3C:  MOVF   36,W
08B3E:  SUBLW  34
08B40:  BNZ   8B62
08B42:  MOVF   37,W
08B44:  SUBLW  34
08B46:  BNZ   8B62
....................                printf("page Config"); 
08B48:  MOVLW  2C
08B4A:  MOVWF  FF6
08B4C:  MOVLW  08
08B4E:  MOVWF  FF7
08B50:  MOVLW  00
08B52:  MOVWF  FF8
08B54:  MOVLB  0
08B56:  CALL   390C
....................                SendDataDisplay(); 
08B5A:  CALL   393E
....................             }else{ 
08B5E:  BRA    8B78
08B60:  MOVLB  3
....................                printf("page MenuPrincipal"); 
08B62:  MOVLW  38
08B64:  MOVWF  FF6
08B66:  MOVLW  08
08B68:  MOVWF  FF7
08B6A:  MOVLW  00
08B6C:  MOVWF  FF8
08B6E:  MOVLB  0
08B70:  CALL   390C
....................                SendDataDisplay(); 
08B74:  CALL   393E
....................             } 
....................          }else if(TipoClave==2){ 
08B78:  BRA    8D6A
08B7A:  MOVLB  3
08B7C:  MOVF   x0E,W
08B7E:  SUBLW  02
08B80:  BNZ   8C26
....................             if(RX_Buffer[4]>=0x30 && RX_Buffer[5]>=0x30 && RX_Buffer[6]>=0x30 && RX_Buffer[7]>=0x30 
....................             && RX_Buffer[4]<=0x39 && RX_Buffer[5]<=0x39 && RX_Buffer[6]<=0x39 && RX_Buffer[7]<=0x39){ 
08B82:  MOVF   34,W
08B84:  SUBLW  2F
08B86:  BC    8C24
08B88:  MOVF   35,W
08B8A:  SUBLW  2F
08B8C:  BC    8C24
08B8E:  MOVF   36,W
08B90:  SUBLW  2F
08B92:  BC    8C24
08B94:  MOVF   37,W
08B96:  SUBLW  2F
08B98:  BC    8C24
08B9A:  MOVF   34,W
08B9C:  SUBLW  39
08B9E:  BNC   8C24
08BA0:  MOVF   35,W
08BA2:  SUBLW  39
08BA4:  BNC   8C24
08BA6:  MOVF   36,W
08BA8:  SUBLW  39
08BAA:  BNC   8C24
08BAC:  MOVF   37,W
08BAE:  SUBLW  39
08BB0:  BNC   8C24
....................             if((RX_Buffer[4]==Password[0]+0x30)&&(RX_Buffer[5]==Password[1]+0x30)&&(RX_Buffer[6]==Password[2]+0x30)&&(RX_Buffer[7]==Password[3]+0x30)){ 
08BB2:  MOVLW  30
08BB4:  ADDWF  xB8,W
08BB6:  SUBWF  34,W
08BB8:  BNZ   8C08
08BBA:  MOVLW  30
08BBC:  ADDWF  xB9,W
08BBE:  SUBWF  35,W
08BC0:  BNZ   8C08
08BC2:  MOVLW  30
08BC4:  ADDWF  xBA,W
08BC6:  SUBWF  36,W
08BC8:  BNZ   8C08
08BCA:  MOVLW  30
08BCC:  ADDWF  xBB,W
08BCE:  SUBWF  37,W
08BD0:  BNZ   8C08
....................                printf("page Clave"); 
08BD2:  MOVLW  4C
08BD4:  MOVWF  FF6
08BD6:  MOVLW  08
08BD8:  MOVWF  FF7
08BDA:  MOVLW  00
08BDC:  MOVWF  FF8
08BDE:  MOVLB  0
08BE0:  CALL   390C
....................                SendDataDisplay(); 
08BE4:  CALL   393E
....................                printf("titulo.txt=\"Clave Nueva\""); 
08BE8:  MOVLW  58
08BEA:  MOVWF  FF6
08BEC:  MOVLW  08
08BEE:  MOVWF  FF7
08BF0:  MOVLW  00
08BF2:  MOVWF  FF8
08BF4:  CALL   390C
....................                SendDataDisplay(); 
08BF8:  CALL   393E
....................                TipoClave=3; 
08BFC:  MOVLW  03
08BFE:  MOVLB  3
08C00:  MOVWF  x0E
....................                RX_Buffer[3]=0x00; 
08C02:  CLRF   33
....................                RX_Buffer2[3]=0x00; 
08C04:  CLRF   3E
....................             }else{ 
08C06:  BRA    8C24
....................                printf("page MenuPrincipal"); 
08C08:  MOVLW  72
08C0A:  MOVWF  FF6
08C0C:  MOVLW  08
08C0E:  MOVWF  FF7
08C10:  MOVLW  00
08C12:  MOVWF  FF8
08C14:  MOVLB  0
08C16:  CALL   390C
....................                SendDataDisplay(); 
08C1A:  CALL   393E
....................                RX_Buffer[3]=0x00; 
08C1E:  CLRF   33
....................                RX_Buffer2[3]=0x00; 
08C20:  CLRF   3E
08C22:  MOVLB  3
....................             }  
....................             } 
....................          }else if(TipoClave==3){ 
08C24:  BRA    8D6C
08C26:  MOVF   x0E,W
08C28:  SUBLW  03
08C2A:  BTFSS  FD8.2
08C2C:  BRA    8D6C
....................             printf("titulo.txt=\"Clave Nueva\""); 
08C2E:  MOVLW  86
08C30:  MOVWF  FF6
08C32:  MOVLW  08
08C34:  MOVWF  FF7
08C36:  MOVLW  00
08C38:  MOVWF  FF8
08C3A:  MOVLB  0
08C3C:  CALL   390C
....................             SendDataDisplay(); 
08C40:  CALL   393E
....................             printf("page MenuPrincipal"); 
08C44:  MOVLW  A0
08C46:  MOVWF  FF6
08C48:  MOVLW  08
08C4A:  MOVWF  FF7
08C4C:  MOVLW  00
08C4E:  MOVWF  FF8
08C50:  CALL   390C
....................             SendDataDisplay(); 
08C54:  CALL   393E
....................             if(!GuardaEEPROM){ 
08C58:  BTFSC  xD3.0
08C5A:  BRA    8D66
....................                write_eeprom(10,RX_Buffer[4]-0x30);delay_ms(20);write_eeprom(11,RX_Buffer[5]-0x30);delay_ms(20); 
08C5C:  MOVLW  30
08C5E:  SUBWF  34,W
08C60:  MOVLB  4
08C62:  MOVWF  x74
08C64:  CLRF   FAA
08C66:  MOVLW  0A
08C68:  MOVWF  FA9
08C6A:  MOVFF  474,FA8
08C6E:  BCF    FA6.6
08C70:  BCF    FA6.7
08C72:  BSF    FA6.2
08C74:  MOVF   FF2,W
08C76:  MOVWF  00
08C78:  BCF    FF2.6
08C7A:  BCF    FF2.7
08C7C:  MOVLB  F
08C7E:  MOVLW  55
08C80:  MOVWF  FA7
08C82:  MOVLW  AA
08C84:  MOVWF  FA7
08C86:  BSF    FA6.1
08C88:  BTFSC  FA6.1
08C8A:  BRA    8C88
08C8C:  BCF    FA6.2
08C8E:  MOVF   00,W
08C90:  IORWF  FF2,F
08C92:  MOVLW  14
08C94:  MOVLB  4
08C96:  MOVWF  x8D
08C98:  MOVLB  0
08C9A:  CALL   1B28
08C9E:  MOVLW  30
08CA0:  SUBWF  35,W
08CA2:  MOVLB  4
08CA4:  MOVWF  x74
08CA6:  CLRF   FAA
08CA8:  MOVLW  0B
08CAA:  MOVWF  FA9
08CAC:  MOVFF  474,FA8
08CB0:  BCF    FA6.6
08CB2:  BCF    FA6.7
08CB4:  BSF    FA6.2
08CB6:  MOVF   FF2,W
08CB8:  MOVWF  00
08CBA:  BCF    FF2.6
08CBC:  BCF    FF2.7
08CBE:  MOVLB  F
08CC0:  MOVLW  55
08CC2:  MOVWF  FA7
08CC4:  MOVLW  AA
08CC6:  MOVWF  FA7
08CC8:  BSF    FA6.1
08CCA:  BTFSC  FA6.1
08CCC:  BRA    8CCA
08CCE:  BCF    FA6.2
08CD0:  MOVF   00,W
08CD2:  IORWF  FF2,F
08CD4:  MOVLW  14
08CD6:  MOVLB  4
08CD8:  MOVWF  x8D
08CDA:  MOVLB  0
08CDC:  CALL   1B28
....................                write_eeprom(12,RX_Buffer[6]-0x30);delay_ms(20);write_eeprom(13,RX_Buffer[7]-0x30);delay_ms(20); 
08CE0:  MOVLW  30
08CE2:  SUBWF  36,W
08CE4:  MOVLB  4
08CE6:  MOVWF  x74
08CE8:  CLRF   FAA
08CEA:  MOVLW  0C
08CEC:  MOVWF  FA9
08CEE:  MOVFF  474,FA8
08CF2:  BCF    FA6.6
08CF4:  BCF    FA6.7
08CF6:  BSF    FA6.2
08CF8:  MOVF   FF2,W
08CFA:  MOVWF  00
08CFC:  BCF    FF2.6
08CFE:  BCF    FF2.7
08D00:  MOVLB  F
08D02:  MOVLW  55
08D04:  MOVWF  FA7
08D06:  MOVLW  AA
08D08:  MOVWF  FA7
08D0A:  BSF    FA6.1
08D0C:  BTFSC  FA6.1
08D0E:  BRA    8D0C
08D10:  BCF    FA6.2
08D12:  MOVF   00,W
08D14:  IORWF  FF2,F
08D16:  MOVLW  14
08D18:  MOVLB  4
08D1A:  MOVWF  x8D
08D1C:  MOVLB  0
08D1E:  CALL   1B28
08D22:  MOVLW  30
08D24:  SUBWF  37,W
08D26:  MOVLB  4
08D28:  MOVWF  x74
08D2A:  CLRF   FAA
08D2C:  MOVLW  0D
08D2E:  MOVWF  FA9
08D30:  MOVFF  474,FA8
08D34:  BCF    FA6.6
08D36:  BCF    FA6.7
08D38:  BSF    FA6.2
08D3A:  MOVF   FF2,W
08D3C:  MOVWF  00
08D3E:  BCF    FF2.6
08D40:  BCF    FF2.7
08D42:  MOVLB  F
08D44:  MOVLW  55
08D46:  MOVWF  FA7
08D48:  MOVLW  AA
08D4A:  MOVWF  FA7
08D4C:  BSF    FA6.1
08D4E:  BTFSC  FA6.1
08D50:  BRA    8D4E
08D52:  BCF    FA6.2
08D54:  MOVF   00,W
08D56:  IORWF  FF2,F
08D58:  MOVLW  14
08D5A:  MOVLB  4
08D5C:  MOVWF  x8D
08D5E:  MOVLB  0
08D60:  CALL   1B28
....................                GuardaEEPROM=ON; 
08D64:  BSF    xD3.0
....................             } 
....................             RX_Buffer[3]=0x00; 
08D66:  CLRF   33
....................             RX_Buffer2[3]=0x00; 
08D68:  CLRF   3E
08D6A:  MOVLB  3
....................          } 
....................       } 
....................     } 
.................... //_--------------------------------------------------------------------------------------------------------------------------------------------------------        
....................  
.................... //_-------------------------------------------------------------------------------------------------------------------------------------------------------- 
....................    if(Menu==1){ //Menu Principal. 
08D6C:  DECFSZ x8F,W
08D6E:  GOTO   9746
....................       printf("fecha.txt=\"T:%3.1fC Fecha:%02u/%02u/20%02u Hora: %02u:%02u:%02u\"",Temperatura,Dia,Mes,Year,Hora,Minuto,Segundo); 
08D72:  MOVLW  B4
08D74:  MOVWF  FF6
08D76:  MOVLW  08
08D78:  MOVWF  FF7
08D7A:  MOVLW  00
08D7C:  MOVWF  FF8
08D7E:  MOVLW  0D
08D80:  MOVLB  4
08D82:  MOVWF  x79
08D84:  MOVLB  0
08D86:  CALL   4A36
08D8A:  MOVLW  02
08D8C:  MOVWF  FE9
08D8E:  MOVFF  35C,47C
08D92:  MOVFF  35B,47B
08D96:  MOVFF  35A,47A
08D9A:  MOVFF  359,479
08D9E:  MOVLW  01
08DA0:  MOVLB  4
08DA2:  MOVWF  x7D
08DA4:  MOVLB  0
08DA6:  CALL   4BD6
08DAA:  MOVLW  C6
08DAC:  MOVWF  FF6
08DAE:  MOVLW  08
08DB0:  MOVWF  FF7
08DB2:  MOVLW  00
08DB4:  MOVWF  FF8
08DB6:  MOVLW  09
08DB8:  MOVLB  4
08DBA:  MOVWF  x79
08DBC:  MOVLB  0
08DBE:  CALL   4A36
08DC2:  MOVFF  3D1,479
08DC6:  MOVLW  01
08DC8:  MOVLB  4
08DCA:  MOVWF  x7A
08DCC:  MOVLB  0
08DCE:  CALL   4A94
08DD2:  MOVLW  2F
08DD4:  BTFSS  F9E.4
08DD6:  BRA    8DD4
08DD8:  MOVWF  FAD
08DDA:  MOVFF  3D0,479
08DDE:  MOVLW  01
08DE0:  MOVLB  4
08DE2:  MOVWF  x7A
08DE4:  MOVLB  0
08DE6:  CALL   4A94
08DEA:  MOVLW  2F
08DEC:  BTFSS  F9E.4
08DEE:  BRA    8DEC
08DF0:  MOVWF  FAD
08DF2:  MOVLW  32
08DF4:  BTFSS  F9E.4
08DF6:  BRA    8DF4
08DF8:  MOVWF  FAD
08DFA:  MOVLW  30
08DFC:  BTFSS  F9E.4
08DFE:  BRA    8DFC
08E00:  MOVWF  FAD
08E02:  MOVFF  3CF,479
08E06:  MOVLW  01
08E08:  MOVLB  4
08E0A:  MOVWF  x7A
08E0C:  MOVLB  0
08E0E:  CALL   4A94
08E12:  MOVLW  DF
08E14:  MOVWF  FF6
08E16:  MOVLW  08
08E18:  MOVWF  FF7
08E1A:  MOVLW  00
08E1C:  MOVWF  FF8
08E1E:  MOVLW  07
08E20:  MOVLB  4
08E22:  MOVWF  x79
08E24:  MOVLB  0
08E26:  CALL   4A36
08E2A:  MOVFF  3D2,479
08E2E:  MOVLW  01
08E30:  MOVLB  4
08E32:  MOVWF  x7A
08E34:  MOVLB  0
08E36:  CALL   4A94
08E3A:  MOVLW  3A
08E3C:  BTFSS  F9E.4
08E3E:  BRA    8E3C
08E40:  MOVWF  FAD
08E42:  MOVFF  3D3,479
08E46:  MOVLW  01
08E48:  MOVLB  4
08E4A:  MOVWF  x7A
08E4C:  MOVLB  0
08E4E:  CALL   4A94
08E52:  MOVLW  3A
08E54:  BTFSS  F9E.4
08E56:  BRA    8E54
08E58:  MOVWF  FAD
08E5A:  MOVFF  3D4,479
08E5E:  MOVLW  01
08E60:  MOVLB  4
08E62:  MOVWF  x7A
08E64:  MOVLB  0
08E66:  CALL   4A94
08E6A:  MOVLW  22
08E6C:  BTFSS  F9E.4
08E6E:  BRA    8E6C
08E70:  MOVWF  FAD
....................       SendDataDisplay(); 
08E72:  CALL   393E
....................       PruebaEstados=OFF; 
08E76:  BCF    xD1.6
....................       GuardaEEPROM=OFF; 
08E78:  BCF    xD3.0
....................       if(RX_Buffer[3]==0x0f || UP){//0f, recibe caracteres ingresados desde el Display 
08E7A:  MOVF   33,W
08E7C:  SUBLW  0F
08E7E:  BZ    8E86
08E80:  BSF    F93.3
08E82:  BTFSC  F81.3
08E84:  BRA    9102
....................          delay_ms(5); 
08E86:  MOVLW  05
08E88:  MOVLB  4
08E8A:  MOVWF  x8D
08E8C:  MOVLB  0
08E8E:  CALL   1B28
....................          if(RX_Buffer[3]==0x0f || UP){ 
08E92:  MOVF   33,W
08E94:  SUBLW  0F
08E96:  BZ    8E9E
08E98:  BSF    F93.3
08E9A:  BTFSC  F81.3
08E9C:  BRA    90FE
....................          if(PantallaPrincipal==0){//Si esta en menu principal 
08E9E:  MOVLB  3
08EA0:  MOVF   x0D,F
08EA2:  BTFSS  FD8.2
08EA4:  BRA    9100
....................             if(RX_Buffer[4]==0x37){//Ajustes y pasa a solicitud de password de tecnico 
08EA6:  MOVF   34,W
08EA8:  SUBLW  37
08EAA:  BNZ   8ED6
....................                printf("page Clave"); 
08EAC:  MOVLW  F6
08EAE:  MOVWF  FF6
08EB0:  MOVLW  08
08EB2:  MOVWF  FF7
08EB4:  MOVLW  00
08EB6:  MOVWF  FF8
08EB8:  MOVLB  0
08EBA:  CALL   390C
....................                SendDataDisplay();  
08EBE:  CALL   393E
....................                Op=OFF; 
08EC2:  BCF    xD2.4
....................                Op2=OFF; 
08EC4:  BCF    xD2.5
....................                MenuAnt=Menu; 
08EC6:  MOVFF  38F,390
....................                TipoClave=1; 
08ECA:  MOVLW  01
08ECC:  MOVLB  3
08ECE:  MOVWF  x0E
....................                RX_Buffer[3]=0x00; 
08ED0:  CLRF   33
....................                RX_Buffer2[3]=0x00; 
08ED2:  CLRF   3E
....................                Opcion=0; 
08ED4:  CLRF   x97
....................             }if(Opcion==9){// Datos Ciclo 
08ED6:  MOVF   x97,W
08ED8:  SUBLW  09
08EDA:  BNZ   8F06
....................                printf("page Ciclos"); 
08EDC:  MOVLW  02
08EDE:  MOVWF  FF6
08EE0:  MOVLW  09
08EE2:  MOVWF  FF7
08EE4:  MOVLW  00
08EE6:  MOVWF  FF8
08EE8:  MOVLB  0
08EEA:  CALL   390C
....................                SendDataDisplay();  
08EEE:  CALL   393E
....................                Op=OFF; 
08EF2:  BCF    xD2.4
....................                Op2=OFF; 
08EF4:  BCF    xD2.5
....................                MenuAnt=Menu; 
08EF6:  MOVFF  38F,390
....................                RX_Buffer[3]=0x00; 
08EFA:  CLRF   33
....................                RX_Buffer2[3]=0x00; 
08EFC:  CLRF   3E
....................                Opcion=1; 
08EFE:  MOVLW  01
08F00:  MOVLB  3
08F02:  MOVWF  x97
....................             }else if(Opcion==8){// Cambio de Clave 
08F04:  BRA    9100
08F06:  MOVF   x97,W
08F08:  SUBLW  08
08F0A:  BNZ   8F38
....................                printf("page Clave"); 
08F0C:  MOVLW  0E
08F0E:  MOVWF  FF6
08F10:  MOVLW  09
08F12:  MOVWF  FF7
08F14:  MOVLW  00
08F16:  MOVWF  FF8
08F18:  MOVLB  0
08F1A:  CALL   390C
....................                SendDataDisplay();  
08F1E:  CALL   393E
....................                Op=OFF; 
08F22:  BCF    xD2.4
....................                Op2=OFF; 
08F24:  BCF    xD2.5
....................                MenuAnt=Menu; 
08F26:  MOVFF  38F,390
....................                TipoClave=2; 
08F2A:  MOVLW  02
08F2C:  MOVLB  3
08F2E:  MOVWF  x0E
....................                RX_Buffer[3]=0x00; 
08F30:  CLRF   33
....................                RX_Buffer2[3]=0x00; 
08F32:  CLRF   3E
....................                Opcion=0; 
08F34:  CLRF   x97
....................             }else if(Opcion==7){//Hora y Fecha 
08F36:  BRA    9100
08F38:  MOVF   x97,W
08F3A:  SUBLW  07
08F3C:  BNZ   8F7A
....................                printf("page Fecha"); 
08F3E:  MOVLW  1A
08F40:  MOVWF  FF6
08F42:  MOVLW  09
08F44:  MOVWF  FF7
08F46:  MOVLW  00
08F48:  MOVWF  FF8
08F4A:  MOVLB  0
08F4C:  CALL   390C
....................                SendDataDisplay();      
08F50:  CALL   393E
....................                PantallaPrincipal=0; 
08F54:  MOVLB  3
08F56:  CLRF   x0D
....................                MenuAnt=Menu; 
08F58:  MOVFF  38F,390
....................                Op=OFF; 
08F5C:  MOVLB  0
08F5E:  BCF    xD2.4
....................                Op2=OFF; 
08F60:  BCF    xD2.5
....................                DiaTx=Dia; 
08F62:  MOVFF  3D1,3DC
....................                MesTx=Mes; 
08F66:  MOVFF  3D0,3DB
....................                YearTx=Year; 
08F6A:  MOVFF  3CF,3DA
....................                HoraTx=Hora; 
08F6E:  MOVFF  3D2,3DD
....................                MinutoTx=Minuto; 
08F72:  MOVFF  3D3,3DE
....................             }else if(Opcion==6){//Test 
08F76:  BRA    90FE
08F78:  MOVLB  3
08F7A:  MOVF   x97,W
08F7C:  SUBLW  06
08F7E:  BNZ   8FA8
....................                printf("page Test"); 
08F80:  MOVLW  26
08F82:  MOVWF  FF6
08F84:  MOVLW  09
08F86:  MOVWF  FF7
08F88:  MOVLW  00
08F8A:  MOVWF  FF8
08F8C:  MOVLB  0
08F8E:  CALL   390C
....................                SendDataDisplay();      
08F92:  CALL   393E
....................                PantallaPrincipal=0; 
08F96:  MOVLB  3
08F98:  CLRF   x0D
....................                MenuAnt=Menu; 
08F9A:  MOVFF  38F,390
....................                Op=OFF; 
08F9E:  MOVLB  0
08FA0:  BCF    xD2.4
....................                Op2=OFF; 
08FA2:  BCF    xD2.5
....................             }else if(Opcion==5){//Ciclo Personalizado 
08FA4:  BRA    90FE
08FA6:  MOVLB  3
08FA8:  MOVF   x97,W
08FAA:  SUBLW  05
08FAC:  BNZ   8FD0
....................                printf("page CicloPersona"); 
08FAE:  MOVLW  30
08FB0:  MOVWF  FF6
08FB2:  MOVLW  09
08FB4:  MOVWF  FF7
08FB6:  MOVLW  00
08FB8:  MOVWF  FF8
08FBA:  MOVLB  0
08FBC:  CALL   390C
....................                SendDataDisplay();  
08FC0:  CALL   393E
....................                MenuAnt=Menu; 
08FC4:  MOVFF  38F,390
....................                Op=OFF; 
08FC8:  BCF    xD2.4
....................                Op2=OFF; 
08FCA:  BCF    xD2.5
....................             }else if(Opcion==4){//LiquidosB 
08FCC:  BRA    90FE
08FCE:  MOVLB  3
08FD0:  MOVF   x97,W
08FD2:  SUBLW  04
08FD4:  BNZ   901E
....................                printf("page Nivel"); 
08FD6:  MOVLW  42
08FD8:  MOVWF  FF6
08FDA:  MOVLW  09
08FDC:  MOVWF  FF7
08FDE:  MOVLW  00
08FE0:  MOVWF  FF8
08FE2:  MOVLB  0
08FE4:  CALL   390C
....................                SendDataDisplay();        
08FE8:  CALL   393E
....................                ConfiguraCiclo(0,0,0,3,0,0,0,0,1,4,121); 
08FEC:  MOVLB  4
08FEE:  CLRF   x7E
08FF0:  CLRF   x7F
08FF2:  CLRF   x80
08FF4:  MOVLW  03
08FF6:  MOVWF  x81
08FF8:  CLRF   x82
08FFA:  CLRF   x83
08FFC:  CLRF   x84
08FFE:  CLRF   x85
09000:  MOVLW  01
09002:  MOVWF  x86
09004:  MOVLW  04
09006:  MOVWF  x87
09008:  MOVLW  79
0900A:  MOVWF  x88
0900C:  MOVLB  0
0900E:  CALL   5412
....................                Op=OFF; 
09012:  BCF    xD2.4
....................                Op2=OFF; 
09014:  BCF    xD2.5
....................                MenuAnt=2; 
09016:  MOVLW  02
09018:  MOVLB  3
0901A:  MOVWF  x90
....................             }else if(Opcion==1){//LiquidosA 
0901C:  BRA    9100
0901E:  DECFSZ x97,W
09020:  BRA    9068
....................                printf("page Nivel"); 
09022:  MOVLW  4E
09024:  MOVWF  FF6
09026:  MOVLW  09
09028:  MOVWF  FF7
0902A:  MOVLW  00
0902C:  MOVWF  FF8
0902E:  MOVLB  0
09030:  CALL   390C
....................                SendDataDisplay();        
09034:  CALL   393E
....................                ConfiguraCiclo(0,0,5,1,0,0,0,0,1,1,121); 
09038:  MOVLB  4
0903A:  CLRF   x7E
0903C:  CLRF   x7F
0903E:  MOVLW  05
09040:  MOVWF  x80
09042:  MOVLW  01
09044:  MOVWF  x81
09046:  CLRF   x82
09048:  CLRF   x83
0904A:  CLRF   x84
0904C:  CLRF   x85
0904E:  MOVWF  x86
09050:  MOVWF  x87
09052:  MOVLW  79
09054:  MOVWF  x88
09056:  MOVLB  0
09058:  CALL   5412
....................                Op=OFF; 
0905C:  BCF    xD2.4
....................                Op2=OFF; 
0905E:  BCF    xD2.5
....................                MenuAnt=2; 
09060:  MOVLW  02
09062:  MOVLB  3
09064:  MOVWF  x90
....................             }else if(Opcion==3){//Instrumental 
09066:  BRA    9100
09068:  MOVF   x97,W
0906A:  SUBLW  03
0906C:  BNZ   90B2
....................                printf("page Funcionamiento"); 
0906E:  MOVLW  5A
09070:  MOVWF  FF6
09072:  MOVLW  09
09074:  MOVWF  FF7
09076:  MOVLW  00
09078:  MOVWF  FF8
0907A:  MOVLB  0
0907C:  CALL   390C
....................                SendDataDisplay();        
09080:  CALL   393E
....................                ConfiguraCiclo(0,0,0,3,0,0,0,3,0,3,121); 
09084:  MOVLB  4
09086:  CLRF   x7E
09088:  CLRF   x7F
0908A:  CLRF   x80
0908C:  MOVLW  03
0908E:  MOVWF  x81
09090:  CLRF   x82
09092:  CLRF   x83
09094:  CLRF   x84
09096:  MOVWF  x85
09098:  CLRF   x86
0909A:  MOVWF  x87
0909C:  MOVLW  79
0909E:  MOVWF  x88
090A0:  MOVLB  0
090A2:  CALL   5412
....................                Op=OFF; 
090A6:  BCF    xD2.4
....................                Op2=OFF; 
090A8:  BCF    xD2.5
....................                MenuAnt=Menu; 
090AA:  MOVFF  38F,390
....................                //if(Temperatura>60)TTrampa=TTrampa+5; 
....................             }else if(Opcion==2){//Caucho 
090AE:  BRA    90FE
090B0:  MOVLB  3
090B2:  MOVF   x97,W
090B4:  SUBLW  02
090B6:  BNZ   9100
....................                printf("page Funcionamiento"); 
090B8:  MOVLW  6E
090BA:  MOVWF  FF6
090BC:  MOVLW  09
090BE:  MOVWF  FF7
090C0:  MOVLW  00
090C2:  MOVWF  FF8
090C4:  MOVLB  0
090C6:  CALL   390C
....................                SendDataDisplay();        
090CA:  CALL   393E
....................                ConfiguraCiclo(0,0,5,1,0,0,3,0,0,2,121); 
090CE:  MOVLB  4
090D0:  CLRF   x7E
090D2:  CLRF   x7F
090D4:  MOVLW  05
090D6:  MOVWF  x80
090D8:  MOVLW  01
090DA:  MOVWF  x81
090DC:  CLRF   x82
090DE:  CLRF   x83
090E0:  MOVLW  03
090E2:  MOVWF  x84
090E4:  CLRF   x85
090E6:  CLRF   x86
090E8:  MOVLW  02
090EA:  MOVWF  x87
090EC:  MOVLW  79
090EE:  MOVWF  x88
090F0:  MOVLB  0
090F2:  CALL   5412
....................                Op=OFF; 
090F6:  BCF    xD2.4
....................                Op2=OFF; 
090F8:  BCF    xD2.5
....................                MenuAnt=Menu; 
090FA:  MOVFF  38F,390
090FE:  MOVLB  3
....................                //if(Temperatura>60)TTrampa=TTrampa+5; 
....................             } 
....................          } 
....................          } 
....................       }else if(PantallaPrincipal==0){ 
09100:  BRA    96FA
09102:  MOVLB  3
09104:  MOVF   x0D,F
09106:  BTFSS  FD8.2
09108:  BRA    96FA
....................          if(Opcion>sizeof(iconoGrande)) 
0910A:  MOVF   x97,W
0910C:  SUBLW  09
0910E:  BC    9114
....................             Opcion=1; 
09110:  MOVLW  01
09112:  MOVWF  x97
....................              
....................          if(Opcion<1) 
09114:  MOVF   x97,F
09116:  BNZ   911C
....................             Opcion=sizeof(iconoGrande); 
09118:  MOVLW  09
0911A:  MOVWF  x97
....................           
....................          if(Opcion==1){ 
0911C:  DECFSZ x97,W
0911E:  BRA    92CC
....................             printf("bc.pic=%u",iconoGrande[Opcion-1]); 
09120:  MOVLW  01
09122:  SUBWF  x97,W
09124:  CLRF   03
09126:  ADDLW  E8
09128:  MOVWF  FE9
0912A:  MOVLW  03
0912C:  ADDWFC 03,W
0912E:  MOVWF  FEA
09130:  MOVFF  FEF,474
09134:  MOVLW  82
09136:  MOVWF  FF6
09138:  MOVLW  09
0913A:  MOVWF  FF7
0913C:  MOVLW  00
0913E:  MOVWF  FF8
09140:  MOVLW  07
09142:  MOVLB  4
09144:  MOVWF  x79
09146:  MOVLB  0
09148:  CALL   4A36
0914C:  MOVFF  474,479
09150:  MOVLW  1B
09152:  MOVLB  4
09154:  MOVWF  x7A
09156:  MOVLB  0
09158:  CALL   4A94
....................             SendDataDisplay(); 
0915C:  CALL   393E
....................             printf("bd.pic=%u",iconoPeque[Opcion]); 
09160:  CLRF   03
09162:  MOVLB  3
09164:  MOVF   x97,W
09166:  ADDLW  F1
09168:  MOVWF  FE9
0916A:  MOVLW  03
0916C:  ADDWFC 03,W
0916E:  MOVWF  FEA
09170:  MOVFF  FEF,474
09174:  MOVLW  8C
09176:  MOVWF  FF6
09178:  MOVLW  09
0917A:  MOVWF  FF7
0917C:  MOVLW  00
0917E:  MOVWF  FF8
09180:  MOVLW  07
09182:  MOVLB  4
09184:  MOVWF  x79
09186:  MOVLB  0
09188:  CALL   4A36
0918C:  MOVFF  474,479
09190:  MOVLW  1B
09192:  MOVLB  4
09194:  MOVWF  x7A
09196:  MOVLB  0
09198:  CALL   4A94
....................             SendDataDisplay(); 
0919C:  CALL   393E
....................             printf("bi.pic=%u",iconoPeque[sizeof(iconoGrande)-1]); 
091A0:  MOVLW  96
091A2:  MOVWF  FF6
091A4:  MOVLW  09
091A6:  MOVWF  FF7
091A8:  MOVLW  00
091AA:  MOVWF  FF8
091AC:  MOVLW  07
091AE:  MOVLB  4
091B0:  MOVWF  x79
091B2:  MOVLB  0
091B4:  CALL   4A36
091B8:  MOVFF  3F9,479
091BC:  MOVLW  1B
091BE:  MOVLB  4
091C0:  MOVWF  x7A
091C2:  MOVLB  0
091C4:  CALL   4A94
....................             SendDataDisplay(); 
091C8:  CALL   393E
....................             printf("bc.pic2=%u",iconoGrande[Opcion-1]); 
091CC:  MOVLW  01
091CE:  MOVLB  3
091D0:  SUBWF  x97,W
091D2:  CLRF   03
091D4:  ADDLW  E8
091D6:  MOVWF  FE9
091D8:  MOVLW  03
091DA:  ADDWFC 03,W
091DC:  MOVWF  FEA
091DE:  MOVFF  FEF,474
091E2:  MOVLW  A0
091E4:  MOVWF  FF6
091E6:  MOVLW  09
091E8:  MOVWF  FF7
091EA:  MOVLW  00
091EC:  MOVWF  FF8
091EE:  MOVLW  08
091F0:  MOVLB  4
091F2:  MOVWF  x79
091F4:  MOVLB  0
091F6:  CALL   4A36
091FA:  MOVFF  474,479
091FE:  MOVLW  1B
09200:  MOVLB  4
09202:  MOVWF  x7A
09204:  MOVLB  0
09206:  CALL   4A94
....................             SendDataDisplay(); 
0920A:  CALL   393E
....................             printf("bd.pic2=%u",iconoPeque[Opcion]); 
0920E:  CLRF   03
09210:  MOVLB  3
09212:  MOVF   x97,W
09214:  ADDLW  F1
09216:  MOVWF  FE9
09218:  MOVLW  03
0921A:  ADDWFC 03,W
0921C:  MOVWF  FEA
0921E:  MOVFF  FEF,474
09222:  MOVLW  AC
09224:  MOVWF  FF6
09226:  MOVLW  09
09228:  MOVWF  FF7
0922A:  MOVLW  00
0922C:  MOVWF  FF8
0922E:  MOVLW  08
09230:  MOVLB  4
09232:  MOVWF  x79
09234:  MOVLB  0
09236:  CALL   4A36
0923A:  MOVFF  474,479
0923E:  MOVLW  1B
09240:  MOVLB  4
09242:  MOVWF  x7A
09244:  MOVLB  0
09246:  CALL   4A94
....................             SendDataDisplay(); 
0924A:  CALL   393E
....................             printf("bi.pic2=%u",iconoPeque[sizeof(iconoGrande)-1]); 
0924E:  MOVLW  B8
09250:  MOVWF  FF6
09252:  MOVLW  09
09254:  MOVWF  FF7
09256:  MOVLW  00
09258:  MOVWF  FF8
0925A:  MOVLW  08
0925C:  MOVLB  4
0925E:  MOVWF  x79
09260:  MOVLB  0
09262:  CALL   4A36
09266:  MOVFF  3F9,479
0926A:  MOVLW  1B
0926C:  MOVLB  4
0926E:  MOVWF  x7A
09270:  MOVLB  0
09272:  CALL   4A94
....................             SendDataDisplay(); 
09276:  CALL   393E
....................             printf("textop.txt=\"%s\"",texto[Opcion-1]); 
0927A:  MOVLW  01
0927C:  MOVLB  3
0927E:  SUBWF  x97,W
09280:  MULLW  14
09282:  MOVF   FF3,W
09284:  CLRF   03
09286:  MOVLB  4
09288:  MOVWF  x74
0928A:  MOVLW  C4
0928C:  MOVWF  FF6
0928E:  MOVLW  09
09290:  MOVWF  FF7
09292:  MOVLW  00
09294:  MOVWF  FF8
09296:  MOVLW  0C
09298:  MOVWF  x79
0929A:  MOVLB  0
0929C:  CALL   4A36
092A0:  MOVLW  50
092A2:  MOVWF  FF6
092A4:  MOVLW  01
092A6:  MOVWF  FF7
092A8:  MOVLW  00
092AA:  MOVWF  FF8
092AC:  MOVLB  4
092AE:  MOVF   x74,W
092B0:  ADDWF  FF6,F
092B2:  MOVLW  00
092B4:  ADDWFC FF7,F
092B6:  MOVLB  0
092B8:  CALL   390C
092BC:  MOVLW  22
092BE:  BTFSS  F9E.4
092C0:  BRA    92BE
092C2:  MOVWF  FAD
....................             SendDataDisplay(); 
092C4:  CALL   393E
....................          }else if(Opcion==sizeof(iconoGrande)){ 
092C8:  BRA    9658
092CA:  MOVLB  3
092CC:  MOVF   x97,W
092CE:  SUBLW  09
092D0:  BTFSS  FD8.2
092D2:  BRA    9484
....................             printf("bc.pic=%u",iconoGrande[Opcion-1]); 
092D4:  MOVLW  01
092D6:  SUBWF  x97,W
092D8:  CLRF   03
092DA:  ADDLW  E8
092DC:  MOVWF  FE9
092DE:  MOVLW  03
092E0:  ADDWFC 03,W
092E2:  MOVWF  FEA
092E4:  MOVFF  FEF,474
092E8:  MOVLW  D4
092EA:  MOVWF  FF6
092EC:  MOVLW  09
092EE:  MOVWF  FF7
092F0:  MOVLW  00
092F2:  MOVWF  FF8
092F4:  MOVLW  07
092F6:  MOVLB  4
092F8:  MOVWF  x79
092FA:  MOVLB  0
092FC:  CALL   4A36
09300:  MOVFF  474,479
09304:  MOVLW  1B
09306:  MOVLB  4
09308:  MOVWF  x7A
0930A:  MOVLB  0
0930C:  CALL   4A94
....................             SendDataDisplay(); 
09310:  CALL   393E
....................             printf("bd.pic=%u",iconoPeque[0]); 
09314:  MOVLW  DE
09316:  MOVWF  FF6
09318:  MOVLW  09
0931A:  MOVWF  FF7
0931C:  MOVLW  00
0931E:  MOVWF  FF8
09320:  MOVLW  07
09322:  MOVLB  4
09324:  MOVWF  x79
09326:  MOVLB  0
09328:  CALL   4A36
0932C:  MOVFF  3F1,479
09330:  MOVLW  1B
09332:  MOVLB  4
09334:  MOVWF  x7A
09336:  MOVLB  0
09338:  CALL   4A94
....................             SendDataDisplay(); 
0933C:  CALL   393E
....................             printf("bi.pic=%u",iconoPeque[Opcion-2]); 
09340:  MOVLW  02
09342:  MOVLB  3
09344:  SUBWF  x97,W
09346:  CLRF   03
09348:  ADDLW  F1
0934A:  MOVWF  FE9
0934C:  MOVLW  03
0934E:  ADDWFC 03,W
09350:  MOVWF  FEA
09352:  MOVFF  FEF,474
09356:  MOVLW  E8
09358:  MOVWF  FF6
0935A:  MOVLW  09
0935C:  MOVWF  FF7
0935E:  MOVLW  00
09360:  MOVWF  FF8
09362:  MOVLW  07
09364:  MOVLB  4
09366:  MOVWF  x79
09368:  MOVLB  0
0936A:  CALL   4A36
0936E:  MOVFF  474,479
09372:  MOVLW  1B
09374:  MOVLB  4
09376:  MOVWF  x7A
09378:  MOVLB  0
0937A:  CALL   4A94
....................             SendDataDisplay(); 
0937E:  CALL   393E
....................             printf("bc.pic2=%u",iconoGrande[Opcion-1]); 
09382:  MOVLW  01
09384:  MOVLB  3
09386:  SUBWF  x97,W
09388:  CLRF   03
0938A:  ADDLW  E8
0938C:  MOVWF  FE9
0938E:  MOVLW  03
09390:  ADDWFC 03,W
09392:  MOVWF  FEA
09394:  MOVFF  FEF,474
09398:  MOVLW  F2
0939A:  MOVWF  FF6
0939C:  MOVLW  09
0939E:  MOVWF  FF7
093A0:  MOVLW  00
093A2:  MOVWF  FF8
093A4:  MOVLW  08
093A6:  MOVLB  4
093A8:  MOVWF  x79
093AA:  MOVLB  0
093AC:  CALL   4A36
093B0:  MOVFF  474,479
093B4:  MOVLW  1B
093B6:  MOVLB  4
093B8:  MOVWF  x7A
093BA:  MOVLB  0
093BC:  CALL   4A94
....................             SendDataDisplay(); 
093C0:  CALL   393E
....................             printf("bd.pic2=%u",iconoPeque[0]); 
093C4:  MOVLW  FE
093C6:  MOVWF  FF6
093C8:  MOVLW  09
093CA:  MOVWF  FF7
093CC:  MOVLW  00
093CE:  MOVWF  FF8
093D0:  MOVLW  08
093D2:  MOVLB  4
093D4:  MOVWF  x79
093D6:  MOVLB  0
093D8:  CALL   4A36
093DC:  MOVFF  3F1,479
093E0:  MOVLW  1B
093E2:  MOVLB  4
093E4:  MOVWF  x7A
093E6:  MOVLB  0
093E8:  CALL   4A94
....................             SendDataDisplay(); 
093EC:  CALL   393E
....................             printf("bi.pic2=%u",iconoPeque[Opcion-2]); 
093F0:  MOVLW  02
093F2:  MOVLB  3
093F4:  SUBWF  x97,W
093F6:  CLRF   03
093F8:  ADDLW  F1
093FA:  MOVWF  FE9
093FC:  MOVLW  03
093FE:  ADDWFC 03,W
09400:  MOVWF  FEA
09402:  MOVFF  FEF,474
09406:  MOVLW  0A
09408:  MOVWF  FF6
0940A:  MOVLW  0A
0940C:  MOVWF  FF7
0940E:  MOVLW  00
09410:  MOVWF  FF8
09412:  MOVLW  08
09414:  MOVLB  4
09416:  MOVWF  x79
09418:  MOVLB  0
0941A:  CALL   4A36
0941E:  MOVFF  474,479
09422:  MOVLW  1B
09424:  MOVLB  4
09426:  MOVWF  x7A
09428:  MOVLB  0
0942A:  CALL   4A94
....................             SendDataDisplay(); 
0942E:  CALL   393E
....................             printf("textop.txt=\"%s\"",texto[Opcion-1]); 
09432:  MOVLW  01
09434:  MOVLB  3
09436:  SUBWF  x97,W
09438:  MULLW  14
0943A:  MOVF   FF3,W
0943C:  CLRF   03
0943E:  MOVLB  4
09440:  MOVWF  x74
09442:  MOVLW  16
09444:  MOVWF  FF6
09446:  MOVLW  0A
09448:  MOVWF  FF7
0944A:  MOVLW  00
0944C:  MOVWF  FF8
0944E:  MOVLW  0C
09450:  MOVWF  x79
09452:  MOVLB  0
09454:  CALL   4A36
09458:  MOVLW  50
0945A:  MOVWF  FF6
0945C:  MOVLW  01
0945E:  MOVWF  FF7
09460:  MOVLW  00
09462:  MOVWF  FF8
09464:  MOVLB  4
09466:  MOVF   x74,W
09468:  ADDWF  FF6,F
0946A:  MOVLW  00
0946C:  ADDWFC FF7,F
0946E:  MOVLB  0
09470:  CALL   390C
09474:  MOVLW  22
09476:  BTFSS  F9E.4
09478:  BRA    9476
0947A:  MOVWF  FAD
....................             SendDataDisplay(); 
0947C:  CALL   393E
....................          }else{ 
09480:  BRA    9658
09482:  MOVLB  3
....................             printf("bc.pic=%u",iconoGrande[Opcion-1]); 
09484:  MOVLW  01
09486:  SUBWF  x97,W
09488:  CLRF   03
0948A:  ADDLW  E8
0948C:  MOVWF  FE9
0948E:  MOVLW  03
09490:  ADDWFC 03,W
09492:  MOVWF  FEA
09494:  MOVFF  FEF,474
09498:  MOVLW  26
0949A:  MOVWF  FF6
0949C:  MOVLW  0A
0949E:  MOVWF  FF7
094A0:  MOVLW  00
094A2:  MOVWF  FF8
094A4:  MOVLW  07
094A6:  MOVLB  4
094A8:  MOVWF  x79
094AA:  MOVLB  0
094AC:  CALL   4A36
094B0:  MOVFF  474,479
094B4:  MOVLW  1B
094B6:  MOVLB  4
094B8:  MOVWF  x7A
094BA:  MOVLB  0
094BC:  CALL   4A94
....................             SendDataDisplay(); 
094C0:  CALL   393E
....................             printf("bd.pic=%u",iconoPeque[Opcion]); 
094C4:  CLRF   03
094C6:  MOVLB  3
094C8:  MOVF   x97,W
094CA:  ADDLW  F1
094CC:  MOVWF  FE9
094CE:  MOVLW  03
094D0:  ADDWFC 03,W
094D2:  MOVWF  FEA
094D4:  MOVFF  FEF,474
094D8:  MOVLW  30
094DA:  MOVWF  FF6
094DC:  MOVLW  0A
094DE:  MOVWF  FF7
094E0:  MOVLW  00
094E2:  MOVWF  FF8
094E4:  MOVLW  07
094E6:  MOVLB  4
094E8:  MOVWF  x79
094EA:  MOVLB  0
094EC:  CALL   4A36
094F0:  MOVFF  474,479
094F4:  MOVLW  1B
094F6:  MOVLB  4
094F8:  MOVWF  x7A
094FA:  MOVLB  0
094FC:  CALL   4A94
....................             SendDataDisplay(); 
09500:  CALL   393E
....................             printf("bi.pic=%u",iconoPeque[Opcion-2]); 
09504:  MOVLW  02
09506:  MOVLB  3
09508:  SUBWF  x97,W
0950A:  CLRF   03
0950C:  ADDLW  F1
0950E:  MOVWF  FE9
09510:  MOVLW  03
09512:  ADDWFC 03,W
09514:  MOVWF  FEA
09516:  MOVFF  FEF,474
0951A:  MOVLW  3A
0951C:  MOVWF  FF6
0951E:  MOVLW  0A
09520:  MOVWF  FF7
09522:  MOVLW  00
09524:  MOVWF  FF8
09526:  MOVLW  07
09528:  MOVLB  4
0952A:  MOVWF  x79
0952C:  MOVLB  0
0952E:  CALL   4A36
09532:  MOVFF  474,479
09536:  MOVLW  1B
09538:  MOVLB  4
0953A:  MOVWF  x7A
0953C:  MOVLB  0
0953E:  CALL   4A94
....................             SendDataDisplay(); 
09542:  CALL   393E
....................             printf("bc.pic2=%u",iconoGrande[Opcion-1]); 
09546:  MOVLW  01
09548:  MOVLB  3
0954A:  SUBWF  x97,W
0954C:  CLRF   03
0954E:  ADDLW  E8
09550:  MOVWF  FE9
09552:  MOVLW  03
09554:  ADDWFC 03,W
09556:  MOVWF  FEA
09558:  MOVFF  FEF,474
0955C:  MOVLW  44
0955E:  MOVWF  FF6
09560:  MOVLW  0A
09562:  MOVWF  FF7
09564:  MOVLW  00
09566:  MOVWF  FF8
09568:  MOVLW  08
0956A:  MOVLB  4
0956C:  MOVWF  x79
0956E:  MOVLB  0
09570:  CALL   4A36
09574:  MOVFF  474,479
09578:  MOVLW  1B
0957A:  MOVLB  4
0957C:  MOVWF  x7A
0957E:  MOVLB  0
09580:  CALL   4A94
....................             SendDataDisplay(); 
09584:  CALL   393E
....................             printf("bd.pic2=%u",iconoPeque[Opcion]); 
09588:  CLRF   03
0958A:  MOVLB  3
0958C:  MOVF   x97,W
0958E:  ADDLW  F1
09590:  MOVWF  FE9
09592:  MOVLW  03
09594:  ADDWFC 03,W
09596:  MOVWF  FEA
09598:  MOVFF  FEF,474
0959C:  MOVLW  50
0959E:  MOVWF  FF6
095A0:  MOVLW  0A
095A2:  MOVWF  FF7
095A4:  MOVLW  00
095A6:  MOVWF  FF8
095A8:  MOVLW  08
095AA:  MOVLB  4
095AC:  MOVWF  x79
095AE:  MOVLB  0
095B0:  CALL   4A36
095B4:  MOVFF  474,479
095B8:  MOVLW  1B
095BA:  MOVLB  4
095BC:  MOVWF  x7A
095BE:  MOVLB  0
095C0:  CALL   4A94
....................             SendDataDisplay(); 
095C4:  CALL   393E
....................             printf("bi.pic2=%u",iconoPeque[Opcion-2]); 
095C8:  MOVLW  02
095CA:  MOVLB  3
095CC:  SUBWF  x97,W
095CE:  CLRF   03
095D0:  ADDLW  F1
095D2:  MOVWF  FE9
095D4:  MOVLW  03
095D6:  ADDWFC 03,W
095D8:  MOVWF  FEA
095DA:  MOVFF  FEF,474
095DE:  MOVLW  5C
095E0:  MOVWF  FF6
095E2:  MOVLW  0A
095E4:  MOVWF  FF7
095E6:  MOVLW  00
095E8:  MOVWF  FF8
095EA:  MOVLW  08
095EC:  MOVLB  4
095EE:  MOVWF  x79
095F0:  MOVLB  0
095F2:  CALL   4A36
095F6:  MOVFF  474,479
095FA:  MOVLW  1B
095FC:  MOVLB  4
095FE:  MOVWF  x7A
09600:  MOVLB  0
09602:  CALL   4A94
....................             SendDataDisplay(); 
09606:  CALL   393E
....................             printf("textop.txt=\"%s\"",texto[Opcion-1]); 
0960A:  MOVLW  01
0960C:  MOVLB  3
0960E:  SUBWF  x97,W
09610:  MULLW  14
09612:  MOVF   FF3,W
09614:  CLRF   03
09616:  MOVLB  4
09618:  MOVWF  x74
0961A:  MOVLW  68
0961C:  MOVWF  FF6
0961E:  MOVLW  0A
09620:  MOVWF  FF7
09622:  MOVLW  00
09624:  MOVWF  FF8
09626:  MOVLW  0C
09628:  MOVWF  x79
0962A:  MOVLB  0
0962C:  CALL   4A36
09630:  MOVLW  50
09632:  MOVWF  FF6
09634:  MOVLW  01
09636:  MOVWF  FF7
09638:  MOVLW  00
0963A:  MOVWF  FF8
0963C:  MOVLB  4
0963E:  MOVF   x74,W
09640:  ADDWF  FF6,F
09642:  MOVLW  00
09644:  ADDWFC FF7,F
09646:  MOVLB  0
09648:  CALL   390C
0964C:  MOVLW  22
0964E:  BTFSS  F9E.4
09650:  BRA    964E
09652:  MOVWF  FAD
....................             SendDataDisplay(); 
09654:  CALL   393E
....................          } 
....................           
....................          printf("ttitulo.txt=\"SELECCIONE SU CICLO\""); 
09658:  MOVLW  78
0965A:  MOVWF  FF6
0965C:  MOVLW  0A
0965E:  MOVWF  FF7
09660:  MOVLW  00
09662:  MOVWF  FF8
09664:  CALL   390C
....................          SendDataDisplay(); 
09668:  CALL   393E
....................           
....................          if(RIGHT){ 
0966C:  BSF    F93.1
0966E:  BTFSC  F81.1
09670:  BRA    968A
....................             delay_ms(20); 
09672:  MOVLW  14
09674:  MOVLB  4
09676:  MOVWF  x8D
09678:  MOVLB  0
0967A:  CALL   1B28
....................             if(RIGHT){ 
0967E:  BSF    F93.1
09680:  BTFSC  F81.1
09682:  BRA    968A
....................                Opcion++; 
09684:  MOVLB  3
09686:  INCF   x97,F
09688:  MOVLB  0
....................             } 
....................          } 
....................           
....................          if(LEFT){ 
0968A:  BSF    F93.0
0968C:  BTFSC  F81.0
0968E:  BRA    96A8
....................             delay_ms(20); 
09690:  MOVLW  14
09692:  MOVLB  4
09694:  MOVWF  x8D
09696:  MOVLB  0
09698:  CALL   1B28
....................             if(LEFT){ 
0969C:  BSF    F93.0
0969E:  BTFSC  F81.0
096A0:  BRA    96A8
....................                Opcion--; 
096A2:  MOVLB  3
096A4:  DECF   x97,F
096A6:  MOVLB  0
....................             } 
....................          } 
....................           
....................          if(RX_Buffer[4]==0x0d && !Op){//Tecla Derecha Oprimida 
096A8:  MOVF   34,W
096AA:  SUBLW  0D
096AC:  BNZ   96BC
096AE:  BTFSC  xD2.4
096B0:  BRA    96BC
....................             Opcion++; 
096B2:  MOVLB  3
096B4:  INCF   x97,F
....................             RX_Buffer[4]=0x00; 
096B6:  CLRF   34
....................             Op=ON; 
096B8:  MOVLB  0
096BA:  BSF    xD2.4
....................             //BorraBuffer(); 
....................          } 
....................           
....................          if(RX_Buffer[4]==0x0c && Op){//Tecla Derecha Oprimida 
096BC:  MOVF   34,W
096BE:  SUBLW  0C
096C0:  BNZ   96D0
096C2:  BTFSS  xD2.4
096C4:  BRA    96D0
....................             Opcion++; 
096C6:  MOVLB  3
096C8:  INCF   x97,F
....................             RX_Buffer[4]=0x00; 
096CA:  CLRF   34
....................             Op=OFF; 
096CC:  MOVLB  0
096CE:  BCF    xD2.4
....................             //BorraBuffer(); 
....................          } 
....................           
....................          if(RX_Buffer[4]==0x0e && !Op2){//Tecla Izquierda Oprimida 
096D0:  MOVF   34,W
096D2:  SUBLW  0E
096D4:  BNZ   96E4
096D6:  BTFSC  xD2.5
096D8:  BRA    96E4
....................             Opcion--; 
096DA:  MOVLB  3
096DC:  DECF   x97,F
....................             RX_Buffer[4]=0x00; 
096DE:  CLRF   34
....................             Op2=ON; 
096E0:  MOVLB  0
096E2:  BSF    xD2.5
....................             //BorraBuffer(); 
....................          } 
....................           
....................          if(RX_Buffer[4]==0x0f && Op2){//Tecla Izquierda Oprimida 
096E4:  MOVF   34,W
096E6:  SUBLW  0F
096E8:  BNZ   96F8
096EA:  BTFSS  xD2.5
096EC:  BRA    96F8
....................             Opcion--; 
096EE:  MOVLB  3
096F0:  DECF   x97,F
....................             RX_Buffer[4]=0x00; 
096F2:  CLRF   34
....................             Op2=OFF; 
096F4:  MOVLB  0
096F6:  BCF    xD2.5
096F8:  MOVLB  3
....................             //BorraBuffer(); 
....................          } 
....................           
....................       } 
....................          if(RIGHT && LEFT){ 
096FA:  BSF    F93.1
096FC:  BTFSC  F81.1
096FE:  BRA    9746
09700:  BSF    F93.0
09702:  BTFSC  F81.0
09704:  BRA    9746
....................             delay_ms(20); 
09706:  MOVLW  14
09708:  MOVLB  4
0970A:  MOVWF  x8D
0970C:  MOVLB  0
0970E:  CALL   1B28
....................             if(RIGHT && LEFT){ 
09712:  BSF    F93.1
09714:  BTFSC  F81.1
09716:  BRA    9748
09718:  BSF    F93.0
0971A:  BTFSC  F81.0
0971C:  BRA    9748
....................                printf("page Clave"); 
0971E:  MOVLW  9A
09720:  MOVWF  FF6
09722:  MOVLW  0A
09724:  MOVWF  FF7
09726:  MOVLW  00
09728:  MOVWF  FF8
0972A:  CALL   390C
....................                SendDataDisplay();  
0972E:  CALL   393E
....................                Op=OFF; 
09732:  BCF    xD2.4
....................                Op2=OFF; 
09734:  BCF    xD2.5
....................                MenuAnt=Menu; 
09736:  MOVFF  38F,390
....................                TipoClave=1; 
0973A:  MOVLW  01
0973C:  MOVLB  3
0973E:  MOVWF  x0E
....................                RX_Buffer[3]=0x00; 
09740:  CLRF   33
....................                RX_Buffer2[3]=0x00; 
09742:  CLRF   3E
....................                Opcion=0; 
09744:  CLRF   x97
09746:  MOVLB  0
....................             } 
....................          } 
....................    } 
.................... //_--------------------------------------------------------------------------------------------------------------------------------------------------------        
....................  
.................... //_-------------------------------------------------------------------------------------------------------------------------------------------------------- 
....................     if(Menu==2){ //Menu de Tiempo Esterilizacion      
09748:  MOVLB  3
0974A:  MOVF   x8F,W
0974C:  SUBLW  02
0974E:  BTFSS  FD8.2
09750:  BRA    9C7C
....................       printf("fecha.txt=\"T:%3.1fC Fecha:%02u/%02u/20%02u Hora: %02u:%02u:%02u\"",Temperatura,Dia,Mes,Year,Hora,Minuto,Segundo); 
09752:  MOVLW  A6
09754:  MOVWF  FF6
09756:  MOVLW  0A
09758:  MOVWF  FF7
0975A:  MOVLW  00
0975C:  MOVWF  FF8
0975E:  MOVLW  0D
09760:  MOVLB  4
09762:  MOVWF  x79
09764:  MOVLB  0
09766:  CALL   4A36
0976A:  MOVLW  02
0976C:  MOVWF  FE9
0976E:  MOVFF  35C,47C
09772:  MOVFF  35B,47B
09776:  MOVFF  35A,47A
0977A:  MOVFF  359,479
0977E:  MOVLW  01
09780:  MOVLB  4
09782:  MOVWF  x7D
09784:  MOVLB  0
09786:  CALL   4BD6
0978A:  MOVLW  B8
0978C:  MOVWF  FF6
0978E:  MOVLW  0A
09790:  MOVWF  FF7
09792:  MOVLW  00
09794:  MOVWF  FF8
09796:  MOVLW  09
09798:  MOVLB  4
0979A:  MOVWF  x79
0979C:  MOVLB  0
0979E:  CALL   4A36
097A2:  MOVFF  3D1,479
097A6:  MOVLW  01
097A8:  MOVLB  4
097AA:  MOVWF  x7A
097AC:  MOVLB  0
097AE:  CALL   4A94
097B2:  MOVLW  2F
097B4:  BTFSS  F9E.4
097B6:  BRA    97B4
097B8:  MOVWF  FAD
097BA:  MOVFF  3D0,479
097BE:  MOVLW  01
097C0:  MOVLB  4
097C2:  MOVWF  x7A
097C4:  MOVLB  0
097C6:  CALL   4A94
097CA:  MOVLW  2F
097CC:  BTFSS  F9E.4
097CE:  BRA    97CC
097D0:  MOVWF  FAD
097D2:  MOVLW  32
097D4:  BTFSS  F9E.4
097D6:  BRA    97D4
097D8:  MOVWF  FAD
097DA:  MOVLW  30
097DC:  BTFSS  F9E.4
097DE:  BRA    97DC
097E0:  MOVWF  FAD
097E2:  MOVFF  3CF,479
097E6:  MOVLW  01
097E8:  MOVLB  4
097EA:  MOVWF  x7A
097EC:  MOVLB  0
097EE:  CALL   4A94
097F2:  MOVLW  D1
097F4:  MOVWF  FF6
097F6:  MOVLW  0A
097F8:  MOVWF  FF7
097FA:  MOVLW  00
097FC:  MOVWF  FF8
097FE:  MOVLW  07
09800:  MOVLB  4
09802:  MOVWF  x79
09804:  MOVLB  0
09806:  CALL   4A36
0980A:  MOVFF  3D2,479
0980E:  MOVLW  01
09810:  MOVLB  4
09812:  MOVWF  x7A
09814:  MOVLB  0
09816:  CALL   4A94
0981A:  MOVLW  3A
0981C:  BTFSS  F9E.4
0981E:  BRA    981C
09820:  MOVWF  FAD
09822:  MOVFF  3D3,479
09826:  MOVLW  01
09828:  MOVLB  4
0982A:  MOVWF  x7A
0982C:  MOVLB  0
0982E:  CALL   4A94
09832:  MOVLW  3A
09834:  BTFSS  F9E.4
09836:  BRA    9834
09838:  MOVWF  FAD
0983A:  MOVFF  3D4,479
0983E:  MOVLW  01
09840:  MOVLB  4
09842:  MOVWF  x7A
09844:  MOVLB  0
09846:  CALL   4A94
0984A:  MOVLW  22
0984C:  BTFSS  F9E.4
0984E:  BRA    984C
09850:  MOVWF  FAD
....................       SendDataDisplay(); 
09852:  CALL   393E
....................          if(RX_Buffer[4]==0x0a){//Selecciono Minutos 
09856:  MOVF   34,W
09858:  SUBLW  0A
0985A:  BNZ   9860
....................             Minutos=ON; 
0985C:  BSF    xD2.6
....................             Segundos=OFF; 
0985E:  BCF    xD2.7
....................          } 
....................           
....................          if(RX_Buffer[4]==0x0b){//Selecciono Segundos 
09860:  MOVF   34,W
09862:  SUBLW  0B
09864:  BNZ   986A
....................             Segundos=ON; 
09866:  BSF    xD2.7
....................             Minutos=OFF; 
09868:  BCF    xD2.6
....................          }            
....................           
....................          if(RX_Buffer[4]==0x11 || LEFT){//Selecciono Regresar 
0986A:  MOVF   34,W
0986C:  SUBLW  11
0986E:  BZ    9876
09870:  BSF    F93.0
09872:  BTFSC  F81.0
09874:  BRA    9A00
....................             delay_ms(100); 
09876:  MOVLW  64
09878:  MOVLB  4
0987A:  MOVWF  x8D
0987C:  MOVLB  0
0987E:  CALL   1B28
....................             if(RX_Buffer[4]==0x11 || LEFT){ 
09882:  MOVF   34,W
09884:  SUBLW  11
09886:  BZ    988E
09888:  BSF    F93.0
0988A:  BTFSC  F81.0
0988C:  BRA    9A00
....................                Segundos=OFF; 
0988E:  BCF    xD2.7
....................                Minutos=OFF; 
09890:  BCF    xD2.6
....................                printf("page CicloPersona"); 
09892:  MOVLW  E8
09894:  MOVWF  FF6
09896:  MOVLW  0A
09898:  MOVWF  FF7
0989A:  MOVLW  00
0989C:  MOVWF  FF8
0989E:  CALL   390C
....................                SendDataDisplay();   
098A2:  CALL   393E
....................                PantallaPrincipal=1; 
098A6:  MOVLW  01
098A8:  MOVLB  3
098AA:  MOVWF  x0D
....................                Op=OFF; 
098AC:  MOVLB  0
098AE:  BCF    xD2.4
....................                Op2=OFF; 
098B0:  BCF    xD2.5
....................                if(!GuardaEEPROM){ 
098B2:  BTFSC  xD3.0
098B4:  BRA    9A00
....................                   CiclosPersonalizados[CicloLibre-1].Minutoest=Testerilizacionp[2]+(Testerilizacionp[3]*10); 
098B6:  MOVLW  01
098B8:  MOVLB  3
098BA:  SUBWF  x6F,W
098BC:  MULLW  0A
098BE:  MOVF   FF3,W
098C0:  MOVLB  4
098C2:  CLRF   x75
098C4:  MOVWF  x74
098C6:  MOVLW  09
098C8:  ADDWF  x74,W
098CA:  MOVWF  01
098CC:  MOVLW  00
098CE:  ADDWFC x75,W
098D0:  MOVWF  03
098D2:  MOVF   01,W
098D4:  ADDLW  4C
098D6:  MOVWF  FE9
098D8:  MOVLW  04
098DA:  ADDWFC 03,W
098DC:  MOVWF  FEA
098DE:  MOVFF  E9,476
098E2:  MOVLW  0A
098E4:  MOVWF  x77
098E6:  MOVLB  0
098E8:  CALL   2DC0
098EC:  MOVF   01,W
098EE:  ADDWF  xE8,W
098F0:  MOVWF  FEF
....................                   CiclosPersonalizados[CicloLibre-1].Segundoest=Testerilizacionp[0]+(Testerilizacionp[1]*10); 
098F2:  MOVLW  01
098F4:  MOVLB  3
098F6:  SUBWF  x6F,W
098F8:  MULLW  0A
098FA:  MOVF   FF3,W
098FC:  MOVLB  4
098FE:  CLRF   x75
09900:  MOVWF  x74
09902:  MOVLW  03
09904:  ADDWF  x74,W
09906:  MOVWF  01
09908:  MOVLW  00
0990A:  ADDWFC x75,W
0990C:  MOVWF  03
0990E:  MOVF   01,W
09910:  ADDLW  4C
09912:  MOVWF  FE9
09914:  MOVLW  04
09916:  ADDWFC 03,W
09918:  MOVWF  FEA
0991A:  MOVFF  E7,476
0991E:  MOVLW  0A
09920:  MOVWF  x77
09922:  MOVLB  0
09924:  CALL   2DC0
09928:  MOVF   01,W
0992A:  ADDWF  xE6,W
0992C:  MOVWF  FEF
....................                   write_eeprom(102+((CicloLibre-1)*8),Testerilizacionp[2]+(Testerilizacionp[3]*10)); 
0992E:  MOVLW  01
09930:  MOVLB  3
09932:  SUBWF  x6F,W
09934:  MULLW  08
09936:  MOVF   FF3,W
09938:  ADDLW  66
0993A:  MOVLB  4
0993C:  MOVWF  x74
0993E:  MOVFF  E9,476
09942:  MOVLW  0A
09944:  MOVWF  x77
09946:  MOVLB  0
09948:  CALL   2DC0
0994C:  MOVF   01,W
0994E:  ADDWF  xE8,W
09950:  MOVLB  4
09952:  MOVWF  x75
09954:  CLRF   FAA
09956:  MOVFF  474,FA9
0995A:  MOVFF  475,FA8
0995E:  BCF    FA6.6
09960:  BCF    FA6.7
09962:  BSF    FA6.2
09964:  MOVF   FF2,W
09966:  MOVWF  00
09968:  BCF    FF2.6
0996A:  BCF    FF2.7
0996C:  MOVLB  F
0996E:  MOVLW  55
09970:  MOVWF  FA7
09972:  MOVLW  AA
09974:  MOVWF  FA7
09976:  BSF    FA6.1
09978:  BTFSC  FA6.1
0997A:  BRA    9978
0997C:  BCF    FA6.2
0997E:  MOVF   00,W
09980:  IORWF  FF2,F
....................                   delay_ms(10); 
09982:  MOVLW  0A
09984:  MOVLB  4
09986:  MOVWF  x8D
09988:  MOVLB  0
0998A:  CALL   1B28
....................                   write_eeprom(103+((CicloLibre-1)*8),Testerilizacionp[0]+(Testerilizacionp[1]*10)); 
0998E:  MOVLW  01
09990:  MOVLB  3
09992:  SUBWF  x6F,W
09994:  MULLW  08
09996:  MOVF   FF3,W
09998:  ADDLW  67
0999A:  MOVLB  4
0999C:  MOVWF  x74
0999E:  MOVFF  E7,476
099A2:  MOVLW  0A
099A4:  MOVWF  x77
099A6:  MOVLB  0
099A8:  CALL   2DC0
099AC:  MOVF   01,W
099AE:  ADDWF  xE6,W
099B0:  MOVLB  4
099B2:  MOVWF  x75
099B4:  CLRF   FAA
099B6:  MOVFF  474,FA9
099BA:  MOVFF  475,FA8
099BE:  BCF    FA6.6
099C0:  BCF    FA6.7
099C2:  BSF    FA6.2
099C4:  MOVF   FF2,W
099C6:  MOVWF  00
099C8:  BCF    FF2.6
099CA:  BCF    FF2.7
099CC:  MOVLB  F
099CE:  MOVLW  55
099D0:  MOVWF  FA7
099D2:  MOVLW  AA
099D4:  MOVWF  FA7
099D6:  BSF    FA6.1
099D8:  BTFSC  FA6.1
099DA:  BRA    99D8
099DC:  BCF    FA6.2
099DE:  MOVF   00,W
099E0:  IORWF  FF2,F
....................                   delay_ms(10); 
099E2:  MOVLW  0A
099E4:  MOVLB  4
099E6:  MOVWF  x8D
099E8:  MOVLB  0
099EA:  CALL   1B28
....................                   Testerilizacion[0]=Testerilizacionp[0]; 
099EE:  MOVFF  E6,E1
....................                   Testerilizacion[1]=Testerilizacionp[1]; 
099F2:  MOVFF  E7,E2
....................                   Testerilizacion[2]=Testerilizacionp[2]; 
099F6:  MOVFF  E8,E3
....................                   Testerilizacion[3]=Testerilizacionp[3];                   
099FA:  MOVFF  E9,E4
....................                   GuardaEEPROM=ON; 
099FE:  BSF    xD3.0
....................                } 
....................             } 
....................          } 
....................           
....................          if(RIGHT){ 
09A00:  BSF    F93.1
09A02:  BTFSC  F81.1
09A04:  BRA    9A7A
....................             delay_ms(100); 
09A06:  MOVLW  64
09A08:  MOVLB  4
09A0A:  MOVWF  x8D
09A0C:  MOVLB  0
09A0E:  CALL   1B28
....................             if(RIGHT){ 
09A12:  BSF    F93.1
09A14:  BTFSC  F81.1
09A16:  BRA    9A7A
....................                if(!Segundos){ 
09A18:  BTFSC  xD2.7
09A1A:  BRA    9A4A
....................                   Segundos=ON; 
09A1C:  BSF    xD2.7
....................                   Minutos=OFF; 
09A1E:  BCF    xD2.6
....................                   printf("tsecest.pco=65535"); 
09A20:  MOVLW  FA
09A22:  MOVWF  FF6
09A24:  MOVLW  0A
09A26:  MOVWF  FF7
09A28:  MOVLW  00
09A2A:  MOVWF  FF8
09A2C:  CALL   390C
....................                   SendDataDisplay();   
09A30:  CALL   393E
....................                   printf("tminest.pco=0"); 
09A34:  MOVLW  0C
09A36:  MOVWF  FF6
09A38:  MOVLW  0B
09A3A:  MOVWF  FF7
09A3C:  MOVLW  00
09A3E:  MOVWF  FF8
09A40:  CALL   390C
....................                   SendDataDisplay();   
09A44:  CALL   393E
....................                }else if(!Minutos){ 
09A48:  BRA    9A7A
09A4A:  BTFSC  xD2.6
09A4C:  BRA    9A7A
....................                   Segundos=OFF; 
09A4E:  BCF    xD2.7
....................                   Minutos=ON; 
09A50:  BSF    xD2.6
....................                   printf("tsecest.pco=0"); 
09A52:  MOVLW  1A
09A54:  MOVWF  FF6
09A56:  MOVLW  0B
09A58:  MOVWF  FF7
09A5A:  MOVLW  00
09A5C:  MOVWF  FF8
09A5E:  CALL   390C
....................                   SendDataDisplay();   
09A62:  CALL   393E
....................                   printf("tminest.pco=65535"); 
09A66:  MOVLW  28
09A68:  MOVWF  FF6
09A6A:  MOVLW  0B
09A6C:  MOVWF  FF7
09A6E:  MOVLW  00
09A70:  MOVWF  FF8
09A72:  CALL   390C
....................                   SendDataDisplay();   
09A76:  CALL   393E
....................                } 
....................             } 
....................          } 
....................           
....................          if(UP){ 
09A7A:  BSF    F93.3
09A7C:  BTFSC  F81.3
09A7E:  BRA    9AC6
....................             delay_ms(100); 
09A80:  MOVLW  64
09A82:  MOVLB  4
09A84:  MOVWF  x8D
09A86:  MOVLB  0
09A88:  CALL   1B28
....................             if(UP){ 
09A8C:  BSF    F93.3
09A8E:  BTFSC  F81.3
09A90:  BRA    9AC6
....................                if(Segundos){ 
09A92:  BTFSS  xD2.7
09A94:  BRA    9AA6
....................                   Testerilizacionp[0]++; 
09A96:  INCF   xE6,F
....................                   if(Testerilizacionp[0]>9){ 
09A98:  BTFSC  xE6.7
09A9A:  BRA    9AA6
09A9C:  MOVF   xE6,W
09A9E:  SUBLW  09
09AA0:  BC    9AA6
....................                      Testerilizacionp[1]++; 
09AA2:  INCF   xE7,F
....................                      Testerilizacionp[0]=0; 
09AA4:  CLRF   xE6
....................                   } 
....................                } 
....................                if(Minutos){ 
09AA6:  BTFSS  xD2.6
09AA8:  BRA    9AC6
....................                   Testerilizacionp[2]++; 
09AAA:  INCF   xE8,F
....................                   if(Testerilizacionp[2]>9){ 
09AAC:  BTFSC  xE8.7
09AAE:  BRA    9ABA
09AB0:  MOVF   xE8,W
09AB2:  SUBLW  09
09AB4:  BC    9ABA
....................                      Testerilizacionp[3]++; 
09AB6:  INCF   xE9,F
....................                      Testerilizacionp[2]=0; 
09AB8:  CLRF   xE8
....................                   } 
....................                   if(Testerilizacionp[3]>9){                      
09ABA:  BTFSC  xE9.7
09ABC:  BRA    9AC6
09ABE:  MOVF   xE9,W
09AC0:  SUBLW  09
09AC2:  BC    9AC6
....................                      Testerilizacionp[3]=0; 
09AC4:  CLRF   xE9
....................                   } 
....................                }     
....................             } 
....................          } 
....................           
....................          if(DOWN){ 
09AC6:  BSF    F93.2
09AC8:  BTFSC  F81.2
09ACA:  BRA    9B0C
....................             delay_ms(100); 
09ACC:  MOVLW  64
09ACE:  MOVLB  4
09AD0:  MOVWF  x8D
09AD2:  MOVLB  0
09AD4:  CALL   1B28
....................             if(DOWN){ 
09AD8:  BSF    F93.2
09ADA:  BTFSC  F81.2
09ADC:  BRA    9B0C
....................                if(Segundos){ 
09ADE:  BTFSS  xD2.7
09AE0:  BRA    9AF0
....................                   Testerilizacionp[0]--; 
09AE2:  DECF   xE6,F
....................                   if(Testerilizacionp[0]<0){ 
09AE4:  BTFSC  xE6.7
09AE6:  BRA    9AEA
09AE8:  BRA    9AF0
....................                      Testerilizacionp[1]--; 
09AEA:  DECF   xE7,F
....................                      Testerilizacionp[0]=9; 
09AEC:  MOVLW  09
09AEE:  MOVWF  xE6
....................                   } 
....................                } 
....................                if(Minutos){ 
09AF0:  BTFSS  xD2.6
09AF2:  BRA    9B0C
....................                   Testerilizacionp[2]--; 
09AF4:  DECF   xE8,F
....................                   if(Testerilizacionp[2]<0){ 
09AF6:  BTFSC  xE8.7
09AF8:  BRA    9AFC
09AFA:  BRA    9B02
....................                      Testerilizacionp[3]--; 
09AFC:  DECF   xE9,F
....................                      Testerilizacionp[2]=9; 
09AFE:  MOVLW  09
09B00:  MOVWF  xE8
....................                   } 
....................                   if(Testerilizacionp[3]<0){ 
09B02:  BTFSC  xE9.7
09B04:  BRA    9B08
09B06:  BRA    9B0C
....................                      Testerilizacionp[3]=9; 
09B08:  MOVLW  09
09B0A:  MOVWF  xE9
....................                   } 
....................                }     
....................             } 
....................          } 
....................           
....................          if(RX_Buffer[4]==0x0c || RX_Buffer[4]==0x0d){//Tecla Derecha Oprimida 
09B0C:  MOVF   34,W
09B0E:  SUBLW  0C
09B10:  BZ    9B18
09B12:  MOVF   34,W
09B14:  SUBLW  0D
09B16:  BNZ   9B50
....................             if(Segundos){ 
09B18:  BTFSS  xD2.7
09B1A:  BRA    9B2C
....................                Testerilizacionp[0]++; 
09B1C:  INCF   xE6,F
....................                if(Testerilizacionp[0]>9){ 
09B1E:  BTFSC  xE6.7
09B20:  BRA    9B2C
09B22:  MOVF   xE6,W
09B24:  SUBLW  09
09B26:  BC    9B2C
....................                   Testerilizacionp[1]++; 
09B28:  INCF   xE7,F
....................                   Testerilizacionp[0]=0; 
09B2A:  CLRF   xE6
....................                } 
....................             } 
....................             if(Minutos){ 
09B2C:  BTFSS  xD2.6
09B2E:  BRA    9B4C
....................                Testerilizacionp[2]++; 
09B30:  INCF   xE8,F
....................                if(Testerilizacionp[2]>9){ 
09B32:  BTFSC  xE8.7
09B34:  BRA    9B40
09B36:  MOVF   xE8,W
09B38:  SUBLW  09
09B3A:  BC    9B40
....................                   Testerilizacionp[3]++; 
09B3C:  INCF   xE9,F
....................                   Testerilizacionp[2]=0; 
09B3E:  CLRF   xE8
....................                } 
....................                if(Testerilizacionp[3]>9){                   
09B40:  BTFSC  xE9.7
09B42:  BRA    9B4C
09B44:  MOVF   xE9,W
09B46:  SUBLW  09
09B48:  BC    9B4C
....................                   Testerilizacionp[3]=0; 
09B4A:  CLRF   xE9
....................                } 
....................             } 
....................             RX_Buffer[4]=0x00;   
09B4C:  CLRF   34
....................             RX_Buffer2[4]=0x00; 
09B4E:  CLRF   3F
....................          } 
....................           
....................          if(RX_Buffer[4]==0x0f || RX_Buffer[4]==0x0e){//Tecla Izquierda Oprimida 
09B50:  MOVF   34,W
09B52:  SUBLW  0F
09B54:  BZ    9B5C
09B56:  MOVF   34,W
09B58:  SUBLW  0E
09B5A:  BNZ   9B8E
....................              
....................             if(Segundos){ 
09B5C:  BTFSS  xD2.7
09B5E:  BRA    9B6E
....................                Testerilizacionp[0]--; 
09B60:  DECF   xE6,F
....................                if(Testerilizacionp[0]<0){ 
09B62:  BTFSC  xE6.7
09B64:  BRA    9B68
09B66:  BRA    9B6E
....................                   Testerilizacionp[1]--; 
09B68:  DECF   xE7,F
....................                   Testerilizacionp[0]=9; 
09B6A:  MOVLW  09
09B6C:  MOVWF  xE6
....................                } 
....................             } 
....................             if(Minutos){ 
09B6E:  BTFSS  xD2.6
09B70:  BRA    9B8A
....................                Testerilizacionp[2]--; 
09B72:  DECF   xE8,F
....................                if(Testerilizacionp[2]<0){ 
09B74:  BTFSC  xE8.7
09B76:  BRA    9B7A
09B78:  BRA    9B80
....................                   Testerilizacionp[3]--; 
09B7A:  DECF   xE9,F
....................                   Testerilizacionp[2]=9; 
09B7C:  MOVLW  09
09B7E:  MOVWF  xE8
....................                } 
....................                if(Testerilizacionp[3]<0){ 
09B80:  BTFSC  xE9.7
09B82:  BRA    9B86
09B84:  BRA    9B8A
....................                   Testerilizacionp[3]=9; 
09B86:  MOVLW  09
09B88:  MOVWF  xE9
....................                } 
....................             } 
....................             RX_Buffer[4]=0x00;   
09B8A:  CLRF   34
....................             RX_Buffer2[4]=0x00; 
09B8C:  CLRF   3F
....................          } 
....................           
....................          if(Testerilizacionp[0]<0) 
09B8E:  BTFSC  xE6.7
09B90:  BRA    9B94
09B92:  BRA    9B98
....................             Testerilizacionp[0]=9;             
09B94:  MOVLW  09
09B96:  MOVWF  xE6
....................          if(Testerilizacionp[1]<0) 
09B98:  BTFSC  xE7.7
09B9A:  BRA    9B9E
09B9C:  BRA    9BA2
....................             Testerilizacionp[1]=5;             
09B9E:  MOVLW  05
09BA0:  MOVWF  xE7
....................          if(Testerilizacionp[2]<0) 
09BA2:  BTFSC  xE8.7
09BA4:  BRA    9BA8
09BA6:  BRA    9BAC
....................             Testerilizacionp[2]=9;             
09BA8:  MOVLW  09
09BAA:  MOVWF  xE8
....................          if(Testerilizacionp[3]<0) 
09BAC:  BTFSC  xE9.7
09BAE:  BRA    9BB2
09BB0:  BRA    9BB6
....................             Testerilizacionp[3]=9;             
09BB2:  MOVLW  09
09BB4:  MOVWF  xE9
....................           
....................          if(Testerilizacionp[0]>9) 
09BB6:  BTFSC  xE6.7
09BB8:  BRA    9BC2
09BBA:  MOVF   xE6,W
09BBC:  SUBLW  09
09BBE:  BC    9BC2
....................             Testerilizacionp[0]=0;             
09BC0:  CLRF   xE6
....................          if(Testerilizacionp[1]>5) 
09BC2:  BTFSC  xE7.7
09BC4:  BRA    9BCE
09BC6:  MOVF   xE7,W
09BC8:  SUBLW  05
09BCA:  BC    9BCE
....................             Testerilizacionp[1]=0;             
09BCC:  CLRF   xE7
....................          if(Testerilizacionp[2]>9) 
09BCE:  BTFSC  xE8.7
09BD0:  BRA    9BDA
09BD2:  MOVF   xE8,W
09BD4:  SUBLW  09
09BD6:  BC    9BDA
....................             Testerilizacionp[2]=0;             
09BD8:  CLRF   xE8
....................          if(Testerilizacionp[3]>9) 
09BDA:  BTFSC  xE9.7
09BDC:  BRA    9BE6
09BDE:  MOVF   xE9,W
09BE0:  SUBLW  09
09BE2:  BC    9BE6
....................             Testerilizacionp[3]=0;  
09BE4:  CLRF   xE9
....................              
....................          printf("tminest.txt=\"%02u\"",((Testerilizacionp[3]*10)+Testerilizacionp[2])); 
09BE6:  MOVFF  E9,476
09BEA:  MOVLW  0A
09BEC:  MOVLB  4
09BEE:  MOVWF  x77
09BF0:  MOVLB  0
09BF2:  CALL   2DC0
09BF6:  MOVF   xE8,W
09BF8:  ADDWF  01,W
09BFA:  MOVLB  4
09BFC:  MOVWF  x74
09BFE:  MOVLW  3A
09C00:  MOVWF  FF6
09C02:  MOVLW  0B
09C04:  MOVWF  FF7
09C06:  MOVLW  00
09C08:  MOVWF  FF8
09C0A:  MOVLW  0D
09C0C:  MOVWF  x79
09C0E:  MOVLB  0
09C10:  CALL   4A36
09C14:  MOVFF  474,479
09C18:  MOVLW  01
09C1A:  MOVLB  4
09C1C:  MOVWF  x7A
09C1E:  MOVLB  0
09C20:  CALL   4A94
09C24:  MOVLW  22
09C26:  BTFSS  F9E.4
09C28:  BRA    9C26
09C2A:  MOVWF  FAD
....................          SendDataDisplay(); 
09C2C:  CALL   393E
....................          printf("tsecest.txt=\"%02u\"",((Testerilizacionp[1]*10)+Testerilizacionp[0])); 
09C30:  MOVFF  E7,476
09C34:  MOVLW  0A
09C36:  MOVLB  4
09C38:  MOVWF  x77
09C3A:  MOVLB  0
09C3C:  CALL   2DC0
09C40:  MOVF   xE6,W
09C42:  ADDWF  01,W
09C44:  MOVLB  4
09C46:  MOVWF  x74
09C48:  MOVLW  4E
09C4A:  MOVWF  FF6
09C4C:  MOVLW  0B
09C4E:  MOVWF  FF7
09C50:  MOVLW  00
09C52:  MOVWF  FF8
09C54:  MOVLW  0D
09C56:  MOVWF  x79
09C58:  MOVLB  0
09C5A:  CALL   4A36
09C5E:  MOVFF  474,479
09C62:  MOVLW  01
09C64:  MOVLB  4
09C66:  MOVWF  x7A
09C68:  MOVLB  0
09C6A:  CALL   4A94
09C6E:  MOVLW  22
09C70:  BTFSS  F9E.4
09C72:  BRA    9C70
09C74:  MOVWF  FAD
....................          SendDataDisplay(); 
09C76:  CALL   393E
09C7A:  MOVLB  3
....................     } 
.................... //_--------------------------------------------------------------------------------------------------------------------------------------------------------        
....................  
.................... //_-------------------------------------------------------------------------------------------------------------------------------------------------------- 
....................     if(Menu==3){ //Menu de Tiempo de Secado 
09C7C:  MOVF   x8F,W
09C7E:  SUBLW  03
09C80:  BTFSS  FD8.2
09C82:  BRA    A17E
....................       printf("fecha.txt=\"T:%3.1fC Fecha:%02u/%02u/20%02u Hora: %02u:%02u:%02u\"",Temperatura,Dia,Mes,Year,Hora,Minuto,Segundo); 
09C84:  MOVLW  62
09C86:  MOVWF  FF6
09C88:  MOVLW  0B
09C8A:  MOVWF  FF7
09C8C:  MOVLW  00
09C8E:  MOVWF  FF8
09C90:  MOVLW  0D
09C92:  MOVLB  4
09C94:  MOVWF  x79
09C96:  MOVLB  0
09C98:  CALL   4A36
09C9C:  MOVLW  02
09C9E:  MOVWF  FE9
09CA0:  MOVFF  35C,47C
09CA4:  MOVFF  35B,47B
09CA8:  MOVFF  35A,47A
09CAC:  MOVFF  359,479
09CB0:  MOVLW  01
09CB2:  MOVLB  4
09CB4:  MOVWF  x7D
09CB6:  MOVLB  0
09CB8:  CALL   4BD6
09CBC:  MOVLW  74
09CBE:  MOVWF  FF6
09CC0:  MOVLW  0B
09CC2:  MOVWF  FF7
09CC4:  MOVLW  00
09CC6:  MOVWF  FF8
09CC8:  MOVLW  09
09CCA:  MOVLB  4
09CCC:  MOVWF  x79
09CCE:  MOVLB  0
09CD0:  CALL   4A36
09CD4:  MOVFF  3D1,479
09CD8:  MOVLW  01
09CDA:  MOVLB  4
09CDC:  MOVWF  x7A
09CDE:  MOVLB  0
09CE0:  CALL   4A94
09CE4:  MOVLW  2F
09CE6:  BTFSS  F9E.4
09CE8:  BRA    9CE6
09CEA:  MOVWF  FAD
09CEC:  MOVFF  3D0,479
09CF0:  MOVLW  01
09CF2:  MOVLB  4
09CF4:  MOVWF  x7A
09CF6:  MOVLB  0
09CF8:  CALL   4A94
09CFC:  MOVLW  2F
09CFE:  BTFSS  F9E.4
09D00:  BRA    9CFE
09D02:  MOVWF  FAD
09D04:  MOVLW  32
09D06:  BTFSS  F9E.4
09D08:  BRA    9D06
09D0A:  MOVWF  FAD
09D0C:  MOVLW  30
09D0E:  BTFSS  F9E.4
09D10:  BRA    9D0E
09D12:  MOVWF  FAD
09D14:  MOVFF  3CF,479
09D18:  MOVLW  01
09D1A:  MOVLB  4
09D1C:  MOVWF  x7A
09D1E:  MOVLB  0
09D20:  CALL   4A94
09D24:  MOVLW  8D
09D26:  MOVWF  FF6
09D28:  MOVLW  0B
09D2A:  MOVWF  FF7
09D2C:  MOVLW  00
09D2E:  MOVWF  FF8
09D30:  MOVLW  07
09D32:  MOVLB  4
09D34:  MOVWF  x79
09D36:  MOVLB  0
09D38:  CALL   4A36
09D3C:  MOVFF  3D2,479
09D40:  MOVLW  01
09D42:  MOVLB  4
09D44:  MOVWF  x7A
09D46:  MOVLB  0
09D48:  CALL   4A94
09D4C:  MOVLW  3A
09D4E:  BTFSS  F9E.4
09D50:  BRA    9D4E
09D52:  MOVWF  FAD
09D54:  MOVFF  3D3,479
09D58:  MOVLW  01
09D5A:  MOVLB  4
09D5C:  MOVWF  x7A
09D5E:  MOVLB  0
09D60:  CALL   4A94
09D64:  MOVLW  3A
09D66:  BTFSS  F9E.4
09D68:  BRA    9D66
09D6A:  MOVWF  FAD
09D6C:  MOVFF  3D4,479
09D70:  MOVLW  01
09D72:  MOVLB  4
09D74:  MOVWF  x7A
09D76:  MOVLB  0
09D78:  CALL   4A94
09D7C:  MOVLW  22
09D7E:  BTFSS  F9E.4
09D80:  BRA    9D7E
09D82:  MOVWF  FAD
....................       SendDataDisplay();             
09D84:  CALL   393E
....................              
....................          if(RX_Buffer[4]==0x0a){//Selecciono Minutos 
09D88:  MOVF   34,W
09D8A:  SUBLW  0A
09D8C:  BNZ   9D92
....................             Minutos=ON; 
09D8E:  BSF    xD2.6
....................             Segundos=OFF; 
09D90:  BCF    xD2.7
....................          } 
....................           
....................          if(RX_Buffer[4]==0x0b){//Selecciono Segundos 
09D92:  MOVF   34,W
09D94:  SUBLW  0B
09D96:  BNZ   9D9C
....................             Segundos=ON; 
09D98:  BSF    xD2.7
....................             Minutos=OFF; 
09D9A:  BCF    xD2.6
....................          } 
....................           
....................          if(RX_Buffer[4]==0x11 || LEFT){//Selecciono Regresar 
09D9C:  MOVF   34,W
09D9E:  SUBLW  11
09DA0:  BZ    9DA8
09DA2:  BSF    F93.0
09DA4:  BTFSC  F81.0
09DA6:  BRA    9F12
....................             Segundos=OFF; 
09DA8:  BCF    xD2.7
....................             Minutos=OFF; 
09DAA:  BCF    xD2.6
....................             printf("page CicloPersona"); 
09DAC:  MOVLW  A4
09DAE:  MOVWF  FF6
09DB0:  MOVLW  0B
09DB2:  MOVWF  FF7
09DB4:  MOVLW  00
09DB6:  MOVWF  FF8
09DB8:  CALL   390C
....................             SendDataDisplay();   
09DBC:  CALL   393E
....................             //PantallaPrincipal=1; 
....................             Op=OFF; 
09DC0:  BCF    xD2.4
....................             Op2=OFF; 
09DC2:  BCF    xD2.5
....................             if(!GuardaEEPROM){ 
09DC4:  BTFSC  xD3.0
09DC6:  BRA    9F12
....................                CiclosPersonalizados[CicloLibre-1].Minutosec=Tsecadop[2]+(Tsecadop[3]*10); 
09DC8:  MOVLW  01
09DCA:  MOVLB  3
09DCC:  SUBWF  x6F,W
09DCE:  MULLW  0A
09DD0:  MOVF   FF3,W
09DD2:  MOVLB  4
09DD4:  CLRF   x75
09DD6:  MOVWF  x74
09DD8:  MOVLW  04
09DDA:  ADDWF  x74,W
09DDC:  MOVWF  01
09DDE:  MOVLW  00
09DE0:  ADDWFC x75,W
09DE2:  MOVWF  03
09DE4:  MOVF   01,W
09DE6:  ADDLW  4C
09DE8:  MOVWF  FE9
09DEA:  MOVLW  04
09DEC:  ADDWFC 03,W
09DEE:  MOVWF  FEA
09DF0:  MOVFF  F2,476
09DF4:  MOVLW  0A
09DF6:  MOVWF  x77
09DF8:  MOVLB  0
09DFA:  CALL   2DC0
09DFE:  MOVF   01,W
09E00:  ADDWF  xF1,W
09E02:  MOVWF  FEF
....................                CiclosPersonalizados[CicloLibre-1].Segundosec=Tsecadop[0]+(Tsecadop[1]*10); 
09E04:  MOVLW  01
09E06:  MOVLB  3
09E08:  SUBWF  x6F,W
09E0A:  MULLW  0A
09E0C:  MOVF   FF3,W
09E0E:  MOVLB  4
09E10:  CLRF   x75
09E12:  MOVWF  x74
09E14:  MOVLW  05
09E16:  ADDWF  x74,W
09E18:  MOVWF  01
09E1A:  MOVLW  00
09E1C:  ADDWFC x75,W
09E1E:  MOVWF  03
09E20:  MOVF   01,W
09E22:  ADDLW  4C
09E24:  MOVWF  FE9
09E26:  MOVLW  04
09E28:  ADDWFC 03,W
09E2A:  MOVWF  FEA
09E2C:  MOVFF  F0,476
09E30:  MOVLW  0A
09E32:  MOVWF  x77
09E34:  MOVLB  0
09E36:  CALL   2DC0
09E3A:  MOVF   01,W
09E3C:  ADDWF  xEF,W
09E3E:  MOVWF  FEF
....................                write_eeprom(104+((CicloLibre-1)*8),Tsecadop[2]+(Tsecadop[3]*10)); 
09E40:  MOVLW  01
09E42:  MOVLB  3
09E44:  SUBWF  x6F,W
09E46:  MULLW  08
09E48:  MOVF   FF3,W
09E4A:  ADDLW  68
09E4C:  MOVLB  4
09E4E:  MOVWF  x74
09E50:  MOVFF  F2,476
09E54:  MOVLW  0A
09E56:  MOVWF  x77
09E58:  MOVLB  0
09E5A:  CALL   2DC0
09E5E:  MOVF   01,W
09E60:  ADDWF  xF1,W
09E62:  MOVLB  4
09E64:  MOVWF  x75
09E66:  CLRF   FAA
09E68:  MOVFF  474,FA9
09E6C:  MOVFF  475,FA8
09E70:  BCF    FA6.6
09E72:  BCF    FA6.7
09E74:  BSF    FA6.2
09E76:  MOVF   FF2,W
09E78:  MOVWF  00
09E7A:  BCF    FF2.6
09E7C:  BCF    FF2.7
09E7E:  MOVLB  F
09E80:  MOVLW  55
09E82:  MOVWF  FA7
09E84:  MOVLW  AA
09E86:  MOVWF  FA7
09E88:  BSF    FA6.1
09E8A:  BTFSC  FA6.1
09E8C:  BRA    9E8A
09E8E:  BCF    FA6.2
09E90:  MOVF   00,W
09E92:  IORWF  FF2,F
....................                delay_ms(10); 
09E94:  MOVLW  0A
09E96:  MOVLB  4
09E98:  MOVWF  x8D
09E9A:  MOVLB  0
09E9C:  CALL   1B28
....................                write_eeprom(105+((CicloLibre-1)*8),Tsecadop[0]+(Tsecadop[1]*10)); 
09EA0:  MOVLW  01
09EA2:  MOVLB  3
09EA4:  SUBWF  x6F,W
09EA6:  MULLW  08
09EA8:  MOVF   FF3,W
09EAA:  ADDLW  69
09EAC:  MOVLB  4
09EAE:  MOVWF  x74
09EB0:  MOVFF  F0,476
09EB4:  MOVLW  0A
09EB6:  MOVWF  x77
09EB8:  MOVLB  0
09EBA:  CALL   2DC0
09EBE:  MOVF   01,W
09EC0:  ADDWF  xEF,W
09EC2:  MOVLB  4
09EC4:  MOVWF  x75
09EC6:  CLRF   FAA
09EC8:  MOVFF  474,FA9
09ECC:  MOVFF  475,FA8
09ED0:  BCF    FA6.6
09ED2:  BCF    FA6.7
09ED4:  BSF    FA6.2
09ED6:  MOVF   FF2,W
09ED8:  MOVWF  00
09EDA:  BCF    FF2.6
09EDC:  BCF    FF2.7
09EDE:  MOVLB  F
09EE0:  MOVLW  55
09EE2:  MOVWF  FA7
09EE4:  MOVLW  AA
09EE6:  MOVWF  FA7
09EE8:  BSF    FA6.1
09EEA:  BTFSC  FA6.1
09EEC:  BRA    9EEA
09EEE:  BCF    FA6.2
09EF0:  MOVF   00,W
09EF2:  IORWF  FF2,F
....................                delay_ms(10); 
09EF4:  MOVLW  0A
09EF6:  MOVLB  4
09EF8:  MOVWF  x8D
09EFA:  MOVLB  0
09EFC:  CALL   1B28
....................                Tsecado[0]=Tsecadop[0]; 
09F00:  MOVFF  EF,EB
....................                Tsecado[1]=Tsecadop[1]; 
09F04:  MOVFF  F0,EC
....................                Tsecado[2]=Tsecadop[2]; 
09F08:  MOVFF  F1,ED
....................                Tsecado[3]=Tsecadop[3]; 
09F0C:  MOVFF  F2,EE
....................                GuardaEEPROM=ON; 
09F10:  BSF    xD3.0
....................             } 
....................          } 
....................           
....................          if(RIGHT){ 
09F12:  BSF    F93.1
09F14:  BTFSC  F81.1
09F16:  BRA    9F8C
....................             delay_ms(100); 
09F18:  MOVLW  64
09F1A:  MOVLB  4
09F1C:  MOVWF  x8D
09F1E:  MOVLB  0
09F20:  CALL   1B28
....................             if(RIGHT){ 
09F24:  BSF    F93.1
09F26:  BTFSC  F81.1
09F28:  BRA    9F8C
....................                if(!Segundos){ 
09F2A:  BTFSC  xD2.7
09F2C:  BRA    9F5C
....................                   Segundos=ON; 
09F2E:  BSF    xD2.7
....................                   Minutos=OFF; 
09F30:  BCF    xD2.6
....................                   printf("tminsec.pco=0"); 
09F32:  MOVLW  B6
09F34:  MOVWF  FF6
09F36:  MOVLW  0B
09F38:  MOVWF  FF7
09F3A:  MOVLW  00
09F3C:  MOVWF  FF8
09F3E:  CALL   390C
....................                   SendDataDisplay();                    
09F42:  CALL   393E
....................                   printf("tsecsec.pco=65535"); 
09F46:  MOVLW  C4
09F48:  MOVWF  FF6
09F4A:  MOVLW  0B
09F4C:  MOVWF  FF7
09F4E:  MOVLW  00
09F50:  MOVWF  FF8
09F52:  CALL   390C
....................                   SendDataDisplay();   
09F56:  CALL   393E
....................                }else if(!Minutos){ 
09F5A:  BRA    9F8C
09F5C:  BTFSC  xD2.6
09F5E:  BRA    9F8C
....................                   Segundos=OFF; 
09F60:  BCF    xD2.7
....................                   Minutos=ON; 
09F62:  BSF    xD2.6
....................                   printf("tminsec.pco=65535"); 
09F64:  MOVLW  D6
09F66:  MOVWF  FF6
09F68:  MOVLW  0B
09F6A:  MOVWF  FF7
09F6C:  MOVLW  00
09F6E:  MOVWF  FF8
09F70:  CALL   390C
....................                   SendDataDisplay();   
09F74:  CALL   393E
....................                   printf("tsecsec.pco=0"); 
09F78:  MOVLW  E8
09F7A:  MOVWF  FF6
09F7C:  MOVLW  0B
09F7E:  MOVWF  FF7
09F80:  MOVLW  00
09F82:  MOVWF  FF8
09F84:  CALL   390C
....................                   SendDataDisplay();   
09F88:  CALL   393E
....................                } 
....................             } 
....................          } 
....................           
....................          if(UP){ 
09F8C:  BSF    F93.3
09F8E:  BTFSC  F81.3
09F90:  BRA    9FCC
....................             delay_ms(100); 
09F92:  MOVLW  64
09F94:  MOVLB  4
09F96:  MOVWF  x8D
09F98:  MOVLB  0
09F9A:  CALL   1B28
....................             if(UP){ 
09F9E:  BSF    F93.3
09FA0:  BTFSC  F81.3
09FA2:  BRA    9FCC
....................                if(Segundos){ 
09FA4:  BTFSS  xD2.7
09FA6:  BRA    9FB8
....................                   Tsecadop[0]++; 
09FA8:  INCF   xEF,F
....................                   if(Tsecadop[0]>9){ 
09FAA:  BTFSC  xEF.7
09FAC:  BRA    9FB8
09FAE:  MOVF   xEF,W
09FB0:  SUBLW  09
09FB2:  BC    9FB8
....................                      Tsecadop[1]++; 
09FB4:  INCF   xF0,F
....................                      Tsecadop[0]=0; 
09FB6:  CLRF   xEF
....................                   } 
....................                } 
....................                if(Minutos){ 
09FB8:  BTFSS  xD2.6
09FBA:  BRA    9FCC
....................                   Tsecado[2]++; 
09FBC:  INCF   xED,F
....................                   if(Tsecadop[2]>9){ 
09FBE:  BTFSC  xF1.7
09FC0:  BRA    9FCC
09FC2:  MOVF   xF1,W
09FC4:  SUBLW  09
09FC6:  BC    9FCC
....................                      Tsecadop[3]++; 
09FC8:  INCF   xF2,F
....................                      Tsecadop[2]=0; 
09FCA:  CLRF   xF1
....................                   } 
....................                }   
....................             } 
....................          } 
....................           
....................          if(DOWN){ 
09FCC:  BSF    F93.2
09FCE:  BTFSC  F81.2
09FD0:  BRA    A016
....................             delay_ms(100); 
09FD2:  MOVLW  64
09FD4:  MOVLB  4
09FD6:  MOVWF  x8D
09FD8:  MOVLB  0
09FDA:  CALL   1B28
....................             if(DOWN){ 
09FDE:  BSF    F93.2
09FE0:  BTFSC  F81.2
09FE2:  BRA    A016
....................                if(Segundos){ 
09FE4:  BTFSS  xD2.7
09FE6:  BRA    A004
....................                   Tsecadop[0]--; 
09FE8:  DECF   xEF,F
....................                   if(Tsecadop[0]<0){ 
09FEA:  BTFSC  xEF.7
09FEC:  BRA    9FF0
09FEE:  BRA    9FF6
....................                      Tsecadop[1]--; 
09FF0:  DECF   xF0,F
....................                      Tsecadop[0]=9; 
09FF2:  MOVLW  09
09FF4:  MOVWF  xEF
....................                   } 
....................                   if(Tsecadop[1]<0){ 
09FF6:  BTFSC  xF0.7
09FF8:  BRA    9FFC
09FFA:  BRA    A004
....................                      Tsecadop[1]=5; 
09FFC:  MOVLW  05
09FFE:  MOVWF  xF0
....................                      Tsecadop[0]=9; 
0A000:  MOVLW  09
0A002:  MOVWF  xEF
....................                   } 
....................                } 
....................                if(Minutos){ 
0A004:  BTFSS  xD2.6
0A006:  BRA    A016
....................                   Tsecadop[2]--; 
0A008:  DECF   xF1,F
....................                   if(Tsecadop[2]<0){ 
0A00A:  BTFSC  xF1.7
0A00C:  BRA    A010
0A00E:  BRA    A016
....................                      Tsecadop[3]--; 
0A010:  DECF   xF2,F
....................                      Tsecadop[2]=9; 
0A012:  MOVLW  09
0A014:  MOVWF  xF1
....................                   } 
....................                }   
....................             } 
....................          } 
....................           
....................          if(RX_Buffer[4]==0x0c || RX_Buffer[4]==0x0d){//Tecla Derecha Oprimida 
0A016:  MOVF   34,W
0A018:  SUBLW  0C
0A01A:  BZ    A022
0A01C:  MOVF   34,W
0A01E:  SUBLW  0D
0A020:  BNZ   A04E
....................             if(Segundos){ 
0A022:  BTFSS  xD2.7
0A024:  BRA    A036
....................                Tsecadop[0]++; 
0A026:  INCF   xEF,F
....................                if(Tsecadop[0]>9){ 
0A028:  BTFSC  xEF.7
0A02A:  BRA    A036
0A02C:  MOVF   xEF,W
0A02E:  SUBLW  09
0A030:  BC    A036
....................                   Tsecadop[1]++; 
0A032:  INCF   xF0,F
....................                   Tsecadop[0]=0; 
0A034:  CLRF   xEF
....................                } 
....................             } 
....................             if(Minutos){ 
0A036:  BTFSS  xD2.6
0A038:  BRA    A04A
....................                Tsecadop[2]++; 
0A03A:  INCF   xF1,F
....................                if(Tsecadop[2]>9){ 
0A03C:  BTFSC  xF1.7
0A03E:  BRA    A04A
0A040:  MOVF   xF1,W
0A042:  SUBLW  09
0A044:  BC    A04A
....................                   Tsecadop[3]++; 
0A046:  INCF   xF2,F
....................                   Tsecadop[2]=0; 
0A048:  CLRF   xF1
....................                } 
....................             } 
....................             RX_Buffer[4]=0x00;   
0A04A:  CLRF   34
....................             RX_Buffer2[4]=0x00;  
0A04C:  CLRF   3F
....................          } 
....................           
....................          if(RX_Buffer[4]==0x0f || RX_Buffer[4]==0x0e){//Tecla Izquierda Oprimida 
0A04E:  MOVF   34,W
0A050:  SUBLW  0F
0A052:  BZ    A05A
0A054:  MOVF   34,W
0A056:  SUBLW  0E
0A058:  BNZ   A090
....................             if(Segundos){ 
0A05A:  BTFSS  xD2.7
0A05C:  BRA    A07A
....................                Tsecadop[0]--; 
0A05E:  DECF   xEF,F
....................                if(Tsecadop[0]<0){ 
0A060:  BTFSC  xEF.7
0A062:  BRA    A066
0A064:  BRA    A06C
....................                   Tsecadop[1]--; 
0A066:  DECF   xF0,F
....................                   Tsecadop[0]=9; 
0A068:  MOVLW  09
0A06A:  MOVWF  xEF
....................                } 
....................                if(Tsecadop[1]<0){ 
0A06C:  BTFSC  xF0.7
0A06E:  BRA    A072
0A070:  BRA    A07A
....................                   Tsecadop[1]=5; 
0A072:  MOVLW  05
0A074:  MOVWF  xF0
....................                   Tsecadop[0]=9; 
0A076:  MOVLW  09
0A078:  MOVWF  xEF
....................                } 
....................             } 
....................             if(Minutos){ 
0A07A:  BTFSS  xD2.6
0A07C:  BRA    A08C
....................                Tsecadop[2]--; 
0A07E:  DECF   xF1,F
....................                if(Tsecadop[2]<0){ 
0A080:  BTFSC  xF1.7
0A082:  BRA    A086
0A084:  BRA    A08C
....................                   Tsecadop[3]--; 
0A086:  DECF   xF2,F
....................                   Tsecadop[2]=9; 
0A088:  MOVLW  09
0A08A:  MOVWF  xF1
....................                } 
....................             } 
....................             RX_Buffer[4]=0x00;   
0A08C:  CLRF   34
....................             RX_Buffer2[4]=0x00;             
0A08E:  CLRF   3F
....................          } 
....................        
....................          if(Tsecadop[0]<0) 
0A090:  BTFSC  xEF.7
0A092:  BRA    A096
0A094:  BRA    A09A
....................             Tsecadop[0]=9;             
0A096:  MOVLW  09
0A098:  MOVWF  xEF
....................          if(Tsecadop[1]<0) 
0A09A:  BTFSC  xF0.7
0A09C:  BRA    A0A0
0A09E:  BRA    A0A4
....................             Tsecadop[1]=5;             
0A0A0:  MOVLW  05
0A0A2:  MOVWF  xF0
....................          if(Tsecadop[2]<0) 
0A0A4:  BTFSC  xF1.7
0A0A6:  BRA    A0AA
0A0A8:  BRA    A0AE
....................             Tsecadop[2]=9;             
0A0AA:  MOVLW  09
0A0AC:  MOVWF  xF1
....................          if(Tsecadop[3]<0) 
0A0AE:  BTFSC  xF2.7
0A0B0:  BRA    A0B4
0A0B2:  BRA    A0B8
....................             Tsecadop[3]=9;             
0A0B4:  MOVLW  09
0A0B6:  MOVWF  xF2
....................           
....................          if(Tsecadop[0]>9) 
0A0B8:  BTFSC  xEF.7
0A0BA:  BRA    A0C4
0A0BC:  MOVF   xEF,W
0A0BE:  SUBLW  09
0A0C0:  BC    A0C4
....................             Tsecadop[0]=0;             
0A0C2:  CLRF   xEF
....................          if(Tsecadop[1]>5) 
0A0C4:  BTFSC  xF0.7
0A0C6:  BRA    A0D0
0A0C8:  MOVF   xF0,W
0A0CA:  SUBLW  05
0A0CC:  BC    A0D0
....................             Tsecadop[1]=0;             
0A0CE:  CLRF   xF0
....................          if(Tsecadop[2]>9) 
0A0D0:  BTFSC  xF1.7
0A0D2:  BRA    A0DC
0A0D4:  MOVF   xF1,W
0A0D6:  SUBLW  09
0A0D8:  BC    A0DC
....................             Tsecadop[2]=0;             
0A0DA:  CLRF   xF1
....................          if(Tsecadop[3]>9) 
0A0DC:  BTFSC  xF2.7
0A0DE:  BRA    A0E8
0A0E0:  MOVF   xF2,W
0A0E2:  SUBLW  09
0A0E4:  BC    A0E8
....................             Tsecadop[3]=0; 
0A0E6:  CLRF   xF2
....................              
....................       printf("tminsec.txt=\"%02u\"",((Tsecadop[3]*10)+Tsecadop[2])); 
0A0E8:  MOVFF  F2,476
0A0EC:  MOVLW  0A
0A0EE:  MOVLB  4
0A0F0:  MOVWF  x77
0A0F2:  MOVLB  0
0A0F4:  CALL   2DC0
0A0F8:  MOVF   xF1,W
0A0FA:  ADDWF  01,W
0A0FC:  MOVLB  4
0A0FE:  MOVWF  x74
0A100:  MOVLW  F6
0A102:  MOVWF  FF6
0A104:  MOVLW  0B
0A106:  MOVWF  FF7
0A108:  MOVLW  00
0A10A:  MOVWF  FF8
0A10C:  MOVLW  0D
0A10E:  MOVWF  x79
0A110:  MOVLB  0
0A112:  CALL   4A36
0A116:  MOVFF  474,479
0A11A:  MOVLW  01
0A11C:  MOVLB  4
0A11E:  MOVWF  x7A
0A120:  MOVLB  0
0A122:  CALL   4A94
0A126:  MOVLW  22
0A128:  BTFSS  F9E.4
0A12A:  BRA    A128
0A12C:  MOVWF  FAD
....................       SendDataDisplay(); 
0A12E:  CALL   393E
....................       printf("tsecsec.txt=\"%02u\"",((Tsecadop[1]*10)+Tsecadop[0])); 
0A132:  MOVFF  F0,476
0A136:  MOVLW  0A
0A138:  MOVLB  4
0A13A:  MOVWF  x77
0A13C:  MOVLB  0
0A13E:  CALL   2DC0
0A142:  MOVF   xEF,W
0A144:  ADDWF  01,W
0A146:  MOVLB  4
0A148:  MOVWF  x74
0A14A:  MOVLW  0A
0A14C:  MOVWF  FF6
0A14E:  MOVLW  0C
0A150:  MOVWF  FF7
0A152:  MOVLW  00
0A154:  MOVWF  FF8
0A156:  MOVLW  0D
0A158:  MOVWF  x79
0A15A:  MOVLB  0
0A15C:  CALL   4A36
0A160:  MOVFF  474,479
0A164:  MOVLW  01
0A166:  MOVLB  4
0A168:  MOVWF  x7A
0A16A:  MOVLB  0
0A16C:  CALL   4A94
0A170:  MOVLW  22
0A172:  BTFSS  F9E.4
0A174:  BRA    A172
0A176:  MOVWF  FAD
....................       SendDataDisplay(); 
0A178:  CALL   393E
0A17C:  MOVLB  3
....................     } 
.................... //_--------------------------------------------------------------------------------------------------------------------------------------------------------        
....................  
.................... //_-------------------------------------------------------------------------------------------------------------------------------------------------------- 
....................     if(Menu==4){ //Menu de Temperatura 
0A17E:  MOVF   x8F,W
0A180:  SUBLW  04
0A182:  BTFSS  FD8.2
0A184:  BRA    A386
....................       printf("fecha.txt=\"Fecha:%02u/%02u/20%02u    Hora: %02u:%02u\"",Dia,Mes,Year,Hora,Minuto); 
0A186:  MOVLW  1E
0A188:  MOVWF  FF6
0A18A:  MOVLW  0C
0A18C:  MOVWF  FF7
0A18E:  MOVLW  00
0A190:  MOVWF  FF8
0A192:  MOVLW  11
0A194:  MOVLB  4
0A196:  MOVWF  x79
0A198:  MOVLB  0
0A19A:  CALL   4A36
0A19E:  MOVFF  3D1,479
0A1A2:  MOVLW  01
0A1A4:  MOVLB  4
0A1A6:  MOVWF  x7A
0A1A8:  MOVLB  0
0A1AA:  CALL   4A94
0A1AE:  MOVLW  2F
0A1B0:  BTFSS  F9E.4
0A1B2:  BRA    A1B0
0A1B4:  MOVWF  FAD
0A1B6:  MOVFF  3D0,479
0A1BA:  MOVLW  01
0A1BC:  MOVLB  4
0A1BE:  MOVWF  x7A
0A1C0:  MOVLB  0
0A1C2:  CALL   4A94
0A1C6:  MOVLW  2F
0A1C8:  BTFSS  F9E.4
0A1CA:  BRA    A1C8
0A1CC:  MOVWF  FAD
0A1CE:  MOVLW  32
0A1D0:  BTFSS  F9E.4
0A1D2:  BRA    A1D0
0A1D4:  MOVWF  FAD
0A1D6:  MOVLW  30
0A1D8:  BTFSS  F9E.4
0A1DA:  BRA    A1D8
0A1DC:  MOVWF  FAD
0A1DE:  MOVFF  3CF,479
0A1E2:  MOVLW  01
0A1E4:  MOVLB  4
0A1E6:  MOVWF  x7A
0A1E8:  MOVLB  0
0A1EA:  CALL   4A94
0A1EE:  MOVLW  3F
0A1F0:  MOVWF  FF6
0A1F2:  MOVLW  0C
0A1F4:  MOVWF  FF7
0A1F6:  MOVLW  00
0A1F8:  MOVWF  FF8
0A1FA:  MOVLW  0A
0A1FC:  MOVLB  4
0A1FE:  MOVWF  x79
0A200:  MOVLB  0
0A202:  CALL   4A36
0A206:  MOVFF  3D2,479
0A20A:  MOVLW  01
0A20C:  MOVLB  4
0A20E:  MOVWF  x7A
0A210:  MOVLB  0
0A212:  CALL   4A94
0A216:  MOVLW  3A
0A218:  BTFSS  F9E.4
0A21A:  BRA    A218
0A21C:  MOVWF  FAD
0A21E:  MOVFF  3D3,479
0A222:  MOVLW  01
0A224:  MOVLB  4
0A226:  MOVWF  x7A
0A228:  MOVLB  0
0A22A:  CALL   4A94
0A22E:  MOVLW  22
0A230:  BTFSS  F9E.4
0A232:  BRA    A230
0A234:  MOVWF  FAD
....................       SendDataDisplay(); 
0A236:  CALL   393E
....................          if(Setpoint<Tmin) 
0A23A:  MOVLB  3
0A23C:  MOVF   x96,W
0A23E:  SUBLW  68
0A240:  BNC   A246
....................             Setpoint=Tmax; 
0A242:  MOVLW  80
0A244:  MOVWF  x96
....................          if(Setpoint>Tmax) 
0A246:  MOVF   x96,W
0A248:  SUBLW  80
0A24A:  BC    A250
....................             Setpoint=Tmin; 
0A24C:  MOVLW  69
0A24E:  MOVWF  x96
....................           
....................          if(RX_Buffer[4]==0x11 || LEFT){//Selecciono Regresar 
0A250:  MOVF   34,W
0A252:  SUBLW  11
0A254:  BZ    A25C
0A256:  BSF    F93.0
0A258:  BTFSC  F81.0
0A25A:  BRA    A2F4
....................             Segundos=OFF; 
0A25C:  MOVLB  0
0A25E:  BCF    xD2.7
....................             Minutos=OFF; 
0A260:  BCF    xD2.6
....................             printf("page CicloPersona"); 
0A262:  MOVLW  54
0A264:  MOVWF  FF6
0A266:  MOVLW  0C
0A268:  MOVWF  FF7
0A26A:  MOVLW  00
0A26C:  MOVWF  FF8
0A26E:  CALL   390C
....................             SendDataDisplay();   
0A272:  CALL   393E
....................             PantallaPrincipal=1; 
0A276:  MOVLW  01
0A278:  MOVLB  3
0A27A:  MOVWF  x0D
....................             Op=OFF; 
0A27C:  MOVLB  0
0A27E:  BCF    xD2.4
....................             Op2=OFF; 
0A280:  BCF    xD2.5
....................             if(!GuardaEEPROM){ 
0A282:  BTFSC  xD3.0
0A284:  BRA    A2F2
....................                CiclosPersonalizados[CicloLibre-1].Temperatura=Setpoint; 
0A286:  MOVLW  01
0A288:  MOVLB  3
0A28A:  SUBWF  x6F,W
0A28C:  MULLW  0A
0A28E:  MOVF   FF3,W
0A290:  MOVLB  4
0A292:  CLRF   x75
0A294:  MOVWF  x74
0A296:  MOVLW  4C
0A298:  ADDWF  x74,W
0A29A:  MOVWF  FE9
0A29C:  MOVLW  04
0A29E:  ADDWFC x75,W
0A2A0:  MOVWF  FEA
0A2A2:  MOVFF  396,FEF
....................                write_eeprom(100+((CicloLibre-1)*8),Setpoint); 
0A2A6:  MOVLW  01
0A2A8:  MOVLB  3
0A2AA:  SUBWF  x6F,W
0A2AC:  MULLW  08
0A2AE:  MOVF   FF3,W
0A2B0:  ADDLW  64
0A2B2:  MOVLB  4
0A2B4:  MOVWF  x74
0A2B6:  CLRF   FAA
0A2B8:  MOVFF  474,FA9
0A2BC:  MOVFF  396,FA8
0A2C0:  BCF    FA6.6
0A2C2:  BCF    FA6.7
0A2C4:  BSF    FA6.2
0A2C6:  MOVF   FF2,W
0A2C8:  MOVWF  00
0A2CA:  BCF    FF2.6
0A2CC:  BCF    FF2.7
0A2CE:  MOVLB  F
0A2D0:  MOVLW  55
0A2D2:  MOVWF  FA7
0A2D4:  MOVLW  AA
0A2D6:  MOVWF  FA7
0A2D8:  BSF    FA6.1
0A2DA:  BTFSC  FA6.1
0A2DC:  BRA    A2DA
0A2DE:  BCF    FA6.2
0A2E0:  MOVF   00,W
0A2E2:  IORWF  FF2,F
....................                delay_ms(10); 
0A2E4:  MOVLW  0A
0A2E6:  MOVLB  4
0A2E8:  MOVWF  x8D
0A2EA:  MOVLB  0
0A2EC:  CALL   1B28
....................                GuardaEEPROM=ON; 
0A2F0:  BSF    xD3.0
0A2F2:  MOVLB  3
....................             } 
....................          } 
....................           
....................          if(UP){ 
0A2F4:  BSF    F93.3
0A2F6:  BTFSC  F81.3
0A2F8:  BRA    A310
....................             delay_ms(100); 
0A2FA:  MOVLW  64
0A2FC:  MOVLB  4
0A2FE:  MOVWF  x8D
0A300:  MOVLB  0
0A302:  CALL   1B28
....................             if(UP){ 
0A306:  BSF    F93.3
0A308:  BTFSC  F81.3
0A30A:  BRA    A312
....................                Setpoint++; 
0A30C:  MOVLB  3
0A30E:  INCF   x96,F
0A310:  MOVLB  0
....................             } 
....................          } 
....................           
....................          if(DOWN){ 
0A312:  BSF    F93.2
0A314:  BTFSC  F81.2
0A316:  BRA    A330
....................             delay_ms(100); 
0A318:  MOVLW  64
0A31A:  MOVLB  4
0A31C:  MOVWF  x8D
0A31E:  MOVLB  0
0A320:  CALL   1B28
....................             if(DOWN){ 
0A324:  BSF    F93.2
0A326:  BTFSC  F81.2
0A328:  BRA    A330
....................                Setpoint--; 
0A32A:  MOVLB  3
0A32C:  DECF   x96,F
0A32E:  MOVLB  0
....................             } 
....................          } 
....................           
....................          if(RX_Buffer[4]==0x0d){//Tecla Arriba Oprimida 
0A330:  MOVF   34,W
0A332:  SUBLW  0D
0A334:  BNZ   A340
....................             Setpoint++; 
0A336:  MOVLB  3
0A338:  INCF   x96,F
....................             RX_Buffer[4]=0x00;   
0A33A:  CLRF   34
....................             RX_Buffer2[4]=0x00;             
0A33C:  CLRF   3F
0A33E:  MOVLB  0
....................             //BorraBuffer(); 
....................          } 
....................           
....................          if(RX_Buffer[4]==0x0c){//Tecla Abajo Oprimida 
0A340:  MOVF   34,W
0A342:  SUBLW  0C
0A344:  BNZ   A350
....................             Setpoint--; 
0A346:  MOVLB  3
0A348:  DECF   x96,F
....................             RX_Buffer[4]=0x00; 
0A34A:  CLRF   34
....................             RX_Buffer2[4]=0x00;             
0A34C:  CLRF   3F
0A34E:  MOVLB  0
....................             //BorraBuffer(); 
....................          } 
....................           
....................       printf("tsettem.txt=\"%03u\"",Setpoint); 
0A350:  MOVLW  66
0A352:  MOVWF  FF6
0A354:  MOVLW  0C
0A356:  MOVWF  FF7
0A358:  MOVLW  00
0A35A:  MOVWF  FF8
0A35C:  MOVLW  0D
0A35E:  MOVLB  4
0A360:  MOVWF  x79
0A362:  MOVLB  0
0A364:  CALL   4A36
0A368:  MOVFF  396,479
0A36C:  MOVLW  03
0A36E:  MOVLB  4
0A370:  MOVWF  x7A
0A372:  MOVLB  0
0A374:  CALL   4A94
0A378:  MOVLW  22
0A37A:  BTFSS  F9E.4
0A37C:  BRA    A37A
0A37E:  MOVWF  FAD
....................       SendDataDisplay(); 
0A380:  CALL   393E
0A384:  MOVLB  3
....................     } 
.................... //_--------------------------------------------------------------------------------------------------------------------------------------------------------        
....................  
.................... //_--------------------------------------------------------------------------------------------------------------------------------------------------------       
....................    if(Menu==5){//Menu de Nivel 
0A386:  MOVF   x8F,W
0A388:  SUBLW  05
0A38A:  BTFSS  FD8.2
0A38C:  BRA    A65A
....................       printf("fecha.txt=\"T:%3.1fC Fecha:%02u/%02u/20%02u Hora: %02u:%02u:%02u\"",Temperatura,Dia,Mes,Year,Hora,Minuto,Segundo); 
0A38E:  MOVLW  7A
0A390:  MOVWF  FF6
0A392:  MOVLW  0C
0A394:  MOVWF  FF7
0A396:  MOVLW  00
0A398:  MOVWF  FF8
0A39A:  MOVLW  0D
0A39C:  MOVLB  4
0A39E:  MOVWF  x79
0A3A0:  MOVLB  0
0A3A2:  CALL   4A36
0A3A6:  MOVLW  02
0A3A8:  MOVWF  FE9
0A3AA:  MOVFF  35C,47C
0A3AE:  MOVFF  35B,47B
0A3B2:  MOVFF  35A,47A
0A3B6:  MOVFF  359,479
0A3BA:  MOVLW  01
0A3BC:  MOVLB  4
0A3BE:  MOVWF  x7D
0A3C0:  MOVLB  0
0A3C2:  CALL   4BD6
0A3C6:  MOVLW  8C
0A3C8:  MOVWF  FF6
0A3CA:  MOVLW  0C
0A3CC:  MOVWF  FF7
0A3CE:  MOVLW  00
0A3D0:  MOVWF  FF8
0A3D2:  MOVLW  09
0A3D4:  MOVLB  4
0A3D6:  MOVWF  x79
0A3D8:  MOVLB  0
0A3DA:  CALL   4A36
0A3DE:  MOVFF  3D1,479
0A3E2:  MOVLW  01
0A3E4:  MOVLB  4
0A3E6:  MOVWF  x7A
0A3E8:  MOVLB  0
0A3EA:  CALL   4A94
0A3EE:  MOVLW  2F
0A3F0:  BTFSS  F9E.4
0A3F2:  BRA    A3F0
0A3F4:  MOVWF  FAD
0A3F6:  MOVFF  3D0,479
0A3FA:  MOVLW  01
0A3FC:  MOVLB  4
0A3FE:  MOVWF  x7A
0A400:  MOVLB  0
0A402:  CALL   4A94
0A406:  MOVLW  2F
0A408:  BTFSS  F9E.4
0A40A:  BRA    A408
0A40C:  MOVWF  FAD
0A40E:  MOVLW  32
0A410:  BTFSS  F9E.4
0A412:  BRA    A410
0A414:  MOVWF  FAD
0A416:  MOVLW  30
0A418:  BTFSS  F9E.4
0A41A:  BRA    A418
0A41C:  MOVWF  FAD
0A41E:  MOVFF  3CF,479
0A422:  MOVLW  01
0A424:  MOVLB  4
0A426:  MOVWF  x7A
0A428:  MOVLB  0
0A42A:  CALL   4A94
0A42E:  MOVLW  A5
0A430:  MOVWF  FF6
0A432:  MOVLW  0C
0A434:  MOVWF  FF7
0A436:  MOVLW  00
0A438:  MOVWF  FF8
0A43A:  MOVLW  07
0A43C:  MOVLB  4
0A43E:  MOVWF  x79
0A440:  MOVLB  0
0A442:  CALL   4A36
0A446:  MOVFF  3D2,479
0A44A:  MOVLW  01
0A44C:  MOVLB  4
0A44E:  MOVWF  x7A
0A450:  MOVLB  0
0A452:  CALL   4A94
0A456:  MOVLW  3A
0A458:  BTFSS  F9E.4
0A45A:  BRA    A458
0A45C:  MOVWF  FAD
0A45E:  MOVFF  3D3,479
0A462:  MOVLW  01
0A464:  MOVLB  4
0A466:  MOVWF  x7A
0A468:  MOVLB  0
0A46A:  CALL   4A94
0A46E:  MOVLW  3A
0A470:  BTFSS  F9E.4
0A472:  BRA    A470
0A474:  MOVWF  FAD
0A476:  MOVFF  3D4,479
0A47A:  MOVLW  01
0A47C:  MOVLB  4
0A47E:  MOVWF  x7A
0A480:  MOVLB  0
0A482:  CALL   4A94
0A486:  MOVLW  22
0A488:  BTFSS  F9E.4
0A48A:  BRA    A488
0A48C:  MOVWF  FAD
....................       SendDataDisplay(); 
0A48E:  CALL   393E
....................          if(Nivel<1) 
0A492:  MOVLB  3
0A494:  MOVF   xA4,F
0A496:  BNZ   A4A2
0A498:  MOVF   xA5,F
0A49A:  BNZ   A4A2
....................             Nivel=6; 
0A49C:  CLRF   xA5
0A49E:  MOVLW  06
0A4A0:  MOVWF  xA4
....................          if(Nivel>6) 
0A4A2:  MOVF   xA5,F
0A4A4:  BNZ   A4AC
0A4A6:  MOVF   xA4,W
0A4A8:  SUBLW  06
0A4AA:  BC    A4B2
....................             Nivel=1; 
0A4AC:  CLRF   xA5
0A4AE:  MOVLW  01
0A4B0:  MOVWF  xA4
....................           
....................          if(RX_Buffer[4]==0x11 || LEFT){//Selecciono Regresar 
0A4B2:  MOVF   34,W
0A4B4:  SUBLW  11
0A4B6:  BZ    A4BE
0A4B8:  BSF    F93.0
0A4BA:  BTFSC  F81.0
0A4BC:  BRA    A5B4
....................             Segundos=OFF; 
0A4BE:  MOVLB  0
0A4C0:  BCF    xD2.7
....................             Minutos=OFF;             
0A4C2:  BCF    xD2.6
....................             tiempo_secado=0; 
0A4C4:  MOVLB  3
0A4C6:  CLRF   x9A
....................              
....................             if(!GuardaEEPROM){     
0A4C8:  MOVLB  0
0A4CA:  BTFSC  xD3.0
0A4CC:  BRA    A566
....................                CiclosPersonalizados[CicloLibre-1].NivelDesfogue=Nivel; 
0A4CE:  MOVLW  01
0A4D0:  MOVLB  3
0A4D2:  SUBWF  x6F,W
0A4D4:  MULLW  0A
0A4D6:  MOVF   FF3,W
0A4D8:  MOVLB  4
0A4DA:  CLRF   x75
0A4DC:  MOVWF  x74
0A4DE:  MOVLW  08
0A4E0:  ADDWF  x74,W
0A4E2:  MOVWF  01
0A4E4:  MOVLW  00
0A4E6:  ADDWFC x75,W
0A4E8:  MOVWF  03
0A4EA:  MOVF   01,W
0A4EC:  ADDLW  4C
0A4EE:  MOVWF  FE9
0A4F0:  MOVLW  04
0A4F2:  ADDWFC 03,W
0A4F4:  MOVWF  FEA
0A4F6:  MOVFF  3A4,FEF
....................                write_eeprom(107+((CicloLibre-1)*8),Nivel); 
0A4FA:  MOVLW  01
0A4FC:  MOVLB  3
0A4FE:  SUBWF  x6F,W
0A500:  MULLW  08
0A502:  MOVF   FF3,W
0A504:  ADDLW  6B
0A506:  MOVLB  4
0A508:  MOVWF  x74
0A50A:  CLRF   FAA
0A50C:  MOVFF  474,FA9
0A510:  MOVFF  3A4,FA8
0A514:  BCF    FA6.6
0A516:  BCF    FA6.7
0A518:  BSF    FA6.2
0A51A:  MOVF   FF2,W
0A51C:  MOVWF  00
0A51E:  BCF    FF2.6
0A520:  BCF    FF2.7
0A522:  MOVLB  F
0A524:  MOVLW  55
0A526:  MOVWF  FA7
0A528:  MOVLW  AA
0A52A:  MOVWF  FA7
0A52C:  BSF    FA6.1
0A52E:  BTFSC  FA6.1
0A530:  BRA    A52E
0A532:  BCF    FA6.2
0A534:  MOVF   00,W
0A536:  IORWF  FF2,F
....................                delay_ms(20);             
0A538:  MOVLW  14
0A53A:  MOVLB  4
0A53C:  MOVWF  x8D
0A53E:  MOVLB  0
0A540:  CALL   1B28
....................                NivelSeleccionado=4995*Nivel; 
0A544:  MOVLW  13
0A546:  MOVLB  4
0A548:  MOVWF  x90
0A54A:  MOVLW  83
0A54C:  MOVWF  x8F
0A54E:  MOVFF  3A5,492
0A552:  MOVFF  3A4,491
0A556:  MOVLB  0
0A558:  CALL   39EA
0A55C:  MOVFF  02,3AF
0A560:  MOVFF  01,3AE
....................                GuardaEEPROM=ON; 
0A564:  BSF    xD3.0
....................             } 
....................              
....................             if(Nivel<6) 
0A566:  MOVLB  3
0A568:  MOVF   xA5,F
0A56A:  BNZ   A576
0A56C:  MOVF   xA4,W
0A56E:  SUBLW  05
0A570:  BNC   A576
....................                desfoguelento=1; 
0A572:  BSF    x84.0
....................             else             
0A574:  BRA    A578
....................                desfoguelento=0; 
0A576:  BCF    x84.0
....................  
....................             if(MenuAnt==1){ 
0A578:  DECFSZ x90,W
0A57A:  BRA    A596
....................                //Buzzer_on; 
....................                printf("page CicloPersona"); 
0A57C:  MOVLW  BC
0A57E:  MOVWF  FF6
0A580:  MOVLW  0C
0A582:  MOVWF  FF7
0A584:  MOVLW  00
0A586:  MOVWF  FF8
0A588:  MOVLB  0
0A58A:  CALL   390C
....................                SendDataDisplay();  
0A58E:  CALL   393E
....................                //PantallaPrincipal=1; 
....................             }else if(MenuAnt==2){ 
0A592:  BRA    A5B2
0A594:  MOVLB  3
0A596:  MOVF   x90,W
0A598:  SUBLW  02
0A59A:  BNZ   A5B4
....................                printf("page Funcionamiento"); 
0A59C:  MOVLW  CE
0A59E:  MOVWF  FF6
0A5A0:  MOVLW  0C
0A5A2:  MOVWF  FF7
0A5A4:  MOVLW  00
0A5A6:  MOVWF  FF8
0A5A8:  MOVLB  0
0A5AA:  CALL   390C
....................                SendDataDisplay();  
0A5AE:  CALL   393E
0A5B2:  MOVLB  3
....................                //if(Temperatura>60)TTrampa=TTrampa+5; 
....................             } 
....................          } 
....................           
....................          if(UP){ 
0A5B4:  BSF    F93.3
0A5B6:  BTFSC  F81.3
0A5B8:  BRA    A5D4
....................             delay_ms(100); 
0A5BA:  MOVLW  64
0A5BC:  MOVLB  4
0A5BE:  MOVWF  x8D
0A5C0:  MOVLB  0
0A5C2:  CALL   1B28
....................             if(UP){ 
0A5C6:  BSF    F93.3
0A5C8:  BTFSC  F81.3
0A5CA:  BRA    A5D6
....................                Nivel++; 
0A5CC:  MOVLB  3
0A5CE:  INCF   xA4,F
0A5D0:  BTFSC  FD8.2
0A5D2:  INCF   xA5,F
0A5D4:  MOVLB  0
....................             } 
....................          } 
....................           
....................          if(DOWN){ 
0A5D6:  BSF    F93.2
0A5D8:  BTFSC  F81.2
0A5DA:  BRA    A5FA
....................             delay_ms(100); 
0A5DC:  MOVLW  64
0A5DE:  MOVLB  4
0A5E0:  MOVWF  x8D
0A5E2:  MOVLB  0
0A5E4:  CALL   1B28
....................             if(DOWN){ 
0A5E8:  BSF    F93.2
0A5EA:  BTFSC  F81.2
0A5EC:  BRA    A5FA
....................                Nivel--; 
0A5EE:  MOVLB  3
0A5F0:  MOVF   xA4,W
0A5F2:  BTFSC  FD8.2
0A5F4:  DECF   xA5,F
0A5F6:  DECF   xA4,F
0A5F8:  MOVLB  0
....................             } 
....................          } 
....................           
....................          if(RX_Buffer[4]==0x0d){//Tecla Arriba Oprimida 
0A5FA:  MOVF   34,W
0A5FC:  SUBLW  0D
0A5FE:  BNZ   A60E
....................             Nivel++; 
0A600:  MOVLB  3
0A602:  INCF   xA4,F
0A604:  BTFSC  FD8.2
0A606:  INCF   xA5,F
....................             RX_Buffer[4]=0x00;             
0A608:  CLRF   34
....................             RX_Buffer2[4]=0x00;             
0A60A:  CLRF   3F
0A60C:  MOVLB  0
....................             //BorraBuffer(); 
....................          } 
....................           
....................          if(RX_Buffer[4]==0x0c){//Tecla Abajo Oprimida 
0A60E:  MOVF   34,W
0A610:  SUBLW  0C
0A612:  BNZ   A624
....................             Nivel--; 
0A614:  MOVLB  3
0A616:  MOVF   xA4,W
0A618:  BTFSC  FD8.2
0A61A:  DECF   xA5,F
0A61C:  DECF   xA4,F
....................             RX_Buffer[4]=0x00; 
0A61E:  CLRF   34
....................             RX_Buffer2[4]=0x00;             
0A620:  CLRF   3F
0A622:  MOVLB  0
....................             //BorraBuffer(); 
....................          } 
....................           
....................       printf("tnivel.txt=\"%Lu\"",Nivel); 
0A624:  MOVLW  E2
0A626:  MOVWF  FF6
0A628:  MOVLW  0C
0A62A:  MOVWF  FF7
0A62C:  MOVLW  00
0A62E:  MOVWF  FF8
0A630:  MOVLW  0C
0A632:  MOVLB  4
0A634:  MOVWF  x79
0A636:  MOVLB  0
0A638:  CALL   4A36
0A63C:  MOVLW  10
0A63E:  MOVWF  FE9
0A640:  MOVFF  3A5,479
0A644:  MOVFF  3A4,478
0A648:  CALL   54D2
0A64C:  MOVLW  22
0A64E:  BTFSS  F9E.4
0A650:  BRA    A64E
0A652:  MOVWF  FAD
....................       SendDataDisplay(); 
0A654:  CALL   393E
0A658:  MOVLB  3
....................    } 
.................... //_--------------------------------------------------------------------------------------------------------------------------------------------------------       
....................  
.................... //_--------------------------------------------------------------------------------------------------------------------------------------------------------       
....................       if(Menu==6){ // Menu de Prueba de Componentes 
0A65A:  MOVF   x8F,W
0A65C:  SUBLW  06
0A65E:  BTFSS  FD8.2
0A660:  BRA    ADD8
....................          PruebaEstados=ON; 
0A662:  MOVLB  0
0A664:  BSF    xD1.6
....................           
....................          if(RX_Buffer[4]==0x02)//Oprimio EV Desfogue 
0A666:  MOVF   34,W
0A668:  SUBLW  02
0A66A:  BNZ   A672
....................          { 
....................             EstadoDesfogue=!EstadoDesfogue; 
0A66C:  BTG    xD1.3
....................             RX_Buffer[4]=0x00; 
0A66E:  CLRF   34
....................             RX_Buffer2[4]=0x00; 
0A670:  CLRF   3F
....................          } 
....................           
....................          if(EstadoDesfogue){ 
0A672:  BTFSS  xD1.3
0A674:  BRA    A690
....................             printf("b1.bco=2016"); 
0A676:  MOVLW  F4
0A678:  MOVWF  FF6
0A67A:  MOVLW  0C
0A67C:  MOVWF  FF7
0A67E:  MOVLW  00
0A680:  MOVWF  FF8
0A682:  CALL   390C
....................             SendDataDisplay();  
0A686:  CALL   393E
....................             Desfogue_on; 
0A68A:  BCF    F8B.1
0A68C:  BCF    F94.1
....................          } 
....................          else{ 
0A68E:  BRA    A6A8
....................             printf("b1.bco=63488"); 
0A690:  MOVLW  00
0A692:  MOVWF  FF6
0A694:  MOVLW  0D
0A696:  MOVWF  FF7
0A698:  MOVLW  00
0A69A:  MOVWF  FF8
0A69C:  CALL   390C
....................             SendDataDisplay();  
0A6A0:  CALL   393E
....................             Desfogue_off; 
0A6A4:  BSF    F8B.1
0A6A6:  BCF    F94.1
....................          } 
....................           
....................          if(RX_Buffer[4]==0x01)//Oprimio EV Agua 
0A6A8:  DECFSZ 34,W
0A6AA:  BRA    A6B2
....................          { 
....................             EstadoAgua=!EstadoAgua; 
0A6AC:  BTG    xD1.4
....................             RX_Buffer[4]=0x00; 
0A6AE:  CLRF   34
....................             RX_Buffer2[4]=0x00; 
0A6B0:  CLRF   3F
....................          } 
....................           
....................          if(EstadoAgua){ 
0A6B2:  BTFSS  xD1.4
0A6B4:  BRA    A6D0
....................             printf("b0.bco=2016"); 
0A6B6:  MOVLW  0E
0A6B8:  MOVWF  FF6
0A6BA:  MOVLW  0D
0A6BC:  MOVWF  FF7
0A6BE:  MOVLW  00
0A6C0:  MOVWF  FF8
0A6C2:  CALL   390C
....................             SendDataDisplay();  
0A6C6:  CALL   393E
....................             Agua_on; 
0A6CA:  BCF    F8B.2
0A6CC:  BCF    F94.2
....................          } 
....................          else{ 
0A6CE:  BRA    A6E8
....................             printf("b0.bco=63488"); 
0A6D0:  MOVLW  1A
0A6D2:  MOVWF  FF6
0A6D4:  MOVLW  0D
0A6D6:  MOVWF  FF7
0A6D8:  MOVLW  00
0A6DA:  MOVWF  FF8
0A6DC:  CALL   390C
....................             SendDataDisplay();  
0A6E0:  CALL   393E
....................             Agua_off; 
0A6E4:  BSF    F8B.2
0A6E6:  BCF    F94.2
....................          } 
....................           
....................          if(RX_Buffer[4]==0x03)//Oprimio EV Paso 
0A6E8:  MOVF   34,W
0A6EA:  SUBLW  03
0A6EC:  BNZ   A6F4
....................          { 
....................             EstadoPaso=!EstadoPaso; 
0A6EE:  BTG    xD3.1
....................             RX_Buffer[4]=0x00; 
0A6F0:  CLRF   34
....................             RX_Buffer2[4]=0x00; 
0A6F2:  CLRF   3F
....................          } 
....................           
....................          if(EstadoPaso){ 
0A6F4:  BTFSS  xD3.1
0A6F6:  BRA    A712
....................             printf("b2.bco=2016"); 
0A6F8:  MOVLW  28
0A6FA:  MOVWF  FF6
0A6FC:  MOVLW  0D
0A6FE:  MOVWF  FF7
0A700:  MOVLW  00
0A702:  MOVWF  FF8
0A704:  CALL   390C
....................             SendDataDisplay();  
0A708:  CALL   393E
....................             Bomba_on; 
0A70C:  BCF    F8B.0
0A70E:  BCF    F94.0
....................          } 
....................          else{ 
0A710:  BRA    A72A
....................             printf("b2.bco=63488"); 
0A712:  MOVLW  34
0A714:  MOVWF  FF6
0A716:  MOVLW  0D
0A718:  MOVWF  FF7
0A71A:  MOVLW  00
0A71C:  MOVWF  FF8
0A71E:  CALL   390C
....................             SendDataDisplay();  
0A722:  CALL   393E
....................             Bomba_off; 
0A726:  BSF    F8B.0
0A728:  BCF    F94.0
....................          } 
....................          
....................           
....................          if(RX_Buffer[4]==0x05)//Oprimio Bloqueo 
0A72A:  MOVF   34,W
0A72C:  SUBLW  05
0A72E:  BNZ   A736
....................          { 
....................             EstadoAire=!EstadoAire; 
0A730:  BTG    xD2.2
....................             RX_Buffer[4]=0x00; 
0A732:  CLRF   34
....................             RX_Buffer2[4]=0x00; 
0A734:  CLRF   3F
....................          } 
....................           
....................          if(EstadoAire){ 
0A736:  BTFSS  xD2.2
0A738:  BRA    A752
....................             printf("b4.bco=2016"); 
0A73A:  MOVLW  42
0A73C:  MOVWF  FF6
0A73E:  MOVLW  0D
0A740:  MOVWF  FF7
0A742:  MOVLW  00
0A744:  MOVWF  FF8
0A746:  CALL   390C
....................             SendDataDisplay();  
0A74A:  CALL   393E
....................             Aire=ON;    
0A74E:  BSF    xD4.3
....................          }else{ 
0A750:  BRA    A768
....................             printf("b4.bco=63488"); 
0A752:  MOVLW  4E
0A754:  MOVWF  FF6
0A756:  MOVLW  0D
0A758:  MOVWF  FF7
0A75A:  MOVLW  00
0A75C:  MOVWF  FF8
0A75E:  CALL   390C
....................             SendDataDisplay();  
0A762:  CALL   393E
....................             Aire=OFF; 
0A766:  BCF    xD4.3
....................          } 
....................           
....................           
....................          if(RX_Buffer[4]==0x04)//Oprimio SSR1 
0A768:  MOVF   34,W
0A76A:  SUBLW  04
0A76C:  BNZ   A774
....................          { 
....................             EstadoSSR=!EstadoSSR; 
0A76E:  BTG    xD1.5
....................             RX_Buffer[4]=0x00; 
0A770:  CLRF   34
....................             RX_Buffer2[4]=0x00; 
0A772:  CLRF   3F
....................          } 
....................           
....................          if(EstadoSSR){ 
0A774:  BTFSS  xD1.5
0A776:  BRA    A792
....................             printf("b3.bco=2016"); 
0A778:  MOVLW  5C
0A77A:  MOVWF  FF6
0A77C:  MOVLW  0D
0A77E:  MOVWF  FF7
0A780:  MOVLW  00
0A782:  MOVWF  FF8
0A784:  CALL   390C
....................             SendDataDisplay();  
0A788:  CALL   393E
....................             SSR_on; 
0A78C:  BSF    F8D.1
0A78E:  BCF    F96.1
....................          } 
....................          else{ 
0A790:  BRA    A7AA
....................             printf("b3.bco=63488"); 
0A792:  MOVLW  68
0A794:  MOVWF  FF6
0A796:  MOVLW  0D
0A798:  MOVWF  FF7
0A79A:  MOVLW  00
0A79C:  MOVWF  FF8
0A79E:  CALL   390C
....................             SendDataDisplay();  
0A7A2:  CALL   393E
....................             SSR_off; 
0A7A6:  BCF    F8D.1
0A7A8:  BCF    F96.1
....................          } 
....................           
....................          if(DOOR){ 
0A7AA:  BSF    F93.6
0A7AC:  BTFSC  F81.6
0A7AE:  BRA    A7C6
....................             printf("b8.bco=2016"); 
0A7B0:  MOVLW  76
0A7B2:  MOVWF  FF6
0A7B4:  MOVLW  0D
0A7B6:  MOVWF  FF7
0A7B8:  MOVLW  00
0A7BA:  MOVWF  FF8
0A7BC:  CALL   390C
....................             SendDataDisplay();  
0A7C0:  CALL   393E
....................          }else{ 
0A7C4:  BRA    A7DA
....................             printf("b8.bco=63488"); 
0A7C6:  MOVLW  82
0A7C8:  MOVWF  FF6
0A7CA:  MOVLW  0D
0A7CC:  MOVWF  FF7
0A7CE:  MOVLW  00
0A7D0:  MOVWF  FF8
0A7D2:  CALL   390C
....................             SendDataDisplay();  
0A7D6:  CALL   393E
....................          } 
....................           
....................          if(TERM){ 
0A7DA:  BSF    F93.4
0A7DC:  BTFSC  F81.4
0A7DE:  BRA    A7F6
....................             printf("b9.bco=2016"); 
0A7E0:  MOVLW  90
0A7E2:  MOVWF  FF6
0A7E4:  MOVLW  0D
0A7E6:  MOVWF  FF7
0A7E8:  MOVLW  00
0A7EA:  MOVWF  FF8
0A7EC:  CALL   390C
....................             SendDataDisplay();  
0A7F0:  CALL   393E
....................          }else{ 
0A7F4:  BRA    A80A
....................             printf("b9.bco=63488"); 
0A7F6:  MOVLW  9C
0A7F8:  MOVWF  FF6
0A7FA:  MOVLW  0D
0A7FC:  MOVWF  FF7
0A7FE:  MOVLW  00
0A800:  MOVWF  FF8
0A802:  CALL   390C
....................             SendDataDisplay();  
0A806:  CALL   393E
....................          } 
....................           
....................          if(STOP){ 
0A80A:  BSF    F93.5
0A80C:  BTFSC  F81.5
0A80E:  BRA    A826
....................             printf("b10.bco=2016"); 
0A810:  MOVLW  AA
0A812:  MOVWF  FF6
0A814:  MOVLW  0D
0A816:  MOVWF  FF7
0A818:  MOVLW  00
0A81A:  MOVWF  FF8
0A81C:  CALL   390C
....................             SendDataDisplay();  
0A820:  CALL   393E
....................          }else{ 
0A824:  BRA    A83A
....................             printf("b10.bco=63488"); 
0A826:  MOVLW  B8
0A828:  MOVWF  FF6
0A82A:  MOVLW  0D
0A82C:  MOVWF  FF7
0A82E:  MOVLW  00
0A830:  MOVWF  FF8
0A832:  CALL   390C
....................             SendDataDisplay();  
0A836:  CALL   393E
....................          } 
....................           
....................          if(DOORL){ 
0A83A:  BSF    F93.7
0A83C:  BTFSC  F81.7
0A83E:  BRA    A856
....................             printf("b11.bco=2016"); 
0A840:  MOVLW  C6
0A842:  MOVWF  FF6
0A844:  MOVLW  0D
0A846:  MOVWF  FF7
0A848:  MOVLW  00
0A84A:  MOVWF  FF8
0A84C:  CALL   390C
....................             SendDataDisplay();  
0A850:  CALL   393E
....................          }else{ 
0A854:  BRA    A86A
....................             printf("b11.bco=63488"); 
0A856:  MOVLW  D4
0A858:  MOVWF  FF6
0A85A:  MOVLW  0D
0A85C:  MOVWF  FF7
0A85E:  MOVLW  00
0A860:  MOVWF  FF8
0A862:  CALL   390C
....................             SendDataDisplay();  
0A866:  CALL   393E
....................          } 
....................           
....................          if(RX_Buffer[4]==0x13)//Oprimio Buzzer 
0A86A:  MOVF   34,W
0A86C:  SUBLW  13
0A86E:  BNZ   A876
....................          { 
....................             EstadoBuzzer=!EstadoBuzzer; 
0A870:  BTG    xD3.2
....................             RX_Buffer[4]=0x00; 
0A872:  CLRF   34
....................             RX_Buffer2[4]=0x00; 
0A874:  CLRF   3F
....................          } 
....................           
....................          if(EstadoBuzzer){ 
0A876:  BTFSS  xD3.2
0A878:  BRA    A894
....................             printf("b12.bco=2016"); 
0A87A:  MOVLW  E2
0A87C:  MOVWF  FF6
0A87E:  MOVLW  0D
0A880:  MOVWF  FF7
0A882:  MOVLW  00
0A884:  MOVWF  FF8
0A886:  CALL   390C
....................             SendDataDisplay();  
0A88A:  CALL   393E
....................             Buzzer_on; 
0A88E:  BSF    F8C.7
0A890:  BCF    F95.7
....................          } 
....................          else{ 
0A892:  BRA    A8AC
....................             printf("b12.bco=63488"); 
0A894:  MOVLW  F0
0A896:  MOVWF  FF6
0A898:  MOVLW  0D
0A89A:  MOVWF  FF7
0A89C:  MOVLW  00
0A89E:  MOVWF  FF8
0A8A0:  CALL   390C
....................             SendDataDisplay();  
0A8A4:  CALL   393E
....................             Buzzer_off; 
0A8A8:  BCF    F8C.7
0A8AA:  BCF    F95.7
....................          } 
....................           
....................          if(HIG){ 
0A8AC:  BTFSS  xD1.2
0A8AE:  BRA    A8C6
....................             printf("b16.bco=2016"); 
0A8B0:  MOVLW  FE
0A8B2:  MOVWF  FF6
0A8B4:  MOVLW  0D
0A8B6:  MOVWF  FF7
0A8B8:  MOVLW  00
0A8BA:  MOVWF  FF8
0A8BC:  CALL   390C
....................             SendDataDisplay();  
0A8C0:  CALL   393E
....................          }else{ 
0A8C4:  BRA    A8DA
....................             printf("b16.bco=63488"); 
0A8C6:  MOVLW  0C
0A8C8:  MOVWF  FF6
0A8CA:  MOVLW  0E
0A8CC:  MOVWF  FF7
0A8CE:  MOVLW  00
0A8D0:  MOVWF  FF8
0A8D2:  CALL   390C
....................             SendDataDisplay();  
0A8D6:  CALL   393E
....................          } 
....................           
....................          if(LOW){ 
0A8DA:  BTFSS  xD1.1
0A8DC:  BRA    A8F4
....................             printf("b17.bco=2016"); 
0A8DE:  MOVLW  1A
0A8E0:  MOVWF  FF6
0A8E2:  MOVLW  0E
0A8E4:  MOVWF  FF7
0A8E6:  MOVLW  00
0A8E8:  MOVWF  FF8
0A8EA:  CALL   390C
....................             SendDataDisplay();  
0A8EE:  CALL   393E
....................          }else{ 
0A8F2:  BRA    A908
....................             printf("b17.bco=63488"); 
0A8F4:  MOVLW  28
0A8F6:  MOVWF  FF6
0A8F8:  MOVLW  0E
0A8FA:  MOVWF  FF7
0A8FC:  MOVLW  00
0A8FE:  MOVWF  FF8
0A900:  CALL   390C
....................             SendDataDisplay();  
0A904:  CALL   393E
....................          } 
....................           
....................          printf("b13.txt=\"ADC0:%3.0f\"",sensores(0));          
0A908:  MOVLB  4
0A90A:  CLRF   x7D
0A90C:  MOVLB  0
0A90E:  CALL   3992
0A912:  MOVFF  00,474
0A916:  MOVFF  01,475
0A91A:  MOVFF  02,476
0A91E:  MOVFF  03,477
0A922:  MOVLW  36
0A924:  MOVWF  FF6
0A926:  MOVLW  0E
0A928:  MOVWF  FF7
0A92A:  MOVLW  00
0A92C:  MOVWF  FF8
0A92E:  MOVLW  0E
0A930:  MOVLB  4
0A932:  MOVWF  x79
0A934:  MOVLB  0
0A936:  CALL   4A36
0A93A:  MOVLW  02
0A93C:  MOVWF  FE9
0A93E:  MOVFF  477,47C
0A942:  MOVFF  476,47B
0A946:  MOVFF  475,47A
0A94A:  MOVFF  474,479
0A94E:  MOVLB  4
0A950:  CLRF   x7D
0A952:  MOVLB  0
0A954:  CALL   4BD6
0A958:  MOVLW  22
0A95A:  BTFSS  F9E.4
0A95C:  BRA    A95A
0A95E:  MOVWF  FAD
....................          SendDataDisplay(); 
0A960:  CALL   393E
....................          printf("b14.txt=\"ADC1:%3.0f\"",sensores(1));          
0A964:  MOVLW  01
0A966:  MOVLB  4
0A968:  MOVWF  x7D
0A96A:  MOVLB  0
0A96C:  CALL   3992
0A970:  MOVFF  00,474
0A974:  MOVFF  01,475
0A978:  MOVFF  02,476
0A97C:  MOVFF  03,477
0A980:  MOVLW  4C
0A982:  MOVWF  FF6
0A984:  MOVLW  0E
0A986:  MOVWF  FF7
0A988:  MOVLW  00
0A98A:  MOVWF  FF8
0A98C:  MOVLW  0E
0A98E:  MOVLB  4
0A990:  MOVWF  x79
0A992:  MOVLB  0
0A994:  CALL   4A36
0A998:  MOVLW  02
0A99A:  MOVWF  FE9
0A99C:  MOVFF  477,47C
0A9A0:  MOVFF  476,47B
0A9A4:  MOVFF  475,47A
0A9A8:  MOVFF  474,479
0A9AC:  MOVLB  4
0A9AE:  CLRF   x7D
0A9B0:  MOVLB  0
0A9B2:  CALL   4BD6
0A9B6:  MOVLW  22
0A9B8:  BTFSS  F9E.4
0A9BA:  BRA    A9B8
0A9BC:  MOVWF  FAD
....................          SendDataDisplay(); 
0A9BE:  CALL   393E
....................          printf("b15.txt=\"A5:%3.0f %03Lu\"",sensores(5),PresionCamara); 
0A9C2:  MOVLW  05
0A9C4:  MOVLB  4
0A9C6:  MOVWF  x7D
0A9C8:  MOVLB  0
0A9CA:  CALL   3992
0A9CE:  MOVFF  00,474
0A9D2:  MOVFF  01,475
0A9D6:  MOVFF  02,476
0A9DA:  MOVFF  03,477
0A9DE:  MOVLW  62
0A9E0:  MOVWF  FF6
0A9E2:  MOVLW  0E
0A9E4:  MOVWF  FF7
0A9E6:  MOVLW  00
0A9E8:  MOVWF  FF8
0A9EA:  MOVLW  0C
0A9EC:  MOVLB  4
0A9EE:  MOVWF  x79
0A9F0:  MOVLB  0
0A9F2:  CALL   4A36
0A9F6:  MOVLW  02
0A9F8:  MOVWF  FE9
0A9FA:  MOVFF  477,47C
0A9FE:  MOVFF  476,47B
0AA02:  MOVFF  475,47A
0AA06:  MOVFF  474,479
0AA0A:  MOVLB  4
0AA0C:  CLRF   x7D
0AA0E:  MOVLB  0
0AA10:  CALL   4BD6
0AA14:  MOVLW  20
0AA16:  BTFSS  F9E.4
0AA18:  BRA    AA16
0AA1A:  MOVWF  FAD
0AA1C:  MOVLW  0A
0AA1E:  MOVWF  FE9
0AA20:  MOVFF  3A9,479
0AA24:  MOVFF  3A8,478
0AA28:  CALL   54D2
0AA2C:  MOVLW  22
0AA2E:  BTFSS  F9E.4
0AA30:  BRA    AA2E
0AA32:  MOVWF  FAD
....................          SendDataDisplay(); 
0AA34:  CALL   393E
....................          printf("b18.txt=\"A4:%3.0f %03Lu\"",sensores(4),PresionPreCamara); 
0AA38:  MOVLW  04
0AA3A:  MOVLB  4
0AA3C:  MOVWF  x7D
0AA3E:  MOVLB  0
0AA40:  CALL   3992
0AA44:  MOVFF  00,474
0AA48:  MOVFF  01,475
0AA4C:  MOVFF  02,476
0AA50:  MOVFF  03,477
0AA54:  MOVLW  7C
0AA56:  MOVWF  FF6
0AA58:  MOVLW  0E
0AA5A:  MOVWF  FF7
0AA5C:  MOVLW  00
0AA5E:  MOVWF  FF8
0AA60:  MOVLW  0C
0AA62:  MOVLB  4
0AA64:  MOVWF  x79
0AA66:  MOVLB  0
0AA68:  CALL   4A36
0AA6C:  MOVLW  02
0AA6E:  MOVWF  FE9
0AA70:  MOVFF  477,47C
0AA74:  MOVFF  476,47B
0AA78:  MOVFF  475,47A
0AA7C:  MOVFF  474,479
0AA80:  MOVLB  4
0AA82:  CLRF   x7D
0AA84:  MOVLB  0
0AA86:  CALL   4BD6
0AA8A:  MOVLW  20
0AA8C:  BTFSS  F9E.4
0AA8E:  BRA    AA8C
0AA90:  MOVWF  FAD
0AA92:  MOVLW  0A
0AA94:  MOVWF  FE9
0AA96:  MOVFF  3AB,479
0AA9A:  MOVFF  3AA,478
0AA9E:  CALL   54D2
0AAA2:  MOVLW  22
0AAA4:  BTFSS  F9E.4
0AAA6:  BRA    AAA4
0AAA8:  MOVWF  FAD
....................          SendDataDisplay(); 
0AAAA:  CALL   393E
....................          printf("b20.txt=\"T1:%3.1f\"",Temperatura); 
0AAAE:  MOVLW  96
0AAB0:  MOVWF  FF6
0AAB2:  MOVLW  0E
0AAB4:  MOVWF  FF7
0AAB6:  MOVLW  00
0AAB8:  MOVWF  FF8
0AABA:  MOVLW  0C
0AABC:  MOVLB  4
0AABE:  MOVWF  x79
0AAC0:  MOVLB  0
0AAC2:  CALL   4A36
0AAC6:  MOVLW  02
0AAC8:  MOVWF  FE9
0AACA:  MOVFF  35C,47C
0AACE:  MOVFF  35B,47B
0AAD2:  MOVFF  35A,47A
0AAD6:  MOVFF  359,479
0AADA:  MOVLW  01
0AADC:  MOVLB  4
0AADE:  MOVWF  x7D
0AAE0:  MOVLB  0
0AAE2:  CALL   4BD6
0AAE6:  MOVLW  22
0AAE8:  BTFSS  F9E.4
0AAEA:  BRA    AAE8
0AAEC:  MOVWF  FAD
....................          SendDataDisplay(); 
0AAEE:  CALL   393E
....................           
....................          if(RX_Buffer[4]==0x21 || LEFT){//Oprimio salir 
0AAF2:  MOVF   34,W
0AAF4:  SUBLW  21
0AAF6:  BZ    AAFE
0AAF8:  BSF    F93.0
0AAFA:  BTFSC  F81.0
0AAFC:  BRA    AB46
....................             delay_ms(100); 
0AAFE:  MOVLW  64
0AB00:  MOVLB  4
0AB02:  MOVWF  x8D
0AB04:  MOVLB  0
0AB06:  CALL   1B28
....................             if(RX_Buffer[4]==0x21 || LEFT){ 
0AB0A:  MOVF   34,W
0AB0C:  SUBLW  21
0AB0E:  BZ    AB16
0AB10:  BSF    F93.0
0AB12:  BTFSC  F81.0
0AB14:  BRA    AB46
....................                printf("page MenuPrincipal"); 
0AB16:  MOVLW  AA
0AB18:  MOVWF  FF6
0AB1A:  MOVLW  0E
0AB1C:  MOVWF  FF7
0AB1E:  MOVLW  00
0AB20:  MOVWF  FF8
0AB22:  CALL   390C
....................                SendDataDisplay(); 
0AB26:  CALL   393E
....................                PantallaPrincipal=0; 
0AB2A:  MOVLB  3
0AB2C:  CLRF   x0D
....................                PruebaEstados=OFF;Desfogue_off;Agua_off;Bomba_off;SSR_off; 
0AB2E:  MOVLB  0
0AB30:  BCF    xD1.6
0AB32:  BSF    F8B.1
0AB34:  BCF    F94.1
0AB36:  BSF    F8B.2
0AB38:  BCF    F94.2
0AB3A:  BSF    F8B.0
0AB3C:  BCF    F94.0
0AB3E:  BCF    F8D.1
0AB40:  BCF    F96.1
....................                ApagaSalidas(); 
0AB42:  CALL   3974
....................                // Falta apagar Todo 
....................             } 
....................          } 
....................           
....................          if(UP){ 
0AB46:  BSF    F93.3
0AB48:  BTFSC  F81.3
0AB4A:  BRA    AC8E
....................             delay_ms(100); 
0AB4C:  MOVLW  64
0AB4E:  MOVLB  4
0AB50:  MOVWF  x8D
0AB52:  MOVLB  0
0AB54:  CALL   1B28
....................             if(UP){ 
0AB58:  BSF    F93.3
0AB5A:  BTFSC  F81.3
0AB5C:  BRA    AC8E
....................                G1=41-sensores(2); 
0AB5E:  MOVLW  02
0AB60:  MOVLB  4
0AB62:  MOVWF  x7D
0AB64:  MOVLB  0
0AB66:  CALL   3992
0AB6A:  MOVFF  FEA,475
0AB6E:  MOVFF  FE9,474
0AB72:  BSF    FD8.1
0AB74:  MOVLB  4
0AB76:  CLRF   x8C
0AB78:  CLRF   x8B
0AB7A:  MOVLW  24
0AB7C:  MOVWF  x8A
0AB7E:  MOVLW  84
0AB80:  MOVWF  x89
0AB82:  MOVFF  03,490
0AB86:  MOVFF  02,48F
0AB8A:  MOVFF  01,48E
0AB8E:  MOVFF  00,48D
0AB92:  MOVLB  0
0AB94:  CALL   1CE4
0AB98:  MOVFF  475,FEA
0AB9C:  MOVFF  474,FE9
0ABA0:  MOVFF  03,48C
0ABA4:  MOVFF  02,48B
0ABA8:  MOVFF  01,48A
0ABAC:  MOVFF  00,489
0ABB0:  CALL   4144
0ABB4:  MOVFF  01,3E4
....................                if(G1<0) 
0ABB8:  MOVLB  3
0ABBA:  BTFSC  xE4.7
0ABBC:  BRA    ABC0
0ABBE:  BRA    ABC6
....................                   sg1=10; 
0ABC0:  MOVLW  0A
0ABC2:  MOVWF  xE6
....................                else 
0ABC4:  BRA    ABCA
....................                   sg1=5; 
0ABC6:  MOVLW  05
0ABC8:  MOVWF  xE6
....................                    
....................                write_eeprom(42,(int8)G1); 
0ABCA:  CLRF   FAA
0ABCC:  MOVLW  2A
0ABCE:  MOVWF  FA9
0ABD0:  MOVFF  3E4,FA8
0ABD4:  BCF    FA6.6
0ABD6:  BCF    FA6.7
0ABD8:  BSF    FA6.2
0ABDA:  MOVF   FF2,W
0ABDC:  MOVWF  00
0ABDE:  BCF    FF2.6
0ABE0:  BCF    FF2.7
0ABE2:  MOVLB  F
0ABE4:  MOVLW  55
0ABE6:  MOVWF  FA7
0ABE8:  MOVLW  AA
0ABEA:  MOVWF  FA7
0ABEC:  BSF    FA6.1
0ABEE:  BTFSC  FA6.1
0ABF0:  BRA    ABEE
0ABF2:  BCF    FA6.2
0ABF4:  MOVF   00,W
0ABF6:  IORWF  FF2,F
....................                delay_ms(10); 
0ABF8:  MOVLW  0A
0ABFA:  MOVLB  4
0ABFC:  MOVWF  x8D
0ABFE:  MOVLB  0
0AC00:  CALL   1B28
....................                write_eeprom(44,(int8)sg1); 
0AC04:  CLRF   FAA
0AC06:  MOVLW  2C
0AC08:  MOVWF  FA9
0AC0A:  MOVFF  3E6,FA8
0AC0E:  BCF    FA6.6
0AC10:  BCF    FA6.7
0AC12:  BSF    FA6.2
0AC14:  MOVF   FF2,W
0AC16:  MOVWF  00
0AC18:  BCF    FF2.6
0AC1A:  BCF    FF2.7
0AC1C:  MOVLB  F
0AC1E:  MOVLW  55
0AC20:  MOVWF  FA7
0AC22:  MOVLW  AA
0AC24:  MOVWF  FA7
0AC26:  BSF    FA6.1
0AC28:  BTFSC  FA6.1
0AC2A:  BRA    AC28
0AC2C:  BCF    FA6.2
0AC2E:  MOVF   00,W
0AC30:  IORWF  FF2,F
....................                delay_ms(10); 
0AC32:  MOVLW  0A
0AC34:  MOVLB  4
0AC36:  MOVWF  x8D
0AC38:  MOVLB  0
0AC3A:  CALL   1B28
....................                Buzzer_on; 
0AC3E:  BSF    F8C.7
0AC40:  BCF    F95.7
....................                delay_ms(1000); 
0AC42:  MOVLW  04
0AC44:  MOVLB  4
0AC46:  MOVWF  x74
0AC48:  MOVLW  FA
0AC4A:  MOVWF  x8D
0AC4C:  MOVLB  0
0AC4E:  CALL   1B28
0AC52:  MOVLB  4
0AC54:  DECFSZ x74,F
0AC56:  BRA    AC48
....................                Buzzer_off; 
0AC58:  BCF    F8C.7
0AC5A:  BCF    F95.7
....................                delay_ms(1000); 
0AC5C:  MOVLW  04
0AC5E:  MOVWF  x74
0AC60:  MOVLW  FA
0AC62:  MOVWF  x8D
0AC64:  MOVLB  0
0AC66:  CALL   1B28
0AC6A:  MOVLB  4
0AC6C:  DECFSZ x74,F
0AC6E:  BRA    AC60
....................                Buzzer_on; 
0AC70:  BSF    F8C.7
0AC72:  BCF    F95.7
....................                delay_ms(1000); 
0AC74:  MOVLW  04
0AC76:  MOVWF  x74
0AC78:  MOVLW  FA
0AC7A:  MOVWF  x8D
0AC7C:  MOVLB  0
0AC7E:  CALL   1B28
0AC82:  MOVLB  4
0AC84:  DECFSZ x74,F
0AC86:  BRA    AC78
....................                Buzzer_off; 
0AC88:  BCF    F8C.7
0AC8A:  BCF    F95.7
0AC8C:  MOVLB  0
....................             } 
....................          } 
....................           
....................          if(DOWN){ 
0AC8E:  BSF    F93.2
0AC90:  BTFSC  F81.2
0AC92:  BRA    ADD6
....................             delay_ms(100); 
0AC94:  MOVLW  64
0AC96:  MOVLB  4
0AC98:  MOVWF  x8D
0AC9A:  MOVLB  0
0AC9C:  CALL   1B28
....................             if(DOWN){ 
0ACA0:  BSF    F93.2
0ACA2:  BTFSC  F81.2
0ACA4:  BRA    ADD6
....................                G2=41-sensores(3); 
0ACA6:  MOVLW  03
0ACA8:  MOVLB  4
0ACAA:  MOVWF  x7D
0ACAC:  MOVLB  0
0ACAE:  CALL   3992
0ACB2:  MOVFF  FEA,475
0ACB6:  MOVFF  FE9,474
0ACBA:  BSF    FD8.1
0ACBC:  MOVLB  4
0ACBE:  CLRF   x8C
0ACC0:  CLRF   x8B
0ACC2:  MOVLW  24
0ACC4:  MOVWF  x8A
0ACC6:  MOVLW  84
0ACC8:  MOVWF  x89
0ACCA:  MOVFF  03,490
0ACCE:  MOVFF  02,48F
0ACD2:  MOVFF  01,48E
0ACD6:  MOVFF  00,48D
0ACDA:  MOVLB  0
0ACDC:  CALL   1CE4
0ACE0:  MOVFF  475,FEA
0ACE4:  MOVFF  474,FE9
0ACE8:  MOVFF  03,48C
0ACEC:  MOVFF  02,48B
0ACF0:  MOVFF  01,48A
0ACF4:  MOVFF  00,489
0ACF8:  CALL   4144
0ACFC:  MOVFF  01,3E5
....................                if(G2<0) 
0AD00:  MOVLB  3
0AD02:  BTFSC  xE5.7
0AD04:  BRA    AD08
0AD06:  BRA    AD0E
....................                   sg2=10; 
0AD08:  MOVLW  0A
0AD0A:  MOVWF  xE7
....................                else 
0AD0C:  BRA    AD12
....................                   sg2=5; 
0AD0E:  MOVLW  05
0AD10:  MOVWF  xE7
....................                    
....................                write_eeprom(43,(int8)G2); 
0AD12:  CLRF   FAA
0AD14:  MOVLW  2B
0AD16:  MOVWF  FA9
0AD18:  MOVFF  3E5,FA8
0AD1C:  BCF    FA6.6
0AD1E:  BCF    FA6.7
0AD20:  BSF    FA6.2
0AD22:  MOVF   FF2,W
0AD24:  MOVWF  00
0AD26:  BCF    FF2.6
0AD28:  BCF    FF2.7
0AD2A:  MOVLB  F
0AD2C:  MOVLW  55
0AD2E:  MOVWF  FA7
0AD30:  MOVLW  AA
0AD32:  MOVWF  FA7
0AD34:  BSF    FA6.1
0AD36:  BTFSC  FA6.1
0AD38:  BRA    AD36
0AD3A:  BCF    FA6.2
0AD3C:  MOVF   00,W
0AD3E:  IORWF  FF2,F
....................                delay_ms(10); 
0AD40:  MOVLW  0A
0AD42:  MOVLB  4
0AD44:  MOVWF  x8D
0AD46:  MOVLB  0
0AD48:  CALL   1B28
....................                write_eeprom(45,(int8)sg2); 
0AD4C:  CLRF   FAA
0AD4E:  MOVLW  2D
0AD50:  MOVWF  FA9
0AD52:  MOVFF  3E7,FA8
0AD56:  BCF    FA6.6
0AD58:  BCF    FA6.7
0AD5A:  BSF    FA6.2
0AD5C:  MOVF   FF2,W
0AD5E:  MOVWF  00
0AD60:  BCF    FF2.6
0AD62:  BCF    FF2.7
0AD64:  MOVLB  F
0AD66:  MOVLW  55
0AD68:  MOVWF  FA7
0AD6A:  MOVLW  AA
0AD6C:  MOVWF  FA7
0AD6E:  BSF    FA6.1
0AD70:  BTFSC  FA6.1
0AD72:  BRA    AD70
0AD74:  BCF    FA6.2
0AD76:  MOVF   00,W
0AD78:  IORWF  FF2,F
....................                delay_ms(10); 
0AD7A:  MOVLW  0A
0AD7C:  MOVLB  4
0AD7E:  MOVWF  x8D
0AD80:  MOVLB  0
0AD82:  CALL   1B28
....................                Buzzer_on; 
0AD86:  BSF    F8C.7
0AD88:  BCF    F95.7
....................                delay_ms(1000); 
0AD8A:  MOVLW  04
0AD8C:  MOVLB  4
0AD8E:  MOVWF  x74
0AD90:  MOVLW  FA
0AD92:  MOVWF  x8D
0AD94:  MOVLB  0
0AD96:  CALL   1B28
0AD9A:  MOVLB  4
0AD9C:  DECFSZ x74,F
0AD9E:  BRA    AD90
....................                Buzzer_off; 
0ADA0:  BCF    F8C.7
0ADA2:  BCF    F95.7
....................                delay_ms(1000); 
0ADA4:  MOVLW  04
0ADA6:  MOVWF  x74
0ADA8:  MOVLW  FA
0ADAA:  MOVWF  x8D
0ADAC:  MOVLB  0
0ADAE:  CALL   1B28
0ADB2:  MOVLB  4
0ADB4:  DECFSZ x74,F
0ADB6:  BRA    ADA8
....................                Buzzer_on; 
0ADB8:  BSF    F8C.7
0ADBA:  BCF    F95.7
....................                delay_ms(1000); 
0ADBC:  MOVLW  04
0ADBE:  MOVWF  x74
0ADC0:  MOVLW  FA
0ADC2:  MOVWF  x8D
0ADC4:  MOVLB  0
0ADC6:  CALL   1B28
0ADCA:  MOVLB  4
0ADCC:  DECFSZ x74,F
0ADCE:  BRA    ADC0
....................                Buzzer_off; 
0ADD0:  BCF    F8C.7
0ADD2:  BCF    F95.7
0ADD4:  MOVLB  0
0ADD6:  MOVLB  3
....................             } 
....................          } 
....................      } 
.................... //_--------------------------------------------------------------------------------------------------------------------------------------------------------     
....................  
.................... //_--------------------------------------------------------------------------------------------------------------------------------------------------------       
....................       if(Menu==7){ //Menu de Configuracin de Fecha y Hora 
0ADD8:  MOVF   x8F,W
0ADDA:  SUBLW  07
0ADDC:  BTFSS  FD8.2
0ADDE:  BRA    B200
....................        
....................          if(RX_Buffer[4]==0x0a){//Selecciono Hora 
0ADE0:  MOVF   34,W
0ADE2:  SUBLW  0A
0ADE4:  BNZ   ADEA
....................             Opcion=4; 
0ADE6:  MOVLW  04
0ADE8:  MOVWF  x97
....................          } 
....................           
....................          if(RX_Buffer[4]==0x0b){//Selecciono Minuto 
0ADEA:  MOVF   34,W
0ADEC:  SUBLW  0B
0ADEE:  BNZ   ADF4
....................             Opcion=5; 
0ADF0:  MOVLW  05
0ADF2:  MOVWF  x97
....................          } 
....................           
....................          if(RX_Buffer[4]==0x0c){//Selecciono Dia 
0ADF4:  MOVF   34,W
0ADF6:  SUBLW  0C
0ADF8:  BNZ   ADFE
....................             Opcion=1; 
0ADFA:  MOVLW  01
0ADFC:  MOVWF  x97
....................          } 
....................           
....................          if(RX_Buffer[4]==0x0d){//Selecciono Hora 
0ADFE:  MOVF   34,W
0AE00:  SUBLW  0D
0AE02:  BNZ   AE08
....................             Opcion=2; 
0AE04:  MOVLW  02
0AE06:  MOVWF  x97
....................          } 
....................           
....................          if(RX_Buffer[4]==0x0e){//Selecciono Year 
0AE08:  MOVF   34,W
0AE0A:  SUBLW  0E
0AE0C:  BNZ   AE12
....................             Opcion=3; 
0AE0E:  MOVLW  03
0AE10:  MOVWF  x97
....................          } 
....................           
....................          if(RIGHT){ 
0AE12:  BSF    F93.1
0AE14:  BTFSC  F81.1
0AE16:  BRA    AE2E
....................             delay_ms(200); 
0AE18:  MOVLW  C8
0AE1A:  MOVLB  4
0AE1C:  MOVWF  x8D
0AE1E:  MOVLB  0
0AE20:  CALL   1B28
....................             if(RIGHT){ 
0AE24:  BSF    F93.1
0AE26:  BTFSC  F81.1
0AE28:  BRA    AE30
....................                Opcion++; 
0AE2A:  MOVLB  3
0AE2C:  INCF   x97,F
0AE2E:  MOVLB  0
....................             } 
....................          } 
....................          if(Opcion>5) 
0AE30:  MOVLB  3
0AE32:  MOVF   x97,W
0AE34:  SUBLW  05
0AE36:  BC    AE3C
....................             Opcion=1; 
0AE38:  MOVLW  01
0AE3A:  MOVWF  x97
....................          if(Opcion<1) 
0AE3C:  MOVF   x97,F
0AE3E:  BNZ   AE44
....................             Opcion=5; 
0AE40:  MOVLW  05
0AE42:  MOVWF  x97
....................              
....................          if(RX_Buffer[4]==0x11 || LEFT){//Selecciono Regresar 
0AE44:  MOVF   34,W
0AE46:  SUBLW  11
0AE48:  BZ    AE50
0AE4A:  BSF    F93.0
0AE4C:  BTFSC  F81.0
0AE4E:  BRA    AF62
....................             printf("page MenuPrincipal"); 
0AE50:  MOVLW  BE
0AE52:  MOVWF  FF6
0AE54:  MOVLW  0E
0AE56:  MOVWF  FF7
0AE58:  MOVLW  00
0AE5A:  MOVWF  FF8
0AE5C:  MOVLB  0
0AE5E:  CALL   390C
....................             SendDataDisplay();   
0AE62:  CALL   393E
....................             PantallaPrincipal=0; 
0AE66:  MOVLB  3
0AE68:  CLRF   x0D
....................             Op=OFF; 
0AE6A:  MOVLB  0
0AE6C:  BCF    xD2.4
....................             Op2=OFF; 
0AE6E:  BCF    xD2.5
....................              
....................             if(esBisiesto(YearTx)) 
0AE70:  MOVFF  3DA,474
0AE74:  CALL   557C
0AE78:  MOVF   01,F
0AE7A:  BZ    AE94
....................                Modulo=Bisiesto[MesTx]; 
0AE7C:  CLRF   03
0AE7E:  MOVLB  3
0AE80:  MOVF   xDB,W
0AE82:  ADDLW  C3
0AE84:  MOVWF  FE9
0AE86:  MOVLW  00
0AE88:  ADDWFC 03,W
0AE8A:  MOVWF  FEA
0AE8C:  MOVFF  FEF,30F
....................             else 
0AE90:  BRA    AEA8
0AE92:  MOVLB  0
....................                Modulo=Regular[MesTx]; 
0AE94:  CLRF   03
0AE96:  MOVLB  3
0AE98:  MOVF   xDB,W
0AE9A:  ADDLW  B7
0AE9C:  MOVWF  FE9
0AE9E:  MOVLW  00
0AEA0:  ADDWFC 03,W
0AEA2:  MOVWF  FEA
0AEA4:  MOVFF  FEF,30F
....................           
....................             dowTx=((YearTx-1)%7+((YearTx-1)/4-3*((YearTx-1)/100+1)/4)%7+Modulo+DiaTx%7)%7; 
0AEA8:  MOVLW  01
0AEAA:  SUBWF  xDA,W
0AEAC:  MOVLB  4
0AEAE:  MOVWF  x75
0AEB0:  MOVWF  x7E
0AEB2:  MOVLW  07
0AEB4:  MOVWF  x7F
0AEB6:  MOVLB  0
0AEB8:  CALL   4A68
0AEBC:  MOVFF  00,474
0AEC0:  MOVLW  01
0AEC2:  MOVLB  3
0AEC4:  SUBWF  xDA,W
0AEC6:  MOVWF  00
0AEC8:  RRCF   00,W
0AECA:  MOVLB  4
0AECC:  MOVWF  x75
0AECE:  RRCF   x75,F
0AED0:  MOVLW  3F
0AED2:  ANDWF  x75,F
0AED4:  MOVLW  01
0AED6:  MOVLB  3
0AED8:  SUBWF  xDA,W
0AEDA:  MOVLB  4
0AEDC:  MOVWF  x77
0AEDE:  MOVWF  x7E
0AEE0:  MOVLW  64
0AEE2:  MOVWF  x7F
0AEE4:  MOVLB  0
0AEE6:  CALL   4A68
0AEEA:  MOVLW  01
0AEEC:  ADDWF  01,W
0AEEE:  MULLW  03
0AEF0:  MOVFF  FF3,00
0AEF4:  RRCF   00,F
0AEF6:  RRCF   00,F
0AEF8:  MOVLW  3F
0AEFA:  ANDWF  00,F
0AEFC:  MOVF   00,W
0AEFE:  MOVLB  4
0AF00:  SUBWF  x75,W
0AF02:  MOVWF  x76
0AF04:  MOVWF  x7E
0AF06:  MOVLW  07
0AF08:  MOVWF  x7F
0AF0A:  MOVLB  0
0AF0C:  CALL   4A68
0AF10:  MOVF   00,W
0AF12:  MOVLB  4
0AF14:  ADDWF  x74,W
0AF16:  MOVLB  3
0AF18:  ADDWF  x0F,W
0AF1A:  MOVLB  4
0AF1C:  MOVWF  x74
0AF1E:  MOVFF  3DC,47E
0AF22:  MOVLW  07
0AF24:  MOVWF  x7F
0AF26:  MOVLB  0
0AF28:  CALL   4A68
0AF2C:  MOVF   00,W
0AF2E:  MOVLB  4
0AF30:  ADDWF  x74,W
0AF32:  MOVWF  x75
0AF34:  MOVWF  x7E
0AF36:  MOVLW  07
0AF38:  MOVWF  x7F
0AF3A:  MOVLB  0
0AF3C:  CALL   4A68
0AF40:  MOVFF  00,3E0
....................             SetTime=5; 
0AF44:  MOVLW  05
0AF46:  MOVLB  3
0AF48:  MOVWF  xE1
....................             Envio_Esclavos(); 
0AF4A:  MOVLB  0
0AF4C:  CALL   4738
....................             delay_ms(100);    
0AF50:  MOVLW  64
0AF52:  MOVLB  4
0AF54:  MOVWF  x8D
0AF56:  MOVLB  0
0AF58:  CALL   1B28
....................             SetTime=10; 
0AF5C:  MOVLW  0A
0AF5E:  MOVLB  3
0AF60:  MOVWF  xE1
....................             //rtc_set_datetime(DiaTx,MesTx,YearTx,dowTx,HoraTx,MinutoTx); 
....................          } 
....................           
....................          if((RX_Buffer[4]==0x2a)|| UP){//Tecla Arriba Oprimida 
0AF62:  MOVF   34,W
0AF64:  SUBLW  2A
0AF66:  BZ    AF6E
0AF68:  BSF    F93.3
0AF6A:  BTFSC  F81.3
0AF6C:  BRA    B06C
....................             delay_ms(200); 
0AF6E:  MOVLW  C8
0AF70:  MOVLB  4
0AF72:  MOVWF  x8D
0AF74:  MOVLB  0
0AF76:  CALL   1B28
....................             if((RX_Buffer[4]==0x2a)|| UP){    
0AF7A:  MOVF   34,W
0AF7C:  SUBLW  2A
0AF7E:  BZ    AF86
0AF80:  BSF    F93.3
0AF82:  BTFSC  F81.3
0AF84:  BRA    B06E
....................                if(Opcion==1){ 
0AF86:  MOVLB  3
0AF88:  DECFSZ x97,W
0AF8A:  BRA    B018
....................                   if(MesTx==2){ 
0AF8C:  MOVF   xDB,W
0AF8E:  SUBLW  02
0AF90:  BNZ   AFC6
....................                      if(esBisiesto(YearTx)){ 
0AF92:  MOVFF  3DA,474
0AF96:  MOVLB  0
0AF98:  CALL   557C
0AF9C:  MOVF   01,F
0AF9E:  BZ    AFB4
....................                         if(DiaTx<29) 
0AFA0:  MOVLB  3
0AFA2:  MOVF   xDC,W
0AFA4:  SUBLW  1C
0AFA6:  BNC   AFAC
....................                            DiaTx++; 
0AFA8:  INCF   xDC,F
....................                         else 
0AFAA:  BRA    AFB0
....................                            DiaTx=1;    
0AFAC:  MOVLW  01
0AFAE:  MOVWF  xDC
....................                      }else{ 
0AFB0:  BRA    AFC4
0AFB2:  MOVLB  0
....................                         if(DiaTx<28) 
0AFB4:  MOVLB  3
0AFB6:  MOVF   xDC,W
0AFB8:  SUBLW  1B
0AFBA:  BNC   AFC0
....................                            DiaTx++; 
0AFBC:  INCF   xDC,F
....................                         else 
0AFBE:  BRA    AFC4
....................                            DiaTx=1;    
0AFC0:  MOVLW  01
0AFC2:  MOVWF  xDC
....................                      } 
....................                   }else{ 
0AFC4:  BRA    B016
....................                      if(MesTx<=7){ 
0AFC6:  MOVF   xDB,W
0AFC8:  SUBLW  07
0AFCA:  BNC   AFF2
....................                         if(MesTx % 2 ==0){ 
0AFCC:  MOVF   xDB,W
0AFCE:  ANDLW  01
0AFD0:  BNZ   AFE2
....................                            if(DiaTx<30) 
0AFD2:  MOVF   xDC,W
0AFD4:  SUBLW  1D
0AFD6:  BNC   AFDC
....................                               DiaTx++;     
0AFD8:  INCF   xDC,F
....................                            else 
0AFDA:  BRA    AFE0
....................                               DiaTx=1;    
0AFDC:  MOVLW  01
0AFDE:  MOVWF  xDC
....................                         }else{ 
0AFE0:  BRA    AFF0
....................                            if(DiaTx<31) 
0AFE2:  MOVF   xDC,W
0AFE4:  SUBLW  1E
0AFE6:  BNC   AFEC
....................                               DiaTx++;     
0AFE8:  INCF   xDC,F
....................                            else 
0AFEA:  BRA    AFF0
....................                               DiaTx=1;    
0AFEC:  MOVLW  01
0AFEE:  MOVWF  xDC
....................                         }     
....................                      }else{ 
0AFF0:  BRA    B016
....................                         if(MesTx % 2 ==0){ 
0AFF2:  MOVF   xDB,W
0AFF4:  ANDLW  01
0AFF6:  BNZ   B008
....................                            if(DiaTx<31) 
0AFF8:  MOVF   xDC,W
0AFFA:  SUBLW  1E
0AFFC:  BNC   B002
....................                               DiaTx++;   
0AFFE:  INCF   xDC,F
....................                            else 
0B000:  BRA    B006
....................                               DiaTx=1; 
0B002:  MOVLW  01
0B004:  MOVWF  xDC
....................                         }else{ 
0B006:  BRA    B016
....................                            if(DiaTx<30) 
0B008:  MOVF   xDC,W
0B00A:  SUBLW  1D
0B00C:  BNC   B012
....................                               DiaTx++;     
0B00E:  INCF   xDC,F
....................                            else 
0B010:  BRA    B016
....................                               DiaTx=1; 
0B012:  MOVLW  01
0B014:  MOVWF  xDC
....................                         }     
....................                      } 
....................                   } 
....................                }else if(Opcion==2){ 
0B016:  BRA    B068
0B018:  MOVF   x97,W
0B01A:  SUBLW  02
0B01C:  BNZ   B02E
....................                   if(MesTx<12) 
0B01E:  MOVF   xDB,W
0B020:  SUBLW  0B
0B022:  BNC   B028
....................                      MesTx++; 
0B024:  INCF   xDB,F
....................                   else 
0B026:  BRA    B02C
....................                      MesTx=1; 
0B028:  MOVLW  01
0B02A:  MOVWF  xDB
....................                }else if(Opcion==3){ 
0B02C:  BRA    B068
0B02E:  MOVF   x97,W
0B030:  SUBLW  03
0B032:  BNZ   B042
....................                   if(YearTx<99) 
0B034:  MOVF   xDA,W
0B036:  SUBLW  62
0B038:  BNC   B03E
....................                      YearTx++; 
0B03A:  INCF   xDA,F
....................                   else  
0B03C:  BRA    B040
....................                      YearTx=0; 
0B03E:  CLRF   xDA
....................                }else if(Opcion==4){ 
0B040:  BRA    B068
0B042:  MOVF   x97,W
0B044:  SUBLW  04
0B046:  BNZ   B056
....................                   if(HoraTx<24) 
0B048:  MOVF   xDD,W
0B04A:  SUBLW  17
0B04C:  BNC   B052
....................                      HoraTx++; 
0B04E:  INCF   xDD,F
....................                   else 
0B050:  BRA    B054
....................                      HoraTx=0; 
0B052:  CLRF   xDD
....................                }else if(Opcion==5){ 
0B054:  BRA    B068
0B056:  MOVF   x97,W
0B058:  SUBLW  05
0B05A:  BNZ   B068
....................                   if(MinutoTx<59) 
0B05C:  MOVF   xDE,W
0B05E:  SUBLW  3A
0B060:  BNC   B066
....................                      MinutoTx++; 
0B062:  INCF   xDE,F
....................                   else 
0B064:  BRA    B068
....................                      MinutoTx=0; 
0B066:  CLRF   xDE
....................                } 
....................                RX_Buffer[4]=0x00; 
0B068:  CLRF   34
....................                RX_Buffer2[4]=0x00; 
0B06A:  CLRF   3F
0B06C:  MOVLB  0
....................             } 
....................          } 
....................           
....................          if(RX_Buffer[4]==0x2b || DOWN){//Tecla Abajo Oprimida 
0B06E:  MOVF   34,W
0B070:  SUBLW  2B
0B072:  BZ    B07A
0B074:  BSF    F93.2
0B076:  BTFSC  F81.2
0B078:  BRA    B0F6
....................             delay_ms(200); 
0B07A:  MOVLW  C8
0B07C:  MOVLB  4
0B07E:  MOVWF  x8D
0B080:  MOVLB  0
0B082:  CALL   1B28
....................             if(RX_Buffer[4]==0x2b || DOWN){    
0B086:  MOVF   34,W
0B088:  SUBLW  2B
0B08A:  BZ    B092
0B08C:  BSF    F93.2
0B08E:  BTFSC  F81.2
0B090:  BRA    B0F6
....................                if(Opcion==1){ 
0B092:  MOVLB  3
0B094:  DECFSZ x97,W
0B096:  BRA    B0A0
....................                   if(DiaTx>0) 
0B098:  MOVF   xDC,F
0B09A:  BZ    B09E
....................                      DiaTx--; 
0B09C:  DECF   xDC,F
....................                }else if(Opcion==2){ 
0B09E:  BRA    B0F0
0B0A0:  MOVF   x97,W
0B0A2:  SUBLW  02
0B0A4:  BNZ   B0B6
....................                   if(MesTx>1) 
0B0A6:  MOVF   xDB,W
0B0A8:  SUBLW  01
0B0AA:  BC    B0B0
....................                      MesTx--; 
0B0AC:  DECF   xDB,F
....................                   else 
0B0AE:  BRA    B0B4
....................                      MesTx=12; 
0B0B0:  MOVLW  0C
0B0B2:  MOVWF  xDB
....................                }else if(Opcion==3){ 
0B0B4:  BRA    B0F0
0B0B6:  MOVF   x97,W
0B0B8:  SUBLW  03
0B0BA:  BNZ   B0CA
....................                   if(YearTx>0) 
0B0BC:  MOVF   xDA,F
0B0BE:  BZ    B0C4
....................                      YearTx--; 
0B0C0:  DECF   xDA,F
....................                   else 
0B0C2:  BRA    B0C8
....................                      YearTx=99; 
0B0C4:  MOVLW  63
0B0C6:  MOVWF  xDA
....................                }else if(Opcion==4){ 
0B0C8:  BRA    B0F0
0B0CA:  MOVF   x97,W
0B0CC:  SUBLW  04
0B0CE:  BNZ   B0DE
....................                   if(HoraTx>0) 
0B0D0:  MOVF   xDD,F
0B0D2:  BZ    B0D8
....................                      HoraTx--; 
0B0D4:  DECF   xDD,F
....................                   else 
0B0D6:  BRA    B0DC
....................                      HoraTx=23; 
0B0D8:  MOVLW  17
0B0DA:  MOVWF  xDD
....................                }else if(Opcion==5){ 
0B0DC:  BRA    B0F0
0B0DE:  MOVF   x97,W
0B0E0:  SUBLW  05
0B0E2:  BNZ   B0F0
....................                   if(MinutoTx>0) 
0B0E4:  MOVF   xDE,F
0B0E6:  BZ    B0EC
....................                      MinutoTx--; 
0B0E8:  DECF   xDE,F
....................                   else 
0B0EA:  BRA    B0F0
....................                      MinutoTx=59; 
0B0EC:  MOVLW  3B
0B0EE:  MOVWF  xDE
....................                } 
....................                RX_Buffer[4]=0x00; 
0B0F0:  CLRF   34
....................                RX_Buffer2[4]=0x00; 
0B0F2:  CLRF   3F
0B0F4:  MOVLB  0
....................             } 
....................          } 
....................        
....................       printf("thora.txt=\"%02u\"",HoraTx); 
0B0F6:  MOVLW  D2
0B0F8:  MOVWF  FF6
0B0FA:  MOVLW  0E
0B0FC:  MOVWF  FF7
0B0FE:  MOVLW  00
0B100:  MOVWF  FF8
0B102:  MOVLW  0B
0B104:  MOVLB  4
0B106:  MOVWF  x79
0B108:  MOVLB  0
0B10A:  CALL   4A36
0B10E:  MOVFF  3DD,479
0B112:  MOVLW  01
0B114:  MOVLB  4
0B116:  MOVWF  x7A
0B118:  MOVLB  0
0B11A:  CALL   4A94
0B11E:  MOVLW  22
0B120:  BTFSS  F9E.4
0B122:  BRA    B120
0B124:  MOVWF  FAD
....................       SendDataDisplay(); 
0B126:  CALL   393E
....................       printf("tminutos.txt=\"%02u\"",MinutoTx); 
0B12A:  MOVLW  E4
0B12C:  MOVWF  FF6
0B12E:  MOVLW  0E
0B130:  MOVWF  FF7
0B132:  MOVLW  00
0B134:  MOVWF  FF8
0B136:  MOVLW  0E
0B138:  MOVLB  4
0B13A:  MOVWF  x79
0B13C:  MOVLB  0
0B13E:  CALL   4A36
0B142:  MOVFF  3DE,479
0B146:  MOVLW  01
0B148:  MOVLB  4
0B14A:  MOVWF  x7A
0B14C:  MOVLB  0
0B14E:  CALL   4A94
0B152:  MOVLW  22
0B154:  BTFSS  F9E.4
0B156:  BRA    B154
0B158:  MOVWF  FAD
....................       SendDataDisplay(); 
0B15A:  CALL   393E
....................       printf("tdia.txt=\"%02u\"",DiaTx); 
0B15E:  MOVLW  F8
0B160:  MOVWF  FF6
0B162:  MOVLW  0E
0B164:  MOVWF  FF7
0B166:  MOVLW  00
0B168:  MOVWF  FF8
0B16A:  MOVLW  0A
0B16C:  MOVLB  4
0B16E:  MOVWF  x79
0B170:  MOVLB  0
0B172:  CALL   4A36
0B176:  MOVFF  3DC,479
0B17A:  MOVLW  01
0B17C:  MOVLB  4
0B17E:  MOVWF  x7A
0B180:  MOVLB  0
0B182:  CALL   4A94
0B186:  MOVLW  22
0B188:  BTFSS  F9E.4
0B18A:  BRA    B188
0B18C:  MOVWF  FAD
....................       SendDataDisplay(); 
0B18E:  CALL   393E
....................       printf("tmes.txt=\"%02u\"",MesTx); 
0B192:  MOVLW  08
0B194:  MOVWF  FF6
0B196:  MOVLW  0F
0B198:  MOVWF  FF7
0B19A:  MOVLW  00
0B19C:  MOVWF  FF8
0B19E:  MOVLW  0A
0B1A0:  MOVLB  4
0B1A2:  MOVWF  x79
0B1A4:  MOVLB  0
0B1A6:  CALL   4A36
0B1AA:  MOVFF  3DB,479
0B1AE:  MOVLW  01
0B1B0:  MOVLB  4
0B1B2:  MOVWF  x7A
0B1B4:  MOVLB  0
0B1B6:  CALL   4A94
0B1BA:  MOVLW  22
0B1BC:  BTFSS  F9E.4
0B1BE:  BRA    B1BC
0B1C0:  MOVWF  FAD
....................       SendDataDisplay(); 
0B1C2:  CALL   393E
....................       printf("tyear.txt=\"%02u\"",YearTx); 
0B1C6:  MOVLW  18
0B1C8:  MOVWF  FF6
0B1CA:  MOVLW  0F
0B1CC:  MOVWF  FF7
0B1CE:  MOVLW  00
0B1D0:  MOVWF  FF8
0B1D2:  MOVLW  0B
0B1D4:  MOVLB  4
0B1D6:  MOVWF  x79
0B1D8:  MOVLB  0
0B1DA:  CALL   4A36
0B1DE:  MOVFF  3DA,479
0B1E2:  MOVLW  01
0B1E4:  MOVLB  4
0B1E6:  MOVWF  x7A
0B1E8:  MOVLB  0
0B1EA:  CALL   4A94
0B1EE:  MOVLW  22
0B1F0:  BTFSS  F9E.4
0B1F2:  BRA    B1F0
0B1F4:  MOVWF  FAD
....................       SendDataDisplay(); 
0B1F6:  CALL   393E
....................       LimitaDia();   
0B1FA:  GOTO   55D2
0B1FE:  MOVLB  3
....................     } 
.................... //_--------------------------------------------------------------------------------------------------------------------------------------------------------        
....................  
.................... //_-------------------------------------------------------------------------------------------------------------------------------------------------------- 
....................    if(Menu==8){ //Menu Ciclos Personalizados 
0B200:  MOVF   x8F,W
0B202:  SUBLW  08
0B204:  BTFSS  FD8.2
0B206:  GOTO   C062
....................       printf("fecha.txt=\"T:%3.1fC Fecha:%02u/%02u/20%02u Hora: %02u:%02u:%02u\"",Temperatura,Dia,Mes,Year,Hora,Minuto,Segundo); 
0B20A:  MOVLW  2A
0B20C:  MOVWF  FF6
0B20E:  MOVLW  0F
0B210:  MOVWF  FF7
0B212:  MOVLW  00
0B214:  MOVWF  FF8
0B216:  MOVLW  0D
0B218:  MOVLB  4
0B21A:  MOVWF  x79
0B21C:  MOVLB  0
0B21E:  CALL   4A36
0B222:  MOVLW  02
0B224:  MOVWF  FE9
0B226:  MOVFF  35C,47C
0B22A:  MOVFF  35B,47B
0B22E:  MOVFF  35A,47A
0B232:  MOVFF  359,479
0B236:  MOVLW  01
0B238:  MOVLB  4
0B23A:  MOVWF  x7D
0B23C:  MOVLB  0
0B23E:  CALL   4BD6
0B242:  MOVLW  3C
0B244:  MOVWF  FF6
0B246:  MOVLW  0F
0B248:  MOVWF  FF7
0B24A:  MOVLW  00
0B24C:  MOVWF  FF8
0B24E:  MOVLW  09
0B250:  MOVLB  4
0B252:  MOVWF  x79
0B254:  MOVLB  0
0B256:  CALL   4A36
0B25A:  MOVFF  3D1,479
0B25E:  MOVLW  01
0B260:  MOVLB  4
0B262:  MOVWF  x7A
0B264:  MOVLB  0
0B266:  CALL   4A94
0B26A:  MOVLW  2F
0B26C:  BTFSS  F9E.4
0B26E:  BRA    B26C
0B270:  MOVWF  FAD
0B272:  MOVFF  3D0,479
0B276:  MOVLW  01
0B278:  MOVLB  4
0B27A:  MOVWF  x7A
0B27C:  MOVLB  0
0B27E:  CALL   4A94
0B282:  MOVLW  2F
0B284:  BTFSS  F9E.4
0B286:  BRA    B284
0B288:  MOVWF  FAD
0B28A:  MOVLW  32
0B28C:  BTFSS  F9E.4
0B28E:  BRA    B28C
0B290:  MOVWF  FAD
0B292:  MOVLW  30
0B294:  BTFSS  F9E.4
0B296:  BRA    B294
0B298:  MOVWF  FAD
0B29A:  MOVFF  3CF,479
0B29E:  MOVLW  01
0B2A0:  MOVLB  4
0B2A2:  MOVWF  x7A
0B2A4:  MOVLB  0
0B2A6:  CALL   4A94
0B2AA:  MOVLW  55
0B2AC:  MOVWF  FF6
0B2AE:  MOVLW  0F
0B2B0:  MOVWF  FF7
0B2B2:  MOVLW  00
0B2B4:  MOVWF  FF8
0B2B6:  MOVLW  07
0B2B8:  MOVLB  4
0B2BA:  MOVWF  x79
0B2BC:  MOVLB  0
0B2BE:  CALL   4A36
0B2C2:  MOVFF  3D2,479
0B2C6:  MOVLW  01
0B2C8:  MOVLB  4
0B2CA:  MOVWF  x7A
0B2CC:  MOVLB  0
0B2CE:  CALL   4A94
0B2D2:  MOVLW  3A
0B2D4:  BTFSS  F9E.4
0B2D6:  BRA    B2D4
0B2D8:  MOVWF  FAD
0B2DA:  MOVFF  3D3,479
0B2DE:  MOVLW  01
0B2E0:  MOVLB  4
0B2E2:  MOVWF  x7A
0B2E4:  MOVLB  0
0B2E6:  CALL   4A94
0B2EA:  MOVLW  3A
0B2EC:  BTFSS  F9E.4
0B2EE:  BRA    B2EC
0B2F0:  MOVWF  FAD
0B2F2:  MOVFF  3D4,479
0B2F6:  MOVLW  01
0B2F8:  MOVLB  4
0B2FA:  MOVWF  x7A
0B2FC:  MOVLB  0
0B2FE:  CALL   4A94
0B302:  MOVLW  22
0B304:  BTFSS  F9E.4
0B306:  BRA    B304
0B308:  MOVWF  FAD
....................       SendDataDisplay(); 
0B30A:  CALL   393E
....................       GuardaEEPROM=OFF; 
0B30E:  BCF    xD3.0
....................        
....................       if(RX_Buffer[4]>0x00 && RX_Buffer[4]<0x04){//Personalizados 
0B310:  MOVF   34,F
0B312:  BTFSC  FD8.2
0B314:  BRA    B542
0B316:  MOVF   34,W
0B318:  SUBLW  03
0B31A:  BTFSS  FD8.0
0B31C:  BRA    B542
....................          printf("ciclo.txt=\"CICLO P%02u\"",RX_Buffer[4]+0x04); 
0B31E:  MOVLW  04
0B320:  ADDWF  34,W
0B322:  MOVLB  4
0B324:  MOVWF  x74
0B326:  MOVLW  6C
0B328:  MOVWF  FF6
0B32A:  MOVLW  0F
0B32C:  MOVWF  FF7
0B32E:  MOVLW  00
0B330:  MOVWF  FF8
0B332:  MOVLW  12
0B334:  MOVWF  x79
0B336:  MOVLB  0
0B338:  CALL   4A36
0B33C:  MOVFF  474,479
0B340:  MOVLW  01
0B342:  MOVLB  4
0B344:  MOVWF  x7A
0B346:  MOVLB  0
0B348:  CALL   4A94
0B34C:  MOVLW  22
0B34E:  BTFSS  F9E.4
0B350:  BRA    B34E
0B352:  MOVWF  FAD
....................          SendDataDisplay();           
0B354:  CALL   393E
....................          printf("temp.txt=\"%u\"",CiclosPersonalizados[RX_Buffer[4]-1].Temperatura); 
0B358:  MOVLW  01
0B35A:  SUBWF  34,W
0B35C:  MULLW  0A
0B35E:  MOVF   FF3,W
0B360:  MOVLB  4
0B362:  CLRF   x75
0B364:  MOVWF  x74
0B366:  MOVLW  4C
0B368:  ADDWF  x74,W
0B36A:  MOVWF  FE9
0B36C:  MOVLW  04
0B36E:  ADDWFC x75,W
0B370:  MOVWF  FEA
0B372:  MOVFF  FEF,474
0B376:  MOVLW  84
0B378:  MOVWF  FF6
0B37A:  MOVLW  0F
0B37C:  MOVWF  FF7
0B37E:  MOVLW  00
0B380:  MOVWF  FF8
0B382:  MOVLW  0A
0B384:  MOVWF  x79
0B386:  MOVLB  0
0B388:  CALL   4A36
0B38C:  MOVFF  474,479
0B390:  MOVLW  1B
0B392:  MOVLB  4
0B394:  MOVWF  x7A
0B396:  MOVLB  0
0B398:  CALL   4A94
0B39C:  MOVLW  22
0B39E:  BTFSS  F9E.4
0B3A0:  BRA    B39E
0B3A2:  MOVWF  FAD
....................          SendDataDisplay(); 
0B3A4:  CALL   393E
....................          printf("test.txt=\"%02u:%02u\"",CiclosPersonalizados[RX_Buffer[4]-1].Minutoest,CiclosPersonalizados[RX_Buffer[4]-1].Segundoest); 
0B3A8:  MOVLW  01
0B3AA:  SUBWF  34,W
0B3AC:  MULLW  0A
0B3AE:  MOVF   FF3,W
0B3B0:  MOVLB  4
0B3B2:  CLRF   x75
0B3B4:  MOVWF  x74
0B3B6:  MOVLW  09
0B3B8:  ADDWF  x74,W
0B3BA:  MOVWF  01
0B3BC:  MOVLW  00
0B3BE:  ADDWFC x75,W
0B3C0:  MOVWF  03
0B3C2:  MOVF   01,W
0B3C4:  ADDLW  4C
0B3C6:  MOVWF  FE9
0B3C8:  MOVLW  04
0B3CA:  ADDWFC 03,W
0B3CC:  MOVWF  FEA
0B3CE:  MOVFF  FEF,474
0B3D2:  MOVLW  01
0B3D4:  SUBWF  34,W
0B3D6:  MULLW  0A
0B3D8:  MOVF   FF3,W
0B3DA:  CLRF   x76
0B3DC:  MOVWF  x75
0B3DE:  MOVLW  03
0B3E0:  ADDWF  x75,W
0B3E2:  MOVWF  01
0B3E4:  MOVLW  00
0B3E6:  ADDWFC x76,W
0B3E8:  MOVWF  03
0B3EA:  MOVF   01,W
0B3EC:  ADDLW  4C
0B3EE:  MOVWF  FE9
0B3F0:  MOVLW  04
0B3F2:  ADDWFC 03,W
0B3F4:  MOVWF  FEA
0B3F6:  MOVFF  FEF,475
0B3FA:  MOVLW  92
0B3FC:  MOVWF  FF6
0B3FE:  MOVLW  0F
0B400:  MOVWF  FF7
0B402:  MOVLW  00
0B404:  MOVWF  FF8
0B406:  MOVLW  0A
0B408:  MOVWF  x79
0B40A:  MOVLB  0
0B40C:  CALL   4A36
0B410:  MOVFF  474,479
0B414:  MOVLW  01
0B416:  MOVLB  4
0B418:  MOVWF  x7A
0B41A:  MOVLB  0
0B41C:  CALL   4A94
0B420:  MOVLW  3A
0B422:  BTFSS  F9E.4
0B424:  BRA    B422
0B426:  MOVWF  FAD
0B428:  MOVFF  475,479
0B42C:  MOVLW  01
0B42E:  MOVLB  4
0B430:  MOVWF  x7A
0B432:  MOVLB  0
0B434:  CALL   4A94
0B438:  MOVLW  22
0B43A:  BTFSS  F9E.4
0B43C:  BRA    B43A
0B43E:  MOVWF  FAD
....................          SendDataDisplay(); 
0B440:  CALL   393E
....................          printf("tsec.txt=\"%02u:%02u\"",CiclosPersonalizados[RX_Buffer[4]-1].Minutosec,CiclosPersonalizados[RX_Buffer[4]-1].Segundosec); 
0B444:  MOVLW  01
0B446:  SUBWF  34,W
0B448:  MULLW  0A
0B44A:  MOVF   FF3,W
0B44C:  MOVLB  4
0B44E:  CLRF   x75
0B450:  MOVWF  x74
0B452:  MOVLW  04
0B454:  ADDWF  x74,W
0B456:  MOVWF  01
0B458:  MOVLW  00
0B45A:  ADDWFC x75,W
0B45C:  MOVWF  03
0B45E:  MOVF   01,W
0B460:  ADDLW  4C
0B462:  MOVWF  FE9
0B464:  MOVLW  04
0B466:  ADDWFC 03,W
0B468:  MOVWF  FEA
0B46A:  MOVFF  FEF,474
0B46E:  MOVLW  01
0B470:  SUBWF  34,W
0B472:  MULLW  0A
0B474:  MOVF   FF3,W
0B476:  CLRF   x76
0B478:  MOVWF  x75
0B47A:  MOVLW  05
0B47C:  ADDWF  x75,W
0B47E:  MOVWF  01
0B480:  MOVLW  00
0B482:  ADDWFC x76,W
0B484:  MOVWF  03
0B486:  MOVF   01,W
0B488:  ADDLW  4C
0B48A:  MOVWF  FE9
0B48C:  MOVLW  04
0B48E:  ADDWFC 03,W
0B490:  MOVWF  FEA
0B492:  MOVFF  FEF,475
0B496:  MOVLW  A8
0B498:  MOVWF  FF6
0B49A:  MOVLW  0F
0B49C:  MOVWF  FF7
0B49E:  MOVLW  00
0B4A0:  MOVWF  FF8
0B4A2:  MOVLW  0A
0B4A4:  MOVWF  x79
0B4A6:  MOVLB  0
0B4A8:  CALL   4A36
0B4AC:  MOVFF  474,479
0B4B0:  MOVLW  01
0B4B2:  MOVLB  4
0B4B4:  MOVWF  x7A
0B4B6:  MOVLB  0
0B4B8:  CALL   4A94
0B4BC:  MOVLW  3A
0B4BE:  BTFSS  F9E.4
0B4C0:  BRA    B4BE
0B4C2:  MOVWF  FAD
0B4C4:  MOVFF  475,479
0B4C8:  MOVLW  01
0B4CA:  MOVLB  4
0B4CC:  MOVWF  x7A
0B4CE:  MOVLB  0
0B4D0:  CALL   4A94
0B4D4:  MOVLW  22
0B4D6:  BTFSS  F9E.4
0B4D8:  BRA    B4D6
0B4DA:  MOVWF  FAD
....................          SendDataDisplay(); 
0B4DC:  CALL   393E
....................          printf("desfogue.txt=\"%u\"",CiclosPersonalizados[RX_Buffer[4]-1].NivelDesfogue); 
0B4E0:  MOVLW  01
0B4E2:  SUBWF  34,W
0B4E4:  MULLW  0A
0B4E6:  MOVF   FF3,W
0B4E8:  MOVLB  4
0B4EA:  CLRF   x75
0B4EC:  MOVWF  x74
0B4EE:  MOVLW  08
0B4F0:  ADDWF  x74,W
0B4F2:  MOVWF  01
0B4F4:  MOVLW  00
0B4F6:  ADDWFC x75,W
0B4F8:  MOVWF  03
0B4FA:  MOVF   01,W
0B4FC:  ADDLW  4C
0B4FE:  MOVWF  FE9
0B500:  MOVLW  04
0B502:  ADDWFC 03,W
0B504:  MOVWF  FEA
0B506:  MOVFF  FEF,474
0B50A:  MOVLW  BE
0B50C:  MOVWF  FF6
0B50E:  MOVLW  0F
0B510:  MOVWF  FF7
0B512:  MOVLW  00
0B514:  MOVWF  FF8
0B516:  MOVLW  0E
0B518:  MOVWF  x79
0B51A:  MOVLB  0
0B51C:  CALL   4A36
0B520:  MOVFF  474,479
0B524:  MOVLW  1B
0B526:  MOVLB  4
0B528:  MOVWF  x7A
0B52A:  MOVLB  0
0B52C:  CALL   4A94
0B530:  MOVLW  22
0B532:  BTFSS  F9E.4
0B534:  BRA    B532
0B536:  MOVWF  FAD
....................          SendDataDisplay(); 
0B538:  CALL   393E
....................          CicloLibre=RX_Buffer[4]; 
0B53C:  MOVFF  34,36F
....................       }else if(CicloLibre==0x00){ 
0B540:  BRA    B7EE
0B542:  MOVLB  3
0B544:  MOVF   x6F,F
0B546:  BNZ   B5B2
....................          printf("ciclo.txt=\"CICLO P--\""); 
0B548:  MOVLW  D0
0B54A:  MOVWF  FF6
0B54C:  MOVLW  0F
0B54E:  MOVWF  FF7
0B550:  MOVLW  00
0B552:  MOVWF  FF8
0B554:  MOVLB  0
0B556:  CALL   390C
....................          SendDataDisplay();           
0B55A:  CALL   393E
....................          printf("temp.txt=\"--\""); 
0B55E:  MOVLW  E6
0B560:  MOVWF  FF6
0B562:  MOVLW  0F
0B564:  MOVWF  FF7
0B566:  MOVLW  00
0B568:  MOVWF  FF8
0B56A:  CALL   390C
....................          SendDataDisplay(); 
0B56E:  CALL   393E
....................          printf("test.txt=\"--:--\""); 
0B572:  MOVLW  F4
0B574:  MOVWF  FF6
0B576:  MOVLW  0F
0B578:  MOVWF  FF7
0B57A:  MOVLW  00
0B57C:  MOVWF  FF8
0B57E:  CALL   390C
....................          SendDataDisplay(); 
0B582:  CALL   393E
....................          printf("tsec.txt=\"--:--\""); 
0B586:  MOVLW  06
0B588:  MOVWF  FF6
0B58A:  MOVLW  10
0B58C:  MOVWF  FF7
0B58E:  MOVLW  00
0B590:  MOVWF  FF8
0B592:  CALL   390C
....................          SendDataDisplay(); 
0B596:  CALL   393E
....................          printf("desfogue.txt=\"--\""); 
0B59A:  MOVLW  18
0B59C:  MOVWF  FF6
0B59E:  MOVLW  10
0B5A0:  MOVWF  FF7
0B5A2:  MOVLW  00
0B5A4:  MOVWF  FF8
0B5A6:  CALL   390C
....................          SendDataDisplay(); 
0B5AA:  CALL   393E
....................       }else if(CicloLibre>0 && CicloLibre<4){ 
0B5AE:  BRA    B7EE
0B5B0:  MOVLB  3
0B5B2:  MOVF   x6F,F
0B5B4:  BTFSC  FD8.2
0B5B6:  BRA    B7F0
0B5B8:  MOVF   x6F,W
0B5BA:  SUBLW  03
0B5BC:  BTFSS  FD8.0
0B5BE:  BRA    B7F0
....................          printf("ciclo.txt=\"CICLO P%02u\"",CicloLibre+0x04); 
0B5C0:  MOVLW  04
0B5C2:  ADDWF  x6F,W
0B5C4:  MOVLB  4
0B5C6:  MOVWF  x74
0B5C8:  MOVLW  2A
0B5CA:  MOVWF  FF6
0B5CC:  MOVLW  10
0B5CE:  MOVWF  FF7
0B5D0:  MOVLW  00
0B5D2:  MOVWF  FF8
0B5D4:  MOVLW  12
0B5D6:  MOVWF  x79
0B5D8:  MOVLB  0
0B5DA:  CALL   4A36
0B5DE:  MOVFF  474,479
0B5E2:  MOVLW  01
0B5E4:  MOVLB  4
0B5E6:  MOVWF  x7A
0B5E8:  MOVLB  0
0B5EA:  CALL   4A94
0B5EE:  MOVLW  22
0B5F0:  BTFSS  F9E.4
0B5F2:  BRA    B5F0
0B5F4:  MOVWF  FAD
....................          SendDataDisplay();           
0B5F6:  CALL   393E
....................          printf("temp.txt=\"%u\"",CiclosPersonalizados[CicloLibre-1].Temperatura); 
0B5FA:  MOVLW  01
0B5FC:  MOVLB  3
0B5FE:  SUBWF  x6F,W
0B600:  MULLW  0A
0B602:  MOVF   FF3,W
0B604:  MOVLB  4
0B606:  CLRF   x75
0B608:  MOVWF  x74
0B60A:  MOVLW  4C
0B60C:  ADDWF  x74,W
0B60E:  MOVWF  FE9
0B610:  MOVLW  04
0B612:  ADDWFC x75,W
0B614:  MOVWF  FEA
0B616:  MOVFF  FEF,474
0B61A:  MOVLW  42
0B61C:  MOVWF  FF6
0B61E:  MOVLW  10
0B620:  MOVWF  FF7
0B622:  MOVLW  00
0B624:  MOVWF  FF8
0B626:  MOVLW  0A
0B628:  MOVWF  x79
0B62A:  MOVLB  0
0B62C:  CALL   4A36
0B630:  MOVFF  474,479
0B634:  MOVLW  1B
0B636:  MOVLB  4
0B638:  MOVWF  x7A
0B63A:  MOVLB  0
0B63C:  CALL   4A94
0B640:  MOVLW  22
0B642:  BTFSS  F9E.4
0B644:  BRA    B642
0B646:  MOVWF  FAD
....................          SendDataDisplay(); 
0B648:  CALL   393E
....................          printf("test.txt=\"%02u:%02u\"",CiclosPersonalizados[CicloLibre-1].Minutoest,CiclosPersonalizados[CicloLibre-1].Segundoest); 
0B64C:  MOVLW  01
0B64E:  MOVLB  3
0B650:  SUBWF  x6F,W
0B652:  MULLW  0A
0B654:  MOVF   FF3,W
0B656:  MOVLB  4
0B658:  CLRF   x75
0B65A:  MOVWF  x74
0B65C:  MOVLW  09
0B65E:  ADDWF  x74,W
0B660:  MOVWF  01
0B662:  MOVLW  00
0B664:  ADDWFC x75,W
0B666:  MOVWF  03
0B668:  MOVF   01,W
0B66A:  ADDLW  4C
0B66C:  MOVWF  FE9
0B66E:  MOVLW  04
0B670:  ADDWFC 03,W
0B672:  MOVWF  FEA
0B674:  MOVFF  FEF,474
0B678:  MOVLW  01
0B67A:  MOVLB  3
0B67C:  SUBWF  x6F,W
0B67E:  MULLW  0A
0B680:  MOVF   FF3,W
0B682:  MOVLB  4
0B684:  CLRF   x76
0B686:  MOVWF  x75
0B688:  MOVLW  03
0B68A:  ADDWF  x75,W
0B68C:  MOVWF  01
0B68E:  MOVLW  00
0B690:  ADDWFC x76,W
0B692:  MOVWF  03
0B694:  MOVF   01,W
0B696:  ADDLW  4C
0B698:  MOVWF  FE9
0B69A:  MOVLW  04
0B69C:  ADDWFC 03,W
0B69E:  MOVWF  FEA
0B6A0:  MOVFF  FEF,475
0B6A4:  MOVLW  50
0B6A6:  MOVWF  FF6
0B6A8:  MOVLW  10
0B6AA:  MOVWF  FF7
0B6AC:  MOVLW  00
0B6AE:  MOVWF  FF8
0B6B0:  MOVLW  0A
0B6B2:  MOVWF  x79
0B6B4:  MOVLB  0
0B6B6:  CALL   4A36
0B6BA:  MOVFF  474,479
0B6BE:  MOVLW  01
0B6C0:  MOVLB  4
0B6C2:  MOVWF  x7A
0B6C4:  MOVLB  0
0B6C6:  CALL   4A94
0B6CA:  MOVLW  3A
0B6CC:  BTFSS  F9E.4
0B6CE:  BRA    B6CC
0B6D0:  MOVWF  FAD
0B6D2:  MOVFF  475,479
0B6D6:  MOVLW  01
0B6D8:  MOVLB  4
0B6DA:  MOVWF  x7A
0B6DC:  MOVLB  0
0B6DE:  CALL   4A94
0B6E2:  MOVLW  22
0B6E4:  BTFSS  F9E.4
0B6E6:  BRA    B6E4
0B6E8:  MOVWF  FAD
....................          SendDataDisplay(); 
0B6EA:  CALL   393E
....................          printf("tsec.txt=\"%02u:%02u\"",CiclosPersonalizados[CicloLibre-1].Minutosec,CiclosPersonalizados[CicloLibre-1].Segundosec); 
0B6EE:  MOVLW  01
0B6F0:  MOVLB  3
0B6F2:  SUBWF  x6F,W
0B6F4:  MULLW  0A
0B6F6:  MOVF   FF3,W
0B6F8:  MOVLB  4
0B6FA:  CLRF   x75
0B6FC:  MOVWF  x74
0B6FE:  MOVLW  04
0B700:  ADDWF  x74,W
0B702:  MOVWF  01
0B704:  MOVLW  00
0B706:  ADDWFC x75,W
0B708:  MOVWF  03
0B70A:  MOVF   01,W
0B70C:  ADDLW  4C
0B70E:  MOVWF  FE9
0B710:  MOVLW  04
0B712:  ADDWFC 03,W
0B714:  MOVWF  FEA
0B716:  MOVFF  FEF,474
0B71A:  MOVLW  01
0B71C:  MOVLB  3
0B71E:  SUBWF  x6F,W
0B720:  MULLW  0A
0B722:  MOVF   FF3,W
0B724:  MOVLB  4
0B726:  CLRF   x76
0B728:  MOVWF  x75
0B72A:  MOVLW  05
0B72C:  ADDWF  x75,W
0B72E:  MOVWF  01
0B730:  MOVLW  00
0B732:  ADDWFC x76,W
0B734:  MOVWF  03
0B736:  MOVF   01,W
0B738:  ADDLW  4C
0B73A:  MOVWF  FE9
0B73C:  MOVLW  04
0B73E:  ADDWFC 03,W
0B740:  MOVWF  FEA
0B742:  MOVFF  FEF,475
0B746:  MOVLW  66
0B748:  MOVWF  FF6
0B74A:  MOVLW  10
0B74C:  MOVWF  FF7
0B74E:  MOVLW  00
0B750:  MOVWF  FF8
0B752:  MOVLW  0A
0B754:  MOVWF  x79
0B756:  MOVLB  0
0B758:  CALL   4A36
0B75C:  MOVFF  474,479
0B760:  MOVLW  01
0B762:  MOVLB  4
0B764:  MOVWF  x7A
0B766:  MOVLB  0
0B768:  CALL   4A94
0B76C:  MOVLW  3A
0B76E:  BTFSS  F9E.4
0B770:  BRA    B76E
0B772:  MOVWF  FAD
0B774:  MOVFF  475,479
0B778:  MOVLW  01
0B77A:  MOVLB  4
0B77C:  MOVWF  x7A
0B77E:  MOVLB  0
0B780:  CALL   4A94
0B784:  MOVLW  22
0B786:  BTFSS  F9E.4
0B788:  BRA    B786
0B78A:  MOVWF  FAD
....................          SendDataDisplay(); 
0B78C:  CALL   393E
....................          printf("desfogue.txt=\"%u\"",CiclosPersonalizados[CicloLibre-1].NivelDesfogue); 
0B790:  MOVLW  01
0B792:  MOVLB  3
0B794:  SUBWF  x6F,W
0B796:  MULLW  0A
0B798:  MOVF   FF3,W
0B79A:  MOVLB  4
0B79C:  CLRF   x75
0B79E:  MOVWF  x74
0B7A0:  MOVLW  08
0B7A2:  ADDWF  x74,W
0B7A4:  MOVWF  01
0B7A6:  MOVLW  00
0B7A8:  ADDWFC x75,W
0B7AA:  MOVWF  03
0B7AC:  MOVF   01,W
0B7AE:  ADDLW  4C
0B7B0:  MOVWF  FE9
0B7B2:  MOVLW  04
0B7B4:  ADDWFC 03,W
0B7B6:  MOVWF  FEA
0B7B8:  MOVFF  FEF,474
0B7BC:  MOVLW  7C
0B7BE:  MOVWF  FF6
0B7C0:  MOVLW  10
0B7C2:  MOVWF  FF7
0B7C4:  MOVLW  00
0B7C6:  MOVWF  FF8
0B7C8:  MOVLW  0E
0B7CA:  MOVWF  x79
0B7CC:  MOVLB  0
0B7CE:  CALL   4A36
0B7D2:  MOVFF  474,479
0B7D6:  MOVLW  1B
0B7D8:  MOVLB  4
0B7DA:  MOVWF  x7A
0B7DC:  MOVLB  0
0B7DE:  CALL   4A94
0B7E2:  MOVLW  22
0B7E4:  BTFSS  F9E.4
0B7E6:  BRA    B7E4
0B7E8:  MOVWF  FAD
....................          SendDataDisplay(); 
0B7EA:  CALL   393E
0B7EE:  MOVLB  3
....................       } 
....................        
....................       if(RIGHT){ 
0B7F0:  BSF    F93.1
0B7F2:  BTFSC  F81.1
0B7F4:  BRA    B80C
....................          delay_ms(100); 
0B7F6:  MOVLW  64
0B7F8:  MOVLB  4
0B7FA:  MOVWF  x8D
0B7FC:  MOVLB  0
0B7FE:  CALL   1B28
....................          if(RIGHT){ 
0B802:  BSF    F93.1
0B804:  BTFSC  F81.1
0B806:  BRA    B80E
....................             CicloLibre++; 
0B808:  MOVLB  3
0B80A:  INCF   x6F,F
0B80C:  MOVLB  0
....................          } 
....................       }       
....................        
....................       if(CicloLibre<1) 
0B80E:  MOVLB  3
0B810:  MOVF   x6F,F
0B812:  BNZ   B818
....................          CicloLibre=1; 
0B814:  MOVLW  01
0B816:  MOVWF  x6F
....................       if(CicloLibre>4) 
0B818:  MOVF   x6F,W
0B81A:  SUBLW  04
0B81C:  BC    B822
....................          CicloLibre=4; 
0B81E:  MOVLW  04
0B820:  MOVWF  x6F
....................        
....................       if(RX_Buffer[4]==0xa0 || LEFT){//a0, Menu Principal 
0B822:  MOVF   34,W
0B824:  SUBLW  A0
0B826:  BZ    B82E
0B828:  BSF    F93.0
0B82A:  BTFSC  F81.0
0B82C:  BRA    B866
....................          delay_ms(100); 
0B82E:  MOVLW  64
0B830:  MOVLB  4
0B832:  MOVWF  x8D
0B834:  MOVLB  0
0B836:  CALL   1B28
....................          if(RX_Buffer[4]==0xa0 || LEFT){ 
0B83A:  MOVF   34,W
0B83C:  SUBLW  A0
0B83E:  BZ    B846
0B840:  BSF    F93.0
0B842:  BTFSC  F81.0
0B844:  BRA    B864
....................             printf("page MenuPrincipal"); 
0B846:  MOVLW  8E
0B848:  MOVWF  FF6
0B84A:  MOVLW  10
0B84C:  MOVWF  FF7
0B84E:  MOVLW  00
0B850:  MOVWF  FF8
0B852:  CALL   390C
....................             SendDataDisplay();      
0B856:  CALL   393E
....................             PantallaPrincipal=0; 
0B85A:  MOVLB  3
0B85C:  CLRF   x0D
....................             Op=OFF; 
0B85E:  MOVLB  0
0B860:  BCF    xD2.4
....................             Op2=OFF; 
0B862:  BCF    xD2.5
0B864:  MOVLB  3
....................          } 
....................       } 
....................        
....................       if(RX_Buffer[4]==0x20 && CicloLibre>0){//20, Temperatura 
0B866:  MOVF   34,W
0B868:  SUBLW  20
0B86A:  BNZ   B8A8
0B86C:  MOVF   x6F,F
0B86E:  BZ    B8A8
....................             printf("page Temperatura"); 
0B870:  MOVLW  A2
0B872:  MOVWF  FF6
0B874:  MOVLW  10
0B876:  MOVWF  FF7
0B878:  MOVLW  00
0B87A:  MOVWF  FF8
0B87C:  MOVLB  0
0B87E:  CALL   390C
....................             SendDataDisplay();      
0B882:  CALL   393E
....................             Setpoint=CiclosPersonalizados[CicloLibre-1].Temperatura; 
0B886:  MOVLW  01
0B888:  MOVLB  3
0B88A:  SUBWF  x6F,W
0B88C:  MULLW  0A
0B88E:  MOVF   FF3,W
0B890:  MOVLB  4
0B892:  CLRF   x75
0B894:  MOVWF  x74
0B896:  MOVLW  4C
0B898:  ADDWF  x74,W
0B89A:  MOVWF  FE9
0B89C:  MOVLW  04
0B89E:  ADDWFC x75,W
0B8A0:  MOVWF  FEA
0B8A2:  MOVFF  FEF,396
0B8A6:  MOVLB  3
....................       } 
....................        
....................       if(RX_Buffer[4]==0x30 && CicloLibre>0){//30, Test 
0B8A8:  MOVF   34,W
0B8AA:  SUBLW  30
0B8AC:  BTFSS  FD8.2
0B8AE:  BRA    B9CA
0B8B0:  MOVF   x6F,F
0B8B2:  BTFSC  FD8.2
0B8B4:  BRA    B9CA
....................             printf("page TiempoEst"); 
0B8B6:  MOVLW  B4
0B8B8:  MOVWF  FF6
0B8BA:  MOVLW  10
0B8BC:  MOVWF  FF7
0B8BE:  MOVLW  00
0B8C0:  MOVWF  FF8
0B8C2:  MOVLB  0
0B8C4:  CALL   390C
....................             SendDataDisplay();      
0B8C8:  CALL   393E
....................             Testerilizacionp[3]=CiclosPersonalizados[CicloLibre-1].Minutoest/10; 
0B8CC:  MOVLW  01
0B8CE:  MOVLB  3
0B8D0:  SUBWF  x6F,W
0B8D2:  MULLW  0A
0B8D4:  MOVF   FF3,W
0B8D6:  MOVLB  4
0B8D8:  CLRF   x75
0B8DA:  MOVWF  x74
0B8DC:  MOVLW  09
0B8DE:  ADDWF  x74,W
0B8E0:  MOVWF  01
0B8E2:  MOVLW  00
0B8E4:  ADDWFC x75,W
0B8E6:  MOVWF  03
0B8E8:  MOVF   01,W
0B8EA:  ADDLW  4C
0B8EC:  MOVWF  FE9
0B8EE:  MOVLW  04
0B8F0:  ADDWFC 03,W
0B8F2:  MOVWF  FEA
0B8F4:  MOVFF  FEF,47E
0B8F8:  MOVLW  0A
0B8FA:  MOVWF  x7F
0B8FC:  MOVLB  0
0B8FE:  CALL   4A68
0B902:  MOVFF  01,E9
....................             Testerilizacionp[2]=CiclosPersonalizados[CicloLibre-1].Minutoest-(Testerilizacionp[3]*10); 
0B906:  MOVLW  01
0B908:  MOVLB  3
0B90A:  SUBWF  x6F,W
0B90C:  MULLW  0A
0B90E:  MOVF   FF3,W
0B910:  MOVLB  4
0B912:  CLRF   x75
0B914:  MOVWF  x74
0B916:  MOVLW  09
0B918:  ADDWF  x74,W
0B91A:  MOVWF  01
0B91C:  MOVLW  00
0B91E:  ADDWFC x75,W
0B920:  MOVWF  03
0B922:  MOVF   01,W
0B924:  ADDLW  4C
0B926:  MOVWF  FE9
0B928:  MOVLW  04
0B92A:  ADDWFC 03,W
0B92C:  MOVWF  FEA
0B92E:  MOVFF  FEF,474
0B932:  MOVFF  E9,476
0B936:  MOVLW  0A
0B938:  MOVWF  x77
0B93A:  MOVLB  0
0B93C:  CALL   2DC0
0B940:  MOVF   01,W
0B942:  MOVLB  4
0B944:  SUBWF  x74,W
0B946:  MOVLB  0
0B948:  MOVWF  xE8
....................             Testerilizacionp[1]=CiclosPersonalizados[CicloLibre-1].Segundoest/10; 
0B94A:  MOVLW  01
0B94C:  MOVLB  3
0B94E:  SUBWF  x6F,W
0B950:  MULLW  0A
0B952:  MOVF   FF3,W
0B954:  MOVLB  4
0B956:  CLRF   x75
0B958:  MOVWF  x74
0B95A:  MOVLW  03
0B95C:  ADDWF  x74,W
0B95E:  MOVWF  01
0B960:  MOVLW  00
0B962:  ADDWFC x75,W
0B964:  MOVWF  03
0B966:  MOVF   01,W
0B968:  ADDLW  4C
0B96A:  MOVWF  FE9
0B96C:  MOVLW  04
0B96E:  ADDWFC 03,W
0B970:  MOVWF  FEA
0B972:  MOVFF  FEF,47E
0B976:  MOVLW  0A
0B978:  MOVWF  x7F
0B97A:  MOVLB  0
0B97C:  CALL   4A68
0B980:  MOVFF  01,E7
....................             Testerilizacionp[0]=CiclosPersonalizados[CicloLibre-1].Segundoest-(Testerilizacionp[1]*10); 
0B984:  MOVLW  01
0B986:  MOVLB  3
0B988:  SUBWF  x6F,W
0B98A:  MULLW  0A
0B98C:  MOVF   FF3,W
0B98E:  MOVLB  4
0B990:  CLRF   x75
0B992:  MOVWF  x74
0B994:  MOVLW  03
0B996:  ADDWF  x74,W
0B998:  MOVWF  01
0B99A:  MOVLW  00
0B99C:  ADDWFC x75,W
0B99E:  MOVWF  03
0B9A0:  MOVF   01,W
0B9A2:  ADDLW  4C
0B9A4:  MOVWF  FE9
0B9A6:  MOVLW  04
0B9A8:  ADDWFC 03,W
0B9AA:  MOVWF  FEA
0B9AC:  MOVFF  FEF,474
0B9B0:  MOVFF  E7,476
0B9B4:  MOVLW  0A
0B9B6:  MOVWF  x77
0B9B8:  MOVLB  0
0B9BA:  CALL   2DC0
0B9BE:  MOVF   01,W
0B9C0:  MOVLB  4
0B9C2:  SUBWF  x74,W
0B9C4:  MOVLB  0
0B9C6:  MOVWF  xE6
0B9C8:  MOVLB  3
....................       } 
....................        
....................       if(RX_Buffer[4]==0x40 && CicloLibre>0){//30, Test 
0B9CA:  MOVF   34,W
0B9CC:  SUBLW  40
0B9CE:  BTFSS  FD8.2
0B9D0:  BRA    BAEC
0B9D2:  MOVF   x6F,F
0B9D4:  BTFSC  FD8.2
0B9D6:  BRA    BAEC
....................             printf("page TiempoSec"); 
0B9D8:  MOVLW  C4
0B9DA:  MOVWF  FF6
0B9DC:  MOVLW  10
0B9DE:  MOVWF  FF7
0B9E0:  MOVLW  00
0B9E2:  MOVWF  FF8
0B9E4:  MOVLB  0
0B9E6:  CALL   390C
....................             SendDataDisplay();      
0B9EA:  CALL   393E
....................             Tsecadop[3]=CiclosPersonalizados[CicloLibre-1].Minutosec/10; 
0B9EE:  MOVLW  01
0B9F0:  MOVLB  3
0B9F2:  SUBWF  x6F,W
0B9F4:  MULLW  0A
0B9F6:  MOVF   FF3,W
0B9F8:  MOVLB  4
0B9FA:  CLRF   x75
0B9FC:  MOVWF  x74
0B9FE:  MOVLW  04
0BA00:  ADDWF  x74,W
0BA02:  MOVWF  01
0BA04:  MOVLW  00
0BA06:  ADDWFC x75,W
0BA08:  MOVWF  03
0BA0A:  MOVF   01,W
0BA0C:  ADDLW  4C
0BA0E:  MOVWF  FE9
0BA10:  MOVLW  04
0BA12:  ADDWFC 03,W
0BA14:  MOVWF  FEA
0BA16:  MOVFF  FEF,47E
0BA1A:  MOVLW  0A
0BA1C:  MOVWF  x7F
0BA1E:  MOVLB  0
0BA20:  CALL   4A68
0BA24:  MOVFF  01,F2
....................             Tsecadop[2]=CiclosPersonalizados[CicloLibre-1].Minutosec-(Tsecadop[3]*10); 
0BA28:  MOVLW  01
0BA2A:  MOVLB  3
0BA2C:  SUBWF  x6F,W
0BA2E:  MULLW  0A
0BA30:  MOVF   FF3,W
0BA32:  MOVLB  4
0BA34:  CLRF   x75
0BA36:  MOVWF  x74
0BA38:  MOVLW  04
0BA3A:  ADDWF  x74,W
0BA3C:  MOVWF  01
0BA3E:  MOVLW  00
0BA40:  ADDWFC x75,W
0BA42:  MOVWF  03
0BA44:  MOVF   01,W
0BA46:  ADDLW  4C
0BA48:  MOVWF  FE9
0BA4A:  MOVLW  04
0BA4C:  ADDWFC 03,W
0BA4E:  MOVWF  FEA
0BA50:  MOVFF  FEF,474
0BA54:  MOVFF  F2,476
0BA58:  MOVLW  0A
0BA5A:  MOVWF  x77
0BA5C:  MOVLB  0
0BA5E:  CALL   2DC0
0BA62:  MOVF   01,W
0BA64:  MOVLB  4
0BA66:  SUBWF  x74,W
0BA68:  MOVLB  0
0BA6A:  MOVWF  xF1
....................             Tsecadop[1]=CiclosPersonalizados[CicloLibre-1].Segundosec/10; 
0BA6C:  MOVLW  01
0BA6E:  MOVLB  3
0BA70:  SUBWF  x6F,W
0BA72:  MULLW  0A
0BA74:  MOVF   FF3,W
0BA76:  MOVLB  4
0BA78:  CLRF   x75
0BA7A:  MOVWF  x74
0BA7C:  MOVLW  05
0BA7E:  ADDWF  x74,W
0BA80:  MOVWF  01
0BA82:  MOVLW  00
0BA84:  ADDWFC x75,W
0BA86:  MOVWF  03
0BA88:  MOVF   01,W
0BA8A:  ADDLW  4C
0BA8C:  MOVWF  FE9
0BA8E:  MOVLW  04
0BA90:  ADDWFC 03,W
0BA92:  MOVWF  FEA
0BA94:  MOVFF  FEF,47E
0BA98:  MOVLW  0A
0BA9A:  MOVWF  x7F
0BA9C:  MOVLB  0
0BA9E:  CALL   4A68
0BAA2:  MOVFF  01,F0
....................             Tsecadop[0]=CiclosPersonalizados[CicloLibre-1].Segundosec-(Tsecadop[1]*10); 
0BAA6:  MOVLW  01
0BAA8:  MOVLB  3
0BAAA:  SUBWF  x6F,W
0BAAC:  MULLW  0A
0BAAE:  MOVF   FF3,W
0BAB0:  MOVLB  4
0BAB2:  CLRF   x75
0BAB4:  MOVWF  x74
0BAB6:  MOVLW  05
0BAB8:  ADDWF  x74,W
0BABA:  MOVWF  01
0BABC:  MOVLW  00
0BABE:  ADDWFC x75,W
0BAC0:  MOVWF  03
0BAC2:  MOVF   01,W
0BAC4:  ADDLW  4C
0BAC6:  MOVWF  FE9
0BAC8:  MOVLW  04
0BACA:  ADDWFC 03,W
0BACC:  MOVWF  FEA
0BACE:  MOVFF  FEF,474
0BAD2:  MOVFF  F0,476
0BAD6:  MOVLW  0A
0BAD8:  MOVWF  x77
0BADA:  MOVLB  0
0BADC:  CALL   2DC0
0BAE0:  MOVF   01,W
0BAE2:  MOVLB  4
0BAE4:  SUBWF  x74,W
0BAE6:  MOVLB  0
0BAE8:  MOVWF  xEF
0BAEA:  MOVLB  3
....................       } 
....................        
....................       if(RX_Buffer[4]==0x80 && CicloLibre>0){//80, NivelDesfogue          
0BAEC:  MOVF   34,W
0BAEE:  SUBLW  80
0BAF0:  BNZ   BB40
0BAF2:  MOVF   x6F,F
0BAF4:  BZ    BB40
....................             printf("page Nivel"); 
0BAF6:  MOVLW  D4
0BAF8:  MOVWF  FF6
0BAFA:  MOVLW  10
0BAFC:  MOVWF  FF7
0BAFE:  MOVLW  00
0BB00:  MOVWF  FF8
0BB02:  MOVLB  0
0BB04:  CALL   390C
....................             SendDataDisplay();      
0BB08:  CALL   393E
....................             Nivel=CiclosPersonalizados[CicloLibre-1].NivelDesfogue;          
0BB0C:  MOVLW  01
0BB0E:  MOVLB  3
0BB10:  SUBWF  x6F,W
0BB12:  MULLW  0A
0BB14:  MOVF   FF3,W
0BB16:  MOVLB  4
0BB18:  CLRF   x75
0BB1A:  MOVWF  x74
0BB1C:  MOVLW  08
0BB1E:  ADDWF  x74,W
0BB20:  MOVWF  01
0BB22:  MOVLW  00
0BB24:  ADDWFC x75,W
0BB26:  MOVWF  03
0BB28:  MOVF   01,W
0BB2A:  ADDLW  4C
0BB2C:  MOVWF  FE9
0BB2E:  MOVLW  04
0BB30:  ADDWFC 03,W
0BB32:  MOVWF  FEA
0BB34:  MOVF   FEF,W
0BB36:  CLRF   03
0BB38:  MOVLB  3
0BB3A:  MOVWF  xA4
0BB3C:  MOVFF  03,3A5
....................       } 
....................        
....................       if((RX_Buffer[4]==0x70 || UP)&& CicloLibre>0){//70, Iniciar Ciclo 
0BB40:  MOVF   34,W
0BB42:  SUBLW  70
0BB44:  BZ    BB4C
0BB46:  BSF    F93.3
0BB48:  BTFSC  F81.3
0BB4A:  BRA    C062
0BB4C:  MOVF   x6F,F
0BB4E:  BTFSC  FD8.2
0BB50:  BRA    C062
....................          delay_ms(100); 
0BB52:  MOVLW  64
0BB54:  MOVLB  4
0BB56:  MOVWF  x8D
0BB58:  MOVLB  0
0BB5A:  CALL   1B28
....................          if((RX_Buffer[4]==0x70 || UP)&& CicloLibre>0){ 
0BB5E:  MOVF   34,W
0BB60:  SUBLW  70
0BB62:  BZ    BB6A
0BB64:  BSF    F93.3
0BB66:  BTFSC  F81.3
0BB68:  BRA    C060
0BB6A:  MOVLB  3
0BB6C:  MOVF   x6F,F
0BB6E:  BTFSS  FD8.2
0BB70:  BRA    BB76
0BB72:  MOVLB  0
0BB74:  BRA    C060
....................             printf("page Funcionamiento"); 
0BB76:  MOVLW  E0
0BB78:  MOVWF  FF6
0BB7A:  MOVLW  10
0BB7C:  MOVWF  FF7
0BB7E:  MOVLW  00
0BB80:  MOVWF  FF8
0BB82:  MOVLB  0
0BB84:  CALL   390C
....................             SendDataDisplay();        
0BB88:  CALL   393E
....................             Libre=ON; 
0BB8C:  BSF    xD4.0
....................             if(CiclosPersonalizados[CicloLibre-1].NivelDesfogue>5){ 
0BB8E:  MOVLW  01
0BB90:  MOVLB  3
0BB92:  SUBWF  x6F,W
0BB94:  MULLW  0A
0BB96:  MOVF   FF3,W
0BB98:  MOVLB  4
0BB9A:  CLRF   x75
0BB9C:  MOVWF  x74
0BB9E:  MOVLW  08
0BBA0:  ADDWF  x74,W
0BBA2:  MOVWF  01
0BBA4:  MOVLW  00
0BBA6:  ADDWFC x75,W
0BBA8:  MOVWF  03
0BBAA:  MOVF   01,W
0BBAC:  ADDLW  4C
0BBAE:  MOVWF  FE9
0BBB0:  MOVLW  04
0BBB2:  ADDWFC 03,W
0BBB4:  MOVWF  FEA
0BBB6:  MOVF   FEF,W
0BBB8:  SUBLW  05
0BBBA:  BTFSC  FD8.0
0BBBC:  BRA    BDEC
....................                ConfiguraCiclo(extraeDecima(CiclosPersonalizados[CicloLibre-1].Segundoest), 
....................                            CiclosPersonalizados[CicloLibre-1].Segundoest/10, 
....................                            extraeDecima(CiclosPersonalizados[CicloLibre-1].Minutoest), 
....................                            CiclosPersonalizados[CicloLibre-1].Minutoest/10, 
....................                            extraeDecima(CiclosPersonalizados[CicloLibre-1].Segundosec), 
....................                            CiclosPersonalizados[CicloLibre-1].Segundosec/10, 
....................                            extraeDecima(CiclosPersonalizados[CicloLibre-1].Minutosec), 
....................                            CiclosPersonalizados[CicloLibre-1].Minutosec/10,0,CicloLibre+4,CiclosPersonalizados[CicloLibre-1].Temperatura);             
0BBBE:  MOVLW  01
0BBC0:  MOVLB  3
0BBC2:  SUBWF  x6F,W
0BBC4:  MULLW  0A
0BBC6:  MOVF   FF3,W
0BBC8:  MOVLB  4
0BBCA:  CLRF   x75
0BBCC:  MOVWF  x74
0BBCE:  MOVLW  03
0BBD0:  ADDWF  x74,W
0BBD2:  MOVWF  01
0BBD4:  MOVLW  00
0BBD6:  ADDWFC x75,W
0BBD8:  MOVWF  03
0BBDA:  MOVF   01,W
0BBDC:  ADDLW  4C
0BBDE:  MOVWF  FE9
0BBE0:  MOVLW  04
0BBE2:  ADDWFC 03,W
0BBE4:  MOVWF  FEA
0BBE6:  MOVFF  FEF,474
0BBEA:  MOVFF  474,47B
0BBEE:  MOVLB  0
0BBF0:  CALL   5666
0BBF4:  MOVFF  01,474
0BBF8:  MOVLW  01
0BBFA:  MOVLB  3
0BBFC:  SUBWF  x6F,W
0BBFE:  MULLW  0A
0BC00:  MOVF   FF3,W
0BC02:  MOVLB  4
0BC04:  CLRF   x76
0BC06:  MOVWF  x75
0BC08:  MOVLW  03
0BC0A:  ADDWF  x75,W
0BC0C:  MOVWF  01
0BC0E:  MOVLW  00
0BC10:  ADDWFC x76,W
0BC12:  MOVWF  03
0BC14:  MOVF   01,W
0BC16:  ADDLW  4C
0BC18:  MOVWF  FE9
0BC1A:  MOVLW  04
0BC1C:  ADDWFC 03,W
0BC1E:  MOVWF  FEA
0BC20:  MOVFF  FEF,47E
0BC24:  MOVLW  0A
0BC26:  MOVWF  x7F
0BC28:  MOVLB  0
0BC2A:  CALL   4A68
0BC2E:  MOVFF  01,475
0BC32:  MOVLW  01
0BC34:  MOVLB  3
0BC36:  SUBWF  x6F,W
0BC38:  MULLW  0A
0BC3A:  MOVF   FF3,W
0BC3C:  MOVLB  4
0BC3E:  CLRF   x77
0BC40:  MOVWF  x76
0BC42:  MOVLW  09
0BC44:  ADDWF  x76,W
0BC46:  MOVWF  01
0BC48:  MOVLW  00
0BC4A:  ADDWFC x77,W
0BC4C:  MOVWF  03
0BC4E:  MOVF   01,W
0BC50:  ADDLW  4C
0BC52:  MOVWF  FE9
0BC54:  MOVLW  04
0BC56:  ADDWFC 03,W
0BC58:  MOVWF  FEA
0BC5A:  MOVFF  FEF,476
0BC5E:  MOVFF  476,47B
0BC62:  MOVLB  0
0BC64:  CALL   5666
0BC68:  MOVFF  01,476
0BC6C:  MOVLW  01
0BC6E:  MOVLB  3
0BC70:  SUBWF  x6F,W
0BC72:  MULLW  0A
0BC74:  MOVF   FF3,W
0BC76:  MOVLB  4
0BC78:  CLRF   x78
0BC7A:  MOVWF  x77
0BC7C:  MOVLW  09
0BC7E:  ADDWF  x77,W
0BC80:  MOVWF  01
0BC82:  MOVLW  00
0BC84:  ADDWFC x78,W
0BC86:  MOVWF  03
0BC88:  MOVF   01,W
0BC8A:  ADDLW  4C
0BC8C:  MOVWF  FE9
0BC8E:  MOVLW  04
0BC90:  ADDWFC 03,W
0BC92:  MOVWF  FEA
0BC94:  MOVFF  FEF,47E
0BC98:  MOVLW  0A
0BC9A:  MOVWF  x7F
0BC9C:  MOVLB  0
0BC9E:  CALL   4A68
0BCA2:  MOVFF  01,477
0BCA6:  MOVLW  01
0BCA8:  MOVLB  3
0BCAA:  SUBWF  x6F,W
0BCAC:  MULLW  0A
0BCAE:  MOVF   FF3,W
0BCB0:  MOVLB  4
0BCB2:  CLRF   x79
0BCB4:  MOVWF  x78
0BCB6:  MOVLW  05
0BCB8:  ADDWF  x78,W
0BCBA:  MOVWF  01
0BCBC:  MOVLW  00
0BCBE:  ADDWFC x79,W
0BCC0:  MOVWF  03
0BCC2:  MOVF   01,W
0BCC4:  ADDLW  4C
0BCC6:  MOVWF  FE9
0BCC8:  MOVLW  04
0BCCA:  ADDWFC 03,W
0BCCC:  MOVWF  FEA
0BCCE:  MOVFF  FEF,478
0BCD2:  MOVFF  478,47B
0BCD6:  MOVLB  0
0BCD8:  CALL   5666
0BCDC:  MOVFF  01,478
0BCE0:  MOVLW  01
0BCE2:  MOVLB  3
0BCE4:  SUBWF  x6F,W
0BCE6:  MULLW  0A
0BCE8:  MOVF   FF3,W
0BCEA:  MOVLB  4
0BCEC:  CLRF   x7A
0BCEE:  MOVWF  x79
0BCF0:  MOVLW  05
0BCF2:  ADDWF  x79,W
0BCF4:  MOVWF  01
0BCF6:  MOVLW  00
0BCF8:  ADDWFC x7A,W
0BCFA:  MOVWF  03
0BCFC:  MOVF   01,W
0BCFE:  ADDLW  4C
0BD00:  MOVWF  FE9
0BD02:  MOVLW  04
0BD04:  ADDWFC 03,W
0BD06:  MOVWF  FEA
0BD08:  MOVFF  FEF,47E
0BD0C:  MOVLW  0A
0BD0E:  MOVWF  x7F
0BD10:  MOVLB  0
0BD12:  CALL   4A68
0BD16:  MOVFF  01,479
0BD1A:  MOVLW  01
0BD1C:  MOVLB  3
0BD1E:  SUBWF  x6F,W
0BD20:  MULLW  0A
0BD22:  MOVF   FF3,W
0BD24:  MOVLB  4
0BD26:  CLRF   x7B
0BD28:  MOVWF  x7A
0BD2A:  MOVLW  04
0BD2C:  ADDWF  x7A,W
0BD2E:  MOVWF  01
0BD30:  MOVLW  00
0BD32:  ADDWFC x7B,W
0BD34:  MOVWF  03
0BD36:  MOVF   01,W
0BD38:  ADDLW  4C
0BD3A:  MOVWF  FE9
0BD3C:  MOVLW  04
0BD3E:  ADDWFC 03,W
0BD40:  MOVWF  FEA
0BD42:  MOVFF  FEF,47A
0BD46:  MOVFF  47A,47B
0BD4A:  MOVLB  0
0BD4C:  CALL   5666
0BD50:  MOVFF  01,47A
0BD54:  MOVLW  01
0BD56:  MOVLB  3
0BD58:  SUBWF  x6F,W
0BD5A:  MULLW  0A
0BD5C:  MOVF   FF3,W
0BD5E:  MOVLB  4
0BD60:  CLRF   x7C
0BD62:  MOVWF  x7B
0BD64:  MOVLW  04
0BD66:  ADDWF  x7B,W
0BD68:  MOVWF  01
0BD6A:  MOVLW  00
0BD6C:  ADDWFC x7C,W
0BD6E:  MOVWF  03
0BD70:  MOVF   01,W
0BD72:  ADDLW  4C
0BD74:  MOVWF  FE9
0BD76:  MOVLW  04
0BD78:  ADDWFC 03,W
0BD7A:  MOVWF  FEA
0BD7C:  MOVFF  FEF,47E
0BD80:  MOVLW  0A
0BD82:  MOVWF  x7F
0BD84:  MOVLB  0
0BD86:  CALL   4A68
0BD8A:  MOVFF  01,47B
0BD8E:  MOVLW  04
0BD90:  MOVLB  3
0BD92:  ADDWF  x6F,W
0BD94:  MOVLB  4
0BD96:  MOVWF  x7C
0BD98:  MOVLW  01
0BD9A:  MOVLB  3
0BD9C:  SUBWF  x6F,W
0BD9E:  MULLW  0A
0BDA0:  MOVF   FF3,W
0BDA2:  MOVLB  4
0BDA4:  CLRF   x7E
0BDA6:  MOVWF  x7D
0BDA8:  MOVLW  4C
0BDAA:  ADDWF  x7D,W
0BDAC:  MOVWF  FE9
0BDAE:  MOVLW  04
0BDB0:  ADDWFC x7E,W
0BDB2:  MOVWF  FEA
0BDB4:  MOVFF  FEF,47D
0BDB8:  MOVFF  474,47E
0BDBC:  MOVFF  475,47F
0BDC0:  MOVFF  476,480
0BDC4:  MOVFF  477,481
0BDC8:  MOVFF  478,482
0BDCC:  MOVFF  479,483
0BDD0:  MOVFF  47A,484
0BDD4:  MOVFF  01,485
0BDD8:  CLRF   x86
0BDDA:  MOVFF  47C,487
0BDDE:  MOVFF  47D,488
0BDE2:  MOVLB  0
0BDE4:  CALL   5412
....................             }else{ 
0BDE8:  BRA    C060
0BDEA:  MOVLB  4
....................                ConfiguraCiclo(extraeDecima(CiclosPersonalizados[CicloLibre-1].Segundoest), 
....................                            CiclosPersonalizados[CicloLibre-1].Segundoest/10, 
....................                            extraeDecima(CiclosPersonalizados[CicloLibre-1].Minutoest), 
....................                            CiclosPersonalizados[CicloLibre-1].Minutoest/10, 
....................                            extraeDecima(CiclosPersonalizados[CicloLibre-1].Segundosec), 
....................                            CiclosPersonalizados[CicloLibre-1].Segundosec/10, 
....................                            extraeDecima(CiclosPersonalizados[CicloLibre-1].Minutosec), 
....................                            CiclosPersonalizados[CicloLibre-1].Minutosec/10,1,CicloLibre+4,CiclosPersonalizados[CicloLibre-1].Temperatura);             
0BDEC:  MOVLW  01
0BDEE:  MOVLB  3
0BDF0:  SUBWF  x6F,W
0BDF2:  MULLW  0A
0BDF4:  MOVF   FF3,W
0BDF6:  MOVLB  4
0BDF8:  CLRF   x75
0BDFA:  MOVWF  x74
0BDFC:  MOVLW  03
0BDFE:  ADDWF  x74,W
0BE00:  MOVWF  01
0BE02:  MOVLW  00
0BE04:  ADDWFC x75,W
0BE06:  MOVWF  03
0BE08:  MOVF   01,W
0BE0A:  ADDLW  4C
0BE0C:  MOVWF  FE9
0BE0E:  MOVLW  04
0BE10:  ADDWFC 03,W
0BE12:  MOVWF  FEA
0BE14:  MOVFF  FEF,474
0BE18:  MOVFF  474,47B
0BE1C:  MOVLB  0
0BE1E:  CALL   5666
0BE22:  MOVFF  01,474
0BE26:  MOVLW  01
0BE28:  MOVLB  3
0BE2A:  SUBWF  x6F,W
0BE2C:  MULLW  0A
0BE2E:  MOVF   FF3,W
0BE30:  MOVLB  4
0BE32:  CLRF   x76
0BE34:  MOVWF  x75
0BE36:  MOVLW  03
0BE38:  ADDWF  x75,W
0BE3A:  MOVWF  01
0BE3C:  MOVLW  00
0BE3E:  ADDWFC x76,W
0BE40:  MOVWF  03
0BE42:  MOVF   01,W
0BE44:  ADDLW  4C
0BE46:  MOVWF  FE9
0BE48:  MOVLW  04
0BE4A:  ADDWFC 03,W
0BE4C:  MOVWF  FEA
0BE4E:  MOVFF  FEF,47E
0BE52:  MOVLW  0A
0BE54:  MOVWF  x7F
0BE56:  MOVLB  0
0BE58:  CALL   4A68
0BE5C:  MOVFF  01,475
0BE60:  MOVLW  01
0BE62:  MOVLB  3
0BE64:  SUBWF  x6F,W
0BE66:  MULLW  0A
0BE68:  MOVF   FF3,W
0BE6A:  MOVLB  4
0BE6C:  CLRF   x77
0BE6E:  MOVWF  x76
0BE70:  MOVLW  09
0BE72:  ADDWF  x76,W
0BE74:  MOVWF  01
0BE76:  MOVLW  00
0BE78:  ADDWFC x77,W
0BE7A:  MOVWF  03
0BE7C:  MOVF   01,W
0BE7E:  ADDLW  4C
0BE80:  MOVWF  FE9
0BE82:  MOVLW  04
0BE84:  ADDWFC 03,W
0BE86:  MOVWF  FEA
0BE88:  MOVFF  FEF,476
0BE8C:  MOVFF  476,47B
0BE90:  MOVLB  0
0BE92:  CALL   5666
0BE96:  MOVFF  01,476
0BE9A:  MOVLW  01
0BE9C:  MOVLB  3
0BE9E:  SUBWF  x6F,W
0BEA0:  MULLW  0A
0BEA2:  MOVF   FF3,W
0BEA4:  MOVLB  4
0BEA6:  CLRF   x78
0BEA8:  MOVWF  x77
0BEAA:  MOVLW  09
0BEAC:  ADDWF  x77,W
0BEAE:  MOVWF  01
0BEB0:  MOVLW  00
0BEB2:  ADDWFC x78,W
0BEB4:  MOVWF  03
0BEB6:  MOVF   01,W
0BEB8:  ADDLW  4C
0BEBA:  MOVWF  FE9
0BEBC:  MOVLW  04
0BEBE:  ADDWFC 03,W
0BEC0:  MOVWF  FEA
0BEC2:  MOVFF  FEF,47E
0BEC6:  MOVLW  0A
0BEC8:  MOVWF  x7F
0BECA:  MOVLB  0
0BECC:  CALL   4A68
0BED0:  MOVFF  01,477
0BED4:  MOVLW  01
0BED6:  MOVLB  3
0BED8:  SUBWF  x6F,W
0BEDA:  MULLW  0A
0BEDC:  MOVF   FF3,W
0BEDE:  MOVLB  4
0BEE0:  CLRF   x79
0BEE2:  MOVWF  x78
0BEE4:  MOVLW  05
0BEE6:  ADDWF  x78,W
0BEE8:  MOVWF  01
0BEEA:  MOVLW  00
0BEEC:  ADDWFC x79,W
0BEEE:  MOVWF  03
0BEF0:  MOVF   01,W
0BEF2:  ADDLW  4C
0BEF4:  MOVWF  FE9
0BEF6:  MOVLW  04
0BEF8:  ADDWFC 03,W
0BEFA:  MOVWF  FEA
0BEFC:  MOVFF  FEF,478
0BF00:  MOVFF  478,47B
0BF04:  MOVLB  0
0BF06:  CALL   5666
0BF0A:  MOVFF  01,478
0BF0E:  MOVLW  01
0BF10:  MOVLB  3
0BF12:  SUBWF  x6F,W
0BF14:  MULLW  0A
0BF16:  MOVF   FF3,W
0BF18:  MOVLB  4
0BF1A:  CLRF   x7A
0BF1C:  MOVWF  x79
0BF1E:  MOVLW  05
0BF20:  ADDWF  x79,W
0BF22:  MOVWF  01
0BF24:  MOVLW  00
0BF26:  ADDWFC x7A,W
0BF28:  MOVWF  03
0BF2A:  MOVF   01,W
0BF2C:  ADDLW  4C
0BF2E:  MOVWF  FE9
0BF30:  MOVLW  04
0BF32:  ADDWFC 03,W
0BF34:  MOVWF  FEA
0BF36:  MOVFF  FEF,47E
0BF3A:  MOVLW  0A
0BF3C:  MOVWF  x7F
0BF3E:  MOVLB  0
0BF40:  CALL   4A68
0BF44:  MOVFF  01,479
0BF48:  MOVLW  01
0BF4A:  MOVLB  3
0BF4C:  SUBWF  x6F,W
0BF4E:  MULLW  0A
0BF50:  MOVF   FF3,W
0BF52:  MOVLB  4
0BF54:  CLRF   x7B
0BF56:  MOVWF  x7A
0BF58:  MOVLW  04
0BF5A:  ADDWF  x7A,W
0BF5C:  MOVWF  01
0BF5E:  MOVLW  00
0BF60:  ADDWFC x7B,W
0BF62:  MOVWF  03
0BF64:  MOVF   01,W
0BF66:  ADDLW  4C
0BF68:  MOVWF  FE9
0BF6A:  MOVLW  04
0BF6C:  ADDWFC 03,W
0BF6E:  MOVWF  FEA
0BF70:  MOVFF  FEF,47A
0BF74:  MOVFF  47A,47B
0BF78:  MOVLB  0
0BF7A:  CALL   5666
0BF7E:  MOVFF  01,47A
0BF82:  MOVLW  01
0BF84:  MOVLB  3
0BF86:  SUBWF  x6F,W
0BF88:  MULLW  0A
0BF8A:  MOVF   FF3,W
0BF8C:  MOVLB  4
0BF8E:  CLRF   x7C
0BF90:  MOVWF  x7B
0BF92:  MOVLW  04
0BF94:  ADDWF  x7B,W
0BF96:  MOVWF  01
0BF98:  MOVLW  00
0BF9A:  ADDWFC x7C,W
0BF9C:  MOVWF  03
0BF9E:  MOVF   01,W
0BFA0:  ADDLW  4C
0BFA2:  MOVWF  FE9
0BFA4:  MOVLW  04
0BFA6:  ADDWFC 03,W
0BFA8:  MOVWF  FEA
0BFAA:  MOVFF  FEF,47E
0BFAE:  MOVLW  0A
0BFB0:  MOVWF  x7F
0BFB2:  MOVLB  0
0BFB4:  CALL   4A68
0BFB8:  MOVFF  01,47B
0BFBC:  MOVLW  04
0BFBE:  MOVLB  3
0BFC0:  ADDWF  x6F,W
0BFC2:  MOVLB  4
0BFC4:  MOVWF  x7C
0BFC6:  MOVLW  01
0BFC8:  MOVLB  3
0BFCA:  SUBWF  x6F,W
0BFCC:  MULLW  0A
0BFCE:  MOVF   FF3,W
0BFD0:  MOVLB  4
0BFD2:  CLRF   x7E
0BFD4:  MOVWF  x7D
0BFD6:  MOVLW  4C
0BFD8:  ADDWF  x7D,W
0BFDA:  MOVWF  FE9
0BFDC:  MOVLW  04
0BFDE:  ADDWFC x7E,W
0BFE0:  MOVWF  FEA
0BFE2:  MOVFF  FEF,47D
0BFE6:  MOVFF  474,47E
0BFEA:  MOVFF  475,47F
0BFEE:  MOVFF  476,480
0BFF2:  MOVFF  477,481
0BFF6:  MOVFF  478,482
0BFFA:  MOVFF  479,483
0BFFE:  MOVFF  47A,484
0C002:  MOVFF  01,485
0C006:  MOVLW  01
0C008:  MOVWF  x86
0C00A:  MOVFF  47C,487
0C00E:  MOVFF  47D,488
0C012:  MOVLB  0
0C014:  CALL   5412
....................                NivelSeleccionado=4995*CiclosPersonalizados[CicloLibre-1].NivelDesfogue; 
0C018:  MOVLW  01
0C01A:  MOVLB  3
0C01C:  SUBWF  x6F,W
0C01E:  MULLW  0A
0C020:  MOVF   FF3,W
0C022:  MOVLB  4
0C024:  CLRF   x75
0C026:  MOVWF  x74
0C028:  MOVLW  08
0C02A:  ADDWF  x74,W
0C02C:  MOVWF  01
0C02E:  MOVLW  00
0C030:  ADDWFC x75,W
0C032:  MOVWF  03
0C034:  MOVF   01,W
0C036:  ADDLW  4C
0C038:  MOVWF  FE9
0C03A:  MOVLW  04
0C03C:  ADDWFC 03,W
0C03E:  MOVWF  FEA
0C040:  MOVFF  FEF,474
0C044:  MOVLW  13
0C046:  MOVWF  x90
0C048:  MOVLW  83
0C04A:  MOVWF  x8F
0C04C:  CLRF   x92
0C04E:  MOVFF  474,491
0C052:  MOVLB  0
0C054:  CALL   39EA
0C058:  MOVFF  02,3AF
0C05C:  MOVFF  01,3AE
0C060:  MOVLB  3
....................             } 
....................          } 
....................       } 
....................    } 
.................... //_--------------------------------------------------------------------------------------------------------------------------------------------------------        
....................  
.................... //_--------------------------------------------------------------------------------------------------------------------------------------------------------       
....................    if(Menu==12){//Menu de Visualizacion de Ciclos Realizados 
0C062:  MOVF   x8F,W
0C064:  SUBLW  0C
0C066:  BTFSS  FD8.2
0C068:  BRA    C5BA
....................       //printf("fecha.txt=\"Fecha:%02u/%02u/20%02u    Hora: %02u:%02u\"",Dia,Mes,Year,Hora,Minuto); 
....................       //SendDataDisplay(); 
....................       GuardaEEPROM=OFF; 
0C06A:  MOVLB  0
0C06C:  BCF    xD3.0
....................       /*  
....................       i2c_start();            // Comienzo de la comunicacin 
....................       i2c_write(0xA0);   // Direccin del esclavo en el bus I2C 
....................       i2c_write(9);    // Posicin de donde se leer el dato en el esclavo 
....................       i2c_write(0);    // Posicin de donde se leer el dato en el esclavo 
....................       i2c_start();            // Reinicio 
....................       i2c_write(direccion+1); // Direccin del esclavo en modo lectura 
....................       dato=i2c_read(0);       // Lectura del dato 
....................       i2c_stop(); 
....................       */       
....................        
....................       if(RX_Buffer[6]==0x01){//01, Ciclos 
0C06E:  DECFSZ 36,W
0C070:  BRA    C086
....................          printf("page MenuPrincipal"); 
0C072:  MOVLW  F4
0C074:  MOVWF  FF6
0C076:  MOVLW  10
0C078:  MOVWF  FF7
0C07A:  MOVLW  00
0C07C:  MOVWF  FF8
0C07E:  CALL   390C
....................          SendDataDisplay();      
0C082:  CALL   393E
....................       } 
....................        
....................       if(RX_Buffer[6]==0x02 || LEFT){//02, Izquierda 
0C086:  MOVF   36,W
0C088:  SUBLW  02
0C08A:  BZ    C092
0C08C:  BSF    F93.0
0C08E:  BTFSC  F81.0
0C090:  BRA    C0E0
....................          RX_Buffer[6]=0x00;   
0C092:  CLRF   36
....................          RX_Buffer2[6]=0x00; 
0C094:  CLRF   41
....................          if(cicloVisto>0) 
0C096:  MOVLB  3
0C098:  MOVF   x12,F
0C09A:  BZ    C09E
....................             cicloVisto--; 
0C09C:  DECF   x12,F
....................          printf("h0.val=%u",cicloVisto+1); 
0C09E:  MOVLW  01
0C0A0:  ADDWF  x12,W
0C0A2:  MOVLB  4
0C0A4:  MOVWF  x74
0C0A6:  MOVLW  08
0C0A8:  MOVWF  FF6
0C0AA:  MOVLW  11
0C0AC:  MOVWF  FF7
0C0AE:  MOVLW  00
0C0B0:  MOVWF  FF8
0C0B2:  MOVLW  07
0C0B4:  MOVWF  x79
0C0B6:  MOVLB  0
0C0B8:  CALL   4A36
0C0BC:  MOVFF  474,479
0C0C0:  MOVLW  1B
0C0C2:  MOVLB  4
0C0C4:  MOVWF  x7A
0C0C6:  MOVLB  0
0C0C8:  CALL   4A94
....................          SendDataDisplay();      
0C0CC:  CALL   393E
....................          actualizaTabla(); 
0C0D0:  CALL   578E
....................          delay_ms(100); 
0C0D4:  MOVLW  64
0C0D6:  MOVLB  4
0C0D8:  MOVWF  x8D
0C0DA:  MOVLB  0
0C0DC:  CALL   1B28
....................       } 
....................        
....................       if(RX_Buffer[6]==0x03 || UP){//03, Arriba 
0C0E0:  MOVF   36,W
0C0E2:  SUBLW  03
0C0E4:  BZ    C0EC
0C0E6:  BSF    F93.3
0C0E8:  BTFSC  F81.3
0C0EA:  BRA    C13C
....................          RX_Buffer[6]=0x00;   
0C0EC:  CLRF   36
....................          RX_Buffer2[6]=0x00; 
0C0EE:  CLRF   41
....................          if(cicloVisualizado<28) 
0C0F0:  MOVLB  3
0C0F2:  MOVF   x13,W
0C0F4:  SUBLW  1B
0C0F6:  BNC   C0FA
....................             cicloVisualizado++; 
0C0F8:  INCF   x13,F
....................          printf("h1.val=%u",cicloVisualizado+1); 
0C0FA:  MOVLW  01
0C0FC:  ADDWF  x13,W
0C0FE:  MOVLB  4
0C100:  MOVWF  x74
0C102:  MOVLW  12
0C104:  MOVWF  FF6
0C106:  MOVLW  11
0C108:  MOVWF  FF7
0C10A:  MOVLW  00
0C10C:  MOVWF  FF8
0C10E:  MOVLW  07
0C110:  MOVWF  x79
0C112:  MOVLB  0
0C114:  CALL   4A36
0C118:  MOVFF  474,479
0C11C:  MOVLW  1B
0C11E:  MOVLB  4
0C120:  MOVWF  x7A
0C122:  MOVLB  0
0C124:  CALL   4A94
....................          SendDataDisplay();     
0C128:  CALL   393E
....................          actualizaTabla(); 
0C12C:  CALL   578E
....................          delay_ms(100); 
0C130:  MOVLW  64
0C132:  MOVLB  4
0C134:  MOVWF  x8D
0C136:  MOVLB  0
0C138:  CALL   1B28
....................          //exportarData(); 
....................       } 
....................        
....................       if(RX_Buffer[6]==0x04 || DOWN){//04, Abajo 
0C13C:  MOVF   36,W
0C13E:  SUBLW  04
0C140:  BZ    C148
0C142:  BSF    F93.2
0C144:  BTFSC  F81.2
0C146:  BRA    C196
....................          RX_Buffer[6]=0x00;   
0C148:  CLRF   36
....................          RX_Buffer2[6]=0x00; 
0C14A:  CLRF   41
....................          if(cicloVisualizado>0) 
0C14C:  MOVLB  3
0C14E:  MOVF   x13,F
0C150:  BZ    C154
....................             cicloVisualizado--; 
0C152:  DECF   x13,F
....................          printf("h1.val=%u",cicloVisualizado+1); 
0C154:  MOVLW  01
0C156:  ADDWF  x13,W
0C158:  MOVLB  4
0C15A:  MOVWF  x74
0C15C:  MOVLW  1C
0C15E:  MOVWF  FF6
0C160:  MOVLW  11
0C162:  MOVWF  FF7
0C164:  MOVLW  00
0C166:  MOVWF  FF8
0C168:  MOVLW  07
0C16A:  MOVWF  x79
0C16C:  MOVLB  0
0C16E:  CALL   4A36
0C172:  MOVFF  474,479
0C176:  MOVLW  1B
0C178:  MOVLB  4
0C17A:  MOVWF  x7A
0C17C:  MOVLB  0
0C17E:  CALL   4A94
....................          SendDataDisplay();   
0C182:  CALL   393E
....................          actualizaTabla(); 
0C186:  CALL   578E
....................          delay_ms(100); 
0C18A:  MOVLW  64
0C18C:  MOVLB  4
0C18E:  MOVWF  x8D
0C190:  MOVLB  0
0C192:  CALL   1B28
....................          //exportarData(); 
....................       } 
....................        
....................       if(RX_Buffer[6]==0x05 || RIGHT){//05, Derecha 
0C196:  MOVF   36,W
0C198:  SUBLW  05
0C19A:  BZ    C1A2
0C19C:  BSF    F93.1
0C19E:  BTFSC  F81.1
0C1A0:  BRA    C1F2
....................          RX_Buffer[6]=0x00;   
0C1A2:  CLRF   36
....................          RX_Buffer2[6]=0x00; 
0C1A4:  CLRF   41
....................          if(cicloVisto<200) 
0C1A6:  MOVLB  3
0C1A8:  MOVF   x12,W
0C1AA:  SUBLW  C7
0C1AC:  BNC   C1B0
....................             cicloVisto++; 
0C1AE:  INCF   x12,F
....................          printf("h0.val=%u",cicloVisto+1); 
0C1B0:  MOVLW  01
0C1B2:  ADDWF  x12,W
0C1B4:  MOVLB  4
0C1B6:  MOVWF  x74
0C1B8:  MOVLW  26
0C1BA:  MOVWF  FF6
0C1BC:  MOVLW  11
0C1BE:  MOVWF  FF7
0C1C0:  MOVLW  00
0C1C2:  MOVWF  FF8
0C1C4:  MOVLW  07
0C1C6:  MOVWF  x79
0C1C8:  MOVLB  0
0C1CA:  CALL   4A36
0C1CE:  MOVFF  474,479
0C1D2:  MOVLW  1B
0C1D4:  MOVLB  4
0C1D6:  MOVWF  x7A
0C1D8:  MOVLB  0
0C1DA:  CALL   4A94
....................          SendDataDisplay();   
0C1DE:  CALL   393E
....................          actualizaTabla(); 
0C1E2:  CALL   578E
....................          delay_ms(100); 
0C1E6:  MOVLW  64
0C1E8:  MOVLB  4
0C1EA:  MOVWF  x8D
0C1EC:  MOVLB  0
0C1EE:  CALL   1B28
....................          //exportarData(); 
....................       } 
....................        
....................       if(RX_Buffer[6]==0x06){//06, Imprime 
0C1F2:  MOVF   36,W
0C1F4:  SUBLW  06
0C1F6:  BNZ   C214
....................          RX_Buffer[6]=0x00;   
0C1F8:  CLRF   36
....................          RX_Buffer2[6]=0x00; 
0C1FA:  CLRF   41
....................          printf("t0.txt=\"!IMPRIMIENDO!\""); 
0C1FC:  MOVLW  30
0C1FE:  MOVWF  FF6
0C200:  MOVLW  11
0C202:  MOVWF  FF7
0C204:  MOVLW  00
0C206:  MOVWF  FF8
0C208:  CALL   390C
....................          SendDataDisplay();  
0C20C:  CALL   393E
....................          exportarData(); 
0C210:  GOTO   5E10
....................       } 
....................        
....................       if(RX_Buffer[4]>0x00 || RX_Buffer[5]>0x00){ 
0C214:  MOVF   34,F
0C216:  BNZ   C21C
0C218:  MOVF   35,F
0C21A:  BZ    C238
....................          cicloVisualizado=RX_Buffer[4]-1; 
0C21C:  MOVLW  01
0C21E:  SUBWF  34,W
0C220:  MOVLB  3
0C222:  MOVWF  x13
....................          cicloVisto=RX_Buffer[5]-1; 
0C224:  MOVLW  01
0C226:  SUBWF  35,W
0C228:  MOVWF  x12
....................          RX_Buffer[4]=0x00; 
0C22A:  CLRF   34
....................          RX_Buffer[5]=0x00; 
0C22C:  CLRF   35
....................          RX_Buffer2[4]=0x00; 
0C22E:  CLRF   3F
....................          RX_Buffer2[5]=0x00; 
0C230:  CLRF   40
....................          actualizaTabla(); 
0C232:  MOVLB  0
0C234:  CALL   578E
....................       } 
....................        
....................       //Imprime Valores Estaticos 
....................       printf("fecha.txt=\"%02u/%02u/%02u\"",diaCiclos,mesCiclos,yearCiclos); 
0C238:  MOVLW  48
0C23A:  MOVWF  FF6
0C23C:  MOVLW  11
0C23E:  MOVWF  FF7
0C240:  MOVLW  00
0C242:  MOVWF  FF8
0C244:  MOVLW  0B
0C246:  MOVLB  4
0C248:  MOVWF  x79
0C24A:  MOVLB  0
0C24C:  CALL   4A36
0C250:  MOVFF  3FA,479
0C254:  MOVLW  01
0C256:  MOVLB  4
0C258:  MOVWF  x7A
0C25A:  MOVLB  0
0C25C:  CALL   4A94
0C260:  MOVLW  2F
0C262:  BTFSS  F9E.4
0C264:  BRA    C262
0C266:  MOVWF  FAD
0C268:  MOVFF  3FB,479
0C26C:  MOVLW  01
0C26E:  MOVLB  4
0C270:  MOVWF  x7A
0C272:  MOVLB  0
0C274:  CALL   4A94
0C278:  MOVLW  2F
0C27A:  BTFSS  F9E.4
0C27C:  BRA    C27A
0C27E:  MOVWF  FAD
0C280:  MOVFF  3FC,479
0C284:  MOVLW  01
0C286:  MOVLB  4
0C288:  MOVWF  x7A
0C28A:  MOVLB  0
0C28C:  CALL   4A94
0C290:  MOVLW  22
0C292:  BTFSS  F9E.4
0C294:  BRA    C292
0C296:  MOVWF  FAD
....................       SendDataDisplay(); 
0C298:  CALL   393E
....................        
....................       printf("ciclo.txt=\"%02u\"",cicloCiclos); 
0C29C:  MOVLW  64
0C29E:  MOVWF  FF6
0C2A0:  MOVLW  11
0C2A2:  MOVWF  FF7
0C2A4:  MOVLW  00
0C2A6:  MOVWF  FF8
0C2A8:  MOVLW  0B
0C2AA:  MOVLB  4
0C2AC:  MOVWF  x79
0C2AE:  MOVLB  0
0C2B0:  CALL   4A36
0C2B4:  MOVFF  3FE,479
0C2B8:  MOVLW  01
0C2BA:  MOVLB  4
0C2BC:  MOVWF  x7A
0C2BE:  MOVLB  0
0C2C0:  CALL   4A94
0C2C4:  MOVLW  22
0C2C6:  BTFSS  F9E.4
0C2C8:  BRA    C2C6
0C2CA:  MOVWF  FAD
....................       SendDataDisplay(); 
0C2CC:  CALL   393E
....................        
....................       printf("t0.txt=\"Ciclo %02u\"",cicloVisto); 
0C2D0:  MOVLW  76
0C2D2:  MOVWF  FF6
0C2D4:  MOVLW  11
0C2D6:  MOVWF  FF7
0C2D8:  MOVLW  00
0C2DA:  MOVWF  FF8
0C2DC:  MOVLW  0E
0C2DE:  MOVLB  4
0C2E0:  MOVWF  x79
0C2E2:  MOVLB  0
0C2E4:  CALL   4A36
0C2E8:  MOVFF  312,479
0C2EC:  MOVLW  01
0C2EE:  MOVLB  4
0C2F0:  MOVWF  x7A
0C2F2:  MOVLB  0
0C2F4:  CALL   4A94
0C2F8:  MOVLW  22
0C2FA:  BTFSS  F9E.4
0C2FC:  BRA    C2FA
0C2FE:  MOVWF  FAD
....................       SendDataDisplay(); 
0C300:  CALL   393E
....................        
....................       printf("usuario.txt=\"---\""); 
0C304:  MOVLW  8A
0C306:  MOVWF  FF6
0C308:  MOVLW  11
0C30A:  MOVWF  FF7
0C30C:  MOVLW  00
0C30E:  MOVWF  FF8
0C310:  CALL   390C
....................       SendDataDisplay(); 
0C314:  CALL   393E
....................        
....................       //Imprime Valores Dinamicos 
....................       for(i=0;i<7;i++){ 
0C318:  MOVLB  3
0C31A:  CLRF   x92
0C31C:  MOVF   x92,W
0C31E:  SUBLW  06
0C320:  BTFSS  FD8.0
0C322:  BRA    C5BA
....................          printf("hora%u.txt=\"%02u.  %02u:%02u\"",i+1,cicloVisualizado+i+1,horaCiclos[i],minutoCiclos[i]); 
0C324:  MOVLW  01
0C326:  ADDWF  x92,W
0C328:  MOVLB  4
0C32A:  MOVWF  x74
0C32C:  MOVLB  3
0C32E:  MOVF   x92,W
0C330:  ADDWF  x13,W
0C332:  ADDLW  01
0C334:  MOVLB  4
0C336:  MOVWF  x75
0C338:  CLRF   03
0C33A:  MOVLB  3
0C33C:  MOVF   x92,W
0C33E:  ADDLW  37
0C340:  MOVWF  FE9
0C342:  MOVLW  04
0C344:  ADDWFC 03,W
0C346:  MOVWF  FEA
0C348:  MOVFF  FEF,476
0C34C:  CLRF   03
0C34E:  MOVF   x92,W
0C350:  ADDLW  3E
0C352:  MOVWF  FE9
0C354:  MOVLW  04
0C356:  ADDWFC 03,W
0C358:  MOVWF  FEA
0C35A:  MOVFF  FEF,477
0C35E:  MOVLW  9C
0C360:  MOVWF  FF6
0C362:  MOVLW  11
0C364:  MOVWF  FF7
0C366:  MOVLW  00
0C368:  MOVWF  FF8
0C36A:  MOVLW  04
0C36C:  MOVLB  4
0C36E:  MOVWF  x79
0C370:  MOVLB  0
0C372:  CALL   4A36
0C376:  MOVFF  474,479
0C37A:  MOVLW  1B
0C37C:  MOVLB  4
0C37E:  MOVWF  x7A
0C380:  MOVLB  0
0C382:  CALL   4A94
0C386:  MOVLW  A2
0C388:  MOVWF  FF6
0C38A:  MOVLW  11
0C38C:  MOVWF  FF7
0C38E:  MOVLW  00
0C390:  MOVWF  FF8
0C392:  MOVLW  06
0C394:  MOVLB  4
0C396:  MOVWF  x79
0C398:  MOVLB  0
0C39A:  CALL   4A36
0C39E:  MOVFF  475,479
0C3A2:  MOVLW  01
0C3A4:  MOVLB  4
0C3A6:  MOVWF  x7A
0C3A8:  MOVLB  0
0C3AA:  CALL   4A94
0C3AE:  MOVLW  2E
0C3B0:  BTFSS  F9E.4
0C3B2:  BRA    C3B0
0C3B4:  MOVWF  FAD
0C3B6:  MOVLW  20
0C3B8:  BTFSS  F9E.4
0C3BA:  BRA    C3B8
0C3BC:  MOVWF  FAD
0C3BE:  MOVLW  20
0C3C0:  BTFSS  F9E.4
0C3C2:  BRA    C3C0
0C3C4:  MOVWF  FAD
0C3C6:  MOVFF  476,479
0C3CA:  MOVLW  01
0C3CC:  MOVLB  4
0C3CE:  MOVWF  x7A
0C3D0:  MOVLB  0
0C3D2:  CALL   4A94
0C3D6:  MOVLW  3A
0C3D8:  BTFSS  F9E.4
0C3DA:  BRA    C3D8
0C3DC:  MOVWF  FAD
0C3DE:  MOVFF  477,479
0C3E2:  MOVLW  01
0C3E4:  MOVLB  4
0C3E6:  MOVWF  x7A
0C3E8:  MOVLB  0
0C3EA:  CALL   4A94
0C3EE:  MOVLW  22
0C3F0:  BTFSS  F9E.4
0C3F2:  BRA    C3F0
0C3F4:  MOVWF  FAD
....................          SendDataDisplay(); 
0C3F6:  CALL   393E
....................          printf("T%u.txt=\"%3.1fC\"",i+1,TCiclos[i]); 
0C3FA:  MOVLW  01
0C3FC:  MOVLB  3
0C3FE:  ADDWF  x92,W
0C400:  MOVLB  4
0C402:  MOVWF  x74
0C404:  MOVLB  3
0C406:  MOVF   x92,W
0C408:  MULLW  04
0C40A:  MOVF   FF3,W
0C40C:  CLRF   03
0C40E:  ADDLW  FF
0C410:  MOVWF  FE9
0C412:  MOVLW  03
0C414:  ADDWFC 03,W
0C416:  MOVWF  FEA
0C418:  MOVFF  FEF,475
0C41C:  MOVFF  FEC,476
0C420:  MOVFF  FEC,477
0C424:  MOVFF  FEC,478
0C428:  MOVLW  54
0C42A:  BTFSS  F9E.4
0C42C:  BRA    C42A
0C42E:  MOVWF  FAD
0C430:  MOVFF  474,479
0C434:  MOVLW  1B
0C436:  MOVLB  4
0C438:  MOVWF  x7A
0C43A:  MOVLB  0
0C43C:  CALL   4A94
0C440:  MOVLW  BD
0C442:  MOVWF  FF6
0C444:  MOVLW  11
0C446:  MOVWF  FF7
0C448:  MOVLW  00
0C44A:  MOVWF  FF8
0C44C:  MOVLW  06
0C44E:  MOVLB  4
0C450:  MOVWF  x79
0C452:  MOVLB  0
0C454:  CALL   4A36
0C458:  MOVLW  02
0C45A:  MOVWF  FE9
0C45C:  MOVFF  478,47C
0C460:  MOVFF  477,47B
0C464:  MOVFF  476,47A
0C468:  MOVFF  475,479
0C46C:  MOVLW  01
0C46E:  MOVLB  4
0C470:  MOVWF  x7D
0C472:  MOVLB  0
0C474:  CALL   4BD6
0C478:  MOVLW  B0
0C47A:  BTFSS  F9E.4
0C47C:  BRA    C47A
0C47E:  MOVWF  FAD
0C480:  MOVLW  43
0C482:  BTFSS  F9E.4
0C484:  BRA    C482
0C486:  MOVWF  FAD
0C488:  MOVLW  22
0C48A:  BTFSS  F9E.4
0C48C:  BRA    C48A
0C48E:  MOVWF  FAD
....................          SendDataDisplay(); 
0C490:  CALL   393E
....................          printf("Pc%u.txt=\"%03LukPa\"",i+1,PcCiclos[i]); 
0C494:  MOVLW  01
0C496:  MOVLB  3
0C498:  ADDWF  x92,W
0C49A:  MOVLB  4
0C49C:  MOVWF  x74
0C49E:  BCF    FD8.0
0C4A0:  MOVLB  3
0C4A2:  RLCF   x92,W
0C4A4:  CLRF   03
0C4A6:  ADDLW  1B
0C4A8:  MOVWF  FE9
0C4AA:  MOVLW  04
0C4AC:  ADDWFC 03,W
0C4AE:  MOVWF  FEA
0C4B0:  MOVFF  FEC,476
0C4B4:  MOVF   FED,F
0C4B6:  MOVFF  FEF,475
0C4BA:  MOVLW  50
0C4BC:  BTFSS  F9E.4
0C4BE:  BRA    C4BC
0C4C0:  MOVWF  FAD
0C4C2:  MOVLW  63
0C4C4:  BTFSS  F9E.4
0C4C6:  BRA    C4C4
0C4C8:  MOVWF  FAD
0C4CA:  MOVFF  474,479
0C4CE:  MOVLW  1B
0C4D0:  MOVLB  4
0C4D2:  MOVWF  x7A
0C4D4:  MOVLB  0
0C4D6:  CALL   4A94
0C4DA:  MOVLW  D0
0C4DC:  MOVWF  FF6
0C4DE:  MOVLW  11
0C4E0:  MOVWF  FF7
0C4E2:  MOVLW  00
0C4E4:  MOVWF  FF8
0C4E6:  MOVLW  06
0C4E8:  MOVLB  4
0C4EA:  MOVWF  x79
0C4EC:  MOVLB  0
0C4EE:  CALL   4A36
0C4F2:  MOVLW  0A
0C4F4:  MOVWF  FE9
0C4F6:  MOVFF  476,479
0C4FA:  MOVFF  475,478
0C4FE:  CALL   54D2
0C502:  MOVLW  DB
0C504:  MOVWF  FF6
0C506:  MOVLW  11
0C508:  MOVWF  FF7
0C50A:  MOVLW  00
0C50C:  MOVWF  FF8
0C50E:  MOVLW  04
0C510:  MOVLB  4
0C512:  MOVWF  x79
0C514:  MOVLB  0
0C516:  CALL   4A36
....................          SendDataDisplay(); 
0C51A:  CALL   393E
....................          printf("Ppc%u.txt=\"%03LukPa\"",i+1,PpcCiclos[i]); 
0C51E:  MOVLW  01
0C520:  MOVLB  3
0C522:  ADDWF  x92,W
0C524:  MOVLB  4
0C526:  MOVWF  x74
0C528:  BCF    FD8.0
0C52A:  MOVLB  3
0C52C:  RLCF   x92,W
0C52E:  CLRF   03
0C530:  ADDLW  29
0C532:  MOVWF  FE9
0C534:  MOVLW  04
0C536:  ADDWFC 03,W
0C538:  MOVWF  FEA
0C53A:  MOVFF  FEC,476
0C53E:  MOVF   FED,F
0C540:  MOVFF  FEF,475
0C544:  MOVLW  50
0C546:  BTFSS  F9E.4
0C548:  BRA    C546
0C54A:  MOVWF  FAD
0C54C:  MOVLW  70
0C54E:  BTFSS  F9E.4
0C550:  BRA    C54E
0C552:  MOVWF  FAD
0C554:  MOVLW  63
0C556:  BTFSS  F9E.4
0C558:  BRA    C556
0C55A:  MOVWF  FAD
0C55C:  MOVFF  474,479
0C560:  MOVLW  1B
0C562:  MOVLB  4
0C564:  MOVWF  x7A
0C566:  MOVLB  0
0C568:  CALL   4A94
0C56C:  MOVLW  E5
0C56E:  MOVWF  FF6
0C570:  MOVLW  11
0C572:  MOVWF  FF7
0C574:  MOVLW  00
0C576:  MOVWF  FF8
0C578:  MOVLW  06
0C57A:  MOVLB  4
0C57C:  MOVWF  x79
0C57E:  MOVLB  0
0C580:  CALL   4A36
0C584:  MOVLW  0A
0C586:  MOVWF  FE9
0C588:  MOVFF  476,479
0C58C:  MOVFF  475,478
0C590:  CALL   54D2
0C594:  MOVLW  F0
0C596:  MOVWF  FF6
0C598:  MOVLW  11
0C59A:  MOVWF  FF7
0C59C:  MOVLW  00
0C59E:  MOVWF  FF8
0C5A0:  MOVLW  04
0C5A2:  MOVLB  4
0C5A4:  MOVWF  x79
0C5A6:  MOVLB  0
0C5A8:  CALL   4A36
....................          SendDataDisplay();          
0C5AC:  CALL   393E
....................          codificaAlarma(); 
0C5B0:  GOTO   61B4
....................       }   
0C5B4:  MOVLB  3
0C5B6:  INCF   x92,F
0C5B8:  BRA    C31C
....................    } 
.................... //_--------------------------------------------------------------------------------------------------------------------------------------------------------       
....................  
.................... //_--------------------------------------------------------------------------------------------------------------------------------------------------------       
....................     if(Menu==15){//Menu de Clave Correcta 
0C5BA:  MOVF   x8F,W
0C5BC:  SUBLW  0F
0C5BE:  BNZ   C5F6
....................       if(!entro){ 
0C5C0:  MOVLB  0
0C5C2:  BTFSC  xD4.2
0C5C4:  BRA    C5E0
....................          delay_ms(2000); 
0C5C6:  MOVLW  08
0C5C8:  MOVLB  4
0C5CA:  MOVWF  x74
0C5CC:  MOVLW  FA
0C5CE:  MOVWF  x8D
0C5D0:  MOVLB  0
0C5D2:  CALL   1B28
0C5D6:  MOVLB  4
0C5D8:  DECFSZ x74,F
0C5DA:  BRA    C5CC
....................          entro=ON; 
0C5DC:  MOVLB  0
0C5DE:  BSF    xD4.2
....................       } 
....................       printf("page MenuPrincipal"); 
0C5E0:  MOVLW  F6
0C5E2:  MOVWF  FF6
0C5E4:  MOVLW  11
0C5E6:  MOVWF  FF7
0C5E8:  MOVLW  00
0C5EA:  MOVWF  FF8
0C5EC:  CALL   390C
....................       SendDataDisplay(); 
0C5F0:  CALL   393E
0C5F4:  MOVLB  3
....................    } 
.................... //_--------------------------------------------------------------------------------------------------------------------------------------------------------       
....................  
.................... //_--------------------------------------------------------------------------------------------------------------------------------------------------------       
....................     if(Menu==16){//Menu de Clave InCorrecta 
0C5F6:  MOVF   x8F,W
0C5F8:  SUBLW  10
0C5FA:  BNZ   C632
....................       if(!entro){ 
0C5FC:  MOVLB  0
0C5FE:  BTFSC  xD4.2
0C600:  BRA    C61C
....................          delay_ms(2000); 
0C602:  MOVLW  08
0C604:  MOVLB  4
0C606:  MOVWF  x74
0C608:  MOVLW  FA
0C60A:  MOVWF  x8D
0C60C:  MOVLB  0
0C60E:  CALL   1B28
0C612:  MOVLB  4
0C614:  DECFSZ x74,F
0C616:  BRA    C608
....................          entro=ON; 
0C618:  MOVLB  0
0C61A:  BSF    xD4.2
....................       } 
....................       printf("page Clave"); 
0C61C:  MOVLW  0A
0C61E:  MOVWF  FF6
0C620:  MOVLW  12
0C622:  MOVWF  FF7
0C624:  MOVLW  00
0C626:  MOVWF  FF8
0C628:  CALL   390C
....................       SendDataDisplay(); 
0C62C:  CALL   393E
0C630:  MOVLB  3
....................    } 
.................... //_--------------------------------------------------------------------------------------------------------------------------------------------------------       
....................  
.................... //_--------------------------------------------------------------------------------------------------------------------------------------------------------     
....................    if(Menu==20){ // Este es el menu de cuando el proceso se inicio. 
0C632:  MOVF   x8F,W
0C634:  SUBLW  14
0C636:  BTFSS  FD8.2
0C638:  GOTO   D71E
....................    //Lectura_Esclavos(); 
....................    GuardaDatoEstatico(); 
0C63C:  MOVLB  0
0C63E:  GOTO   677A
....................    guardaCiclo=ON; 
0C642:  BSF    xD4.5
....................    if(!Libre){ 
0C644:  BTFSC  xD4.0
0C646:  BRA    C6CC
....................       printf("t2f.txt=\"%u\"",CicloSeleccionado); 
0C648:  MOVLW  16
0C64A:  MOVWF  FF6
0C64C:  MOVLW  12
0C64E:  MOVWF  FF7
0C650:  MOVLW  00
0C652:  MOVWF  FF8
0C654:  MOVLW  09
0C656:  MOVLB  4
0C658:  MOVWF  x79
0C65A:  MOVLB  0
0C65C:  CALL   4A36
0C660:  MOVFF  395,479
0C664:  MOVLW  1B
0C666:  MOVLB  4
0C668:  MOVWF  x7A
0C66A:  MOVLB  0
0C66C:  CALL   4A94
0C670:  MOVLW  22
0C672:  BTFSS  F9E.4
0C674:  BRA    C672
0C676:  MOVWF  FAD
....................       SendDataDisplay(); 
0C678:  CALL   393E
....................       printf("t3f.txt=\"%s\"",texto[CicloSeleccionado-1]); 
0C67C:  MOVLW  01
0C67E:  MOVLB  3
0C680:  SUBWF  x95,W
0C682:  MULLW  14
0C684:  MOVF   FF3,W
0C686:  CLRF   03
0C688:  MOVLB  4
0C68A:  MOVWF  x74
0C68C:  MOVLW  24
0C68E:  MOVWF  FF6
0C690:  MOVLW  12
0C692:  MOVWF  FF7
0C694:  MOVLW  00
0C696:  MOVWF  FF8
0C698:  MOVLW  09
0C69A:  MOVWF  x79
0C69C:  MOVLB  0
0C69E:  CALL   4A36
0C6A2:  MOVLW  50
0C6A4:  MOVWF  FF6
0C6A6:  MOVLW  01
0C6A8:  MOVWF  FF7
0C6AA:  MOVLW  00
0C6AC:  MOVWF  FF8
0C6AE:  MOVLB  4
0C6B0:  MOVF   x74,W
0C6B2:  ADDWF  FF6,F
0C6B4:  MOVLW  00
0C6B6:  ADDWFC FF7,F
0C6B8:  MOVLB  0
0C6BA:  CALL   390C
0C6BE:  MOVLW  22
0C6C0:  BTFSS  F9E.4
0C6C2:  BRA    C6C0
0C6C4:  MOVWF  FAD
....................       SendDataDisplay(); 
0C6C6:  CALL   393E
....................    }else{ 
0C6CA:  BRA    C71C
....................       printf("t2f.txt=\"%u\"",CicloLibre+4); 
0C6CC:  MOVLW  04
0C6CE:  MOVLB  3
0C6D0:  ADDWF  x6F,W
0C6D2:  MOVLB  4
0C6D4:  MOVWF  x74
0C6D6:  MOVLW  32
0C6D8:  MOVWF  FF6
0C6DA:  MOVLW  12
0C6DC:  MOVWF  FF7
0C6DE:  MOVLW  00
0C6E0:  MOVWF  FF8
0C6E2:  MOVLW  09
0C6E4:  MOVWF  x79
0C6E6:  MOVLB  0
0C6E8:  CALL   4A36
0C6EC:  MOVFF  474,479
0C6F0:  MOVLW  1B
0C6F2:  MOVLB  4
0C6F4:  MOVWF  x7A
0C6F6:  MOVLB  0
0C6F8:  CALL   4A94
0C6FC:  MOVLW  22
0C6FE:  BTFSS  F9E.4
0C700:  BRA    C6FE
0C702:  MOVWF  FAD
....................       SendDataDisplay(); 
0C704:  CALL   393E
....................       printf("t3f.txt=\"Personalizado\""); 
0C708:  MOVLW  40
0C70A:  MOVWF  FF6
0C70C:  MOVLW  12
0C70E:  MOVWF  FF7
0C710:  MOVLW  00
0C712:  MOVWF  FF8
0C714:  CALL   390C
....................       SendDataDisplay(); 
0C718:  CALL   393E
....................    } 
....................     
....................    if(RIGHT){ 
0C71C:  BSF    F93.1
0C71E:  BTFSC  F81.1
0C720:  BRA    C738
....................       //glcd_init(ON); 
....................       delay_ms(1000); 
0C722:  MOVLW  04
0C724:  MOVLB  4
0C726:  MOVWF  x74
0C728:  MOVLW  FA
0C72A:  MOVWF  x8D
0C72C:  MOVLB  0
0C72E:  CALL   1B28
0C732:  MOVLB  4
0C734:  DECFSZ x74,F
0C736:  BRA    C728
....................       /*flagCalentando=OFF; 
....................       flagDesfogando=OFF; 
....................       flagEsterilizando=OFF;*/ 
....................    } 
....................     
....................    if(PresionCamara>Atmosferica+275){ 
0C738:  MOVLW  13
0C73A:  MOVLB  3
0C73C:  ADDWF  xE3,W
0C73E:  MOVWF  01
0C740:  MOVLW  01
0C742:  MOVWF  03
0C744:  BTFSC  FD8.0
0C746:  INCF   03,F
0C748:  MOVF   03,W
0C74A:  SUBWF  xA9,W
0C74C:  BNC   C75A
0C74E:  BNZ   C756
0C750:  MOVF   xA8,W
0C752:  SUBWF  01,W
0C754:  BC    C75A
....................       AlarmaPresion=ON; 
0C756:  MOVLB  0
0C758:  BSF    xD3.7
....................    } 
....................     
....................    if(Temperatura>105 && PresionCamara<Atmosferica+10 && !Desfogando){ 
0C75A:  MOVLB  4
0C75C:  CLRF   x7B
0C75E:  CLRF   x7A
0C760:  MOVLW  52
0C762:  MOVWF  x79
0C764:  MOVLW  85
0C766:  MOVWF  x78
0C768:  MOVFF  35C,47F
0C76C:  MOVFF  35B,47E
0C770:  MOVFF  35A,47D
0C774:  MOVFF  359,47C
0C778:  MOVLB  0
0C77A:  CALL   2D46
0C77E:  BNC   C7A2
0C780:  MOVLW  0A
0C782:  MOVLB  3
0C784:  ADDWF  xE3,W
0C786:  MOVF   xA9,F
0C788:  BTFSC  FD8.2
0C78A:  BRA    C790
0C78C:  MOVLB  0
0C78E:  BRA    C7A2
0C790:  SUBWF  xA8,W
0C792:  BTFSS  FD8.0
0C794:  BRA    C79A
0C796:  MOVLB  0
0C798:  BRA    C7A2
0C79A:  MOVLB  0
0C79C:  BTFSC  xD0.7
0C79E:  BRA    C7A2
....................       AlarmaCiclo=ON; 
0C7A0:  BSF    xCF.6
....................    } 
....................     
....................    if(TiempoCiclo>3000){ 
0C7A2:  MOVF   xD6,W
0C7A4:  SUBLW  0A
0C7A6:  BC    C7DC
0C7A8:  XORLW  FF
0C7AA:  BNZ   C7B2
0C7AC:  MOVF   xD5,W
0C7AE:  SUBLW  B8
0C7B0:  BC    C7DC
....................       if(TiempoCiclo>5000) 
0C7B2:  MOVF   xD6,W
0C7B4:  SUBLW  12
0C7B6:  BC    C7C4
0C7B8:  XORLW  FF
0C7BA:  BNZ   C7C2
0C7BC:  MOVF   xD5,W
0C7BE:  SUBLW  88
0C7C0:  BC    C7C4
....................          AlarmaTiempoProlongado=ON; 
0C7C2:  BSF    xCF.0
....................       if(PresionCamara<Atmosferica+10){ 
0C7C4:  MOVLW  0A
0C7C6:  MOVLB  3
0C7C8:  ADDWF  xE3,W
0C7CA:  MOVF   xA9,F
0C7CC:  BNZ   C7D8
0C7CE:  SUBWF  xA8,W
0C7D0:  BC    C7D8
....................          AlarmaTiempoProlongado=ON; 
0C7D2:  MOVLB  0
0C7D4:  BSF    xCF.0
0C7D6:  MOVLB  3
....................       } 
....................    }else{ 
0C7D8:  BRA    C7DE
0C7DA:  MOVLB  0
....................       AlarmaTiempoProlongado=OFF; 
0C7DC:  BCF    xCF.0
....................    } 
....................     
....................    if(Temperatura>Setpoint+3.0){ 
0C7DE:  MOVLB  4
0C7E0:  CLRF   x8A
0C7E2:  MOVFF  396,489
0C7E6:  MOVLB  0
0C7E8:  CALL   1B50
0C7EC:  BCF    FD8.1
0C7EE:  MOVFF  03,48C
0C7F2:  MOVFF  02,48B
0C7F6:  MOVFF  01,48A
0C7FA:  MOVFF  00,489
0C7FE:  MOVLB  4
0C800:  CLRF   x90
0C802:  CLRF   x8F
0C804:  MOVLW  40
0C806:  MOVWF  x8E
0C808:  MOVLW  80
0C80A:  MOVWF  x8D
0C80C:  MOVLB  0
0C80E:  CALL   1CE4
0C812:  MOVFF  03,47B
0C816:  MOVFF  02,47A
0C81A:  MOVFF  01,479
0C81E:  MOVFF  00,478
0C822:  MOVFF  35C,47F
0C826:  MOVFF  35B,47E
0C82A:  MOVFF  35A,47D
0C82E:  MOVFF  359,47C
0C832:  CALL   2D46
0C836:  BNC   C83A
....................       AlarmaSobreTemperatura=ON; 
0C838:  BSF    xCF.1
....................    } 
....................     
....................    if(TiempoLlenado>1800){ 
0C83A:  MOVF   xD8,W
0C83C:  SUBLW  06
0C83E:  BC    C84E
0C840:  XORLW  FF
0C842:  BNZ   C84A
0C844:  MOVF   xD7,W
0C846:  SUBLW  08
0C848:  BC    C84E
....................       AlarmaLlenado=ON; 
0C84A:  BSF    xCF.2
....................    }else{ 
0C84C:  BRA    C850
....................       AlarmaLlenado=OFF; 
0C84E:  BCF    xCF.2
....................    } 
....................     
....................    if(tTermostato>=2000){ 
0C850:  MOVLB  3
0C852:  MOVF   xCE,W
0C854:  SUBLW  06
0C856:  BC    C868
0C858:  XORLW  FF
0C85A:  BNZ   C862
0C85C:  MOVF   xCD,W
0C85E:  SUBLW  CF
0C860:  BC    C868
....................       AlarmaTermostato=ON; 
0C862:  MOVLB  0
0C864:  BSF    xCF.3
0C866:  MOVLB  3
....................    } 
....................     
....................    if(!DOOR){ 
0C868:  BSF    F93.6
0C86A:  BTFSS  F81.6
0C86C:  BRA    C882
....................       if(!Secando && !Finalizo && !Desfogando){ 
0C86E:  MOVLB  0
0C870:  BTFSC  xD0.5
0C872:  BRA    C87E
0C874:  BTFSC  xD3.6
0C876:  BRA    C87E
0C878:  BTFSC  xD0.7
0C87A:  BRA    C87E
....................          AlarmaPuerta=ON; 
0C87C:  BSF    xCF.4
....................       } 
....................    }else{ 
0C87E:  BRA    C886
0C880:  MOVLB  3
....................       AlarmaPuerta=OFF; 
0C882:  MOVLB  0
0C884:  BCF    xCF.4
....................    } 
....................     
....................    if(!DOORL){ 
0C886:  BSF    F93.7
0C888:  BTFSS  F81.7
0C88A:  BRA    C89C
....................       if(!Secando && !Finalizo && !Desfogando){ 
0C88C:  BTFSC  xD0.5
0C88E:  BRA    C89A
0C890:  BTFSC  xD3.6
0C892:  BRA    C89A
0C894:  BTFSC  xD0.7
0C896:  BRA    C89A
....................          AlarmaPuertaL=ON; 
0C898:  BSF    xCF.7
....................       } 
....................    }else{ 
0C89A:  BRA    C89E
....................       AlarmaPuertaL=OFF; 
0C89C:  BCF    xCF.7
....................    } 
....................  
....................    if(tStop>=300){ 
0C89E:  MOVLB  3
0C8A0:  MOVF   xCC,W
0C8A2:  SUBLW  00
0C8A4:  BC    C8B6
0C8A6:  XORLW  FF
0C8A8:  BNZ   C8B0
0C8AA:  MOVF   xCB,W
0C8AC:  SUBLW  2B
0C8AE:  BC    C8B6
....................       AlarmaEmergencia=ON; 
0C8B0:  MOVLB  0
0C8B2:  BSF    xCF.5
0C8B4:  MOVLB  3
....................    } 
....................     
....................    if(AlarmaPuerta || AlarmaPuertaL || AlarmaTermostato || AlarmaLlenado || AlarmaSobreTemperatura || AlarmaTiempoProlongado || AlarmaEmergencia || AlarmaPresion 
....................    || AlarmaCiclo){ 
0C8B6:  MOVLB  0
0C8B8:  BTFSC  xCF.4
0C8BA:  BRA    C8DC
0C8BC:  BTFSC  xCF.7
0C8BE:  BRA    C8DC
0C8C0:  BTFSC  xCF.3
0C8C2:  BRA    C8DC
0C8C4:  BTFSC  xCF.2
0C8C6:  BRA    C8DC
0C8C8:  BTFSC  xCF.1
0C8CA:  BRA    C8DC
0C8CC:  BTFSC  xCF.0
0C8CE:  BRA    C8DC
0C8D0:  BTFSC  xCF.5
0C8D2:  BRA    C8DC
0C8D4:  BTFSC  xD3.7
0C8D6:  BRA    C8DC
0C8D8:  BTFSS  xCF.6
0C8DA:  BRA    CD84
....................       ActivaAlarma(1); 
0C8DC:  MOVLW  01
0C8DE:  MOVLB  4
0C8E0:  MOVWF  x74
0C8E2:  MOVLB  0
0C8E4:  CALL   4934
....................       if(AlarmaEmergencia){ 
0C8E8:  BTFSS  xCF.5
0C8EA:  BRA    C972
....................          printf("Funcionamiento.t4f.txt=\" Parada de Emergencia\""); 
0C8EC:  MOVLW  58
0C8EE:  MOVWF  FF6
0C8F0:  MOVLW  12
0C8F2:  MOVWF  FF7
0C8F4:  MOVLW  00
0C8F6:  MOVWF  FF8
0C8F8:  CALL   390C
....................          SendDataDisplay(); 
0C8FC:  CALL   393E
....................          printf("Funcionamiento.t5f.txt=\" Cancelado\""); 
0C900:  MOVLW  88
0C902:  MOVWF  FF6
0C904:  MOVLW  12
0C906:  MOVWF  FF7
0C908:  MOVLW  00
0C90A:  MOVWF  FF8
0C90C:  CALL   390C
....................          SendDataDisplay(); 
0C910:  CALL   393E
....................          Desfogue_on; 
0C914:  BCF    F8B.1
0C916:  BCF    F94.1
....................          SSR_off; 
0C918:  BCF    F8D.1
0C91A:  BCF    F96.1
....................          Agua_off; 
0C91C:  BSF    F8B.2
0C91E:  BCF    F94.2
....................          Bomba_off; 
0C920:  BSF    F8B.0
0C922:  BCF    F94.0
....................          Aire=OFF; 
0C924:  BCF    xD4.3
....................          Esterilizando=OFF; 
0C926:  BCF    xD0.4
....................          Desfogando=OFF; 
0C928:  BCF    xD0.7
....................          DesfogueSuave=OFF; 
0C92A:  BCF    xD1.0
....................          Esterilizando=OFF; 
0C92C:  BCF    xD0.4
....................          //IniciaCiclo=OFF; 
....................          Controlando=0; 
0C92E:  MOVLB  3
0C930:  CLRF   x87
....................          codigoAlarma=1; 
0C932:  MOVLW  01
0C934:  MOVWF  x15
....................          if(codigoAnt!=codigoAlarma){ 
0C936:  MOVF   x15,W
0C938:  SUBWF  x16,W
0C93A:  BZ    C94C
....................             codigoAnt=codigoAlarma; 
0C93C:  MOVFF  315,316
....................             GuardaDatoCiclo(); 
0C940:  MOVLB  0
0C942:  CALL   6A42
....................             incrementaCiclos(); 
0C946:  CALL   6EA2
0C94A:  MOVLB  3
....................          } 
....................          if(!flagImprimir){ 
0C94C:  BTFSC  x84.6
0C94E:  BRA    C96E
....................             Imprime=20; 
0C950:  MOVLW  14
0C952:  MOVWF  xE2
....................             Envio_Esclavos(); 
0C954:  MOVLB  0
0C956:  CALL   4738
....................             delay_ms(100); 
0C95A:  MOVLW  64
0C95C:  MOVLB  4
0C95E:  MOVWF  x8D
0C960:  MOVLB  0
0C962:  CALL   1B28
....................             Imprime=10; 
0C966:  MOVLW  0A
0C968:  MOVLB  3
0C96A:  MOVWF  xE2
....................             flagImprimir=1; 
0C96C:  BSF    x84.6
....................          } 
....................       }else if(AlarmaPuerta){ 
0C96E:  BRA    CD80
0C970:  MOVLB  0
0C972:  BTFSS  xCF.4
0C974:  BRA    C9D4
....................             codigoAlarma=2; 
0C976:  MOVLW  02
0C978:  MOVLB  3
0C97A:  MOVWF  x15
....................             printf("Funcionamiento.t4f.txt=\" Puerta Lado Sucio Abierta\""); 
0C97C:  MOVLW  AC
0C97E:  MOVWF  FF6
0C980:  MOVLW  12
0C982:  MOVWF  FF7
0C984:  MOVLW  00
0C986:  MOVWF  FF8
0C988:  MOVLB  0
0C98A:  CALL   390C
....................             SendDataDisplay(); 
0C98E:  CALL   393E
....................             printf("Funcionamiento.t5f.txt=\" Pausado\""); 
0C992:  MOVLW  E0
0C994:  MOVWF  FF6
0C996:  MOVLW  12
0C998:  MOVWF  FF7
0C99A:  MOVLW  00
0C99C:  MOVWF  FF8
0C99E:  CALL   390C
....................             SendDataDisplay(); 
0C9A2:  CALL   393E
....................             SSR_off; 
0C9A6:  BCF    F8D.1
0C9A8:  BCF    F96.1
....................             Agua_off; 
0C9AA:  BSF    F8B.2
0C9AC:  BCF    F94.2
....................             Bomba_off; 
0C9AE:  BSF    F8B.0
0C9B0:  BCF    F94.0
....................             Aire=OFF; 
0C9B2:  BCF    xD4.3
....................             IniciaLlenado=OFF; 
0C9B4:  BCF    xD0.1
....................             IniciaCiclo=OFF; 
0C9B6:  BCF    xD0.3
....................             Esterilizando=OFF; 
0C9B8:  BCF    xD0.4
....................             Controlando=0; 
0C9BA:  MOVLB  3
0C9BC:  CLRF   x87
....................             if(codigoAnt!=codigoAlarma){ 
0C9BE:  MOVF   x15,W
0C9C0:  SUBWF  x16,W
0C9C2:  BZ    C9D0
....................                codigoAnt=codigoAlarma; 
0C9C4:  MOVFF  315,316
....................                GuardaDatoCiclo(); 
0C9C8:  MOVLB  0
0C9CA:  CALL   6A42
0C9CE:  MOVLB  3
....................                //incrementaCiclos(); 
....................             } 
....................       }else if(AlarmaPuertaL){ 
0C9D0:  BRA    CD80
0C9D2:  MOVLB  0
0C9D4:  BTFSS  xCF.7
0C9D6:  BRA    CA36
....................             codigoAlarma=9; 
0C9D8:  MOVLW  09
0C9DA:  MOVLB  3
0C9DC:  MOVWF  x15
....................             printf("Funcionamiento.t4f.txt=\" Puerta Lado Limpio Abierta\""); 
0C9DE:  MOVLW  02
0C9E0:  MOVWF  FF6
0C9E2:  MOVLW  13
0C9E4:  MOVWF  FF7
0C9E6:  MOVLW  00
0C9E8:  MOVWF  FF8
0C9EA:  MOVLB  0
0C9EC:  CALL   390C
....................             SendDataDisplay(); 
0C9F0:  CALL   393E
....................             printf("Funcionamiento.t5f.txt=\" Pausado\""); 
0C9F4:  MOVLW  38
0C9F6:  MOVWF  FF6
0C9F8:  MOVLW  13
0C9FA:  MOVWF  FF7
0C9FC:  MOVLW  00
0C9FE:  MOVWF  FF8
0CA00:  CALL   390C
....................             SendDataDisplay(); 
0CA04:  CALL   393E
....................             SSR_off; 
0CA08:  BCF    F8D.1
0CA0A:  BCF    F96.1
....................             Agua_off; 
0CA0C:  BSF    F8B.2
0CA0E:  BCF    F94.2
....................             Bomba_off; 
0CA10:  BSF    F8B.0
0CA12:  BCF    F94.0
....................             Aire=OFF; 
0CA14:  BCF    xD4.3
....................             IniciaLlenado=OFF; 
0CA16:  BCF    xD0.1
....................             IniciaCiclo=OFF; 
0CA18:  BCF    xD0.3
....................             Esterilizando=OFF; 
0CA1A:  BCF    xD0.4
....................             Controlando=0; 
0CA1C:  MOVLB  3
0CA1E:  CLRF   x87
....................             if(codigoAnt!=codigoAlarma){ 
0CA20:  MOVF   x15,W
0CA22:  SUBWF  x16,W
0CA24:  BZ    CA32
....................                codigoAnt=codigoAlarma; 
0CA26:  MOVFF  315,316
....................                GuardaDatoCiclo(); 
0CA2A:  MOVLB  0
0CA2C:  CALL   6A42
0CA30:  MOVLB  3
....................                //incrementaCiclos(); 
....................             } 
....................       }else if(AlarmaLlenado){ 
0CA32:  BRA    CD80
0CA34:  MOVLB  0
0CA36:  BTFSS  xCF.2
0CA38:  BRA    CAC2
....................             codigoAlarma=8; 
0CA3A:  MOVLW  08
0CA3C:  MOVLB  3
0CA3E:  MOVWF  x15
....................             printf("Funcionamiento.t4f.txt=\" Tiempo Llenado\""); 
0CA40:  MOVLW  5A
0CA42:  MOVWF  FF6
0CA44:  MOVLW  13
0CA46:  MOVWF  FF7
0CA48:  MOVLW  00
0CA4A:  MOVWF  FF8
0CA4C:  MOVLB  0
0CA4E:  CALL   390C
....................             SendDataDisplay(); 
0CA52:  CALL   393E
....................             printf("Funcionamiento.t5f.txt=\" Cancelado\""); 
0CA56:  MOVLW  84
0CA58:  MOVWF  FF6
0CA5A:  MOVLW  13
0CA5C:  MOVWF  FF7
0CA5E:  MOVLW  00
0CA60:  MOVWF  FF8
0CA62:  CALL   390C
....................             SendDataDisplay(); 
0CA66:  CALL   393E
....................             Desfogue_off; 
0CA6A:  BSF    F8B.1
0CA6C:  BCF    F94.1
....................             SSR_off; 
0CA6E:  BCF    F8D.1
0CA70:  BCF    F96.1
....................             Agua_off; 
0CA72:  BSF    F8B.2
0CA74:  BCF    F94.2
....................             Bomba_off; 
0CA76:  BSF    F8B.0
0CA78:  BCF    F94.0
....................             Aire=OFF; 
0CA7A:  BCF    xD4.3
....................             IniciaLlenado=OFF; 
0CA7C:  BCF    xD0.1
....................             IniciaCiclo=OFF; 
0CA7E:  BCF    xD0.3
....................             Esterilizando=OFF; 
0CA80:  BCF    xD0.4
....................             Controlando=0; 
0CA82:  MOVLB  3
0CA84:  CLRF   x87
....................             if(codigoAnt!=codigoAlarma){ 
0CA86:  MOVF   x15,W
0CA88:  SUBWF  x16,W
0CA8A:  BZ    CA9C
....................                codigoAnt=codigoAlarma; 
0CA8C:  MOVFF  315,316
....................                GuardaDatoCiclo(); 
0CA90:  MOVLB  0
0CA92:  CALL   6A42
....................                incrementaCiclos(); 
0CA96:  CALL   6EA2
0CA9A:  MOVLB  3
....................             } 
....................             if(!flagImprimir){ 
0CA9C:  BTFSC  x84.6
0CA9E:  BRA    CABE
....................                Imprime=21; 
0CAA0:  MOVLW  15
0CAA2:  MOVWF  xE2
....................                Envio_Esclavos(); 
0CAA4:  MOVLB  0
0CAA6:  CALL   4738
....................                delay_ms(100); 
0CAAA:  MOVLW  64
0CAAC:  MOVLB  4
0CAAE:  MOVWF  x8D
0CAB0:  MOVLB  0
0CAB2:  CALL   1B28
....................                Imprime=10; 
0CAB6:  MOVLW  0A
0CAB8:  MOVLB  3
0CABA:  MOVWF  xE2
....................                flagImprimir=1; 
0CABC:  BSF    x84.6
....................             } 
....................       }else if(AlarmaTermostato){ // Alarma de Termostato 
0CABE:  BRA    CD80
0CAC0:  MOVLB  0
0CAC2:  BTFSS  xCF.3
0CAC4:  BRA    CB52
....................             codigoAlarma=3; 
0CAC6:  MOVLW  03
0CAC8:  MOVLB  3
0CACA:  MOVWF  x15
....................             tiempo_esterilizacion=0;tiempo_secado=0; 
0CACC:  CLRF   x99
0CACE:  CLRF   x9A
....................             printf("Funcionamiento.t4f.txt=\" Termostato\""); 
0CAD0:  MOVLW  A8
0CAD2:  MOVWF  FF6
0CAD4:  MOVLW  13
0CAD6:  MOVWF  FF7
0CAD8:  MOVLW  00
0CADA:  MOVWF  FF8
0CADC:  MOVLB  0
0CADE:  CALL   390C
....................             SendDataDisplay(); 
0CAE2:  CALL   393E
....................             printf("Funcionamiento.t5f.txt=\" Cancelado\""); 
0CAE6:  MOVLW  CE
0CAE8:  MOVWF  FF6
0CAEA:  MOVLW  13
0CAEC:  MOVWF  FF7
0CAEE:  MOVLW  00
0CAF0:  MOVWF  FF8
0CAF2:  CALL   390C
....................             SendDataDisplay(); 
0CAF6:  CALL   393E
....................             Desfogue_on;             
0CAFA:  BCF    F8B.1
0CAFC:  BCF    F94.1
....................             SSR_off; 
0CAFE:  BCF    F8D.1
0CB00:  BCF    F96.1
....................             Agua_off; 
0CB02:  BSF    F8B.2
0CB04:  BCF    F94.2
....................             Bomba_off; 
0CB06:  BSF    F8B.0
0CB08:  BCF    F94.0
....................             Aire=OFF; 
0CB0A:  BCF    xD4.3
....................             Esterilizando=OFF; 
0CB0C:  BCF    xD0.4
....................             Desfogando=OFF; 
0CB0E:  BCF    xD0.7
....................             IniciaCiclo=OFF; 
0CB10:  BCF    xD0.3
....................             Controlando=0; 
0CB12:  MOVLB  3
0CB14:  CLRF   x87
....................             if(codigoAnt!=codigoAlarma){ 
0CB16:  MOVF   x15,W
0CB18:  SUBWF  x16,W
0CB1A:  BZ    CB2C
....................                codigoAnt=codigoAlarma; 
0CB1C:  MOVFF  315,316
....................                GuardaDatoCiclo(); 
0CB20:  MOVLB  0
0CB22:  CALL   6A42
....................                incrementaCiclos(); 
0CB26:  CALL   6EA2
0CB2A:  MOVLB  3
....................             } 
....................             if(!flagImprimir){ 
0CB2C:  BTFSC  x84.6
0CB2E:  BRA    CB4E
....................                Imprime=22; 
0CB30:  MOVLW  16
0CB32:  MOVWF  xE2
....................                Envio_Esclavos(); 
0CB34:  MOVLB  0
0CB36:  CALL   4738
....................                delay_ms(100); 
0CB3A:  MOVLW  64
0CB3C:  MOVLB  4
0CB3E:  MOVWF  x8D
0CB40:  MOVLB  0
0CB42:  CALL   1B28
....................                Imprime=10; 
0CB46:  MOVLW  0A
0CB48:  MOVLB  3
0CB4A:  MOVWF  xE2
....................                flagImprimir=1; 
0CB4C:  BSF    x84.6
....................             } 
....................       }else if(AlarmaSobreTemperatura){ // Alarma de Sobre Temperatura 
0CB4E:  BRA    CD80
0CB50:  MOVLB  0
0CB52:  BTFSS  xCF.1
0CB54:  BRA    CBE6
....................          codigoAlarma=4; 
0CB56:  MOVLW  04
0CB58:  MOVLB  3
0CB5A:  MOVWF  x15
....................          tiempo_esterilizacion=0;tiempo_secado=0; 
0CB5C:  CLRF   x99
0CB5E:  CLRF   x9A
....................          printf("Funcionamiento.t4f.txt=\" Sobretemperatura\""); 
0CB60:  MOVLW  F2
0CB62:  MOVWF  FF6
0CB64:  MOVLW  13
0CB66:  MOVWF  FF7
0CB68:  MOVLW  00
0CB6A:  MOVWF  FF8
0CB6C:  MOVLB  0
0CB6E:  CALL   390C
....................          SendDataDisplay(); 
0CB72:  CALL   393E
....................          printf("Funcionamiento.t5f.txt=\" Cancelado\""); 
0CB76:  MOVLW  1E
0CB78:  MOVWF  FF6
0CB7A:  MOVLW  14
0CB7C:  MOVWF  FF7
0CB7E:  MOVLW  00
0CB80:  MOVWF  FF8
0CB82:  CALL   390C
....................          SendDataDisplay();   
0CB86:  CALL   393E
....................          Desfogue_on; 
0CB8A:  BCF    F8B.1
0CB8C:  BCF    F94.1
....................          SSR_off; 
0CB8E:  BCF    F8D.1
0CB90:  BCF    F96.1
....................          Agua_off; 
0CB92:  BSF    F8B.2
0CB94:  BCF    F94.2
....................          Bomba_off; 
0CB96:  BSF    F8B.0
0CB98:  BCF    F94.0
....................          Aire=OFF; 
0CB9A:  BCF    xD4.3
....................          Controlando=0; 
0CB9C:  MOVLB  3
0CB9E:  CLRF   x87
....................          IniciaLlenado=OFF; 
0CBA0:  MOVLB  0
0CBA2:  BCF    xD0.1
....................          IniciaCiclo=OFF; 
0CBA4:  BCF    xD0.3
....................          Esterilizando=OFF; 
0CBA6:  BCF    xD0.4
....................          if(codigoAnt!=codigoAlarma){ 
0CBA8:  MOVLB  3
0CBAA:  MOVF   x15,W
0CBAC:  SUBWF  x16,W
0CBAE:  BZ    CBC0
....................             codigoAnt=codigoAlarma; 
0CBB0:  MOVFF  315,316
....................             GuardaDatoCiclo(); 
0CBB4:  MOVLB  0
0CBB6:  CALL   6A42
....................             incrementaCiclos(); 
0CBBA:  CALL   6EA2
0CBBE:  MOVLB  3
....................          } 
....................          if(!flagImprimir){ 
0CBC0:  BTFSC  x84.6
0CBC2:  BRA    CBE2
....................             Imprime=23; 
0CBC4:  MOVLW  17
0CBC6:  MOVWF  xE2
....................             Envio_Esclavos(); 
0CBC8:  MOVLB  0
0CBCA:  CALL   4738
....................             delay_ms(100); 
0CBCE:  MOVLW  64
0CBD0:  MOVLB  4
0CBD2:  MOVWF  x8D
0CBD4:  MOVLB  0
0CBD6:  CALL   1B28
....................             Imprime=10; 
0CBDA:  MOVLW  0A
0CBDC:  MOVLB  3
0CBDE:  MOVWF  xE2
....................             flagImprimir=1; 
0CBE0:  BSF    x84.6
....................          } 
....................       }else if(AlarmaTiempoProlongado){ // Alarma de Error de Tiempo: Error por exceso de tiempo de calentamiento. 
0CBE2:  BRA    CD80
0CBE4:  MOVLB  0
0CBE6:  BTFSS  xCF.0
0CBE8:  BRA    CC76
....................          codigoAlarma=5; 
0CBEA:  MOVLW  05
0CBEC:  MOVLB  3
0CBEE:  MOVWF  x15
....................          printf("Funcionamiento.t4f.txt=\" Tiempo Prolongado\""); 
0CBF0:  MOVLW  42
0CBF2:  MOVWF  FF6
0CBF4:  MOVLW  14
0CBF6:  MOVWF  FF7
0CBF8:  MOVLW  00
0CBFA:  MOVWF  FF8
0CBFC:  MOVLB  0
0CBFE:  CALL   390C
....................          SendDataDisplay(); 
0CC02:  CALL   393E
....................          printf("Funcionamiento.t5f.txt=\" Cancelado\""); 
0CC06:  MOVLW  6E
0CC08:  MOVWF  FF6
0CC0A:  MOVLW  14
0CC0C:  MOVWF  FF7
0CC0E:  MOVLW  00
0CC10:  MOVWF  FF8
0CC12:  CALL   390C
....................          SendDataDisplay(); 
0CC16:  CALL   393E
....................          Desfogue_on; 
0CC1A:  BCF    F8B.1
0CC1C:  BCF    F94.1
....................          SSR_off; 
0CC1E:  BCF    F8D.1
0CC20:  BCF    F96.1
....................          Agua_off; 
0CC22:  BSF    F8B.2
0CC24:  BCF    F94.2
....................          Bomba_off; 
0CC26:  BSF    F8B.0
0CC28:  BCF    F94.0
....................          Aire=OFF; 
0CC2A:  BCF    xD4.3
....................          Controlando=0; 
0CC2C:  MOVLB  3
0CC2E:  CLRF   x87
....................          IniciaLlenado=OFF; 
0CC30:  MOVLB  0
0CC32:  BCF    xD0.1
....................          IniciaCiclo=OFF; 
0CC34:  BCF    xD0.3
....................          Esterilizando=OFF; 
0CC36:  BCF    xD0.4
....................          if(codigoAnt!=codigoAlarma){ 
0CC38:  MOVLB  3
0CC3A:  MOVF   x15,W
0CC3C:  SUBWF  x16,W
0CC3E:  BZ    CC50
....................             codigoAnt=codigoAlarma; 
0CC40:  MOVFF  315,316
....................             GuardaDatoCiclo(); 
0CC44:  MOVLB  0
0CC46:  CALL   6A42
....................             incrementaCiclos(); 
0CC4A:  CALL   6EA2
0CC4E:  MOVLB  3
....................          } 
....................          if(!flagImprimir){ 
0CC50:  BTFSC  x84.6
0CC52:  BRA    CC72
....................             Imprime=24; 
0CC54:  MOVLW  18
0CC56:  MOVWF  xE2
....................             Envio_Esclavos(); 
0CC58:  MOVLB  0
0CC5A:  CALL   4738
....................             delay_ms(100); 
0CC5E:  MOVLW  64
0CC60:  MOVLB  4
0CC62:  MOVWF  x8D
0CC64:  MOVLB  0
0CC66:  CALL   1B28
....................             Imprime=10; 
0CC6A:  MOVLW  0A
0CC6C:  MOVLB  3
0CC6E:  MOVWF  xE2
....................             flagImprimir=1; 
0CC70:  BSF    x84.6
....................          } 
....................       }else if(AlarmaPresion){ // Alarma de Error de SobrePresion: Error por exceso de Presion. 
0CC72:  BRA    CD80
0CC74:  MOVLB  0
0CC76:  BTFSS  xD3.7
0CC78:  BRA    CD02
....................          codigoAlarma=6; 
0CC7A:  MOVLW  06
0CC7C:  MOVLB  3
0CC7E:  MOVWF  x15
....................          printf("Funcionamiento.t4f.txt=\" SobrePresin\""); 
0CC80:  MOVLW  92
0CC82:  MOVWF  FF6
0CC84:  MOVLW  14
0CC86:  MOVWF  FF7
0CC88:  MOVLW  00
0CC8A:  MOVWF  FF8
0CC8C:  MOVLB  0
0CC8E:  CALL   390C
....................          SendDataDisplay(); 
0CC92:  CALL   393E
....................          printf("Funcionamiento.t5f.txt=\" Cancelado\""); 
0CC96:  MOVLW  BA
0CC98:  MOVWF  FF6
0CC9A:  MOVLW  14
0CC9C:  MOVWF  FF7
0CC9E:  MOVLW  00
0CCA0:  MOVWF  FF8
0CCA2:  CALL   390C
....................          SendDataDisplay(); 
0CCA6:  CALL   393E
....................          Desfogue_on; 
0CCAA:  BCF    F8B.1
0CCAC:  BCF    F94.1
....................          SSR_off; 
0CCAE:  BCF    F8D.1
0CCB0:  BCF    F96.1
....................          IniciaLlenado=OFF; 
0CCB2:  BCF    xD0.1
....................          IniciaCiclo=OFF; 
0CCB4:  BCF    xD0.3
....................          Esterilizando=OFF; 
0CCB6:  BCF    xD0.4
....................          Agua_off; 
0CCB8:  BSF    F8B.2
0CCBA:  BCF    F94.2
....................          Bomba_off; 
0CCBC:  BSF    F8B.0
0CCBE:  BCF    F94.0
....................          Aire=OFF; 
0CCC0:  BCF    xD4.3
....................          Controlando=0; 
0CCC2:  MOVLB  3
0CCC4:  CLRF   x87
....................          if(codigoAnt!=codigoAlarma){ 
0CCC6:  MOVF   x15,W
0CCC8:  SUBWF  x16,W
0CCCA:  BZ    CCDC
....................             codigoAnt=codigoAlarma; 
0CCCC:  MOVFF  315,316
....................             GuardaDatoCiclo(); 
0CCD0:  MOVLB  0
0CCD2:  CALL   6A42
....................             incrementaCiclos(); 
0CCD6:  CALL   6EA2
0CCDA:  MOVLB  3
....................          } 
....................          if(!flagImprimir){ 
0CCDC:  BTFSC  x84.6
0CCDE:  BRA    CCFE
....................             Imprime=25; 
0CCE0:  MOVLW  19
0CCE2:  MOVWF  xE2
....................             Envio_Esclavos(); 
0CCE4:  MOVLB  0
0CCE6:  CALL   4738
....................             delay_ms(100); 
0CCEA:  MOVLW  64
0CCEC:  MOVLB  4
0CCEE:  MOVWF  x8D
0CCF0:  MOVLB  0
0CCF2:  CALL   1B28
....................             Imprime=10; 
0CCF6:  MOVLW  0A
0CCF8:  MOVLB  3
0CCFA:  MOVWF  xE2
....................             flagImprimir=1; 
0CCFC:  BSF    x84.6
....................          } 
....................       }else if(AlarmaCiclo){ // Alarma de Error de SobrePresion: Error por exceso de Presion. 
0CCFE:  BRA    CD80
0CD00:  MOVLB  0
0CD02:  BTFSS  xCF.6
0CD04:  BRA    CD82
....................          codigoAlarma=7; 
0CD06:  MOVLW  07
0CD08:  MOVLB  3
0CD0A:  MOVWF  x15
....................          printf("Funcionamiento.t4f.txt=\" Error Ciclo\""); 
0CD0C:  MOVLW  DE
0CD0E:  MOVWF  FF6
0CD10:  MOVLW  14
0CD12:  MOVWF  FF7
0CD14:  MOVLW  00
0CD16:  MOVWF  FF8
0CD18:  MOVLB  0
0CD1A:  CALL   390C
....................          SendDataDisplay(); 
0CD1E:  CALL   393E
....................          printf("Funcionamiento.t5f.txt=\" Cancelado\""); 
0CD22:  MOVLW  04
0CD24:  MOVWF  FF6
0CD26:  MOVLW  15
0CD28:  MOVWF  FF7
0CD2A:  MOVLW  00
0CD2C:  MOVWF  FF8
0CD2E:  CALL   390C
....................          SendDataDisplay(); 
0CD32:  CALL   393E
....................          Desfogue_on; 
0CD36:  BCF    F8B.1
0CD38:  BCF    F94.1
....................          SSR_off; 
0CD3A:  BCF    F8D.1
0CD3C:  BCF    F96.1
....................          IniciaLlenado=OFF; 
0CD3E:  BCF    xD0.1
....................          IniciaCiclo=OFF; 
0CD40:  BCF    xD0.3
....................          Esterilizando=OFF; 
0CD42:  BCF    xD0.4
....................          Controlando=0; 
0CD44:  MOVLB  3
0CD46:  CLRF   x87
....................          if(codigoAnt!=codigoAlarma){ 
0CD48:  MOVF   x15,W
0CD4A:  SUBWF  x16,W
0CD4C:  BZ    CD5E
....................             codigoAnt=codigoAlarma; 
0CD4E:  MOVFF  315,316
....................             GuardaDatoCiclo(); 
0CD52:  MOVLB  0
0CD54:  CALL   6A42
....................             incrementaCiclos(); 
0CD58:  CALL   6EA2
0CD5C:  MOVLB  3
....................          } 
....................          if(!flagImprimir){ 
0CD5E:  BTFSC  x84.6
0CD60:  BRA    CD80
....................             Imprime=26; 
0CD62:  MOVLW  1A
0CD64:  MOVWF  xE2
....................             Envio_Esclavos(); 
0CD66:  MOVLB  0
0CD68:  CALL   4738
....................             delay_ms(100); 
0CD6C:  MOVLW  64
0CD6E:  MOVLB  4
0CD70:  MOVWF  x8D
0CD72:  MOVLB  0
0CD74:  CALL   1B28
....................             Imprime=10; 
0CD78:  MOVLW  0A
0CD7A:  MOVLB  3
0CD7C:  MOVWF  xE2
....................             flagImprimir=1; 
0CD7E:  BSF    x84.6
0CD80:  MOVLB  0
....................          } 
....................       } 
....................    } 
....................    else{   
0CD82:  BRA    D3FC
....................       Buzzer_off; 
0CD84:  BCF    F8C.7
0CD86:  BCF    F95.7
....................       IniciaCiclo=ON; 
0CD88:  BSF    xD0.3
....................       if(flagImprime){ 
0CD8A:  MOVLB  3
0CD8C:  BTFSS  x84.5
0CD8E:  BRA    CDAE
....................          Imprime=5; 
0CD90:  MOVLW  05
0CD92:  MOVWF  xE2
....................          Envio_Esclavos(); 
0CD94:  MOVLB  0
0CD96:  CALL   4738
....................          delay_ms(100); 
0CD9A:  MOVLW  64
0CD9C:  MOVLB  4
0CD9E:  MOVWF  x8D
0CDA0:  MOVLB  0
0CDA2:  CALL   1B28
....................          Imprime=10; 
0CDA6:  MOVLW  0A
0CDA8:  MOVLB  3
0CDAA:  MOVWF  xE2
....................          flagImprime=0; 
0CDAC:  BCF    x84.5
....................       } 
....................          if(!CalderinLleno){ 
0CDAE:  MOVLB  0
0CDB0:  BTFSC  xD0.2
0CDB2:  BRA    CE48
....................             //Agua_on; 
....................             #ifdef Reservorio 
....................                if(!HIG){ 
0CDB4:  BTFSC  xD1.2
0CDB6:  BRA    CDE6
....................                   printf("Funcionamiento.t4f.txt=\" Reservorio Bajo \""); 
0CDB8:  MOVLW  28
0CDBA:  MOVWF  FF6
0CDBC:  MOVLW  15
0CDBE:  MOVWF  FF7
0CDC0:  MOVLW  00
0CDC2:  MOVWF  FF8
0CDC4:  CALL   390C
....................                   SendDataDisplay(); 
0CDC8:  CALL   393E
....................                   printf("Funcionamiento.t5f.txt=\" Llenando Camara\""); 
0CDCC:  MOVLW  54
0CDCE:  MOVWF  FF6
0CDD0:  MOVLW  15
0CDD2:  MOVWF  FF7
0CDD4:  MOVLW  00
0CDD6:  MOVWF  FF8
0CDD8:  CALL   390C
....................                   SendDataDisplay(); 
0CDDC:  CALL   393E
....................                   #ifdef ULKA               
....................                      apagaBombaAgua(); 
0CDE0:  CALL   491A
....................                   #else 
....................                      Agua_on; 
....................                      Bomba_off; 
....................                   #endif 
....................                }else{ 
0CDE4:  BRA    CE12
....................                   printf("Funcionamiento.t4f.txt=\" Ninguna\""); 
0CDE6:  MOVLW  7E
0CDE8:  MOVWF  FF6
0CDEA:  MOVLW  15
0CDEC:  MOVWF  FF7
0CDEE:  MOVLW  00
0CDF0:  MOVWF  FF8
0CDF2:  CALL   390C
....................                   SendDataDisplay(); 
0CDF6:  CALL   393E
....................                   printf("Funcionamiento.t5f.txt=\" Llenando Camara\""); 
0CDFA:  MOVLW  A0
0CDFC:  MOVWF  FF6
0CDFE:  MOVLW  15
0CE00:  MOVWF  FF7
0CE02:  MOVLW  00
0CE04:  MOVWF  FF8
0CE06:  CALL   390C
....................                   SendDataDisplay(); 
0CE0A:  CALL   393E
....................                   #ifdef ULKA               
....................                      enciendeBombaAgua(); 
0CE0E:  CALL   48D6
....................                   #else 
....................                      Agua_on; 
....................                      Bomba_on; 
....................                   #endif 
....................                }  
....................             #else 
....................                printf("Funcionamiento.t4f.txt=\" Ninguna\""); 
....................                SendDataDisplay(); 
....................                printf("Funcionamiento.t5f.txt=\" Nivel Bajo\""); 
....................                SendDataDisplay(); 
....................                Agua_on; 
....................             #endif 
....................             SSR_off; 
0CE12:  BCF    F8D.1
0CE14:  BCF    F96.1
....................             Controlando=0; 
0CE16:  MOVLB  3
0CE18:  CLRF   x87
....................             Control=0; 
0CE1A:  CLRF   x85
....................             IniciaLlenado=ON; 
0CE1C:  MOVLB  0
0CE1E:  BSF    xD0.1
....................             Controlando=0; 
0CE20:  MOVLB  3
0CE22:  CLRF   x87
....................             Desfogue_off; 
0CE24:  BSF    F8B.1
0CE26:  BCF    F94.1
....................             Aire=ON; 
0CE28:  MOVLB  0
0CE2A:  BSF    xD4.3
....................             codigoAlarma=10; 
0CE2C:  MOVLW  0A
0CE2E:  MOVLB  3
0CE30:  MOVWF  x15
....................             if(codigoAnt!=codigoAlarma){ 
0CE32:  MOVF   x15,W
0CE34:  SUBWF  x16,W
0CE36:  BZ    CE44
....................                codigoAnt=codigoAlarma; 
0CE38:  MOVFF  315,316
....................                GuardaDatoCiclo(); 
0CE3C:  MOVLB  0
0CE3E:  CALL   6A42
0CE42:  MOVLB  3
....................             } 
....................          } 
....................          else{ 
0CE44:  BRA    D3FE
0CE46:  MOVLB  0
....................             Agua_off; 
0CE48:  BSF    F8B.2
0CE4A:  BCF    F94.2
....................             if(Temperatura>=((float)Setpoint)){ 
0CE4C:  MOVLB  4
0CE4E:  CLRF   x8A
0CE50:  MOVFF  396,489
0CE54:  MOVLB  0
0CE56:  CALL   1B50
0CE5A:  MOVFF  03,47B
0CE5E:  MOVFF  02,47A
0CE62:  MOVFF  01,479
0CE66:  MOVFF  00,478
0CE6A:  MOVFF  35C,47F
0CE6E:  MOVFF  35B,47E
0CE72:  MOVFF  35A,47D
0CE76:  MOVFF  359,47C
0CE7A:  CALL   2D46
0CE7E:  BC    CE82
0CE80:  BNZ   CE84
....................                Esterilizando=ON; 
0CE82:  BSF    xD0.4
....................             } 
....................              
....................             if(Temperatura<((float)Setpoint-0.9) && !Desfogando){ 
0CE84:  MOVLB  4
0CE86:  CLRF   x8A
0CE88:  MOVFF  396,489
0CE8C:  MOVLB  0
0CE8E:  CALL   1B50
0CE92:  MOVFF  00,474
0CE96:  MOVFF  01,475
0CE9A:  MOVFF  02,476
0CE9E:  MOVFF  03,477
0CEA2:  BSF    FD8.1
0CEA4:  MOVFF  03,48C
0CEA8:  MOVFF  02,48B
0CEAC:  MOVFF  01,48A
0CEB0:  MOVFF  00,489
0CEB4:  MOVLW  66
0CEB6:  MOVLB  4
0CEB8:  MOVWF  x90
0CEBA:  MOVWF  x8F
0CEBC:  MOVWF  x8E
0CEBE:  MOVLW  7E
0CEC0:  MOVWF  x8D
0CEC2:  MOVLB  0
0CEC4:  CALL   1CE4
0CEC8:  MOVFF  35C,47B
0CECC:  MOVFF  35B,47A
0CED0:  MOVFF  35A,479
0CED4:  MOVFF  359,478
0CED8:  MOVFF  03,47F
0CEDC:  MOVFF  02,47E
0CEE0:  MOVFF  01,47D
0CEE4:  MOVFF  00,47C
0CEE8:  CALL   2D46
0CEEC:  BNC   CEF4
0CEEE:  BTFSC  xD0.7
0CEF0:  BRA    CEF4
....................                Esterilizando=OFF; 
0CEF2:  BCF    xD0.4
....................             } 
....................              
....................             if(!Esterilizando){ 
0CEF4:  BTFSC  xD0.4
0CEF6:  BRA    CF92
....................                codigoAlarma=12; 
0CEF8:  MOVLW  0C
0CEFA:  MOVLB  3
0CEFC:  MOVWF  x15
....................                if(codigoAnt!=codigoAlarma){ 
0CEFE:  MOVF   x15,W
0CF00:  SUBWF  x16,W
0CF02:  BZ    CF10
....................                   codigoAnt=codigoAlarma; 
0CF04:  MOVFF  315,316
....................                   GuardaDatoCiclo();                   
0CF08:  MOVLB  0
0CF0A:  CALL   6A42
0CF0E:  MOVLB  3
....................                } 
....................                printf("Funcionamiento.t4f.txt=\" Ninguna\""); 
0CF10:  MOVLW  CA
0CF12:  MOVWF  FF6
0CF14:  MOVLW  15
0CF16:  MOVWF  FF7
0CF18:  MOVLW  00
0CF1A:  MOVWF  FF8
0CF1C:  MOVLB  0
0CF1E:  CALL   390C
....................                SendDataDisplay(); 
0CF22:  CALL   393E
....................                printf("Funcionamiento.t5f.txt=\" Calentando\""); 
0CF26:  MOVLW  EC
0CF28:  MOVWF  FF6
0CF2A:  MOVLW  15
0CF2C:  MOVWF  FF7
0CF2E:  MOVLW  00
0CF30:  MOVWF  FF8
0CF32:  CALL   390C
....................                SendDataDisplay(); 
0CF36:  CALL   393E
....................                Control=1; 
0CF3A:  MOVLW  01
0CF3C:  MOVLB  3
0CF3E:  MOVWF  x85
....................                Bomba_off; 
0CF40:  BSF    F8B.0
0CF42:  BCF    F94.0
....................                if(Temperatura<=TTrampa){ 
0CF44:  MOVLB  4
0CF46:  CLRF   x8A
0CF48:  MOVFF  30C,489
0CF4C:  MOVLB  0
0CF4E:  CALL   1B50
0CF52:  MOVFF  35C,47B
0CF56:  MOVFF  35B,47A
0CF5A:  MOVFF  35A,479
0CF5E:  MOVFF  359,478
0CF62:  MOVFF  03,47F
0CF66:  MOVFF  02,47E
0CF6A:  MOVFF  01,47D
0CF6E:  MOVFF  00,47C
0CF72:  CALL   2D46
0CF76:  BC    CF7A
0CF78:  BNZ   CF86
....................                   Aire=ON; 
0CF7A:  BSF    xD4.3
....................                   Controla(); 
0CF7C:  CALL   6F9C
....................                   #ifdef Reservorio 
....................                      Desfogue_off; 
0CF80:  BSF    F8B.1
0CF82:  BCF    F94.1
....................                   #else 
....................                      Desfogue_on; 
....................                   #endif 
....................                }else{ 
0CF84:  BRA    CF90
....................                   Aire=OFF; 
0CF86:  BCF    xD4.3
....................                   Desfogue_off; 
0CF88:  BSF    F8B.1
0CF8A:  BCF    F94.1
....................                   #ifdef PT100Fija 
....................                      Controla(); 
0CF8C:  CALL   6F9C
....................                   #else 
....................                      ControlaPresion(); 
....................                   #endif 
....................                } 
....................             }else{ 
0CF90:  BRA    D3FC
....................                TiempoCiclo=0; 
0CF92:  CLRF   xD6
0CF94:  CLRF   xD5
....................                if((Testerilizacion[0]==0)&&(Testerilizacion[1]==0)&& 
....................                (Testerilizacion[2]==0)&&(Testerilizacion[3]==0)){  
0CF96:  MOVF   xE1,F
0CF98:  BTFSS  FD8.2
0CF9A:  BRA    D3AA
0CF9C:  MOVF   xE2,F
0CF9E:  BTFSS  FD8.2
0CFA0:  BRA    D3AA
0CFA2:  MOVF   xE3,F
0CFA4:  BTFSS  FD8.2
0CFA6:  BRA    D3AA
0CFA8:  MOVF   xE4,F
0CFAA:  BTFSS  FD8.2
0CFAC:  BRA    D3AA
....................                   if(desfoguelento){ 
0CFAE:  MOVLB  3
0CFB0:  BTFSS  x84.0
0CFB2:  BRA    D18E
....................                      Controlando=0; 
0CFB4:  CLRF   x87
....................                      if(PresionCamara<=Atmosferica+25){ 
0CFB6:  MOVLW  19
0CFB8:  ADDWF  xE3,W
0CFBA:  MOVF   xA9,F
0CFBC:  BTFSS  FD8.2
0CFBE:  BRA    D136
0CFC0:  SUBWF  xA8,W
0CFC2:  BZ    CFC8
0CFC4:  BTFSC  FD8.0
0CFC6:  BRA    D136
....................                         Secando=OFF; 
0CFC8:  MOVLB  0
0CFCA:  BCF    xD0.5
....................                         DesfogueSuave=OFF; 
0CFCC:  BCF    xD1.0
....................                         Bomba_off; 
0CFCE:  BSF    F8B.0
0CFD0:  BCF    F94.0
....................                         Aire=OFF; 
0CFD2:  BCF    xD4.3
....................                         if(PresionCamara<Atmosferica+2){ 
0CFD4:  MOVLW  02
0CFD6:  MOVLB  3
0CFD8:  ADDWF  xE3,W
0CFDA:  MOVF   xA9,F
0CFDC:  BTFSS  FD8.2
0CFDE:  BRA    D120
0CFE0:  SUBWF  xA8,W
0CFE2:  BTFSC  FD8.0
0CFE4:  BRA    D120
....................                            if(!DOOR && !DOORL){ 
0CFE6:  BSF    F93.6
0CFE8:  BTFSS  F81.6
0CFEA:  BRA    CFF8
0CFEC:  BSF    F93.7
0CFEE:  BTFSS  F81.7
0CFF0:  BRA    CFF8
....................                               Desfogue_off; 
0CFF2:  BSF    F8B.1
0CFF4:  BCF    F94.1
....................                            }else{ 
0CFF6:  BRA    CFFC
....................                               Desfogue_on; 
0CFF8:  BCF    F8B.1
0CFFA:  BCF    F94.1
....................                            } 
....................                            if(Temperatura<=90){ 
0CFFC:  MOVFF  35C,47B
0D000:  MOVFF  35B,47A
0D004:  MOVFF  35A,479
0D008:  MOVFF  359,478
0D00C:  MOVLB  4
0D00E:  CLRF   x7F
0D010:  CLRF   x7E
0D012:  MOVLW  34
0D014:  MOVWF  x7D
0D016:  MOVLW  85
0D018:  MOVWF  x7C
0D01A:  MOVLB  0
0D01C:  CALL   2D46
0D020:  BC    D024
0D022:  BNZ   D05A
....................                               ActivaAlarma(2); 
0D024:  MOVLW  02
0D026:  MOVLB  4
0D028:  MOVWF  x74
0D02A:  MOVLB  0
0D02C:  CALL   4934
....................                               printf("Funcionamiento.t4f.txt=\" Abra Lado Limpio\""); 
0D030:  MOVLW  12
0D032:  MOVWF  FF6
0D034:  MOVLW  16
0D036:  MOVWF  FF7
0D038:  MOVLW  00
0D03A:  MOVWF  FF8
0D03C:  CALL   390C
....................                               SendDataDisplay(); 
0D040:  CALL   393E
....................                               printf("Funcionamiento.t5f.txt=\" Finalizado\""); 
0D044:  MOVLW  3E
0D046:  MOVWF  FF6
0D048:  MOVLW  16
0D04A:  MOVWF  FF7
0D04C:  MOVLW  00
0D04E:  MOVWF  FF8
0D050:  CALL   390C
....................                               SendDataDisplay(); 
0D054:  CALL   393E
....................                               Finalizo=ON; 
0D058:  BSF    xD3.6
....................                            } 
....................                            codigoAlarma=14; 
0D05A:  MOVLW  0E
0D05C:  MOVLB  3
0D05E:  MOVWF  x15
....................                            if(codigoAnt!=codigoAlarma){ 
0D060:  MOVF   x15,W
0D062:  SUBWF  x16,W
0D064:  BZ    D070
....................                               codigoAnt=codigoAlarma; 
0D066:  MOVFF  315,316
....................                               GuardaDatoCiclo();                   
0D06A:  MOVLB  0
0D06C:  CALL   6A42
....................                            } 
....................                            if(!Ciclo){ 
0D070:  MOVLB  0
0D072:  BTFSC  xD1.7
0D074:  BRA    D11C
....................                               Ciclo=ON; 
0D076:  BSF    xD1.7
....................                               Ciclos++; 
0D078:  MOVLB  3
0D07A:  INCF   xAC,F
0D07C:  BTFSC  FD8.2
0D07E:  INCF   xAD,F
....................                               CiclosL=make8(Ciclos,0); 
0D080:  MOVFF  3AC,393
....................                               CiclosH=make8(Ciclos,1); 
0D084:  MOVFF  3AD,394
....................                               write_eeprom(37,CiclosL); 
0D088:  CLRF   FAA
0D08A:  MOVLW  25
0D08C:  MOVWF  FA9
0D08E:  MOVFF  393,FA8
0D092:  BCF    FA6.6
0D094:  BCF    FA6.7
0D096:  BSF    FA6.2
0D098:  MOVF   FF2,W
0D09A:  MOVWF  00
0D09C:  BCF    FF2.6
0D09E:  BCF    FF2.7
0D0A0:  MOVLB  F
0D0A2:  MOVLW  55
0D0A4:  MOVWF  FA7
0D0A6:  MOVLW  AA
0D0A8:  MOVWF  FA7
0D0AA:  BSF    FA6.1
0D0AC:  BTFSC  FA6.1
0D0AE:  BRA    D0AC
0D0B0:  BCF    FA6.2
0D0B2:  MOVF   00,W
0D0B4:  IORWF  FF2,F
....................                               delay_ms(20); 
0D0B6:  MOVLW  14
0D0B8:  MOVLB  4
0D0BA:  MOVWF  x8D
0D0BC:  MOVLB  0
0D0BE:  CALL   1B28
....................                               write_eeprom(38,CiclosH); 
0D0C2:  CLRF   FAA
0D0C4:  MOVLW  26
0D0C6:  MOVWF  FA9
0D0C8:  MOVFF  394,FA8
0D0CC:  BCF    FA6.6
0D0CE:  BCF    FA6.7
0D0D0:  BSF    FA6.2
0D0D2:  MOVF   FF2,W
0D0D4:  MOVWF  00
0D0D6:  BCF    FF2.6
0D0D8:  BCF    FF2.7
0D0DA:  MOVLB  F
0D0DC:  MOVLW  55
0D0DE:  MOVWF  FA7
0D0E0:  MOVLW  AA
0D0E2:  MOVWF  FA7
0D0E4:  BSF    FA6.1
0D0E6:  BTFSC  FA6.1
0D0E8:  BRA    D0E6
0D0EA:  BCF    FA6.2
0D0EC:  MOVF   00,W
0D0EE:  IORWF  FF2,F
....................                               delay_ms(20);                               
0D0F0:  MOVLW  14
0D0F2:  MOVLB  4
0D0F4:  MOVWF  x8D
0D0F6:  MOVLB  0
0D0F8:  CALL   1B28
....................                               Imprime=28; 
0D0FC:  MOVLW  1C
0D0FE:  MOVLB  3
0D100:  MOVWF  xE2
....................                               Envio_Esclavos(); 
0D102:  MOVLB  0
0D104:  CALL   4738
....................                               delay_ms(100); 
0D108:  MOVLW  64
0D10A:  MOVLB  4
0D10C:  MOVWF  x8D
0D10E:  MOVLB  0
0D110:  CALL   1B28
....................                               Imprime=10;                               
0D114:  MOVLW  0A
0D116:  MOVLB  3
0D118:  MOVWF  xE2
0D11A:  MOVLB  0
....................                            } 
....................                         }else if(PresionCamara>=Atmosferica+7){ 
0D11C:  BRA    D132
0D11E:  MOVLB  3
0D120:  MOVLW  07
0D122:  ADDWF  xE3,W
0D124:  MOVF   xA9,F
0D126:  BNZ   D12C
0D128:  SUBWF  xA8,W
0D12A:  BNC   D130
....................                            Desfogue_on; 
0D12C:  BCF    F8B.1
0D12E:  BCF    F94.1
0D130:  MOVLB  0
....................                         } 
....................                      }else{ 
0D132:  BRA    D18A
0D134:  MOVLB  3
....................                         codigoAlarma=13; 
0D136:  MOVLW  0D
0D138:  MOVWF  x15
....................                         if(codigoAnt!=codigoAlarma){ 
0D13A:  MOVF   x15,W
0D13C:  SUBWF  x16,W
0D13E:  BZ    D14A
....................                            codigoAnt=codigoAlarma; 
0D140:  MOVFF  315,316
....................                            GuardaDatoCiclo();                   
0D144:  MOVLB  0
0D146:  CALL   6A42
....................                         } 
....................                         Desfogando=ON; 
0D14A:  MOVLB  0
0D14C:  BSF    xD0.7
....................                         DesfogueSuave=ON; 
0D14E:  BSF    xD1.0
....................                         printf("Funcionamiento.t4f.txt=\" Ninguna\""); 
0D150:  MOVLW  64
0D152:  MOVWF  FF6
0D154:  MOVLW  16
0D156:  MOVWF  FF7
0D158:  MOVLW  00
0D15A:  MOVWF  FF8
0D15C:  CALL   390C
....................                         SendDataDisplay(); 
0D160:  CALL   393E
....................                         printf("Funcionamiento.t5f.txt=\" Despresurizando\""); 
0D164:  MOVLW  86
0D166:  MOVWF  FF6
0D168:  MOVLW  16
0D16A:  MOVWF  FF7
0D16C:  MOVLW  00
0D16E:  MOVWF  FF8
0D170:  CALL   390C
....................                         SendDataDisplay(); 
0D174:  CALL   393E
....................                         Control=0; 
0D178:  MOVLB  3
0D17A:  CLRF   x85
....................                         Controlando=0; 
0D17C:  CLRF   x87
....................                         SSR_off; 
0D17E:  BCF    F8D.1
0D180:  BCF    F96.1
....................                         Bomba_off; 
0D182:  BSF    F8B.0
0D184:  BCF    F94.0
....................                         Aire=OFF; 
0D186:  MOVLB  0
0D188:  BCF    xD4.3
....................                      } 
....................                   }else{ 
0D18A:  BRA    D3A4
0D18C:  MOVLB  3
....................                      //SSR_off; 
....................                      Controlando=0; 
0D18E:  CLRF   x87
....................                      Control=0; 
0D190:  CLRF   x85
....................                      if(PresionCamara<=Atmosferica+5){ 
0D192:  MOVLW  05
0D194:  ADDWF  xE3,W
0D196:  MOVF   xA9,F
0D198:  BTFSS  FD8.2
0D19A:  BRA    D342
0D19C:  SUBWF  xA8,W
0D19E:  BZ    D1A4
0D1A0:  BTFSC  FD8.0
0D1A2:  BRA    D342
....................                         if((Tsecado[0]==0)&&(Tsecado[1]==0)&&(Tsecado[2]==0)&&(Tsecado[3]==0)){ 
0D1A4:  MOVLB  0
0D1A6:  MOVF   xEB,F
0D1A8:  BTFSS  FD8.2
0D1AA:  BRA    D2E0
0D1AC:  MOVF   xEC,F
0D1AE:  BTFSS  FD8.2
0D1B0:  BRA    D2E0
0D1B2:  MOVF   xED,F
0D1B4:  BTFSS  FD8.2
0D1B6:  BRA    D2E0
0D1B8:  MOVF   xEE,F
0D1BA:  BTFSS  FD8.2
0D1BC:  BRA    D2E0
....................                            SSR_off; 
0D1BE:  BCF    F8D.1
0D1C0:  BCF    F96.1
....................                            Secando=OFF; 
0D1C2:  BCF    xD0.5
....................                            if(!DOOR && !DOORL){ 
0D1C4:  BSF    F93.6
0D1C6:  BTFSS  F81.6
0D1C8:  BRA    D1DA
0D1CA:  BSF    F93.7
0D1CC:  BTFSS  F81.7
0D1CE:  BRA    D1DA
....................                               Bomba_off; 
0D1D0:  BSF    F8B.0
0D1D2:  BCF    F94.0
....................                               Aire=OFF; 
0D1D4:  BCF    xD4.3
....................                               Desfogue_off; 
0D1D6:  BSF    F8B.1
0D1D8:  BCF    F94.1
....................                            } 
....................                            
....................                            ActivaAlarma(2); 
0D1DA:  MOVLW  02
0D1DC:  MOVLB  4
0D1DE:  MOVWF  x74
0D1E0:  MOVLB  0
0D1E2:  CALL   4934
....................                            printf("Funcionamiento.t4f.txt=\" Abra Lado Limpio\""); 
0D1E6:  MOVLW  B0
0D1E8:  MOVWF  FF6
0D1EA:  MOVLW  16
0D1EC:  MOVWF  FF7
0D1EE:  MOVLW  00
0D1F0:  MOVWF  FF8
0D1F2:  CALL   390C
....................                            SendDataDisplay(); 
0D1F6:  CALL   393E
....................                            printf("Funcionamiento.t5f.txt=\" Finalizado\""); 
0D1FA:  MOVLW  DC
0D1FC:  MOVWF  FF6
0D1FE:  MOVLW  16
0D200:  MOVWF  FF7
0D202:  MOVLW  00
0D204:  MOVWF  FF8
0D206:  CALL   390C
....................                            SendDataDisplay(); 
0D20A:  CALL   393E
....................                            Finalizo=ON; 
0D20E:  BSF    xD3.6
....................                            Bomba_off; 
0D210:  BSF    F8B.0
0D212:  BCF    F94.0
....................                            Aire=OFF; 
0D214:  BCF    xD4.3
....................                             
....................                            codigoAlarma=14; 
0D216:  MOVLW  0E
0D218:  MOVLB  3
0D21A:  MOVWF  x15
....................                            if(codigoAnt!=codigoAlarma){ 
0D21C:  MOVF   x15,W
0D21E:  SUBWF  x16,W
0D220:  BZ    D22C
....................                               codigoAnt=codigoAlarma; 
0D222:  MOVFF  315,316
....................                               GuardaDatoCiclo();                   
0D226:  MOVLB  0
0D228:  CALL   6A42
....................                            } 
....................                            if(!Ciclo){ 
0D22C:  MOVLB  0
0D22E:  BTFSC  xD1.7
0D230:  BRA    D2DC
....................                               Ciclo=ON; 
0D232:  BSF    xD1.7
....................                               Ciclos++; 
0D234:  MOVLB  3
0D236:  INCF   xAC,F
0D238:  BTFSC  FD8.2
0D23A:  INCF   xAD,F
....................                               CiclosL=make8(Ciclos,0); 
0D23C:  MOVFF  3AC,393
....................                               CiclosH=make8(Ciclos,1); 
0D240:  MOVFF  3AD,394
....................                               write_eeprom(37,CiclosL); 
0D244:  CLRF   FAA
0D246:  MOVLW  25
0D248:  MOVWF  FA9
0D24A:  MOVFF  393,FA8
0D24E:  BCF    FA6.6
0D250:  BCF    FA6.7
0D252:  BSF    FA6.2
0D254:  MOVF   FF2,W
0D256:  MOVWF  00
0D258:  BCF    FF2.6
0D25A:  BCF    FF2.7
0D25C:  MOVLB  F
0D25E:  MOVLW  55
0D260:  MOVWF  FA7
0D262:  MOVLW  AA
0D264:  MOVWF  FA7
0D266:  BSF    FA6.1
0D268:  BTFSC  FA6.1
0D26A:  BRA    D268
0D26C:  BCF    FA6.2
0D26E:  MOVF   00,W
0D270:  IORWF  FF2,F
....................                               delay_ms(20); 
0D272:  MOVLW  14
0D274:  MOVLB  4
0D276:  MOVWF  x8D
0D278:  MOVLB  0
0D27A:  CALL   1B28
....................                               write_eeprom(38,CiclosH); 
0D27E:  CLRF   FAA
0D280:  MOVLW  26
0D282:  MOVWF  FA9
0D284:  MOVFF  394,FA8
0D288:  BCF    FA6.6
0D28A:  BCF    FA6.7
0D28C:  BSF    FA6.2
0D28E:  MOVF   FF2,W
0D290:  MOVWF  00
0D292:  BCF    FF2.6
0D294:  BCF    FF2.7
0D296:  MOVLB  F
0D298:  MOVLW  55
0D29A:  MOVWF  FA7
0D29C:  MOVLW  AA
0D29E:  MOVWF  FA7
0D2A0:  BSF    FA6.1
0D2A2:  BTFSC  FA6.1
0D2A4:  BRA    D2A2
0D2A6:  BCF    FA6.2
0D2A8:  MOVF   00,W
0D2AA:  IORWF  FF2,F
....................                               delay_ms(20); 
0D2AC:  MOVLW  14
0D2AE:  MOVLB  4
0D2B0:  MOVWF  x8D
0D2B2:  MOVLB  0
0D2B4:  CALL   1B28
....................                               if(ActivaImpresion==1){ 
0D2B8:  MOVLB  3
0D2BA:  DECFSZ x88,W
0D2BC:  BRA    D2DA
....................                                  Imprime=28; 
0D2BE:  MOVLW  1C
0D2C0:  MOVWF  xE2
....................                                  Envio_Esclavos(); 
0D2C2:  MOVLB  0
0D2C4:  CALL   4738
....................                                  delay_ms(100); 
0D2C8:  MOVLW  64
0D2CA:  MOVLB  4
0D2CC:  MOVWF  x8D
0D2CE:  MOVLB  0
0D2D0:  CALL   1B28
....................                                  Imprime=10; 
0D2D4:  MOVLW  0A
0D2D6:  MOVLB  3
0D2D8:  MOVWF  xE2
0D2DA:  MOVLB  0
....................                               } 
....................                            } 
....................                            Secando=OFF; 
0D2DC:  BCF    xD0.5
....................                         }else{ 
0D2DE:  BRA    D33E
....................                            codigoAlarma=15; 
0D2E0:  MOVLW  0F
0D2E2:  MOVLB  3
0D2E4:  MOVWF  x15
....................                            if(codigoAnt!=codigoAlarma){ 
0D2E6:  MOVF   x15,W
0D2E8:  SUBWF  x16,W
0D2EA:  BZ    D2F6
....................                               codigoAnt=codigoAlarma; 
0D2EC:  MOVFF  315,316
....................                               GuardaDatoCiclo();                   
0D2F0:  MOVLB  0
0D2F2:  CALL   6A42
....................                            } 
....................                            Secando=ON; 
0D2F6:  MOVLB  0
0D2F8:  BSF    xD0.5
....................                            printf("Funcionamiento.t4f.txt=\" Ninguna\""); 
0D2FA:  MOVLW  02
0D2FC:  MOVWF  FF6
0D2FE:  MOVLW  17
0D300:  MOVWF  FF7
0D302:  MOVLW  00
0D304:  MOVWF  FF8
0D306:  CALL   390C
....................                            SendDataDisplay(); 
0D30A:  CALL   393E
....................                            printf("Funcionamiento.t5f.txt=\" Secando\""); 
0D30E:  MOVLW  24
0D310:  MOVWF  FF6
0D312:  MOVLW  17
0D314:  MOVWF  FF7
0D316:  MOVLW  00
0D318:  MOVWF  FF8
0D31A:  CALL   390C
....................                            SendDataDisplay();                            
0D31E:  CALL   393E
....................                            if(DOOR){ 
0D322:  BSF    F93.6
0D324:  BTFSC  F81.6
0D326:  BRA    D330
....................                               Aire=ON; 
0D328:  BSF    xD4.3
....................                               Desfogue_on; 
0D32A:  BCF    F8B.1
0D32C:  BCF    F94.1
....................                            }else{ 
0D32E:  BRA    D33E
....................                               CalientaChaqueta(); 
0D330:  GOTO   7532
....................                               Bomba_off; 
0D334:  BSF    F8B.0
0D336:  BCF    F94.0
....................                               Aire=OFF; 
0D338:  BCF    xD4.3
....................                               Desfogue_off; 
0D33A:  BSF    F8B.1
0D33C:  BCF    F94.1
....................                            } 
....................                         } 
....................                      }else if(PresionCamara>Atmosferica+6){ 
0D33E:  BRA    D3A4
0D340:  MOVLB  3
0D342:  MOVLW  06
0D344:  ADDWF  xE3,W
0D346:  MOVF   xA9,F
0D348:  BNZ   D350
0D34A:  SUBWF  xA8,W
0D34C:  BZ    D3A6
0D34E:  BNC   D3A6
....................                         codigoAlarma=13; 
0D350:  MOVLW  0D
0D352:  MOVWF  x15
....................                         if(codigoAnt!=codigoAlarma){ 
0D354:  MOVF   x15,W
0D356:  SUBWF  x16,W
0D358:  BZ    D364
....................                            codigoAnt=codigoAlarma; 
0D35A:  MOVFF  315,316
....................                            GuardaDatoCiclo();                   
0D35E:  MOVLB  0
0D360:  CALL   6A42
....................                         } 
....................                         Desfogando=ON; 
0D364:  MOVLB  0
0D366:  BSF    xD0.7
....................                         printf("Funcionamiento.t4f.txt=\" Ninguna\""); 
0D368:  MOVLW  46
0D36A:  MOVWF  FF6
0D36C:  MOVLW  17
0D36E:  MOVWF  FF7
0D370:  MOVLW  00
0D372:  MOVWF  FF8
0D374:  CALL   390C
....................                         SendDataDisplay(); 
0D378:  CALL   393E
....................                         printf("Funcionamiento.t5f.txt=\" Despresurizando\""); 
0D37C:  MOVLW  68
0D37E:  MOVWF  FF6
0D380:  MOVLW  17
0D382:  MOVWF  FF7
0D384:  MOVLW  00
0D386:  MOVWF  FF8
0D388:  CALL   390C
....................                         SendDataDisplay();                         
0D38C:  CALL   393E
....................                         Controlando=0; 
0D390:  MOVLB  3
0D392:  CLRF   x87
....................                         SSR_off; 
0D394:  BCF    F8D.1
0D396:  BCF    F96.1
....................                         Bomba_off; 
0D398:  BSF    F8B.0
0D39A:  BCF    F94.0
....................                         Aire=OFF; 
0D39C:  MOVLB  0
0D39E:  BCF    xD4.3
....................                         Desfogue_on; 
0D3A0:  BCF    F8B.1
0D3A2:  BCF    F94.1
0D3A4:  MOVLB  3
....................                      } 
....................                   } 
....................                    
....................                }else{ 
0D3A6:  BRA    D3FE
0D3A8:  MOVLB  0
....................                   printf("Funcionamiento.t4f.txt=\" Ninguna\""); 
0D3AA:  MOVLW  92
0D3AC:  MOVWF  FF6
0D3AE:  MOVLW  17
0D3B0:  MOVWF  FF7
0D3B2:  MOVLW  00
0D3B4:  MOVWF  FF8
0D3B6:  CALL   390C
....................                   SendDataDisplay(); 
0D3BA:  CALL   393E
....................                   printf("Funcionamiento.t5f.txt=\" Esterilizando\""); 
0D3BE:  MOVLW  B4
0D3C0:  MOVWF  FF6
0D3C2:  MOVLW  17
0D3C4:  MOVWF  FF7
0D3C6:  MOVLW  00
0D3C8:  MOVWF  FF8
0D3CA:  CALL   390C
....................                   SendDataDisplay(); 
0D3CE:  CALL   393E
....................                   Bomba_off; 
0D3D2:  BSF    F8B.0
0D3D4:  BCF    F94.0
....................                   Aire=OFF; 
0D3D6:  BCF    xD4.3
....................                   Desfogue_off; 
0D3D8:  BSF    F8B.1
0D3DA:  BCF    F94.1
....................                   Control=1; 
0D3DC:  MOVLW  01
0D3DE:  MOVLB  3
0D3E0:  MOVWF  x85
....................                   codigoAlarma=16; 
0D3E2:  MOVLW  10
0D3E4:  MOVWF  x15
....................                   if(codigoAnt!=codigoAlarma){ 
0D3E6:  MOVF   x15,W
0D3E8:  SUBWF  x16,W
0D3EA:  BZ    D3F6
....................                      codigoAnt=codigoAlarma; 
0D3EC:  MOVFF  315,316
....................                      GuardaDatoCiclo();                   
0D3F0:  MOVLB  0
0D3F2:  CALL   6A42
....................                   } 
....................                   #ifdef PT100Fija 
....................                      Controla(); 
0D3F6:  MOVLB  0
0D3F8:  CALL   6F9C
0D3FC:  MOVLB  3
....................                   #else 
....................                      ControlaPresion(); 
....................                   #endif 
....................                } 
....................             } 
....................          } 
....................    } 
....................  
....................    if(tguarda>=180){ 
0D3FE:  MOVLB  0
0D400:  MOVF   xE0,F
0D402:  BNZ   D40A
0D404:  MOVF   xDF,W
0D406:  SUBLW  B3
0D408:  BC    D416
....................       if(!Ciclo){ 
0D40A:  BTFSC  xD1.7
0D40C:  BRA    D416
....................          GuardaDatoCiclo(); 
0D40E:  CALL   6A42
....................          tguarda=0; 
0D412:  CLRF   xE0
0D414:  CLRF   xDF
....................       } 
....................    } 
....................     
....................    if(Grafica==1){ 
0D416:  MOVLB  3
0D418:  BTFSS  x84.2
0D41A:  BRA    D45A
....................       printf("add 14,0,%1.0f",Temperatura); 
0D41C:  MOVLW  DC
0D41E:  MOVWF  FF6
0D420:  MOVLW  17
0D422:  MOVWF  FF7
0D424:  MOVLW  00
0D426:  MOVWF  FF8
0D428:  MOVLW  09
0D42A:  MOVLB  4
0D42C:  MOVWF  x79
0D42E:  MOVLB  0
0D430:  CALL   4A36
0D434:  MOVLW  00
0D436:  MOVWF  FE9
0D438:  MOVFF  35C,47C
0D43C:  MOVFF  35B,47B
0D440:  MOVFF  35A,47A
0D444:  MOVFF  359,479
0D448:  MOVLB  4
0D44A:  CLRF   x7D
0D44C:  MOVLB  0
0D44E:  CALL   4BD6
....................       SendDataDisplay(); 
0D452:  CALL   393E
....................       //printf("add 14,1,%1.0f",PresionCamara/1.667); 
....................       //SendDataDisplay(); 
....................       //printf("add 14,0,%1.0f",Temperatura); 
....................       //SendDataDisplay(); 
....................       Grafica=0; 
0D456:  MOVLB  3
0D458:  BCF    x84.2
....................    } 
....................    if(Lectura==1)// Utilizado para visualizar la lectura de la temperatura 
0D45A:  BTFSS  x84.1
0D45C:  BRA    D71E
....................    {                             
....................       Lectura=0; 
0D45E:  BCF    x84.1
....................       printf("t6f.txt=\"%3.1fC\"",Temperatura); 
0D460:  MOVLW  EC
0D462:  MOVWF  FF6
0D464:  MOVLW  17
0D466:  MOVWF  FF7
0D468:  MOVLW  00
0D46A:  MOVWF  FF8
0D46C:  MOVLW  09
0D46E:  MOVLB  4
0D470:  MOVWF  x79
0D472:  MOVLB  0
0D474:  CALL   4A36
0D478:  MOVLW  02
0D47A:  MOVWF  FE9
0D47C:  MOVFF  35C,47C
0D480:  MOVFF  35B,47B
0D484:  MOVFF  35A,47A
0D488:  MOVFF  359,479
0D48C:  MOVLW  01
0D48E:  MOVLB  4
0D490:  MOVWF  x7D
0D492:  MOVLB  0
0D494:  CALL   4BD6
0D498:  MOVLW  B0
0D49A:  BTFSS  F9E.4
0D49C:  BRA    D49A
0D49E:  MOVWF  FAD
0D4A0:  MOVLW  43
0D4A2:  BTFSS  F9E.4
0D4A4:  BRA    D4A2
0D4A6:  MOVWF  FAD
0D4A8:  MOVLW  22
0D4AA:  BTFSS  F9E.4
0D4AC:  BRA    D4AA
0D4AE:  MOVWF  FAD
....................       SendDataDisplay(); 
0D4B0:  CALL   393E
....................       printf("Funcionamiento.t7f.txt=\"%03LukPa\"",PresionCamara); 
0D4B4:  MOVLW  FE
0D4B6:  MOVWF  FF6
0D4B8:  MOVLW  17
0D4BA:  MOVWF  FF7
0D4BC:  MOVLW  00
0D4BE:  MOVWF  FF8
0D4C0:  MOVLW  18
0D4C2:  MOVLB  4
0D4C4:  MOVWF  x79
0D4C6:  MOVLB  0
0D4C8:  CALL   4A36
0D4CC:  MOVLW  0A
0D4CE:  MOVWF  FE9
0D4D0:  MOVFF  3A9,479
0D4D4:  MOVFF  3A8,478
0D4D8:  CALL   54D2
0D4DC:  MOVLW  1B
0D4DE:  MOVWF  FF6
0D4E0:  MOVLW  18
0D4E2:  MOVWF  FF7
0D4E4:  MOVLW  00
0D4E6:  MOVWF  FF8
0D4E8:  MOVLW  04
0D4EA:  MOVLB  4
0D4EC:  MOVWF  x79
0D4EE:  MOVLB  0
0D4F0:  CALL   4A36
....................       SendDataDisplay(); 
0D4F4:  CALL   393E
....................       //printf("Funcionamiento.t12f.txt=\"%03LukPa\"",PresionPreCamara); 
....................       printf("Funcionamiento.t12f.txt=\"000kPa\""); 
0D4F8:  MOVLW  20
0D4FA:  MOVWF  FF6
0D4FC:  MOVLW  18
0D4FE:  MOVWF  FF7
0D500:  MOVLW  00
0D502:  MOVWF  FF8
0D504:  CALL   390C
....................       SendDataDisplay(); 
0D508:  CALL   393E
....................       printf("Funcionamiento.t9f.txt=\"%03u\"",Setpoint); 
0D50C:  MOVLW  42
0D50E:  MOVWF  FF6
0D510:  MOVLW  18
0D512:  MOVWF  FF7
0D514:  MOVLW  00
0D516:  MOVWF  FF8
0D518:  MOVLW  18
0D51A:  MOVLB  4
0D51C:  MOVWF  x79
0D51E:  MOVLB  0
0D520:  CALL   4A36
0D524:  MOVFF  396,479
0D528:  MOVLW  03
0D52A:  MOVLB  4
0D52C:  MOVWF  x7A
0D52E:  MOVLB  0
0D530:  CALL   4A94
0D534:  MOVLW  22
0D536:  BTFSS  F9E.4
0D538:  BRA    D536
0D53A:  MOVWF  FAD
....................       SendDataDisplay();       
0D53C:  CALL   393E
....................       printf("Funcionamiento.t10f.txt=\"%02u\"",((Testerilizacion[3]*10)+Testerilizacion[2])); 
0D540:  MOVFF  E4,476
0D544:  MOVLW  0A
0D546:  MOVLB  4
0D548:  MOVWF  x77
0D54A:  MOVLB  0
0D54C:  CALL   2DC0
0D550:  MOVF   xE3,W
0D552:  ADDWF  01,W
0D554:  MOVLB  4
0D556:  MOVWF  x74
0D558:  MOVLW  60
0D55A:  MOVWF  FF6
0D55C:  MOVLW  18
0D55E:  MOVWF  FF7
0D560:  MOVLW  00
0D562:  MOVWF  FF8
0D564:  MOVLW  19
0D566:  MOVWF  x79
0D568:  MOVLB  0
0D56A:  CALL   4A36
0D56E:  MOVFF  474,479
0D572:  MOVLW  01
0D574:  MOVLB  4
0D576:  MOVWF  x7A
0D578:  MOVLB  0
0D57A:  CALL   4A94
0D57E:  MOVLW  22
0D580:  BTFSS  F9E.4
0D582:  BRA    D580
0D584:  MOVWF  FAD
....................       SendDataDisplay();       
0D586:  CALL   393E
....................       printf("Funcionamiento.t13f.txt=\"%02u\"",((Testerilizacion[1]*10)+Testerilizacion[0])); 
0D58A:  MOVFF  E2,476
0D58E:  MOVLW  0A
0D590:  MOVLB  4
0D592:  MOVWF  x77
0D594:  MOVLB  0
0D596:  CALL   2DC0
0D59A:  MOVF   xE1,W
0D59C:  ADDWF  01,W
0D59E:  MOVLB  4
0D5A0:  MOVWF  x74
0D5A2:  MOVLW  80
0D5A4:  MOVWF  FF6
0D5A6:  MOVLW  18
0D5A8:  MOVWF  FF7
0D5AA:  MOVLW  00
0D5AC:  MOVWF  FF8
0D5AE:  MOVLW  19
0D5B0:  MOVWF  x79
0D5B2:  MOVLB  0
0D5B4:  CALL   4A36
0D5B8:  MOVFF  474,479
0D5BC:  MOVLW  01
0D5BE:  MOVLB  4
0D5C0:  MOVWF  x7A
0D5C2:  MOVLB  0
0D5C4:  CALL   4A94
0D5C8:  MOVLW  22
0D5CA:  BTFSS  F9E.4
0D5CC:  BRA    D5CA
0D5CE:  MOVWF  FAD
....................       SendDataDisplay();       
0D5D0:  CALL   393E
....................       printf("Funcionamiento.t11f.txt=\"%02u\"",((Tsecado[3]*10)+Tsecado[2])); 
0D5D4:  MOVFF  EE,476
0D5D8:  MOVLW  0A
0D5DA:  MOVLB  4
0D5DC:  MOVWF  x77
0D5DE:  MOVLB  0
0D5E0:  CALL   2DC0
0D5E4:  MOVF   xED,W
0D5E6:  ADDWF  01,W
0D5E8:  MOVLB  4
0D5EA:  MOVWF  x74
0D5EC:  MOVLW  A0
0D5EE:  MOVWF  FF6
0D5F0:  MOVLW  18
0D5F2:  MOVWF  FF7
0D5F4:  MOVLW  00
0D5F6:  MOVWF  FF8
0D5F8:  MOVLW  19
0D5FA:  MOVWF  x79
0D5FC:  MOVLB  0
0D5FE:  CALL   4A36
0D602:  MOVFF  474,479
0D606:  MOVLW  01
0D608:  MOVLB  4
0D60A:  MOVWF  x7A
0D60C:  MOVLB  0
0D60E:  CALL   4A94
0D612:  MOVLW  22
0D614:  BTFSS  F9E.4
0D616:  BRA    D614
0D618:  MOVWF  FAD
....................       SendDataDisplay();       
0D61A:  CALL   393E
....................       printf("Funcionamiento.t16f.txt=\"%02u\"",((Tsecado[1]*10)+Tsecado[0])); 
0D61E:  MOVFF  EC,476
0D622:  MOVLW  0A
0D624:  MOVLB  4
0D626:  MOVWF  x77
0D628:  MOVLB  0
0D62A:  CALL   2DC0
0D62E:  MOVF   xEB,W
0D630:  ADDWF  01,W
0D632:  MOVLB  4
0D634:  MOVWF  x74
0D636:  MOVLW  C0
0D638:  MOVWF  FF6
0D63A:  MOVLW  18
0D63C:  MOVWF  FF7
0D63E:  MOVLW  00
0D640:  MOVWF  FF8
0D642:  MOVLW  19
0D644:  MOVWF  x79
0D646:  MOVLB  0
0D648:  CALL   4A36
0D64C:  MOVFF  474,479
0D650:  MOVLW  01
0D652:  MOVLB  4
0D654:  MOVWF  x7A
0D656:  MOVLB  0
0D658:  CALL   4A94
0D65C:  MOVLW  22
0D65E:  BTFSS  F9E.4
0D660:  BRA    D65E
0D662:  MOVWF  FAD
....................       SendDataDisplay();       
0D664:  CALL   393E
....................        
....................       printf("fecha.txt=\"Fecha:%02u/%02u/20%02u    Hora: %02u:%02u\"",Dia,Mes,Year,Hora,Minuto); 
0D668:  MOVLW  E0
0D66A:  MOVWF  FF6
0D66C:  MOVLW  18
0D66E:  MOVWF  FF7
0D670:  MOVLW  00
0D672:  MOVWF  FF8
0D674:  MOVLW  11
0D676:  MOVLB  4
0D678:  MOVWF  x79
0D67A:  MOVLB  0
0D67C:  CALL   4A36
0D680:  MOVFF  3D1,479
0D684:  MOVLW  01
0D686:  MOVLB  4
0D688:  MOVWF  x7A
0D68A:  MOVLB  0
0D68C:  CALL   4A94
0D690:  MOVLW  2F
0D692:  BTFSS  F9E.4
0D694:  BRA    D692
0D696:  MOVWF  FAD
0D698:  MOVFF  3D0,479
0D69C:  MOVLW  01
0D69E:  MOVLB  4
0D6A0:  MOVWF  x7A
0D6A2:  MOVLB  0
0D6A4:  CALL   4A94
0D6A8:  MOVLW  2F
0D6AA:  BTFSS  F9E.4
0D6AC:  BRA    D6AA
0D6AE:  MOVWF  FAD
0D6B0:  MOVLW  32
0D6B2:  BTFSS  F9E.4
0D6B4:  BRA    D6B2
0D6B6:  MOVWF  FAD
0D6B8:  MOVLW  30
0D6BA:  BTFSS  F9E.4
0D6BC:  BRA    D6BA
0D6BE:  MOVWF  FAD
0D6C0:  MOVFF  3CF,479
0D6C4:  MOVLW  01
0D6C6:  MOVLB  4
0D6C8:  MOVWF  x7A
0D6CA:  MOVLB  0
0D6CC:  CALL   4A94
0D6D0:  MOVLW  01
0D6D2:  MOVWF  FF6
0D6D4:  MOVLW  19
0D6D6:  MOVWF  FF7
0D6D8:  MOVLW  00
0D6DA:  MOVWF  FF8
0D6DC:  MOVLW  0A
0D6DE:  MOVLB  4
0D6E0:  MOVWF  x79
0D6E2:  MOVLB  0
0D6E4:  CALL   4A36
0D6E8:  MOVFF  3D2,479
0D6EC:  MOVLW  01
0D6EE:  MOVLB  4
0D6F0:  MOVWF  x7A
0D6F2:  MOVLB  0
0D6F4:  CALL   4A94
0D6F8:  MOVLW  3A
0D6FA:  BTFSS  F9E.4
0D6FC:  BRA    D6FA
0D6FE:  MOVWF  FAD
0D700:  MOVFF  3D3,479
0D704:  MOVLW  01
0D706:  MOVLB  4
0D708:  MOVWF  x7A
0D70A:  MOVLB  0
0D70C:  CALL   4A94
0D710:  MOVLW  22
0D712:  BTFSS  F9E.4
0D714:  BRA    D712
0D716:  MOVWF  FAD
....................       SendDataDisplay(); 
0D718:  CALL   393E
0D71C:  MOVLB  3
....................    } 
....................  
....................  
.................... } 
.................... //_-------------------------------------------------------------------------------------------------------------------------------------------------------- 
....................  
.................... //_-------------------------------------------------------------------------------------------------------------------------------------------------------- 
....................       if(Menu==100){ //Menu de Configuracin de Parametros de Control 
0D71E:  MOVF   x8F,W
0D720:  SUBLW  64
0D722:  BTFSS  FD8.2
0D724:  GOTO   E5F4
....................       
....................       if(Opcion2>11) 
0D728:  MOVF   x98,W
0D72A:  SUBLW  0B
0D72C:  BC    D732
....................          Opcion2=1; 
0D72E:  MOVLW  01
0D730:  MOVWF  x98
....................       if(Opcion2<1) 
0D732:  MOVF   x98,F
0D734:  BNZ   D73A
....................          Opcion2=11; 
0D736:  MOVLW  0B
0D738:  MOVWF  x98
....................        
....................       if(Opcion2==1){ 
0D73A:  DECFSZ x98,W
0D73C:  BRA    D8BA
....................          printf("Config.t2c.txt=\"Proporcional\""); 
0D73E:  MOVLW  16
0D740:  MOVWF  FF6
0D742:  MOVLW  19
0D744:  MOVWF  FF7
0D746:  MOVLW  00
0D748:  MOVWF  FF8
0D74A:  MOVLB  0
0D74C:  CALL   390C
....................          SendDataDisplay();       
0D750:  CALL   393E
....................          printf("t3c.txt=\"%2.0f\"",Ganancia); 
0D754:  MOVLW  34
0D756:  MOVWF  FF6
0D758:  MOVLW  19
0D75A:  MOVWF  FF7
0D75C:  MOVLW  00
0D75E:  MOVWF  FF8
0D760:  MOVLW  09
0D762:  MOVLB  4
0D764:  MOVWF  x79
0D766:  MOVLB  0
0D768:  CALL   4A36
0D76C:  MOVLW  01
0D76E:  MOVWF  FE9
0D770:  MOVFF  33C,47C
0D774:  MOVFF  33B,47B
0D778:  MOVFF  33A,47A
0D77C:  MOVFF  339,479
0D780:  MOVLB  4
0D782:  CLRF   x7D
0D784:  MOVLB  0
0D786:  CALL   4BD6
0D78A:  MOVLW  22
0D78C:  BTFSS  F9E.4
0D78E:  BRA    D78C
0D790:  MOVWF  FAD
....................          SendDataDisplay(); 
0D792:  CALL   393E
....................          if(RX_Buffer[4]==0x0a || UP){//Tecla Arriba Oprimida 
0D796:  MOVF   34,W
0D798:  SUBLW  0A
0D79A:  BZ    D7A2
0D79C:  BSF    F93.3
0D79E:  BTFSC  F81.3
0D7A0:  BRA    D7F2
....................             delay_ms(20); 
0D7A2:  MOVLW  14
0D7A4:  MOVLB  4
0D7A6:  MOVWF  x8D
0D7A8:  MOVLB  0
0D7AA:  CALL   1B28
....................             if(RX_Buffer[4]==0x0a || UP){ 
0D7AE:  MOVF   34,W
0D7B0:  SUBLW  0A
0D7B2:  BZ    D7BA
0D7B4:  BSF    F93.3
0D7B6:  BTFSC  F81.3
0D7B8:  BRA    D7F2
....................                Ganancia+=1.0; 
0D7BA:  BCF    FD8.1
0D7BC:  MOVFF  33C,48C
0D7C0:  MOVFF  33B,48B
0D7C4:  MOVFF  33A,48A
0D7C8:  MOVFF  339,489
0D7CC:  MOVLB  4
0D7CE:  CLRF   x90
0D7D0:  CLRF   x8F
0D7D2:  CLRF   x8E
0D7D4:  MOVLW  7F
0D7D6:  MOVWF  x8D
0D7D8:  MOVLB  0
0D7DA:  CALL   1CE4
0D7DE:  MOVFF  03,33C
0D7E2:  MOVFF  02,33B
0D7E6:  MOVFF  01,33A
0D7EA:  MOVFF  00,339
....................                RX_Buffer[4]=0x00;   
0D7EE:  CLRF   34
....................                RX_Buffer2[4]=0x00;             
0D7F0:  CLRF   3F
....................                //BorraBuffer(); 
....................             } 
....................          } 
....................              
....................          if(RX_Buffer[4]==0x0b || DOWN){//Tecla Abajo Oprimida 
0D7F2:  MOVF   34,W
0D7F4:  SUBLW  0B
0D7F6:  BZ    D7FE
0D7F8:  BSF    F93.2
0D7FA:  BTFSC  F81.2
0D7FC:  BRA    D84E
....................             delay_ms(20); 
0D7FE:  MOVLW  14
0D800:  MOVLB  4
0D802:  MOVWF  x8D
0D804:  MOVLB  0
0D806:  CALL   1B28
....................             if(RX_Buffer[4]==0x0b || DOWN){ 
0D80A:  MOVF   34,W
0D80C:  SUBLW  0B
0D80E:  BZ    D816
0D810:  BSF    F93.2
0D812:  BTFSC  F81.2
0D814:  BRA    D84E
....................                Ganancia-=1.0; 
0D816:  BSF    FD8.1
0D818:  MOVFF  33C,48C
0D81C:  MOVFF  33B,48B
0D820:  MOVFF  33A,48A
0D824:  MOVFF  339,489
0D828:  MOVLB  4
0D82A:  CLRF   x90
0D82C:  CLRF   x8F
0D82E:  CLRF   x8E
0D830:  MOVLW  7F
0D832:  MOVWF  x8D
0D834:  MOVLB  0
0D836:  CALL   1CE4
0D83A:  MOVFF  03,33C
0D83E:  MOVFF  02,33B
0D842:  MOVFF  01,33A
0D846:  MOVFF  00,339
....................                RX_Buffer[4]=0x00; 
0D84A:  CLRF   34
....................                RX_Buffer2[4]=0x00;             
0D84C:  CLRF   3F
....................                //BorraBuffer(); 
....................             } 
....................          } 
....................           
....................          if(Ganancia>40) 
0D84E:  MOVLB  4
0D850:  CLRF   x7B
0D852:  CLRF   x7A
0D854:  MOVLW  20
0D856:  MOVWF  x79
0D858:  MOVLW  84
0D85A:  MOVWF  x78
0D85C:  MOVFF  33C,47F
0D860:  MOVFF  33B,47E
0D864:  MOVFF  33A,47D
0D868:  MOVFF  339,47C
0D86C:  MOVLB  0
0D86E:  CALL   2D46
0D872:  BNC   D880
....................             Ganancia=1; 
0D874:  MOVLB  3
0D876:  CLRF   x3C
0D878:  CLRF   x3B
0D87A:  CLRF   x3A
0D87C:  MOVLW  7F
0D87E:  MOVWF  x39
....................          if(Ganancia<1) 
0D880:  MOVFF  33C,47B
0D884:  MOVFF  33B,47A
0D888:  MOVFF  33A,479
0D88C:  MOVFF  339,478
0D890:  MOVLB  4
0D892:  CLRF   x7F
0D894:  CLRF   x7E
0D896:  CLRF   x7D
0D898:  MOVLW  7F
0D89A:  MOVWF  x7C
0D89C:  MOVLB  0
0D89E:  CALL   2D46
0D8A2:  BNC   D8B4
....................             Ganancia=40; 
0D8A4:  MOVLB  3
0D8A6:  CLRF   x3C
0D8A8:  CLRF   x3B
0D8AA:  MOVLW  20
0D8AC:  MOVWF  x3A
0D8AE:  MOVLW  84
0D8B0:  MOVWF  x39
0D8B2:  MOVLB  0
....................       }else if(Opcion2==2){ 
0D8B4:  GOTO   E12E
0D8B8:  MOVLB  3
0D8BA:  MOVF   x98,W
0D8BC:  SUBLW  02
0D8BE:  BNZ   D97E
....................          printf("Config.t2c.txt=\"Derivativo\""); 
0D8C0:  MOVLW  44
0D8C2:  MOVWF  FF6
0D8C4:  MOVLW  19
0D8C6:  MOVWF  FF7
0D8C8:  MOVLW  00
0D8CA:  MOVWF  FF8
0D8CC:  MOVLB  0
0D8CE:  CALL   390C
....................          SendDataDisplay();       
0D8D2:  CALL   393E
....................          printf("t3c.txt=\"%u\"",Derivativo); 
0D8D6:  MOVLW  60
0D8D8:  MOVWF  FF6
0D8DA:  MOVLW  19
0D8DC:  MOVWF  FF7
0D8DE:  MOVLW  00
0D8E0:  MOVWF  FF8
0D8E2:  MOVLW  09
0D8E4:  MOVLB  4
0D8E6:  MOVWF  x79
0D8E8:  MOVLB  0
0D8EA:  CALL   4A36
0D8EE:  MOVFF  36E,479
0D8F2:  MOVLW  1B
0D8F4:  MOVLB  4
0D8F6:  MOVWF  x7A
0D8F8:  MOVLB  0
0D8FA:  CALL   4A94
0D8FE:  MOVLW  22
0D900:  BTFSS  F9E.4
0D902:  BRA    D900
0D904:  MOVWF  FAD
....................          SendDataDisplay(); 
0D906:  CALL   393E
....................          if(RX_Buffer[4]==0x0a || UP){//Tecla Arriba Oprimida 
0D90A:  MOVF   34,W
0D90C:  SUBLW  0A
0D90E:  BZ    D916
0D910:  BSF    F93.3
0D912:  BTFSC  F81.3
0D914:  BRA    D938
....................             delay_ms(20); 
0D916:  MOVLW  14
0D918:  MOVLB  4
0D91A:  MOVWF  x8D
0D91C:  MOVLB  0
0D91E:  CALL   1B28
....................             if(RX_Buffer[4]==0x0a || UP){ 
0D922:  MOVF   34,W
0D924:  SUBLW  0A
0D926:  BZ    D92E
0D928:  BSF    F93.3
0D92A:  BTFSC  F81.3
0D92C:  BRA    D938
....................                Derivativo++; 
0D92E:  MOVLB  3
0D930:  INCF   x6E,F
....................                RX_Buffer[4]=0x00;   
0D932:  CLRF   34
....................                RX_Buffer2[4]=0x00;             
0D934:  CLRF   3F
0D936:  MOVLB  0
....................                //BorraBuffer(); 
....................             } 
....................          } 
....................              
....................          if(RX_Buffer[4]==0x0b || DOWN){//Tecla Abajo Oprimida 
0D938:  MOVF   34,W
0D93A:  SUBLW  0B
0D93C:  BZ    D944
0D93E:  BSF    F93.2
0D940:  BTFSC  F81.2
0D942:  BRA    D966
....................             delay_ms(20); 
0D944:  MOVLW  14
0D946:  MOVLB  4
0D948:  MOVWF  x8D
0D94A:  MOVLB  0
0D94C:  CALL   1B28
....................             if(RX_Buffer[4]==0x0b || DOWN){ 
0D950:  MOVF   34,W
0D952:  SUBLW  0B
0D954:  BZ    D95C
0D956:  BSF    F93.2
0D958:  BTFSC  F81.2
0D95A:  BRA    D966
....................                Derivativo--; 
0D95C:  MOVLB  3
0D95E:  DECF   x6E,F
....................                RX_Buffer[4]=0x00; 
0D960:  CLRF   34
....................                RX_Buffer2[4]=0x00;             
0D962:  CLRF   3F
0D964:  MOVLB  0
....................                //BorraBuffer(); 
....................             } 
....................          } 
....................           
....................           
....................          if(Derivativo>40) 
0D966:  MOVLB  3
0D968:  MOVF   x6E,W
0D96A:  SUBLW  28
0D96C:  BC    D972
....................             Derivativo=1; 
0D96E:  MOVLW  01
0D970:  MOVWF  x6E
....................          if(Derivativo<1) 
0D972:  MOVF   x6E,F
0D974:  BNZ   D97A
....................             Derivativo=40; 
0D976:  MOVLW  28
0D978:  MOVWF  x6E
....................       }else if(Opcion2==3){ 
0D97A:  GOTO   E12C
0D97E:  MOVF   x98,W
0D980:  SUBLW  03
0D982:  BNZ   DA42
....................          printf("Config.t2c.txt=\"Integral\""); 
0D984:  MOVLW  6E
0D986:  MOVWF  FF6
0D988:  MOVLW  19
0D98A:  MOVWF  FF7
0D98C:  MOVLW  00
0D98E:  MOVWF  FF8
0D990:  MOVLB  0
0D992:  CALL   390C
....................          SendDataDisplay();       
0D996:  CALL   393E
....................          printf("t3c.txt=\"%u\"",Integral); 
0D99A:  MOVLW  88
0D99C:  MOVWF  FF6
0D99E:  MOVLW  19
0D9A0:  MOVWF  FF7
0D9A2:  MOVLW  00
0D9A4:  MOVWF  FF8
0D9A6:  MOVLW  09
0D9A8:  MOVLB  4
0D9AA:  MOVWF  x79
0D9AC:  MOVLB  0
0D9AE:  CALL   4A36
0D9B2:  MOVFF  36D,479
0D9B6:  MOVLW  1B
0D9B8:  MOVLB  4
0D9BA:  MOVWF  x7A
0D9BC:  MOVLB  0
0D9BE:  CALL   4A94
0D9C2:  MOVLW  22
0D9C4:  BTFSS  F9E.4
0D9C6:  BRA    D9C4
0D9C8:  MOVWF  FAD
....................          SendDataDisplay(); 
0D9CA:  CALL   393E
....................          if(RX_Buffer[4]==0x0a || UP){//Tecla Arriba Oprimida 
0D9CE:  MOVF   34,W
0D9D0:  SUBLW  0A
0D9D2:  BZ    D9DA
0D9D4:  BSF    F93.3
0D9D6:  BTFSC  F81.3
0D9D8:  BRA    D9FC
....................             delay_ms(20); 
0D9DA:  MOVLW  14
0D9DC:  MOVLB  4
0D9DE:  MOVWF  x8D
0D9E0:  MOVLB  0
0D9E2:  CALL   1B28
....................             if(RX_Buffer[4]==0x0a || UP){ 
0D9E6:  MOVF   34,W
0D9E8:  SUBLW  0A
0D9EA:  BZ    D9F2
0D9EC:  BSF    F93.3
0D9EE:  BTFSC  F81.3
0D9F0:  BRA    D9FC
....................                Integral++; 
0D9F2:  MOVLB  3
0D9F4:  INCF   x6D,F
....................                RX_Buffer[4]=0x00;   
0D9F6:  CLRF   34
....................                RX_Buffer2[4]=0x00;             
0D9F8:  CLRF   3F
0D9FA:  MOVLB  0
....................                //BorraBuffer(); 
....................             } 
....................          } 
....................              
....................          if(RX_Buffer[4]==0x0b || DOWN){//Tecla Abajo Oprimida 
0D9FC:  MOVF   34,W
0D9FE:  SUBLW  0B
0DA00:  BZ    DA08
0DA02:  BSF    F93.2
0DA04:  BTFSC  F81.2
0DA06:  BRA    DA2A
....................             delay_ms(20); 
0DA08:  MOVLW  14
0DA0A:  MOVLB  4
0DA0C:  MOVWF  x8D
0DA0E:  MOVLB  0
0DA10:  CALL   1B28
....................             if(RX_Buffer[4]==0x0b || DOWN){ 
0DA14:  MOVF   34,W
0DA16:  SUBLW  0B
0DA18:  BZ    DA20
0DA1A:  BSF    F93.2
0DA1C:  BTFSC  F81.2
0DA1E:  BRA    DA2A
....................                Integral--; 
0DA20:  MOVLB  3
0DA22:  DECF   x6D,F
....................                RX_Buffer[4]=0x00; 
0DA24:  CLRF   34
....................                RX_Buffer2[4]=0x00;             
0DA26:  CLRF   3F
0DA28:  MOVLB  0
....................                //BorraBuffer(); 
....................             } 
....................          } 
....................           
....................          if(Integral>40) 
0DA2A:  MOVLB  3
0DA2C:  MOVF   x6D,W
0DA2E:  SUBLW  28
0DA30:  BC    DA36
....................             Integral=1; 
0DA32:  MOVLW  01
0DA34:  MOVWF  x6D
....................          if(Integral<1) 
0DA36:  MOVF   x6D,F
0DA38:  BNZ   DA3E
....................             Integral=40; 
0DA3A:  MOVLW  28
0DA3C:  MOVWF  x6D
....................       }else if(Opcion2==4){ 
0DA3E:  GOTO   E12C
0DA42:  MOVF   x98,W
0DA44:  SUBLW  04
0DA46:  BTFSS  FD8.2
0DA48:  BRA    DBC8
....................          printf("Config.t2c.txt=\"Tciclo\""); 
0DA4A:  MOVLW  96
0DA4C:  MOVWF  FF6
0DA4E:  MOVLW  19
0DA50:  MOVWF  FF7
0DA52:  MOVLW  00
0DA54:  MOVWF  FF8
0DA56:  MOVLB  0
0DA58:  CALL   390C
....................          SendDataDisplay();       
0DA5C:  CALL   393E
....................          printf("t3c.txt=\"%2.0f\"",Tciclo); 
0DA60:  MOVLW  AE
0DA62:  MOVWF  FF6
0DA64:  MOVLW  19
0DA66:  MOVWF  FF7
0DA68:  MOVLW  00
0DA6A:  MOVWF  FF8
0DA6C:  MOVLW  09
0DA6E:  MOVLB  4
0DA70:  MOVWF  x79
0DA72:  MOVLB  0
0DA74:  CALL   4A36
0DA78:  MOVLW  01
0DA7A:  MOVWF  FE9
0DA7C:  MOVFF  324,47C
0DA80:  MOVFF  323,47B
0DA84:  MOVFF  322,47A
0DA88:  MOVFF  321,479
0DA8C:  MOVLB  4
0DA8E:  CLRF   x7D
0DA90:  MOVLB  0
0DA92:  CALL   4BD6
0DA96:  MOVLW  22
0DA98:  BTFSS  F9E.4
0DA9A:  BRA    DA98
0DA9C:  MOVWF  FAD
....................          SendDataDisplay(); 
0DA9E:  CALL   393E
....................          if(RX_Buffer[4]==0x0a || UP){//Tecla Arriba Oprimida 
0DAA2:  MOVF   34,W
0DAA4:  SUBLW  0A
0DAA6:  BZ    DAAE
0DAA8:  BSF    F93.3
0DAAA:  BTFSC  F81.3
0DAAC:  BRA    DAFE
....................             delay_ms(20); 
0DAAE:  MOVLW  14
0DAB0:  MOVLB  4
0DAB2:  MOVWF  x8D
0DAB4:  MOVLB  0
0DAB6:  CALL   1B28
....................             if(RX_Buffer[4]==0x0a || UP){ 
0DABA:  MOVF   34,W
0DABC:  SUBLW  0A
0DABE:  BZ    DAC6
0DAC0:  BSF    F93.3
0DAC2:  BTFSC  F81.3
0DAC4:  BRA    DAFE
....................                Tciclo+=1.0; 
0DAC6:  BCF    FD8.1
0DAC8:  MOVFF  324,48C
0DACC:  MOVFF  323,48B
0DAD0:  MOVFF  322,48A
0DAD4:  MOVFF  321,489
0DAD8:  MOVLB  4
0DADA:  CLRF   x90
0DADC:  CLRF   x8F
0DADE:  CLRF   x8E
0DAE0:  MOVLW  7F
0DAE2:  MOVWF  x8D
0DAE4:  MOVLB  0
0DAE6:  CALL   1CE4
0DAEA:  MOVFF  03,324
0DAEE:  MOVFF  02,323
0DAF2:  MOVFF  01,322
0DAF6:  MOVFF  00,321
....................                RX_Buffer[4]=0x00;   
0DAFA:  CLRF   34
....................                RX_Buffer2[4]=0x00;             
0DAFC:  CLRF   3F
....................                //BorraBuffer(); 
....................             } 
....................          } 
....................              
....................          if(RX_Buffer[4]==0x0b || DOWN){//Tecla Abajo Oprimida 
0DAFE:  MOVF   34,W
0DB00:  SUBLW  0B
0DB02:  BZ    DB0A
0DB04:  BSF    F93.2
0DB06:  BTFSC  F81.2
0DB08:  BRA    DB5A
....................             delay_ms(20); 
0DB0A:  MOVLW  14
0DB0C:  MOVLB  4
0DB0E:  MOVWF  x8D
0DB10:  MOVLB  0
0DB12:  CALL   1B28
....................             if(RX_Buffer[4]==0x0b || DOWN){ 
0DB16:  MOVF   34,W
0DB18:  SUBLW  0B
0DB1A:  BZ    DB22
0DB1C:  BSF    F93.2
0DB1E:  BTFSC  F81.2
0DB20:  BRA    DB5A
....................                Tciclo-=1.0; 
0DB22:  BSF    FD8.1
0DB24:  MOVFF  324,48C
0DB28:  MOVFF  323,48B
0DB2C:  MOVFF  322,48A
0DB30:  MOVFF  321,489
0DB34:  MOVLB  4
0DB36:  CLRF   x90
0DB38:  CLRF   x8F
0DB3A:  CLRF   x8E
0DB3C:  MOVLW  7F
0DB3E:  MOVWF  x8D
0DB40:  MOVLB  0
0DB42:  CALL   1CE4
0DB46:  MOVFF  03,324
0DB4A:  MOVFF  02,323
0DB4E:  MOVFF  01,322
0DB52:  MOVFF  00,321
....................                RX_Buffer[4]=0x00; 
0DB56:  CLRF   34
....................                RX_Buffer2[4]=0x00;             
0DB58:  CLRF   3F
....................                //BorraBuffer(); 
....................             } 
....................          } 
....................           
....................          if(Tciclo>20) 
0DB5A:  MOVLB  4
0DB5C:  CLRF   x7B
0DB5E:  CLRF   x7A
0DB60:  MOVLW  20
0DB62:  MOVWF  x79
0DB64:  MOVLW  83
0DB66:  MOVWF  x78
0DB68:  MOVFF  324,47F
0DB6C:  MOVFF  323,47E
0DB70:  MOVFF  322,47D
0DB74:  MOVFF  321,47C
0DB78:  MOVLB  0
0DB7A:  CALL   2D46
0DB7E:  BNC   DB8E
....................             Tciclo=5; 
0DB80:  MOVLB  3
0DB82:  CLRF   x24
0DB84:  CLRF   x23
0DB86:  MOVLW  20
0DB88:  MOVWF  x22
0DB8A:  MOVLW  81
0DB8C:  MOVWF  x21
....................          if(Tciclo<5) 
0DB8E:  MOVFF  324,47B
0DB92:  MOVFF  323,47A
0DB96:  MOVFF  322,479
0DB9A:  MOVFF  321,478
0DB9E:  MOVLB  4
0DBA0:  CLRF   x7F
0DBA2:  CLRF   x7E
0DBA4:  MOVLW  20
0DBA6:  MOVWF  x7D
0DBA8:  MOVLW  81
0DBAA:  MOVWF  x7C
0DBAC:  MOVLB  0
0DBAE:  CALL   2D46
0DBB2:  BNC   DBC4
....................             Tciclo=20; 
0DBB4:  MOVLB  3
0DBB6:  CLRF   x24
0DBB8:  CLRF   x23
0DBBA:  MOVLW  20
0DBBC:  MOVWF  x22
0DBBE:  MOVLW  83
0DBC0:  MOVWF  x21
0DBC2:  MOVLB  0
....................       }else if(Opcion2==5){ 
0DBC4:  BRA    E12E
0DBC6:  MOVLB  3
0DBC8:  MOVF   x98,W
0DBCA:  SUBLW  05
0DBCC:  BNZ   DC82
....................          printf("Config.t2c.txt=\"Ajuste +\""); 
0DBCE:  MOVLW  BE
0DBD0:  MOVWF  FF6
0DBD2:  MOVLW  19
0DBD4:  MOVWF  FF7
0DBD6:  MOVLW  00
0DBD8:  MOVWF  FF8
0DBDA:  MOVLB  0
0DBDC:  CALL   390C
....................          SendDataDisplay();       
0DBE0:  CALL   393E
....................          printf("t3c.txt=\"%u\"",Ajuste); 
0DBE4:  MOVLW  D8
0DBE6:  MOVWF  FF6
0DBE8:  MOVLW  19
0DBEA:  MOVWF  FF7
0DBEC:  MOVLW  00
0DBEE:  MOVWF  FF8
0DBF0:  MOVLW  09
0DBF2:  MOVLB  4
0DBF4:  MOVWF  x79
0DBF6:  MOVLB  0
0DBF8:  CALL   4A36
0DBFC:  MOVFF  309,479
0DC00:  MOVLW  1B
0DC02:  MOVLB  4
0DC04:  MOVWF  x7A
0DC06:  MOVLB  0
0DC08:  CALL   4A94
0DC0C:  MOVLW  22
0DC0E:  BTFSS  F9E.4
0DC10:  BRA    DC0E
0DC12:  MOVWF  FAD
....................          SendDataDisplay(); 
0DC14:  CALL   393E
....................          if(RX_Buffer[4]==0x0a || UP){//Tecla Arriba Oprimida 
0DC18:  MOVF   34,W
0DC1A:  SUBLW  0A
0DC1C:  BZ    DC24
0DC1E:  BSF    F93.3
0DC20:  BTFSC  F81.3
0DC22:  BRA    DC4C
....................             delay_ms(20); 
0DC24:  MOVLW  14
0DC26:  MOVLB  4
0DC28:  MOVWF  x8D
0DC2A:  MOVLB  0
0DC2C:  CALL   1B28
....................             if(RX_Buffer[4]==0x0a || UP){ 
0DC30:  MOVF   34,W
0DC32:  SUBLW  0A
0DC34:  BZ    DC3C
0DC36:  BSF    F93.3
0DC38:  BTFSC  F81.3
0DC3A:  BRA    DC4C
....................                if(Ajuste<100) 
0DC3C:  MOVLB  3
0DC3E:  MOVF   x09,W
0DC40:  SUBLW  63
0DC42:  BNC   DC46
....................                   Ajuste++; 
0DC44:  INCF   x09,F
....................                RX_Buffer[4]=0x00;   
0DC46:  CLRF   34
....................                RX_Buffer2[4]=0x00;             
0DC48:  CLRF   3F
0DC4A:  MOVLB  0
....................                //BorraBuffer(); 
....................             } 
....................          } 
....................              
....................          if(RX_Buffer[4]==0x0b || DOWN){//Tecla Abajo Oprimida 
0DC4C:  MOVF   34,W
0DC4E:  SUBLW  0B
0DC50:  BZ    DC58
0DC52:  BSF    F93.2
0DC54:  BTFSC  F81.2
0DC56:  BRA    DC7E
....................             delay_ms(20); 
0DC58:  MOVLW  14
0DC5A:  MOVLB  4
0DC5C:  MOVWF  x8D
0DC5E:  MOVLB  0
0DC60:  CALL   1B28
....................             if(RX_Buffer[4]==0x0b || DOWN){ 
0DC64:  MOVF   34,W
0DC66:  SUBLW  0B
0DC68:  BZ    DC70
0DC6A:  BSF    F93.2
0DC6C:  BTFSC  F81.2
0DC6E:  BRA    DC7E
....................                if(Ajuste>0) 
0DC70:  MOVLB  3
0DC72:  MOVF   x09,F
0DC74:  BZ    DC78
....................                   Ajuste--; 
0DC76:  DECF   x09,F
....................                RX_Buffer[4]=0x00; 
0DC78:  CLRF   34
....................                RX_Buffer2[4]=0x00;             
0DC7A:  CLRF   3F
0DC7C:  MOVLB  0
....................                //BorraBuffer(); 
....................             } 
....................          } 
....................       }else if(Opcion2==6){ 
0DC7E:  BRA    E12E
0DC80:  MOVLB  3
0DC82:  MOVF   x98,W
0DC84:  SUBLW  06
0DC86:  BNZ   DD3C
....................          printf("Config.t2c.txt=\"Ajuste -\""); 
0DC88:  MOVLW  E6
0DC8A:  MOVWF  FF6
0DC8C:  MOVLW  19
0DC8E:  MOVWF  FF7
0DC90:  MOVLW  00
0DC92:  MOVWF  FF8
0DC94:  MOVLB  0
0DC96:  CALL   390C
....................          SendDataDisplay();       
0DC9A:  CALL   393E
....................          printf("t3c.txt=\"%u\"",Ajusten); 
0DC9E:  MOVLW  00
0DCA0:  MOVWF  FF6
0DCA2:  MOVLW  1A
0DCA4:  MOVWF  FF7
0DCA6:  MOVLW  00
0DCA8:  MOVWF  FF8
0DCAA:  MOVLW  09
0DCAC:  MOVLB  4
0DCAE:  MOVWF  x79
0DCB0:  MOVLB  0
0DCB2:  CALL   4A36
0DCB6:  MOVFF  30A,479
0DCBA:  MOVLW  1B
0DCBC:  MOVLB  4
0DCBE:  MOVWF  x7A
0DCC0:  MOVLB  0
0DCC2:  CALL   4A94
0DCC6:  MOVLW  22
0DCC8:  BTFSS  F9E.4
0DCCA:  BRA    DCC8
0DCCC:  MOVWF  FAD
....................          SendDataDisplay(); 
0DCCE:  CALL   393E
....................          if(RX_Buffer[4]==0x0a || UP){//Tecla Arriba Oprimida 
0DCD2:  MOVF   34,W
0DCD4:  SUBLW  0A
0DCD6:  BZ    DCDE
0DCD8:  BSF    F93.3
0DCDA:  BTFSC  F81.3
0DCDC:  BRA    DD06
....................             delay_ms(20); 
0DCDE:  MOVLW  14
0DCE0:  MOVLB  4
0DCE2:  MOVWF  x8D
0DCE4:  MOVLB  0
0DCE6:  CALL   1B28
....................             if(RX_Buffer[4]==0x0a || UP){ 
0DCEA:  MOVF   34,W
0DCEC:  SUBLW  0A
0DCEE:  BZ    DCF6
0DCF0:  BSF    F93.3
0DCF2:  BTFSC  F81.3
0DCF4:  BRA    DD06
....................                if(Ajusten<100) 
0DCF6:  MOVLB  3
0DCF8:  MOVF   x0A,W
0DCFA:  SUBLW  63
0DCFC:  BNC   DD00
....................                   Ajusten++; 
0DCFE:  INCF   x0A,F
....................                RX_Buffer[4]=0x00;   
0DD00:  CLRF   34
....................                RX_Buffer2[4]=0x00;             
0DD02:  CLRF   3F
0DD04:  MOVLB  0
....................                //BorraBuffer(); 
....................             } 
....................          } 
....................              
....................          if(RX_Buffer[4]==0x0b || DOWN){//Tecla Abajo Oprimida 
0DD06:  MOVF   34,W
0DD08:  SUBLW  0B
0DD0A:  BZ    DD12
0DD0C:  BSF    F93.2
0DD0E:  BTFSC  F81.2
0DD10:  BRA    DD38
....................             delay_ms(20); 
0DD12:  MOVLW  14
0DD14:  MOVLB  4
0DD16:  MOVWF  x8D
0DD18:  MOVLB  0
0DD1A:  CALL   1B28
....................             if(RX_Buffer[4]==0x0b || DOWN){ 
0DD1E:  MOVF   34,W
0DD20:  SUBLW  0B
0DD22:  BZ    DD2A
0DD24:  BSF    F93.2
0DD26:  BTFSC  F81.2
0DD28:  BRA    DD38
....................                if(Ajusten>0) 
0DD2A:  MOVLB  3
0DD2C:  MOVF   x0A,F
0DD2E:  BZ    DD32
....................                   Ajusten--; 
0DD30:  DECF   x0A,F
....................                RX_Buffer[4]=0x00; 
0DD32:  CLRF   34
....................                RX_Buffer2[4]=0x00;             
0DD34:  CLRF   3F
0DD36:  MOVLB  0
....................                //BorraBuffer(); 
....................             } 
....................          } 
....................       }else if(Opcion2==7){ 
0DD38:  BRA    E12E
0DD3A:  MOVLB  3
0DD3C:  MOVF   x98,W
0DD3E:  SUBLW  07
0DD40:  BNZ   DDF8
....................          printf("Config.t2c.txt=\"Media\""); 
0DD42:  MOVLW  0E
0DD44:  MOVWF  FF6
0DD46:  MOVLW  1A
0DD48:  MOVWF  FF7
0DD4A:  MOVLW  00
0DD4C:  MOVWF  FF8
0DD4E:  MOVLB  0
0DD50:  CALL   390C
....................          SendDataDisplay();       
0DD54:  CALL   393E
....................          printf("t3c.txt=\"%u\"",MediaMovil); 
0DD58:  MOVLW  26
0DD5A:  MOVWF  FF6
0DD5C:  MOVLW  1A
0DD5E:  MOVWF  FF7
0DD60:  MOVLW  00
0DD62:  MOVWF  FF8
0DD64:  MOVLW  09
0DD66:  MOVLB  4
0DD68:  MOVWF  x79
0DD6A:  MOVLB  0
0DD6C:  CALL   4A36
0DD70:  MOVFF  30B,479
0DD74:  MOVLW  1B
0DD76:  MOVLB  4
0DD78:  MOVWF  x7A
0DD7A:  MOVLB  0
0DD7C:  CALL   4A94
0DD80:  MOVLW  22
0DD82:  BTFSS  F9E.4
0DD84:  BRA    DD82
0DD86:  MOVWF  FAD
....................          SendDataDisplay(); 
0DD88:  CALL   393E
....................          if(RX_Buffer[4]==0x0a || UP){//Tecla Arriba Oprimida 
0DD8C:  MOVF   34,W
0DD8E:  SUBLW  0A
0DD90:  BZ    DD98
0DD92:  BSF    F93.3
0DD94:  BTFSC  F81.3
0DD96:  BRA    DDC0
....................             delay_ms(20); 
0DD98:  MOVLW  14
0DD9A:  MOVLB  4
0DD9C:  MOVWF  x8D
0DD9E:  MOVLB  0
0DDA0:  CALL   1B28
....................             if(RX_Buffer[4]==0x0a || UP){ 
0DDA4:  MOVF   34,W
0DDA6:  SUBLW  0A
0DDA8:  BZ    DDB0
0DDAA:  BSF    F93.3
0DDAC:  BTFSC  F81.3
0DDAE:  BRA    DDC0
....................                if(MediaMovil<80) 
0DDB0:  MOVLB  3
0DDB2:  MOVF   x0B,W
0DDB4:  SUBLW  4F
0DDB6:  BNC   DDBA
....................                   MediaMovil++; 
0DDB8:  INCF   x0B,F
....................                RX_Buffer[4]=0x00;   
0DDBA:  CLRF   34
....................                RX_Buffer2[4]=0x00;             
0DDBC:  CLRF   3F
0DDBE:  MOVLB  0
....................                //BorraBuffer(); 
....................             } 
....................          } 
....................              
....................          if(RX_Buffer[4]==0x0b || DOWN){//Tecla Abajo Oprimida 
0DDC0:  MOVF   34,W
0DDC2:  SUBLW  0B
0DDC4:  BZ    DDCC
0DDC6:  BSF    F93.2
0DDC8:  BTFSC  F81.2
0DDCA:  BRA    DDF4
....................             delay_ms(20); 
0DDCC:  MOVLW  14
0DDCE:  MOVLB  4
0DDD0:  MOVWF  x8D
0DDD2:  MOVLB  0
0DDD4:  CALL   1B28
....................             if(RX_Buffer[4]==0x0b || DOWN){ 
0DDD8:  MOVF   34,W
0DDDA:  SUBLW  0B
0DDDC:  BZ    DDE4
0DDDE:  BSF    F93.2
0DDE0:  BTFSC  F81.2
0DDE2:  BRA    DDF4
....................                if(MediaMovil>10) 
0DDE4:  MOVLB  3
0DDE6:  MOVF   x0B,W
0DDE8:  SUBLW  0A
0DDEA:  BC    DDEE
....................                   MediaMovil--; 
0DDEC:  DECF   x0B,F
....................                RX_Buffer[4]=0x00; 
0DDEE:  CLRF   34
....................                RX_Buffer2[4]=0x00;             
0DDF0:  CLRF   3F
0DDF2:  MOVLB  0
....................                //BorraBuffer(); 
....................             } 
....................          } 
....................       }else if(Opcion2==8){ 
0DDF4:  BRA    E12E
0DDF6:  MOVLB  3
0DDF8:  MOVF   x98,W
0DDFA:  SUBLW  08
0DDFC:  BTFSS  FD8.2
0DDFE:  BRA    DF66
....................          printf("Config.t2c.txt=\"RPT100B\""); 
0DE00:  MOVLW  34
0DE02:  MOVWF  FF6
0DE04:  MOVLW  1A
0DE06:  MOVWF  FF7
0DE08:  MOVLW  00
0DE0A:  MOVWF  FF8
0DE0C:  MOVLB  0
0DE0E:  CALL   390C
....................          SendDataDisplay();       
0DE12:  CALL   393E
....................          printf("t3c.txt=\"%2.1f\"",RPT100); 
0DE16:  MOVLW  4E
0DE18:  MOVWF  FF6
0DE1A:  MOVLW  1A
0DE1C:  MOVWF  FF7
0DE1E:  MOVLW  00
0DE20:  MOVWF  FF8
0DE22:  MOVLW  09
0DE24:  MOVLB  4
0DE26:  MOVWF  x79
0DE28:  MOVLB  0
0DE2A:  CALL   4A36
0DE2E:  MOVLW  01
0DE30:  MOVWF  FE9
0DE32:  MOVFF  2DA,47C
0DE36:  MOVFF  2D9,47B
0DE3A:  MOVFF  2D8,47A
0DE3E:  MOVFF  2D7,479
0DE42:  MOVLB  4
0DE44:  MOVWF  x7D
0DE46:  MOVLB  0
0DE48:  CALL   4BD6
0DE4C:  MOVLW  22
0DE4E:  BTFSS  F9E.4
0DE50:  BRA    DE4E
0DE52:  MOVWF  FAD
....................          SendDataDisplay(); 
0DE54:  CALL   393E
....................          if(RX_Buffer[4]==0x0a || UP){//Tecla Arriba Oprimida 
0DE58:  MOVF   34,W
0DE5A:  SUBLW  0A
0DE5C:  BZ    DE64
0DE5E:  BSF    F93.3
0DE60:  BTFSC  F81.3
0DE62:  BRA    DEDE
....................             delay_ms(20); 
0DE64:  MOVLW  14
0DE66:  MOVLB  4
0DE68:  MOVWF  x8D
0DE6A:  MOVLB  0
0DE6C:  CALL   1B28
....................             if(RX_Buffer[4]==0x0a || UP){ 
0DE70:  MOVF   34,W
0DE72:  SUBLW  0A
0DE74:  BZ    DE7C
0DE76:  BSF    F93.3
0DE78:  BTFSC  F81.3
0DE7A:  BRA    DEDE
....................                if(RPT100<2.0) 
0DE7C:  MOVFF  2DA,47B
0DE80:  MOVFF  2D9,47A
0DE84:  MOVFF  2D8,479
0DE88:  MOVFF  2D7,478
0DE8C:  MOVLB  4
0DE8E:  CLRF   x7F
0DE90:  CLRF   x7E
0DE92:  CLRF   x7D
0DE94:  MOVLW  80
0DE96:  MOVWF  x7C
0DE98:  MOVLB  0
0DE9A:  CALL   2D46
0DE9E:  BNC   DEDA
....................                   RPT100+=0.1; 
0DEA0:  BCF    FD8.1
0DEA2:  MOVFF  2DA,48C
0DEA6:  MOVFF  2D9,48B
0DEAA:  MOVFF  2D8,48A
0DEAE:  MOVFF  2D7,489
0DEB2:  MOVLW  CD
0DEB4:  MOVLB  4
0DEB6:  MOVWF  x90
0DEB8:  MOVLW  CC
0DEBA:  MOVWF  x8F
0DEBC:  MOVLW  4C
0DEBE:  MOVWF  x8E
0DEC0:  MOVLW  7B
0DEC2:  MOVWF  x8D
0DEC4:  MOVLB  0
0DEC6:  CALL   1CE4
0DECA:  MOVFF  03,2DA
0DECE:  MOVFF  02,2D9
0DED2:  MOVFF  01,2D8
0DED6:  MOVFF  00,2D7
....................                RX_Buffer[4]=0x00;   
0DEDA:  CLRF   34
....................                RX_Buffer2[4]=0x00;             
0DEDC:  CLRF   3F
....................                //BorraBuffer(); 
....................             } 
....................          } 
....................              
....................          if(RX_Buffer[4]==0x0b || DOWN){//Tecla Abajo Oprimida 
0DEDE:  MOVF   34,W
0DEE0:  SUBLW  0B
0DEE2:  BZ    DEEA
0DEE4:  BSF    F93.2
0DEE6:  BTFSC  F81.2
0DEE8:  BRA    DF62
....................             delay_ms(20); 
0DEEA:  MOVLW  14
0DEEC:  MOVLB  4
0DEEE:  MOVWF  x8D
0DEF0:  MOVLB  0
0DEF2:  CALL   1B28
....................             if(RX_Buffer[4]==0x0b || DOWN){ 
0DEF6:  MOVF   34,W
0DEF8:  SUBLW  0B
0DEFA:  BZ    DF02
0DEFC:  BSF    F93.2
0DEFE:  BTFSC  F81.2
0DF00:  BRA    DF62
....................                if(RPT100>0.0) 
0DF02:  MOVLB  4
0DF04:  CLRF   x7B
0DF06:  CLRF   x7A
0DF08:  CLRF   x79
0DF0A:  CLRF   x78
0DF0C:  MOVFF  2DA,47F
0DF10:  MOVFF  2D9,47E
0DF14:  MOVFF  2D8,47D
0DF18:  MOVFF  2D7,47C
0DF1C:  MOVLB  0
0DF1E:  CALL   2D46
0DF22:  BNC   DF5E
....................                   RPT100-=0.1; 
0DF24:  BSF    FD8.1
0DF26:  MOVFF  2DA,48C
0DF2A:  MOVFF  2D9,48B
0DF2E:  MOVFF  2D8,48A
0DF32:  MOVFF  2D7,489
0DF36:  MOVLW  CD
0DF38:  MOVLB  4
0DF3A:  MOVWF  x90
0DF3C:  MOVLW  CC
0DF3E:  MOVWF  x8F
0DF40:  MOVLW  4C
0DF42:  MOVWF  x8E
0DF44:  MOVLW  7B
0DF46:  MOVWF  x8D
0DF48:  MOVLB  0
0DF4A:  CALL   1CE4
0DF4E:  MOVFF  03,2DA
0DF52:  MOVFF  02,2D9
0DF56:  MOVFF  01,2D8
0DF5A:  MOVFF  00,2D7
....................                RX_Buffer[4]=0x00; 
0DF5E:  CLRF   34
....................                RX_Buffer2[4]=0x00;             
0DF60:  CLRF   3F
....................                //BorraBuffer(); 
....................             } 
....................          } 
....................       }else if(Opcion2==9){ 
0DF62:  BRA    E12E
0DF64:  MOVLB  3
0DF66:  MOVF   x98,W
0DF68:  SUBLW  09
0DF6A:  BNZ   E022
....................          printf("Config.t2c.txt=\"TTrampa\""); 
0DF6C:  MOVLW  5E
0DF6E:  MOVWF  FF6
0DF70:  MOVLW  1A
0DF72:  MOVWF  FF7
0DF74:  MOVLW  00
0DF76:  MOVWF  FF8
0DF78:  MOVLB  0
0DF7A:  CALL   390C
....................          SendDataDisplay();       
0DF7E:  CALL   393E
....................          printf("t3c.txt=\"%02u\"",TTrampa); 
0DF82:  MOVLW  78
0DF84:  MOVWF  FF6
0DF86:  MOVLW  1A
0DF88:  MOVWF  FF7
0DF8A:  MOVLW  00
0DF8C:  MOVWF  FF8
0DF8E:  MOVLW  09
0DF90:  MOVLB  4
0DF92:  MOVWF  x79
0DF94:  MOVLB  0
0DF96:  CALL   4A36
0DF9A:  MOVFF  30C,479
0DF9E:  MOVLW  01
0DFA0:  MOVLB  4
0DFA2:  MOVWF  x7A
0DFA4:  MOVLB  0
0DFA6:  CALL   4A94
0DFAA:  MOVLW  22
0DFAC:  BTFSS  F9E.4
0DFAE:  BRA    DFAC
0DFB0:  MOVWF  FAD
....................          SendDataDisplay(); 
0DFB2:  CALL   393E
....................          if(RX_Buffer[4]==0x0a || UP){//Tecla Arriba Oprimida 
0DFB6:  MOVF   34,W
0DFB8:  SUBLW  0A
0DFBA:  BZ    DFC2
0DFBC:  BSF    F93.3
0DFBE:  BTFSC  F81.3
0DFC0:  BRA    DFEA
....................             delay_ms(20); 
0DFC2:  MOVLW  14
0DFC4:  MOVLB  4
0DFC6:  MOVWF  x8D
0DFC8:  MOVLB  0
0DFCA:  CALL   1B28
....................             if(RX_Buffer[4]==0x0a || UP){ 
0DFCE:  MOVF   34,W
0DFD0:  SUBLW  0A
0DFD2:  BZ    DFDA
0DFD4:  BSF    F93.3
0DFD6:  BTFSC  F81.3
0DFD8:  BRA    DFEA
....................                if(TTrampa<100) 
0DFDA:  MOVLB  3
0DFDC:  MOVF   x0C,W
0DFDE:  SUBLW  63
0DFE0:  BNC   DFE4
....................                   TTrampa++; 
0DFE2:  INCF   x0C,F
....................                RX_Buffer[4]=0x00;   
0DFE4:  CLRF   34
....................                RX_Buffer2[4]=0x00;             
0DFE6:  CLRF   3F
0DFE8:  MOVLB  0
....................                //BorraBuffer(); 
....................             } 
....................          } 
....................              
....................          if(RX_Buffer[4]==0x0b || DOWN){//Tecla Abajo Oprimida 
0DFEA:  MOVF   34,W
0DFEC:  SUBLW  0B
0DFEE:  BZ    DFF6
0DFF0:  BSF    F93.2
0DFF2:  BTFSC  F81.2
0DFF4:  BRA    E01E
....................             delay_ms(20); 
0DFF6:  MOVLW  14
0DFF8:  MOVLB  4
0DFFA:  MOVWF  x8D
0DFFC:  MOVLB  0
0DFFE:  CALL   1B28
....................             if(RX_Buffer[4]==0x0b || DOWN){ 
0E002:  MOVF   34,W
0E004:  SUBLW  0B
0E006:  BZ    E00E
0E008:  BSF    F93.2
0E00A:  BTFSC  F81.2
0E00C:  BRA    E01E
....................                if(TTrampa>50) 
0E00E:  MOVLB  3
0E010:  MOVF   x0C,W
0E012:  SUBLW  32
0E014:  BC    E018
....................                   TTrampa--; 
0E016:  DECF   x0C,F
....................                RX_Buffer[4]=0x00; 
0E018:  CLRF   34
....................                RX_Buffer2[4]=0x00;             
0E01A:  CLRF   3F
0E01C:  MOVLB  0
....................                //BorraBuffer(); 
....................             } 
....................          } 
....................       }else if(Opcion2==10){ 
0E01E:  BRA    E12E
0E020:  MOVLB  3
0E022:  MOVF   x98,W
0E024:  SUBLW  0A
0E026:  BNZ   E076
....................          printf("Config.t2c.txt=\"Ciclos\""); 
0E028:  MOVLW  88
0E02A:  MOVWF  FF6
0E02C:  MOVLW  1A
0E02E:  MOVWF  FF7
0E030:  MOVLW  00
0E032:  MOVWF  FF8
0E034:  MOVLB  0
0E036:  CALL   390C
....................          SendDataDisplay();       
0E03A:  CALL   393E
....................          printf("t3c.txt=\"%05Lu\"",Ciclos); 
0E03E:  MOVLW  A0
0E040:  MOVWF  FF6
0E042:  MOVLW  1A
0E044:  MOVWF  FF7
0E046:  MOVLW  00
0E048:  MOVWF  FF8
0E04A:  MOVLW  09
0E04C:  MOVLB  4
0E04E:  MOVWF  x79
0E050:  MOVLB  0
0E052:  CALL   4A36
0E056:  MOVLW  08
0E058:  MOVWF  FE9
0E05A:  MOVFF  3AD,479
0E05E:  MOVFF  3AC,478
0E062:  CALL   54D2
0E066:  MOVLW  22
0E068:  BTFSS  F9E.4
0E06A:  BRA    E068
0E06C:  MOVWF  FAD
....................          SendDataDisplay(); 
0E06E:  CALL   393E
....................       }else if(Opcion2==11){ 
0E072:  BRA    E12E
0E074:  MOVLB  3
0E076:  MOVF   x98,W
0E078:  SUBLW  0B
0E07A:  BNZ   E12C
....................          printf("Config.t2c.txt=\"Atmosferica\""); 
0E07C:  MOVLW  B0
0E07E:  MOVWF  FF6
0E080:  MOVLW  1A
0E082:  MOVWF  FF7
0E084:  MOVLW  00
0E086:  MOVWF  FF8
0E088:  MOVLB  0
0E08A:  CALL   390C
....................          SendDataDisplay();    
0E08E:  CALL   393E
....................          printf("t3c.txt=\"%02u\"",Atmosferica); 
0E092:  MOVLW  CE
0E094:  MOVWF  FF6
0E096:  MOVLW  1A
0E098:  MOVWF  FF7
0E09A:  MOVLW  00
0E09C:  MOVWF  FF8
0E09E:  MOVLW  09
0E0A0:  MOVLB  4
0E0A2:  MOVWF  x79
0E0A4:  MOVLB  0
0E0A6:  CALL   4A36
0E0AA:  MOVFF  3E3,479
0E0AE:  MOVLW  01
0E0B0:  MOVLB  4
0E0B2:  MOVWF  x7A
0E0B4:  MOVLB  0
0E0B6:  CALL   4A94
0E0BA:  MOVLW  22
0E0BC:  BTFSS  F9E.4
0E0BE:  BRA    E0BC
0E0C0:  MOVWF  FAD
....................          SendDataDisplay(); 
0E0C2:  CALL   393E
....................           
....................          #if defined(PT100Fija) && !defined(Absoluta) 
....................             Atmosferica=0; 
....................          #else 
....................             if(RX_Buffer[4]==0x0a || UP){//Tecla Arriba Oprimida 
0E0C6:  MOVF   34,W
0E0C8:  SUBLW  0A
0E0CA:  BZ    E0D2
0E0CC:  BSF    F93.3
0E0CE:  BTFSC  F81.3
0E0D0:  BRA    E0FA
....................                delay_ms(20); 
0E0D2:  MOVLW  14
0E0D4:  MOVLB  4
0E0D6:  MOVWF  x8D
0E0D8:  MOVLB  0
0E0DA:  CALL   1B28
....................                if(RX_Buffer[4]==0x0a || UP){ 
0E0DE:  MOVF   34,W
0E0E0:  SUBLW  0A
0E0E2:  BZ    E0EA
0E0E4:  BSF    F93.3
0E0E6:  BTFSC  F81.3
0E0E8:  BRA    E0FA
....................                   if(Atmosferica<100) 
0E0EA:  MOVLB  3
0E0EC:  MOVF   xE3,W
0E0EE:  SUBLW  63
0E0F0:  BNC   E0F4
....................                      Atmosferica++; 
0E0F2:  INCF   xE3,F
....................                   RX_Buffer[4]=0x00;   
0E0F4:  CLRF   34
....................                   RX_Buffer2[4]=0x00;             
0E0F6:  CLRF   3F
0E0F8:  MOVLB  0
....................                   //BorraBuffer(); 
....................                } 
....................             } 
....................                 
....................             if(RX_Buffer[4]==0x0b || DOWN){//Tecla Abajo Oprimida 
0E0FA:  MOVF   34,W
0E0FC:  SUBLW  0B
0E0FE:  BZ    E106
0E100:  BSF    F93.2
0E102:  BTFSC  F81.2
0E104:  BRA    E12E
....................                delay_ms(20); 
0E106:  MOVLW  14
0E108:  MOVLB  4
0E10A:  MOVWF  x8D
0E10C:  MOVLB  0
0E10E:  CALL   1B28
....................                if(RX_Buffer[4]==0x0b || DOWN){ 
0E112:  MOVF   34,W
0E114:  SUBLW  0B
0E116:  BZ    E11E
0E118:  BSF    F93.2
0E11A:  BTFSC  F81.2
0E11C:  BRA    E12E
....................                   if(Atmosferica>50) 
0E11E:  MOVLB  3
0E120:  MOVF   xE3,W
0E122:  SUBLW  32
0E124:  BC    E128
....................                      Atmosferica--; 
0E126:  DECF   xE3,F
....................                   RX_Buffer[4]=0x00; 
0E128:  CLRF   34
....................                   RX_Buffer2[4]=0x00;             
0E12A:  CLRF   3F
0E12C:  MOVLB  0
....................                   //BorraBuffer(); 
....................                } 
....................             }  
....................          #endif 
....................       } 
....................        
....................       if(RX_Buffer[4]==0x0c || LEFT){//Tecla Izquierda Oprimida 
0E12E:  MOVF   34,W
0E130:  SUBLW  0C
0E132:  BZ    E13A
0E134:  BSF    F93.0
0E136:  BTFSC  F81.0
0E138:  BRA    E15C
....................          delay_ms(20); 
0E13A:  MOVLW  14
0E13C:  MOVLB  4
0E13E:  MOVWF  x8D
0E140:  MOVLB  0
0E142:  CALL   1B28
....................          if(RX_Buffer[4]==0x0c || LEFT){ 
0E146:  MOVF   34,W
0E148:  SUBLW  0C
0E14A:  BZ    E152
0E14C:  BSF    F93.0
0E14E:  BTFSC  F81.0
0E150:  BRA    E15C
....................             Opcion2++; 
0E152:  MOVLB  3
0E154:  INCF   x98,F
....................             RX_Buffer[4]=0x00;   
0E156:  CLRF   34
....................             RX_Buffer2[4]=0x00;             
0E158:  CLRF   3F
0E15A:  MOVLB  0
....................             //BorraBuffer(); 
....................          } 
....................       } 
....................           
....................       if(RX_Buffer[4]==0x0d || RIGHT){//Tecla Derecha Oprimida 
0E15C:  MOVF   34,W
0E15E:  SUBLW  0D
0E160:  BZ    E168
0E162:  BSF    F93.1
0E164:  BTFSC  F81.1
0E166:  BRA    E18A
....................          delay_ms(20); 
0E168:  MOVLW  14
0E16A:  MOVLB  4
0E16C:  MOVWF  x8D
0E16E:  MOVLB  0
0E170:  CALL   1B28
....................          if(RX_Buffer[4]==0x0d || RIGHT){ 
0E174:  MOVF   34,W
0E176:  SUBLW  0D
0E178:  BZ    E180
0E17A:  BSF    F93.1
0E17C:  BTFSC  F81.1
0E17E:  BRA    E18A
....................             Opcion2--; 
0E180:  MOVLB  3
0E182:  DECF   x98,F
....................             RX_Buffer[4]=0x00; 
0E184:  CLRF   34
....................             RX_Buffer2[4]=0x00;             
0E186:  CLRF   3F
0E188:  MOVLB  0
....................             //BorraBuffer(); 
....................          } 
....................       } 
....................        
....................       if(RX_Buffer[4]==0x11 || (RIGHT && LEFT)){//Tecla Regresar 
0E18A:  MOVF   34,W
0E18C:  SUBLW  11
0E18E:  BZ    E19C
0E190:  BSF    F93.1
0E192:  BTFSC  F81.1
0E194:  BRA    E53E
0E196:  BSF    F93.0
0E198:  BTFSC  F81.0
0E19A:  BRA    E53E
....................          delay_ms(20); 
0E19C:  MOVLW  14
0E19E:  MOVLB  4
0E1A0:  MOVWF  x8D
0E1A2:  MOVLB  0
0E1A4:  CALL   1B28
....................          if(RX_Buffer[4]==0x11 || (RIGHT && LEFT)){ 
0E1A8:  MOVF   34,W
0E1AA:  SUBLW  11
0E1AC:  BZ    E1BA
0E1AE:  BSF    F93.1
0E1B0:  BTFSC  F81.1
0E1B2:  BRA    E53E
0E1B4:  BSF    F93.0
0E1B6:  BTFSC  F81.0
0E1B8:  BRA    E53E
....................             if(!GuardaEEPROM){ 
0E1BA:  BTFSC  xD3.0
0E1BC:  BRA    E52A
....................                write_eeprom(20,(int8)Ganancia); 
0E1BE:  MOVFF  33C,48C
0E1C2:  MOVFF  33B,48B
0E1C6:  MOVFF  33A,48A
0E1CA:  MOVFF  339,489
0E1CE:  CALL   4144
0E1D2:  MOVFF  01,474
0E1D6:  CLRF   FAA
0E1D8:  MOVLW  14
0E1DA:  MOVWF  FA9
0E1DC:  MOVFF  474,FA8
0E1E0:  BCF    FA6.6
0E1E2:  BCF    FA6.7
0E1E4:  BSF    FA6.2
0E1E6:  MOVF   FF2,W
0E1E8:  MOVWF  00
0E1EA:  BCF    FF2.6
0E1EC:  BCF    FF2.7
0E1EE:  MOVLB  F
0E1F0:  MOVLW  55
0E1F2:  MOVWF  FA7
0E1F4:  MOVLW  AA
0E1F6:  MOVWF  FA7
0E1F8:  BSF    FA6.1
0E1FA:  BTFSC  FA6.1
0E1FC:  BRA    E1FA
0E1FE:  BCF    FA6.2
0E200:  MOVF   00,W
0E202:  IORWF  FF2,F
....................                delay_ms(10); 
0E204:  MOVLW  0A
0E206:  MOVLB  4
0E208:  MOVWF  x8D
0E20A:  MOVLB  0
0E20C:  CALL   1B28
....................                write_eeprom(26,(int8)Integral); 
0E210:  CLRF   FAA
0E212:  MOVLW  1A
0E214:  MOVWF  FA9
0E216:  MOVFF  36D,FA8
0E21A:  BCF    FA6.6
0E21C:  BCF    FA6.7
0E21E:  BSF    FA6.2
0E220:  MOVF   FF2,W
0E222:  MOVWF  00
0E224:  BCF    FF2.6
0E226:  BCF    FF2.7
0E228:  MOVLB  F
0E22A:  MOVLW  55
0E22C:  MOVWF  FA7
0E22E:  MOVLW  AA
0E230:  MOVWF  FA7
0E232:  BSF    FA6.1
0E234:  BTFSC  FA6.1
0E236:  BRA    E234
0E238:  BCF    FA6.2
0E23A:  MOVF   00,W
0E23C:  IORWF  FF2,F
....................                delay_ms(10); 
0E23E:  MOVLW  0A
0E240:  MOVLB  4
0E242:  MOVWF  x8D
0E244:  MOVLB  0
0E246:  CALL   1B28
....................                write_eeprom(27,(int8)Derivativo); 
0E24A:  CLRF   FAA
0E24C:  MOVLW  1B
0E24E:  MOVWF  FA9
0E250:  MOVFF  36E,FA8
0E254:  BCF    FA6.6
0E256:  BCF    FA6.7
0E258:  BSF    FA6.2
0E25A:  MOVF   FF2,W
0E25C:  MOVWF  00
0E25E:  BCF    FF2.6
0E260:  BCF    FF2.7
0E262:  MOVLB  F
0E264:  MOVLW  55
0E266:  MOVWF  FA7
0E268:  MOVLW  AA
0E26A:  MOVWF  FA7
0E26C:  BSF    FA6.1
0E26E:  BTFSC  FA6.1
0E270:  BRA    E26E
0E272:  BCF    FA6.2
0E274:  MOVF   00,W
0E276:  IORWF  FF2,F
....................                delay_ms(10); 
0E278:  MOVLW  0A
0E27A:  MOVLB  4
0E27C:  MOVWF  x8D
0E27E:  MOVLB  0
0E280:  CALL   1B28
....................                write_eeprom(25,(int8)Tciclo); 
0E284:  MOVFF  324,48C
0E288:  MOVFF  323,48B
0E28C:  MOVFF  322,48A
0E290:  MOVFF  321,489
0E294:  CALL   4144
0E298:  MOVFF  01,474
0E29C:  CLRF   FAA
0E29E:  MOVLW  19
0E2A0:  MOVWF  FA9
0E2A2:  MOVFF  474,FA8
0E2A6:  BCF    FA6.6
0E2A8:  BCF    FA6.7
0E2AA:  BSF    FA6.2
0E2AC:  MOVF   FF2,W
0E2AE:  MOVWF  00
0E2B0:  BCF    FF2.6
0E2B2:  BCF    FF2.7
0E2B4:  MOVLB  F
0E2B6:  MOVLW  55
0E2B8:  MOVWF  FA7
0E2BA:  MOVLW  AA
0E2BC:  MOVWF  FA7
0E2BE:  BSF    FA6.1
0E2C0:  BTFSC  FA6.1
0E2C2:  BRA    E2C0
0E2C4:  BCF    FA6.2
0E2C6:  MOVF   00,W
0E2C8:  IORWF  FF2,F
....................                delay_ms(10); 
0E2CA:  MOVLW  0A
0E2CC:  MOVLB  4
0E2CE:  MOVWF  x8D
0E2D0:  MOVLB  0
0E2D2:  CALL   1B28
....................                write_eeprom(21,Ajuste); 
0E2D6:  CLRF   FAA
0E2D8:  MOVLW  15
0E2DA:  MOVWF  FA9
0E2DC:  MOVFF  309,FA8
0E2E0:  BCF    FA6.6
0E2E2:  BCF    FA6.7
0E2E4:  BSF    FA6.2
0E2E6:  MOVF   FF2,W
0E2E8:  MOVWF  00
0E2EA:  BCF    FF2.6
0E2EC:  BCF    FF2.7
0E2EE:  MOVLB  F
0E2F0:  MOVLW  55
0E2F2:  MOVWF  FA7
0E2F4:  MOVLW  AA
0E2F6:  MOVWF  FA7
0E2F8:  BSF    FA6.1
0E2FA:  BTFSC  FA6.1
0E2FC:  BRA    E2FA
0E2FE:  BCF    FA6.2
0E300:  MOVF   00,W
0E302:  IORWF  FF2,F
....................                delay_ms(10); 
0E304:  MOVLW  0A
0E306:  MOVLB  4
0E308:  MOVWF  x8D
0E30A:  MOVLB  0
0E30C:  CALL   1B28
....................                write_eeprom(22,Ajusten); 
0E310:  CLRF   FAA
0E312:  MOVLW  16
0E314:  MOVWF  FA9
0E316:  MOVFF  30A,FA8
0E31A:  BCF    FA6.6
0E31C:  BCF    FA6.7
0E31E:  BSF    FA6.2
0E320:  MOVF   FF2,W
0E322:  MOVWF  00
0E324:  BCF    FF2.6
0E326:  BCF    FF2.7
0E328:  MOVLB  F
0E32A:  MOVLW  55
0E32C:  MOVWF  FA7
0E32E:  MOVLW  AA
0E330:  MOVWF  FA7
0E332:  BSF    FA6.1
0E334:  BTFSC  FA6.1
0E336:  BRA    E334
0E338:  BCF    FA6.2
0E33A:  MOVF   00,W
0E33C:  IORWF  FF2,F
....................                delay_ms(10); 
0E33E:  MOVLW  0A
0E340:  MOVLB  4
0E342:  MOVWF  x8D
0E344:  MOVLB  0
0E346:  CALL   1B28
....................                write_eeprom(24,(int8)MediaMovil); 
0E34A:  CLRF   FAA
0E34C:  MOVLW  18
0E34E:  MOVWF  FA9
0E350:  MOVFF  30B,FA8
0E354:  BCF    FA6.6
0E356:  BCF    FA6.7
0E358:  BSF    FA6.2
0E35A:  MOVF   FF2,W
0E35C:  MOVWF  00
0E35E:  BCF    FF2.6
0E360:  BCF    FF2.7
0E362:  MOVLB  F
0E364:  MOVLW  55
0E366:  MOVWF  FA7
0E368:  MOVLW  AA
0E36A:  MOVWF  FA7
0E36C:  BSF    FA6.1
0E36E:  BTFSC  FA6.1
0E370:  BRA    E36E
0E372:  BCF    FA6.2
0E374:  MOVF   00,W
0E376:  IORWF  FF2,F
....................                delay_ms(10); 
0E378:  MOVLW  0A
0E37A:  MOVLB  4
0E37C:  MOVWF  x8D
0E37E:  MOVLB  0
0E380:  CALL   1B28
....................                write_eeprom(32,(int8)RPT100); 
0E384:  MOVFF  2DA,48C
0E388:  MOVFF  2D9,48B
0E38C:  MOVFF  2D8,48A
0E390:  MOVFF  2D7,489
0E394:  CALL   4144
0E398:  MOVFF  01,474
0E39C:  CLRF   FAA
0E39E:  MOVLW  20
0E3A0:  MOVWF  FA9
0E3A2:  MOVFF  474,FA8
0E3A6:  BCF    FA6.6
0E3A8:  BCF    FA6.7
0E3AA:  BSF    FA6.2
0E3AC:  MOVF   FF2,W
0E3AE:  MOVWF  00
0E3B0:  BCF    FF2.6
0E3B2:  BCF    FF2.7
0E3B4:  MOVLB  F
0E3B6:  MOVLW  55
0E3B8:  MOVWF  FA7
0E3BA:  MOVLW  AA
0E3BC:  MOVWF  FA7
0E3BE:  BSF    FA6.1
0E3C0:  BTFSC  FA6.1
0E3C2:  BRA    E3C0
0E3C4:  BCF    FA6.2
0E3C6:  MOVF   00,W
0E3C8:  IORWF  FF2,F
....................                delay_ms(10); 
0E3CA:  MOVLW  0A
0E3CC:  MOVLB  4
0E3CE:  MOVWF  x8D
0E3D0:  MOVLB  0
0E3D2:  CALL   1B28
....................                Temporal=RPT100-((int8)RPT100); 
0E3D6:  MOVFF  2DA,48C
0E3DA:  MOVFF  2D9,48B
0E3DE:  MOVFF  2D8,48A
0E3E2:  MOVFF  2D7,489
0E3E6:  CALL   4144
0E3EA:  MOVLB  4
0E3EC:  CLRF   x8A
0E3EE:  MOVFF  01,489
0E3F2:  MOVLB  0
0E3F4:  CALL   1B50
0E3F8:  BSF    FD8.1
0E3FA:  MOVFF  2DA,48C
0E3FE:  MOVFF  2D9,48B
0E402:  MOVFF  2D8,48A
0E406:  MOVFF  2D7,489
0E40A:  MOVFF  03,490
0E40E:  MOVFF  02,48F
0E412:  MOVFF  01,48E
0E416:  MOVFF  00,48D
0E41A:  CALL   1CE4
0E41E:  MOVFF  03,2DE
0E422:  MOVFF  02,2DD
0E426:  MOVFF  01,2DC
0E42A:  MOVFF  00,2DB
....................                Temporal=Temporal*10; 
0E42E:  MOVFF  2DE,490
0E432:  MOVFF  2DD,48F
0E436:  MOVFF  2DC,48E
0E43A:  MOVFF  2DB,48D
0E43E:  MOVLB  4
0E440:  CLRF   x94
0E442:  CLRF   x93
0E444:  MOVLW  20
0E446:  MOVWF  x92
0E448:  MOVLW  82
0E44A:  MOVWF  x91
0E44C:  MOVLB  0
0E44E:  CALL   3A0C
0E452:  MOVFF  03,2DE
0E456:  MOVFF  02,2DD
0E45A:  MOVFF  01,2DC
0E45E:  MOVFF  00,2DB
....................                write_eeprom(33,(int8)Temporal); 
0E462:  MOVFF  2DE,48C
0E466:  MOVFF  2DD,48B
0E46A:  MOVFF  2DC,48A
0E46E:  MOVFF  2DB,489
0E472:  CALL   4144
0E476:  MOVFF  01,474
0E47A:  CLRF   FAA
0E47C:  MOVLW  21
0E47E:  MOVWF  FA9
0E480:  MOVFF  474,FA8
0E484:  BCF    FA6.6
0E486:  BCF    FA6.7
0E488:  BSF    FA6.2
0E48A:  MOVF   FF2,W
0E48C:  MOVWF  00
0E48E:  BCF    FF2.6
0E490:  BCF    FF2.7
0E492:  MOVLB  F
0E494:  MOVLW  55
0E496:  MOVWF  FA7
0E498:  MOVLW  AA
0E49A:  MOVWF  FA7
0E49C:  BSF    FA6.1
0E49E:  BTFSC  FA6.1
0E4A0:  BRA    E49E
0E4A2:  BCF    FA6.2
0E4A4:  MOVF   00,W
0E4A6:  IORWF  FF2,F
....................                delay_ms(10); 
0E4A8:  MOVLW  0A
0E4AA:  MOVLB  4
0E4AC:  MOVWF  x8D
0E4AE:  MOVLB  0
0E4B0:  CALL   1B28
....................                write_eeprom(39,TTrampa); 
0E4B4:  CLRF   FAA
0E4B6:  MOVLW  27
0E4B8:  MOVWF  FA9
0E4BA:  MOVFF  30C,FA8
0E4BE:  BCF    FA6.6
0E4C0:  BCF    FA6.7
0E4C2:  BSF    FA6.2
0E4C4:  MOVF   FF2,W
0E4C6:  MOVWF  00
0E4C8:  BCF    FF2.6
0E4CA:  BCF    FF2.7
0E4CC:  MOVLB  F
0E4CE:  MOVLW  55
0E4D0:  MOVWF  FA7
0E4D2:  MOVLW  AA
0E4D4:  MOVWF  FA7
0E4D6:  BSF    FA6.1
0E4D8:  BTFSC  FA6.1
0E4DA:  BRA    E4D8
0E4DC:  BCF    FA6.2
0E4DE:  MOVF   00,W
0E4E0:  IORWF  FF2,F
....................                delay_ms(10); 
0E4E2:  MOVLW  0A
0E4E4:  MOVLB  4
0E4E6:  MOVWF  x8D
0E4E8:  MOVLB  0
0E4EA:  CALL   1B28
....................                write_eeprom(46,Atmosferica); 
0E4EE:  CLRF   FAA
0E4F0:  MOVLW  2E
0E4F2:  MOVWF  FA9
0E4F4:  MOVFF  3E3,FA8
0E4F8:  BCF    FA6.6
0E4FA:  BCF    FA6.7
0E4FC:  BSF    FA6.2
0E4FE:  MOVF   FF2,W
0E500:  MOVWF  00
0E502:  BCF    FF2.6
0E504:  BCF    FF2.7
0E506:  MOVLB  F
0E508:  MOVLW  55
0E50A:  MOVWF  FA7
0E50C:  MOVLW  AA
0E50E:  MOVWF  FA7
0E510:  BSF    FA6.1
0E512:  BTFSC  FA6.1
0E514:  BRA    E512
0E516:  BCF    FA6.2
0E518:  MOVF   00,W
0E51A:  IORWF  FF2,F
....................                delay_ms(10); 
0E51C:  MOVLW  0A
0E51E:  MOVLB  4
0E520:  MOVWF  x8D
0E522:  MOVLB  0
0E524:  CALL   1B28
....................                GuardaEEPROM=ON; 
0E528:  BSF    xD3.0
....................             } 
....................             printf("page MenuPrincipal"); 
0E52A:  MOVLW  DE
0E52C:  MOVWF  FF6
0E52E:  MOVLW  1A
0E530:  MOVWF  FF7
0E532:  MOVLW  00
0E534:  MOVWF  FF8
0E536:  CALL   390C
....................             SendDataDisplay(); 
0E53A:  CALL   393E
....................             //BorraBuffer(); 
....................          } 
....................       } 
....................       printf("fecha.txt=\"Fecha:%02u/%02u/20%02u    Hora: %02u:%02u\"",Dia,Mes,Year,Hora,Minuto); 
0E53E:  MOVLW  F2
0E540:  MOVWF  FF6
0E542:  MOVLW  1A
0E544:  MOVWF  FF7
0E546:  MOVLW  00
0E548:  MOVWF  FF8
0E54A:  MOVLW  11
0E54C:  MOVLB  4
0E54E:  MOVWF  x79
0E550:  MOVLB  0
0E552:  CALL   4A36
0E556:  MOVFF  3D1,479
0E55A:  MOVLW  01
0E55C:  MOVLB  4
0E55E:  MOVWF  x7A
0E560:  MOVLB  0
0E562:  CALL   4A94
0E566:  MOVLW  2F
0E568:  BTFSS  F9E.4
0E56A:  BRA    E568
0E56C:  MOVWF  FAD
0E56E:  MOVFF  3D0,479
0E572:  MOVLW  01
0E574:  MOVLB  4
0E576:  MOVWF  x7A
0E578:  MOVLB  0
0E57A:  CALL   4A94
0E57E:  MOVLW  2F
0E580:  BTFSS  F9E.4
0E582:  BRA    E580
0E584:  MOVWF  FAD
0E586:  MOVLW  32
0E588:  BTFSS  F9E.4
0E58A:  BRA    E588
0E58C:  MOVWF  FAD
0E58E:  MOVLW  30
0E590:  BTFSS  F9E.4
0E592:  BRA    E590
0E594:  MOVWF  FAD
0E596:  MOVFF  3CF,479
0E59A:  MOVLW  01
0E59C:  MOVLB  4
0E59E:  MOVWF  x7A
0E5A0:  MOVLB  0
0E5A2:  CALL   4A94
0E5A6:  MOVLW  13
0E5A8:  MOVWF  FF6
0E5AA:  MOVLW  1B
0E5AC:  MOVWF  FF7
0E5AE:  MOVLW  00
0E5B0:  MOVWF  FF8
0E5B2:  MOVLW  0A
0E5B4:  MOVLB  4
0E5B6:  MOVWF  x79
0E5B8:  MOVLB  0
0E5BA:  CALL   4A36
0E5BE:  MOVFF  3D2,479
0E5C2:  MOVLW  01
0E5C4:  MOVLB  4
0E5C6:  MOVWF  x7A
0E5C8:  MOVLB  0
0E5CA:  CALL   4A94
0E5CE:  MOVLW  3A
0E5D0:  BTFSS  F9E.4
0E5D2:  BRA    E5D0
0E5D4:  MOVWF  FAD
0E5D6:  MOVFF  3D3,479
0E5DA:  MOVLW  01
0E5DC:  MOVLB  4
0E5DE:  MOVWF  x7A
0E5E0:  MOVLB  0
0E5E2:  CALL   4A94
0E5E6:  MOVLW  22
0E5E8:  BTFSS  F9E.4
0E5EA:  BRA    E5E8
0E5EC:  MOVWF  FAD
....................       SendDataDisplay();  
0E5EE:  CALL   393E
0E5F2:  MOVLB  3
....................     } 
.................... //_--------------------------------------------------------------------------------------------------------------------------------------------------------        
....................  
....................    } 
0E5F4:  GOTO   8076
.................... } 
0E5F8:  SLEEP 

Configuration Fuses:
   Word  1: 0200   HS NOIESO NOFCMEN
   Word  2: 1B08   NOBROWNOUT WDT BORV42 PUT WDT8192
   Word  3: 0000   NOPBADEN NOLPT1OSC NOMCLR
   Word  4: 00B0   NOSTVREN NODEBUG NOLVP NOXINST BBSIZ4K
   Word  5: C03F   NOPROTECT NOCPD NOCPB
   Word  6: E03F   NOWRT NOWRTD NOWRTC NOWRTB
   Word  7: 403F   NOEBTR NOEBTRB
