CCS PCH C Compiler, Version 4.104, 5967               26-oct.-20 16:14

               Filename: D:\Laboratorio\Autoclave\Autoclaves Vertical\Sin Precamara\2020\Autoclave 40L Artilab Impresora #004588218 OP2020135\Firmware V4.0\GLCD_Controller -4.0.1 Control Presion\GLCD_Controller.lst

               ROM used: 48814 bytes (50%)
                         Largest free fragment is 32768
               RAM used: 1009 (30%) at main() level
                         1043 (31%) worst case
               Stack:    5 worst case (4 in main + 1 for interrupts)

*
00000:  GOTO   5754
*
00008:  GOTO   00BA
0000C:  NOP   
0000E:  NOP   
00010:  NOP   
00012:  NOP   
00014:  NOP   
00016:  NOP   
00018:  MOVWF  04
0001A:  MOVFF  FD8,05
0001E:  MOVFF  FE0,06
00022:  MOVLB  0
00024:  MOVFF  FE9,0C
00028:  MOVFF  FEA,07
0002C:  MOVFF  FE1,08
00030:  MOVFF  FE2,09
00034:  MOVFF  FD9,0A
00038:  MOVFF  FDA,0B
0003C:  MOVFF  FF3,12
00040:  MOVFF  FF4,13
00044:  MOVFF  FFA,14
00048:  MOVFF  FFB,15
0004C:  MOVFF  00,0E
00050:  MOVFF  01,0F
00054:  MOVFF  02,10
00058:  MOVFF  03,11
0005C:  BTFSS  FF2.5
0005E:  GOTO   0068
00062:  BTFSC  FF2.2
00064:  GOTO   0272
00068:  BTFSS  F9D.0
0006A:  GOTO   0074
0006E:  BTFSC  F9E.0
00070:  GOTO   02CA
00074:  MOVFF  0E,00
00078:  MOVFF  0F,01
0007C:  MOVFF  10,02
00080:  MOVFF  11,03
00084:  MOVFF  0C,FE9
00088:  MOVFF  07,FEA
0008C:  BSF    07.7
0008E:  MOVFF  08,FE1
00092:  MOVFF  09,FE2
00096:  MOVFF  0A,FD9
0009A:  MOVFF  0B,FDA
0009E:  MOVFF  12,FF3
000A2:  MOVFF  13,FF4
000A6:  MOVFF  14,FFA
000AA:  MOVFF  15,FFB
000AE:  MOVF   04,W
000B0:  MOVFF  06,FE0
000B4:  MOVFF  05,FD8
000B8:  RETFIE 0
000BA:  MOVWF  17
000BC:  MOVFF  FD8,18
000C0:  MOVFF  FE0,19
000C4:  MOVLB  0
000C6:  MOVFF  FE9,1F
000CA:  MOVFF  FEA,1A
000CE:  MOVFF  FE1,1B
000D2:  MOVFF  FE2,1C
000D6:  MOVFF  FD9,1D
000DA:  MOVFF  FDA,1E
000DE:  MOVFF  FF3,25
000E2:  MOVFF  FF4,26
000E6:  MOVFF  FFA,27
000EA:  MOVFF  FFB,28
000EE:  MOVFF  00,21
000F2:  MOVFF  01,22
000F6:  MOVFF  02,23
000FA:  MOVFF  03,24
000FE:  BTFSS  F9D.5
00100:  GOTO   010A
00104:  BTFSC  F9E.5
00106:  GOTO   0204
0010A:  MOVFF  21,00
0010E:  MOVFF  22,01
00112:  MOVFF  23,02
00116:  MOVFF  24,03
0011A:  MOVFF  1F,FE9
0011E:  MOVFF  1A,FEA
00122:  BSF    1A.7
00124:  MOVFF  1B,FE1
00128:  MOVFF  1C,FE2
0012C:  MOVFF  1D,FD9
00130:  MOVFF  1E,FDA
00134:  MOVFF  25,FF3
00138:  MOVFF  26,FF4
0013C:  MOVFF  27,FFA
00140:  MOVFF  28,FFB
00144:  MOVF   17,W
00146:  MOVFF  19,FE0
0014A:  MOVFF  18,FD8
0014E:  RETFIE 0
.................... //Falta crear menu de ajuste de variables y de norma CFR21 
....................  
.................... #include <18F4685.h> 
.................... //////// Standard Header file for the PIC18F4685 device //////////////// 
.................... #device PIC18F4685 
.................... #list 
....................  
.................... #device adc=10 
.................... #device HIGH_INTS=TRUE //Activamos niveles de prioridad 
.................... #fuses HS,WDT8192,NOPROTECT,NOLVP,NODEBUG,NOSTVREN,NOPUT,NOCPD,NOWRT,NOIESO,NOFCMEN,NOPBADEN,NOWRTC,NOWRTB,NOEBTR,NOEBTRB,NOCPB,NOXINST,NOLPT1OSC,NOMCLR 
.................... #use delay(clock=20000000) 
*
017AE:  MOVLW  03
017B0:  MOVWF  FEA
017B2:  MOVLW  FB
017B4:  MOVWF  FE9
017B6:  MOVF   FEF,W
017B8:  BZ    17D4
017BA:  MOVLW  06
017BC:  MOVWF  01
017BE:  CLRF   00
017C0:  DECFSZ 00,F
017C2:  BRA    17C0
017C4:  DECFSZ 01,F
017C6:  BRA    17BE
017C8:  MOVLW  7B
017CA:  MOVWF  00
017CC:  DECFSZ 00,F
017CE:  BRA    17CC
017D0:  DECFSZ FEF,F
017D2:  BRA    17BA
017D4:  RETLW  00
.................... #use i2c(Master,slow,sda=PIN_C4,scl=PIN_C3) 
*
03DF4:  MOVLW  08
03DF6:  MOVWF  01
03DF8:  MOVLW  05
03DFA:  MOVWF  00
03DFC:  DECFSZ 00,F
03DFE:  BRA    3DFC
03E00:  BCF    F8B.3
03E02:  BCF    F94.3
03E04:  MOVLW  06
03E06:  MOVWF  00
03E08:  DECFSZ 00,F
03E0A:  BRA    3E08
03E0C:  MOVLB  3
03E0E:  RLCF   xFF,F
03E10:  BCF    F8B.4
03E12:  BTFSC  FD8.0
03E14:  BSF    F94.4
03E16:  BTFSS  FD8.0
03E18:  BCF    F94.4
03E1A:  BSF    F94.3
03E1C:  BTFSS  F82.3
03E1E:  BRA    3E1C
03E20:  DECFSZ 01,F
03E22:  BRA    3E26
03E24:  BRA    3E2A
03E26:  MOVLB  0
03E28:  BRA    3DF8
03E2A:  MOVLW  05
03E2C:  MOVWF  00
03E2E:  DECFSZ 00,F
03E30:  BRA    3E2E
03E32:  BCF    F8B.3
03E34:  BCF    F94.3
03E36:  NOP   
03E38:  BSF    F94.4
03E3A:  MOVLW  06
03E3C:  MOVWF  00
03E3E:  DECFSZ 00,F
03E40:  BRA    3E3E
03E42:  MOVLW  06
03E44:  MOVWF  00
03E46:  DECFSZ 00,F
03E48:  BRA    3E46
03E4A:  BSF    F94.3
03E4C:  BTFSS  F82.3
03E4E:  BRA    3E4C
03E50:  CLRF   01
03E52:  MOVLW  06
03E54:  MOVWF  00
03E56:  DECFSZ 00,F
03E58:  BRA    3E56
03E5A:  BTFSC  F82.4
03E5C:  BSF    01.0
03E5E:  BCF    F8B.3
03E60:  BCF    F94.3
03E62:  BCF    F8B.4
03E64:  BCF    F94.4
03E66:  MOVLB  0
03E68:  RETLW  00
.................... #use rs232(baud=9600, xmit=PIN_C6, rcv=PIN_C7, bits=8, parity=N) 
*
03552:  BTFSS  F9E.4
03554:  BRA    3552
03556:  MOVWF  FAD
03558:  RETLW  00
.................... //#include "HDM64GS12.c" 
.................... //#include "GRAPHICS.c" 
.................... ///#include "imagen.h" 
.................... #include <stdio.h> 
.................... /////////////////////////////////////////////////////////////////////////// 
.................... ////        (C) Copyright 1996,2003 Custom Computer Services           //// 
.................... //// This source code may only be used by licensed users of the CCS C  //// 
.................... //// compiler.  This source code may only be distributed to other      //// 
.................... //// licensed users of the CCS C compiler.  No other use, reproduction //// 
.................... //// or distribution is permitted without written permission.          //// 
.................... //// Derivative programs created using this software in object code    //// 
.................... //// form are not restricted in any way.                               //// 
.................... /////////////////////////////////////////////////////////////////////////// 
....................  
.................... #ifndef _STDIO 
.................... #define _STDIO 
.................... #include <string.h> 
.................... //////////////////////////////////////////////////////////////////////////// 
.................... ////        (C) Copyright 1996,2008 Custom Computer Services            //// 
.................... //// This source code may only be used by licensed users of the CCS C   //// 
.................... //// compiler.  This source code may only be distributed to other       //// 
.................... //// licensed users of the CCS C compiler.  No other use, reproduction  //// 
.................... //// or distribution is permitted without written permission.           //// 
.................... //// Derivative programs created using this software in object code     //// 
.................... //// form are not restricted in any way.                                //// 
.................... //////////////////////////////////////////////////////////////////////////// 
....................  
.................... #ifndef _STRING 
.................... #define _STRING 
.................... #include <stddef.h> 
.................... /////////////////////////////////////////////////////////////////////////// 
.................... ////        (C) Copyright 1996,2003 Custom Computer Services           //// 
.................... //// This source code may only be used by licensed users of the CCS C  //// 
.................... //// compiler.  This source code may only be distributed to other      //// 
.................... //// licensed users of the CCS C compiler.  No other use, reproduction //// 
.................... //// or distribution is permitted without written permission.          //// 
.................... //// Derivative programs created using this software in object code    //// 
.................... //// form are not restricted in any way.                               //// 
.................... /////////////////////////////////////////////////////////////////////////// 
....................  
.................... #ifndef _STDDEF 
....................  
.................... #define _STDDEF 
....................  
.................... #if sizeof(unsigned int8 *)==1 
.................... #define ptrdiff_t unsigned int8 
.................... #else 
.................... #define ptrdiff_t unsigned int16 
.................... #endif 
....................  
.................... #define size_t unsigned int8 
.................... #define wchar_t char 
.................... #define NULL 0 
....................  
.................... #define offsetof(s,f) (offsetofbit(s,f)/8) 
....................  
.................... #endif 
....................  
.................... #include <ctype.h> 
.................... //////////////////////////////////////////////////////////////////////////// 
.................... ////        (C) Copyright 1996,2003 Custom Computer Services            //// 
.................... //// This source code may only be used by licensed users of the CCS C   //// 
.................... //// compiler.  This source code may only be distributed to other       //// 
.................... //// licensed users of the CCS C compiler.  No other use, reproduction  //// 
.................... //// or distribution is permitted without written permission.           //// 
.................... //// Derivative programs created using this software in object code     //// 
.................... //// form are not restricted in any way.                                //// 
.................... //////////////////////////////////////////////////////////////////////////// 
....................  
.................... #ifndef _CTYPE 
.................... #define _CTYPE 
....................  
.................... #define islower(x)  isamong(x,"abcdefghijklmnopqrstuvwxyz") 
.................... #define isupper(x)  isamong(x,"ABCDEFGHIJKLMNOPQRSTUVWXYZ") 
.................... #define isalnum(x)  isamong(x,"0123456789ABCDEFGHIJKLMNOPQRSTUVWXYZabcdefghijklmnopqrstuvwxyz") 
.................... #define isalpha(x)  isamong(x,"ABCDEFGHIJKLMNOPQRSTUVWXYZabcdefghijklmnopqrstuvwxyz") 
.................... #define isdigit(x)  isamong(x,"0123456789") 
.................... #define isspace(x)  ((x)==' ') 
.................... #define isxdigit(x) isamong(x,"0123456789ABCDEFabcdef") 
.................... #define iscntrl(x)  ((x)<' ') 
.................... #define isprint(x)  ((x)>=' ') 
.................... #define isgraph(x)  ((x)>' ') 
.................... #define ispunct(x)  (((x)>' ')&&!isalnum(x)) 
....................  
.................... #endif 
....................  
....................  
....................  
....................  
....................  
.................... ////////////////////////////////////////////// 
.................... //// Uncomment the following define to    //// 
.................... //// allow some functions to use a        //// 
.................... //// quicker algorithm, but use more ROM  //// 
.................... ////                                      //// 
.................... //// #define FASTER_BUT_MORE_ROM          //// 
.................... ////////////////////////////////////////////// 
....................  
....................  
....................  
.................... /*Copying functions*/ 
.................... /* standard template: 
....................    void *memmove(void *s1, void *s2, size_t n). 
....................    Copies max of n characters safely (not following ending '\0') 
....................    from s2 in s1; if s2 has less than n characters, appends 0 */ 
....................  
.................... char *memmove(void *s1,char *s2,size_t n) 
.................... { 
....................    char *sc1; 
....................    char *sc2; 
....................    sc1=s1; 
....................    sc2=s2; 
....................    if(sc2<sc1 && sc1 <sc2 +n) 
....................       for(sc1+=n,sc2+=n;0<n;--n) 
....................          *--sc1=*--sc2; 
....................    else 
....................       for(;0<n;--n) 
....................          *sc1++=*sc2++; 
....................   return s1; 
....................   } 
....................  
.................... /* Standard template: char *strcpy(char *s1, const char *s2) 
....................    copies the string s2 including the null character to s1. 
....................    This is a compiler built in to handle the different address 
....................    spaces */ 
....................  
.................... #define strcopy strcpy 
....................  
.................... /* standard template: 
....................    char *strncpy(char *s1, const char *s2, size_t n). 
....................    Copies max of n characters (not following ending '\0') 
....................    from s2 in s1; if s2 has less than n characters, appends 0 */ 
....................  
.................... char *strncpy(char *s1, char *s2, size_t n) 
.................... { 
....................   char *s; 
....................  
....................   for (s = s1; n > 0 && *s2 != '\0'; n--) 
....................      *s++ = *s2++; 
....................   for (; n > 0; n--) 
....................      *s++ = '\0'; 
....................  
....................   return(s1); 
.................... } 
.................... /***********************************************************/ 
....................  
.................... /*concatenation functions*/ 
.................... /* standard template: char *strcat(char *s1, const char *s2) 
.................... appends s2 to s1*/ 
....................  
.................... char *strcat(char *s1, char *s2) 
.................... { 
....................    char *s; 
....................  
....................    for (s = s1; *s != '\0'; ++s); 
....................    while(*s2 != '\0') 
....................    { 
....................       *s = *s2; 
....................       ++s; 
....................       ++s2; 
....................    } 
....................  
....................    *s = '\0'; 
....................    return(s1); 
.................... } 
.................... /* standard template: char *strncat(char *s1, char *s2,size_t n) 
.................... appends not more than n characters from s2 to s1*/ 
....................  
.................... char *strncat(char *s1, char *s2, size_t n) 
.................... { 
....................    char *s; 
....................  
....................    for (s = s1; *s != '\0'; ++s); 
....................    while(*s2 != '\0' && 0<n) 
....................    { 
....................       *s = *s2; 
....................       ++s; 
....................       ++s2; 
....................       --n; 
....................    } 
....................  
....................    *s = '\0'; 
....................    return(s1); 
.................... } 
....................  
.................... /***********************************************************/ 
....................  
....................  
.................... /*comparison functions*/ 
.................... /* standard template: signed int memcmp(void *s1, void *s2). 
....................    Compares s1 & s2; returns -1 if s1<s2, 0 if s1=s2, 1 if s1>s2 */ 
....................  
.................... signed int8 memcmp(void * s1,char *s2,size_t n) 
.................... { 
.................... char *su1, *su2; 
.................... for(su1=s1, su2=s2; 0<n; ++su1, ++su2, --n) 
.................... { 
....................    if(*su1!=*su2) 
....................       return ((*su1<*su2)?-1:+1); 
.................... } 
.................... return 0; 
.................... } 
....................  
.................... /* standard template: int strcmp(const char *s1, const char *s2). 
....................    Compares s1 & s2; returns -1 if s1<s2, 0 if s1=s2, 1 if s1>s2 */ 
....................  
.................... signed int8 strcmp(char *s1, char *s2) 
.................... { 
....................    for (; *s1 == *s2; s1++, s2++) 
....................       if (*s1 == '\0') 
....................          return(0); 
....................    return((*s1 < *s2) ? -1: 1); 
.................... } 
.................... /* standard template: int strcoll(const char *s1, const char *s2). 
....................    Compares s1 & s2; returns -1 if s1<s2, 0 if s1=s2, 1 if s1>s2 */ 
....................  
.................... signed int8 strcoll(char *s1, char *s2) 
.................... { 
....................    for (; *s1 == *s2; s1++, s2++) 
....................       if (*s1 == '\0') 
....................          return(0); 
....................    return((*s1 < *s2) ? -1: 1); 
.................... } 
....................  
.................... /* standard template: 
....................    int strncmp(const char *s1, const char *s2, size_t n). 
....................    Compares max of n characters (not following 0) from s1 to s2; 
....................    returns same as strcmp */ 
....................  
.................... signed int8 strncmp(char *s1, char *s2, size_t n) 
.................... { 
....................    for (; n > 0; s1++, s2++, n--) 
....................       if (*s1 != *s2) 
....................          return((*s1 <*s2) ? -1: 1); 
....................       else if (*s1 == '\0') 
....................          return(0); 
....................    return(0); 
.................... } 
.................... /* standard template: 
....................    int strxfrm(const char *s1, const char *s2, size_t n). 
....................    transforms maximum of n characters from s2 and places them into s1*/ 
.................... size_t strxfrm(char *s1, char *s2, size_t n) 
.................... { 
....................   char *s; 
....................   unsigned int8 n1; 
....................   n1=n; 
....................   for (s = s1; n > 0 && *s2 != '\0'; n--) 
....................      *s++ = *s2++; 
....................   for (; n > 0; n--) 
....................      *s++ = '\0'; 
....................  
....................   return(n1); 
.................... } 
....................  
....................  
....................  
....................  
....................  
.................... /***********************************************************/ 
.................... /*Search functions*/ 
.................... /* standard template: void *memchr(const char *s, int c). 
....................    Finds first occurrence of c in n characters of s */ 
....................  
.................... char *memchr(void *s,unsigned int8 c,size_t n) 
.................... { 
....................    char uc; 
....................    char *su; 
....................    uc=c; 
....................    for(su=s;0<n;++su,--n) 
....................       if(*su==uc) 
....................       return su; 
....................    return NULL; 
.................... } 
....................  
.................... /* standard template: char *strchr(const char *s, int c). 
....................    Finds first occurrence of c in s */ 
....................  
.................... char *strchr(char *s, unsigned int8 c) 
.................... { 
....................    for (; *s != c; s++) 
....................       if (*s == '\0') 
....................          return(0); 
....................    return(s); 
.................... } 
.................... /* standard template: 
....................    size_t strcspn(const char *s1, const char *s2). 
....................    Computes length of max initial segment of s1 that 
....................    consists entirely of characters NOT from s2*/ 
....................  
.................... unsigned int8  strcspn(char *s1, char *s2) 
.................... { 
....................    char *sc1, *sc2; 
....................  
....................    for (sc1 = s1; *sc1 != 0; sc1++) 
....................       for (sc2 = s2; *sc2 != 0; sc2++) 
....................          if (*sc1 == *sc2) 
....................             return(sc1 - s1); 
....................    return(sc1 - s1); 
.................... } 
.................... /* standard template: 
....................    char *strpbrk(const char *s1, const char *s2). 
....................    Locates first occurence of any character from s2 in s1; 
....................    returns s1 if s2 is empty string */ 
....................  
.................... char *strpbrk(char *s1, char *s2) 
.................... { 
....................    char *sc1, *sc2; 
....................  
....................    for (sc1 = s1; *sc1 != 0; sc1++) 
....................       for (sc2 = s2; *sc2 != 0; sc2++) 
....................          if (*sc1 == *sc2) 
....................             return(sc1); 
....................    return(0); 
.................... } 
....................  
....................  
.................... /* standard template: char *strrchr(const char *s, int c). 
....................    Finds last occurrence of c in s */ 
....................  
.................... char *strrchr(char *s, unsigned int8 c) 
.................... { 
....................    char *p; 
....................  
....................    for (p = 0; ; s++) 
....................    { 
....................       if (*s == c) 
....................          p = s; 
....................       if (*s == '\0') 
....................          return(p); 
....................    } 
.................... } 
.................... /* computes length of max initial segment of s1 consisting 
....................    entirely of characters from s2 */ 
....................  
.................... unsigned int8  strspn(char *s1, char *s2) 
.................... { 
....................    char *sc1, *sc2; 
....................  
....................    for (sc1 = s1; *sc1 != 0; sc1++) 
....................       for (sc2 = s2; ; sc2++) 
....................     if (*sc2 == '\0') 
....................        return(sc1 - s1); 
....................          else if (*sc1 == *sc2) 
....................             break; 
....................    return(sc1 - s1); 
.................... } 
.................... /* standard template: 
....................    char *strstr(const char *s1, const char *s2); 
....................    Locates first occurence of character sequence s2 in s1; 
....................    returns 0 if s2 is empty string 
....................  
....................    Uncomment #define FASTER_BUT_MORE_ROM at the top of the 
....................    file to use the faster algorithm */ 
.................... char *strstr(char *s1, char *s2) 
.................... { 
....................    char *s, *t; 
....................  
....................    #ifdef FASTER_BUT_MORE_ROM 
....................    if (*s2 == '\0') 
....................          return(s1); 
....................    #endif 
....................  
....................    while (*s1) 
....................    { 
....................       for(s = s1, t = s2; *t && (*s == *t); ++s, ++t); 
....................  
....................       if (*t == '\0') 
....................          return s1; 
....................       ++s1; 
....................       #ifdef FASTER_BUT_MORE_ROM 
....................          while(*s1 != '\0' && *s1 != *s2) 
....................             ++s1; 
....................       #endif 
....................    } 
....................    return 0; 
.................... } 
....................  
.................... /* standard template: char *strtok(char *s1, const char *s2). 
....................  
....................    Finds next token in s1 delimited by a character from separator 
....................    string s2 (which can be different from call to call).  First call 
....................    starts at beginning of s1 searching for first character NOT 
....................    contained in s2; returns 0 if none is found. 
....................    If one is found, it is the start of first token (return value). 
....................    Function then searches from there for a character contained in s2. 
....................    If none is found, current token extends to end of s1, and subsequent 
....................    searches for a token will return 0.  If one is found, it is 
....................    overwritten by '\0', which terminates current token.  Function saves 
....................    pointer to following character from which next search will start. 
....................    Each subsequent call, with 0 as first argument, starts searching 
....................    from saved pointer */ 
....................  
.................... char *strtok(char *s1, char *s2) 
.................... { 
....................    char *beg, *end; 
....................    static char *save; 
....................  
....................    beg = (s1)? s1: save; 
....................    beg += strspn(beg, s2); 
....................    if (*beg == '\0') 
....................    { 
....................       *save = ' '; 
....................       return(0); 
....................    } 
....................    end = strpbrk(beg, s2); 
....................    if (*end != '\0') 
....................    { 
....................       *end = '\0'; 
....................       end++; 
....................    } 
....................    save = end; 
....................    return(beg); 
.................... } 
....................  
.................... /*****************************************************************/ 
.................... /*Miscellaneous functions*/ 
.................... /* standard template 
.................... maps error number in errnum to an error message string 
.................... Returns: Pointer to string 
.................... */ 
.................... #ifdef _ERRNO 
.................... char * strerror(unsigned int8 errnum) 
.................... { 
.................... char s[15]; 
.................... switch( errnum) 
.................... { 
.................... case 0: 
....................    strcpy(s,"no errors"); 
....................    return s; 
.................... case EDOM : 
....................    strcpy(s,"domain error"); 
....................    return s; 
.................... case ERANGE: 
....................    strcpy(s,"range error"); 
....................    return s; 
.................... } 
.................... } 
.................... #ENDIF 
.................... /* standard template: size_t strlen(const char *s). 
....................    Computes length of s1 (preceding terminating 0) */ 
....................  
.................... unsigned int8 strlen(char *s) 
.................... { 
....................    char *sc; 
....................  
....................    for (sc = s; *sc != 0; sc++); 
....................    return(sc - s); 
.................... } 
....................  
.................... /* standard template: size_t stricmp(const char *s1, const char *s2). 
....................    Compares s1 to s2 ignoring case (upper vs. lower) */ 
....................  
.................... signed int8 stricmp(char *s1, char *s2) 
.................... { 
....................  for(; *s1==*s2||(isalpha(*s1)&&isalpha(*s2)&&(*s1==*s2+32||*s2==*s1+32)); 
....................     s1++, s2++) 
....................     if (*s1 == '\0') 
....................        return(0); 
....................  return((*s1 < *s2) ? -1: 1); 
.................... } 
....................  
....................  
.................... /* standard template: char *strlwr(char *s). 
....................    Replaces uppercase letters by lowercase; 
....................    returns pointer to new string s */ 
....................  
.................... char *strlwr(char *s) 
.................... { 
....................    char *p; 
....................  
....................    for (p = s; *p != '\0'; p++) 
....................       if (*p >= 'A' && *p <='Z') 
....................          *p += 'a' - 'A'; 
....................    return(s); 
.................... } 
....................  
....................  
.................... /************************************************************/ 
....................  
....................  
.................... #endif 
....................  
.................... #ifndef getc 
.................... #define getc getch 
.................... #define getchar getch 
.................... #define puts(s) {printf(s); putchar(13); putchar(10);} 
.................... #define putc putchar 
.................... #endif 
.................... /* maps error number to an error message. Writes a sequence of characters to 
.................... stderr stream thus: if s is not null then string pointed to by s follwed by 
.................... a colon (:) and a space and the appropriate error message returned by strerror 
.................... function with argument errno 
....................  
.................... Returns: no value 
.................... */ 
....................  
.................... #ifdef _ERRNO 
.................... void perror(char *s) 
.................... { 
....................   if(s) 
....................   fprintf(STDERR,"%s: ",s); 
....................   fprintf(STDERR,"%s\r\n",strerror(errno)); 
.................... } 
.................... #endif 
.................... #endif 
....................  
.................... #include <string.h> 
.................... //////////////////////////////////////////////////////////////////////////// 
.................... ////        (C) Copyright 1996,2008 Custom Computer Services            //// 
.................... //// This source code may only be used by licensed users of the CCS C   //// 
.................... //// compiler.  This source code may only be distributed to other       //// 
.................... //// licensed users of the CCS C compiler.  No other use, reproduction  //// 
.................... //// or distribution is permitted without written permission.           //// 
.................... //// Derivative programs created using this software in object code     //// 
.................... //// form are not restricted in any way.                                //// 
.................... //////////////////////////////////////////////////////////////////////////// 
....................  
.................... #ifndef _STRING 
.................... #define _STRING 
.................... #include <stddef.h> 
.................... #include <ctype.h> 
....................  
....................  
....................  
.................... ////////////////////////////////////////////// 
.................... //// Uncomment the following define to    //// 
.................... //// allow some functions to use a        //// 
.................... //// quicker algorithm, but use more ROM  //// 
.................... ////                                      //// 
.................... //// #define FASTER_BUT_MORE_ROM          //// 
.................... ////////////////////////////////////////////// 
....................  
....................  
....................  
.................... /*Copying functions*/ 
.................... /* standard template: 
....................    void *memmove(void *s1, void *s2, size_t n). 
....................    Copies max of n characters safely (not following ending '\0') 
....................    from s2 in s1; if s2 has less than n characters, appends 0 */ 
....................  
.................... char *memmove(void *s1,char *s2,size_t n) 
.................... { 
....................    char *sc1; 
....................    char *sc2; 
....................    sc1=s1; 
....................    sc2=s2; 
....................    if(sc2<sc1 && sc1 <sc2 +n) 
....................       for(sc1+=n,sc2+=n;0<n;--n) 
....................          *--sc1=*--sc2; 
....................    else 
....................       for(;0<n;--n) 
....................          *sc1++=*sc2++; 
....................   return s1; 
....................   } 
....................  
.................... /* Standard template: char *strcpy(char *s1, const char *s2) 
....................    copies the string s2 including the null character to s1. 
....................    This is a compiler built in to handle the different address 
....................    spaces */ 
....................  
.................... #define strcopy strcpy 
....................  
.................... /* standard template: 
....................    char *strncpy(char *s1, const char *s2, size_t n). 
....................    Copies max of n characters (not following ending '\0') 
....................    from s2 in s1; if s2 has less than n characters, appends 0 */ 
....................  
.................... char *strncpy(char *s1, char *s2, size_t n) 
.................... { 
....................   char *s; 
....................  
....................   for (s = s1; n > 0 && *s2 != '\0'; n--) 
....................      *s++ = *s2++; 
....................   for (; n > 0; n--) 
....................      *s++ = '\0'; 
....................  
....................   return(s1); 
.................... } 
.................... /***********************************************************/ 
....................  
.................... /*concatenation functions*/ 
.................... /* standard template: char *strcat(char *s1, const char *s2) 
.................... appends s2 to s1*/ 
....................  
.................... char *strcat(char *s1, char *s2) 
.................... { 
....................    char *s; 
....................  
....................    for (s = s1; *s != '\0'; ++s); 
....................    while(*s2 != '\0') 
....................    { 
....................       *s = *s2; 
....................       ++s; 
....................       ++s2; 
....................    } 
....................  
....................    *s = '\0'; 
....................    return(s1); 
.................... } 
.................... /* standard template: char *strncat(char *s1, char *s2,size_t n) 
.................... appends not more than n characters from s2 to s1*/ 
....................  
.................... char *strncat(char *s1, char *s2, size_t n) 
.................... { 
....................    char *s; 
....................  
....................    for (s = s1; *s != '\0'; ++s); 
....................    while(*s2 != '\0' && 0<n) 
....................    { 
....................       *s = *s2; 
....................       ++s; 
....................       ++s2; 
....................       --n; 
....................    } 
....................  
....................    *s = '\0'; 
....................    return(s1); 
.................... } 
....................  
.................... /***********************************************************/ 
....................  
....................  
.................... /*comparison functions*/ 
.................... /* standard template: signed int memcmp(void *s1, void *s2). 
....................    Compares s1 & s2; returns -1 if s1<s2, 0 if s1=s2, 1 if s1>s2 */ 
....................  
.................... signed int8 memcmp(void * s1,char *s2,size_t n) 
.................... { 
.................... char *su1, *su2; 
.................... for(su1=s1, su2=s2; 0<n; ++su1, ++su2, --n) 
.................... { 
....................    if(*su1!=*su2) 
....................       return ((*su1<*su2)?-1:+1); 
.................... } 
.................... return 0; 
.................... } 
....................  
.................... /* standard template: int strcmp(const char *s1, const char *s2). 
....................    Compares s1 & s2; returns -1 if s1<s2, 0 if s1=s2, 1 if s1>s2 */ 
....................  
.................... signed int8 strcmp(char *s1, char *s2) 
.................... { 
....................    for (; *s1 == *s2; s1++, s2++) 
....................       if (*s1 == '\0') 
....................          return(0); 
....................    return((*s1 < *s2) ? -1: 1); 
.................... } 
.................... /* standard template: int strcoll(const char *s1, const char *s2). 
....................    Compares s1 & s2; returns -1 if s1<s2, 0 if s1=s2, 1 if s1>s2 */ 
....................  
.................... signed int8 strcoll(char *s1, char *s2) 
.................... { 
....................    for (; *s1 == *s2; s1++, s2++) 
....................       if (*s1 == '\0') 
....................          return(0); 
....................    return((*s1 < *s2) ? -1: 1); 
.................... } 
....................  
.................... /* standard template: 
....................    int strncmp(const char *s1, const char *s2, size_t n). 
....................    Compares max of n characters (not following 0) from s1 to s2; 
....................    returns same as strcmp */ 
....................  
.................... signed int8 strncmp(char *s1, char *s2, size_t n) 
.................... { 
....................    for (; n > 0; s1++, s2++, n--) 
....................       if (*s1 != *s2) 
....................          return((*s1 <*s2) ? -1: 1); 
....................       else if (*s1 == '\0') 
....................          return(0); 
....................    return(0); 
.................... } 
.................... /* standard template: 
....................    int strxfrm(const char *s1, const char *s2, size_t n). 
....................    transforms maximum of n characters from s2 and places them into s1*/ 
.................... size_t strxfrm(char *s1, char *s2, size_t n) 
.................... { 
....................   char *s; 
....................   unsigned int8 n1; 
....................   n1=n; 
....................   for (s = s1; n > 0 && *s2 != '\0'; n--) 
....................      *s++ = *s2++; 
....................   for (; n > 0; n--) 
....................      *s++ = '\0'; 
....................  
....................   return(n1); 
.................... } 
....................  
....................  
....................  
....................  
....................  
.................... /***********************************************************/ 
.................... /*Search functions*/ 
.................... /* standard template: void *memchr(const char *s, int c). 
....................    Finds first occurrence of c in n characters of s */ 
....................  
.................... char *memchr(void *s,unsigned int8 c,size_t n) 
.................... { 
....................    char uc; 
....................    char *su; 
....................    uc=c; 
....................    for(su=s;0<n;++su,--n) 
....................       if(*su==uc) 
....................       return su; 
....................    return NULL; 
.................... } 
....................  
.................... /* standard template: char *strchr(const char *s, int c). 
....................    Finds first occurrence of c in s */ 
....................  
.................... char *strchr(char *s, unsigned int8 c) 
.................... { 
....................    for (; *s != c; s++) 
....................       if (*s == '\0') 
....................          return(0); 
....................    return(s); 
.................... } 
.................... /* standard template: 
....................    size_t strcspn(const char *s1, const char *s2). 
....................    Computes length of max initial segment of s1 that 
....................    consists entirely of characters NOT from s2*/ 
....................  
.................... unsigned int8  strcspn(char *s1, char *s2) 
.................... { 
....................    char *sc1, *sc2; 
....................  
....................    for (sc1 = s1; *sc1 != 0; sc1++) 
....................       for (sc2 = s2; *sc2 != 0; sc2++) 
....................          if (*sc1 == *sc2) 
....................             return(sc1 - s1); 
....................    return(sc1 - s1); 
.................... } 
.................... /* standard template: 
....................    char *strpbrk(const char *s1, const char *s2). 
....................    Locates first occurence of any character from s2 in s1; 
....................    returns s1 if s2 is empty string */ 
....................  
.................... char *strpbrk(char *s1, char *s2) 
.................... { 
....................    char *sc1, *sc2; 
....................  
....................    for (sc1 = s1; *sc1 != 0; sc1++) 
....................       for (sc2 = s2; *sc2 != 0; sc2++) 
....................          if (*sc1 == *sc2) 
....................             return(sc1); 
....................    return(0); 
.................... } 
....................  
....................  
.................... /* standard template: char *strrchr(const char *s, int c). 
....................    Finds last occurrence of c in s */ 
....................  
.................... char *strrchr(char *s, unsigned int8 c) 
.................... { 
....................    char *p; 
....................  
....................    for (p = 0; ; s++) 
....................    { 
....................       if (*s == c) 
....................          p = s; 
....................       if (*s == '\0') 
....................          return(p); 
....................    } 
.................... } 
.................... /* computes length of max initial segment of s1 consisting 
....................    entirely of characters from s2 */ 
....................  
.................... unsigned int8  strspn(char *s1, char *s2) 
.................... { 
....................    char *sc1, *sc2; 
....................  
....................    for (sc1 = s1; *sc1 != 0; sc1++) 
....................       for (sc2 = s2; ; sc2++) 
....................     if (*sc2 == '\0') 
....................        return(sc1 - s1); 
....................          else if (*sc1 == *sc2) 
....................             break; 
....................    return(sc1 - s1); 
.................... } 
.................... /* standard template: 
....................    char *strstr(const char *s1, const char *s2); 
....................    Locates first occurence of character sequence s2 in s1; 
....................    returns 0 if s2 is empty string 
....................  
....................    Uncomment #define FASTER_BUT_MORE_ROM at the top of the 
....................    file to use the faster algorithm */ 
.................... char *strstr(char *s1, char *s2) 
.................... { 
....................    char *s, *t; 
....................  
....................    #ifdef FASTER_BUT_MORE_ROM 
....................    if (*s2 == '\0') 
....................          return(s1); 
....................    #endif 
....................  
....................    while (*s1) 
....................    { 
....................       for(s = s1, t = s2; *t && (*s == *t); ++s, ++t); 
....................  
....................       if (*t == '\0') 
....................          return s1; 
....................       ++s1; 
....................       #ifdef FASTER_BUT_MORE_ROM 
....................          while(*s1 != '\0' && *s1 != *s2) 
....................             ++s1; 
....................       #endif 
....................    } 
....................    return 0; 
.................... } 
....................  
.................... /* standard template: char *strtok(char *s1, const char *s2). 
....................  
....................    Finds next token in s1 delimited by a character from separator 
....................    string s2 (which can be different from call to call).  First call 
....................    starts at beginning of s1 searching for first character NOT 
....................    contained in s2; returns 0 if none is found. 
....................    If one is found, it is the start of first token (return value). 
....................    Function then searches from there for a character contained in s2. 
....................    If none is found, current token extends to end of s1, and subsequent 
....................    searches for a token will return 0.  If one is found, it is 
....................    overwritten by '\0', which terminates current token.  Function saves 
....................    pointer to following character from which next search will start. 
....................    Each subsequent call, with 0 as first argument, starts searching 
....................    from saved pointer */ 
....................  
.................... char *strtok(char *s1, char *s2) 
.................... { 
....................    char *beg, *end; 
....................    static char *save; 
....................  
....................    beg = (s1)? s1: save; 
....................    beg += strspn(beg, s2); 
....................    if (*beg == '\0') 
....................    { 
....................       *save = ' '; 
....................       return(0); 
....................    } 
....................    end = strpbrk(beg, s2); 
....................    if (*end != '\0') 
....................    { 
....................       *end = '\0'; 
....................       end++; 
....................    } 
....................    save = end; 
....................    return(beg); 
.................... } 
....................  
.................... /*****************************************************************/ 
.................... /*Miscellaneous functions*/ 
.................... /* standard template 
.................... maps error number in errnum to an error message string 
.................... Returns: Pointer to string 
.................... */ 
.................... #ifdef _ERRNO 
.................... char * strerror(unsigned int8 errnum) 
.................... { 
.................... char s[15]; 
.................... switch( errnum) 
.................... { 
.................... case 0: 
....................    strcpy(s,"no errors"); 
....................    return s; 
.................... case EDOM : 
....................    strcpy(s,"domain error"); 
....................    return s; 
.................... case ERANGE: 
....................    strcpy(s,"range error"); 
....................    return s; 
.................... } 
.................... } 
.................... #ENDIF 
.................... /* standard template: size_t strlen(const char *s). 
....................    Computes length of s1 (preceding terminating 0) */ 
....................  
.................... unsigned int8 strlen(char *s) 
.................... { 
....................    char *sc; 
....................  
....................    for (sc = s; *sc != 0; sc++); 
....................    return(sc - s); 
.................... } 
....................  
.................... /* standard template: size_t stricmp(const char *s1, const char *s2). 
....................    Compares s1 to s2 ignoring case (upper vs. lower) */ 
....................  
.................... signed int8 stricmp(char *s1, char *s2) 
.................... { 
....................  for(; *s1==*s2||(isalpha(*s1)&&isalpha(*s2)&&(*s1==*s2+32||*s2==*s1+32)); 
....................     s1++, s2++) 
....................     if (*s1 == '\0') 
....................        return(0); 
....................  return((*s1 < *s2) ? -1: 1); 
.................... } 
....................  
....................  
.................... /* standard template: char *strlwr(char *s). 
....................    Replaces uppercase letters by lowercase; 
....................    returns pointer to new string s */ 
....................  
.................... char *strlwr(char *s) 
.................... { 
....................    char *p; 
....................  
....................    for (p = s; *p != '\0'; p++) 
....................       if (*p >= 'A' && *p <='Z') 
....................          *p += 'a' - 'A'; 
....................    return(s); 
.................... } 
....................  
....................  
.................... /************************************************************/ 
....................  
....................  
.................... #endif 
....................  
.................... #include <stdlib.h> 
.................... /////////////////////////////////////////////////////////////////////////// 
.................... ////        (C) Copyright 1996,2007 Custom Computer Services           //// 
.................... //// This source code may only be used by licensed users of the CCS C  //// 
.................... //// compiler.  This source code may only be distributed to other      //// 
.................... //// licensed users of the CCS C compiler.  No other use, reproduction //// 
.................... //// or distribution is permitted without written permission.          //// 
.................... //// Derivative programs created using this software in object code    //// 
.................... //// form are not restricted in any way.                               //// 
.................... /////////////////////////////////////////////////////////////////////////// 
....................  
.................... #ifndef _STDLIB 
.................... #define _STDLIB 
....................  
.................... //--------------------------------------------------------------------------- 
.................... // Definitions and types 
.................... //--------------------------------------------------------------------------- 
....................  
.................... #ifndef RAND_MAX 
.................... #define RAND_MAX  32767    // The value of which is the maximum value 
....................                            // ... returned by the rand function 
.................... #endif 
....................  
....................  
.................... #IF (sizeof(int16*)>1) 
.................... #DEFINE LONG_POINTERS 1 
.................... #ELSE  
.................... #DEFINE LONG_POINTERS 0 
.................... #ENDIF 
....................  
.................... typedef struct { 
....................    signed int quot; 
....................    signed int rem; 
.................... } div_t; 
....................  
.................... typedef struct { 
....................    signed long quot; 
....................    signed long rem; 
.................... } ldiv_t; 
....................  
.................... #include <stddef.h> 
.................... /////////////////////////////////////////////////////////////////////////// 
.................... ////        (C) Copyright 1996,2003 Custom Computer Services           //// 
.................... //// This source code may only be used by licensed users of the CCS C  //// 
.................... //// compiler.  This source code may only be distributed to other      //// 
.................... //// licensed users of the CCS C compiler.  No other use, reproduction //// 
.................... //// or distribution is permitted without written permission.          //// 
.................... //// Derivative programs created using this software in object code    //// 
.................... //// form are not restricted in any way.                               //// 
.................... /////////////////////////////////////////////////////////////////////////// 
....................  
.................... #ifndef _STDDEF 
....................  
.................... #define _STDDEF 
....................  
.................... #if sizeof(unsigned int8 *)==1 
.................... #define ptrdiff_t unsigned int8 
.................... #else 
.................... #define ptrdiff_t unsigned int16 
.................... #endif 
....................  
.................... #define size_t unsigned int8 
.................... #define wchar_t char 
.................... #define NULL 0 
....................  
.................... #define offsetof(s,f) (offsetofbit(s,f)/8) 
....................  
.................... #endif 
....................  
....................  
.................... //--------------------------------------------------------------------------- 
.................... // String conversion functions 
.................... //--------------------------------------------------------------------------- 
....................  
.................... /* Standard template: signed int  atoi(char * s) 
....................  * converts the initial portion of the string s to a signed int 
....................  * returns the converted value if any, 0 otherwise 
....................  */ 
.................... signed int atoi(char *s); 
....................  
.................... /* Syntax: signed int32  atoi32(char * s) 
....................    converts the initial portion of the string s to a signed int32 
....................    returns the converted value if any, 0 otherwise*/ 
.................... #if (sizeof(long)==4) 
....................  #define atoi32(s) atol(s) 
.................... #else  
....................  signed int32 atoi32(char *s); 
.................... #endif 
....................  
.................... #if defined(__PCD__) 
.................... // The following functions only work on the 24 bit compiler 
.................... // for the 30F, 33F, 24F and 24H parts 
.................... /* Syntax: signed int48  atoi48(char * s) 
....................    converts the initial portion of the string s to a signed int48 
....................    returns the converted value if any, 0 otherwise*/ 
....................     
.................... signed int48 atoi48(char *s); 
....................  
.................... /* Syntax: signed int64  atoi64(char * s) 
....................    converts the initial portion of the string s to a signed int64 
....................    returns the converted value if any, 0 otherwise*/ 
.................... signed int64 atoi64(char *s); 
.................... #endif 
....................  
.................... /* Syntax: char *  itoa(signed int32 num, int8 base, char * s) 
....................    converts the signed int32 to a string and 
....................    returns the converted value if any, 0 otherwise*/ 
.................... char * itoa(signed int32 num, unsigned int base, char * s); 
....................  
.................... /* Standard template: signed int16  atol(char * s) 
....................  * converts the initial portion of the string s to a signed int16 
....................  * returns the converted value if any, 0 otherwise 
....................  */ 
.................... signed long atol(char *s); 
....................  
.................... /* Standard template: int16 strtoul(char * s,char *endptr,signed int base) 
....................  * converts the initial portion of the string s, represented as an 
....................  * integral value of radix base  to a signed long. 
....................  * Returns the converted value if any, 0 otherwise 
....................  * the final string is returned in the endptr, if endptr is not null 
....................  */ 
.................... signed long strtol(char *s,char *endptr, signed int base); 
....................  
.................... /* Standard template: int16 strtoul(char * s,char *endptr,signed int base) 
....................  * converts the initial portion of the string s, represented as an 
....................  * integral value of radix base to a unsigned long. 
....................  * returns the converted value if any, 0 otherwise 
....................  * the final string is returned in the endptr, if endptr is not null 
....................  */ 
.................... unsigned long strtoul(char *s,char *endptr, signed int base); 
....................  
.................... /* Standart template: float strtof(char * s,char *endptr) 
....................                       float48 strtof48(char *s,char *endptr); 
....................                       float64 strtod(char *s,char *endptr); 
....................  * converts the initial portion of the string s to a float32, float48 or float64, 
....................  * returns the converted value if any, 0 otherwise 
....................  * the final string is returned in the endptr, if endptr is not null                    
.................... */ 
.................... float strtof(char *s,char *endptr); 
.................... #if defined(__PCD__) 
.................... float48 strtof48(char *s,char *endptr); 
.................... float64 strtod(char *s,char *endptr); 
.................... #else 
.................... //provided for compatibility 
.................... #define strtof48(s, e) strtof(s, e) 
.................... #define strtod(s, e) strtof(s, e) 
.................... #endif 
....................  
.................... /* Standard template: float32 atof(char * s) 
....................  * converts the initial portion of the string s to a float. 
....................  * returns the converted value if any, 0 otherwise 
....................  */ 
.................... #define atof(s)   strtof(s, 0) 
....................  
.................... #if defined(__PCD__) 
.................... // The following functions only work on the 24 bit compiler 
.................... // for the 30F, 33F, 24F and 24H parts 
....................  
.................... /* Standard template: float48 atof48(char * s) 
....................  * converts the initial portion of the string s to a float. 
....................  * returns the converted value if any, 0 otherwise 
....................  */ 
.................... #define atof48(s) strtof48(s, 0) 
....................  
.................... /* Standard template: float64 atof64(char * s) 
....................  * converts the initial portion of the string s to a float. 
....................  * returns the converted value if any, 0 otherwise 
....................  */ 
.................... #define atof64(s) strtod(s, 0) 
.................... #endif 
....................  
.................... /* Standard template: float32 atoe(char * s) 
....................  * converts the initial portion of the string s to a float. 
....................  * returns the converted value if any, 0 otherwise 
....................  * also handles E format numbers 
....................  */ 
.................... #if !defined(__PCD__) 
.................... float atoe(char * s); 
.................... #endif 
....................  
.................... #if defined(__PCD__) 
.................... float32 atoe(char * s); 
.................... #endif 
....................  
.................... //--------------------------------------------------------------------------- 
.................... // Pseudo-random sequence generation functions 
.................... //--------------------------------------------------------------------------- 
....................  
.................... /* The rand function computes a sequence of pseudo-random integers in 
....................  * the range 0 to RAND_MAX 
....................  * 
....................  * Parameters: 
....................  *       (none) 
....................  * 
....................  * Returns: 
....................  *       The pseudo-random integer 
....................  */ 
.................... unsigned int16 rand(void); 
....................  
.................... /* The srand function uses the argument as a seed for a new sequence of 
....................  * pseudo-random numbers to be returned by subsequent calls to rand. 
....................  * 
....................  * Parameters: 
....................  *       [in] seed: The seed value to start from. You might need to pass 
....................  * 
....................  * Returns: 
....................  *       (none) 
....................  * 
....................  * Remarks 
....................  *          The srand function sets the starting point for generating 
....................  *       a series of pseudorandom integers. To reinitialize the 
....................  *       generator, use 1 as the seed argument. Any other value for 
....................  *       seed sets the generator to a random starting point. rand 
....................  *       retrieves the pseudorandom numbers that are generated. 
....................  *       Calling rand before any call to srand generates the same 
....................  *       sequence as calling srand with seed passed as 1. 
....................  *          Usually, you need to pass a time here from outer source 
....................  *       so that the numbers will be different every time you run. 
....................  */ 
.................... void srand(unsigned int32 seed); 
....................  
.................... //--------------------------------------------------------------------------- 
.................... // Memory management functions 
.................... //--------------------------------------------------------------------------- 
....................  
.................... // Comming soon 
....................  
.................... //--------------------------------------------------------------------------- 
.................... // Communication with the environment 
.................... //--------------------------------------------------------------------------- 
....................  
.................... /* The function returns 0 always 
....................  */ 
.................... signed int8 system(char *string); 
....................  
.................... //--------------------------------------------------------------------------- 
.................... // Searching and sorting utilities 
.................... //--------------------------------------------------------------------------- 
....................  
.................... /* Performs a binary search of a sorted array.. 
....................  * 
....................  * Parameters: 
....................  *       [in] key: Object to search for 
....................  *       [in] base: Pointer to base of search data 
....................  *       [in] num: Number of elements 
....................  *       [in] width: Width of elements 
....................  *       [in] compare: Function that compares two elements 
....................  * 
....................  * Returns: 
....................  *       bsearch returns a pointer to an occurrence of key in the array pointed 
....................  *       to by base. If key is not found, the function returns NULL. If the 
....................  *       array is not in order or contains duplicate records with identical keys, 
....................  *       the result is unpredictable. 
....................  */ 
.................... //void *bsearch(const void *key, const void *base, size_t num, size_t width, 
.................... //              int (*compare)(const void *, const void *)); 
....................  
.................... /* Performs the shell-metzner sort (not the quick sort algorithm). The contents 
....................  * of the array are sorted into ascending order according to a comparison 
....................  * function pointed to by compar. 
....................  * 
....................  * Parameters: 
....................  *       [in] base: Pointer to base of search data 
....................  *       [in] num: Number of elements 
....................  *       [in] width: Width of elements 
....................  *       [in] compare: Function that compares two elements 
....................  * 
....................  * Returns: 
....................  *       (none) 
....................  */ 
.................... //void *qsort(const void *base, size_t num, size_t width, 
.................... //              int (*compare)(const void *, const void *)); 
....................  
.................... //--------------------------------------------------------------------------- 
.................... // Integer arithmetic functions 
.................... //--------------------------------------------------------------------------- 
....................  
.................... #define labs abs 
....................  
.................... div_t div(signed int numer, signed int denom); 
.................... ldiv_t ldiv(signed long numer, signed long denom); 
....................  
.................... //--------------------------------------------------------------------------- 
.................... // Multibyte character functions 
.................... //--------------------------------------------------------------------------- 
....................  
.................... // Not supported 
....................  
.................... //--------------------------------------------------------------------------- 
.................... // Multibyte string functions 
.................... //--------------------------------------------------------------------------- 
....................  
.................... // Not supported 
....................  
....................  
.................... //--------------------------------------------------------------------------- 
.................... // Internal implementation 
.................... //--------------------------------------------------------------------------- 
....................  
.................... #include <stddef.h> 
.................... /////////////////////////////////////////////////////////////////////////// 
.................... ////        (C) Copyright 1996,2003 Custom Computer Services           //// 
.................... //// This source code may only be used by licensed users of the CCS C  //// 
.................... //// compiler.  This source code may only be distributed to other      //// 
.................... //// licensed users of the CCS C compiler.  No other use, reproduction //// 
.................... //// or distribution is permitted without written permission.          //// 
.................... //// Derivative programs created using this software in object code    //// 
.................... //// form are not restricted in any way.                               //// 
.................... /////////////////////////////////////////////////////////////////////////// 
....................  
.................... #ifndef _STDDEF 
....................  
.................... #define _STDDEF 
....................  
.................... #if sizeof(unsigned int8 *)==1 
.................... #define ptrdiff_t unsigned int8 
.................... #else 
.................... #define ptrdiff_t unsigned int16 
.................... #endif 
....................  
.................... #define size_t unsigned int8 
.................... #define wchar_t char 
.................... #define NULL 0 
....................  
.................... #define offsetof(s,f) (offsetofbit(s,f)/8) 
....................  
.................... #endif 
....................  
.................... #include <string.h> 
.................... //////////////////////////////////////////////////////////////////////////// 
.................... ////        (C) Copyright 1996,2008 Custom Computer Services            //// 
.................... //// This source code may only be used by licensed users of the CCS C   //// 
.................... //// compiler.  This source code may only be distributed to other       //// 
.................... //// licensed users of the CCS C compiler.  No other use, reproduction  //// 
.................... //// or distribution is permitted without written permission.           //// 
.................... //// Derivative programs created using this software in object code     //// 
.................... //// form are not restricted in any way.                                //// 
.................... //////////////////////////////////////////////////////////////////////////// 
....................  
.................... #ifndef _STRING 
.................... #define _STRING 
.................... #include <stddef.h> 
.................... #include <ctype.h> 
....................  
....................  
....................  
.................... ////////////////////////////////////////////// 
.................... //// Uncomment the following define to    //// 
.................... //// allow some functions to use a        //// 
.................... //// quicker algorithm, but use more ROM  //// 
.................... ////                                      //// 
.................... //// #define FASTER_BUT_MORE_ROM          //// 
.................... ////////////////////////////////////////////// 
....................  
....................  
....................  
.................... /*Copying functions*/ 
.................... /* standard template: 
....................    void *memmove(void *s1, void *s2, size_t n). 
....................    Copies max of n characters safely (not following ending '\0') 
....................    from s2 in s1; if s2 has less than n characters, appends 0 */ 
....................  
.................... char *memmove(void *s1,char *s2,size_t n) 
.................... { 
....................    char *sc1; 
....................    char *sc2; 
....................    sc1=s1; 
....................    sc2=s2; 
....................    if(sc2<sc1 && sc1 <sc2 +n) 
....................       for(sc1+=n,sc2+=n;0<n;--n) 
....................          *--sc1=*--sc2; 
....................    else 
....................       for(;0<n;--n) 
....................          *sc1++=*sc2++; 
....................   return s1; 
....................   } 
....................  
.................... /* Standard template: char *strcpy(char *s1, const char *s2) 
....................    copies the string s2 including the null character to s1. 
....................    This is a compiler built in to handle the different address 
....................    spaces */ 
....................  
.................... #define strcopy strcpy 
....................  
.................... /* standard template: 
....................    char *strncpy(char *s1, const char *s2, size_t n). 
....................    Copies max of n characters (not following ending '\0') 
....................    from s2 in s1; if s2 has less than n characters, appends 0 */ 
....................  
.................... char *strncpy(char *s1, char *s2, size_t n) 
.................... { 
....................   char *s; 
....................  
....................   for (s = s1; n > 0 && *s2 != '\0'; n--) 
....................      *s++ = *s2++; 
....................   for (; n > 0; n--) 
....................      *s++ = '\0'; 
....................  
....................   return(s1); 
.................... } 
.................... /***********************************************************/ 
....................  
.................... /*concatenation functions*/ 
.................... /* standard template: char *strcat(char *s1, const char *s2) 
.................... appends s2 to s1*/ 
....................  
.................... char *strcat(char *s1, char *s2) 
.................... { 
....................    char *s; 
....................  
....................    for (s = s1; *s != '\0'; ++s); 
....................    while(*s2 != '\0') 
....................    { 
....................       *s = *s2; 
....................       ++s; 
....................       ++s2; 
....................    } 
....................  
....................    *s = '\0'; 
....................    return(s1); 
.................... } 
.................... /* standard template: char *strncat(char *s1, char *s2,size_t n) 
.................... appends not more than n characters from s2 to s1*/ 
....................  
.................... char *strncat(char *s1, char *s2, size_t n) 
.................... { 
....................    char *s; 
....................  
....................    for (s = s1; *s != '\0'; ++s); 
....................    while(*s2 != '\0' && 0<n) 
....................    { 
....................       *s = *s2; 
....................       ++s; 
....................       ++s2; 
....................       --n; 
....................    } 
....................  
....................    *s = '\0'; 
....................    return(s1); 
.................... } 
....................  
.................... /***********************************************************/ 
....................  
....................  
.................... /*comparison functions*/ 
.................... /* standard template: signed int memcmp(void *s1, void *s2). 
....................    Compares s1 & s2; returns -1 if s1<s2, 0 if s1=s2, 1 if s1>s2 */ 
....................  
.................... signed int8 memcmp(void * s1,char *s2,size_t n) 
.................... { 
.................... char *su1, *su2; 
.................... for(su1=s1, su2=s2; 0<n; ++su1, ++su2, --n) 
.................... { 
....................    if(*su1!=*su2) 
....................       return ((*su1<*su2)?-1:+1); 
.................... } 
.................... return 0; 
.................... } 
....................  
.................... /* standard template: int strcmp(const char *s1, const char *s2). 
....................    Compares s1 & s2; returns -1 if s1<s2, 0 if s1=s2, 1 if s1>s2 */ 
....................  
.................... signed int8 strcmp(char *s1, char *s2) 
.................... { 
....................    for (; *s1 == *s2; s1++, s2++) 
....................       if (*s1 == '\0') 
....................          return(0); 
....................    return((*s1 < *s2) ? -1: 1); 
.................... } 
.................... /* standard template: int strcoll(const char *s1, const char *s2). 
....................    Compares s1 & s2; returns -1 if s1<s2, 0 if s1=s2, 1 if s1>s2 */ 
....................  
.................... signed int8 strcoll(char *s1, char *s2) 
.................... { 
....................    for (; *s1 == *s2; s1++, s2++) 
....................       if (*s1 == '\0') 
....................          return(0); 
....................    return((*s1 < *s2) ? -1: 1); 
.................... } 
....................  
.................... /* standard template: 
....................    int strncmp(const char *s1, const char *s2, size_t n). 
....................    Compares max of n characters (not following 0) from s1 to s2; 
....................    returns same as strcmp */ 
....................  
.................... signed int8 strncmp(char *s1, char *s2, size_t n) 
.................... { 
....................    for (; n > 0; s1++, s2++, n--) 
....................       if (*s1 != *s2) 
....................          return((*s1 <*s2) ? -1: 1); 
....................       else if (*s1 == '\0') 
....................          return(0); 
....................    return(0); 
.................... } 
.................... /* standard template: 
....................    int strxfrm(const char *s1, const char *s2, size_t n). 
....................    transforms maximum of n characters from s2 and places them into s1*/ 
.................... size_t strxfrm(char *s1, char *s2, size_t n) 
.................... { 
....................   char *s; 
....................   unsigned int8 n1; 
....................   n1=n; 
....................   for (s = s1; n > 0 && *s2 != '\0'; n--) 
....................      *s++ = *s2++; 
....................   for (; n > 0; n--) 
....................      *s++ = '\0'; 
....................  
....................   return(n1); 
.................... } 
....................  
....................  
....................  
....................  
....................  
.................... /***********************************************************/ 
.................... /*Search functions*/ 
.................... /* standard template: void *memchr(const char *s, int c). 
....................    Finds first occurrence of c in n characters of s */ 
....................  
.................... char *memchr(void *s,unsigned int8 c,size_t n) 
.................... { 
....................    char uc; 
....................    char *su; 
....................    uc=c; 
....................    for(su=s;0<n;++su,--n) 
....................       if(*su==uc) 
....................       return su; 
....................    return NULL; 
.................... } 
....................  
.................... /* standard template: char *strchr(const char *s, int c). 
....................    Finds first occurrence of c in s */ 
....................  
.................... char *strchr(char *s, unsigned int8 c) 
.................... { 
....................    for (; *s != c; s++) 
....................       if (*s == '\0') 
....................          return(0); 
....................    return(s); 
.................... } 
.................... /* standard template: 
....................    size_t strcspn(const char *s1, const char *s2). 
....................    Computes length of max initial segment of s1 that 
....................    consists entirely of characters NOT from s2*/ 
....................  
.................... unsigned int8  strcspn(char *s1, char *s2) 
.................... { 
....................    char *sc1, *sc2; 
....................  
....................    for (sc1 = s1; *sc1 != 0; sc1++) 
....................       for (sc2 = s2; *sc2 != 0; sc2++) 
....................          if (*sc1 == *sc2) 
....................             return(sc1 - s1); 
....................    return(sc1 - s1); 
.................... } 
.................... /* standard template: 
....................    char *strpbrk(const char *s1, const char *s2). 
....................    Locates first occurence of any character from s2 in s1; 
....................    returns s1 if s2 is empty string */ 
....................  
.................... char *strpbrk(char *s1, char *s2) 
.................... { 
....................    char *sc1, *sc2; 
....................  
....................    for (sc1 = s1; *sc1 != 0; sc1++) 
....................       for (sc2 = s2; *sc2 != 0; sc2++) 
....................          if (*sc1 == *sc2) 
....................             return(sc1); 
....................    return(0); 
.................... } 
....................  
....................  
.................... /* standard template: char *strrchr(const char *s, int c). 
....................    Finds last occurrence of c in s */ 
....................  
.................... char *strrchr(char *s, unsigned int8 c) 
.................... { 
....................    char *p; 
....................  
....................    for (p = 0; ; s++) 
....................    { 
....................       if (*s == c) 
....................          p = s; 
....................       if (*s == '\0') 
....................          return(p); 
....................    } 
.................... } 
.................... /* computes length of max initial segment of s1 consisting 
....................    entirely of characters from s2 */ 
....................  
.................... unsigned int8  strspn(char *s1, char *s2) 
.................... { 
....................    char *sc1, *sc2; 
....................  
....................    for (sc1 = s1; *sc1 != 0; sc1++) 
....................       for (sc2 = s2; ; sc2++) 
....................     if (*sc2 == '\0') 
....................        return(sc1 - s1); 
....................          else if (*sc1 == *sc2) 
....................             break; 
....................    return(sc1 - s1); 
.................... } 
.................... /* standard template: 
....................    char *strstr(const char *s1, const char *s2); 
....................    Locates first occurence of character sequence s2 in s1; 
....................    returns 0 if s2 is empty string 
....................  
....................    Uncomment #define FASTER_BUT_MORE_ROM at the top of the 
....................    file to use the faster algorithm */ 
.................... char *strstr(char *s1, char *s2) 
.................... { 
....................    char *s, *t; 
....................  
....................    #ifdef FASTER_BUT_MORE_ROM 
....................    if (*s2 == '\0') 
....................          return(s1); 
....................    #endif 
....................  
....................    while (*s1) 
....................    { 
....................       for(s = s1, t = s2; *t && (*s == *t); ++s, ++t); 
....................  
....................       if (*t == '\0') 
....................          return s1; 
....................       ++s1; 
....................       #ifdef FASTER_BUT_MORE_ROM 
....................          while(*s1 != '\0' && *s1 != *s2) 
....................             ++s1; 
....................       #endif 
....................    } 
....................    return 0; 
.................... } 
....................  
.................... /* standard template: char *strtok(char *s1, const char *s2). 
....................  
....................    Finds next token in s1 delimited by a character from separator 
....................    string s2 (which can be different from call to call).  First call 
....................    starts at beginning of s1 searching for first character NOT 
....................    contained in s2; returns 0 if none is found. 
....................    If one is found, it is the start of first token (return value). 
....................    Function then searches from there for a character contained in s2. 
....................    If none is found, current token extends to end of s1, and subsequent 
....................    searches for a token will return 0.  If one is found, it is 
....................    overwritten by '\0', which terminates current token.  Function saves 
....................    pointer to following character from which next search will start. 
....................    Each subsequent call, with 0 as first argument, starts searching 
....................    from saved pointer */ 
....................  
.................... char *strtok(char *s1, char *s2) 
.................... { 
....................    char *beg, *end; 
....................    static char *save; 
....................  
....................    beg = (s1)? s1: save; 
....................    beg += strspn(beg, s2); 
....................    if (*beg == '\0') 
....................    { 
....................       *save = ' '; 
....................       return(0); 
....................    } 
....................    end = strpbrk(beg, s2); 
....................    if (*end != '\0') 
....................    { 
....................       *end = '\0'; 
....................       end++; 
....................    } 
....................    save = end; 
....................    return(beg); 
.................... } 
....................  
.................... /*****************************************************************/ 
.................... /*Miscellaneous functions*/ 
.................... /* standard template 
.................... maps error number in errnum to an error message string 
.................... Returns: Pointer to string 
.................... */ 
.................... #ifdef _ERRNO 
.................... char * strerror(unsigned int8 errnum) 
.................... { 
.................... char s[15]; 
.................... switch( errnum) 
.................... { 
.................... case 0: 
....................    strcpy(s,"no errors"); 
....................    return s; 
.................... case EDOM : 
....................    strcpy(s,"domain error"); 
....................    return s; 
.................... case ERANGE: 
....................    strcpy(s,"range error"); 
....................    return s; 
.................... } 
.................... } 
.................... #ENDIF 
.................... /* standard template: size_t strlen(const char *s). 
....................    Computes length of s1 (preceding terminating 0) */ 
....................  
.................... unsigned int8 strlen(char *s) 
.................... { 
....................    char *sc; 
....................  
....................    for (sc = s; *sc != 0; sc++); 
....................    return(sc - s); 
.................... } 
....................  
.................... /* standard template: size_t stricmp(const char *s1, const char *s2). 
....................    Compares s1 to s2 ignoring case (upper vs. lower) */ 
....................  
.................... signed int8 stricmp(char *s1, char *s2) 
.................... { 
....................  for(; *s1==*s2||(isalpha(*s1)&&isalpha(*s2)&&(*s1==*s2+32||*s2==*s1+32)); 
....................     s1++, s2++) 
....................     if (*s1 == '\0') 
....................        return(0); 
....................  return((*s1 < *s2) ? -1: 1); 
.................... } 
....................  
....................  
.................... /* standard template: char *strlwr(char *s). 
....................    Replaces uppercase letters by lowercase; 
....................    returns pointer to new string s */ 
....................  
.................... char *strlwr(char *s) 
.................... { 
....................    char *p; 
....................  
....................    for (p = s; *p != '\0'; p++) 
....................       if (*p >= 'A' && *p <='Z') 
....................          *p += 'a' - 'A'; 
....................    return(s); 
.................... } 
....................  
....................  
.................... /************************************************************/ 
....................  
....................  
.................... #endif 
....................  
....................  
.................... div_t div(signed int numer, signed int denom) 
.................... { 
....................    div_t val; 
....................    val.quot = numer / denom; 
....................    val.rem = numer - (denom * val.quot); 
....................    return (val); 
.................... } 
....................  
.................... ldiv_t ldiv(signed long numer, signed long denom) 
.................... { 
....................    ldiv_t val; 
....................  
....................    val.quot = numer / denom; 
....................    val.rem = numer - (denom * val.quot); 
....................    return (val); 
.................... } 
....................  
.................... #if defined(__PCD__) 
.................... float32 atoe(char * s) 
.................... { 
....................    float32 pow10 = 1.0; 
....................    float32 result = 0.0; 
....................    unsigned int8 sign = 0; 
....................    unsigned int8 expsign = 0; 
....................    char c; 
....................    unsigned int8 ptr = 0; 
....................    unsigned int8 i; 
....................    float32 exp = 1.0; 
....................    unsigned int8 expcnt = 0; 
....................  
....................    c = s[ptr++]; 
....................  
....................    if ((c>='0' && c<='9') || c=='+' || c=='-' || c=='.' || c=='E' || c=='e') { 
....................       if(c == '-') { 
....................          sign = 1; 
....................          c = s[ptr++]; 
....................       } 
....................       if(c == '+') 
....................          c = s[ptr++]; 
....................  
....................       while((c >= '0' && c <= '9')) { 
....................          result = 10*result + c - '0'; 
....................          c = s[ptr++]; 
....................       } 
....................  
....................       if (c == '.') { 
....................          c = s[ptr++]; 
....................          while((c >= '0' && c <= '9')) { 
....................              pow10 = pow10*10; 
....................              result += (c - '0')/pow10; 
....................              c = s[ptr++]; 
....................          } 
....................       } 
....................  
....................       // Handling the exponent 
....................       if (c=='e' || c=='E') { 
....................          c = s[ptr++]; 
....................  
....................          if(c == '-') { 
....................             expsign = 1; 
....................             c = s[ptr++]; 
....................          } 
....................          if(c == '+') 
....................             c = s[ptr++]; 
....................  
....................          while((c >= '0' && c <= '9')) { 
....................             expcnt = 10*expcnt + c - '0'; 
....................             c = s[ptr++]; 
....................          } 
....................  
....................          for(i=0;i<expcnt;i++) 
....................             exp*=10; 
....................  
....................          if(expsign==1) 
....................             result/=exp; 
....................          else 
....................             result*=exp; 
....................       } 
....................    } 
....................  
....................    if (sign == 1) 
....................       result = -1*result; 
....................    return(result); 
.................... } 
.................... #endif 
....................  
.................... #if !defined(__PCD__) 
.................... float atoe(char * s) 
.................... { 
....................    float pow10 = 1.0; 
....................    float result = 0.0; 
....................    unsigned int8 sign = 0; 
....................    unsigned int8 expsign = 0; 
....................    char c; 
....................    unsigned int8 ptr = 0; 
....................    unsigned int8 i; 
....................    float exp = 1.0; 
....................    unsigned int8 expcnt = 0; 
....................  
....................    c = s[ptr++]; 
....................  
....................    if ((c>='0' && c<='9') || c=='+' || c=='-' || c=='.' || c=='E' || c=='e') { 
....................       if(c == '-') { 
....................          sign = 1; 
....................          c = s[ptr++]; 
....................       } 
....................       if(c == '+') 
....................          c = s[ptr++]; 
....................  
....................       while((c >= '0' && c <= '9')) { 
....................          result = 10*result + c - '0'; 
....................          c = s[ptr++]; 
....................       } 
....................  
....................       if (c == '.') { 
....................          c = s[ptr++]; 
....................          while((c >= '0' && c <= '9')) { 
....................              pow10 = pow10*10; 
....................              result += (c - '0')/pow10; 
....................              c = s[ptr++]; 
....................          } 
....................       } 
....................  
....................       // Handling the exponent 
....................       if (c=='e' || c=='E') { 
....................          c = s[ptr++]; 
....................  
....................          if(c == '-') { 
....................             expsign = 1; 
....................             c = s[ptr++]; 
....................          } 
....................          if(c == '+') 
....................             c = s[ptr++]; 
....................  
....................          while((c >= '0' && c <= '9')) { 
....................             expcnt = 10*expcnt + c - '0'; 
....................             c = s[ptr++]; 
....................          } 
....................  
....................          for(i=0;i<expcnt;i++) 
....................             exp*=10; 
....................  
....................          if(expsign==1) 
....................             result/=exp; 
....................          else 
....................             result*=exp; 
....................       } 
....................    } 
....................  
....................    if (sign == 1) 
....................       result = -1*result; 
....................    return(result); 
.................... } 
.................... #endif 
....................  
.................... signed int atoi(char *s) 
.................... { 
....................    signed int result; 
....................    unsigned int sign, base, index; 
....................    char c; 
....................  
....................    index = 0; 
....................    sign = 0; 
....................    base = 10; 
....................    result = 0; 
....................  
....................    if (!s) 
....................       return 0; 
....................    // Omit all preceeding alpha characters 
....................    c = s[index++]; 
....................  
....................    // increase index if either positive or negative sign is detected 
....................    if (c == '-') 
....................    { 
....................       sign = 1;         // Set the sign to negative 
....................       c = s[index++]; 
....................    } 
....................    else if (c == '+') 
....................    { 
....................       c = s[index++]; 
....................    } 
....................  
....................    if (c >= '0' && c <= '9') 
....................    { 
....................  
....................       // Check for hexa number 
....................       if (c == '0' && (s[index] == 'x' || s[index] == 'X')) 
....................       { 
....................          base = 16; 
....................          index++; 
....................          c = s[index++]; 
....................       } 
....................  
....................       // The number is a decimal number 
....................       if (base == 10) 
....................       { 
....................          while (c >= '0' && c <= '9') 
....................          { 
....................             result = 10*result + (c - '0'); 
....................             c = s[index++]; 
....................          } 
....................       } 
....................       else if (base == 16)    // The number is a hexa number 
....................       { 
....................          c = toupper(c); 
....................          while ( (c >= '0' && c <= '9') || (c >= 'A' && c<='F')) 
....................          { 
....................             if (c >= '0' && c <= '9') 
....................                result = (result << 4) + (c - '0'); 
....................             else 
....................                result = (result << 4) + (c - 'A' + 10); 
....................  
....................             c = s[index++]; 
....................             c = toupper(c); 
....................          } 
....................       } 
....................    } 
....................  
....................    if (sign == 1 && base == 10) 
....................        result = -result; 
....................  
....................    return(result); 
.................... } 
....................  
.................... signed long atol(char *s) 
.................... { 
....................    signed long result; 
....................    unsigned int sign, base, index; 
....................    char c; 
....................  
....................    index = 0; 
....................    sign = 0; 
....................    base = 10; 
....................    result = 0; 
....................  
....................    if (!s) 
....................       return 0; 
....................    c = s[index++]; 
....................  
....................    // increase index if either positive or negative sign is detected 
....................    if (c == '-') 
....................    { 
....................       sign = 1;         // Set the sign to negative 
....................       c = s[index++]; 
....................    } 
....................    else if (c == '+') 
....................    { 
....................       c = s[index++]; 
....................    } 
....................  
....................    if (c >= '0' && c <= '9') 
....................    { 
....................       if (c == '0' && (s[index] == 'x' || s[index] == 'X')) 
....................       { 
....................          base = 16; 
....................          index++; 
....................          c = s[index++]; 
....................       } 
....................  
....................       // The number is a decimal number 
....................       if (base == 10) 
....................       { 
....................          while (c >= '0' && c <= '9') 
....................          { 
....................             result = 10*result + (c - '0'); 
....................             c = s[index++]; 
....................          } 
....................       } 
....................       else if (base == 16)    // The number is a hexa number 
....................       { 
....................          c = toupper(c); 
....................          while ( (c >= '0' && c <= '9') || (c >= 'A' && c <='F')) 
....................          { 
....................             if (c >= '0' && c <= '9') 
....................                result = (result << 4) + (c - '0'); 
....................             else 
....................                result = (result << 4) + (c - 'A' + 10); 
....................  
....................             c = s[index++];c = toupper(c); 
....................          } 
....................       } 
....................    } 
....................  
....................    if (base == 10 && sign == 1) 
....................       result = -result; 
....................  
....................    return(result); 
.................... } 
....................  
.................... /* A fast routine to multiply by 10 
....................  */ 
.................... signed int32 mult_with10(int32 num) 
.................... { 
....................    return ( (num << 1) + (num << 3) ); 
.................... } 
....................  
.................... #if sizeof(long)==2 
.................... signed int32 atoi32(char *s) 
.................... { 
....................    signed int32 result; 
....................    int8 sign, base, index; 
....................    char c; 
....................  
....................    index = 0; 
....................    sign = 0; 
....................    base = 10; 
....................    result = 0; 
....................  
....................    if (!s) 
....................       return 0; 
....................    c = s[index++]; 
....................  
....................    // increase index if either positive or negative sign is detected 
....................    if (c == '-') 
....................    { 
....................       sign = 1;         // Set the sign to negative 
....................       c = s[index++]; 
....................    } 
....................    else if (c == '+') 
....................    { 
....................       c = s[index++]; 
....................    } 
....................  
....................    if (c >= '0' && c <= '9') 
....................    { 
....................       if (c == '0' && (s[index] == 'x' || s[index] == 'X')) 
....................       { 
....................          base = 16; 
....................          index++; 
....................          c = s[index++]; 
....................       } 
....................  
....................       // The number is a decimal number 
....................       if (base == 10) 
....................       { 
....................          while (c >= '0' && c <= '9') { 
....................             result = (result << 1) + (result << 3);  // result *= 10; 
....................             result += (c - '0'); 
....................             c = s[index++]; 
....................          } 
....................       } 
....................       else if (base == 16)    // The number is a hexa number 
....................       { 
....................          c = toupper(c); 
....................          while ((c >= '0' && c <= '9') || (c >= 'A' && c <='F')) 
....................          { 
....................             if (c >= '0' && c <= '9') 
....................                result = (result << 4) + (c - '0'); 
....................             else 
....................                result = (result << 4) + (c - 'A' + 10); 
....................  
....................             c = s[index++];c = toupper(c); 
....................          } 
....................       } 
....................    } 
....................  
....................    if (base == 10 && sign == 1) 
....................       result = -result; 
....................  
....................    return(result); 
.................... } 
.................... #endif 
....................  
.................... #if defined(__PCD__) 
....................  
.................... signed int48 atoi48(char *s) 
.................... { 
....................    signed int48 result; 
....................    int8 sign, base, index; 
....................    char c; 
....................  
....................    index = 0; 
....................    sign = 0; 
....................    base = 10; 
....................    result = 0; 
....................  
....................    if (!s) 
....................       return 0; 
....................    c = s[index++]; 
....................  
....................    // increase index if either positive or negative sign is detected 
....................    if (c == '-') 
....................    { 
....................       sign = 1;         // Set the sign to negative 
....................       c = s[index++]; 
....................    } 
....................    else if (c == '+') 
....................    { 
....................       c = s[index++]; 
....................    } 
....................  
....................    if (c >= '0' && c <= '9') 
....................    { 
....................       if (c == '0' && (s[index] == 'x' || s[index] == 'X')) 
....................       { 
....................          base = 16; 
....................          index++; 
....................          c = s[index++]; 
....................       } 
....................  
....................       // The number is a decimal number 
....................       if (base == 10) 
....................       { 
....................          while (c >= '0' && c <= '9') { 
....................             result = (result << 1) + (result << 3);  // result *= 10; 
....................             result += (c - '0'); 
....................             c = s[index++]; 
....................          } 
....................       } 
....................       else if (base == 16)    // The number is a hexa number 
....................       { 
....................          c = toupper(c); 
....................          while ((c >= '0' && c <= '9') || (c >= 'A' && c <='F')) 
....................          { 
....................             if (c >= '0' && c <= '9') 
....................                result = (result << 4) + (c - '0'); 
....................             else 
....................                result = (result << 4) + (c - 'A' + 10); 
....................  
....................             c = s[index++];c = toupper(c); 
....................          } 
....................       } 
....................    } 
....................  
....................    if (base == 10 && sign == 1) 
....................       result = -result; 
....................  
....................    return(result); 
.................... } 
....................  
.................... signed int64 atoi64(char *s) 
.................... { 
....................    signed int64 result; 
....................    int8 sign, base, index; 
....................    char c; 
....................  
....................    index = 0; 
....................    sign = 0; 
....................    base = 10; 
....................    result = 0; 
....................  
....................    if (!s) 
....................       return 0; 
....................    c = s[index++]; 
....................  
....................    // increase index if either positive or negative sign is detected 
....................    if (c == '-') 
....................    { 
....................       sign = 1;         // Set the sign to negative 
....................       c = s[index++]; 
....................    } 
....................    else if (c == '+') 
....................    { 
....................       c = s[index++]; 
....................    } 
....................  
....................    if (c >= '0' && c <= '9') 
....................    { 
....................       if (c == '0' && (s[index] == 'x' || s[index] == 'X')) 
....................       { 
....................          base = 16; 
....................          index++; 
....................          c = s[index++]; 
....................       } 
....................  
....................       // The number is a decimal number 
....................       if (base == 10) 
....................       { 
....................          while (c >= '0' && c <= '9') { 
....................             result = (result << 1) + (result << 3);  // result *= 10; 
....................             result += (c - '0'); 
....................             c = s[index++]; 
....................          } 
....................       } 
....................       else if (base == 16)    // The number is a hexa number 
....................       { 
....................          c = toupper(c); 
....................          while ((c >= '0' && c <= '9') || (c >= 'A' && c <='F')) 
....................          { 
....................             if (c >= '0' && c <= '9') 
....................                result = (result << 4) + (c - '0'); 
....................             else 
....................                result = (result << 4) + (c - 'A' + 10); 
....................  
....................             c = s[index++];c = toupper(c); 
....................          } 
....................       } 
....................    } 
....................  
....................    if (base == 10 && sign == 1) 
....................       result = -result; 
....................  
....................    return(result); 
.................... } 
.................... #endif 
....................  
.................... char * itoa(signed int32 num, unsigned int base, char * s) 
.................... { 
....................      unsigned int32 temp=1; 
....................      unsigned int8 i,sign=0,cnt=0; 
....................      char c; 
....................  
....................      if(num<0) { 
....................          sign=1;        // Check for negative number 
....................          num*=-1; 
....................      } 
....................  
....................      while(temp>0) { 
....................          temp=(num/base); 
....................          s[cnt]=(num%base)+'0';    // Conversion 
....................  
....................          if(s[cnt]>0x39) 
....................             s[cnt]+=0x7; 
....................  
....................          cnt++; 
....................          num=temp; 
....................      } 
....................  
....................      if(sign==1) { 
....................          s[cnt]=0x2D;      // Negative sign 
....................          cnt++; 
....................      } 
....................  
....................      for(i = 0;i<(int8)(cnt/2);i++) { 
....................  
....................          c=s[i]; 
....................          s[i]=s[cnt-i-1];        // Reverse the number 
....................          s[cnt-i-1]=c; 
....................      } 
....................      s[cnt]='\0';     // End the string 
....................      return s; 
.................... } 
....................  
.................... float strtof(char *s, char *endptr) 
.................... { 
....................    float pow10 = 1.0; 
....................    float result = 0.0; 
....................    int1 skip = 1, sign = 0, point = 0; 
....................    char c; 
....................    unsigned int8 ptr = 0; 
....................  
....................    if (!s) 
....................       return 0; 
....................  
....................    for(c=s[ptr++]; c!=0; c=s[ptr++]) 
....................    { 
....................       if (skip && !isspace(c)) 
....................       { 
....................          skip = 0; 
....................          if (c == '+') 
....................          { 
....................             sign = 0; 
....................             continue; 
....................          }             
....................          else if (c == '-') 
....................          { 
....................             sign = 1; 
....................             continue; 
....................          } 
....................       } 
....................       if (!skip && (c == '.') && !point) 
....................          point = 1; 
....................       else if (!skip && isdigit(c)) 
....................       { 
....................          c -= '0'; 
....................          if (point) 
....................          { 
....................             pow10 = pow10 * 10.0; 
....................             result += (float)c / pow10;    
....................          } 
....................          else 
....................          { 
....................             result = 10.0 * result + (float)c; 
....................          } 
....................       } 
....................       else if (!skip) 
....................          break; 
....................    } 
....................  
....................    if (sign) 
....................       result = -1*result; 
....................        
....................    if(endptr) 
....................    { 
....................       if (ptr) { 
....................          ptr--; 
....................        #IF LONG_POINTERS  
....................          *((long *)endptr)= s+ptr;  
....................        #ELSE 
....................          *((char *)endptr)=s+ptr; 
....................        #ENDIF 
....................       } 
....................       else 
....................       { 
....................       #IF LONG_POINTERS 
....................       *((long *)endptr)= s;  
....................       #ELSE 
....................       *((char *)endptr)=s; 
....................       #ENDIF 
....................       } 
....................    } 
....................  
....................    return(result); 
.................... } 
....................  
.................... #if defined(__PCD__) 
.................... float48 strtof48(char *s, char *endptr) 
.................... { 
....................    float48 pow10 = 1.0; 
....................    float48 result = 0.0; 
....................    int1 skip = 1, sign = 0, point = 0; 
....................    char c; 
....................    unsigned int8 ptr = 0; 
....................  
....................    if (!s) 
....................       return 0; 
....................  
....................    for(c=s[ptr++]; c!=0; c=s[ptr++]) 
....................    { 
....................       if (skip && !isspace(c)) 
....................       { 
....................          skip = 0; 
....................          if (c == '+') 
....................          { 
....................             sign = 0; 
....................             continue; 
....................          }             
....................          else if (c == '-') 
....................          { 
....................             sign = 1; 
....................             continue; 
....................          } 
....................       } 
....................       if (!skip && (c == '.') && !point) 
....................          point = 1; 
....................       else if (!skip && isdigit(c)) 
....................       { 
....................          c -= '0'; 
....................          if (point) 
....................          { 
....................             pow10 = pow10 * 10.0; 
....................             result += (float48)c / pow10;    
....................          } 
....................          else 
....................          { 
....................             result = 10.0 * result + (float48)c; 
....................          } 
....................       } 
....................       else if (!skip) 
....................          break; 
....................    } 
....................  
....................    if (sign) 
....................       result = -1*result; 
....................        
....................    if(endptr) 
....................    { 
....................       if (ptr) { 
....................          ptr--; 
....................        #IF LONG_POINTERS  
....................          *((long *)endptr)= s+ptr;  
....................        #ELSE 
....................          *((char *)endptr)=s+ptr; 
....................        #ENDIF 
....................       } 
....................       else 
....................       { 
....................       #IF LONG_POINTERS 
....................       *((long *)endptr)= s;  
....................       #ELSE 
....................       *((char *)endptr)=s; 
....................       #ENDIF 
....................       } 
....................    } 
....................  
....................    return(result); 
.................... } 
....................  
.................... float64 strtod(char *s, char *endptr) 
.................... { 
....................    float64 pow10 = 1.0; 
....................    float64 result = 0.0; 
....................    int1 skip = 1, sign = 0, point = 0; 
....................    char c; 
....................    unsigned int8 ptr = 0; 
....................  
....................    if (!s) 
....................       return 0; 
....................  
....................    for(c=s[ptr++]; c!=0; c=s[ptr++]) 
....................    { 
....................       if (skip && !isspace(c)) 
....................       { 
....................          skip = 0; 
....................          if (c == '+') 
....................          { 
....................             sign = 0; 
....................             continue; 
....................          }             
....................          else if (c == '-') 
....................          { 
....................             sign = 1; 
....................             continue; 
....................          } 
....................       } 
....................       if (!skip && (c == '.') && !point) 
....................          point = 1; 
....................       else if (!skip && isdigit(c)) 
....................       { 
....................          c -= '0'; 
....................          if (point) 
....................          { 
....................             pow10 = pow10 * 10.0; 
....................             result += (float64)c / pow10;    
....................          } 
....................          else 
....................          { 
....................             result = 10.0 * result + (float64)c; 
....................          } 
....................       } 
....................       else if (!skip) 
....................          break; 
....................    } 
....................  
....................    if (sign) 
....................       result = -1*result; 
....................        
....................    if(endptr) 
....................    { 
....................       if (ptr) { 
....................          ptr--; 
....................        #IF LONG_POINTERS  
....................          *((long *)endptr)= s+ptr;  
....................        #ELSE 
....................          *((char *)endptr)=s+ptr; 
....................        #ENDIF 
....................       } 
....................       else 
....................       { 
....................       #IF LONG_POINTERS 
....................       *((long *)endptr)= s;  
....................       #ELSE 
....................       *((char *)endptr)=s; 
....................       #ENDIF 
....................       } 
....................    } 
....................  
....................    return(result); 
.................... } 
.................... #endif 
....................  
.................... unsigned long strtoul(char *s, char *endptr, signed int base) 
.................... { 
....................    char *sc,*s1,*sd; 
....................    unsigned long x=0; 
....................    char sign; 
....................    char digits[]="0123456789abcdefghijklmnopqstuvwxyz"; 
....................    for(sc=s;isspace(*sc);++sc); 
....................    sign=*sc=='-'||*sc=='+'?*sc++:'+'; 
....................    if(sign=='-' || base <0 || base ==1|| base >36) // invalid base 
....................    goto StrtoulGO; 
....................  
....................    else if (base) 
....................    { 
....................       if(base==16 && *sc =='0'&&(sc[1]=='x' || sc[1]=='X')) 
....................          sc+=2; 
....................       if(base==8 && *sc =='0') 
....................          sc+=1; 
....................       if(base==2 && *sc =='0'&&sc[1]=='b') 
....................          sc+=2; 
....................  
....................    } 
....................    else if(*sc!='0') // base is 0, find base 
....................       base=10; 
....................    else if (sc[1]=='x' || sc[1]=='X') 
....................       base =16,sc+=2; 
....................    else if(sc[1]=='b') 
....................       base=2,sc+=2; 
....................    else 
....................       base=8; 
....................    for (s1=sc;*sc=='0';++sc);// skip leading zeroes 
....................    sd=memchr(digits,tolower(*sc),base); 
....................    for(; sd!=0; ) 
....................    { 
....................       x=x*base+(int16)(sd-digits); 
....................       ++sc; 
....................       sd=memchr(digits,tolower(*sc),base); 
....................    } 
....................    if(s1==sc) 
....................    { 
....................    StrtoulGO: 
....................       if (endptr) 
....................       { 
....................          #IF LONG_POINTERS 
....................          *((long *)endptr)= s;  
....................          #ELSE 
....................          *((char *)endptr)=s; 
....................          #ENDIF 
....................          } 
....................    return 0; 
....................    } 
....................    if (endptr) 
....................    { 
....................          #IF LONG_POINTERS 
....................          *((long *)endptr)= sc;  
....................          #ELSE 
....................          *((char *)endptr)=sc;  
....................          #ENDIF 
....................    } 
....................    return x; 
.................... } 
....................  
....................  
.................... signed long strtol(char *s,char *endptr, signed int base) 
.................... { 
....................    char *sc,*s1,*sd; 
....................    signed long x=0; 
....................    char sign; 
....................    char digits[]="0123456789abcdefghijklmnopqstuvwxyz"; 
....................    for(sc=s;isspace(*sc);++sc); 
....................    sign=*sc=='-'||*sc=='+'?*sc++:'+'; 
....................    if (base <0 || base ==1|| base >36) // invalid base 
....................    goto StrtolGO; 
....................    else if (base) 
....................    { 
....................       if(base==16 && *sc =='0'&&(sc[1]=='x' || sc[1]=='X')) 
....................          sc+=2; 
....................       if(base==8 && *sc =='0') 
....................          sc+=1; 
....................       if(base==2 && *sc =='0'&&sc[1]=='b') 
....................          sc+=2; 
....................  
....................    } 
....................    else if(*sc!='0') // base is 0, find base 
....................       base=10; 
....................    else if (sc[1]=='x' || sc[1]=='X') 
....................       base =16,sc+=2; 
....................    else if(sc[1]=='b') 
....................       base=2,sc+=2; 
....................    else 
....................       base=8; 
....................    for (s1=sc;*sc=='0';++sc);// skip leading zeroes 
....................  
....................    sd=memchr(digits,tolower(*sc),base); 
....................    for(;sd!=0;) 
....................    { 
....................       x=x*base+(int16)(sd-digits); 
....................       ++sc; 
....................       sd=memchr(digits,tolower(*sc),base); 
....................    } 
....................    if(s1==sc) 
....................    { 
....................    StrtolGO: 
....................       if (endptr) 
....................       { 
....................          #IF LONG_POINTERS 
....................          *((long *)endptr)= s;  
....................          #ELSE 
....................          *((char *)endptr)=s; 
....................          #ENDIF 
....................       } 
....................    return 0; 
....................    } 
....................    if(sign=='-') 
....................       x  =-x; 
....................    if (endptr) 
....................    { 
....................         #IF LONG_POINTERS 
....................          *((long *)endptr)= sc;  
....................         #ELSE 
....................         *((char *)endptr)=sc; 
....................         #ENDIF 
....................    } 
....................    return x; 
.................... } 
....................  
.................... signed int8 system(char *string) 
.................... { 
....................    return 0; 
.................... } 
....................  
.................... int8 mblen(char *s,size_t n) 
.................... { 
....................    return strlen(s); 
.................... } 
....................  
.................... int8 mbtowc(wchar_t *pwc,char *s,size_t n) 
.................... { 
....................    *pwc=*s; 
....................    return 1; 
.................... } 
....................  
.................... int8 wctomb(char *s,wchar_t wchar) 
.................... { 
....................    *s=wchar; 
....................    return 1; 
.................... } 
....................  
.................... size_t mbstowcs(wchar_t *pwcs,char *s,size_t n) 
.................... { 
....................    strncpy(pwcs,s,n); 
....................    return strlen(pwcs); 
.................... } 
....................  
.................... size_t wcstombs(char *s,wchar_t *pwcs,size_t n) 
.................... { 
....................    strncpy(s,pwcs,n); 
....................    return strlen(s); 
.................... } 
....................  
.................... //--------------------------------------------------------------------------- 
.................... // The random number implementation 
.................... //--------------------------------------------------------------------------- 
....................  
.................... unsigned int32 _Randseed; 
....................  
.................... unsigned int16 rand(void) 
.................... { 
....................    _Randseed = _Randseed * 1103515245 + 12345; 
....................    return ((unsigned int16)(_Randseed >> 16) % RAND_MAX); 
.................... } 
....................  
.................... void srand(unsigned int32 seed) 
.................... { 
....................    _Randseed = seed; 
.................... } 
....................  
.................... //--------------------------------------------------------------------------- 
.................... // Searching and sorting utilities implementation 
.................... //--------------------------------------------------------------------------- 
....................  
.................... #if !defined(__PCD__) 
.................... typedef signed int8 (*_Cmpfun)(char * p1,char * p2);  
.................... #else  
.................... typedef signed int16 (*_Cmpfun)(char * p1,char * p2);  
.................... #endif 
....................  
....................  
....................  
.................... void qsort(char * qdata, unsigned int qitems, unsigned int qsize, _Cmpfun cmp) { 
....................    unsigned int m,j,i,l; 
....................    int1 done; 
....................    unsigned int8 t[16]; 
....................  
....................    m = qitems/2; 
....................    while( m > 0 ) { 
....................      for(j=0; j<(qitems-m); ++j) { 
....................         i = j; 
....................         do 
....................         { 
....................            done=1; 
....................            l = i+m; 
....................            if( (*cmp)(qdata+i*qsize, qdata+l*qsize) > 0 ) { 
....................               memcpy(t, qdata+i*qsize, qsize); 
....................               memcpy(qdata+i*qsize, qdata+l*qsize, qsize); 
....................               memcpy(qdata+l*qsize, t, qsize); 
....................               if(m <= i) 
....................                 i -= m; 
....................                 done = 0; 
....................            } 
....................         } while(!done); 
....................      } 
....................      m = m/2; 
....................    } 
.................... } 
....................  
....................  
.................... char *bsearch(char *key, char *base, size_t num, size_t width,_Cmpfun cmp) 
.................... { 
....................    char *p, *q; 
....................    size_t n; 
....................    size_t pivot; 
....................    signed int val; 
....................  
....................    p = base; 
....................    n = num; 
....................  
....................    while (n > 0) 
....................    { 
....................       pivot = n >> 1; 
....................       q = p + width * pivot; 
....................  
....................       val = (*cmp)(key, q); 
....................  
....................       if (val < 0) 
....................          n = pivot; 
....................       else if (val == 0) 
....................          return ((char *)q); 
....................       else { 
....................          p = q + width; 
....................          n -= pivot + 1; 
....................       } 
....................    } 
....................  
....................    return NULL;      // There's no match 
.................... } 
....................  
....................  
.................... #endif 
....................  
.................... #include <DS1302.c> 
.................... ////////////////////////////////////////////////////////////////////////// 
.................... ////                               DS1302.C                           //// 
.................... ////                     Driver for Real Time Clock                   //// 
.................... ////                                                                  //// 
.................... ////  rtc_init()                                   Call after power up//// 
.................... ////                                                                  //// 
.................... ////  rtc_set_datetime(day,mth,year,dow,hour,min)  Set the date/time  //// 
.................... ////                                                                  //// 
.................... ////  rtc_get_date(day,mth,year,dow)               Get the date       //// 
.................... ////                                                                  //// 
.................... ////  rtc_get_time(hr,min,sec)                     Get the time       //// 
.................... ////                                                                  //// 
.................... ////  rtc_write_nvr(address,data)                  Write to NVR       //// 
.................... ////                                                                  //// 
.................... ////  data = rtc_read_nvr(address)                 Read from NVR      //// 
.................... ////                                                                  //// 
.................... ////  get_bcd(data)                              Convert data to BCD  //// 
.................... ////                                                                  //// 
.................... ////  rm_bcd(data)                               Convert data to int  //// 
.................... ////                                                                  //// 
.................... ////////////////////////////////////////////////////////////////////////// 
.................... ////        (C) Copyright 1996,2003 Custom Computer Services          //// 
.................... //// This source code may only be used by licensed users of the CCS C //// 
.................... //// compiler.  This source code may only be distributed to other     //// 
.................... //// licensed users of the CCS C compiler.  No other use, reproduction//// 
.................... //// or distribution is permitted without written permission.         //// 
.................... //// Derivative programs created using this software in object code   //// 
.................... //// form are not restricted in any way.                              //// 
.................... ////////////////////////////////////////////////////////////////////////// 
....................  
.................... //#ifndef RTC_SCLK 
....................  
.................... #define RTC_SCLK PIN_D1 
.................... #define RTC_IO   PIN_D2 
.................... #define RTC_RST  PIN_D3 
....................  
.................... //#endif 
....................  
.................... void write_ds1302_byte(BYTE cmd) { 
....................    BYTE i; 
....................  
....................    for(i=0;i<=7;++i) { 
*
0290E:  MOVLB  3
02910:  CLRF   xF0
02912:  MOVF   xF0,W
02914:  SUBLW  07
02916:  BNC   2932
....................       output_bit(RTC_IO, shift_right(&cmd,1,0) ); 
02918:  BCF    FD8.0
0291A:  RRCF   xEF,F
0291C:  BC    2922
0291E:  BCF    F8C.2
02920:  BRA    2924
02922:  BSF    F8C.2
02924:  BCF    F95.2
....................       output_high(RTC_SCLK); 
02926:  BCF    F95.1
02928:  BSF    F8C.1
....................       output_low(RTC_SCLK); 
0292A:  BCF    F95.1
0292C:  BCF    F8C.1
....................    } 
0292E:  INCF   xF0,F
02930:  BRA    2912
.................... } 
02932:  MOVLB  0
02934:  RETLW  00
....................  
.................... void write_ds1302(BYTE cmd, BYTE data) { 
....................  
....................    output_high(RTC_RST); 
02936:  BCF    F95.3
02938:  BSF    F8C.3
....................    write_ds1302_byte(cmd); 
0293A:  MOVFF  3ED,3EF
0293E:  RCALL  290E
....................    write_ds1302_byte(data); 
02940:  MOVFF  3EE,3EF
02944:  RCALL  290E
....................    output_low(RTC_RST); 
02946:  BCF    F95.3
02948:  BCF    F8C.3
.................... } 
0294A:  RETLW  00
....................  
.................... BYTE read_ds1302(BYTE cmd) { 
....................    BYTE i,data; 
....................  
....................    output_high(RTC_RST); 
0294C:  BCF    F95.3
0294E:  BSF    F8C.3
....................    write_ds1302_byte(cmd); 
02950:  MOVFF  3EA,3EF
02954:  RCALL  290E
....................     
....................    input(RTC_IO); 
02956:  BSF    F95.2
....................    delay_us(10); 
02958:  MOVLW  10
0295A:  MOVWF  00
0295C:  DECFSZ 00,F
0295E:  BRA    295C
02960:  NOP   
....................           
....................    for(i=0;i<=7;++i) { 
02962:  MOVLB  3
02964:  CLRF   xEB
02966:  MOVF   xEB,W
02968:  SUBLW  07
0296A:  BNC   2996
....................       shift_right(&data,1,input(RTC_IO)); 
0296C:  BSF    F95.2
0296E:  BTFSC  F83.2
02970:  BRA    2976
02972:  BCF    FD8.0
02974:  BRA    2978
02976:  BSF    FD8.0
02978:  RRCF   xEC,F
....................       output_high(RTC_SCLK); 
0297A:  BCF    F95.1
0297C:  BSF    F8C.1
....................       delay_us(20); 
0297E:  MOVLW  21
02980:  MOVWF  00
02982:  DECFSZ 00,F
02984:  BRA    2982
....................       output_low(RTC_SCLK); 
02986:  BCF    F95.1
02988:  BCF    F8C.1
....................       delay_us(20); 
0298A:  MOVLW  21
0298C:  MOVWF  00
0298E:  DECFSZ 00,F
02990:  BRA    298E
....................    } 
02992:  INCF   xEB,F
02994:  BRA    2966
....................    output_low(RTC_RST); 
02996:  BCF    F95.3
02998:  BCF    F8C.3
....................  
....................    return(data); 
0299A:  MOVFF  3EC,01
.................... } 
0299E:  MOVLB  0
029A0:  RETLW  00
....................  
.................... void rtc_init() { 
....................    BYTE x; 
....................    output_low(RTC_RST); 
029A2:  BCF    F95.3
029A4:  BCF    F8C.3
....................    delay_us(20); 
029A6:  MOVLW  21
029A8:  MOVWF  00
029AA:  DECFSZ 00,F
029AC:  BRA    29AA
....................    output_low(RTC_SCLK); 
029AE:  BCF    F95.1
029B0:  BCF    F8C.1
....................    write_ds1302(0x8e,0); 
029B2:  MOVLW  8E
029B4:  MOVLB  3
029B6:  MOVWF  xED
029B8:  CLRF   xEE
029BA:  MOVLB  0
029BC:  RCALL  2936
....................    write_ds1302(0x90,0xa4); 
029BE:  MOVLW  90
029C0:  MOVLB  3
029C2:  MOVWF  xED
029C4:  MOVLW  A4
029C6:  MOVWF  xEE
029C8:  MOVLB  0
029CA:  RCALL  2936
....................    x=read_ds1302(0x81); 
029CC:  MOVLW  81
029CE:  MOVLB  3
029D0:  MOVWF  xEA
029D2:  MOVLB  0
029D4:  RCALL  294C
029D6:  MOVFF  01,3E6
....................    if((x & 0x80)!=0) 
029DA:  MOVLB  3
029DC:  MOVF   xE6,W
029DE:  ANDLW  80
029E0:  BZ    29EE
....................      write_ds1302(0x80,0); 
029E2:  MOVLW  80
029E4:  MOVWF  xED
029E6:  CLRF   xEE
029E8:  MOVLB  0
029EA:  RCALL  2936
029EC:  MOVLB  3
.................... } 
029EE:  MOVLB  0
029F0:  GOTO   5F68 (RETURN)
....................  
.................... byte get_bcd(BYTE data) 
.................... { 
....................    byte nibh; 
....................    byte nibl; 
....................  
....................    nibh=data/10; 
*
0476C:  MOVFF  3EC,3F0
04770:  MOVLW  0A
04772:  MOVLB  3
04774:  MOVWF  xF1
04776:  MOVLB  0
04778:  RCALL  425A
0477A:  MOVFF  01,3ED
....................    nibl=data-(nibh*10); 
0477E:  MOVLB  3
04780:  MOVF   xED,W
04782:  MULLW  0A
04784:  MOVF   FF3,W
04786:  SUBWF  xEC,W
04788:  MOVWF  xEE
....................  
....................    return((nibh<<4)|nibl); 
0478A:  SWAPF  xED,W
0478C:  MOVWF  00
0478E:  MOVLW  F0
04790:  ANDWF  00,F
04792:  MOVF   00,W
04794:  IORWF  xEE,W
04796:  MOVWF  01
.................... } 
04798:  MOVLB  0
0479A:  RETLW  00
....................  
.................... byte rm_bcd(BYTE data) 
.................... { 
....................    byte i; 
....................  
....................    i=data; 
*
040FA:  MOVFF  3EB,3EC
....................    data=(i>>4)*10; 
040FE:  MOVLB  3
04100:  SWAPF  xEC,W
04102:  MOVWF  00
04104:  MOVLW  0F
04106:  ANDWF  00,F
04108:  MOVF   00,W
0410A:  MULLW  0A
0410C:  MOVFF  FF3,3EB
....................    data=data+(i<<4>>4); 
04110:  SWAPF  xEC,W
04112:  MOVWF  00
04114:  MOVLW  F0
04116:  ANDWF  00,F
04118:  MOVF   00,W
0411A:  SWAPF  00,F
0411C:  MOVLW  0F
0411E:  ANDWF  00,F
04120:  MOVF   00,W
04122:  ADDWF  xEB,F
....................  
....................    return data; 
04124:  MOVFF  3EB,01
.................... } 
04128:  MOVLB  0
0412A:  RETLW  00
....................  
.................... void rtc_set_datetime(BYTE day, BYTE mth, BYTE year, BYTE dow, BYTE hr, BYTE min) { 
....................  
....................    write_ds1302(0x86,get_bcd(day)); 
*
0479C:  MOVFF  3E6,3EC
047A0:  RCALL  476C
047A2:  MOVFF  01,3EC
047A6:  MOVLW  86
047A8:  MOVLB  3
047AA:  MOVWF  xED
047AC:  MOVFF  01,3EE
047B0:  MOVLB  0
047B2:  CALL   2936
....................    write_ds1302(0x88,get_bcd(mth)); 
047B6:  MOVFF  3E7,3EC
047BA:  RCALL  476C
047BC:  MOVFF  01,3EC
047C0:  MOVLW  88
047C2:  MOVLB  3
047C4:  MOVWF  xED
047C6:  MOVFF  01,3EE
047CA:  MOVLB  0
047CC:  CALL   2936
....................    write_ds1302(0x8c,get_bcd(year)); 
047D0:  MOVFF  3E8,3EC
047D4:  RCALL  476C
047D6:  MOVFF  01,3EC
047DA:  MOVLW  8C
047DC:  MOVLB  3
047DE:  MOVWF  xED
047E0:  MOVFF  01,3EE
047E4:  MOVLB  0
047E6:  CALL   2936
....................    write_ds1302(0x8a,get_bcd(dow)); 
047EA:  MOVFF  3E9,3EC
047EE:  RCALL  476C
047F0:  MOVFF  01,3EC
047F4:  MOVLW  8A
047F6:  MOVLB  3
047F8:  MOVWF  xED
047FA:  MOVFF  01,3EE
047FE:  MOVLB  0
04800:  CALL   2936
....................    write_ds1302(0x84,get_bcd(hr)); 
04804:  MOVFF  3EA,3EC
04808:  RCALL  476C
0480A:  MOVFF  01,3EC
0480E:  MOVLW  84
04810:  MOVLB  3
04812:  MOVWF  xED
04814:  MOVFF  01,3EE
04818:  MOVLB  0
0481A:  CALL   2936
....................    write_ds1302(0x82,get_bcd(min)); 
0481E:  MOVFF  3EB,3EC
04822:  RCALL  476C
04824:  MOVFF  01,3EC
04828:  MOVLW  82
0482A:  MOVLB  3
0482C:  MOVWF  xED
0482E:  MOVFF  01,3EE
04832:  MOVLB  0
04834:  CALL   2936
....................    write_ds1302(0x80,get_bcd(0)); 
04838:  MOVLB  3
0483A:  CLRF   xEC
0483C:  MOVLB  0
0483E:  RCALL  476C
04840:  MOVFF  01,3EC
04844:  MOVLW  80
04846:  MOVLB  3
04848:  MOVWF  xED
0484A:  MOVFF  01,3EE
0484E:  MOVLB  0
04850:  CALL   2936
.................... } 
04854:  GOTO   8F1C (RETURN)
....................  
.................... void rtc_get_date(BYTE& day, BYTE& mth, BYTE& year, BYTE& dow) { 
....................    day = rm_bcd(read_ds1302(0x87)); 
*
061B2:  MOVLW  87
061B4:  MOVWF  xEA
061B6:  MOVLB  0
061B8:  CALL   294C
061BC:  MOVFF  01,3E6
061C0:  MOVFF  01,3EB
061C4:  CALL   40FA
061C8:  MOVFF  01,38E
....................    mth = rm_bcd(read_ds1302(0x89)); 
061CC:  MOVLW  89
061CE:  MOVLB  3
061D0:  MOVWF  xEA
061D2:  MOVLB  0
061D4:  CALL   294C
061D8:  MOVFF  01,3E6
061DC:  MOVFF  01,3EB
061E0:  CALL   40FA
061E4:  MOVFF  01,38D
....................    year = rm_bcd(read_ds1302(0x8d)); 
061E8:  MOVLW  8D
061EA:  MOVLB  3
061EC:  MOVWF  xEA
061EE:  MOVLB  0
061F0:  CALL   294C
061F4:  MOVFF  01,3E6
061F8:  MOVFF  01,3EB
061FC:  CALL   40FA
06200:  MOVFF  01,38C
....................    dow = rm_bcd(read_ds1302(0x8b)); 
06204:  MOVLW  8B
06206:  MOVLB  3
06208:  MOVWF  xEA
0620A:  MOVLB  0
0620C:  CALL   294C
06210:  MOVFF  01,3E6
06214:  MOVFF  01,3EB
06218:  CALL   40FA
0621C:  MOVFF  01,392
.................... } 
....................  
.................... void rtc_get_time(BYTE& hr, BYTE& min, BYTE& sec) { 
....................    hr = rm_bcd(read_ds1302(0x85)); 
06220:  MOVLW  85
06222:  MOVLB  3
06224:  MOVWF  xEA
06226:  MOVLB  0
06228:  CALL   294C
0622C:  MOVFF  01,3E6
06230:  MOVFF  01,3EB
06234:  CALL   40FA
06238:  MOVFF  01,38F
....................    min = rm_bcd(read_ds1302(0x83)); 
0623C:  MOVLW  83
0623E:  MOVLB  3
06240:  MOVWF  xEA
06242:  MOVLB  0
06244:  CALL   294C
06248:  MOVFF  01,3E6
0624C:  MOVFF  01,3EB
06250:  CALL   40FA
06254:  MOVFF  01,390
....................    sec = rm_bcd(read_ds1302(0x81)); 
06258:  MOVLW  81
0625A:  MOVLB  3
0625C:  MOVWF  xEA
0625E:  MOVLB  0
06260:  CALL   294C
06264:  MOVFF  01,3E6
06268:  MOVFF  01,3EB
0626C:  CALL   40FA
06270:  MOVFF  01,391
.................... } 
....................  
.................... void rtc_write_nvr(BYTE address, BYTE data) { 
....................    write_ds1302(address|0xc0,data); 
.................... } 
....................  
.................... BYTE rtc_read_nvr(BYTE address) { 
....................     return(read_ds1302(address|0xc1)); 
.................... } 
....................  
....................  
.................... #define   UP            !input(PIN_B0) 
.................... #define   DOWN          !input(PIN_B1) 
.................... #define   RIGHT         !input(PIN_B2) 
.................... #define   LEFT          !input(PIN_B3) 
....................  
.................... #define   DOOR          !input(PIN_B6) 
.................... #define   STOP          !input(PIN_B7) 
.................... #define   TERM          !input(PIN_B5) 
....................  
.................... #define   LOW           input(PIN_C1) 
.................... #define   HIG           input(PIN_C0) 
....................  
.................... #define   SSR_on           output_bit(PIN_C2,0) 
.................... #define   SSR_off          output_bit(PIN_C2,1) 
....................  
.................... #define   Buzzer_on        output_bit(PIN_D0,1) 
.................... #define   Buzzer_off       output_bit(PIN_D0,0) 
....................  
.................... #define   Desfogue_on      output_bit(PIN_D4,1) 
.................... #define   Desfogue_off     output_bit(PIN_D4,0) 
....................  
.................... #define   Vent_on          output_bit(PIN_D5,1) 
.................... #define   Vent_off         output_bit(PIN_D5,0) 
....................  
.................... #define   Paso_on          output_bit(PIN_D6,1) 
.................... #define   Paso_off         output_bit(PIN_D6,0) 
....................  
.................... #define OFF 0 
.................... #define ON  1 
.................... #define RX_BUFFER_SIZE  10 
.................... char Rx_Buffer[RX_BUFFER_SIZE+1]; 
.................... char Rx_Buffer2[RX_BUFFER_SIZE+1]; 
.................... char RX_Wr_Index=0; 
.................... char RX_Rd_Index=0; 
.................... char RX_Counter=0; 
....................  
.................... #define TX_BUFFER_SIZE  24 
.................... char Tx_Buffer[TX_BUFFER_SIZE+1]; 
.................... char TX_Wr_Index=0; 
.................... char TX_Counter=0; 
.................... //int1 RX_Buffer_Overflow=0; 
....................  
.................... //Comunicacion//------------------------ 
.................... int8 SlaveA0Tx[0X20]; 
.................... int8 dato=0;            //Contendr la informacin a enviar o recibir 
.................... int8 direccion=0;       //Contendr la direccin del esclavo en el bus I2C 
.................... int8 posicion=0;        //Contendr la posicin en el buffer de memoria del esclavo donde se almacenar o de donde se recuperar el dato 
....................  
.................... /* Tabla de Modulos, Primera Fila Ao Regular y el siguiente ao Bisiesto 
.................... E   F   M   A   M   J   J   A   S   O   N   D 
.................... 0   3   3   6   1   4   6   2   5   0   3   5 
.................... 0   3   4   0   2   5   0   3   6   1   4   6 
.................... */ 
.................... int8 Regular[12]={0,3,3,6,1,4,6,2,5,0,3,5}; 
.................... int8 Bisiesto[12]={0,3,4,0,2,5,0,3,6,1,4,6}; 
....................  
.................... //Alarmas//--------------------- 
.................... short AlarmaTiempoProlongado=OFF,AlarmaSobreTemperatura=OFF,AlarmaLlenado=OFF,AlarmaTermostato=OFF,AlarmaPuerta=OFF,AlarmaEmergencia=OFF,AlarmaCiclo=OFF; 
....................  
.................... //Banderas//-------------------- 
.................... short IniciaLlenado=OFF,CalderinLleno=OFF,IniciaCiclo=OFF,Esterilizando=OFF,Secando=OFF,SensadoNivel=OFF,Desfogando=OFF,DesfogueSuave=OFF; 
.................... short EstadoDesfogue=OFF,EstadoAgua=OFF,EstadoSSR=OFF,PruebaEstados=OFF,Ciclo=OFF,flagCalentando=OFF,flagEsterilizando=OFF; 
.................... short flagDesfogando=OFF,Op=OFF,Op2=OFF,Minutos=OFF,Segundos=OFF,GuardaEEPROM=OFF,EstadoPaso=OFF,EstadoBuzzer=OFF,flagAlarma=OFF; 
.................... short flagBuzzer=OFF,flagSilencio=OFF,Finalizo=OFF,AlarmaPresion=OFF,Libre=OFF,purga=OFF,entro=OFF; 
....................  
.................... //Tiempos//--------------------- 
.................... int16 TiempoCiclo=0,TiempoLlenado=0,TiempoSensadoNivel=0,Tp=0,Tc=0; 
.................... signed int  Testerilizacion[5]={0,0,0,0,0};   // Tiempo transcurrido 
.................... signed int  Testerilizacionp[5]={0,0,0,0,0};   // Tiempo transcurrido 
.................... signed int  Tsecado[4]={0,0,0,0};   // Tiempo transcurrido 
.................... signed int  Tsecadop[4]={0,0,0,0};   // Tiempo transcurrido 
....................  
.................... //Control//------------------------ 
.................... float promedio[80]={0.0,0.0,0.0,0.0,0.0,0.0,0.0,0.0,0.0,0.0,0.0,0.0,0.0,0.0,0.0,0.0,0.0,0.0,0.0,0.0,0.0,0.0,0.0,0.0,0.0,0.0,0.0,0.0,0.0,0.0,0.0,0.0,0.0,0.0,0.0,0.0,0.0,0.0,0.0,0.0,0.0,0.0,0.0,0.0,0.0,0.0,0.0,0.0,0.0,0.0,0.0,0.0,0.0,0.0,0.0,0.0,0.0,0.0,0.0,0.0,0.0,0.0,0.0,0.0}; 
.................... float PromPresion[20]={0.0,0.0,0.0,0.0,0.0,0.0,0.0,0.0,0.0,0.0,0.0,0.0,0.0,0.0,0.0,0.0,0.0,0.0,0.0,0.0}; 
.................... float PromPresionp[20]={0.0,0.0,0.0,0.0,0.0,0.0,0.0,0.0,0.0,0.0,0.0,0.0,0.0,0.0,0.0,0.0,0.0,0.0,0.0,0.0}; 
.................... float Gain=141.6,RPT100=0.5,Temporal=0.0; 
.................... float R1=100,R10=6810; 
.................... float X[2]={0.0,0.0}; 
.................... float Xx[2]={0.0,0.0}; 
.................... float promediopresion=0.0,Aumento=0.0,Aumento2=0.0,promediopresionp=0.0; 
.................... int8 h=0,l=0,Ajuste=0,Ajusten=0,MediaMovil=20,TTrampa=0,PantallaPrincipal=0,TipoClave=0,Modulo=0,Digito=0,Atmosferica=73; 
.................... float V0=0.0,Pt,Tciclo=10.0,Tpulso=0.0,error=0.0,Prom=0.0,Temperature=0.0,tmp=0.0,Ganancia=25.0,Ganancia2=20.0,desvio=1.0,tmp2=0.0; 
.................... float V1=0.0,Presion=0.0,V2=0.0,Presionp=0.0; 
.................... float Temperatura=0.0,K=0.0012858; 
.................... float a=0.0011,b=2.3302,c=-244.0723; 
.................... int8 Integral=0,Derivativo=0,CicloLibre=0; 
.................... float p1=0.0000011617,p2=-0.0010575,p3=0.44114,p4=65.043,Tactual=0.0; 
....................  
.................... //Varios//-------------------------------- 
.................... short desfoguelento=0,Lectura=0,Grafica=0; 
.................... short disp_Stop=0,flagTC=0,flagImprime=0,flagImprimir=0; 
.................... int8 Control=0,tiemporecta=0,Controlando=0,ActivaImpresion=1,timpresion=2,CalculoImpresion=0,Inicio=1,Dato_Exitoso=0,Dato2=0,z=0; 
.................... int8 Menu=0, MenuAnt=0,MenuAntt=240,i=0,CiclosL=0,CiclosH=0,CicloSeleccionado=0; 
.................... int8 Setpoint=0,Opcion=1,Opcion2=1,tiempo_esterilizacion=0,tiempo_secado=0,tiempoImpresion=0; 
.................... int16 tiempos=0,tiempos2=0,tiempos3=0,tiempoctrl=0,Nivel=0,tinicio=0,PresionCamara=0,PresionPreCamara=0,Ciclos=0,NivelSeleccionado=0; 
.................... signed int  Contrasena[4]={0,0,0,0};      // Contrasena de 4 digitos 
.................... signed int  Password[4]={0,0,0,0};        // Contrasena Almacenada de 4 digitos 
.................... int8 r=0,t=0,r22=0,t2=0,TiempoControl=0; 
.................... int8 y=0,yy=0,ConteoBuzzer=0; 
.................... int16 t_exhaust=0,tbuzzer=0,tsilencio=0; 
.................... int8 Year=18,Mes=9,Dia=13,Hora=0,Minuto=0,Segundo=0,dow=0; 
.................... int8 YearTx=0,MesTx=0,DiaTx=0,HoraTx=0,MinutoTx=0,SegundoTx=0,dowTx=0,SetTime=0,Imprime=0; 
.................... signed int8 G1=0,G2=0,sg1=0,sg2=0; 
.................... int8 iconoGrande[15]={25,16,22,24,23,28,20,46}; 
.................... int8 iconoPeque[15]={34,36,18,33,32,38,19,17}; 
.................... char const texto[9][20]={"LIQUIDOS A","CAUCHO","INSTRUMENTAL","LIQUIDOS B","LIBRE","TEST","HORA Y FECHA","CLAVE"}; 
....................  
.................... typedef struct{ 
....................    int8 Temperatura; 
....................    int8 MinutoestH; 
....................    int8 MinutoestL; 
....................    int8 Segundoest; 
....................    int8 Minutosec; 
....................    int8 Segundosec; 
....................    int8 PulsosVacio; 
....................    int8 NivelVacio; 
....................    int8 NivelDesfogue; 
....................    int8 Minutoest; 
.................... }Personalizado; 
....................  
.................... Personalizado CiclosPersonalizados[4]; 
....................  
.................... #include "Funciones.h" 
.................... void BorraBuffer(void){ 
.................... RX_Buffer[0]=0; 
*
041FC:  CLRF   30
.................... RX_Buffer[1]=0; 
041FE:  CLRF   31
.................... RX_Buffer[2]=0; 
04200:  CLRF   32
.................... RX_Buffer[3]=0; 
04202:  CLRF   33
.................... RX_Buffer[4]=0; 
04204:  CLRF   34
.................... RX_Buffer[5]=0; 
04206:  CLRF   35
.................... RX_Buffer[6]=0; 
04208:  CLRF   36
.................... RX_Buffer[7]=0; 
0420A:  CLRF   37
.................... RX_Buffer[8]=0; 
0420C:  CLRF   38
.................... RX_Buffer[9]=0; 
0420E:  CLRF   39
....................  
.................... RX_Buffer2[0]=0; 
04210:  CLRF   3B
.................... RX_Buffer2[1]=0; 
04212:  CLRF   3C
.................... RX_Buffer2[2]=0; 
04214:  CLRF   3D
.................... RX_Buffer2[3]=0; 
04216:  CLRF   3E
.................... RX_Buffer2[4]=0; 
04218:  CLRF   3F
.................... RX_Buffer2[5]=0; 
0421A:  CLRF   40
.................... RX_Buffer2[6]=0; 
0421C:  CLRF   41
.................... RX_Buffer2[7]=0; 
0421E:  CLRF   42
.................... RX_Buffer2[8]=0; 
04220:  CLRF   43
.................... RX_Buffer2[9]=0; 
04222:  CLRF   44
....................  
.................... } 
04224:  GOTO   62D8 (RETURN)
....................  
.................... char bgetc(void){ 
....................    char c; 
....................    while(RX_Counter==0) 
....................       ; 
....................    c=Rx_Buffer2[RX_Rd_Index]; 
....................    if(++RX_Rd_Index>RX_BUFFER_SIZE) 
....................       RX_Rd_Index=0; 
....................    if(RX_Counter) 
....................       RX_Counter--; 
....................    return c; 
.................... } 
....................  
.................... void bputc(char c){ 
....................    char restart=0; 
....................    while(TX_Counter> (TX_BUFFER_SIZE-1)) 
....................       ; 
....................    if(TX_Counter==0) 
....................       restart=1; 
....................    TX_Buffer[TX_Wr_Index++]=c; 
....................    if(TX_Wr_Index>TX_BUFFER_SIZE) 
....................       TX_Wr_Index=0; 
....................     
....................    TX_Counter++; 
....................     
....................    if(restart==1) 
....................       enable_interrupts(int_tbe); 
.................... } 
....................  
.................... void SendDataDisplay(void){ 
.................... delay_us(10); 
*
0355A:  MOVLW  10
0355C:  MOVWF  00
0355E:  DECFSZ 00,F
03560:  BRA    355E
03562:  NOP   
.................... putc(0xFF); 
03564:  MOVLW  FF
03566:  RCALL  3552
.................... delay_us(10); 
03568:  MOVLW  10
0356A:  MOVWF  00
0356C:  DECFSZ 00,F
0356E:  BRA    356C
03570:  NOP   
.................... putc(0xFF); 
03572:  MOVLW  FF
03574:  RCALL  3552
.................... delay_us(10); 
03576:  MOVLW  10
03578:  MOVWF  00
0357A:  DECFSZ 00,F
0357C:  BRA    357A
0357E:  NOP   
.................... putc(0xFF); 
03580:  MOVLW  FF
03582:  RCALL  3552
.................... delay_us(10); 
03584:  MOVLW  10
03586:  MOVWF  00
03588:  DECFSZ 00,F
0358A:  BRA    3588
0358C:  NOP   
.................... } 
0358E:  RETLW  00
....................  
.................... short esBisiesto(int8 year) { 
....................      return ((year % 4 == 0 && year % 100 != 0) || year % 400 == 0); 
*
0471A:  MOVLB  3
0471C:  MOVF   xE6,W
0471E:  ANDLW  03
04720:  BNZ   4734
04722:  MOVFF  3E6,3F0
04726:  MOVLW  64
04728:  MOVWF  xF1
0472A:  MOVLB  0
0472C:  RCALL  425A
0472E:  MOVF   00,F
04730:  BNZ   4762
04732:  MOVLB  3
04734:  CLRF   xE8
04736:  MOVFF  3E6,3E7
0473A:  MOVLW  01
0473C:  MOVWF  xEA
0473E:  MOVLW  90
04740:  MOVWF  xE9
04742:  MOVLB  0
04744:  BRA    46D2
04746:  MOVFF  00,3E7
0474A:  MOVLB  3
0474C:  MOVFF  03,3E8
04750:  MOVF   xE7,F
04752:  BNZ   475E
04754:  MOVF   xE8,F
04756:  BTFSS  FD8.2
04758:  BRA    475E
0475A:  MOVLB  0
0475C:  BRA    4762
0475E:  MOVLW  00
04760:  BRA    4766
04762:  MOVLW  01
04764:  MOVLB  3
04766:  MOVWF  01
.................... } 
04768:  MOVLB  0
0476A:  RETLW  00
....................  
.................... void LimitaDia(){ 
....................    if(MesTx>12) 
*
04858:  MOVLB  3
0485A:  MOVF   x94,W
0485C:  SUBLW  0C
0485E:  BC    4864
....................       MesTx=10; 
04860:  MOVLW  0A
04862:  MOVWF  x94
....................    if(DiaTx>31) 
04864:  MOVF   x95,W
04866:  SUBLW  1F
04868:  BC    486E
....................       DiaTx=16; 
0486A:  MOVLW  10
0486C:  MOVWF  x95
....................    if(YearTx>99) 
0486E:  MOVF   x93,W
04870:  SUBLW  63
04872:  BC    4878
....................       YearTx=18;    
04874:  MOVLW  12
04876:  MOVWF  x93
....................    if(HoraTx>24) 
04878:  MOVF   x96,W
0487A:  SUBLW  18
0487C:  BC    4882
....................       HoraTx=11;       
0487E:  MOVLW  0B
04880:  MOVWF  x96
....................    if(MinutoTx>59) 
04882:  MOVF   x97,W
04884:  SUBLW  3B
04886:  BC    488C
....................       MinutoTx=30;       
04888:  MOVLW  1E
0488A:  MOVWF  x97
....................     
....................       if(MesTx==2){ 
0488C:  MOVF   x94,W
0488E:  SUBLW  02
04890:  BNZ   48BC
....................          if(esBisiesto(YearTx)){ 
04892:  MOVFF  393,3E6
04896:  MOVLB  0
04898:  RCALL  471A
0489A:  MOVF   01,F
0489C:  BZ    48AE
....................             if(DiaTx>29){ 
0489E:  MOVLB  3
048A0:  MOVF   x95,W
048A2:  SUBLW  1D
048A4:  BC    48AA
....................                DiaTx=29; 
048A6:  MOVLW  1D
048A8:  MOVWF  x95
....................                //glcd_fillScreen(OFF); 
....................             } 
....................          }else{ 
048AA:  BRA    48BA
048AC:  MOVLB  0
....................             if(DiaTx>28){ 
048AE:  MOVLB  3
048B0:  MOVF   x95,W
048B2:  SUBLW  1C
048B4:  BC    48BA
....................                DiaTx=28; 
048B6:  MOVLW  1C
048B8:  MOVWF  x95
....................                //glcd_fillScreen(OFF); 
....................             } 
....................          } 
....................       }else{ 
048BA:  BRA    48E6
....................          if(MesTx<=7){ 
048BC:  MOVF   x94,W
048BE:  SUBLW  07
048C0:  BNC   48D4
....................             if(MesTx % 2 ==0){ 
048C2:  MOVF   x94,W
048C4:  ANDLW  01
048C6:  BNZ   48D2
....................                if(DiaTx>30){ 
048C8:  MOVF   x95,W
048CA:  SUBLW  1E
048CC:  BC    48D2
....................                   DiaTx=30;  
048CE:  MOVLW  1E
048D0:  MOVWF  x95
....................                   //glcd_fillScreen(OFF); 
....................                } 
....................             } 
....................          }else{ 
048D2:  BRA    48E6
....................             if(MesTx % 2 ==1){ 
048D4:  MOVF   x94,W
048D6:  ANDLW  01
048D8:  SUBLW  01
048DA:  BNZ   48E6
....................                if(DiaTx>30){ 
048DC:  MOVF   x95,W
048DE:  SUBLW  1E
048E0:  BC    48E6
....................                   DiaTx=30;  
048E2:  MOVLW  1E
048E4:  MOVWF  x95
....................                   //glcd_fillScreen(OFF); 
....................                } 
....................             } 
....................          } 
....................       } 
.................... } 
048E6:  MOVLB  0
048E8:  GOTO   91B8 (RETURN)
....................  
.................... void ActualizaRecta(){ 
....................    X[y]=Temperature; 
*
0491A:  MOVLB  3
0491C:  MOVF   x83,W
0491E:  MULLW  04
04920:  MOVF   FF3,W
04922:  CLRF   03
04924:  ADDLW  B4
04926:  MOVWF  FE9
04928:  MOVLW  02
0492A:  ADDWFC 03,W
0492C:  MOVWF  FEA
0492E:  MOVFF  2F7,FEF
04932:  MOVFF  2F8,FEC
04936:  MOVFF  2F9,FEC
0493A:  MOVFF  2FA,FEC
....................    y++; 
0493E:  INCF   x83,F
....................    if(y>=2) 
04940:  MOVF   x83,W
04942:  SUBLW  01
04944:  BC    4982
....................    { 
....................       y=0; 
04946:  CLRF   x83
....................       Aumento=X[1]-X[0]; 
04948:  BSF    FD8.1
0494A:  MOVFF  2BB,3FE
0494E:  MOVFF  2BA,3FD
04952:  MOVFF  2B9,3FC
04956:  MOVFF  2B8,3FB
0495A:  MOVFF  2B7,402
0495E:  MOVFF  2B6,401
04962:  MOVFF  2B5,400
04966:  MOVFF  2B4,3FF
0496A:  MOVLB  0
0496C:  CALL   196A
04970:  MOVFF  03,2CB
04974:  MOVFF  02,2CA
04978:  MOVFF  01,2C9
0497C:  MOVFF  00,2C8
04980:  MOVLB  3
....................    } 
.................... } 
04982:  MOVLB  0
04984:  GOTO   4A00 (RETURN)
....................  
.................... // Funcion para conversor analogo-digital 
.................... float sensores(int x){ 
.................... float y;set_adc_channel(x);delay_ms(1);y=read_adc();return (y); 
*
035A8:  MOVLB  3
035AA:  RLCF   xE7,W
035AC:  MOVWF  00
035AE:  RLCF   00,F
035B0:  MOVLW  FC
035B2:  ANDWF  00,F
035B4:  MOVFF  00,01
035B8:  MOVF   FC2,W
035BA:  ANDLW  C3
035BC:  IORWF  00,W
035BE:  MOVWF  FC2
035C0:  MOVLW  01
035C2:  MOVWF  xFB
035C4:  MOVLB  0
035C6:  CALL   17AE
035CA:  BSF    FC2.1
035CC:  BTFSC  FC2.1
035CE:  BRA    35CC
035D0:  MOVFF  FC4,3FC
035D4:  MOVFF  FC3,3FB
035D8:  MOVLB  0
035DA:  CALL   17D6
035DE:  MOVFF  03,3EB
035E2:  MOVFF  02,3EA
035E6:  MOVFF  01,3E9
035EA:  MOVFF  00,3E8
035EE:  MOVFF  3E8,00
035F2:  MOVFF  3E9,01
035F6:  MOVFF  3EA,02
035FA:  MOVFF  3EB,03
.................... } 
035FE:  RETLW  00
.................... float LeerPT100(int media) 
.................... { 
....................    Prom=0.0; 
*
03734:  MOVLB  2
03736:  CLRF   xF6
03738:  CLRF   xF5
0373A:  CLRF   xF4
0373C:  CLRF   xF3
....................    V0 = sensores(0);   //Lectura de Divisor de Voltaje de PT100 con resistencia de 6.18k (+-2%) 
0373E:  MOVLB  3
03740:  CLRF   xE7
03742:  MOVLB  0
03744:  RCALL  35A8
03746:  MOVFF  03,2E2
0374A:  MOVFF  02,2E1
0374E:  MOVFF  01,2E0
03752:  MOVFF  00,2DF
....................    V0 = V0/107.3; // Se elimina la ganancia 
03756:  MOVFF  2E2,3EE
0375A:  MOVFF  2E1,3ED
0375E:  MOVFF  2E0,3EC
03762:  MOVFF  2DF,3EB
03766:  MOVLW  9A
03768:  MOVLB  3
0376A:  MOVWF  xF2
0376C:  MOVLW  99
0376E:  MOVWF  xF1
03770:  MOVLW  56
03772:  MOVWF  xF0
03774:  MOVLW  85
03776:  MOVWF  xEF
03778:  MOVLB  0
0377A:  CALL   180C
0377E:  MOVFF  03,2E2
03782:  MOVFF  02,2E1
03786:  MOVFF  01,2E0
0378A:  MOVFF  00,2DF
....................    //V0 += 14.82; 
....................    V0 += 14.93; 
0378E:  BCF    FD8.1
03790:  MOVFF  2E2,3FE
03794:  MOVFF  2E1,3FD
03798:  MOVFF  2E0,3FC
0379C:  MOVFF  2DF,3FB
037A0:  MOVLW  48
037A2:  MOVLB  4
037A4:  MOVWF  x02
037A6:  MOVLW  E1
037A8:  MOVWF  x01
037AA:  MOVLW  6E
037AC:  MOVWF  x00
037AE:  MOVLW  82
037B0:  MOVLB  3
037B2:  MOVWF  xFF
037B4:  MOVLB  0
037B6:  CALL   196A
037BA:  MOVFF  03,2E2
037BE:  MOVFF  02,2E1
037C2:  MOVFF  01,2E0
037C6:  MOVFF  00,2DF
....................    Pt=R10/((1023/V0)-1); 
037CA:  MOVLB  3
037CC:  CLRF   xEE
037CE:  MOVLW  C0
037D0:  MOVWF  xED
037D2:  MOVLW  7F
037D4:  MOVWF  xEC
037D6:  MOVLW  88
037D8:  MOVWF  xEB
037DA:  MOVFF  2E2,3F2
037DE:  MOVFF  2E1,3F1
037E2:  MOVFF  2E0,3F0
037E6:  MOVFF  2DF,3EF
037EA:  MOVLB  0
037EC:  CALL   180C
037F0:  MOVFF  00,3E7
037F4:  MOVFF  01,3E8
037F8:  MOVFF  02,3E9
037FC:  MOVFF  03,3EA
03800:  BSF    FD8.1
03802:  MOVFF  03,3FE
03806:  MOVFF  02,3FD
0380A:  MOVFF  01,3FC
0380E:  MOVFF  00,3FB
03812:  MOVLB  4
03814:  CLRF   x02
03816:  CLRF   x01
03818:  CLRF   x00
0381A:  MOVLW  7F
0381C:  MOVLB  3
0381E:  MOVWF  xFF
03820:  MOVLB  0
03822:  CALL   196A
03826:  MOVFF  2B3,3EE
0382A:  MOVFF  2B2,3ED
0382E:  MOVFF  2B1,3EC
03832:  MOVFF  2B0,3EB
03836:  MOVFF  03,3F2
0383A:  MOVFF  02,3F1
0383E:  MOVFF  01,3F0
03842:  MOVFF  00,3EF
03846:  CALL   180C
0384A:  MOVFF  03,2E6
0384E:  MOVFF  02,2E5
03852:  MOVFF  01,2E4
03856:  MOVFF  00,2E3
....................              
....................    if(l>(media-1)) 
0385A:  MOVLW  01
0385C:  MOVLB  3
0385E:  SUBWF  xE6,W
03860:  MOVLB  2
03862:  SUBWF  xD5,W
03864:  BZ    386A
03866:  BNC   386A
....................    {l=0;} 
03868:  CLRF   xD5
....................    //promedio[l]=Temperature;l++; 
....................    promedio[l]=Pt;l++; 
0386A:  MOVLB  3
0386C:  CLRF   xE8
0386E:  MOVFF  2D5,3E7
03872:  CLRF   xEA
03874:  MOVLW  04
03876:  MOVWF  xE9
03878:  MOVLB  0
0387A:  RCALL  3600
0387C:  MOVF   01,W
0387E:  ADDLW  C0
03880:  MOVWF  FE9
03882:  MOVLW  00
03884:  ADDWFC 02,W
03886:  MOVWF  FEA
03888:  MOVFF  2E3,FEF
0388C:  MOVFF  2E4,FEC
03890:  MOVFF  2E5,FEC
03894:  MOVFF  2E6,FEC
03898:  MOVLB  2
0389A:  INCF   xD5,F
....................           
....................    for(h=0;h<media;h++) 
0389C:  CLRF   xD4
0389E:  MOVLB  3
038A0:  MOVF   xE6,W
038A2:  MOVLB  2
038A4:  SUBWF  xD4,W
038A6:  BC    3926
....................    { 
....................       Prom+=promedio[h]; 
038A8:  MOVLB  3
038AA:  CLRF   xE8
038AC:  MOVFF  2D4,3E7
038B0:  CLRF   xEA
038B2:  MOVLW  04
038B4:  MOVWF  xE9
038B6:  MOVLB  0
038B8:  RCALL  3600
038BA:  MOVFF  02,03
038BE:  MOVF   01,W
038C0:  ADDLW  C0
038C2:  MOVWF  FE9
038C4:  MOVLW  00
038C6:  ADDWFC 02,W
038C8:  MOVWF  FEA
038CA:  MOVFF  FEF,00
038CE:  MOVFF  FEC,01
038D2:  MOVFF  FEC,02
038D6:  MOVFF  FEC,03
038DA:  MOVFF  FEA,3E8
038DE:  MOVFF  FE9,3E7
038E2:  BCF    FD8.1
038E4:  MOVFF  2F6,3FE
038E8:  MOVFF  2F5,3FD
038EC:  MOVFF  2F4,3FC
038F0:  MOVFF  2F3,3FB
038F4:  MOVFF  03,402
038F8:  MOVFF  02,401
038FC:  MOVFF  01,400
03900:  MOVFF  00,3FF
03904:  CALL   196A
03908:  MOVFF  3E8,FEA
0390C:  MOVFF  3E7,FE9
03910:  MOVFF  03,2F6
03914:  MOVFF  02,2F5
03918:  MOVFF  01,2F4
0391C:  MOVFF  00,2F3
....................    }  
03920:  MOVLB  2
03922:  INCF   xD4,F
03924:  BRA    389E
....................    Prom=Prom/media;    
03926:  MOVLB  3
03928:  CLRF   xFC
0392A:  MOVFF  3E6,3FB
0392E:  MOVLB  0
03930:  CALL   17D6
03934:  MOVFF  2F6,3EE
03938:  MOVFF  2F5,3ED
0393C:  MOVFF  2F4,3EC
03940:  MOVFF  2F3,3EB
03944:  MOVFF  03,3F2
03948:  MOVFF  02,3F1
0394C:  MOVFF  01,3F0
03950:  MOVFF  00,3EF
03954:  CALL   180C
03958:  MOVFF  03,2F6
0395C:  MOVFF  02,2F5
03960:  MOVFF  01,2F4
03964:  MOVFF  00,2F3
....................    //Temperature=(Prom-100.0)/(0.385);  // Ecuacin determinada por linealizacin en Matlab. Revisar este polinomio.   
....................    Temperature=((Prom*Prom)*a)+(Prom*b)+c;  // Ecuacin determinada por linealizacin en Matlab. Revisar este polinomio. 
03968:  MOVFF  2F6,402
0396C:  MOVFF  2F5,401
03970:  MOVFF  2F4,400
03974:  MOVFF  2F3,3FF
03978:  MOVFF  2F6,406
0397C:  MOVFF  2F5,405
03980:  MOVFF  2F4,404
03984:  MOVFF  2F3,403
03988:  RCALL  3622
0398A:  MOVFF  00,3E7
0398E:  MOVFF  01,3E8
03992:  MOVFF  02,3E9
03996:  MOVFF  03,3EA
0399A:  MOVFF  03,402
0399E:  MOVFF  02,401
039A2:  MOVFF  01,400
039A6:  MOVFF  00,3FF
039AA:  MOVFF  32A,406
039AE:  MOVFF  329,405
039B2:  MOVFF  328,404
039B6:  MOVFF  327,403
039BA:  RCALL  3622
039BC:  MOVFF  00,3E7
039C0:  MOVFF  01,3E8
039C4:  MOVFF  02,3E9
039C8:  MOVFF  03,3EA
039CC:  MOVFF  2F6,402
039D0:  MOVFF  2F5,401
039D4:  MOVFF  2F4,400
039D8:  MOVFF  2F3,3FF
039DC:  MOVFF  32E,406
039E0:  MOVFF  32D,405
039E4:  MOVFF  32C,404
039E8:  MOVFF  32B,403
039EC:  RCALL  3622
039EE:  BCF    FD8.1
039F0:  MOVFF  3EA,3FE
039F4:  MOVFF  3E9,3FD
039F8:  MOVFF  3E8,3FC
039FC:  MOVFF  3E7,3FB
03A00:  MOVFF  03,402
03A04:  MOVFF  02,401
03A08:  MOVFF  01,400
03A0C:  MOVFF  00,3FF
03A10:  CALL   196A
03A14:  MOVFF  00,3E7
03A18:  MOVFF  01,3E8
03A1C:  MOVFF  02,3E9
03A20:  MOVFF  03,3EA
03A24:  BCF    FD8.1
03A26:  MOVFF  03,3FE
03A2A:  MOVFF  02,3FD
03A2E:  MOVFF  01,3FC
03A32:  MOVFF  00,3FB
03A36:  MOVFF  332,402
03A3A:  MOVFF  331,401
03A3E:  MOVFF  330,400
03A42:  MOVFF  32F,3FF
03A46:  CALL   196A
03A4A:  MOVFF  03,2FA
03A4E:  MOVFF  02,2F9
03A52:  MOVFF  01,2F8
03A56:  MOVFF  00,2F7
....................    Temperature+=((float)Ajuste-(float)Ajusten); 
03A5A:  MOVLB  3
03A5C:  CLRF   xFC
03A5E:  MOVFF  2D6,3FB
03A62:  MOVLB  0
03A64:  CALL   17D6
03A68:  MOVFF  00,3E7
03A6C:  MOVFF  01,3E8
03A70:  MOVFF  02,3E9
03A74:  MOVFF  03,3EA
03A78:  MOVLB  3
03A7A:  CLRF   xFC
03A7C:  MOVFF  2D7,3FB
03A80:  MOVLB  0
03A82:  CALL   17D6
03A86:  BSF    FD8.1
03A88:  MOVFF  3EA,3FE
03A8C:  MOVFF  3E9,3FD
03A90:  MOVFF  3E8,3FC
03A94:  MOVFF  3E7,3FB
03A98:  MOVFF  03,402
03A9C:  MOVFF  02,401
03AA0:  MOVFF  01,400
03AA4:  MOVFF  00,3FF
03AA8:  CALL   196A
03AAC:  BCF    FD8.1
03AAE:  MOVFF  2FA,3FE
03AB2:  MOVFF  2F9,3FD
03AB6:  MOVFF  2F8,3FC
03ABA:  MOVFF  2F7,3FB
03ABE:  MOVFF  03,402
03AC2:  MOVFF  02,401
03AC6:  MOVFF  01,400
03ACA:  MOVFF  00,3FF
03ACE:  CALL   196A
03AD2:  MOVFF  03,2FA
03AD6:  MOVFF  02,2F9
03ADA:  MOVFF  01,2F8
03ADE:  MOVFF  00,2F7
....................    //Temperature-=39.0; 
....................     
....................    //return Prom; 
....................    return Temperature; 
03AE2:  MOVFF  2F7,00
03AE6:  MOVFF  2F8,01
03AEA:  MOVFF  2F9,02
03AEE:  MOVFF  2FA,03
.................... } 
03AF2:  RETLW  00
....................  
.................... float Leer_Sensor_Presion_Camara(int media){ 
....................    promediopresion=0.0; 
*
03F04:  MOVLB  2
03F06:  CLRF   xC7
03F08:  CLRF   xC6
03F0A:  CLRF   xC5
03F0C:  CLRF   xC4
....................    V1 = sensores(2);   //Lectura de Divisor de Voltaje de PT100 con resistencia de 1k (+-10%) 
03F0E:  MOVLW  02
03F10:  MOVLB  3
03F12:  MOVWF  xE7
03F14:  MOVLB  0
03F16:  CALL   35A8
03F1A:  MOVFF  03,312
03F1E:  MOVFF  02,311
03F22:  MOVFF  01,310
03F26:  MOVFF  00,30F
....................    //V1 = V1*(5.0/1024.0); 
....................    //Presion=(V1-0.2)/(K); 
....................    Presion=(((V1)/1023)-0.04)/K; 
03F2A:  MOVFF  312,3EE
03F2E:  MOVFF  311,3ED
03F32:  MOVFF  310,3EC
03F36:  MOVFF  30F,3EB
03F3A:  MOVLB  3
03F3C:  CLRF   xF2
03F3E:  MOVLW  C0
03F40:  MOVWF  xF1
03F42:  MOVLW  7F
03F44:  MOVWF  xF0
03F46:  MOVLW  88
03F48:  MOVWF  xEF
03F4A:  MOVLB  0
03F4C:  CALL   180C
03F50:  MOVFF  00,3E7
03F54:  MOVFF  01,3E8
03F58:  MOVFF  02,3E9
03F5C:  MOVFF  03,3EA
03F60:  BSF    FD8.1
03F62:  MOVFF  03,3FE
03F66:  MOVFF  02,3FD
03F6A:  MOVFF  01,3FC
03F6E:  MOVFF  00,3FB
03F72:  MOVLW  0A
03F74:  MOVLB  4
03F76:  MOVWF  x02
03F78:  MOVLW  D7
03F7A:  MOVWF  x01
03F7C:  MOVLW  23
03F7E:  MOVWF  x00
03F80:  MOVLW  7A
03F82:  MOVLB  3
03F84:  MOVWF  xFF
03F86:  MOVLB  0
03F88:  CALL   196A
03F8C:  MOVFF  00,3E7
03F90:  MOVFF  01,3E8
03F94:  MOVFF  02,3E9
03F98:  MOVFF  03,3EA
03F9C:  MOVFF  03,3EE
03FA0:  MOVFF  02,3ED
03FA4:  MOVFF  01,3EC
03FA8:  MOVFF  00,3EB
03FAC:  MOVFF  326,3F2
03FB0:  MOVFF  325,3F1
03FB4:  MOVFF  324,3F0
03FB8:  MOVFF  323,3EF
03FBC:  CALL   180C
03FC0:  MOVFF  03,316
03FC4:  MOVFF  02,315
03FC8:  MOVFF  01,314
03FCC:  MOVFF  00,313
....................     
....................    if(Presion<0.0) 
03FD0:  MOVFF  316,3F1
03FD4:  MOVFF  315,3F0
03FD8:  MOVFF  314,3EF
03FDC:  MOVFF  313,3EE
03FE0:  MOVLB  3
03FE2:  CLRF   xF5
03FE4:  CLRF   xF4
03FE6:  CLRF   xF3
03FE8:  CLRF   xF2
03FEA:  MOVLB  0
03FEC:  CALL   29F4
03FF0:  BNC   3FFC
....................    { 
....................       Presion=0.0; 
03FF2:  MOVLB  3
03FF4:  CLRF   x16
03FF6:  CLRF   x15
03FF8:  CLRF   x14
03FFA:  CLRF   x13
....................    } 
....................     
....................    if(r>media-1) 
03FFC:  MOVLW  01
03FFE:  MOVLB  3
04000:  SUBWF  xE6,W
04002:  SUBWF  x7E,W
04004:  BZ    400A
04006:  BNC   400A
....................    {r=0;} 
04008:  CLRF   x7E
....................    PromPresion[r]=Presion;r++; 
0400A:  MOVF   x7E,W
0400C:  MULLW  04
0400E:  MOVF   FF3,W
04010:  CLRF   03
04012:  MOVWF  FE9
04014:  MOVLW  02
04016:  ADDWF  03,W
04018:  MOVWF  FEA
0401A:  MOVFF  313,FEF
0401E:  MOVFF  314,FEC
04022:  MOVFF  315,FEC
04026:  MOVFF  316,FEC
0402A:  INCF   x7E,F
....................           
....................    for(t=0;t<=(media-1);t++) 
0402C:  CLRF   x7F
0402E:  MOVLW  01
04030:  SUBWF  xE6,W
04032:  SUBWF  x7F,W
04034:  BZ    4038
04036:  BC    40A6
....................    { 
....................       promediopresion+=PromPresion[t]; 
04038:  MOVF   x7F,W
0403A:  MULLW  04
0403C:  MOVF   FF3,W
0403E:  CLRF   03
04040:  MOVWF  FE9
04042:  MOVLW  02
04044:  ADDWF  03,W
04046:  MOVWF  FEA
04048:  MOVFF  FEF,00
0404C:  MOVFF  FEC,01
04050:  MOVFF  FEC,02
04054:  MOVFF  FEC,03
04058:  MOVFF  FEA,3E8
0405C:  MOVFF  FE9,3E7
04060:  BCF    FD8.1
04062:  MOVFF  2C7,3FE
04066:  MOVFF  2C6,3FD
0406A:  MOVFF  2C5,3FC
0406E:  MOVFF  2C4,3FB
04072:  MOVFF  03,402
04076:  MOVFF  02,401
0407A:  MOVFF  01,400
0407E:  MOVFF  00,3FF
04082:  MOVLB  0
04084:  CALL   196A
04088:  MOVFF  3E8,FEA
0408C:  MOVFF  3E7,FE9
04090:  MOVFF  03,2C7
04094:  MOVFF  02,2C6
04098:  MOVFF  01,2C5
0409C:  MOVFF  00,2C4
....................    }  
040A0:  MOVLB  3
040A2:  INCF   x7F,F
040A4:  BRA    402E
....................    promediopresion=promediopresion/media;    
040A6:  CLRF   xFC
040A8:  MOVFF  3E6,3FB
040AC:  MOVLB  0
040AE:  CALL   17D6
040B2:  MOVFF  2C7,3EE
040B6:  MOVFF  2C6,3ED
040BA:  MOVFF  2C5,3EC
040BE:  MOVFF  2C4,3EB
040C2:  MOVFF  03,3F2
040C6:  MOVFF  02,3F1
040CA:  MOVFF  01,3F0
040CE:  MOVFF  00,3EF
040D2:  CALL   180C
040D6:  MOVFF  03,2C7
040DA:  MOVFF  02,2C6
040DE:  MOVFF  01,2C5
040E2:  MOVFF  00,2C4
....................     
....................    return promediopresion; 
040E6:  MOVFF  2C4,00
040EA:  MOVFF  2C5,01
040EE:  MOVFF  2C6,02
040F2:  MOVFF  2C7,03
.................... } 
040F6:  GOTO   6190 (RETURN)
....................  
.................... float Leer_Sensor_Presion_PreCamara(int media){ 
....................    promediopresionp=0.0; 
....................    V2 = sensores(3);   //Lectura de Divisor de Voltaje de PT100 con resistencia de 1k (+-10%) 
....................    //V2 = V2*(5.0/1024.0); 
....................    //Presionp=(V2-0.2)/(K); 
....................    Presionp=(((V2)/1023)-0.04)/K; 
....................     
....................    if(Presionp<0.0) 
....................    { 
....................       Presionp=0.0; 
....................    } 
....................     
....................    if(r22>media-1) 
....................    {r22=0;} 
....................    PromPresionp[r22]=Presionp;r22++; 
....................           
....................    for(t2=0;t2<=(media-1);t2++) 
....................    { 
....................       promediopresionp+=PromPresionp[t2]; 
....................    }  
....................    promediopresionp=promediopresionp/media;    
....................     
....................    return promediopresionp; 
.................... } 
....................  
.................... void Controla(){ 
....................    if(tiemporecta>=Derivativo/2.0) 
*
04988:  MOVLB  3
0498A:  CLRF   xFC
0498C:  MOVFF  334,3FB
04990:  MOVLB  0
04992:  CALL   17D6
04996:  MOVFF  03,3EE
0499A:  MOVFF  02,3ED
0499E:  MOVFF  01,3EC
049A2:  MOVFF  00,3EB
049A6:  MOVLB  3
049A8:  CLRF   xF2
049AA:  CLRF   xF1
049AC:  CLRF   xF0
049AE:  MOVLW  80
049B0:  MOVWF  xEF
049B2:  MOVLB  0
049B4:  CALL   180C
049B8:  MOVFF  00,3E6
049BC:  MOVFF  01,3E7
049C0:  MOVFF  02,3E8
049C4:  MOVFF  03,3E9
049C8:  MOVLB  3
049CA:  CLRF   xFC
049CC:  MOVFF  34C,3FB
049D0:  MOVLB  0
049D2:  CALL   17D6
049D6:  MOVFF  3E9,3F1
049DA:  MOVFF  3E8,3F0
049DE:  MOVFF  3E7,3EF
049E2:  MOVFF  3E6,3EE
049E6:  MOVFF  03,3F5
049EA:  MOVFF  02,3F4
049EE:  MOVFF  01,3F3
049F2:  MOVFF  00,3F2
049F6:  CALL   29F4
049FA:  BC    49FE
049FC:  BNZ   4A04
....................    { 
....................       ActualizaRecta(); 
049FE:  BRA    491A
....................       tiemporecta=0; 
04A00:  MOVLB  3
04A02:  CLRF   x4C
....................    }  
.................... //-------------------------------Control de Calentamiento------------------------------------------------------------//          
....................    error=desvio+Setpoint-Temperatura;      // Clculo del error ****** 
04A04:  MOVLB  3
04A06:  CLRF   xFC
04A08:  MOVFF  35C,3FB
04A0C:  MOVLB  0
04A0E:  CALL   17D6
04A12:  BCF    FD8.1
04A14:  MOVFF  30A,3FE
04A18:  MOVFF  309,3FD
04A1C:  MOVFF  308,3FC
04A20:  MOVFF  307,3FB
04A24:  MOVFF  03,402
04A28:  MOVFF  02,401
04A2C:  MOVFF  01,400
04A30:  MOVFF  00,3FF
04A34:  CALL   196A
04A38:  MOVFF  00,3E6
04A3C:  MOVFF  01,3E7
04A40:  MOVFF  02,3E8
04A44:  MOVFF  03,3E9
04A48:  BSF    FD8.1
04A4A:  MOVFF  03,3FE
04A4E:  MOVFF  02,3FD
04A52:  MOVFF  01,3FC
04A56:  MOVFF  00,3FB
04A5A:  MOVFF  322,402
04A5E:  MOVFF  321,401
04A62:  MOVFF  320,400
04A66:  MOVFF  31F,3FF
04A6A:  CALL   196A
04A6E:  MOVFF  03,2F2
04A72:  MOVFF  02,2F1
04A76:  MOVFF  01,2F0
04A7A:  MOVFF  00,2EF
....................     
....................    if(error>1.0 && error<15 && Aumento<0.3) 
04A7E:  MOVLB  3
04A80:  CLRF   xF1
04A82:  CLRF   xF0
04A84:  CLRF   xEF
04A86:  MOVLW  7F
04A88:  MOVWF  xEE
04A8A:  MOVFF  2F2,3F5
04A8E:  MOVFF  2F1,3F4
04A92:  MOVFF  2F0,3F3
04A96:  MOVFF  2EF,3F2
04A9A:  MOVLB  0
04A9C:  CALL   29F4
04AA0:  BTFSS  FD8.0
04AA2:  BRA    4CD0
04AA4:  MOVFF  2F2,3F1
04AA8:  MOVFF  2F1,3F0
04AAC:  MOVFF  2F0,3EF
04AB0:  MOVFF  2EF,3EE
04AB4:  MOVLB  3
04AB6:  CLRF   xF5
04AB8:  CLRF   xF4
04ABA:  MOVLW  70
04ABC:  MOVWF  xF3
04ABE:  MOVLW  82
04AC0:  MOVWF  xF2
04AC2:  MOVLB  0
04AC4:  CALL   29F4
04AC8:  BTFSS  FD8.0
04ACA:  BRA    4CD0
04ACC:  MOVFF  2CB,3F1
04AD0:  MOVFF  2CA,3F0
04AD4:  MOVFF  2C9,3EF
04AD8:  MOVFF  2C8,3EE
04ADC:  MOVLW  9A
04ADE:  MOVLB  3
04AE0:  MOVWF  xF5
04AE2:  MOVLW  99
04AE4:  MOVWF  xF4
04AE6:  MOVLW  19
04AE8:  MOVWF  xF3
04AEA:  MOVLW  7D
04AEC:  MOVWF  xF2
04AEE:  MOVLB  0
04AF0:  CALL   29F4
04AF4:  BTFSS  FD8.0
04AF6:  BRA    4CD0
....................    { 
....................       if(Tpulso<4.0) 
04AF8:  MOVFF  2EE,3F1
04AFC:  MOVFF  2ED,3F0
04B00:  MOVFF  2EC,3EF
04B04:  MOVFF  2EB,3EE
04B08:  MOVLB  3
04B0A:  CLRF   xF5
04B0C:  CLRF   xF4
04B0E:  CLRF   xF3
04B10:  MOVLW  81
04B12:  MOVWF  xF2
04B14:  MOVLB  0
04B16:  CALL   29F4
04B1A:  BTFSS  FD8.0
04B1C:  BRA    4CCC
....................       { 
....................          flagTC=1; 
04B1E:  MOVLB  3
04B20:  BSF    x4A.2
....................          if(TiempoControl>=Derivativo) 
04B22:  MOVF   x34,W
04B24:  SUBWF  x82,W
04B26:  BTFSS  FD8.0
04B28:  BRA    4CC8
....................          { 
....................             TiempoControl=0; 
04B2A:  CLRF   x82
....................             if(Aumento<-0.5){ 
04B2C:  MOVFF  2CB,3F1
04B30:  MOVFF  2CA,3F0
04B34:  MOVFF  2C9,3EF
04B38:  MOVFF  2C8,3EE
04B3C:  CLRF   xF5
04B3E:  CLRF   xF4
04B40:  MOVLW  80
04B42:  MOVWF  xF3
04B44:  MOVLW  7E
04B46:  MOVWF  xF2
04B48:  MOVLB  0
04B4A:  CALL   29F4
04B4E:  BNC   4BC2
....................                Ganancia+=Integral+0.2; 
04B50:  MOVLB  3
04B52:  CLRF   xFC
04B54:  MOVFF  333,3FB
04B58:  MOVLB  0
04B5A:  CALL   17D6
04B5E:  BCF    FD8.1
04B60:  MOVFF  03,3FE
04B64:  MOVFF  02,3FD
04B68:  MOVFF  01,3FC
04B6C:  MOVFF  00,3FB
04B70:  MOVLW  CD
04B72:  MOVLB  4
04B74:  MOVWF  x02
04B76:  MOVLW  CC
04B78:  MOVWF  x01
04B7A:  MOVLW  4C
04B7C:  MOVWF  x00
04B7E:  MOVLW  7C
04B80:  MOVLB  3
04B82:  MOVWF  xFF
04B84:  MOVLB  0
04B86:  CALL   196A
04B8A:  BCF    FD8.1
04B8C:  MOVFF  302,3FE
04B90:  MOVFF  301,3FD
04B94:  MOVFF  300,3FC
04B98:  MOVFF  2FF,3FB
04B9C:  MOVFF  03,402
04BA0:  MOVFF  02,401
04BA4:  MOVFF  01,400
04BA8:  MOVFF  00,3FF
04BAC:  CALL   196A
04BB0:  MOVFF  03,302
04BB4:  MOVFF  02,301
04BB8:  MOVFF  01,300
04BBC:  MOVFF  00,2FF
....................             }else{ 
04BC0:  BRA    4CC6
....................                if(Aumento<-0.1){ 
04BC2:  MOVFF  2CB,3F1
04BC6:  MOVFF  2CA,3F0
04BCA:  MOVFF  2C9,3EF
04BCE:  MOVFF  2C8,3EE
04BD2:  MOVLW  CD
04BD4:  MOVLB  3
04BD6:  MOVWF  xF5
04BD8:  MOVLW  CC
04BDA:  MOVWF  xF4
04BDC:  MOVWF  xF3
04BDE:  MOVLW  7B
04BE0:  MOVWF  xF2
04BE2:  MOVLB  0
04BE4:  CALL   29F4
04BE8:  BNC   4C5C
....................                   Ganancia+=Integral-0.2; 
04BEA:  MOVLB  3
04BEC:  CLRF   xFC
04BEE:  MOVFF  333,3FB
04BF2:  MOVLB  0
04BF4:  CALL   17D6
04BF8:  BSF    FD8.1
04BFA:  MOVFF  03,3FE
04BFE:  MOVFF  02,3FD
04C02:  MOVFF  01,3FC
04C06:  MOVFF  00,3FB
04C0A:  MOVLW  CD
04C0C:  MOVLB  4
04C0E:  MOVWF  x02
04C10:  MOVLW  CC
04C12:  MOVWF  x01
04C14:  MOVLW  4C
04C16:  MOVWF  x00
04C18:  MOVLW  7C
04C1A:  MOVLB  3
04C1C:  MOVWF  xFF
04C1E:  MOVLB  0
04C20:  CALL   196A
04C24:  BCF    FD8.1
04C26:  MOVFF  302,3FE
04C2A:  MOVFF  301,3FD
04C2E:  MOVFF  300,3FC
04C32:  MOVFF  2FF,3FB
04C36:  MOVFF  03,402
04C3A:  MOVFF  02,401
04C3E:  MOVFF  01,400
04C42:  MOVFF  00,3FF
04C46:  CALL   196A
04C4A:  MOVFF  03,302
04C4E:  MOVFF  02,301
04C52:  MOVFF  01,300
04C56:  MOVFF  00,2FF
....................                }else{ 
04C5A:  BRA    4CC6
....................                   Ganancia+=Integral-0.5; 
04C5C:  MOVLB  3
04C5E:  CLRF   xFC
04C60:  MOVFF  333,3FB
04C64:  MOVLB  0
04C66:  CALL   17D6
04C6A:  BSF    FD8.1
04C6C:  MOVFF  03,3FE
04C70:  MOVFF  02,3FD
04C74:  MOVFF  01,3FC
04C78:  MOVFF  00,3FB
04C7C:  MOVLB  4
04C7E:  CLRF   x02
04C80:  CLRF   x01
04C82:  CLRF   x00
04C84:  MOVLW  7E
04C86:  MOVLB  3
04C88:  MOVWF  xFF
04C8A:  MOVLB  0
04C8C:  CALL   196A
04C90:  BCF    FD8.1
04C92:  MOVFF  302,3FE
04C96:  MOVFF  301,3FD
04C9A:  MOVFF  300,3FC
04C9E:  MOVFF  2FF,3FB
04CA2:  MOVFF  03,402
04CA6:  MOVFF  02,401
04CAA:  MOVFF  01,400
04CAE:  MOVFF  00,3FF
04CB2:  CALL   196A
04CB6:  MOVFF  03,302
04CBA:  MOVFF  02,301
04CBE:  MOVFF  01,300
04CC2:  MOVFF  00,2FF
04CC6:  MOVLB  3
....................                } 
....................             } 
....................          } 
....................       }else{ 
04CC8:  BRA    4CD0
04CCA:  MOVLB  0
....................          flagTC=0; 
04CCC:  MOVLB  3
04CCE:  BCF    x4A.2
....................       } 
....................    } 
....................     
....................    if(error<-0.3) 
04CD0:  MOVFF  2F2,3F1
04CD4:  MOVFF  2F1,3F0
04CD8:  MOVFF  2F0,3EF
04CDC:  MOVFF  2EF,3EE
04CE0:  MOVLW  9A
04CE2:  MOVLB  3
04CE4:  MOVWF  xF5
04CE6:  MOVLW  99
04CE8:  MOVWF  xF4
04CEA:  MOVWF  xF3
04CEC:  MOVLW  7D
04CEE:  MOVWF  xF2
04CF0:  MOVLB  0
04CF2:  CALL   29F4
04CF6:  BNC   4D08
....................    { 
....................       Ganancia=Ganancia2; 
04CF8:  MOVFF  306,302
04CFC:  MOVFF  305,301
04D00:  MOVFF  304,300
04D04:  MOVFF  303,2FF
....................    } 
....................     
....................    if(Ganancia<1) 
04D08:  MOVFF  302,3F1
04D0C:  MOVFF  301,3F0
04D10:  MOVFF  300,3EF
04D14:  MOVFF  2FF,3EE
04D18:  MOVLB  3
04D1A:  CLRF   xF5
04D1C:  CLRF   xF4
04D1E:  CLRF   xF3
04D20:  MOVLW  7F
04D22:  MOVWF  xF2
04D24:  MOVLB  0
04D26:  CALL   29F4
04D2A:  BNC   4D3A
....................    { 
....................       Ganancia=1; 
04D2C:  MOVLB  3
04D2E:  CLRF   x02
04D30:  CLRF   x01
04D32:  CLRF   x00
04D34:  MOVLW  7F
04D36:  MOVLB  2
04D38:  MOVWF  xFF
....................    } 
....................     
....................    if(error<0.0)     // Anti Wind_DOWN     
04D3A:  MOVFF  2F2,3F1
04D3E:  MOVFF  2F1,3F0
04D42:  MOVFF  2F0,3EF
04D46:  MOVFF  2EF,3EE
04D4A:  MOVLB  3
04D4C:  CLRF   xF5
04D4E:  CLRF   xF4
04D50:  CLRF   xF3
04D52:  CLRF   xF2
04D54:  MOVLB  0
04D56:  CALL   29F4
04D5A:  BNC   4D68
....................    { 
....................       error=0.0; 
04D5C:  MOVLB  2
04D5E:  CLRF   xF2
04D60:  CLRF   xF1
04D62:  CLRF   xF0
04D64:  CLRF   xEF
04D66:  MOVLB  0
....................    } 
....................    //tmp=(Setpoint-Prom)*Ganancia;  // Control Proporcional. 
....................    tmp=error*Ganancia;  // Control Proporcional. 
04D68:  MOVFF  2F2,402
04D6C:  MOVFF  2F1,401
04D70:  MOVFF  2F0,400
04D74:  MOVFF  2EF,3FF
04D78:  MOVFF  302,406
04D7C:  MOVFF  301,405
04D80:  MOVFF  300,404
04D84:  MOVFF  2FF,403
04D88:  CALL   3622
04D8C:  MOVFF  03,2FE
04D90:  MOVFF  02,2FD
04D94:  MOVFF  01,2FC
04D98:  MOVFF  00,2FB
....................           
....................    if(tmp>Setpoint)   // Anti Wind-UP       
04D9C:  MOVLB  3
04D9E:  CLRF   xFC
04DA0:  MOVFF  35C,3FB
04DA4:  MOVLB  0
04DA6:  CALL   17D6
04DAA:  MOVFF  03,3F1
04DAE:  MOVFF  02,3F0
04DB2:  MOVFF  01,3EF
04DB6:  MOVFF  00,3EE
04DBA:  MOVFF  2FE,3F5
04DBE:  MOVFF  2FD,3F4
04DC2:  MOVFF  2FC,3F3
04DC6:  MOVFF  2FB,3F2
04DCA:  CALL   29F4
04DCE:  BNC   4DEE
....................    { 
....................       tmp=Setpoint; 
04DD0:  MOVLB  3
04DD2:  CLRF   xFC
04DD4:  MOVFF  35C,3FB
04DD8:  MOVLB  0
04DDA:  CALL   17D6
04DDE:  MOVFF  03,2FE
04DE2:  MOVFF  02,2FD
04DE6:  MOVFF  01,2FC
04DEA:  MOVFF  00,2FB
....................    } 
....................                 
....................    if(tmp<0.0)     // Anti Wind_DOWN     
04DEE:  MOVFF  2FE,3F1
04DF2:  MOVFF  2FD,3F0
04DF6:  MOVFF  2FC,3EF
04DFA:  MOVFF  2FB,3EE
04DFE:  MOVLB  3
04E00:  CLRF   xF5
04E02:  CLRF   xF4
04E04:  CLRF   xF3
04E06:  CLRF   xF2
04E08:  MOVLB  0
04E0A:  CALL   29F4
04E0E:  BNC   4E1A
....................    { 
....................       tmp=0.0; 
04E10:  MOVLB  2
04E12:  CLRF   xFE
04E14:  CLRF   xFD
04E16:  CLRF   xFC
04E18:  CLRF   xFB
....................    } 
....................     
....................    // Tpulso(t)= Tciclo*(y(t)-ymin)/(ymax - ymin); calculo de ciclo util para control de resistencia.ymax=140.ymin=0; 
....................    // Tpulso es float, hay que pasar ese ciclo a una salida de un puerto usando el TMR1. 
....................    tmp2=(tmp/Setpoint); 
04E1A:  MOVLB  3
04E1C:  CLRF   xFC
04E1E:  MOVFF  35C,3FB
04E22:  MOVLB  0
04E24:  CALL   17D6
04E28:  MOVFF  2FE,3EE
04E2C:  MOVFF  2FD,3ED
04E30:  MOVFF  2FC,3EC
04E34:  MOVFF  2FB,3EB
04E38:  MOVFF  03,3F2
04E3C:  MOVFF  02,3F1
04E40:  MOVFF  01,3F0
04E44:  MOVFF  00,3EF
04E48:  CALL   180C
04E4C:  MOVFF  03,30E
04E50:  MOVFF  02,30D
04E54:  MOVFF  01,30C
04E58:  MOVFF  00,30B
....................    //if(tmp2>0.8) 
....................    //tmp2=0.8; 
....................    Tpulso=tmp2*Tciclo;   
04E5C:  MOVFF  30E,402
04E60:  MOVFF  30D,401
04E64:  MOVFF  30C,400
04E68:  MOVFF  30B,3FF
04E6C:  MOVFF  2EA,406
04E70:  MOVFF  2E9,405
04E74:  MOVFF  2E8,404
04E78:  MOVFF  2E7,403
04E7C:  CALL   3622
04E80:  MOVFF  03,2EE
04E84:  MOVFF  02,2ED
04E88:  MOVFF  01,2EC
04E8C:  MOVFF  00,2EB
....................                                        
....................    Tp=(Tpulso/0.005); 
04E90:  MOVFF  2EE,3EE
04E94:  MOVFF  2ED,3ED
04E98:  MOVFF  2EC,3EC
04E9C:  MOVFF  2EB,3EB
04EA0:  MOVLW  0A
04EA2:  MOVLB  3
04EA4:  MOVWF  xF2
04EA6:  MOVLW  D7
04EA8:  MOVWF  xF1
04EAA:  MOVLW  23
04EAC:  MOVWF  xF0
04EAE:  MOVLW  77
04EB0:  MOVWF  xEF
04EB2:  MOVLB  0
04EB4:  CALL   180C
04EB8:  MOVFF  03,3FE
04EBC:  MOVFF  02,3FD
04EC0:  MOVFF  01,3FC
04EC4:  MOVFF  00,3FB
04EC8:  CALL   3C6E
04ECC:  MOVFF  02,AB
04ED0:  MOVFF  01,AA
....................    Tc=(Tciclo/0.005); 
04ED4:  MOVFF  2EA,3EE
04ED8:  MOVFF  2E9,3ED
04EDC:  MOVFF  2E8,3EC
04EE0:  MOVFF  2E7,3EB
04EE4:  MOVLW  0A
04EE6:  MOVLB  3
04EE8:  MOVWF  xF2
04EEA:  MOVLW  D7
04EEC:  MOVWF  xF1
04EEE:  MOVLW  23
04EF0:  MOVWF  xF0
04EF2:  MOVLW  77
04EF4:  MOVWF  xEF
04EF6:  MOVLB  0
04EF8:  CALL   180C
04EFC:  MOVFF  03,3FE
04F00:  MOVFF  02,3FD
04F04:  MOVFF  01,3FC
04F08:  MOVFF  00,3FB
04F0C:  CALL   3C6E
04F10:  MOVFF  02,AD
04F14:  MOVFF  01,AC
....................    Controlando=1;    
04F18:  MOVLW  01
04F1A:  MOVLB  3
04F1C:  MOVWF  x4D
.................... //--------------------------------------------------------------------------------------------------------------------//    
.................... } 
04F1E:  MOVLB  0
04F20:  GOTO   A838 (RETURN)
....................  
.................... void Envio_I2C(direccion, posicion, dato){ 
....................  
....................    i2c_start();            // Comienzo comunicacin 
*
03E6A:  BSF    F94.4
03E6C:  MOVLW  05
03E6E:  MOVWF  00
03E70:  DECFSZ 00,F
03E72:  BRA    3E70
03E74:  BSF    F94.3
03E76:  MOVLW  06
03E78:  MOVWF  00
03E7A:  DECFSZ 00,F
03E7C:  BRA    3E7A
03E7E:  BCF    F8B.4
03E80:  BCF    F94.4
03E82:  MOVLW  05
03E84:  MOVWF  00
03E86:  DECFSZ 00,F
03E88:  BRA    3E86
03E8A:  BCF    F8B.3
03E8C:  BCF    F94.3
....................    i2c_write(direccion);   // Direccin del esclavo en el bus I2C 
03E8E:  MOVFF  3FC,3FF
03E92:  RCALL  3DF4
....................    i2c_write(posicion);    // Posicin donde se guardara el dato transmitido 
03E94:  MOVFF  3FD,3FF
03E98:  RCALL  3DF4
....................    i2c_write(dato);        // Dato a transmitir 
03E9A:  MOVFF  3FE,3FF
03E9E:  RCALL  3DF4
....................    i2c_stop();             // Fin comunicacin 
03EA0:  BCF    F94.4
03EA2:  NOP   
03EA4:  BSF    F94.3
03EA6:  BTFSS  F82.3
03EA8:  BRA    3EA6
03EAA:  MOVLW  05
03EAC:  MOVWF  00
03EAE:  DECFSZ 00,F
03EB0:  BRA    3EAE
03EB2:  BRA    3EB4
03EB4:  NOP   
03EB6:  BSF    F94.4
03EB8:  MOVLW  05
03EBA:  MOVWF  00
03EBC:  DECFSZ 00,F
03EBE:  BRA    3EBC
....................  } 
03EC0:  GOTO   3EFA (RETURN)
....................  
.................... void Lectura_I2C (byte direccion, byte posicion, byte &dato) { 
....................  
....................    i2c_start();            // Comienzo de la comunicacin 
....................    i2c_write(direccion);   // Direccin del esclavo en el bus I2C 
....................    i2c_write(posicion);    // Posicin de donde se leer el dato en el esclavo 
....................    i2c_start();            // Reinicio 
....................    i2c_write(direccion+1); // Direccin del esclavo en modo lectura 
....................    dato=i2c_read(0);       // Lectura del dato 
....................    i2c_stop();             // Fin comunicacin 
.................... } 
....................  
.................... void Carga_Vector(void){ 
....................    SlaveA0Tx[0]=(int8)Temperatura; 
*
03CAA:  MOVFF  322,3FE
03CAE:  MOVFF  321,3FD
03CB2:  MOVFF  320,3FC
03CB6:  MOVFF  31F,3FB
03CBA:  RCALL  3C6E
03CBC:  MOVFF  01,64
....................    SlaveA0Tx[1]=(Temperatura-((int8)Temperatura))*10; 
03CC0:  MOVFF  322,3FE
03CC4:  MOVFF  321,3FD
03CC8:  MOVFF  320,3FC
03CCC:  MOVFF  31F,3FB
03CD0:  RCALL  3C6E
03CD2:  MOVLB  3
03CD4:  CLRF   xFC
03CD6:  MOVFF  01,3FB
03CDA:  MOVLB  0
03CDC:  CALL   17D6
03CE0:  BSF    FD8.1
03CE2:  MOVFF  322,3FE
03CE6:  MOVFF  321,3FD
03CEA:  MOVFF  320,3FC
03CEE:  MOVFF  31F,3FB
03CF2:  MOVFF  03,402
03CF6:  MOVFF  02,401
03CFA:  MOVFF  01,400
03CFE:  MOVFF  00,3FF
03D02:  CALL   196A
03D06:  MOVFF  00,3FB
03D0A:  MOVFF  01,3FC
03D0E:  MOVFF  02,3FD
03D12:  MOVFF  03,3FE
03D16:  MOVFF  03,402
03D1A:  MOVFF  02,401
03D1E:  MOVFF  01,400
03D22:  MOVFF  00,3FF
03D26:  MOVLB  4
03D28:  CLRF   x06
03D2A:  CLRF   x05
03D2C:  MOVLW  20
03D2E:  MOVWF  x04
03D30:  MOVLW  82
03D32:  MOVWF  x03
03D34:  MOVLB  0
03D36:  RCALL  3622
03D38:  MOVFF  03,3FE
03D3C:  MOVFF  02,3FD
03D40:  MOVFF  01,3FC
03D44:  MOVFF  00,3FB
03D48:  RCALL  3C6E
03D4A:  MOVFF  01,65
....................    SlaveA0Tx[2]=make8(PresionCamara,0); 
03D4E:  MOVFF  36E,66
03D52:  MOVLB  0
....................    SlaveA0Tx[3]=make8(PresionCamara,1); 
03D54:  MOVFF  36F,67
03D58:  MOVLB  0
....................    SlaveA0Tx[4]=make8(PresionPreCamara,0); 
03D5A:  MOVFF  370,68
03D5E:  MOVLB  0
....................    SlaveA0Tx[5]=make8(PresionPreCamara,1); 
03D60:  MOVFF  371,69
03D64:  MOVLB  0
....................    SlaveA0Tx[6]=(int8)Tpulso*10; 
03D66:  MOVFF  2EE,3FE
03D6A:  MOVFF  2ED,3FD
03D6E:  MOVFF  2EC,3FC
03D72:  MOVFF  2EB,3FB
03D76:  RCALL  3C6E
03D78:  MOVF   01,W
03D7A:  MULLW  0A
03D7C:  MOVFF  FF3,6A
....................    SlaveA0Tx[7]=HIG; 
03D80:  BSF    F94.0
03D82:  CLRF   x6B
03D84:  BTFSC  F82.0
03D86:  INCF   x6B,F
....................    SlaveA0Tx[8]=LOW; 
03D88:  BSF    F94.1
03D8A:  CLRF   x6C
03D8C:  BTFSC  F82.1
03D8E:  INCF   x6C,F
....................    SlaveA0Tx[9]=TERM; 
03D90:  BSF    F93.5
03D92:  CLRF   x6D
03D94:  BTFSS  F81.5
03D96:  INCF   x6D,F
....................    SlaveA0Tx[10]=DOOR; 
03D98:  BSF    F93.6
03D9A:  CLRF   x6E
03D9C:  BTFSS  F81.6
03D9E:  INCF   x6E,F
....................    SlaveA0Tx[11]=STOP; 
03DA0:  BSF    F93.7
03DA2:  CLRF   x6F
03DA4:  BTFSS  F81.7
03DA6:  INCF   x6F,F
....................    SlaveA0Tx[12]=(int8)error; 
03DA8:  MOVFF  2F2,3FE
03DAC:  MOVFF  2F1,3FD
03DB0:  MOVFF  2F0,3FC
03DB4:  MOVFF  2EF,3FB
03DB8:  RCALL  3C6E
03DBA:  MOVFF  01,70
....................    SlaveA0Tx[13]=CicloSeleccionado; 
03DBE:  MOVFF  35B,71
....................    SlaveA0Tx[14]=SetTime; 
03DC2:  MOVFF  39A,72
....................    SlaveA0Tx[15]=Dia; 
03DC6:  MOVFF  38E,73
....................    SlaveA0Tx[16]=Mes; 
03DCA:  MOVFF  38D,74
....................    SlaveA0Tx[17]=Year; 
03DCE:  MOVFF  38C,75
....................    SlaveA0Tx[18]=Hora; 
03DD2:  MOVFF  38F,76
....................    SlaveA0Tx[19]=Minuto; 
03DD6:  MOVFF  390,77
....................    SlaveA0Tx[20]=Segundo; 
03DDA:  MOVFF  391,78
....................    SlaveA0Tx[21]=Imprime; 
03DDE:  MOVFF  39B,79
....................    SlaveA0Tx[22]=0; 
03DE2:  CLRF   x7A
....................    SlaveA0Tx[23]=make8(Ciclos,0); 
03DE4:  MOVFF  372,7B
03DE8:  MOVLB  0
....................    SlaveA0Tx[24]=make8(Ciclos,1); 
03DEA:  MOVFF  373,7C
03DEE:  MOVLB  0
.................... } 
03DF0:  GOTO   3EC6 (RETURN)
....................  
.................... void Lee_Vector(void){ 
....................    /*Dia=txbuf[0]; 
....................    Mess=txbuf[1]; 
....................    Year=txbuf[2]; 
....................    Hora=txbuf[3]; 
....................    Minuto=txbuf[4]; 
....................    Segundo=txbuf[5]; 
....................    dow=txbuf[6];*/ 
.................... } 
....................  
.................... void Envio_Esclavos(void){ 
....................    Carga_Vector(); 
*
03EC4:  BRA    3CAA
....................    for(i=0;i<25;i++) 
03EC6:  MOVLB  3
03EC8:  CLRF   x58
03ECA:  MOVF   x58,W
03ECC:  SUBLW  18
03ECE:  BNC   3F00
....................    { 
....................       direccion=0xB0; 
03ED0:  MOVLW  B0
03ED2:  MOVLB  0
03ED4:  MOVWF  x85
....................       Envio_I2C(direccion,i,SlaveA0Tx[i]); 
03ED6:  CLRF   03
03ED8:  MOVLB  3
03EDA:  MOVF   x58,W
03EDC:  ADDLW  64
03EDE:  MOVWF  FE9
03EE0:  MOVLW  00
03EE2:  ADDWFC 03,W
03EE4:  MOVWF  FEA
03EE6:  MOVFF  FEF,3FB
03EEA:  MOVFF  85,3FC
03EEE:  MOVFF  358,3FD
03EF2:  MOVFF  3FB,3FE
03EF6:  MOVLB  0
03EF8:  BRA    3E6A
....................    }  
03EFA:  MOVLB  3
03EFC:  INCF   x58,F
03EFE:  BRA    3ECA
.................... } 
03F00:  MOVLB  0
03F02:  RETLW  00
.................... void Lectura_Esclavos(void){ 
....................    //for(i=0;i<7;i++) 
....................    //{ 
....................    //   direccion=0xA0;                        //Direccin en el bus I2c 
....................    //   posicion=i;                         //Posicin de memoria a leer 
....................    //   Lectura_I2C(direccion, posicion, dato);    //Lectura por I2C 
....................    //   txbuf[i]=(int8)dato; 
....................    //} 
....................    //Lee_Vector(); 
.................... } 
....................  
.................... void LeeEEPROM(){ 
.................... //Lectura EEPROM//-------------------------- 
....................    Testerilizacionp[0]=read_eeprom(0); 
*
01BF2:  MOVFF  FF2,3E6
01BF6:  BCF    FF2.6
01BF8:  BCF    FF2.7
01BFA:  CLRF   FAA
01BFC:  CLRF   FA9
01BFE:  BCF    FA6.6
01C00:  BCF    FA6.7
01C02:  BSF    FA6.0
01C04:  MOVF   FA8,W
01C06:  MOVLB  3
01C08:  BTFSC  xE6.6
01C0A:  BSF    FF2.6
01C0C:  BTFSC  xE6.7
01C0E:  BSF    FF2.7
01C10:  MOVLB  0
01C12:  MOVWF  xB3
....................    delay_ms(10); 
01C14:  MOVLW  0A
01C16:  MOVLB  3
01C18:  MOVWF  xFB
01C1A:  MOVLB  0
01C1C:  RCALL  17AE
....................    Testerilizacionp[1]=read_eeprom(1); 
01C1E:  MOVFF  FF2,3E6
01C22:  BCF    FF2.6
01C24:  BCF    FF2.7
01C26:  CLRF   FAA
01C28:  MOVLW  01
01C2A:  MOVWF  FA9
01C2C:  BCF    FA6.6
01C2E:  BCF    FA6.7
01C30:  BSF    FA6.0
01C32:  MOVF   FA8,W
01C34:  MOVLB  3
01C36:  BTFSC  xE6.6
01C38:  BSF    FF2.6
01C3A:  BTFSC  xE6.7
01C3C:  BSF    FF2.7
01C3E:  MOVLB  0
01C40:  MOVWF  xB4
....................    delay_ms(10); 
01C42:  MOVLW  0A
01C44:  MOVLB  3
01C46:  MOVWF  xFB
01C48:  MOVLB  0
01C4A:  RCALL  17AE
....................    Testerilizacionp[2]=read_eeprom(2); 
01C4C:  MOVFF  FF2,3E6
01C50:  BCF    FF2.6
01C52:  BCF    FF2.7
01C54:  CLRF   FAA
01C56:  MOVLW  02
01C58:  MOVWF  FA9
01C5A:  BCF    FA6.6
01C5C:  BCF    FA6.7
01C5E:  BSF    FA6.0
01C60:  MOVF   FA8,W
01C62:  MOVLB  3
01C64:  BTFSC  xE6.6
01C66:  BSF    FF2.6
01C68:  BTFSC  xE6.7
01C6A:  BSF    FF2.7
01C6C:  MOVLB  0
01C6E:  MOVWF  xB5
....................    delay_ms(10); 
01C70:  MOVLW  0A
01C72:  MOVLB  3
01C74:  MOVWF  xFB
01C76:  MOVLB  0
01C78:  RCALL  17AE
....................    Testerilizacionp[3]=read_eeprom(3); 
01C7A:  MOVFF  FF2,3E6
01C7E:  BCF    FF2.6
01C80:  BCF    FF2.7
01C82:  CLRF   FAA
01C84:  MOVLW  03
01C86:  MOVWF  FA9
01C88:  BCF    FA6.6
01C8A:  BCF    FA6.7
01C8C:  BSF    FA6.0
01C8E:  MOVF   FA8,W
01C90:  MOVLB  3
01C92:  BTFSC  xE6.6
01C94:  BSF    FF2.6
01C96:  BTFSC  xE6.7
01C98:  BSF    FF2.7
01C9A:  MOVLB  0
01C9C:  MOVWF  xB6
....................    delay_ms(10); 
01C9E:  MOVLW  0A
01CA0:  MOVLB  3
01CA2:  MOVWF  xFB
01CA4:  MOVLB  0
01CA6:  RCALL  17AE
....................    Tsecadop[0]=read_eeprom(4); 
01CA8:  MOVFF  FF2,3E6
01CAC:  BCF    FF2.6
01CAE:  BCF    FF2.7
01CB0:  CLRF   FAA
01CB2:  MOVLW  04
01CB4:  MOVWF  FA9
01CB6:  BCF    FA6.6
01CB8:  BCF    FA6.7
01CBA:  BSF    FA6.0
01CBC:  MOVF   FA8,W
01CBE:  MOVLB  3
01CC0:  BTFSC  xE6.6
01CC2:  BSF    FF2.6
01CC4:  BTFSC  xE6.7
01CC6:  BSF    FF2.7
01CC8:  MOVLB  0
01CCA:  MOVWF  xBC
....................    delay_ms(10); 
01CCC:  MOVLW  0A
01CCE:  MOVLB  3
01CD0:  MOVWF  xFB
01CD2:  MOVLB  0
01CD4:  RCALL  17AE
....................    Tsecadop[1]=read_eeprom(5); 
01CD6:  MOVFF  FF2,3E6
01CDA:  BCF    FF2.6
01CDC:  BCF    FF2.7
01CDE:  CLRF   FAA
01CE0:  MOVLW  05
01CE2:  MOVWF  FA9
01CE4:  BCF    FA6.6
01CE6:  BCF    FA6.7
01CE8:  BSF    FA6.0
01CEA:  MOVF   FA8,W
01CEC:  MOVLB  3
01CEE:  BTFSC  xE6.6
01CF0:  BSF    FF2.6
01CF2:  BTFSC  xE6.7
01CF4:  BSF    FF2.7
01CF6:  MOVLB  0
01CF8:  MOVWF  xBD
....................    delay_ms(10); 
01CFA:  MOVLW  0A
01CFC:  MOVLB  3
01CFE:  MOVWF  xFB
01D00:  MOVLB  0
01D02:  RCALL  17AE
....................    Tsecadop[2]=read_eeprom(6); 
01D04:  MOVFF  FF2,3E6
01D08:  BCF    FF2.6
01D0A:  BCF    FF2.7
01D0C:  CLRF   FAA
01D0E:  MOVLW  06
01D10:  MOVWF  FA9
01D12:  BCF    FA6.6
01D14:  BCF    FA6.7
01D16:  BSF    FA6.0
01D18:  MOVF   FA8,W
01D1A:  MOVLB  3
01D1C:  BTFSC  xE6.6
01D1E:  BSF    FF2.6
01D20:  BTFSC  xE6.7
01D22:  BSF    FF2.7
01D24:  MOVLB  0
01D26:  MOVWF  xBE
....................    delay_ms(10); 
01D28:  MOVLW  0A
01D2A:  MOVLB  3
01D2C:  MOVWF  xFB
01D2E:  MOVLB  0
01D30:  RCALL  17AE
....................    Tsecadop[3]=read_eeprom(7); 
01D32:  MOVFF  FF2,3E6
01D36:  BCF    FF2.6
01D38:  BCF    FF2.7
01D3A:  CLRF   FAA
01D3C:  MOVLW  07
01D3E:  MOVWF  FA9
01D40:  BCF    FA6.6
01D42:  BCF    FA6.7
01D44:  BSF    FA6.0
01D46:  MOVF   FA8,W
01D48:  MOVLB  3
01D4A:  BTFSC  xE6.6
01D4C:  BSF    FF2.6
01D4E:  BTFSC  xE6.7
01D50:  BSF    FF2.7
01D52:  MOVLB  0
01D54:  MOVWF  xBF
....................    delay_ms(10); 
01D56:  MOVLW  0A
01D58:  MOVLB  3
01D5A:  MOVWF  xFB
01D5C:  MOVLB  0
01D5E:  RCALL  17AE
....................    Setpoint=read_eeprom(8); 
01D60:  MOVFF  FF2,3E6
01D64:  BCF    FF2.6
01D66:  BCF    FF2.7
01D68:  CLRF   FAA
01D6A:  MOVLW  08
01D6C:  MOVWF  FA9
01D6E:  BCF    FA6.6
01D70:  BCF    FA6.7
01D72:  BSF    FA6.0
01D74:  MOVF   FA8,W
01D76:  MOVLB  3
01D78:  BTFSC  xE6.6
01D7A:  BSF    FF2.6
01D7C:  BTFSC  xE6.7
01D7E:  BSF    FF2.7
01D80:  MOVWF  x5C
....................    delay_ms(10); 
01D82:  MOVLW  0A
01D84:  MOVWF  xFB
01D86:  MOVLB  0
01D88:  RCALL  17AE
....................    Nivel=read_eeprom(9); 
01D8A:  MOVFF  FF2,3E6
01D8E:  BCF    FF2.6
01D90:  BCF    FF2.7
01D92:  CLRF   FAA
01D94:  MOVLW  09
01D96:  MOVWF  FA9
01D98:  BCF    FA6.6
01D9A:  BCF    FA6.7
01D9C:  BSF    FA6.0
01D9E:  MOVF   FA8,W
01DA0:  MOVLB  3
01DA2:  BTFSC  xE6.6
01DA4:  BSF    FF2.6
01DA6:  BTFSC  xE6.7
01DA8:  BSF    FF2.7
01DAA:  CLRF   x6B
01DAC:  MOVWF  x6A
....................    delay_ms(10); 
01DAE:  MOVLW  0A
01DB0:  MOVWF  xFB
01DB2:  MOVLB  0
01DB4:  RCALL  17AE
....................    Password[0]=read_eeprom(10); 
01DB6:  MOVFF  FF2,3E6
01DBA:  BCF    FF2.6
01DBC:  BCF    FF2.7
01DBE:  CLRF   FAA
01DC0:  MOVLW  0A
01DC2:  MOVWF  FA9
01DC4:  BCF    FA6.6
01DC6:  BCF    FA6.7
01DC8:  BSF    FA6.0
01DCA:  MOVF   FA8,W
01DCC:  MOVLB  3
01DCE:  BTFSC  xE6.6
01DD0:  BSF    FF2.6
01DD2:  BTFSC  xE6.7
01DD4:  BSF    FF2.7
01DD6:  MOVWF  x7A
....................    delay_ms(10); 
01DD8:  MOVLW  0A
01DDA:  MOVWF  xFB
01DDC:  MOVLB  0
01DDE:  RCALL  17AE
....................    Password[1]=read_eeprom(11); 
01DE0:  MOVFF  FF2,3E6
01DE4:  BCF    FF2.6
01DE6:  BCF    FF2.7
01DE8:  CLRF   FAA
01DEA:  MOVLW  0B
01DEC:  MOVWF  FA9
01DEE:  BCF    FA6.6
01DF0:  BCF    FA6.7
01DF2:  BSF    FA6.0
01DF4:  MOVF   FA8,W
01DF6:  MOVLB  3
01DF8:  BTFSC  xE6.6
01DFA:  BSF    FF2.6
01DFC:  BTFSC  xE6.7
01DFE:  BSF    FF2.7
01E00:  MOVWF  x7B
....................    delay_ms(10); 
01E02:  MOVLW  0A
01E04:  MOVWF  xFB
01E06:  MOVLB  0
01E08:  RCALL  17AE
....................    Password[2]=read_eeprom(12); 
01E0A:  MOVFF  FF2,3E6
01E0E:  BCF    FF2.6
01E10:  BCF    FF2.7
01E12:  CLRF   FAA
01E14:  MOVLW  0C
01E16:  MOVWF  FA9
01E18:  BCF    FA6.6
01E1A:  BCF    FA6.7
01E1C:  BSF    FA6.0
01E1E:  MOVF   FA8,W
01E20:  MOVLB  3
01E22:  BTFSC  xE6.6
01E24:  BSF    FF2.6
01E26:  BTFSC  xE6.7
01E28:  BSF    FF2.7
01E2A:  MOVWF  x7C
....................    delay_ms(10); 
01E2C:  MOVLW  0A
01E2E:  MOVWF  xFB
01E30:  MOVLB  0
01E32:  RCALL  17AE
....................    Password[3]=read_eeprom(13); 
01E34:  MOVFF  FF2,3E6
01E38:  BCF    FF2.6
01E3A:  BCF    FF2.7
01E3C:  CLRF   FAA
01E3E:  MOVLW  0D
01E40:  MOVWF  FA9
01E42:  BCF    FA6.6
01E44:  BCF    FA6.7
01E46:  BSF    FA6.0
01E48:  MOVF   FA8,W
01E4A:  MOVLB  3
01E4C:  BTFSC  xE6.6
01E4E:  BSF    FF2.6
01E50:  BTFSC  xE6.7
01E52:  BSF    FF2.7
01E54:  MOVWF  x7D
....................    delay_ms(10); 
01E56:  MOVLW  0A
01E58:  MOVWF  xFB
01E5A:  MOVLB  0
01E5C:  RCALL  17AE
....................    Ganancia=read_eeprom(20); 
01E5E:  MOVFF  FF2,3E6
01E62:  BCF    FF2.6
01E64:  BCF    FF2.7
01E66:  CLRF   FAA
01E68:  MOVLW  14
01E6A:  MOVWF  FA9
01E6C:  BCF    FA6.6
01E6E:  BCF    FA6.7
01E70:  BSF    FA6.0
01E72:  MOVF   FA8,W
01E74:  MOVLB  3
01E76:  BTFSC  xE6.6
01E78:  BSF    FF2.6
01E7A:  BTFSC  xE6.7
01E7C:  BSF    FF2.7
01E7E:  CLRF   xFC
01E80:  MOVWF  xFB
01E82:  MOVLB  0
01E84:  RCALL  17D6
01E86:  MOVFF  03,302
01E8A:  MOVFF  02,301
01E8E:  MOVFF  01,300
01E92:  MOVFF  00,2FF
....................    delay_ms(10); 
01E96:  MOVLW  0A
01E98:  MOVLB  3
01E9A:  MOVWF  xFB
01E9C:  MOVLB  0
01E9E:  RCALL  17AE
....................    Ajuste=read_eeprom(21); 
01EA0:  MOVFF  FF2,3E6
01EA4:  BCF    FF2.6
01EA6:  BCF    FF2.7
01EA8:  CLRF   FAA
01EAA:  MOVLW  15
01EAC:  MOVWF  FA9
01EAE:  BCF    FA6.6
01EB0:  BCF    FA6.7
01EB2:  BSF    FA6.0
01EB4:  MOVF   FA8,W
01EB6:  MOVLB  3
01EB8:  BTFSC  xE6.6
01EBA:  BSF    FF2.6
01EBC:  BTFSC  xE6.7
01EBE:  BSF    FF2.7
01EC0:  MOVLB  2
01EC2:  MOVWF  xD6
....................    delay_ms(10); 
01EC4:  MOVLW  0A
01EC6:  MOVLB  3
01EC8:  MOVWF  xFB
01ECA:  MOVLB  0
01ECC:  RCALL  17AE
....................    Ajusten=read_eeprom(22); 
01ECE:  MOVFF  FF2,3E6
01ED2:  BCF    FF2.6
01ED4:  BCF    FF2.7
01ED6:  CLRF   FAA
01ED8:  MOVLW  16
01EDA:  MOVWF  FA9
01EDC:  BCF    FA6.6
01EDE:  BCF    FA6.7
01EE0:  BSF    FA6.0
01EE2:  MOVF   FA8,W
01EE4:  MOVLB  3
01EE6:  BTFSC  xE6.6
01EE8:  BSF    FF2.6
01EEA:  BTFSC  xE6.7
01EEC:  BSF    FF2.7
01EEE:  MOVLB  2
01EF0:  MOVWF  xD7
....................    delay_ms(10); 
01EF2:  MOVLW  0A
01EF4:  MOVLB  3
01EF6:  MOVWF  xFB
01EF8:  MOVLB  0
01EFA:  RCALL  17AE
....................    //Desvio=read_eeprom(23); 
....................    MediaMovil=read_eeprom(24); 
01EFC:  MOVFF  FF2,3E6
01F00:  BCF    FF2.6
01F02:  BCF    FF2.7
01F04:  CLRF   FAA
01F06:  MOVLW  18
01F08:  MOVWF  FA9
01F0A:  BCF    FA6.6
01F0C:  BCF    FA6.7
01F0E:  BSF    FA6.0
01F10:  MOVF   FA8,W
01F12:  MOVLB  3
01F14:  BTFSC  xE6.6
01F16:  BSF    FF2.6
01F18:  BTFSC  xE6.7
01F1A:  BSF    FF2.7
01F1C:  MOVLB  2
01F1E:  MOVWF  xD8
....................    delay_ms(10); 
01F20:  MOVLW  0A
01F22:  MOVLB  3
01F24:  MOVWF  xFB
01F26:  MOVLB  0
01F28:  RCALL  17AE
....................    Tciclo=read_eeprom(25); 
01F2A:  MOVFF  FF2,3E6
01F2E:  BCF    FF2.6
01F30:  BCF    FF2.7
01F32:  CLRF   FAA
01F34:  MOVLW  19
01F36:  MOVWF  FA9
01F38:  BCF    FA6.6
01F3A:  BCF    FA6.7
01F3C:  BSF    FA6.0
01F3E:  MOVF   FA8,W
01F40:  MOVLB  3
01F42:  BTFSC  xE6.6
01F44:  BSF    FF2.6
01F46:  BTFSC  xE6.7
01F48:  BSF    FF2.7
01F4A:  CLRF   xFC
01F4C:  MOVWF  xFB
01F4E:  MOVLB  0
01F50:  RCALL  17D6
01F52:  MOVFF  03,2EA
01F56:  MOVFF  02,2E9
01F5A:  MOVFF  01,2E8
01F5E:  MOVFF  00,2E7
....................    delay_ms(10); 
01F62:  MOVLW  0A
01F64:  MOVLB  3
01F66:  MOVWF  xFB
01F68:  MOVLB  0
01F6A:  RCALL  17AE
....................    Integral=read_eeprom(26); 
01F6C:  MOVFF  FF2,3E6
01F70:  BCF    FF2.6
01F72:  BCF    FF2.7
01F74:  CLRF   FAA
01F76:  MOVLW  1A
01F78:  MOVWF  FA9
01F7A:  BCF    FA6.6
01F7C:  BCF    FA6.7
01F7E:  BSF    FA6.0
01F80:  MOVF   FA8,W
01F82:  MOVLB  3
01F84:  BTFSC  xE6.6
01F86:  BSF    FF2.6
01F88:  BTFSC  xE6.7
01F8A:  BSF    FF2.7
01F8C:  MOVWF  x33
....................    delay_ms(10); 
01F8E:  MOVLW  0A
01F90:  MOVWF  xFB
01F92:  MOVLB  0
01F94:  RCALL  17AE
....................    Derivativo=read_eeprom(27); 
01F96:  MOVFF  FF2,3E6
01F9A:  BCF    FF2.6
01F9C:  BCF    FF2.7
01F9E:  CLRF   FAA
01FA0:  MOVLW  1B
01FA2:  MOVWF  FA9
01FA4:  BCF    FA6.6
01FA6:  BCF    FA6.7
01FA8:  BSF    FA6.0
01FAA:  MOVF   FA8,W
01FAC:  MOVLB  3
01FAE:  BTFSC  xE6.6
01FB0:  BSF    FF2.6
01FB2:  BTFSC  xE6.7
01FB4:  BSF    FF2.7
01FB6:  MOVWF  x34
....................    delay_ms(10); 
01FB8:  MOVLW  0A
01FBA:  MOVWF  xFB
01FBC:  MOVLB  0
01FBE:  CALL   17AE
....................    Temporal=read_eeprom(29); 
01FC2:  MOVFF  FF2,3E6
01FC6:  BCF    FF2.6
01FC8:  BCF    FF2.7
01FCA:  CLRF   FAA
01FCC:  MOVLW  1D
01FCE:  MOVWF  FA9
01FD0:  BCF    FA6.6
01FD2:  BCF    FA6.7
01FD4:  BSF    FA6.0
01FD6:  MOVF   FA8,W
01FD8:  MOVLB  3
01FDA:  BTFSC  xE6.6
01FDC:  BSF    FF2.6
01FDE:  BTFSC  xE6.7
01FE0:  BSF    FF2.7
01FE2:  CLRF   xFC
01FE4:  MOVWF  xFB
01FE6:  MOVLB  0
01FE8:  CALL   17D6
01FEC:  MOVFF  03,2AB
01FF0:  MOVFF  02,2AA
01FF4:  MOVFF  01,2A9
01FF8:  MOVFF  00,2A8
....................    Temporal=Temporal/10.0; 
01FFC:  MOVFF  2AB,3EE
02000:  MOVFF  2AA,3ED
02004:  MOVFF  2A9,3EC
02008:  MOVFF  2A8,3EB
0200C:  MOVLB  3
0200E:  CLRF   xF2
02010:  CLRF   xF1
02012:  MOVLW  20
02014:  MOVWF  xF0
02016:  MOVLW  82
02018:  MOVWF  xEF
0201A:  MOVLB  0
0201C:  CALL   180C
02020:  MOVFF  03,2AB
02024:  MOVFF  02,2AA
02028:  MOVFF  01,2A9
0202C:  MOVFF  00,2A8
....................    delay_ms(10); 
02030:  MOVLW  0A
02032:  MOVLB  3
02034:  MOVWF  xFB
02036:  MOVLB  0
02038:  CALL   17AE
....................    Gain=read_eeprom(28)+Temporal; 
0203C:  MOVFF  FF2,3E6
02040:  BCF    FF2.6
02042:  BCF    FF2.7
02044:  CLRF   FAA
02046:  MOVLW  1C
02048:  MOVWF  FA9
0204A:  BCF    FA6.6
0204C:  BCF    FA6.7
0204E:  BSF    FA6.0
02050:  MOVF   FA8,W
02052:  MOVLB  3
02054:  BTFSC  xE6.6
02056:  BSF    FF2.6
02058:  BTFSC  xE6.7
0205A:  BSF    FF2.7
0205C:  CLRF   xFC
0205E:  MOVWF  xFB
02060:  MOVLB  0
02062:  CALL   17D6
02066:  BCF    FD8.1
02068:  MOVFF  03,3FE
0206C:  MOVFF  02,3FD
02070:  MOVFF  01,3FC
02074:  MOVFF  00,3FB
02078:  MOVFF  2AB,402
0207C:  MOVFF  2AA,401
02080:  MOVFF  2A9,400
02084:  MOVFF  2A8,3FF
02088:  RCALL  196A
0208A:  MOVFF  03,2A3
0208E:  MOVFF  02,2A2
02092:  MOVFF  01,2A1
02096:  MOVFF  00,2A0
....................    delay_ms(10); 
0209A:  MOVLW  0A
0209C:  MOVLB  3
0209E:  MOVWF  xFB
020A0:  MOVLB  0
020A2:  CALL   17AE
....................    R1=make16(read_eeprom(31),read_eeprom(30)); 
020A6:  MOVFF  FF2,3E6
020AA:  BCF    FF2.6
020AC:  BCF    FF2.7
020AE:  CLRF   FAA
020B0:  MOVLW  1F
020B2:  MOVWF  FA9
020B4:  BCF    FA6.6
020B6:  BCF    FA6.7
020B8:  BSF    FA6.0
020BA:  MOVF   FA8,W
020BC:  MOVLB  3
020BE:  BTFSC  xE6.6
020C0:  BSF    FF2.6
020C2:  BTFSC  xE6.7
020C4:  BSF    FF2.7
020C6:  MOVWF  xE7
020C8:  MOVFF  FF2,3E8
020CC:  BCF    FF2.6
020CE:  BCF    FF2.7
020D0:  CLRF   FAA
020D2:  MOVLW  1E
020D4:  MOVWF  FA9
020D6:  BCF    FA6.6
020D8:  BCF    FA6.7
020DA:  BSF    FA6.0
020DC:  MOVF   FA8,W
020DE:  BTFSC  xE8.6
020E0:  BSF    FF2.6
020E2:  BTFSC  xE8.7
020E4:  BSF    FF2.7
020E6:  MOVWF  xE9
020E8:  MOVFF  3E7,03
020EC:  MOVF   xE9,W
020EE:  MOVWF  xFB
020F0:  MOVFF  03,3FC
020F4:  MOVLB  0
020F6:  CALL   17D6
020FA:  MOVFF  03,2AF
020FE:  MOVFF  02,2AE
02102:  MOVFF  01,2AD
02106:  MOVFF  00,2AC
....................    delay_ms(10); 
0210A:  MOVLW  0A
0210C:  MOVLB  3
0210E:  MOVWF  xFB
02110:  MOVLB  0
02112:  CALL   17AE
....................    Temporal=read_eeprom(33); 
02116:  MOVFF  FF2,3E6
0211A:  BCF    FF2.6
0211C:  BCF    FF2.7
0211E:  CLRF   FAA
02120:  MOVLW  21
02122:  MOVWF  FA9
02124:  BCF    FA6.6
02126:  BCF    FA6.7
02128:  BSF    FA6.0
0212A:  MOVF   FA8,W
0212C:  MOVLB  3
0212E:  BTFSC  xE6.6
02130:  BSF    FF2.6
02132:  BTFSC  xE6.7
02134:  BSF    FF2.7
02136:  CLRF   xFC
02138:  MOVWF  xFB
0213A:  MOVLB  0
0213C:  CALL   17D6
02140:  MOVFF  03,2AB
02144:  MOVFF  02,2AA
02148:  MOVFF  01,2A9
0214C:  MOVFF  00,2A8
....................    Temporal=Temporal/10.0; 
02150:  MOVFF  2AB,3EE
02154:  MOVFF  2AA,3ED
02158:  MOVFF  2A9,3EC
0215C:  MOVFF  2A8,3EB
02160:  MOVLB  3
02162:  CLRF   xF2
02164:  CLRF   xF1
02166:  MOVLW  20
02168:  MOVWF  xF0
0216A:  MOVLW  82
0216C:  MOVWF  xEF
0216E:  MOVLB  0
02170:  CALL   180C
02174:  MOVFF  03,2AB
02178:  MOVFF  02,2AA
0217C:  MOVFF  01,2A9
02180:  MOVFF  00,2A8
....................    delay_ms(10); 
02184:  MOVLW  0A
02186:  MOVLB  3
02188:  MOVWF  xFB
0218A:  MOVLB  0
0218C:  CALL   17AE
....................    RPT100=read_eeprom(32)+Temporal; 
02190:  MOVFF  FF2,3E6
02194:  BCF    FF2.6
02196:  BCF    FF2.7
02198:  CLRF   FAA
0219A:  MOVLW  20
0219C:  MOVWF  FA9
0219E:  BCF    FA6.6
021A0:  BCF    FA6.7
021A2:  BSF    FA6.0
021A4:  MOVF   FA8,W
021A6:  MOVLB  3
021A8:  BTFSC  xE6.6
021AA:  BSF    FF2.6
021AC:  BTFSC  xE6.7
021AE:  BSF    FF2.7
021B0:  CLRF   xFC
021B2:  MOVWF  xFB
021B4:  MOVLB  0
021B6:  CALL   17D6
021BA:  BCF    FD8.1
021BC:  MOVFF  03,3FE
021C0:  MOVFF  02,3FD
021C4:  MOVFF  01,3FC
021C8:  MOVFF  00,3FB
021CC:  MOVFF  2AB,402
021D0:  MOVFF  2AA,401
021D4:  MOVFF  2A9,400
021D8:  MOVFF  2A8,3FF
021DC:  CALL   196A
021E0:  MOVFF  03,2A7
021E4:  MOVFF  02,2A6
021E8:  MOVFF  01,2A5
021EC:  MOVFF  00,2A4
....................    delay_ms(10); 
021F0:  MOVLW  0A
021F2:  MOVLB  3
021F4:  MOVWF  xFB
021F6:  MOVLB  0
021F8:  CALL   17AE
....................    CiclosL=read_eeprom(37); 
021FC:  MOVFF  FF2,3E6
02200:  BCF    FF2.6
02202:  BCF    FF2.7
02204:  CLRF   FAA
02206:  MOVLW  25
02208:  MOVWF  FA9
0220A:  BCF    FA6.6
0220C:  BCF    FA6.7
0220E:  BSF    FA6.0
02210:  MOVF   FA8,W
02212:  MOVLB  3
02214:  BTFSC  xE6.6
02216:  BSF    FF2.6
02218:  BTFSC  xE6.7
0221A:  BSF    FF2.7
0221C:  MOVWF  x59
....................    delay_ms(10); 
0221E:  MOVLW  0A
02220:  MOVWF  xFB
02222:  MOVLB  0
02224:  CALL   17AE
....................    CiclosH=read_eeprom(38); 
02228:  MOVFF  FF2,3E6
0222C:  BCF    FF2.6
0222E:  BCF    FF2.7
02230:  CLRF   FAA
02232:  MOVLW  26
02234:  MOVWF  FA9
02236:  BCF    FA6.6
02238:  BCF    FA6.7
0223A:  BSF    FA6.0
0223C:  MOVF   FA8,W
0223E:  MOVLB  3
02240:  BTFSC  xE6.6
02242:  BSF    FF2.6
02244:  BTFSC  xE6.7
02246:  BSF    FF2.7
02248:  MOVWF  x5A
....................    delay_ms(10); 
0224A:  MOVLW  0A
0224C:  MOVWF  xFB
0224E:  MOVLB  0
02250:  CALL   17AE
....................    Ciclos=make16(CiclosH,CiclosL); 
02254:  MOVFF  35A,373
02258:  MOVFF  359,372
....................    delay_ms(10); 
0225C:  MOVLW  0A
0225E:  MOVLB  3
02260:  MOVWF  xFB
02262:  MOVLB  0
02264:  CALL   17AE
....................    TTrampa=read_eeprom(39); 
02268:  MOVFF  FF2,3E6
0226C:  BCF    FF2.6
0226E:  BCF    FF2.7
02270:  CLRF   FAA
02272:  MOVLW  27
02274:  MOVWF  FA9
02276:  BCF    FA6.6
02278:  BCF    FA6.7
0227A:  BSF    FA6.0
0227C:  MOVF   FA8,W
0227E:  MOVLB  3
02280:  BTFSC  xE6.6
02282:  BSF    FF2.6
02284:  BTFSC  xE6.7
02286:  BSF    FF2.7
02288:  MOVLB  2
0228A:  MOVWF  xD9
....................    delay_ms(10); 
0228C:  MOVLW  0A
0228E:  MOVLB  3
02290:  MOVWF  xFB
02292:  MOVLB  0
02294:  CALL   17AE
....................    ActivaImpresion=read_eeprom(40); 
02298:  MOVFF  FF2,3E6
0229C:  BCF    FF2.6
0229E:  BCF    FF2.7
022A0:  CLRF   FAA
022A2:  MOVLW  28
022A4:  MOVWF  FA9
022A6:  BCF    FA6.6
022A8:  BCF    FA6.7
022AA:  BSF    FA6.0
022AC:  MOVF   FA8,W
022AE:  MOVLB  3
022B0:  BTFSC  xE6.6
022B2:  BSF    FF2.6
022B4:  BTFSC  xE6.7
022B6:  BSF    FF2.7
022B8:  MOVWF  x4E
....................    delay_ms(10); 
022BA:  MOVLW  0A
022BC:  MOVWF  xFB
022BE:  MOVLB  0
022C0:  CALL   17AE
....................    timpresion=read_eeprom(41); 
022C4:  MOVFF  FF2,3E6
022C8:  BCF    FF2.6
022CA:  BCF    FF2.7
022CC:  CLRF   FAA
022CE:  MOVLW  29
022D0:  MOVWF  FA9
022D2:  BCF    FA6.6
022D4:  BCF    FA6.7
022D6:  BSF    FA6.0
022D8:  MOVF   FA8,W
022DA:  MOVLB  3
022DC:  BTFSC  xE6.6
022DE:  BSF    FF2.6
022E0:  BTFSC  xE6.7
022E2:  BSF    FF2.7
022E4:  MOVWF  x4F
....................    delay_ms(10); 
022E6:  MOVLW  0A
022E8:  MOVWF  xFB
022EA:  MOVLB  0
022EC:  CALL   17AE
....................    G1=read_eeprom(42); 
022F0:  MOVFF  FF2,3E6
022F4:  BCF    FF2.6
022F6:  BCF    FF2.7
022F8:  CLRF   FAA
022FA:  MOVLW  2A
022FC:  MOVWF  FA9
022FE:  BCF    FA6.6
02300:  BCF    FA6.7
02302:  BSF    FA6.0
02304:  MOVF   FA8,W
02306:  MOVLB  3
02308:  BTFSC  xE6.6
0230A:  BSF    FF2.6
0230C:  BTFSC  xE6.7
0230E:  BSF    FF2.7
02310:  MOVWF  x9C
....................    delay_ms(10); 
02312:  MOVLW  0A
02314:  MOVWF  xFB
02316:  MOVLB  0
02318:  CALL   17AE
....................    G2=read_eeprom(43); 
0231C:  MOVFF  FF2,3E6
02320:  BCF    FF2.6
02322:  BCF    FF2.7
02324:  CLRF   FAA
02326:  MOVLW  2B
02328:  MOVWF  FA9
0232A:  BCF    FA6.6
0232C:  BCF    FA6.7
0232E:  BSF    FA6.0
02330:  MOVF   FA8,W
02332:  MOVLB  3
02334:  BTFSC  xE6.6
02336:  BSF    FF2.6
02338:  BTFSC  xE6.7
0233A:  BSF    FF2.7
0233C:  MOVWF  x9D
....................    delay_ms(10); 
0233E:  MOVLW  0A
02340:  MOVWF  xFB
02342:  MOVLB  0
02344:  CALL   17AE
....................    sg1=read_eeprom(44); 
02348:  MOVFF  FF2,3E6
0234C:  BCF    FF2.6
0234E:  BCF    FF2.7
02350:  CLRF   FAA
02352:  MOVLW  2C
02354:  MOVWF  FA9
02356:  BCF    FA6.6
02358:  BCF    FA6.7
0235A:  BSF    FA6.0
0235C:  MOVF   FA8,W
0235E:  MOVLB  3
02360:  BTFSC  xE6.6
02362:  BSF    FF2.6
02364:  BTFSC  xE6.7
02366:  BSF    FF2.7
02368:  MOVWF  x9E
....................    delay_ms(10); 
0236A:  MOVLW  0A
0236C:  MOVWF  xFB
0236E:  MOVLB  0
02370:  CALL   17AE
....................    sg2=read_eeprom(45); 
02374:  MOVFF  FF2,3E6
02378:  BCF    FF2.6
0237A:  BCF    FF2.7
0237C:  CLRF   FAA
0237E:  MOVLW  2D
02380:  MOVWF  FA9
02382:  BCF    FA6.6
02384:  BCF    FA6.7
02386:  BSF    FA6.0
02388:  MOVF   FA8,W
0238A:  MOVLB  3
0238C:  BTFSC  xE6.6
0238E:  BSF    FF2.6
02390:  BTFSC  xE6.7
02392:  BSF    FF2.7
02394:  MOVWF  x9F
....................    delay_ms(10); 
02396:  MOVLW  0A
02398:  MOVWF  xFB
0239A:  MOVLB  0
0239C:  CALL   17AE
....................    Atmosferica=read_eeprom(46); 
023A0:  MOVFF  FF2,3E6
023A4:  BCF    FF2.6
023A6:  BCF    FF2.7
023A8:  CLRF   FAA
023AA:  MOVLW  2E
023AC:  MOVWF  FA9
023AE:  BCF    FA6.6
023B0:  BCF    FA6.7
023B2:  BSF    FA6.0
023B4:  MOVF   FA8,W
023B6:  MOVLB  3
023B8:  BTFSC  xE6.6
023BA:  BSF    FF2.6
023BC:  BTFSC  xE6.7
023BE:  BSF    FF2.7
023C0:  MOVLB  2
023C2:  MOVWF  xDE
....................     
....................    for(i=0;i<4;i++){//Lee valores almacenados de ciclos personalizados 
023C4:  MOVLB  3
023C6:  CLRF   x58
023C8:  MOVF   x58,W
023CA:  SUBLW  03
023CC:  BTFSS  FD8.0
023CE:  BRA    2908
....................       CiclosPersonalizados[i].Temperatura=read_eeprom(100+(i*8));  
023D0:  MOVF   x58,W
023D2:  MULLW  0A
023D4:  MOVF   FF3,W
023D6:  CLRF   xE7
023D8:  MOVWF  xE6
023DA:  MOVLW  BE
023DC:  ADDWF  xE6,W
023DE:  MOVWF  FE9
023E0:  MOVLW  03
023E2:  ADDWFC xE7,W
023E4:  MOVWF  FEA
023E6:  MOVF   x58,W
023E8:  MULLW  08
023EA:  MOVF   FF3,W
023EC:  ADDLW  64
023EE:  MOVWF  xE8
023F0:  MOVFF  FF2,3E9
023F4:  BCF    FF2.6
023F6:  BCF    FF2.7
023F8:  CLRF   FAA
023FA:  MOVFF  3E8,FA9
023FE:  BCF    FA6.6
02400:  BCF    FA6.7
02402:  BSF    FA6.0
02404:  MOVF   FA8,W
02406:  BTFSC  xE9.6
02408:  BSF    FF2.6
0240A:  BTFSC  xE9.7
0240C:  BSF    FF2.7
0240E:  MOVWF  FEF
....................       CiclosPersonalizados[i].MinutoestH=read_eeprom(101+(i*8));  
02410:  MOVF   x58,W
02412:  MULLW  0A
02414:  MOVF   FF3,W
02416:  CLRF   xE7
02418:  MOVWF  xE6
0241A:  MOVLW  01
0241C:  ADDWF  xE6,W
0241E:  MOVWF  01
02420:  MOVLW  00
02422:  ADDWFC xE7,W
02424:  MOVWF  03
02426:  MOVF   01,W
02428:  ADDLW  BE
0242A:  MOVWF  FE9
0242C:  MOVLW  03
0242E:  ADDWFC 03,W
02430:  MOVWF  FEA
02432:  MOVF   x58,W
02434:  MULLW  08
02436:  MOVF   FF3,W
02438:  ADDLW  65
0243A:  MOVWF  xE8
0243C:  MOVFF  FF2,3E9
02440:  BCF    FF2.6
02442:  BCF    FF2.7
02444:  CLRF   FAA
02446:  MOVFF  3E8,FA9
0244A:  BCF    FA6.6
0244C:  BCF    FA6.7
0244E:  BSF    FA6.0
02450:  MOVF   FA8,W
02452:  BTFSC  xE9.6
02454:  BSF    FF2.6
02456:  BTFSC  xE9.7
02458:  BSF    FF2.7
0245A:  MOVWF  FEF
....................       CiclosPersonalizados[i].Minutoest=read_eeprom(102+(i*8));  
0245C:  MOVF   x58,W
0245E:  MULLW  0A
02460:  MOVF   FF3,W
02462:  CLRF   xE7
02464:  MOVWF  xE6
02466:  MOVLW  09
02468:  ADDWF  xE6,W
0246A:  MOVWF  01
0246C:  MOVLW  00
0246E:  ADDWFC xE7,W
02470:  MOVWF  03
02472:  MOVF   01,W
02474:  ADDLW  BE
02476:  MOVWF  FE9
02478:  MOVLW  03
0247A:  ADDWFC 03,W
0247C:  MOVWF  FEA
0247E:  MOVF   x58,W
02480:  MULLW  08
02482:  MOVF   FF3,W
02484:  ADDLW  66
02486:  MOVWF  xE8
02488:  MOVFF  FF2,3E9
0248C:  BCF    FF2.6
0248E:  BCF    FF2.7
02490:  CLRF   FAA
02492:  MOVFF  3E8,FA9
02496:  BCF    FA6.6
02498:  BCF    FA6.7
0249A:  BSF    FA6.0
0249C:  MOVF   FA8,W
0249E:  BTFSC  xE9.6
024A0:  BSF    FF2.6
024A2:  BTFSC  xE9.7
024A4:  BSF    FF2.7
024A6:  MOVWF  FEF
....................       CiclosPersonalizados[i].Segundoest=read_eeprom(103+(i*8));  
024A8:  MOVF   x58,W
024AA:  MULLW  0A
024AC:  MOVF   FF3,W
024AE:  CLRF   xE7
024B0:  MOVWF  xE6
024B2:  MOVLW  03
024B4:  ADDWF  xE6,W
024B6:  MOVWF  01
024B8:  MOVLW  00
024BA:  ADDWFC xE7,W
024BC:  MOVWF  03
024BE:  MOVF   01,W
024C0:  ADDLW  BE
024C2:  MOVWF  FE9
024C4:  MOVLW  03
024C6:  ADDWFC 03,W
024C8:  MOVWF  FEA
024CA:  MOVF   x58,W
024CC:  MULLW  08
024CE:  MOVF   FF3,W
024D0:  ADDLW  67
024D2:  MOVWF  xE8
024D4:  MOVFF  FF2,3E9
024D8:  BCF    FF2.6
024DA:  BCF    FF2.7
024DC:  CLRF   FAA
024DE:  MOVFF  3E8,FA9
024E2:  BCF    FA6.6
024E4:  BCF    FA6.7
024E6:  BSF    FA6.0
024E8:  MOVF   FA8,W
024EA:  BTFSC  xE9.6
024EC:  BSF    FF2.6
024EE:  BTFSC  xE9.7
024F0:  BSF    FF2.7
024F2:  MOVWF  FEF
....................       CiclosPersonalizados[i].Minutosec=read_eeprom(104+(i*8));  
024F4:  MOVF   x58,W
024F6:  MULLW  0A
024F8:  MOVF   FF3,W
024FA:  CLRF   xE7
024FC:  MOVWF  xE6
024FE:  MOVLW  04
02500:  ADDWF  xE6,W
02502:  MOVWF  01
02504:  MOVLW  00
02506:  ADDWFC xE7,W
02508:  MOVWF  03
0250A:  MOVF   01,W
0250C:  ADDLW  BE
0250E:  MOVWF  FE9
02510:  MOVLW  03
02512:  ADDWFC 03,W
02514:  MOVWF  FEA
02516:  MOVF   x58,W
02518:  MULLW  08
0251A:  MOVF   FF3,W
0251C:  ADDLW  68
0251E:  MOVWF  xE8
02520:  MOVFF  FF2,3E9
02524:  BCF    FF2.6
02526:  BCF    FF2.7
02528:  CLRF   FAA
0252A:  MOVFF  3E8,FA9
0252E:  BCF    FA6.6
02530:  BCF    FA6.7
02532:  BSF    FA6.0
02534:  MOVF   FA8,W
02536:  BTFSC  xE9.6
02538:  BSF    FF2.6
0253A:  BTFSC  xE9.7
0253C:  BSF    FF2.7
0253E:  MOVWF  FEF
....................       CiclosPersonalizados[i].Segundosec=read_eeprom(105+(i*8));  
02540:  MOVF   x58,W
02542:  MULLW  0A
02544:  MOVF   FF3,W
02546:  CLRF   xE7
02548:  MOVWF  xE6
0254A:  MOVLW  05
0254C:  ADDWF  xE6,W
0254E:  MOVWF  01
02550:  MOVLW  00
02552:  ADDWFC xE7,W
02554:  MOVWF  03
02556:  MOVF   01,W
02558:  ADDLW  BE
0255A:  MOVWF  FE9
0255C:  MOVLW  03
0255E:  ADDWFC 03,W
02560:  MOVWF  FEA
02562:  MOVF   x58,W
02564:  MULLW  08
02566:  MOVF   FF3,W
02568:  ADDLW  69
0256A:  MOVWF  xE8
0256C:  MOVFF  FF2,3E9
02570:  BCF    FF2.6
02572:  BCF    FF2.7
02574:  CLRF   FAA
02576:  MOVFF  3E8,FA9
0257A:  BCF    FA6.6
0257C:  BCF    FA6.7
0257E:  BSF    FA6.0
02580:  MOVF   FA8,W
02582:  BTFSC  xE9.6
02584:  BSF    FF2.6
02586:  BTFSC  xE9.7
02588:  BSF    FF2.7
0258A:  MOVWF  FEF
....................       CiclosPersonalizados[i].PulsosVacio=read_eeprom(106+(i*8));  
0258C:  MOVF   x58,W
0258E:  MULLW  0A
02590:  MOVF   FF3,W
02592:  CLRF   xE7
02594:  MOVWF  xE6
02596:  MOVLW  06
02598:  ADDWF  xE6,W
0259A:  MOVWF  01
0259C:  MOVLW  00
0259E:  ADDWFC xE7,W
025A0:  MOVWF  03
025A2:  MOVF   01,W
025A4:  ADDLW  BE
025A6:  MOVWF  FE9
025A8:  MOVLW  03
025AA:  ADDWFC 03,W
025AC:  MOVWF  FEA
025AE:  MOVF   x58,W
025B0:  MULLW  08
025B2:  MOVF   FF3,W
025B4:  ADDLW  6A
025B6:  MOVWF  xE8
025B8:  MOVFF  FF2,3E9
025BC:  BCF    FF2.6
025BE:  BCF    FF2.7
025C0:  CLRF   FAA
025C2:  MOVFF  3E8,FA9
025C6:  BCF    FA6.6
025C8:  BCF    FA6.7
025CA:  BSF    FA6.0
025CC:  MOVF   FA8,W
025CE:  BTFSC  xE9.6
025D0:  BSF    FF2.6
025D2:  BTFSC  xE9.7
025D4:  BSF    FF2.7
025D6:  MOVWF  FEF
....................       CiclosPersonalizados[i].NivelDesfogue=read_eeprom(107+(i*8));  
025D8:  MOVF   x58,W
025DA:  MULLW  0A
025DC:  MOVF   FF3,W
025DE:  CLRF   xE7
025E0:  MOVWF  xE6
025E2:  MOVLW  08
025E4:  ADDWF  xE6,W
025E6:  MOVWF  01
025E8:  MOVLW  00
025EA:  ADDWFC xE7,W
025EC:  MOVWF  03
025EE:  MOVF   01,W
025F0:  ADDLW  BE
025F2:  MOVWF  FE9
025F4:  MOVLW  03
025F6:  ADDWFC 03,W
025F8:  MOVWF  FEA
025FA:  MOVF   x58,W
025FC:  MULLW  08
025FE:  MOVF   FF3,W
02600:  ADDLW  6B
02602:  MOVWF  xE8
02604:  MOVFF  FF2,3E9
02608:  BCF    FF2.6
0260A:  BCF    FF2.7
0260C:  CLRF   FAA
0260E:  MOVFF  3E8,FA9
02612:  BCF    FA6.6
02614:  BCF    FA6.7
02616:  BSF    FA6.0
02618:  MOVF   FA8,W
0261A:  BTFSC  xE9.6
0261C:  BSF    FF2.6
0261E:  BTFSC  xE9.7
02620:  BSF    FF2.7
02622:  MOVWF  FEF
....................        
....................       if(CiclosPersonalizados[i].Temperatura>134 || CiclosPersonalizados[i].Temperatura<105) 
02624:  MOVF   x58,W
02626:  MULLW  0A
02628:  MOVF   FF3,W
0262A:  CLRF   xE7
0262C:  MOVWF  xE6
0262E:  MOVLW  BE
02630:  ADDWF  xE6,W
02632:  MOVWF  FE9
02634:  MOVLW  03
02636:  ADDWFC xE7,W
02638:  MOVWF  FEA
0263A:  MOVF   FEF,W
0263C:  SUBLW  86
0263E:  BNC   265C
02640:  MOVF   x58,W
02642:  MULLW  0A
02644:  MOVF   FF3,W
02646:  CLRF   xE7
02648:  MOVWF  xE6
0264A:  MOVLW  BE
0264C:  ADDWF  xE6,W
0264E:  MOVWF  FE9
02650:  MOVLW  03
02652:  ADDWFC xE7,W
02654:  MOVWF  FEA
02656:  MOVF   FEF,W
02658:  SUBLW  68
0265A:  BNC   2676
....................          CiclosPersonalizados[i].Temperatura=121; 
0265C:  MOVF   x58,W
0265E:  MULLW  0A
02660:  MOVF   FF3,W
02662:  CLRF   xE7
02664:  MOVWF  xE6
02666:  MOVLW  BE
02668:  ADDWF  xE6,W
0266A:  MOVWF  FE9
0266C:  MOVLW  03
0266E:  ADDWFC xE7,W
02670:  MOVWF  FEA
02672:  MOVLW  79
02674:  MOVWF  FEF
....................       if(CiclosPersonalizados[i].Minutoest>59) 
02676:  MOVF   x58,W
02678:  MULLW  0A
0267A:  MOVF   FF3,W
0267C:  CLRF   xE7
0267E:  MOVWF  xE6
02680:  MOVLW  09
02682:  ADDWF  xE6,W
02684:  MOVWF  01
02686:  MOVLW  00
02688:  ADDWFC xE7,W
0268A:  MOVWF  03
0268C:  MOVF   01,W
0268E:  ADDLW  BE
02690:  MOVWF  FE9
02692:  MOVLW  03
02694:  ADDWFC 03,W
02696:  MOVWF  FEA
02698:  MOVF   FEF,W
0269A:  SUBLW  3B
0269C:  BC    26C2
....................          CiclosPersonalizados[i].Minutoest=0; 
0269E:  MOVF   x58,W
026A0:  MULLW  0A
026A2:  MOVF   FF3,W
026A4:  CLRF   xE7
026A6:  MOVWF  xE6
026A8:  MOVLW  09
026AA:  ADDWF  xE6,W
026AC:  MOVWF  01
026AE:  MOVLW  00
026B0:  ADDWFC xE7,W
026B2:  MOVWF  03
026B4:  MOVF   01,W
026B6:  ADDLW  BE
026B8:  MOVWF  FE9
026BA:  MOVLW  03
026BC:  ADDWFC 03,W
026BE:  MOVWF  FEA
026C0:  CLRF   FEF
....................       if(CiclosPersonalizados[i].Segundoest>59) 
026C2:  MOVF   x58,W
026C4:  MULLW  0A
026C6:  MOVF   FF3,W
026C8:  CLRF   xE7
026CA:  MOVWF  xE6
026CC:  MOVLW  03
026CE:  ADDWF  xE6,W
026D0:  MOVWF  01
026D2:  MOVLW  00
026D4:  ADDWFC xE7,W
026D6:  MOVWF  03
026D8:  MOVF   01,W
026DA:  ADDLW  BE
026DC:  MOVWF  FE9
026DE:  MOVLW  03
026E0:  ADDWFC 03,W
026E2:  MOVWF  FEA
026E4:  MOVF   FEF,W
026E6:  SUBLW  3B
026E8:  BC    270E
....................          CiclosPersonalizados[i].Segundoest=0; 
026EA:  MOVF   x58,W
026EC:  MULLW  0A
026EE:  MOVF   FF3,W
026F0:  CLRF   xE7
026F2:  MOVWF  xE6
026F4:  MOVLW  03
026F6:  ADDWF  xE6,W
026F8:  MOVWF  01
026FA:  MOVLW  00
026FC:  ADDWFC xE7,W
026FE:  MOVWF  03
02700:  MOVF   01,W
02702:  ADDLW  BE
02704:  MOVWF  FE9
02706:  MOVLW  03
02708:  ADDWFC 03,W
0270A:  MOVWF  FEA
0270C:  CLRF   FEF
....................       if(CiclosPersonalizados[i].Minutosec>59) 
0270E:  MOVF   x58,W
02710:  MULLW  0A
02712:  MOVF   FF3,W
02714:  CLRF   xE7
02716:  MOVWF  xE6
02718:  MOVLW  04
0271A:  ADDWF  xE6,W
0271C:  MOVWF  01
0271E:  MOVLW  00
02720:  ADDWFC xE7,W
02722:  MOVWF  03
02724:  MOVF   01,W
02726:  ADDLW  BE
02728:  MOVWF  FE9
0272A:  MOVLW  03
0272C:  ADDWFC 03,W
0272E:  MOVWF  FEA
02730:  MOVF   FEF,W
02732:  SUBLW  3B
02734:  BC    275A
....................          CiclosPersonalizados[i].Minutosec=0;    
02736:  MOVF   x58,W
02738:  MULLW  0A
0273A:  MOVF   FF3,W
0273C:  CLRF   xE7
0273E:  MOVWF  xE6
02740:  MOVLW  04
02742:  ADDWF  xE6,W
02744:  MOVWF  01
02746:  MOVLW  00
02748:  ADDWFC xE7,W
0274A:  MOVWF  03
0274C:  MOVF   01,W
0274E:  ADDLW  BE
02750:  MOVWF  FE9
02752:  MOVLW  03
02754:  ADDWFC 03,W
02756:  MOVWF  FEA
02758:  CLRF   FEF
....................       if(CiclosPersonalizados[i].Segundoest>59) 
0275A:  MOVF   x58,W
0275C:  MULLW  0A
0275E:  MOVF   FF3,W
02760:  CLRF   xE7
02762:  MOVWF  xE6
02764:  MOVLW  03
02766:  ADDWF  xE6,W
02768:  MOVWF  01
0276A:  MOVLW  00
0276C:  ADDWFC xE7,W
0276E:  MOVWF  03
02770:  MOVF   01,W
02772:  ADDLW  BE
02774:  MOVWF  FE9
02776:  MOVLW  03
02778:  ADDWFC 03,W
0277A:  MOVWF  FEA
0277C:  MOVF   FEF,W
0277E:  SUBLW  3B
02780:  BC    27A6
....................          CiclosPersonalizados[i].Segundoest=0; 
02782:  MOVF   x58,W
02784:  MULLW  0A
02786:  MOVF   FF3,W
02788:  CLRF   xE7
0278A:  MOVWF  xE6
0278C:  MOVLW  03
0278E:  ADDWF  xE6,W
02790:  MOVWF  01
02792:  MOVLW  00
02794:  ADDWFC xE7,W
02796:  MOVWF  03
02798:  MOVF   01,W
0279A:  ADDLW  BE
0279C:  MOVWF  FE9
0279E:  MOVLW  03
027A0:  ADDWFC 03,W
027A2:  MOVWF  FEA
027A4:  CLRF   FEF
....................       if(CiclosPersonalizados[i].Segundosec>59) 
027A6:  MOVF   x58,W
027A8:  MULLW  0A
027AA:  MOVF   FF3,W
027AC:  CLRF   xE7
027AE:  MOVWF  xE6
027B0:  MOVLW  05
027B2:  ADDWF  xE6,W
027B4:  MOVWF  01
027B6:  MOVLW  00
027B8:  ADDWFC xE7,W
027BA:  MOVWF  03
027BC:  MOVF   01,W
027BE:  ADDLW  BE
027C0:  MOVWF  FE9
027C2:  MOVLW  03
027C4:  ADDWFC 03,W
027C6:  MOVWF  FEA
027C8:  MOVF   FEF,W
027CA:  SUBLW  3B
027CC:  BC    27F2
....................          CiclosPersonalizados[i].Segundosec=0;       
027CE:  MOVF   x58,W
027D0:  MULLW  0A
027D2:  MOVF   FF3,W
027D4:  CLRF   xE7
027D6:  MOVWF  xE6
027D8:  MOVLW  05
027DA:  ADDWF  xE6,W
027DC:  MOVWF  01
027DE:  MOVLW  00
027E0:  ADDWFC xE7,W
027E2:  MOVWF  03
027E4:  MOVF   01,W
027E6:  ADDLW  BE
027E8:  MOVWF  FE9
027EA:  MOVLW  03
027EC:  ADDWFC 03,W
027EE:  MOVWF  FEA
027F0:  CLRF   FEF
....................       if(CiclosPersonalizados[i].PulsosVacio>15) 
027F2:  MOVF   x58,W
027F4:  MULLW  0A
027F6:  MOVF   FF3,W
027F8:  CLRF   xE7
027FA:  MOVWF  xE6
027FC:  MOVLW  06
027FE:  ADDWF  xE6,W
02800:  MOVWF  01
02802:  MOVLW  00
02804:  ADDWFC xE7,W
02806:  MOVWF  03
02808:  MOVF   01,W
0280A:  ADDLW  BE
0280C:  MOVWF  FE9
0280E:  MOVLW  03
02810:  ADDWFC 03,W
02812:  MOVWF  FEA
02814:  MOVF   FEF,W
02816:  SUBLW  0F
02818:  BC    2840
....................          CiclosPersonalizados[i].PulsosVacio=4; 
0281A:  MOVF   x58,W
0281C:  MULLW  0A
0281E:  MOVF   FF3,W
02820:  CLRF   xE7
02822:  MOVWF  xE6
02824:  MOVLW  06
02826:  ADDWF  xE6,W
02828:  MOVWF  01
0282A:  MOVLW  00
0282C:  ADDWFC xE7,W
0282E:  MOVWF  03
02830:  MOVF   01,W
02832:  ADDLW  BE
02834:  MOVWF  FE9
02836:  MOVLW  03
02838:  ADDWFC 03,W
0283A:  MOVWF  FEA
0283C:  MOVLW  04
0283E:  MOVWF  FEF
....................       if(CiclosPersonalizados[i].NivelVacio>100 || CiclosPersonalizados[i].NivelVacio<10) 
02840:  MOVF   x58,W
02842:  MULLW  0A
02844:  MOVF   FF3,W
02846:  CLRF   xE7
02848:  MOVWF  xE6
0284A:  MOVLW  07
0284C:  ADDWF  xE6,W
0284E:  MOVWF  01
02850:  MOVLW  00
02852:  ADDWFC xE7,W
02854:  MOVWF  03
02856:  MOVF   01,W
02858:  ADDLW  BE
0285A:  MOVWF  FE9
0285C:  MOVLW  03
0285E:  ADDWFC 03,W
02860:  MOVWF  FEA
02862:  MOVF   FEF,W
02864:  SUBLW  64
02866:  BNC   2890
02868:  MOVF   x58,W
0286A:  MULLW  0A
0286C:  MOVF   FF3,W
0286E:  CLRF   xE7
02870:  MOVWF  xE6
02872:  MOVLW  07
02874:  ADDWF  xE6,W
02876:  MOVWF  01
02878:  MOVLW  00
0287A:  ADDWFC xE7,W
0287C:  MOVWF  03
0287E:  MOVF   01,W
02880:  ADDLW  BE
02882:  MOVWF  FE9
02884:  MOVLW  03
02886:  ADDWFC 03,W
02888:  MOVWF  FEA
0288A:  MOVF   FEF,W
0288C:  SUBLW  09
0288E:  BNC   28B6
....................          CiclosPersonalizados[i].NivelVacio=25;    
02890:  MOVF   x58,W
02892:  MULLW  0A
02894:  MOVF   FF3,W
02896:  CLRF   xE7
02898:  MOVWF  xE6
0289A:  MOVLW  07
0289C:  ADDWF  xE6,W
0289E:  MOVWF  01
028A0:  MOVLW  00
028A2:  ADDWFC xE7,W
028A4:  MOVWF  03
028A6:  MOVF   01,W
028A8:  ADDLW  BE
028AA:  MOVWF  FE9
028AC:  MOVLW  03
028AE:  ADDWFC 03,W
028B0:  MOVWF  FEA
028B2:  MOVLW  19
028B4:  MOVWF  FEF
....................       if(CiclosPersonalizados[i].NivelDesfogue>6) 
028B6:  MOVF   x58,W
028B8:  MULLW  0A
028BA:  MOVF   FF3,W
028BC:  CLRF   xE7
028BE:  MOVWF  xE6
028C0:  MOVLW  08
028C2:  ADDWF  xE6,W
028C4:  MOVWF  01
028C6:  MOVLW  00
028C8:  ADDWFC xE7,W
028CA:  MOVWF  03
028CC:  MOVF   01,W
028CE:  ADDLW  BE
028D0:  MOVWF  FE9
028D2:  MOVLW  03
028D4:  ADDWFC 03,W
028D6:  MOVWF  FEA
028D8:  MOVF   FEF,W
028DA:  SUBLW  06
028DC:  BC    2904
....................          CiclosPersonalizados[i].NivelDesfogue=6; 
028DE:  MOVF   x58,W
028E0:  MULLW  0A
028E2:  MOVF   FF3,W
028E4:  CLRF   xE7
028E6:  MOVWF  xE6
028E8:  MOVLW  08
028EA:  ADDWF  xE6,W
028EC:  MOVWF  01
028EE:  MOVLW  00
028F0:  ADDWFC xE7,W
028F2:  MOVWF  03
028F4:  MOVF   01,W
028F6:  ADDLW  BE
028F8:  MOVWF  FE9
028FA:  MOVLW  03
028FC:  ADDWFC 03,W
028FE:  MOVWF  FEA
02900:  MOVLW  06
02902:  MOVWF  FEF
....................    } 
02904:  INCF   x58,F
02906:  BRA    23C8
.................... } 
02908:  MOVLB  0
0290A:  GOTO   5F64 (RETURN)
....................  
.................... void LimitaValores(){ 
....................    if(Testerilizacionp[0]>9 || Testerilizacionp[0]<0){ 
*
02ABC:  BTFSC  xB3.7
02ABE:  BRA    2AC6
02AC0:  MOVF   xB3,W
02AC2:  SUBLW  09
02AC4:  BNC   2ACC
02AC6:  BTFSC  xB3.7
02AC8:  BRA    2ACC
02ACA:  BRA    2B04
....................       Testerilizacionp[0]=0; 
02ACC:  CLRF   xB3
....................       write_eeprom(0,0); 
02ACE:  CLRF   FAA
02AD0:  CLRF   FA9
02AD2:  CLRF   FA8
02AD4:  BCF    FA6.6
02AD6:  BCF    FA6.7
02AD8:  BSF    FA6.2
02ADA:  MOVF   FF2,W
02ADC:  MOVWF  00
02ADE:  BCF    FF2.6
02AE0:  BCF    FF2.7
02AE2:  MOVLB  F
02AE4:  MOVLW  55
02AE6:  MOVWF  FA7
02AE8:  MOVLW  AA
02AEA:  MOVWF  FA7
02AEC:  BSF    FA6.1
02AEE:  BTFSC  FA6.1
02AF0:  BRA    2AEE
02AF2:  BCF    FA6.2
02AF4:  MOVF   00,W
02AF6:  IORWF  FF2,F
....................       delay_ms(10); 
02AF8:  MOVLW  0A
02AFA:  MOVLB  3
02AFC:  MOVWF  xFB
02AFE:  MOVLB  0
02B00:  CALL   17AE
....................    } 
....................    if(Testerilizacionp[1]>9 || Testerilizacionp[1]<0){ 
02B04:  BTFSC  xB4.7
02B06:  BRA    2B0E
02B08:  MOVF   xB4,W
02B0A:  SUBLW  09
02B0C:  BNC   2B14
02B0E:  BTFSC  xB4.7
02B10:  BRA    2B14
02B12:  BRA    2B4E
....................       Testerilizacionp[1]=0; 
02B14:  CLRF   xB4
....................       write_eeprom(1,0); 
02B16:  CLRF   FAA
02B18:  MOVLW  01
02B1A:  MOVWF  FA9
02B1C:  CLRF   FA8
02B1E:  BCF    FA6.6
02B20:  BCF    FA6.7
02B22:  BSF    FA6.2
02B24:  MOVF   FF2,W
02B26:  MOVWF  00
02B28:  BCF    FF2.6
02B2A:  BCF    FF2.7
02B2C:  MOVLB  F
02B2E:  MOVLW  55
02B30:  MOVWF  FA7
02B32:  MOVLW  AA
02B34:  MOVWF  FA7
02B36:  BSF    FA6.1
02B38:  BTFSC  FA6.1
02B3A:  BRA    2B38
02B3C:  BCF    FA6.2
02B3E:  MOVF   00,W
02B40:  IORWF  FF2,F
....................       delay_ms(10); 
02B42:  MOVLW  0A
02B44:  MOVLB  3
02B46:  MOVWF  xFB
02B48:  MOVLB  0
02B4A:  CALL   17AE
....................    } 
....................    if(Testerilizacionp[2]>9 || Testerilizacionp[2]<0){ 
02B4E:  BTFSC  xB5.7
02B50:  BRA    2B58
02B52:  MOVF   xB5,W
02B54:  SUBLW  09
02B56:  BNC   2B5E
02B58:  BTFSC  xB5.7
02B5A:  BRA    2B5E
02B5C:  BRA    2B98
....................       Testerilizacionp[2]=0; 
02B5E:  CLRF   xB5
....................       write_eeprom(2,0); 
02B60:  CLRF   FAA
02B62:  MOVLW  02
02B64:  MOVWF  FA9
02B66:  CLRF   FA8
02B68:  BCF    FA6.6
02B6A:  BCF    FA6.7
02B6C:  BSF    FA6.2
02B6E:  MOVF   FF2,W
02B70:  MOVWF  00
02B72:  BCF    FF2.6
02B74:  BCF    FF2.7
02B76:  MOVLB  F
02B78:  MOVLW  55
02B7A:  MOVWF  FA7
02B7C:  MOVLW  AA
02B7E:  MOVWF  FA7
02B80:  BSF    FA6.1
02B82:  BTFSC  FA6.1
02B84:  BRA    2B82
02B86:  BCF    FA6.2
02B88:  MOVF   00,W
02B8A:  IORWF  FF2,F
....................       delay_ms(10); 
02B8C:  MOVLW  0A
02B8E:  MOVLB  3
02B90:  MOVWF  xFB
02B92:  MOVLB  0
02B94:  CALL   17AE
....................    } 
....................    if(Testerilizacionp[3]>9 || Testerilizacionp[3]<0){ 
02B98:  BTFSC  xB6.7
02B9A:  BRA    2BA2
02B9C:  MOVF   xB6,W
02B9E:  SUBLW  09
02BA0:  BNC   2BA8
02BA2:  BTFSC  xB6.7
02BA4:  BRA    2BA8
02BA6:  BRA    2BE2
....................       Testerilizacionp[3]=0; 
02BA8:  CLRF   xB6
....................       write_eeprom(3,0); 
02BAA:  CLRF   FAA
02BAC:  MOVLW  03
02BAE:  MOVWF  FA9
02BB0:  CLRF   FA8
02BB2:  BCF    FA6.6
02BB4:  BCF    FA6.7
02BB6:  BSF    FA6.2
02BB8:  MOVF   FF2,W
02BBA:  MOVWF  00
02BBC:  BCF    FF2.6
02BBE:  BCF    FF2.7
02BC0:  MOVLB  F
02BC2:  MOVLW  55
02BC4:  MOVWF  FA7
02BC6:  MOVLW  AA
02BC8:  MOVWF  FA7
02BCA:  BSF    FA6.1
02BCC:  BTFSC  FA6.1
02BCE:  BRA    2BCC
02BD0:  BCF    FA6.2
02BD2:  MOVF   00,W
02BD4:  IORWF  FF2,F
....................       delay_ms(10); 
02BD6:  MOVLW  0A
02BD8:  MOVLB  3
02BDA:  MOVWF  xFB
02BDC:  MOVLB  0
02BDE:  CALL   17AE
....................    } 
....................    if(Tsecadop[0]>9 || Tsecadop[0]<0){ 
02BE2:  BTFSC  xBC.7
02BE4:  BRA    2BEC
02BE6:  MOVF   xBC,W
02BE8:  SUBLW  09
02BEA:  BNC   2BF2
02BEC:  BTFSC  xBC.7
02BEE:  BRA    2BF2
02BF0:  BRA    2C2C
....................       Tsecadop[0]=0; 
02BF2:  CLRF   xBC
....................       write_eeprom(4,0); 
02BF4:  CLRF   FAA
02BF6:  MOVLW  04
02BF8:  MOVWF  FA9
02BFA:  CLRF   FA8
02BFC:  BCF    FA6.6
02BFE:  BCF    FA6.7
02C00:  BSF    FA6.2
02C02:  MOVF   FF2,W
02C04:  MOVWF  00
02C06:  BCF    FF2.6
02C08:  BCF    FF2.7
02C0A:  MOVLB  F
02C0C:  MOVLW  55
02C0E:  MOVWF  FA7
02C10:  MOVLW  AA
02C12:  MOVWF  FA7
02C14:  BSF    FA6.1
02C16:  BTFSC  FA6.1
02C18:  BRA    2C16
02C1A:  BCF    FA6.2
02C1C:  MOVF   00,W
02C1E:  IORWF  FF2,F
....................       delay_ms(10); 
02C20:  MOVLW  0A
02C22:  MOVLB  3
02C24:  MOVWF  xFB
02C26:  MOVLB  0
02C28:  CALL   17AE
....................    } 
....................    if(Tsecadop[1]>9 || Tsecadop[1]<0){ 
02C2C:  BTFSC  xBD.7
02C2E:  BRA    2C36
02C30:  MOVF   xBD,W
02C32:  SUBLW  09
02C34:  BNC   2C3C
02C36:  BTFSC  xBD.7
02C38:  BRA    2C3C
02C3A:  BRA    2C76
....................       Tsecadop[1]=0; 
02C3C:  CLRF   xBD
....................       write_eeprom(5,0); 
02C3E:  CLRF   FAA
02C40:  MOVLW  05
02C42:  MOVWF  FA9
02C44:  CLRF   FA8
02C46:  BCF    FA6.6
02C48:  BCF    FA6.7
02C4A:  BSF    FA6.2
02C4C:  MOVF   FF2,W
02C4E:  MOVWF  00
02C50:  BCF    FF2.6
02C52:  BCF    FF2.7
02C54:  MOVLB  F
02C56:  MOVLW  55
02C58:  MOVWF  FA7
02C5A:  MOVLW  AA
02C5C:  MOVWF  FA7
02C5E:  BSF    FA6.1
02C60:  BTFSC  FA6.1
02C62:  BRA    2C60
02C64:  BCF    FA6.2
02C66:  MOVF   00,W
02C68:  IORWF  FF2,F
....................       delay_ms(10); 
02C6A:  MOVLW  0A
02C6C:  MOVLB  3
02C6E:  MOVWF  xFB
02C70:  MOVLB  0
02C72:  CALL   17AE
....................    } 
....................    if(Tsecadop[2]>9 || Tsecadop[2]<0){ 
02C76:  BTFSC  xBE.7
02C78:  BRA    2C80
02C7A:  MOVF   xBE,W
02C7C:  SUBLW  09
02C7E:  BNC   2C86
02C80:  BTFSC  xBE.7
02C82:  BRA    2C86
02C84:  BRA    2CC0
....................       Tsecadop[2]=0; 
02C86:  CLRF   xBE
....................       write_eeprom(6,0); 
02C88:  CLRF   FAA
02C8A:  MOVLW  06
02C8C:  MOVWF  FA9
02C8E:  CLRF   FA8
02C90:  BCF    FA6.6
02C92:  BCF    FA6.7
02C94:  BSF    FA6.2
02C96:  MOVF   FF2,W
02C98:  MOVWF  00
02C9A:  BCF    FF2.6
02C9C:  BCF    FF2.7
02C9E:  MOVLB  F
02CA0:  MOVLW  55
02CA2:  MOVWF  FA7
02CA4:  MOVLW  AA
02CA6:  MOVWF  FA7
02CA8:  BSF    FA6.1
02CAA:  BTFSC  FA6.1
02CAC:  BRA    2CAA
02CAE:  BCF    FA6.2
02CB0:  MOVF   00,W
02CB2:  IORWF  FF2,F
....................       delay_ms(10); 
02CB4:  MOVLW  0A
02CB6:  MOVLB  3
02CB8:  MOVWF  xFB
02CBA:  MOVLB  0
02CBC:  CALL   17AE
....................    } 
....................    if(Tsecadop[3]>9 || Tsecadop[3]<0){ 
02CC0:  BTFSC  xBF.7
02CC2:  BRA    2CCA
02CC4:  MOVF   xBF,W
02CC6:  SUBLW  09
02CC8:  BNC   2CD0
02CCA:  BTFSC  xBF.7
02CCC:  BRA    2CD0
02CCE:  BRA    2D0A
....................       Tsecadop[3]=0; 
02CD0:  CLRF   xBF
....................       write_eeprom(7,0); 
02CD2:  CLRF   FAA
02CD4:  MOVLW  07
02CD6:  MOVWF  FA9
02CD8:  CLRF   FA8
02CDA:  BCF    FA6.6
02CDC:  BCF    FA6.7
02CDE:  BSF    FA6.2
02CE0:  MOVF   FF2,W
02CE2:  MOVWF  00
02CE4:  BCF    FF2.6
02CE6:  BCF    FF2.7
02CE8:  MOVLB  F
02CEA:  MOVLW  55
02CEC:  MOVWF  FA7
02CEE:  MOVLW  AA
02CF0:  MOVWF  FA7
02CF2:  BSF    FA6.1
02CF4:  BTFSC  FA6.1
02CF6:  BRA    2CF4
02CF8:  BCF    FA6.2
02CFA:  MOVF   00,W
02CFC:  IORWF  FF2,F
....................       delay_ms(10); 
02CFE:  MOVLW  0A
02D00:  MOVLB  3
02D02:  MOVWF  xFB
02D04:  MOVLB  0
02D06:  CALL   17AE
....................    } 
....................    if(Setpoint>134){ 
02D0A:  MOVLB  3
02D0C:  MOVF   x5C,W
02D0E:  SUBLW  86
02D10:  BC    2D52
....................       Setpoint=134; 
02D12:  MOVLW  86
02D14:  MOVWF  x5C
....................       write_eeprom(8,134); 
02D16:  CLRF   FAA
02D18:  MOVLW  08
02D1A:  MOVWF  FA9
02D1C:  MOVLW  86
02D1E:  MOVWF  FA8
02D20:  BCF    FA6.6
02D22:  BCF    FA6.7
02D24:  BSF    FA6.2
02D26:  MOVF   FF2,W
02D28:  MOVWF  00
02D2A:  BCF    FF2.6
02D2C:  BCF    FF2.7
02D2E:  MOVLB  F
02D30:  MOVLW  55
02D32:  MOVWF  FA7
02D34:  MOVLW  AA
02D36:  MOVWF  FA7
02D38:  BSF    FA6.1
02D3A:  BTFSC  FA6.1
02D3C:  BRA    2D3A
02D3E:  BCF    FA6.2
02D40:  MOVF   00,W
02D42:  IORWF  FF2,F
....................       delay_ms(10); 
02D44:  MOVLW  0A
02D46:  MOVLB  3
02D48:  MOVWF  xFB
02D4A:  MOVLB  0
02D4C:  CALL   17AE
02D50:  MOVLB  3
....................    } 
....................    if(Nivel>6){ 
02D52:  MOVF   x6B,F
02D54:  BNZ   2D5C
02D56:  MOVF   x6A,W
02D58:  SUBLW  06
02D5A:  BC    2D9E
....................       Nivel=3; 
02D5C:  CLRF   x6B
02D5E:  MOVLW  03
02D60:  MOVWF  x6A
....................       write_eeprom(9,3); 
02D62:  CLRF   FAA
02D64:  MOVLW  09
02D66:  MOVWF  FA9
02D68:  MOVLW  03
02D6A:  MOVWF  FA8
02D6C:  BCF    FA6.6
02D6E:  BCF    FA6.7
02D70:  BSF    FA6.2
02D72:  MOVF   FF2,W
02D74:  MOVWF  00
02D76:  BCF    FF2.6
02D78:  BCF    FF2.7
02D7A:  MOVLB  F
02D7C:  MOVLW  55
02D7E:  MOVWF  FA7
02D80:  MOVLW  AA
02D82:  MOVWF  FA7
02D84:  BSF    FA6.1
02D86:  BTFSC  FA6.1
02D88:  BRA    2D86
02D8A:  BCF    FA6.2
02D8C:  MOVF   00,W
02D8E:  IORWF  FF2,F
....................       delay_ms(10); 
02D90:  MOVLW  0A
02D92:  MOVLB  3
02D94:  MOVWF  xFB
02D96:  MOVLB  0
02D98:  CALL   17AE
02D9C:  MOVLB  3
....................    } 
....................    if(Password[0]>9 || Password[0]<0){ 
02D9E:  BTFSC  x7A.7
02DA0:  BRA    2DA8
02DA2:  MOVF   x7A,W
02DA4:  SUBLW  09
02DA6:  BNC   2DAE
02DA8:  BTFSC  x7A.7
02DAA:  BRA    2DAE
02DAC:  BRA    2DEA
....................       Password[0]=0; 
02DAE:  CLRF   x7A
....................       write_eeprom(10,0); 
02DB0:  CLRF   FAA
02DB2:  MOVLW  0A
02DB4:  MOVWF  FA9
02DB6:  CLRF   FA8
02DB8:  BCF    FA6.6
02DBA:  BCF    FA6.7
02DBC:  BSF    FA6.2
02DBE:  MOVF   FF2,W
02DC0:  MOVWF  00
02DC2:  BCF    FF2.6
02DC4:  BCF    FF2.7
02DC6:  MOVLB  F
02DC8:  MOVLW  55
02DCA:  MOVWF  FA7
02DCC:  MOVLW  AA
02DCE:  MOVWF  FA7
02DD0:  BSF    FA6.1
02DD2:  BTFSC  FA6.1
02DD4:  BRA    2DD2
02DD6:  BCF    FA6.2
02DD8:  MOVF   00,W
02DDA:  IORWF  FF2,F
....................       delay_ms(10); 
02DDC:  MOVLW  0A
02DDE:  MOVLB  3
02DE0:  MOVWF  xFB
02DE2:  MOVLB  0
02DE4:  CALL   17AE
02DE8:  MOVLB  3
....................    } 
....................    if(Password[1]>9 || Password[1]<0){ 
02DEA:  BTFSC  x7B.7
02DEC:  BRA    2DF4
02DEE:  MOVF   x7B,W
02DF0:  SUBLW  09
02DF2:  BNC   2DFA
02DF4:  BTFSC  x7B.7
02DF6:  BRA    2DFA
02DF8:  BRA    2E36
....................       Password[1]=0; 
02DFA:  CLRF   x7B
....................       write_eeprom(11,0); 
02DFC:  CLRF   FAA
02DFE:  MOVLW  0B
02E00:  MOVWF  FA9
02E02:  CLRF   FA8
02E04:  BCF    FA6.6
02E06:  BCF    FA6.7
02E08:  BSF    FA6.2
02E0A:  MOVF   FF2,W
02E0C:  MOVWF  00
02E0E:  BCF    FF2.6
02E10:  BCF    FF2.7
02E12:  MOVLB  F
02E14:  MOVLW  55
02E16:  MOVWF  FA7
02E18:  MOVLW  AA
02E1A:  MOVWF  FA7
02E1C:  BSF    FA6.1
02E1E:  BTFSC  FA6.1
02E20:  BRA    2E1E
02E22:  BCF    FA6.2
02E24:  MOVF   00,W
02E26:  IORWF  FF2,F
....................       delay_ms(10); 
02E28:  MOVLW  0A
02E2A:  MOVLB  3
02E2C:  MOVWF  xFB
02E2E:  MOVLB  0
02E30:  CALL   17AE
02E34:  MOVLB  3
....................    } 
....................    if(Password[2]>9 || Password[2]<0){ 
02E36:  BTFSC  x7C.7
02E38:  BRA    2E40
02E3A:  MOVF   x7C,W
02E3C:  SUBLW  09
02E3E:  BNC   2E46
02E40:  BTFSC  x7C.7
02E42:  BRA    2E46
02E44:  BRA    2E82
....................       Password[2]=0; 
02E46:  CLRF   x7C
....................       write_eeprom(12,0); 
02E48:  CLRF   FAA
02E4A:  MOVLW  0C
02E4C:  MOVWF  FA9
02E4E:  CLRF   FA8
02E50:  BCF    FA6.6
02E52:  BCF    FA6.7
02E54:  BSF    FA6.2
02E56:  MOVF   FF2,W
02E58:  MOVWF  00
02E5A:  BCF    FF2.6
02E5C:  BCF    FF2.7
02E5E:  MOVLB  F
02E60:  MOVLW  55
02E62:  MOVWF  FA7
02E64:  MOVLW  AA
02E66:  MOVWF  FA7
02E68:  BSF    FA6.1
02E6A:  BTFSC  FA6.1
02E6C:  BRA    2E6A
02E6E:  BCF    FA6.2
02E70:  MOVF   00,W
02E72:  IORWF  FF2,F
....................       delay_ms(10); 
02E74:  MOVLW  0A
02E76:  MOVLB  3
02E78:  MOVWF  xFB
02E7A:  MOVLB  0
02E7C:  CALL   17AE
02E80:  MOVLB  3
....................    } 
....................    if(Password[3]>9 || Password[3]<0){ 
02E82:  BTFSC  x7D.7
02E84:  BRA    2E8C
02E86:  MOVF   x7D,W
02E88:  SUBLW  09
02E8A:  BNC   2E92
02E8C:  BTFSC  x7D.7
02E8E:  BRA    2E92
02E90:  BRA    2ECE
....................       Password[3]=0; 
02E92:  CLRF   x7D
....................       write_eeprom(13,0); 
02E94:  CLRF   FAA
02E96:  MOVLW  0D
02E98:  MOVWF  FA9
02E9A:  CLRF   FA8
02E9C:  BCF    FA6.6
02E9E:  BCF    FA6.7
02EA0:  BSF    FA6.2
02EA2:  MOVF   FF2,W
02EA4:  MOVWF  00
02EA6:  BCF    FF2.6
02EA8:  BCF    FF2.7
02EAA:  MOVLB  F
02EAC:  MOVLW  55
02EAE:  MOVWF  FA7
02EB0:  MOVLW  AA
02EB2:  MOVWF  FA7
02EB4:  BSF    FA6.1
02EB6:  BTFSC  FA6.1
02EB8:  BRA    2EB6
02EBA:  BCF    FA6.2
02EBC:  MOVF   00,W
02EBE:  IORWF  FF2,F
....................       delay_ms(10); 
02EC0:  MOVLW  0A
02EC2:  MOVLB  3
02EC4:  MOVWF  xFB
02EC6:  MOVLB  0
02EC8:  CALL   17AE
02ECC:  MOVLB  3
....................    } 
....................    if(Ganancia>12.0){ 
02ECE:  CLRF   xF1
02ED0:  CLRF   xF0
02ED2:  MOVLW  40
02ED4:  MOVWF  xEF
02ED6:  MOVLW  82
02ED8:  MOVWF  xEE
02EDA:  MOVFF  302,3F5
02EDE:  MOVFF  301,3F4
02EE2:  MOVFF  300,3F3
02EE6:  MOVFF  2FF,3F2
02EEA:  MOVLB  0
02EEC:  RCALL  29F4
02EEE:  BNC   2F3A
....................       Ganancia=12.0; 
02EF0:  MOVLB  3
02EF2:  CLRF   x02
02EF4:  CLRF   x01
02EF6:  MOVLW  40
02EF8:  MOVWF  x00
02EFA:  MOVLW  82
02EFC:  MOVLB  2
02EFE:  MOVWF  xFF
....................       write_eeprom(20,12); 
02F00:  CLRF   FAA
02F02:  MOVLW  14
02F04:  MOVWF  FA9
02F06:  MOVLW  0C
02F08:  MOVWF  FA8
02F0A:  BCF    FA6.6
02F0C:  BCF    FA6.7
02F0E:  BSF    FA6.2
02F10:  MOVF   FF2,W
02F12:  MOVWF  00
02F14:  BCF    FF2.6
02F16:  BCF    FF2.7
02F18:  MOVLB  F
02F1A:  MOVLW  55
02F1C:  MOVWF  FA7
02F1E:  MOVLW  AA
02F20:  MOVWF  FA7
02F22:  BSF    FA6.1
02F24:  BTFSC  FA6.1
02F26:  BRA    2F24
02F28:  BCF    FA6.2
02F2A:  MOVF   00,W
02F2C:  IORWF  FF2,F
....................       delay_ms(10); 
02F2E:  MOVLW  0A
02F30:  MOVLB  3
02F32:  MOVWF  xFB
02F34:  MOVLB  0
02F36:  CALL   17AE
....................    } 
....................    if(Ajuste>10){ 
02F3A:  MOVLB  2
02F3C:  MOVF   xD6,W
02F3E:  SUBLW  0A
02F40:  BC    2F7E
....................       Ajuste=0; 
02F42:  CLRF   xD6
....................       write_eeprom(21,0); 
02F44:  CLRF   FAA
02F46:  MOVLW  15
02F48:  MOVWF  FA9
02F4A:  CLRF   FA8
02F4C:  BCF    FA6.6
02F4E:  BCF    FA6.7
02F50:  BSF    FA6.2
02F52:  MOVF   FF2,W
02F54:  MOVWF  00
02F56:  BCF    FF2.6
02F58:  BCF    FF2.7
02F5A:  MOVLB  F
02F5C:  MOVLW  55
02F5E:  MOVWF  FA7
02F60:  MOVLW  AA
02F62:  MOVWF  FA7
02F64:  BSF    FA6.1
02F66:  BTFSC  FA6.1
02F68:  BRA    2F66
02F6A:  BCF    FA6.2
02F6C:  MOVF   00,W
02F6E:  IORWF  FF2,F
....................       delay_ms(10); 
02F70:  MOVLW  0A
02F72:  MOVLB  3
02F74:  MOVWF  xFB
02F76:  MOVLB  0
02F78:  CALL   17AE
02F7C:  MOVLB  2
....................    } 
....................    if(Ajusten>10){ 
02F7E:  MOVF   xD7,W
02F80:  SUBLW  0A
02F82:  BC    2FC0
....................       Ajusten=0; 
02F84:  CLRF   xD7
....................       write_eeprom(22,0); 
02F86:  CLRF   FAA
02F88:  MOVLW  16
02F8A:  MOVWF  FA9
02F8C:  CLRF   FA8
02F8E:  BCF    FA6.6
02F90:  BCF    FA6.7
02F92:  BSF    FA6.2
02F94:  MOVF   FF2,W
02F96:  MOVWF  00
02F98:  BCF    FF2.6
02F9A:  BCF    FF2.7
02F9C:  MOVLB  F
02F9E:  MOVLW  55
02FA0:  MOVWF  FA7
02FA2:  MOVLW  AA
02FA4:  MOVWF  FA7
02FA6:  BSF    FA6.1
02FA8:  BTFSC  FA6.1
02FAA:  BRA    2FA8
02FAC:  BCF    FA6.2
02FAE:  MOVF   00,W
02FB0:  IORWF  FF2,F
....................       delay_ms(10); 
02FB2:  MOVLW  0A
02FB4:  MOVLB  3
02FB6:  MOVWF  xFB
02FB8:  MOVLB  0
02FBA:  CALL   17AE
02FBE:  MOVLB  2
....................    } 
....................    if(MediaMovil>80){ 
02FC0:  MOVF   xD8,W
02FC2:  SUBLW  50
02FC4:  BC    3004
....................       MediaMovil=80; 
02FC6:  MOVLW  50
02FC8:  MOVWF  xD8
....................       write_eeprom(24,80); 
02FCA:  CLRF   FAA
02FCC:  MOVLW  18
02FCE:  MOVWF  FA9
02FD0:  MOVLW  50
02FD2:  MOVWF  FA8
02FD4:  BCF    FA6.6
02FD6:  BCF    FA6.7
02FD8:  BSF    FA6.2
02FDA:  MOVF   FF2,W
02FDC:  MOVWF  00
02FDE:  BCF    FF2.6
02FE0:  BCF    FF2.7
02FE2:  MOVLB  F
02FE4:  MOVLW  55
02FE6:  MOVWF  FA7
02FE8:  MOVLW  AA
02FEA:  MOVWF  FA7
02FEC:  BSF    FA6.1
02FEE:  BTFSC  FA6.1
02FF0:  BRA    2FEE
02FF2:  BCF    FA6.2
02FF4:  MOVF   00,W
02FF6:  IORWF  FF2,F
....................       delay_ms(10); 
02FF8:  MOVLW  0A
02FFA:  MOVLB  3
02FFC:  MOVWF  xFB
02FFE:  MOVLB  0
03000:  CALL   17AE
....................    } 
....................    if(Tciclo>10){ 
03004:  MOVLB  3
03006:  CLRF   xF1
03008:  CLRF   xF0
0300A:  MOVLW  20
0300C:  MOVWF  xEF
0300E:  MOVLW  82
03010:  MOVWF  xEE
03012:  MOVFF  2EA,3F5
03016:  MOVFF  2E9,3F4
0301A:  MOVFF  2E8,3F3
0301E:  MOVFF  2E7,3F2
03022:  MOVLB  0
03024:  RCALL  29F4
03026:  BNC   3070
....................       Tciclo=10; 
03028:  MOVLB  2
0302A:  CLRF   xEA
0302C:  CLRF   xE9
0302E:  MOVLW  20
03030:  MOVWF  xE8
03032:  MOVLW  82
03034:  MOVWF  xE7
....................       write_eeprom(25,10); 
03036:  CLRF   FAA
03038:  MOVLW  19
0303A:  MOVWF  FA9
0303C:  MOVLW  0A
0303E:  MOVWF  FA8
03040:  BCF    FA6.6
03042:  BCF    FA6.7
03044:  BSF    FA6.2
03046:  MOVF   FF2,W
03048:  MOVWF  00
0304A:  BCF    FF2.6
0304C:  BCF    FF2.7
0304E:  MOVLB  F
03050:  MOVLW  55
03052:  MOVWF  FA7
03054:  MOVLW  AA
03056:  MOVWF  FA7
03058:  BSF    FA6.1
0305A:  BTFSC  FA6.1
0305C:  BRA    305A
0305E:  BCF    FA6.2
03060:  MOVF   00,W
03062:  IORWF  FF2,F
....................       delay_ms(10); 
03064:  MOVLW  0A
03066:  MOVLB  3
03068:  MOVWF  xFB
0306A:  MOVLB  0
0306C:  CALL   17AE
....................    } 
....................    if(Integral>2.0){ 
03070:  MOVLB  3
03072:  CLRF   xFC
03074:  MOVFF  333,3FB
03078:  MOVLB  0
0307A:  CALL   17D6
0307E:  MOVLB  3
03080:  CLRF   xF1
03082:  CLRF   xF0
03084:  CLRF   xEF
03086:  MOVLW  80
03088:  MOVWF  xEE
0308A:  MOVFF  03,3F5
0308E:  MOVFF  02,3F4
03092:  MOVFF  01,3F3
03096:  MOVFF  00,3F2
0309A:  MOVLB  0
0309C:  RCALL  29F4
0309E:  BNC   30E0
....................       Integral=1.0; 
030A0:  MOVLW  01
030A2:  MOVLB  3
030A4:  MOVWF  x33
....................       write_eeprom(26,1); 
030A6:  CLRF   FAA
030A8:  MOVLW  1A
030AA:  MOVWF  FA9
030AC:  MOVLW  01
030AE:  MOVWF  FA8
030B0:  BCF    FA6.6
030B2:  BCF    FA6.7
030B4:  BSF    FA6.2
030B6:  MOVF   FF2,W
030B8:  MOVWF  00
030BA:  BCF    FF2.6
030BC:  BCF    FF2.7
030BE:  MOVLB  F
030C0:  MOVLW  55
030C2:  MOVWF  FA7
030C4:  MOVLW  AA
030C6:  MOVWF  FA7
030C8:  BSF    FA6.1
030CA:  BTFSC  FA6.1
030CC:  BRA    30CA
030CE:  BCF    FA6.2
030D0:  MOVF   00,W
030D2:  IORWF  FF2,F
....................       delay_ms(10); 
030D4:  MOVLW  0A
030D6:  MOVLB  3
030D8:  MOVWF  xFB
030DA:  MOVLB  0
030DC:  CALL   17AE
....................    } 
....................    if(Derivativo>20.0){ 
030E0:  MOVLB  3
030E2:  CLRF   xFC
030E4:  MOVFF  334,3FB
030E8:  MOVLB  0
030EA:  CALL   17D6
030EE:  MOVLB  3
030F0:  CLRF   xF1
030F2:  CLRF   xF0
030F4:  MOVLW  20
030F6:  MOVWF  xEF
030F8:  MOVLW  83
030FA:  MOVWF  xEE
030FC:  MOVFF  03,3F5
03100:  MOVFF  02,3F4
03104:  MOVFF  01,3F3
03108:  MOVFF  00,3F2
0310C:  MOVLB  0
0310E:  RCALL  29F4
03110:  BNC   3152
....................       Derivativo=15.0; 
03112:  MOVLW  0F
03114:  MOVLB  3
03116:  MOVWF  x34
....................       write_eeprom(27,15); 
03118:  CLRF   FAA
0311A:  MOVLW  1B
0311C:  MOVWF  FA9
0311E:  MOVLW  0F
03120:  MOVWF  FA8
03122:  BCF    FA6.6
03124:  BCF    FA6.7
03126:  BSF    FA6.2
03128:  MOVF   FF2,W
0312A:  MOVWF  00
0312C:  BCF    FF2.6
0312E:  BCF    FF2.7
03130:  MOVLB  F
03132:  MOVLW  55
03134:  MOVWF  FA7
03136:  MOVLW  AA
03138:  MOVWF  FA7
0313A:  BSF    FA6.1
0313C:  BTFSC  FA6.1
0313E:  BRA    313C
03140:  BCF    FA6.2
03142:  MOVF   00,W
03144:  IORWF  FF2,F
....................       delay_ms(10); 
03146:  MOVLW  0A
03148:  MOVLB  3
0314A:  MOVWF  xFB
0314C:  MOVLB  0
0314E:  CALL   17AE
....................    } 
....................    if(Gain>50){ 
03152:  MOVLB  3
03154:  CLRF   xF1
03156:  CLRF   xF0
03158:  MOVLW  48
0315A:  MOVWF  xEF
0315C:  MOVLW  84
0315E:  MOVWF  xEE
03160:  MOVFF  2A3,3F5
03164:  MOVFF  2A2,3F4
03168:  MOVFF  2A1,3F3
0316C:  MOVFF  2A0,3F2
03170:  MOVLB  0
03172:  RCALL  29F4
03174:  BNC   31FC
....................       Gain=40.2; 
03176:  MOVLW  CD
03178:  MOVLB  2
0317A:  MOVWF  xA3
0317C:  MOVLW  CC
0317E:  MOVWF  xA2
03180:  MOVLW  20
03182:  MOVWF  xA1
03184:  MOVLW  84
03186:  MOVWF  xA0
....................       write_eeprom(28,40); 
03188:  CLRF   FAA
0318A:  MOVLW  1C
0318C:  MOVWF  FA9
0318E:  MOVLW  28
03190:  MOVWF  FA8
03192:  BCF    FA6.6
03194:  BCF    FA6.7
03196:  BSF    FA6.2
03198:  MOVF   FF2,W
0319A:  MOVWF  00
0319C:  BCF    FF2.6
0319E:  BCF    FF2.7
031A0:  MOVLB  F
031A2:  MOVLW  55
031A4:  MOVWF  FA7
031A6:  MOVLW  AA
031A8:  MOVWF  FA7
031AA:  BSF    FA6.1
031AC:  BTFSC  FA6.1
031AE:  BRA    31AC
031B0:  BCF    FA6.2
031B2:  MOVF   00,W
031B4:  IORWF  FF2,F
....................       delay_ms(10); 
031B6:  MOVLW  0A
031B8:  MOVLB  3
031BA:  MOVWF  xFB
031BC:  MOVLB  0
031BE:  CALL   17AE
....................       write_eeprom(29,2); 
031C2:  CLRF   FAA
031C4:  MOVLW  1D
031C6:  MOVWF  FA9
031C8:  MOVLW  02
031CA:  MOVWF  FA8
031CC:  BCF    FA6.6
031CE:  BCF    FA6.7
031D0:  BSF    FA6.2
031D2:  MOVF   FF2,W
031D4:  MOVWF  00
031D6:  BCF    FF2.6
031D8:  BCF    FF2.7
031DA:  MOVLB  F
031DC:  MOVLW  55
031DE:  MOVWF  FA7
031E0:  MOVLW  AA
031E2:  MOVWF  FA7
031E4:  BSF    FA6.1
031E6:  BTFSC  FA6.1
031E8:  BRA    31E6
031EA:  BCF    FA6.2
031EC:  MOVF   00,W
031EE:  IORWF  FF2,F
....................       delay_ms(10); 
031F0:  MOVLW  0A
031F2:  MOVLB  3
031F4:  MOVWF  xFB
031F6:  MOVLB  0
031F8:  CALL   17AE
....................    } 
....................    if(R1>6400){ 
031FC:  MOVLB  3
031FE:  CLRF   xF1
03200:  CLRF   xF0
03202:  MOVLW  48
03204:  MOVWF  xEF
03206:  MOVLW  8B
03208:  MOVWF  xEE
0320A:  MOVFF  2AF,3F5
0320E:  MOVFF  2AE,3F4
03212:  MOVFF  2AD,3F3
03216:  MOVFF  2AC,3F2
0321A:  MOVLB  0
0321C:  CALL   29F4
03220:  BNC   32A6
....................       R1=6200; 
03222:  MOVLB  2
03224:  CLRF   xAF
03226:  MOVLW  C0
03228:  MOVWF  xAE
0322A:  MOVLW  41
0322C:  MOVWF  xAD
0322E:  MOVLW  8B
03230:  MOVWF  xAC
....................       write_eeprom(30,0x38); 
03232:  CLRF   FAA
03234:  MOVLW  1E
03236:  MOVWF  FA9
03238:  MOVLW  38
0323A:  MOVWF  FA8
0323C:  BCF    FA6.6
0323E:  BCF    FA6.7
03240:  BSF    FA6.2
03242:  MOVF   FF2,W
03244:  MOVWF  00
03246:  BCF    FF2.6
03248:  BCF    FF2.7
0324A:  MOVLB  F
0324C:  MOVLW  55
0324E:  MOVWF  FA7
03250:  MOVLW  AA
03252:  MOVWF  FA7
03254:  BSF    FA6.1
03256:  BTFSC  FA6.1
03258:  BRA    3256
0325A:  BCF    FA6.2
0325C:  MOVF   00,W
0325E:  IORWF  FF2,F
....................       delay_ms(10); 
03260:  MOVLW  0A
03262:  MOVLB  3
03264:  MOVWF  xFB
03266:  MOVLB  0
03268:  CALL   17AE
....................       write_eeprom(31,0x18); 
0326C:  CLRF   FAA
0326E:  MOVLW  1F
03270:  MOVWF  FA9
03272:  MOVLW  18
03274:  MOVWF  FA8
03276:  BCF    FA6.6
03278:  BCF    FA6.7
0327A:  BSF    FA6.2
0327C:  MOVF   FF2,W
0327E:  MOVWF  00
03280:  BCF    FF2.6
03282:  BCF    FF2.7
03284:  MOVLB  F
03286:  MOVLW  55
03288:  MOVWF  FA7
0328A:  MOVLW  AA
0328C:  MOVWF  FA7
0328E:  BSF    FA6.1
03290:  BTFSC  FA6.1
03292:  BRA    3290
03294:  BCF    FA6.2
03296:  MOVF   00,W
03298:  IORWF  FF2,F
....................       delay_ms(10); 
0329A:  MOVLW  0A
0329C:  MOVLB  3
0329E:  MOVWF  xFB
032A0:  MOVLB  0
032A2:  CALL   17AE
....................    } 
....................    if(RPT100>2.0){ 
032A6:  MOVLB  3
032A8:  CLRF   xF1
032AA:  CLRF   xF0
032AC:  CLRF   xEF
032AE:  MOVLW  80
032B0:  MOVWF  xEE
032B2:  MOVFF  2A7,3F5
032B6:  MOVFF  2A6,3F4
032BA:  MOVFF  2A5,3F3
032BE:  MOVFF  2A4,3F2
032C2:  MOVLB  0
032C4:  CALL   29F4
032C8:  BNC   3348
....................       RPT100=0.5; 
032CA:  MOVLB  2
032CC:  CLRF   xA7
032CE:  CLRF   xA6
032D0:  CLRF   xA5
032D2:  MOVLW  7E
032D4:  MOVWF  xA4
....................       write_eeprom(32,0); 
032D6:  CLRF   FAA
032D8:  MOVLW  20
032DA:  MOVWF  FA9
032DC:  CLRF   FA8
032DE:  BCF    FA6.6
032E0:  BCF    FA6.7
032E2:  BSF    FA6.2
032E4:  MOVF   FF2,W
032E6:  MOVWF  00
032E8:  BCF    FF2.6
032EA:  BCF    FF2.7
032EC:  MOVLB  F
032EE:  MOVLW  55
032F0:  MOVWF  FA7
032F2:  MOVLW  AA
032F4:  MOVWF  FA7
032F6:  BSF    FA6.1
032F8:  BTFSC  FA6.1
032FA:  BRA    32F8
032FC:  BCF    FA6.2
032FE:  MOVF   00,W
03300:  IORWF  FF2,F
....................       delay_ms(10); 
03302:  MOVLW  0A
03304:  MOVLB  3
03306:  MOVWF  xFB
03308:  MOVLB  0
0330A:  CALL   17AE
....................       write_eeprom(33,5); 
0330E:  CLRF   FAA
03310:  MOVLW  21
03312:  MOVWF  FA9
03314:  MOVLW  05
03316:  MOVWF  FA8
03318:  BCF    FA6.6
0331A:  BCF    FA6.7
0331C:  BSF    FA6.2
0331E:  MOVF   FF2,W
03320:  MOVWF  00
03322:  BCF    FF2.6
03324:  BCF    FF2.7
03326:  MOVLB  F
03328:  MOVLW  55
0332A:  MOVWF  FA7
0332C:  MOVLW  AA
0332E:  MOVWF  FA7
03330:  BSF    FA6.1
03332:  BTFSC  FA6.1
03334:  BRA    3332
03336:  BCF    FA6.2
03338:  MOVF   00,W
0333A:  IORWF  FF2,F
....................       delay_ms(10); 
0333C:  MOVLW  0A
0333E:  MOVLB  3
03340:  MOVWF  xFB
03342:  MOVLB  0
03344:  CALL   17AE
....................    } 
....................    if(Ciclos>60000){ 
03348:  MOVLB  3
0334A:  MOVF   x73,W
0334C:  SUBLW  E9
0334E:  BC    33CE
03350:  XORLW  FF
03352:  BNZ   335A
03354:  MOVF   x72,W
03356:  SUBLW  60
03358:  BC    33CE
....................       Ciclos=0; 
0335A:  CLRF   x73
0335C:  CLRF   x72
....................       write_eeprom(37,0); 
0335E:  CLRF   FAA
03360:  MOVLW  25
03362:  MOVWF  FA9
03364:  CLRF   FA8
03366:  BCF    FA6.6
03368:  BCF    FA6.7
0336A:  BSF    FA6.2
0336C:  MOVF   FF2,W
0336E:  MOVWF  00
03370:  BCF    FF2.6
03372:  BCF    FF2.7
03374:  MOVLB  F
03376:  MOVLW  55
03378:  MOVWF  FA7
0337A:  MOVLW  AA
0337C:  MOVWF  FA7
0337E:  BSF    FA6.1
03380:  BTFSC  FA6.1
03382:  BRA    3380
03384:  BCF    FA6.2
03386:  MOVF   00,W
03388:  IORWF  FF2,F
....................       delay_ms(10); 
0338A:  MOVLW  0A
0338C:  MOVLB  3
0338E:  MOVWF  xFB
03390:  MOVLB  0
03392:  CALL   17AE
....................       write_eeprom(38,0); 
03396:  CLRF   FAA
03398:  MOVLW  26
0339A:  MOVWF  FA9
0339C:  CLRF   FA8
0339E:  BCF    FA6.6
033A0:  BCF    FA6.7
033A2:  BSF    FA6.2
033A4:  MOVF   FF2,W
033A6:  MOVWF  00
033A8:  BCF    FF2.6
033AA:  BCF    FF2.7
033AC:  MOVLB  F
033AE:  MOVLW  55
033B0:  MOVWF  FA7
033B2:  MOVLW  AA
033B4:  MOVWF  FA7
033B6:  BSF    FA6.1
033B8:  BTFSC  FA6.1
033BA:  BRA    33B8
033BC:  BCF    FA6.2
033BE:  MOVF   00,W
033C0:  IORWF  FF2,F
....................       delay_ms(10); 
033C2:  MOVLW  0A
033C4:  MOVLB  3
033C6:  MOVWF  xFB
033C8:  MOVLB  0
033CA:  CALL   17AE
....................    } 
....................    if(TTrampa>100){ 
033CE:  MOVLB  2
033D0:  MOVF   xD9,W
033D2:  SUBLW  64
033D4:  BC    3414
....................       TTrampa=80; 
033D6:  MOVLW  50
033D8:  MOVWF  xD9
....................       write_eeprom(39,80); 
033DA:  CLRF   FAA
033DC:  MOVLW  27
033DE:  MOVWF  FA9
033E0:  MOVLW  50
033E2:  MOVWF  FA8
033E4:  BCF    FA6.6
033E6:  BCF    FA6.7
033E8:  BSF    FA6.2
033EA:  MOVF   FF2,W
033EC:  MOVWF  00
033EE:  BCF    FF2.6
033F0:  BCF    FF2.7
033F2:  MOVLB  F
033F4:  MOVLW  55
033F6:  MOVWF  FA7
033F8:  MOVLW  AA
033FA:  MOVWF  FA7
033FC:  BSF    FA6.1
033FE:  BTFSC  FA6.1
03400:  BRA    33FE
03402:  BCF    FA6.2
03404:  MOVF   00,W
03406:  IORWF  FF2,F
....................       delay_ms(10); 
03408:  MOVLW  0A
0340A:  MOVLB  3
0340C:  MOVWF  xFB
0340E:  MOVLB  0
03410:  CALL   17AE
....................    } 
....................    if(ActivaImpresion>1){ 
03414:  MOVLB  3
03416:  MOVF   x4E,W
03418:  SUBLW  01
0341A:  BC    345C
....................       ActivaImpresion=1; 
0341C:  MOVLW  01
0341E:  MOVWF  x4E
....................       write_eeprom(40,1); 
03420:  CLRF   FAA
03422:  MOVLW  28
03424:  MOVWF  FA9
03426:  MOVLW  01
03428:  MOVWF  FA8
0342A:  BCF    FA6.6
0342C:  BCF    FA6.7
0342E:  BSF    FA6.2
03430:  MOVF   FF2,W
03432:  MOVWF  00
03434:  BCF    FF2.6
03436:  BCF    FF2.7
03438:  MOVLB  F
0343A:  MOVLW  55
0343C:  MOVWF  FA7
0343E:  MOVLW  AA
03440:  MOVWF  FA7
03442:  BSF    FA6.1
03444:  BTFSC  FA6.1
03446:  BRA    3444
03448:  BCF    FA6.2
0344A:  MOVF   00,W
0344C:  IORWF  FF2,F
....................       delay_ms(10); 
0344E:  MOVLW  0A
03450:  MOVLB  3
03452:  MOVWF  xFB
03454:  MOVLB  0
03456:  CALL   17AE
0345A:  MOVLB  3
....................    } 
....................    if(timpresion>30){ 
0345C:  MOVF   x4F,W
0345E:  SUBLW  1E
03460:  BC    34A2
....................       timpresion=2; 
03462:  MOVLW  02
03464:  MOVWF  x4F
....................       write_eeprom(41,2); 
03466:  CLRF   FAA
03468:  MOVLW  29
0346A:  MOVWF  FA9
0346C:  MOVLW  02
0346E:  MOVWF  FA8
03470:  BCF    FA6.6
03472:  BCF    FA6.7
03474:  BSF    FA6.2
03476:  MOVF   FF2,W
03478:  MOVWF  00
0347A:  BCF    FF2.6
0347C:  BCF    FF2.7
0347E:  MOVLB  F
03480:  MOVLW  55
03482:  MOVWF  FA7
03484:  MOVLW  AA
03486:  MOVWF  FA7
03488:  BSF    FA6.1
0348A:  BTFSC  FA6.1
0348C:  BRA    348A
0348E:  BCF    FA6.2
03490:  MOVF   00,W
03492:  IORWF  FF2,F
....................       delay_ms(10); 
03494:  MOVLW  0A
03496:  MOVLB  3
03498:  MOVWF  xFB
0349A:  MOVLB  0
0349C:  CALL   17AE
034A0:  MOVLB  3
....................    } 
....................    if(sg1==10){ 
034A2:  MOVF   x9E,W
034A4:  SUBLW  0A
034A6:  BNZ   34BC
....................       G1=G1*(-1); 
034A8:  MOVFF  39C,3E8
034AC:  MOVLW  FF
034AE:  MOVWF  xE9
034B0:  MOVLB  0
034B2:  CALL   2A6E
034B6:  MOVFF  01,39C
034BA:  MOVLB  3
....................    } 
....................    if(sg2==10){ 
034BC:  MOVF   x9F,W
034BE:  SUBLW  0A
034C0:  BNZ   34D4
....................       G2=G2*(-1); 
034C2:  MOVFF  39D,3E8
034C6:  MOVLW  FF
034C8:  MOVWF  xE9
034CA:  MOVLB  0
034CC:  CALL   2A6E
034D0:  MOVFF  01,39D
....................    } 
....................    if(Atmosferica>100 || Atmosferica<60){ 
034D4:  MOVLB  2
034D6:  MOVF   xDE,W
034D8:  SUBLW  64
034DA:  BNC   34E2
034DC:  MOVF   xDE,W
034DE:  SUBLW  3B
034E0:  BNC   3522
....................       Atmosferica=73; 
034E2:  MOVLW  49
034E4:  MOVWF  xDE
....................       write_eeprom(46,73); 
034E6:  CLRF   FAA
034E8:  MOVLW  2E
034EA:  MOVWF  FA9
034EC:  MOVLW  49
034EE:  MOVWF  FA8
034F0:  BCF    FA6.6
034F2:  BCF    FA6.7
034F4:  BSF    FA6.2
034F6:  MOVF   FF2,W
034F8:  MOVWF  00
034FA:  BCF    FF2.6
034FC:  BCF    FF2.7
034FE:  MOVLB  F
03500:  MOVLW  55
03502:  MOVWF  FA7
03504:  MOVLW  AA
03506:  MOVWF  FA7
03508:  BSF    FA6.1
0350A:  BTFSC  FA6.1
0350C:  BRA    350A
0350E:  BCF    FA6.2
03510:  MOVF   00,W
03512:  IORWF  FF2,F
....................       delay_ms(10); 
03514:  MOVLW  0A
03516:  MOVLB  3
03518:  MOVWF  xFB
0351A:  MOVLB  0
0351C:  CALL   17AE
03520:  MOVLB  2
....................    } 
.................... } 
03522:  MOVLB  0
03524:  GOTO   5F78 (RETURN)
....................  
.................... void LeeDisplay(void){ 
....................    if(Dato_Exitoso==5){ 
*
03AF4:  MOVLB  3
03AF6:  MOVF   x52,W
03AF8:  SUBLW  05
03AFA:  BTFSS  FD8.2
03AFC:  BRA    3C5C
....................          RX_Buffer[0]=RX_Buffer2[0]; 
03AFE:  MOVFF  3B,30
....................          RX_Buffer[1]=RX_Buffer2[1]; 
03B02:  MOVFF  3C,31
....................          RX_Buffer[2]=RX_Buffer2[2]; 
03B06:  MOVFF  3D,32
....................          RX_Buffer[3]=RX_Buffer2[3]; 
03B0A:  MOVFF  3E,33
....................          RX_Buffer[4]=RX_Buffer2[4]; 
03B0E:  MOVFF  3F,34
....................          RX_Buffer[5]=RX_Buffer2[5]; 
03B12:  MOVFF  40,35
....................          RX_Buffer[6]=RX_Buffer2[6]; 
03B16:  MOVFF  41,36
....................          RX_Buffer[7]=RX_Buffer2[7]; 
03B1A:  MOVFF  42,37
....................          RX_Buffer[8]=RX_Buffer2[8]; 
03B1E:  MOVFF  43,38
....................          RX_Buffer[9]=RX_Buffer2[9]; 
03B22:  MOVFF  44,39
....................           
....................       if(RX_Buffer[3]==0x01){// Pregunta por la pagina en la que esta el display,01 es Contrasea de Acceso 
03B26:  DECFSZ 33,W
03B28:  BRA    3B38
....................          Menu=0; 
03B2A:  CLRF   x55
....................          if(MenuAntt!=Menu) 
03B2C:  MOVF   x55,W
03B2E:  SUBWF  x57,W
03B30:  BZ    3B36
....................             MenuAntt=Menu; 
03B32:  MOVFF  355,357
....................       }else if(RX_Buffer[3]==0x02){//02 es Menu Principal con PantallaPriincipal=0, y con PantallaPrincipal=1 es Ciclo Libre 
03B36:  BRA    3C5A
03B38:  MOVF   33,W
03B3A:  SUBLW  02
03B3C:  BNZ   3B4E
....................          Menu=1; 
03B3E:  MOVLW  01
03B40:  MOVWF  x55
....................          if(MenuAntt!=Menu) 
03B42:  MOVF   x55,W
03B44:  SUBWF  x57,W
03B46:  BZ    3B4C
....................             MenuAntt=Menu; 
03B48:  MOVFF  355,357
....................       }else if(RX_Buffer[3]==0x03){//03 es Tiempo Esterilizacion 
03B4C:  BRA    3C5A
03B4E:  MOVF   33,W
03B50:  SUBLW  03
03B52:  BNZ   3B64
....................          Menu=2; 
03B54:  MOVLW  02
03B56:  MOVWF  x55
....................          if(MenuAntt!=Menu) 
03B58:  MOVF   x55,W
03B5A:  SUBWF  x57,W
03B5C:  BZ    3B62
....................             MenuAntt=Menu; 
03B5E:  MOVFF  355,357
....................       }else if(RX_Buffer[3]==0x04){//04 es Tiempo de Secado 
03B62:  BRA    3C5A
03B64:  MOVF   33,W
03B66:  SUBLW  04
03B68:  BNZ   3B7A
....................          Menu=3; 
03B6A:  MOVLW  03
03B6C:  MOVWF  x55
....................          if(MenuAntt!=Menu) 
03B6E:  MOVF   x55,W
03B70:  SUBWF  x57,W
03B72:  BZ    3B78
....................             MenuAntt=Menu; 
03B74:  MOVFF  355,357
....................       }else if(RX_Buffer[3]==0x05){//05 es Temperatura 
03B78:  BRA    3C5A
03B7A:  MOVF   33,W
03B7C:  SUBLW  05
03B7E:  BNZ   3B90
....................          Menu=4; 
03B80:  MOVLW  04
03B82:  MOVWF  x55
....................          if(MenuAntt!=Menu) 
03B84:  MOVF   x55,W
03B86:  SUBWF  x57,W
03B88:  BZ    3B8E
....................             MenuAntt=Menu; 
03B8A:  MOVFF  355,357
....................       }else if(RX_Buffer[3]==0x06){//06 es Nivel 
03B8E:  BRA    3C5A
03B90:  MOVF   33,W
03B92:  SUBLW  06
03B94:  BNZ   3BA6
....................          Menu=5; 
03B96:  MOVLW  05
03B98:  MOVWF  x55
....................          if(MenuAntt!=Menu) 
03B9A:  MOVF   x55,W
03B9C:  SUBWF  x57,W
03B9E:  BZ    3BA4
....................             MenuAntt=Menu; 
03BA0:  MOVFF  355,357
....................       }else if(RX_Buffer[3]==0x07){//07 es Test de Componentes 
03BA4:  BRA    3C5A
03BA6:  MOVF   33,W
03BA8:  SUBLW  07
03BAA:  BNZ   3BBC
....................          Menu=6; 
03BAC:  MOVLW  06
03BAE:  MOVWF  x55
....................          if(MenuAntt!=Menu) 
03BB0:  MOVF   x55,W
03BB2:  SUBWF  x57,W
03BB4:  BZ    3BBA
....................             MenuAntt=Menu; 
03BB6:  MOVFF  355,357
....................       }else if(RX_Buffer[3]==0x08){//08 es Fecha y hora 
03BBA:  BRA    3C5A
03BBC:  MOVF   33,W
03BBE:  SUBLW  08
03BC0:  BNZ   3BD2
....................          Menu=7; 
03BC2:  MOVLW  07
03BC4:  MOVWF  x55
....................          if(MenuAntt!=Menu) 
03BC6:  MOVF   x55,W
03BC8:  SUBWF  x57,W
03BCA:  BZ    3BD0
....................             MenuAntt=Menu; 
03BCC:  MOVFF  355,357
....................       }else if(RX_Buffer[3]==0x09){//09 es Ciclos Personalizados 
03BD0:  BRA    3C5A
03BD2:  MOVF   33,W
03BD4:  SUBLW  09
03BD6:  BNZ   3BE8
....................          Menu=8; 
03BD8:  MOVLW  08
03BDA:  MOVWF  x55
....................          if(MenuAntt!=Menu) 
03BDC:  MOVF   x55,W
03BDE:  SUBWF  x57,W
03BE0:  BZ    3BE6
....................             MenuAntt=Menu; 
03BE2:  MOVFF  355,357
....................       }else if(RX_Buffer[3]==0x0f){//0f es Recibe caracteres de contrasea desde display 
03BE6:  BRA    3C5A
03BE8:  MOVF   33,W
03BEA:  SUBLW  0F
03BEC:  BNZ   3BF0
....................           
....................       }else if(RX_Buffer[3]==0x1a){//1a es Menu de Funcionamiento 
03BEE:  BRA    3C5A
03BF0:  MOVF   33,W
03BF2:  SUBLW  1A
03BF4:  BNZ   3C06
....................          Menu=20; 
03BF6:  MOVLW  14
03BF8:  MOVWF  x55
....................          if(MenuAntt!=Menu) 
03BFA:  MOVF   x55,W
03BFC:  SUBWF  x57,W
03BFE:  BZ    3C04
....................             MenuAntt=Menu; 
03C00:  MOVFF  355,357
....................       }else if(RX_Buffer[3]==0x1b){//1b es Menu de clave correcta 
03C04:  BRA    3C5A
03C06:  MOVF   33,W
03C08:  SUBLW  1B
03C0A:  BNZ   3C1C
....................          Menu=15; 
03C0C:  MOVLW  0F
03C0E:  MOVWF  x55
....................          if(MenuAntt!=Menu) 
03C10:  MOVF   x55,W
03C12:  SUBWF  x57,W
03C14:  BZ    3C1A
....................             MenuAntt=Menu; 
03C16:  MOVFF  355,357
....................       }else if(RX_Buffer[3]==0x1c){//1c es Menu de clave incorrecta 
03C1A:  BRA    3C5A
03C1C:  MOVF   33,W
03C1E:  SUBLW  1C
03C20:  BNZ   3C32
....................          Menu=16; 
03C22:  MOVLW  10
03C24:  MOVWF  x55
....................          if(MenuAntt!=Menu) 
03C26:  MOVF   x55,W
03C28:  SUBWF  x57,W
03C2A:  BZ    3C30
....................             MenuAntt=Menu; 
03C2C:  MOVFF  355,357
....................       }else if(RX_Buffer[3]==0x2c){//2c es Menu de Configuracion de Parametros 
03C30:  BRA    3C5A
03C32:  MOVF   33,W
03C34:  SUBLW  2C
03C36:  BNZ   3C48
....................          Menu=100; 
03C38:  MOVLW  64
03C3A:  MOVWF  x55
....................          if(MenuAntt!=Menu) 
03C3C:  MOVF   x55,W
03C3E:  SUBWF  x57,W
03C40:  BZ    3C46
....................             MenuAntt=Menu; 
03C42:  MOVFF  355,357
....................       }else if(RX_Buffer[3]==0xcc){//cc es Menu de Bienvenida 
03C46:  BRA    3C5A
03C48:  MOVF   33,W
03C4A:  SUBLW  CC
03C4C:  BNZ   3C5A
....................          Menu=240; 
03C4E:  MOVLW  F0
03C50:  MOVWF  x55
....................          if(MenuAntt!=240) 
03C52:  MOVF   x57,W
03C54:  SUBLW  F0
03C56:  BZ    3C5A
....................             reset_cpu(); 
03C58:  RESET
....................       } 
....................    }else{ 
03C5A:  BRA    3C68
....................       for(z=0;z<RX_BUFFER_SIZE;z++){ 
03C5C:  CLRF   x54
03C5E:  MOVF   x54,W
03C60:  SUBLW  09
03C62:  BNC   3C68
....................             //Rx_Buffer[z]=0; 
....................             //Rx_Buffer2[z]=0; 
....................          } 
03C64:  INCF   x54,F
03C66:  BRA    3C5E
....................    } 
.................... } 
03C68:  MOVLB  0
03C6A:  GOTO   60A0 (RETURN)
....................  
.................... void ConfiguraCiclo(int8 este0,este1,este2,este3,secado0,secado1,secado2,secado3,liquidos,ciclo,temperatura){ 
....................    Testerilizacionp[0]=este0;Testerilizacionp[1]=este1;Testerilizacionp[2]=este2;Testerilizacionp[3]=este3; 
*
045A6:  MOVFF  3F0,B3
045AA:  MOVFF  3F1,B4
045AE:  MOVFF  3F2,B5
045B2:  MOVFF  3F3,B6
....................    Tsecadop[0]=secado0;Tsecadop[1]=secado1;Tsecadop[2]=secado2;Tsecadop[3]=secado3; 
045B6:  MOVFF  3F4,BC
045BA:  MOVFF  3F5,BD
045BE:  MOVFF  3F6,BE
045C2:  MOVFF  3F7,BF
....................    Setpoint=temperatura;                
045C6:  MOVFF  3FA,35C
....................    tiempo_secado=0; 
045CA:  MOVLB  3
045CC:  CLRF   x60
....................    desfoguelento=liquidos; 
045CE:  MOVLB  0
045D0:  BCF    xA3.6
045D2:  MOVLB  3
045D4:  BTFSS  xF8.0
045D6:  BRA    45DE
045D8:  MOVLB  0
045DA:  BSF    xA3.6
045DC:  MOVLB  3
....................    CicloSeleccionado=ciclo; 
045DE:  MOVFF  3F9,35B
....................    if(ActivaImpresion==1){ 
045E2:  DECFSZ x4E,W
045E4:  BRA    4600
....................       Imprime=15; 
045E6:  MOVLW  0F
045E8:  MOVWF  x9B
....................       Envio_Esclavos(); 
045EA:  MOVLB  0
045EC:  RCALL  3EC4
....................       delay_ms(100); 
045EE:  MOVLW  64
045F0:  MOVLB  3
045F2:  MOVWF  xFB
045F4:  MOVLB  0
045F6:  CALL   17AE
....................       Imprime=10; 
045FA:  MOVLW  0A
045FC:  MOVLB  3
045FE:  MOVWF  x9B
....................    } 
....................    Testerilizacion[0]=Testerilizacionp[0];Testerilizacion[1]=Testerilizacionp[1];Testerilizacion[2]=Testerilizacionp[2]; 
04600:  MOVFF  B3,AE
04604:  MOVFF  B4,AF
04608:  MOVFF  B5,B0
....................    Testerilizacion[3]=Testerilizacionp[3];Testerilizacion[4]=Testerilizacionp[4]; 
0460C:  MOVFF  B6,B1
04610:  MOVFF  B7,B2
....................    Tsecado[0]=Tsecadop[0];Tsecado[1]=Tsecadop[1];Tsecado[2]=Tsecadop[2];Tsecado[3]=Tsecadop[3]; 
04614:  MOVFF  BC,B8
04618:  MOVFF  BD,B9
0461C:  MOVFF  BE,BA
04620:  MOVFF  BF,BB
.................... } 
04624:  MOVLB  0
04626:  RETLW  00
....................  
.................... void ActivaAlarma(int8 Tipo){ 
....................     
....................    if(tsilencio>12000){ 
*
0412C:  MOVLB  3
0412E:  MOVF   x8B,W
04130:  SUBLW  2D
04132:  BC    4148
04134:  XORLW  FF
04136:  BNZ   413E
04138:  MOVF   x8A,W
0413A:  SUBLW  E0
0413C:  BC    4148
....................       tsilencio=0; 
0413E:  CLRF   x8B
04140:  CLRF   x8A
....................       flagSilencio=OFF; 
04142:  MOVLB  0
04144:  BCF    xA3.0
04146:  MOVLB  3
....................    } 
....................     
....................    if(Tipo==1){ // Alarma por Error 
04148:  DECFSZ xE6,W
0414A:  BRA    41A0
....................    if(UP || DOWN || RIGHT || LEFT) 
0414C:  BSF    F93.0
0414E:  BTFSS  F81.0
04150:  BRA    4164
04152:  BSF    F93.1
04154:  BTFSS  F81.1
04156:  BRA    4164
04158:  BSF    F93.2
0415A:  BTFSS  F81.2
0415C:  BRA    4164
0415E:  BSF    F93.3
04160:  BTFSC  F81.3
04162:  BRA    4168
....................       flagSilencio=ON; 
04164:  MOVLB  0
04166:  BSF    xA3.0
....................        
....................       if(!flagSilencio){ 
04168:  MOVLB  0
0416A:  BTFSC  xA3.0
0416C:  BRA    4198
....................          flagAlarma=1; 
0416E:  BSF    xA2.6
....................          if(tbuzzer>200){ 
04170:  MOVLB  3
04172:  MOVF   x89,F
04174:  BNZ   417C
04176:  MOVF   x88,W
04178:  SUBLW  C8
0417A:  BC    4194
....................             tbuzzer=0; 
0417C:  CLRF   x89
0417E:  CLRF   x88
....................             flagBuzzer=!flagBuzzer; 
04180:  MOVLB  0
04182:  BTG    xA2.7
....................             if(flagBuzzer) 
04184:  BTFSS  xA2.7
04186:  BRA    418E
....................                Buzzer_on; 
04188:  BSF    F8C.0
0418A:  BCF    F95.0
....................             else 
0418C:  BRA    4192
....................                Buzzer_off; 
0418E:  BCF    F8C.0
04190:  BCF    F95.0
04192:  MOVLB  3
....................          } 
....................       }else{ 
04194:  BRA    419E
04196:  MOVLB  0
....................          Buzzer_off; 
04198:  BCF    F8C.0
0419A:  BCF    F95.0
0419C:  MOVLB  3
....................       } 
....................    }else if(Tipo==2){ 
0419E:  BRA    41F8
041A0:  MOVF   xE6,W
041A2:  SUBLW  02
041A4:  BNZ   41F8
....................    if(UP || DOWN || RIGHT || LEFT) 
041A6:  BSF    F93.0
041A8:  BTFSS  F81.0
041AA:  BRA    41BE
041AC:  BSF    F93.1
041AE:  BTFSS  F81.1
041B0:  BRA    41BE
041B2:  BSF    F93.2
041B4:  BTFSS  F81.2
041B6:  BRA    41BE
041B8:  BSF    F93.3
041BA:  BTFSC  F81.3
041BC:  BRA    41C2
....................       ConteoBuzzer=21; 
041BE:  MOVLW  15
041C0:  MOVWF  x85
....................        
....................       flagAlarma=1; 
041C2:  MOVLB  0
041C4:  BSF    xA2.6
....................       if(ConteoBuzzer<20){    
041C6:  MOVLB  3
041C8:  MOVF   x85,W
041CA:  SUBLW  13
041CC:  BNC   41F4
....................          if(tbuzzer>100){ 
041CE:  MOVF   x89,F
041D0:  BNZ   41D8
041D2:  MOVF   x88,W
041D4:  SUBLW  64
041D6:  BC    41F2
....................             tbuzzer=0; 
041D8:  CLRF   x89
041DA:  CLRF   x88
....................             flagBuzzer=!flagBuzzer; 
041DC:  MOVLB  0
041DE:  BTG    xA2.7
....................             if(flagBuzzer) 
041E0:  BTFSS  xA2.7
041E2:  BRA    41EA
....................                Buzzer_on; 
041E4:  BSF    F8C.0
041E6:  BCF    F95.0
....................             else 
041E8:  BRA    41EE
....................                Buzzer_off; 
041EA:  BCF    F8C.0
041EC:  BCF    F95.0
....................                 
....................             ConteoBuzzer++;    
041EE:  MOVLB  3
041F0:  INCF   x85,F
....................          } 
....................       }else{ 
041F2:  BRA    41F8
....................          Buzzer_off; 
041F4:  BCF    F8C.0
041F6:  BCF    F95.0
....................       } 
....................    } 
.................... } 
041F8:  MOVLB  0
041FA:  RETLW  00
....................  
.................... void CalientaChaqueta(){ 
....................    if(PresionPrecamara<130){ 
....................       SSR_on; 
....................    }else if(PresionPreCamara>150){ 
....................       SSR_off; 
....................    } 
.................... } 
....................  
.................... void ApagaSalidas(){ 
....................    Desfogue_off; 
*
03590:  BCF    F8C.4
03592:  BCF    F95.4
....................    Paso_off; 
03594:  BCF    F8C.6
03596:  BCF    F95.6
....................    //Vent_off; 
....................    Buzzer_off; 
03598:  BCF    F8C.0
0359A:  BCF    F95.0
....................    SSR_off; 
0359C:  BSF    F8B.2
0359E:  BCF    F94.2
....................    Controlando=0; 
035A0:  MOVLB  3
035A2:  CLRF   x4D
.................... } 
035A4:  MOVLB  0
035A6:  RETLW  00
....................  
.................... void purgaAire(){ 
....................    if(!purga){ 
....................       for(i=0;i<4;i++){ 
....................          Desfogue_on; 
....................          delay_ms(2000); 
....................          Desfogue_off; 
....................          delay_ms(1000); 
....................       } 
....................       purga=ON; 
....................    } 
.................... } 
....................  
.................... int8 extraeDecima(int8 tiempo){ 
*
048EC:  MOVLB  3
048EE:  CLRF   xEE
048F0:  CLRF   xEF
....................    int8 tmp=0,decima=0; 
....................    tmp=tiempo/10; 
048F2:  MOVFF  3ED,3F0
048F6:  MOVLW  0A
048F8:  MOVWF  xF1
048FA:  MOVLB  0
048FC:  RCALL  425A
048FE:  MOVFF  01,3EE
....................    tmp=tmp*10; 
04902:  MOVLB  3
04904:  MOVF   xEE,W
04906:  MULLW  0A
04908:  MOVFF  FF3,3EE
....................    decima=tiempo-tmp; 
0490C:  MOVF   xEE,W
0490E:  SUBWF  xED,W
04910:  MOVWF  xEF
....................    return decima; 
04912:  MOVFF  3EF,01
.................... } 
04916:  MOVLB  0
04918:  RETLW  00
....................  
.................... void ActualizaRectaPresion(){ 
....................    Xx[yy]=Tactual; 
*
04F24:  MOVLB  3
04F26:  MOVF   x84,W
04F28:  MULLW  04
04F2A:  MOVF   FF3,W
04F2C:  CLRF   03
04F2E:  ADDLW  BC
04F30:  MOVWF  FE9
04F32:  MOVLW  02
04F34:  ADDWFC 03,W
04F36:  MOVWF  FEA
04F38:  MOVFF  346,FEF
04F3C:  MOVFF  347,FEC
04F40:  MOVFF  348,FEC
04F44:  MOVFF  349,FEC
....................    yy++; 
04F48:  INCF   x84,F
....................    if(yy>=2){ 
04F4A:  MOVF   x84,W
04F4C:  SUBLW  01
04F4E:  BC    4F8C
....................       yy=0; 
04F50:  CLRF   x84
....................       Aumento2=Xx[1]-Xx[0]; 
04F52:  BSF    FD8.1
04F54:  MOVFF  2C3,3FE
04F58:  MOVFF  2C2,3FD
04F5C:  MOVFF  2C1,3FC
04F60:  MOVFF  2C0,3FB
04F64:  MOVFF  2BF,402
04F68:  MOVFF  2BE,401
04F6C:  MOVFF  2BD,400
04F70:  MOVFF  2BC,3FF
04F74:  MOVLB  0
04F76:  CALL   196A
04F7A:  MOVFF  03,2CF
04F7E:  MOVFF  02,2CE
04F82:  MOVFF  01,2CD
04F86:  MOVFF  00,2CC
04F8A:  MOVLB  3
....................    } 
.................... } 
04F8C:  MOVLB  0
04F8E:  GOTO   5012 (RETURN)
....................  
.................... void ControlaPresionVapor(){ 
04F92:  MOVLB  3
04F94:  CLRF   xE9
04F96:  CLRF   xE8
04F98:  CLRF   xE7
04F9A:  CLRF   xE6
....................    float prc=0.0;    
....................    if(tiemporecta>=Derivativo/2.0){ 
04F9C:  CLRF   xFC
04F9E:  MOVFF  334,3FB
04FA2:  MOVLB  0
04FA4:  CALL   17D6
04FA8:  MOVFF  03,3EE
04FAC:  MOVFF  02,3ED
04FB0:  MOVFF  01,3EC
04FB4:  MOVFF  00,3EB
04FB8:  MOVLB  3
04FBA:  CLRF   xF2
04FBC:  CLRF   xF1
04FBE:  CLRF   xF0
04FC0:  MOVLW  80
04FC2:  MOVWF  xEF
04FC4:  MOVLB  0
04FC6:  CALL   180C
04FCA:  MOVFF  00,3EA
04FCE:  MOVFF  01,3EB
04FD2:  MOVFF  02,3EC
04FD6:  MOVFF  03,3ED
04FDA:  MOVLB  3
04FDC:  CLRF   xFC
04FDE:  MOVFF  34C,3FB
04FE2:  MOVLB  0
04FE4:  CALL   17D6
04FE8:  MOVFF  3ED,3F1
04FEC:  MOVFF  3EC,3F0
04FF0:  MOVFF  3EB,3EF
04FF4:  MOVFF  3EA,3EE
04FF8:  MOVFF  03,3F5
04FFC:  MOVFF  02,3F4
05000:  MOVFF  01,3F3
05004:  MOVFF  00,3F2
05008:  CALL   29F4
0500C:  BC    5010
0500E:  BNZ   5018
....................       ActualizaRectaPresion(); 
05010:  BRA    4F24
....................       tiemporecta=0; 
05012:  MOVLB  3
05014:  CLRF   x4C
05016:  MOVLB  0
....................    }  
....................    prc=(float)PresionCamara+(float)Atmosferica; //73 Presion atmosferica Bogota 
05018:  MOVFF  36F,3FC
0501C:  MOVFF  36E,3FB
05020:  CALL   17D6
05024:  MOVFF  00,3EA
05028:  MOVFF  01,3EB
0502C:  MOVFF  02,3EC
05030:  MOVFF  03,3ED
05034:  MOVLB  3
05036:  CLRF   xFC
05038:  MOVFF  2DE,3FB
0503C:  MOVLB  0
0503E:  CALL   17D6
05042:  BCF    FD8.1
05044:  MOVFF  3ED,3FE
05048:  MOVFF  3EC,3FD
0504C:  MOVFF  3EB,3FC
05050:  MOVFF  3EA,3FB
05054:  MOVFF  03,402
05058:  MOVFF  02,401
0505C:  MOVFF  01,400
05060:  MOVFF  00,3FF
05064:  CALL   196A
05068:  MOVFF  03,3E9
0506C:  MOVFF  02,3E8
05070:  MOVFF  01,3E7
05074:  MOVFF  00,3E6
....................    Tactual=((prc)*(prc)*(prc)*p1)+((prc)*(prc)*p2)+(p3*prc)+p4; 
05078:  MOVFF  3E9,402
0507C:  MOVFF  3E8,401
05080:  MOVFF  3E7,400
05084:  MOVFF  3E6,3FF
05088:  MOVFF  3E9,406
0508C:  MOVFF  3E8,405
05090:  MOVFF  3E7,404
05094:  MOVFF  3E6,403
05098:  CALL   3622
0509C:  MOVFF  00,3EA
050A0:  MOVFF  01,3EB
050A4:  MOVFF  02,3EC
050A8:  MOVFF  03,3ED
050AC:  MOVFF  03,402
050B0:  MOVFF  02,401
050B4:  MOVFF  01,400
050B8:  MOVFF  00,3FF
050BC:  MOVFF  3E9,406
050C0:  MOVFF  3E8,405
050C4:  MOVFF  3E7,404
050C8:  MOVFF  3E6,403
050CC:  CALL   3622
050D0:  MOVFF  00,3EA
050D4:  MOVFF  01,3EB
050D8:  MOVFF  02,3EC
050DC:  MOVFF  03,3ED
050E0:  MOVFF  03,402
050E4:  MOVFF  02,401
050E8:  MOVFF  01,400
050EC:  MOVFF  00,3FF
050F0:  MOVFF  339,406
050F4:  MOVFF  338,405
050F8:  MOVFF  337,404
050FC:  MOVFF  336,403
05100:  CALL   3622
05104:  MOVFF  00,3EA
05108:  MOVFF  01,3EB
0510C:  MOVFF  02,3EC
05110:  MOVFF  03,3ED
05114:  MOVFF  3E9,402
05118:  MOVFF  3E8,401
0511C:  MOVFF  3E7,400
05120:  MOVFF  3E6,3FF
05124:  MOVFF  3E9,406
05128:  MOVFF  3E8,405
0512C:  MOVFF  3E7,404
05130:  MOVFF  3E6,403
05134:  CALL   3622
05138:  MOVFF  00,3EE
0513C:  MOVFF  01,3EF
05140:  MOVFF  02,3F0
05144:  MOVFF  03,3F1
05148:  MOVFF  03,402
0514C:  MOVFF  02,401
05150:  MOVFF  01,400
05154:  MOVFF  00,3FF
05158:  MOVFF  33D,406
0515C:  MOVFF  33C,405
05160:  MOVFF  33B,404
05164:  MOVFF  33A,403
05168:  CALL   3622
0516C:  BCF    FD8.1
0516E:  MOVFF  3ED,3FE
05172:  MOVFF  3EC,3FD
05176:  MOVFF  3EB,3FC
0517A:  MOVFF  3EA,3FB
0517E:  MOVFF  03,402
05182:  MOVFF  02,401
05186:  MOVFF  01,400
0518A:  MOVFF  00,3FF
0518E:  CALL   196A
05192:  MOVFF  00,3EA
05196:  MOVFF  01,3EB
0519A:  MOVFF  02,3EC
0519E:  MOVFF  03,3ED
051A2:  MOVFF  341,402
051A6:  MOVFF  340,401
051AA:  MOVFF  33F,400
051AE:  MOVFF  33E,3FF
051B2:  MOVFF  3E9,406
051B6:  MOVFF  3E8,405
051BA:  MOVFF  3E7,404
051BE:  MOVFF  3E6,403
051C2:  CALL   3622
051C6:  BCF    FD8.1
051C8:  MOVFF  3ED,3FE
051CC:  MOVFF  3EC,3FD
051D0:  MOVFF  3EB,3FC
051D4:  MOVFF  3EA,3FB
051D8:  MOVFF  03,402
051DC:  MOVFF  02,401
051E0:  MOVFF  01,400
051E4:  MOVFF  00,3FF
051E8:  CALL   196A
051EC:  MOVFF  00,3EA
051F0:  MOVFF  01,3EB
051F4:  MOVFF  02,3EC
051F8:  MOVFF  03,3ED
051FC:  BCF    FD8.1
051FE:  MOVFF  03,3FE
05202:  MOVFF  02,3FD
05206:  MOVFF  01,3FC
0520A:  MOVFF  00,3FB
0520E:  MOVFF  345,402
05212:  MOVFF  344,401
05216:  MOVFF  343,400
0521A:  MOVFF  342,3FF
0521E:  CALL   196A
05222:  MOVFF  03,349
05226:  MOVFF  02,348
0522A:  MOVFF  01,347
0522E:  MOVFF  00,346
.................... //-------------------------------Control de Calentamiento------------------------------------------------------------//          
....................    error=desvio+Setpoint-Tactual;      // Clculo del error ****** 
05232:  MOVLB  3
05234:  CLRF   xFC
05236:  MOVFF  35C,3FB
0523A:  MOVLB  0
0523C:  CALL   17D6
05240:  BCF    FD8.1
05242:  MOVFF  30A,3FE
05246:  MOVFF  309,3FD
0524A:  MOVFF  308,3FC
0524E:  MOVFF  307,3FB
05252:  MOVFF  03,402
05256:  MOVFF  02,401
0525A:  MOVFF  01,400
0525E:  MOVFF  00,3FF
05262:  CALL   196A
05266:  MOVFF  00,3EA
0526A:  MOVFF  01,3EB
0526E:  MOVFF  02,3EC
05272:  MOVFF  03,3ED
05276:  BSF    FD8.1
05278:  MOVFF  03,3FE
0527C:  MOVFF  02,3FD
05280:  MOVFF  01,3FC
05284:  MOVFF  00,3FB
05288:  MOVFF  349,402
0528C:  MOVFF  348,401
05290:  MOVFF  347,400
05294:  MOVFF  346,3FF
05298:  CALL   196A
0529C:  MOVFF  03,2F2
052A0:  MOVFF  02,2F1
052A4:  MOVFF  01,2F0
052A8:  MOVFF  00,2EF
....................     
....................    if(error>1.0 && error<20 && Aumento2<0.3){ 
052AC:  MOVLB  3
052AE:  CLRF   xF1
052B0:  CLRF   xF0
052B2:  CLRF   xEF
052B4:  MOVLW  7F
052B6:  MOVWF  xEE
052B8:  MOVFF  2F2,3F5
052BC:  MOVFF  2F1,3F4
052C0:  MOVFF  2F0,3F3
052C4:  MOVFF  2EF,3F2
052C8:  MOVLB  0
052CA:  CALL   29F4
052CE:  BTFSS  FD8.0
052D0:  BRA    5502
052D2:  MOVFF  2F2,3F1
052D6:  MOVFF  2F1,3F0
052DA:  MOVFF  2F0,3EF
052DE:  MOVFF  2EF,3EE
052E2:  MOVLB  3
052E4:  CLRF   xF5
052E6:  CLRF   xF4
052E8:  MOVLW  20
052EA:  MOVWF  xF3
052EC:  MOVLW  83
052EE:  MOVWF  xF2
052F0:  MOVLB  0
052F2:  CALL   29F4
052F6:  BTFSS  FD8.0
052F8:  BRA    5502
052FA:  MOVFF  2CF,3F1
052FE:  MOVFF  2CE,3F0
05302:  MOVFF  2CD,3EF
05306:  MOVFF  2CC,3EE
0530A:  MOVLW  9A
0530C:  MOVLB  3
0530E:  MOVWF  xF5
05310:  MOVLW  99
05312:  MOVWF  xF4
05314:  MOVLW  19
05316:  MOVWF  xF3
05318:  MOVLW  7D
0531A:  MOVWF  xF2
0531C:  MOVLB  0
0531E:  CALL   29F4
05322:  BTFSS  FD8.0
05324:  BRA    5502
....................       if(Tpulso<=6.0){ 
05326:  MOVFF  2EE,3F1
0532A:  MOVFF  2ED,3F0
0532E:  MOVFF  2EC,3EF
05332:  MOVFF  2EB,3EE
05336:  MOVLB  3
05338:  CLRF   xF5
0533A:  CLRF   xF4
0533C:  MOVLW  40
0533E:  MOVWF  xF3
05340:  MOVLW  81
05342:  MOVWF  xF2
05344:  MOVLB  0
05346:  CALL   29F4
0534A:  BC    5350
0534C:  BTFSS  FD8.2
0534E:  BRA    54FE
....................          flagTC=1; 
05350:  MOVLB  3
05352:  BSF    x4A.2
....................          if(TiempoControl>=Derivativo){ 
05354:  MOVF   x34,W
05356:  SUBWF  x82,W
05358:  BTFSS  FD8.0
0535A:  BRA    54FA
....................             TiempoControl=0; 
0535C:  CLRF   x82
....................             if(Aumento2<-0.5){ 
0535E:  MOVFF  2CF,3F1
05362:  MOVFF  2CE,3F0
05366:  MOVFF  2CD,3EF
0536A:  MOVFF  2CC,3EE
0536E:  CLRF   xF5
05370:  CLRF   xF4
05372:  MOVLW  80
05374:  MOVWF  xF3
05376:  MOVLW  7E
05378:  MOVWF  xF2
0537A:  MOVLB  0
0537C:  CALL   29F4
05380:  BNC   53F4
....................                Ganancia+=Integral+0.2; 
05382:  MOVLB  3
05384:  CLRF   xFC
05386:  MOVFF  333,3FB
0538A:  MOVLB  0
0538C:  CALL   17D6
05390:  BCF    FD8.1
05392:  MOVFF  03,3FE
05396:  MOVFF  02,3FD
0539A:  MOVFF  01,3FC
0539E:  MOVFF  00,3FB
053A2:  MOVLW  CD
053A4:  MOVLB  4
053A6:  MOVWF  x02
053A8:  MOVLW  CC
053AA:  MOVWF  x01
053AC:  MOVLW  4C
053AE:  MOVWF  x00
053B0:  MOVLW  7C
053B2:  MOVLB  3
053B4:  MOVWF  xFF
053B6:  MOVLB  0
053B8:  CALL   196A
053BC:  BCF    FD8.1
053BE:  MOVFF  302,3FE
053C2:  MOVFF  301,3FD
053C6:  MOVFF  300,3FC
053CA:  MOVFF  2FF,3FB
053CE:  MOVFF  03,402
053D2:  MOVFF  02,401
053D6:  MOVFF  01,400
053DA:  MOVFF  00,3FF
053DE:  CALL   196A
053E2:  MOVFF  03,302
053E6:  MOVFF  02,301
053EA:  MOVFF  01,300
053EE:  MOVFF  00,2FF
....................             }else{ 
053F2:  BRA    54F8
....................                if(Aumento2<-0.1){ 
053F4:  MOVFF  2CF,3F1
053F8:  MOVFF  2CE,3F0
053FC:  MOVFF  2CD,3EF
05400:  MOVFF  2CC,3EE
05404:  MOVLW  CD
05406:  MOVLB  3
05408:  MOVWF  xF5
0540A:  MOVLW  CC
0540C:  MOVWF  xF4
0540E:  MOVWF  xF3
05410:  MOVLW  7B
05412:  MOVWF  xF2
05414:  MOVLB  0
05416:  CALL   29F4
0541A:  BNC   548E
....................                   Ganancia+=Integral-0.2; 
0541C:  MOVLB  3
0541E:  CLRF   xFC
05420:  MOVFF  333,3FB
05424:  MOVLB  0
05426:  CALL   17D6
0542A:  BSF    FD8.1
0542C:  MOVFF  03,3FE
05430:  MOVFF  02,3FD
05434:  MOVFF  01,3FC
05438:  MOVFF  00,3FB
0543C:  MOVLW  CD
0543E:  MOVLB  4
05440:  MOVWF  x02
05442:  MOVLW  CC
05444:  MOVWF  x01
05446:  MOVLW  4C
05448:  MOVWF  x00
0544A:  MOVLW  7C
0544C:  MOVLB  3
0544E:  MOVWF  xFF
05450:  MOVLB  0
05452:  CALL   196A
05456:  BCF    FD8.1
05458:  MOVFF  302,3FE
0545C:  MOVFF  301,3FD
05460:  MOVFF  300,3FC
05464:  MOVFF  2FF,3FB
05468:  MOVFF  03,402
0546C:  MOVFF  02,401
05470:  MOVFF  01,400
05474:  MOVFF  00,3FF
05478:  CALL   196A
0547C:  MOVFF  03,302
05480:  MOVFF  02,301
05484:  MOVFF  01,300
05488:  MOVFF  00,2FF
....................                }else{ 
0548C:  BRA    54F8
....................                   Ganancia+=Integral-0.5; 
0548E:  MOVLB  3
05490:  CLRF   xFC
05492:  MOVFF  333,3FB
05496:  MOVLB  0
05498:  CALL   17D6
0549C:  BSF    FD8.1
0549E:  MOVFF  03,3FE
054A2:  MOVFF  02,3FD
054A6:  MOVFF  01,3FC
054AA:  MOVFF  00,3FB
054AE:  MOVLB  4
054B0:  CLRF   x02
054B2:  CLRF   x01
054B4:  CLRF   x00
054B6:  MOVLW  7E
054B8:  MOVLB  3
054BA:  MOVWF  xFF
054BC:  MOVLB  0
054BE:  CALL   196A
054C2:  BCF    FD8.1
054C4:  MOVFF  302,3FE
054C8:  MOVFF  301,3FD
054CC:  MOVFF  300,3FC
054D0:  MOVFF  2FF,3FB
054D4:  MOVFF  03,402
054D8:  MOVFF  02,401
054DC:  MOVFF  01,400
054E0:  MOVFF  00,3FF
054E4:  CALL   196A
054E8:  MOVFF  03,302
054EC:  MOVFF  02,301
054F0:  MOVFF  01,300
054F4:  MOVFF  00,2FF
054F8:  MOVLB  3
....................                } 
....................             } 
....................          } 
....................       }else{ 
054FA:  BRA    5502
054FC:  MOVLB  0
....................          flagTC=0; 
054FE:  MOVLB  3
05500:  BCF    x4A.2
....................       } 
....................    } 
....................     
....................    if(error<-0.3) 
05502:  MOVFF  2F2,3F1
05506:  MOVFF  2F1,3F0
0550A:  MOVFF  2F0,3EF
0550E:  MOVFF  2EF,3EE
05512:  MOVLW  9A
05514:  MOVLB  3
05516:  MOVWF  xF5
05518:  MOVLW  99
0551A:  MOVWF  xF4
0551C:  MOVWF  xF3
0551E:  MOVLW  7D
05520:  MOVWF  xF2
05522:  MOVLB  0
05524:  CALL   29F4
05528:  BNC   553A
....................       Ganancia=Ganancia2; 
0552A:  MOVFF  306,302
0552E:  MOVFF  305,301
05532:  MOVFF  304,300
05536:  MOVFF  303,2FF
....................     
....................    if(Ganancia<1) 
0553A:  MOVFF  302,3F1
0553E:  MOVFF  301,3F0
05542:  MOVFF  300,3EF
05546:  MOVFF  2FF,3EE
0554A:  MOVLB  3
0554C:  CLRF   xF5
0554E:  CLRF   xF4
05550:  CLRF   xF3
05552:  MOVLW  7F
05554:  MOVWF  xF2
05556:  MOVLB  0
05558:  CALL   29F4
0555C:  BNC   556C
....................       Ganancia=1; 
0555E:  MOVLB  3
05560:  CLRF   x02
05562:  CLRF   x01
05564:  CLRF   x00
05566:  MOVLW  7F
05568:  MOVLB  2
0556A:  MOVWF  xFF
....................     
....................    if(error<0.0)     // Anti Wind_DOWN     
0556C:  MOVFF  2F2,3F1
05570:  MOVFF  2F1,3F0
05574:  MOVFF  2F0,3EF
05578:  MOVFF  2EF,3EE
0557C:  MOVLB  3
0557E:  CLRF   xF5
05580:  CLRF   xF4
05582:  CLRF   xF3
05584:  CLRF   xF2
05586:  MOVLB  0
05588:  CALL   29F4
0558C:  BNC   559A
....................       error=0.0; 
0558E:  MOVLB  2
05590:  CLRF   xF2
05592:  CLRF   xF1
05594:  CLRF   xF0
05596:  CLRF   xEF
05598:  MOVLB  0
....................    //tmp=(Setpoint-Prom)*Ganancia;  // Control Proporcional. 
....................    tmp=error*Ganancia;  // Control Proporcional. 
0559A:  MOVFF  2F2,402
0559E:  MOVFF  2F1,401
055A2:  MOVFF  2F0,400
055A6:  MOVFF  2EF,3FF
055AA:  MOVFF  302,406
055AE:  MOVFF  301,405
055B2:  MOVFF  300,404
055B6:  MOVFF  2FF,403
055BA:  CALL   3622
055BE:  MOVFF  03,2FE
055C2:  MOVFF  02,2FD
055C6:  MOVFF  01,2FC
055CA:  MOVFF  00,2FB
....................           
....................    if(tmp>Setpoint)   // Anti Wind-UP       
055CE:  MOVLB  3
055D0:  CLRF   xFC
055D2:  MOVFF  35C,3FB
055D6:  MOVLB  0
055D8:  CALL   17D6
055DC:  MOVFF  03,3F1
055E0:  MOVFF  02,3F0
055E4:  MOVFF  01,3EF
055E8:  MOVFF  00,3EE
055EC:  MOVFF  2FE,3F5
055F0:  MOVFF  2FD,3F4
055F4:  MOVFF  2FC,3F3
055F8:  MOVFF  2FB,3F2
055FC:  CALL   29F4
05600:  BNC   5620
....................       tmp=Setpoint; 
05602:  MOVLB  3
05604:  CLRF   xFC
05606:  MOVFF  35C,3FB
0560A:  MOVLB  0
0560C:  CALL   17D6
05610:  MOVFF  03,2FE
05614:  MOVFF  02,2FD
05618:  MOVFF  01,2FC
0561C:  MOVFF  00,2FB
....................                 
....................    if(tmp<0.0)     // Anti Wind_DOWN     
05620:  MOVFF  2FE,3F1
05624:  MOVFF  2FD,3F0
05628:  MOVFF  2FC,3EF
0562C:  MOVFF  2FB,3EE
05630:  MOVLB  3
05632:  CLRF   xF5
05634:  CLRF   xF4
05636:  CLRF   xF3
05638:  CLRF   xF2
0563A:  MOVLB  0
0563C:  CALL   29F4
05640:  BNC   564C
....................       tmp=0.0; 
05642:  MOVLB  2
05644:  CLRF   xFE
05646:  CLRF   xFD
05648:  CLRF   xFC
0564A:  CLRF   xFB
....................     
....................    // Tpulso(t)= Tciclo*(y(t)-ymin)/(ymax - ymin); calculo de ciclo util para control de resistencia.ymax=140.ymin=0; 
....................    // Tpulso es float, hay que pasar ese ciclo a una salida de un puerto usando el TMR1. 
....................    tmp2=(tmp/Setpoint); 
0564C:  MOVLB  3
0564E:  CLRF   xFC
05650:  MOVFF  35C,3FB
05654:  MOVLB  0
05656:  CALL   17D6
0565A:  MOVFF  2FE,3EE
0565E:  MOVFF  2FD,3ED
05662:  MOVFF  2FC,3EC
05666:  MOVFF  2FB,3EB
0566A:  MOVFF  03,3F2
0566E:  MOVFF  02,3F1
05672:  MOVFF  01,3F0
05676:  MOVFF  00,3EF
0567A:  CALL   180C
0567E:  MOVFF  03,30E
05682:  MOVFF  02,30D
05686:  MOVFF  01,30C
0568A:  MOVFF  00,30B
....................    //if(tmp2>0.8) 
....................    //tmp2=0.8; 
....................    Tpulso=tmp2*Tciclo;   
0568E:  MOVFF  30E,402
05692:  MOVFF  30D,401
05696:  MOVFF  30C,400
0569A:  MOVFF  30B,3FF
0569E:  MOVFF  2EA,406
056A2:  MOVFF  2E9,405
056A6:  MOVFF  2E8,404
056AA:  MOVFF  2E7,403
056AE:  CALL   3622
056B2:  MOVFF  03,2EE
056B6:  MOVFF  02,2ED
056BA:  MOVFF  01,2EC
056BE:  MOVFF  00,2EB
....................                                        
....................    Tp=(Tpulso/0.005); 
056C2:  MOVFF  2EE,3EE
056C6:  MOVFF  2ED,3ED
056CA:  MOVFF  2EC,3EC
056CE:  MOVFF  2EB,3EB
056D2:  MOVLW  0A
056D4:  MOVLB  3
056D6:  MOVWF  xF2
056D8:  MOVLW  D7
056DA:  MOVWF  xF1
056DC:  MOVLW  23
056DE:  MOVWF  xF0
056E0:  MOVLW  77
056E2:  MOVWF  xEF
056E4:  MOVLB  0
056E6:  CALL   180C
056EA:  MOVFF  03,3FE
056EE:  MOVFF  02,3FD
056F2:  MOVFF  01,3FC
056F6:  MOVFF  00,3FB
056FA:  CALL   3C6E
056FE:  MOVFF  02,AB
05702:  MOVFF  01,AA
....................    Tc=(Tciclo/0.005); 
05706:  MOVFF  2EA,3EE
0570A:  MOVFF  2E9,3ED
0570E:  MOVFF  2E8,3EC
05712:  MOVFF  2E7,3EB
05716:  MOVLW  0A
05718:  MOVLB  3
0571A:  MOVWF  xF2
0571C:  MOVLW  D7
0571E:  MOVWF  xF1
05720:  MOVLW  23
05722:  MOVWF  xF0
05724:  MOVLW  77
05726:  MOVWF  xEF
05728:  MOVLB  0
0572A:  CALL   180C
0572E:  MOVFF  03,3FE
05732:  MOVFF  02,3FD
05736:  MOVFF  01,3FC
0573A:  MOVFF  00,3FB
0573E:  CALL   3C6E
05742:  MOVFF  02,AD
05746:  MOVFF  01,AC
....................    Controlando=1;    
0574A:  MOVLW  01
0574C:  MOVLB  3
0574E:  MOVWF  x4D
.................... //--------------------------------------------------------------------------------------------------------------------//    
.................... } 
05750:  MOVLB  0
05752:  RETLW  00
....................  
....................  
....................  
.................... #int_rda HIGH 
.................... void serial_rx_isr(){ 
....................  
....................    Dato2=fgetc(); 
*
00204:  BTFSS  F9E.5
00206:  BRA    0204
00208:  MOVFF  FAE,353
0020C:  MOVLB  3
....................    if(Dato2==0x65){//Inicio Comunicacion 
0020E:  MOVF   x53,W
00210:  SUBLW  65
00212:  BNZ   021A
....................       Inicio=1; 
00214:  MOVLW  01
00216:  MOVWF  x51
....................       RX_Wr_Index =0; 
00218:  CLRF   46
....................    } 
....................    //Inicio=1; 
....................    if(Inicio==1){ 
0021A:  DECFSZ x51,W
0021C:  BRA    0232
....................       Rx_Buffer2[RX_Wr_Index] = Dato2; 
0021E:  CLRF   03
00220:  MOVF   46,W
00222:  ADDLW  3B
00224:  MOVWF  FE9
00226:  MOVLW  00
00228:  ADDWFC 03,W
0022A:  MOVWF  FEA
0022C:  MOVFF  353,FEF
....................       RX_Wr_Index++; 
00230:  INCF   46,F
....................    } 
....................    if(RX_Wr_Index >= RX_BUFFER_SIZE){ 
00232:  MOVF   46,W
00234:  SUBLW  09
00236:  BC    023C
....................       RX_Wr_Index =0; 
00238:  CLRF   46
....................       Inicio=0; 
0023A:  CLRF   x51
....................    } 
....................  
....................    if(RX_Wr_Index==0){ 
0023C:  MOVF   46,F
0023E:  BNZ   0260
....................       if(Rx_Buffer2[0]==0x65 && Rx_Buffer2[1]==0xff && Rx_Buffer2[2]==0xff && Rx_Buffer2[8]==0x00 && Rx_Buffer2[9]==0xff ){ 
00240:  MOVF   3B,W
00242:  SUBLW  65
00244:  BNZ   025C
00246:  INCFSZ 3C,W
00248:  BRA    025C
0024A:  INCFSZ 3D,W
0024C:  BRA    025C
0024E:  MOVF   43,F
00250:  BNZ   025C
00252:  INCFSZ 44,W
00254:  BRA    025C
....................          Dato_Exitoso=5; 
00256:  MOVLW  05
00258:  MOVWF  x52
....................       }else{ 
0025A:  BRA    0260
....................          Dato_Exitoso=10; 
0025C:  MOVLW  0A
0025E:  MOVWF  x52
....................       } 
....................    } 
....................    //Dato_Exitoso=5; 
....................    if(Menu==20) 
00260:  MOVF   x55,W
00262:  SUBLW  14
00264:  BNZ   026A
....................      Buzzer_on; 
00266:  BSF    F8C.0
00268:  BCF    F95.0
.................... } 
....................  
0026A:  BCF    F9E.5
0026C:  MOVLB  0
0026E:  GOTO   010A
.................... #int_TIMER0 
.................... void temp0s(void){ 
....................    set_timer0(0); 
00272:  CLRF   FD7
00274:  CLRF   FD6
....................    t_exhaust++; 
00276:  MOVLB  3
00278:  INCF   x86,F
0027A:  BTFSC  FD8.2
0027C:  INCF   x87,F
....................    if(DesfogueSuave) 
0027E:  MOVLB  0
00280:  BTFSS  xA0.6
00282:  BRA    02C4
....................    { 
....................       if(Nivel<6) 
00284:  MOVLB  3
00286:  MOVF   x6B,F
00288:  BNZ   02BE
0028A:  MOVF   x6A,W
0028C:  SUBLW  05
0028E:  BNC   02BE
....................       { 
....................          if(t_exhaust<=NivelSeleccionado) // Si el tiempo es menor o igual al tiempo de control se enciende la resistencia de lo contrario se apaga. 
00290:  MOVF   x87,W
00292:  SUBWF  x75,W
00294:  BNC   02A4
00296:  BNZ   029E
00298:  MOVF   x86,W
0029A:  SUBWF  x74,W
0029C:  BNC   02A4
....................          { 
....................             Desfogue_on; 
0029E:  BSF    F8C.4
002A0:  BCF    F95.4
....................          }else{             
002A2:  BRA    02A8
....................             Desfogue_off; 
002A4:  BCF    F8C.4
002A6:  BCF    F95.4
....................          }    
....................        
....................          if(t_exhaust>=60000) // Si el tiempo de control es mayor al tiempo de ciclo se reinicia tiempo de control 
002A8:  MOVF   x87,W
002AA:  SUBLW  E9
002AC:  BC    02BC
002AE:  XORLW  FF
002B0:  BNZ   02B8
002B2:  MOVF   x86,W
002B4:  SUBLW  5F
002B6:  BC    02BC
....................          { 
....................             t_exhaust=0; 
002B8:  CLRF   x87
002BA:  CLRF   x86
....................          } // tiempoctrl incrementa una unidad cada Xms, por eso se dividen los tiempos por 0.005. 
....................       } 
....................       else 
002BC:  BRA    02C2
....................       { 
....................          Desfogue_on; 
002BE:  BSF    F8C.4
002C0:  BCF    F95.4
002C2:  MOVLB  0
....................       } 
....................    }   
.................... } 
....................  
002C4:  BCF    FF2.2
002C6:  GOTO   0074
.................... #int_TIMER1 
.................... void temp1s(void){ 
....................    set_timer1(40536); // Se repite cada 5ms 
002CA:  MOVLW  9E
002CC:  MOVWF  FCF
002CE:  MOVLW  58
002D0:  MOVWF  FCE
....................    tiempos++; 
002D2:  MOVLB  3
002D4:  INCF   x62,F
002D6:  BTFSC  FD8.2
002D8:  INCF   x63,F
....................    tiempos2++; 
002DA:  INCF   x64,F
002DC:  BTFSC  FD8.2
002DE:  INCF   x65,F
....................    tiempos3++; 
002E0:  INCF   x66,F
002E2:  BTFSC  FD8.2
002E4:  INCF   x67,F
....................    tiempoctrl++; 
002E6:  INCF   x68,F
002E8:  BTFSC  FD8.2
002EA:  INCF   x69,F
....................     
....................    if(flagAlarma) 
002EC:  MOVLB  0
002EE:  BTFSS  xA2.6
002F0:  BRA    02FC
....................       tbuzzer++; 
002F2:  MOVLB  3
002F4:  INCF   x88,F
002F6:  BTFSC  FD8.2
002F8:  INCF   x89,F
002FA:  MOVLB  0
....................        
....................    if(flagSilencio)    
002FC:  BTFSS  xA3.0
002FE:  BRA    0308
....................       tsilencio++; 
00300:  MOVLB  3
00302:  INCF   x8A,F
00304:  BTFSC  FD8.2
00306:  INCF   x8B,F
....................     
....................    if(Controlando==1){ 
00308:  MOVLB  3
0030A:  DECFSZ x4D,W
0030C:  BRA    034A
....................       if(tiempoctrl<Tp) // Si el tiempo es menor o igual al tiempo de control se enciende la resistencia de lo contrario se apaga. 
0030E:  MOVF   x69,W
00310:  MOVLB  0
00312:  SUBWF  xAB,W
00314:  BNC   032E
00316:  BNZ   0328
00318:  MOVF   xAA,W
0031A:  MOVLB  3
0031C:  SUBWF  x68,W
0031E:  BTFSS  FD8.0
00320:  BRA    0326
00322:  MOVLB  0
00324:  BRA    032E
00326:  MOVLB  0
....................       { 
....................          SSR_on; 
00328:  BCF    F8B.2
0032A:  BCF    F94.2
....................       } 
....................       else          
0032C:  BRA    0332
....................       { 
....................          SSR_off; 
0032E:  BSF    F8B.2
00330:  BCF    F94.2
....................       } 
....................              
....................       if(tiempoctrl>=Tc) // Si el tiempo de control es mayor al tiempo de ciclo se reinicia tiempo de control 
00332:  MOVF   xAD,W
00334:  MOVLB  3
00336:  SUBWF  x69,W
00338:  BNC   034A
0033A:  BNZ   0346
0033C:  MOVLB  0
0033E:  MOVF   xAC,W
00340:  MOVLB  3
00342:  SUBWF  x68,W
00344:  BNC   034A
....................       { 
....................          tiempoctrl=0; 
00346:  CLRF   x69
00348:  CLRF   x68
....................       } // tiempoctrl incrementa una unidad cada 5ms, por eso se dividen los tiempos por 0.005. 
....................    } 
....................     
....................    if(tiempos>=200)  // 12000 para que incremente cada minuto, 200para que incremente cada segundo. 
0034A:  MOVF   x63,F
0034C:  BNZ   0356
0034E:  MOVF   x62,W
00350:  SUBLW  C7
00352:  BTFSC  FD8.0
00354:  BRA    0468
....................    { 
....................       if(flagTC) 
00356:  BTFSS  x4A.2
00358:  BRA    035C
....................          TiempoControl++; 
0035A:  INCF   x82,F
....................        
....................       tiemporecta++; 
0035C:  INCF   x4C,F
....................        
....................       if(IniciaCiclo && tiempoImpresion<CalculoImpresion){ 
0035E:  MOVLB  0
00360:  BTFSS  xA0.1
00362:  BRA    0376
00364:  MOVLB  3
00366:  MOVF   x50,W
00368:  SUBWF  x61,W
0036A:  BTFSS  FD8.0
0036C:  BRA    0372
0036E:  MOVLB  0
00370:  BRA    0376
....................          tiempoImpresion++; 
00372:  INCF   x61,F
....................       }else if(tiempoImpresion>=CalculoImpresion){ 
00374:  BRA    0382
00376:  MOVLB  3
00378:  MOVF   x50,W
0037A:  SUBWF  x61,W
0037C:  BNC   0382
....................          flagImprime=1; 
0037E:  BSF    x4A.3
....................          tiempoImpresion=0; 
00380:  CLRF   x61
....................       } 
....................        
....................       if(IniciaCiclo && !Esterilizando){ 
00382:  MOVLB  0
00384:  BTFSS  xA0.1
00386:  BRA    0392
00388:  BTFSC  xA0.2
0038A:  BRA    0392
....................          TiempoCiclo++; 
0038C:  INCF   xA4,F
0038E:  BTFSC  FD8.2
00390:  INCF   xA5,F
....................       } 
....................        
....................       if(IniciaLlenado && !CalderinLleno){ 
00392:  BTFSS  x9F.7
00394:  BRA    03A0
00396:  BTFSC  xA0.0
00398:  BRA    03A0
....................          TiempoLlenado++; 
0039A:  INCF   xA6,F
0039C:  BTFSC  FD8.2
0039E:  INCF   xA7,F
....................       } 
....................        
....................       if(SensadoNivel){ 
003A0:  BTFSS  xA0.4
003A2:  BRA    03AA
....................          TiempoSensadoNivel++; 
003A4:  INCF   xA8,F
003A6:  BTFSC  FD8.2
003A8:  INCF   xA9,F
....................       } 
....................        
....................       tiempos=0;Lectura=1;tinicio++; 
003AA:  MOVLB  3
003AC:  CLRF   x63
003AE:  CLRF   x62
003B0:  MOVLB  0
003B2:  BSF    xA3.7
003B4:  MOVLB  3
003B6:  INCF   x6C,F
003B8:  BTFSC  FD8.2
003BA:  INCF   x6D,F
....................     
....................       if(Esterilizando && !Desfogando){                
003BC:  MOVLB  0
003BE:  BTFSS  xA0.2
003C0:  BRA    0414
003C2:  BTFSC  xA0.5
003C4:  BRA    0414
....................          if(Testerilizacion[0]>0){ 
003C6:  BTFSC  xAE.7
003C8:  BRA    03D4
003CA:  MOVF   xAE,W
003CC:  SUBLW  00
003CE:  BC    03D4
....................             Testerilizacion[0]--; 
003D0:  DECF   xAE,F
....................          }else if(Testerilizacion[1]>0){ 
003D2:  BRA    0414
003D4:  BTFSC  xAF.7
003D6:  BRA    03E6
003D8:  MOVF   xAF,W
003DA:  SUBLW  00
003DC:  BC    03E6
....................             Testerilizacion[1]--; 
003DE:  DECF   xAF,F
....................             Testerilizacion[0]=9; 
003E0:  MOVLW  09
003E2:  MOVWF  xAE
....................          }else if(Testerilizacion[2]>0){ 
003E4:  BRA    0414
003E6:  BTFSC  xB0.7
003E8:  BRA    03FC
003EA:  MOVF   xB0,W
003EC:  SUBLW  00
003EE:  BC    03FC
....................             Testerilizacion[2]--; 
003F0:  DECF   xB0,F
....................             Testerilizacion[1]=5; 
003F2:  MOVLW  05
003F4:  MOVWF  xAF
....................             Testerilizacion[0]=9; 
003F6:  MOVLW  09
003F8:  MOVWF  xAE
....................          }else if(Testerilizacion[3]>0){ 
003FA:  BRA    0414
003FC:  BTFSC  xB1.7
003FE:  BRA    0414
00400:  MOVF   xB1,W
00402:  SUBLW  00
00404:  BC    0414
....................             Testerilizacion[3]--; 
00406:  DECF   xB1,F
....................             Testerilizacion[2]=9; 
00408:  MOVLW  09
0040A:  MOVWF  xB0
....................             Testerilizacion[1]=5; 
0040C:  MOVLW  05
0040E:  MOVWF  xAF
....................             Testerilizacion[0]=9; 
00410:  MOVLW  09
00412:  MOVWF  xAE
....................          } 
....................       } 
....................        
....................       if(Secando){ 
00414:  BTFSS  xA0.3
00416:  BRA    0466
....................          if(Tsecado[0]>0){ 
00418:  BTFSC  xB8.7
0041A:  BRA    0426
0041C:  MOVF   xB8,W
0041E:  SUBLW  00
00420:  BC    0426
....................             Tsecado[0]--; 
00422:  DECF   xB8,F
....................          }else if(Tsecado[1]>0){ 
00424:  BRA    0466
00426:  BTFSC  xB9.7
00428:  BRA    0438
0042A:  MOVF   xB9,W
0042C:  SUBLW  00
0042E:  BC    0438
....................             Tsecado[1]--; 
00430:  DECF   xB9,F
....................             Tsecado[0]=9; 
00432:  MOVLW  09
00434:  MOVWF  xB8
....................          }else if(Tsecado[2]>0){ 
00436:  BRA    0466
00438:  BTFSC  xBA.7
0043A:  BRA    044E
0043C:  MOVF   xBA,W
0043E:  SUBLW  00
00440:  BC    044E
....................             Tsecado[2]--; 
00442:  DECF   xBA,F
....................             Tsecado[1]=5; 
00444:  MOVLW  05
00446:  MOVWF  xB9
....................             Tsecado[0]=9; 
00448:  MOVLW  09
0044A:  MOVWF  xB8
....................          }else if(Tsecado[3]>0){ 
0044C:  BRA    0466
0044E:  BTFSC  xBB.7
00450:  BRA    0466
00452:  MOVF   xBB,W
00454:  SUBLW  00
00456:  BC    0466
....................             Tsecado[3]--; 
00458:  DECF   xBB,F
....................             Tsecado[2]=9; 
0045A:  MOVLW  09
0045C:  MOVWF  xBA
....................             Tsecado[1]=5; 
0045E:  MOVLW  05
00460:  MOVWF  xB9
....................             Tsecado[0]=9; 
00462:  MOVLW  09
00464:  MOVWF  xB8
00466:  MOVLB  3
....................          } 
....................       } 
....................    } 
.................... } 
....................  
00468:  BCF    F9E.0
0046A:  MOVLB  0
0046C:  GOTO   0074
.................... void main() 
.................... { 
*
05754:  CLRF   FF8
05756:  BCF    FF1.2
05758:  BCF    F9F.0
0575A:  BSF    F9F.5
0575C:  BSF    FD0.7
0575E:  BSF    07.7
05760:  CLRF   FEA
05762:  CLRF   FE9
05764:  BSF    FB8.3
05766:  MOVLW  08
05768:  MOVWF  FAF
0576A:  MOVLW  02
0576C:  MOVWF  FB0
0576E:  MOVLW  A6
05770:  MOVWF  FAC
05772:  MOVLW  90
05774:  MOVWF  FAB
05776:  CLRF   46
05778:  CLRF   47
0577A:  CLRF   48
0577C:  CLRF   x62
0577E:  CLRF   x63
05780:  CLRF   x84
05782:  CLRF   x85
05784:  CLRF   x86
05786:  BCF    x9F.0
05788:  BCF    x9F.1
0578A:  BCF    x9F.2
0578C:  BCF    x9F.3
0578E:  BCF    x9F.4
05790:  BCF    x9F.5
05792:  BCF    x9F.6
05794:  BCF    x9F.7
05796:  BCF    xA0.0
05798:  BCF    xA0.1
0579A:  BCF    xA0.2
0579C:  BCF    xA0.3
0579E:  BCF    xA0.4
057A0:  BCF    xA0.5
057A2:  BCF    xA0.6
057A4:  BCF    xA0.7
057A6:  BCF    xA1.0
057A8:  BCF    xA1.1
057AA:  BCF    xA1.2
057AC:  BCF    xA1.3
057AE:  BCF    xA1.4
057B0:  BCF    xA1.5
057B2:  BCF    xA1.6
057B4:  BCF    xA1.7
057B6:  BCF    xA2.0
057B8:  BCF    xA2.1
057BA:  BCF    xA2.2
057BC:  BCF    xA2.3
057BE:  BCF    xA2.4
057C0:  BCF    xA2.5
057C2:  BCF    xA2.6
057C4:  BCF    xA2.7
057C6:  BCF    xA3.0
057C8:  BCF    xA3.1
057CA:  BCF    xA3.2
057CC:  BCF    xA3.3
057CE:  BCF    xA3.4
057D0:  BCF    xA3.5
057D2:  CLRF   xA5
057D4:  CLRF   xA4
057D6:  CLRF   xA7
057D8:  CLRF   xA6
057DA:  CLRF   xA9
057DC:  CLRF   xA8
057DE:  CLRF   xAB
057E0:  CLRF   xAA
057E2:  CLRF   xAD
057E4:  CLRF   xAC
057E6:  MOVLW  9A
057E8:  MOVLB  2
057EA:  MOVWF  xA3
057EC:  MOVLW  99
057EE:  MOVWF  xA2
057F0:  MOVLW  0D
057F2:  MOVWF  xA1
057F4:  MOVLW  86
057F6:  MOVWF  xA0
057F8:  CLRF   xA7
057FA:  CLRF   xA6
057FC:  CLRF   xA5
057FE:  MOVLW  7E
05800:  MOVWF  xA4
05802:  CLRF   xAB
05804:  CLRF   xAA
05806:  CLRF   xA9
05808:  CLRF   xA8
0580A:  CLRF   xAF
0580C:  CLRF   xAE
0580E:  MOVLW  48
05810:  MOVWF  xAD
05812:  MOVLW  85
05814:  MOVWF  xAC
05816:  CLRF   xB3
05818:  MOVLW  D0
0581A:  MOVWF  xB2
0581C:  MOVLW  54
0581E:  MOVWF  xB1
05820:  MOVLW  8B
05822:  MOVWF  xB0
05824:  CLRF   xC7
05826:  CLRF   xC6
05828:  CLRF   xC5
0582A:  CLRF   xC4
0582C:  CLRF   xCB
0582E:  CLRF   xCA
05830:  CLRF   xC9
05832:  CLRF   xC8
05834:  CLRF   xCF
05836:  CLRF   xCE
05838:  CLRF   xCD
0583A:  CLRF   xCC
0583C:  CLRF   xD3
0583E:  CLRF   xD2
05840:  CLRF   xD1
05842:  CLRF   xD0
05844:  CLRF   xD4
05846:  CLRF   xD5
05848:  CLRF   xD6
0584A:  CLRF   xD7
0584C:  MOVLW  14
0584E:  MOVWF  xD8
05850:  CLRF   xD9
05852:  CLRF   xDA
05854:  CLRF   xDB
05856:  CLRF   xDC
05858:  CLRF   xDD
0585A:  MOVLW  49
0585C:  MOVWF  xDE
0585E:  CLRF   xE2
05860:  CLRF   xE1
05862:  CLRF   xE0
05864:  CLRF   xDF
05866:  CLRF   xEA
05868:  CLRF   xE9
0586A:  MOVLW  20
0586C:  MOVWF  xE8
0586E:  MOVLW  82
05870:  MOVWF  xE7
05872:  CLRF   xEE
05874:  CLRF   xED
05876:  CLRF   xEC
05878:  CLRF   xEB
0587A:  CLRF   xF2
0587C:  CLRF   xF1
0587E:  CLRF   xF0
05880:  CLRF   xEF
05882:  CLRF   xF6
05884:  CLRF   xF5
05886:  CLRF   xF4
05888:  CLRF   xF3
0588A:  CLRF   xFA
0588C:  CLRF   xF9
0588E:  CLRF   xF8
05890:  CLRF   xF7
05892:  CLRF   xFE
05894:  CLRF   xFD
05896:  CLRF   xFC
05898:  CLRF   xFB
0589A:  MOVLB  3
0589C:  CLRF   x02
0589E:  CLRF   x01
058A0:  MOVLW  48
058A2:  MOVWF  x00
058A4:  MOVLW  83
058A6:  MOVLB  2
058A8:  MOVWF  xFF
058AA:  MOVLB  3
058AC:  CLRF   x06
058AE:  CLRF   x05
058B0:  MOVLW  20
058B2:  MOVWF  x04
058B4:  MOVLW  83
058B6:  MOVWF  x03
058B8:  CLRF   x0A
058BA:  CLRF   x09
058BC:  CLRF   x08
058BE:  MOVLW  7F
058C0:  MOVWF  x07
058C2:  CLRF   x0E
058C4:  CLRF   x0D
058C6:  CLRF   x0C
058C8:  CLRF   x0B
058CA:  CLRF   x12
058CC:  CLRF   x11
058CE:  CLRF   x10
058D0:  CLRF   x0F
058D2:  CLRF   x16
058D4:  CLRF   x15
058D6:  CLRF   x14
058D8:  CLRF   x13
058DA:  CLRF   x1A
058DC:  CLRF   x19
058DE:  CLRF   x18
058E0:  CLRF   x17
058E2:  CLRF   x1E
058E4:  CLRF   x1D
058E6:  CLRF   x1C
058E8:  CLRF   x1B
058EA:  CLRF   x22
058EC:  CLRF   x21
058EE:  CLRF   x20
058F0:  CLRF   x1F
058F2:  MOVLW  4A
058F4:  MOVWF  x26
058F6:  MOVLW  88
058F8:  MOVWF  x25
058FA:  MOVLW  28
058FC:  MOVWF  x24
058FE:  MOVLW  75
05900:  MOVWF  x23
05902:  MOVLW  E0
05904:  MOVWF  x2A
05906:  MOVLW  2D
05908:  MOVWF  x29
0590A:  MOVLW  10
0590C:  MOVWF  x28
0590E:  MOVLW  75
05910:  MOVWF  x27
05912:  MOVLW  FF
05914:  MOVWF  x2E
05916:  MOVLW  21
05918:  MOVWF  x2D
0591A:  MOVLW  15
0591C:  MOVWF  x2C
0591E:  MOVLW  80
05920:  MOVWF  x2B
05922:  MOVLW  82
05924:  MOVWF  x32
05926:  MOVLW  12
05928:  MOVWF  x31
0592A:  MOVLW  F4
0592C:  MOVWF  x30
0592E:  MOVLW  86
05930:  MOVWF  x2F
05932:  CLRF   x33
05934:  CLRF   x34
05936:  CLRF   x35
05938:  MOVLW  B5
0593A:  MOVWF  x39
0593C:  MOVLW  EB
0593E:  MOVWF  x38
05940:  MOVLW  1B
05942:  MOVWF  x37
05944:  MOVLW  6B
05946:  MOVWF  x36
05948:  MOVLW  D0
0594A:  MOVWF  x3D
0594C:  MOVLW  9B
0594E:  MOVWF  x3C
05950:  MOVLW  8A
05952:  MOVWF  x3B
05954:  MOVLW  75
05956:  MOVWF  x3A
05958:  MOVLW  1A
0595A:  MOVWF  x41
0595C:  MOVLW  DD
0595E:  MOVWF  x40
05960:  MOVLW  61
05962:  MOVWF  x3F
05964:  MOVLW  7D
05966:  MOVWF  x3E
05968:  MOVLW  04
0596A:  MOVWF  x45
0596C:  MOVLW  16
0596E:  MOVWF  x44
05970:  MOVLW  02
05972:  MOVWF  x43
05974:  MOVLW  85
05976:  MOVWF  x42
05978:  CLRF   x49
0597A:  CLRF   x48
0597C:  CLRF   x47
0597E:  CLRF   x46
05980:  MOVLB  0
05982:  BCF    xA3.6
05984:  BCF    xA3.7
05986:  MOVLB  3
05988:  BCF    x4A.0
0598A:  BCF    x4A.1
0598C:  BCF    x4A.2
0598E:  BCF    x4A.3
05990:  BCF    x4A.4
05992:  CLRF   x4B
05994:  CLRF   x4C
05996:  CLRF   x4D
05998:  MOVLW  01
0599A:  MOVWF  x4E
0599C:  MOVLW  02
0599E:  MOVWF  x4F
059A0:  CLRF   x50
059A2:  MOVLW  01
059A4:  MOVWF  x51
059A6:  CLRF   x52
059A8:  CLRF   x53
059AA:  CLRF   x54
059AC:  CLRF   x55
059AE:  CLRF   x56
059B0:  MOVLW  F0
059B2:  MOVWF  x57
059B4:  CLRF   x58
059B6:  CLRF   x59
059B8:  CLRF   x5A
059BA:  CLRF   x5B
059BC:  CLRF   x5C
059BE:  MOVLW  01
059C0:  MOVWF  x5D
059C2:  MOVWF  x5E
059C4:  CLRF   x5F
059C6:  CLRF   x60
059C8:  CLRF   x61
059CA:  CLRF   x63
059CC:  CLRF   x62
059CE:  CLRF   x65
059D0:  CLRF   x64
059D2:  CLRF   x67
059D4:  CLRF   x66
059D6:  CLRF   x69
059D8:  CLRF   x68
059DA:  CLRF   x6B
059DC:  CLRF   x6A
059DE:  CLRF   x6D
059E0:  CLRF   x6C
059E2:  CLRF   x6F
059E4:  CLRF   x6E
059E6:  CLRF   x71
059E8:  CLRF   x70
059EA:  CLRF   x73
059EC:  CLRF   x72
059EE:  CLRF   x75
059F0:  CLRF   x74
059F2:  CLRF   x7E
059F4:  CLRF   x7F
059F6:  CLRF   x80
059F8:  CLRF   x81
059FA:  CLRF   x82
059FC:  CLRF   x83
059FE:  CLRF   x84
05A00:  CLRF   x85
05A02:  CLRF   x87
05A04:  CLRF   x86
05A06:  CLRF   x89
05A08:  CLRF   x88
05A0A:  CLRF   x8B
05A0C:  CLRF   x8A
05A0E:  MOVLW  12
05A10:  MOVWF  x8C
05A12:  MOVLW  09
05A14:  MOVWF  x8D
05A16:  MOVLW  0D
05A18:  MOVWF  x8E
05A1A:  CLRF   x8F
05A1C:  CLRF   x90
05A1E:  CLRF   x91
05A20:  CLRF   x92
05A22:  CLRF   x93
05A24:  CLRF   x94
05A26:  CLRF   x95
05A28:  CLRF   x96
05A2A:  CLRF   x97
05A2C:  CLRF   x98
05A2E:  CLRF   x99
05A30:  CLRF   x9A
05A32:  CLRF   x9B
05A34:  CLRF   x9C
05A36:  CLRF   x9D
05A38:  CLRF   x9E
05A3A:  CLRF   x9F
05A3C:  MOVF   FC1,W
05A3E:  ANDLW  C0
05A40:  IORLW  0F
05A42:  MOVWF  FC1
05A44:  MOVLW  07
05A46:  MOVWF  FB4
05A48:  CLRF   2A
05A4A:  CLRF   2B
05A4C:  MOVLB  0
05A4E:  CLRF   x87
05A50:  MOVLW  03
05A52:  MOVWF  x88
05A54:  MOVWF  x89
05A56:  MOVLW  06
05A58:  MOVWF  x8A
05A5A:  MOVLW  01
05A5C:  MOVWF  x8B
05A5E:  MOVLW  04
05A60:  MOVWF  x8C
05A62:  MOVLW  06
05A64:  MOVWF  x8D
05A66:  MOVLW  02
05A68:  MOVWF  x8E
05A6A:  MOVLW  05
05A6C:  MOVWF  x8F
05A6E:  CLRF   x90
05A70:  MOVLW  03
05A72:  MOVWF  x91
05A74:  MOVLW  05
05A76:  MOVWF  x92
05A78:  CLRF   x93
05A7A:  MOVLW  03
05A7C:  MOVWF  x94
05A7E:  MOVLW  04
05A80:  MOVWF  x95
05A82:  CLRF   x96
05A84:  MOVLW  02
05A86:  MOVWF  x97
05A88:  MOVLW  05
05A8A:  MOVWF  x98
05A8C:  CLRF   x99
05A8E:  MOVLW  03
05A90:  MOVWF  x9A
05A92:  MOVLW  06
05A94:  MOVWF  x9B
05A96:  MOVLW  01
05A98:  MOVWF  x9C
05A9A:  MOVLW  04
05A9C:  MOVWF  x9D
05A9E:  MOVLW  06
05AA0:  MOVWF  x9E
05AA2:  CLRF   xAE
05AA4:  CLRF   xAF
05AA6:  CLRF   xB0
05AA8:  CLRF   xB1
05AAA:  CLRF   xB2
05AAC:  CLRF   xB3
05AAE:  CLRF   xB4
05AB0:  CLRF   xB5
05AB2:  CLRF   xB6
05AB4:  CLRF   xB7
05AB6:  CLRF   xB8
05AB8:  CLRF   xB9
05ABA:  CLRF   xBA
05ABC:  CLRF   xBB
05ABE:  CLRF   xBC
05AC0:  CLRF   xBD
05AC2:  CLRF   xBE
05AC4:  CLRF   xBF
05AC6:  CLRF   xC0
05AC8:  CLRF   xC1
05ACA:  CLRF   xC2
05ACC:  CLRF   xC3
05ACE:  CLRF   xC4
05AD0:  CLRF   xC5
05AD2:  CLRF   xC6
05AD4:  CLRF   xC7
05AD6:  CLRF   xC8
05AD8:  CLRF   xC9
05ADA:  CLRF   xCA
05ADC:  CLRF   xCB
05ADE:  CLRF   xCC
05AE0:  CLRF   xCD
05AE2:  CLRF   xCE
05AE4:  CLRF   xCF
05AE6:  CLRF   xD0
05AE8:  CLRF   xD1
05AEA:  CLRF   xD2
05AEC:  CLRF   xD3
05AEE:  CLRF   xD4
05AF0:  CLRF   xD5
05AF2:  CLRF   xD6
05AF4:  CLRF   xD7
05AF6:  CLRF   xD8
05AF8:  CLRF   xD9
05AFA:  CLRF   xDA
05AFC:  CLRF   xDB
05AFE:  CLRF   xDC
05B00:  CLRF   xDD
05B02:  CLRF   xDE
05B04:  CLRF   xDF
05B06:  CLRF   xE0
05B08:  CLRF   xE1
05B0A:  CLRF   xE2
05B0C:  CLRF   xE3
05B0E:  CLRF   xE4
05B10:  CLRF   xE5
05B12:  CLRF   xE6
05B14:  CLRF   xE7
05B16:  CLRF   xE8
05B18:  CLRF   xE9
05B1A:  CLRF   xEA
05B1C:  CLRF   xEB
05B1E:  CLRF   xEC
05B20:  CLRF   xED
05B22:  CLRF   xEE
05B24:  CLRF   xEF
05B26:  CLRF   xF0
05B28:  CLRF   xF1
05B2A:  CLRF   xF2
05B2C:  CLRF   xF3
05B2E:  CLRF   xF4
05B30:  CLRF   xF5
05B32:  CLRF   xF6
05B34:  CLRF   xF7
05B36:  CLRF   xF8
05B38:  CLRF   xF9
05B3A:  CLRF   xFA
05B3C:  CLRF   xFB
05B3E:  CLRF   xFC
05B40:  CLRF   xFD
05B42:  CLRF   xFE
05B44:  CLRF   xFF
05B46:  MOVLB  1
05B48:  CLRF   x00
05B4A:  CLRF   x01
05B4C:  CLRF   x02
05B4E:  CLRF   x03
05B50:  CLRF   x04
05B52:  CLRF   x05
05B54:  CLRF   x06
05B56:  CLRF   x07
05B58:  CLRF   x08
05B5A:  CLRF   x09
05B5C:  CLRF   x0A
05B5E:  CLRF   x0B
05B60:  CLRF   x0C
05B62:  CLRF   x0D
05B64:  CLRF   x0E
05B66:  CLRF   x0F
05B68:  CLRF   x10
05B6A:  CLRF   x11
05B6C:  CLRF   x12
05B6E:  CLRF   x13
05B70:  CLRF   x14
05B72:  CLRF   x15
05B74:  CLRF   x16
05B76:  CLRF   x17
05B78:  CLRF   x18
05B7A:  CLRF   x19
05B7C:  CLRF   x1A
05B7E:  CLRF   x1B
05B80:  CLRF   x1C
05B82:  CLRF   x1D
05B84:  CLRF   x1E
05B86:  CLRF   x1F
05B88:  CLRF   x20
05B8A:  CLRF   x21
05B8C:  CLRF   x22
05B8E:  CLRF   x23
05B90:  CLRF   x24
05B92:  CLRF   x25
05B94:  CLRF   x26
05B96:  CLRF   x27
05B98:  CLRF   x28
05B9A:  CLRF   x29
05B9C:  CLRF   x2A
05B9E:  CLRF   x2B
05BA0:  CLRF   x2C
05BA2:  CLRF   x2D
05BA4:  CLRF   x2E
05BA6:  CLRF   x2F
05BA8:  CLRF   x30
05BAA:  CLRF   x31
05BAC:  CLRF   x32
05BAE:  CLRF   x33
05BB0:  CLRF   x34
05BB2:  CLRF   x35
05BB4:  CLRF   x36
05BB6:  CLRF   x37
05BB8:  CLRF   x38
05BBA:  CLRF   x39
05BBC:  CLRF   x3A
05BBE:  CLRF   x3B
05BC0:  CLRF   x3C
05BC2:  CLRF   x3D
05BC4:  CLRF   x3E
05BC6:  CLRF   x3F
05BC8:  CLRF   x40
05BCA:  CLRF   x41
05BCC:  CLRF   x42
05BCE:  CLRF   x43
05BD0:  CLRF   x44
05BD2:  CLRF   x45
05BD4:  CLRF   x46
05BD6:  CLRF   x47
05BD8:  CLRF   x48
05BDA:  CLRF   x49
05BDC:  CLRF   x4A
05BDE:  CLRF   x4B
05BE0:  CLRF   x4C
05BE2:  CLRF   x4D
05BE4:  CLRF   x4E
05BE6:  CLRF   x4F
05BE8:  CLRF   x50
05BEA:  CLRF   x51
05BEC:  CLRF   x52
05BEE:  CLRF   x53
05BF0:  CLRF   x54
05BF2:  CLRF   x55
05BF4:  CLRF   x56
05BF6:  CLRF   x57
05BF8:  CLRF   x58
05BFA:  CLRF   x59
05BFC:  CLRF   x5A
05BFE:  CLRF   x5B
05C00:  CLRF   x5C
05C02:  CLRF   x5D
05C04:  CLRF   x5E
05C06:  CLRF   x5F
05C08:  CLRF   x60
05C0A:  CLRF   x61
05C0C:  CLRF   x62
05C0E:  CLRF   x63
05C10:  CLRF   x64
05C12:  CLRF   x65
05C14:  CLRF   x66
05C16:  CLRF   x67
05C18:  CLRF   x68
05C1A:  CLRF   x69
05C1C:  CLRF   x6A
05C1E:  CLRF   x6B
05C20:  CLRF   x6C
05C22:  CLRF   x6D
05C24:  CLRF   x6E
05C26:  CLRF   x6F
05C28:  CLRF   x70
05C2A:  CLRF   x71
05C2C:  CLRF   x72
05C2E:  CLRF   x73
05C30:  CLRF   x74
05C32:  CLRF   x75
05C34:  CLRF   x76
05C36:  CLRF   x77
05C38:  CLRF   x78
05C3A:  CLRF   x79
05C3C:  CLRF   x7A
05C3E:  CLRF   x7B
05C40:  CLRF   x7C
05C42:  CLRF   x7D
05C44:  CLRF   x7E
05C46:  CLRF   x7F
05C48:  CLRF   x80
05C4A:  CLRF   x81
05C4C:  CLRF   x82
05C4E:  CLRF   x83
05C50:  CLRF   x84
05C52:  CLRF   x85
05C54:  CLRF   x86
05C56:  CLRF   x87
05C58:  CLRF   x88
05C5A:  CLRF   x89
05C5C:  CLRF   x8A
05C5E:  CLRF   x8B
05C60:  CLRF   x8C
05C62:  CLRF   x8D
05C64:  CLRF   x8E
05C66:  CLRF   x8F
05C68:  CLRF   x90
05C6A:  CLRF   x91
05C6C:  CLRF   x92
05C6E:  CLRF   x93
05C70:  CLRF   x94
05C72:  CLRF   x95
05C74:  CLRF   x96
05C76:  CLRF   x97
05C78:  CLRF   x98
05C7A:  CLRF   x99
05C7C:  CLRF   x9A
05C7E:  CLRF   x9B
05C80:  CLRF   x9C
05C82:  CLRF   x9D
05C84:  CLRF   x9E
05C86:  CLRF   x9F
05C88:  CLRF   xA0
05C8A:  CLRF   xA1
05C8C:  CLRF   xA2
05C8E:  CLRF   xA3
05C90:  CLRF   xA4
05C92:  CLRF   xA5
05C94:  CLRF   xA6
05C96:  CLRF   xA7
05C98:  CLRF   xA8
05C9A:  CLRF   xA9
05C9C:  CLRF   xAA
05C9E:  CLRF   xAB
05CA0:  CLRF   xAC
05CA2:  CLRF   xAD
05CA4:  CLRF   xAE
05CA6:  CLRF   xAF
05CA8:  CLRF   xB0
05CAA:  CLRF   xB1
05CAC:  CLRF   xB2
05CAE:  CLRF   xB3
05CB0:  CLRF   xB4
05CB2:  CLRF   xB5
05CB4:  CLRF   xB6
05CB6:  CLRF   xB7
05CB8:  CLRF   xB8
05CBA:  CLRF   xB9
05CBC:  CLRF   xBA
05CBE:  CLRF   xBB
05CC0:  CLRF   xBC
05CC2:  CLRF   xBD
05CC4:  CLRF   xBE
05CC6:  CLRF   xBF
05CC8:  CLRF   xC0
05CCA:  CLRF   xC1
05CCC:  CLRF   xC2
05CCE:  CLRF   xC3
05CD0:  CLRF   xC4
05CD2:  CLRF   xC5
05CD4:  CLRF   xC6
05CD6:  CLRF   xC7
05CD8:  CLRF   xC8
05CDA:  CLRF   xC9
05CDC:  CLRF   xCA
05CDE:  CLRF   xCB
05CE0:  CLRF   xCC
05CE2:  CLRF   xCD
05CE4:  CLRF   xCE
05CE6:  CLRF   xCF
05CE8:  CLRF   xD0
05CEA:  CLRF   xD1
05CEC:  CLRF   xD2
05CEE:  CLRF   xD3
05CF0:  CLRF   xD4
05CF2:  CLRF   xD5
05CF4:  CLRF   xD6
05CF6:  CLRF   xD7
05CF8:  CLRF   xD8
05CFA:  CLRF   xD9
05CFC:  CLRF   xDA
05CFE:  CLRF   xDB
05D00:  CLRF   xDC
05D02:  CLRF   xDD
05D04:  CLRF   xDE
05D06:  CLRF   xDF
05D08:  CLRF   xE0
05D0A:  CLRF   xE1
05D0C:  CLRF   xE2
05D0E:  CLRF   xE3
05D10:  CLRF   xE4
05D12:  CLRF   xE5
05D14:  CLRF   xE6
05D16:  CLRF   xE7
05D18:  CLRF   xE8
05D1A:  CLRF   xE9
05D1C:  CLRF   xEA
05D1E:  CLRF   xEB
05D20:  CLRF   xEC
05D22:  CLRF   xED
05D24:  CLRF   xEE
05D26:  CLRF   xEF
05D28:  CLRF   xF0
05D2A:  CLRF   xF1
05D2C:  CLRF   xF2
05D2E:  CLRF   xF3
05D30:  CLRF   xF4
05D32:  CLRF   xF5
05D34:  CLRF   xF6
05D36:  CLRF   xF7
05D38:  CLRF   xF8
05D3A:  CLRF   xF9
05D3C:  CLRF   xFA
05D3E:  CLRF   xFB
05D40:  CLRF   xFC
05D42:  CLRF   xFD
05D44:  CLRF   xFE
05D46:  CLRF   xFF
05D48:  MOVLB  2
05D4A:  CLRF   x00
05D4C:  CLRF   x01
05D4E:  CLRF   x02
05D50:  CLRF   x03
05D52:  CLRF   x04
05D54:  CLRF   x05
05D56:  CLRF   x06
05D58:  CLRF   x07
05D5A:  CLRF   x08
05D5C:  CLRF   x09
05D5E:  CLRF   x0A
05D60:  CLRF   x0B
05D62:  CLRF   x0C
05D64:  CLRF   x0D
05D66:  CLRF   x0E
05D68:  CLRF   x0F
05D6A:  CLRF   x10
05D6C:  CLRF   x11
05D6E:  CLRF   x12
05D70:  CLRF   x13
05D72:  CLRF   x14
05D74:  CLRF   x15
05D76:  CLRF   x16
05D78:  CLRF   x17
05D7A:  CLRF   x18
05D7C:  CLRF   x19
05D7E:  CLRF   x1A
05D80:  CLRF   x1B
05D82:  CLRF   x1C
05D84:  CLRF   x1D
05D86:  CLRF   x1E
05D88:  CLRF   x1F
05D8A:  CLRF   x20
05D8C:  CLRF   x21
05D8E:  CLRF   x22
05D90:  CLRF   x23
05D92:  CLRF   x24
05D94:  CLRF   x25
05D96:  CLRF   x26
05D98:  CLRF   x27
05D9A:  CLRF   x28
05D9C:  CLRF   x29
05D9E:  CLRF   x2A
05DA0:  CLRF   x2B
05DA2:  CLRF   x2C
05DA4:  CLRF   x2D
05DA6:  CLRF   x2E
05DA8:  CLRF   x2F
05DAA:  CLRF   x30
05DAC:  CLRF   x31
05DAE:  CLRF   x32
05DB0:  CLRF   x33
05DB2:  CLRF   x34
05DB4:  CLRF   x35
05DB6:  CLRF   x36
05DB8:  CLRF   x37
05DBA:  CLRF   x38
05DBC:  CLRF   x39
05DBE:  CLRF   x3A
05DC0:  CLRF   x3B
05DC2:  CLRF   x3C
05DC4:  CLRF   x3D
05DC6:  CLRF   x3E
05DC8:  CLRF   x3F
05DCA:  CLRF   x40
05DCC:  CLRF   x41
05DCE:  CLRF   x42
05DD0:  CLRF   x43
05DD2:  CLRF   x44
05DD4:  CLRF   x45
05DD6:  CLRF   x46
05DD8:  CLRF   x47
05DDA:  CLRF   x48
05DDC:  CLRF   x49
05DDE:  CLRF   x4A
05DE0:  CLRF   x4B
05DE2:  CLRF   x4C
05DE4:  CLRF   x4D
05DE6:  CLRF   x4E
05DE8:  CLRF   x4F
05DEA:  CLRF   x50
05DEC:  CLRF   x51
05DEE:  CLRF   x52
05DF0:  CLRF   x53
05DF2:  CLRF   x54
05DF4:  CLRF   x55
05DF6:  CLRF   x56
05DF8:  CLRF   x57
05DFA:  CLRF   x58
05DFC:  CLRF   x59
05DFE:  CLRF   x5A
05E00:  CLRF   x5B
05E02:  CLRF   x5C
05E04:  CLRF   x5D
05E06:  CLRF   x5E
05E08:  CLRF   x5F
05E0A:  CLRF   x60
05E0C:  CLRF   x61
05E0E:  CLRF   x62
05E10:  CLRF   x63
05E12:  CLRF   x64
05E14:  CLRF   x65
05E16:  CLRF   x66
05E18:  CLRF   x67
05E1A:  CLRF   x68
05E1C:  CLRF   x69
05E1E:  CLRF   x6A
05E20:  CLRF   x6B
05E22:  CLRF   x6C
05E24:  CLRF   x6D
05E26:  CLRF   x6E
05E28:  CLRF   x6F
05E2A:  CLRF   x70
05E2C:  CLRF   x71
05E2E:  CLRF   x72
05E30:  CLRF   x73
05E32:  CLRF   x74
05E34:  CLRF   x75
05E36:  CLRF   x76
05E38:  CLRF   x77
05E3A:  CLRF   x78
05E3C:  CLRF   x79
05E3E:  CLRF   x7A
05E40:  CLRF   x7B
05E42:  CLRF   x7C
05E44:  CLRF   x7D
05E46:  CLRF   x7E
05E48:  CLRF   x7F
05E4A:  CLRF   x80
05E4C:  CLRF   x81
05E4E:  CLRF   x82
05E50:  CLRF   x83
05E52:  CLRF   x84
05E54:  CLRF   x85
05E56:  CLRF   x86
05E58:  CLRF   x87
05E5A:  CLRF   x88
05E5C:  CLRF   x89
05E5E:  CLRF   x8A
05E60:  CLRF   x8B
05E62:  CLRF   x8C
05E64:  CLRF   x8D
05E66:  CLRF   x8E
05E68:  CLRF   x8F
05E6A:  CLRF   x90
05E6C:  CLRF   x91
05E6E:  CLRF   x92
05E70:  CLRF   x93
05E72:  CLRF   x94
05E74:  CLRF   x95
05E76:  CLRF   x96
05E78:  CLRF   x97
05E7A:  CLRF   x98
05E7C:  CLRF   x99
05E7E:  CLRF   x9A
05E80:  CLRF   x9B
05E82:  CLRF   x9C
05E84:  CLRF   x9D
05E86:  CLRF   x9E
05E88:  CLRF   x9F
05E8A:  CLRF   xB4
05E8C:  CLRF   xB5
05E8E:  CLRF   xB6
05E90:  CLRF   xB7
05E92:  CLRF   xB8
05E94:  CLRF   xB9
05E96:  CLRF   xBA
05E98:  CLRF   xBB
05E9A:  CLRF   xBC
05E9C:  CLRF   xBD
05E9E:  CLRF   xBE
05EA0:  CLRF   xBF
05EA2:  CLRF   xC0
05EA4:  CLRF   xC1
05EA6:  CLRF   xC2
05EA8:  CLRF   xC3
05EAA:  MOVLB  3
05EAC:  CLRF   x76
05EAE:  CLRF   x77
05EB0:  CLRF   x78
05EB2:  CLRF   x79
05EB4:  CLRF   x7A
05EB6:  CLRF   x7B
05EB8:  CLRF   x7C
05EBA:  CLRF   x7D
05EBC:  MOVLW  19
05EBE:  MOVWF  xA0
05EC0:  MOVLW  10
05EC2:  MOVWF  xA1
05EC4:  MOVLW  16
05EC6:  MOVWF  xA2
05EC8:  MOVLW  18
05ECA:  MOVWF  xA3
05ECC:  MOVLW  17
05ECE:  MOVWF  xA4
05ED0:  MOVLW  1C
05ED2:  MOVWF  xA5
05ED4:  MOVLW  14
05ED6:  MOVWF  xA6
05ED8:  MOVLW  2E
05EDA:  MOVWF  xA7
05EDC:  CLRF   xA8
05EDE:  CLRF   xA9
05EE0:  CLRF   xAA
05EE2:  CLRF   xAB
05EE4:  CLRF   xAC
05EE6:  CLRF   xAD
05EE8:  CLRF   xAE
05EEA:  MOVLW  22
05EEC:  MOVWF  xAF
05EEE:  MOVLW  24
05EF0:  MOVWF  xB0
05EF2:  MOVLW  12
05EF4:  MOVWF  xB1
05EF6:  MOVLW  21
05EF8:  MOVWF  xB2
05EFA:  MOVLW  20
05EFC:  MOVWF  xB3
05EFE:  MOVLW  26
05F00:  MOVWF  xB4
05F02:  MOVLW  13
05F04:  MOVWF  xB5
05F06:  MOVLW  11
05F08:  MOVWF  xB6
05F0A:  CLRF   xB7
05F0C:  CLRF   xB8
05F0E:  CLRF   xB9
05F10:  CLRF   xBA
05F12:  CLRF   xBB
05F14:  CLRF   xBC
05F16:  CLRF   xBD
....................     
....................    for (posicion=0;posicion<0x10;posicion++){ 
05F18:  MOVLB  0
05F1A:  CLRF   x86
05F1C:  MOVF   x86,W
05F1E:  SUBLW  0F
05F20:  BNC   5F36
....................       SlaveA0Tx[posicion] = 0x00; 
05F22:  CLRF   03
05F24:  MOVF   x86,W
05F26:  ADDLW  64
05F28:  MOVWF  FE9
05F2A:  MOVLW  00
05F2C:  ADDWFC 03,W
05F2E:  MOVWF  FEA
05F30:  CLRF   FEF
....................    } 
05F32:  INCF   x86,F
05F34:  BRA    5F1C
....................    setup_timer_0(RTCC_8_BIT|RTCC_DIV_1); 
05F36:  MOVLW  C8
05F38:  MOVWF  FD5
....................    enable_interrupts(INT_TIMER0); 
05F3A:  BSF    FF2.5
....................    setup_timer_1(T1_INTERNAL|T1_DIV_BY_1); 
05F3C:  MOVLW  85
05F3E:  MOVWF  FCD
....................    enable_interrupts(INT_TIMER1); 
05F40:  BSF    F9D.0
....................    setup_adc_ports(AN0_TO_AN3); 
05F42:  MOVF   FC1,W
05F44:  ANDLW  C0
05F46:  IORLW  0B
05F48:  MOVWF  FC1
....................    setup_adc(ADC_CLOCK_DIV_32 ); 
05F4A:  MOVF   FC0,W
05F4C:  ANDLW  C0
05F4E:  IORLW  02
05F50:  MOVWF  FC0
05F52:  BSF    FC0.7
05F54:  BSF    FC2.0
....................    port_b_pullups(true); 
05F56:  BCF    FF1.7
....................    enable_interrupts(int_rda); 
05F58:  BSF    F9D.5
....................    setup_wdt(WDT_ON); 
05F5A:  BSF    FD1.0
....................    enable_interrupts(global); 
05F5C:  MOVLW  C0
05F5E:  IORWF  FF2,F
....................    LeeEEPROM(); 
05F60:  GOTO   1BF2
....................    rtc_init(); 
05F64:  GOTO   29A2
....................    delay_ms(1); 
05F68:  MOVLW  01
05F6A:  MOVLB  3
05F6C:  MOVWF  xFB
05F6E:  MOVLB  0
05F70:  CALL   17AE
....................    LimitaValores(); 
05F74:  GOTO   2ABC
....................    CalculoImpresion=timpresion*60; 
05F78:  MOVLB  3
05F7A:  MOVF   x4F,W
05F7C:  MULLW  3C
05F7E:  MOVFF  FF3,350
....................    printf("page Bienvenida"); 
05F82:  MOVLW  70
05F84:  MOVWF  FF6
05F86:  MOVLW  04
05F88:  MOVWF  FF7
05F8A:  MOVLW  00
05F8C:  MOVWF  FF8
05F8E:  MOVLB  0
05F90:  CALL   3528
....................    SendDataDisplay(); 
05F94:  CALL   355A
....................    printf("bkcmd=0"); 
05F98:  MOVLW  80
05F9A:  MOVWF  FF6
05F9C:  MOVLW  04
05F9E:  MOVWF  FF7
05FA0:  MOVLW  00
05FA2:  MOVWF  FF8
05FA4:  CALL   3528
....................    SendDataDisplay(); 
05FA8:  CALL   355A
....................    delay_ms(1500); 
05FAC:  MOVLW  06
05FAE:  MOVLB  3
05FB0:  MOVWF  xE6
05FB2:  MOVLW  FA
05FB4:  MOVWF  xFB
05FB6:  MOVLB  0
05FB8:  CALL   17AE
05FBC:  MOVLB  3
05FBE:  DECFSZ xE6,F
05FC0:  BRA    5FB2
....................    printf("page Clave"); 
05FC2:  MOVLW  88
05FC4:  MOVWF  FF6
05FC6:  MOVLW  04
05FC8:  MOVWF  FF7
05FCA:  MOVLW  00
05FCC:  MOVWF  FF8
05FCE:  MOVLB  0
05FD0:  CALL   3528
....................    SendDataDisplay(); 
05FD4:  CALL   355A
....................    ApagaSalidas(); 
05FD8:  CALL   3590
....................    ActivaImpresion=1; 
05FDC:  MOVLW  01
05FDE:  MOVLB  3
05FE0:  MOVWF  x4E
....................     
....................    for(i=0;i<MediaMovil;i++){ 
05FE2:  CLRF   x58
05FE4:  MOVLB  2
05FE6:  MOVF   xD8,W
05FE8:  MOVLB  3
05FEA:  SUBWF  x58,W
05FEC:  BC    600E
....................       Temperatura=LeerPT100(MediaMovil); 
05FEE:  MOVFF  2D8,3E6
05FF2:  MOVLB  0
05FF4:  CALL   3734
05FF8:  MOVFF  03,322
05FFC:  MOVFF  02,321
06000:  MOVFF  01,320
06004:  MOVFF  00,31F
....................    } 
06008:  MOVLB  3
0600A:  INCF   x58,F
0600C:  BRA    5FE4
....................     
....................    if(UP && DOWN && RIGHT && LEFT)//Si oprime boton de Toma. 
0600E:  BSF    F93.0
06010:  BTFSC  F81.0
06012:  BRA    609A
06014:  BSF    F93.1
06016:  BTFSC  F81.1
06018:  BRA    609A
0601A:  BSF    F93.2
0601C:  BTFSC  F81.2
0601E:  BRA    609A
06020:  BSF    F93.3
06022:  BTFSC  F81.3
06024:  BRA    609A
....................    { 
....................       write_eeprom(37,0); 
06026:  CLRF   FAA
06028:  MOVLW  25
0602A:  MOVWF  FA9
0602C:  CLRF   FA8
0602E:  BCF    FA6.6
06030:  BCF    FA6.7
06032:  BSF    FA6.2
06034:  MOVF   FF2,W
06036:  MOVWF  00
06038:  BCF    FF2.6
0603A:  BCF    FF2.7
0603C:  MOVLB  F
0603E:  MOVLW  55
06040:  MOVWF  FA7
06042:  MOVLW  AA
06044:  MOVWF  FA7
06046:  BSF    FA6.1
06048:  BTFSC  FA6.1
0604A:  BRA    6048
0604C:  BCF    FA6.2
0604E:  MOVF   00,W
06050:  IORWF  FF2,F
....................       delay_ms(20); 
06052:  MOVLW  14
06054:  MOVLB  3
06056:  MOVWF  xFB
06058:  MOVLB  0
0605A:  CALL   17AE
....................       write_eeprom(38,0); 
0605E:  CLRF   FAA
06060:  MOVLW  26
06062:  MOVWF  FA9
06064:  CLRF   FA8
06066:  BCF    FA6.6
06068:  BCF    FA6.7
0606A:  BSF    FA6.2
0606C:  MOVF   FF2,W
0606E:  MOVWF  00
06070:  BCF    FF2.6
06072:  BCF    FF2.7
06074:  MOVLB  F
06076:  MOVLW  55
06078:  MOVWF  FA7
0607A:  MOVLW  AA
0607C:  MOVWF  FA7
0607E:  BSF    FA6.1
06080:  BTFSC  FA6.1
06082:  BRA    6080
06084:  BCF    FA6.2
06086:  MOVF   00,W
06088:  IORWF  FF2,F
....................       delay_ms(20); 
0608A:  MOVLW  14
0608C:  MOVLB  3
0608E:  MOVWF  xFB
06090:  MOVLB  0
06092:  CALL   17AE
....................       reset_cpu(); 
06096:  RESET
06098:  MOVLB  3
....................    } 
....................     
....................    while(true) 
....................    { 
....................       LeeDisplay(); 
0609A:  MOVLB  0
0609C:  GOTO   3AF4
....................       Envio_Esclavos(); 
060A0:  CALL   3EC4
....................       delay_ms(1); 
060A4:  MOVLW  01
060A6:  MOVLB  3
060A8:  MOVWF  xFB
060AA:  MOVLB  0
060AC:  CALL   17AE
....................       //Lectura_Esclavos(); 
....................       restart_wdt(); 
060B0:  CLRWDT
....................        
....................       if(!Esterilizando || Desfogando){ 
060B2:  BTFSS  xA0.2
060B4:  BRA    60BA
060B6:  BTFSS  xA0.5
060B8:  BRA    60C4
....................          CalculoImpresion=180; 
060BA:  MOVLW  B4
060BC:  MOVLB  3
060BE:  MOVWF  x50
....................       }else{ 
060C0:  BRA    60CA
060C2:  MOVLB  0
....................          CalculoImpresion=60; 
060C4:  MOVLW  3C
060C6:  MOVLB  3
060C8:  MOVWF  x50
....................       } 
....................        
....................       if(!PruebaEstados){ 
060CA:  MOVLB  0
060CC:  BTFSC  xA1.2
060CE:  BRA    6126
....................          if(Temperatura>60) 
060D0:  MOVLB  3
060D2:  CLRF   xF1
060D4:  CLRF   xF0
060D6:  MOVLW  70
060D8:  MOVWF  xEF
060DA:  MOVLW  84
060DC:  MOVWF  xEE
060DE:  MOVFF  322,3F5
060E2:  MOVFF  321,3F4
060E6:  MOVFF  320,3F3
060EA:  MOVFF  31F,3F2
060EE:  MOVLB  0
060F0:  CALL   29F4
060F4:  BNC   60FC
....................             Vent_on; 
060F6:  BSF    F8C.5
060F8:  BCF    F95.5
....................          else if(Temperatura<55) 
060FA:  BRA    6126
060FC:  MOVFF  322,3F1
06100:  MOVFF  321,3F0
06104:  MOVFF  320,3EF
06108:  MOVFF  31F,3EE
0610C:  MOVLB  3
0610E:  CLRF   xF5
06110:  CLRF   xF4
06112:  MOVLW  5C
06114:  MOVWF  xF3
06116:  MOVLW  84
06118:  MOVWF  xF2
0611A:  MOVLB  0
0611C:  CALL   29F4
06120:  BNC   6126
....................             Vent_off; 
06122:  BCF    F8C.5
06124:  BCF    F95.5
....................       } 
....................        
....................       // Monitoreo Nivel de Agua//-------------------------------------- 
....................             if(!LOW){//Si no sensa agua en el nivel alto y no se ha llenado el calderin          
06126:  BSF    F94.1
06128:  BTFSC  F82.1
0612A:  BRA    613E
....................                TiempoSensadoNivel=0; 
0612C:  CLRF   xA9
0612E:  CLRF   xA8
....................                Controlando=0;    
06130:  MOVLB  3
06132:  CLRF   x4D
....................                //CalderinLleno=OFF; 
....................                SensadoNivel=OFF; 
06134:  MOVLB  0
06136:  BCF    xA0.4
....................                TiempoSensadoNivel=0; 
06138:  CLRF   xA9
0613A:  CLRF   xA8
....................             } else{ 
0613C:  BRA    6150
....................                SensadoNivel=ON; 
0613E:  BSF    xA0.4
....................                if(TiempoSensadoNivel>2){ 
06140:  MOVF   xA9,F
06142:  BNZ   614A
06144:  MOVF   xA8,W
06146:  SUBLW  02
06148:  BC    6150
....................                   SensadoNivel=OFF; 
0614A:  BCF    xA0.4
....................                   CalderinLleno=ON; 
0614C:  BSF    xA0.0
....................                   IniciaLlenado=OFF;                   
0614E:  BCF    x9F.7
....................                } 
....................             } 
.................... // Tiempo de Grafica//-------------------------------------- 
....................       if(tiempos2>=6400){ 
06150:  MOVLB  3
06152:  MOVF   x65,W
06154:  SUBLW  18
06156:  BC    615E
....................          Grafica=1; 
06158:  BSF    x4A.0
....................          tiempos2=0; 
0615A:  CLRF   x65
0615C:  CLRF   x64
....................       } 
....................  
.................... // Tiempo de Muestreo//-------------------------------------- 
....................       if(tiempos3>=20){ 
0615E:  MOVF   x67,F
06160:  BNZ   616A
06162:  MOVF   x66,W
06164:  SUBLW  13
06166:  BTFSC  FD8.0
06168:  BRA    627A
....................          Temperatura=LeerPt100(MediaMovil); 
0616A:  MOVFF  2D8,3E6
0616E:  MOVLB  0
06170:  CALL   3734
06174:  MOVFF  03,322
06178:  MOVFF  02,321
0617C:  MOVFF  01,320
06180:  MOVFF  00,31F
....................          PresionCamara=Leer_Sensor_Presion_Camara(10); 
06184:  MOVLW  0A
06186:  MOVLB  3
06188:  MOVWF  xE6
0618A:  MOVLB  0
0618C:  GOTO   3F04
06190:  MOVFF  03,3FE
06194:  MOVFF  02,3FD
06198:  MOVFF  01,3FC
0619C:  MOVFF  00,3FB
061A0:  CALL   3C6E
061A4:  MOVFF  02,36F
061A8:  MOVFF  01,36E
....................          //PresionPreCamara=Leer_Sensor_Presion_PreCamara(10); 
....................          PresionPreCamara=0; 
061AC:  MOVLB  3
061AE:  CLRF   x71
061B0:  CLRF   x70
....................          rtc_get_date(Dia,Mes,Year,dow); 
....................          rtc_get_time(Hora,Minuto,Segundo); 
....................          tiempos3=0; 
*
06274:  MOVLB  3
06276:  CLRF   x67
06278:  CLRF   x66
....................       } 
....................        
.................... // Monitoreo Parada Emergencia//--------------------------------------       
....................       if(!STOP && !IniciaCiclo && !PruebaEstados){ 
0627A:  BSF    F93.7
0627C:  BTFSS  F81.7
0627E:  BRA    62E0
06280:  MOVLB  0
06282:  BTFSS  xA0.1
06284:  BRA    628A
06286:  MOVLB  3
06288:  BRA    62E0
0628A:  BTFSS  xA1.2
0628C:  BRA    6292
0628E:  MOVLB  3
06290:  BRA    62E0
....................          if(!disp_Stop){ 
06292:  MOVLB  3
06294:  BTFSC  x4A.1
06296:  BRA    62B6
....................             disp_Stop=1;Menu=255; 
06298:  BSF    x4A.1
0629A:  MOVLW  FF
0629C:  MOVWF  x55
....................             printf("page Emergencia"); 
0629E:  MOVLW  94
062A0:  MOVWF  FF6
062A2:  MOVLW  04
062A4:  MOVWF  FF7
062A6:  MOVLW  00
062A8:  MOVWF  FF8
062AA:  MOVLB  0
062AC:  CALL   3528
....................             SendDataDisplay(); 
062B0:  CALL   355A
062B4:  MOVLB  3
....................          } 
....................          Controlando=0; 
062B6:  CLRF   x4D
....................          Desfogue_on; 
062B8:  BSF    F8C.4
062BA:  BCF    F95.4
....................          SSR_off; 
062BC:  BSF    F8B.2
062BE:  BCF    F94.2
....................          Paso_off; 
062C0:  BCF    F8C.6
062C2:  BCF    F95.6
....................          DesfogueSuave=OFF; 
062C4:  MOVLB  0
062C6:  BCF    xA0.6
....................          ActivaAlarma(1); 
062C8:  MOVLW  01
062CA:  MOVLB  3
062CC:  MOVWF  xE6
062CE:  MOVLB  0
062D0:  CALL   412C
....................          BorraBuffer(); 
062D4:  GOTO   41FC
....................          Vent_on; 
062D8:  BSF    F8C.5
062DA:  BCF    F95.5
....................       }else{ 
062DC:  BRA    62E6
062DE:  MOVLB  3
....................          if(disp_Stop){ 
062E0:  BTFSS  x4A.1
062E2:  BRA    62E6
....................             reset_cpu(); 
062E4:  RESET
....................          } 
....................       }            
....................    //Buzzer_off;    
.................... //_-------------------------------------------------------------------------------------------------------------------------------------------------------- 
....................    if(Menu==240){ //Menu de Bienvenida. 
062E6:  MOVLB  3
062E8:  MOVF   x55,W
062EA:  SUBLW  F0
062EC:  BNZ   6336
....................       printf("bkcmd=0"); 
062EE:  MOVLW  A4
062F0:  MOVWF  FF6
062F2:  MOVLW  04
062F4:  MOVWF  FF7
062F6:  MOVLW  00
062F8:  MOVWF  FF8
062FA:  MOVLB  0
062FC:  CALL   3528
....................       SendDataDisplay(); 
06300:  CALL   355A
....................       delay_ms(1500); 
06304:  MOVLW  06
06306:  MOVLB  3
06308:  MOVWF  xE6
0630A:  MOVLW  FA
0630C:  MOVWF  xFB
0630E:  MOVLB  0
06310:  CALL   17AE
06314:  MOVLB  3
06316:  DECFSZ xE6,F
06318:  BRA    630A
....................       printf("page Clave"); 
0631A:  MOVLW  AC
0631C:  MOVWF  FF6
0631E:  MOVLW  04
06320:  MOVWF  FF7
06322:  MOVLW  00
06324:  MOVWF  FF8
06326:  MOVLB  0
06328:  CALL   3528
....................       SendDataDisplay(); 
0632C:  CALL   355A
....................       ApagaSalidas(); 
06330:  CALL   3590
06334:  MOVLB  3
....................    } 
.................... //_-------------------------------------------------------------------------------------------------------------------------------------------------------- 
....................  
.................... //_-------------------------------------------------------------------------------------------------------------------------------------------------------- 
....................     if(Menu==0){ //Menu de Contrasea de acceso. 
06336:  MOVF   x55,F
06338:  BTFSS  FD8.2
0633A:  GOTO   6DB4
....................       ApagaSalidas(); 
0633E:  MOVLB  0
06340:  CALL   3590
....................       entro=OFF; 
06344:  BCF    xA3.5
....................       if(Digito==1){ 
06346:  MOVLB  2
06348:  DECFSZ xDD,W
0634A:  BRA    6396
....................          printf("t0.txt=\"%u\"",Contrasena[0]); 
0634C:  MOVLW  B8
0634E:  MOVWF  FF6
06350:  MOVLW  04
06352:  MOVWF  FF7
06354:  MOVLW  00
06356:  MOVWF  FF8
06358:  MOVLW  08
0635A:  MOVLB  3
0635C:  MOVWF  xEA
0635E:  MOVLB  0
06360:  CALL   4228
06364:  MOVFF  376,3E8
06368:  MOVLW  1B
0636A:  MOVLB  3
0636C:  MOVWF  xE9
0636E:  MOVLB  0
06370:  CALL   4286
06374:  MOVLW  22
06376:  BTFSS  F9E.4
06378:  BRA    6376
0637A:  MOVWF  FAD
....................          SendDataDisplay(); 
0637C:  CALL   355A
....................          printf("va0.val=1"); 
06380:  MOVLW  C4
06382:  MOVWF  FF6
06384:  MOVLW  04
06386:  MOVWF  FF7
06388:  MOVLW  00
0638A:  MOVWF  FF8
0638C:  CALL   3528
....................          SendDataDisplay(); 
06390:  CALL   355A
06394:  MOVLB  2
....................       } 
....................        
....................       if(Digito==2){ 
06396:  MOVF   xDD,W
06398:  SUBLW  02
0639A:  BNZ   63F6
....................          printf("t0.txt=\"%u%u\"",Contrasena[0],Contrasena[1]); 
0639C:  MOVLW  CE
0639E:  MOVWF  FF6
063A0:  MOVLW  04
063A2:  MOVWF  FF7
063A4:  MOVLW  00
063A6:  MOVWF  FF8
063A8:  MOVLW  08
063AA:  MOVLB  3
063AC:  MOVWF  xEA
063AE:  MOVLB  0
063B0:  CALL   4228
063B4:  MOVFF  376,3E8
063B8:  MOVLW  1B
063BA:  MOVLB  3
063BC:  MOVWF  xE9
063BE:  MOVLB  0
063C0:  CALL   4286
063C4:  MOVFF  377,3E8
063C8:  MOVLW  1B
063CA:  MOVLB  3
063CC:  MOVWF  xE9
063CE:  MOVLB  0
063D0:  CALL   4286
063D4:  MOVLW  22
063D6:  BTFSS  F9E.4
063D8:  BRA    63D6
063DA:  MOVWF  FAD
....................          SendDataDisplay(); 
063DC:  CALL   355A
....................          printf("va0.val=2"); 
063E0:  MOVLW  DC
063E2:  MOVWF  FF6
063E4:  MOVLW  04
063E6:  MOVWF  FF7
063E8:  MOVLW  00
063EA:  MOVWF  FF8
063EC:  CALL   3528
....................          SendDataDisplay(); 
063F0:  CALL   355A
063F4:  MOVLB  2
....................       } 
....................        
....................       if(Digito==3){ 
063F6:  MOVF   xDD,W
063F8:  SUBLW  03
063FA:  BNZ   6466
....................          printf("t0.txt=\"%u%u%u\"",Contrasena[0],Contrasena[1],Contrasena[2]); 
063FC:  MOVLW  E6
063FE:  MOVWF  FF6
06400:  MOVLW  04
06402:  MOVWF  FF7
06404:  MOVLW  00
06406:  MOVWF  FF8
06408:  MOVLW  08
0640A:  MOVLB  3
0640C:  MOVWF  xEA
0640E:  MOVLB  0
06410:  CALL   4228
06414:  MOVFF  376,3E8
06418:  MOVLW  1B
0641A:  MOVLB  3
0641C:  MOVWF  xE9
0641E:  MOVLB  0
06420:  CALL   4286
06424:  MOVFF  377,3E8
06428:  MOVLW  1B
0642A:  MOVLB  3
0642C:  MOVWF  xE9
0642E:  MOVLB  0
06430:  CALL   4286
06434:  MOVFF  378,3E8
06438:  MOVLW  1B
0643A:  MOVLB  3
0643C:  MOVWF  xE9
0643E:  MOVLB  0
06440:  CALL   4286
06444:  MOVLW  22
06446:  BTFSS  F9E.4
06448:  BRA    6446
0644A:  MOVWF  FAD
....................          SendDataDisplay(); 
0644C:  CALL   355A
....................          printf("va0.val=3"); 
06450:  MOVLW  F6
06452:  MOVWF  FF6
06454:  MOVLW  04
06456:  MOVWF  FF7
06458:  MOVLW  00
0645A:  MOVWF  FF8
0645C:  CALL   3528
....................          SendDataDisplay(); 
06460:  CALL   355A
06464:  MOVLB  2
....................       } 
....................        
....................       if(Digito==4){ 
06466:  MOVF   xDD,W
06468:  SUBLW  04
0646A:  BNZ   64E6
....................          printf("t0.txt=\"%u%u%u%u\"",Contrasena[0],Contrasena[1],Contrasena[2],Contrasena[3]); 
0646C:  MOVLW  00
0646E:  MOVWF  FF6
06470:  MOVLW  05
06472:  MOVWF  FF7
06474:  MOVLW  00
06476:  MOVWF  FF8
06478:  MOVLW  08
0647A:  MOVLB  3
0647C:  MOVWF  xEA
0647E:  MOVLB  0
06480:  CALL   4228
06484:  MOVFF  376,3E8
06488:  MOVLW  1B
0648A:  MOVLB  3
0648C:  MOVWF  xE9
0648E:  MOVLB  0
06490:  CALL   4286
06494:  MOVFF  377,3E8
06498:  MOVLW  1B
0649A:  MOVLB  3
0649C:  MOVWF  xE9
0649E:  MOVLB  0
064A0:  CALL   4286
064A4:  MOVFF  378,3E8
064A8:  MOVLW  1B
064AA:  MOVLB  3
064AC:  MOVWF  xE9
064AE:  MOVLB  0
064B0:  CALL   4286
064B4:  MOVFF  379,3E8
064B8:  MOVLW  1B
064BA:  MOVLB  3
064BC:  MOVWF  xE9
064BE:  MOVLB  0
064C0:  CALL   4286
064C4:  MOVLW  22
064C6:  BTFSS  F9E.4
064C8:  BRA    64C6
064CA:  MOVWF  FAD
....................          SendDataDisplay(); 
064CC:  CALL   355A
....................          printf("va0.val=4"); 
064D0:  MOVLW  12
064D2:  MOVWF  FF6
064D4:  MOVLW  05
064D6:  MOVWF  FF7
064D8:  MOVLW  00
064DA:  MOVWF  FF8
064DC:  CALL   3528
....................          SendDataDisplay(); 
064E0:  CALL   355A
064E4:  MOVLB  2
....................       } 
....................        
....................       if(UP){ 
064E6:  BSF    F93.0
064E8:  BTFSC  F81.0
064EA:  BRA    6534
....................          delay_ms(100); 
064EC:  MOVLW  64
064EE:  MOVLB  3
064F0:  MOVWF  xFB
064F2:  MOVLB  0
064F4:  CALL   17AE
....................          if(UP){ 
064F8:  BSF    F93.0
064FA:  BTFSC  F81.0
064FC:  BRA    6536
....................          if(Digito==0) 
064FE:  MOVLB  2
06500:  MOVF   xDD,F
06502:  BNZ   6508
....................             Digito=1; 
06504:  MOVLW  01
06506:  MOVWF  xDD
....................             if(Contrasena[Digito-1]<9) 
06508:  MOVLW  01
0650A:  SUBWF  xDD,W
0650C:  CLRF   03
0650E:  ADDLW  76
06510:  MOVWF  FE9
06512:  MOVLW  03
06514:  ADDWFC 03,W
06516:  MOVWF  FEA
06518:  BTFSC  FEF.7
0651A:  BRA    6522
0651C:  MOVF   FEF,W
0651E:  SUBLW  08
06520:  BNC   6534
....................                Contrasena[Digito-1]++; 
06522:  MOVLW  01
06524:  SUBWF  xDD,W
06526:  CLRF   03
06528:  ADDLW  76
0652A:  MOVWF  FE9
0652C:  MOVLW  03
0652E:  ADDWFC 03,W
06530:  MOVWF  FEA
06532:  INCF   FEF,F
06534:  MOVLB  0
....................          } 
....................       } 
....................        
....................       if(DOWN){ 
06536:  BSF    F93.1
06538:  BTFSC  F81.1
0653A:  BRA    6586
....................          delay_ms(100); 
0653C:  MOVLW  64
0653E:  MOVLB  3
06540:  MOVWF  xFB
06542:  MOVLB  0
06544:  CALL   17AE
....................          if(Digito==0) 
06548:  MOVLB  2
0654A:  MOVF   xDD,F
0654C:  BNZ   6552
....................             Digito=1; 
0654E:  MOVLW  01
06550:  MOVWF  xDD
....................          if(DOWN){ 
06552:  BSF    F93.1
06554:  BTFSC  F81.1
06556:  BRA    6584
....................             if(Contrasena[Digito-1]>0) 
06558:  MOVLW  01
0655A:  SUBWF  xDD,W
0655C:  CLRF   03
0655E:  ADDLW  76
06560:  MOVWF  FE9
06562:  MOVLW  03
06564:  ADDWFC 03,W
06566:  MOVWF  FEA
06568:  BTFSC  FEF.7
0656A:  BRA    6584
0656C:  MOVF   FEF,W
0656E:  SUBLW  00
06570:  BC    6584
....................                Contrasena[Digito-1]--; 
06572:  MOVLW  01
06574:  SUBWF  xDD,W
06576:  CLRF   03
06578:  ADDLW  76
0657A:  MOVWF  FE9
0657C:  MOVLW  03
0657E:  ADDWFC 03,W
06580:  MOVWF  FEA
06582:  DECF   FEF,F
06584:  MOVLB  0
....................          } 
....................       } 
....................        
....................       if(RIGHT){ 
06586:  BSF    F93.2
06588:  BTFSC  F81.2
0658A:  BRA    65A4
....................          delay_ms(100); 
0658C:  MOVLW  64
0658E:  MOVLB  3
06590:  MOVWF  xFB
06592:  MOVLB  0
06594:  CALL   17AE
....................          if(RIGHT){ 
06598:  BSF    F93.2
0659A:  BTFSC  F81.2
0659C:  BRA    65A4
....................             Digito++; 
0659E:  MOVLB  2
065A0:  INCF   xDD,F
065A2:  MOVLB  0
....................          } 
....................       } 
....................        
....................       if(Digito>4){ 
065A4:  MOVLB  2
065A6:  MOVF   xDD,W
065A8:  SUBLW  04
065AA:  BTFSC  FD8.0
065AC:  BRA    68FE
....................       Digito=0; 
065AE:  CLRF   xDD
....................       printf("t0.txt=\"\""); 
065B0:  MOVLW  1C
065B2:  MOVWF  FF6
065B4:  MOVLW  05
065B6:  MOVWF  FF7
065B8:  MOVLW  00
065BA:  MOVWF  FF8
065BC:  MOVLB  0
065BE:  CALL   3528
....................       SendDataDisplay(); 
065C2:  CALL   355A
....................          if(TipoClave==0){ 
065C6:  MOVLB  2
065C8:  MOVF   xDB,F
065CA:  BTFSS  FD8.2
065CC:  BRA    671C
....................             if(Contrasena[0]==3&&Contrasena[1]==8&&Contrasena[2]==9&&Contrasena[3]==2){ // Si Ingresa clave para reset general del sistema. 
065CE:  MOVLB  3
065D0:  MOVF   x76,W
065D2:  SUBLW  03
065D4:  BTFSS  FD8.2
065D6:  BRA    66D0
065D8:  MOVF   x77,W
065DA:  SUBLW  08
065DC:  BTFSS  FD8.2
065DE:  BRA    66D0
065E0:  MOVF   x78,W
065E2:  SUBLW  09
065E4:  BNZ   66D0
065E6:  MOVF   x79,W
065E8:  SUBLW  02
065EA:  BNZ   66D0
....................                write_eeprom(10,0);delay_ms(20);write_eeprom(11,0);delay_ms(20);// Reestablece a contrasea de Fabrica y reinicia Programa. 
065EC:  CLRF   FAA
065EE:  MOVLW  0A
065F0:  MOVWF  FA9
065F2:  CLRF   FA8
065F4:  BCF    FA6.6
065F6:  BCF    FA6.7
065F8:  BSF    FA6.2
065FA:  MOVF   FF2,W
065FC:  MOVWF  00
065FE:  BCF    FF2.6
06600:  BCF    FF2.7
06602:  MOVLB  F
06604:  MOVLW  55
06606:  MOVWF  FA7
06608:  MOVLW  AA
0660A:  MOVWF  FA7
0660C:  BSF    FA6.1
0660E:  BTFSC  FA6.1
06610:  BRA    660E
06612:  BCF    FA6.2
06614:  MOVF   00,W
06616:  IORWF  FF2,F
06618:  MOVLW  14
0661A:  MOVLB  3
0661C:  MOVWF  xFB
0661E:  MOVLB  0
06620:  CALL   17AE
06624:  CLRF   FAA
06626:  MOVLW  0B
06628:  MOVWF  FA9
0662A:  CLRF   FA8
0662C:  BCF    FA6.6
0662E:  BCF    FA6.7
06630:  BSF    FA6.2
06632:  MOVF   FF2,W
06634:  MOVWF  00
06636:  BCF    FF2.6
06638:  BCF    FF2.7
0663A:  MOVLB  F
0663C:  MOVLW  55
0663E:  MOVWF  FA7
06640:  MOVLW  AA
06642:  MOVWF  FA7
06644:  BSF    FA6.1
06646:  BTFSC  FA6.1
06648:  BRA    6646
0664A:  BCF    FA6.2
0664C:  MOVF   00,W
0664E:  IORWF  FF2,F
06650:  MOVLW  14
06652:  MOVLB  3
06654:  MOVWF  xFB
06656:  MOVLB  0
06658:  CALL   17AE
....................                write_eeprom(12,0);delay_ms(20);write_eeprom(13,0);delay_ms(20); 
0665C:  CLRF   FAA
0665E:  MOVLW  0C
06660:  MOVWF  FA9
06662:  CLRF   FA8
06664:  BCF    FA6.6
06666:  BCF    FA6.7
06668:  BSF    FA6.2
0666A:  MOVF   FF2,W
0666C:  MOVWF  00
0666E:  BCF    FF2.6
06670:  BCF    FF2.7
06672:  MOVLB  F
06674:  MOVLW  55
06676:  MOVWF  FA7
06678:  MOVLW  AA
0667A:  MOVWF  FA7
0667C:  BSF    FA6.1
0667E:  BTFSC  FA6.1
06680:  BRA    667E
06682:  BCF    FA6.2
06684:  MOVF   00,W
06686:  IORWF  FF2,F
06688:  MOVLW  14
0668A:  MOVLB  3
0668C:  MOVWF  xFB
0668E:  MOVLB  0
06690:  CALL   17AE
06694:  CLRF   FAA
06696:  MOVLW  0D
06698:  MOVWF  FA9
0669A:  CLRF   FA8
0669C:  BCF    FA6.6
0669E:  BCF    FA6.7
066A0:  BSF    FA6.2
066A2:  MOVF   FF2,W
066A4:  MOVWF  00
066A6:  BCF    FF2.6
066A8:  BCF    FF2.7
066AA:  MOVLB  F
066AC:  MOVLW  55
066AE:  MOVWF  FA7
066B0:  MOVLW  AA
066B2:  MOVWF  FA7
066B4:  BSF    FA6.1
066B6:  BTFSC  FA6.1
066B8:  BRA    66B6
066BA:  BCF    FA6.2
066BC:  MOVF   00,W
066BE:  IORWF  FF2,F
066C0:  MOVLW  14
066C2:  MOVLB  3
066C4:  MOVWF  xFB
066C6:  MOVLB  0
066C8:  CALL   17AE
....................                reset_cpu(); 
066CC:  RESET
066CE:  MOVLB  3
....................             } 
....................              
....................             if((Contrasena[0]==Password[0])&&(Contrasena[1]==Password[1])&&(Contrasena[2]==Password[2])&&(Contrasena[3]==Password[3])){ 
066D0:  MOVF   x7A,W
066D2:  SUBWF  x76,W
066D4:  BNZ   6702
066D6:  MOVF   x7B,W
066D8:  SUBWF  x77,W
066DA:  BNZ   6702
066DC:  MOVF   x7C,W
066DE:  SUBWF  x78,W
066E0:  BNZ   6702
066E2:  MOVF   x7D,W
066E4:  SUBWF  x79,W
066E6:  BNZ   6702
....................                //BorraBuffer(); 
....................                printf("page ClaveCorrecta"); 
066E8:  MOVLW  26
066EA:  MOVWF  FF6
066EC:  MOVLW  05
066EE:  MOVWF  FF7
066F0:  MOVLW  00
066F2:  MOVWF  FF8
066F4:  MOVLB  0
066F6:  CALL   3528
....................                SendDataDisplay(); 
066FA:  CALL   355A
....................             }else{ 
066FE:  BRA    6718
06700:  MOVLB  3
....................                //BorraBuffer(); 
....................                printf("page ClaveBad"); 
06702:  MOVLW  3A
06704:  MOVWF  FF6
06706:  MOVLW  05
06708:  MOVWF  FF7
0670A:  MOVLW  00
0670C:  MOVWF  FF8
0670E:  MOVLB  0
06710:  CALL   3528
....................                SendDataDisplay(); 
06714:  CALL   355A
....................             }  
....................          }else if(TipoClave==1){ 
06718:  BRA    68FC
0671A:  MOVLB  2
0671C:  DECFSZ xDB,W
0671E:  BRA    676E
....................             if(Contrasena[0]==4&&Contrasena[1]==4&&Contrasena[2]==4&&Contrasena[3]==4){ // Si Ingresa clave de Servicio Tecnico 
06720:  MOVLB  3
06722:  MOVF   x76,W
06724:  SUBLW  04
06726:  BNZ   6754
06728:  MOVF   x77,W
0672A:  SUBLW  04
0672C:  BNZ   6754
0672E:  MOVF   x78,W
06730:  SUBLW  04
06732:  BNZ   6754
06734:  MOVF   x79,W
06736:  SUBLW  04
06738:  BNZ   6754
....................                printf("page Config"); 
0673A:  MOVLW  48
0673C:  MOVWF  FF6
0673E:  MOVLW  05
06740:  MOVWF  FF7
06742:  MOVLW  00
06744:  MOVWF  FF8
06746:  MOVLB  0
06748:  CALL   3528
....................                SendDataDisplay(); 
0674C:  CALL   355A
....................             }else{ 
06750:  BRA    676A
06752:  MOVLB  3
....................                printf("page MenuPrincipal"); 
06754:  MOVLW  54
06756:  MOVWF  FF6
06758:  MOVLW  05
0675A:  MOVWF  FF7
0675C:  MOVLW  00
0675E:  MOVWF  FF8
06760:  MOVLB  0
06762:  CALL   3528
....................                SendDataDisplay(); 
06766:  CALL   355A
....................             } 
....................          }else if(TipoClave==2){ 
0676A:  BRA    68FC
0676C:  MOVLB  2
0676E:  MOVF   xDB,W
06770:  SUBLW  02
06772:  BNZ   67DC
....................             if((Contrasena[0]==Password[0])&&(Contrasena[1]==Password[1])&&(Contrasena[2]==Password[2])&&(Contrasena[3]==Password[3])){ 
06774:  MOVLB  3
06776:  MOVF   x7A,W
06778:  SUBWF  x76,W
0677A:  BNZ   67C2
0677C:  MOVF   x7B,W
0677E:  SUBWF  x77,W
06780:  BNZ   67C2
06782:  MOVF   x7C,W
06784:  SUBWF  x78,W
06786:  BNZ   67C2
06788:  MOVF   x7D,W
0678A:  SUBWF  x79,W
0678C:  BNZ   67C2
....................                printf("page Clave"); 
0678E:  MOVLW  68
06790:  MOVWF  FF6
06792:  MOVLW  05
06794:  MOVWF  FF7
06796:  MOVLW  00
06798:  MOVWF  FF8
0679A:  MOVLB  0
0679C:  CALL   3528
....................                SendDataDisplay(); 
067A0:  CALL   355A
....................                printf("titulo.txt=\"Clave Nueva\""); 
067A4:  MOVLW  74
067A6:  MOVWF  FF6
067A8:  MOVLW  05
067AA:  MOVWF  FF7
067AC:  MOVLW  00
067AE:  MOVWF  FF8
067B0:  CALL   3528
....................                SendDataDisplay(); 
067B4:  CALL   355A
....................                TipoClave=3; 
067B8:  MOVLW  03
067BA:  MOVLB  2
067BC:  MOVWF  xDB
....................             }else{ 
067BE:  BRA    67DA
067C0:  MOVLB  3
....................                printf("page MenuPrincipal"); 
067C2:  MOVLW  8E
067C4:  MOVWF  FF6
067C6:  MOVLW  05
067C8:  MOVWF  FF7
067CA:  MOVLW  00
067CC:  MOVWF  FF8
067CE:  MOVLB  0
067D0:  CALL   3528
....................                SendDataDisplay(); 
067D4:  CALL   355A
067D8:  MOVLB  2
....................             }  
....................          }else if(TipoClave==3){ 
067DA:  BRA    68FE
067DC:  MOVF   xDB,W
067DE:  SUBLW  03
067E0:  BTFSS  FD8.2
067E2:  BRA    68FE
....................             printf("titulo.txt=\"Clave Nueva\""); 
067E4:  MOVLW  A2
067E6:  MOVWF  FF6
067E8:  MOVLW  05
067EA:  MOVWF  FF7
067EC:  MOVLW  00
067EE:  MOVWF  FF8
067F0:  MOVLB  0
067F2:  CALL   3528
....................             SendDataDisplay(); 
067F6:  CALL   355A
....................             printf("page MenuPrincipal"); 
067FA:  MOVLW  BC
067FC:  MOVWF  FF6
067FE:  MOVLW  05
06800:  MOVWF  FF7
06802:  MOVLW  00
06804:  MOVWF  FF8
06806:  CALL   3528
....................             SendDataDisplay(); 
0680A:  CALL   355A
....................             if(!GuardaEEPROM){ 
0680E:  BTFSC  xA2.3
06810:  BRA    68FC
....................                write_eeprom(10,Contrasena[0]);delay_ms(20);write_eeprom(11,Contrasena[1]);delay_ms(20); 
06812:  CLRF   FAA
06814:  MOVLW  0A
06816:  MOVWF  FA9
06818:  MOVFF  376,FA8
0681C:  BCF    FA6.6
0681E:  BCF    FA6.7
06820:  BSF    FA6.2
06822:  MOVF   FF2,W
06824:  MOVWF  00
06826:  BCF    FF2.6
06828:  BCF    FF2.7
0682A:  MOVLB  F
0682C:  MOVLW  55
0682E:  MOVWF  FA7
06830:  MOVLW  AA
06832:  MOVWF  FA7
06834:  BSF    FA6.1
06836:  BTFSC  FA6.1
06838:  BRA    6836
0683A:  BCF    FA6.2
0683C:  MOVF   00,W
0683E:  IORWF  FF2,F
06840:  MOVLW  14
06842:  MOVLB  3
06844:  MOVWF  xFB
06846:  MOVLB  0
06848:  CALL   17AE
0684C:  CLRF   FAA
0684E:  MOVLW  0B
06850:  MOVWF  FA9
06852:  MOVFF  377,FA8
06856:  BCF    FA6.6
06858:  BCF    FA6.7
0685A:  BSF    FA6.2
0685C:  MOVF   FF2,W
0685E:  MOVWF  00
06860:  BCF    FF2.6
06862:  BCF    FF2.7
06864:  MOVLB  F
06866:  MOVLW  55
06868:  MOVWF  FA7
0686A:  MOVLW  AA
0686C:  MOVWF  FA7
0686E:  BSF    FA6.1
06870:  BTFSC  FA6.1
06872:  BRA    6870
06874:  BCF    FA6.2
06876:  MOVF   00,W
06878:  IORWF  FF2,F
0687A:  MOVLW  14
0687C:  MOVLB  3
0687E:  MOVWF  xFB
06880:  MOVLB  0
06882:  CALL   17AE
....................                write_eeprom(12,Contrasena[2]);delay_ms(20);write_eeprom(13,Contrasena[3]);delay_ms(20); 
06886:  CLRF   FAA
06888:  MOVLW  0C
0688A:  MOVWF  FA9
0688C:  MOVFF  378,FA8
06890:  BCF    FA6.6
06892:  BCF    FA6.7
06894:  BSF    FA6.2
06896:  MOVF   FF2,W
06898:  MOVWF  00
0689A:  BCF    FF2.6
0689C:  BCF    FF2.7
0689E:  MOVLB  F
068A0:  MOVLW  55
068A2:  MOVWF  FA7
068A4:  MOVLW  AA
068A6:  MOVWF  FA7
068A8:  BSF    FA6.1
068AA:  BTFSC  FA6.1
068AC:  BRA    68AA
068AE:  BCF    FA6.2
068B0:  MOVF   00,W
068B2:  IORWF  FF2,F
068B4:  MOVLW  14
068B6:  MOVLB  3
068B8:  MOVWF  xFB
068BA:  MOVLB  0
068BC:  CALL   17AE
068C0:  CLRF   FAA
068C2:  MOVLW  0D
068C4:  MOVWF  FA9
068C6:  MOVFF  379,FA8
068CA:  BCF    FA6.6
068CC:  BCF    FA6.7
068CE:  BSF    FA6.2
068D0:  MOVF   FF2,W
068D2:  MOVWF  00
068D4:  BCF    FF2.6
068D6:  BCF    FF2.7
068D8:  MOVLB  F
068DA:  MOVLW  55
068DC:  MOVWF  FA7
068DE:  MOVLW  AA
068E0:  MOVWF  FA7
068E2:  BSF    FA6.1
068E4:  BTFSC  FA6.1
068E6:  BRA    68E4
068E8:  BCF    FA6.2
068EA:  MOVF   00,W
068EC:  IORWF  FF2,F
068EE:  MOVLW  14
068F0:  MOVLB  3
068F2:  MOVWF  xFB
068F4:  MOVLB  0
068F6:  CALL   17AE
....................                GuardaEEPROM=ON; 
068FA:  BSF    xA2.3
068FC:  MOVLB  2
....................             } 
....................          } 
....................       } 
....................        
....................       if(RX_Buffer[4]==0x11){//11 
068FE:  MOVF   34,W
06900:  SUBLW  11
06902:  BNZ   6922
....................          if(TipoClave!=0){ 
06904:  MOVF   xDB,F
06906:  BZ    6922
....................             printf("page MenuPrincipal"); 
06908:  MOVLW  D0
0690A:  MOVWF  FF6
0690C:  MOVLW  05
0690E:  MOVWF  FF7
06910:  MOVLW  00
06912:  MOVWF  FF8
06914:  MOVLB  0
06916:  CALL   3528
....................             SendDataDisplay(); 
0691A:  CALL   355A
....................             PantallaPrincipal=0; 
0691E:  MOVLB  2
06920:  CLRF   xDA
....................          } 
....................       } 
....................        
....................       if(TipoClave==3){ 
06922:  MOVF   xDB,W
06924:  SUBLW  03
06926:  BNZ   6954
....................          printf("titulo.txt=\"Clave Nueva\""); 
06928:  MOVLW  E4
0692A:  MOVWF  FF6
0692C:  MOVLW  05
0692E:  MOVWF  FF7
06930:  MOVLW  00
06932:  MOVWF  FF8
06934:  MOVLB  0
06936:  CALL   3528
....................          SendDataDisplay(); 
0693A:  CALL   355A
....................          printf("doevents"); 
0693E:  MOVLW  FE
06940:  MOVWF  FF6
06942:  MOVLW  05
06944:  MOVWF  FF7
06946:  MOVLW  00
06948:  MOVWF  FF8
0694A:  CALL   3528
....................          SendDataDisplay(); 
0694E:  CALL   355A
06952:  MOVLB  2
....................       } 
....................        
....................       if(TipoClave==2){ 
06954:  MOVF   xDB,W
06956:  SUBLW  02
06958:  BNZ   6986
....................          printf("titulo.txt=\"Clave Actual\""); 
0695A:  MOVLW  08
0695C:  MOVWF  FF6
0695E:  MOVLW  06
06960:  MOVWF  FF7
06962:  MOVLW  00
06964:  MOVWF  FF8
06966:  MOVLB  0
06968:  CALL   3528
....................          SendDataDisplay(); 
0696C:  CALL   355A
....................          printf("doevents"); 
06970:  MOVLW  22
06972:  MOVWF  FF6
06974:  MOVLW  06
06976:  MOVWF  FF7
06978:  MOVLW  00
0697A:  MOVWF  FF8
0697C:  CALL   3528
....................          SendDataDisplay(); 
06980:  CALL   355A
06984:  MOVLB  2
....................       } 
....................        
....................       if(TipoClave==1){ 
06986:  DECFSZ xDB,W
06988:  BRA    69B6
....................          printf("titulo.txt=\"Clave Tecnico\""); 
0698A:  MOVLW  2C
0698C:  MOVWF  FF6
0698E:  MOVLW  06
06990:  MOVWF  FF7
06992:  MOVLW  00
06994:  MOVWF  FF8
06996:  MOVLB  0
06998:  CALL   3528
....................          SendDataDisplay(); 
0699C:  CALL   355A
....................          printf("doevents"); 
069A0:  MOVLW  48
069A2:  MOVWF  FF6
069A4:  MOVLW  06
069A6:  MOVWF  FF7
069A8:  MOVLW  00
069AA:  MOVWF  FF8
069AC:  CALL   3528
....................          SendDataDisplay(); 
069B0:  CALL   355A
069B4:  MOVLB  2
....................       } 
....................        
....................       if(TipoClave==0){ 
069B6:  MOVF   xDB,F
069B8:  BNZ   69D2
....................          printf("titulo.txt=\"Ingrese Contrasea\""); 
069BA:  MOVLW  52
069BC:  MOVWF  FF6
069BE:  MOVLW  06
069C0:  MOVWF  FF7
069C2:  MOVLW  00
069C4:  MOVWF  FF8
069C6:  MOVLB  0
069C8:  CALL   3528
....................          SendDataDisplay(); 
069CC:  CALL   355A
069D0:  MOVLB  2
....................       } 
....................       if(RX_Buffer[3]==0x0f){//0f, recibe caracteres ingresados desde el Display 
069D2:  MOVF   33,W
069D4:  SUBLW  0F
069D6:  BTFSS  FD8.2
069D8:  BRA    6DB2
....................          if(TipoClave==0){ 
069DA:  MOVF   xDB,F
069DC:  BTFSS  FD8.2
069DE:  BRA    6B6E
....................             if(RX_Buffer[4]==0x33&&RX_Buffer[5]==0x38&&RX_Buffer[6]==0x39&&RX_Buffer[7]==0x32){ // Si Ingresa clave para reset general del sistema. 
069E0:  MOVF   34,W
069E2:  SUBLW  33
069E4:  BTFSS  FD8.2
069E6:  BRA    6AE0
069E8:  MOVF   35,W
069EA:  SUBLW  38
069EC:  BTFSS  FD8.2
069EE:  BRA    6AE0
069F0:  MOVF   36,W
069F2:  SUBLW  39
069F4:  BNZ   6AE0
069F6:  MOVF   37,W
069F8:  SUBLW  32
069FA:  BNZ   6AE0
....................                write_eeprom(10,0);delay_ms(20);write_eeprom(11,0);delay_ms(20);// Reestablece a contrasea de Fabrica y reinicia Programa. 
069FC:  CLRF   FAA
069FE:  MOVLW  0A
06A00:  MOVWF  FA9
06A02:  CLRF   FA8
06A04:  BCF    FA6.6
06A06:  BCF    FA6.7
06A08:  BSF    FA6.2
06A0A:  MOVF   FF2,W
06A0C:  MOVWF  00
06A0E:  BCF    FF2.6
06A10:  BCF    FF2.7
06A12:  MOVLB  F
06A14:  MOVLW  55
06A16:  MOVWF  FA7
06A18:  MOVLW  AA
06A1A:  MOVWF  FA7
06A1C:  BSF    FA6.1
06A1E:  BTFSC  FA6.1
06A20:  BRA    6A1E
06A22:  BCF    FA6.2
06A24:  MOVF   00,W
06A26:  IORWF  FF2,F
06A28:  MOVLW  14
06A2A:  MOVLB  3
06A2C:  MOVWF  xFB
06A2E:  MOVLB  0
06A30:  CALL   17AE
06A34:  CLRF   FAA
06A36:  MOVLW  0B
06A38:  MOVWF  FA9
06A3A:  CLRF   FA8
06A3C:  BCF    FA6.6
06A3E:  BCF    FA6.7
06A40:  BSF    FA6.2
06A42:  MOVF   FF2,W
06A44:  MOVWF  00
06A46:  BCF    FF2.6
06A48:  BCF    FF2.7
06A4A:  MOVLB  F
06A4C:  MOVLW  55
06A4E:  MOVWF  FA7
06A50:  MOVLW  AA
06A52:  MOVWF  FA7
06A54:  BSF    FA6.1
06A56:  BTFSC  FA6.1
06A58:  BRA    6A56
06A5A:  BCF    FA6.2
06A5C:  MOVF   00,W
06A5E:  IORWF  FF2,F
06A60:  MOVLW  14
06A62:  MOVLB  3
06A64:  MOVWF  xFB
06A66:  MOVLB  0
06A68:  CALL   17AE
....................                write_eeprom(12,0);delay_ms(20);write_eeprom(13,0);delay_ms(20); 
06A6C:  CLRF   FAA
06A6E:  MOVLW  0C
06A70:  MOVWF  FA9
06A72:  CLRF   FA8
06A74:  BCF    FA6.6
06A76:  BCF    FA6.7
06A78:  BSF    FA6.2
06A7A:  MOVF   FF2,W
06A7C:  MOVWF  00
06A7E:  BCF    FF2.6
06A80:  BCF    FF2.7
06A82:  MOVLB  F
06A84:  MOVLW  55
06A86:  MOVWF  FA7
06A88:  MOVLW  AA
06A8A:  MOVWF  FA7
06A8C:  BSF    FA6.1
06A8E:  BTFSC  FA6.1
06A90:  BRA    6A8E
06A92:  BCF    FA6.2
06A94:  MOVF   00,W
06A96:  IORWF  FF2,F
06A98:  MOVLW  14
06A9A:  MOVLB  3
06A9C:  MOVWF  xFB
06A9E:  MOVLB  0
06AA0:  CALL   17AE
06AA4:  CLRF   FAA
06AA6:  MOVLW  0D
06AA8:  MOVWF  FA9
06AAA:  CLRF   FA8
06AAC:  BCF    FA6.6
06AAE:  BCF    FA6.7
06AB0:  BSF    FA6.2
06AB2:  MOVF   FF2,W
06AB4:  MOVWF  00
06AB6:  BCF    FF2.6
06AB8:  BCF    FF2.7
06ABA:  MOVLB  F
06ABC:  MOVLW  55
06ABE:  MOVWF  FA7
06AC0:  MOVLW  AA
06AC2:  MOVWF  FA7
06AC4:  BSF    FA6.1
06AC6:  BTFSC  FA6.1
06AC8:  BRA    6AC6
06ACA:  BCF    FA6.2
06ACC:  MOVF   00,W
06ACE:  IORWF  FF2,F
06AD0:  MOVLW  14
06AD2:  MOVLB  3
06AD4:  MOVWF  xFB
06AD6:  MOVLB  0
06AD8:  CALL   17AE
....................                reset_cpu(); 
06ADC:  RESET
06ADE:  MOVLB  2
....................             } 
....................             if(RX_Buffer[4]>=0x30 && RX_Buffer[5]>=0x30 && RX_Buffer[6]>=0x30 && RX_Buffer[7]>=0x30 
....................             && RX_Buffer[4]<=0x39 && RX_Buffer[5]<=0x39 && RX_Buffer[6]<=0x39 && RX_Buffer[7]<=0x39){ 
06AE0:  MOVF   34,W
06AE2:  SUBLW  2F
06AE4:  BC    6B6C
06AE6:  MOVF   35,W
06AE8:  SUBLW  2F
06AEA:  BC    6B6C
06AEC:  MOVF   36,W
06AEE:  SUBLW  2F
06AF0:  BC    6B6C
06AF2:  MOVF   37,W
06AF4:  SUBLW  2F
06AF6:  BC    6B6C
06AF8:  MOVF   34,W
06AFA:  SUBLW  39
06AFC:  BNC   6B6C
06AFE:  MOVF   35,W
06B00:  SUBLW  39
06B02:  BNC   6B6C
06B04:  MOVF   36,W
06B06:  SUBLW  39
06B08:  BNC   6B6C
06B0A:  MOVF   37,W
06B0C:  SUBLW  39
06B0E:  BNC   6B6C
....................             if((RX_Buffer[4]==Password[0]+0x30)&&(RX_Buffer[5]==Password[1]+0x30)&&(RX_Buffer[6]==Password[2]+0x30)&&(RX_Buffer[7]==Password[3]+0x30)){ 
06B10:  MOVLW  30
06B12:  MOVLB  3
06B14:  ADDWF  x7A,W
06B16:  SUBWF  34,W
06B18:  BNZ   6B50
06B1A:  MOVLW  30
06B1C:  ADDWF  x7B,W
06B1E:  SUBWF  35,W
06B20:  BNZ   6B50
06B22:  MOVLW  30
06B24:  ADDWF  x7C,W
06B26:  SUBWF  36,W
06B28:  BNZ   6B50
06B2A:  MOVLW  30
06B2C:  ADDWF  x7D,W
06B2E:  SUBWF  37,W
06B30:  BNZ   6B50
....................                   printf("page ClaveCorrecta"); 
06B32:  MOVLW  72
06B34:  MOVWF  FF6
06B36:  MOVLW  06
06B38:  MOVWF  FF7
06B3A:  MOVLW  00
06B3C:  MOVWF  FF8
06B3E:  MOVLB  0
06B40:  CALL   3528
....................                   //printf("page MenuPrincipal"); 
....................                   SendDataDisplay(); 
06B44:  CALL   355A
....................                   RX_Buffer[3]=0x00;RX_Buffer2[3]=0x00;   
06B48:  CLRF   33
06B4A:  CLRF   3E
....................                }else{ 
06B4C:  BRA    6B6A
06B4E:  MOVLB  3
....................                   printf("page ClaveBad"); 
06B50:  MOVLW  86
06B52:  MOVWF  FF6
06B54:  MOVLW  06
06B56:  MOVWF  FF7
06B58:  MOVLW  00
06B5A:  MOVWF  FF8
06B5C:  MOVLB  0
06B5E:  CALL   3528
....................                   SendDataDisplay(); 
06B62:  CALL   355A
....................                   RX_Buffer[3]=0x00;RX_Buffer2[3]=0x00;   
06B66:  CLRF   33
06B68:  CLRF   3E
06B6A:  MOVLB  2
....................                }  
....................             } 
....................          }else if(TipoClave==1){ 
06B6C:  BRA    6DB2
06B6E:  DECFSZ xDB,W
06B70:  BRA    6BBE
....................             if(RX_Buffer[4]==0x34&&RX_Buffer[5]==0x34&&RX_Buffer[6]==0x34&&RX_Buffer[7]==0x34){ // Si Ingresa clave de Servicio Tecnico 
06B72:  MOVF   34,W
06B74:  SUBLW  34
06B76:  BNZ   6BA4
06B78:  MOVF   35,W
06B7A:  SUBLW  34
06B7C:  BNZ   6BA4
06B7E:  MOVF   36,W
06B80:  SUBLW  34
06B82:  BNZ   6BA4
06B84:  MOVF   37,W
06B86:  SUBLW  34
06B88:  BNZ   6BA4
....................                printf("page Config"); 
06B8A:  MOVLW  94
06B8C:  MOVWF  FF6
06B8E:  MOVLW  06
06B90:  MOVWF  FF7
06B92:  MOVLW  00
06B94:  MOVWF  FF8
06B96:  MOVLB  0
06B98:  CALL   3528
....................                SendDataDisplay(); 
06B9C:  CALL   355A
....................             }else{ 
06BA0:  BRA    6BBA
06BA2:  MOVLB  2
....................                printf("page MenuPrincipal"); 
06BA4:  MOVLW  A0
06BA6:  MOVWF  FF6
06BA8:  MOVLW  06
06BAA:  MOVWF  FF7
06BAC:  MOVLW  00
06BAE:  MOVWF  FF8
06BB0:  MOVLB  0
06BB2:  CALL   3528
....................                SendDataDisplay(); 
06BB6:  CALL   355A
....................             } 
....................          }else if(TipoClave==2){ 
06BBA:  BRA    6DB0
06BBC:  MOVLB  2
06BBE:  MOVF   xDB,W
06BC0:  SUBLW  02
06BC2:  BNZ   6C6C
....................             if(RX_Buffer[4]>=0x30 && RX_Buffer[5]>=0x30 && RX_Buffer[6]>=0x30 && RX_Buffer[7]>=0x30 
....................             && RX_Buffer[4]<=0x39 && RX_Buffer[5]<=0x39 && RX_Buffer[6]<=0x39 && RX_Buffer[7]<=0x39){ 
06BC4:  MOVF   34,W
06BC6:  SUBLW  2F
06BC8:  BC    6C6A
06BCA:  MOVF   35,W
06BCC:  SUBLW  2F
06BCE:  BC    6C6A
06BD0:  MOVF   36,W
06BD2:  SUBLW  2F
06BD4:  BC    6C6A
06BD6:  MOVF   37,W
06BD8:  SUBLW  2F
06BDA:  BC    6C6A
06BDC:  MOVF   34,W
06BDE:  SUBLW  39
06BE0:  BNC   6C6A
06BE2:  MOVF   35,W
06BE4:  SUBLW  39
06BE6:  BNC   6C6A
06BE8:  MOVF   36,W
06BEA:  SUBLW  39
06BEC:  BNC   6C6A
06BEE:  MOVF   37,W
06BF0:  SUBLW  39
06BF2:  BNC   6C6A
....................             if((RX_Buffer[4]==Password[0]+0x30)&&(RX_Buffer[5]==Password[1]+0x30)&&(RX_Buffer[6]==Password[2]+0x30)&&(RX_Buffer[7]==Password[3]+0x30)){ 
06BF4:  MOVLW  30
06BF6:  MOVLB  3
06BF8:  ADDWF  x7A,W
06BFA:  SUBWF  34,W
06BFC:  BNZ   6C4E
06BFE:  MOVLW  30
06C00:  ADDWF  x7B,W
06C02:  SUBWF  35,W
06C04:  BNZ   6C4E
06C06:  MOVLW  30
06C08:  ADDWF  x7C,W
06C0A:  SUBWF  36,W
06C0C:  BNZ   6C4E
06C0E:  MOVLW  30
06C10:  ADDWF  x7D,W
06C12:  SUBWF  37,W
06C14:  BNZ   6C4E
....................                printf("page Clave"); 
06C16:  MOVLW  B4
06C18:  MOVWF  FF6
06C1A:  MOVLW  06
06C1C:  MOVWF  FF7
06C1E:  MOVLW  00
06C20:  MOVWF  FF8
06C22:  MOVLB  0
06C24:  CALL   3528
....................                SendDataDisplay(); 
06C28:  CALL   355A
....................                printf("titulo.txt=\"Clave Nueva\""); 
06C2C:  MOVLW  C0
06C2E:  MOVWF  FF6
06C30:  MOVLW  06
06C32:  MOVWF  FF7
06C34:  MOVLW  00
06C36:  MOVWF  FF8
06C38:  CALL   3528
....................                SendDataDisplay(); 
06C3C:  CALL   355A
....................                TipoClave=3; 
06C40:  MOVLW  03
06C42:  MOVLB  2
06C44:  MOVWF  xDB
....................                RX_Buffer[3]=0x00; 
06C46:  CLRF   33
....................                RX_Buffer2[3]=0x00; 
06C48:  CLRF   3E
....................             }else{ 
06C4A:  BRA    6C6A
06C4C:  MOVLB  3
....................                printf("page MenuPrincipal"); 
06C4E:  MOVLW  DA
06C50:  MOVWF  FF6
06C52:  MOVLW  06
06C54:  MOVWF  FF7
06C56:  MOVLW  00
06C58:  MOVWF  FF8
06C5A:  MOVLB  0
06C5C:  CALL   3528
....................                SendDataDisplay(); 
06C60:  CALL   355A
....................                RX_Buffer[3]=0x00; 
06C64:  CLRF   33
....................                RX_Buffer2[3]=0x00; 
06C66:  CLRF   3E
06C68:  MOVLB  2
....................             }  
....................             } 
....................          }else if(TipoClave==3){ 
06C6A:  BRA    6DB2
06C6C:  MOVF   xDB,W
06C6E:  SUBLW  03
06C70:  BTFSS  FD8.2
06C72:  BRA    6DB2
....................             printf("titulo.txt=\"Clave Nueva\""); 
06C74:  MOVLW  EE
06C76:  MOVWF  FF6
06C78:  MOVLW  06
06C7A:  MOVWF  FF7
06C7C:  MOVLW  00
06C7E:  MOVWF  FF8
06C80:  MOVLB  0
06C82:  CALL   3528
....................             SendDataDisplay(); 
06C86:  CALL   355A
....................             printf("page MenuPrincipal"); 
06C8A:  MOVLW  08
06C8C:  MOVWF  FF6
06C8E:  MOVLW  07
06C90:  MOVWF  FF7
06C92:  MOVLW  00
06C94:  MOVWF  FF8
06C96:  CALL   3528
....................             SendDataDisplay(); 
06C9A:  CALL   355A
....................             if(!GuardaEEPROM){ 
06C9E:  BTFSC  xA2.3
06CA0:  BRA    6DAC
....................                write_eeprom(10,RX_Buffer[4]-0x30);delay_ms(20);write_eeprom(11,RX_Buffer[5]-0x30);delay_ms(20); 
06CA2:  MOVLW  30
06CA4:  SUBWF  34,W
06CA6:  MOVLB  3
06CA8:  MOVWF  xE6
06CAA:  CLRF   FAA
06CAC:  MOVLW  0A
06CAE:  MOVWF  FA9
06CB0:  MOVFF  3E6,FA8
06CB4:  BCF    FA6.6
06CB6:  BCF    FA6.7
06CB8:  BSF    FA6.2
06CBA:  MOVF   FF2,W
06CBC:  MOVWF  00
06CBE:  BCF    FF2.6
06CC0:  BCF    FF2.7
06CC2:  MOVLB  F
06CC4:  MOVLW  55
06CC6:  MOVWF  FA7
06CC8:  MOVLW  AA
06CCA:  MOVWF  FA7
06CCC:  BSF    FA6.1
06CCE:  BTFSC  FA6.1
06CD0:  BRA    6CCE
06CD2:  BCF    FA6.2
06CD4:  MOVF   00,W
06CD6:  IORWF  FF2,F
06CD8:  MOVLW  14
06CDA:  MOVLB  3
06CDC:  MOVWF  xFB
06CDE:  MOVLB  0
06CE0:  CALL   17AE
06CE4:  MOVLW  30
06CE6:  SUBWF  35,W
06CE8:  MOVLB  3
06CEA:  MOVWF  xE6
06CEC:  CLRF   FAA
06CEE:  MOVLW  0B
06CF0:  MOVWF  FA9
06CF2:  MOVFF  3E6,FA8
06CF6:  BCF    FA6.6
06CF8:  BCF    FA6.7
06CFA:  BSF    FA6.2
06CFC:  MOVF   FF2,W
06CFE:  MOVWF  00
06D00:  BCF    FF2.6
06D02:  BCF    FF2.7
06D04:  MOVLB  F
06D06:  MOVLW  55
06D08:  MOVWF  FA7
06D0A:  MOVLW  AA
06D0C:  MOVWF  FA7
06D0E:  BSF    FA6.1
06D10:  BTFSC  FA6.1
06D12:  BRA    6D10
06D14:  BCF    FA6.2
06D16:  MOVF   00,W
06D18:  IORWF  FF2,F
06D1A:  MOVLW  14
06D1C:  MOVLB  3
06D1E:  MOVWF  xFB
06D20:  MOVLB  0
06D22:  CALL   17AE
....................                write_eeprom(12,RX_Buffer[6]-0x30);delay_ms(20);write_eeprom(13,RX_Buffer[7]-0x30);delay_ms(20); 
06D26:  MOVLW  30
06D28:  SUBWF  36,W
06D2A:  MOVLB  3
06D2C:  MOVWF  xE6
06D2E:  CLRF   FAA
06D30:  MOVLW  0C
06D32:  MOVWF  FA9
06D34:  MOVFF  3E6,FA8
06D38:  BCF    FA6.6
06D3A:  BCF    FA6.7
06D3C:  BSF    FA6.2
06D3E:  MOVF   FF2,W
06D40:  MOVWF  00
06D42:  BCF    FF2.6
06D44:  BCF    FF2.7
06D46:  MOVLB  F
06D48:  MOVLW  55
06D4A:  MOVWF  FA7
06D4C:  MOVLW  AA
06D4E:  MOVWF  FA7
06D50:  BSF    FA6.1
06D52:  BTFSC  FA6.1
06D54:  BRA    6D52
06D56:  BCF    FA6.2
06D58:  MOVF   00,W
06D5A:  IORWF  FF2,F
06D5C:  MOVLW  14
06D5E:  MOVLB  3
06D60:  MOVWF  xFB
06D62:  MOVLB  0
06D64:  CALL   17AE
06D68:  MOVLW  30
06D6A:  SUBWF  37,W
06D6C:  MOVLB  3
06D6E:  MOVWF  xE6
06D70:  CLRF   FAA
06D72:  MOVLW  0D
06D74:  MOVWF  FA9
06D76:  MOVFF  3E6,FA8
06D7A:  BCF    FA6.6
06D7C:  BCF    FA6.7
06D7E:  BSF    FA6.2
06D80:  MOVF   FF2,W
06D82:  MOVWF  00
06D84:  BCF    FF2.6
06D86:  BCF    FF2.7
06D88:  MOVLB  F
06D8A:  MOVLW  55
06D8C:  MOVWF  FA7
06D8E:  MOVLW  AA
06D90:  MOVWF  FA7
06D92:  BSF    FA6.1
06D94:  BTFSC  FA6.1
06D96:  BRA    6D94
06D98:  BCF    FA6.2
06D9A:  MOVF   00,W
06D9C:  IORWF  FF2,F
06D9E:  MOVLW  14
06DA0:  MOVLB  3
06DA2:  MOVWF  xFB
06DA4:  MOVLB  0
06DA6:  CALL   17AE
....................                GuardaEEPROM=ON; 
06DAA:  BSF    xA2.3
....................             } 
....................             RX_Buffer[3]=0x00; 
06DAC:  CLRF   33
....................             RX_Buffer2[3]=0x00; 
06DAE:  CLRF   3E
06DB0:  MOVLB  2
06DB2:  MOVLB  3
....................          } 
....................       } 
....................     } 
.................... //_--------------------------------------------------------------------------------------------------------------------------------------------------------        
....................  
.................... //_-------------------------------------------------------------------------------------------------------------------------------------------------------- 
....................    if(Menu==1){ //Menu Principal. 
06DB4:  DECFSZ x55,W
06DB6:  GOTO   7746
....................       printf("fecha.txt=\"T:%3.1fC Fecha:%02u/%02u/20%02u Hora: %02u:%02u:%02u\"",Temperatura,Dia,Mes,Year,Hora,Minuto,Segundo); 
06DBA:  MOVLW  1C
06DBC:  MOVWF  FF6
06DBE:  MOVLW  07
06DC0:  MOVWF  FF7
06DC2:  MOVLW  00
06DC4:  MOVWF  FF8
06DC6:  MOVLW  0D
06DC8:  MOVWF  xEA
06DCA:  MOVLB  0
06DCC:  CALL   4228
06DD0:  MOVLW  02
06DD2:  MOVWF  FE9
06DD4:  MOVFF  322,3ED
06DD8:  MOVFF  321,3EC
06DDC:  MOVFF  320,3EB
06DE0:  MOVFF  31F,3EA
06DE4:  MOVLW  01
06DE6:  MOVLB  3
06DE8:  MOVWF  xEE
06DEA:  MOVLB  0
06DEC:  CALL   4400
06DF0:  MOVLW  2E
06DF2:  MOVWF  FF6
06DF4:  MOVLW  07
06DF6:  MOVWF  FF7
06DF8:  MOVLW  00
06DFA:  MOVWF  FF8
06DFC:  MOVLW  09
06DFE:  MOVLB  3
06E00:  MOVWF  xEA
06E02:  MOVLB  0
06E04:  CALL   4228
06E08:  MOVFF  38E,3E8
06E0C:  MOVLW  01
06E0E:  MOVLB  3
06E10:  MOVWF  xE9
06E12:  MOVLB  0
06E14:  CALL   4286
06E18:  MOVLW  2F
06E1A:  BTFSS  F9E.4
06E1C:  BRA    6E1A
06E1E:  MOVWF  FAD
06E20:  MOVFF  38D,3E8
06E24:  MOVLW  01
06E26:  MOVLB  3
06E28:  MOVWF  xE9
06E2A:  MOVLB  0
06E2C:  CALL   4286
06E30:  MOVLW  2F
06E32:  BTFSS  F9E.4
06E34:  BRA    6E32
06E36:  MOVWF  FAD
06E38:  MOVLW  32
06E3A:  BTFSS  F9E.4
06E3C:  BRA    6E3A
06E3E:  MOVWF  FAD
06E40:  MOVLW  30
06E42:  BTFSS  F9E.4
06E44:  BRA    6E42
06E46:  MOVWF  FAD
06E48:  MOVFF  38C,3E8
06E4C:  MOVLW  01
06E4E:  MOVLB  3
06E50:  MOVWF  xE9
06E52:  MOVLB  0
06E54:  CALL   4286
06E58:  MOVLW  47
06E5A:  MOVWF  FF6
06E5C:  MOVLW  07
06E5E:  MOVWF  FF7
06E60:  MOVLW  00
06E62:  MOVWF  FF8
06E64:  MOVLW  07
06E66:  MOVLB  3
06E68:  MOVWF  xEA
06E6A:  MOVLB  0
06E6C:  CALL   4228
06E70:  MOVFF  38F,3E8
06E74:  MOVLW  01
06E76:  MOVLB  3
06E78:  MOVWF  xE9
06E7A:  MOVLB  0
06E7C:  CALL   4286
06E80:  MOVLW  3A
06E82:  BTFSS  F9E.4
06E84:  BRA    6E82
06E86:  MOVWF  FAD
06E88:  MOVFF  390,3E8
06E8C:  MOVLW  01
06E8E:  MOVLB  3
06E90:  MOVWF  xE9
06E92:  MOVLB  0
06E94:  CALL   4286
06E98:  MOVLW  3A
06E9A:  BTFSS  F9E.4
06E9C:  BRA    6E9A
06E9E:  MOVWF  FAD
06EA0:  MOVFF  391,3E8
06EA4:  MOVLW  01
06EA6:  MOVLB  3
06EA8:  MOVWF  xE9
06EAA:  MOVLB  0
06EAC:  CALL   4286
06EB0:  MOVLW  22
06EB2:  BTFSS  F9E.4
06EB4:  BRA    6EB2
06EB6:  MOVWF  FAD
....................       SendDataDisplay(); 
06EB8:  CALL   355A
....................       GuardaEEPROM=OFF; 
06EBC:  BCF    xA2.3
....................       PruebaEstados=OFF; 
06EBE:  BCF    xA1.2
....................       if(RX_Buffer[3]==0x0f || UP){//0f, recibe caracteres ingresados desde el Display 
06EC0:  MOVF   33,W
06EC2:  SUBLW  0F
06EC4:  BZ    6ECC
06EC6:  BSF    F93.0
06EC8:  BTFSC  F81.0
06ECA:  BRA    7120
....................          delay_ms(5); 
06ECC:  MOVLW  05
06ECE:  MOVLB  3
06ED0:  MOVWF  xFB
06ED2:  MOVLB  0
06ED4:  CALL   17AE
....................          if(RX_Buffer[3]==0x0f || UP){ 
06ED8:  MOVF   33,W
06EDA:  SUBLW  0F
06EDC:  BZ    6EE4
06EDE:  BSF    F93.0
06EE0:  BTFSC  F81.0
06EE2:  BRA    711A
....................          if(PantallaPrincipal==0){//Si esta en menu principal 
06EE4:  MOVLB  2
06EE6:  MOVF   xDA,F
06EE8:  BTFSS  FD8.2
06EEA:  BRA    711E
....................             if(RX_Buffer[4]==0x37){//Ajustes y pasa a solicitud de password de tecnico 
06EEC:  MOVF   34,W
06EEE:  SUBLW  37
06EF0:  BNZ   6F1E
....................                printf("page Clave"); 
06EF2:  MOVLW  5E
06EF4:  MOVWF  FF6
06EF6:  MOVLW  07
06EF8:  MOVWF  FF7
06EFA:  MOVLW  00
06EFC:  MOVWF  FF8
06EFE:  MOVLB  0
06F00:  CALL   3528
....................                SendDataDisplay();  
06F04:  CALL   355A
....................                Op=OFF; 
06F08:  BCF    xA1.7
....................                Op2=OFF; 
06F0A:  BCF    xA2.0
....................                MenuAnt=Menu; 
06F0C:  MOVFF  355,356
....................                TipoClave=1; 
06F10:  MOVLW  01
06F12:  MOVLB  2
06F14:  MOVWF  xDB
....................                RX_Buffer[3]=0x00; 
06F16:  CLRF   33
....................                RX_Buffer2[3]=0x00; 
06F18:  CLRF   3E
....................                Opcion=0; 
06F1A:  MOVLB  3
06F1C:  CLRF   x5D
....................             }  
....................             if(Opcion==8){// Cambio de Clave 
06F1E:  MOVLB  3
06F20:  MOVF   x5D,W
06F22:  SUBLW  08
06F24:  BNZ   6F54
....................                printf("page Clave"); 
06F26:  MOVLW  6A
06F28:  MOVWF  FF6
06F2A:  MOVLW  07
06F2C:  MOVWF  FF7
06F2E:  MOVLW  00
06F30:  MOVWF  FF8
06F32:  MOVLB  0
06F34:  CALL   3528
....................                SendDataDisplay();  
06F38:  CALL   355A
....................                Op=OFF; 
06F3C:  BCF    xA1.7
....................                Op2=OFF; 
06F3E:  BCF    xA2.0
....................                MenuAnt=Menu; 
06F40:  MOVFF  355,356
....................                TipoClave=2; 
06F44:  MOVLW  02
06F46:  MOVLB  2
06F48:  MOVWF  xDB
....................                RX_Buffer[3]=0x00; 
06F4A:  CLRF   33
....................                RX_Buffer2[3]=0x00; 
06F4C:  CLRF   3E
....................                Opcion=0; 
06F4E:  MOVLB  3
06F50:  CLRF   x5D
....................             }else if(Opcion==7){//Hora y Fecha 
06F52:  BRA    711C
06F54:  MOVF   x5D,W
06F56:  SUBLW  07
06F58:  BNZ   6F96
....................                printf("page Fecha"); 
06F5A:  MOVLW  76
06F5C:  MOVWF  FF6
06F5E:  MOVLW  07
06F60:  MOVWF  FF7
06F62:  MOVLW  00
06F64:  MOVWF  FF8
06F66:  MOVLB  0
06F68:  CALL   3528
....................                SendDataDisplay();      
06F6C:  CALL   355A
....................                PantallaPrincipal=0; 
06F70:  MOVLB  2
06F72:  CLRF   xDA
....................                MenuAnt=Menu; 
06F74:  MOVFF  355,356
....................                Op=OFF; 
06F78:  MOVLB  0
06F7A:  BCF    xA1.7
....................                Op2=OFF; 
06F7C:  BCF    xA2.0
....................                DiaTx=Dia; 
06F7E:  MOVFF  38E,395
....................                MesTx=Mes; 
06F82:  MOVFF  38D,394
....................                YearTx=Year; 
06F86:  MOVFF  38C,393
....................                HoraTx=Hora; 
06F8A:  MOVFF  38F,396
....................                MinutoTx=Minuto; 
06F8E:  MOVFF  390,397
....................             }else if(Opcion==6){//Test 
06F92:  BRA    711A
06F94:  MOVLB  3
06F96:  MOVF   x5D,W
06F98:  SUBLW  06
06F9A:  BNZ   6FC4
....................                printf("page Test"); 
06F9C:  MOVLW  82
06F9E:  MOVWF  FF6
06FA0:  MOVLW  07
06FA2:  MOVWF  FF7
06FA4:  MOVLW  00
06FA6:  MOVWF  FF8
06FA8:  MOVLB  0
06FAA:  CALL   3528
....................                SendDataDisplay();      
06FAE:  CALL   355A
....................                PantallaPrincipal=0; 
06FB2:  MOVLB  2
06FB4:  CLRF   xDA
....................                MenuAnt=Menu; 
06FB6:  MOVFF  355,356
....................                Op=OFF; 
06FBA:  MOVLB  0
06FBC:  BCF    xA1.7
....................                Op2=OFF; 
06FBE:  BCF    xA2.0
....................             }else if(Opcion==5){//Ciclo Personalizado 
06FC0:  BRA    711A
06FC2:  MOVLB  3
06FC4:  MOVF   x5D,W
06FC6:  SUBLW  05
06FC8:  BNZ   6FEC
....................                printf("page CicloPersona"); 
06FCA:  MOVLW  8C
06FCC:  MOVWF  FF6
06FCE:  MOVLW  07
06FD0:  MOVWF  FF7
06FD2:  MOVLW  00
06FD4:  MOVWF  FF8
06FD6:  MOVLB  0
06FD8:  CALL   3528
....................                SendDataDisplay();  
06FDC:  CALL   355A
....................                MenuAnt=Menu; 
06FE0:  MOVFF  355,356
....................                Op=OFF; 
06FE4:  BCF    xA1.7
....................                Op2=OFF; 
06FE6:  BCF    xA2.0
....................             }else if(Opcion==4){//LiquidosB 
06FE8:  BRA    711A
06FEA:  MOVLB  3
06FEC:  MOVF   x5D,W
06FEE:  SUBLW  04
06FF0:  BNZ   703A
....................                printf("page Nivel"); 
06FF2:  MOVLW  9E
06FF4:  MOVWF  FF6
06FF6:  MOVLW  07
06FF8:  MOVWF  FF7
06FFA:  MOVLW  00
06FFC:  MOVWF  FF8
06FFE:  MOVLB  0
07000:  CALL   3528
....................                SendDataDisplay();        
07004:  CALL   355A
....................                ConfiguraCiclo(0,0,0,3,0,0,0,0,1,4,121); 
07008:  MOVLB  3
0700A:  CLRF   xF0
0700C:  CLRF   xF1
0700E:  CLRF   xF2
07010:  MOVLW  03
07012:  MOVWF  xF3
07014:  CLRF   xF4
07016:  CLRF   xF5
07018:  CLRF   xF6
0701A:  CLRF   xF7
0701C:  MOVLW  01
0701E:  MOVWF  xF8
07020:  MOVLW  04
07022:  MOVWF  xF9
07024:  MOVLW  79
07026:  MOVWF  xFA
07028:  MOVLB  0
0702A:  CALL   45A6
....................                Op=OFF; 
0702E:  BCF    xA1.7
....................                Op2=OFF; 
07030:  BCF    xA2.0
....................                MenuAnt=2; 
07032:  MOVLW  02
07034:  MOVLB  3
07036:  MOVWF  x56
....................             }else if(Opcion==1){//LiquidosA 
07038:  BRA    711C
0703A:  DECFSZ x5D,W
0703C:  BRA    7084
....................                printf("page Nivel"); 
0703E:  MOVLW  AA
07040:  MOVWF  FF6
07042:  MOVLW  07
07044:  MOVWF  FF7
07046:  MOVLW  00
07048:  MOVWF  FF8
0704A:  MOVLB  0
0704C:  CALL   3528
....................                SendDataDisplay();        
07050:  CALL   355A
....................                ConfiguraCiclo(0,0,5,1,0,0,0,0,1,1,121); 
07054:  MOVLB  3
07056:  CLRF   xF0
07058:  CLRF   xF1
0705A:  MOVLW  05
0705C:  MOVWF  xF2
0705E:  MOVLW  01
07060:  MOVWF  xF3
07062:  CLRF   xF4
07064:  CLRF   xF5
07066:  CLRF   xF6
07068:  CLRF   xF7
0706A:  MOVWF  xF8
0706C:  MOVWF  xF9
0706E:  MOVLW  79
07070:  MOVWF  xFA
07072:  MOVLB  0
07074:  CALL   45A6
....................                Op=OFF; 
07078:  BCF    xA1.7
....................                Op2=OFF; 
0707A:  BCF    xA2.0
....................                MenuAnt=2; 
0707C:  MOVLW  02
0707E:  MOVLB  3
07080:  MOVWF  x56
....................             }else if(Opcion==3){//Instrumental 
07082:  BRA    711C
07084:  MOVF   x5D,W
07086:  SUBLW  03
07088:  BNZ   70CE
....................                printf("page Funcionamiento"); 
0708A:  MOVLW  B6
0708C:  MOVWF  FF6
0708E:  MOVLW  07
07090:  MOVWF  FF7
07092:  MOVLW  00
07094:  MOVWF  FF8
07096:  MOVLB  0
07098:  CALL   3528
....................                SendDataDisplay();        
0709C:  CALL   355A
....................                ConfiguraCiclo(0,0,0,3,0,0,0,3,0,3,121); 
070A0:  MOVLB  3
070A2:  CLRF   xF0
070A4:  CLRF   xF1
070A6:  CLRF   xF2
070A8:  MOVLW  03
070AA:  MOVWF  xF3
070AC:  CLRF   xF4
070AE:  CLRF   xF5
070B0:  CLRF   xF6
070B2:  MOVWF  xF7
070B4:  CLRF   xF8
070B6:  MOVWF  xF9
070B8:  MOVLW  79
070BA:  MOVWF  xFA
070BC:  MOVLB  0
070BE:  CALL   45A6
....................                Op=OFF; 
070C2:  BCF    xA1.7
....................                Op2=OFF; 
070C4:  BCF    xA2.0
....................                MenuAnt=Menu; 
070C6:  MOVFF  355,356
....................                //if(Temperatura>60)TTrampa=TTrampa+5; 
....................             }else if(Opcion==2){//Caucho 
070CA:  BRA    711A
070CC:  MOVLB  3
070CE:  MOVF   x5D,W
070D0:  SUBLW  02
070D2:  BNZ   711C
....................                printf("page Funcionamiento"); 
070D4:  MOVLW  CA
070D6:  MOVWF  FF6
070D8:  MOVLW  07
070DA:  MOVWF  FF7
070DC:  MOVLW  00
070DE:  MOVWF  FF8
070E0:  MOVLB  0
070E2:  CALL   3528
....................                SendDataDisplay();        
070E6:  CALL   355A
....................                ConfiguraCiclo(0,0,5,1,0,0,3,0,0,2,121); 
070EA:  MOVLB  3
070EC:  CLRF   xF0
070EE:  CLRF   xF1
070F0:  MOVLW  05
070F2:  MOVWF  xF2
070F4:  MOVLW  01
070F6:  MOVWF  xF3
070F8:  CLRF   xF4
070FA:  CLRF   xF5
070FC:  MOVLW  03
070FE:  MOVWF  xF6
07100:  CLRF   xF7
07102:  CLRF   xF8
07104:  MOVLW  02
07106:  MOVWF  xF9
07108:  MOVLW  79
0710A:  MOVWF  xFA
0710C:  MOVLB  0
0710E:  CALL   45A6
....................                Op=OFF; 
07112:  BCF    xA1.7
....................                Op2=OFF; 
07114:  BCF    xA2.0
....................                MenuAnt=Menu; 
07116:  MOVFF  355,356
0711A:  MOVLB  3
0711C:  MOVLB  2
....................                //if(Temperatura>60)TTrampa=TTrampa+5; 
....................             } 
....................          } 
....................          } 
....................       }else if(PantallaPrincipal==0){ 
0711E:  BRA    76F8
07120:  MOVLB  2
07122:  MOVF   xDA,F
07124:  BTFSS  FD8.2
07126:  BRA    76F8
....................          if(Opcion>8) 
07128:  MOVLB  3
0712A:  MOVF   x5D,W
0712C:  SUBLW  08
0712E:  BC    7134
....................             Opcion=1; 
07130:  MOVLW  01
07132:  MOVWF  x5D
....................              
....................          if(Opcion<1) 
07134:  MOVF   x5D,F
07136:  BNZ   713C
....................             Opcion=8; 
07138:  MOVLW  08
0713A:  MOVWF  x5D
....................           
....................          if(Opcion==1){ 
0713C:  DECFSZ x5D,W
0713E:  BRA    72E2
....................             printf("bc.pic=%u",iconoGrande[Opcion-1]); 
07140:  MOVLW  01
07142:  SUBWF  x5D,W
07144:  CLRF   03
07146:  ADDLW  A0
07148:  MOVWF  FE9
0714A:  MOVLW  03
0714C:  ADDWFC 03,W
0714E:  MOVWF  FEA
07150:  MOVFF  FEF,3E6
07154:  MOVLW  DE
07156:  MOVWF  FF6
07158:  MOVLW  07
0715A:  MOVWF  FF7
0715C:  MOVLW  00
0715E:  MOVWF  FF8
07160:  MOVLW  07
07162:  MOVWF  xEA
07164:  MOVLB  0
07166:  CALL   4228
0716A:  MOVFF  3E6,3E8
0716E:  MOVLW  1B
07170:  MOVLB  3
07172:  MOVWF  xE9
07174:  MOVLB  0
07176:  CALL   4286
....................             SendDataDisplay(); 
0717A:  CALL   355A
....................             printf("bd.pic=%u",iconoPeque[Opcion]); 
0717E:  CLRF   03
07180:  MOVLB  3
07182:  MOVF   x5D,W
07184:  ADDLW  AF
07186:  MOVWF  FE9
07188:  MOVLW  03
0718A:  ADDWFC 03,W
0718C:  MOVWF  FEA
0718E:  MOVFF  FEF,3E6
07192:  MOVLW  E8
07194:  MOVWF  FF6
07196:  MOVLW  07
07198:  MOVWF  FF7
0719A:  MOVLW  00
0719C:  MOVWF  FF8
0719E:  MOVLW  07
071A0:  MOVWF  xEA
071A2:  MOVLB  0
071A4:  CALL   4228
071A8:  MOVFF  3E6,3E8
071AC:  MOVLW  1B
071AE:  MOVLB  3
071B0:  MOVWF  xE9
071B2:  MOVLB  0
071B4:  CALL   4286
....................             SendDataDisplay(); 
071B8:  CALL   355A
....................             printf("bi.pic=%u",iconoPeque[7]); 
071BC:  MOVLW  F2
071BE:  MOVWF  FF6
071C0:  MOVLW  07
071C2:  MOVWF  FF7
071C4:  MOVLW  00
071C6:  MOVWF  FF8
071C8:  MOVLW  07
071CA:  MOVLB  3
071CC:  MOVWF  xEA
071CE:  MOVLB  0
071D0:  CALL   4228
071D4:  MOVFF  3B6,3E8
071D8:  MOVLW  1B
071DA:  MOVLB  3
071DC:  MOVWF  xE9
071DE:  MOVLB  0
071E0:  CALL   4286
....................             SendDataDisplay(); 
071E4:  CALL   355A
....................             printf("bc.pic2=%u",iconoGrande[Opcion-1]); 
071E8:  MOVLW  01
071EA:  MOVLB  3
071EC:  SUBWF  x5D,W
071EE:  CLRF   03
071F0:  ADDLW  A0
071F2:  MOVWF  FE9
071F4:  MOVLW  03
071F6:  ADDWFC 03,W
071F8:  MOVWF  FEA
071FA:  MOVFF  FEF,3E6
071FE:  MOVLW  FC
07200:  MOVWF  FF6
07202:  MOVLW  07
07204:  MOVWF  FF7
07206:  MOVLW  00
07208:  MOVWF  FF8
0720A:  MOVLW  08
0720C:  MOVWF  xEA
0720E:  MOVLB  0
07210:  CALL   4228
07214:  MOVFF  3E6,3E8
07218:  MOVLW  1B
0721A:  MOVLB  3
0721C:  MOVWF  xE9
0721E:  MOVLB  0
07220:  CALL   4286
....................             SendDataDisplay(); 
07224:  CALL   355A
....................             printf("bd.pic2=%u",iconoPeque[Opcion]); 
07228:  CLRF   03
0722A:  MOVLB  3
0722C:  MOVF   x5D,W
0722E:  ADDLW  AF
07230:  MOVWF  FE9
07232:  MOVLW  03
07234:  ADDWFC 03,W
07236:  MOVWF  FEA
07238:  MOVFF  FEF,3E6
0723C:  MOVLW  08
0723E:  MOVWF  FF6
07240:  MOVLW  08
07242:  MOVWF  FF7
07244:  MOVLW  00
07246:  MOVWF  FF8
07248:  MOVLW  08
0724A:  MOVWF  xEA
0724C:  MOVLB  0
0724E:  CALL   4228
07252:  MOVFF  3E6,3E8
07256:  MOVLW  1B
07258:  MOVLB  3
0725A:  MOVWF  xE9
0725C:  MOVLB  0
0725E:  CALL   4286
....................             SendDataDisplay(); 
07262:  CALL   355A
....................             printf("bi.pic2=%u",iconoPeque[7]); 
07266:  MOVLW  14
07268:  MOVWF  FF6
0726A:  MOVLW  08
0726C:  MOVWF  FF7
0726E:  MOVLW  00
07270:  MOVWF  FF8
07272:  MOVLW  08
07274:  MOVLB  3
07276:  MOVWF  xEA
07278:  MOVLB  0
0727A:  CALL   4228
0727E:  MOVFF  3B6,3E8
07282:  MOVLW  1B
07284:  MOVLB  3
07286:  MOVWF  xE9
07288:  MOVLB  0
0728A:  CALL   4286
....................             SendDataDisplay(); 
0728E:  CALL   355A
....................             printf("textop.txt=\"%s\"",texto[Opcion-1]); 
07292:  MOVLW  01
07294:  MOVLB  3
07296:  SUBWF  x5D,W
07298:  MULLW  14
0729A:  MOVF   FF3,W
0729C:  CLRF   03
0729E:  MOVWF  xE6
072A0:  MOVLW  20
072A2:  MOVWF  FF6
072A4:  MOVLW  08
072A6:  MOVWF  FF7
072A8:  MOVLW  00
072AA:  MOVWF  FF8
072AC:  MOVLW  0C
072AE:  MOVWF  xEA
072B0:  MOVLB  0
072B2:  CALL   4228
072B6:  MOVLW  50
072B8:  MOVWF  FF6
072BA:  MOVLW  01
072BC:  MOVWF  FF7
072BE:  MOVLW  00
072C0:  MOVWF  FF8
072C2:  MOVLB  3
072C4:  MOVF   xE6,W
072C6:  ADDWF  FF6,F
072C8:  MOVLW  00
072CA:  ADDWFC FF7,F
072CC:  MOVLB  0
072CE:  CALL   3528
072D2:  MOVLW  22
072D4:  BTFSS  F9E.4
072D6:  BRA    72D4
072D8:  MOVWF  FAD
....................             SendDataDisplay(); 
072DA:  CALL   355A
....................          }else if(Opcion==8){ 
072DE:  BRA    7656
072E0:  MOVLB  3
072E2:  MOVF   x5D,W
072E4:  SUBLW  08
072E6:  BTFSS  FD8.2
072E8:  BRA    7490
....................             printf("bc.pic=%u",iconoGrande[Opcion-1]); 
072EA:  MOVLW  01
072EC:  SUBWF  x5D,W
072EE:  CLRF   03
072F0:  ADDLW  A0
072F2:  MOVWF  FE9
072F4:  MOVLW  03
072F6:  ADDWFC 03,W
072F8:  MOVWF  FEA
072FA:  MOVFF  FEF,3E6
072FE:  MOVLW  30
07300:  MOVWF  FF6
07302:  MOVLW  08
07304:  MOVWF  FF7
07306:  MOVLW  00
07308:  MOVWF  FF8
0730A:  MOVLW  07
0730C:  MOVWF  xEA
0730E:  MOVLB  0
07310:  CALL   4228
07314:  MOVFF  3E6,3E8
07318:  MOVLW  1B
0731A:  MOVLB  3
0731C:  MOVWF  xE9
0731E:  MOVLB  0
07320:  CALL   4286
....................             SendDataDisplay(); 
07324:  CALL   355A
....................             printf("bd.pic=%u",iconoPeque[0]); 
07328:  MOVLW  3A
0732A:  MOVWF  FF6
0732C:  MOVLW  08
0732E:  MOVWF  FF7
07330:  MOVLW  00
07332:  MOVWF  FF8
07334:  MOVLW  07
07336:  MOVLB  3
07338:  MOVWF  xEA
0733A:  MOVLB  0
0733C:  CALL   4228
07340:  MOVFF  3AF,3E8
07344:  MOVLW  1B
07346:  MOVLB  3
07348:  MOVWF  xE9
0734A:  MOVLB  0
0734C:  CALL   4286
....................             SendDataDisplay(); 
07350:  CALL   355A
....................             printf("bi.pic=%u",iconoPeque[Opcion-2]); 
07354:  MOVLW  02
07356:  MOVLB  3
07358:  SUBWF  x5D,W
0735A:  CLRF   03
0735C:  ADDLW  AF
0735E:  MOVWF  FE9
07360:  MOVLW  03
07362:  ADDWFC 03,W
07364:  MOVWF  FEA
07366:  MOVFF  FEF,3E6
0736A:  MOVLW  44
0736C:  MOVWF  FF6
0736E:  MOVLW  08
07370:  MOVWF  FF7
07372:  MOVLW  00
07374:  MOVWF  FF8
07376:  MOVLW  07
07378:  MOVWF  xEA
0737A:  MOVLB  0
0737C:  CALL   4228
07380:  MOVFF  3E6,3E8
07384:  MOVLW  1B
07386:  MOVLB  3
07388:  MOVWF  xE9
0738A:  MOVLB  0
0738C:  CALL   4286
....................             SendDataDisplay(); 
07390:  CALL   355A
....................             printf("bc.pic2=%u",iconoGrande[Opcion-1]); 
07394:  MOVLW  01
07396:  MOVLB  3
07398:  SUBWF  x5D,W
0739A:  CLRF   03
0739C:  ADDLW  A0
0739E:  MOVWF  FE9
073A0:  MOVLW  03
073A2:  ADDWFC 03,W
073A4:  MOVWF  FEA
073A6:  MOVFF  FEF,3E6
073AA:  MOVLW  4E
073AC:  MOVWF  FF6
073AE:  MOVLW  08
073B0:  MOVWF  FF7
073B2:  MOVLW  00
073B4:  MOVWF  FF8
073B6:  MOVLW  08
073B8:  MOVWF  xEA
073BA:  MOVLB  0
073BC:  CALL   4228
073C0:  MOVFF  3E6,3E8
073C4:  MOVLW  1B
073C6:  MOVLB  3
073C8:  MOVWF  xE9
073CA:  MOVLB  0
073CC:  CALL   4286
....................             SendDataDisplay(); 
073D0:  CALL   355A
....................             printf("bd.pic2=%u",iconoPeque[0]); 
073D4:  MOVLW  5A
073D6:  MOVWF  FF6
073D8:  MOVLW  08
073DA:  MOVWF  FF7
073DC:  MOVLW  00
073DE:  MOVWF  FF8
073E0:  MOVLW  08
073E2:  MOVLB  3
073E4:  MOVWF  xEA
073E6:  MOVLB  0
073E8:  CALL   4228
073EC:  MOVFF  3AF,3E8
073F0:  MOVLW  1B
073F2:  MOVLB  3
073F4:  MOVWF  xE9
073F6:  MOVLB  0
073F8:  CALL   4286
....................             SendDataDisplay(); 
073FC:  CALL   355A
....................             printf("bi.pic2=%u",iconoPeque[Opcion-2]); 
07400:  MOVLW  02
07402:  MOVLB  3
07404:  SUBWF  x5D,W
07406:  CLRF   03
07408:  ADDLW  AF
0740A:  MOVWF  FE9
0740C:  MOVLW  03
0740E:  ADDWFC 03,W
07410:  MOVWF  FEA
07412:  MOVFF  FEF,3E6
07416:  MOVLW  66
07418:  MOVWF  FF6
0741A:  MOVLW  08
0741C:  MOVWF  FF7
0741E:  MOVLW  00
07420:  MOVWF  FF8
07422:  MOVLW  08
07424:  MOVWF  xEA
07426:  MOVLB  0
07428:  CALL   4228
0742C:  MOVFF  3E6,3E8
07430:  MOVLW  1B
07432:  MOVLB  3
07434:  MOVWF  xE9
07436:  MOVLB  0
07438:  CALL   4286
....................             SendDataDisplay(); 
0743C:  CALL   355A
....................             printf("textop.txt=\"%s\"",texto[Opcion-1]); 
07440:  MOVLW  01
07442:  MOVLB  3
07444:  SUBWF  x5D,W
07446:  MULLW  14
07448:  MOVF   FF3,W
0744A:  CLRF   03
0744C:  MOVWF  xE6
0744E:  MOVLW  72
07450:  MOVWF  FF6
07452:  MOVLW  08
07454:  MOVWF  FF7
07456:  MOVLW  00
07458:  MOVWF  FF8
0745A:  MOVLW  0C
0745C:  MOVWF  xEA
0745E:  MOVLB  0
07460:  CALL   4228
07464:  MOVLW  50
07466:  MOVWF  FF6
07468:  MOVLW  01
0746A:  MOVWF  FF7
0746C:  MOVLW  00
0746E:  MOVWF  FF8
07470:  MOVLB  3
07472:  MOVF   xE6,W
07474:  ADDWF  FF6,F
07476:  MOVLW  00
07478:  ADDWFC FF7,F
0747A:  MOVLB  0
0747C:  CALL   3528
07480:  MOVLW  22
07482:  BTFSS  F9E.4
07484:  BRA    7482
07486:  MOVWF  FAD
....................             SendDataDisplay(); 
07488:  CALL   355A
....................          }else{ 
0748C:  BRA    7656
0748E:  MOVLB  3
....................             printf("bc.pic=%u",iconoGrande[Opcion-1]); 
07490:  MOVLW  01
07492:  SUBWF  x5D,W
07494:  CLRF   03
07496:  ADDLW  A0
07498:  MOVWF  FE9
0749A:  MOVLW  03
0749C:  ADDWFC 03,W
0749E:  MOVWF  FEA
074A0:  MOVFF  FEF,3E6
074A4:  MOVLW  82
074A6:  MOVWF  FF6
074A8:  MOVLW  08
074AA:  MOVWF  FF7
074AC:  MOVLW  00
074AE:  MOVWF  FF8
074B0:  MOVLW  07
074B2:  MOVWF  xEA
074B4:  MOVLB  0
074B6:  CALL   4228
074BA:  MOVFF  3E6,3E8
074BE:  MOVLW  1B
074C0:  MOVLB  3
074C2:  MOVWF  xE9
074C4:  MOVLB  0
074C6:  CALL   4286
....................             SendDataDisplay(); 
074CA:  CALL   355A
....................             printf("bd.pic=%u",iconoPeque[Opcion]); 
074CE:  CLRF   03
074D0:  MOVLB  3
074D2:  MOVF   x5D,W
074D4:  ADDLW  AF
074D6:  MOVWF  FE9
074D8:  MOVLW  03
074DA:  ADDWFC 03,W
074DC:  MOVWF  FEA
074DE:  MOVFF  FEF,3E6
074E2:  MOVLW  8C
074E4:  MOVWF  FF6
074E6:  MOVLW  08
074E8:  MOVWF  FF7
074EA:  MOVLW  00
074EC:  MOVWF  FF8
074EE:  MOVLW  07
074F0:  MOVWF  xEA
074F2:  MOVLB  0
074F4:  CALL   4228
074F8:  MOVFF  3E6,3E8
074FC:  MOVLW  1B
074FE:  MOVLB  3
07500:  MOVWF  xE9
07502:  MOVLB  0
07504:  CALL   4286
....................             SendDataDisplay(); 
07508:  CALL   355A
....................             printf("bi.pic=%u",iconoPeque[Opcion-2]); 
0750C:  MOVLW  02
0750E:  MOVLB  3
07510:  SUBWF  x5D,W
07512:  CLRF   03
07514:  ADDLW  AF
07516:  MOVWF  FE9
07518:  MOVLW  03
0751A:  ADDWFC 03,W
0751C:  MOVWF  FEA
0751E:  MOVFF  FEF,3E6
07522:  MOVLW  96
07524:  MOVWF  FF6
07526:  MOVLW  08
07528:  MOVWF  FF7
0752A:  MOVLW  00
0752C:  MOVWF  FF8
0752E:  MOVLW  07
07530:  MOVWF  xEA
07532:  MOVLB  0
07534:  CALL   4228
07538:  MOVFF  3E6,3E8
0753C:  MOVLW  1B
0753E:  MOVLB  3
07540:  MOVWF  xE9
07542:  MOVLB  0
07544:  CALL   4286
....................             SendDataDisplay(); 
07548:  CALL   355A
....................             printf("bc.pic2=%u",iconoGrande[Opcion-1]); 
0754C:  MOVLW  01
0754E:  MOVLB  3
07550:  SUBWF  x5D,W
07552:  CLRF   03
07554:  ADDLW  A0
07556:  MOVWF  FE9
07558:  MOVLW  03
0755A:  ADDWFC 03,W
0755C:  MOVWF  FEA
0755E:  MOVFF  FEF,3E6
07562:  MOVLW  A0
07564:  MOVWF  FF6
07566:  MOVLW  08
07568:  MOVWF  FF7
0756A:  MOVLW  00
0756C:  MOVWF  FF8
0756E:  MOVLW  08
07570:  MOVWF  xEA
07572:  MOVLB  0
07574:  CALL   4228
07578:  MOVFF  3E6,3E8
0757C:  MOVLW  1B
0757E:  MOVLB  3
07580:  MOVWF  xE9
07582:  MOVLB  0
07584:  CALL   4286
....................             SendDataDisplay(); 
07588:  CALL   355A
....................             printf("bd.pic2=%u",iconoPeque[Opcion]); 
0758C:  CLRF   03
0758E:  MOVLB  3
07590:  MOVF   x5D,W
07592:  ADDLW  AF
07594:  MOVWF  FE9
07596:  MOVLW  03
07598:  ADDWFC 03,W
0759A:  MOVWF  FEA
0759C:  MOVFF  FEF,3E6
075A0:  MOVLW  AC
075A2:  MOVWF  FF6
075A4:  MOVLW  08
075A6:  MOVWF  FF7
075A8:  MOVLW  00
075AA:  MOVWF  FF8
075AC:  MOVLW  08
075AE:  MOVWF  xEA
075B0:  MOVLB  0
075B2:  CALL   4228
075B6:  MOVFF  3E6,3E8
075BA:  MOVLW  1B
075BC:  MOVLB  3
075BE:  MOVWF  xE9
075C0:  MOVLB  0
075C2:  CALL   4286
....................             SendDataDisplay(); 
075C6:  CALL   355A
....................             printf("bi.pic2=%u",iconoPeque[Opcion-2]); 
075CA:  MOVLW  02
075CC:  MOVLB  3
075CE:  SUBWF  x5D,W
075D0:  CLRF   03
075D2:  ADDLW  AF
075D4:  MOVWF  FE9
075D6:  MOVLW  03
075D8:  ADDWFC 03,W
075DA:  MOVWF  FEA
075DC:  MOVFF  FEF,3E6
075E0:  MOVLW  B8
075E2:  MOVWF  FF6
075E4:  MOVLW  08
075E6:  MOVWF  FF7
075E8:  MOVLW  00
075EA:  MOVWF  FF8
075EC:  MOVLW  08
075EE:  MOVWF  xEA
075F0:  MOVLB  0
075F2:  CALL   4228
075F6:  MOVFF  3E6,3E8
075FA:  MOVLW  1B
075FC:  MOVLB  3
075FE:  MOVWF  xE9
07600:  MOVLB  0
07602:  CALL   4286
....................             SendDataDisplay(); 
07606:  CALL   355A
....................             printf("textop.txt=\"%s\"",texto[Opcion-1]); 
0760A:  MOVLW  01
0760C:  MOVLB  3
0760E:  SUBWF  x5D,W
07610:  MULLW  14
07612:  MOVF   FF3,W
07614:  CLRF   03
07616:  MOVWF  xE6
07618:  MOVLW  C4
0761A:  MOVWF  FF6
0761C:  MOVLW  08
0761E:  MOVWF  FF7
07620:  MOVLW  00
07622:  MOVWF  FF8
07624:  MOVLW  0C
07626:  MOVWF  xEA
07628:  MOVLB  0
0762A:  CALL   4228
0762E:  MOVLW  50
07630:  MOVWF  FF6
07632:  MOVLW  01
07634:  MOVWF  FF7
07636:  MOVLW  00
07638:  MOVWF  FF8
0763A:  MOVLB  3
0763C:  MOVF   xE6,W
0763E:  ADDWF  FF6,F
07640:  MOVLW  00
07642:  ADDWFC FF7,F
07644:  MOVLB  0
07646:  CALL   3528
0764A:  MOVLW  22
0764C:  BTFSS  F9E.4
0764E:  BRA    764C
07650:  MOVWF  FAD
....................             SendDataDisplay(); 
07652:  CALL   355A
....................          } 
....................           
....................          printf("ttitulo.txt=\"SELECCIONE SU CICLO\""); 
07656:  MOVLW  D4
07658:  MOVWF  FF6
0765A:  MOVLW  08
0765C:  MOVWF  FF7
0765E:  MOVLW  00
07660:  MOVWF  FF8
07662:  CALL   3528
....................          SendDataDisplay(); 
07666:  CALL   355A
....................           
....................          if(RIGHT){ 
0766A:  BSF    F93.2
0766C:  BTFSC  F81.2
0766E:  BRA    7688
....................             delay_ms(20); 
07670:  MOVLW  14
07672:  MOVLB  3
07674:  MOVWF  xFB
07676:  MOVLB  0
07678:  CALL   17AE
....................             if(RIGHT){ 
0767C:  BSF    F93.2
0767E:  BTFSC  F81.2
07680:  BRA    7688
....................                Opcion++; 
07682:  MOVLB  3
07684:  INCF   x5D,F
07686:  MOVLB  0
....................             } 
....................          } 
....................           
....................          if(LEFT){ 
07688:  BSF    F93.3
0768A:  BTFSC  F81.3
0768C:  BRA    76A6
....................             delay_ms(20); 
0768E:  MOVLW  14
07690:  MOVLB  3
07692:  MOVWF  xFB
07694:  MOVLB  0
07696:  CALL   17AE
....................             if(LEFT){ 
0769A:  BSF    F93.3
0769C:  BTFSC  F81.3
0769E:  BRA    76A6
....................                Opcion--; 
076A0:  MOVLB  3
076A2:  DECF   x5D,F
076A4:  MOVLB  0
....................             } 
....................          } 
....................           
....................          if(RX_Buffer[4]==0x0d && !Op){//Tecla Derecha Oprimida 
076A6:  MOVF   34,W
076A8:  SUBLW  0D
076AA:  BNZ   76BA
076AC:  BTFSC  xA1.7
076AE:  BRA    76BA
....................             Opcion++; 
076B0:  MOVLB  3
076B2:  INCF   x5D,F
....................             RX_Buffer[4]=0x00; 
076B4:  CLRF   34
....................             Op=ON; 
076B6:  MOVLB  0
076B8:  BSF    xA1.7
....................             //BorraBuffer(); 
....................          } 
....................           
....................          if(RX_Buffer[4]==0x0c && Op){//Tecla Derecha Oprimida 
076BA:  MOVF   34,W
076BC:  SUBLW  0C
076BE:  BNZ   76CE
076C0:  BTFSS  xA1.7
076C2:  BRA    76CE
....................             Opcion++; 
076C4:  MOVLB  3
076C6:  INCF   x5D,F
....................             RX_Buffer[4]=0x00; 
076C8:  CLRF   34
....................             Op=OFF; 
076CA:  MOVLB  0
076CC:  BCF    xA1.7
....................             //BorraBuffer(); 
....................          } 
....................           
....................          if(RX_Buffer[4]==0x0e && !Op2){//Tecla Izquierda Oprimida 
076CE:  MOVF   34,W
076D0:  SUBLW  0E
076D2:  BNZ   76E2
076D4:  BTFSC  xA2.0
076D6:  BRA    76E2
....................             Opcion--; 
076D8:  MOVLB  3
076DA:  DECF   x5D,F
....................             RX_Buffer[4]=0x00; 
076DC:  CLRF   34
....................             Op2=ON; 
076DE:  MOVLB  0
076E0:  BSF    xA2.0
....................             //BorraBuffer(); 
....................          } 
....................           
....................          if(RX_Buffer[4]==0x0f && Op2){//Tecla Izquierda Oprimida 
076E2:  MOVF   34,W
076E4:  SUBLW  0F
076E6:  BNZ   76F6
076E8:  BTFSS  xA2.0
076EA:  BRA    76F6
....................             Opcion--; 
076EC:  MOVLB  3
076EE:  DECF   x5D,F
....................             RX_Buffer[4]=0x00; 
076F0:  CLRF   34
....................             Op2=OFF; 
076F2:  MOVLB  0
076F4:  BCF    xA2.0
076F6:  MOVLB  2
....................             //BorraBuffer(); 
....................          } 
....................           
....................       } 
....................          if(RIGHT && LEFT){ 
076F8:  BSF    F93.2
076FA:  BTFSC  F81.2
076FC:  BRA    774A
076FE:  BSF    F93.3
07700:  BTFSC  F81.3
07702:  BRA    774A
....................             delay_ms(20); 
07704:  MOVLW  14
07706:  MOVLB  3
07708:  MOVWF  xFB
0770A:  MOVLB  0
0770C:  CALL   17AE
....................             if(RIGHT && LEFT){ 
07710:  BSF    F93.2
07712:  BTFSC  F81.2
07714:  BRA    7748
07716:  BSF    F93.3
07718:  BTFSC  F81.3
0771A:  BRA    7748
....................                printf("page Clave"); 
0771C:  MOVLW  F6
0771E:  MOVWF  FF6
07720:  MOVLW  08
07722:  MOVWF  FF7
07724:  MOVLW  00
07726:  MOVWF  FF8
07728:  CALL   3528
....................                SendDataDisplay();  
0772C:  CALL   355A
....................                Op=OFF; 
07730:  BCF    xA1.7
....................                Op2=OFF; 
07732:  BCF    xA2.0
....................                MenuAnt=Menu; 
07734:  MOVFF  355,356
....................                TipoClave=1; 
07738:  MOVLW  01
0773A:  MOVLB  2
0773C:  MOVWF  xDB
....................                RX_Buffer[3]=0x00; 
0773E:  CLRF   33
....................                RX_Buffer2[3]=0x00; 
07740:  CLRF   3E
....................                Opcion=0; 
07742:  MOVLB  3
07744:  CLRF   x5D
07746:  MOVLB  0
07748:  MOVLB  2
....................             } 
....................          } 
....................    } 
.................... //_--------------------------------------------------------------------------------------------------------------------------------------------------------        
....................  
.................... //_-------------------------------------------------------------------------------------------------------------------------------------------------------- 
....................     if(Menu==2){ //Menu de Tiempo Esterilizacion      
0774A:  MOVLB  3
0774C:  MOVF   x55,W
0774E:  SUBLW  02
07750:  BTFSS  FD8.2
07752:  BRA    7C74
....................       printf("fecha.txt=\"T:%3.1fC Fecha:%02u/%02u/20%02u Hora: %02u:%02u:%02u\"",Temperatura,Dia,Mes,Year,Hora,Minuto,Segundo); 
07754:  MOVLW  02
07756:  MOVWF  FF6
07758:  MOVLW  09
0775A:  MOVWF  FF7
0775C:  MOVLW  00
0775E:  MOVWF  FF8
07760:  MOVLW  0D
07762:  MOVWF  xEA
07764:  MOVLB  0
07766:  CALL   4228
0776A:  MOVLW  02
0776C:  MOVWF  FE9
0776E:  MOVFF  322,3ED
07772:  MOVFF  321,3EC
07776:  MOVFF  320,3EB
0777A:  MOVFF  31F,3EA
0777E:  MOVLW  01
07780:  MOVLB  3
07782:  MOVWF  xEE
07784:  MOVLB  0
07786:  CALL   4400
0778A:  MOVLW  14
0778C:  MOVWF  FF6
0778E:  MOVLW  09
07790:  MOVWF  FF7
07792:  MOVLW  00
07794:  MOVWF  FF8
07796:  MOVLW  09
07798:  MOVLB  3
0779A:  MOVWF  xEA
0779C:  MOVLB  0
0779E:  CALL   4228
077A2:  MOVFF  38E,3E8
077A6:  MOVLW  01
077A8:  MOVLB  3
077AA:  MOVWF  xE9
077AC:  MOVLB  0
077AE:  CALL   4286
077B2:  MOVLW  2F
077B4:  BTFSS  F9E.4
077B6:  BRA    77B4
077B8:  MOVWF  FAD
077BA:  MOVFF  38D,3E8
077BE:  MOVLW  01
077C0:  MOVLB  3
077C2:  MOVWF  xE9
077C4:  MOVLB  0
077C6:  CALL   4286
077CA:  MOVLW  2F
077CC:  BTFSS  F9E.4
077CE:  BRA    77CC
077D0:  MOVWF  FAD
077D2:  MOVLW  32
077D4:  BTFSS  F9E.4
077D6:  BRA    77D4
077D8:  MOVWF  FAD
077DA:  MOVLW  30
077DC:  BTFSS  F9E.4
077DE:  BRA    77DC
077E0:  MOVWF  FAD
077E2:  MOVFF  38C,3E8
077E6:  MOVLW  01
077E8:  MOVLB  3
077EA:  MOVWF  xE9
077EC:  MOVLB  0
077EE:  CALL   4286
077F2:  MOVLW  2D
077F4:  MOVWF  FF6
077F6:  MOVLW  09
077F8:  MOVWF  FF7
077FA:  MOVLW  00
077FC:  MOVWF  FF8
077FE:  MOVLW  07
07800:  MOVLB  3
07802:  MOVWF  xEA
07804:  MOVLB  0
07806:  CALL   4228
0780A:  MOVFF  38F,3E8
0780E:  MOVLW  01
07810:  MOVLB  3
07812:  MOVWF  xE9
07814:  MOVLB  0
07816:  CALL   4286
0781A:  MOVLW  3A
0781C:  BTFSS  F9E.4
0781E:  BRA    781C
07820:  MOVWF  FAD
07822:  MOVFF  390,3E8
07826:  MOVLW  01
07828:  MOVLB  3
0782A:  MOVWF  xE9
0782C:  MOVLB  0
0782E:  CALL   4286
07832:  MOVLW  3A
07834:  BTFSS  F9E.4
07836:  BRA    7834
07838:  MOVWF  FAD
0783A:  MOVFF  391,3E8
0783E:  MOVLW  01
07840:  MOVLB  3
07842:  MOVWF  xE9
07844:  MOVLB  0
07846:  CALL   4286
0784A:  MOVLW  22
0784C:  BTFSS  F9E.4
0784E:  BRA    784C
07850:  MOVWF  FAD
....................       SendDataDisplay(); 
07852:  CALL   355A
....................          if(RX_Buffer[4]==0x0a){//Selecciono Minutos 
07856:  MOVF   34,W
07858:  SUBLW  0A
0785A:  BNZ   7860
....................             Minutos=ON; 
0785C:  BSF    xA2.1
....................             Segundos=OFF; 
0785E:  BCF    xA2.2
....................          } 
....................           
....................          if(RX_Buffer[4]==0x0b){//Selecciono Segundos 
07860:  MOVF   34,W
07862:  SUBLW  0B
07864:  BNZ   786A
....................             Segundos=ON; 
07866:  BSF    xA2.2
....................             Minutos=OFF; 
07868:  BCF    xA2.1
....................          }            
....................           
....................          if(RX_Buffer[4]==0x11 || LEFT){//Selecciono Regresar 
0786A:  MOVF   34,W
0786C:  SUBLW  11
0786E:  BZ    7876
07870:  BSF    F93.3
07872:  BTFSC  F81.3
07874:  BRA    79F8
....................             delay_ms(100); 
07876:  MOVLW  64
07878:  MOVLB  3
0787A:  MOVWF  xFB
0787C:  MOVLB  0
0787E:  CALL   17AE
....................             if(RX_Buffer[4]==0x11 || LEFT){ 
07882:  MOVF   34,W
07884:  SUBLW  11
07886:  BZ    788E
07888:  BSF    F93.3
0788A:  BTFSC  F81.3
0788C:  BRA    79F8
....................                Segundos=OFF; 
0788E:  BCF    xA2.2
....................                Minutos=OFF; 
07890:  BCF    xA2.1
....................                printf("page CicloPersona"); 
07892:  MOVLW  44
07894:  MOVWF  FF6
07896:  MOVLW  09
07898:  MOVWF  FF7
0789A:  MOVLW  00
0789C:  MOVWF  FF8
0789E:  CALL   3528
....................                SendDataDisplay();   
078A2:  CALL   355A
....................                PantallaPrincipal=1; 
078A6:  MOVLW  01
078A8:  MOVLB  2
078AA:  MOVWF  xDA
....................                Op=OFF; 
078AC:  MOVLB  0
078AE:  BCF    xA1.7
....................                Op2=OFF; 
078B0:  BCF    xA2.0
....................                if(!GuardaEEPROM){ 
078B2:  BTFSC  xA2.3
078B4:  BRA    79F8
....................                   CiclosPersonalizados[CicloLibre-1].Minutoest=Testerilizacionp[2]+(Testerilizacionp[3]*10); 
078B6:  MOVLW  01
078B8:  MOVLB  3
078BA:  SUBWF  x35,W
078BC:  MULLW  0A
078BE:  MOVF   FF3,W
078C0:  CLRF   xE7
078C2:  MOVWF  xE6
078C4:  MOVLW  09
078C6:  ADDWF  xE6,W
078C8:  MOVWF  01
078CA:  MOVLW  00
078CC:  ADDWFC xE7,W
078CE:  MOVWF  03
078D0:  MOVF   01,W
078D2:  ADDLW  BE
078D4:  MOVWF  FE9
078D6:  MOVLW  03
078D8:  ADDWFC 03,W
078DA:  MOVWF  FEA
078DC:  MOVFF  B6,3E8
078E0:  MOVLW  0A
078E2:  MOVWF  xE9
078E4:  MOVLB  0
078E6:  CALL   2A6E
078EA:  MOVF   01,W
078EC:  ADDWF  xB5,W
078EE:  MOVWF  FEF
....................                   CiclosPersonalizados[CicloLibre-1].Segundoest=Testerilizacionp[0]+(Testerilizacionp[1]*10); 
078F0:  MOVLW  01
078F2:  MOVLB  3
078F4:  SUBWF  x35,W
078F6:  MULLW  0A
078F8:  MOVF   FF3,W
078FA:  CLRF   xE7
078FC:  MOVWF  xE6
078FE:  MOVLW  03
07900:  ADDWF  xE6,W
07902:  MOVWF  01
07904:  MOVLW  00
07906:  ADDWFC xE7,W
07908:  MOVWF  03
0790A:  MOVF   01,W
0790C:  ADDLW  BE
0790E:  MOVWF  FE9
07910:  MOVLW  03
07912:  ADDWFC 03,W
07914:  MOVWF  FEA
07916:  MOVFF  B4,3E8
0791A:  MOVLW  0A
0791C:  MOVWF  xE9
0791E:  MOVLB  0
07920:  CALL   2A6E
07924:  MOVF   01,W
07926:  ADDWF  xB3,W
07928:  MOVWF  FEF
....................                   write_eeprom(102+((CicloLibre-1)*8),Testerilizacionp[2]+(Testerilizacionp[3]*10)); 
0792A:  MOVLW  01
0792C:  MOVLB  3
0792E:  SUBWF  x35,W
07930:  MULLW  08
07932:  MOVF   FF3,W
07934:  ADDLW  66
07936:  MOVWF  xE6
07938:  MOVFF  B6,3E8
0793C:  MOVLW  0A
0793E:  MOVWF  xE9
07940:  MOVLB  0
07942:  CALL   2A6E
07946:  MOVF   01,W
07948:  ADDWF  xB5,W
0794A:  MOVLB  3
0794C:  MOVWF  xE7
0794E:  CLRF   FAA
07950:  MOVFF  3E6,FA9
07954:  MOVFF  3E7,FA8
07958:  BCF    FA6.6
0795A:  BCF    FA6.7
0795C:  BSF    FA6.2
0795E:  MOVF   FF2,W
07960:  MOVWF  00
07962:  BCF    FF2.6
07964:  BCF    FF2.7
07966:  MOVLB  F
07968:  MOVLW  55
0796A:  MOVWF  FA7
0796C:  MOVLW  AA
0796E:  MOVWF  FA7
07970:  BSF    FA6.1
07972:  BTFSC  FA6.1
07974:  BRA    7972
07976:  BCF    FA6.2
07978:  MOVF   00,W
0797A:  IORWF  FF2,F
....................                   delay_ms(10); 
0797C:  MOVLW  0A
0797E:  MOVLB  3
07980:  MOVWF  xFB
07982:  MOVLB  0
07984:  CALL   17AE
....................                   write_eeprom(103+((CicloLibre-1)*8),Testerilizacionp[0]+(Testerilizacionp[1]*10)); 
07988:  MOVLW  01
0798A:  MOVLB  3
0798C:  SUBWF  x35,W
0798E:  MULLW  08
07990:  MOVF   FF3,W
07992:  ADDLW  67
07994:  MOVWF  xE6
07996:  MOVFF  B4,3E8
0799A:  MOVLW  0A
0799C:  MOVWF  xE9
0799E:  MOVLB  0
079A0:  CALL   2A6E
079A4:  MOVF   01,W
079A6:  ADDWF  xB3,W
079A8:  MOVLB  3
079AA:  MOVWF  xE7
079AC:  CLRF   FAA
079AE:  MOVFF  3E6,FA9
079B2:  MOVFF  3E7,FA8
079B6:  BCF    FA6.6
079B8:  BCF    FA6.7
079BA:  BSF    FA6.2
079BC:  MOVF   FF2,W
079BE:  MOVWF  00
079C0:  BCF    FF2.6
079C2:  BCF    FF2.7
079C4:  MOVLB  F
079C6:  MOVLW  55
079C8:  MOVWF  FA7
079CA:  MOVLW  AA
079CC:  MOVWF  FA7
079CE:  BSF    FA6.1
079D0:  BTFSC  FA6.1
079D2:  BRA    79D0
079D4:  BCF    FA6.2
079D6:  MOVF   00,W
079D8:  IORWF  FF2,F
....................                   delay_ms(10); 
079DA:  MOVLW  0A
079DC:  MOVLB  3
079DE:  MOVWF  xFB
079E0:  MOVLB  0
079E2:  CALL   17AE
....................                   Testerilizacion[0]=Testerilizacionp[0]; 
079E6:  MOVFF  B3,AE
....................                   Testerilizacion[1]=Testerilizacionp[1]; 
079EA:  MOVFF  B4,AF
....................                   Testerilizacion[2]=Testerilizacionp[2]; 
079EE:  MOVFF  B5,B0
....................                   Testerilizacion[3]=Testerilizacionp[3];                   
079F2:  MOVFF  B6,B1
....................                   GuardaEEPROM=ON; 
079F6:  BSF    xA2.3
....................                } 
....................             } 
....................          } 
....................           
....................          if(RIGHT){ 
079F8:  BSF    F93.2
079FA:  BTFSC  F81.2
079FC:  BRA    7A72
....................             delay_ms(100); 
079FE:  MOVLW  64
07A00:  MOVLB  3
07A02:  MOVWF  xFB
07A04:  MOVLB  0
07A06:  CALL   17AE
....................             if(RIGHT){ 
07A0A:  BSF    F93.2
07A0C:  BTFSC  F81.2
07A0E:  BRA    7A72
....................                if(!Segundos){ 
07A10:  BTFSC  xA2.2
07A12:  BRA    7A42
....................                   Segundos=ON; 
07A14:  BSF    xA2.2
....................                   Minutos=OFF; 
07A16:  BCF    xA2.1
....................                   printf("tsecest.pco=65535"); 
07A18:  MOVLW  56
07A1A:  MOVWF  FF6
07A1C:  MOVLW  09
07A1E:  MOVWF  FF7
07A20:  MOVLW  00
07A22:  MOVWF  FF8
07A24:  CALL   3528
....................                   SendDataDisplay();   
07A28:  CALL   355A
....................                   printf("tminest.pco=0"); 
07A2C:  MOVLW  68
07A2E:  MOVWF  FF6
07A30:  MOVLW  09
07A32:  MOVWF  FF7
07A34:  MOVLW  00
07A36:  MOVWF  FF8
07A38:  CALL   3528
....................                   SendDataDisplay();   
07A3C:  CALL   355A
....................                }else if(!Minutos){ 
07A40:  BRA    7A72
07A42:  BTFSC  xA2.1
07A44:  BRA    7A72
....................                   Segundos=OFF; 
07A46:  BCF    xA2.2
....................                   Minutos=ON; 
07A48:  BSF    xA2.1
....................                   printf("tsecest.pco=0"); 
07A4A:  MOVLW  76
07A4C:  MOVWF  FF6
07A4E:  MOVLW  09
07A50:  MOVWF  FF7
07A52:  MOVLW  00
07A54:  MOVWF  FF8
07A56:  CALL   3528
....................                   SendDataDisplay();   
07A5A:  CALL   355A
....................                   printf("tminest.pco=65535"); 
07A5E:  MOVLW  84
07A60:  MOVWF  FF6
07A62:  MOVLW  09
07A64:  MOVWF  FF7
07A66:  MOVLW  00
07A68:  MOVWF  FF8
07A6A:  CALL   3528
....................                   SendDataDisplay();   
07A6E:  CALL   355A
....................                } 
....................             } 
....................          } 
....................           
....................          if(UP){ 
07A72:  BSF    F93.0
07A74:  BTFSC  F81.0
07A76:  BRA    7ABE
....................             delay_ms(100); 
07A78:  MOVLW  64
07A7A:  MOVLB  3
07A7C:  MOVWF  xFB
07A7E:  MOVLB  0
07A80:  CALL   17AE
....................             if(UP){ 
07A84:  BSF    F93.0
07A86:  BTFSC  F81.0
07A88:  BRA    7ABE
....................                if(Segundos){ 
07A8A:  BTFSS  xA2.2
07A8C:  BRA    7A9E
....................                   Testerilizacionp[0]++; 
07A8E:  INCF   xB3,F
....................                   if(Testerilizacionp[0]>9){ 
07A90:  BTFSC  xB3.7
07A92:  BRA    7A9E
07A94:  MOVF   xB3,W
07A96:  SUBLW  09
07A98:  BC    7A9E
....................                      Testerilizacionp[1]++; 
07A9A:  INCF   xB4,F
....................                      Testerilizacionp[0]=0; 
07A9C:  CLRF   xB3
....................                   } 
....................                } 
....................                if(Minutos){ 
07A9E:  BTFSS  xA2.1
07AA0:  BRA    7ABE
....................                   Testerilizacionp[2]++; 
07AA2:  INCF   xB5,F
....................                   if(Testerilizacionp[2]>9){ 
07AA4:  BTFSC  xB5.7
07AA6:  BRA    7AB2
07AA8:  MOVF   xB5,W
07AAA:  SUBLW  09
07AAC:  BC    7AB2
....................                      Testerilizacionp[3]++; 
07AAE:  INCF   xB6,F
....................                      Testerilizacionp[2]=0; 
07AB0:  CLRF   xB5
....................                   } 
....................                   if(Testerilizacionp[3]>9){                      
07AB2:  BTFSC  xB6.7
07AB4:  BRA    7ABE
07AB6:  MOVF   xB6,W
07AB8:  SUBLW  09
07ABA:  BC    7ABE
....................                      Testerilizacionp[3]=0; 
07ABC:  CLRF   xB6
....................                   } 
....................                }     
....................             } 
....................          } 
....................           
....................          if(DOWN){ 
07ABE:  BSF    F93.1
07AC0:  BTFSC  F81.1
07AC2:  BRA    7B04
....................             delay_ms(100); 
07AC4:  MOVLW  64
07AC6:  MOVLB  3
07AC8:  MOVWF  xFB
07ACA:  MOVLB  0
07ACC:  CALL   17AE
....................             if(DOWN){ 
07AD0:  BSF    F93.1
07AD2:  BTFSC  F81.1
07AD4:  BRA    7B04
....................                if(Segundos){ 
07AD6:  BTFSS  xA2.2
07AD8:  BRA    7AE8
....................                   Testerilizacionp[0]--; 
07ADA:  DECF   xB3,F
....................                   if(Testerilizacionp[0]<0){ 
07ADC:  BTFSC  xB3.7
07ADE:  BRA    7AE2
07AE0:  BRA    7AE8
....................                      Testerilizacionp[1]--; 
07AE2:  DECF   xB4,F
....................                      Testerilizacionp[0]=9; 
07AE4:  MOVLW  09
07AE6:  MOVWF  xB3
....................                   } 
....................                } 
....................                if(Minutos){ 
07AE8:  BTFSS  xA2.1
07AEA:  BRA    7B04
....................                   Testerilizacionp[2]--; 
07AEC:  DECF   xB5,F
....................                   if(Testerilizacionp[2]<0){ 
07AEE:  BTFSC  xB5.7
07AF0:  BRA    7AF4
07AF2:  BRA    7AFA
....................                      Testerilizacionp[3]--; 
07AF4:  DECF   xB6,F
....................                      Testerilizacionp[2]=9; 
07AF6:  MOVLW  09
07AF8:  MOVWF  xB5
....................                   } 
....................                   if(Testerilizacionp[3]<0){ 
07AFA:  BTFSC  xB6.7
07AFC:  BRA    7B00
07AFE:  BRA    7B04
....................                      Testerilizacionp[3]=9; 
07B00:  MOVLW  09
07B02:  MOVWF  xB6
....................                   } 
....................                }     
....................             } 
....................          } 
....................           
....................          if(RX_Buffer[4]==0x0c || RX_Buffer[4]==0x0d){//Tecla Derecha Oprimida 
07B04:  MOVF   34,W
07B06:  SUBLW  0C
07B08:  BZ    7B10
07B0A:  MOVF   34,W
07B0C:  SUBLW  0D
07B0E:  BNZ   7B48
....................             if(Segundos){ 
07B10:  BTFSS  xA2.2
07B12:  BRA    7B24
....................                Testerilizacionp[0]++; 
07B14:  INCF   xB3,F
....................                if(Testerilizacionp[0]>9){ 
07B16:  BTFSC  xB3.7
07B18:  BRA    7B24
07B1A:  MOVF   xB3,W
07B1C:  SUBLW  09
07B1E:  BC    7B24
....................                   Testerilizacionp[1]++; 
07B20:  INCF   xB4,F
....................                   Testerilizacionp[0]=0; 
07B22:  CLRF   xB3
....................                } 
....................             } 
....................             if(Minutos){ 
07B24:  BTFSS  xA2.1
07B26:  BRA    7B44
....................                Testerilizacionp[2]++; 
07B28:  INCF   xB5,F
....................                if(Testerilizacionp[2]>9){ 
07B2A:  BTFSC  xB5.7
07B2C:  BRA    7B38
07B2E:  MOVF   xB5,W
07B30:  SUBLW  09
07B32:  BC    7B38
....................                   Testerilizacionp[3]++; 
07B34:  INCF   xB6,F
....................                   Testerilizacionp[2]=0; 
07B36:  CLRF   xB5
....................                } 
....................                if(Testerilizacionp[3]>9){                   
07B38:  BTFSC  xB6.7
07B3A:  BRA    7B44
07B3C:  MOVF   xB6,W
07B3E:  SUBLW  09
07B40:  BC    7B44
....................                   Testerilizacionp[3]=0; 
07B42:  CLRF   xB6
....................                } 
....................             } 
....................             RX_Buffer[4]=0x00;   
07B44:  CLRF   34
....................             RX_Buffer2[4]=0x00; 
07B46:  CLRF   3F
....................          } 
....................           
....................          if(RX_Buffer[4]==0x0f || RX_Buffer[4]==0x0e){//Tecla Izquierda Oprimida 
07B48:  MOVF   34,W
07B4A:  SUBLW  0F
07B4C:  BZ    7B54
07B4E:  MOVF   34,W
07B50:  SUBLW  0E
07B52:  BNZ   7B86
....................              
....................             if(Segundos){ 
07B54:  BTFSS  xA2.2
07B56:  BRA    7B66
....................                Testerilizacionp[0]--; 
07B58:  DECF   xB3,F
....................                if(Testerilizacionp[0]<0){ 
07B5A:  BTFSC  xB3.7
07B5C:  BRA    7B60
07B5E:  BRA    7B66
....................                   Testerilizacionp[1]--; 
07B60:  DECF   xB4,F
....................                   Testerilizacionp[0]=9; 
07B62:  MOVLW  09
07B64:  MOVWF  xB3
....................                } 
....................             } 
....................             if(Minutos){ 
07B66:  BTFSS  xA2.1
07B68:  BRA    7B82
....................                Testerilizacionp[2]--; 
07B6A:  DECF   xB5,F
....................                if(Testerilizacionp[2]<0){ 
07B6C:  BTFSC  xB5.7
07B6E:  BRA    7B72
07B70:  BRA    7B78
....................                   Testerilizacionp[3]--; 
07B72:  DECF   xB6,F
....................                   Testerilizacionp[2]=9; 
07B74:  MOVLW  09
07B76:  MOVWF  xB5
....................                } 
....................                if(Testerilizacionp[3]<0){ 
07B78:  BTFSC  xB6.7
07B7A:  BRA    7B7E
07B7C:  BRA    7B82
....................                   Testerilizacionp[3]=9; 
07B7E:  MOVLW  09
07B80:  MOVWF  xB6
....................                } 
....................             } 
....................             RX_Buffer[4]=0x00;   
07B82:  CLRF   34
....................             RX_Buffer2[4]=0x00; 
07B84:  CLRF   3F
....................          } 
....................           
....................          if(Testerilizacionp[0]<0) 
07B86:  BTFSC  xB3.7
07B88:  BRA    7B8C
07B8A:  BRA    7B90
....................             Testerilizacionp[0]=9;             
07B8C:  MOVLW  09
07B8E:  MOVWF  xB3
....................          if(Testerilizacionp[1]<0) 
07B90:  BTFSC  xB4.7
07B92:  BRA    7B96
07B94:  BRA    7B9A
....................             Testerilizacionp[1]=5;             
07B96:  MOVLW  05
07B98:  MOVWF  xB4
....................          if(Testerilizacionp[2]<0) 
07B9A:  BTFSC  xB5.7
07B9C:  BRA    7BA0
07B9E:  BRA    7BA4
....................             Testerilizacionp[2]=9;             
07BA0:  MOVLW  09
07BA2:  MOVWF  xB5
....................          if(Testerilizacionp[3]<0) 
07BA4:  BTFSC  xB6.7
07BA6:  BRA    7BAA
07BA8:  BRA    7BAE
....................             Testerilizacionp[3]=9;             
07BAA:  MOVLW  09
07BAC:  MOVWF  xB6
....................           
....................          if(Testerilizacionp[0]>9) 
07BAE:  BTFSC  xB3.7
07BB0:  BRA    7BBA
07BB2:  MOVF   xB3,W
07BB4:  SUBLW  09
07BB6:  BC    7BBA
....................             Testerilizacionp[0]=0;             
07BB8:  CLRF   xB3
....................          if(Testerilizacionp[1]>5) 
07BBA:  BTFSC  xB4.7
07BBC:  BRA    7BC6
07BBE:  MOVF   xB4,W
07BC0:  SUBLW  05
07BC2:  BC    7BC6
....................             Testerilizacionp[1]=0;             
07BC4:  CLRF   xB4
....................          if(Testerilizacionp[2]>9) 
07BC6:  BTFSC  xB5.7
07BC8:  BRA    7BD2
07BCA:  MOVF   xB5,W
07BCC:  SUBLW  09
07BCE:  BC    7BD2
....................             Testerilizacionp[2]=0;             
07BD0:  CLRF   xB5
....................          if(Testerilizacionp[3]>9) 
07BD2:  BTFSC  xB6.7
07BD4:  BRA    7BDE
07BD6:  MOVF   xB6,W
07BD8:  SUBLW  09
07BDA:  BC    7BDE
....................             Testerilizacionp[3]=0;  
07BDC:  CLRF   xB6
....................              
....................          printf("tminest.txt=\"%02u\"",((Testerilizacionp[3]*10)+Testerilizacionp[2])); 
07BDE:  MOVFF  B6,3E8
07BE2:  MOVLW  0A
07BE4:  MOVLB  3
07BE6:  MOVWF  xE9
07BE8:  MOVLB  0
07BEA:  CALL   2A6E
07BEE:  MOVF   xB5,W
07BF0:  ADDWF  01,W
07BF2:  MOVLB  3
07BF4:  MOVWF  xE6
07BF6:  MOVLW  96
07BF8:  MOVWF  FF6
07BFA:  MOVLW  09
07BFC:  MOVWF  FF7
07BFE:  MOVLW  00
07C00:  MOVWF  FF8
07C02:  MOVLW  0D
07C04:  MOVWF  xEA
07C06:  MOVLB  0
07C08:  CALL   4228
07C0C:  MOVFF  3E6,3E8
07C10:  MOVLW  01
07C12:  MOVLB  3
07C14:  MOVWF  xE9
07C16:  MOVLB  0
07C18:  CALL   4286
07C1C:  MOVLW  22
07C1E:  BTFSS  F9E.4
07C20:  BRA    7C1E
07C22:  MOVWF  FAD
....................          SendDataDisplay(); 
07C24:  CALL   355A
....................          printf("tsecest.txt=\"%02u\"",((Testerilizacionp[1]*10)+Testerilizacionp[0])); 
07C28:  MOVFF  B4,3E8
07C2C:  MOVLW  0A
07C2E:  MOVLB  3
07C30:  MOVWF  xE9
07C32:  MOVLB  0
07C34:  CALL   2A6E
07C38:  MOVF   xB3,W
07C3A:  ADDWF  01,W
07C3C:  MOVLB  3
07C3E:  MOVWF  xE6
07C40:  MOVLW  AA
07C42:  MOVWF  FF6
07C44:  MOVLW  09
07C46:  MOVWF  FF7
07C48:  MOVLW  00
07C4A:  MOVWF  FF8
07C4C:  MOVLW  0D
07C4E:  MOVWF  xEA
07C50:  MOVLB  0
07C52:  CALL   4228
07C56:  MOVFF  3E6,3E8
07C5A:  MOVLW  01
07C5C:  MOVLB  3
07C5E:  MOVWF  xE9
07C60:  MOVLB  0
07C62:  CALL   4286
07C66:  MOVLW  22
07C68:  BTFSS  F9E.4
07C6A:  BRA    7C68
07C6C:  MOVWF  FAD
....................          SendDataDisplay(); 
07C6E:  CALL   355A
07C72:  MOVLB  3
....................     } 
.................... //_--------------------------------------------------------------------------------------------------------------------------------------------------------        
....................  
.................... //_-------------------------------------------------------------------------------------------------------------------------------------------------------- 
....................     if(Menu==3){ //Menu de Tiempo de Secado 
07C74:  MOVF   x55,W
07C76:  SUBLW  03
07C78:  BTFSS  FD8.2
07C7A:  BRA    816A
....................       printf("fecha.txt=\"T:%3.1fC Fecha:%02u/%02u/20%02u Hora: %02u:%02u:%02u\"",Temperatura,Dia,Mes,Year,Hora,Minuto,Segundo); 
07C7C:  MOVLW  BE
07C7E:  MOVWF  FF6
07C80:  MOVLW  09
07C82:  MOVWF  FF7
07C84:  MOVLW  00
07C86:  MOVWF  FF8
07C88:  MOVLW  0D
07C8A:  MOVWF  xEA
07C8C:  MOVLB  0
07C8E:  CALL   4228
07C92:  MOVLW  02
07C94:  MOVWF  FE9
07C96:  MOVFF  322,3ED
07C9A:  MOVFF  321,3EC
07C9E:  MOVFF  320,3EB
07CA2:  MOVFF  31F,3EA
07CA6:  MOVLW  01
07CA8:  MOVLB  3
07CAA:  MOVWF  xEE
07CAC:  MOVLB  0
07CAE:  CALL   4400
07CB2:  MOVLW  D0
07CB4:  MOVWF  FF6
07CB6:  MOVLW  09
07CB8:  MOVWF  FF7
07CBA:  MOVLW  00
07CBC:  MOVWF  FF8
07CBE:  MOVLW  09
07CC0:  MOVLB  3
07CC2:  MOVWF  xEA
07CC4:  MOVLB  0
07CC6:  CALL   4228
07CCA:  MOVFF  38E,3E8
07CCE:  MOVLW  01
07CD0:  MOVLB  3
07CD2:  MOVWF  xE9
07CD4:  MOVLB  0
07CD6:  CALL   4286
07CDA:  MOVLW  2F
07CDC:  BTFSS  F9E.4
07CDE:  BRA    7CDC
07CE0:  MOVWF  FAD
07CE2:  MOVFF  38D,3E8
07CE6:  MOVLW  01
07CE8:  MOVLB  3
07CEA:  MOVWF  xE9
07CEC:  MOVLB  0
07CEE:  CALL   4286
07CF2:  MOVLW  2F
07CF4:  BTFSS  F9E.4
07CF6:  BRA    7CF4
07CF8:  MOVWF  FAD
07CFA:  MOVLW  32
07CFC:  BTFSS  F9E.4
07CFE:  BRA    7CFC
07D00:  MOVWF  FAD
07D02:  MOVLW  30
07D04:  BTFSS  F9E.4
07D06:  BRA    7D04
07D08:  MOVWF  FAD
07D0A:  MOVFF  38C,3E8
07D0E:  MOVLW  01
07D10:  MOVLB  3
07D12:  MOVWF  xE9
07D14:  MOVLB  0
07D16:  CALL   4286
07D1A:  MOVLW  E9
07D1C:  MOVWF  FF6
07D1E:  MOVLW  09
07D20:  MOVWF  FF7
07D22:  MOVLW  00
07D24:  MOVWF  FF8
07D26:  MOVLW  07
07D28:  MOVLB  3
07D2A:  MOVWF  xEA
07D2C:  MOVLB  0
07D2E:  CALL   4228
07D32:  MOVFF  38F,3E8
07D36:  MOVLW  01
07D38:  MOVLB  3
07D3A:  MOVWF  xE9
07D3C:  MOVLB  0
07D3E:  CALL   4286
07D42:  MOVLW  3A
07D44:  BTFSS  F9E.4
07D46:  BRA    7D44
07D48:  MOVWF  FAD
07D4A:  MOVFF  390,3E8
07D4E:  MOVLW  01
07D50:  MOVLB  3
07D52:  MOVWF  xE9
07D54:  MOVLB  0
07D56:  CALL   4286
07D5A:  MOVLW  3A
07D5C:  BTFSS  F9E.4
07D5E:  BRA    7D5C
07D60:  MOVWF  FAD
07D62:  MOVFF  391,3E8
07D66:  MOVLW  01
07D68:  MOVLB  3
07D6A:  MOVWF  xE9
07D6C:  MOVLB  0
07D6E:  CALL   4286
07D72:  MOVLW  22
07D74:  BTFSS  F9E.4
07D76:  BRA    7D74
07D78:  MOVWF  FAD
....................       SendDataDisplay();             
07D7A:  CALL   355A
....................              
....................          if(RX_Buffer[4]==0x0a){//Selecciono Minutos 
07D7E:  MOVF   34,W
07D80:  SUBLW  0A
07D82:  BNZ   7D88
....................             Minutos=ON; 
07D84:  BSF    xA2.1
....................             Segundos=OFF; 
07D86:  BCF    xA2.2
....................          } 
....................           
....................          if(RX_Buffer[4]==0x0b){//Selecciono Segundos 
07D88:  MOVF   34,W
07D8A:  SUBLW  0B
07D8C:  BNZ   7D92
....................             Segundos=ON; 
07D8E:  BSF    xA2.2
....................             Minutos=OFF; 
07D90:  BCF    xA2.1
....................          } 
....................           
....................          if(RX_Buffer[4]==0x11 || LEFT){//Selecciono Regresar 
07D92:  MOVF   34,W
07D94:  SUBLW  11
07D96:  BZ    7D9E
07D98:  BSF    F93.3
07D9A:  BTFSC  F81.3
07D9C:  BRA    7F00
....................             Segundos=OFF; 
07D9E:  BCF    xA2.2
....................             Minutos=OFF; 
07DA0:  BCF    xA2.1
....................             printf("page CicloPersona"); 
07DA2:  MOVLW  00
07DA4:  MOVWF  FF6
07DA6:  MOVLW  0A
07DA8:  MOVWF  FF7
07DAA:  MOVLW  00
07DAC:  MOVWF  FF8
07DAE:  CALL   3528
....................             SendDataDisplay();   
07DB2:  CALL   355A
....................             //PantallaPrincipal=1; 
....................             Op=OFF; 
07DB6:  BCF    xA1.7
....................             Op2=OFF; 
07DB8:  BCF    xA2.0
....................             if(!GuardaEEPROM){ 
07DBA:  BTFSC  xA2.3
07DBC:  BRA    7F00
....................                CiclosPersonalizados[CicloLibre-1].Minutosec=Tsecadop[2]+(Tsecadop[3]*10); 
07DBE:  MOVLW  01
07DC0:  MOVLB  3
07DC2:  SUBWF  x35,W
07DC4:  MULLW  0A
07DC6:  MOVF   FF3,W
07DC8:  CLRF   xE7
07DCA:  MOVWF  xE6
07DCC:  MOVLW  04
07DCE:  ADDWF  xE6,W
07DD0:  MOVWF  01
07DD2:  MOVLW  00
07DD4:  ADDWFC xE7,W
07DD6:  MOVWF  03
07DD8:  MOVF   01,W
07DDA:  ADDLW  BE
07DDC:  MOVWF  FE9
07DDE:  MOVLW  03
07DE0:  ADDWFC 03,W
07DE2:  MOVWF  FEA
07DE4:  MOVFF  BF,3E8
07DE8:  MOVLW  0A
07DEA:  MOVWF  xE9
07DEC:  MOVLB  0
07DEE:  CALL   2A6E
07DF2:  MOVF   01,W
07DF4:  ADDWF  xBE,W
07DF6:  MOVWF  FEF
....................                CiclosPersonalizados[CicloLibre-1].Segundosec=Tsecadop[0]+(Tsecadop[1]*10); 
07DF8:  MOVLW  01
07DFA:  MOVLB  3
07DFC:  SUBWF  x35,W
07DFE:  MULLW  0A
07E00:  MOVF   FF3,W
07E02:  CLRF   xE7
07E04:  MOVWF  xE6
07E06:  MOVLW  05
07E08:  ADDWF  xE6,W
07E0A:  MOVWF  01
07E0C:  MOVLW  00
07E0E:  ADDWFC xE7,W
07E10:  MOVWF  03
07E12:  MOVF   01,W
07E14:  ADDLW  BE
07E16:  MOVWF  FE9
07E18:  MOVLW  03
07E1A:  ADDWFC 03,W
07E1C:  MOVWF  FEA
07E1E:  MOVFF  BD,3E8
07E22:  MOVLW  0A
07E24:  MOVWF  xE9
07E26:  MOVLB  0
07E28:  CALL   2A6E
07E2C:  MOVF   01,W
07E2E:  ADDWF  xBC,W
07E30:  MOVWF  FEF
....................                write_eeprom(104+((CicloLibre-1)*8),Tsecadop[2]+(Tsecadop[3]*10)); 
07E32:  MOVLW  01
07E34:  MOVLB  3
07E36:  SUBWF  x35,W
07E38:  MULLW  08
07E3A:  MOVF   FF3,W
07E3C:  ADDLW  68
07E3E:  MOVWF  xE6
07E40:  MOVFF  BF,3E8
07E44:  MOVLW  0A
07E46:  MOVWF  xE9
07E48:  MOVLB  0
07E4A:  CALL   2A6E
07E4E:  MOVF   01,W
07E50:  ADDWF  xBE,W
07E52:  MOVLB  3
07E54:  MOVWF  xE7
07E56:  CLRF   FAA
07E58:  MOVFF  3E6,FA9
07E5C:  MOVFF  3E7,FA8
07E60:  BCF    FA6.6
07E62:  BCF    FA6.7
07E64:  BSF    FA6.2
07E66:  MOVF   FF2,W
07E68:  MOVWF  00
07E6A:  BCF    FF2.6
07E6C:  BCF    FF2.7
07E6E:  MOVLB  F
07E70:  MOVLW  55
07E72:  MOVWF  FA7
07E74:  MOVLW  AA
07E76:  MOVWF  FA7
07E78:  BSF    FA6.1
07E7A:  BTFSC  FA6.1
07E7C:  BRA    7E7A
07E7E:  BCF    FA6.2
07E80:  MOVF   00,W
07E82:  IORWF  FF2,F
....................                delay_ms(10); 
07E84:  MOVLW  0A
07E86:  MOVLB  3
07E88:  MOVWF  xFB
07E8A:  MOVLB  0
07E8C:  CALL   17AE
....................                write_eeprom(105+((CicloLibre-1)*8),Tsecadop[0]+(Tsecadop[1]*10)); 
07E90:  MOVLW  01
07E92:  MOVLB  3
07E94:  SUBWF  x35,W
07E96:  MULLW  08
07E98:  MOVF   FF3,W
07E9A:  ADDLW  69
07E9C:  MOVWF  xE6
07E9E:  MOVFF  BD,3E8
07EA2:  MOVLW  0A
07EA4:  MOVWF  xE9
07EA6:  MOVLB  0
07EA8:  CALL   2A6E
07EAC:  MOVF   01,W
07EAE:  ADDWF  xBC,W
07EB0:  MOVLB  3
07EB2:  MOVWF  xE7
07EB4:  CLRF   FAA
07EB6:  MOVFF  3E6,FA9
07EBA:  MOVFF  3E7,FA8
07EBE:  BCF    FA6.6
07EC0:  BCF    FA6.7
07EC2:  BSF    FA6.2
07EC4:  MOVF   FF2,W
07EC6:  MOVWF  00
07EC8:  BCF    FF2.6
07ECA:  BCF    FF2.7
07ECC:  MOVLB  F
07ECE:  MOVLW  55
07ED0:  MOVWF  FA7
07ED2:  MOVLW  AA
07ED4:  MOVWF  FA7
07ED6:  BSF    FA6.1
07ED8:  BTFSC  FA6.1
07EDA:  BRA    7ED8
07EDC:  BCF    FA6.2
07EDE:  MOVF   00,W
07EE0:  IORWF  FF2,F
....................                delay_ms(10); 
07EE2:  MOVLW  0A
07EE4:  MOVLB  3
07EE6:  MOVWF  xFB
07EE8:  MOVLB  0
07EEA:  CALL   17AE
....................                Tsecado[0]=Tsecadop[0]; 
07EEE:  MOVFF  BC,B8
....................                Tsecado[1]=Tsecadop[1]; 
07EF2:  MOVFF  BD,B9
....................                Tsecado[2]=Tsecadop[2]; 
07EF6:  MOVFF  BE,BA
....................                Tsecado[3]=Tsecadop[3]; 
07EFA:  MOVFF  BF,BB
....................                GuardaEEPROM=ON; 
07EFE:  BSF    xA2.3
....................             } 
....................          } 
....................           
....................          if(RIGHT){ 
07F00:  BSF    F93.2
07F02:  BTFSC  F81.2
07F04:  BRA    7F7A
....................             delay_ms(100); 
07F06:  MOVLW  64
07F08:  MOVLB  3
07F0A:  MOVWF  xFB
07F0C:  MOVLB  0
07F0E:  CALL   17AE
....................             if(RIGHT){ 
07F12:  BSF    F93.2
07F14:  BTFSC  F81.2
07F16:  BRA    7F7A
....................                if(!Segundos){ 
07F18:  BTFSC  xA2.2
07F1A:  BRA    7F4A
....................                   Segundos=ON; 
07F1C:  BSF    xA2.2
....................                   Minutos=OFF; 
07F1E:  BCF    xA2.1
....................                   printf("tminsec.pco=0"); 
07F20:  MOVLW  12
07F22:  MOVWF  FF6
07F24:  MOVLW  0A
07F26:  MOVWF  FF7
07F28:  MOVLW  00
07F2A:  MOVWF  FF8
07F2C:  CALL   3528
....................                   SendDataDisplay();                    
07F30:  CALL   355A
....................                   printf("tsecsec.pco=65535"); 
07F34:  MOVLW  20
07F36:  MOVWF  FF6
07F38:  MOVLW  0A
07F3A:  MOVWF  FF7
07F3C:  MOVLW  00
07F3E:  MOVWF  FF8
07F40:  CALL   3528
....................                   SendDataDisplay();   
07F44:  CALL   355A
....................                }else if(!Minutos){ 
07F48:  BRA    7F7A
07F4A:  BTFSC  xA2.1
07F4C:  BRA    7F7A
....................                   Segundos=OFF; 
07F4E:  BCF    xA2.2
....................                   Minutos=ON; 
07F50:  BSF    xA2.1
....................                   printf("tminsec.pco=65535"); 
07F52:  MOVLW  32
07F54:  MOVWF  FF6
07F56:  MOVLW  0A
07F58:  MOVWF  FF7
07F5A:  MOVLW  00
07F5C:  MOVWF  FF8
07F5E:  CALL   3528
....................                   SendDataDisplay();   
07F62:  CALL   355A
....................                   printf("tsecsec.pco=0"); 
07F66:  MOVLW  44
07F68:  MOVWF  FF6
07F6A:  MOVLW  0A
07F6C:  MOVWF  FF7
07F6E:  MOVLW  00
07F70:  MOVWF  FF8
07F72:  CALL   3528
....................                   SendDataDisplay();   
07F76:  CALL   355A
....................                } 
....................             } 
....................          } 
....................           
....................          if(UP){ 
07F7A:  BSF    F93.0
07F7C:  BTFSC  F81.0
07F7E:  BRA    7FBA
....................             delay_ms(100); 
07F80:  MOVLW  64
07F82:  MOVLB  3
07F84:  MOVWF  xFB
07F86:  MOVLB  0
07F88:  CALL   17AE
....................             if(UP){ 
07F8C:  BSF    F93.0
07F8E:  BTFSC  F81.0
07F90:  BRA    7FBA
....................                if(Segundos){ 
07F92:  BTFSS  xA2.2
07F94:  BRA    7FA6
....................                   Tsecadop[0]++; 
07F96:  INCF   xBC,F
....................                   if(Tsecadop[0]>9){ 
07F98:  BTFSC  xBC.7
07F9A:  BRA    7FA6
07F9C:  MOVF   xBC,W
07F9E:  SUBLW  09
07FA0:  BC    7FA6
....................                      Tsecadop[1]++; 
07FA2:  INCF   xBD,F
....................                      Tsecadop[0]=0; 
07FA4:  CLRF   xBC
....................                   } 
....................                } 
....................                if(Minutos){ 
07FA6:  BTFSS  xA2.1
07FA8:  BRA    7FBA
....................                   Tsecado[2]++; 
07FAA:  INCF   xBA,F
....................                   if(Tsecadop[2]>9){ 
07FAC:  BTFSC  xBE.7
07FAE:  BRA    7FBA
07FB0:  MOVF   xBE,W
07FB2:  SUBLW  09
07FB4:  BC    7FBA
....................                      Tsecadop[3]++; 
07FB6:  INCF   xBF,F
....................                      Tsecadop[2]=0; 
07FB8:  CLRF   xBE
....................                   } 
....................                }   
....................             } 
....................          } 
....................           
....................          if(DOWN){ 
07FBA:  BSF    F93.1
07FBC:  BTFSC  F81.1
07FBE:  BRA    8002
....................             delay_ms(100); 
07FC0:  MOVLW  64
07FC2:  MOVLB  3
07FC4:  MOVWF  xFB
07FC6:  MOVLB  0
07FC8:  CALL   17AE
....................             if(DOWN){ 
07FCC:  BSF    F93.1
07FCE:  BTFSC  F81.1
07FD0:  BRA    8002
....................                if(Segundos){ 
07FD2:  BTFSS  xA2.2
07FD4:  BRA    7FF0
....................                   Tsecadop[0]--; 
07FD6:  DECF   xBC,F
....................                   if(Tsecadop[0]<0){ 
07FD8:  BTFSS  xBC.7
07FDA:  BRA    7FE2
....................                      Tsecadop[1]--; 
07FDC:  DECF   xBD,F
....................                      Tsecadop[0]=9; 
07FDE:  MOVLW  09
07FE0:  MOVWF  xBC
....................                   } 
....................                   if(Tsecadop[1]<0){ 
07FE2:  BTFSC  xBD.7
07FE4:  BRA    7FE8
07FE6:  BRA    7FF0
....................                      Tsecadop[1]=5; 
07FE8:  MOVLW  05
07FEA:  MOVWF  xBD
....................                      Tsecadop[0]=9; 
07FEC:  MOVLW  09
07FEE:  MOVWF  xBC
....................                   } 
....................                } 
....................                if(Minutos){ 
07FF0:  BTFSS  xA2.1
07FF2:  BRA    8002
....................                   Tsecadop[2]--; 
07FF4:  DECF   xBE,F
....................                   if(Tsecadop[2]<0){ 
07FF6:  BTFSC  xBE.7
07FF8:  BRA    7FFC
07FFA:  BRA    8002
....................                      Tsecadop[3]--; 
07FFC:  DECF   xBF,F
....................                      Tsecadop[2]=9; 
07FFE:  MOVLW  09
08000:  MOVWF  xBE
....................                   } 
....................                }   
....................             } 
....................          } 
....................           
....................          if(RX_Buffer[4]==0x0c || RX_Buffer[4]==0x0d){//Tecla Derecha Oprimida 
08002:  MOVF   34,W
08004:  SUBLW  0C
08006:  BZ    800E
08008:  MOVF   34,W
0800A:  SUBLW  0D
0800C:  BNZ   803A
....................             if(Segundos){ 
0800E:  BTFSS  xA2.2
08010:  BRA    8022
....................                Tsecadop[0]++; 
08012:  INCF   xBC,F
....................                if(Tsecadop[0]>9){ 
08014:  BTFSC  xBC.7
08016:  BRA    8022
08018:  MOVF   xBC,W
0801A:  SUBLW  09
0801C:  BC    8022
....................                   Tsecadop[1]++; 
0801E:  INCF   xBD,F
....................                   Tsecadop[0]=0; 
08020:  CLRF   xBC
....................                } 
....................             } 
....................             if(Minutos){ 
08022:  BTFSS  xA2.1
08024:  BRA    8036
....................                Tsecadop[2]++; 
08026:  INCF   xBE,F
....................                if(Tsecadop[2]>9){ 
08028:  BTFSC  xBE.7
0802A:  BRA    8036
0802C:  MOVF   xBE,W
0802E:  SUBLW  09
08030:  BC    8036
....................                   Tsecadop[3]++; 
08032:  INCF   xBF,F
....................                   Tsecadop[2]=0; 
08034:  CLRF   xBE
....................                } 
....................             } 
....................             RX_Buffer[4]=0x00;   
08036:  CLRF   34
....................             RX_Buffer2[4]=0x00;  
08038:  CLRF   3F
....................          } 
....................           
....................          if(RX_Buffer[4]==0x0f || RX_Buffer[4]==0x0e){//Tecla Izquierda Oprimida 
0803A:  MOVF   34,W
0803C:  SUBLW  0F
0803E:  BZ    8046
08040:  MOVF   34,W
08042:  SUBLW  0E
08044:  BNZ   807C
....................             if(Segundos){ 
08046:  BTFSS  xA2.2
08048:  BRA    8066
....................                Tsecadop[0]--; 
0804A:  DECF   xBC,F
....................                if(Tsecadop[0]<0){ 
0804C:  BTFSC  xBC.7
0804E:  BRA    8052
08050:  BRA    8058
....................                   Tsecadop[1]--; 
08052:  DECF   xBD,F
....................                   Tsecadop[0]=9; 
08054:  MOVLW  09
08056:  MOVWF  xBC
....................                } 
....................                if(Tsecadop[1]<0){ 
08058:  BTFSC  xBD.7
0805A:  BRA    805E
0805C:  BRA    8066
....................                   Tsecadop[1]=5; 
0805E:  MOVLW  05
08060:  MOVWF  xBD
....................                   Tsecadop[0]=9; 
08062:  MOVLW  09
08064:  MOVWF  xBC
....................                } 
....................             } 
....................             if(Minutos){ 
08066:  BTFSS  xA2.1
08068:  BRA    8078
....................                Tsecadop[2]--; 
0806A:  DECF   xBE,F
....................                if(Tsecadop[2]<0){ 
0806C:  BTFSC  xBE.7
0806E:  BRA    8072
08070:  BRA    8078
....................                   Tsecadop[3]--; 
08072:  DECF   xBF,F
....................                   Tsecadop[2]=9; 
08074:  MOVLW  09
08076:  MOVWF  xBE
....................                } 
....................             } 
....................             RX_Buffer[4]=0x00;   
08078:  CLRF   34
....................             RX_Buffer2[4]=0x00;             
0807A:  CLRF   3F
....................          } 
....................        
....................          if(Tsecadop[0]<0) 
0807C:  BTFSC  xBC.7
0807E:  BRA    8082
08080:  BRA    8086
....................             Tsecadop[0]=9;             
08082:  MOVLW  09
08084:  MOVWF  xBC
....................          if(Tsecadop[1]<0) 
08086:  BTFSC  xBD.7
08088:  BRA    808C
0808A:  BRA    8090
....................             Tsecadop[1]=5;             
0808C:  MOVLW  05
0808E:  MOVWF  xBD
....................          if(Tsecadop[2]<0) 
08090:  BTFSC  xBE.7
08092:  BRA    8096
08094:  BRA    809A
....................             Tsecadop[2]=9;             
08096:  MOVLW  09
08098:  MOVWF  xBE
....................          if(Tsecadop[3]<0) 
0809A:  BTFSC  xBF.7
0809C:  BRA    80A0
0809E:  BRA    80A4
....................             Tsecadop[3]=9;             
080A0:  MOVLW  09
080A2:  MOVWF  xBF
....................           
....................          if(Tsecadop[0]>9) 
080A4:  BTFSC  xBC.7
080A6:  BRA    80B0
080A8:  MOVF   xBC,W
080AA:  SUBLW  09
080AC:  BC    80B0
....................             Tsecadop[0]=0;             
080AE:  CLRF   xBC
....................          if(Tsecadop[1]>5) 
080B0:  BTFSC  xBD.7
080B2:  BRA    80BC
080B4:  MOVF   xBD,W
080B6:  SUBLW  05
080B8:  BC    80BC
....................             Tsecadop[1]=0;             
080BA:  CLRF   xBD
....................          if(Tsecadop[2]>9) 
080BC:  BTFSC  xBE.7
080BE:  BRA    80C8
080C0:  MOVF   xBE,W
080C2:  SUBLW  09
080C4:  BC    80C8
....................             Tsecadop[2]=0;             
080C6:  CLRF   xBE
....................          if(Tsecadop[3]>9) 
080C8:  BTFSC  xBF.7
080CA:  BRA    80D4
080CC:  MOVF   xBF,W
080CE:  SUBLW  09
080D0:  BC    80D4
....................             Tsecadop[3]=0; 
080D2:  CLRF   xBF
....................              
....................       printf("tminsec.txt=\"%02u\"",((Tsecadop[3]*10)+Tsecadop[2])); 
080D4:  MOVFF  BF,3E8
080D8:  MOVLW  0A
080DA:  MOVLB  3
080DC:  MOVWF  xE9
080DE:  MOVLB  0
080E0:  CALL   2A6E
080E4:  MOVF   xBE,W
080E6:  ADDWF  01,W
080E8:  MOVLB  3
080EA:  MOVWF  xE6
080EC:  MOVLW  52
080EE:  MOVWF  FF6
080F0:  MOVLW  0A
080F2:  MOVWF  FF7
080F4:  MOVLW  00
080F6:  MOVWF  FF8
080F8:  MOVLW  0D
080FA:  MOVWF  xEA
080FC:  MOVLB  0
080FE:  CALL   4228
08102:  MOVFF  3E6,3E8
08106:  MOVLW  01
08108:  MOVLB  3
0810A:  MOVWF  xE9
0810C:  MOVLB  0
0810E:  CALL   4286
08112:  MOVLW  22
08114:  BTFSS  F9E.4
08116:  BRA    8114
08118:  MOVWF  FAD
....................       SendDataDisplay(); 
0811A:  CALL   355A
....................       printf("tsecsec.txt=\"%02u\"",((Tsecadop[1]*10)+Tsecadop[0])); 
0811E:  MOVFF  BD,3E8
08122:  MOVLW  0A
08124:  MOVLB  3
08126:  MOVWF  xE9
08128:  MOVLB  0
0812A:  CALL   2A6E
0812E:  MOVF   xBC,W
08130:  ADDWF  01,W
08132:  MOVLB  3
08134:  MOVWF  xE6
08136:  MOVLW  66
08138:  MOVWF  FF6
0813A:  MOVLW  0A
0813C:  MOVWF  FF7
0813E:  MOVLW  00
08140:  MOVWF  FF8
08142:  MOVLW  0D
08144:  MOVWF  xEA
08146:  MOVLB  0
08148:  CALL   4228
0814C:  MOVFF  3E6,3E8
08150:  MOVLW  01
08152:  MOVLB  3
08154:  MOVWF  xE9
08156:  MOVLB  0
08158:  CALL   4286
0815C:  MOVLW  22
0815E:  BTFSS  F9E.4
08160:  BRA    815E
08162:  MOVWF  FAD
....................       SendDataDisplay(); 
08164:  CALL   355A
08168:  MOVLB  3
....................     } 
.................... //_--------------------------------------------------------------------------------------------------------------------------------------------------------        
....................  
.................... //_-------------------------------------------------------------------------------------------------------------------------------------------------------- 
....................     if(Menu==4){ //Menu de Temperatura 
0816A:  MOVF   x55,W
0816C:  SUBLW  04
0816E:  BTFSS  FD8.2
08170:  BRA    83B8
....................       printf("fecha.txt=\"T:%3.1fC Fecha:%02u/%02u/20%02u Hora: %02u:%02u:%02u\"",Temperatura,Dia,Mes,Year,Hora,Minuto,Segundo); 
08172:  MOVLW  7A
08174:  MOVWF  FF6
08176:  MOVLW  0A
08178:  MOVWF  FF7
0817A:  MOVLW  00
0817C:  MOVWF  FF8
0817E:  MOVLW  0D
08180:  MOVWF  xEA
08182:  MOVLB  0
08184:  CALL   4228
08188:  MOVLW  02
0818A:  MOVWF  FE9
0818C:  MOVFF  322,3ED
08190:  MOVFF  321,3EC
08194:  MOVFF  320,3EB
08198:  MOVFF  31F,3EA
0819C:  MOVLW  01
0819E:  MOVLB  3
081A0:  MOVWF  xEE
081A2:  MOVLB  0
081A4:  CALL   4400
081A8:  MOVLW  8C
081AA:  MOVWF  FF6
081AC:  MOVLW  0A
081AE:  MOVWF  FF7
081B0:  MOVLW  00
081B2:  MOVWF  FF8
081B4:  MOVLW  09
081B6:  MOVLB  3
081B8:  MOVWF  xEA
081BA:  MOVLB  0
081BC:  CALL   4228
081C0:  MOVFF  38E,3E8
081C4:  MOVLW  01
081C6:  MOVLB  3
081C8:  MOVWF  xE9
081CA:  MOVLB  0
081CC:  CALL   4286
081D0:  MOVLW  2F
081D2:  BTFSS  F9E.4
081D4:  BRA    81D2
081D6:  MOVWF  FAD
081D8:  MOVFF  38D,3E8
081DC:  MOVLW  01
081DE:  MOVLB  3
081E0:  MOVWF  xE9
081E2:  MOVLB  0
081E4:  CALL   4286
081E8:  MOVLW  2F
081EA:  BTFSS  F9E.4
081EC:  BRA    81EA
081EE:  MOVWF  FAD
081F0:  MOVLW  32
081F2:  BTFSS  F9E.4
081F4:  BRA    81F2
081F6:  MOVWF  FAD
081F8:  MOVLW  30
081FA:  BTFSS  F9E.4
081FC:  BRA    81FA
081FE:  MOVWF  FAD
08200:  MOVFF  38C,3E8
08204:  MOVLW  01
08206:  MOVLB  3
08208:  MOVWF  xE9
0820A:  MOVLB  0
0820C:  CALL   4286
08210:  MOVLW  A5
08212:  MOVWF  FF6
08214:  MOVLW  0A
08216:  MOVWF  FF7
08218:  MOVLW  00
0821A:  MOVWF  FF8
0821C:  MOVLW  07
0821E:  MOVLB  3
08220:  MOVWF  xEA
08222:  MOVLB  0
08224:  CALL   4228
08228:  MOVFF  38F,3E8
0822C:  MOVLW  01
0822E:  MOVLB  3
08230:  MOVWF  xE9
08232:  MOVLB  0
08234:  CALL   4286
08238:  MOVLW  3A
0823A:  BTFSS  F9E.4
0823C:  BRA    823A
0823E:  MOVWF  FAD
08240:  MOVFF  390,3E8
08244:  MOVLW  01
08246:  MOVLB  3
08248:  MOVWF  xE9
0824A:  MOVLB  0
0824C:  CALL   4286
08250:  MOVLW  3A
08252:  BTFSS  F9E.4
08254:  BRA    8252
08256:  MOVWF  FAD
08258:  MOVFF  391,3E8
0825C:  MOVLW  01
0825E:  MOVLB  3
08260:  MOVWF  xE9
08262:  MOVLB  0
08264:  CALL   4286
08268:  MOVLW  22
0826A:  BTFSS  F9E.4
0826C:  BRA    826A
0826E:  MOVWF  FAD
....................       SendDataDisplay(); 
08270:  CALL   355A
....................          if(Setpoint<105) 
08274:  MOVLB  3
08276:  MOVF   x5C,W
08278:  SUBLW  68
0827A:  BNC   8280
....................             Setpoint=134; 
0827C:  MOVLW  86
0827E:  MOVWF  x5C
....................          if(Setpoint>134) 
08280:  MOVF   x5C,W
08282:  SUBLW  86
08284:  BC    828A
....................             Setpoint=105; 
08286:  MOVLW  69
08288:  MOVWF  x5C
....................           
....................          if(RX_Buffer[4]==0x11 || LEFT){//Selecciono Regresar 
0828A:  MOVF   34,W
0828C:  SUBLW  11
0828E:  BZ    8296
08290:  BSF    F93.3
08292:  BTFSC  F81.3
08294:  BRA    8328
....................             Segundos=OFF; 
08296:  MOVLB  0
08298:  BCF    xA2.2
....................             Minutos=OFF; 
0829A:  BCF    xA2.1
....................             printf("page CicloPersona"); 
0829C:  MOVLW  BC
0829E:  MOVWF  FF6
082A0:  MOVLW  0A
082A2:  MOVWF  FF7
082A4:  MOVLW  00
082A6:  MOVWF  FF8
082A8:  CALL   3528
....................             SendDataDisplay();   
082AC:  CALL   355A
....................             PantallaPrincipal=1; 
082B0:  MOVLW  01
082B2:  MOVLB  2
082B4:  MOVWF  xDA
....................             Op=OFF; 
082B6:  MOVLB  0
082B8:  BCF    xA1.7
....................             Op2=OFF; 
082BA:  BCF    xA2.0
....................             if(!GuardaEEPROM){ 
082BC:  BTFSC  xA2.3
082BE:  BRA    8326
....................                CiclosPersonalizados[CicloLibre-1].Temperatura=Setpoint; 
082C0:  MOVLW  01
082C2:  MOVLB  3
082C4:  SUBWF  x35,W
082C6:  MULLW  0A
082C8:  MOVF   FF3,W
082CA:  CLRF   xE7
082CC:  MOVWF  xE6
082CE:  MOVLW  BE
082D0:  ADDWF  xE6,W
082D2:  MOVWF  FE9
082D4:  MOVLW  03
082D6:  ADDWFC xE7,W
082D8:  MOVWF  FEA
082DA:  MOVFF  35C,FEF
....................                write_eeprom(100+((CicloLibre-1)*8),Setpoint); 
082DE:  MOVLW  01
082E0:  SUBWF  x35,W
082E2:  MULLW  08
082E4:  MOVF   FF3,W
082E6:  ADDLW  64
082E8:  MOVWF  xE6
082EA:  CLRF   FAA
082EC:  MOVFF  3E6,FA9
082F0:  MOVFF  35C,FA8
082F4:  BCF    FA6.6
082F6:  BCF    FA6.7
082F8:  BSF    FA6.2
082FA:  MOVF   FF2,W
082FC:  MOVWF  00
082FE:  BCF    FF2.6
08300:  BCF    FF2.7
08302:  MOVLB  F
08304:  MOVLW  55
08306:  MOVWF  FA7
08308:  MOVLW  AA
0830A:  MOVWF  FA7
0830C:  BSF    FA6.1
0830E:  BTFSC  FA6.1
08310:  BRA    830E
08312:  BCF    FA6.2
08314:  MOVF   00,W
08316:  IORWF  FF2,F
....................                delay_ms(10); 
08318:  MOVLW  0A
0831A:  MOVLB  3
0831C:  MOVWF  xFB
0831E:  MOVLB  0
08320:  CALL   17AE
....................                GuardaEEPROM=ON; 
08324:  BSF    xA2.3
08326:  MOVLB  3
....................             } 
....................          } 
....................           
....................          if(UP){ 
08328:  BSF    F93.0
0832A:  BTFSC  F81.0
0832C:  BRA    8342
....................             delay_ms(100); 
0832E:  MOVLW  64
08330:  MOVWF  xFB
08332:  MOVLB  0
08334:  CALL   17AE
....................             if(UP){ 
08338:  BSF    F93.0
0833A:  BTFSC  F81.0
0833C:  BRA    8344
....................                Setpoint++; 
0833E:  MOVLB  3
08340:  INCF   x5C,F
08342:  MOVLB  0
....................             } 
....................          } 
....................           
....................          if(DOWN){ 
08344:  BSF    F93.1
08346:  BTFSC  F81.1
08348:  BRA    8362
....................             delay_ms(100); 
0834A:  MOVLW  64
0834C:  MOVLB  3
0834E:  MOVWF  xFB
08350:  MOVLB  0
08352:  CALL   17AE
....................             if(DOWN){ 
08356:  BSF    F93.1
08358:  BTFSC  F81.1
0835A:  BRA    8362
....................                Setpoint--; 
0835C:  MOVLB  3
0835E:  DECF   x5C,F
08360:  MOVLB  0
....................             } 
....................          } 
....................           
....................          if(RX_Buffer[4]==0x0d){//Tecla Arriba Oprimida 
08362:  MOVF   34,W
08364:  SUBLW  0D
08366:  BNZ   8372
....................             Setpoint++; 
08368:  MOVLB  3
0836A:  INCF   x5C,F
....................             RX_Buffer[4]=0x00;   
0836C:  CLRF   34
....................             RX_Buffer2[4]=0x00;             
0836E:  CLRF   3F
08370:  MOVLB  0
....................             //BorraBuffer(); 
....................          } 
....................           
....................          if(RX_Buffer[4]==0x0c){//Tecla Abajo Oprimida 
08372:  MOVF   34,W
08374:  SUBLW  0C
08376:  BNZ   8382
....................             Setpoint--; 
08378:  MOVLB  3
0837A:  DECF   x5C,F
....................             RX_Buffer[4]=0x00; 
0837C:  CLRF   34
....................             RX_Buffer2[4]=0x00;             
0837E:  CLRF   3F
08380:  MOVLB  0
....................             //BorraBuffer(); 
....................          } 
....................           
....................       printf("tsettem.txt=\"%03u\"",Setpoint); 
08382:  MOVLW  CE
08384:  MOVWF  FF6
08386:  MOVLW  0A
08388:  MOVWF  FF7
0838A:  MOVLW  00
0838C:  MOVWF  FF8
0838E:  MOVLW  0D
08390:  MOVLB  3
08392:  MOVWF  xEA
08394:  MOVLB  0
08396:  CALL   4228
0839A:  MOVFF  35C,3E8
0839E:  MOVLW  03
083A0:  MOVLB  3
083A2:  MOVWF  xE9
083A4:  MOVLB  0
083A6:  CALL   4286
083AA:  MOVLW  22
083AC:  BTFSS  F9E.4
083AE:  BRA    83AC
083B0:  MOVWF  FAD
....................       SendDataDisplay(); 
083B2:  CALL   355A
083B6:  MOVLB  3
....................     } 
.................... //_--------------------------------------------------------------------------------------------------------------------------------------------------------        
....................  
.................... //_--------------------------------------------------------------------------------------------------------------------------------------------------------       
....................    if(Menu==5){//Menu de Nivel 
083B8:  MOVF   x55,W
083BA:  SUBLW  05
083BC:  BTFSS  FD8.2
083BE:  BRA    8688
....................       printf("fecha.txt=\"T:%3.1fC Fecha:%02u/%02u/20%02u Hora: %02u:%02u:%02u\"",Temperatura,Dia,Mes,Year,Hora,Minuto,Segundo); 
083C0:  MOVLW  E2
083C2:  MOVWF  FF6
083C4:  MOVLW  0A
083C6:  MOVWF  FF7
083C8:  MOVLW  00
083CA:  MOVWF  FF8
083CC:  MOVLW  0D
083CE:  MOVWF  xEA
083D0:  MOVLB  0
083D2:  CALL   4228
083D6:  MOVLW  02
083D8:  MOVWF  FE9
083DA:  MOVFF  322,3ED
083DE:  MOVFF  321,3EC
083E2:  MOVFF  320,3EB
083E6:  MOVFF  31F,3EA
083EA:  MOVLW  01
083EC:  MOVLB  3
083EE:  MOVWF  xEE
083F0:  MOVLB  0
083F2:  CALL   4400
083F6:  MOVLW  F4
083F8:  MOVWF  FF6
083FA:  MOVLW  0A
083FC:  MOVWF  FF7
083FE:  MOVLW  00
08400:  MOVWF  FF8
08402:  MOVLW  09
08404:  MOVLB  3
08406:  MOVWF  xEA
08408:  MOVLB  0
0840A:  CALL   4228
0840E:  MOVFF  38E,3E8
08412:  MOVLW  01
08414:  MOVLB  3
08416:  MOVWF  xE9
08418:  MOVLB  0
0841A:  CALL   4286
0841E:  MOVLW  2F
08420:  BTFSS  F9E.4
08422:  BRA    8420
08424:  MOVWF  FAD
08426:  MOVFF  38D,3E8
0842A:  MOVLW  01
0842C:  MOVLB  3
0842E:  MOVWF  xE9
08430:  MOVLB  0
08432:  CALL   4286
08436:  MOVLW  2F
08438:  BTFSS  F9E.4
0843A:  BRA    8438
0843C:  MOVWF  FAD
0843E:  MOVLW  32
08440:  BTFSS  F9E.4
08442:  BRA    8440
08444:  MOVWF  FAD
08446:  MOVLW  30
08448:  BTFSS  F9E.4
0844A:  BRA    8448
0844C:  MOVWF  FAD
0844E:  MOVFF  38C,3E8
08452:  MOVLW  01
08454:  MOVLB  3
08456:  MOVWF  xE9
08458:  MOVLB  0
0845A:  CALL   4286
0845E:  MOVLW  0D
08460:  MOVWF  FF6
08462:  MOVLW  0B
08464:  MOVWF  FF7
08466:  MOVLW  00
08468:  MOVWF  FF8
0846A:  MOVLW  07
0846C:  MOVLB  3
0846E:  MOVWF  xEA
08470:  MOVLB  0
08472:  CALL   4228
08476:  MOVFF  38F,3E8
0847A:  MOVLW  01
0847C:  MOVLB  3
0847E:  MOVWF  xE9
08480:  MOVLB  0
08482:  CALL   4286
08486:  MOVLW  3A
08488:  BTFSS  F9E.4
0848A:  BRA    8488
0848C:  MOVWF  FAD
0848E:  MOVFF  390,3E8
08492:  MOVLW  01
08494:  MOVLB  3
08496:  MOVWF  xE9
08498:  MOVLB  0
0849A:  CALL   4286
0849E:  MOVLW  3A
084A0:  BTFSS  F9E.4
084A2:  BRA    84A0
084A4:  MOVWF  FAD
084A6:  MOVFF  391,3E8
084AA:  MOVLW  01
084AC:  MOVLB  3
084AE:  MOVWF  xE9
084B0:  MOVLB  0
084B2:  CALL   4286
084B6:  MOVLW  22
084B8:  BTFSS  F9E.4
084BA:  BRA    84B8
084BC:  MOVWF  FAD
....................       SendDataDisplay(); 
084BE:  CALL   355A
....................          if(Nivel<1) 
084C2:  MOVLB  3
084C4:  MOVF   x6A,F
084C6:  BNZ   84D2
084C8:  MOVF   x6B,F
084CA:  BNZ   84D2
....................             Nivel=6; 
084CC:  CLRF   x6B
084CE:  MOVLW  06
084D0:  MOVWF  x6A
....................          if(Nivel>6) 
084D2:  MOVF   x6B,F
084D4:  BNZ   84DC
084D6:  MOVF   x6A,W
084D8:  SUBLW  06
084DA:  BC    84E2
....................             Nivel=1; 
084DC:  CLRF   x6B
084DE:  MOVLW  01
084E0:  MOVWF  x6A
....................           
....................          if(RX_Buffer[4]==0x11 || LEFT){//Selecciono Regresar 
084E2:  MOVF   34,W
084E4:  SUBLW  11
084E6:  BZ    84EE
084E8:  BSF    F93.3
084EA:  BTFSC  F81.3
084EC:  BRA    85E4
....................             Segundos=OFF; 
084EE:  MOVLB  0
084F0:  BCF    xA2.2
....................             Minutos=OFF;             
084F2:  BCF    xA2.1
....................             tiempo_secado=0; 
084F4:  MOVLB  3
084F6:  CLRF   x60
....................              
....................             if(!GuardaEEPROM){     
084F8:  MOVLB  0
084FA:  BTFSC  xA2.3
084FC:  BRA    8590
....................                CiclosPersonalizados[CicloLibre-1].NivelDesfogue=Nivel; 
084FE:  MOVLW  01
08500:  MOVLB  3
08502:  SUBWF  x35,W
08504:  MULLW  0A
08506:  MOVF   FF3,W
08508:  CLRF   xE7
0850A:  MOVWF  xE6
0850C:  MOVLW  08
0850E:  ADDWF  xE6,W
08510:  MOVWF  01
08512:  MOVLW  00
08514:  ADDWFC xE7,W
08516:  MOVWF  03
08518:  MOVF   01,W
0851A:  ADDLW  BE
0851C:  MOVWF  FE9
0851E:  MOVLW  03
08520:  ADDWFC 03,W
08522:  MOVWF  FEA
08524:  MOVFF  36A,FEF
....................                write_eeprom(107+((CicloLibre-1)*8),Nivel); 
08528:  MOVLW  01
0852A:  SUBWF  x35,W
0852C:  MULLW  08
0852E:  MOVF   FF3,W
08530:  ADDLW  6B
08532:  MOVWF  xE6
08534:  CLRF   FAA
08536:  MOVFF  3E6,FA9
0853A:  MOVFF  36A,FA8
0853E:  BCF    FA6.6
08540:  BCF    FA6.7
08542:  BSF    FA6.2
08544:  MOVF   FF2,W
08546:  MOVWF  00
08548:  BCF    FF2.6
0854A:  BCF    FF2.7
0854C:  MOVLB  F
0854E:  MOVLW  55
08550:  MOVWF  FA7
08552:  MOVLW  AA
08554:  MOVWF  FA7
08556:  BSF    FA6.1
08558:  BTFSC  FA6.1
0855A:  BRA    8558
0855C:  BCF    FA6.2
0855E:  MOVF   00,W
08560:  IORWF  FF2,F
....................                delay_ms(20);             
08562:  MOVLW  14
08564:  MOVLB  3
08566:  MOVWF  xFB
08568:  MOVLB  0
0856A:  CALL   17AE
....................                NivelSeleccionado=4995*Nivel; 
0856E:  MOVLW  13
08570:  MOVLB  3
08572:  MOVWF  xE8
08574:  MOVLW  83
08576:  MOVWF  xE7
08578:  MOVFF  36B,3EA
0857C:  MOVFF  36A,3E9
08580:  MOVLB  0
08582:  CALL   3600
08586:  MOVFF  02,375
0858A:  MOVFF  01,374
....................                GuardaEEPROM=ON; 
0858E:  BSF    xA2.3
....................             } 
....................              
....................             if(Nivel<6) 
08590:  MOVLB  3
08592:  MOVF   x6B,F
08594:  BNZ   85A2
08596:  MOVF   x6A,W
08598:  SUBLW  05
0859A:  BNC   85A2
....................                desfoguelento=1; 
0859C:  MOVLB  0
0859E:  BSF    xA3.6
....................             else             
085A0:  BRA    85A6
....................                desfoguelento=0; 
085A2:  MOVLB  0
085A4:  BCF    xA3.6
....................  
....................             if(MenuAnt==1){ 
085A6:  MOVLB  3
085A8:  DECFSZ x56,W
085AA:  BRA    85C6
....................                //Buzzer_on; 
....................                printf("page CicloPersona"); 
085AC:  MOVLW  24
085AE:  MOVWF  FF6
085B0:  MOVLW  0B
085B2:  MOVWF  FF7
085B4:  MOVLW  00
085B6:  MOVWF  FF8
085B8:  MOVLB  0
085BA:  CALL   3528
....................                SendDataDisplay();  
085BE:  CALL   355A
....................                //PantallaPrincipal=1; 
....................             }else if(MenuAnt==2){ 
085C2:  BRA    85E2
085C4:  MOVLB  3
085C6:  MOVF   x56,W
085C8:  SUBLW  02
085CA:  BNZ   85E4
....................                printf("page Funcionamiento"); 
085CC:  MOVLW  36
085CE:  MOVWF  FF6
085D0:  MOVLW  0B
085D2:  MOVWF  FF7
085D4:  MOVLW  00
085D6:  MOVWF  FF8
085D8:  MOVLB  0
085DA:  CALL   3528
....................                SendDataDisplay();  
085DE:  CALL   355A
085E2:  MOVLB  3
....................                //if(Temperatura>60)TTrampa=TTrampa+5; 
....................             } 
....................          } 
....................           
....................          if(UP){ 
085E4:  BSF    F93.0
085E6:  BTFSC  F81.0
085E8:  BRA    8602
....................             delay_ms(100); 
085EA:  MOVLW  64
085EC:  MOVWF  xFB
085EE:  MOVLB  0
085F0:  CALL   17AE
....................             if(UP){ 
085F4:  BSF    F93.0
085F6:  BTFSC  F81.0
085F8:  BRA    8604
....................                Nivel++; 
085FA:  MOVLB  3
085FC:  INCF   x6A,F
085FE:  BTFSC  FD8.2
08600:  INCF   x6B,F
08602:  MOVLB  0
....................             } 
....................          } 
....................           
....................          if(DOWN){ 
08604:  BSF    F93.1
08606:  BTFSC  F81.1
08608:  BRA    8628
....................             delay_ms(100); 
0860A:  MOVLW  64
0860C:  MOVLB  3
0860E:  MOVWF  xFB
08610:  MOVLB  0
08612:  CALL   17AE
....................             if(DOWN){ 
08616:  BSF    F93.1
08618:  BTFSC  F81.1
0861A:  BRA    8628
....................                Nivel--; 
0861C:  MOVLB  3
0861E:  MOVF   x6A,W
08620:  BTFSC  FD8.2
08622:  DECF   x6B,F
08624:  DECF   x6A,F
08626:  MOVLB  0
....................             } 
....................          } 
....................           
....................          if(RX_Buffer[4]==0x0d){//Tecla Arriba Oprimida 
08628:  MOVF   34,W
0862A:  SUBLW  0D
0862C:  BNZ   863C
....................             Nivel++; 
0862E:  MOVLB  3
08630:  INCF   x6A,F
08632:  BTFSC  FD8.2
08634:  INCF   x6B,F
....................             RX_Buffer[4]=0x00;             
08636:  CLRF   34
....................             RX_Buffer2[4]=0x00;             
08638:  CLRF   3F
0863A:  MOVLB  0
....................             //BorraBuffer(); 
....................          } 
....................           
....................          if(RX_Buffer[4]==0x0c){//Tecla Abajo Oprimida 
0863C:  MOVF   34,W
0863E:  SUBLW  0C
08640:  BNZ   8652
....................             Nivel--; 
08642:  MOVLB  3
08644:  MOVF   x6A,W
08646:  BTFSC  FD8.2
08648:  DECF   x6B,F
0864A:  DECF   x6A,F
....................             RX_Buffer[4]=0x00; 
0864C:  CLRF   34
....................             RX_Buffer2[4]=0x00;             
0864E:  CLRF   3F
08650:  MOVLB  0
....................             //BorraBuffer(); 
....................          } 
....................           
....................       printf("tnivel.txt=\"%Lu\"",Nivel); 
08652:  MOVLW  4A
08654:  MOVWF  FF6
08656:  MOVLW  0B
08658:  MOVWF  FF7
0865A:  MOVLW  00
0865C:  MOVWF  FF8
0865E:  MOVLW  0C
08660:  MOVLB  3
08662:  MOVWF  xEA
08664:  MOVLB  0
08666:  CALL   4228
0866A:  MOVLW  10
0866C:  MOVWF  FE9
0866E:  MOVFF  36B,3EB
08672:  MOVFF  36A,3EA
08676:  CALL   4628
0867A:  MOVLW  22
0867C:  BTFSS  F9E.4
0867E:  BRA    867C
08680:  MOVWF  FAD
....................       SendDataDisplay(); 
08682:  CALL   355A
08686:  MOVLB  3
....................    } 
.................... //_--------------------------------------------------------------------------------------------------------------------------------------------------------       
....................  
.................... //_--------------------------------------------------------------------------------------------------------------------------------------------------------       
....................       if(Menu==6){ // Menu de Prueba de Componentes 
08688:  MOVF   x55,W
0868A:  SUBLW  06
0868C:  BTFSS  FD8.2
0868E:  BRA    8D94
....................          PruebaEstados=ON; 
08690:  MOVLB  0
08692:  BSF    xA1.2
....................           
....................          if(RX_Buffer[4]==0x02)//Oprimio EV Desfogue 
08694:  MOVF   34,W
08696:  SUBLW  02
08698:  BNZ   86A0
....................          { 
....................             EstadoDesfogue=!EstadoDesfogue; 
0869A:  BTG    xA0.7
....................             RX_Buffer[4]=0x00; 
0869C:  CLRF   34
....................             RX_Buffer2[4]=0x00; 
0869E:  CLRF   3F
....................          } 
....................           
....................          if(EstadoDesfogue){ 
086A0:  BTFSS  xA0.7
086A2:  BRA    86BE
....................             printf("b1.bco=2016"); 
086A4:  MOVLW  5C
086A6:  MOVWF  FF6
086A8:  MOVLW  0B
086AA:  MOVWF  FF7
086AC:  MOVLW  00
086AE:  MOVWF  FF8
086B0:  CALL   3528
....................             SendDataDisplay();  
086B4:  CALL   355A
....................             Desfogue_on; 
086B8:  BSF    F8C.4
086BA:  BCF    F95.4
....................          } 
....................          else{ 
086BC:  BRA    86D6
....................             printf("b1.bco=63488"); 
086BE:  MOVLW  68
086C0:  MOVWF  FF6
086C2:  MOVLW  0B
086C4:  MOVWF  FF7
086C6:  MOVLW  00
086C8:  MOVWF  FF8
086CA:  CALL   3528
....................             SendDataDisplay();  
086CE:  CALL   355A
....................             Desfogue_off; 
086D2:  BCF    F8C.4
086D4:  BCF    F95.4
....................          } 
....................           
....................          if(RX_Buffer[4]==0x01)//Oprimio EV Agua 
086D6:  DECFSZ 34,W
086D8:  BRA    86E0
....................          { 
....................             EstadoAgua=!EstadoAgua; 
086DA:  BTG    xA1.0
....................             RX_Buffer[4]=0x00; 
086DC:  CLRF   34
....................             RX_Buffer2[4]=0x00; 
086DE:  CLRF   3F
....................          } 
....................           
....................          if(EstadoAgua){ 
086E0:  BTFSS  xA1.0
086E2:  BRA    86FE
....................             printf("b0.bco=2016"); 
086E4:  MOVLW  76
086E6:  MOVWF  FF6
086E8:  MOVLW  0B
086EA:  MOVWF  FF7
086EC:  MOVLW  00
086EE:  MOVWF  FF8
086F0:  CALL   3528
....................             SendDataDisplay();  
086F4:  CALL   355A
....................             Vent_on; 
086F8:  BSF    F8C.5
086FA:  BCF    F95.5
....................          } 
....................          else{ 
086FC:  BRA    8716
....................             printf("b0.bco=63488"); 
086FE:  MOVLW  82
08700:  MOVWF  FF6
08702:  MOVLW  0B
08704:  MOVWF  FF7
08706:  MOVLW  00
08708:  MOVWF  FF8
0870A:  CALL   3528
....................             SendDataDisplay();  
0870E:  CALL   355A
....................             Vent_off; 
08712:  BCF    F8C.5
08714:  BCF    F95.5
....................          } 
....................           
....................          if(RX_Buffer[4]==0x03)//Oprimio EV Paso 
08716:  MOVF   34,W
08718:  SUBLW  03
0871A:  BNZ   8722
....................          { 
....................             EstadoPaso=!EstadoPaso; 
0871C:  BTG    xA2.4
....................             RX_Buffer[4]=0x00; 
0871E:  CLRF   34
....................             RX_Buffer2[4]=0x00; 
08720:  CLRF   3F
....................          } 
....................           
....................          if(EstadoPaso){ 
08722:  BTFSS  xA2.4
08724:  BRA    8740
....................             printf("b2.bco=2016"); 
08726:  MOVLW  90
08728:  MOVWF  FF6
0872A:  MOVLW  0B
0872C:  MOVWF  FF7
0872E:  MOVLW  00
08730:  MOVWF  FF8
08732:  CALL   3528
....................             SendDataDisplay();  
08736:  CALL   355A
....................             Paso_on; 
0873A:  BSF    F8C.6
0873C:  BCF    F95.6
....................          } 
....................          else{ 
0873E:  BRA    8758
....................             printf("b2.bco=63488"); 
08740:  MOVLW  9C
08742:  MOVWF  FF6
08744:  MOVLW  0B
08746:  MOVWF  FF7
08748:  MOVLW  00
0874A:  MOVWF  FF8
0874C:  CALL   3528
....................             SendDataDisplay();  
08750:  CALL   355A
....................             Paso_off; 
08754:  BCF    F8C.6
08756:  BCF    F95.6
....................          } 
....................          
....................          /* 
....................          if(RX_Buffer[4]==0x05)//Oprimio Bloqueo 
....................          { 
....................             EstadoBloqueo=!EstadoBloqueo; 
....................             RX_Buffer[4]=0x00; 
....................             RX_Buffer2[4]=0x00; 
....................          } 
....................           
....................          if(EstadoBloqueo){ 
....................             printf("b4.bco=2016"); 
....................             SendDataDisplay();  
....................              
....................          } 
....................          else{ 
....................             printf("b4.bco=63488"); 
....................             SendDataDisplay();  
....................              
....................          } 
....................          */ 
....................           
....................          if(RX_Buffer[4]==0x04)//Oprimio SSR1 
08758:  MOVF   34,W
0875A:  SUBLW  04
0875C:  BNZ   8764
....................          { 
....................             EstadoSSR=!EstadoSSR; 
0875E:  BTG    xA1.1
....................             RX_Buffer[4]=0x00; 
08760:  CLRF   34
....................             RX_Buffer2[4]=0x00; 
08762:  CLRF   3F
....................          } 
....................           
....................          if(EstadoSSR){ 
08764:  BTFSS  xA1.1
08766:  BRA    8782
....................             printf("b3.bco=2016"); 
08768:  MOVLW  AA
0876A:  MOVWF  FF6
0876C:  MOVLW  0B
0876E:  MOVWF  FF7
08770:  MOVLW  00
08772:  MOVWF  FF8
08774:  CALL   3528
....................             SendDataDisplay();  
08778:  CALL   355A
....................             SSR_on; 
0877C:  BCF    F8B.2
0877E:  BCF    F94.2
....................          } 
....................          else{ 
08780:  BRA    879A
....................             printf("b3.bco=63488"); 
08782:  MOVLW  B6
08784:  MOVWF  FF6
08786:  MOVLW  0B
08788:  MOVWF  FF7
0878A:  MOVLW  00
0878C:  MOVWF  FF8
0878E:  CALL   3528
....................             SendDataDisplay();  
08792:  CALL   355A
....................             SSR_off; 
08796:  BSF    F8B.2
08798:  BCF    F94.2
....................          } 
....................           
....................          if(DOOR){ 
0879A:  BSF    F93.6
0879C:  BTFSC  F81.6
0879E:  BRA    87B6
....................             printf("b8.bco=2016"); 
087A0:  MOVLW  C4
087A2:  MOVWF  FF6
087A4:  MOVLW  0B
087A6:  MOVWF  FF7
087A8:  MOVLW  00
087AA:  MOVWF  FF8
087AC:  CALL   3528
....................             SendDataDisplay();  
087B0:  CALL   355A
....................          }else{ 
087B4:  BRA    87CA
....................             printf("b8.bco=63488"); 
087B6:  MOVLW  D0
087B8:  MOVWF  FF6
087BA:  MOVLW  0B
087BC:  MOVWF  FF7
087BE:  MOVLW  00
087C0:  MOVWF  FF8
087C2:  CALL   3528
....................             SendDataDisplay();  
087C6:  CALL   355A
....................          } 
....................           
....................          if(TERM){ 
087CA:  BSF    F93.5
087CC:  BTFSC  F81.5
087CE:  BRA    87E6
....................             printf("b9.bco=2016"); 
087D0:  MOVLW  DE
087D2:  MOVWF  FF6
087D4:  MOVLW  0B
087D6:  MOVWF  FF7
087D8:  MOVLW  00
087DA:  MOVWF  FF8
087DC:  CALL   3528
....................             SendDataDisplay();  
087E0:  CALL   355A
....................          }else{ 
087E4:  BRA    87FA
....................             printf("b9.bco=63488"); 
087E6:  MOVLW  EA
087E8:  MOVWF  FF6
087EA:  MOVLW  0B
087EC:  MOVWF  FF7
087EE:  MOVLW  00
087F0:  MOVWF  FF8
087F2:  CALL   3528
....................             SendDataDisplay();  
087F6:  CALL   355A
....................          } 
....................           
....................          if(STOP){ 
087FA:  BSF    F93.7
087FC:  BTFSC  F81.7
087FE:  BRA    8816
....................             printf("b10.bco=2016"); 
08800:  MOVLW  F8
08802:  MOVWF  FF6
08804:  MOVLW  0B
08806:  MOVWF  FF7
08808:  MOVLW  00
0880A:  MOVWF  FF8
0880C:  CALL   3528
....................             SendDataDisplay();  
08810:  CALL   355A
....................          }else{ 
08814:  BRA    882A
....................             printf("b10.bco=63488"); 
08816:  MOVLW  06
08818:  MOVWF  FF6
0881A:  MOVLW  0C
0881C:  MOVWF  FF7
0881E:  MOVLW  00
08820:  MOVWF  FF8
08822:  CALL   3528
....................             SendDataDisplay();  
08826:  CALL   355A
....................          } 
....................           
....................          /*if(PRES){ 
....................             printf("b11.bco=2016"); 
....................             SendDataDisplay();  
....................          }else{ 
....................             printf("b11.bco=63488"); 
....................             SendDataDisplay();  
....................          }*/ 
....................           
....................          if(RX_Buffer[4]==0x13)//Oprimio Buzzer 
0882A:  MOVF   34,W
0882C:  SUBLW  13
0882E:  BNZ   8836
....................          { 
....................             EstadoBuzzer=!EstadoBuzzer; 
08830:  BTG    xA2.5
....................             RX_Buffer[4]=0x00; 
08832:  CLRF   34
....................             RX_Buffer2[4]=0x00; 
08834:  CLRF   3F
....................          } 
....................           
....................          if(EstadoBuzzer){ 
08836:  BTFSS  xA2.5
08838:  BRA    8854
....................             printf("b12.bco=2016"); 
0883A:  MOVLW  14
0883C:  MOVWF  FF6
0883E:  MOVLW  0C
08840:  MOVWF  FF7
08842:  MOVLW  00
08844:  MOVWF  FF8
08846:  CALL   3528
....................             SendDataDisplay();  
0884A:  CALL   355A
....................             Buzzer_on; 
0884E:  BSF    F8C.0
08850:  BCF    F95.0
....................          } 
....................          else{ 
08852:  BRA    886C
....................             printf("b12.bco=63488"); 
08854:  MOVLW  22
08856:  MOVWF  FF6
08858:  MOVLW  0C
0885A:  MOVWF  FF7
0885C:  MOVLW  00
0885E:  MOVWF  FF8
08860:  CALL   3528
....................             SendDataDisplay();  
08864:  CALL   355A
....................             Buzzer_off; 
08868:  BCF    F8C.0
0886A:  BCF    F95.0
....................          } 
....................           
....................          if(HIG){ 
0886C:  BSF    F94.0
0886E:  BTFSS  F82.0
08870:  BRA    8888
....................             printf("b16.bco=2016"); 
08872:  MOVLW  30
08874:  MOVWF  FF6
08876:  MOVLW  0C
08878:  MOVWF  FF7
0887A:  MOVLW  00
0887C:  MOVWF  FF8
0887E:  CALL   3528
....................             SendDataDisplay();  
08882:  CALL   355A
....................          }else{ 
08886:  BRA    889C
....................             printf("b16.bco=63488"); 
08888:  MOVLW  3E
0888A:  MOVWF  FF6
0888C:  MOVLW  0C
0888E:  MOVWF  FF7
08890:  MOVLW  00
08892:  MOVWF  FF8
08894:  CALL   3528
....................             SendDataDisplay();  
08898:  CALL   355A
....................          } 
....................           
....................          if(LOW){ 
0889C:  BSF    F94.1
0889E:  BTFSS  F82.1
088A0:  BRA    88B8
....................             printf("b17.bco=2016"); 
088A2:  MOVLW  4C
088A4:  MOVWF  FF6
088A6:  MOVLW  0C
088A8:  MOVWF  FF7
088AA:  MOVLW  00
088AC:  MOVWF  FF8
088AE:  CALL   3528
....................             SendDataDisplay();  
088B2:  CALL   355A
....................          }else{ 
088B6:  BRA    88CC
....................             printf("b17.bco=63488"); 
088B8:  MOVLW  5A
088BA:  MOVWF  FF6
088BC:  MOVLW  0C
088BE:  MOVWF  FF7
088C0:  MOVLW  00
088C2:  MOVWF  FF8
088C4:  CALL   3528
....................             SendDataDisplay();  
088C8:  CALL   355A
....................          } 
....................           
....................          printf("b13.txt=\"ADC0:%3.0f\"",sensores(0));          
088CC:  MOVLB  3
088CE:  CLRF   xE7
088D0:  MOVLB  0
088D2:  CALL   35A8
088D6:  MOVFF  00,3E6
088DA:  MOVFF  01,3E7
088DE:  MOVFF  02,3E8
088E2:  MOVFF  03,3E9
088E6:  MOVLW  68
088E8:  MOVWF  FF6
088EA:  MOVLW  0C
088EC:  MOVWF  FF7
088EE:  MOVLW  00
088F0:  MOVWF  FF8
088F2:  MOVLW  0E
088F4:  MOVLB  3
088F6:  MOVWF  xEA
088F8:  MOVLB  0
088FA:  CALL   4228
088FE:  MOVLW  02
08900:  MOVWF  FE9
08902:  MOVFF  3E9,3ED
08906:  MOVFF  3E8,3EC
0890A:  MOVFF  3E7,3EB
0890E:  MOVFF  3E6,3EA
08912:  MOVLB  3
08914:  CLRF   xEE
08916:  MOVLB  0
08918:  CALL   4400
0891C:  MOVLW  22
0891E:  BTFSS  F9E.4
08920:  BRA    891E
08922:  MOVWF  FAD
....................          SendDataDisplay(); 
08924:  CALL   355A
....................          printf("b14.txt=\"ADC1:%3.0f\"",sensores(1));          
08928:  MOVLW  01
0892A:  MOVLB  3
0892C:  MOVWF  xE7
0892E:  MOVLB  0
08930:  CALL   35A8
08934:  MOVFF  00,3E6
08938:  MOVFF  01,3E7
0893C:  MOVFF  02,3E8
08940:  MOVFF  03,3E9
08944:  MOVLW  7E
08946:  MOVWF  FF6
08948:  MOVLW  0C
0894A:  MOVWF  FF7
0894C:  MOVLW  00
0894E:  MOVWF  FF8
08950:  MOVLW  0E
08952:  MOVLB  3
08954:  MOVWF  xEA
08956:  MOVLB  0
08958:  CALL   4228
0895C:  MOVLW  02
0895E:  MOVWF  FE9
08960:  MOVFF  3E9,3ED
08964:  MOVFF  3E8,3EC
08968:  MOVFF  3E7,3EB
0896C:  MOVFF  3E6,3EA
08970:  MOVLB  3
08972:  CLRF   xEE
08974:  MOVLB  0
08976:  CALL   4400
0897A:  MOVLW  22
0897C:  BTFSS  F9E.4
0897E:  BRA    897C
08980:  MOVWF  FAD
....................          SendDataDisplay(); 
08982:  CALL   355A
....................          printf("b15.txt=\"A2:%3.0f %03Lu\"",sensores(2),PresionCamara); 
08986:  MOVLW  02
08988:  MOVLB  3
0898A:  MOVWF  xE7
0898C:  MOVLB  0
0898E:  CALL   35A8
08992:  MOVFF  00,3E6
08996:  MOVFF  01,3E7
0899A:  MOVFF  02,3E8
0899E:  MOVFF  03,3E9
089A2:  MOVLW  94
089A4:  MOVWF  FF6
089A6:  MOVLW  0C
089A8:  MOVWF  FF7
089AA:  MOVLW  00
089AC:  MOVWF  FF8
089AE:  MOVLW  0C
089B0:  MOVLB  3
089B2:  MOVWF  xEA
089B4:  MOVLB  0
089B6:  CALL   4228
089BA:  MOVLW  02
089BC:  MOVWF  FE9
089BE:  MOVFF  3E9,3ED
089C2:  MOVFF  3E8,3EC
089C6:  MOVFF  3E7,3EB
089CA:  MOVFF  3E6,3EA
089CE:  MOVLB  3
089D0:  CLRF   xEE
089D2:  MOVLB  0
089D4:  CALL   4400
089D8:  MOVLW  20
089DA:  BTFSS  F9E.4
089DC:  BRA    89DA
089DE:  MOVWF  FAD
089E0:  MOVLW  0A
089E2:  MOVWF  FE9
089E4:  MOVFF  36F,3EB
089E8:  MOVFF  36E,3EA
089EC:  CALL   4628
089F0:  MOVLW  22
089F2:  BTFSS  F9E.4
089F4:  BRA    89F2
089F6:  MOVWF  FAD
....................          SendDataDisplay(); 
089F8:  CALL   355A
....................          printf("b18.txt=\"A3:%3.0f %03Lu\"",sensores(3),PresionPreCamara); 
089FC:  MOVLW  03
089FE:  MOVLB  3
08A00:  MOVWF  xE7
08A02:  MOVLB  0
08A04:  CALL   35A8
08A08:  MOVFF  00,3E6
08A0C:  MOVFF  01,3E7
08A10:  MOVFF  02,3E8
08A14:  MOVFF  03,3E9
08A18:  MOVLW  AE
08A1A:  MOVWF  FF6
08A1C:  MOVLW  0C
08A1E:  MOVWF  FF7
08A20:  MOVLW  00
08A22:  MOVWF  FF8
08A24:  MOVLW  0C
08A26:  MOVLB  3
08A28:  MOVWF  xEA
08A2A:  MOVLB  0
08A2C:  CALL   4228
08A30:  MOVLW  02
08A32:  MOVWF  FE9
08A34:  MOVFF  3E9,3ED
08A38:  MOVFF  3E8,3EC
08A3C:  MOVFF  3E7,3EB
08A40:  MOVFF  3E6,3EA
08A44:  MOVLB  3
08A46:  CLRF   xEE
08A48:  MOVLB  0
08A4A:  CALL   4400
08A4E:  MOVLW  20
08A50:  BTFSS  F9E.4
08A52:  BRA    8A50
08A54:  MOVWF  FAD
08A56:  MOVLW  0A
08A58:  MOVWF  FE9
08A5A:  MOVFF  371,3EB
08A5E:  MOVFF  370,3EA
08A62:  CALL   4628
08A66:  MOVLW  22
08A68:  BTFSS  F9E.4
08A6A:  BRA    8A68
08A6C:  MOVWF  FAD
....................          SendDataDisplay(); 
08A6E:  CALL   355A
....................          printf("b20.txt=\"T1:%3.1f\"",Temperatura); 
08A72:  MOVLW  C8
08A74:  MOVWF  FF6
08A76:  MOVLW  0C
08A78:  MOVWF  FF7
08A7A:  MOVLW  00
08A7C:  MOVWF  FF8
08A7E:  MOVLW  0C
08A80:  MOVLB  3
08A82:  MOVWF  xEA
08A84:  MOVLB  0
08A86:  CALL   4228
08A8A:  MOVLW  02
08A8C:  MOVWF  FE9
08A8E:  MOVFF  322,3ED
08A92:  MOVFF  321,3EC
08A96:  MOVFF  320,3EB
08A9A:  MOVFF  31F,3EA
08A9E:  MOVLW  01
08AA0:  MOVLB  3
08AA2:  MOVWF  xEE
08AA4:  MOVLB  0
08AA6:  CALL   4400
08AAA:  MOVLW  22
08AAC:  BTFSS  F9E.4
08AAE:  BRA    8AAC
08AB0:  MOVWF  FAD
....................          SendDataDisplay(); 
08AB2:  CALL   355A
....................           
....................          if(RX_Buffer[4]==0x21 || LEFT){//Oprimio salir 
08AB6:  MOVF   34,W
08AB8:  SUBLW  21
08ABA:  BZ    8AC2
08ABC:  BSF    F93.3
08ABE:  BTFSC  F81.3
08AC0:  BRA    8B06
....................             delay_ms(100); 
08AC2:  MOVLW  64
08AC4:  MOVLB  3
08AC6:  MOVWF  xFB
08AC8:  MOVLB  0
08ACA:  CALL   17AE
....................             if(RX_Buffer[4]==0x21 || LEFT){ 
08ACE:  MOVF   34,W
08AD0:  SUBLW  21
08AD2:  BZ    8ADA
08AD4:  BSF    F93.3
08AD6:  BTFSC  F81.3
08AD8:  BRA    8B06
....................                printf("page MenuPrincipal"); 
08ADA:  MOVLW  DC
08ADC:  MOVWF  FF6
08ADE:  MOVLW  0C
08AE0:  MOVWF  FF7
08AE2:  MOVLW  00
08AE4:  MOVWF  FF8
08AE6:  CALL   3528
....................                SendDataDisplay(); 
08AEA:  CALL   355A
....................                PantallaPrincipal=0; 
08AEE:  MOVLB  2
08AF0:  CLRF   xDA
....................                PruebaEstados=OFF;Desfogue_off;Vent_off;SSR_off; 
08AF2:  MOVLB  0
08AF4:  BCF    xA1.2
08AF6:  BCF    F8C.4
08AF8:  BCF    F95.4
08AFA:  BCF    F8C.5
08AFC:  BCF    F95.5
08AFE:  BSF    F8B.2
08B00:  BCF    F94.2
....................                ApagaSalidas(); 
08B02:  CALL   3590
....................                // Falta apagar Todo 
....................             } 
....................          } 
....................           
....................          if(UP){ 
08B06:  BSF    F93.0
08B08:  BTFSC  F81.0
08B0A:  BRA    8C4E
....................             delay_ms(100); 
08B0C:  MOVLW  64
08B0E:  MOVLB  3
08B10:  MOVWF  xFB
08B12:  MOVLB  0
08B14:  CALL   17AE
....................             if(UP){ 
08B18:  BSF    F93.0
08B1A:  BTFSC  F81.0
08B1C:  BRA    8C4E
....................                G1=41-sensores(2); 
08B1E:  MOVLW  02
08B20:  MOVLB  3
08B22:  MOVWF  xE7
08B24:  MOVLB  0
08B26:  CALL   35A8
08B2A:  MOVFF  FEA,3E7
08B2E:  MOVFF  FE9,3E6
08B32:  BSF    FD8.1
08B34:  MOVLB  3
08B36:  CLRF   xFE
08B38:  CLRF   xFD
08B3A:  MOVLW  24
08B3C:  MOVWF  xFC
08B3E:  MOVLW  84
08B40:  MOVWF  xFB
08B42:  MOVFF  03,402
08B46:  MOVFF  02,401
08B4A:  MOVFF  01,400
08B4E:  MOVFF  00,3FF
08B52:  MOVLB  0
08B54:  CALL   196A
08B58:  MOVFF  3E7,FEA
08B5C:  MOVFF  3E6,FE9
08B60:  MOVFF  03,3FE
08B64:  MOVFF  02,3FD
08B68:  MOVFF  01,3FC
08B6C:  MOVFF  00,3FB
08B70:  CALL   3C6E
08B74:  MOVFF  01,39C
....................                if(G1<0) 
08B78:  MOVLB  3
08B7A:  BTFSC  x9C.7
08B7C:  BRA    8B80
08B7E:  BRA    8B86
....................                   sg1=10; 
08B80:  MOVLW  0A
08B82:  MOVWF  x9E
....................                else 
08B84:  BRA    8B8A
....................                   sg1=5; 
08B86:  MOVLW  05
08B88:  MOVWF  x9E
....................                    
....................                write_eeprom(42,(int8)G1); 
08B8A:  CLRF   FAA
08B8C:  MOVLW  2A
08B8E:  MOVWF  FA9
08B90:  MOVFF  39C,FA8
08B94:  BCF    FA6.6
08B96:  BCF    FA6.7
08B98:  BSF    FA6.2
08B9A:  MOVF   FF2,W
08B9C:  MOVWF  00
08B9E:  BCF    FF2.6
08BA0:  BCF    FF2.7
08BA2:  MOVLB  F
08BA4:  MOVLW  55
08BA6:  MOVWF  FA7
08BA8:  MOVLW  AA
08BAA:  MOVWF  FA7
08BAC:  BSF    FA6.1
08BAE:  BTFSC  FA6.1
08BB0:  BRA    8BAE
08BB2:  BCF    FA6.2
08BB4:  MOVF   00,W
08BB6:  IORWF  FF2,F
....................                delay_ms(10); 
08BB8:  MOVLW  0A
08BBA:  MOVLB  3
08BBC:  MOVWF  xFB
08BBE:  MOVLB  0
08BC0:  CALL   17AE
....................                write_eeprom(44,(int8)sg1); 
08BC4:  CLRF   FAA
08BC6:  MOVLW  2C
08BC8:  MOVWF  FA9
08BCA:  MOVFF  39E,FA8
08BCE:  BCF    FA6.6
08BD0:  BCF    FA6.7
08BD2:  BSF    FA6.2
08BD4:  MOVF   FF2,W
08BD6:  MOVWF  00
08BD8:  BCF    FF2.6
08BDA:  BCF    FF2.7
08BDC:  MOVLB  F
08BDE:  MOVLW  55
08BE0:  MOVWF  FA7
08BE2:  MOVLW  AA
08BE4:  MOVWF  FA7
08BE6:  BSF    FA6.1
08BE8:  BTFSC  FA6.1
08BEA:  BRA    8BE8
08BEC:  BCF    FA6.2
08BEE:  MOVF   00,W
08BF0:  IORWF  FF2,F
....................                delay_ms(10); 
08BF2:  MOVLW  0A
08BF4:  MOVLB  3
08BF6:  MOVWF  xFB
08BF8:  MOVLB  0
08BFA:  CALL   17AE
....................                Buzzer_on; 
08BFE:  BSF    F8C.0
08C00:  BCF    F95.0
....................                delay_ms(1000); 
08C02:  MOVLW  04
08C04:  MOVLB  3
08C06:  MOVWF  xE6
08C08:  MOVLW  FA
08C0A:  MOVWF  xFB
08C0C:  MOVLB  0
08C0E:  CALL   17AE
08C12:  MOVLB  3
08C14:  DECFSZ xE6,F
08C16:  BRA    8C08
....................                Buzzer_off; 
08C18:  BCF    F8C.0
08C1A:  BCF    F95.0
....................                delay_ms(1000); 
08C1C:  MOVLW  04
08C1E:  MOVWF  xE6
08C20:  MOVLW  FA
08C22:  MOVWF  xFB
08C24:  MOVLB  0
08C26:  CALL   17AE
08C2A:  MOVLB  3
08C2C:  DECFSZ xE6,F
08C2E:  BRA    8C20
....................                Buzzer_on; 
08C30:  BSF    F8C.0
08C32:  BCF    F95.0
....................                delay_ms(1000); 
08C34:  MOVLW  04
08C36:  MOVWF  xE6
08C38:  MOVLW  FA
08C3A:  MOVWF  xFB
08C3C:  MOVLB  0
08C3E:  CALL   17AE
08C42:  MOVLB  3
08C44:  DECFSZ xE6,F
08C46:  BRA    8C38
....................                Buzzer_off; 
08C48:  BCF    F8C.0
08C4A:  BCF    F95.0
08C4C:  MOVLB  0
....................             } 
....................          } 
....................           
....................          if(DOWN){ 
08C4E:  BSF    F93.1
08C50:  BTFSC  F81.1
08C52:  BRA    8D96
....................             delay_ms(100); 
08C54:  MOVLW  64
08C56:  MOVLB  3
08C58:  MOVWF  xFB
08C5A:  MOVLB  0
08C5C:  CALL   17AE
....................             if(DOWN){ 
08C60:  BSF    F93.1
08C62:  BTFSC  F81.1
08C64:  BRA    8D96
....................                G2=41-sensores(3); 
08C66:  MOVLW  03
08C68:  MOVLB  3
08C6A:  MOVWF  xE7
08C6C:  MOVLB  0
08C6E:  CALL   35A8
08C72:  MOVFF  FEA,3E7
08C76:  MOVFF  FE9,3E6
08C7A:  BSF    FD8.1
08C7C:  MOVLB  3
08C7E:  CLRF   xFE
08C80:  CLRF   xFD
08C82:  MOVLW  24
08C84:  MOVWF  xFC
08C86:  MOVLW  84
08C88:  MOVWF  xFB
08C8A:  MOVFF  03,402
08C8E:  MOVFF  02,401
08C92:  MOVFF  01,400
08C96:  MOVFF  00,3FF
08C9A:  MOVLB  0
08C9C:  CALL   196A
08CA0:  MOVFF  3E7,FEA
08CA4:  MOVFF  3E6,FE9
08CA8:  MOVFF  03,3FE
08CAC:  MOVFF  02,3FD
08CB0:  MOVFF  01,3FC
08CB4:  MOVFF  00,3FB
08CB8:  CALL   3C6E
08CBC:  MOVFF  01,39D
....................                if(G2<0) 
08CC0:  MOVLB  3
08CC2:  BTFSC  x9D.7
08CC4:  BRA    8CC8
08CC6:  BRA    8CCE
....................                   sg2=10; 
08CC8:  MOVLW  0A
08CCA:  MOVWF  x9F
....................                else 
08CCC:  BRA    8CD2
....................                   sg2=5; 
08CCE:  MOVLW  05
08CD0:  MOVWF  x9F
....................                    
....................                write_eeprom(43,(int8)G2); 
08CD2:  CLRF   FAA
08CD4:  MOVLW  2B
08CD6:  MOVWF  FA9
08CD8:  MOVFF  39D,FA8
08CDC:  BCF    FA6.6
08CDE:  BCF    FA6.7
08CE0:  BSF    FA6.2
08CE2:  MOVF   FF2,W
08CE4:  MOVWF  00
08CE6:  BCF    FF2.6
08CE8:  BCF    FF2.7
08CEA:  MOVLB  F
08CEC:  MOVLW  55
08CEE:  MOVWF  FA7
08CF0:  MOVLW  AA
08CF2:  MOVWF  FA7
08CF4:  BSF    FA6.1
08CF6:  BTFSC  FA6.1
08CF8:  BRA    8CF6
08CFA:  BCF    FA6.2
08CFC:  MOVF   00,W
08CFE:  IORWF  FF2,F
....................                delay_ms(10); 
08D00:  MOVLW  0A
08D02:  MOVLB  3
08D04:  MOVWF  xFB
08D06:  MOVLB  0
08D08:  CALL   17AE
....................                write_eeprom(45,(int8)sg2); 
08D0C:  CLRF   FAA
08D0E:  MOVLW  2D
08D10:  MOVWF  FA9
08D12:  MOVFF  39F,FA8
08D16:  BCF    FA6.6
08D18:  BCF    FA6.7
08D1A:  BSF    FA6.2
08D1C:  MOVF   FF2,W
08D1E:  MOVWF  00
08D20:  BCF    FF2.6
08D22:  BCF    FF2.7
08D24:  MOVLB  F
08D26:  MOVLW  55
08D28:  MOVWF  FA7
08D2A:  MOVLW  AA
08D2C:  MOVWF  FA7
08D2E:  BSF    FA6.1
08D30:  BTFSC  FA6.1
08D32:  BRA    8D30
08D34:  BCF    FA6.2
08D36:  MOVF   00,W
08D38:  IORWF  FF2,F
....................                delay_ms(10); 
08D3A:  MOVLW  0A
08D3C:  MOVLB  3
08D3E:  MOVWF  xFB
08D40:  MOVLB  0
08D42:  CALL   17AE
....................                Buzzer_on; 
08D46:  BSF    F8C.0
08D48:  BCF    F95.0
....................                delay_ms(1000); 
08D4A:  MOVLW  04
08D4C:  MOVLB  3
08D4E:  MOVWF  xE6
08D50:  MOVLW  FA
08D52:  MOVWF  xFB
08D54:  MOVLB  0
08D56:  CALL   17AE
08D5A:  MOVLB  3
08D5C:  DECFSZ xE6,F
08D5E:  BRA    8D50
....................                Buzzer_off; 
08D60:  BCF    F8C.0
08D62:  BCF    F95.0
....................                delay_ms(1000); 
08D64:  MOVLW  04
08D66:  MOVWF  xE6
08D68:  MOVLW  FA
08D6A:  MOVWF  xFB
08D6C:  MOVLB  0
08D6E:  CALL   17AE
08D72:  MOVLB  3
08D74:  DECFSZ xE6,F
08D76:  BRA    8D68
....................                Buzzer_on; 
08D78:  BSF    F8C.0
08D7A:  BCF    F95.0
....................                delay_ms(1000); 
08D7C:  MOVLW  04
08D7E:  MOVWF  xE6
08D80:  MOVLW  FA
08D82:  MOVWF  xFB
08D84:  MOVLB  0
08D86:  CALL   17AE
08D8A:  MOVLB  3
08D8C:  DECFSZ xE6,F
08D8E:  BRA    8D80
....................                Buzzer_off; 
08D90:  BCF    F8C.0
08D92:  BCF    F95.0
08D94:  MOVLB  0
....................             } 
....................          } 
....................      } 
.................... //_--------------------------------------------------------------------------------------------------------------------------------------------------------     
....................  
.................... //_--------------------------------------------------------------------------------------------------------------------------------------------------------       
....................       if(Menu==7){ //Menu de Configuracin de Fecha y Hora 
08D96:  MOVLB  3
08D98:  MOVF   x55,W
08D9A:  SUBLW  07
08D9C:  BTFSS  FD8.2
08D9E:  BRA    91BA
....................        
....................          if(RX_Buffer[4]==0x0a){//Selecciono Hora 
08DA0:  MOVF   34,W
08DA2:  SUBLW  0A
08DA4:  BNZ   8DAA
....................             Opcion=4; 
08DA6:  MOVLW  04
08DA8:  MOVWF  x5D
....................          } 
....................           
....................          if(RX_Buffer[4]==0x0b){//Selecciono Minuto 
08DAA:  MOVF   34,W
08DAC:  SUBLW  0B
08DAE:  BNZ   8DB4
....................             Opcion=5; 
08DB0:  MOVLW  05
08DB2:  MOVWF  x5D
....................          } 
....................           
....................          if(RX_Buffer[4]==0x0c){//Selecciono Dia 
08DB4:  MOVF   34,W
08DB6:  SUBLW  0C
08DB8:  BNZ   8DBE
....................             Opcion=1; 
08DBA:  MOVLW  01
08DBC:  MOVWF  x5D
....................          } 
....................           
....................          if(RX_Buffer[4]==0x0d){//Selecciono Hora 
08DBE:  MOVF   34,W
08DC0:  SUBLW  0D
08DC2:  BNZ   8DC8
....................             Opcion=2; 
08DC4:  MOVLW  02
08DC6:  MOVWF  x5D
....................          } 
....................           
....................          if(RX_Buffer[4]==0x0e){//Selecciono Year 
08DC8:  MOVF   34,W
08DCA:  SUBLW  0E
08DCC:  BNZ   8DD2
....................             Opcion=3; 
08DCE:  MOVLW  03
08DD0:  MOVWF  x5D
....................          } 
....................           
....................          if(RIGHT){ 
08DD2:  BSF    F93.2
08DD4:  BTFSC  F81.2
08DD6:  BRA    8DEC
....................             delay_ms(200); 
08DD8:  MOVLW  C8
08DDA:  MOVWF  xFB
08DDC:  MOVLB  0
08DDE:  CALL   17AE
....................             if(RIGHT){ 
08DE2:  BSF    F93.2
08DE4:  BTFSC  F81.2
08DE6:  BRA    8DEE
....................                Opcion++; 
08DE8:  MOVLB  3
08DEA:  INCF   x5D,F
08DEC:  MOVLB  0
....................             } 
....................          } 
....................          if(Opcion>5) 
08DEE:  MOVLB  3
08DF0:  MOVF   x5D,W
08DF2:  SUBLW  05
08DF4:  BC    8DFA
....................             Opcion=1; 
08DF6:  MOVLW  01
08DF8:  MOVWF  x5D
....................          if(Opcion<1) 
08DFA:  MOVF   x5D,F
08DFC:  BNZ   8E02
....................             Opcion=5; 
08DFE:  MOVLW  05
08E00:  MOVWF  x5D
....................              
....................          if(RX_Buffer[4]==0x11 || LEFT){//Selecciono Regresar 
08E02:  MOVF   34,W
08E04:  SUBLW  11
08E06:  BZ    8E0E
08E08:  BSF    F93.3
08E0A:  BTFSC  F81.3
08E0C:  BRA    8F1E
....................             printf("page MenuPrincipal"); 
08E0E:  MOVLW  F0
08E10:  MOVWF  FF6
08E12:  MOVLW  0C
08E14:  MOVWF  FF7
08E16:  MOVLW  00
08E18:  MOVWF  FF8
08E1A:  MOVLB  0
08E1C:  CALL   3528
....................             SendDataDisplay();   
08E20:  CALL   355A
....................             PantallaPrincipal=0; 
08E24:  MOVLB  2
08E26:  CLRF   xDA
....................             Op=OFF; 
08E28:  MOVLB  0
08E2A:  BCF    xA1.7
....................             Op2=OFF; 
08E2C:  BCF    xA2.0
....................              
....................             if(esBisiesto(YearTx)) 
08E2E:  MOVFF  393,3E6
08E32:  CALL   471A
08E36:  MOVF   01,F
08E38:  BZ    8E54
....................                Modulo=Bisiesto[MesTx]; 
08E3A:  CLRF   03
08E3C:  MOVLB  3
08E3E:  MOVF   x94,W
08E40:  ADDLW  93
08E42:  MOVWF  FE9
08E44:  MOVLW  00
08E46:  ADDWFC 03,W
08E48:  MOVWF  FEA
08E4A:  MOVFF  FEF,2DC
08E4E:  MOVLB  2
....................             else 
08E50:  BRA    8E6A
08E52:  MOVLB  0
....................                Modulo=Regular[MesTx]; 
08E54:  CLRF   03
08E56:  MOVLB  3
08E58:  MOVF   x94,W
08E5A:  ADDLW  87
08E5C:  MOVWF  FE9
08E5E:  MOVLW  00
08E60:  ADDWFC 03,W
08E62:  MOVWF  FEA
08E64:  MOVFF  FEF,2DC
08E68:  MOVLB  2
....................           
....................             dowTx=((YearTx-1)%7+((YearTx-1)/4-3*((YearTx-1)/100+1)/4)%7+Modulo+DiaTx%7)%7; 
08E6A:  MOVLW  01
08E6C:  MOVLB  3
08E6E:  SUBWF  x93,W
08E70:  MOVWF  xE7
08E72:  MOVWF  xF0
08E74:  MOVLW  07
08E76:  MOVWF  xF1
08E78:  MOVLB  0
08E7A:  CALL   425A
08E7E:  MOVFF  00,3E6
08E82:  MOVLW  01
08E84:  MOVLB  3
08E86:  SUBWF  x93,W
08E88:  MOVWF  00
08E8A:  RRCF   00,W
08E8C:  MOVWF  xE7
08E8E:  RRCF   xE7,F
08E90:  MOVLW  3F
08E92:  ANDWF  xE7,F
08E94:  MOVLW  01
08E96:  SUBWF  x93,W
08E98:  MOVWF  xE9
08E9A:  MOVWF  xF0
08E9C:  MOVLW  64
08E9E:  MOVWF  xF1
08EA0:  MOVLB  0
08EA2:  CALL   425A
08EA6:  MOVLW  01
08EA8:  ADDWF  01,W
08EAA:  MULLW  03
08EAC:  MOVFF  FF3,00
08EB0:  RRCF   00,F
08EB2:  RRCF   00,F
08EB4:  MOVLW  3F
08EB6:  ANDWF  00,F
08EB8:  MOVF   00,W
08EBA:  MOVLB  3
08EBC:  SUBWF  xE7,W
08EBE:  MOVWF  xE8
08EC0:  MOVWF  xF0
08EC2:  MOVLW  07
08EC4:  MOVWF  xF1
08EC6:  MOVLB  0
08EC8:  CALL   425A
08ECC:  MOVF   00,W
08ECE:  MOVLB  3
08ED0:  ADDWF  xE6,W
08ED2:  MOVLB  2
08ED4:  ADDWF  xDC,W
08ED6:  MOVLB  3
08ED8:  MOVWF  xE6
08EDA:  MOVFF  395,3F0
08EDE:  MOVLW  07
08EE0:  MOVWF  xF1
08EE2:  MOVLB  0
08EE4:  CALL   425A
08EE8:  MOVF   00,W
08EEA:  MOVLB  3
08EEC:  ADDWF  xE6,W
08EEE:  MOVWF  xE7
08EF0:  MOVWF  xF0
08EF2:  MOVLW  07
08EF4:  MOVWF  xF1
08EF6:  MOVLB  0
08EF8:  CALL   425A
08EFC:  MOVFF  00,399
....................             rtc_set_datetime(DiaTx,MesTx,YearTx,dowTx,HoraTx,MinutoTx); 
08F00:  MOVFF  395,3E6
08F04:  MOVFF  394,3E7
08F08:  MOVFF  393,3E8
08F0C:  MOVFF  399,3E9
08F10:  MOVFF  396,3EA
08F14:  MOVFF  397,3EB
08F18:  GOTO   479C
08F1C:  MOVLB  3
....................          } 
....................           
....................          if((RX_Buffer[4]==0x2a)|| UP){//Tecla Arriba Oprimida 
08F1E:  MOVF   34,W
08F20:  SUBLW  2A
08F22:  BZ    8F2A
08F24:  BSF    F93.0
08F26:  BTFSC  F81.0
08F28:  BRA    9026
....................             delay_ms(200); 
08F2A:  MOVLW  C8
08F2C:  MOVWF  xFB
08F2E:  MOVLB  0
08F30:  CALL   17AE
....................             if((RX_Buffer[4]==0x2a)|| UP){    
08F34:  MOVF   34,W
08F36:  SUBLW  2A
08F38:  BZ    8F40
08F3A:  BSF    F93.0
08F3C:  BTFSC  F81.0
08F3E:  BRA    9028
....................                if(Opcion==1){ 
08F40:  MOVLB  3
08F42:  DECFSZ x5D,W
08F44:  BRA    8FD2
....................                   if(MesTx==2){ 
08F46:  MOVF   x94,W
08F48:  SUBLW  02
08F4A:  BNZ   8F80
....................                      if(esBisiesto(YearTx)){ 
08F4C:  MOVFF  393,3E6
08F50:  MOVLB  0
08F52:  CALL   471A
08F56:  MOVF   01,F
08F58:  BZ    8F6E
....................                         if(DiaTx<29) 
08F5A:  MOVLB  3
08F5C:  MOVF   x95,W
08F5E:  SUBLW  1C
08F60:  BNC   8F66
....................                            DiaTx++; 
08F62:  INCF   x95,F
....................                         else 
08F64:  BRA    8F6A
....................                            DiaTx=1;    
08F66:  MOVLW  01
08F68:  MOVWF  x95
....................                      }else{ 
08F6A:  BRA    8F7E
08F6C:  MOVLB  0
....................                         if(DiaTx<28) 
08F6E:  MOVLB  3
08F70:  MOVF   x95,W
08F72:  SUBLW  1B
08F74:  BNC   8F7A
....................                            DiaTx++; 
08F76:  INCF   x95,F
....................                         else 
08F78:  BRA    8F7E
....................                            DiaTx=1;    
08F7A:  MOVLW  01
08F7C:  MOVWF  x95
....................                      } 
....................                   }else{ 
08F7E:  BRA    8FD0
....................                      if(MesTx<=7){ 
08F80:  MOVF   x94,W
08F82:  SUBLW  07
08F84:  BNC   8FAC
....................                         if(MesTx % 2 ==0){ 
08F86:  MOVF   x94,W
08F88:  ANDLW  01
08F8A:  BNZ   8F9C
....................                            if(DiaTx<30) 
08F8C:  MOVF   x95,W
08F8E:  SUBLW  1D
08F90:  BNC   8F96
....................                               DiaTx++;     
08F92:  INCF   x95,F
....................                            else 
08F94:  BRA    8F9A
....................                               DiaTx=1;    
08F96:  MOVLW  01
08F98:  MOVWF  x95
....................                         }else{ 
08F9A:  BRA    8FAA
....................                            if(DiaTx<31) 
08F9C:  MOVF   x95,W
08F9E:  SUBLW  1E
08FA0:  BNC   8FA6
....................                               DiaTx++;     
08FA2:  INCF   x95,F
....................                            else 
08FA4:  BRA    8FAA
....................                               DiaTx=1;    
08FA6:  MOVLW  01
08FA8:  MOVWF  x95
....................                         }     
....................                      }else{ 
08FAA:  BRA    8FD0
....................                         if(MesTx % 2 ==0){ 
08FAC:  MOVF   x94,W
08FAE:  ANDLW  01
08FB0:  BNZ   8FC2
....................                            if(DiaTx<31) 
08FB2:  MOVF   x95,W
08FB4:  SUBLW  1E
08FB6:  BNC   8FBC
....................                               DiaTx++;   
08FB8:  INCF   x95,F
....................                            else 
08FBA:  BRA    8FC0
....................                               DiaTx=1; 
08FBC:  MOVLW  01
08FBE:  MOVWF  x95
....................                         }else{ 
08FC0:  BRA    8FD0
....................                            if(DiaTx<30) 
08FC2:  MOVF   x95,W
08FC4:  SUBLW  1D
08FC6:  BNC   8FCC
....................                               DiaTx++;     
08FC8:  INCF   x95,F
....................                            else 
08FCA:  BRA    8FD0
....................                               DiaTx=1; 
08FCC:  MOVLW  01
08FCE:  MOVWF  x95
....................                         }     
....................                      } 
....................                   } 
....................                }else if(Opcion==2){ 
08FD0:  BRA    9022
08FD2:  MOVF   x5D,W
08FD4:  SUBLW  02
08FD6:  BNZ   8FE8
....................                   if(MesTx<12) 
08FD8:  MOVF   x94,W
08FDA:  SUBLW  0B
08FDC:  BNC   8FE2
....................                      MesTx++; 
08FDE:  INCF   x94,F
....................                   else 
08FE0:  BRA    8FE6
....................                      MesTx=1; 
08FE2:  MOVLW  01
08FE4:  MOVWF  x94
....................                }else if(Opcion==3){ 
08FE6:  BRA    9022
08FE8:  MOVF   x5D,W
08FEA:  SUBLW  03
08FEC:  BNZ   8FFC
....................                   if(YearTx<99) 
08FEE:  MOVF   x93,W
08FF0:  SUBLW  62
08FF2:  BNC   8FF8
....................                      YearTx++; 
08FF4:  INCF   x93,F
....................                   else  
08FF6:  BRA    8FFA
....................                      YearTx=0; 
08FF8:  CLRF   x93
....................                }else if(Opcion==4){ 
08FFA:  BRA    9022
08FFC:  MOVF   x5D,W
08FFE:  SUBLW  04
09000:  BNZ   9010
....................                   if(HoraTx<24) 
09002:  MOVF   x96,W
09004:  SUBLW  17
09006:  BNC   900C
....................                      HoraTx++; 
09008:  INCF   x96,F
....................                   else 
0900A:  BRA    900E
....................                      HoraTx=0; 
0900C:  CLRF   x96
....................                }else if(Opcion==5){ 
0900E:  BRA    9022
09010:  MOVF   x5D,W
09012:  SUBLW  05
09014:  BNZ   9022
....................                   if(MinutoTx<59) 
09016:  MOVF   x97,W
09018:  SUBLW  3A
0901A:  BNC   9020
....................                      MinutoTx++; 
0901C:  INCF   x97,F
....................                   else 
0901E:  BRA    9022
....................                      MinutoTx=0; 
09020:  CLRF   x97
....................                } 
....................                RX_Buffer[4]=0x00; 
09022:  CLRF   34
....................                RX_Buffer2[4]=0x00; 
09024:  CLRF   3F
09026:  MOVLB  0
....................             } 
....................          } 
....................           
....................          if(RX_Buffer[4]==0x2b || DOWN){//Tecla Abajo Oprimida 
09028:  MOVF   34,W
0902A:  SUBLW  2B
0902C:  BZ    9034
0902E:  BSF    F93.1
09030:  BTFSC  F81.1
09032:  BRA    90B0
....................             delay_ms(200); 
09034:  MOVLW  C8
09036:  MOVLB  3
09038:  MOVWF  xFB
0903A:  MOVLB  0
0903C:  CALL   17AE
....................             if(RX_Buffer[4]==0x2b || DOWN){    
09040:  MOVF   34,W
09042:  SUBLW  2B
09044:  BZ    904C
09046:  BSF    F93.1
09048:  BTFSC  F81.1
0904A:  BRA    90B0
....................                if(Opcion==1){ 
0904C:  MOVLB  3
0904E:  DECFSZ x5D,W
09050:  BRA    905A
....................                   if(DiaTx>0) 
09052:  MOVF   x95,F
09054:  BZ    9058
....................                      DiaTx--; 
09056:  DECF   x95,F
....................                }else if(Opcion==2){ 
09058:  BRA    90AA
0905A:  MOVF   x5D,W
0905C:  SUBLW  02
0905E:  BNZ   9070
....................                   if(MesTx>1) 
09060:  MOVF   x94,W
09062:  SUBLW  01
09064:  BC    906A
....................                      MesTx--; 
09066:  DECF   x94,F
....................                   else 
09068:  BRA    906E
....................                      MesTx=12; 
0906A:  MOVLW  0C
0906C:  MOVWF  x94
....................                }else if(Opcion==3){ 
0906E:  BRA    90AA
09070:  MOVF   x5D,W
09072:  SUBLW  03
09074:  BNZ   9084
....................                   if(YearTx>0) 
09076:  MOVF   x93,F
09078:  BZ    907E
....................                      YearTx--; 
0907A:  DECF   x93,F
....................                   else 
0907C:  BRA    9082
....................                      YearTx=99; 
0907E:  MOVLW  63
09080:  MOVWF  x93
....................                }else if(Opcion==4){ 
09082:  BRA    90AA
09084:  MOVF   x5D,W
09086:  SUBLW  04
09088:  BNZ   9098
....................                   if(HoraTx>0) 
0908A:  MOVF   x96,F
0908C:  BZ    9092
....................                      HoraTx--; 
0908E:  DECF   x96,F
....................                   else 
09090:  BRA    9096
....................                      HoraTx=23; 
09092:  MOVLW  17
09094:  MOVWF  x96
....................                }else if(Opcion==5){ 
09096:  BRA    90AA
09098:  MOVF   x5D,W
0909A:  SUBLW  05
0909C:  BNZ   90AA
....................                   if(MinutoTx>0) 
0909E:  MOVF   x97,F
090A0:  BZ    90A6
....................                      MinutoTx--; 
090A2:  DECF   x97,F
....................                   else 
090A4:  BRA    90AA
....................                      MinutoTx=59; 
090A6:  MOVLW  3B
090A8:  MOVWF  x97
....................                } 
....................                RX_Buffer[4]=0x00; 
090AA:  CLRF   34
....................                RX_Buffer2[4]=0x00; 
090AC:  CLRF   3F
090AE:  MOVLB  0
....................             } 
....................          } 
....................        
....................       printf("thora.txt=\"%02u\"",HoraTx); 
090B0:  MOVLW  04
090B2:  MOVWF  FF6
090B4:  MOVLW  0D
090B6:  MOVWF  FF7
090B8:  MOVLW  00
090BA:  MOVWF  FF8
090BC:  MOVLW  0B
090BE:  MOVLB  3
090C0:  MOVWF  xEA
090C2:  MOVLB  0
090C4:  CALL   4228
090C8:  MOVFF  396,3E8
090CC:  MOVLW  01
090CE:  MOVLB  3
090D0:  MOVWF  xE9
090D2:  MOVLB  0
090D4:  CALL   4286
090D8:  MOVLW  22
090DA:  BTFSS  F9E.4
090DC:  BRA    90DA
090DE:  MOVWF  FAD
....................       SendDataDisplay(); 
090E0:  CALL   355A
....................       printf("tminutos.txt=\"%02u\"",MinutoTx); 
090E4:  MOVLW  16
090E6:  MOVWF  FF6
090E8:  MOVLW  0D
090EA:  MOVWF  FF7
090EC:  MOVLW  00
090EE:  MOVWF  FF8
090F0:  MOVLW  0E
090F2:  MOVLB  3
090F4:  MOVWF  xEA
090F6:  MOVLB  0
090F8:  CALL   4228
090FC:  MOVFF  397,3E8
09100:  MOVLW  01
09102:  MOVLB  3
09104:  MOVWF  xE9
09106:  MOVLB  0
09108:  CALL   4286
0910C:  MOVLW  22
0910E:  BTFSS  F9E.4
09110:  BRA    910E
09112:  MOVWF  FAD
....................       SendDataDisplay(); 
09114:  CALL   355A
....................       printf("tdia.txt=\"%02u\"",DiaTx); 
09118:  MOVLW  2A
0911A:  MOVWF  FF6
0911C:  MOVLW  0D
0911E:  MOVWF  FF7
09120:  MOVLW  00
09122:  MOVWF  FF8
09124:  MOVLW  0A
09126:  MOVLB  3
09128:  MOVWF  xEA
0912A:  MOVLB  0
0912C:  CALL   4228
09130:  MOVFF  395,3E8
09134:  MOVLW  01
09136:  MOVLB  3
09138:  MOVWF  xE9
0913A:  MOVLB  0
0913C:  CALL   4286
09140:  MOVLW  22
09142:  BTFSS  F9E.4
09144:  BRA    9142
09146:  MOVWF  FAD
....................       SendDataDisplay(); 
09148:  CALL   355A
....................       printf("tmes.txt=\"%02u\"",MesTx); 
0914C:  MOVLW  3A
0914E:  MOVWF  FF6
09150:  MOVLW  0D
09152:  MOVWF  FF7
09154:  MOVLW  00
09156:  MOVWF  FF8
09158:  MOVLW  0A
0915A:  MOVLB  3
0915C:  MOVWF  xEA
0915E:  MOVLB  0
09160:  CALL   4228
09164:  MOVFF  394,3E8
09168:  MOVLW  01
0916A:  MOVLB  3
0916C:  MOVWF  xE9
0916E:  MOVLB  0
09170:  CALL   4286
09174:  MOVLW  22
09176:  BTFSS  F9E.4
09178:  BRA    9176
0917A:  MOVWF  FAD
....................       SendDataDisplay(); 
0917C:  CALL   355A
....................       printf("tyear.txt=\"%02u\"",YearTx); 
09180:  MOVLW  4A
09182:  MOVWF  FF6
09184:  MOVLW  0D
09186:  MOVWF  FF7
09188:  MOVLW  00
0918A:  MOVWF  FF8
0918C:  MOVLW  0B
0918E:  MOVLB  3
09190:  MOVWF  xEA
09192:  MOVLB  0
09194:  CALL   4228
09198:  MOVFF  393,3E8
0919C:  MOVLW  01
0919E:  MOVLB  3
091A0:  MOVWF  xE9
091A2:  MOVLB  0
091A4:  CALL   4286
091A8:  MOVLW  22
091AA:  BTFSS  F9E.4
091AC:  BRA    91AA
091AE:  MOVWF  FAD
....................       SendDataDisplay(); 
091B0:  CALL   355A
....................       LimitaDia();   
091B4:  GOTO   4858
091B8:  MOVLB  3
....................     } 
.................... //_--------------------------------------------------------------------------------------------------------------------------------------------------------        
....................  
.................... //_-------------------------------------------------------------------------------------------------------------------------------------------------------- 
....................    if(Menu==8){ //Menu Ciclos Personalizados 
091BA:  MOVF   x55,W
091BC:  SUBLW  08
091BE:  BTFSS  FD8.2
091C0:  GOTO   9FB6
....................       printf("fecha.txt=\"T:%3.1fC Fecha:%02u/%02u/20%02u Hora: %02u:%02u:%02u\"",Temperatura,Dia,Mes,Year,Hora,Minuto,Segundo); 
091C4:  MOVLW  5C
091C6:  MOVWF  FF6
091C8:  MOVLW  0D
091CA:  MOVWF  FF7
091CC:  MOVLW  00
091CE:  MOVWF  FF8
091D0:  MOVLW  0D
091D2:  MOVWF  xEA
091D4:  MOVLB  0
091D6:  CALL   4228
091DA:  MOVLW  02
091DC:  MOVWF  FE9
091DE:  MOVFF  322,3ED
091E2:  MOVFF  321,3EC
091E6:  MOVFF  320,3EB
091EA:  MOVFF  31F,3EA
091EE:  MOVLW  01
091F0:  MOVLB  3
091F2:  MOVWF  xEE
091F4:  MOVLB  0
091F6:  CALL   4400
091FA:  MOVLW  6E
091FC:  MOVWF  FF6
091FE:  MOVLW  0D
09200:  MOVWF  FF7
09202:  MOVLW  00
09204:  MOVWF  FF8
09206:  MOVLW  09
09208:  MOVLB  3
0920A:  MOVWF  xEA
0920C:  MOVLB  0
0920E:  CALL   4228
09212:  MOVFF  38E,3E8
09216:  MOVLW  01
09218:  MOVLB  3
0921A:  MOVWF  xE9
0921C:  MOVLB  0
0921E:  CALL   4286
09222:  MOVLW  2F
09224:  BTFSS  F9E.4
09226:  BRA    9224
09228:  MOVWF  FAD
0922A:  MOVFF  38D,3E8
0922E:  MOVLW  01
09230:  MOVLB  3
09232:  MOVWF  xE9
09234:  MOVLB  0
09236:  CALL   4286
0923A:  MOVLW  2F
0923C:  BTFSS  F9E.4
0923E:  BRA    923C
09240:  MOVWF  FAD
09242:  MOVLW  32
09244:  BTFSS  F9E.4
09246:  BRA    9244
09248:  MOVWF  FAD
0924A:  MOVLW  30
0924C:  BTFSS  F9E.4
0924E:  BRA    924C
09250:  MOVWF  FAD
09252:  MOVFF  38C,3E8
09256:  MOVLW  01
09258:  MOVLB  3
0925A:  MOVWF  xE9
0925C:  MOVLB  0
0925E:  CALL   4286
09262:  MOVLW  87
09264:  MOVWF  FF6
09266:  MOVLW  0D
09268:  MOVWF  FF7
0926A:  MOVLW  00
0926C:  MOVWF  FF8
0926E:  MOVLW  07
09270:  MOVLB  3
09272:  MOVWF  xEA
09274:  MOVLB  0
09276:  CALL   4228
0927A:  MOVFF  38F,3E8
0927E:  MOVLW  01
09280:  MOVLB  3
09282:  MOVWF  xE9
09284:  MOVLB  0
09286:  CALL   4286
0928A:  MOVLW  3A
0928C:  BTFSS  F9E.4
0928E:  BRA    928C
09290:  MOVWF  FAD
09292:  MOVFF  390,3E8
09296:  MOVLW  01
09298:  MOVLB  3
0929A:  MOVWF  xE9
0929C:  MOVLB  0
0929E:  CALL   4286
092A2:  MOVLW  3A
092A4:  BTFSS  F9E.4
092A6:  BRA    92A4
092A8:  MOVWF  FAD
092AA:  MOVFF  391,3E8
092AE:  MOVLW  01
092B0:  MOVLB  3
092B2:  MOVWF  xE9
092B4:  MOVLB  0
092B6:  CALL   4286
092BA:  MOVLW  22
092BC:  BTFSS  F9E.4
092BE:  BRA    92BC
092C0:  MOVWF  FAD
....................       SendDataDisplay(); 
092C2:  CALL   355A
....................       GuardaEEPROM=OFF; 
092C6:  BCF    xA2.3
....................        
....................       if(RX_Buffer[4]>0x00 && RX_Buffer[4]<0x04){//Personalizados 
092C8:  MOVF   34,F
092CA:  BTFSC  FD8.2
092CC:  BRA    94FA
092CE:  MOVF   34,W
092D0:  SUBLW  03
092D2:  BTFSS  FD8.0
092D4:  BRA    94FA
....................          printf("ciclo.txt=\"CICLO P%02u\"",RX_Buffer[4]+0x04); 
092D6:  MOVLW  04
092D8:  ADDWF  34,W
092DA:  MOVLB  3
092DC:  MOVWF  xE6
092DE:  MOVLW  9E
092E0:  MOVWF  FF6
092E2:  MOVLW  0D
092E4:  MOVWF  FF7
092E6:  MOVLW  00
092E8:  MOVWF  FF8
092EA:  MOVLW  12
092EC:  MOVWF  xEA
092EE:  MOVLB  0
092F0:  CALL   4228
092F4:  MOVFF  3E6,3E8
092F8:  MOVLW  01
092FA:  MOVLB  3
092FC:  MOVWF  xE9
092FE:  MOVLB  0
09300:  CALL   4286
09304:  MOVLW  22
09306:  BTFSS  F9E.4
09308:  BRA    9306
0930A:  MOVWF  FAD
....................          SendDataDisplay();           
0930C:  CALL   355A
....................          printf("temp.txt=\"%u\"",CiclosPersonalizados[RX_Buffer[4]-1].Temperatura); 
09310:  MOVLW  01
09312:  SUBWF  34,W
09314:  MULLW  0A
09316:  MOVF   FF3,W
09318:  MOVLB  3
0931A:  CLRF   xE7
0931C:  MOVWF  xE6
0931E:  MOVLW  BE
09320:  ADDWF  xE6,W
09322:  MOVWF  FE9
09324:  MOVLW  03
09326:  ADDWFC xE7,W
09328:  MOVWF  FEA
0932A:  MOVFF  FEF,3E6
0932E:  MOVLW  B6
09330:  MOVWF  FF6
09332:  MOVLW  0D
09334:  MOVWF  FF7
09336:  MOVLW  00
09338:  MOVWF  FF8
0933A:  MOVLW  0A
0933C:  MOVWF  xEA
0933E:  MOVLB  0
09340:  CALL   4228
09344:  MOVFF  3E6,3E8
09348:  MOVLW  1B
0934A:  MOVLB  3
0934C:  MOVWF  xE9
0934E:  MOVLB  0
09350:  CALL   4286
09354:  MOVLW  22
09356:  BTFSS  F9E.4
09358:  BRA    9356
0935A:  MOVWF  FAD
....................          SendDataDisplay(); 
0935C:  CALL   355A
....................          printf("test.txt=\"%02u:%02u\"",CiclosPersonalizados[RX_Buffer[4]-1].Minutoest,CiclosPersonalizados[RX_Buffer[4]-1].Segundoest); 
09360:  MOVLW  01
09362:  SUBWF  34,W
09364:  MULLW  0A
09366:  MOVF   FF3,W
09368:  MOVLB  3
0936A:  CLRF   xE7
0936C:  MOVWF  xE6
0936E:  MOVLW  09
09370:  ADDWF  xE6,W
09372:  MOVWF  01
09374:  MOVLW  00
09376:  ADDWFC xE7,W
09378:  MOVWF  03
0937A:  MOVF   01,W
0937C:  ADDLW  BE
0937E:  MOVWF  FE9
09380:  MOVLW  03
09382:  ADDWFC 03,W
09384:  MOVWF  FEA
09386:  MOVFF  FEF,3E6
0938A:  MOVLW  01
0938C:  SUBWF  34,W
0938E:  MULLW  0A
09390:  MOVF   FF3,W
09392:  CLRF   xE8
09394:  MOVWF  xE7
09396:  MOVLW  03
09398:  ADDWF  xE7,W
0939A:  MOVWF  01
0939C:  MOVLW  00
0939E:  ADDWFC xE8,W
093A0:  MOVWF  03
093A2:  MOVF   01,W
093A4:  ADDLW  BE
093A6:  MOVWF  FE9
093A8:  MOVLW  03
093AA:  ADDWFC 03,W
093AC:  MOVWF  FEA
093AE:  MOVFF  FEF,3E7
093B2:  MOVLW  C4
093B4:  MOVWF  FF6
093B6:  MOVLW  0D
093B8:  MOVWF  FF7
093BA:  MOVLW  00
093BC:  MOVWF  FF8
093BE:  MOVLW  0A
093C0:  MOVWF  xEA
093C2:  MOVLB  0
093C4:  CALL   4228
093C8:  MOVFF  3E6,3E8
093CC:  MOVLW  01
093CE:  MOVLB  3
093D0:  MOVWF  xE9
093D2:  MOVLB  0
093D4:  CALL   4286
093D8:  MOVLW  3A
093DA:  BTFSS  F9E.4
093DC:  BRA    93DA
093DE:  MOVWF  FAD
093E0:  MOVFF  3E7,3E8
093E4:  MOVLW  01
093E6:  MOVLB  3
093E8:  MOVWF  xE9
093EA:  MOVLB  0
093EC:  CALL   4286
093F0:  MOVLW  22
093F2:  BTFSS  F9E.4
093F4:  BRA    93F2
093F6:  MOVWF  FAD
....................          SendDataDisplay(); 
093F8:  CALL   355A
....................          printf("tsec.txt=\"%02u:%02u\"",CiclosPersonalizados[RX_Buffer[4]-1].Minutosec,CiclosPersonalizados[RX_Buffer[4]-1].Segundosec); 
093FC:  MOVLW  01
093FE:  SUBWF  34,W
09400:  MULLW  0A
09402:  MOVF   FF3,W
09404:  MOVLB  3
09406:  CLRF   xE7
09408:  MOVWF  xE6
0940A:  MOVLW  04
0940C:  ADDWF  xE6,W
0940E:  MOVWF  01
09410:  MOVLW  00
09412:  ADDWFC xE7,W
09414:  MOVWF  03
09416:  MOVF   01,W
09418:  ADDLW  BE
0941A:  MOVWF  FE9
0941C:  MOVLW  03
0941E:  ADDWFC 03,W
09420:  MOVWF  FEA
09422:  MOVFF  FEF,3E6
09426:  MOVLW  01
09428:  SUBWF  34,W
0942A:  MULLW  0A
0942C:  MOVF   FF3,W
0942E:  CLRF   xE8
09430:  MOVWF  xE7
09432:  MOVLW  05
09434:  ADDWF  xE7,W
09436:  MOVWF  01
09438:  MOVLW  00
0943A:  ADDWFC xE8,W
0943C:  MOVWF  03
0943E:  MOVF   01,W
09440:  ADDLW  BE
09442:  MOVWF  FE9
09444:  MOVLW  03
09446:  ADDWFC 03,W
09448:  MOVWF  FEA
0944A:  MOVFF  FEF,3E7
0944E:  MOVLW  DA
09450:  MOVWF  FF6
09452:  MOVLW  0D
09454:  MOVWF  FF7
09456:  MOVLW  00
09458:  MOVWF  FF8
0945A:  MOVLW  0A
0945C:  MOVWF  xEA
0945E:  MOVLB  0
09460:  CALL   4228
09464:  MOVFF  3E6,3E8
09468:  MOVLW  01
0946A:  MOVLB  3
0946C:  MOVWF  xE9
0946E:  MOVLB  0
09470:  CALL   4286
09474:  MOVLW  3A
09476:  BTFSS  F9E.4
09478:  BRA    9476
0947A:  MOVWF  FAD
0947C:  MOVFF  3E7,3E8
09480:  MOVLW  01
09482:  MOVLB  3
09484:  MOVWF  xE9
09486:  MOVLB  0
09488:  CALL   4286
0948C:  MOVLW  22
0948E:  BTFSS  F9E.4
09490:  BRA    948E
09492:  MOVWF  FAD
....................          SendDataDisplay(); 
09494:  CALL   355A
....................          printf("desfogue.txt=\"%u\"",CiclosPersonalizados[RX_Buffer[4]-1].NivelDesfogue); 
09498:  MOVLW  01
0949A:  SUBWF  34,W
0949C:  MULLW  0A
0949E:  MOVF   FF3,W
094A0:  MOVLB  3
094A2:  CLRF   xE7
094A4:  MOVWF  xE6
094A6:  MOVLW  08
094A8:  ADDWF  xE6,W
094AA:  MOVWF  01
094AC:  MOVLW  00
094AE:  ADDWFC xE7,W
094B0:  MOVWF  03
094B2:  MOVF   01,W
094B4:  ADDLW  BE
094B6:  MOVWF  FE9
094B8:  MOVLW  03
094BA:  ADDWFC 03,W
094BC:  MOVWF  FEA
094BE:  MOVFF  FEF,3E6
094C2:  MOVLW  F0
094C4:  MOVWF  FF6
094C6:  MOVLW  0D
094C8:  MOVWF  FF7
094CA:  MOVLW  00
094CC:  MOVWF  FF8
094CE:  MOVLW  0E
094D0:  MOVWF  xEA
094D2:  MOVLB  0
094D4:  CALL   4228
094D8:  MOVFF  3E6,3E8
094DC:  MOVLW  1B
094DE:  MOVLB  3
094E0:  MOVWF  xE9
094E2:  MOVLB  0
094E4:  CALL   4286
094E8:  MOVLW  22
094EA:  BTFSS  F9E.4
094EC:  BRA    94EA
094EE:  MOVWF  FAD
....................          SendDataDisplay(); 
094F0:  CALL   355A
....................          CicloLibre=RX_Buffer[4]; 
094F4:  MOVFF  34,335
....................       }else if(CicloLibre==0x00){ 
094F8:  BRA    9794
094FA:  MOVLB  3
094FC:  MOVF   x35,F
094FE:  BNZ   956A
....................          printf("ciclo.txt=\"CICLO P--\""); 
09500:  MOVLW  02
09502:  MOVWF  FF6
09504:  MOVLW  0E
09506:  MOVWF  FF7
09508:  MOVLW  00
0950A:  MOVWF  FF8
0950C:  MOVLB  0
0950E:  CALL   3528
....................          SendDataDisplay();           
09512:  CALL   355A
....................          printf("temp.txt=\"--\""); 
09516:  MOVLW  18
09518:  MOVWF  FF6
0951A:  MOVLW  0E
0951C:  MOVWF  FF7
0951E:  MOVLW  00
09520:  MOVWF  FF8
09522:  CALL   3528
....................          SendDataDisplay(); 
09526:  CALL   355A
....................          printf("test.txt=\"--:--\""); 
0952A:  MOVLW  26
0952C:  MOVWF  FF6
0952E:  MOVLW  0E
09530:  MOVWF  FF7
09532:  MOVLW  00
09534:  MOVWF  FF8
09536:  CALL   3528
....................          SendDataDisplay(); 
0953A:  CALL   355A
....................          printf("tsec.txt=\"--:--\""); 
0953E:  MOVLW  38
09540:  MOVWF  FF6
09542:  MOVLW  0E
09544:  MOVWF  FF7
09546:  MOVLW  00
09548:  MOVWF  FF8
0954A:  CALL   3528
....................          SendDataDisplay(); 
0954E:  CALL   355A
....................          printf("desfogue.txt=\"--\""); 
09552:  MOVLW  4A
09554:  MOVWF  FF6
09556:  MOVLW  0E
09558:  MOVWF  FF7
0955A:  MOVLW  00
0955C:  MOVWF  FF8
0955E:  CALL   3528
....................          SendDataDisplay(); 
09562:  CALL   355A
....................       }else if(CicloLibre>0 && CicloLibre<4){ 
09566:  BRA    9794
09568:  MOVLB  3
0956A:  MOVF   x35,F
0956C:  BTFSC  FD8.2
0956E:  BRA    9796
09570:  MOVF   x35,W
09572:  SUBLW  03
09574:  BTFSS  FD8.0
09576:  BRA    9796
....................          printf("ciclo.txt=\"CICLO P%02u\"",CicloLibre+0x04); 
09578:  MOVLW  04
0957A:  ADDWF  x35,W
0957C:  MOVWF  xE6
0957E:  MOVLW  5C
09580:  MOVWF  FF6
09582:  MOVLW  0E
09584:  MOVWF  FF7
09586:  MOVLW  00
09588:  MOVWF  FF8
0958A:  MOVLW  12
0958C:  MOVWF  xEA
0958E:  MOVLB  0
09590:  CALL   4228
09594:  MOVFF  3E6,3E8
09598:  MOVLW  01
0959A:  MOVLB  3
0959C:  MOVWF  xE9
0959E:  MOVLB  0
095A0:  CALL   4286
095A4:  MOVLW  22
095A6:  BTFSS  F9E.4
095A8:  BRA    95A6
095AA:  MOVWF  FAD
....................          SendDataDisplay();           
095AC:  CALL   355A
....................          printf("temp.txt=\"%u\"",CiclosPersonalizados[CicloLibre-1].Temperatura); 
095B0:  MOVLW  01
095B2:  MOVLB  3
095B4:  SUBWF  x35,W
095B6:  MULLW  0A
095B8:  MOVF   FF3,W
095BA:  CLRF   xE7
095BC:  MOVWF  xE6
095BE:  MOVLW  BE
095C0:  ADDWF  xE6,W
095C2:  MOVWF  FE9
095C4:  MOVLW  03
095C6:  ADDWFC xE7,W
095C8:  MOVWF  FEA
095CA:  MOVFF  FEF,3E6
095CE:  MOVLW  74
095D0:  MOVWF  FF6
095D2:  MOVLW  0E
095D4:  MOVWF  FF7
095D6:  MOVLW  00
095D8:  MOVWF  FF8
095DA:  MOVLW  0A
095DC:  MOVWF  xEA
095DE:  MOVLB  0
095E0:  CALL   4228
095E4:  MOVFF  3E6,3E8
095E8:  MOVLW  1B
095EA:  MOVLB  3
095EC:  MOVWF  xE9
095EE:  MOVLB  0
095F0:  CALL   4286
095F4:  MOVLW  22
095F6:  BTFSS  F9E.4
095F8:  BRA    95F6
095FA:  MOVWF  FAD
....................          SendDataDisplay(); 
095FC:  CALL   355A
....................          printf("test.txt=\"%02u:%02u\"",CiclosPersonalizados[CicloLibre-1].Minutoest,CiclosPersonalizados[CicloLibre-1].Segundoest); 
09600:  MOVLW  01
09602:  MOVLB  3
09604:  SUBWF  x35,W
09606:  MULLW  0A
09608:  MOVF   FF3,W
0960A:  CLRF   xE7
0960C:  MOVWF  xE6
0960E:  MOVLW  09
09610:  ADDWF  xE6,W
09612:  MOVWF  01
09614:  MOVLW  00
09616:  ADDWFC xE7,W
09618:  MOVWF  03
0961A:  MOVF   01,W
0961C:  ADDLW  BE
0961E:  MOVWF  FE9
09620:  MOVLW  03
09622:  ADDWFC 03,W
09624:  MOVWF  FEA
09626:  MOVFF  FEF,3E6
0962A:  MOVLW  01
0962C:  SUBWF  x35,W
0962E:  MULLW  0A
09630:  MOVF   FF3,W
09632:  CLRF   xE8
09634:  MOVWF  xE7
09636:  MOVLW  03
09638:  ADDWF  xE7,W
0963A:  MOVWF  01
0963C:  MOVLW  00
0963E:  ADDWFC xE8,W
09640:  MOVWF  03
09642:  MOVF   01,W
09644:  ADDLW  BE
09646:  MOVWF  FE9
09648:  MOVLW  03
0964A:  ADDWFC 03,W
0964C:  MOVWF  FEA
0964E:  MOVFF  FEF,3E7
09652:  MOVLW  82
09654:  MOVWF  FF6
09656:  MOVLW  0E
09658:  MOVWF  FF7
0965A:  MOVLW  00
0965C:  MOVWF  FF8
0965E:  MOVLW  0A
09660:  MOVWF  xEA
09662:  MOVLB  0
09664:  CALL   4228
09668:  MOVFF  3E6,3E8
0966C:  MOVLW  01
0966E:  MOVLB  3
09670:  MOVWF  xE9
09672:  MOVLB  0
09674:  CALL   4286
09678:  MOVLW  3A
0967A:  BTFSS  F9E.4
0967C:  BRA    967A
0967E:  MOVWF  FAD
09680:  MOVFF  3E7,3E8
09684:  MOVLW  01
09686:  MOVLB  3
09688:  MOVWF  xE9
0968A:  MOVLB  0
0968C:  CALL   4286
09690:  MOVLW  22
09692:  BTFSS  F9E.4
09694:  BRA    9692
09696:  MOVWF  FAD
....................          SendDataDisplay(); 
09698:  CALL   355A
....................          printf("tsec.txt=\"%02u:%02u\"",CiclosPersonalizados[CicloLibre-1].Minutosec,CiclosPersonalizados[CicloLibre-1].Segundosec); 
0969C:  MOVLW  01
0969E:  MOVLB  3
096A0:  SUBWF  x35,W
096A2:  MULLW  0A
096A4:  MOVF   FF3,W
096A6:  CLRF   xE7
096A8:  MOVWF  xE6
096AA:  MOVLW  04
096AC:  ADDWF  xE6,W
096AE:  MOVWF  01
096B0:  MOVLW  00
096B2:  ADDWFC xE7,W
096B4:  MOVWF  03
096B6:  MOVF   01,W
096B8:  ADDLW  BE
096BA:  MOVWF  FE9
096BC:  MOVLW  03
096BE:  ADDWFC 03,W
096C0:  MOVWF  FEA
096C2:  MOVFF  FEF,3E6
096C6:  MOVLW  01
096C8:  SUBWF  x35,W
096CA:  MULLW  0A
096CC:  MOVF   FF3,W
096CE:  CLRF   xE8
096D0:  MOVWF  xE7
096D2:  MOVLW  05
096D4:  ADDWF  xE7,W
096D6:  MOVWF  01
096D8:  MOVLW  00
096DA:  ADDWFC xE8,W
096DC:  MOVWF  03
096DE:  MOVF   01,W
096E0:  ADDLW  BE
096E2:  MOVWF  FE9
096E4:  MOVLW  03
096E6:  ADDWFC 03,W
096E8:  MOVWF  FEA
096EA:  MOVFF  FEF,3E7
096EE:  MOVLW  98
096F0:  MOVWF  FF6
096F2:  MOVLW  0E
096F4:  MOVWF  FF7
096F6:  MOVLW  00
096F8:  MOVWF  FF8
096FA:  MOVLW  0A
096FC:  MOVWF  xEA
096FE:  MOVLB  0
09700:  CALL   4228
09704:  MOVFF  3E6,3E8
09708:  MOVLW  01
0970A:  MOVLB  3
0970C:  MOVWF  xE9
0970E:  MOVLB  0
09710:  CALL   4286
09714:  MOVLW  3A
09716:  BTFSS  F9E.4
09718:  BRA    9716
0971A:  MOVWF  FAD
0971C:  MOVFF  3E7,3E8
09720:  MOVLW  01
09722:  MOVLB  3
09724:  MOVWF  xE9
09726:  MOVLB  0
09728:  CALL   4286
0972C:  MOVLW  22
0972E:  BTFSS  F9E.4
09730:  BRA    972E
09732:  MOVWF  FAD
....................          SendDataDisplay(); 
09734:  CALL   355A
....................          printf("desfogue.txt=\"%u\"",CiclosPersonalizados[CicloLibre-1].NivelDesfogue); 
09738:  MOVLW  01
0973A:  MOVLB  3
0973C:  SUBWF  x35,W
0973E:  MULLW  0A
09740:  MOVF   FF3,W
09742:  CLRF   xE7
09744:  MOVWF  xE6
09746:  MOVLW  08
09748:  ADDWF  xE6,W
0974A:  MOVWF  01
0974C:  MOVLW  00
0974E:  ADDWFC xE7,W
09750:  MOVWF  03
09752:  MOVF   01,W
09754:  ADDLW  BE
09756:  MOVWF  FE9
09758:  MOVLW  03
0975A:  ADDWFC 03,W
0975C:  MOVWF  FEA
0975E:  MOVFF  FEF,3E6
09762:  MOVLW  AE
09764:  MOVWF  FF6
09766:  MOVLW  0E
09768:  MOVWF  FF7
0976A:  MOVLW  00
0976C:  MOVWF  FF8
0976E:  MOVLW  0E
09770:  MOVWF  xEA
09772:  MOVLB  0
09774:  CALL   4228
09778:  MOVFF  3E6,3E8
0977C:  MOVLW  1B
0977E:  MOVLB  3
09780:  MOVWF  xE9
09782:  MOVLB  0
09784:  CALL   4286
09788:  MOVLW  22
0978A:  BTFSS  F9E.4
0978C:  BRA    978A
0978E:  MOVWF  FAD
....................          SendDataDisplay(); 
09790:  CALL   355A
09794:  MOVLB  3
....................       } 
....................        
....................       if(RIGHT){ 
09796:  BSF    F93.2
09798:  BTFSC  F81.2
0979A:  BRA    97B0
....................          delay_ms(100); 
0979C:  MOVLW  64
0979E:  MOVWF  xFB
097A0:  MOVLB  0
097A2:  CALL   17AE
....................          if(RIGHT){ 
097A6:  BSF    F93.2
097A8:  BTFSC  F81.2
097AA:  BRA    97B2
....................             CicloLibre++; 
097AC:  MOVLB  3
097AE:  INCF   x35,F
097B0:  MOVLB  0
....................          } 
....................       }       
....................        
....................       if(CicloLibre<1) 
097B2:  MOVLB  3
097B4:  MOVF   x35,F
097B6:  BNZ   97BC
....................          CicloLibre=1; 
097B8:  MOVLW  01
097BA:  MOVWF  x35
....................       if(CicloLibre>4) 
097BC:  MOVF   x35,W
097BE:  SUBLW  04
097C0:  BC    97C6
....................          CicloLibre=4; 
097C2:  MOVLW  04
097C4:  MOVWF  x35
....................        
....................       if(RX_Buffer[4]==0xa0 || LEFT){//a0, Menu Principal 
097C6:  MOVF   34,W
097C8:  SUBLW  A0
097CA:  BZ    97D2
097CC:  BSF    F93.3
097CE:  BTFSC  F81.3
097D0:  BRA    9808
....................          delay_ms(100); 
097D2:  MOVLW  64
097D4:  MOVWF  xFB
097D6:  MOVLB  0
097D8:  CALL   17AE
....................          if(RX_Buffer[4]==0xa0 || LEFT){ 
097DC:  MOVF   34,W
097DE:  SUBLW  A0
097E0:  BZ    97E8
097E2:  BSF    F93.3
097E4:  BTFSC  F81.3
097E6:  BRA    9806
....................             printf("page MenuPrincipal"); 
097E8:  MOVLW  C0
097EA:  MOVWF  FF6
097EC:  MOVLW  0E
097EE:  MOVWF  FF7
097F0:  MOVLW  00
097F2:  MOVWF  FF8
097F4:  CALL   3528
....................             SendDataDisplay();      
097F8:  CALL   355A
....................             PantallaPrincipal=0; 
097FC:  MOVLB  2
097FE:  CLRF   xDA
....................             Op=OFF; 
09800:  MOVLB  0
09802:  BCF    xA1.7
....................             Op2=OFF; 
09804:  BCF    xA2.0
09806:  MOVLB  3
....................          } 
....................       } 
....................        
....................       if(RX_Buffer[4]==0x20 && CicloLibre>0){//20, Temperatura 
09808:  MOVF   34,W
0980A:  SUBLW  20
0980C:  BNZ   9846
0980E:  MOVF   x35,F
09810:  BZ    9846
....................             printf("page Temperatura"); 
09812:  MOVLW  D4
09814:  MOVWF  FF6
09816:  MOVLW  0E
09818:  MOVWF  FF7
0981A:  MOVLW  00
0981C:  MOVWF  FF8
0981E:  MOVLB  0
09820:  CALL   3528
....................             SendDataDisplay();      
09824:  CALL   355A
....................             Setpoint=CiclosPersonalizados[CicloLibre-1].Temperatura; 
09828:  MOVLW  01
0982A:  MOVLB  3
0982C:  SUBWF  x35,W
0982E:  MULLW  0A
09830:  MOVF   FF3,W
09832:  CLRF   xE7
09834:  MOVWF  xE6
09836:  MOVLW  BE
09838:  ADDWF  xE6,W
0983A:  MOVWF  FE9
0983C:  MOVLW  03
0983E:  ADDWFC xE7,W
09840:  MOVWF  FEA
09842:  MOVFF  FEF,35C
....................       } 
....................        
....................       if(RX_Buffer[4]==0x30 && CicloLibre>0){//30, Test 
09846:  MOVF   34,W
09848:  SUBLW  30
0984A:  BTFSS  FD8.2
0984C:  BRA    9960
0984E:  MOVF   x35,F
09850:  BTFSC  FD8.2
09852:  BRA    9960
....................             printf("page TiempoEst"); 
09854:  MOVLW  E6
09856:  MOVWF  FF6
09858:  MOVLW  0E
0985A:  MOVWF  FF7
0985C:  MOVLW  00
0985E:  MOVWF  FF8
09860:  MOVLB  0
09862:  CALL   3528
....................             SendDataDisplay();      
09866:  CALL   355A
....................             Testerilizacionp[3]=CiclosPersonalizados[CicloLibre-1].Minutoest/10; 
0986A:  MOVLW  01
0986C:  MOVLB  3
0986E:  SUBWF  x35,W
09870:  MULLW  0A
09872:  MOVF   FF3,W
09874:  CLRF   xE7
09876:  MOVWF  xE6
09878:  MOVLW  09
0987A:  ADDWF  xE6,W
0987C:  MOVWF  01
0987E:  MOVLW  00
09880:  ADDWFC xE7,W
09882:  MOVWF  03
09884:  MOVF   01,W
09886:  ADDLW  BE
09888:  MOVWF  FE9
0988A:  MOVLW  03
0988C:  ADDWFC 03,W
0988E:  MOVWF  FEA
09890:  MOVFF  FEF,3F0
09894:  MOVLW  0A
09896:  MOVWF  xF1
09898:  MOVLB  0
0989A:  CALL   425A
0989E:  MOVFF  01,B6
....................             Testerilizacionp[2]=CiclosPersonalizados[CicloLibre-1].Minutoest-(Testerilizacionp[3]*10); 
098A2:  MOVLW  01
098A4:  MOVLB  3
098A6:  SUBWF  x35,W
098A8:  MULLW  0A
098AA:  MOVF   FF3,W
098AC:  CLRF   xE7
098AE:  MOVWF  xE6
098B0:  MOVLW  09
098B2:  ADDWF  xE6,W
098B4:  MOVWF  01
098B6:  MOVLW  00
098B8:  ADDWFC xE7,W
098BA:  MOVWF  03
098BC:  MOVF   01,W
098BE:  ADDLW  BE
098C0:  MOVWF  FE9
098C2:  MOVLW  03
098C4:  ADDWFC 03,W
098C6:  MOVWF  FEA
098C8:  MOVFF  FEF,3E6
098CC:  MOVFF  B6,3E8
098D0:  MOVLW  0A
098D2:  MOVWF  xE9
098D4:  MOVLB  0
098D6:  CALL   2A6E
098DA:  MOVF   01,W
098DC:  MOVLB  3
098DE:  SUBWF  xE6,W
098E0:  MOVLB  0
098E2:  MOVWF  xB5
....................             Testerilizacionp[1]=CiclosPersonalizados[CicloLibre-1].Segundoest/10; 
098E4:  MOVLW  01
098E6:  MOVLB  3
098E8:  SUBWF  x35,W
098EA:  MULLW  0A
098EC:  MOVF   FF3,W
098EE:  CLRF   xE7
098F0:  MOVWF  xE6
098F2:  MOVLW  03
098F4:  ADDWF  xE6,W
098F6:  MOVWF  01
098F8:  MOVLW  00
098FA:  ADDWFC xE7,W
098FC:  MOVWF  03
098FE:  MOVF   01,W
09900:  ADDLW  BE
09902:  MOVWF  FE9
09904:  MOVLW  03
09906:  ADDWFC 03,W
09908:  MOVWF  FEA
0990A:  MOVFF  FEF,3F0
0990E:  MOVLW  0A
09910:  MOVWF  xF1
09912:  MOVLB  0
09914:  CALL   425A
09918:  MOVFF  01,B4
....................             Testerilizacionp[0]=CiclosPersonalizados[CicloLibre-1].Segundoest-(Testerilizacionp[1]*10); 
0991C:  MOVLW  01
0991E:  MOVLB  3
09920:  SUBWF  x35,W
09922:  MULLW  0A
09924:  MOVF   FF3,W
09926:  CLRF   xE7
09928:  MOVWF  xE6
0992A:  MOVLW  03
0992C:  ADDWF  xE6,W
0992E:  MOVWF  01
09930:  MOVLW  00
09932:  ADDWFC xE7,W
09934:  MOVWF  03
09936:  MOVF   01,W
09938:  ADDLW  BE
0993A:  MOVWF  FE9
0993C:  MOVLW  03
0993E:  ADDWFC 03,W
09940:  MOVWF  FEA
09942:  MOVFF  FEF,3E6
09946:  MOVFF  B4,3E8
0994A:  MOVLW  0A
0994C:  MOVWF  xE9
0994E:  MOVLB  0
09950:  CALL   2A6E
09954:  MOVF   01,W
09956:  MOVLB  3
09958:  SUBWF  xE6,W
0995A:  MOVLB  0
0995C:  MOVWF  xB3
0995E:  MOVLB  3
....................       } 
....................        
....................       if(RX_Buffer[4]==0x40 && CicloLibre>0){//30, Test 
09960:  MOVF   34,W
09962:  SUBLW  40
09964:  BTFSS  FD8.2
09966:  BRA    9A7A
09968:  MOVF   x35,F
0996A:  BTFSC  FD8.2
0996C:  BRA    9A7A
....................             printf("page TiempoSec"); 
0996E:  MOVLW  F6
09970:  MOVWF  FF6
09972:  MOVLW  0E
09974:  MOVWF  FF7
09976:  MOVLW  00
09978:  MOVWF  FF8
0997A:  MOVLB  0
0997C:  CALL   3528
....................             SendDataDisplay();      
09980:  CALL   355A
....................             Tsecadop[3]=CiclosPersonalizados[CicloLibre-1].Minutosec/10; 
09984:  MOVLW  01
09986:  MOVLB  3
09988:  SUBWF  x35,W
0998A:  MULLW  0A
0998C:  MOVF   FF3,W
0998E:  CLRF   xE7
09990:  MOVWF  xE6
09992:  MOVLW  04
09994:  ADDWF  xE6,W
09996:  MOVWF  01
09998:  MOVLW  00
0999A:  ADDWFC xE7,W
0999C:  MOVWF  03
0999E:  MOVF   01,W
099A0:  ADDLW  BE
099A2:  MOVWF  FE9
099A4:  MOVLW  03
099A6:  ADDWFC 03,W
099A8:  MOVWF  FEA
099AA:  MOVFF  FEF,3F0
099AE:  MOVLW  0A
099B0:  MOVWF  xF1
099B2:  MOVLB  0
099B4:  CALL   425A
099B8:  MOVFF  01,BF
....................             Tsecadop[2]=CiclosPersonalizados[CicloLibre-1].Minutosec-(Tsecadop[3]*10); 
099BC:  MOVLW  01
099BE:  MOVLB  3
099C0:  SUBWF  x35,W
099C2:  MULLW  0A
099C4:  MOVF   FF3,W
099C6:  CLRF   xE7
099C8:  MOVWF  xE6
099CA:  MOVLW  04
099CC:  ADDWF  xE6,W
099CE:  MOVWF  01
099D0:  MOVLW  00
099D2:  ADDWFC xE7,W
099D4:  MOVWF  03
099D6:  MOVF   01,W
099D8:  ADDLW  BE
099DA:  MOVWF  FE9
099DC:  MOVLW  03
099DE:  ADDWFC 03,W
099E0:  MOVWF  FEA
099E2:  MOVFF  FEF,3E6
099E6:  MOVFF  BF,3E8
099EA:  MOVLW  0A
099EC:  MOVWF  xE9
099EE:  MOVLB  0
099F0:  CALL   2A6E
099F4:  MOVF   01,W
099F6:  MOVLB  3
099F8:  SUBWF  xE6,W
099FA:  MOVLB  0
099FC:  MOVWF  xBE
....................             Tsecadop[1]=CiclosPersonalizados[CicloLibre-1].Segundosec/10; 
099FE:  MOVLW  01
09A00:  MOVLB  3
09A02:  SUBWF  x35,W
09A04:  MULLW  0A
09A06:  MOVF   FF3,W
09A08:  CLRF   xE7
09A0A:  MOVWF  xE6
09A0C:  MOVLW  05
09A0E:  ADDWF  xE6,W
09A10:  MOVWF  01
09A12:  MOVLW  00
09A14:  ADDWFC xE7,W
09A16:  MOVWF  03
09A18:  MOVF   01,W
09A1A:  ADDLW  BE
09A1C:  MOVWF  FE9
09A1E:  MOVLW  03
09A20:  ADDWFC 03,W
09A22:  MOVWF  FEA
09A24:  MOVFF  FEF,3F0
09A28:  MOVLW  0A
09A2A:  MOVWF  xF1
09A2C:  MOVLB  0
09A2E:  CALL   425A
09A32:  MOVFF  01,BD
....................             Tsecadop[0]=CiclosPersonalizados[CicloLibre-1].Segundosec-(Tsecadop[1]*10); 
09A36:  MOVLW  01
09A38:  MOVLB  3
09A3A:  SUBWF  x35,W
09A3C:  MULLW  0A
09A3E:  MOVF   FF3,W
09A40:  CLRF   xE7
09A42:  MOVWF  xE6
09A44:  MOVLW  05
09A46:  ADDWF  xE6,W
09A48:  MOVWF  01
09A4A:  MOVLW  00
09A4C:  ADDWFC xE7,W
09A4E:  MOVWF  03
09A50:  MOVF   01,W
09A52:  ADDLW  BE
09A54:  MOVWF  FE9
09A56:  MOVLW  03
09A58:  ADDWFC 03,W
09A5A:  MOVWF  FEA
09A5C:  MOVFF  FEF,3E6
09A60:  MOVFF  BD,3E8
09A64:  MOVLW  0A
09A66:  MOVWF  xE9
09A68:  MOVLB  0
09A6A:  CALL   2A6E
09A6E:  MOVF   01,W
09A70:  MOVLB  3
09A72:  SUBWF  xE6,W
09A74:  MOVLB  0
09A76:  MOVWF  xBC
09A78:  MOVLB  3
....................       } 
....................        
....................       if(RX_Buffer[4]==0x80 && CicloLibre>0){//80, NivelDesfogue          
09A7A:  MOVF   34,W
09A7C:  SUBLW  80
09A7E:  BNZ   9ACA
09A80:  MOVF   x35,F
09A82:  BZ    9ACA
....................             printf("page Nivel"); 
09A84:  MOVLW  06
09A86:  MOVWF  FF6
09A88:  MOVLW  0F
09A8A:  MOVWF  FF7
09A8C:  MOVLW  00
09A8E:  MOVWF  FF8
09A90:  MOVLB  0
09A92:  CALL   3528
....................             SendDataDisplay();      
09A96:  CALL   355A
....................             Nivel=CiclosPersonalizados[CicloLibre-1].NivelDesfogue;          
09A9A:  MOVLW  01
09A9C:  MOVLB  3
09A9E:  SUBWF  x35,W
09AA0:  MULLW  0A
09AA2:  MOVF   FF3,W
09AA4:  CLRF   xE7
09AA6:  MOVWF  xE6
09AA8:  MOVLW  08
09AAA:  ADDWF  xE6,W
09AAC:  MOVWF  01
09AAE:  MOVLW  00
09AB0:  ADDWFC xE7,W
09AB2:  MOVWF  03
09AB4:  MOVF   01,W
09AB6:  ADDLW  BE
09AB8:  MOVWF  FE9
09ABA:  MOVLW  03
09ABC:  ADDWFC 03,W
09ABE:  MOVWF  FEA
09AC0:  MOVF   FEF,W
09AC2:  CLRF   03
09AC4:  MOVWF  x6A
09AC6:  MOVFF  03,36B
....................       } 
....................        
....................       if((RX_Buffer[4]==0x70 || UP)&& CicloLibre>0){//70, Iniciar Ciclo 
09ACA:  MOVF   34,W
09ACC:  SUBLW  70
09ACE:  BZ    9AD6
09AD0:  BSF    F93.0
09AD2:  BTFSC  F81.0
09AD4:  BRA    9FB6
09AD6:  MOVF   x35,F
09AD8:  BTFSC  FD8.2
09ADA:  BRA    9FB6
....................          delay_ms(100); 
09ADC:  MOVLW  64
09ADE:  MOVWF  xFB
09AE0:  MOVLB  0
09AE2:  CALL   17AE
....................          if((RX_Buffer[4]==0x70 || UP)&& CicloLibre>0){ 
09AE6:  MOVF   34,W
09AE8:  SUBLW  70
09AEA:  BZ    9AF2
09AEC:  BSF    F93.0
09AEE:  BTFSC  F81.0
09AF0:  BRA    9FB4
09AF2:  MOVLB  3
09AF4:  MOVF   x35,F
09AF6:  BTFSS  FD8.2
09AF8:  BRA    9AFE
09AFA:  MOVLB  0
09AFC:  BRA    9FB4
....................             printf("page Funcionamiento"); 
09AFE:  MOVLW  12
09B00:  MOVWF  FF6
09B02:  MOVLW  0F
09B04:  MOVWF  FF7
09B06:  MOVLW  00
09B08:  MOVWF  FF8
09B0A:  MOVLB  0
09B0C:  CALL   3528
....................             SendDataDisplay();        
09B10:  CALL   355A
....................             Libre=ON; 
09B14:  BSF    xA3.3
....................             if(CiclosPersonalizados[CicloLibre-1].NivelDesfogue>5){ 
09B16:  MOVLW  01
09B18:  MOVLB  3
09B1A:  SUBWF  x35,W
09B1C:  MULLW  0A
09B1E:  MOVF   FF3,W
09B20:  CLRF   xE7
09B22:  MOVWF  xE6
09B24:  MOVLW  08
09B26:  ADDWF  xE6,W
09B28:  MOVWF  01
09B2A:  MOVLW  00
09B2C:  ADDWFC xE7,W
09B2E:  MOVWF  03
09B30:  MOVF   01,W
09B32:  ADDLW  BE
09B34:  MOVWF  FE9
09B36:  MOVLW  03
09B38:  ADDWFC 03,W
09B3A:  MOVWF  FEA
09B3C:  MOVF   FEF,W
09B3E:  SUBLW  05
09B40:  BTFSC  FD8.0
09B42:  BRA    9D5A
....................                ConfiguraCiclo(extraeDecima(CiclosPersonalizados[CicloLibre-1].Segundoest), 
....................                            CiclosPersonalizados[CicloLibre-1].Segundoest/10, 
....................                            extraeDecima(CiclosPersonalizados[CicloLibre-1].Minutoest), 
....................                            CiclosPersonalizados[CicloLibre-1].Minutoest/10, 
....................                            extraeDecima(CiclosPersonalizados[CicloLibre-1].Segundosec), 
....................                            CiclosPersonalizados[CicloLibre-1].Segundosec/10, 
....................                            extraeDecima(CiclosPersonalizados[CicloLibre-1].Minutosec), 
....................                            CiclosPersonalizados[CicloLibre-1].Minutosec/10,0,CicloLibre+4,CiclosPersonalizados[CicloLibre-1].Temperatura);             
09B44:  MOVLW  01
09B46:  SUBWF  x35,W
09B48:  MULLW  0A
09B4A:  MOVF   FF3,W
09B4C:  CLRF   xE7
09B4E:  MOVWF  xE6
09B50:  MOVLW  03
09B52:  ADDWF  xE6,W
09B54:  MOVWF  01
09B56:  MOVLW  00
09B58:  ADDWFC xE7,W
09B5A:  MOVWF  03
09B5C:  MOVF   01,W
09B5E:  ADDLW  BE
09B60:  MOVWF  FE9
09B62:  MOVLW  03
09B64:  ADDWFC 03,W
09B66:  MOVWF  FEA
09B68:  MOVFF  FEF,3E6
09B6C:  MOVFF  3E6,3ED
09B70:  MOVLB  0
09B72:  CALL   48EC
09B76:  MOVFF  01,3E6
09B7A:  MOVLW  01
09B7C:  MOVLB  3
09B7E:  SUBWF  x35,W
09B80:  MULLW  0A
09B82:  MOVF   FF3,W
09B84:  CLRF   xE8
09B86:  MOVWF  xE7
09B88:  MOVLW  03
09B8A:  ADDWF  xE7,W
09B8C:  MOVWF  01
09B8E:  MOVLW  00
09B90:  ADDWFC xE8,W
09B92:  MOVWF  03
09B94:  MOVF   01,W
09B96:  ADDLW  BE
09B98:  MOVWF  FE9
09B9A:  MOVLW  03
09B9C:  ADDWFC 03,W
09B9E:  MOVWF  FEA
09BA0:  MOVFF  FEF,3F0
09BA4:  MOVLW  0A
09BA6:  MOVWF  xF1
09BA8:  MOVLB  0
09BAA:  CALL   425A
09BAE:  MOVFF  01,3E7
09BB2:  MOVLW  01
09BB4:  MOVLB  3
09BB6:  SUBWF  x35,W
09BB8:  MULLW  0A
09BBA:  MOVF   FF3,W
09BBC:  CLRF   xE9
09BBE:  MOVWF  xE8
09BC0:  MOVLW  09
09BC2:  ADDWF  xE8,W
09BC4:  MOVWF  01
09BC6:  MOVLW  00
09BC8:  ADDWFC xE9,W
09BCA:  MOVWF  03
09BCC:  MOVF   01,W
09BCE:  ADDLW  BE
09BD0:  MOVWF  FE9
09BD2:  MOVLW  03
09BD4:  ADDWFC 03,W
09BD6:  MOVWF  FEA
09BD8:  MOVFF  FEF,3E8
09BDC:  MOVFF  3E8,3ED
09BE0:  MOVLB  0
09BE2:  CALL   48EC
09BE6:  MOVFF  01,3E8
09BEA:  MOVLW  01
09BEC:  MOVLB  3
09BEE:  SUBWF  x35,W
09BF0:  MULLW  0A
09BF2:  MOVF   FF3,W
09BF4:  CLRF   xEA
09BF6:  MOVWF  xE9
09BF8:  MOVLW  09
09BFA:  ADDWF  xE9,W
09BFC:  MOVWF  01
09BFE:  MOVLW  00
09C00:  ADDWFC xEA,W
09C02:  MOVWF  03
09C04:  MOVF   01,W
09C06:  ADDLW  BE
09C08:  MOVWF  FE9
09C0A:  MOVLW  03
09C0C:  ADDWFC 03,W
09C0E:  MOVWF  FEA
09C10:  MOVFF  FEF,3F0
09C14:  MOVLW  0A
09C16:  MOVWF  xF1
09C18:  MOVLB  0
09C1A:  CALL   425A
09C1E:  MOVFF  01,3E9
09C22:  MOVLW  01
09C24:  MOVLB  3
09C26:  SUBWF  x35,W
09C28:  MULLW  0A
09C2A:  MOVF   FF3,W
09C2C:  CLRF   xEB
09C2E:  MOVWF  xEA
09C30:  MOVLW  05
09C32:  ADDWF  xEA,W
09C34:  MOVWF  01
09C36:  MOVLW  00
09C38:  ADDWFC xEB,W
09C3A:  MOVWF  03
09C3C:  MOVF   01,W
09C3E:  ADDLW  BE
09C40:  MOVWF  FE9
09C42:  MOVLW  03
09C44:  ADDWFC 03,W
09C46:  MOVWF  FEA
09C48:  MOVFF  FEF,3EA
09C4C:  MOVFF  3EA,3ED
09C50:  MOVLB  0
09C52:  CALL   48EC
09C56:  MOVFF  01,3EA
09C5A:  MOVLW  01
09C5C:  MOVLB  3
09C5E:  SUBWF  x35,W
09C60:  MULLW  0A
09C62:  MOVF   FF3,W
09C64:  CLRF   xEC
09C66:  MOVWF  xEB
09C68:  MOVLW  05
09C6A:  ADDWF  xEB,W
09C6C:  MOVWF  01
09C6E:  MOVLW  00
09C70:  ADDWFC xEC,W
09C72:  MOVWF  03
09C74:  MOVF   01,W
09C76:  ADDLW  BE
09C78:  MOVWF  FE9
09C7A:  MOVLW  03
09C7C:  ADDWFC 03,W
09C7E:  MOVWF  FEA
09C80:  MOVFF  FEF,3F0
09C84:  MOVLW  0A
09C86:  MOVWF  xF1
09C88:  MOVLB  0
09C8A:  CALL   425A
09C8E:  MOVFF  01,3EB
09C92:  MOVLW  01
09C94:  MOVLB  3
09C96:  SUBWF  x35,W
09C98:  MULLW  0A
09C9A:  MOVF   FF3,W
09C9C:  CLRF   xED
09C9E:  MOVWF  xEC
09CA0:  MOVLW  04
09CA2:  ADDWF  xEC,W
09CA4:  MOVWF  01
09CA6:  MOVLW  00
09CA8:  ADDWFC xED,W
09CAA:  MOVWF  03
09CAC:  MOVF   01,W
09CAE:  ADDLW  BE
09CB0:  MOVWF  FE9
09CB2:  MOVLW  03
09CB4:  ADDWFC 03,W
09CB6:  MOVWF  FEA
09CB8:  MOVFF  FEF,3EC
09CBC:  MOVFF  3EC,3ED
09CC0:  MOVLB  0
09CC2:  CALL   48EC
09CC6:  MOVFF  01,3EC
09CCA:  MOVLW  01
09CCC:  MOVLB  3
09CCE:  SUBWF  x35,W
09CD0:  MULLW  0A
09CD2:  MOVF   FF3,W
09CD4:  CLRF   xEE
09CD6:  MOVWF  xED
09CD8:  MOVLW  04
09CDA:  ADDWF  xED,W
09CDC:  MOVWF  01
09CDE:  MOVLW  00
09CE0:  ADDWFC xEE,W
09CE2:  MOVWF  03
09CE4:  MOVF   01,W
09CE6:  ADDLW  BE
09CE8:  MOVWF  FE9
09CEA:  MOVLW  03
09CEC:  ADDWFC 03,W
09CEE:  MOVWF  FEA
09CF0:  MOVFF  FEF,3F0
09CF4:  MOVLW  0A
09CF6:  MOVWF  xF1
09CF8:  MOVLB  0
09CFA:  CALL   425A
09CFE:  MOVFF  01,3ED
09D02:  MOVLW  04
09D04:  MOVLB  3
09D06:  ADDWF  x35,W
09D08:  MOVWF  xEE
09D0A:  MOVLW  01
09D0C:  SUBWF  x35,W
09D0E:  MULLW  0A
09D10:  MOVF   FF3,W
09D12:  CLRF   xF0
09D14:  MOVWF  xEF
09D16:  MOVLW  BE
09D18:  ADDWF  xEF,W
09D1A:  MOVWF  FE9
09D1C:  MOVLW  03
09D1E:  ADDWFC xF0,W
09D20:  MOVWF  FEA
09D22:  MOVFF  FEF,3EF
09D26:  MOVFF  3E6,3F0
09D2A:  MOVFF  3E7,3F1
09D2E:  MOVFF  3E8,3F2
09D32:  MOVFF  3E9,3F3
09D36:  MOVFF  3EA,3F4
09D3A:  MOVFF  3EB,3F5
09D3E:  MOVFF  3EC,3F6
09D42:  MOVFF  01,3F7
09D46:  CLRF   xF8
09D48:  MOVFF  3EE,3F9
09D4C:  MOVFF  3EF,3FA
09D50:  MOVLB  0
09D52:  CALL   45A6
....................             }else{ 
09D56:  BRA    9FB4
09D58:  MOVLB  3
....................                ConfiguraCiclo(extraeDecima(CiclosPersonalizados[CicloLibre-1].Segundoest), 
....................                            CiclosPersonalizados[CicloLibre-1].Segundoest/10, 
....................                            extraeDecima(CiclosPersonalizados[CicloLibre-1].Minutoest), 
....................                            CiclosPersonalizados[CicloLibre-1].Minutoest/10, 
....................                            extraeDecima(CiclosPersonalizados[CicloLibre-1].Segundosec), 
....................                            CiclosPersonalizados[CicloLibre-1].Segundosec/10, 
....................                            extraeDecima(CiclosPersonalizados[CicloLibre-1].Minutosec), 
....................                            CiclosPersonalizados[CicloLibre-1].Minutosec/10,1,CicloLibre+4,CiclosPersonalizados[CicloLibre-1].Temperatura);             
09D5A:  MOVLW  01
09D5C:  SUBWF  x35,W
09D5E:  MULLW  0A
09D60:  MOVF   FF3,W
09D62:  CLRF   xE7
09D64:  MOVWF  xE6
09D66:  MOVLW  03
09D68:  ADDWF  xE6,W
09D6A:  MOVWF  01
09D6C:  MOVLW  00
09D6E:  ADDWFC xE7,W
09D70:  MOVWF  03
09D72:  MOVF   01,W
09D74:  ADDLW  BE
09D76:  MOVWF  FE9
09D78:  MOVLW  03
09D7A:  ADDWFC 03,W
09D7C:  MOVWF  FEA
09D7E:  MOVFF  FEF,3E6
09D82:  MOVFF  3E6,3ED
09D86:  MOVLB  0
09D88:  CALL   48EC
09D8C:  MOVFF  01,3E6
09D90:  MOVLW  01
09D92:  MOVLB  3
09D94:  SUBWF  x35,W
09D96:  MULLW  0A
09D98:  MOVF   FF3,W
09D9A:  CLRF   xE8
09D9C:  MOVWF  xE7
09D9E:  MOVLW  03
09DA0:  ADDWF  xE7,W
09DA2:  MOVWF  01
09DA4:  MOVLW  00
09DA6:  ADDWFC xE8,W
09DA8:  MOVWF  03
09DAA:  MOVF   01,W
09DAC:  ADDLW  BE
09DAE:  MOVWF  FE9
09DB0:  MOVLW  03
09DB2:  ADDWFC 03,W
09DB4:  MOVWF  FEA
09DB6:  MOVFF  FEF,3F0
09DBA:  MOVLW  0A
09DBC:  MOVWF  xF1
09DBE:  MOVLB  0
09DC0:  CALL   425A
09DC4:  MOVFF  01,3E7
09DC8:  MOVLW  01
09DCA:  MOVLB  3
09DCC:  SUBWF  x35,W
09DCE:  MULLW  0A
09DD0:  MOVF   FF3,W
09DD2:  CLRF   xE9
09DD4:  MOVWF  xE8
09DD6:  MOVLW  09
09DD8:  ADDWF  xE8,W
09DDA:  MOVWF  01
09DDC:  MOVLW  00
09DDE:  ADDWFC xE9,W
09DE0:  MOVWF  03
09DE2:  MOVF   01,W
09DE4:  ADDLW  BE
09DE6:  MOVWF  FE9
09DE8:  MOVLW  03
09DEA:  ADDWFC 03,W
09DEC:  MOVWF  FEA
09DEE:  MOVFF  FEF,3E8
09DF2:  MOVFF  3E8,3ED
09DF6:  MOVLB  0
09DF8:  CALL   48EC
09DFC:  MOVFF  01,3E8
09E00:  MOVLW  01
09E02:  MOVLB  3
09E04:  SUBWF  x35,W
09E06:  MULLW  0A
09E08:  MOVF   FF3,W
09E0A:  CLRF   xEA
09E0C:  MOVWF  xE9
09E0E:  MOVLW  09
09E10:  ADDWF  xE9,W
09E12:  MOVWF  01
09E14:  MOVLW  00
09E16:  ADDWFC xEA,W
09E18:  MOVWF  03
09E1A:  MOVF   01,W
09E1C:  ADDLW  BE
09E1E:  MOVWF  FE9
09E20:  MOVLW  03
09E22:  ADDWFC 03,W
09E24:  MOVWF  FEA
09E26:  MOVFF  FEF,3F0
09E2A:  MOVLW  0A
09E2C:  MOVWF  xF1
09E2E:  MOVLB  0
09E30:  CALL   425A
09E34:  MOVFF  01,3E9
09E38:  MOVLW  01
09E3A:  MOVLB  3
09E3C:  SUBWF  x35,W
09E3E:  MULLW  0A
09E40:  MOVF   FF3,W
09E42:  CLRF   xEB
09E44:  MOVWF  xEA
09E46:  MOVLW  05
09E48:  ADDWF  xEA,W
09E4A:  MOVWF  01
09E4C:  MOVLW  00
09E4E:  ADDWFC xEB,W
09E50:  MOVWF  03
09E52:  MOVF   01,W
09E54:  ADDLW  BE
09E56:  MOVWF  FE9
09E58:  MOVLW  03
09E5A:  ADDWFC 03,W
09E5C:  MOVWF  FEA
09E5E:  MOVFF  FEF,3EA
09E62:  MOVFF  3EA,3ED
09E66:  MOVLB  0
09E68:  CALL   48EC
09E6C:  MOVFF  01,3EA
09E70:  MOVLW  01
09E72:  MOVLB  3
09E74:  SUBWF  x35,W
09E76:  MULLW  0A
09E78:  MOVF   FF3,W
09E7A:  CLRF   xEC
09E7C:  MOVWF  xEB
09E7E:  MOVLW  05
09E80:  ADDWF  xEB,W
09E82:  MOVWF  01
09E84:  MOVLW  00
09E86:  ADDWFC xEC,W
09E88:  MOVWF  03
09E8A:  MOVF   01,W
09E8C:  ADDLW  BE
09E8E:  MOVWF  FE9
09E90:  MOVLW  03
09E92:  ADDWFC 03,W
09E94:  MOVWF  FEA
09E96:  MOVFF  FEF,3F0
09E9A:  MOVLW  0A
09E9C:  MOVWF  xF1
09E9E:  MOVLB  0
09EA0:  CALL   425A
09EA4:  MOVFF  01,3EB
09EA8:  MOVLW  01
09EAA:  MOVLB  3
09EAC:  SUBWF  x35,W
09EAE:  MULLW  0A
09EB0:  MOVF   FF3,W
09EB2:  CLRF   xED
09EB4:  MOVWF  xEC
09EB6:  MOVLW  04
09EB8:  ADDWF  xEC,W
09EBA:  MOVWF  01
09EBC:  MOVLW  00
09EBE:  ADDWFC xED,W
09EC0:  MOVWF  03
09EC2:  MOVF   01,W
09EC4:  ADDLW  BE
09EC6:  MOVWF  FE9
09EC8:  MOVLW  03
09ECA:  ADDWFC 03,W
09ECC:  MOVWF  FEA
09ECE:  MOVFF  FEF,3EC
09ED2:  MOVFF  3EC,3ED
09ED6:  MOVLB  0
09ED8:  CALL   48EC
09EDC:  MOVFF  01,3EC
09EE0:  MOVLW  01
09EE2:  MOVLB  3
09EE4:  SUBWF  x35,W
09EE6:  MULLW  0A
09EE8:  MOVF   FF3,W
09EEA:  CLRF   xEE
09EEC:  MOVWF  xED
09EEE:  MOVLW  04
09EF0:  ADDWF  xED,W
09EF2:  MOVWF  01
09EF4:  MOVLW  00
09EF6:  ADDWFC xEE,W
09EF8:  MOVWF  03
09EFA:  MOVF   01,W
09EFC:  ADDLW  BE
09EFE:  MOVWF  FE9
09F00:  MOVLW  03
09F02:  ADDWFC 03,W
09F04:  MOVWF  FEA
09F06:  MOVFF  FEF,3F0
09F0A:  MOVLW  0A
09F0C:  MOVWF  xF1
09F0E:  MOVLB  0
09F10:  CALL   425A
09F14:  MOVFF  01,3ED
09F18:  MOVLW  04
09F1A:  MOVLB  3
09F1C:  ADDWF  x35,W
09F1E:  MOVWF  xEE
09F20:  MOVLW  01
09F22:  SUBWF  x35,W
09F24:  MULLW  0A
09F26:  MOVF   FF3,W
09F28:  CLRF   xF0
09F2A:  MOVWF  xEF
09F2C:  MOVLW  BE
09F2E:  ADDWF  xEF,W
09F30:  MOVWF  FE9
09F32:  MOVLW  03
09F34:  ADDWFC xF0,W
09F36:  MOVWF  FEA
09F38:  MOVFF  FEF,3EF
09F3C:  MOVFF  3E6,3F0
09F40:  MOVFF  3E7,3F1
09F44:  MOVFF  3E8,3F2
09F48:  MOVFF  3E9,3F3
09F4C:  MOVFF  3EA,3F4
09F50:  MOVFF  3EB,3F5
09F54:  MOVFF  3EC,3F6
09F58:  MOVFF  01,3F7
09F5C:  MOVLW  01
09F5E:  MOVWF  xF8
09F60:  MOVFF  3EE,3F9
09F64:  MOVFF  3EF,3FA
09F68:  MOVLB  0
09F6A:  CALL   45A6
....................                NivelSeleccionado=4995*CiclosPersonalizados[CicloLibre-1].NivelDesfogue; 
09F6E:  MOVLW  01
09F70:  MOVLB  3
09F72:  SUBWF  x35,W
09F74:  MULLW  0A
09F76:  MOVF   FF3,W
09F78:  CLRF   xE7
09F7A:  MOVWF  xE6
09F7C:  MOVLW  08
09F7E:  ADDWF  xE6,W
09F80:  MOVWF  01
09F82:  MOVLW  00
09F84:  ADDWFC xE7,W
09F86:  MOVWF  03
09F88:  MOVF   01,W
09F8A:  ADDLW  BE
09F8C:  MOVWF  FE9
09F8E:  MOVLW  03
09F90:  ADDWFC 03,W
09F92:  MOVWF  FEA
09F94:  MOVFF  FEF,3E6
09F98:  MOVLW  13
09F9A:  MOVWF  xE8
09F9C:  MOVLW  83
09F9E:  MOVWF  xE7
09FA0:  CLRF   xEA
09FA2:  MOVFF  3E6,3E9
09FA6:  MOVLB  0
09FA8:  CALL   3600
09FAC:  MOVFF  02,375
09FB0:  MOVFF  01,374
09FB4:  MOVLB  3
....................             } 
....................          } 
....................       } 
....................    } 
.................... //_--------------------------------------------------------------------------------------------------------------------------------------------------------        
....................  
.................... //_--------------------------------------------------------------------------------------------------------------------------------------------------------       
....................     if(Menu==15){//Menu de Clave Correcta 
09FB6:  MOVF   x55,W
09FB8:  SUBLW  0F
09FBA:  BNZ   9FF2
....................       if(!entro){ 
09FBC:  MOVLB  0
09FBE:  BTFSC  xA3.5
09FC0:  BRA    9FDC
....................          delay_ms(2000); 
09FC2:  MOVLW  08
09FC4:  MOVLB  3
09FC6:  MOVWF  xE6
09FC8:  MOVLW  FA
09FCA:  MOVWF  xFB
09FCC:  MOVLB  0
09FCE:  CALL   17AE
09FD2:  MOVLB  3
09FD4:  DECFSZ xE6,F
09FD6:  BRA    9FC8
....................          entro=ON; 
09FD8:  MOVLB  0
09FDA:  BSF    xA3.5
....................       } 
....................       printf("page MenuPrincipal"); 
09FDC:  MOVLW  26
09FDE:  MOVWF  FF6
09FE0:  MOVLW  0F
09FE2:  MOVWF  FF7
09FE4:  MOVLW  00
09FE6:  MOVWF  FF8
09FE8:  CALL   3528
....................       SendDataDisplay(); 
09FEC:  CALL   355A
09FF0:  MOVLB  3
....................    } 
.................... //_--------------------------------------------------------------------------------------------------------------------------------------------------------       
....................  
.................... //_--------------------------------------------------------------------------------------------------------------------------------------------------------       
....................     if(Menu==16){//Menu de Clave InCorrecta 
09FF2:  MOVF   x55,W
09FF4:  SUBLW  10
09FF6:  BNZ   A02E
....................       if(!entro){ 
09FF8:  MOVLB  0
09FFA:  BTFSC  xA3.5
09FFC:  BRA    A018
....................          delay_ms(2000); 
09FFE:  MOVLW  08
0A000:  MOVLB  3
0A002:  MOVWF  xE6
0A004:  MOVLW  FA
0A006:  MOVWF  xFB
0A008:  MOVLB  0
0A00A:  CALL   17AE
0A00E:  MOVLB  3
0A010:  DECFSZ xE6,F
0A012:  BRA    A004
....................          entro=ON; 
0A014:  MOVLB  0
0A016:  BSF    xA3.5
....................       } 
....................       printf("page Clave"); 
0A018:  MOVLW  3A
0A01A:  MOVWF  FF6
0A01C:  MOVLW  0F
0A01E:  MOVWF  FF7
0A020:  MOVLW  00
0A022:  MOVWF  FF8
0A024:  CALL   3528
....................       SendDataDisplay(); 
0A028:  CALL   355A
0A02C:  MOVLB  3
....................    } 
.................... //_--------------------------------------------------------------------------------------------------------------------------------------------------------       
....................  
.................... //_--------------------------------------------------------------------------------------------------------------------------------------------------------     
....................    if(Menu==20){ // Este es el menu de cuando el proceso se inicio. 
0A02E:  MOVF   x55,W
0A030:  SUBLW  14
0A032:  BTFSS  FD8.2
0A034:  GOTO   AFB4
....................    //Lectura_Esclavos(); 
....................     
....................    if(!Libre){ 
0A038:  MOVLB  0
0A03A:  BTFSC  xA3.3
0A03C:  BRA    A0C0
....................       printf("t2f.txt=\"%u\"",CicloSeleccionado); 
0A03E:  MOVLW  46
0A040:  MOVWF  FF6
0A042:  MOVLW  0F
0A044:  MOVWF  FF7
0A046:  MOVLW  00
0A048:  MOVWF  FF8
0A04A:  MOVLW  09
0A04C:  MOVLB  3
0A04E:  MOVWF  xEA
0A050:  MOVLB  0
0A052:  CALL   4228
0A056:  MOVFF  35B,3E8
0A05A:  MOVLW  1B
0A05C:  MOVLB  3
0A05E:  MOVWF  xE9
0A060:  MOVLB  0
0A062:  CALL   4286
0A066:  MOVLW  22
0A068:  BTFSS  F9E.4
0A06A:  BRA    A068
0A06C:  MOVWF  FAD
....................       SendDataDisplay(); 
0A06E:  CALL   355A
....................       printf("t3f.txt=\"%s\"",texto[CicloSeleccionado-1]); 
0A072:  MOVLW  01
0A074:  MOVLB  3
0A076:  SUBWF  x5B,W
0A078:  MULLW  14
0A07A:  MOVF   FF3,W
0A07C:  CLRF   03
0A07E:  MOVWF  xE6
0A080:  MOVLW  54
0A082:  MOVWF  FF6
0A084:  MOVLW  0F
0A086:  MOVWF  FF7
0A088:  MOVLW  00
0A08A:  MOVWF  FF8
0A08C:  MOVLW  09
0A08E:  MOVWF  xEA
0A090:  MOVLB  0
0A092:  CALL   4228
0A096:  MOVLW  50
0A098:  MOVWF  FF6
0A09A:  MOVLW  01
0A09C:  MOVWF  FF7
0A09E:  MOVLW  00
0A0A0:  MOVWF  FF8
0A0A2:  MOVLB  3
0A0A4:  MOVF   xE6,W
0A0A6:  ADDWF  FF6,F
0A0A8:  MOVLW  00
0A0AA:  ADDWFC FF7,F
0A0AC:  MOVLB  0
0A0AE:  CALL   3528
0A0B2:  MOVLW  22
0A0B4:  BTFSS  F9E.4
0A0B6:  BRA    A0B4
0A0B8:  MOVWF  FAD
....................       SendDataDisplay(); 
0A0BA:  CALL   355A
....................    }else{ 
0A0BE:  BRA    A10E
....................       printf("t2f.txt=\"%u\"",CicloLibre+4); 
0A0C0:  MOVLW  04
0A0C2:  MOVLB  3
0A0C4:  ADDWF  x35,W
0A0C6:  MOVWF  xE6
0A0C8:  MOVLW  62
0A0CA:  MOVWF  FF6
0A0CC:  MOVLW  0F
0A0CE:  MOVWF  FF7
0A0D0:  MOVLW  00
0A0D2:  MOVWF  FF8
0A0D4:  MOVLW  09
0A0D6:  MOVWF  xEA
0A0D8:  MOVLB  0
0A0DA:  CALL   4228
0A0DE:  MOVFF  3E6,3E8
0A0E2:  MOVLW  1B
0A0E4:  MOVLB  3
0A0E6:  MOVWF  xE9
0A0E8:  MOVLB  0
0A0EA:  CALL   4286
0A0EE:  MOVLW  22
0A0F0:  BTFSS  F9E.4
0A0F2:  BRA    A0F0
0A0F4:  MOVWF  FAD
....................       SendDataDisplay(); 
0A0F6:  CALL   355A
....................       printf("t3f.txt=\"Personalizado\""); 
0A0FA:  MOVLW  70
0A0FC:  MOVWF  FF6
0A0FE:  MOVLW  0F
0A100:  MOVWF  FF7
0A102:  MOVLW  00
0A104:  MOVWF  FF8
0A106:  CALL   3528
....................       SendDataDisplay(); 
0A10A:  CALL   355A
....................    } 
....................     
....................    if(RIGHT){ 
0A10E:  BSF    F93.2
0A110:  BTFSC  F81.2
0A112:  BRA    A12A
....................       //glcd_init(ON); 
....................       delay_ms(1000); 
0A114:  MOVLW  04
0A116:  MOVLB  3
0A118:  MOVWF  xE6
0A11A:  MOVLW  FA
0A11C:  MOVWF  xFB
0A11E:  MOVLB  0
0A120:  CALL   17AE
0A124:  MOVLB  3
0A126:  DECFSZ xE6,F
0A128:  BRA    A11A
....................       /*flagCalentando=OFF; 
....................       flagDesfogando=OFF; 
....................       flagEsterilizando=OFF;*/ 
....................    } 
....................     
....................    if(PresionCamara>275){ 
0A12A:  MOVLB  3
0A12C:  MOVF   x6F,W
0A12E:  SUBLW  00
0A130:  BC    A142
0A132:  XORLW  FF
0A134:  BNZ   A13C
0A136:  MOVF   x6E,W
0A138:  SUBLW  13
0A13A:  BC    A142
....................       AlarmaPresion=ON; 
0A13C:  MOVLB  0
0A13E:  BSF    xA3.2
0A140:  MOVLB  3
....................    } 
....................     
....................    if(Temperatura>105 && PresionCamara<10 && !Desfogando){ 
0A142:  CLRF   xF1
0A144:  CLRF   xF0
0A146:  MOVLW  52
0A148:  MOVWF  xEF
0A14A:  MOVLW  85
0A14C:  MOVWF  xEE
0A14E:  MOVFF  322,3F5
0A152:  MOVFF  321,3F4
0A156:  MOVFF  320,3F3
0A15A:  MOVFF  31F,3F2
0A15E:  MOVLB  0
0A160:  CALL   29F4
0A164:  BNC   A186
0A166:  MOVLB  3
0A168:  MOVF   x6F,F
0A16A:  BTFSC  FD8.2
0A16C:  BRA    A172
0A16E:  MOVLB  0
0A170:  BRA    A186
0A172:  MOVF   x6E,W
0A174:  SUBLW  09
0A176:  BTFSC  FD8.0
0A178:  BRA    A17E
0A17A:  MOVLB  0
0A17C:  BRA    A186
0A17E:  MOVLB  0
0A180:  BTFSC  xA0.5
0A182:  BRA    A186
....................       AlarmaCiclo=ON; 
0A184:  BSF    x9F.6
....................    } 
....................     
....................    if(TiempoCiclo>3000){ 
0A186:  MOVF   xA5,W
0A188:  SUBLW  0A
0A18A:  BC    A1BE
0A18C:  XORLW  FF
0A18E:  BNZ   A196
0A190:  MOVF   xA4,W
0A192:  SUBLW  B8
0A194:  BC    A1BE
....................       if(TiempoCiclo>5000) 
0A196:  MOVF   xA5,W
0A198:  SUBLW  12
0A19A:  BC    A1A8
0A19C:  XORLW  FF
0A19E:  BNZ   A1A6
0A1A0:  MOVF   xA4,W
0A1A2:  SUBLW  88
0A1A4:  BC    A1A8
....................          AlarmaTiempoProlongado=ON; 
0A1A6:  BSF    x9F.0
....................       if(PresionCamara<10){ 
0A1A8:  MOVLB  3
0A1AA:  MOVF   x6F,F
0A1AC:  BNZ   A1BA
0A1AE:  MOVF   x6E,W
0A1B0:  SUBLW  09
0A1B2:  BNC   A1BA
....................          AlarmaTiempoProlongado=ON; 
0A1B4:  MOVLB  0
0A1B6:  BSF    x9F.0
0A1B8:  MOVLB  3
....................       } 
....................    }else{ 
0A1BA:  BRA    A1C2
0A1BC:  MOVLB  0
....................       AlarmaTiempoProlongado=OFF; 
0A1BE:  BCF    x9F.0
0A1C0:  MOVLB  3
....................    } 
....................     
....................    if(Temperatura>Setpoint+3.0){ 
0A1C2:  CLRF   xFC
0A1C4:  MOVFF  35C,3FB
0A1C8:  MOVLB  0
0A1CA:  CALL   17D6
0A1CE:  BCF    FD8.1
0A1D0:  MOVFF  03,3FE
0A1D4:  MOVFF  02,3FD
0A1D8:  MOVFF  01,3FC
0A1DC:  MOVFF  00,3FB
0A1E0:  MOVLB  4
0A1E2:  CLRF   x02
0A1E4:  CLRF   x01
0A1E6:  MOVLW  40
0A1E8:  MOVWF  x00
0A1EA:  MOVLW  80
0A1EC:  MOVLB  3
0A1EE:  MOVWF  xFF
0A1F0:  MOVLB  0
0A1F2:  CALL   196A
0A1F6:  MOVFF  03,3F1
0A1FA:  MOVFF  02,3F0
0A1FE:  MOVFF  01,3EF
0A202:  MOVFF  00,3EE
0A206:  MOVFF  322,3F5
0A20A:  MOVFF  321,3F4
0A20E:  MOVFF  320,3F3
0A212:  MOVFF  31F,3F2
0A216:  CALL   29F4
0A21A:  BNC   A21E
....................       AlarmaSobreTemperatura=ON; 
0A21C:  BSF    x9F.1
....................    } 
....................     
....................    if(TiempoLlenado>600){ 
0A21E:  MOVF   xA7,W
0A220:  SUBLW  01
0A222:  BC    A232
0A224:  XORLW  FF
0A226:  BNZ   A22E
0A228:  MOVF   xA6,W
0A22A:  SUBLW  58
0A22C:  BC    A232
....................       AlarmaLlenado=ON; 
0A22E:  BSF    x9F.2
....................    }else{ 
0A230:  BRA    A234
....................       AlarmaLlenado=OFF; 
0A232:  BCF    x9F.2
....................    } 
....................     
....................    if(!TERM){ 
0A234:  BSF    F93.5
0A236:  BTFSS  F81.5
0A238:  BRA    A274
....................       delay_ms(1000); 
0A23A:  MOVLW  04
0A23C:  MOVLB  3
0A23E:  MOVWF  xE6
0A240:  MOVLW  FA
0A242:  MOVWF  xFB
0A244:  MOVLB  0
0A246:  CALL   17AE
0A24A:  MOVLB  3
0A24C:  DECFSZ xE6,F
0A24E:  BRA    A240
....................       if(!TERM){ 
0A250:  BSF    F93.5
0A252:  BTFSS  F81.5
0A254:  BRA    A276
....................          delay_ms(1000); 
0A256:  MOVLW  04
0A258:  MOVWF  xE6
0A25A:  MOVLW  FA
0A25C:  MOVWF  xFB
0A25E:  MOVLB  0
0A260:  CALL   17AE
0A264:  MOVLB  3
0A266:  DECFSZ xE6,F
0A268:  BRA    A25A
....................          if(!TERM){ 
0A26A:  BSF    F93.5
0A26C:  BTFSS  F81.5
0A26E:  BRA    A276
....................             AlarmaTermostato=ON; 
0A270:  MOVLB  0
0A272:  BSF    x9F.3
0A274:  MOVLB  3
....................          } 
....................       } 
....................    } 
....................     
....................    if(!DOOR){ 
0A276:  BSF    F93.6
0A278:  BTFSS  F81.6
0A27A:  BRA    A298
....................       //Desfogue_off; 
....................       //Solenoide_off; 
....................       Paso_off; 
0A27C:  BCF    F8C.6
0A27E:  BCF    F95.6
....................       if(CalderinLleno && !Secando && !Finalizo && !Desfogando){ 
0A280:  MOVLB  0
0A282:  BTFSS  xA0.0
0A284:  BRA    A294
0A286:  BTFSC  xA0.3
0A288:  BRA    A294
0A28A:  BTFSC  xA3.1
0A28C:  BRA    A294
0A28E:  BTFSC  xA0.5
0A290:  BRA    A294
....................          AlarmaPuerta=ON; 
0A292:  BSF    x9F.4
....................       } 
....................    }else{ 
0A294:  BRA    A29C
0A296:  MOVLB  3
....................       AlarmaPuerta=OFF; 
0A298:  MOVLB  0
0A29A:  BCF    x9F.4
....................    } 
....................  
....................    if(!STOP){ 
0A29C:  BSF    F93.7
0A29E:  BTFSS  F81.7
0A2A0:  BRA    A2C2
....................       delay_ms(1000); 
0A2A2:  MOVLW  04
0A2A4:  MOVLB  3
0A2A6:  MOVWF  xE6
0A2A8:  MOVLW  FA
0A2AA:  MOVWF  xFB
0A2AC:  MOVLB  0
0A2AE:  CALL   17AE
0A2B2:  MOVLB  3
0A2B4:  DECFSZ xE6,F
0A2B6:  BRA    A2A8
....................       if(!STOP){ 
0A2B8:  BSF    F93.7
0A2BA:  BTFSS  F81.7
0A2BC:  BRA    A2C4
....................          AlarmaEmergencia=ON; 
0A2BE:  MOVLB  0
0A2C0:  BSF    x9F.5
0A2C2:  MOVLB  3
....................       } 
....................    } 
....................     
....................    if(AlarmaPuerta || AlarmaTermostato || AlarmaLlenado || AlarmaSobreTemperatura || AlarmaTiempoProlongado || AlarmaEmergencia || AlarmaPresion 
....................    || AlarmaCiclo){ 
0A2C4:  MOVLB  0
0A2C6:  BTFSC  x9F.4
0A2C8:  BRA    A2E6
0A2CA:  BTFSC  x9F.3
0A2CC:  BRA    A2E6
0A2CE:  BTFSC  x9F.2
0A2D0:  BRA    A2E6
0A2D2:  BTFSC  x9F.1
0A2D4:  BRA    A2E6
0A2D6:  BTFSC  x9F.0
0A2D8:  BRA    A2E6
0A2DA:  BTFSC  x9F.5
0A2DC:  BRA    A2E6
0A2DE:  BTFSC  xA3.2
0A2E0:  BRA    A2E6
0A2E2:  BTFSS  x9F.6
0A2E4:  BRA    A66C
....................       ActivaAlarma(1); 
0A2E6:  MOVLW  01
0A2E8:  MOVLB  3
0A2EA:  MOVWF  xE6
0A2EC:  MOVLB  0
0A2EE:  CALL   412C
....................       if(AlarmaEmergencia){ 
0A2F2:  BTFSS  x9F.5
0A2F4:  BRA    A364
....................          printf("Funcionamiento.t4f.txt=\" Parada de Emergencia\""); 
0A2F6:  MOVLW  88
0A2F8:  MOVWF  FF6
0A2FA:  MOVLW  0F
0A2FC:  MOVWF  FF7
0A2FE:  MOVLW  00
0A300:  MOVWF  FF8
0A302:  CALL   3528
....................          SendDataDisplay(); 
0A306:  CALL   355A
....................          printf("Funcionamiento.t5f.txt=\" Cancelado\""); 
0A30A:  MOVLW  B8
0A30C:  MOVWF  FF6
0A30E:  MOVLW  0F
0A310:  MOVWF  FF7
0A312:  MOVLW  00
0A314:  MOVWF  FF8
0A316:  CALL   3528
....................          SendDataDisplay(); 
0A31A:  CALL   355A
....................          Desfogue_on; 
0A31E:  BSF    F8C.4
0A320:  BCF    F95.4
....................          SSR_off; 
0A322:  BSF    F8B.2
0A324:  BCF    F94.2
....................          Paso_off; 
0A326:  BCF    F8C.6
0A328:  BCF    F95.6
....................          Vent_on; 
0A32A:  BSF    F8C.5
0A32C:  BCF    F95.5
....................          Esterilizando=OFF; 
0A32E:  BCF    xA0.2
....................          Desfogando=OFF; 
0A330:  BCF    xA0.5
....................          DesfogueSuave=OFF; 
0A332:  BCF    xA0.6
....................          Esterilizando=OFF; 
0A334:  BCF    xA0.2
....................          //IniciaCiclo=OFF; 
....................          Controlando=0; 
0A336:  MOVLB  3
0A338:  CLRF   x4D
....................          if(!flagImprimir && ActivaImpresion==1){ 
0A33A:  BTFSC  x4A.4
0A33C:  BRA    A360
0A33E:  DECFSZ x4E,W
0A340:  BRA    A360
....................             Imprime=20; 
0A342:  MOVLW  14
0A344:  MOVWF  x9B
....................             Envio_Esclavos(); 
0A346:  MOVLB  0
0A348:  CALL   3EC4
....................             delay_ms(100); 
0A34C:  MOVLW  64
0A34E:  MOVLB  3
0A350:  MOVWF  xFB
0A352:  MOVLB  0
0A354:  CALL   17AE
....................             Imprime=10; 
0A358:  MOVLW  0A
0A35A:  MOVLB  3
0A35C:  MOVWF  x9B
....................             flagImprimir=1; 
0A35E:  BSF    x4A.4
....................          } 
....................       }else if(AlarmaPuerta){ 
0A360:  BRA    A668
0A362:  MOVLB  0
0A364:  BTFSS  x9F.4
0A366:  BRA    A3A6
....................             printf("Funcionamiento.t4f.txt=\" Puerta Abierta\""); 
0A368:  MOVLW  DC
0A36A:  MOVWF  FF6
0A36C:  MOVLW  0F
0A36E:  MOVWF  FF7
0A370:  MOVLW  00
0A372:  MOVWF  FF8
0A374:  CALL   3528
....................             SendDataDisplay(); 
0A378:  CALL   355A
....................             printf("Funcionamiento.t5f.txt=\" Pausado\""); 
0A37C:  MOVLW  06
0A37E:  MOVWF  FF6
0A380:  MOVLW  10
0A382:  MOVWF  FF7
0A384:  MOVLW  00
0A386:  MOVWF  FF8
0A388:  CALL   3528
....................             SendDataDisplay(); 
0A38C:  CALL   355A
....................             SSR_off; 
0A390:  BSF    F8B.2
0A392:  BCF    F94.2
....................             Paso_off; 
0A394:  BCF    F8C.6
0A396:  BCF    F95.6
....................             IniciaLlenado=OFF; 
0A398:  BCF    x9F.7
....................             IniciaCiclo=OFF; 
0A39A:  BCF    xA0.1
....................             Esterilizando=OFF; 
0A39C:  BCF    xA0.2
....................             Controlando=0; 
0A39E:  MOVLB  3
0A3A0:  CLRF   x4D
....................       }else if(AlarmaLlenado){ 
0A3A2:  BRA    A668
0A3A4:  MOVLB  0
0A3A6:  BTFSS  x9F.2
0A3A8:  BRA    A412
....................             printf("Funcionamiento.t4f.txt=\" Tiempo Llenado\""); 
0A3AA:  MOVLW  28
0A3AC:  MOVWF  FF6
0A3AE:  MOVLW  10
0A3B0:  MOVWF  FF7
0A3B2:  MOVLW  00
0A3B4:  MOVWF  FF8
0A3B6:  CALL   3528
....................             SendDataDisplay(); 
0A3BA:  CALL   355A
....................             printf("Funcionamiento.t5f.txt=\" Cancelado\""); 
0A3BE:  MOVLW  52
0A3C0:  MOVWF  FF6
0A3C2:  MOVLW  10
0A3C4:  MOVWF  FF7
0A3C6:  MOVLW  00
0A3C8:  MOVWF  FF8
0A3CA:  CALL   3528
....................             SendDataDisplay(); 
0A3CE:  CALL   355A
....................             Desfogue_off; 
0A3D2:  BCF    F8C.4
0A3D4:  BCF    F95.4
....................             SSR_off; 
0A3D6:  BSF    F8B.2
0A3D8:  BCF    F94.2
....................             Paso_off; 
0A3DA:  BCF    F8C.6
0A3DC:  BCF    F95.6
....................             IniciaLlenado=OFF; 
0A3DE:  BCF    x9F.7
....................             IniciaCiclo=OFF; 
0A3E0:  BCF    xA0.1
....................             Esterilizando=OFF; 
0A3E2:  BCF    xA0.2
....................             Controlando=0; 
0A3E4:  MOVLB  3
0A3E6:  CLRF   x4D
....................             if(!flagImprimir && ActivaImpresion==1){ 
0A3E8:  BTFSC  x4A.4
0A3EA:  BRA    A40E
0A3EC:  DECFSZ x4E,W
0A3EE:  BRA    A40E
....................                Imprime=21; 
0A3F0:  MOVLW  15
0A3F2:  MOVWF  x9B
....................                Envio_Esclavos(); 
0A3F4:  MOVLB  0
0A3F6:  CALL   3EC4
....................                delay_ms(100); 
0A3FA:  MOVLW  64
0A3FC:  MOVLB  3
0A3FE:  MOVWF  xFB
0A400:  MOVLB  0
0A402:  CALL   17AE
....................                Imprime=10; 
0A406:  MOVLW  0A
0A408:  MOVLB  3
0A40A:  MOVWF  x9B
....................                flagImprimir=1; 
0A40C:  BSF    x4A.4
....................             } 
....................       }else if(AlarmaTermostato){ // Alarma de Termostato 
0A40E:  BRA    A668
0A410:  MOVLB  0
0A412:  BTFSS  x9F.3
0A414:  BRA    A48A
....................             tiempo_esterilizacion=0;tiempo_secado=0;          
0A416:  MOVLB  3
0A418:  CLRF   x5F
0A41A:  CLRF   x60
....................             printf("Funcionamiento.t4f.txt=\" Termostato\""); 
0A41C:  MOVLW  76
0A41E:  MOVWF  FF6
0A420:  MOVLW  10
0A422:  MOVWF  FF7
0A424:  MOVLW  00
0A426:  MOVWF  FF8
0A428:  MOVLB  0
0A42A:  CALL   3528
....................             SendDataDisplay(); 
0A42E:  CALL   355A
....................             printf("Funcionamiento.t5f.txt=\" Cancelado\""); 
0A432:  MOVLW  9C
0A434:  MOVWF  FF6
0A436:  MOVLW  10
0A438:  MOVWF  FF7
0A43A:  MOVLW  00
0A43C:  MOVWF  FF8
0A43E:  CALL   3528
....................             SendDataDisplay(); 
0A442:  CALL   355A
....................             Desfogue_on;             
0A446:  BSF    F8C.4
0A448:  BCF    F95.4
....................             SSR_off; 
0A44A:  BSF    F8B.2
0A44C:  BCF    F94.2
....................             Paso_off; 
0A44E:  BCF    F8C.6
0A450:  BCF    F95.6
....................             Esterilizando=OFF; 
0A452:  BCF    xA0.2
....................             Desfogando=OFF; 
0A454:  BCF    xA0.5
....................             IniciaCiclo=OFF; 
0A456:  BCF    xA0.1
....................             Controlando=0; 
0A458:  MOVLB  3
0A45A:  CLRF   x4D
....................             Vent_on; 
0A45C:  BSF    F8C.5
0A45E:  BCF    F95.5
....................             if(!flagImprimir && ActivaImpresion==1){ 
0A460:  BTFSC  x4A.4
0A462:  BRA    A486
0A464:  DECFSZ x4E,W
0A466:  BRA    A486
....................                Imprime=22; 
0A468:  MOVLW  16
0A46A:  MOVWF  x9B
....................                Envio_Esclavos(); 
0A46C:  MOVLB  0
0A46E:  CALL   3EC4
....................                delay_ms(100); 
0A472:  MOVLW  64
0A474:  MOVLB  3
0A476:  MOVWF  xFB
0A478:  MOVLB  0
0A47A:  CALL   17AE
....................                Imprime=10; 
0A47E:  MOVLW  0A
0A480:  MOVLB  3
0A482:  MOVWF  x9B
....................                flagImprimir=1; 
0A484:  BSF    x4A.4
....................             } 
....................       }else if(AlarmaSobreTemperatura){ // Alarma de Sobre Temperatura 
0A486:  BRA    A668
0A488:  MOVLB  0
0A48A:  BTFSS  x9F.1
0A48C:  BRA    A506
....................          tiempo_esterilizacion=0;tiempo_secado=0;          
0A48E:  MOVLB  3
0A490:  CLRF   x5F
0A492:  CLRF   x60
....................          printf("Funcionamiento.t4f.txt=\" Sobretemperatura\""); 
0A494:  MOVLW  C0
0A496:  MOVWF  FF6
0A498:  MOVLW  10
0A49A:  MOVWF  FF7
0A49C:  MOVLW  00
0A49E:  MOVWF  FF8
0A4A0:  MOVLB  0
0A4A2:  CALL   3528
....................          SendDataDisplay(); 
0A4A6:  CALL   355A
....................          printf("Funcionamiento.t5f.txt=\" Cancelado\""); 
0A4AA:  MOVLW  EC
0A4AC:  MOVWF  FF6
0A4AE:  MOVLW  10
0A4B0:  MOVWF  FF7
0A4B2:  MOVLW  00
0A4B4:  MOVWF  FF8
0A4B6:  CALL   3528
....................          SendDataDisplay();   
0A4BA:  CALL   355A
....................          Desfogue_on; 
0A4BE:  BSF    F8C.4
0A4C0:  BCF    F95.4
....................          SSR_off; 
0A4C2:  BSF    F8B.2
0A4C4:  BCF    F94.2
....................          Paso_off; 
0A4C6:  BCF    F8C.6
0A4C8:  BCF    F95.6
....................          Controlando=0; 
0A4CA:  MOVLB  3
0A4CC:  CLRF   x4D
....................          IniciaLlenado=OFF; 
0A4CE:  MOVLB  0
0A4D0:  BCF    x9F.7
....................          IniciaCiclo=OFF; 
0A4D2:  BCF    xA0.1
....................          Esterilizando=OFF; 
0A4D4:  BCF    xA0.2
....................          Vent_on; 
0A4D6:  BSF    F8C.5
0A4D8:  BCF    F95.5
....................          if(!flagImprimir && ActivaImpresion==1){ 
0A4DA:  MOVLB  3
0A4DC:  BTFSC  x4A.4
0A4DE:  BRA    A502
0A4E0:  DECFSZ x4E,W
0A4E2:  BRA    A502
....................             Imprime=23; 
0A4E4:  MOVLW  17
0A4E6:  MOVWF  x9B
....................             Envio_Esclavos(); 
0A4E8:  MOVLB  0
0A4EA:  CALL   3EC4
....................             delay_ms(100); 
0A4EE:  MOVLW  64
0A4F0:  MOVLB  3
0A4F2:  MOVWF  xFB
0A4F4:  MOVLB  0
0A4F6:  CALL   17AE
....................             Imprime=10; 
0A4FA:  MOVLW  0A
0A4FC:  MOVLB  3
0A4FE:  MOVWF  x9B
....................             flagImprimir=1; 
0A500:  BSF    x4A.4
....................          } 
....................       }else if(AlarmaTiempoProlongado){ // Alarma de Error de Tiempo: Error por exceso de tiempo de calentamiento. 
0A502:  BRA    A668
0A504:  MOVLB  0
0A506:  BTFSS  x9F.0
0A508:  BRA    A57A
....................          printf("Funcionamiento.t4f.txt=\" Tiempo Prolongado\""); 
0A50A:  MOVLW  10
0A50C:  MOVWF  FF6
0A50E:  MOVLW  11
0A510:  MOVWF  FF7
0A512:  MOVLW  00
0A514:  MOVWF  FF8
0A516:  CALL   3528
....................          SendDataDisplay(); 
0A51A:  CALL   355A
....................          printf("Funcionamiento.t5f.txt=\" Cancelado\""); 
0A51E:  MOVLW  3C
0A520:  MOVWF  FF6
0A522:  MOVLW  11
0A524:  MOVWF  FF7
0A526:  MOVLW  00
0A528:  MOVWF  FF8
0A52A:  CALL   3528
....................          SendDataDisplay(); 
0A52E:  CALL   355A
....................          Desfogue_on; 
0A532:  BSF    F8C.4
0A534:  BCF    F95.4
....................          SSR_off; 
0A536:  BSF    F8B.2
0A538:  BCF    F94.2
....................          Paso_off; 
0A53A:  BCF    F8C.6
0A53C:  BCF    F95.6
....................          Controlando=0; 
0A53E:  MOVLB  3
0A540:  CLRF   x4D
....................          IniciaLlenado=OFF; 
0A542:  MOVLB  0
0A544:  BCF    x9F.7
....................          IniciaCiclo=OFF; 
0A546:  BCF    xA0.1
....................          Esterilizando=OFF; 
0A548:  BCF    xA0.2
....................          Vent_on; 
0A54A:  BSF    F8C.5
0A54C:  BCF    F95.5
....................          if(!flagImprimir && ActivaImpresion==1){ 
0A54E:  MOVLB  3
0A550:  BTFSC  x4A.4
0A552:  BRA    A576
0A554:  DECFSZ x4E,W
0A556:  BRA    A576
....................             Imprime=24; 
0A558:  MOVLW  18
0A55A:  MOVWF  x9B
....................             Envio_Esclavos(); 
0A55C:  MOVLB  0
0A55E:  CALL   3EC4
....................             delay_ms(100); 
0A562:  MOVLW  64
0A564:  MOVLB  3
0A566:  MOVWF  xFB
0A568:  MOVLB  0
0A56A:  CALL   17AE
....................             Imprime=10; 
0A56E:  MOVLW  0A
0A570:  MOVLB  3
0A572:  MOVWF  x9B
....................             flagImprimir=1; 
0A574:  BSF    x4A.4
....................          } 
....................       }else if(AlarmaPresion){ // Alarma de Error de SobrePresion: Error por exceso de Presion. 
0A576:  BRA    A668
0A578:  MOVLB  0
0A57A:  BTFSS  xA3.2
0A57C:  BRA    A600
....................          printf("Funcionamiento.t4f.txt=\" SobrePresin\""); 
0A57E:  MOVLW  60
0A580:  MOVWF  FF6
0A582:  MOVLW  11
0A584:  MOVWF  FF7
0A586:  MOVLW  00
0A588:  MOVWF  FF8
0A58A:  CALL   3528
....................          SendDataDisplay(); 
0A58E:  CALL   355A
....................          printf("Funcionamiento.t5f.txt=\" Cancelado\""); 
0A592:  MOVLW  88
0A594:  MOVWF  FF6
0A596:  MOVLW  11
0A598:  MOVWF  FF7
0A59A:  MOVLW  00
0A59C:  MOVWF  FF8
0A59E:  CALL   3528
....................          SendDataDisplay(); 
0A5A2:  CALL   355A
....................          Desfogue_on; 
0A5A6:  BSF    F8C.4
0A5A8:  BCF    F95.4
....................          SSR_off; 
0A5AA:  BSF    F8B.2
0A5AC:  BCF    F94.2
....................          IniciaLlenado=OFF; 
0A5AE:  BCF    x9F.7
....................          IniciaCiclo=OFF; 
0A5B0:  BCF    xA0.1
....................          Esterilizando=OFF; 
0A5B2:  BCF    xA0.2
....................          Vent_on; 
0A5B4:  BSF    F8C.5
0A5B6:  BCF    F95.5
....................          if(PresionPreCamara>20 && DOOR) 
0A5B8:  MOVLB  3
0A5BA:  MOVF   x71,F
0A5BC:  BNZ   A5C4
0A5BE:  MOVF   x70,W
0A5C0:  SUBLW  14
0A5C2:  BC    A5D0
0A5C4:  BSF    F93.6
0A5C6:  BTFSC  F81.6
0A5C8:  BRA    A5D0
....................             Paso_on; 
0A5CA:  BSF    F8C.6
0A5CC:  BCF    F95.6
....................          else 
0A5CE:  BRA    A5D4
....................             Paso_off; 
0A5D0:  BCF    F8C.6
0A5D2:  BCF    F95.6
....................          Controlando=0; 
0A5D4:  CLRF   x4D
....................          if(!flagImprimir && ActivaImpresion==1){ 
0A5D6:  BTFSC  x4A.4
0A5D8:  BRA    A5FC
0A5DA:  DECFSZ x4E,W
0A5DC:  BRA    A5FC
....................             Imprime=25; 
0A5DE:  MOVLW  19
0A5E0:  MOVWF  x9B
....................             Envio_Esclavos(); 
0A5E2:  MOVLB  0
0A5E4:  CALL   3EC4
....................             delay_ms(100); 
0A5E8:  MOVLW  64
0A5EA:  MOVLB  3
0A5EC:  MOVWF  xFB
0A5EE:  MOVLB  0
0A5F0:  CALL   17AE
....................             Imprime=10; 
0A5F4:  MOVLW  0A
0A5F6:  MOVLB  3
0A5F8:  MOVWF  x9B
....................             flagImprimir=1; 
0A5FA:  BSF    x4A.4
....................          } 
....................       }else if(AlarmaCiclo){ // Alarma de Error de SobrePresion: Error por exceso de Presion. 
0A5FC:  BRA    A668
0A5FE:  MOVLB  0
0A600:  BTFSS  x9F.6
0A602:  BRA    A66A
....................          printf("Funcionamiento.t4f.txt=\" Error Ciclo\""); 
0A604:  MOVLW  AC
0A606:  MOVWF  FF6
0A608:  MOVLW  11
0A60A:  MOVWF  FF7
0A60C:  MOVLW  00
0A60E:  MOVWF  FF8
0A610:  CALL   3528
....................          SendDataDisplay(); 
0A614:  CALL   355A
....................          printf("Funcionamiento.t5f.txt=\" Cancelado\""); 
0A618:  MOVLW  D2
0A61A:  MOVWF  FF6
0A61C:  MOVLW  11
0A61E:  MOVWF  FF7
0A620:  MOVLW  00
0A622:  MOVWF  FF8
0A624:  CALL   3528
....................          SendDataDisplay(); 
0A628:  CALL   355A
....................          Desfogue_on; 
0A62C:  BSF    F8C.4
0A62E:  BCF    F95.4
....................          SSR_off; 
0A630:  BSF    F8B.2
0A632:  BCF    F94.2
....................          IniciaLlenado=OFF; 
0A634:  BCF    x9F.7
....................          IniciaCiclo=OFF; 
0A636:  BCF    xA0.1
....................          Esterilizando=OFF; 
0A638:  BCF    xA0.2
....................          Controlando=0; 
0A63A:  MOVLB  3
0A63C:  CLRF   x4D
....................          Vent_on; 
0A63E:  BSF    F8C.5
0A640:  BCF    F95.5
....................          if(!flagImprimir && ActivaImpresion==1){ 
0A642:  BTFSC  x4A.4
0A644:  BRA    A668
0A646:  DECFSZ x4E,W
0A648:  BRA    A668
....................             Imprime=26; 
0A64A:  MOVLW  1A
0A64C:  MOVWF  x9B
....................             Envio_Esclavos(); 
0A64E:  MOVLB  0
0A650:  CALL   3EC4
....................             delay_ms(100); 
0A654:  MOVLW  64
0A656:  MOVLB  3
0A658:  MOVWF  xFB
0A65A:  MOVLB  0
0A65C:  CALL   17AE
....................             Imprime=10; 
0A660:  MOVLW  0A
0A662:  MOVLB  3
0A664:  MOVWF  x9B
....................             flagImprimir=1; 
0A666:  BSF    x4A.4
0A668:  MOVLB  0
....................          } 
....................       } 
....................    } 
....................    else{   
0A66A:  BRA    AC08
....................       Buzzer_off; 
0A66C:  BCF    F8C.0
0A66E:  BCF    F95.0
....................       IniciaCiclo=ON; 
0A670:  BSF    xA0.1
....................       if(flagImprime && ActivaImpresion==1){ 
0A672:  MOVLB  3
0A674:  BTFSS  x4A.3
0A676:  BRA    A69A
0A678:  DECFSZ x4E,W
0A67A:  BRA    A69A
....................          Imprime=5; 
0A67C:  MOVLW  05
0A67E:  MOVWF  x9B
....................          Envio_Esclavos(); 
0A680:  MOVLB  0
0A682:  CALL   3EC4
....................          delay_ms(100); 
0A686:  MOVLW  64
0A688:  MOVLB  3
0A68A:  MOVWF  xFB
0A68C:  MOVLB  0
0A68E:  CALL   17AE
....................          Imprime=10; 
0A692:  MOVLW  0A
0A694:  MOVLB  3
0A696:  MOVWF  x9B
....................          flagImprime=0; 
0A698:  BCF    x4A.3
....................       } 
....................          if(!CalderinLleno){ 
0A69A:  MOVLB  0
0A69C:  BTFSC  xA0.0
0A69E:  BRA    A6E0
....................             printf("Funcionamiento.t4f.txt=\" Aplique Agua\""); 
0A6A0:  MOVLW  F6
0A6A2:  MOVWF  FF6
0A6A4:  MOVLW  11
0A6A6:  MOVWF  FF7
0A6A8:  MOVLW  00
0A6AA:  MOVWF  FF8
0A6AC:  CALL   3528
....................             SendDataDisplay(); 
0A6B0:  CALL   355A
....................             printf("Funcionamiento.t5f.txt=\" Nivel Bajo\""); 
0A6B4:  MOVLW  1E
0A6B6:  MOVWF  FF6
0A6B8:  MOVLW  12
0A6BA:  MOVWF  FF7
0A6BC:  MOVLW  00
0A6BE:  MOVWF  FF8
0A6C0:  CALL   3528
....................             SendDataDisplay(); 
0A6C4:  CALL   355A
....................             Control=0; 
0A6C8:  MOVLB  3
0A6CA:  CLRF   x4B
....................             IniciaLlenado=ON; 
0A6CC:  MOVLB  0
0A6CE:  BSF    x9F.7
....................             Controlando=0; 
0A6D0:  MOVLB  3
0A6D2:  CLRF   x4D
....................             Desfogue_on; 
0A6D4:  BSF    F8C.4
0A6D6:  BCF    F95.4
....................             //AguaIn_on; 
....................             Paso_off; 
0A6D8:  BCF    F8C.6
0A6DA:  BCF    F95.6
....................          } 
....................          else{ 
0A6DC:  BRA    AC0A
0A6DE:  MOVLB  0
....................             //AguaIn_off; 
....................             if(Temperatura>=((float)Setpoint-0.3)){ 
0A6E0:  MOVLB  3
0A6E2:  CLRF   xFC
0A6E4:  MOVFF  35C,3FB
0A6E8:  MOVLB  0
0A6EA:  CALL   17D6
0A6EE:  MOVFF  00,3E6
0A6F2:  MOVFF  01,3E7
0A6F6:  MOVFF  02,3E8
0A6FA:  MOVFF  03,3E9
0A6FE:  BSF    FD8.1
0A700:  MOVFF  03,3FE
0A704:  MOVFF  02,3FD
0A708:  MOVFF  01,3FC
0A70C:  MOVFF  00,3FB
0A710:  MOVLW  9A
0A712:  MOVLB  4
0A714:  MOVWF  x02
0A716:  MOVLW  99
0A718:  MOVWF  x01
0A71A:  MOVLW  19
0A71C:  MOVWF  x00
0A71E:  MOVLW  7D
0A720:  MOVLB  3
0A722:  MOVWF  xFF
0A724:  MOVLB  0
0A726:  CALL   196A
0A72A:  MOVFF  03,3F1
0A72E:  MOVFF  02,3F0
0A732:  MOVFF  01,3EF
0A736:  MOVFF  00,3EE
0A73A:  MOVFF  322,3F5
0A73E:  MOVFF  321,3F4
0A742:  MOVFF  320,3F3
0A746:  MOVFF  31F,3F2
0A74A:  CALL   29F4
0A74E:  BC    A752
0A750:  BNZ   A754
....................                Esterilizando=ON; 
0A752:  BSF    xA0.2
....................             } 
....................              
....................             if(Temperatura<((float)Setpoint-0.9) && !Desfogando){ 
0A754:  MOVLB  3
0A756:  CLRF   xFC
0A758:  MOVFF  35C,3FB
0A75C:  MOVLB  0
0A75E:  CALL   17D6
0A762:  MOVFF  00,3E6
0A766:  MOVFF  01,3E7
0A76A:  MOVFF  02,3E8
0A76E:  MOVFF  03,3E9
0A772:  BSF    FD8.1
0A774:  MOVFF  03,3FE
0A778:  MOVFF  02,3FD
0A77C:  MOVFF  01,3FC
0A780:  MOVFF  00,3FB
0A784:  MOVLW  66
0A786:  MOVLB  4
0A788:  MOVWF  x02
0A78A:  MOVWF  x01
0A78C:  MOVWF  x00
0A78E:  MOVLW  7E
0A790:  MOVLB  3
0A792:  MOVWF  xFF
0A794:  MOVLB  0
0A796:  CALL   196A
0A79A:  MOVFF  322,3F1
0A79E:  MOVFF  321,3F0
0A7A2:  MOVFF  320,3EF
0A7A6:  MOVFF  31F,3EE
0A7AA:  MOVFF  03,3F5
0A7AE:  MOVFF  02,3F4
0A7B2:  MOVFF  01,3F3
0A7B6:  MOVFF  00,3F2
0A7BA:  CALL   29F4
0A7BE:  BNC   A7C6
0A7C0:  BTFSC  xA0.5
0A7C2:  BRA    A7C6
....................                Esterilizando=OFF; 
0A7C4:  BCF    xA0.2
....................             } 
....................              
....................             if(!Esterilizando){ 
0A7C6:  BTFSC  xA0.2
0A7C8:  BRA    A844
....................                printf("Funcionamiento.t4f.txt=\" Ninguna\""); 
0A7CA:  MOVLW  44
0A7CC:  MOVWF  FF6
0A7CE:  MOVLW  12
0A7D0:  MOVWF  FF7
0A7D2:  MOVLW  00
0A7D4:  MOVWF  FF8
0A7D6:  CALL   3528
....................                SendDataDisplay(); 
0A7DA:  CALL   355A
....................                printf("Funcionamiento.t5f.txt=\" Calentando\""); 
0A7DE:  MOVLW  66
0A7E0:  MOVWF  FF6
0A7E2:  MOVLW  12
0A7E4:  MOVWF  FF7
0A7E6:  MOVLW  00
0A7E8:  MOVWF  FF8
0A7EA:  CALL   3528
....................                SendDataDisplay(); 
0A7EE:  CALL   355A
....................                Control=1; 
0A7F2:  MOVLW  01
0A7F4:  MOVLB  3
0A7F6:  MOVWF  x4B
....................                Paso_on; 
0A7F8:  BSF    F8C.6
0A7FA:  BCF    F95.6
....................                if(Temperatura<=TTrampa){ 
0A7FC:  CLRF   xFC
0A7FE:  MOVFF  2D9,3FB
0A802:  MOVLB  0
0A804:  CALL   17D6
0A808:  MOVFF  322,3F1
0A80C:  MOVFF  321,3F0
0A810:  MOVFF  320,3EF
0A814:  MOVFF  31F,3EE
0A818:  MOVFF  03,3F5
0A81C:  MOVFF  02,3F4
0A820:  MOVFF  01,3F3
0A824:  MOVFF  00,3F2
0A828:  CALL   29F4
0A82C:  BC    A830
0A82E:  BNZ   A83A
....................                   Desfogue_on; 
0A830:  BSF    F8C.4
0A832:  BCF    F95.4
....................                   Controla(); 
0A834:  GOTO   4988
....................                }else{ 
0A838:  BRA    A842
....................                   Desfogue_off; 
0A83A:  BCF    F8C.4
0A83C:  BCF    F95.4
....................                   ControlaPresionVapor(); 
0A83E:  CALL   4F92
....................                } 
....................             }else{ 
0A842:  BRA    AC08
....................                TiempoCiclo=0; 
0A844:  CLRF   xA5
0A846:  CLRF   xA4
....................                if((Testerilizacion[0]==0)&&(Testerilizacion[1]==0)&& 
....................                (Testerilizacion[2]==0)&&(Testerilizacion[3]==0)){  
0A848:  MOVF   xAE,F
0A84A:  BTFSS  FD8.2
0A84C:  BRA    ABD0
0A84E:  MOVF   xAF,F
0A850:  BTFSS  FD8.2
0A852:  BRA    ABD0
0A854:  MOVF   xB0,F
0A856:  BTFSS  FD8.2
0A858:  BRA    ABD0
0A85A:  MOVF   xB1,F
0A85C:  BTFSS  FD8.2
0A85E:  BRA    ABD0
....................                   if(desfoguelento){ 
0A860:  BTFSS  xA3.6
0A862:  BRA    A9F4
....................                      Controlando=0; 
0A864:  MOVLB  3
0A866:  CLRF   x4D
....................                      if(PresionCamara<=25){ 
0A868:  MOVF   x6F,F
0A86A:  BTFSS  FD8.2
0A86C:  BRA    A9B2
0A86E:  MOVF   x6E,W
0A870:  SUBLW  19
0A872:  BTFSS  FD8.0
0A874:  BRA    A9B2
....................                         Secando=OFF; 
0A876:  MOVLB  0
0A878:  BCF    xA0.3
....................                         DesfogueSuave=OFF; 
0A87A:  BCF    xA0.6
....................                         //Paso_off; 
....................                         if(!DOOR){ 
0A87C:  BSF    F93.6
0A87E:  BTFSS  F81.6
0A880:  BRA    A88C
....................                            Desfogue_off;  
0A882:  BCF    F8C.4
0A884:  BCF    F95.4
....................                            Paso_off; 
0A886:  BCF    F8C.6
0A888:  BCF    F95.6
....................                         }else{ 
0A88A:  BRA    A894
....................                            Desfogue_on; 
0A88C:  BSF    F8C.4
0A88E:  BCF    F95.4
....................                            Paso_off; 
0A890:  BCF    F8C.6
0A892:  BCF    F95.6
....................                         } 
....................                         if(PresionCamara<2){ 
0A894:  MOVLB  3
0A896:  MOVF   x6F,F
0A898:  BTFSS  FD8.2
0A89A:  BRA    A9AC
0A89C:  MOVF   x6E,W
0A89E:  SUBLW  01
0A8A0:  BTFSS  FD8.0
0A8A2:  BRA    A9AC
....................                            if(Temperatura<=90){ 
0A8A4:  MOVFF  322,3F1
0A8A8:  MOVFF  321,3F0
0A8AC:  MOVFF  320,3EF
0A8B0:  MOVFF  31F,3EE
0A8B4:  CLRF   xF5
0A8B6:  CLRF   xF4
0A8B8:  MOVLW  34
0A8BA:  MOVWF  xF3
0A8BC:  MOVLW  85
0A8BE:  MOVWF  xF2
0A8C0:  MOVLB  0
0A8C2:  CALL   29F4
0A8C6:  BC    A8CA
0A8C8:  BNZ   A900
....................                               ActivaAlarma(2); 
0A8CA:  MOVLW  02
0A8CC:  MOVLB  3
0A8CE:  MOVWF  xE6
0A8D0:  MOVLB  0
0A8D2:  CALL   412C
....................                               printf("Funcionamiento.t4f.txt=\" Ninguna\""); 
0A8D6:  MOVLW  8C
0A8D8:  MOVWF  FF6
0A8DA:  MOVLW  12
0A8DC:  MOVWF  FF7
0A8DE:  MOVLW  00
0A8E0:  MOVWF  FF8
0A8E2:  CALL   3528
....................                               SendDataDisplay(); 
0A8E6:  CALL   355A
....................                               printf("Funcionamiento.t5f.txt=\" Finalizado\""); 
0A8EA:  MOVLW  AE
0A8EC:  MOVWF  FF6
0A8EE:  MOVLW  12
0A8F0:  MOVWF  FF7
0A8F2:  MOVLW  00
0A8F4:  MOVWF  FF8
0A8F6:  CALL   3528
....................                               SendDataDisplay(); 
0A8FA:  CALL   355A
....................                               Finalizo=ON; 
0A8FE:  BSF    xA3.1
....................                            } 
....................                            if(!Ciclo){ 
0A900:  BTFSC  xA1.3
0A902:  BRA    A9AE
....................                               Ciclo=ON; 
0A904:  BSF    xA1.3
....................                               Ciclos++; 
0A906:  MOVLB  3
0A908:  INCF   x72,F
0A90A:  BTFSC  FD8.2
0A90C:  INCF   x73,F
....................                               CiclosL=make8(Ciclos,0); 
0A90E:  MOVFF  372,359
....................                               CiclosH=make8(Ciclos,1); 
0A912:  MOVFF  373,35A
....................                               write_eeprom(37,CiclosL); 
0A916:  CLRF   FAA
0A918:  MOVLW  25
0A91A:  MOVWF  FA9
0A91C:  MOVFF  359,FA8
0A920:  BCF    FA6.6
0A922:  BCF    FA6.7
0A924:  BSF    FA6.2
0A926:  MOVF   FF2,W
0A928:  MOVWF  00
0A92A:  BCF    FF2.6
0A92C:  BCF    FF2.7
0A92E:  MOVLB  F
0A930:  MOVLW  55
0A932:  MOVWF  FA7
0A934:  MOVLW  AA
0A936:  MOVWF  FA7
0A938:  BSF    FA6.1
0A93A:  BTFSC  FA6.1
0A93C:  BRA    A93A
0A93E:  BCF    FA6.2
0A940:  MOVF   00,W
0A942:  IORWF  FF2,F
....................                               delay_ms(20); 
0A944:  MOVLW  14
0A946:  MOVLB  3
0A948:  MOVWF  xFB
0A94A:  MOVLB  0
0A94C:  CALL   17AE
....................                               write_eeprom(38,CiclosH); 
0A950:  CLRF   FAA
0A952:  MOVLW  26
0A954:  MOVWF  FA9
0A956:  MOVFF  35A,FA8
0A95A:  BCF    FA6.6
0A95C:  BCF    FA6.7
0A95E:  BSF    FA6.2
0A960:  MOVF   FF2,W
0A962:  MOVWF  00
0A964:  BCF    FF2.6
0A966:  BCF    FF2.7
0A968:  MOVLB  F
0A96A:  MOVLW  55
0A96C:  MOVWF  FA7
0A96E:  MOVLW  AA
0A970:  MOVWF  FA7
0A972:  BSF    FA6.1
0A974:  BTFSC  FA6.1
0A976:  BRA    A974
0A978:  BCF    FA6.2
0A97A:  MOVF   00,W
0A97C:  IORWF  FF2,F
....................                               delay_ms(20); 
0A97E:  MOVLW  14
0A980:  MOVLB  3
0A982:  MOVWF  xFB
0A984:  MOVLB  0
0A986:  CALL   17AE
....................                               if(ActivaImpresion==1){ 
0A98A:  MOVLB  3
0A98C:  DECFSZ x4E,W
0A98E:  BRA    A9AC
....................                                  Imprime=28; 
0A990:  MOVLW  1C
0A992:  MOVWF  x9B
....................                                  Envio_Esclavos(); 
0A994:  MOVLB  0
0A996:  CALL   3EC4
....................                                  delay_ms(100); 
0A99A:  MOVLW  64
0A99C:  MOVLB  3
0A99E:  MOVWF  xFB
0A9A0:  MOVLB  0
0A9A2:  CALL   17AE
....................                                  Imprime=10; 
0A9A6:  MOVLW  0A
0A9A8:  MOVLB  3
0A9AA:  MOVWF  x9B
0A9AC:  MOVLB  0
....................                               } 
....................                            } 
....................                         } 
....................                      }else{ 
0A9AE:  BRA    A9F2
0A9B0:  MOVLB  3
....................                         Desfogando=ON; 
0A9B2:  MOVLB  0
0A9B4:  BSF    xA0.5
....................                         DesfogueSuave=ON; 
0A9B6:  BSF    xA0.6
....................                         printf("Funcionamiento.t4f.txt=\" Ninguna\""); 
0A9B8:  MOVLW  D4
0A9BA:  MOVWF  FF6
0A9BC:  MOVLW  12
0A9BE:  MOVWF  FF7
0A9C0:  MOVLW  00
0A9C2:  MOVWF  FF8
0A9C4:  CALL   3528
....................                         SendDataDisplay(); 
0A9C8:  CALL   355A
....................                         printf("Funcionamiento.t5f.txt=\" Despresurizando\""); 
0A9CC:  MOVLW  F6
0A9CE:  MOVWF  FF6
0A9D0:  MOVLW  12
0A9D2:  MOVWF  FF7
0A9D4:  MOVLW  00
0A9D6:  MOVWF  FF8
0A9D8:  CALL   3528
....................                         SendDataDisplay(); 
0A9DC:  CALL   355A
....................                         Control=0; 
0A9E0:  MOVLB  3
0A9E2:  CLRF   x4B
....................                         SSR_off; 
0A9E4:  BSF    F8B.2
0A9E6:  BCF    F94.2
....................                         Vent_on; 
0A9E8:  BSF    F8C.5
0A9EA:  BCF    F95.5
....................                         Paso_on; 
0A9EC:  BSF    F8C.6
0A9EE:  BCF    F95.6
0A9F0:  MOVLB  0
....................                      } 
....................                   }else{ 
0A9F2:  BRA    ABCE
....................                      //SSR_off; 
....................                      Paso_off; 
0A9F4:  BCF    F8C.6
0A9F6:  BCF    F95.6
....................                      Controlando=0; 
0A9F8:  MOVLB  3
0A9FA:  CLRF   x4D
....................                      Control=0; 
0A9FC:  CLRF   x4B
....................                      if(PresionCamara<2){ 
0A9FE:  MOVF   x6F,F
0AA00:  BTFSS  FD8.2
0AA02:  BRA    AB8A
0AA04:  MOVF   x6E,W
0AA06:  SUBLW  01
0AA08:  BTFSS  FD8.0
0AA0A:  BRA    AB8A
....................                         if((Tsecado[0]==0)&&(Tsecado[1]==0)&&(Tsecado[2]==0)&&(Tsecado[3]==0)){ 
0AA0C:  MOVLB  0
0AA0E:  MOVF   xB8,F
0AA10:  BTFSS  FD8.2
0AA12:  BRA    AB54
0AA14:  MOVF   xB9,F
0AA16:  BTFSS  FD8.2
0AA18:  BRA    AB54
0AA1A:  MOVF   xBA,F
0AA1C:  BTFSS  FD8.2
0AA1E:  BRA    AB54
0AA20:  MOVF   xBB,F
0AA22:  BTFSS  FD8.2
0AA24:  BRA    AB54
....................                            if(!DOOR){ 
0AA26:  BSF    F93.6
0AA28:  BTFSS  F81.6
0AA2A:  BRA    AA36
....................                               Desfogue_off; 
0AA2C:  BCF    F8C.4
0AA2E:  BCF    F95.4
....................                               Paso_off; 
0AA30:  BCF    F8C.6
0AA32:  BCF    F95.6
....................                            }else{ 
0AA34:  BRA    AA3E
....................                               Desfogue_on;  
0AA36:  BSF    F8C.4
0AA38:  BCF    F95.4
....................                               Paso_off; 
0AA3A:  BCF    F8C.6
0AA3C:  BCF    F95.6
....................                            } 
....................                            SSR_off; 
0AA3E:  BSF    F8B.2
0AA40:  BCF    F94.2
....................                            Secando=OFF; 
0AA42:  BCF    xA0.3
....................                            if(Temperatura<=90){ 
0AA44:  MOVFF  322,3F1
0AA48:  MOVFF  321,3F0
0AA4C:  MOVFF  320,3EF
0AA50:  MOVFF  31F,3EE
0AA54:  MOVLB  3
0AA56:  CLRF   xF5
0AA58:  CLRF   xF4
0AA5A:  MOVLW  34
0AA5C:  MOVWF  xF3
0AA5E:  MOVLW  85
0AA60:  MOVWF  xF2
0AA62:  MOVLB  0
0AA64:  CALL   29F4
0AA68:  BC    AA6C
0AA6A:  BNZ   AAA2
....................                               ActivaAlarma(2); 
0AA6C:  MOVLW  02
0AA6E:  MOVLB  3
0AA70:  MOVWF  xE6
0AA72:  MOVLB  0
0AA74:  CALL   412C
....................                               printf("Funcionamiento.t4f.txt=\" Ninguna\""); 
0AA78:  MOVLW  20
0AA7A:  MOVWF  FF6
0AA7C:  MOVLW  13
0AA7E:  MOVWF  FF7
0AA80:  MOVLW  00
0AA82:  MOVWF  FF8
0AA84:  CALL   3528
....................                               SendDataDisplay(); 
0AA88:  CALL   355A
....................                               printf("Funcionamiento.t5f.txt=\" Finalizado\""); 
0AA8C:  MOVLW  42
0AA8E:  MOVWF  FF6
0AA90:  MOVLW  13
0AA92:  MOVWF  FF7
0AA94:  MOVLW  00
0AA96:  MOVWF  FF8
0AA98:  CALL   3528
....................                               SendDataDisplay(); 
0AA9C:  CALL   355A
....................                               Finalizo=ON; 
0AAA0:  BSF    xA3.1
....................                            } 
....................                            if(!Ciclo){ 
0AAA2:  BTFSC  xA1.3
0AAA4:  BRA    AB50
....................                               Ciclo=ON; 
0AAA6:  BSF    xA1.3
....................                               Ciclos++; 
0AAA8:  MOVLB  3
0AAAA:  INCF   x72,F
0AAAC:  BTFSC  FD8.2
0AAAE:  INCF   x73,F
....................                               CiclosL=make8(Ciclos,0); 
0AAB0:  MOVFF  372,359
....................                               CiclosH=make8(Ciclos,1); 
0AAB4:  MOVFF  373,35A
....................                               write_eeprom(37,CiclosL); 
0AAB8:  CLRF   FAA
0AABA:  MOVLW  25
0AABC:  MOVWF  FA9
0AABE:  MOVFF  359,FA8
0AAC2:  BCF    FA6.6
0AAC4:  BCF    FA6.7
0AAC6:  BSF    FA6.2
0AAC8:  MOVF   FF2,W
0AACA:  MOVWF  00
0AACC:  BCF    FF2.6
0AACE:  BCF    FF2.7
0AAD0:  MOVLB  F
0AAD2:  MOVLW  55
0AAD4:  MOVWF  FA7
0AAD6:  MOVLW  AA
0AAD8:  MOVWF  FA7
0AADA:  BSF    FA6.1
0AADC:  BTFSC  FA6.1
0AADE:  BRA    AADC
0AAE0:  BCF    FA6.2
0AAE2:  MOVF   00,W
0AAE4:  IORWF  FF2,F
....................                               delay_ms(20); 
0AAE6:  MOVLW  14
0AAE8:  MOVLB  3
0AAEA:  MOVWF  xFB
0AAEC:  MOVLB  0
0AAEE:  CALL   17AE
....................                               write_eeprom(38,CiclosH); 
0AAF2:  CLRF   FAA
0AAF4:  MOVLW  26
0AAF6:  MOVWF  FA9
0AAF8:  MOVFF  35A,FA8
0AAFC:  BCF    FA6.6
0AAFE:  BCF    FA6.7
0AB00:  BSF    FA6.2
0AB02:  MOVF   FF2,W
0AB04:  MOVWF  00
0AB06:  BCF    FF2.6
0AB08:  BCF    FF2.7
0AB0A:  MOVLB  F
0AB0C:  MOVLW  55
0AB0E:  MOVWF  FA7
0AB10:  MOVLW  AA
0AB12:  MOVWF  FA7
0AB14:  BSF    FA6.1
0AB16:  BTFSC  FA6.1
0AB18:  BRA    AB16
0AB1A:  BCF    FA6.2
0AB1C:  MOVF   00,W
0AB1E:  IORWF  FF2,F
....................                               delay_ms(20); 
0AB20:  MOVLW  14
0AB22:  MOVLB  3
0AB24:  MOVWF  xFB
0AB26:  MOVLB  0
0AB28:  CALL   17AE
....................                               if(ActivaImpresion==1){ 
0AB2C:  MOVLB  3
0AB2E:  DECFSZ x4E,W
0AB30:  BRA    AB4E
....................                                  Imprime=28; 
0AB32:  MOVLW  1C
0AB34:  MOVWF  x9B
....................                                  Envio_Esclavos(); 
0AB36:  MOVLB  0
0AB38:  CALL   3EC4
....................                                  delay_ms(100); 
0AB3C:  MOVLW  64
0AB3E:  MOVLB  3
0AB40:  MOVWF  xFB
0AB42:  MOVLB  0
0AB44:  CALL   17AE
....................                                  Imprime=10; 
0AB48:  MOVLW  0A
0AB4A:  MOVLB  3
0AB4C:  MOVWF  x9B
0AB4E:  MOVLB  0
....................                               } 
....................                            } 
....................                            Secando=OFF; 
0AB50:  BCF    xA0.3
....................                         }else{ 
0AB52:  BRA    AB86
....................                            Secando=ON; 
0AB54:  BSF    xA0.3
....................                            printf("Funcionamiento.t4f.txt=\" Ninguna\""); 
0AB56:  MOVLW  68
0AB58:  MOVWF  FF6
0AB5A:  MOVLW  13
0AB5C:  MOVWF  FF7
0AB5E:  MOVLW  00
0AB60:  MOVWF  FF8
0AB62:  CALL   3528
....................                            SendDataDisplay(); 
0AB66:  CALL   355A
....................                            printf("Funcionamiento.t5f.txt=\" Secando\""); 
0AB6A:  MOVLW  8A
0AB6C:  MOVWF  FF6
0AB6E:  MOVLW  13
0AB70:  MOVWF  FF7
0AB72:  MOVLW  00
0AB74:  MOVWF  FF8
0AB76:  CALL   3528
....................                            SendDataDisplay(); 
0AB7A:  CALL   355A
....................                            Paso_off; 
0AB7E:  BCF    F8C.6
0AB80:  BCF    F95.6
....................                            SSR_off; 
0AB82:  BSF    F8B.2
0AB84:  BCF    F94.2
....................                            //CalientaChaqueta(); 
....................                         } 
....................                      }else{ 
0AB86:  BRA    ABCE
0AB88:  MOVLB  3
....................                         Desfogando=ON; 
0AB8A:  MOVLB  0
0AB8C:  BSF    xA0.5
....................                         printf("Funcionamiento.t4f.txt=\" Ninguna\""); 
0AB8E:  MOVLW  AC
0AB90:  MOVWF  FF6
0AB92:  MOVLW  13
0AB94:  MOVWF  FF7
0AB96:  MOVLW  00
0AB98:  MOVWF  FF8
0AB9A:  CALL   3528
....................                         SendDataDisplay(); 
0AB9E:  CALL   355A
....................                         printf("Funcionamiento.t5f.txt=\" Despresurizando\""); 
0ABA2:  MOVLW  CE
0ABA4:  MOVWF  FF6
0ABA6:  MOVLW  13
0ABA8:  MOVWF  FF7
0ABAA:  MOVLW  00
0ABAC:  MOVWF  FF8
0ABAE:  CALL   3528
....................                         SendDataDisplay(); 
0ABB2:  CALL   355A
....................                         Control=0; 
0ABB6:  MOVLB  3
0ABB8:  CLRF   x4B
....................                         SSR_off; 
0ABBA:  BSF    F8B.2
0ABBC:  BCF    F94.2
....................                         Controlando=0; 
0ABBE:  CLRF   x4D
....................                         Paso_off; 
0ABC0:  BCF    F8C.6
0ABC2:  BCF    F95.6
....................                         Desfogue_on; 
0ABC4:  BSF    F8C.4
0ABC6:  BCF    F95.4
....................                         Vent_on; 
0ABC8:  BSF    F8C.5
0ABCA:  BCF    F95.5
0ABCC:  MOVLB  0
....................                      } 
....................                   } 
....................                    
....................                }else{ 
0ABCE:  BRA    AC08
....................                   printf("Funcionamiento.t4f.txt=\" Ninguna\""); 
0ABD0:  MOVLW  F8
0ABD2:  MOVWF  FF6
0ABD4:  MOVLW  13
0ABD6:  MOVWF  FF7
0ABD8:  MOVLW  00
0ABDA:  MOVWF  FF8
0ABDC:  CALL   3528
....................                   SendDataDisplay(); 
0ABE0:  CALL   355A
....................                   printf("Funcionamiento.t5f.txt=\" Esterilizando\""); 
0ABE4:  MOVLW  1A
0ABE6:  MOVWF  FF6
0ABE8:  MOVLW  14
0ABEA:  MOVWF  FF7
0ABEC:  MOVLW  00
0ABEE:  MOVWF  FF8
0ABF0:  CALL   3528
....................                   SendDataDisplay(); 
0ABF4:  CALL   355A
....................                   Paso_on; 
0ABF8:  BSF    F8C.6
0ABFA:  BCF    F95.6
....................                   Control=1; 
0ABFC:  MOVLW  01
0ABFE:  MOVLB  3
0AC00:  MOVWF  x4B
....................                   //Controla(); 
....................                   ControlaPresionVapor(); 
0AC02:  MOVLB  0
0AC04:  CALL   4F92
0AC08:  MOVLB  3
....................                } 
....................             } 
....................          } 
....................    } 
....................  
....................    if(Grafica==1){ 
0AC0A:  BTFSS  x4A.0
0AC0C:  BRA    AC4A
....................       printf("add 14,0,%1.0f",Temperatura); 
0AC0E:  MOVLW  42
0AC10:  MOVWF  FF6
0AC12:  MOVLW  14
0AC14:  MOVWF  FF7
0AC16:  MOVLW  00
0AC18:  MOVWF  FF8
0AC1A:  MOVLW  09
0AC1C:  MOVWF  xEA
0AC1E:  MOVLB  0
0AC20:  CALL   4228
0AC24:  MOVLW  00
0AC26:  MOVWF  FE9
0AC28:  MOVFF  322,3ED
0AC2C:  MOVFF  321,3EC
0AC30:  MOVFF  320,3EB
0AC34:  MOVFF  31F,3EA
0AC38:  MOVLB  3
0AC3A:  CLRF   xEE
0AC3C:  MOVLB  0
0AC3E:  CALL   4400
....................       SendDataDisplay(); 
0AC42:  CALL   355A
....................       Grafica=0; 
0AC46:  MOVLB  3
0AC48:  BCF    x4A.0
....................    } 
....................    if(Lectura==1)// Utilizado para visualizar la lectura de la temperatura 
0AC4A:  MOVLB  0
0AC4C:  BTFSS  xA3.7
0AC4E:  BRA    AFB2
....................    {                             
....................       Lectura=0; 
0AC50:  BCF    xA3.7
....................       if(Temperatura<=TTrampa){ 
0AC52:  MOVLB  3
0AC54:  CLRF   xFC
0AC56:  MOVFF  2D9,3FB
0AC5A:  MOVLB  0
0AC5C:  CALL   17D6
0AC60:  MOVFF  322,3F1
0AC64:  MOVFF  321,3F0
0AC68:  MOVFF  320,3EF
0AC6C:  MOVFF  31F,3EE
0AC70:  MOVFF  03,3F5
0AC74:  MOVFF  02,3F4
0AC78:  MOVFF  01,3F3
0AC7C:  MOVFF  00,3F2
0AC80:  CALL   29F4
0AC84:  BC    AC88
0AC86:  BNZ   ACDE
....................          printf("t6f.txt=\"%3.1fC\"",Temperatura); 
0AC88:  MOVLW  52
0AC8A:  MOVWF  FF6
0AC8C:  MOVLW  14
0AC8E:  MOVWF  FF7
0AC90:  MOVLW  00
0AC92:  MOVWF  FF8
0AC94:  MOVLW  09
0AC96:  MOVLB  3
0AC98:  MOVWF  xEA
0AC9A:  MOVLB  0
0AC9C:  CALL   4228
0ACA0:  MOVLW  02
0ACA2:  MOVWF  FE9
0ACA4:  MOVFF  322,3ED
0ACA8:  MOVFF  321,3EC
0ACAC:  MOVFF  320,3EB
0ACB0:  MOVFF  31F,3EA
0ACB4:  MOVLW  01
0ACB6:  MOVLB  3
0ACB8:  MOVWF  xEE
0ACBA:  MOVLB  0
0ACBC:  CALL   4400
0ACC0:  MOVLW  B0
0ACC2:  BTFSS  F9E.4
0ACC4:  BRA    ACC2
0ACC6:  MOVWF  FAD
0ACC8:  MOVLW  43
0ACCA:  BTFSS  F9E.4
0ACCC:  BRA    ACCA
0ACCE:  MOVWF  FAD
0ACD0:  MOVLW  22
0ACD2:  BTFSS  F9E.4
0ACD4:  BRA    ACD2
0ACD6:  MOVWF  FAD
....................          SendDataDisplay(); 
0ACD8:  CALL   355A
....................       }else{ 
0ACDC:  BRA    AD32
....................          printf("t6f.txt=\"%3.1fC\"",Tactual); 
0ACDE:  MOVLW  64
0ACE0:  MOVWF  FF6
0ACE2:  MOVLW  14
0ACE4:  MOVWF  FF7
0ACE6:  MOVLW  00
0ACE8:  MOVWF  FF8
0ACEA:  MOVLW  09
0ACEC:  MOVLB  3
0ACEE:  MOVWF  xEA
0ACF0:  MOVLB  0
0ACF2:  CALL   4228
0ACF6:  MOVLW  02
0ACF8:  MOVWF  FE9
0ACFA:  MOVFF  349,3ED
0ACFE:  MOVFF  348,3EC
0AD02:  MOVFF  347,3EB
0AD06:  MOVFF  346,3EA
0AD0A:  MOVLW  01
0AD0C:  MOVLB  3
0AD0E:  MOVWF  xEE
0AD10:  MOVLB  0
0AD12:  CALL   4400
0AD16:  MOVLW  B0
0AD18:  BTFSS  F9E.4
0AD1A:  BRA    AD18
0AD1C:  MOVWF  FAD
0AD1E:  MOVLW  43
0AD20:  BTFSS  F9E.4
0AD22:  BRA    AD20
0AD24:  MOVWF  FAD
0AD26:  MOVLW  22
0AD28:  BTFSS  F9E.4
0AD2A:  BRA    AD28
0AD2C:  MOVWF  FAD
....................          SendDataDisplay(); 
0AD2E:  CALL   355A
....................       } 
....................       printf("Funcionamiento.t7f.txt=\"%03LukPa\"",PresionCamara); 
0AD32:  MOVLW  76
0AD34:  MOVWF  FF6
0AD36:  MOVLW  14
0AD38:  MOVWF  FF7
0AD3A:  MOVLW  00
0AD3C:  MOVWF  FF8
0AD3E:  MOVLW  18
0AD40:  MOVLB  3
0AD42:  MOVWF  xEA
0AD44:  MOVLB  0
0AD46:  CALL   4228
0AD4A:  MOVLW  0A
0AD4C:  MOVWF  FE9
0AD4E:  MOVFF  36F,3EB
0AD52:  MOVFF  36E,3EA
0AD56:  CALL   4628
0AD5A:  MOVLW  93
0AD5C:  MOVWF  FF6
0AD5E:  MOVLW  14
0AD60:  MOVWF  FF7
0AD62:  MOVLW  00
0AD64:  MOVWF  FF8
0AD66:  MOVLW  04
0AD68:  MOVLB  3
0AD6A:  MOVWF  xEA
0AD6C:  MOVLB  0
0AD6E:  CALL   4228
....................       SendDataDisplay(); 
0AD72:  CALL   355A
....................       //printf("Funcionamiento.t12f.txt=\"%03LukPa\"",PresionPreCamara); 
....................       printf("Funcionamiento.t12f.txt=\"000kPa\""); 
0AD76:  MOVLW  98
0AD78:  MOVWF  FF6
0AD7A:  MOVLW  14
0AD7C:  MOVWF  FF7
0AD7E:  MOVLW  00
0AD80:  MOVWF  FF8
0AD82:  CALL   3528
....................       SendDataDisplay(); 
0AD86:  CALL   355A
....................       printf("Funcionamiento.t9f.txt=\"%03u\"",Setpoint); 
0AD8A:  MOVLW  BA
0AD8C:  MOVWF  FF6
0AD8E:  MOVLW  14
0AD90:  MOVWF  FF7
0AD92:  MOVLW  00
0AD94:  MOVWF  FF8
0AD96:  MOVLW  18
0AD98:  MOVLB  3
0AD9A:  MOVWF  xEA
0AD9C:  MOVLB  0
0AD9E:  CALL   4228
0ADA2:  MOVFF  35C,3E8
0ADA6:  MOVLW  03
0ADA8:  MOVLB  3
0ADAA:  MOVWF  xE9
0ADAC:  MOVLB  0
0ADAE:  CALL   4286
0ADB2:  MOVLW  22
0ADB4:  BTFSS  F9E.4
0ADB6:  BRA    ADB4
0ADB8:  MOVWF  FAD
....................       SendDataDisplay();       
0ADBA:  CALL   355A
....................       printf("Funcionamiento.t10f.txt=\"%02u\"",((Testerilizacion[3]*10)+Testerilizacion[2])); 
0ADBE:  MOVFF  B1,3E8
0ADC2:  MOVLW  0A
0ADC4:  MOVLB  3
0ADC6:  MOVWF  xE9
0ADC8:  MOVLB  0
0ADCA:  CALL   2A6E
0ADCE:  MOVF   xB0,W
0ADD0:  ADDWF  01,W
0ADD2:  MOVLB  3
0ADD4:  MOVWF  xE6
0ADD6:  MOVLW  D8
0ADD8:  MOVWF  FF6
0ADDA:  MOVLW  14
0ADDC:  MOVWF  FF7
0ADDE:  MOVLW  00
0ADE0:  MOVWF  FF8
0ADE2:  MOVLW  19
0ADE4:  MOVWF  xEA
0ADE6:  MOVLB  0
0ADE8:  CALL   4228
0ADEC:  MOVFF  3E6,3E8
0ADF0:  MOVLW  01
0ADF2:  MOVLB  3
0ADF4:  MOVWF  xE9
0ADF6:  MOVLB  0
0ADF8:  CALL   4286
0ADFC:  MOVLW  22
0ADFE:  BTFSS  F9E.4
0AE00:  BRA    ADFE
0AE02:  MOVWF  FAD
....................       SendDataDisplay();       
0AE04:  CALL   355A
....................       printf("Funcionamiento.t13f.txt=\"%02u\"",((Testerilizacion[1]*10)+Testerilizacion[0])); 
0AE08:  MOVFF  AF,3E8
0AE0C:  MOVLW  0A
0AE0E:  MOVLB  3
0AE10:  MOVWF  xE9
0AE12:  MOVLB  0
0AE14:  CALL   2A6E
0AE18:  MOVF   xAE,W
0AE1A:  ADDWF  01,W
0AE1C:  MOVLB  3
0AE1E:  MOVWF  xE6
0AE20:  MOVLW  F8
0AE22:  MOVWF  FF6
0AE24:  MOVLW  14
0AE26:  MOVWF  FF7
0AE28:  MOVLW  00
0AE2A:  MOVWF  FF8
0AE2C:  MOVLW  19
0AE2E:  MOVWF  xEA
0AE30:  MOVLB  0
0AE32:  CALL   4228
0AE36:  MOVFF  3E6,3E8
0AE3A:  MOVLW  01
0AE3C:  MOVLB  3
0AE3E:  MOVWF  xE9
0AE40:  MOVLB  0
0AE42:  CALL   4286
0AE46:  MOVLW  22
0AE48:  BTFSS  F9E.4
0AE4A:  BRA    AE48
0AE4C:  MOVWF  FAD
....................       SendDataDisplay();       
0AE4E:  CALL   355A
....................       printf("Funcionamiento.t11f.txt=\"%02u\"",((Tsecado[3]*10)+Tsecado[2])); 
0AE52:  MOVFF  BB,3E8
0AE56:  MOVLW  0A
0AE58:  MOVLB  3
0AE5A:  MOVWF  xE9
0AE5C:  MOVLB  0
0AE5E:  CALL   2A6E
0AE62:  MOVF   xBA,W
0AE64:  ADDWF  01,W
0AE66:  MOVLB  3
0AE68:  MOVWF  xE6
0AE6A:  MOVLW  18
0AE6C:  MOVWF  FF6
0AE6E:  MOVLW  15
0AE70:  MOVWF  FF7
0AE72:  MOVLW  00
0AE74:  MOVWF  FF8
0AE76:  MOVLW  19
0AE78:  MOVWF  xEA
0AE7A:  MOVLB  0
0AE7C:  CALL   4228
0AE80:  MOVFF  3E6,3E8
0AE84:  MOVLW  01
0AE86:  MOVLB  3
0AE88:  MOVWF  xE9
0AE8A:  MOVLB  0
0AE8C:  CALL   4286
0AE90:  MOVLW  22
0AE92:  BTFSS  F9E.4
0AE94:  BRA    AE92
0AE96:  MOVWF  FAD
....................       SendDataDisplay();       
0AE98:  CALL   355A
....................       printf("Funcionamiento.t16f.txt=\"%02u\"",((Tsecado[1]*10)+Tsecado[0])); 
0AE9C:  MOVFF  B9,3E8
0AEA0:  MOVLW  0A
0AEA2:  MOVLB  3
0AEA4:  MOVWF  xE9
0AEA6:  MOVLB  0
0AEA8:  CALL   2A6E
0AEAC:  MOVF   xB8,W
0AEAE:  ADDWF  01,W
0AEB0:  MOVLB  3
0AEB2:  MOVWF  xE6
0AEB4:  MOVLW  38
0AEB6:  MOVWF  FF6
0AEB8:  MOVLW  15
0AEBA:  MOVWF  FF7
0AEBC:  MOVLW  00
0AEBE:  MOVWF  FF8
0AEC0:  MOVLW  19
0AEC2:  MOVWF  xEA
0AEC4:  MOVLB  0
0AEC6:  CALL   4228
0AECA:  MOVFF  3E6,3E8
0AECE:  MOVLW  01
0AED0:  MOVLB  3
0AED2:  MOVWF  xE9
0AED4:  MOVLB  0
0AED6:  CALL   4286
0AEDA:  MOVLW  22
0AEDC:  BTFSS  F9E.4
0AEDE:  BRA    AEDC
0AEE0:  MOVWF  FAD
....................       SendDataDisplay();       
0AEE2:  CALL   355A
....................        
....................       printf("fecha.txt=\"Fecha:%02u/%02u/20%02u Hora: %02u:%02u:%02u\"",Dia,Mes,Year,Hora,Minuto,Segundo); 
0AEE6:  MOVLW  58
0AEE8:  MOVWF  FF6
0AEEA:  MOVLW  15
0AEEC:  MOVWF  FF7
0AEEE:  MOVLW  00
0AEF0:  MOVWF  FF8
0AEF2:  MOVLW  11
0AEF4:  MOVLB  3
0AEF6:  MOVWF  xEA
0AEF8:  MOVLB  0
0AEFA:  CALL   4228
0AEFE:  MOVFF  38E,3E8
0AF02:  MOVLW  01
0AF04:  MOVLB  3
0AF06:  MOVWF  xE9
0AF08:  MOVLB  0
0AF0A:  CALL   4286
0AF0E:  MOVLW  2F
0AF10:  BTFSS  F9E.4
0AF12:  BRA    AF10
0AF14:  MOVWF  FAD
0AF16:  MOVFF  38D,3E8
0AF1A:  MOVLW  01
0AF1C:  MOVLB  3
0AF1E:  MOVWF  xE9
0AF20:  MOVLB  0
0AF22:  CALL   4286
0AF26:  MOVLW  2F
0AF28:  BTFSS  F9E.4
0AF2A:  BRA    AF28
0AF2C:  MOVWF  FAD
0AF2E:  MOVLW  32
0AF30:  BTFSS  F9E.4
0AF32:  BRA    AF30
0AF34:  MOVWF  FAD
0AF36:  MOVLW  30
0AF38:  BTFSS  F9E.4
0AF3A:  BRA    AF38
0AF3C:  MOVWF  FAD
0AF3E:  MOVFF  38C,3E8
0AF42:  MOVLW  01
0AF44:  MOVLB  3
0AF46:  MOVWF  xE9
0AF48:  MOVLB  0
0AF4A:  CALL   4286
0AF4E:  MOVLW  79
0AF50:  MOVWF  FF6
0AF52:  MOVLW  15
0AF54:  MOVWF  FF7
0AF56:  MOVLW  00
0AF58:  MOVWF  FF8
0AF5A:  MOVLW  07
0AF5C:  MOVLB  3
0AF5E:  MOVWF  xEA
0AF60:  MOVLB  0
0AF62:  CALL   4228
0AF66:  MOVFF  38F,3E8
0AF6A:  MOVLW  01
0AF6C:  MOVLB  3
0AF6E:  MOVWF  xE9
0AF70:  MOVLB  0
0AF72:  CALL   4286
0AF76:  MOVLW  3A
0AF78:  BTFSS  F9E.4
0AF7A:  BRA    AF78
0AF7C:  MOVWF  FAD
0AF7E:  MOVFF  390,3E8
0AF82:  MOVLW  01
0AF84:  MOVLB  3
0AF86:  MOVWF  xE9
0AF88:  MOVLB  0
0AF8A:  CALL   4286
0AF8E:  MOVLW  3A
0AF90:  BTFSS  F9E.4
0AF92:  BRA    AF90
0AF94:  MOVWF  FAD
0AF96:  MOVFF  391,3E8
0AF9A:  MOVLW  01
0AF9C:  MOVLB  3
0AF9E:  MOVWF  xE9
0AFA0:  MOVLB  0
0AFA2:  CALL   4286
0AFA6:  MOVLW  22
0AFA8:  BTFSS  F9E.4
0AFAA:  BRA    AFA8
0AFAC:  MOVWF  FAD
....................       SendDataDisplay(); 
0AFAE:  CALL   355A
0AFB2:  MOVLB  3
....................    } 
....................  
....................  
.................... } 
.................... //_-------------------------------------------------------------------------------------------------------------------------------------------------------- 
....................  
.................... //_-------------------------------------------------------------------------------------------------------------------------------------------------------- 
....................       if(Menu==100){ //Menu de Configuracin de Parametros de Control 
0AFB4:  MOVF   x55,W
0AFB6:  SUBLW  64
0AFB8:  BTFSS  FD8.2
0AFBA:  GOTO   BEAC
....................       
....................       if(Opcion2>11) 
0AFBE:  MOVF   x5E,W
0AFC0:  SUBLW  0B
0AFC2:  BC    AFC8
....................          Opcion2=1; 
0AFC4:  MOVLW  01
0AFC6:  MOVWF  x5E
....................       if(Opcion2<1) 
0AFC8:  MOVF   x5E,F
0AFCA:  BNZ   AFD0
....................          Opcion2=11; 
0AFCC:  MOVLW  0B
0AFCE:  MOVWF  x5E
....................        
....................       if(Opcion2==1){ 
0AFD0:  DECFSZ x5E,W
0AFD2:  BRA    B158
....................          printf("Config.t2c.txt=\"Proporcional\""); 
0AFD4:  MOVLW  90
0AFD6:  MOVWF  FF6
0AFD8:  MOVLW  15
0AFDA:  MOVWF  FF7
0AFDC:  MOVLW  00
0AFDE:  MOVWF  FF8
0AFE0:  MOVLB  0
0AFE2:  CALL   3528
....................          SendDataDisplay();       
0AFE6:  CALL   355A
....................          printf("t3c.txt=\"%2.0f\"",Ganancia); 
0AFEA:  MOVLW  AE
0AFEC:  MOVWF  FF6
0AFEE:  MOVLW  15
0AFF0:  MOVWF  FF7
0AFF2:  MOVLW  00
0AFF4:  MOVWF  FF8
0AFF6:  MOVLW  09
0AFF8:  MOVLB  3
0AFFA:  MOVWF  xEA
0AFFC:  MOVLB  0
0AFFE:  CALL   4228
0B002:  MOVLW  01
0B004:  MOVWF  FE9
0B006:  MOVFF  302,3ED
0B00A:  MOVFF  301,3EC
0B00E:  MOVFF  300,3EB
0B012:  MOVFF  2FF,3EA
0B016:  MOVLB  3
0B018:  CLRF   xEE
0B01A:  MOVLB  0
0B01C:  CALL   4400
0B020:  MOVLW  22
0B022:  BTFSS  F9E.4
0B024:  BRA    B022
0B026:  MOVWF  FAD
....................          SendDataDisplay(); 
0B028:  CALL   355A
....................          if(RX_Buffer[4]==0x0a || UP){//Tecla Arriba Oprimida 
0B02C:  MOVF   34,W
0B02E:  SUBLW  0A
0B030:  BZ    B038
0B032:  BSF    F93.0
0B034:  BTFSC  F81.0
0B036:  BRA    B08A
....................             delay_ms(20); 
0B038:  MOVLW  14
0B03A:  MOVLB  3
0B03C:  MOVWF  xFB
0B03E:  MOVLB  0
0B040:  CALL   17AE
....................             if(RX_Buffer[4]==0x0a || UP){ 
0B044:  MOVF   34,W
0B046:  SUBLW  0A
0B048:  BZ    B050
0B04A:  BSF    F93.0
0B04C:  BTFSC  F81.0
0B04E:  BRA    B08A
....................                Ganancia+=1.0; 
0B050:  BCF    FD8.1
0B052:  MOVFF  302,3FE
0B056:  MOVFF  301,3FD
0B05A:  MOVFF  300,3FC
0B05E:  MOVFF  2FF,3FB
0B062:  MOVLB  4
0B064:  CLRF   x02
0B066:  CLRF   x01
0B068:  CLRF   x00
0B06A:  MOVLW  7F
0B06C:  MOVLB  3
0B06E:  MOVWF  xFF
0B070:  MOVLB  0
0B072:  CALL   196A
0B076:  MOVFF  03,302
0B07A:  MOVFF  02,301
0B07E:  MOVFF  01,300
0B082:  MOVFF  00,2FF
....................                RX_Buffer[4]=0x00;   
0B086:  CLRF   34
....................                RX_Buffer2[4]=0x00;             
0B088:  CLRF   3F
....................                //BorraBuffer(); 
....................             } 
....................          } 
....................              
....................          if(RX_Buffer[4]==0x0b || DOWN){//Tecla Abajo Oprimida 
0B08A:  MOVF   34,W
0B08C:  SUBLW  0B
0B08E:  BZ    B096
0B090:  BSF    F93.1
0B092:  BTFSC  F81.1
0B094:  BRA    B0E8
....................             delay_ms(20); 
0B096:  MOVLW  14
0B098:  MOVLB  3
0B09A:  MOVWF  xFB
0B09C:  MOVLB  0
0B09E:  CALL   17AE
....................             if(RX_Buffer[4]==0x0b || DOWN){ 
0B0A2:  MOVF   34,W
0B0A4:  SUBLW  0B
0B0A6:  BZ    B0AE
0B0A8:  BSF    F93.1
0B0AA:  BTFSC  F81.1
0B0AC:  BRA    B0E8
....................                Ganancia-=1.0; 
0B0AE:  BSF    FD8.1
0B0B0:  MOVFF  302,3FE
0B0B4:  MOVFF  301,3FD
0B0B8:  MOVFF  300,3FC
0B0BC:  MOVFF  2FF,3FB
0B0C0:  MOVLB  4
0B0C2:  CLRF   x02
0B0C4:  CLRF   x01
0B0C6:  CLRF   x00
0B0C8:  MOVLW  7F
0B0CA:  MOVLB  3
0B0CC:  MOVWF  xFF
0B0CE:  MOVLB  0
0B0D0:  CALL   196A
0B0D4:  MOVFF  03,302
0B0D8:  MOVFF  02,301
0B0DC:  MOVFF  01,300
0B0E0:  MOVFF  00,2FF
....................                RX_Buffer[4]=0x00; 
0B0E4:  CLRF   34
....................                RX_Buffer2[4]=0x00;             
0B0E6:  CLRF   3F
....................                //BorraBuffer(); 
....................             } 
....................          } 
....................           
....................          if(Ganancia>40) 
0B0E8:  MOVLB  3
0B0EA:  CLRF   xF1
0B0EC:  CLRF   xF0
0B0EE:  MOVLW  20
0B0F0:  MOVWF  xEF
0B0F2:  MOVLW  84
0B0F4:  MOVWF  xEE
0B0F6:  MOVFF  302,3F5
0B0FA:  MOVFF  301,3F4
0B0FE:  MOVFF  300,3F3
0B102:  MOVFF  2FF,3F2
0B106:  MOVLB  0
0B108:  CALL   29F4
0B10C:  BNC   B11C
....................             Ganancia=1; 
0B10E:  MOVLB  3
0B110:  CLRF   x02
0B112:  CLRF   x01
0B114:  CLRF   x00
0B116:  MOVLW  7F
0B118:  MOVLB  2
0B11A:  MOVWF  xFF
....................          if(Ganancia<1) 
0B11C:  MOVFF  302,3F1
0B120:  MOVFF  301,3F0
0B124:  MOVFF  300,3EF
0B128:  MOVFF  2FF,3EE
0B12C:  MOVLB  3
0B12E:  CLRF   xF5
0B130:  CLRF   xF4
0B132:  CLRF   xF3
0B134:  MOVLW  7F
0B136:  MOVWF  xF2
0B138:  MOVLB  0
0B13A:  CALL   29F4
0B13E:  BNC   B152
....................             Ganancia=40; 
0B140:  MOVLB  3
0B142:  CLRF   x02
0B144:  CLRF   x01
0B146:  MOVLW  20
0B148:  MOVWF  x00
0B14A:  MOVLW  84
0B14C:  MOVLB  2
0B14E:  MOVWF  xFF
0B150:  MOVLB  0
....................       }else if(Opcion2==2){ 
0B152:  GOTO   B996
0B156:  MOVLB  3
0B158:  MOVF   x5E,W
0B15A:  SUBLW  02
0B15C:  BNZ   B21C
....................          printf("Config.t2c.txt=\"Derivativo\""); 
0B15E:  MOVLW  BE
0B160:  MOVWF  FF6
0B162:  MOVLW  15
0B164:  MOVWF  FF7
0B166:  MOVLW  00
0B168:  MOVWF  FF8
0B16A:  MOVLB  0
0B16C:  CALL   3528
....................          SendDataDisplay();       
0B170:  CALL   355A
....................          printf("t3c.txt=\"%u\"",Derivativo); 
0B174:  MOVLW  DA
0B176:  MOVWF  FF6
0B178:  MOVLW  15
0B17A:  MOVWF  FF7
0B17C:  MOVLW  00
0B17E:  MOVWF  FF8
0B180:  MOVLW  09
0B182:  MOVLB  3
0B184:  MOVWF  xEA
0B186:  MOVLB  0
0B188:  CALL   4228
0B18C:  MOVFF  334,3E8
0B190:  MOVLW  1B
0B192:  MOVLB  3
0B194:  MOVWF  xE9
0B196:  MOVLB  0
0B198:  CALL   4286
0B19C:  MOVLW  22
0B19E:  BTFSS  F9E.4
0B1A0:  BRA    B19E
0B1A2:  MOVWF  FAD
....................          SendDataDisplay(); 
0B1A4:  CALL   355A
....................          if(RX_Buffer[4]==0x0a || UP){//Tecla Arriba Oprimida 
0B1A8:  MOVF   34,W
0B1AA:  SUBLW  0A
0B1AC:  BZ    B1B4
0B1AE:  BSF    F93.0
0B1B0:  BTFSC  F81.0
0B1B2:  BRA    B1D6
....................             delay_ms(20); 
0B1B4:  MOVLW  14
0B1B6:  MOVLB  3
0B1B8:  MOVWF  xFB
0B1BA:  MOVLB  0
0B1BC:  CALL   17AE
....................             if(RX_Buffer[4]==0x0a || UP){ 
0B1C0:  MOVF   34,W
0B1C2:  SUBLW  0A
0B1C4:  BZ    B1CC
0B1C6:  BSF    F93.0
0B1C8:  BTFSC  F81.0
0B1CA:  BRA    B1D6
....................                Derivativo++; 
0B1CC:  MOVLB  3
0B1CE:  INCF   x34,F
....................                RX_Buffer[4]=0x00;   
0B1D0:  CLRF   34
....................                RX_Buffer2[4]=0x00;             
0B1D2:  CLRF   3F
0B1D4:  MOVLB  0
....................                //BorraBuffer(); 
....................             } 
....................          } 
....................              
....................          if(RX_Buffer[4]==0x0b || DOWN){//Tecla Abajo Oprimida 
0B1D6:  MOVF   34,W
0B1D8:  SUBLW  0B
0B1DA:  BZ    B1E2
0B1DC:  BSF    F93.1
0B1DE:  BTFSC  F81.1
0B1E0:  BRA    B204
....................             delay_ms(20); 
0B1E2:  MOVLW  14
0B1E4:  MOVLB  3
0B1E6:  MOVWF  xFB
0B1E8:  MOVLB  0
0B1EA:  CALL   17AE
....................             if(RX_Buffer[4]==0x0b || DOWN){ 
0B1EE:  MOVF   34,W
0B1F0:  SUBLW  0B
0B1F2:  BZ    B1FA
0B1F4:  BSF    F93.1
0B1F6:  BTFSC  F81.1
0B1F8:  BRA    B204
....................                Derivativo--; 
0B1FA:  MOVLB  3
0B1FC:  DECF   x34,F
....................                RX_Buffer[4]=0x00; 
0B1FE:  CLRF   34
....................                RX_Buffer2[4]=0x00;             
0B200:  CLRF   3F
0B202:  MOVLB  0
....................                //BorraBuffer(); 
....................             } 
....................          } 
....................           
....................           
....................          if(Derivativo>40) 
0B204:  MOVLB  3
0B206:  MOVF   x34,W
0B208:  SUBLW  28
0B20A:  BC    B210
....................             Derivativo=1; 
0B20C:  MOVLW  01
0B20E:  MOVWF  x34
....................          if(Derivativo<1) 
0B210:  MOVF   x34,F
0B212:  BNZ   B218
....................             Derivativo=40; 
0B214:  MOVLW  28
0B216:  MOVWF  x34
....................       }else if(Opcion2==3){ 
0B218:  GOTO   B998
0B21C:  MOVF   x5E,W
0B21E:  SUBLW  03
0B220:  BNZ   B2DE
....................          printf("Config.t2c.txt=\"Integral\""); 
0B222:  MOVLW  E8
0B224:  MOVWF  FF6
0B226:  MOVLW  15
0B228:  MOVWF  FF7
0B22A:  MOVLW  00
0B22C:  MOVWF  FF8
0B22E:  MOVLB  0
0B230:  CALL   3528
....................          SendDataDisplay();       
0B234:  CALL   355A
....................          printf("t3c.txt=\"%u\"",Integral); 
0B238:  MOVLW  02
0B23A:  MOVWF  FF6
0B23C:  MOVLW  16
0B23E:  MOVWF  FF7
0B240:  MOVLW  00
0B242:  MOVWF  FF8
0B244:  MOVLW  09
0B246:  MOVLB  3
0B248:  MOVWF  xEA
0B24A:  MOVLB  0
0B24C:  CALL   4228
0B250:  MOVFF  333,3E8
0B254:  MOVLW  1B
0B256:  MOVLB  3
0B258:  MOVWF  xE9
0B25A:  MOVLB  0
0B25C:  CALL   4286
0B260:  MOVLW  22
0B262:  BTFSS  F9E.4
0B264:  BRA    B262
0B266:  MOVWF  FAD
....................          SendDataDisplay(); 
0B268:  CALL   355A
....................          if(RX_Buffer[4]==0x0a || UP){//Tecla Arriba Oprimida 
0B26C:  MOVF   34,W
0B26E:  SUBLW  0A
0B270:  BZ    B278
0B272:  BSF    F93.0
0B274:  BTFSC  F81.0
0B276:  BRA    B29A
....................             delay_ms(20); 
0B278:  MOVLW  14
0B27A:  MOVLB  3
0B27C:  MOVWF  xFB
0B27E:  MOVLB  0
0B280:  CALL   17AE
....................             if(RX_Buffer[4]==0x0a || UP){ 
0B284:  MOVF   34,W
0B286:  SUBLW  0A
0B288:  BZ    B290
0B28A:  BSF    F93.0
0B28C:  BTFSC  F81.0
0B28E:  BRA    B29A
....................                Integral++; 
0B290:  MOVLB  3
0B292:  INCF   x33,F
....................                RX_Buffer[4]=0x00;   
0B294:  CLRF   34
....................                RX_Buffer2[4]=0x00;             
0B296:  CLRF   3F
0B298:  MOVLB  0
....................                //BorraBuffer(); 
....................             } 
....................          } 
....................              
....................          if(RX_Buffer[4]==0x0b || DOWN){//Tecla Abajo Oprimida 
0B29A:  MOVF   34,W
0B29C:  SUBLW  0B
0B29E:  BZ    B2A6
0B2A0:  BSF    F93.1
0B2A2:  BTFSC  F81.1
0B2A4:  BRA    B2C8
....................             delay_ms(20); 
0B2A6:  MOVLW  14
0B2A8:  MOVLB  3
0B2AA:  MOVWF  xFB
0B2AC:  MOVLB  0
0B2AE:  CALL   17AE
....................             if(RX_Buffer[4]==0x0b || DOWN){ 
0B2B2:  MOVF   34,W
0B2B4:  SUBLW  0B
0B2B6:  BZ    B2BE
0B2B8:  BSF    F93.1
0B2BA:  BTFSC  F81.1
0B2BC:  BRA    B2C8
....................                Integral--; 
0B2BE:  MOVLB  3
0B2C0:  DECF   x33,F
....................                RX_Buffer[4]=0x00; 
0B2C2:  CLRF   34
....................                RX_Buffer2[4]=0x00;             
0B2C4:  CLRF   3F
0B2C6:  MOVLB  0
....................                //BorraBuffer(); 
....................             } 
....................          } 
....................           
....................          if(Integral>40) 
0B2C8:  MOVLB  3
0B2CA:  MOVF   x33,W
0B2CC:  SUBLW  28
0B2CE:  BC    B2D4
....................             Integral=1; 
0B2D0:  MOVLW  01
0B2D2:  MOVWF  x33
....................          if(Integral<1) 
0B2D4:  MOVF   x33,F
0B2D6:  BNZ   B2DC
....................             Integral=40; 
0B2D8:  MOVLW  28
0B2DA:  MOVWF  x33
....................       }else if(Opcion2==4){ 
0B2DC:  BRA    B998
0B2DE:  MOVF   x5E,W
0B2E0:  SUBLW  04
0B2E2:  BTFSS  FD8.2
0B2E4:  BRA    B468
....................          printf("Config.t2c.txt=\"Tciclo\""); 
0B2E6:  MOVLW  10
0B2E8:  MOVWF  FF6
0B2EA:  MOVLW  16
0B2EC:  MOVWF  FF7
0B2EE:  MOVLW  00
0B2F0:  MOVWF  FF8
0B2F2:  MOVLB  0
0B2F4:  CALL   3528
....................          SendDataDisplay();       
0B2F8:  CALL   355A
....................          printf("t3c.txt=\"%2.0f\"",Tciclo); 
0B2FC:  MOVLW  28
0B2FE:  MOVWF  FF6
0B300:  MOVLW  16
0B302:  MOVWF  FF7
0B304:  MOVLW  00
0B306:  MOVWF  FF8
0B308:  MOVLW  09
0B30A:  MOVLB  3
0B30C:  MOVWF  xEA
0B30E:  MOVLB  0
0B310:  CALL   4228
0B314:  MOVLW  01
0B316:  MOVWF  FE9
0B318:  MOVFF  2EA,3ED
0B31C:  MOVFF  2E9,3EC
0B320:  MOVFF  2E8,3EB
0B324:  MOVFF  2E7,3EA
0B328:  MOVLB  3
0B32A:  CLRF   xEE
0B32C:  MOVLB  0
0B32E:  CALL   4400
0B332:  MOVLW  22
0B334:  BTFSS  F9E.4
0B336:  BRA    B334
0B338:  MOVWF  FAD
....................          SendDataDisplay(); 
0B33A:  CALL   355A
....................          if(RX_Buffer[4]==0x0a || UP){//Tecla Arriba Oprimida 
0B33E:  MOVF   34,W
0B340:  SUBLW  0A
0B342:  BZ    B34A
0B344:  BSF    F93.0
0B346:  BTFSC  F81.0
0B348:  BRA    B39C
....................             delay_ms(20); 
0B34A:  MOVLW  14
0B34C:  MOVLB  3
0B34E:  MOVWF  xFB
0B350:  MOVLB  0
0B352:  CALL   17AE
....................             if(RX_Buffer[4]==0x0a || UP){ 
0B356:  MOVF   34,W
0B358:  SUBLW  0A
0B35A:  BZ    B362
0B35C:  BSF    F93.0
0B35E:  BTFSC  F81.0
0B360:  BRA    B39C
....................                Tciclo+=1.0; 
0B362:  BCF    FD8.1
0B364:  MOVFF  2EA,3FE
0B368:  MOVFF  2E9,3FD
0B36C:  MOVFF  2E8,3FC
0B370:  MOVFF  2E7,3FB
0B374:  MOVLB  4
0B376:  CLRF   x02
0B378:  CLRF   x01
0B37A:  CLRF   x00
0B37C:  MOVLW  7F
0B37E:  MOVLB  3
0B380:  MOVWF  xFF
0B382:  MOVLB  0
0B384:  CALL   196A
0B388:  MOVFF  03,2EA
0B38C:  MOVFF  02,2E9
0B390:  MOVFF  01,2E8
0B394:  MOVFF  00,2E7
....................                RX_Buffer[4]=0x00;   
0B398:  CLRF   34
....................                RX_Buffer2[4]=0x00;             
0B39A:  CLRF   3F
....................                //BorraBuffer(); 
....................             } 
....................          } 
....................              
....................          if(RX_Buffer[4]==0x0b || DOWN){//Tecla Abajo Oprimida 
0B39C:  MOVF   34,W
0B39E:  SUBLW  0B
0B3A0:  BZ    B3A8
0B3A2:  BSF    F93.1
0B3A4:  BTFSC  F81.1
0B3A6:  BRA    B3FA
....................             delay_ms(20); 
0B3A8:  MOVLW  14
0B3AA:  MOVLB  3
0B3AC:  MOVWF  xFB
0B3AE:  MOVLB  0
0B3B0:  CALL   17AE
....................             if(RX_Buffer[4]==0x0b || DOWN){ 
0B3B4:  MOVF   34,W
0B3B6:  SUBLW  0B
0B3B8:  BZ    B3C0
0B3BA:  BSF    F93.1
0B3BC:  BTFSC  F81.1
0B3BE:  BRA    B3FA
....................                Tciclo-=1.0; 
0B3C0:  BSF    FD8.1
0B3C2:  MOVFF  2EA,3FE
0B3C6:  MOVFF  2E9,3FD
0B3CA:  MOVFF  2E8,3FC
0B3CE:  MOVFF  2E7,3FB
0B3D2:  MOVLB  4
0B3D4:  CLRF   x02
0B3D6:  CLRF   x01
0B3D8:  CLRF   x00
0B3DA:  MOVLW  7F
0B3DC:  MOVLB  3
0B3DE:  MOVWF  xFF
0B3E0:  MOVLB  0
0B3E2:  CALL   196A
0B3E6:  MOVFF  03,2EA
0B3EA:  MOVFF  02,2E9
0B3EE:  MOVFF  01,2E8
0B3F2:  MOVFF  00,2E7
....................                RX_Buffer[4]=0x00; 
0B3F6:  CLRF   34
....................                RX_Buffer2[4]=0x00;             
0B3F8:  CLRF   3F
....................                //BorraBuffer(); 
....................             } 
....................          } 
....................           
....................          if(Tciclo>20) 
0B3FA:  MOVLB  3
0B3FC:  CLRF   xF1
0B3FE:  CLRF   xF0
0B400:  MOVLW  20
0B402:  MOVWF  xEF
0B404:  MOVLW  83
0B406:  MOVWF  xEE
0B408:  MOVFF  2EA,3F5
0B40C:  MOVFF  2E9,3F4
0B410:  MOVFF  2E8,3F3
0B414:  MOVFF  2E7,3F2
0B418:  MOVLB  0
0B41A:  CALL   29F4
0B41E:  BNC   B42E
....................             Tciclo=5; 
0B420:  MOVLB  2
0B422:  CLRF   xEA
0B424:  CLRF   xE9
0B426:  MOVLW  20
0B428:  MOVWF  xE8
0B42A:  MOVLW  81
0B42C:  MOVWF  xE7
....................          if(Tciclo<5) 
0B42E:  MOVFF  2EA,3F1
0B432:  MOVFF  2E9,3F0
0B436:  MOVFF  2E8,3EF
0B43A:  MOVFF  2E7,3EE
0B43E:  MOVLB  3
0B440:  CLRF   xF5
0B442:  CLRF   xF4
0B444:  MOVLW  20
0B446:  MOVWF  xF3
0B448:  MOVLW  81
0B44A:  MOVWF  xF2
0B44C:  MOVLB  0
0B44E:  CALL   29F4
0B452:  BNC   B464
....................             Tciclo=20; 
0B454:  MOVLB  2
0B456:  CLRF   xEA
0B458:  CLRF   xE9
0B45A:  MOVLW  20
0B45C:  MOVWF  xE8
0B45E:  MOVLW  83
0B460:  MOVWF  xE7
0B462:  MOVLB  0
....................       }else if(Opcion2==5){ 
0B464:  BRA    B996
0B466:  MOVLB  3
0B468:  MOVF   x5E,W
0B46A:  SUBLW  05
0B46C:  BNZ   B522
....................          printf("Config.t2c.txt=\"Ajuste +\""); 
0B46E:  MOVLW  38
0B470:  MOVWF  FF6
0B472:  MOVLW  16
0B474:  MOVWF  FF7
0B476:  MOVLW  00
0B478:  MOVWF  FF8
0B47A:  MOVLB  0
0B47C:  CALL   3528
....................          SendDataDisplay();       
0B480:  CALL   355A
....................          printf("t3c.txt=\"%u\"",Ajuste); 
0B484:  MOVLW  52
0B486:  MOVWF  FF6
0B488:  MOVLW  16
0B48A:  MOVWF  FF7
0B48C:  MOVLW  00
0B48E:  MOVWF  FF8
0B490:  MOVLW  09
0B492:  MOVLB  3
0B494:  MOVWF  xEA
0B496:  MOVLB  0
0B498:  CALL   4228
0B49C:  MOVFF  2D6,3E8
0B4A0:  MOVLW  1B
0B4A2:  MOVLB  3
0B4A4:  MOVWF  xE9
0B4A6:  MOVLB  0
0B4A8:  CALL   4286
0B4AC:  MOVLW  22
0B4AE:  BTFSS  F9E.4
0B4B0:  BRA    B4AE
0B4B2:  MOVWF  FAD
....................          SendDataDisplay(); 
0B4B4:  CALL   355A
....................          if(RX_Buffer[4]==0x0a || UP){//Tecla Arriba Oprimida 
0B4B8:  MOVF   34,W
0B4BA:  SUBLW  0A
0B4BC:  BZ    B4C4
0B4BE:  BSF    F93.0
0B4C0:  BTFSC  F81.0
0B4C2:  BRA    B4EC
....................             delay_ms(20); 
0B4C4:  MOVLW  14
0B4C6:  MOVLB  3
0B4C8:  MOVWF  xFB
0B4CA:  MOVLB  0
0B4CC:  CALL   17AE
....................             if(RX_Buffer[4]==0x0a || UP){ 
0B4D0:  MOVF   34,W
0B4D2:  SUBLW  0A
0B4D4:  BZ    B4DC
0B4D6:  BSF    F93.0
0B4D8:  BTFSC  F81.0
0B4DA:  BRA    B4EC
....................                if(Ajuste<40) 
0B4DC:  MOVLB  2
0B4DE:  MOVF   xD6,W
0B4E0:  SUBLW  27
0B4E2:  BNC   B4E6
....................                   Ajuste++; 
0B4E4:  INCF   xD6,F
....................                RX_Buffer[4]=0x00;   
0B4E6:  CLRF   34
....................                RX_Buffer2[4]=0x00;             
0B4E8:  CLRF   3F
0B4EA:  MOVLB  0
....................                //BorraBuffer(); 
....................             } 
....................          } 
....................              
....................          if(RX_Buffer[4]==0x0b || DOWN){//Tecla Abajo Oprimida 
0B4EC:  MOVF   34,W
0B4EE:  SUBLW  0B
0B4F0:  BZ    B4F8
0B4F2:  BSF    F93.1
0B4F4:  BTFSC  F81.1
0B4F6:  BRA    B51E
....................             delay_ms(20); 
0B4F8:  MOVLW  14
0B4FA:  MOVLB  3
0B4FC:  MOVWF  xFB
0B4FE:  MOVLB  0
0B500:  CALL   17AE
....................             if(RX_Buffer[4]==0x0b || DOWN){ 
0B504:  MOVF   34,W
0B506:  SUBLW  0B
0B508:  BZ    B510
0B50A:  BSF    F93.1
0B50C:  BTFSC  F81.1
0B50E:  BRA    B51E
....................                if(Ajuste>0) 
0B510:  MOVLB  2
0B512:  MOVF   xD6,F
0B514:  BZ    B518
....................                   Ajuste--; 
0B516:  DECF   xD6,F
....................                RX_Buffer[4]=0x00; 
0B518:  CLRF   34
....................                RX_Buffer2[4]=0x00;             
0B51A:  CLRF   3F
0B51C:  MOVLB  0
....................                //BorraBuffer(); 
....................             } 
....................          } 
....................       }else if(Opcion2==6){ 
0B51E:  BRA    B996
0B520:  MOVLB  3
0B522:  MOVF   x5E,W
0B524:  SUBLW  06
0B526:  BNZ   B5DC
....................          printf("Config.t2c.txt=\"Ajuste -\""); 
0B528:  MOVLW  60
0B52A:  MOVWF  FF6
0B52C:  MOVLW  16
0B52E:  MOVWF  FF7
0B530:  MOVLW  00
0B532:  MOVWF  FF8
0B534:  MOVLB  0
0B536:  CALL   3528
....................          SendDataDisplay();       
0B53A:  CALL   355A
....................          printf("t3c.txt=\"%u\"",Ajusten); 
0B53E:  MOVLW  7A
0B540:  MOVWF  FF6
0B542:  MOVLW  16
0B544:  MOVWF  FF7
0B546:  MOVLW  00
0B548:  MOVWF  FF8
0B54A:  MOVLW  09
0B54C:  MOVLB  3
0B54E:  MOVWF  xEA
0B550:  MOVLB  0
0B552:  CALL   4228
0B556:  MOVFF  2D7,3E8
0B55A:  MOVLW  1B
0B55C:  MOVLB  3
0B55E:  MOVWF  xE9
0B560:  MOVLB  0
0B562:  CALL   4286
0B566:  MOVLW  22
0B568:  BTFSS  F9E.4
0B56A:  BRA    B568
0B56C:  MOVWF  FAD
....................          SendDataDisplay(); 
0B56E:  CALL   355A
....................          if(RX_Buffer[4]==0x0a || UP){//Tecla Arriba Oprimida 
0B572:  MOVF   34,W
0B574:  SUBLW  0A
0B576:  BZ    B57E
0B578:  BSF    F93.0
0B57A:  BTFSC  F81.0
0B57C:  BRA    B5A6
....................             delay_ms(20); 
0B57E:  MOVLW  14
0B580:  MOVLB  3
0B582:  MOVWF  xFB
0B584:  MOVLB  0
0B586:  CALL   17AE
....................             if(RX_Buffer[4]==0x0a || UP){ 
0B58A:  MOVF   34,W
0B58C:  SUBLW  0A
0B58E:  BZ    B596
0B590:  BSF    F93.0
0B592:  BTFSC  F81.0
0B594:  BRA    B5A6
....................                if(Ajusten<40) 
0B596:  MOVLB  2
0B598:  MOVF   xD7,W
0B59A:  SUBLW  27
0B59C:  BNC   B5A0
....................                   Ajusten++; 
0B59E:  INCF   xD7,F
....................                RX_Buffer[4]=0x00;   
0B5A0:  CLRF   34
....................                RX_Buffer2[4]=0x00;             
0B5A2:  CLRF   3F
0B5A4:  MOVLB  0
....................                //BorraBuffer(); 
....................             } 
....................          } 
....................              
....................          if(RX_Buffer[4]==0x0b || DOWN){//Tecla Abajo Oprimida 
0B5A6:  MOVF   34,W
0B5A8:  SUBLW  0B
0B5AA:  BZ    B5B2
0B5AC:  BSF    F93.1
0B5AE:  BTFSC  F81.1
0B5B0:  BRA    B5D8
....................             delay_ms(20); 
0B5B2:  MOVLW  14
0B5B4:  MOVLB  3
0B5B6:  MOVWF  xFB
0B5B8:  MOVLB  0
0B5BA:  CALL   17AE
....................             if(RX_Buffer[4]==0x0b || DOWN){ 
0B5BE:  MOVF   34,W
0B5C0:  SUBLW  0B
0B5C2:  BZ    B5CA
0B5C4:  BSF    F93.1
0B5C6:  BTFSC  F81.1
0B5C8:  BRA    B5D8
....................                if(Ajusten>0) 
0B5CA:  MOVLB  2
0B5CC:  MOVF   xD7,F
0B5CE:  BZ    B5D2
....................                   Ajusten--; 
0B5D0:  DECF   xD7,F
....................                RX_Buffer[4]=0x00; 
0B5D2:  CLRF   34
....................                RX_Buffer2[4]=0x00;             
0B5D4:  CLRF   3F
0B5D6:  MOVLB  0
....................                //BorraBuffer(); 
....................             } 
....................          } 
....................       }else if(Opcion2==7){ 
0B5D8:  BRA    B996
0B5DA:  MOVLB  3
0B5DC:  MOVF   x5E,W
0B5DE:  SUBLW  07
0B5E0:  BNZ   B698
....................          printf("Config.t2c.txt=\"Media\""); 
0B5E2:  MOVLW  88
0B5E4:  MOVWF  FF6
0B5E6:  MOVLW  16
0B5E8:  MOVWF  FF7
0B5EA:  MOVLW  00
0B5EC:  MOVWF  FF8
0B5EE:  MOVLB  0
0B5F0:  CALL   3528
....................          SendDataDisplay();       
0B5F4:  CALL   355A
....................          printf("t3c.txt=\"%u\"",MediaMovil); 
0B5F8:  MOVLW  A0
0B5FA:  MOVWF  FF6
0B5FC:  MOVLW  16
0B5FE:  MOVWF  FF7
0B600:  MOVLW  00
0B602:  MOVWF  FF8
0B604:  MOVLW  09
0B606:  MOVLB  3
0B608:  MOVWF  xEA
0B60A:  MOVLB  0
0B60C:  CALL   4228
0B610:  MOVFF  2D8,3E8
0B614:  MOVLW  1B
0B616:  MOVLB  3
0B618:  MOVWF  xE9
0B61A:  MOVLB  0
0B61C:  CALL   4286
0B620:  MOVLW  22
0B622:  BTFSS  F9E.4
0B624:  BRA    B622
0B626:  MOVWF  FAD
....................          SendDataDisplay(); 
0B628:  CALL   355A
....................          if(RX_Buffer[4]==0x0a || UP){//Tecla Arriba Oprimida 
0B62C:  MOVF   34,W
0B62E:  SUBLW  0A
0B630:  BZ    B638
0B632:  BSF    F93.0
0B634:  BTFSC  F81.0
0B636:  BRA    B660
....................             delay_ms(20); 
0B638:  MOVLW  14
0B63A:  MOVLB  3
0B63C:  MOVWF  xFB
0B63E:  MOVLB  0
0B640:  CALL   17AE
....................             if(RX_Buffer[4]==0x0a || UP){ 
0B644:  MOVF   34,W
0B646:  SUBLW  0A
0B648:  BZ    B650
0B64A:  BSF    F93.0
0B64C:  BTFSC  F81.0
0B64E:  BRA    B660
....................                if(MediaMovil<80) 
0B650:  MOVLB  2
0B652:  MOVF   xD8,W
0B654:  SUBLW  4F
0B656:  BNC   B65A
....................                   MediaMovil++; 
0B658:  INCF   xD8,F
....................                RX_Buffer[4]=0x00;   
0B65A:  CLRF   34
....................                RX_Buffer2[4]=0x00;             
0B65C:  CLRF   3F
0B65E:  MOVLB  0
....................                //BorraBuffer(); 
....................             } 
....................          } 
....................              
....................          if(RX_Buffer[4]==0x0b || DOWN){//Tecla Abajo Oprimida 
0B660:  MOVF   34,W
0B662:  SUBLW  0B
0B664:  BZ    B66C
0B666:  BSF    F93.1
0B668:  BTFSC  F81.1
0B66A:  BRA    B694
....................             delay_ms(20); 
0B66C:  MOVLW  14
0B66E:  MOVLB  3
0B670:  MOVWF  xFB
0B672:  MOVLB  0
0B674:  CALL   17AE
....................             if(RX_Buffer[4]==0x0b || DOWN){ 
0B678:  MOVF   34,W
0B67A:  SUBLW  0B
0B67C:  BZ    B684
0B67E:  BSF    F93.1
0B680:  BTFSC  F81.1
0B682:  BRA    B694
....................                if(MediaMovil>10) 
0B684:  MOVLB  2
0B686:  MOVF   xD8,W
0B688:  SUBLW  0A
0B68A:  BC    B68E
....................                   MediaMovil--; 
0B68C:  DECF   xD8,F
....................                RX_Buffer[4]=0x00; 
0B68E:  CLRF   34
....................                RX_Buffer2[4]=0x00;             
0B690:  CLRF   3F
0B692:  MOVLB  0
....................                //BorraBuffer(); 
....................             } 
....................          } 
....................       }else if(Opcion2==8){ 
0B694:  BRA    B996
0B696:  MOVLB  3
0B698:  MOVF   x5E,W
0B69A:  SUBLW  08
0B69C:  BTFSS  FD8.2
0B69E:  BRA    B80A
....................          printf("Config.t2c.txt=\"RPT100B\""); 
0B6A0:  MOVLW  AE
0B6A2:  MOVWF  FF6
0B6A4:  MOVLW  16
0B6A6:  MOVWF  FF7
0B6A8:  MOVLW  00
0B6AA:  MOVWF  FF8
0B6AC:  MOVLB  0
0B6AE:  CALL   3528
....................          SendDataDisplay();       
0B6B2:  CALL   355A
....................          printf("t3c.txt=\"%2.1f\"",RPT100); 
0B6B6:  MOVLW  C8
0B6B8:  MOVWF  FF6
0B6BA:  MOVLW  16
0B6BC:  MOVWF  FF7
0B6BE:  MOVLW  00
0B6C0:  MOVWF  FF8
0B6C2:  MOVLW  09
0B6C4:  MOVLB  3
0B6C6:  MOVWF  xEA
0B6C8:  MOVLB  0
0B6CA:  CALL   4228
0B6CE:  MOVLW  01
0B6D0:  MOVWF  FE9
0B6D2:  MOVFF  2A7,3ED
0B6D6:  MOVFF  2A6,3EC
0B6DA:  MOVFF  2A5,3EB
0B6DE:  MOVFF  2A4,3EA
0B6E2:  MOVLB  3
0B6E4:  MOVWF  xEE
0B6E6:  MOVLB  0
0B6E8:  CALL   4400
0B6EC:  MOVLW  22
0B6EE:  BTFSS  F9E.4
0B6F0:  BRA    B6EE
0B6F2:  MOVWF  FAD
....................          SendDataDisplay(); 
0B6F4:  CALL   355A
....................          if(RX_Buffer[4]==0x0a || UP){//Tecla Arriba Oprimida 
0B6F8:  MOVF   34,W
0B6FA:  SUBLW  0A
0B6FC:  BZ    B704
0B6FE:  BSF    F93.0
0B700:  BTFSC  F81.0
0B702:  BRA    B780
....................             delay_ms(20); 
0B704:  MOVLW  14
0B706:  MOVLB  3
0B708:  MOVWF  xFB
0B70A:  MOVLB  0
0B70C:  CALL   17AE
....................             if(RX_Buffer[4]==0x0a || UP){ 
0B710:  MOVF   34,W
0B712:  SUBLW  0A
0B714:  BZ    B71C
0B716:  BSF    F93.0
0B718:  BTFSC  F81.0
0B71A:  BRA    B780
....................                if(RPT100<2.0) 
0B71C:  MOVFF  2A7,3F1
0B720:  MOVFF  2A6,3F0
0B724:  MOVFF  2A5,3EF
0B728:  MOVFF  2A4,3EE
0B72C:  MOVLB  3
0B72E:  CLRF   xF5
0B730:  CLRF   xF4
0B732:  CLRF   xF3
0B734:  MOVLW  80
0B736:  MOVWF  xF2
0B738:  MOVLB  0
0B73A:  CALL   29F4
0B73E:  BNC   B77C
....................                   RPT100+=0.1; 
0B740:  BCF    FD8.1
0B742:  MOVFF  2A7,3FE
0B746:  MOVFF  2A6,3FD
0B74A:  MOVFF  2A5,3FC
0B74E:  MOVFF  2A4,3FB
0B752:  MOVLW  CD
0B754:  MOVLB  4
0B756:  MOVWF  x02
0B758:  MOVLW  CC
0B75A:  MOVWF  x01
0B75C:  MOVLW  4C
0B75E:  MOVWF  x00
0B760:  MOVLW  7B
0B762:  MOVLB  3
0B764:  MOVWF  xFF
0B766:  MOVLB  0
0B768:  CALL   196A
0B76C:  MOVFF  03,2A7
0B770:  MOVFF  02,2A6
0B774:  MOVFF  01,2A5
0B778:  MOVFF  00,2A4
....................                RX_Buffer[4]=0x00;   
0B77C:  CLRF   34
....................                RX_Buffer2[4]=0x00;             
0B77E:  CLRF   3F
....................                //BorraBuffer(); 
....................             } 
....................          } 
....................              
....................          if(RX_Buffer[4]==0x0b || DOWN){//Tecla Abajo Oprimida 
0B780:  MOVF   34,W
0B782:  SUBLW  0B
0B784:  BZ    B78C
0B786:  BSF    F93.1
0B788:  BTFSC  F81.1
0B78A:  BRA    B806
....................             delay_ms(20); 
0B78C:  MOVLW  14
0B78E:  MOVLB  3
0B790:  MOVWF  xFB
0B792:  MOVLB  0
0B794:  CALL   17AE
....................             if(RX_Buffer[4]==0x0b || DOWN){ 
0B798:  MOVF   34,W
0B79A:  SUBLW  0B
0B79C:  BZ    B7A4
0B79E:  BSF    F93.1
0B7A0:  BTFSC  F81.1
0B7A2:  BRA    B806
....................                if(RPT100>0.0) 
0B7A4:  MOVLB  3
0B7A6:  CLRF   xF1
0B7A8:  CLRF   xF0
0B7AA:  CLRF   xEF
0B7AC:  CLRF   xEE
0B7AE:  MOVFF  2A7,3F5
0B7B2:  MOVFF  2A6,3F4
0B7B6:  MOVFF  2A5,3F3
0B7BA:  MOVFF  2A4,3F2
0B7BE:  MOVLB  0
0B7C0:  CALL   29F4
0B7C4:  BNC   B802
....................                   RPT100-=0.1; 
0B7C6:  BSF    FD8.1
0B7C8:  MOVFF  2A7,3FE
0B7CC:  MOVFF  2A6,3FD
0B7D0:  MOVFF  2A5,3FC
0B7D4:  MOVFF  2A4,3FB
0B7D8:  MOVLW  CD
0B7DA:  MOVLB  4
0B7DC:  MOVWF  x02
0B7DE:  MOVLW  CC
0B7E0:  MOVWF  x01
0B7E2:  MOVLW  4C
0B7E4:  MOVWF  x00
0B7E6:  MOVLW  7B
0B7E8:  MOVLB  3
0B7EA:  MOVWF  xFF
0B7EC:  MOVLB  0
0B7EE:  CALL   196A
0B7F2:  MOVFF  03,2A7
0B7F6:  MOVFF  02,2A6
0B7FA:  MOVFF  01,2A5
0B7FE:  MOVFF  00,2A4
....................                RX_Buffer[4]=0x00; 
0B802:  CLRF   34
....................                RX_Buffer2[4]=0x00;             
0B804:  CLRF   3F
....................                //BorraBuffer(); 
....................             } 
....................          } 
....................       }else if(Opcion2==9){ 
0B806:  BRA    B996
0B808:  MOVLB  3
0B80A:  MOVF   x5E,W
0B80C:  SUBLW  09
0B80E:  BNZ   B8C6
....................          printf("Config.t2c.txt=\"TTrampa\""); 
0B810:  MOVLW  D8
0B812:  MOVWF  FF6
0B814:  MOVLW  16
0B816:  MOVWF  FF7
0B818:  MOVLW  00
0B81A:  MOVWF  FF8
0B81C:  MOVLB  0
0B81E:  CALL   3528
....................          SendDataDisplay();       
0B822:  CALL   355A
....................          printf("t3c.txt=\"%02u\"",TTrampa); 
0B826:  MOVLW  F2
0B828:  MOVWF  FF6
0B82A:  MOVLW  16
0B82C:  MOVWF  FF7
0B82E:  MOVLW  00
0B830:  MOVWF  FF8
0B832:  MOVLW  09
0B834:  MOVLB  3
0B836:  MOVWF  xEA
0B838:  MOVLB  0
0B83A:  CALL   4228
0B83E:  MOVFF  2D9,3E8
0B842:  MOVLW  01
0B844:  MOVLB  3
0B846:  MOVWF  xE9
0B848:  MOVLB  0
0B84A:  CALL   4286
0B84E:  MOVLW  22
0B850:  BTFSS  F9E.4
0B852:  BRA    B850
0B854:  MOVWF  FAD
....................          SendDataDisplay(); 
0B856:  CALL   355A
....................          if(RX_Buffer[4]==0x0a || UP){//Tecla Arriba Oprimida 
0B85A:  MOVF   34,W
0B85C:  SUBLW  0A
0B85E:  BZ    B866
0B860:  BSF    F93.0
0B862:  BTFSC  F81.0
0B864:  BRA    B88E
....................             delay_ms(20); 
0B866:  MOVLW  14
0B868:  MOVLB  3
0B86A:  MOVWF  xFB
0B86C:  MOVLB  0
0B86E:  CALL   17AE
....................             if(RX_Buffer[4]==0x0a || UP){ 
0B872:  MOVF   34,W
0B874:  SUBLW  0A
0B876:  BZ    B87E
0B878:  BSF    F93.0
0B87A:  BTFSC  F81.0
0B87C:  BRA    B88E
....................                if(TTrampa<100) 
0B87E:  MOVLB  2
0B880:  MOVF   xD9,W
0B882:  SUBLW  63
0B884:  BNC   B888
....................                   TTrampa++; 
0B886:  INCF   xD9,F
....................                RX_Buffer[4]=0x00;   
0B888:  CLRF   34
....................                RX_Buffer2[4]=0x00;             
0B88A:  CLRF   3F
0B88C:  MOVLB  0
....................                //BorraBuffer(); 
....................             } 
....................          } 
....................              
....................          if(RX_Buffer[4]==0x0b || DOWN){//Tecla Abajo Oprimida 
0B88E:  MOVF   34,W
0B890:  SUBLW  0B
0B892:  BZ    B89A
0B894:  BSF    F93.1
0B896:  BTFSC  F81.1
0B898:  BRA    B8C2
....................             delay_ms(20); 
0B89A:  MOVLW  14
0B89C:  MOVLB  3
0B89E:  MOVWF  xFB
0B8A0:  MOVLB  0
0B8A2:  CALL   17AE
....................             if(RX_Buffer[4]==0x0b || DOWN){ 
0B8A6:  MOVF   34,W
0B8A8:  SUBLW  0B
0B8AA:  BZ    B8B2
0B8AC:  BSF    F93.1
0B8AE:  BTFSC  F81.1
0B8B0:  BRA    B8C2
....................                if(TTrampa>50) 
0B8B2:  MOVLB  2
0B8B4:  MOVF   xD9,W
0B8B6:  SUBLW  32
0B8B8:  BC    B8BC
....................                   TTrampa--; 
0B8BA:  DECF   xD9,F
....................                RX_Buffer[4]=0x00; 
0B8BC:  CLRF   34
....................                RX_Buffer2[4]=0x00;             
0B8BE:  CLRF   3F
0B8C0:  MOVLB  0
....................                //BorraBuffer(); 
....................             } 
....................          } 
....................       }else if(Opcion2==10){ 
0B8C2:  BRA    B996
0B8C4:  MOVLB  3
0B8C6:  MOVF   x5E,W
0B8C8:  SUBLW  0A
0B8CA:  BNZ   B91A
....................          printf("Config.t2c.txt=\"Ciclos\""); 
0B8CC:  MOVLW  02
0B8CE:  MOVWF  FF6
0B8D0:  MOVLW  17
0B8D2:  MOVWF  FF7
0B8D4:  MOVLW  00
0B8D6:  MOVWF  FF8
0B8D8:  MOVLB  0
0B8DA:  CALL   3528
....................          SendDataDisplay();       
0B8DE:  CALL   355A
....................          printf("t3c.txt=\"%05Lu\"",Ciclos); 
0B8E2:  MOVLW  1A
0B8E4:  MOVWF  FF6
0B8E6:  MOVLW  17
0B8E8:  MOVWF  FF7
0B8EA:  MOVLW  00
0B8EC:  MOVWF  FF8
0B8EE:  MOVLW  09
0B8F0:  MOVLB  3
0B8F2:  MOVWF  xEA
0B8F4:  MOVLB  0
0B8F6:  CALL   4228
0B8FA:  MOVLW  08
0B8FC:  MOVWF  FE9
0B8FE:  MOVFF  373,3EB
0B902:  MOVFF  372,3EA
0B906:  CALL   4628
0B90A:  MOVLW  22
0B90C:  BTFSS  F9E.4
0B90E:  BRA    B90C
0B910:  MOVWF  FAD
....................          SendDataDisplay(); 
0B912:  CALL   355A
....................       }else if(Opcion2==11){ 
0B916:  BRA    B996
0B918:  MOVLB  3
0B91A:  MOVF   x5E,W
0B91C:  SUBLW  0B
0B91E:  BNZ   B998
....................          printf("Config.t2c.txt=\"Atmosferica\""); 
0B920:  MOVLW  2A
0B922:  MOVWF  FF6
0B924:  MOVLW  17
0B926:  MOVWF  FF7
0B928:  MOVLW  00
0B92A:  MOVWF  FF8
0B92C:  MOVLB  0
0B92E:  CALL   3528
....................          SendDataDisplay();       
0B932:  CALL   355A
....................          printf("t3c.txt=\"%03u\"",Atmosferica); 
0B936:  MOVLW  48
0B938:  MOVWF  FF6
0B93A:  MOVLW  17
0B93C:  MOVWF  FF7
0B93E:  MOVLW  00
0B940:  MOVWF  FF8
0B942:  MOVLW  09
0B944:  MOVLB  3
0B946:  MOVWF  xEA
0B948:  MOVLB  0
0B94A:  CALL   4228
0B94E:  MOVFF  2DE,3E8
0B952:  MOVLW  03
0B954:  MOVLB  3
0B956:  MOVWF  xE9
0B958:  MOVLB  0
0B95A:  CALL   4286
0B95E:  MOVLW  22
0B960:  BTFSS  F9E.4
0B962:  BRA    B960
0B964:  MOVWF  FAD
....................          SendDataDisplay(); 
0B966:  CALL   355A
....................          if(RX_Buffer[4]==0x0a){//Tecla Arriba Oprimida 
0B96A:  MOVF   34,W
0B96C:  SUBLW  0A
0B96E:  BNZ   B980
....................                if(Atmosferica<100) 
0B970:  MOVLB  2
0B972:  MOVF   xDE,W
0B974:  SUBLW  63
0B976:  BNC   B97A
....................                   ++Atmosferica; 
0B978:  INCF   xDE,F
....................                RX_Buffer[4]=0x00;   
0B97A:  CLRF   34
....................                RX_Buffer2[4]=0x00;             
0B97C:  CLRF   3F
0B97E:  MOVLB  0
....................                //BorraBuffer(); 
....................          } 
....................              
....................          if(RX_Buffer[4]==0x0b){//Tecla Abajo Oprimida 
0B980:  MOVF   34,W
0B982:  SUBLW  0B
0B984:  BNZ   B996
....................                if(Atmosferica>60) 
0B986:  MOVLB  2
0B988:  MOVF   xDE,W
0B98A:  SUBLW  3C
0B98C:  BC    B990
....................                   --Atmosferica; 
0B98E:  DECF   xDE,F
....................                RX_Buffer[4]=0x00; 
0B990:  CLRF   34
....................                RX_Buffer2[4]=0x00;             
0B992:  CLRF   3F
0B994:  MOVLB  0
0B996:  MOVLB  3
....................                //BorraBuffer(); 
....................          } 
....................       } 
....................        
....................       if(RX_Buffer[4]==0x0c || LEFT){//Tecla Izquierda Oprimida 
0B998:  MOVF   34,W
0B99A:  SUBLW  0C
0B99C:  BZ    B9A4
0B99E:  BSF    F93.3
0B9A0:  BTFSC  F81.3
0B9A2:  BRA    B9C2
....................          delay_ms(20); 
0B9A4:  MOVLW  14
0B9A6:  MOVWF  xFB
0B9A8:  MOVLB  0
0B9AA:  CALL   17AE
....................          if(RX_Buffer[4]==0x0c || LEFT){ 
0B9AE:  MOVF   34,W
0B9B0:  SUBLW  0C
0B9B2:  BZ    B9BA
0B9B4:  BSF    F93.3
0B9B6:  BTFSC  F81.3
0B9B8:  BRA    B9C4
....................             Opcion2++; 
0B9BA:  MOVLB  3
0B9BC:  INCF   x5E,F
....................             RX_Buffer[4]=0x00;   
0B9BE:  CLRF   34
....................             RX_Buffer2[4]=0x00;             
0B9C0:  CLRF   3F
0B9C2:  MOVLB  0
....................             //BorraBuffer(); 
....................          } 
....................       } 
....................           
....................       if(RX_Buffer[4]==0x0d || RIGHT){//Tecla Derecha Oprimida 
0B9C4:  MOVF   34,W
0B9C6:  SUBLW  0D
0B9C8:  BZ    B9D0
0B9CA:  BSF    F93.2
0B9CC:  BTFSC  F81.2
0B9CE:  BRA    B9F2
....................          delay_ms(20); 
0B9D0:  MOVLW  14
0B9D2:  MOVLB  3
0B9D4:  MOVWF  xFB
0B9D6:  MOVLB  0
0B9D8:  CALL   17AE
....................          if(RX_Buffer[4]==0x0d || RIGHT){ 
0B9DC:  MOVF   34,W
0B9DE:  SUBLW  0D
0B9E0:  BZ    B9E8
0B9E2:  BSF    F93.2
0B9E4:  BTFSC  F81.2
0B9E6:  BRA    B9F2
....................             Opcion2--; 
0B9E8:  MOVLB  3
0B9EA:  DECF   x5E,F
....................             RX_Buffer[4]=0x00; 
0B9EC:  CLRF   34
....................             RX_Buffer2[4]=0x00;             
0B9EE:  CLRF   3F
0B9F0:  MOVLB  0
....................             //BorraBuffer(); 
....................          } 
....................       } 
....................        
....................       if(RX_Buffer[4]==0x11 || (RIGHT && LEFT)){//Tecla Regresar 
0B9F2:  MOVF   34,W
0B9F4:  SUBLW  11
0B9F6:  BZ    BA04
0B9F8:  BSF    F93.2
0B9FA:  BTFSC  F81.2
0B9FC:  BRA    BDA6
0B9FE:  BSF    F93.3
0BA00:  BTFSC  F81.3
0BA02:  BRA    BDA6
....................          delay_ms(20); 
0BA04:  MOVLW  14
0BA06:  MOVLB  3
0BA08:  MOVWF  xFB
0BA0A:  MOVLB  0
0BA0C:  CALL   17AE
....................          if(RX_Buffer[4]==0x11 || (RIGHT && LEFT)){ 
0BA10:  MOVF   34,W
0BA12:  SUBLW  11
0BA14:  BZ    BA22
0BA16:  BSF    F93.2
0BA18:  BTFSC  F81.2
0BA1A:  BRA    BDA6
0BA1C:  BSF    F93.3
0BA1E:  BTFSC  F81.3
0BA20:  BRA    BDA6
....................             if(!GuardaEEPROM){ 
0BA22:  BTFSC  xA2.3
0BA24:  BRA    BD92
....................                write_eeprom(20,(int8)Ganancia); 
0BA26:  MOVFF  302,3FE
0BA2A:  MOVFF  301,3FD
0BA2E:  MOVFF  300,3FC
0BA32:  MOVFF  2FF,3FB
0BA36:  CALL   3C6E
0BA3A:  MOVFF  01,3E6
0BA3E:  CLRF   FAA
0BA40:  MOVLW  14
0BA42:  MOVWF  FA9
0BA44:  MOVFF  3E6,FA8
0BA48:  BCF    FA6.6
0BA4A:  BCF    FA6.7
0BA4C:  BSF    FA6.2
0BA4E:  MOVF   FF2,W
0BA50:  MOVWF  00
0BA52:  BCF    FF2.6
0BA54:  BCF    FF2.7
0BA56:  MOVLB  F
0BA58:  MOVLW  55
0BA5A:  MOVWF  FA7
0BA5C:  MOVLW  AA
0BA5E:  MOVWF  FA7
0BA60:  BSF    FA6.1
0BA62:  BTFSC  FA6.1
0BA64:  BRA    BA62
0BA66:  BCF    FA6.2
0BA68:  MOVF   00,W
0BA6A:  IORWF  FF2,F
....................                delay_ms(10); 
0BA6C:  MOVLW  0A
0BA6E:  MOVLB  3
0BA70:  MOVWF  xFB
0BA72:  MOVLB  0
0BA74:  CALL   17AE
....................                write_eeprom(26,(int8)Integral); 
0BA78:  CLRF   FAA
0BA7A:  MOVLW  1A
0BA7C:  MOVWF  FA9
0BA7E:  MOVFF  333,FA8
0BA82:  BCF    FA6.6
0BA84:  BCF    FA6.7
0BA86:  BSF    FA6.2
0BA88:  MOVF   FF2,W
0BA8A:  MOVWF  00
0BA8C:  BCF    FF2.6
0BA8E:  BCF    FF2.7
0BA90:  MOVLB  F
0BA92:  MOVLW  55
0BA94:  MOVWF  FA7
0BA96:  MOVLW  AA
0BA98:  MOVWF  FA7
0BA9A:  BSF    FA6.1
0BA9C:  BTFSC  FA6.1
0BA9E:  BRA    BA9C
0BAA0:  BCF    FA6.2
0BAA2:  MOVF   00,W
0BAA4:  IORWF  FF2,F
....................                delay_ms(10); 
0BAA6:  MOVLW  0A
0BAA8:  MOVLB  3
0BAAA:  MOVWF  xFB
0BAAC:  MOVLB  0
0BAAE:  CALL   17AE
....................                write_eeprom(27,(int8)Derivativo); 
0BAB2:  CLRF   FAA
0BAB4:  MOVLW  1B
0BAB6:  MOVWF  FA9
0BAB8:  MOVFF  334,FA8
0BABC:  BCF    FA6.6
0BABE:  BCF    FA6.7
0BAC0:  BSF    FA6.2
0BAC2:  MOVF   FF2,W
0BAC4:  MOVWF  00
0BAC6:  BCF    FF2.6
0BAC8:  BCF    FF2.7
0BACA:  MOVLB  F
0BACC:  MOVLW  55
0BACE:  MOVWF  FA7
0BAD0:  MOVLW  AA
0BAD2:  MOVWF  FA7
0BAD4:  BSF    FA6.1
0BAD6:  BTFSC  FA6.1
0BAD8:  BRA    BAD6
0BADA:  BCF    FA6.2
0BADC:  MOVF   00,W
0BADE:  IORWF  FF2,F
....................                delay_ms(10); 
0BAE0:  MOVLW  0A
0BAE2:  MOVLB  3
0BAE4:  MOVWF  xFB
0BAE6:  MOVLB  0
0BAE8:  CALL   17AE
....................                write_eeprom(25,(int8)Tciclo); 
0BAEC:  MOVFF  2EA,3FE
0BAF0:  MOVFF  2E9,3FD
0BAF4:  MOVFF  2E8,3FC
0BAF8:  MOVFF  2E7,3FB
0BAFC:  CALL   3C6E
0BB00:  MOVFF  01,3E6
0BB04:  CLRF   FAA
0BB06:  MOVLW  19
0BB08:  MOVWF  FA9
0BB0A:  MOVFF  3E6,FA8
0BB0E:  BCF    FA6.6
0BB10:  BCF    FA6.7
0BB12:  BSF    FA6.2
0BB14:  MOVF   FF2,W
0BB16:  MOVWF  00
0BB18:  BCF    FF2.6
0BB1A:  BCF    FF2.7
0BB1C:  MOVLB  F
0BB1E:  MOVLW  55
0BB20:  MOVWF  FA7
0BB22:  MOVLW  AA
0BB24:  MOVWF  FA7
0BB26:  BSF    FA6.1
0BB28:  BTFSC  FA6.1
0BB2A:  BRA    BB28
0BB2C:  BCF    FA6.2
0BB2E:  MOVF   00,W
0BB30:  IORWF  FF2,F
....................                delay_ms(10); 
0BB32:  MOVLW  0A
0BB34:  MOVLB  3
0BB36:  MOVWF  xFB
0BB38:  MOVLB  0
0BB3A:  CALL   17AE
....................                write_eeprom(21,Ajuste); 
0BB3E:  CLRF   FAA
0BB40:  MOVLW  15
0BB42:  MOVWF  FA9
0BB44:  MOVFF  2D6,FA8
0BB48:  BCF    FA6.6
0BB4A:  BCF    FA6.7
0BB4C:  BSF    FA6.2
0BB4E:  MOVF   FF2,W
0BB50:  MOVWF  00
0BB52:  BCF    FF2.6
0BB54:  BCF    FF2.7
0BB56:  MOVLB  F
0BB58:  MOVLW  55
0BB5A:  MOVWF  FA7
0BB5C:  MOVLW  AA
0BB5E:  MOVWF  FA7
0BB60:  BSF    FA6.1
0BB62:  BTFSC  FA6.1
0BB64:  BRA    BB62
0BB66:  BCF    FA6.2
0BB68:  MOVF   00,W
0BB6A:  IORWF  FF2,F
....................                delay_ms(10); 
0BB6C:  MOVLW  0A
0BB6E:  MOVLB  3
0BB70:  MOVWF  xFB
0BB72:  MOVLB  0
0BB74:  CALL   17AE
....................                write_eeprom(22,Ajusten); 
0BB78:  CLRF   FAA
0BB7A:  MOVLW  16
0BB7C:  MOVWF  FA9
0BB7E:  MOVFF  2D7,FA8
0BB82:  BCF    FA6.6
0BB84:  BCF    FA6.7
0BB86:  BSF    FA6.2
0BB88:  MOVF   FF2,W
0BB8A:  MOVWF  00
0BB8C:  BCF    FF2.6
0BB8E:  BCF    FF2.7
0BB90:  MOVLB  F
0BB92:  MOVLW  55
0BB94:  MOVWF  FA7
0BB96:  MOVLW  AA
0BB98:  MOVWF  FA7
0BB9A:  BSF    FA6.1
0BB9C:  BTFSC  FA6.1
0BB9E:  BRA    BB9C
0BBA0:  BCF    FA6.2
0BBA2:  MOVF   00,W
0BBA4:  IORWF  FF2,F
....................                delay_ms(10); 
0BBA6:  MOVLW  0A
0BBA8:  MOVLB  3
0BBAA:  MOVWF  xFB
0BBAC:  MOVLB  0
0BBAE:  CALL   17AE
....................                write_eeprom(24,(int8)MediaMovil); 
0BBB2:  CLRF   FAA
0BBB4:  MOVLW  18
0BBB6:  MOVWF  FA9
0BBB8:  MOVFF  2D8,FA8
0BBBC:  BCF    FA6.6
0BBBE:  BCF    FA6.7
0BBC0:  BSF    FA6.2
0BBC2:  MOVF   FF2,W
0BBC4:  MOVWF  00
0BBC6:  BCF    FF2.6
0BBC8:  BCF    FF2.7
0BBCA:  MOVLB  F
0BBCC:  MOVLW  55
0BBCE:  MOVWF  FA7
0BBD0:  MOVLW  AA
0BBD2:  MOVWF  FA7
0BBD4:  BSF    FA6.1
0BBD6:  BTFSC  FA6.1
0BBD8:  BRA    BBD6
0BBDA:  BCF    FA6.2
0BBDC:  MOVF   00,W
0BBDE:  IORWF  FF2,F
....................                delay_ms(10); 
0BBE0:  MOVLW  0A
0BBE2:  MOVLB  3
0BBE4:  MOVWF  xFB
0BBE6:  MOVLB  0
0BBE8:  CALL   17AE
....................                write_eeprom(32,(int8)RPT100); 
0BBEC:  MOVFF  2A7,3FE
0BBF0:  MOVFF  2A6,3FD
0BBF4:  MOVFF  2A5,3FC
0BBF8:  MOVFF  2A4,3FB
0BBFC:  CALL   3C6E
0BC00:  MOVFF  01,3E6
0BC04:  CLRF   FAA
0BC06:  MOVLW  20
0BC08:  MOVWF  FA9
0BC0A:  MOVFF  3E6,FA8
0BC0E:  BCF    FA6.6
0BC10:  BCF    FA6.7
0BC12:  BSF    FA6.2
0BC14:  MOVF   FF2,W
0BC16:  MOVWF  00
0BC18:  BCF    FF2.6
0BC1A:  BCF    FF2.7
0BC1C:  MOVLB  F
0BC1E:  MOVLW  55
0BC20:  MOVWF  FA7
0BC22:  MOVLW  AA
0BC24:  MOVWF  FA7
0BC26:  BSF    FA6.1
0BC28:  BTFSC  FA6.1
0BC2A:  BRA    BC28
0BC2C:  BCF    FA6.2
0BC2E:  MOVF   00,W
0BC30:  IORWF  FF2,F
....................                delay_ms(10); 
0BC32:  MOVLW  0A
0BC34:  MOVLB  3
0BC36:  MOVWF  xFB
0BC38:  MOVLB  0
0BC3A:  CALL   17AE
....................                Temporal=RPT100-((int8)RPT100); 
0BC3E:  MOVFF  2A7,3FE
0BC42:  MOVFF  2A6,3FD
0BC46:  MOVFF  2A5,3FC
0BC4A:  MOVFF  2A4,3FB
0BC4E:  CALL   3C6E
0BC52:  MOVLB  3
0BC54:  CLRF   xFC
0BC56:  MOVFF  01,3FB
0BC5A:  MOVLB  0
0BC5C:  CALL   17D6
0BC60:  BSF    FD8.1
0BC62:  MOVFF  2A7,3FE
0BC66:  MOVFF  2A6,3FD
0BC6A:  MOVFF  2A5,3FC
0BC6E:  MOVFF  2A4,3FB
0BC72:  MOVFF  03,402
0BC76:  MOVFF  02,401
0BC7A:  MOVFF  01,400
0BC7E:  MOVFF  00,3FF
0BC82:  CALL   196A
0BC86:  MOVFF  03,2AB
0BC8A:  MOVFF  02,2AA
0BC8E:  MOVFF  01,2A9
0BC92:  MOVFF  00,2A8
....................                Temporal=Temporal*10; 
0BC96:  MOVFF  2AB,402
0BC9A:  MOVFF  2AA,401
0BC9E:  MOVFF  2A9,400
0BCA2:  MOVFF  2A8,3FF
0BCA6:  MOVLB  4
0BCA8:  CLRF   x06
0BCAA:  CLRF   x05
0BCAC:  MOVLW  20
0BCAE:  MOVWF  x04
0BCB0:  MOVLW  82
0BCB2:  MOVWF  x03
0BCB4:  MOVLB  0
0BCB6:  CALL   3622
0BCBA:  MOVFF  03,2AB
0BCBE:  MOVFF  02,2AA
0BCC2:  MOVFF  01,2A9
0BCC6:  MOVFF  00,2A8
....................                write_eeprom(33,(int8)Temporal); 
0BCCA:  MOVFF  2AB,3FE
0BCCE:  MOVFF  2AA,3FD
0BCD2:  MOVFF  2A9,3FC
0BCD6:  MOVFF  2A8,3FB
0BCDA:  CALL   3C6E
0BCDE:  MOVFF  01,3E6
0BCE2:  CLRF   FAA
0BCE4:  MOVLW  21
0BCE6:  MOVWF  FA9
0BCE8:  MOVFF  3E6,FA8
0BCEC:  BCF    FA6.6
0BCEE:  BCF    FA6.7
0BCF0:  BSF    FA6.2
0BCF2:  MOVF   FF2,W
0BCF4:  MOVWF  00
0BCF6:  BCF    FF2.6
0BCF8:  BCF    FF2.7
0BCFA:  MOVLB  F
0BCFC:  MOVLW  55
0BCFE:  MOVWF  FA7
0BD00:  MOVLW  AA
0BD02:  MOVWF  FA7
0BD04:  BSF    FA6.1
0BD06:  BTFSC  FA6.1
0BD08:  BRA    BD06
0BD0A:  BCF    FA6.2
0BD0C:  MOVF   00,W
0BD0E:  IORWF  FF2,F
....................                delay_ms(10); 
0BD10:  MOVLW  0A
0BD12:  MOVLB  3
0BD14:  MOVWF  xFB
0BD16:  MOVLB  0
0BD18:  CALL   17AE
....................                write_eeprom(39,TTrampa); 
0BD1C:  CLRF   FAA
0BD1E:  MOVLW  27
0BD20:  MOVWF  FA9
0BD22:  MOVFF  2D9,FA8
0BD26:  BCF    FA6.6
0BD28:  BCF    FA6.7
0BD2A:  BSF    FA6.2
0BD2C:  MOVF   FF2,W
0BD2E:  MOVWF  00
0BD30:  BCF    FF2.6
0BD32:  BCF    FF2.7
0BD34:  MOVLB  F
0BD36:  MOVLW  55
0BD38:  MOVWF  FA7
0BD3A:  MOVLW  AA
0BD3C:  MOVWF  FA7
0BD3E:  BSF    FA6.1
0BD40:  BTFSC  FA6.1
0BD42:  BRA    BD40
0BD44:  BCF    FA6.2
0BD46:  MOVF   00,W
0BD48:  IORWF  FF2,F
....................                delay_ms(10); 
0BD4A:  MOVLW  0A
0BD4C:  MOVLB  3
0BD4E:  MOVWF  xFB
0BD50:  MOVLB  0
0BD52:  CALL   17AE
....................                write_eeprom(46,Atmosferica); 
0BD56:  CLRF   FAA
0BD58:  MOVLW  2E
0BD5A:  MOVWF  FA9
0BD5C:  MOVFF  2DE,FA8
0BD60:  BCF    FA6.6
0BD62:  BCF    FA6.7
0BD64:  BSF    FA6.2
0BD66:  MOVF   FF2,W
0BD68:  MOVWF  00
0BD6A:  BCF    FF2.6
0BD6C:  BCF    FF2.7
0BD6E:  MOVLB  F
0BD70:  MOVLW  55
0BD72:  MOVWF  FA7
0BD74:  MOVLW  AA
0BD76:  MOVWF  FA7
0BD78:  BSF    FA6.1
0BD7A:  BTFSC  FA6.1
0BD7C:  BRA    BD7A
0BD7E:  BCF    FA6.2
0BD80:  MOVF   00,W
0BD82:  IORWF  FF2,F
....................                delay_ms(10); 
0BD84:  MOVLW  0A
0BD86:  MOVLB  3
0BD88:  MOVWF  xFB
0BD8A:  MOVLB  0
0BD8C:  CALL   17AE
....................                GuardaEEPROM=ON; 
0BD90:  BSF    xA2.3
....................             } 
....................             printf("page MenuPrincipal"); 
0BD92:  MOVLW  58
0BD94:  MOVWF  FF6
0BD96:  MOVLW  17
0BD98:  MOVWF  FF7
0BD9A:  MOVLW  00
0BD9C:  MOVWF  FF8
0BD9E:  CALL   3528
....................             SendDataDisplay(); 
0BDA2:  CALL   355A
....................             //BorraBuffer(); 
....................          } 
....................       } 
....................       printf("fecha.txt=\"T:%3.1fC Fecha:%02u/%02u/20%02u Hora: %02u:%02u:%02u\"",Temperatura,Dia,Mes,Year,Hora,Minuto,Segundo); 
0BDA6:  MOVLW  6C
0BDA8:  MOVWF  FF6
0BDAA:  MOVLW  17
0BDAC:  MOVWF  FF7
0BDAE:  MOVLW  00
0BDB0:  MOVWF  FF8
0BDB2:  MOVLW  0D
0BDB4:  MOVLB  3
0BDB6:  MOVWF  xEA
0BDB8:  MOVLB  0
0BDBA:  CALL   4228
0BDBE:  MOVLW  02
0BDC0:  MOVWF  FE9
0BDC2:  MOVFF  322,3ED
0BDC6:  MOVFF  321,3EC
0BDCA:  MOVFF  320,3EB
0BDCE:  MOVFF  31F,3EA
0BDD2:  MOVLW  01
0BDD4:  MOVLB  3
0BDD6:  MOVWF  xEE
0BDD8:  MOVLB  0
0BDDA:  CALL   4400
0BDDE:  MOVLW  7E
0BDE0:  MOVWF  FF6
0BDE2:  MOVLW  17
0BDE4:  MOVWF  FF7
0BDE6:  MOVLW  00
0BDE8:  MOVWF  FF8
0BDEA:  MOVLW  09
0BDEC:  MOVLB  3
0BDEE:  MOVWF  xEA
0BDF0:  MOVLB  0
0BDF2:  CALL   4228
0BDF6:  MOVFF  38E,3E8
0BDFA:  MOVLW  01
0BDFC:  MOVLB  3
0BDFE:  MOVWF  xE9
0BE00:  MOVLB  0
0BE02:  CALL   4286
0BE06:  MOVLW  2F
0BE08:  BTFSS  F9E.4
0BE0A:  BRA    BE08
0BE0C:  MOVWF  FAD
0BE0E:  MOVFF  38D,3E8
0BE12:  MOVLW  01
0BE14:  MOVLB  3
0BE16:  MOVWF  xE9
0BE18:  MOVLB  0
0BE1A:  CALL   4286
0BE1E:  MOVLW  2F
0BE20:  BTFSS  F9E.4
0BE22:  BRA    BE20
0BE24:  MOVWF  FAD
0BE26:  MOVLW  32
0BE28:  BTFSS  F9E.4
0BE2A:  BRA    BE28
0BE2C:  MOVWF  FAD
0BE2E:  MOVLW  30
0BE30:  BTFSS  F9E.4
0BE32:  BRA    BE30
0BE34:  MOVWF  FAD
0BE36:  MOVFF  38C,3E8
0BE3A:  MOVLW  01
0BE3C:  MOVLB  3
0BE3E:  MOVWF  xE9
0BE40:  MOVLB  0
0BE42:  CALL   4286
0BE46:  MOVLW  97
0BE48:  MOVWF  FF6
0BE4A:  MOVLW  17
0BE4C:  MOVWF  FF7
0BE4E:  MOVLW  00
0BE50:  MOVWF  FF8
0BE52:  MOVLW  07
0BE54:  MOVLB  3
0BE56:  MOVWF  xEA
0BE58:  MOVLB  0
0BE5A:  CALL   4228
0BE5E:  MOVFF  38F,3E8
0BE62:  MOVLW  01
0BE64:  MOVLB  3
0BE66:  MOVWF  xE9
0BE68:  MOVLB  0
0BE6A:  CALL   4286
0BE6E:  MOVLW  3A
0BE70:  BTFSS  F9E.4
0BE72:  BRA    BE70
0BE74:  MOVWF  FAD
0BE76:  MOVFF  390,3E8
0BE7A:  MOVLW  01
0BE7C:  MOVLB  3
0BE7E:  MOVWF  xE9
0BE80:  MOVLB  0
0BE82:  CALL   4286
0BE86:  MOVLW  3A
0BE88:  BTFSS  F9E.4
0BE8A:  BRA    BE88
0BE8C:  MOVWF  FAD
0BE8E:  MOVFF  391,3E8
0BE92:  MOVLW  01
0BE94:  MOVLB  3
0BE96:  MOVWF  xE9
0BE98:  MOVLB  0
0BE9A:  CALL   4286
0BE9E:  MOVLW  22
0BEA0:  BTFSS  F9E.4
0BEA2:  BRA    BEA0
0BEA4:  MOVWF  FAD
....................       SendDataDisplay();  
0BEA6:  CALL   355A
0BEAA:  MOVLB  3
....................     } 
.................... //_--------------------------------------------------------------------------------------------------------------------------------------------------------        
....................  
....................    } 
0BEAC:  GOTO   609A
.................... } 
0BEB0:  SLEEP 

Configuration Fuses:
   Word  1: 0200   HS NOIESO NOFCMEN
   Word  2: 1B1F   BROWNOUT WDT BORV20 NOPUT WDT8192
   Word  3: 0000   NOPBADEN NOLPT1OSC NOMCLR
   Word  4: 00B0   NOSTVREN NODEBUG NOLVP NOXINST BBSIZ4K
   Word  5: C03F   NOPROTECT NOCPD NOCPB
   Word  6: E03F   NOWRT NOWRTD NOWRTC NOWRTB
   Word  7: 403F   NOEBTR NOEBTRB
