CCS PCH C Compiler, Version 4.104, 5967               20-abr.-21 14:31

               Filename: D:\Laboratorio\Autoclave\Autoclaves Vertical\Sin Precamara\2021\Autoclave 85L Grupo Milligram #004588568 OP202162\Firmware V4.1.6 - Enfirador-Presion-Decimal-200Ciclos-Impresora\GLCD_Controller_V3.0.1\GLCD_Controller.lst

               ROM used: 59250 bytes (60%)
                         Largest free fragment is 32768
               RAM used: 1102 (33%) at main() level
                         1130 (34%) worst case
               Stack:    5 worst case (4 in main + 1 for interrupts)

*
00000:  GOTO   77E2
*
00008:  GOTO   00BA
0000C:  NOP   
0000E:  NOP   
00010:  NOP   
00012:  NOP   
00014:  NOP   
00016:  NOP   
00018:  MOVWF  04
0001A:  MOVFF  FD8,05
0001E:  MOVFF  FE0,06
00022:  MOVLB  0
00024:  MOVFF  FE9,0C
00028:  MOVFF  FEA,07
0002C:  MOVFF  FE1,08
00030:  MOVFF  FE2,09
00034:  MOVFF  FD9,0A
00038:  MOVFF  FDA,0B
0003C:  MOVFF  FF3,12
00040:  MOVFF  FF4,13
00044:  MOVFF  FFA,14
00048:  MOVFF  FFB,15
0004C:  MOVFF  00,0E
00050:  MOVFF  01,0F
00054:  MOVFF  02,10
00058:  MOVFF  03,11
0005C:  BTFSS  FF2.5
0005E:  GOTO   0068
00062:  BTFSC  FF2.2
00064:  GOTO   03A4
00068:  BTFSS  F9D.0
0006A:  GOTO   0074
0006E:  BTFSC  F9E.0
00070:  GOTO   03FC
00074:  MOVFF  0E,00
00078:  MOVFF  0F,01
0007C:  MOVFF  10,02
00080:  MOVFF  11,03
00084:  MOVFF  0C,FE9
00088:  MOVFF  07,FEA
0008C:  BSF    07.7
0008E:  MOVFF  08,FE1
00092:  MOVFF  09,FE2
00096:  MOVFF  0A,FD9
0009A:  MOVFF  0B,FDA
0009E:  MOVFF  12,FF3
000A2:  MOVFF  13,FF4
000A6:  MOVFF  14,FFA
000AA:  MOVFF  15,FFB
000AE:  MOVF   04,W
000B0:  MOVFF  06,FE0
000B4:  MOVFF  05,FD8
000B8:  RETFIE 0
000BA:  MOVWF  17
000BC:  MOVFF  FD8,18
000C0:  MOVFF  FE0,19
000C4:  MOVLB  0
000C6:  MOVFF  FE9,1F
000CA:  MOVFF  FEA,1A
000CE:  MOVFF  FE1,1B
000D2:  MOVFF  FE2,1C
000D6:  MOVFF  FD9,1D
000DA:  MOVFF  FDA,1E
000DE:  MOVFF  FF3,25
000E2:  MOVFF  FF4,26
000E6:  MOVFF  FFA,27
000EA:  MOVFF  FFB,28
000EE:  MOVFF  00,21
000F2:  MOVFF  01,22
000F6:  MOVFF  02,23
000FA:  MOVFF  03,24
000FE:  BTFSS  F9D.5
00100:  GOTO   010A
00104:  BTFSC  F9E.5
00106:  GOTO   0336
0010A:  MOVFF  21,00
0010E:  MOVFF  22,01
00112:  MOVFF  23,02
00116:  MOVFF  24,03
0011A:  MOVFF  1F,FE9
0011E:  MOVFF  1A,FEA
00122:  BSF    1A.7
00124:  MOVFF  1B,FE1
00128:  MOVFF  1C,FE2
0012C:  MOVFF  1D,FD9
00130:  MOVFF  1E,FDA
00134:  MOVFF  25,FF3
00138:  MOVFF  26,FF4
0013C:  MOVFF  27,FFA
00140:  MOVFF  28,FFB
00144:  MOVF   17,W
00146:  MOVFF  19,FE0
0014A:  MOVFF  18,FD8
0014E:  RETFIE 0
.................... //Falta crear menu de ajuste de variables y de norma CFR21 
....................  
.................... #include <18F4685.h> 
.................... //////// Standard Header file for the PIC18F4685 device //////////////// 
.................... #device PIC18F4685 
.................... #list 
....................  
.................... #device adc=10 
.................... #device HIGH_INTS=TRUE //Activamos niveles de prioridad 
.................... #fuses HS,WDT8192,NOPROTECT,NOLVP,NODEBUG,NOSTVREN,NOPUT,NOCPD,NOWRT,NOIESO,NOFCMEN,NOPBADEN,NOWRTC,NOWRTB,NOEBTR,NOEBTRB,NOCPB,NOXINST,NOLPT1OSC,NOMCLR 
.................... #use delay(clock=20000000) 
*
01A3E:  MOVLW  04
01A40:  MOVWF  FEA
01A42:  MOVLW  58
01A44:  MOVWF  FE9
01A46:  MOVF   FEF,W
01A48:  BZ    1A64
01A4A:  MOVLW  06
01A4C:  MOVWF  01
01A4E:  CLRF   00
01A50:  DECFSZ 00,F
01A52:  BRA    1A50
01A54:  DECFSZ 01,F
01A56:  BRA    1A4E
01A58:  MOVLW  7B
01A5A:  MOVWF  00
01A5C:  DECFSZ 00,F
01A5E:  BRA    1A5C
01A60:  DECFSZ FEF,F
01A62:  BRA    1A4A
01A64:  RETLW  00
.................... #use i2c(Master,slow,sda=PIN_C4,scl=PIN_C3) 
*
04644:  MOVLW  08
04646:  MOVWF  01
04648:  MOVLW  05
0464A:  MOVWF  00
0464C:  DECFSZ 00,F
0464E:  BRA    464C
04650:  BCF    F8B.3
04652:  BCF    F94.3
04654:  MOVLW  06
04656:  MOVWF  00
04658:  DECFSZ 00,F
0465A:  BRA    4658
0465C:  MOVLB  4
0465E:  RLCF   x59,F
04660:  BCF    F8B.4
04662:  BTFSC  FD8.0
04664:  BSF    F94.4
04666:  BTFSS  FD8.0
04668:  BCF    F94.4
0466A:  BSF    F94.3
0466C:  BTFSS  F82.3
0466E:  BRA    466C
04670:  DECFSZ 01,F
04672:  BRA    4676
04674:  BRA    467A
04676:  MOVLB  0
04678:  BRA    4648
0467A:  MOVLW  05
0467C:  MOVWF  00
0467E:  DECFSZ 00,F
04680:  BRA    467E
04682:  BCF    F8B.3
04684:  BCF    F94.3
04686:  NOP   
04688:  BSF    F94.4
0468A:  MOVLW  06
0468C:  MOVWF  00
0468E:  DECFSZ 00,F
04690:  BRA    468E
04692:  MOVLW  06
04694:  MOVWF  00
04696:  DECFSZ 00,F
04698:  BRA    4696
0469A:  BSF    F94.3
0469C:  BTFSS  F82.3
0469E:  BRA    469C
046A0:  CLRF   01
046A2:  MOVLW  06
046A4:  MOVWF  00
046A6:  DECFSZ 00,F
046A8:  BRA    46A6
046AA:  BTFSC  F82.4
046AC:  BSF    01.0
046AE:  BCF    F8B.3
046B0:  BCF    F94.3
046B2:  BCF    F8B.4
046B4:  BCF    F94.4
046B6:  MOVLB  0
046B8:  RETLW  00
*
04F32:  MOVLW  08
04F34:  MOVLB  4
04F36:  MOVWF  x4C
04F38:  MOVFF  00,44D
04F3C:  BSF    F94.4
04F3E:  MOVLW  06
04F40:  MOVWF  00
04F42:  DECFSZ 00,F
04F44:  BRA    4F42
04F46:  BSF    F94.3
04F48:  BTFSS  F82.3
04F4A:  BRA    4F48
04F4C:  BTFSC  F82.4
04F4E:  BSF    FD8.0
04F50:  BTFSS  F82.4
04F52:  BCF    FD8.0
04F54:  RLCF   01,F
04F56:  MOVLW  05
04F58:  MOVWF  00
04F5A:  DECFSZ 00,F
04F5C:  BRA    4F5A
04F5E:  BCF    F94.3
04F60:  BCF    F8B.3
04F62:  DECFSZ x4C,F
04F64:  BRA    4F3C
04F66:  BSF    F94.4
04F68:  MOVLW  06
04F6A:  MOVWF  00
04F6C:  DECFSZ 00,F
04F6E:  BRA    4F6C
04F70:  BCF    F8B.4
04F72:  MOVF   x4D,W
04F74:  BTFSS  FD8.2
04F76:  BCF    F94.4
04F78:  NOP   
04F7A:  BSF    F94.3
04F7C:  BTFSS  F82.3
04F7E:  BRA    4F7C
04F80:  MOVLW  05
04F82:  MOVWF  00
04F84:  DECFSZ 00,F
04F86:  BRA    4F84
04F88:  BCF    F8B.3
04F8A:  BCF    F94.3
04F8C:  MOVLW  06
04F8E:  MOVWF  00
04F90:  DECFSZ 00,F
04F92:  BRA    4F90
04F94:  BCF    F8B.4
04F96:  BCF    F94.4
04F98:  MOVLB  0
04F9A:  GOTO   5020 (RETURN)
.................... #use rs232(baud=9600, xmit=PIN_C6, rcv=PIN_C7, bits=8, parity=N) 
*
0391C:  BTFSS  F9E.4
0391E:  BRA    391C
03920:  MOVWF  FAD
03922:  RETLW  00
.................... //#include "HDM64GS12.c" 
.................... //#include "GRAPHICS.c" 
.................... ///#include "imagen.h" 
.................... #include <stdio.h> 
.................... /////////////////////////////////////////////////////////////////////////// 
.................... ////        (C) Copyright 1996,2003 Custom Computer Services           //// 
.................... //// This source code may only be used by licensed users of the CCS C  //// 
.................... //// compiler.  This source code may only be distributed to other      //// 
.................... //// licensed users of the CCS C compiler.  No other use, reproduction //// 
.................... //// or distribution is permitted without written permission.          //// 
.................... //// Derivative programs created using this software in object code    //// 
.................... //// form are not restricted in any way.                               //// 
.................... /////////////////////////////////////////////////////////////////////////// 
....................  
.................... #ifndef _STDIO 
.................... #define _STDIO 
.................... #include <string.h> 
.................... //////////////////////////////////////////////////////////////////////////// 
.................... ////        (C) Copyright 1996,2008 Custom Computer Services            //// 
.................... //// This source code may only be used by licensed users of the CCS C   //// 
.................... //// compiler.  This source code may only be distributed to other       //// 
.................... //// licensed users of the CCS C compiler.  No other use, reproduction  //// 
.................... //// or distribution is permitted without written permission.           //// 
.................... //// Derivative programs created using this software in object code     //// 
.................... //// form are not restricted in any way.                                //// 
.................... //////////////////////////////////////////////////////////////////////////// 
....................  
.................... #ifndef _STRING 
.................... #define _STRING 
.................... #include <stddef.h> 
.................... /////////////////////////////////////////////////////////////////////////// 
.................... ////        (C) Copyright 1996,2003 Custom Computer Services           //// 
.................... //// This source code may only be used by licensed users of the CCS C  //// 
.................... //// compiler.  This source code may only be distributed to other      //// 
.................... //// licensed users of the CCS C compiler.  No other use, reproduction //// 
.................... //// or distribution is permitted without written permission.          //// 
.................... //// Derivative programs created using this software in object code    //// 
.................... //// form are not restricted in any way.                               //// 
.................... /////////////////////////////////////////////////////////////////////////// 
....................  
.................... #ifndef _STDDEF 
....................  
.................... #define _STDDEF 
....................  
.................... #if sizeof(unsigned int8 *)==1 
.................... #define ptrdiff_t unsigned int8 
.................... #else 
.................... #define ptrdiff_t unsigned int16 
.................... #endif 
....................  
.................... #define size_t unsigned int8 
.................... #define wchar_t char 
.................... #define NULL 0 
....................  
.................... #define offsetof(s,f) (offsetofbit(s,f)/8) 
....................  
.................... #endif 
....................  
.................... #include <ctype.h> 
.................... //////////////////////////////////////////////////////////////////////////// 
.................... ////        (C) Copyright 1996,2003 Custom Computer Services            //// 
.................... //// This source code may only be used by licensed users of the CCS C   //// 
.................... //// compiler.  This source code may only be distributed to other       //// 
.................... //// licensed users of the CCS C compiler.  No other use, reproduction  //// 
.................... //// or distribution is permitted without written permission.           //// 
.................... //// Derivative programs created using this software in object code     //// 
.................... //// form are not restricted in any way.                                //// 
.................... //////////////////////////////////////////////////////////////////////////// 
....................  
.................... #ifndef _CTYPE 
.................... #define _CTYPE 
....................  
.................... #define islower(x)  isamong(x,"abcdefghijklmnopqrstuvwxyz") 
.................... #define isupper(x)  isamong(x,"ABCDEFGHIJKLMNOPQRSTUVWXYZ") 
.................... #define isalnum(x)  isamong(x,"0123456789ABCDEFGHIJKLMNOPQRSTUVWXYZabcdefghijklmnopqrstuvwxyz") 
.................... #define isalpha(x)  isamong(x,"ABCDEFGHIJKLMNOPQRSTUVWXYZabcdefghijklmnopqrstuvwxyz") 
.................... #define isdigit(x)  isamong(x,"0123456789") 
.................... #define isspace(x)  ((x)==' ') 
.................... #define isxdigit(x) isamong(x,"0123456789ABCDEFabcdef") 
.................... #define iscntrl(x)  ((x)<' ') 
.................... #define isprint(x)  ((x)>=' ') 
.................... #define isgraph(x)  ((x)>' ') 
.................... #define ispunct(x)  (((x)>' ')&&!isalnum(x)) 
....................  
.................... #endif 
....................  
....................  
....................  
....................  
....................  
.................... ////////////////////////////////////////////// 
.................... //// Uncomment the following define to    //// 
.................... //// allow some functions to use a        //// 
.................... //// quicker algorithm, but use more ROM  //// 
.................... ////                                      //// 
.................... //// #define FASTER_BUT_MORE_ROM          //// 
.................... ////////////////////////////////////////////// 
....................  
....................  
....................  
.................... /*Copying functions*/ 
.................... /* standard template: 
....................    void *memmove(void *s1, void *s2, size_t n). 
....................    Copies max of n characters safely (not following ending '\0') 
....................    from s2 in s1; if s2 has less than n characters, appends 0 */ 
....................  
.................... char *memmove(void *s1,char *s2,size_t n) 
.................... { 
....................    char *sc1; 
....................    char *sc2; 
....................    sc1=s1; 
....................    sc2=s2; 
....................    if(sc2<sc1 && sc1 <sc2 +n) 
....................       for(sc1+=n,sc2+=n;0<n;--n) 
....................          *--sc1=*--sc2; 
....................    else 
....................       for(;0<n;--n) 
....................          *sc1++=*sc2++; 
....................   return s1; 
....................   } 
....................  
.................... /* Standard template: char *strcpy(char *s1, const char *s2) 
....................    copies the string s2 including the null character to s1. 
....................    This is a compiler built in to handle the different address 
....................    spaces */ 
....................  
.................... #define strcopy strcpy 
....................  
.................... /* standard template: 
....................    char *strncpy(char *s1, const char *s2, size_t n). 
....................    Copies max of n characters (not following ending '\0') 
....................    from s2 in s1; if s2 has less than n characters, appends 0 */ 
....................  
.................... char *strncpy(char *s1, char *s2, size_t n) 
.................... { 
....................   char *s; 
....................  
....................   for (s = s1; n > 0 && *s2 != '\0'; n--) 
....................      *s++ = *s2++; 
....................   for (; n > 0; n--) 
....................      *s++ = '\0'; 
....................  
....................   return(s1); 
.................... } 
.................... /***********************************************************/ 
....................  
.................... /*concatenation functions*/ 
.................... /* standard template: char *strcat(char *s1, const char *s2) 
.................... appends s2 to s1*/ 
....................  
.................... char *strcat(char *s1, char *s2) 
.................... { 
....................    char *s; 
....................  
....................    for (s = s1; *s != '\0'; ++s); 
....................    while(*s2 != '\0') 
....................    { 
....................       *s = *s2; 
....................       ++s; 
....................       ++s2; 
....................    } 
....................  
....................    *s = '\0'; 
....................    return(s1); 
.................... } 
.................... /* standard template: char *strncat(char *s1, char *s2,size_t n) 
.................... appends not more than n characters from s2 to s1*/ 
....................  
.................... char *strncat(char *s1, char *s2, size_t n) 
.................... { 
....................    char *s; 
....................  
....................    for (s = s1; *s != '\0'; ++s); 
....................    while(*s2 != '\0' && 0<n) 
....................    { 
....................       *s = *s2; 
....................       ++s; 
....................       ++s2; 
....................       --n; 
....................    } 
....................  
....................    *s = '\0'; 
....................    return(s1); 
.................... } 
....................  
.................... /***********************************************************/ 
....................  
....................  
.................... /*comparison functions*/ 
.................... /* standard template: signed int memcmp(void *s1, void *s2). 
....................    Compares s1 & s2; returns -1 if s1<s2, 0 if s1=s2, 1 if s1>s2 */ 
....................  
.................... signed int8 memcmp(void * s1,char *s2,size_t n) 
.................... { 
.................... char *su1, *su2; 
.................... for(su1=s1, su2=s2; 0<n; ++su1, ++su2, --n) 
.................... { 
....................    if(*su1!=*su2) 
....................       return ((*su1<*su2)?-1:+1); 
.................... } 
.................... return 0; 
.................... } 
....................  
.................... /* standard template: int strcmp(const char *s1, const char *s2). 
....................    Compares s1 & s2; returns -1 if s1<s2, 0 if s1=s2, 1 if s1>s2 */ 
....................  
.................... signed int8 strcmp(char *s1, char *s2) 
.................... { 
....................    for (; *s1 == *s2; s1++, s2++) 
....................       if (*s1 == '\0') 
....................          return(0); 
....................    return((*s1 < *s2) ? -1: 1); 
.................... } 
.................... /* standard template: int strcoll(const char *s1, const char *s2). 
....................    Compares s1 & s2; returns -1 if s1<s2, 0 if s1=s2, 1 if s1>s2 */ 
....................  
.................... signed int8 strcoll(char *s1, char *s2) 
.................... { 
....................    for (; *s1 == *s2; s1++, s2++) 
....................       if (*s1 == '\0') 
....................          return(0); 
....................    return((*s1 < *s2) ? -1: 1); 
.................... } 
....................  
.................... /* standard template: 
....................    int strncmp(const char *s1, const char *s2, size_t n). 
....................    Compares max of n characters (not following 0) from s1 to s2; 
....................    returns same as strcmp */ 
....................  
.................... signed int8 strncmp(char *s1, char *s2, size_t n) 
.................... { 
....................    for (; n > 0; s1++, s2++, n--) 
....................       if (*s1 != *s2) 
....................          return((*s1 <*s2) ? -1: 1); 
....................       else if (*s1 == '\0') 
....................          return(0); 
....................    return(0); 
.................... } 
.................... /* standard template: 
....................    int strxfrm(const char *s1, const char *s2, size_t n). 
....................    transforms maximum of n characters from s2 and places them into s1*/ 
.................... size_t strxfrm(char *s1, char *s2, size_t n) 
.................... { 
....................   char *s; 
....................   unsigned int8 n1; 
....................   n1=n; 
....................   for (s = s1; n > 0 && *s2 != '\0'; n--) 
....................      *s++ = *s2++; 
....................   for (; n > 0; n--) 
....................      *s++ = '\0'; 
....................  
....................   return(n1); 
.................... } 
....................  
....................  
....................  
....................  
....................  
.................... /***********************************************************/ 
.................... /*Search functions*/ 
.................... /* standard template: void *memchr(const char *s, int c). 
....................    Finds first occurrence of c in n characters of s */ 
....................  
.................... char *memchr(void *s,unsigned int8 c,size_t n) 
.................... { 
....................    char uc; 
....................    char *su; 
....................    uc=c; 
....................    for(su=s;0<n;++su,--n) 
....................       if(*su==uc) 
....................       return su; 
....................    return NULL; 
.................... } 
....................  
.................... /* standard template: char *strchr(const char *s, int c). 
....................    Finds first occurrence of c in s */ 
....................  
.................... char *strchr(char *s, unsigned int8 c) 
.................... { 
....................    for (; *s != c; s++) 
....................       if (*s == '\0') 
....................          return(0); 
....................    return(s); 
.................... } 
.................... /* standard template: 
....................    size_t strcspn(const char *s1, const char *s2). 
....................    Computes length of max initial segment of s1 that 
....................    consists entirely of characters NOT from s2*/ 
....................  
.................... unsigned int8  strcspn(char *s1, char *s2) 
.................... { 
....................    char *sc1, *sc2; 
....................  
....................    for (sc1 = s1; *sc1 != 0; sc1++) 
....................       for (sc2 = s2; *sc2 != 0; sc2++) 
....................          if (*sc1 == *sc2) 
....................             return(sc1 - s1); 
....................    return(sc1 - s1); 
.................... } 
.................... /* standard template: 
....................    char *strpbrk(const char *s1, const char *s2). 
....................    Locates first occurence of any character from s2 in s1; 
....................    returns s1 if s2 is empty string */ 
....................  
.................... char *strpbrk(char *s1, char *s2) 
.................... { 
....................    char *sc1, *sc2; 
....................  
....................    for (sc1 = s1; *sc1 != 0; sc1++) 
....................       for (sc2 = s2; *sc2 != 0; sc2++) 
....................          if (*sc1 == *sc2) 
....................             return(sc1); 
....................    return(0); 
.................... } 
....................  
....................  
.................... /* standard template: char *strrchr(const char *s, int c). 
....................    Finds last occurrence of c in s */ 
....................  
.................... char *strrchr(char *s, unsigned int8 c) 
.................... { 
....................    char *p; 
....................  
....................    for (p = 0; ; s++) 
....................    { 
....................       if (*s == c) 
....................          p = s; 
....................       if (*s == '\0') 
....................          return(p); 
....................    } 
.................... } 
.................... /* computes length of max initial segment of s1 consisting 
....................    entirely of characters from s2 */ 
....................  
.................... unsigned int8  strspn(char *s1, char *s2) 
.................... { 
....................    char *sc1, *sc2; 
....................  
....................    for (sc1 = s1; *sc1 != 0; sc1++) 
....................       for (sc2 = s2; ; sc2++) 
....................     if (*sc2 == '\0') 
....................        return(sc1 - s1); 
....................          else if (*sc1 == *sc2) 
....................             break; 
....................    return(sc1 - s1); 
.................... } 
.................... /* standard template: 
....................    char *strstr(const char *s1, const char *s2); 
....................    Locates first occurence of character sequence s2 in s1; 
....................    returns 0 if s2 is empty string 
....................  
....................    Uncomment #define FASTER_BUT_MORE_ROM at the top of the 
....................    file to use the faster algorithm */ 
.................... char *strstr(char *s1, char *s2) 
.................... { 
....................    char *s, *t; 
....................  
....................    #ifdef FASTER_BUT_MORE_ROM 
....................    if (*s2 == '\0') 
....................          return(s1); 
....................    #endif 
....................  
....................    while (*s1) 
....................    { 
....................       for(s = s1, t = s2; *t && (*s == *t); ++s, ++t); 
....................  
....................       if (*t == '\0') 
....................          return s1; 
....................       ++s1; 
....................       #ifdef FASTER_BUT_MORE_ROM 
....................          while(*s1 != '\0' && *s1 != *s2) 
....................             ++s1; 
....................       #endif 
....................    } 
....................    return 0; 
.................... } 
....................  
.................... /* standard template: char *strtok(char *s1, const char *s2). 
....................  
....................    Finds next token in s1 delimited by a character from separator 
....................    string s2 (which can be different from call to call).  First call 
....................    starts at beginning of s1 searching for first character NOT 
....................    contained in s2; returns 0 if none is found. 
....................    If one is found, it is the start of first token (return value). 
....................    Function then searches from there for a character contained in s2. 
....................    If none is found, current token extends to end of s1, and subsequent 
....................    searches for a token will return 0.  If one is found, it is 
....................    overwritten by '\0', which terminates current token.  Function saves 
....................    pointer to following character from which next search will start. 
....................    Each subsequent call, with 0 as first argument, starts searching 
....................    from saved pointer */ 
....................  
.................... char *strtok(char *s1, char *s2) 
.................... { 
....................    char *beg, *end; 
....................    static char *save; 
....................  
....................    beg = (s1)? s1: save; 
....................    beg += strspn(beg, s2); 
....................    if (*beg == '\0') 
....................    { 
....................       *save = ' '; 
....................       return(0); 
....................    } 
....................    end = strpbrk(beg, s2); 
....................    if (*end != '\0') 
....................    { 
....................       *end = '\0'; 
....................       end++; 
....................    } 
....................    save = end; 
....................    return(beg); 
.................... } 
....................  
.................... /*****************************************************************/ 
.................... /*Miscellaneous functions*/ 
.................... /* standard template 
.................... maps error number in errnum to an error message string 
.................... Returns: Pointer to string 
.................... */ 
.................... #ifdef _ERRNO 
.................... char * strerror(unsigned int8 errnum) 
.................... { 
.................... char s[15]; 
.................... switch( errnum) 
.................... { 
.................... case 0: 
....................    strcpy(s,"no errors"); 
....................    return s; 
.................... case EDOM : 
....................    strcpy(s,"domain error"); 
....................    return s; 
.................... case ERANGE: 
....................    strcpy(s,"range error"); 
....................    return s; 
.................... } 
.................... } 
.................... #ENDIF 
.................... /* standard template: size_t strlen(const char *s). 
....................    Computes length of s1 (preceding terminating 0) */ 
....................  
.................... unsigned int8 strlen(char *s) 
.................... { 
....................    char *sc; 
....................  
....................    for (sc = s; *sc != 0; sc++); 
....................    return(sc - s); 
.................... } 
....................  
.................... /* standard template: size_t stricmp(const char *s1, const char *s2). 
....................    Compares s1 to s2 ignoring case (upper vs. lower) */ 
....................  
.................... signed int8 stricmp(char *s1, char *s2) 
.................... { 
....................  for(; *s1==*s2||(isalpha(*s1)&&isalpha(*s2)&&(*s1==*s2+32||*s2==*s1+32)); 
....................     s1++, s2++) 
....................     if (*s1 == '\0') 
....................        return(0); 
....................  return((*s1 < *s2) ? -1: 1); 
.................... } 
....................  
....................  
.................... /* standard template: char *strlwr(char *s). 
....................    Replaces uppercase letters by lowercase; 
....................    returns pointer to new string s */ 
....................  
.................... char *strlwr(char *s) 
.................... { 
....................    char *p; 
....................  
....................    for (p = s; *p != '\0'; p++) 
....................       if (*p >= 'A' && *p <='Z') 
....................          *p += 'a' - 'A'; 
....................    return(s); 
.................... } 
....................  
....................  
.................... /************************************************************/ 
....................  
....................  
.................... #endif 
....................  
.................... #ifndef getc 
.................... #define getc getch 
.................... #define getchar getch 
.................... #define puts(s) {printf(s); putchar(13); putchar(10);} 
.................... #define putc putchar 
.................... #endif 
.................... /* maps error number to an error message. Writes a sequence of characters to 
.................... stderr stream thus: if s is not null then string pointed to by s follwed by 
.................... a colon (:) and a space and the appropriate error message returned by strerror 
.................... function with argument errno 
....................  
.................... Returns: no value 
.................... */ 
....................  
.................... #ifdef _ERRNO 
.................... void perror(char *s) 
.................... { 
....................   if(s) 
....................   fprintf(STDERR,"%s: ",s); 
....................   fprintf(STDERR,"%s\r\n",strerror(errno)); 
.................... } 
.................... #endif 
.................... #endif 
....................  
.................... #include <string.h> 
.................... //////////////////////////////////////////////////////////////////////////// 
.................... ////        (C) Copyright 1996,2008 Custom Computer Services            //// 
.................... //// This source code may only be used by licensed users of the CCS C   //// 
.................... //// compiler.  This source code may only be distributed to other       //// 
.................... //// licensed users of the CCS C compiler.  No other use, reproduction  //// 
.................... //// or distribution is permitted without written permission.           //// 
.................... //// Derivative programs created using this software in object code     //// 
.................... //// form are not restricted in any way.                                //// 
.................... //////////////////////////////////////////////////////////////////////////// 
....................  
.................... #ifndef _STRING 
.................... #define _STRING 
.................... #include <stddef.h> 
.................... #include <ctype.h> 
....................  
....................  
....................  
.................... ////////////////////////////////////////////// 
.................... //// Uncomment the following define to    //// 
.................... //// allow some functions to use a        //// 
.................... //// quicker algorithm, but use more ROM  //// 
.................... ////                                      //// 
.................... //// #define FASTER_BUT_MORE_ROM          //// 
.................... ////////////////////////////////////////////// 
....................  
....................  
....................  
.................... /*Copying functions*/ 
.................... /* standard template: 
....................    void *memmove(void *s1, void *s2, size_t n). 
....................    Copies max of n characters safely (not following ending '\0') 
....................    from s2 in s1; if s2 has less than n characters, appends 0 */ 
....................  
.................... char *memmove(void *s1,char *s2,size_t n) 
.................... { 
....................    char *sc1; 
....................    char *sc2; 
....................    sc1=s1; 
....................    sc2=s2; 
....................    if(sc2<sc1 && sc1 <sc2 +n) 
....................       for(sc1+=n,sc2+=n;0<n;--n) 
....................          *--sc1=*--sc2; 
....................    else 
....................       for(;0<n;--n) 
....................          *sc1++=*sc2++; 
....................   return s1; 
....................   } 
....................  
.................... /* Standard template: char *strcpy(char *s1, const char *s2) 
....................    copies the string s2 including the null character to s1. 
....................    This is a compiler built in to handle the different address 
....................    spaces */ 
....................  
.................... #define strcopy strcpy 
....................  
.................... /* standard template: 
....................    char *strncpy(char *s1, const char *s2, size_t n). 
....................    Copies max of n characters (not following ending '\0') 
....................    from s2 in s1; if s2 has less than n characters, appends 0 */ 
....................  
.................... char *strncpy(char *s1, char *s2, size_t n) 
.................... { 
....................   char *s; 
....................  
....................   for (s = s1; n > 0 && *s2 != '\0'; n--) 
....................      *s++ = *s2++; 
....................   for (; n > 0; n--) 
....................      *s++ = '\0'; 
....................  
....................   return(s1); 
.................... } 
.................... /***********************************************************/ 
....................  
.................... /*concatenation functions*/ 
.................... /* standard template: char *strcat(char *s1, const char *s2) 
.................... appends s2 to s1*/ 
....................  
.................... char *strcat(char *s1, char *s2) 
.................... { 
....................    char *s; 
....................  
....................    for (s = s1; *s != '\0'; ++s); 
....................    while(*s2 != '\0') 
....................    { 
....................       *s = *s2; 
....................       ++s; 
....................       ++s2; 
....................    } 
....................  
....................    *s = '\0'; 
....................    return(s1); 
.................... } 
.................... /* standard template: char *strncat(char *s1, char *s2,size_t n) 
.................... appends not more than n characters from s2 to s1*/ 
....................  
.................... char *strncat(char *s1, char *s2, size_t n) 
.................... { 
....................    char *s; 
....................  
....................    for (s = s1; *s != '\0'; ++s); 
....................    while(*s2 != '\0' && 0<n) 
....................    { 
....................       *s = *s2; 
....................       ++s; 
....................       ++s2; 
....................       --n; 
....................    } 
....................  
....................    *s = '\0'; 
....................    return(s1); 
.................... } 
....................  
.................... /***********************************************************/ 
....................  
....................  
.................... /*comparison functions*/ 
.................... /* standard template: signed int memcmp(void *s1, void *s2). 
....................    Compares s1 & s2; returns -1 if s1<s2, 0 if s1=s2, 1 if s1>s2 */ 
....................  
.................... signed int8 memcmp(void * s1,char *s2,size_t n) 
.................... { 
.................... char *su1, *su2; 
.................... for(su1=s1, su2=s2; 0<n; ++su1, ++su2, --n) 
.................... { 
....................    if(*su1!=*su2) 
....................       return ((*su1<*su2)?-1:+1); 
.................... } 
.................... return 0; 
.................... } 
....................  
.................... /* standard template: int strcmp(const char *s1, const char *s2). 
....................    Compares s1 & s2; returns -1 if s1<s2, 0 if s1=s2, 1 if s1>s2 */ 
....................  
.................... signed int8 strcmp(char *s1, char *s2) 
.................... { 
....................    for (; *s1 == *s2; s1++, s2++) 
....................       if (*s1 == '\0') 
....................          return(0); 
....................    return((*s1 < *s2) ? -1: 1); 
.................... } 
.................... /* standard template: int strcoll(const char *s1, const char *s2). 
....................    Compares s1 & s2; returns -1 if s1<s2, 0 if s1=s2, 1 if s1>s2 */ 
....................  
.................... signed int8 strcoll(char *s1, char *s2) 
.................... { 
....................    for (; *s1 == *s2; s1++, s2++) 
....................       if (*s1 == '\0') 
....................          return(0); 
....................    return((*s1 < *s2) ? -1: 1); 
.................... } 
....................  
.................... /* standard template: 
....................    int strncmp(const char *s1, const char *s2, size_t n). 
....................    Compares max of n characters (not following 0) from s1 to s2; 
....................    returns same as strcmp */ 
....................  
.................... signed int8 strncmp(char *s1, char *s2, size_t n) 
.................... { 
....................    for (; n > 0; s1++, s2++, n--) 
....................       if (*s1 != *s2) 
....................          return((*s1 <*s2) ? -1: 1); 
....................       else if (*s1 == '\0') 
....................          return(0); 
....................    return(0); 
.................... } 
.................... /* standard template: 
....................    int strxfrm(const char *s1, const char *s2, size_t n). 
....................    transforms maximum of n characters from s2 and places them into s1*/ 
.................... size_t strxfrm(char *s1, char *s2, size_t n) 
.................... { 
....................   char *s; 
....................   unsigned int8 n1; 
....................   n1=n; 
....................   for (s = s1; n > 0 && *s2 != '\0'; n--) 
....................      *s++ = *s2++; 
....................   for (; n > 0; n--) 
....................      *s++ = '\0'; 
....................  
....................   return(n1); 
.................... } 
....................  
....................  
....................  
....................  
....................  
.................... /***********************************************************/ 
.................... /*Search functions*/ 
.................... /* standard template: void *memchr(const char *s, int c). 
....................    Finds first occurrence of c in n characters of s */ 
....................  
.................... char *memchr(void *s,unsigned int8 c,size_t n) 
.................... { 
....................    char uc; 
....................    char *su; 
....................    uc=c; 
....................    for(su=s;0<n;++su,--n) 
....................       if(*su==uc) 
....................       return su; 
....................    return NULL; 
.................... } 
....................  
.................... /* standard template: char *strchr(const char *s, int c). 
....................    Finds first occurrence of c in s */ 
....................  
.................... char *strchr(char *s, unsigned int8 c) 
.................... { 
....................    for (; *s != c; s++) 
....................       if (*s == '\0') 
....................          return(0); 
....................    return(s); 
.................... } 
.................... /* standard template: 
....................    size_t strcspn(const char *s1, const char *s2). 
....................    Computes length of max initial segment of s1 that 
....................    consists entirely of characters NOT from s2*/ 
....................  
.................... unsigned int8  strcspn(char *s1, char *s2) 
.................... { 
....................    char *sc1, *sc2; 
....................  
....................    for (sc1 = s1; *sc1 != 0; sc1++) 
....................       for (sc2 = s2; *sc2 != 0; sc2++) 
....................          if (*sc1 == *sc2) 
....................             return(sc1 - s1); 
....................    return(sc1 - s1); 
.................... } 
.................... /* standard template: 
....................    char *strpbrk(const char *s1, const char *s2). 
....................    Locates first occurence of any character from s2 in s1; 
....................    returns s1 if s2 is empty string */ 
....................  
.................... char *strpbrk(char *s1, char *s2) 
.................... { 
....................    char *sc1, *sc2; 
....................  
....................    for (sc1 = s1; *sc1 != 0; sc1++) 
....................       for (sc2 = s2; *sc2 != 0; sc2++) 
....................          if (*sc1 == *sc2) 
....................             return(sc1); 
....................    return(0); 
.................... } 
....................  
....................  
.................... /* standard template: char *strrchr(const char *s, int c). 
....................    Finds last occurrence of c in s */ 
....................  
.................... char *strrchr(char *s, unsigned int8 c) 
.................... { 
....................    char *p; 
....................  
....................    for (p = 0; ; s++) 
....................    { 
....................       if (*s == c) 
....................          p = s; 
....................       if (*s == '\0') 
....................          return(p); 
....................    } 
.................... } 
.................... /* computes length of max initial segment of s1 consisting 
....................    entirely of characters from s2 */ 
....................  
.................... unsigned int8  strspn(char *s1, char *s2) 
.................... { 
....................    char *sc1, *sc2; 
....................  
....................    for (sc1 = s1; *sc1 != 0; sc1++) 
....................       for (sc2 = s2; ; sc2++) 
....................     if (*sc2 == '\0') 
....................        return(sc1 - s1); 
....................          else if (*sc1 == *sc2) 
....................             break; 
....................    return(sc1 - s1); 
.................... } 
.................... /* standard template: 
....................    char *strstr(const char *s1, const char *s2); 
....................    Locates first occurence of character sequence s2 in s1; 
....................    returns 0 if s2 is empty string 
....................  
....................    Uncomment #define FASTER_BUT_MORE_ROM at the top of the 
....................    file to use the faster algorithm */ 
.................... char *strstr(char *s1, char *s2) 
.................... { 
....................    char *s, *t; 
....................  
....................    #ifdef FASTER_BUT_MORE_ROM 
....................    if (*s2 == '\0') 
....................          return(s1); 
....................    #endif 
....................  
....................    while (*s1) 
....................    { 
....................       for(s = s1, t = s2; *t && (*s == *t); ++s, ++t); 
....................  
....................       if (*t == '\0') 
....................          return s1; 
....................       ++s1; 
....................       #ifdef FASTER_BUT_MORE_ROM 
....................          while(*s1 != '\0' && *s1 != *s2) 
....................             ++s1; 
....................       #endif 
....................    } 
....................    return 0; 
.................... } 
....................  
.................... /* standard template: char *strtok(char *s1, const char *s2). 
....................  
....................    Finds next token in s1 delimited by a character from separator 
....................    string s2 (which can be different from call to call).  First call 
....................    starts at beginning of s1 searching for first character NOT 
....................    contained in s2; returns 0 if none is found. 
....................    If one is found, it is the start of first token (return value). 
....................    Function then searches from there for a character contained in s2. 
....................    If none is found, current token extends to end of s1, and subsequent 
....................    searches for a token will return 0.  If one is found, it is 
....................    overwritten by '\0', which terminates current token.  Function saves 
....................    pointer to following character from which next search will start. 
....................    Each subsequent call, with 0 as first argument, starts searching 
....................    from saved pointer */ 
....................  
.................... char *strtok(char *s1, char *s2) 
.................... { 
....................    char *beg, *end; 
....................    static char *save; 
....................  
....................    beg = (s1)? s1: save; 
....................    beg += strspn(beg, s2); 
....................    if (*beg == '\0') 
....................    { 
....................       *save = ' '; 
....................       return(0); 
....................    } 
....................    end = strpbrk(beg, s2); 
....................    if (*end != '\0') 
....................    { 
....................       *end = '\0'; 
....................       end++; 
....................    } 
....................    save = end; 
....................    return(beg); 
.................... } 
....................  
.................... /*****************************************************************/ 
.................... /*Miscellaneous functions*/ 
.................... /* standard template 
.................... maps error number in errnum to an error message string 
.................... Returns: Pointer to string 
.................... */ 
.................... #ifdef _ERRNO 
.................... char * strerror(unsigned int8 errnum) 
.................... { 
.................... char s[15]; 
.................... switch( errnum) 
.................... { 
.................... case 0: 
....................    strcpy(s,"no errors"); 
....................    return s; 
.................... case EDOM : 
....................    strcpy(s,"domain error"); 
....................    return s; 
.................... case ERANGE: 
....................    strcpy(s,"range error"); 
....................    return s; 
.................... } 
.................... } 
.................... #ENDIF 
.................... /* standard template: size_t strlen(const char *s). 
....................    Computes length of s1 (preceding terminating 0) */ 
....................  
.................... unsigned int8 strlen(char *s) 
.................... { 
....................    char *sc; 
....................  
....................    for (sc = s; *sc != 0; sc++); 
....................    return(sc - s); 
.................... } 
....................  
.................... /* standard template: size_t stricmp(const char *s1, const char *s2). 
....................    Compares s1 to s2 ignoring case (upper vs. lower) */ 
....................  
.................... signed int8 stricmp(char *s1, char *s2) 
.................... { 
....................  for(; *s1==*s2||(isalpha(*s1)&&isalpha(*s2)&&(*s1==*s2+32||*s2==*s1+32)); 
....................     s1++, s2++) 
....................     if (*s1 == '\0') 
....................        return(0); 
....................  return((*s1 < *s2) ? -1: 1); 
.................... } 
....................  
....................  
.................... /* standard template: char *strlwr(char *s). 
....................    Replaces uppercase letters by lowercase; 
....................    returns pointer to new string s */ 
....................  
.................... char *strlwr(char *s) 
.................... { 
....................    char *p; 
....................  
....................    for (p = s; *p != '\0'; p++) 
....................       if (*p >= 'A' && *p <='Z') 
....................          *p += 'a' - 'A'; 
....................    return(s); 
.................... } 
....................  
....................  
.................... /************************************************************/ 
....................  
....................  
.................... #endif 
....................  
.................... #include <stdlib.h> 
.................... /////////////////////////////////////////////////////////////////////////// 
.................... ////        (C) Copyright 1996,2007 Custom Computer Services           //// 
.................... //// This source code may only be used by licensed users of the CCS C  //// 
.................... //// compiler.  This source code may only be distributed to other      //// 
.................... //// licensed users of the CCS C compiler.  No other use, reproduction //// 
.................... //// or distribution is permitted without written permission.          //// 
.................... //// Derivative programs created using this software in object code    //// 
.................... //// form are not restricted in any way.                               //// 
.................... /////////////////////////////////////////////////////////////////////////// 
....................  
.................... #ifndef _STDLIB 
.................... #define _STDLIB 
....................  
.................... //--------------------------------------------------------------------------- 
.................... // Definitions and types 
.................... //--------------------------------------------------------------------------- 
....................  
.................... #ifndef RAND_MAX 
.................... #define RAND_MAX  32767    // The value of which is the maximum value 
....................                            // ... returned by the rand function 
.................... #endif 
....................  
....................  
.................... #IF (sizeof(int16*)>1) 
.................... #DEFINE LONG_POINTERS 1 
.................... #ELSE  
.................... #DEFINE LONG_POINTERS 0 
.................... #ENDIF 
....................  
.................... typedef struct { 
....................    signed int quot; 
....................    signed int rem; 
.................... } div_t; 
....................  
.................... typedef struct { 
....................    signed long quot; 
....................    signed long rem; 
.................... } ldiv_t; 
....................  
.................... #include <stddef.h> 
.................... /////////////////////////////////////////////////////////////////////////// 
.................... ////        (C) Copyright 1996,2003 Custom Computer Services           //// 
.................... //// This source code may only be used by licensed users of the CCS C  //// 
.................... //// compiler.  This source code may only be distributed to other      //// 
.................... //// licensed users of the CCS C compiler.  No other use, reproduction //// 
.................... //// or distribution is permitted without written permission.          //// 
.................... //// Derivative programs created using this software in object code    //// 
.................... //// form are not restricted in any way.                               //// 
.................... /////////////////////////////////////////////////////////////////////////// 
....................  
.................... #ifndef _STDDEF 
....................  
.................... #define _STDDEF 
....................  
.................... #if sizeof(unsigned int8 *)==1 
.................... #define ptrdiff_t unsigned int8 
.................... #else 
.................... #define ptrdiff_t unsigned int16 
.................... #endif 
....................  
.................... #define size_t unsigned int8 
.................... #define wchar_t char 
.................... #define NULL 0 
....................  
.................... #define offsetof(s,f) (offsetofbit(s,f)/8) 
....................  
.................... #endif 
....................  
....................  
.................... //--------------------------------------------------------------------------- 
.................... // String conversion functions 
.................... //--------------------------------------------------------------------------- 
....................  
.................... /* Standard template: signed int  atoi(char * s) 
....................  * converts the initial portion of the string s to a signed int 
....................  * returns the converted value if any, 0 otherwise 
....................  */ 
.................... signed int atoi(char *s); 
....................  
.................... /* Syntax: signed int32  atoi32(char * s) 
....................    converts the initial portion of the string s to a signed int32 
....................    returns the converted value if any, 0 otherwise*/ 
.................... #if (sizeof(long)==4) 
....................  #define atoi32(s) atol(s) 
.................... #else  
....................  signed int32 atoi32(char *s); 
.................... #endif 
....................  
.................... #if defined(__PCD__) 
.................... // The following functions only work on the 24 bit compiler 
.................... // for the 30F, 33F, 24F and 24H parts 
.................... /* Syntax: signed int48  atoi48(char * s) 
....................    converts the initial portion of the string s to a signed int48 
....................    returns the converted value if any, 0 otherwise*/ 
....................     
.................... signed int48 atoi48(char *s); 
....................  
.................... /* Syntax: signed int64  atoi64(char * s) 
....................    converts the initial portion of the string s to a signed int64 
....................    returns the converted value if any, 0 otherwise*/ 
.................... signed int64 atoi64(char *s); 
.................... #endif 
....................  
.................... /* Syntax: char *  itoa(signed int32 num, int8 base, char * s) 
....................    converts the signed int32 to a string and 
....................    returns the converted value if any, 0 otherwise*/ 
.................... char * itoa(signed int32 num, unsigned int base, char * s); 
....................  
.................... /* Standard template: signed int16  atol(char * s) 
....................  * converts the initial portion of the string s to a signed int16 
....................  * returns the converted value if any, 0 otherwise 
....................  */ 
.................... signed long atol(char *s); 
....................  
.................... /* Standard template: int16 strtoul(char * s,char *endptr,signed int base) 
....................  * converts the initial portion of the string s, represented as an 
....................  * integral value of radix base  to a signed long. 
....................  * Returns the converted value if any, 0 otherwise 
....................  * the final string is returned in the endptr, if endptr is not null 
....................  */ 
.................... signed long strtol(char *s,char *endptr, signed int base); 
....................  
.................... /* Standard template: int16 strtoul(char * s,char *endptr,signed int base) 
....................  * converts the initial portion of the string s, represented as an 
....................  * integral value of radix base to a unsigned long. 
....................  * returns the converted value if any, 0 otherwise 
....................  * the final string is returned in the endptr, if endptr is not null 
....................  */ 
.................... unsigned long strtoul(char *s,char *endptr, signed int base); 
....................  
.................... /* Standart template: float strtof(char * s,char *endptr) 
....................                       float48 strtof48(char *s,char *endptr); 
....................                       float64 strtod(char *s,char *endptr); 
....................  * converts the initial portion of the string s to a float32, float48 or float64, 
....................  * returns the converted value if any, 0 otherwise 
....................  * the final string is returned in the endptr, if endptr is not null                    
.................... */ 
.................... float strtof(char *s,char *endptr); 
.................... #if defined(__PCD__) 
.................... float48 strtof48(char *s,char *endptr); 
.................... float64 strtod(char *s,char *endptr); 
.................... #else 
.................... //provided for compatibility 
.................... #define strtof48(s, e) strtof(s, e) 
.................... #define strtod(s, e) strtof(s, e) 
.................... #endif 
....................  
.................... /* Standard template: float32 atof(char * s) 
....................  * converts the initial portion of the string s to a float. 
....................  * returns the converted value if any, 0 otherwise 
....................  */ 
.................... #define atof(s)   strtof(s, 0) 
....................  
.................... #if defined(__PCD__) 
.................... // The following functions only work on the 24 bit compiler 
.................... // for the 30F, 33F, 24F and 24H parts 
....................  
.................... /* Standard template: float48 atof48(char * s) 
....................  * converts the initial portion of the string s to a float. 
....................  * returns the converted value if any, 0 otherwise 
....................  */ 
.................... #define atof48(s) strtof48(s, 0) 
....................  
.................... /* Standard template: float64 atof64(char * s) 
....................  * converts the initial portion of the string s to a float. 
....................  * returns the converted value if any, 0 otherwise 
....................  */ 
.................... #define atof64(s) strtod(s, 0) 
.................... #endif 
....................  
.................... /* Standard template: float32 atoe(char * s) 
....................  * converts the initial portion of the string s to a float. 
....................  * returns the converted value if any, 0 otherwise 
....................  * also handles E format numbers 
....................  */ 
.................... #if !defined(__PCD__) 
.................... float atoe(char * s); 
.................... #endif 
....................  
.................... #if defined(__PCD__) 
.................... float32 atoe(char * s); 
.................... #endif 
....................  
.................... //--------------------------------------------------------------------------- 
.................... // Pseudo-random sequence generation functions 
.................... //--------------------------------------------------------------------------- 
....................  
.................... /* The rand function computes a sequence of pseudo-random integers in 
....................  * the range 0 to RAND_MAX 
....................  * 
....................  * Parameters: 
....................  *       (none) 
....................  * 
....................  * Returns: 
....................  *       The pseudo-random integer 
....................  */ 
.................... unsigned int16 rand(void); 
....................  
.................... /* The srand function uses the argument as a seed for a new sequence of 
....................  * pseudo-random numbers to be returned by subsequent calls to rand. 
....................  * 
....................  * Parameters: 
....................  *       [in] seed: The seed value to start from. You might need to pass 
....................  * 
....................  * Returns: 
....................  *       (none) 
....................  * 
....................  * Remarks 
....................  *          The srand function sets the starting point for generating 
....................  *       a series of pseudorandom integers. To reinitialize the 
....................  *       generator, use 1 as the seed argument. Any other value for 
....................  *       seed sets the generator to a random starting point. rand 
....................  *       retrieves the pseudorandom numbers that are generated. 
....................  *       Calling rand before any call to srand generates the same 
....................  *       sequence as calling srand with seed passed as 1. 
....................  *          Usually, you need to pass a time here from outer source 
....................  *       so that the numbers will be different every time you run. 
....................  */ 
.................... void srand(unsigned int32 seed); 
....................  
.................... //--------------------------------------------------------------------------- 
.................... // Memory management functions 
.................... //--------------------------------------------------------------------------- 
....................  
.................... // Comming soon 
....................  
.................... //--------------------------------------------------------------------------- 
.................... // Communication with the environment 
.................... //--------------------------------------------------------------------------- 
....................  
.................... /* The function returns 0 always 
....................  */ 
.................... signed int8 system(char *string); 
....................  
.................... //--------------------------------------------------------------------------- 
.................... // Searching and sorting utilities 
.................... //--------------------------------------------------------------------------- 
....................  
.................... /* Performs a binary search of a sorted array.. 
....................  * 
....................  * Parameters: 
....................  *       [in] key: Object to search for 
....................  *       [in] base: Pointer to base of search data 
....................  *       [in] num: Number of elements 
....................  *       [in] width: Width of elements 
....................  *       [in] compare: Function that compares two elements 
....................  * 
....................  * Returns: 
....................  *       bsearch returns a pointer to an occurrence of key in the array pointed 
....................  *       to by base. If key is not found, the function returns NULL. If the 
....................  *       array is not in order or contains duplicate records with identical keys, 
....................  *       the result is unpredictable. 
....................  */ 
.................... //void *bsearch(const void *key, const void *base, size_t num, size_t width, 
.................... //              int (*compare)(const void *, const void *)); 
....................  
.................... /* Performs the shell-metzner sort (not the quick sort algorithm). The contents 
....................  * of the array are sorted into ascending order according to a comparison 
....................  * function pointed to by compar. 
....................  * 
....................  * Parameters: 
....................  *       [in] base: Pointer to base of search data 
....................  *       [in] num: Number of elements 
....................  *       [in] width: Width of elements 
....................  *       [in] compare: Function that compares two elements 
....................  * 
....................  * Returns: 
....................  *       (none) 
....................  */ 
.................... //void *qsort(const void *base, size_t num, size_t width, 
.................... //              int (*compare)(const void *, const void *)); 
....................  
.................... //--------------------------------------------------------------------------- 
.................... // Integer arithmetic functions 
.................... //--------------------------------------------------------------------------- 
....................  
.................... #define labs abs 
....................  
.................... div_t div(signed int numer, signed int denom); 
.................... ldiv_t ldiv(signed long numer, signed long denom); 
....................  
.................... //--------------------------------------------------------------------------- 
.................... // Multibyte character functions 
.................... //--------------------------------------------------------------------------- 
....................  
.................... // Not supported 
....................  
.................... //--------------------------------------------------------------------------- 
.................... // Multibyte string functions 
.................... //--------------------------------------------------------------------------- 
....................  
.................... // Not supported 
....................  
....................  
.................... //--------------------------------------------------------------------------- 
.................... // Internal implementation 
.................... //--------------------------------------------------------------------------- 
....................  
.................... #include <stddef.h> 
.................... /////////////////////////////////////////////////////////////////////////// 
.................... ////        (C) Copyright 1996,2003 Custom Computer Services           //// 
.................... //// This source code may only be used by licensed users of the CCS C  //// 
.................... //// compiler.  This source code may only be distributed to other      //// 
.................... //// licensed users of the CCS C compiler.  No other use, reproduction //// 
.................... //// or distribution is permitted without written permission.          //// 
.................... //// Derivative programs created using this software in object code    //// 
.................... //// form are not restricted in any way.                               //// 
.................... /////////////////////////////////////////////////////////////////////////// 
....................  
.................... #ifndef _STDDEF 
....................  
.................... #define _STDDEF 
....................  
.................... #if sizeof(unsigned int8 *)==1 
.................... #define ptrdiff_t unsigned int8 
.................... #else 
.................... #define ptrdiff_t unsigned int16 
.................... #endif 
....................  
.................... #define size_t unsigned int8 
.................... #define wchar_t char 
.................... #define NULL 0 
....................  
.................... #define offsetof(s,f) (offsetofbit(s,f)/8) 
....................  
.................... #endif 
....................  
.................... #include <string.h> 
.................... //////////////////////////////////////////////////////////////////////////// 
.................... ////        (C) Copyright 1996,2008 Custom Computer Services            //// 
.................... //// This source code may only be used by licensed users of the CCS C   //// 
.................... //// compiler.  This source code may only be distributed to other       //// 
.................... //// licensed users of the CCS C compiler.  No other use, reproduction  //// 
.................... //// or distribution is permitted without written permission.           //// 
.................... //// Derivative programs created using this software in object code     //// 
.................... //// form are not restricted in any way.                                //// 
.................... //////////////////////////////////////////////////////////////////////////// 
....................  
.................... #ifndef _STRING 
.................... #define _STRING 
.................... #include <stddef.h> 
.................... #include <ctype.h> 
....................  
....................  
....................  
.................... ////////////////////////////////////////////// 
.................... //// Uncomment the following define to    //// 
.................... //// allow some functions to use a        //// 
.................... //// quicker algorithm, but use more ROM  //// 
.................... ////                                      //// 
.................... //// #define FASTER_BUT_MORE_ROM          //// 
.................... ////////////////////////////////////////////// 
....................  
....................  
....................  
.................... /*Copying functions*/ 
.................... /* standard template: 
....................    void *memmove(void *s1, void *s2, size_t n). 
....................    Copies max of n characters safely (not following ending '\0') 
....................    from s2 in s1; if s2 has less than n characters, appends 0 */ 
....................  
.................... char *memmove(void *s1,char *s2,size_t n) 
.................... { 
....................    char *sc1; 
....................    char *sc2; 
....................    sc1=s1; 
....................    sc2=s2; 
....................    if(sc2<sc1 && sc1 <sc2 +n) 
....................       for(sc1+=n,sc2+=n;0<n;--n) 
....................          *--sc1=*--sc2; 
....................    else 
....................       for(;0<n;--n) 
....................          *sc1++=*sc2++; 
....................   return s1; 
....................   } 
....................  
.................... /* Standard template: char *strcpy(char *s1, const char *s2) 
....................    copies the string s2 including the null character to s1. 
....................    This is a compiler built in to handle the different address 
....................    spaces */ 
....................  
.................... #define strcopy strcpy 
....................  
.................... /* standard template: 
....................    char *strncpy(char *s1, const char *s2, size_t n). 
....................    Copies max of n characters (not following ending '\0') 
....................    from s2 in s1; if s2 has less than n characters, appends 0 */ 
....................  
.................... char *strncpy(char *s1, char *s2, size_t n) 
.................... { 
....................   char *s; 
....................  
....................   for (s = s1; n > 0 && *s2 != '\0'; n--) 
....................      *s++ = *s2++; 
....................   for (; n > 0; n--) 
....................      *s++ = '\0'; 
....................  
....................   return(s1); 
.................... } 
.................... /***********************************************************/ 
....................  
.................... /*concatenation functions*/ 
.................... /* standard template: char *strcat(char *s1, const char *s2) 
.................... appends s2 to s1*/ 
....................  
.................... char *strcat(char *s1, char *s2) 
.................... { 
....................    char *s; 
....................  
....................    for (s = s1; *s != '\0'; ++s); 
....................    while(*s2 != '\0') 
....................    { 
....................       *s = *s2; 
....................       ++s; 
....................       ++s2; 
....................    } 
....................  
....................    *s = '\0'; 
....................    return(s1); 
.................... } 
.................... /* standard template: char *strncat(char *s1, char *s2,size_t n) 
.................... appends not more than n characters from s2 to s1*/ 
....................  
.................... char *strncat(char *s1, char *s2, size_t n) 
.................... { 
....................    char *s; 
....................  
....................    for (s = s1; *s != '\0'; ++s); 
....................    while(*s2 != '\0' && 0<n) 
....................    { 
....................       *s = *s2; 
....................       ++s; 
....................       ++s2; 
....................       --n; 
....................    } 
....................  
....................    *s = '\0'; 
....................    return(s1); 
.................... } 
....................  
.................... /***********************************************************/ 
....................  
....................  
.................... /*comparison functions*/ 
.................... /* standard template: signed int memcmp(void *s1, void *s2). 
....................    Compares s1 & s2; returns -1 if s1<s2, 0 if s1=s2, 1 if s1>s2 */ 
....................  
.................... signed int8 memcmp(void * s1,char *s2,size_t n) 
.................... { 
.................... char *su1, *su2; 
.................... for(su1=s1, su2=s2; 0<n; ++su1, ++su2, --n) 
.................... { 
....................    if(*su1!=*su2) 
....................       return ((*su1<*su2)?-1:+1); 
.................... } 
.................... return 0; 
.................... } 
....................  
.................... /* standard template: int strcmp(const char *s1, const char *s2). 
....................    Compares s1 & s2; returns -1 if s1<s2, 0 if s1=s2, 1 if s1>s2 */ 
....................  
.................... signed int8 strcmp(char *s1, char *s2) 
.................... { 
....................    for (; *s1 == *s2; s1++, s2++) 
....................       if (*s1 == '\0') 
....................          return(0); 
....................    return((*s1 < *s2) ? -1: 1); 
.................... } 
.................... /* standard template: int strcoll(const char *s1, const char *s2). 
....................    Compares s1 & s2; returns -1 if s1<s2, 0 if s1=s2, 1 if s1>s2 */ 
....................  
.................... signed int8 strcoll(char *s1, char *s2) 
.................... { 
....................    for (; *s1 == *s2; s1++, s2++) 
....................       if (*s1 == '\0') 
....................          return(0); 
....................    return((*s1 < *s2) ? -1: 1); 
.................... } 
....................  
.................... /* standard template: 
....................    int strncmp(const char *s1, const char *s2, size_t n). 
....................    Compares max of n characters (not following 0) from s1 to s2; 
....................    returns same as strcmp */ 
....................  
.................... signed int8 strncmp(char *s1, char *s2, size_t n) 
.................... { 
....................    for (; n > 0; s1++, s2++, n--) 
....................       if (*s1 != *s2) 
....................          return((*s1 <*s2) ? -1: 1); 
....................       else if (*s1 == '\0') 
....................          return(0); 
....................    return(0); 
.................... } 
.................... /* standard template: 
....................    int strxfrm(const char *s1, const char *s2, size_t n). 
....................    transforms maximum of n characters from s2 and places them into s1*/ 
.................... size_t strxfrm(char *s1, char *s2, size_t n) 
.................... { 
....................   char *s; 
....................   unsigned int8 n1; 
....................   n1=n; 
....................   for (s = s1; n > 0 && *s2 != '\0'; n--) 
....................      *s++ = *s2++; 
....................   for (; n > 0; n--) 
....................      *s++ = '\0'; 
....................  
....................   return(n1); 
.................... } 
....................  
....................  
....................  
....................  
....................  
.................... /***********************************************************/ 
.................... /*Search functions*/ 
.................... /* standard template: void *memchr(const char *s, int c). 
....................    Finds first occurrence of c in n characters of s */ 
....................  
.................... char *memchr(void *s,unsigned int8 c,size_t n) 
.................... { 
....................    char uc; 
....................    char *su; 
....................    uc=c; 
....................    for(su=s;0<n;++su,--n) 
....................       if(*su==uc) 
....................       return su; 
....................    return NULL; 
.................... } 
....................  
.................... /* standard template: char *strchr(const char *s, int c). 
....................    Finds first occurrence of c in s */ 
....................  
.................... char *strchr(char *s, unsigned int8 c) 
.................... { 
....................    for (; *s != c; s++) 
....................       if (*s == '\0') 
....................          return(0); 
....................    return(s); 
.................... } 
.................... /* standard template: 
....................    size_t strcspn(const char *s1, const char *s2). 
....................    Computes length of max initial segment of s1 that 
....................    consists entirely of characters NOT from s2*/ 
....................  
.................... unsigned int8  strcspn(char *s1, char *s2) 
.................... { 
....................    char *sc1, *sc2; 
....................  
....................    for (sc1 = s1; *sc1 != 0; sc1++) 
....................       for (sc2 = s2; *sc2 != 0; sc2++) 
....................          if (*sc1 == *sc2) 
....................             return(sc1 - s1); 
....................    return(sc1 - s1); 
.................... } 
.................... /* standard template: 
....................    char *strpbrk(const char *s1, const char *s2). 
....................    Locates first occurence of any character from s2 in s1; 
....................    returns s1 if s2 is empty string */ 
....................  
.................... char *strpbrk(char *s1, char *s2) 
.................... { 
....................    char *sc1, *sc2; 
....................  
....................    for (sc1 = s1; *sc1 != 0; sc1++) 
....................       for (sc2 = s2; *sc2 != 0; sc2++) 
....................          if (*sc1 == *sc2) 
....................             return(sc1); 
....................    return(0); 
.................... } 
....................  
....................  
.................... /* standard template: char *strrchr(const char *s, int c). 
....................    Finds last occurrence of c in s */ 
....................  
.................... char *strrchr(char *s, unsigned int8 c) 
.................... { 
....................    char *p; 
....................  
....................    for (p = 0; ; s++) 
....................    { 
....................       if (*s == c) 
....................          p = s; 
....................       if (*s == '\0') 
....................          return(p); 
....................    } 
.................... } 
.................... /* computes length of max initial segment of s1 consisting 
....................    entirely of characters from s2 */ 
....................  
.................... unsigned int8  strspn(char *s1, char *s2) 
.................... { 
....................    char *sc1, *sc2; 
....................  
....................    for (sc1 = s1; *sc1 != 0; sc1++) 
....................       for (sc2 = s2; ; sc2++) 
....................     if (*sc2 == '\0') 
....................        return(sc1 - s1); 
....................          else if (*sc1 == *sc2) 
....................             break; 
....................    return(sc1 - s1); 
.................... } 
.................... /* standard template: 
....................    char *strstr(const char *s1, const char *s2); 
....................    Locates first occurence of character sequence s2 in s1; 
....................    returns 0 if s2 is empty string 
....................  
....................    Uncomment #define FASTER_BUT_MORE_ROM at the top of the 
....................    file to use the faster algorithm */ 
.................... char *strstr(char *s1, char *s2) 
.................... { 
....................    char *s, *t; 
....................  
....................    #ifdef FASTER_BUT_MORE_ROM 
....................    if (*s2 == '\0') 
....................          return(s1); 
....................    #endif 
....................  
....................    while (*s1) 
....................    { 
....................       for(s = s1, t = s2; *t && (*s == *t); ++s, ++t); 
....................  
....................       if (*t == '\0') 
....................          return s1; 
....................       ++s1; 
....................       #ifdef FASTER_BUT_MORE_ROM 
....................          while(*s1 != '\0' && *s1 != *s2) 
....................             ++s1; 
....................       #endif 
....................    } 
....................    return 0; 
.................... } 
....................  
.................... /* standard template: char *strtok(char *s1, const char *s2). 
....................  
....................    Finds next token in s1 delimited by a character from separator 
....................    string s2 (which can be different from call to call).  First call 
....................    starts at beginning of s1 searching for first character NOT 
....................    contained in s2; returns 0 if none is found. 
....................    If one is found, it is the start of first token (return value). 
....................    Function then searches from there for a character contained in s2. 
....................    If none is found, current token extends to end of s1, and subsequent 
....................    searches for a token will return 0.  If one is found, it is 
....................    overwritten by '\0', which terminates current token.  Function saves 
....................    pointer to following character from which next search will start. 
....................    Each subsequent call, with 0 as first argument, starts searching 
....................    from saved pointer */ 
....................  
.................... char *strtok(char *s1, char *s2) 
.................... { 
....................    char *beg, *end; 
....................    static char *save; 
....................  
....................    beg = (s1)? s1: save; 
....................    beg += strspn(beg, s2); 
....................    if (*beg == '\0') 
....................    { 
....................       *save = ' '; 
....................       return(0); 
....................    } 
....................    end = strpbrk(beg, s2); 
....................    if (*end != '\0') 
....................    { 
....................       *end = '\0'; 
....................       end++; 
....................    } 
....................    save = end; 
....................    return(beg); 
.................... } 
....................  
.................... /*****************************************************************/ 
.................... /*Miscellaneous functions*/ 
.................... /* standard template 
.................... maps error number in errnum to an error message string 
.................... Returns: Pointer to string 
.................... */ 
.................... #ifdef _ERRNO 
.................... char * strerror(unsigned int8 errnum) 
.................... { 
.................... char s[15]; 
.................... switch( errnum) 
.................... { 
.................... case 0: 
....................    strcpy(s,"no errors"); 
....................    return s; 
.................... case EDOM : 
....................    strcpy(s,"domain error"); 
....................    return s; 
.................... case ERANGE: 
....................    strcpy(s,"range error"); 
....................    return s; 
.................... } 
.................... } 
.................... #ENDIF 
.................... /* standard template: size_t strlen(const char *s). 
....................    Computes length of s1 (preceding terminating 0) */ 
....................  
.................... unsigned int8 strlen(char *s) 
.................... { 
....................    char *sc; 
....................  
....................    for (sc = s; *sc != 0; sc++); 
....................    return(sc - s); 
.................... } 
....................  
.................... /* standard template: size_t stricmp(const char *s1, const char *s2). 
....................    Compares s1 to s2 ignoring case (upper vs. lower) */ 
....................  
.................... signed int8 stricmp(char *s1, char *s2) 
.................... { 
....................  for(; *s1==*s2||(isalpha(*s1)&&isalpha(*s2)&&(*s1==*s2+32||*s2==*s1+32)); 
....................     s1++, s2++) 
....................     if (*s1 == '\0') 
....................        return(0); 
....................  return((*s1 < *s2) ? -1: 1); 
.................... } 
....................  
....................  
.................... /* standard template: char *strlwr(char *s). 
....................    Replaces uppercase letters by lowercase; 
....................    returns pointer to new string s */ 
....................  
.................... char *strlwr(char *s) 
.................... { 
....................    char *p; 
....................  
....................    for (p = s; *p != '\0'; p++) 
....................       if (*p >= 'A' && *p <='Z') 
....................          *p += 'a' - 'A'; 
....................    return(s); 
.................... } 
....................  
....................  
.................... /************************************************************/ 
....................  
....................  
.................... #endif 
....................  
....................  
.................... div_t div(signed int numer, signed int denom) 
.................... { 
....................    div_t val; 
....................    val.quot = numer / denom; 
....................    val.rem = numer - (denom * val.quot); 
....................    return (val); 
.................... } 
....................  
.................... ldiv_t ldiv(signed long numer, signed long denom) 
.................... { 
....................    ldiv_t val; 
....................  
....................    val.quot = numer / denom; 
....................    val.rem = numer - (denom * val.quot); 
....................    return (val); 
.................... } 
....................  
.................... #if defined(__PCD__) 
.................... float32 atoe(char * s) 
.................... { 
....................    float32 pow10 = 1.0; 
....................    float32 result = 0.0; 
....................    unsigned int8 sign = 0; 
....................    unsigned int8 expsign = 0; 
....................    char c; 
....................    unsigned int8 ptr = 0; 
....................    unsigned int8 i; 
....................    float32 exp = 1.0; 
....................    unsigned int8 expcnt = 0; 
....................  
....................    c = s[ptr++]; 
....................  
....................    if ((c>='0' && c<='9') || c=='+' || c=='-' || c=='.' || c=='E' || c=='e') { 
....................       if(c == '-') { 
....................          sign = 1; 
....................          c = s[ptr++]; 
....................       } 
....................       if(c == '+') 
....................          c = s[ptr++]; 
....................  
....................       while((c >= '0' && c <= '9')) { 
....................          result = 10*result + c - '0'; 
....................          c = s[ptr++]; 
....................       } 
....................  
....................       if (c == '.') { 
....................          c = s[ptr++]; 
....................          while((c >= '0' && c <= '9')) { 
....................              pow10 = pow10*10; 
....................              result += (c - '0')/pow10; 
....................              c = s[ptr++]; 
....................          } 
....................       } 
....................  
....................       // Handling the exponent 
....................       if (c=='e' || c=='E') { 
....................          c = s[ptr++]; 
....................  
....................          if(c == '-') { 
....................             expsign = 1; 
....................             c = s[ptr++]; 
....................          } 
....................          if(c == '+') 
....................             c = s[ptr++]; 
....................  
....................          while((c >= '0' && c <= '9')) { 
....................             expcnt = 10*expcnt + c - '0'; 
....................             c = s[ptr++]; 
....................          } 
....................  
....................          for(i=0;i<expcnt;i++) 
....................             exp*=10; 
....................  
....................          if(expsign==1) 
....................             result/=exp; 
....................          else 
....................             result*=exp; 
....................       } 
....................    } 
....................  
....................    if (sign == 1) 
....................       result = -1*result; 
....................    return(result); 
.................... } 
.................... #endif 
....................  
.................... #if !defined(__PCD__) 
.................... float atoe(char * s) 
.................... { 
....................    float pow10 = 1.0; 
....................    float result = 0.0; 
....................    unsigned int8 sign = 0; 
....................    unsigned int8 expsign = 0; 
....................    char c; 
....................    unsigned int8 ptr = 0; 
....................    unsigned int8 i; 
....................    float exp = 1.0; 
....................    unsigned int8 expcnt = 0; 
....................  
....................    c = s[ptr++]; 
....................  
....................    if ((c>='0' && c<='9') || c=='+' || c=='-' || c=='.' || c=='E' || c=='e') { 
....................       if(c == '-') { 
....................          sign = 1; 
....................          c = s[ptr++]; 
....................       } 
....................       if(c == '+') 
....................          c = s[ptr++]; 
....................  
....................       while((c >= '0' && c <= '9')) { 
....................          result = 10*result + c - '0'; 
....................          c = s[ptr++]; 
....................       } 
....................  
....................       if (c == '.') { 
....................          c = s[ptr++]; 
....................          while((c >= '0' && c <= '9')) { 
....................              pow10 = pow10*10; 
....................              result += (c - '0')/pow10; 
....................              c = s[ptr++]; 
....................          } 
....................       } 
....................  
....................       // Handling the exponent 
....................       if (c=='e' || c=='E') { 
....................          c = s[ptr++]; 
....................  
....................          if(c == '-') { 
....................             expsign = 1; 
....................             c = s[ptr++]; 
....................          } 
....................          if(c == '+') 
....................             c = s[ptr++]; 
....................  
....................          while((c >= '0' && c <= '9')) { 
....................             expcnt = 10*expcnt + c - '0'; 
....................             c = s[ptr++]; 
....................          } 
....................  
....................          for(i=0;i<expcnt;i++) 
....................             exp*=10; 
....................  
....................          if(expsign==1) 
....................             result/=exp; 
....................          else 
....................             result*=exp; 
....................       } 
....................    } 
....................  
....................    if (sign == 1) 
....................       result = -1*result; 
....................    return(result); 
.................... } 
.................... #endif 
....................  
.................... signed int atoi(char *s) 
.................... { 
....................    signed int result; 
....................    unsigned int sign, base, index; 
....................    char c; 
....................  
....................    index = 0; 
....................    sign = 0; 
....................    base = 10; 
....................    result = 0; 
....................  
....................    if (!s) 
....................       return 0; 
....................    // Omit all preceeding alpha characters 
....................    c = s[index++]; 
....................  
....................    // increase index if either positive or negative sign is detected 
....................    if (c == '-') 
....................    { 
....................       sign = 1;         // Set the sign to negative 
....................       c = s[index++]; 
....................    } 
....................    else if (c == '+') 
....................    { 
....................       c = s[index++]; 
....................    } 
....................  
....................    if (c >= '0' && c <= '9') 
....................    { 
....................  
....................       // Check for hexa number 
....................       if (c == '0' && (s[index] == 'x' || s[index] == 'X')) 
....................       { 
....................          base = 16; 
....................          index++; 
....................          c = s[index++]; 
....................       } 
....................  
....................       // The number is a decimal number 
....................       if (base == 10) 
....................       { 
....................          while (c >= '0' && c <= '9') 
....................          { 
....................             result = 10*result + (c - '0'); 
....................             c = s[index++]; 
....................          } 
....................       } 
....................       else if (base == 16)    // The number is a hexa number 
....................       { 
....................          c = toupper(c); 
....................          while ( (c >= '0' && c <= '9') || (c >= 'A' && c<='F')) 
....................          { 
....................             if (c >= '0' && c <= '9') 
....................                result = (result << 4) + (c - '0'); 
....................             else 
....................                result = (result << 4) + (c - 'A' + 10); 
....................  
....................             c = s[index++]; 
....................             c = toupper(c); 
....................          } 
....................       } 
....................    } 
....................  
....................    if (sign == 1 && base == 10) 
....................        result = -result; 
....................  
....................    return(result); 
.................... } 
....................  
.................... signed long atol(char *s) 
.................... { 
....................    signed long result; 
....................    unsigned int sign, base, index; 
....................    char c; 
....................  
....................    index = 0; 
....................    sign = 0; 
....................    base = 10; 
....................    result = 0; 
....................  
....................    if (!s) 
....................       return 0; 
....................    c = s[index++]; 
....................  
....................    // increase index if either positive or negative sign is detected 
....................    if (c == '-') 
....................    { 
....................       sign = 1;         // Set the sign to negative 
....................       c = s[index++]; 
....................    } 
....................    else if (c == '+') 
....................    { 
....................       c = s[index++]; 
....................    } 
....................  
....................    if (c >= '0' && c <= '9') 
....................    { 
....................       if (c == '0' && (s[index] == 'x' || s[index] == 'X')) 
....................       { 
....................          base = 16; 
....................          index++; 
....................          c = s[index++]; 
....................       } 
....................  
....................       // The number is a decimal number 
....................       if (base == 10) 
....................       { 
....................          while (c >= '0' && c <= '9') 
....................          { 
....................             result = 10*result + (c - '0'); 
....................             c = s[index++]; 
....................          } 
....................       } 
....................       else if (base == 16)    // The number is a hexa number 
....................       { 
....................          c = toupper(c); 
....................          while ( (c >= '0' && c <= '9') || (c >= 'A' && c <='F')) 
....................          { 
....................             if (c >= '0' && c <= '9') 
....................                result = (result << 4) + (c - '0'); 
....................             else 
....................                result = (result << 4) + (c - 'A' + 10); 
....................  
....................             c = s[index++];c = toupper(c); 
....................          } 
....................       } 
....................    } 
....................  
....................    if (base == 10 && sign == 1) 
....................       result = -result; 
....................  
....................    return(result); 
.................... } 
....................  
.................... /* A fast routine to multiply by 10 
....................  */ 
.................... signed int32 mult_with10(int32 num) 
.................... { 
....................    return ( (num << 1) + (num << 3) ); 
.................... } 
....................  
.................... #if sizeof(long)==2 
.................... signed int32 atoi32(char *s) 
.................... { 
....................    signed int32 result; 
....................    int8 sign, base, index; 
....................    char c; 
....................  
....................    index = 0; 
....................    sign = 0; 
....................    base = 10; 
....................    result = 0; 
....................  
....................    if (!s) 
....................       return 0; 
....................    c = s[index++]; 
....................  
....................    // increase index if either positive or negative sign is detected 
....................    if (c == '-') 
....................    { 
....................       sign = 1;         // Set the sign to negative 
....................       c = s[index++]; 
....................    } 
....................    else if (c == '+') 
....................    { 
....................       c = s[index++]; 
....................    } 
....................  
....................    if (c >= '0' && c <= '9') 
....................    { 
....................       if (c == '0' && (s[index] == 'x' || s[index] == 'X')) 
....................       { 
....................          base = 16; 
....................          index++; 
....................          c = s[index++]; 
....................       } 
....................  
....................       // The number is a decimal number 
....................       if (base == 10) 
....................       { 
....................          while (c >= '0' && c <= '9') { 
....................             result = (result << 1) + (result << 3);  // result *= 10; 
....................             result += (c - '0'); 
....................             c = s[index++]; 
....................          } 
....................       } 
....................       else if (base == 16)    // The number is a hexa number 
....................       { 
....................          c = toupper(c); 
....................          while ((c >= '0' && c <= '9') || (c >= 'A' && c <='F')) 
....................          { 
....................             if (c >= '0' && c <= '9') 
....................                result = (result << 4) + (c - '0'); 
....................             else 
....................                result = (result << 4) + (c - 'A' + 10); 
....................  
....................             c = s[index++];c = toupper(c); 
....................          } 
....................       } 
....................    } 
....................  
....................    if (base == 10 && sign == 1) 
....................       result = -result; 
....................  
....................    return(result); 
.................... } 
.................... #endif 
....................  
.................... #if defined(__PCD__) 
....................  
.................... signed int48 atoi48(char *s) 
.................... { 
....................    signed int48 result; 
....................    int8 sign, base, index; 
....................    char c; 
....................  
....................    index = 0; 
....................    sign = 0; 
....................    base = 10; 
....................    result = 0; 
....................  
....................    if (!s) 
....................       return 0; 
....................    c = s[index++]; 
....................  
....................    // increase index if either positive or negative sign is detected 
....................    if (c == '-') 
....................    { 
....................       sign = 1;         // Set the sign to negative 
....................       c = s[index++]; 
....................    } 
....................    else if (c == '+') 
....................    { 
....................       c = s[index++]; 
....................    } 
....................  
....................    if (c >= '0' && c <= '9') 
....................    { 
....................       if (c == '0' && (s[index] == 'x' || s[index] == 'X')) 
....................       { 
....................          base = 16; 
....................          index++; 
....................          c = s[index++]; 
....................       } 
....................  
....................       // The number is a decimal number 
....................       if (base == 10) 
....................       { 
....................          while (c >= '0' && c <= '9') { 
....................             result = (result << 1) + (result << 3);  // result *= 10; 
....................             result += (c - '0'); 
....................             c = s[index++]; 
....................          } 
....................       } 
....................       else if (base == 16)    // The number is a hexa number 
....................       { 
....................          c = toupper(c); 
....................          while ((c >= '0' && c <= '9') || (c >= 'A' && c <='F')) 
....................          { 
....................             if (c >= '0' && c <= '9') 
....................                result = (result << 4) + (c - '0'); 
....................             else 
....................                result = (result << 4) + (c - 'A' + 10); 
....................  
....................             c = s[index++];c = toupper(c); 
....................          } 
....................       } 
....................    } 
....................  
....................    if (base == 10 && sign == 1) 
....................       result = -result; 
....................  
....................    return(result); 
.................... } 
....................  
.................... signed int64 atoi64(char *s) 
.................... { 
....................    signed int64 result; 
....................    int8 sign, base, index; 
....................    char c; 
....................  
....................    index = 0; 
....................    sign = 0; 
....................    base = 10; 
....................    result = 0; 
....................  
....................    if (!s) 
....................       return 0; 
....................    c = s[index++]; 
....................  
....................    // increase index if either positive or negative sign is detected 
....................    if (c == '-') 
....................    { 
....................       sign = 1;         // Set the sign to negative 
....................       c = s[index++]; 
....................    } 
....................    else if (c == '+') 
....................    { 
....................       c = s[index++]; 
....................    } 
....................  
....................    if (c >= '0' && c <= '9') 
....................    { 
....................       if (c == '0' && (s[index] == 'x' || s[index] == 'X')) 
....................       { 
....................          base = 16; 
....................          index++; 
....................          c = s[index++]; 
....................       } 
....................  
....................       // The number is a decimal number 
....................       if (base == 10) 
....................       { 
....................          while (c >= '0' && c <= '9') { 
....................             result = (result << 1) + (result << 3);  // result *= 10; 
....................             result += (c - '0'); 
....................             c = s[index++]; 
....................          } 
....................       } 
....................       else if (base == 16)    // The number is a hexa number 
....................       { 
....................          c = toupper(c); 
....................          while ((c >= '0' && c <= '9') || (c >= 'A' && c <='F')) 
....................          { 
....................             if (c >= '0' && c <= '9') 
....................                result = (result << 4) + (c - '0'); 
....................             else 
....................                result = (result << 4) + (c - 'A' + 10); 
....................  
....................             c = s[index++];c = toupper(c); 
....................          } 
....................       } 
....................    } 
....................  
....................    if (base == 10 && sign == 1) 
....................       result = -result; 
....................  
....................    return(result); 
.................... } 
.................... #endif 
....................  
.................... char * itoa(signed int32 num, unsigned int base, char * s) 
.................... { 
....................      unsigned int32 temp=1; 
....................      unsigned int8 i,sign=0,cnt=0; 
....................      char c; 
....................  
....................      if(num<0) { 
....................          sign=1;        // Check for negative number 
....................          num*=-1; 
....................      } 
....................  
....................      while(temp>0) { 
....................          temp=(num/base); 
....................          s[cnt]=(num%base)+'0';    // Conversion 
....................  
....................          if(s[cnt]>0x39) 
....................             s[cnt]+=0x7; 
....................  
....................          cnt++; 
....................          num=temp; 
....................      } 
....................  
....................      if(sign==1) { 
....................          s[cnt]=0x2D;      // Negative sign 
....................          cnt++; 
....................      } 
....................  
....................      for(i = 0;i<(int8)(cnt/2);i++) { 
....................  
....................          c=s[i]; 
....................          s[i]=s[cnt-i-1];        // Reverse the number 
....................          s[cnt-i-1]=c; 
....................      } 
....................      s[cnt]='\0';     // End the string 
....................      return s; 
.................... } 
....................  
.................... float strtof(char *s, char *endptr) 
.................... { 
....................    float pow10 = 1.0; 
....................    float result = 0.0; 
....................    int1 skip = 1, sign = 0, point = 0; 
....................    char c; 
....................    unsigned int8 ptr = 0; 
....................  
....................    if (!s) 
....................       return 0; 
....................  
....................    for(c=s[ptr++]; c!=0; c=s[ptr++]) 
....................    { 
....................       if (skip && !isspace(c)) 
....................       { 
....................          skip = 0; 
....................          if (c == '+') 
....................          { 
....................             sign = 0; 
....................             continue; 
....................          }             
....................          else if (c == '-') 
....................          { 
....................             sign = 1; 
....................             continue; 
....................          } 
....................       } 
....................       if (!skip && (c == '.') && !point) 
....................          point = 1; 
....................       else if (!skip && isdigit(c)) 
....................       { 
....................          c -= '0'; 
....................          if (point) 
....................          { 
....................             pow10 = pow10 * 10.0; 
....................             result += (float)c / pow10;    
....................          } 
....................          else 
....................          { 
....................             result = 10.0 * result + (float)c; 
....................          } 
....................       } 
....................       else if (!skip) 
....................          break; 
....................    } 
....................  
....................    if (sign) 
....................       result = -1*result; 
....................        
....................    if(endptr) 
....................    { 
....................       if (ptr) { 
....................          ptr--; 
....................        #IF LONG_POINTERS  
....................          *((long *)endptr)= s+ptr;  
....................        #ELSE 
....................          *((char *)endptr)=s+ptr; 
....................        #ENDIF 
....................       } 
....................       else 
....................       { 
....................       #IF LONG_POINTERS 
....................       *((long *)endptr)= s;  
....................       #ELSE 
....................       *((char *)endptr)=s; 
....................       #ENDIF 
....................       } 
....................    } 
....................  
....................    return(result); 
.................... } 
....................  
.................... #if defined(__PCD__) 
.................... float48 strtof48(char *s, char *endptr) 
.................... { 
....................    float48 pow10 = 1.0; 
....................    float48 result = 0.0; 
....................    int1 skip = 1, sign = 0, point = 0; 
....................    char c; 
....................    unsigned int8 ptr = 0; 
....................  
....................    if (!s) 
....................       return 0; 
....................  
....................    for(c=s[ptr++]; c!=0; c=s[ptr++]) 
....................    { 
....................       if (skip && !isspace(c)) 
....................       { 
....................          skip = 0; 
....................          if (c == '+') 
....................          { 
....................             sign = 0; 
....................             continue; 
....................          }             
....................          else if (c == '-') 
....................          { 
....................             sign = 1; 
....................             continue; 
....................          } 
....................       } 
....................       if (!skip && (c == '.') && !point) 
....................          point = 1; 
....................       else if (!skip && isdigit(c)) 
....................       { 
....................          c -= '0'; 
....................          if (point) 
....................          { 
....................             pow10 = pow10 * 10.0; 
....................             result += (float48)c / pow10;    
....................          } 
....................          else 
....................          { 
....................             result = 10.0 * result + (float48)c; 
....................          } 
....................       } 
....................       else if (!skip) 
....................          break; 
....................    } 
....................  
....................    if (sign) 
....................       result = -1*result; 
....................        
....................    if(endptr) 
....................    { 
....................       if (ptr) { 
....................          ptr--; 
....................        #IF LONG_POINTERS  
....................          *((long *)endptr)= s+ptr;  
....................        #ELSE 
....................          *((char *)endptr)=s+ptr; 
....................        #ENDIF 
....................       } 
....................       else 
....................       { 
....................       #IF LONG_POINTERS 
....................       *((long *)endptr)= s;  
....................       #ELSE 
....................       *((char *)endptr)=s; 
....................       #ENDIF 
....................       } 
....................    } 
....................  
....................    return(result); 
.................... } 
....................  
.................... float64 strtod(char *s, char *endptr) 
.................... { 
....................    float64 pow10 = 1.0; 
....................    float64 result = 0.0; 
....................    int1 skip = 1, sign = 0, point = 0; 
....................    char c; 
....................    unsigned int8 ptr = 0; 
....................  
....................    if (!s) 
....................       return 0; 
....................  
....................    for(c=s[ptr++]; c!=0; c=s[ptr++]) 
....................    { 
....................       if (skip && !isspace(c)) 
....................       { 
....................          skip = 0; 
....................          if (c == '+') 
....................          { 
....................             sign = 0; 
....................             continue; 
....................          }             
....................          else if (c == '-') 
....................          { 
....................             sign = 1; 
....................             continue; 
....................          } 
....................       } 
....................       if (!skip && (c == '.') && !point) 
....................          point = 1; 
....................       else if (!skip && isdigit(c)) 
....................       { 
....................          c -= '0'; 
....................          if (point) 
....................          { 
....................             pow10 = pow10 * 10.0; 
....................             result += (float64)c / pow10;    
....................          } 
....................          else 
....................          { 
....................             result = 10.0 * result + (float64)c; 
....................          } 
....................       } 
....................       else if (!skip) 
....................          break; 
....................    } 
....................  
....................    if (sign) 
....................       result = -1*result; 
....................        
....................    if(endptr) 
....................    { 
....................       if (ptr) { 
....................          ptr--; 
....................        #IF LONG_POINTERS  
....................          *((long *)endptr)= s+ptr;  
....................        #ELSE 
....................          *((char *)endptr)=s+ptr; 
....................        #ENDIF 
....................       } 
....................       else 
....................       { 
....................       #IF LONG_POINTERS 
....................       *((long *)endptr)= s;  
....................       #ELSE 
....................       *((char *)endptr)=s; 
....................       #ENDIF 
....................       } 
....................    } 
....................  
....................    return(result); 
.................... } 
.................... #endif 
....................  
.................... unsigned long strtoul(char *s, char *endptr, signed int base) 
.................... { 
....................    char *sc,*s1,*sd; 
....................    unsigned long x=0; 
....................    char sign; 
....................    char digits[]="0123456789abcdefghijklmnopqstuvwxyz"; 
....................    for(sc=s;isspace(*sc);++sc); 
....................    sign=*sc=='-'||*sc=='+'?*sc++:'+'; 
....................    if(sign=='-' || base <0 || base ==1|| base >36) // invalid base 
....................    goto StrtoulGO; 
....................  
....................    else if (base) 
....................    { 
....................       if(base==16 && *sc =='0'&&(sc[1]=='x' || sc[1]=='X')) 
....................          sc+=2; 
....................       if(base==8 && *sc =='0') 
....................          sc+=1; 
....................       if(base==2 && *sc =='0'&&sc[1]=='b') 
....................          sc+=2; 
....................  
....................    } 
....................    else if(*sc!='0') // base is 0, find base 
....................       base=10; 
....................    else if (sc[1]=='x' || sc[1]=='X') 
....................       base =16,sc+=2; 
....................    else if(sc[1]=='b') 
....................       base=2,sc+=2; 
....................    else 
....................       base=8; 
....................    for (s1=sc;*sc=='0';++sc);// skip leading zeroes 
....................    sd=memchr(digits,tolower(*sc),base); 
....................    for(; sd!=0; ) 
....................    { 
....................       x=x*base+(int16)(sd-digits); 
....................       ++sc; 
....................       sd=memchr(digits,tolower(*sc),base); 
....................    } 
....................    if(s1==sc) 
....................    { 
....................    StrtoulGO: 
....................       if (endptr) 
....................       { 
....................          #IF LONG_POINTERS 
....................          *((long *)endptr)= s;  
....................          #ELSE 
....................          *((char *)endptr)=s; 
....................          #ENDIF 
....................          } 
....................    return 0; 
....................    } 
....................    if (endptr) 
....................    { 
....................          #IF LONG_POINTERS 
....................          *((long *)endptr)= sc;  
....................          #ELSE 
....................          *((char *)endptr)=sc;  
....................          #ENDIF 
....................    } 
....................    return x; 
.................... } 
....................  
....................  
.................... signed long strtol(char *s,char *endptr, signed int base) 
.................... { 
....................    char *sc,*s1,*sd; 
....................    signed long x=0; 
....................    char sign; 
....................    char digits[]="0123456789abcdefghijklmnopqstuvwxyz"; 
....................    for(sc=s;isspace(*sc);++sc); 
....................    sign=*sc=='-'||*sc=='+'?*sc++:'+'; 
....................    if (base <0 || base ==1|| base >36) // invalid base 
....................    goto StrtolGO; 
....................    else if (base) 
....................    { 
....................       if(base==16 && *sc =='0'&&(sc[1]=='x' || sc[1]=='X')) 
....................          sc+=2; 
....................       if(base==8 && *sc =='0') 
....................          sc+=1; 
....................       if(base==2 && *sc =='0'&&sc[1]=='b') 
....................          sc+=2; 
....................  
....................    } 
....................    else if(*sc!='0') // base is 0, find base 
....................       base=10; 
....................    else if (sc[1]=='x' || sc[1]=='X') 
....................       base =16,sc+=2; 
....................    else if(sc[1]=='b') 
....................       base=2,sc+=2; 
....................    else 
....................       base=8; 
....................    for (s1=sc;*sc=='0';++sc);// skip leading zeroes 
....................  
....................    sd=memchr(digits,tolower(*sc),base); 
....................    for(;sd!=0;) 
....................    { 
....................       x=x*base+(int16)(sd-digits); 
....................       ++sc; 
....................       sd=memchr(digits,tolower(*sc),base); 
....................    } 
....................    if(s1==sc) 
....................    { 
....................    StrtolGO: 
....................       if (endptr) 
....................       { 
....................          #IF LONG_POINTERS 
....................          *((long *)endptr)= s;  
....................          #ELSE 
....................          *((char *)endptr)=s; 
....................          #ENDIF 
....................       } 
....................    return 0; 
....................    } 
....................    if(sign=='-') 
....................       x  =-x; 
....................    if (endptr) 
....................    { 
....................         #IF LONG_POINTERS 
....................          *((long *)endptr)= sc;  
....................         #ELSE 
....................         *((char *)endptr)=sc; 
....................         #ENDIF 
....................    } 
....................    return x; 
.................... } 
....................  
.................... signed int8 system(char *string) 
.................... { 
....................    return 0; 
.................... } 
....................  
.................... int8 mblen(char *s,size_t n) 
.................... { 
....................    return strlen(s); 
.................... } 
....................  
.................... int8 mbtowc(wchar_t *pwc,char *s,size_t n) 
.................... { 
....................    *pwc=*s; 
....................    return 1; 
.................... } 
....................  
.................... int8 wctomb(char *s,wchar_t wchar) 
.................... { 
....................    *s=wchar; 
....................    return 1; 
.................... } 
....................  
.................... size_t mbstowcs(wchar_t *pwcs,char *s,size_t n) 
.................... { 
....................    strncpy(pwcs,s,n); 
....................    return strlen(pwcs); 
.................... } 
....................  
.................... size_t wcstombs(char *s,wchar_t *pwcs,size_t n) 
.................... { 
....................    strncpy(s,pwcs,n); 
....................    return strlen(s); 
.................... } 
....................  
.................... //--------------------------------------------------------------------------- 
.................... // The random number implementation 
.................... //--------------------------------------------------------------------------- 
....................  
.................... unsigned int32 _Randseed; 
....................  
.................... unsigned int16 rand(void) 
.................... { 
....................    _Randseed = _Randseed * 1103515245 + 12345; 
....................    return ((unsigned int16)(_Randseed >> 16) % RAND_MAX); 
.................... } 
....................  
.................... void srand(unsigned int32 seed) 
.................... { 
....................    _Randseed = seed; 
.................... } 
....................  
.................... //--------------------------------------------------------------------------- 
.................... // Searching and sorting utilities implementation 
.................... //--------------------------------------------------------------------------- 
....................  
.................... #if !defined(__PCD__) 
.................... typedef signed int8 (*_Cmpfun)(char * p1,char * p2);  
.................... #else  
.................... typedef signed int16 (*_Cmpfun)(char * p1,char * p2);  
.................... #endif 
....................  
....................  
....................  
.................... void qsort(char * qdata, unsigned int qitems, unsigned int qsize, _Cmpfun cmp) { 
....................    unsigned int m,j,i,l; 
....................    int1 done; 
....................    unsigned int8 t[16]; 
....................  
....................    m = qitems/2; 
....................    while( m > 0 ) { 
....................      for(j=0; j<(qitems-m); ++j) { 
....................         i = j; 
....................         do 
....................         { 
....................            done=1; 
....................            l = i+m; 
....................            if( (*cmp)(qdata+i*qsize, qdata+l*qsize) > 0 ) { 
....................               memcpy(t, qdata+i*qsize, qsize); 
....................               memcpy(qdata+i*qsize, qdata+l*qsize, qsize); 
....................               memcpy(qdata+l*qsize, t, qsize); 
....................               if(m <= i) 
....................                 i -= m; 
....................                 done = 0; 
....................            } 
....................         } while(!done); 
....................      } 
....................      m = m/2; 
....................    } 
.................... } 
....................  
....................  
.................... char *bsearch(char *key, char *base, size_t num, size_t width,_Cmpfun cmp) 
.................... { 
....................    char *p, *q; 
....................    size_t n; 
....................    size_t pivot; 
....................    signed int val; 
....................  
....................    p = base; 
....................    n = num; 
....................  
....................    while (n > 0) 
....................    { 
....................       pivot = n >> 1; 
....................       q = p + width * pivot; 
....................  
....................       val = (*cmp)(key, q); 
....................  
....................       if (val < 0) 
....................          n = pivot; 
....................       else if (val == 0) 
....................          return ((char *)q); 
....................       else { 
....................          p = q + width; 
....................          n -= pivot + 1; 
....................       } 
....................    } 
....................  
....................    return NULL;      // There's no match 
.................... } 
....................  
....................  
.................... #endif 
....................  
.................... #include <DS1302.c> 
.................... ////////////////////////////////////////////////////////////////////////// 
.................... ////                               DS1302.C                           //// 
.................... ////                     Driver for Real Time Clock                   //// 
.................... ////                                                                  //// 
.................... ////  rtc_init()                                   Call after power up//// 
.................... ////                                                                  //// 
.................... ////  rtc_set_datetime(day,mth,year,dow,hour,min)  Set the date/time  //// 
.................... ////                                                                  //// 
.................... ////  rtc_get_date(day,mth,year,dow)               Get the date       //// 
.................... ////                                                                  //// 
.................... ////  rtc_get_time(hr,min,sec)                     Get the time       //// 
.................... ////                                                                  //// 
.................... ////  rtc_write_nvr(address,data)                  Write to NVR       //// 
.................... ////                                                                  //// 
.................... ////  data = rtc_read_nvr(address)                 Read from NVR      //// 
.................... ////                                                                  //// 
.................... ////  get_bcd(data)                              Convert data to BCD  //// 
.................... ////                                                                  //// 
.................... ////  rm_bcd(data)                               Convert data to int  //// 
.................... ////                                                                  //// 
.................... ////////////////////////////////////////////////////////////////////////// 
.................... ////        (C) Copyright 1996,2003 Custom Computer Services          //// 
.................... //// This source code may only be used by licensed users of the CCS C //// 
.................... //// compiler.  This source code may only be distributed to other     //// 
.................... //// licensed users of the CCS C compiler.  No other use, reproduction//// 
.................... //// or distribution is permitted without written permission.         //// 
.................... //// Derivative programs created using this software in object code   //// 
.................... //// form are not restricted in any way.                              //// 
.................... ////////////////////////////////////////////////////////////////////////// 
....................  
.................... //#ifndef RTC_SCLK 
....................  
.................... #define RTC_SCLK PIN_D1 
.................... #define RTC_IO   PIN_D2 
.................... #define RTC_RST  PIN_D3 
....................  
.................... //#endif 
....................  
.................... void write_ds1302_byte(BYTE cmd) { 
....................    BYTE i; 
....................  
....................    for(i=0;i<=7;++i) { 
*
02C8C:  MOVLB  4
02C8E:  CLRF   x4D
02C90:  MOVF   x4D,W
02C92:  SUBLW  07
02C94:  BNC   2CB0
....................       output_bit(RTC_IO, shift_right(&cmd,1,0) ); 
02C96:  BCF    FD8.0
02C98:  RRCF   x4C,F
02C9A:  BC    2CA0
02C9C:  BCF    F8C.2
02C9E:  BRA    2CA2
02CA0:  BSF    F8C.2
02CA2:  BCF    F95.2
....................       output_high(RTC_SCLK); 
02CA4:  BCF    F95.1
02CA6:  BSF    F8C.1
....................       output_low(RTC_SCLK); 
02CA8:  BCF    F95.1
02CAA:  BCF    F8C.1
....................    } 
02CAC:  INCF   x4D,F
02CAE:  BRA    2C90
.................... } 
02CB0:  MOVLB  0
02CB2:  RETLW  00
....................  
.................... void write_ds1302(BYTE cmd, BYTE data) { 
....................  
....................    output_high(RTC_RST); 
02CB4:  BCF    F95.3
02CB6:  BSF    F8C.3
....................    write_ds1302_byte(cmd); 
02CB8:  MOVFF  44A,44C
02CBC:  RCALL  2C8C
....................    write_ds1302_byte(data); 
02CBE:  MOVFF  44B,44C
02CC2:  RCALL  2C8C
....................    output_low(RTC_RST); 
02CC4:  BCF    F95.3
02CC6:  BCF    F8C.3
.................... } 
02CC8:  RETLW  00
....................  
.................... BYTE read_ds1302(BYTE cmd) { 
....................    BYTE i,data; 
....................  
....................    output_high(RTC_RST); 
02CCA:  BCF    F95.3
02CCC:  BSF    F8C.3
....................    write_ds1302_byte(cmd); 
02CCE:  MOVFF  447,44C
02CD2:  RCALL  2C8C
....................     
....................    input(RTC_IO); 
02CD4:  BSF    F95.2
....................    delay_us(10); 
02CD6:  MOVLW  10
02CD8:  MOVWF  00
02CDA:  DECFSZ 00,F
02CDC:  BRA    2CDA
02CDE:  NOP   
....................           
....................    for(i=0;i<=7;++i) { 
02CE0:  MOVLB  4
02CE2:  CLRF   x48
02CE4:  MOVF   x48,W
02CE6:  SUBLW  07
02CE8:  BNC   2D14
....................       shift_right(&data,1,input(RTC_IO)); 
02CEA:  BSF    F95.2
02CEC:  BTFSC  F83.2
02CEE:  BRA    2CF4
02CF0:  BCF    FD8.0
02CF2:  BRA    2CF6
02CF4:  BSF    FD8.0
02CF6:  RRCF   x49,F
....................       output_high(RTC_SCLK); 
02CF8:  BCF    F95.1
02CFA:  BSF    F8C.1
....................       delay_us(20); 
02CFC:  MOVLW  21
02CFE:  MOVWF  00
02D00:  DECFSZ 00,F
02D02:  BRA    2D00
....................       output_low(RTC_SCLK); 
02D04:  BCF    F95.1
02D06:  BCF    F8C.1
....................       delay_us(20); 
02D08:  MOVLW  21
02D0A:  MOVWF  00
02D0C:  DECFSZ 00,F
02D0E:  BRA    2D0C
....................    } 
02D10:  INCF   x48,F
02D12:  BRA    2CE4
....................    output_low(RTC_RST); 
02D14:  BCF    F95.3
02D16:  BCF    F8C.3
....................  
....................    return(data); 
02D18:  MOVFF  449,01
.................... } 
02D1C:  MOVLB  0
02D1E:  RETLW  00
....................  
.................... void rtc_init() { 
....................    BYTE x; 
....................    output_low(RTC_RST); 
02D20:  BCF    F95.3
02D22:  BCF    F8C.3
....................    delay_us(20); 
02D24:  MOVLW  21
02D26:  MOVWF  00
02D28:  DECFSZ 00,F
02D2A:  BRA    2D28
....................    output_low(RTC_SCLK); 
02D2C:  BCF    F95.1
02D2E:  BCF    F8C.1
....................    write_ds1302(0x8e,0); 
02D30:  MOVLW  8E
02D32:  MOVLB  4
02D34:  MOVWF  x4A
02D36:  CLRF   x4B
02D38:  MOVLB  0
02D3A:  RCALL  2CB4
....................    write_ds1302(0x90,0xa4); 
02D3C:  MOVLW  90
02D3E:  MOVLB  4
02D40:  MOVWF  x4A
02D42:  MOVLW  A4
02D44:  MOVWF  x4B
02D46:  MOVLB  0
02D48:  RCALL  2CB4
....................    x=read_ds1302(0x81); 
02D4A:  MOVLW  81
02D4C:  MOVLB  4
02D4E:  MOVWF  x47
02D50:  MOVLB  0
02D52:  RCALL  2CCA
02D54:  MOVFF  01,443
....................    if((x & 0x80)!=0) 
02D58:  MOVLB  4
02D5A:  MOVF   x43,W
02D5C:  ANDLW  80
02D5E:  BZ    2D6C
....................      write_ds1302(0x80,0); 
02D60:  MOVLW  80
02D62:  MOVWF  x4A
02D64:  CLRF   x4B
02D66:  MOVLB  0
02D68:  RCALL  2CB4
02D6A:  MOVLB  4
.................... } 
02D6C:  MOVLB  0
02D6E:  GOTO   802A (RETURN)
....................  
.................... byte get_bcd(BYTE data) 
.................... { 
....................    byte nibh; 
....................    byte nibl; 
....................  
....................    nibh=data/10; 
*
04D84:  MOVFF  449,44D
04D88:  MOVLW  0A
04D8A:  MOVLB  4
04D8C:  MOVWF  x4E
04D8E:  MOVLB  0
04D90:  RCALL  48B0
04D92:  MOVFF  01,44A
....................    nibl=data-(nibh*10); 
04D96:  MOVLB  4
04D98:  MOVF   x4A,W
04D9A:  MULLW  0A
04D9C:  MOVF   FF3,W
04D9E:  SUBWF  x49,W
04DA0:  MOVWF  x4B
....................  
....................    return((nibh<<4)|nibl); 
04DA2:  SWAPF  x4A,W
04DA4:  MOVWF  00
04DA6:  MOVLW  F0
04DA8:  ANDWF  00,F
04DAA:  MOVF   00,W
04DAC:  IORWF  x4B,W
04DAE:  MOVWF  01
.................... } 
04DB0:  MOVLB  0
04DB2:  RETLW  00
....................  
.................... byte rm_bcd(BYTE data) 
.................... { 
....................    byte i; 
....................  
....................    i=data; 
*
0474A:  MOVFF  448,449
....................    data=(i>>4)*10; 
0474E:  MOVLB  4
04750:  SWAPF  x49,W
04752:  MOVWF  00
04754:  MOVLW  0F
04756:  ANDWF  00,F
04758:  MOVF   00,W
0475A:  MULLW  0A
0475C:  MOVFF  FF3,448
....................    data=data+(i<<4>>4); 
04760:  SWAPF  x49,W
04762:  MOVWF  00
04764:  MOVLW  F0
04766:  ANDWF  00,F
04768:  MOVF   00,W
0476A:  SWAPF  00,F
0476C:  MOVLW  0F
0476E:  ANDWF  00,F
04770:  MOVF   00,W
04772:  ADDWF  x48,F
....................  
....................    return data; 
04774:  MOVFF  448,01
.................... } 
04778:  MOVLB  0
0477A:  RETLW  00
....................  
.................... void rtc_set_datetime(BYTE day, BYTE mth, BYTE year, BYTE dow, BYTE hr, BYTE min) { 
....................  
....................    write_ds1302(0x86,get_bcd(day)); 
*
04DB4:  MOVFF  443,449
04DB8:  RCALL  4D84
04DBA:  MOVFF  01,449
04DBE:  MOVLW  86
04DC0:  MOVLB  4
04DC2:  MOVWF  x4A
04DC4:  MOVFF  01,44B
04DC8:  MOVLB  0
04DCA:  CALL   2CB4
....................    write_ds1302(0x88,get_bcd(mth)); 
04DCE:  MOVFF  444,449
04DD2:  RCALL  4D84
04DD4:  MOVFF  01,449
04DD8:  MOVLW  88
04DDA:  MOVLB  4
04DDC:  MOVWF  x4A
04DDE:  MOVFF  01,44B
04DE2:  MOVLB  0
04DE4:  CALL   2CB4
....................    write_ds1302(0x8c,get_bcd(year)); 
04DE8:  MOVFF  445,449
04DEC:  RCALL  4D84
04DEE:  MOVFF  01,449
04DF2:  MOVLW  8C
04DF4:  MOVLB  4
04DF6:  MOVWF  x4A
04DF8:  MOVFF  01,44B
04DFC:  MOVLB  0
04DFE:  CALL   2CB4
....................    write_ds1302(0x8a,get_bcd(dow)); 
04E02:  MOVFF  446,449
04E06:  RCALL  4D84
04E08:  MOVFF  01,449
04E0C:  MOVLW  8A
04E0E:  MOVLB  4
04E10:  MOVWF  x4A
04E12:  MOVFF  01,44B
04E16:  MOVLB  0
04E18:  CALL   2CB4
....................    write_ds1302(0x84,get_bcd(hr)); 
04E1C:  MOVFF  447,449
04E20:  RCALL  4D84
04E22:  MOVFF  01,449
04E26:  MOVLW  84
04E28:  MOVLB  4
04E2A:  MOVWF  x4A
04E2C:  MOVFF  01,44B
04E30:  MOVLB  0
04E32:  CALL   2CB4
....................    write_ds1302(0x82,get_bcd(min)); 
04E36:  MOVFF  448,449
04E3A:  RCALL  4D84
04E3C:  MOVFF  01,449
04E40:  MOVLW  82
04E42:  MOVLB  4
04E44:  MOVWF  x4A
04E46:  MOVFF  01,44B
04E4A:  MOVLB  0
04E4C:  CALL   2CB4
....................    write_ds1302(0x80,get_bcd(0)); 
04E50:  MOVLB  4
04E52:  CLRF   x49
04E54:  MOVLB  0
04E56:  RCALL  4D84
04E58:  MOVFF  01,449
04E5C:  MOVLW  80
04E5E:  MOVLB  4
04E60:  MOVWF  x4A
04E62:  MOVFF  01,44B
04E66:  MOVLB  0
04E68:  CALL   2CB4
.................... } 
04E6C:  GOTO   B1B4 (RETURN)
....................  
.................... void rtc_get_date(BYTE& day, BYTE& mth, BYTE& year, BYTE& dow) { 
....................    day = rm_bcd(read_ds1302(0x87)); 
*
083D2:  MOVLW  87
083D4:  MOVLB  4
083D6:  MOVWF  x47
083D8:  MOVLB  0
083DA:  CALL   2CCA
083DE:  MOVFF  01,443
083E2:  MOVFF  01,448
083E6:  CALL   474A
083EA:  MOVFF  01,3A4
....................    mth = rm_bcd(read_ds1302(0x89)); 
083EE:  MOVLW  89
083F0:  MOVLB  4
083F2:  MOVWF  x47
083F4:  MOVLB  0
083F6:  CALL   2CCA
083FA:  MOVFF  01,443
083FE:  MOVFF  01,448
08402:  CALL   474A
08406:  MOVFF  01,3A3
....................    year = rm_bcd(read_ds1302(0x8d)); 
0840A:  MOVLW  8D
0840C:  MOVLB  4
0840E:  MOVWF  x47
08410:  MOVLB  0
08412:  CALL   2CCA
08416:  MOVFF  01,443
0841A:  MOVFF  01,448
0841E:  CALL   474A
08422:  MOVFF  01,3A2
....................    dow = rm_bcd(read_ds1302(0x8b)); 
08426:  MOVLW  8B
08428:  MOVLB  4
0842A:  MOVWF  x47
0842C:  MOVLB  0
0842E:  CALL   2CCA
08432:  MOVFF  01,443
08436:  MOVFF  01,448
0843A:  CALL   474A
0843E:  MOVFF  01,3A8
.................... } 
....................  
.................... void rtc_get_time(BYTE& hr, BYTE& min, BYTE& sec) { 
....................    hr = rm_bcd(read_ds1302(0x85)); 
08442:  MOVLW  85
08444:  MOVLB  4
08446:  MOVWF  x47
08448:  MOVLB  0
0844A:  CALL   2CCA
0844E:  MOVFF  01,443
08452:  MOVFF  01,448
08456:  CALL   474A
0845A:  MOVFF  01,3A5
....................    min = rm_bcd(read_ds1302(0x83)); 
0845E:  MOVLW  83
08460:  MOVLB  4
08462:  MOVWF  x47
08464:  MOVLB  0
08466:  CALL   2CCA
0846A:  MOVFF  01,443
0846E:  MOVFF  01,448
08472:  CALL   474A
08476:  MOVFF  01,3A6
....................    sec = rm_bcd(read_ds1302(0x81)); 
0847A:  MOVLW  81
0847C:  MOVLB  4
0847E:  MOVWF  x47
08480:  MOVLB  0
08482:  CALL   2CCA
08486:  MOVFF  01,443
0848A:  MOVFF  01,448
0848E:  CALL   474A
08492:  MOVFF  01,3A7
.................... } 
....................  
.................... void rtc_write_nvr(BYTE address, BYTE data) { 
....................    write_ds1302(address|0xc0,data); 
.................... } 
....................  
.................... BYTE rtc_read_nvr(BYTE address) { 
....................     return(read_ds1302(address|0xc1)); 
.................... } 
....................  
.................... #include <24512.c> 
.................... /////////////////////////////////////////////////////////////////////////// 
.................... ////   Library for a 24LC512 serial EEPROM                             //// 
.................... ////                                                                   //// 
.................... ////   init_ext_eeprom();    Call before the other functions are used  //// 
.................... ////                                                                   //// 
.................... ////   write_ext_eeprom(a, d);  Write the byte d to the address a      //// 
.................... ////                                                                   //// 
.................... ////   d = read_ext_eeprom(a);   Read the byte d from the address a    //// 
.................... ////                                                                   //// 
.................... ////   The main program may define eeprom_sda                          //// 
.................... ////   and eeprom_scl to override the defaults below.                  //// 
.................... ////                                                                   //// 
.................... /////////////////////////////////////////////////////////////////////////// 
.................... ////        (C) Copyright 1996,2003 Custom Computer Services           //// 
.................... //// This source code may only be used by licensed users of the CCS C  //// 
.................... //// compiler.  This source code may only be distributed to other      //// 
.................... //// licensed users of the CCS C compiler.  No other use, reproduction //// 
.................... //// or distribution is permitted without written permission.          //// 
.................... //// Derivative programs created using this software in object code    //// 
.................... //// form are not restricted in any way.                               //// 
.................... /////////////////////////////////////////////////////////////////////////// 
....................  
.................... #ifndef EEPROM_SDA 
....................  
.................... #define EEPROM_SDA  PIN_C4 
.................... #define EEPROM_SCL  PIN_C3 
....................  
.................... #endif 
....................  
.................... //#use i2c(master, sda=EEPROM_SDA, scl=EEPROM_SCL) 
....................  
.................... #define EEPROM_ADDRESS long int 
.................... #define EEPROM_SIZE   65535 
....................  
.................... void init_ext_eeprom() 
.................... { 
....................    output_float(EEPROM_SCL); 
....................    output_float(EEPROM_SDA); 
....................  
.................... } 
....................  
.................... void write_ext_eeprom(long int address, BYTE data) 
.................... { 
....................    short int status; 
....................    i2c_start(); 
*
06044:  BSF    F94.4
06046:  MOVLW  05
06048:  MOVWF  00
0604A:  DECFSZ 00,F
0604C:  BRA    604A
0604E:  BSF    F94.3
06050:  MOVLW  06
06052:  MOVWF  00
06054:  DECFSZ 00,F
06056:  BRA    6054
06058:  BCF    F8B.4
0605A:  BCF    F94.4
0605C:  MOVLW  05
0605E:  MOVWF  00
06060:  DECFSZ 00,F
06062:  BRA    6060
06064:  BCF    F8B.3
06066:  BCF    F94.3
....................    i2c_write(0xa0); 
06068:  MOVLW  A0
0606A:  MOVLB  4
0606C:  MOVWF  x59
0606E:  MOVLB  0
06070:  CALL   4644
....................    i2c_write(address>>8); 
06074:  MOVFF  44B,44E
06078:  MOVLB  4
0607A:  CLRF   x4F
0607C:  MOVFF  44B,459
06080:  MOVLB  0
06082:  CALL   4644
....................    i2c_write(address); 
06086:  MOVFF  44A,459
0608A:  CALL   4644
....................    i2c_write(data); 
0608E:  MOVFF  44C,459
06092:  CALL   4644
....................    i2c_stop(); 
06096:  BCF    F94.4
06098:  NOP   
0609A:  BSF    F94.3
0609C:  BTFSS  F82.3
0609E:  BRA    609C
060A0:  MOVLW  05
060A2:  MOVWF  00
060A4:  DECFSZ 00,F
060A6:  BRA    60A4
060A8:  BRA    60AA
060AA:  NOP   
060AC:  BSF    F94.4
060AE:  MOVLW  05
060B0:  MOVWF  00
060B2:  DECFSZ 00,F
060B4:  BRA    60B2
....................    i2c_start(); 
060B6:  BSF    F94.4
060B8:  MOVLW  05
060BA:  MOVWF  00
060BC:  DECFSZ 00,F
060BE:  BRA    60BC
060C0:  BSF    F94.3
060C2:  MOVLW  06
060C4:  MOVWF  00
060C6:  DECFSZ 00,F
060C8:  BRA    60C6
060CA:  BCF    F8B.4
060CC:  BCF    F94.4
060CE:  MOVLW  05
060D0:  MOVWF  00
060D2:  DECFSZ 00,F
060D4:  BRA    60D2
060D6:  BCF    F8B.3
060D8:  BCF    F94.3
....................    status=i2c_write(0xa0); 
060DA:  MOVLW  A0
060DC:  MOVLB  4
060DE:  MOVWF  x59
060E0:  MOVLB  0
060E2:  CALL   4644
060E6:  MOVF   01,W
060E8:  MOVLB  4
060EA:  BCF    x4D.0
060EC:  BTFSC  01.0
060EE:  BSF    x4D.0
....................    //while(status==1) 
....................    //{ 
....................       i2c_start(); 
060F0:  BSF    F94.4
060F2:  MOVLW  05
060F4:  MOVWF  00
060F6:  DECFSZ 00,F
060F8:  BRA    60F6
060FA:  BSF    F94.3
060FC:  MOVLW  06
060FE:  MOVWF  00
06100:  DECFSZ 00,F
06102:  BRA    6100
06104:  BTFSS  F82.3
06106:  BRA    6104
06108:  BCF    F8B.4
0610A:  BCF    F94.4
0610C:  MOVLW  05
0610E:  MOVWF  00
06110:  DECFSZ 00,F
06112:  BRA    6110
06114:  BCF    F8B.3
06116:  BCF    F94.3
....................       status=i2c_write(0xa0); 
06118:  MOVLW  A0
0611A:  MOVWF  x59
0611C:  MOVLB  0
0611E:  CALL   4644
06122:  MOVF   01,W
06124:  MOVLB  4
06126:  BCF    x4D.0
06128:  BTFSC  01.0
0612A:  BSF    x4D.0
....................    //} 
....................    i2c_stop(); 
0612C:  BCF    F94.4
0612E:  NOP   
06130:  BSF    F94.3
06132:  BTFSS  F82.3
06134:  BRA    6132
06136:  MOVLW  05
06138:  MOVWF  00
0613A:  DECFSZ 00,F
0613C:  BRA    613A
0613E:  BRA    6140
06140:  NOP   
06142:  BSF    F94.4
06144:  MOVLW  05
06146:  MOVWF  00
06148:  DECFSZ 00,F
0614A:  BRA    6148
.................... } 
0614C:  MOVLB  0
0614E:  RETLW  00
....................  
.................... BYTE read_ext_eeprom(long int address) { 
....................    BYTE data; 
....................    i2c_start(); 
*
04F9E:  BSF    F94.4
04FA0:  MOVLW  05
04FA2:  MOVWF  00
04FA4:  DECFSZ 00,F
04FA6:  BRA    4FA4
04FA8:  BSF    F94.3
04FAA:  MOVLW  06
04FAC:  MOVWF  00
04FAE:  DECFSZ 00,F
04FB0:  BRA    4FAE
04FB2:  BCF    F8B.4
04FB4:  BCF    F94.4
04FB6:  MOVLW  05
04FB8:  MOVWF  00
04FBA:  DECFSZ 00,F
04FBC:  BRA    4FBA
04FBE:  BCF    F8B.3
04FC0:  BCF    F94.3
....................    i2c_write(0xa0); 
04FC2:  MOVLW  A0
04FC4:  MOVLB  4
04FC6:  MOVWF  x59
04FC8:  MOVLB  0
04FCA:  CALL   4644
....................    i2c_write(address>>8); 
04FCE:  MOVFF  449,44B
04FD2:  MOVLB  4
04FD4:  CLRF   x4C
04FD6:  MOVFF  449,459
04FDA:  MOVLB  0
04FDC:  CALL   4644
....................    i2c_write(address); 
04FE0:  MOVFF  448,459
04FE4:  CALL   4644
....................    i2c_start(); 
04FE8:  BSF    F94.4
04FEA:  MOVLW  05
04FEC:  MOVWF  00
04FEE:  DECFSZ 00,F
04FF0:  BRA    4FEE
04FF2:  BSF    F94.3
04FF4:  MOVLW  06
04FF6:  MOVWF  00
04FF8:  DECFSZ 00,F
04FFA:  BRA    4FF8
04FFC:  BTFSS  F82.3
04FFE:  BRA    4FFC
05000:  BCF    F8B.4
05002:  BCF    F94.4
05004:  MOVLW  05
05006:  MOVWF  00
05008:  DECFSZ 00,F
0500A:  BRA    5008
0500C:  BCF    F8B.3
0500E:  BCF    F94.3
....................    i2c_write(0xa1); 
05010:  MOVLW  A1
05012:  MOVLB  4
05014:  MOVWF  x59
05016:  MOVLB  0
05018:  CALL   4644
....................    data=i2c_read(0); 
0501C:  CLRF   00
0501E:  BRA    4F32
05020:  MOVFF  01,44A
....................    i2c_stop(); 
05024:  BCF    F94.4
05026:  NOP   
05028:  BSF    F94.3
0502A:  BTFSS  F82.3
0502C:  BRA    502A
0502E:  MOVLW  05
05030:  MOVWF  00
05032:  DECFSZ 00,F
05034:  BRA    5032
05036:  BRA    5038
05038:  NOP   
0503A:  BSF    F94.4
0503C:  MOVLW  05
0503E:  MOVWF  00
05040:  DECFSZ 00,F
05042:  BRA    5040
....................    return(data); 
05044:  MOVLB  4
05046:  MOVFF  44A,01
.................... } 
0504A:  MOVLB  0
0504C:  RETLW  00
....................  
....................  
.................... //-----Defines para configuracion de logica de funcionamiento de autoclave---// 
.................... //#define PT100Fija //Define para autcolaves con reservorio y Pt100 fija (NO FLEXIBLE) 
.................... //#define Reservorio //Define para autoclaves con reservorio 
.................... #define Tmax 123 
.................... #define Tmin 110 
.................... //#define ULKA 
.................... #define Enfriador 
.................... //--------------------------------------------------------------------------// 
....................  
.................... #define   UP            !input(PIN_B0) 
.................... #define   DOWN          !input(PIN_B1) 
.................... #define   RIGHT         !input(PIN_B2) 
.................... #define   LEFT          !input(PIN_B3) 
....................  
.................... #define   DOOR          !input(PIN_B6) 
.................... #define   STOP          !input(PIN_B7) 
.................... #define   TERM          !input(PIN_B5) 
....................  
.................... #define   LOW           input(PIN_C1) 
.................... #define   HIG           input(PIN_C0) 
....................  
.................... #define   SSR_on           output_bit(PIN_C2,0) 
.................... #define   SSR_off          output_bit(PIN_C2,1) 
....................  
.................... #define   Buzzer_on        output_bit(PIN_D0,1) 
.................... #define   Buzzer_off       output_bit(PIN_D0,0) 
....................  
.................... #define   Desfogue_on      output_bit(PIN_D4,1) 
.................... #define   Desfogue_off     output_bit(PIN_D4,0) 
....................  
.................... #define   Agua_on          output_bit(PIN_D5,1) 
.................... #define   Agua_off         output_bit(PIN_D5,0) 
....................  
.................... #ifdef Enfriador 
.................... #define   Enfr_on          output_bit(PIN_D6,1) 
.................... #define   Enfr_off         output_bit(PIN_D6,0) 
.................... #else 
.................... #define   Bomba_on         output_bit(PIN_D6,1) 
.................... #define   Bomba_off        output_bit(PIN_D6,0) 
.................... #endif 
....................  
.................... #define OFF 0 
.................... #define ON  1 
.................... #define RX_BUFFER_SIZE  10 
.................... char Rx_Buffer[RX_BUFFER_SIZE+1]; 
.................... char Rx_Buffer2[RX_BUFFER_SIZE+1]; 
.................... char RX_Wr_Index=0; 
.................... char RX_Rd_Index=0; 
.................... char RX_Counter=0; 
....................  
.................... #define TX_BUFFER_SIZE  24 
.................... char Tx_Buffer[TX_BUFFER_SIZE+1]; 
.................... char TX_Wr_Index=0; 
.................... char TX_Counter=0; 
.................... //int1 RX_Buffer_Overflow=0; 
....................  
.................... //Comunicacion//------------------------ 
.................... byte SlaveA0Tx[0X20]; 
.................... byte dato=0;            //Contendr la informacin a enviar o recibir 
.................... byte direccion=0;       //Contendr la direccin del esclavo en el bus I2C 
.................... byte posicion=0;        //Contendr la posicin en el buffer de memoria del esclavo donde se almacenar o de donde se recuperar el dato 
....................  
.................... /* Tabla de Modulos, Primera Fila Ao Regular y el siguiente ao Bisiesto 
.................... E   F   M   A   M   J   J   A   S   O   N   D 
.................... 0   3   3   6   1   4   6   2   5   0   3   5 
.................... 0   3   4   0   2   5   0   3   6   1   4   6 
.................... */ 
.................... int8 Regular[12]={0,3,3,6,1,4,6,2,5,0,3,5}; 
.................... int8 Bisiesto[12]={0,3,4,0,2,5,0,3,6,1,4,6}; 
....................  
.................... //Alarmas//--------------------- 
.................... short AlarmaTiempoProlongado=OFF,AlarmaSobreTemperatura=OFF,AlarmaLlenado=OFF,AlarmaTermostato=OFF,AlarmaPuerta=OFF,AlarmaEmergencia=OFF,AlarmaCiclo=OFF; 
....................  
.................... //Banderas//-------------------- 
.................... short IniciaLlenado=OFF,CalderinLleno=OFF,IniciaCiclo=OFF,Esterilizando=OFF,Secando=OFF,SensadoNivel=OFF,Desfogando=OFF,DesfogueSuave=OFF,purgo=OFF,purgaAire2=OFF; 
.................... short EstadoDesfogue=OFF,EstadoAgua=OFF,EstadoSSR=OFF,PruebaEstados=OFF,Ciclo=OFF,flagCalentando=OFF,flagEsterilizando=OFF,EstadoAire=OFF; 
.................... short flagDesfogando=OFF,Op=OFF,Op2=OFF,Minutos=OFF,Segundos=OFF,GuardaEEPROM=OFF,EstadoPaso=OFF,EstadoBuzzer=OFF,flagAlarma=OFF; 
.................... short flagBuzzer=OFF,flagSilencio=OFF,Finalizo=OFF,AlarmaPresion=OFF,Libre=OFF,purga=OFF,entro=OFF,Aire=OFF,disp_Guarda=OFF,guardaCiclo=OFF,flagBombaAgua=OFF,flagBombaAguaOff=OFF; 
....................  
.................... //Tiempos//--------------------- 
.................... int16 TiempoCiclo=0,TiempoLlenado=0,TiempoSensadoNivel=0,Tp=0,Tc=0,tguarda=0; 
.................... signed int  Testerilizacion[5]={0,0,0,0,0};   // Tiempo transcurrido 
.................... signed int  Testerilizacionp[5]={0,0,0,0,0};   // Tiempo transcurrido 
.................... signed int  Tsecado[4]={0,0,0,0};   // Tiempo transcurrido 
.................... signed int  Tsecadop[4]={0,0,0,0};   // Tiempo transcurrido 
....................  
.................... //Control//------------------------ 
.................... float promedio[80]={0.0,0.0,0.0,0.0,0.0,0.0,0.0,0.0,0.0,0.0,0.0,0.0,0.0,0.0,0.0,0.0,0.0,0.0,0.0,0.0,0.0,0.0,0.0,0.0,0.0,0.0,0.0,0.0,0.0,0.0,0.0,0.0,0.0,0.0,0.0,0.0,0.0,0.0,0.0,0.0,0.0,0.0,0.0,0.0,0.0,0.0,0.0,0.0,0.0,0.0,0.0,0.0,0.0,0.0,0.0,0.0,0.0,0.0,0.0,0.0,0.0,0.0,0.0,0.0}; 
.................... float PromPresion[20]={0.0,0.0,0.0,0.0,0.0,0.0,0.0,0.0,0.0,0.0,0.0,0.0,0.0,0.0,0.0,0.0,0.0,0.0,0.0,0.0}; 
.................... float PromPresionp[20]={0.0,0.0,0.0,0.0,0.0,0.0,0.0,0.0,0.0,0.0,0.0,0.0,0.0,0.0,0.0,0.0,0.0,0.0,0.0,0.0}; 
.................... float Gain=141.6,RPT100=0.5,Temporal=0.0; 
.................... float R1=100,R10=6800; 
.................... float X[2]={0.0,0.0}; 
.................... float Xx[2]={0.0,0.0}; 
.................... float promediopresion=0.0,Aumento=0.0,Aumento2=0.0,promediopresionp=0.0; 
.................... int8 h=0,l=0,Ajuste=0,Ajusten=0,MediaMovil=20,TTrampa=0,PantallaPrincipal=0,TipoClave=0,Modulo=0,Digito=0,yy=0,cicloVisto=0,cicloVisualizado=0,posicionDato=0,j=0,codigoAlarma=0,codigoAnt=0; 
.................... float V0=0.0,Pt,Tciclo=10.0,Tpulso=0.0,error=0.0,Prom=0.0,Temperature=0.0,tmp=0.0,Ganancia=25.0,Ganancia2=20.0,desvio=1.2,tmp2=0.0; 
.................... float V1=0.0,Presion=0.0,V2=0.0,Presionp=0.0; 
.................... float Temperatura=0.0,K=0.0012858; 
.................... float a=0.0011,b=2.3302,c=-244.0723; 
.................... int8 Integral=0,Derivativo=0,CicloLibre=0,pulsosPurga=0,pulsosPurgaProgramados=0; 
.................... float p1=0.0000011617,p2=-0.0010575,p3=0.44114,p4=65.043,Tactual=0.0; 
....................  
.................... //Varios//-------------------------------- 
.................... short desfoguelento=0,Lectura=0,Grafica=0; 
.................... short disp_Stop=0,flagTC=0,flagImprime=0,flagImprimir=0; 
.................... int8 Control=0,tiemporecta=0,Controlando=0,ActivaImpresion=1,timpresion=2,CalculoImpresion=0,Inicio=1,Dato_Exitoso=0,Dato2=0,z=0; 
.................... int8 Menu=0, MenuAnt=0,MenuAntt=240,i=0,CiclosL=0,CiclosH=0,CicloSeleccionado=0; 
.................... int8 Setpoint=0,Opcion=1,Opcion2=1,tiempo_esterilizacion=0,tiempo_secado=0,tiempoImpresion=0; 
.................... int16 tiempos=0,tiempos2=0,tiempos3=0,tiempoctrl=0,Nivel=0,tinicio=0,PresionCamara=0,PresionPreCamara=0,Ciclos=0,NivelSeleccionado=0,tBombaAgua=0,tBombaAguaOff=0,tPurgaAire=0; 
.................... signed int  Contrasena[4]={0,0,0,0};      // Contrasena de 4 digitos 
.................... signed int  Password[4]={0,0,0,0};        // Contrasena Almacenada de 4 digitos 
.................... int8 r=0,t=0,r22=0,t2=0,TiempoControl=0; 
.................... int8 y=0,ConteoBuzzer=0; 
.................... int16 t_exhaust=0,tbuzzer=0,tsilencio=0,tiempoAgua=0,tStop=0,tTermostato=0; 
.................... int8 Year=18,Mes=9,Dia=13,Hora=0,Minuto=0,Segundo=0,dow=0; 
.................... int8 YearTx=0,MesTx=0,DiaTx=0,HoraTx=0,MinutoTx=0,SegundoTx=0,dowTx=0,SetTime=0,Imprime=0; 
.................... int8 Atmosferica=72; 
.................... signed int8 G1=0,G2=0,sg1=0,sg2=0; 
.................... int8 iconoGrande[9]={25,16,22,24,23,28,20,46,69}; 
.................... int8 iconoPeque[9]={34,36,18,33,32,38,19,17,68}; 
.................... char const texto[9][20]={"LIQUIDOS A","CAUCHO","INSTRUMENTAL","LIQUIDOS B","LIBRE","TEST","HORA Y FECHA","CLAVE","DATOS"}; 
.................... int8 diaCiclos=0,mesCiclos=0,yearCiclos=0,usuarioCiclos=0,cicloCiclos=0; 
....................  
.................... float TCiclos[7]; 
.................... int16 PcCiclos[7]; 
.................... int16 PpcCiclos[7]; 
.................... int8 horaCiclos[7]; 
.................... int8 minutoCiclos[7]; 
.................... int8 ACiclos[7]; 
....................  
.................... typedef struct{ 
....................    int8 Temperatura; 
....................    int8 MinutoestH; 
....................    int8 MinutoestL; 
....................    int8 Segundoest; 
....................    int8 Minutosec; 
....................    int8 Segundosec; 
....................    int8 PulsosVacio; 
....................    int8 NivelVacio; 
....................    int8 NivelDesfogue; 
....................    int8 Minutoest; 
.................... }Personalizado; 
....................  
.................... Personalizado CiclosPersonalizados[4]; 
....................  
.................... #include "Funciones.h" 
.................... float inttofloat(int8 decimal){ 
....................    float tmp; 
....................    tmp=decimal; 
0504E:  MOVLB  4
05050:  CLRF   x59
05052:  MOVFF  447,458
05056:  MOVLB  0
05058:  CALL   1A66
0505C:  MOVFF  03,44B
05060:  MOVFF  02,44A
05064:  MOVFF  01,449
05068:  MOVFF  00,448
....................    return tmp/10; 
0506C:  MOVFF  44B,44F
05070:  MOVFF  44A,44E
05074:  MOVFF  449,44D
05078:  MOVFF  448,44C
0507C:  MOVLB  4
0507E:  CLRF   x53
05080:  CLRF   x52
05082:  MOVLW  20
05084:  MOVWF  x51
05086:  MOVLW  82
05088:  MOVWF  x50
0508A:  MOVLB  0
0508C:  CALL   1A9C
.................... } 
05090:  GOTO   53B0 (RETURN)
....................  
.................... void BorraBuffer(void){ 
.................... RX_Buffer[0]=0; 
*
04852:  CLRF   30
.................... RX_Buffer[1]=0; 
04854:  CLRF   31
.................... RX_Buffer[2]=0; 
04856:  CLRF   32
.................... RX_Buffer[3]=0; 
04858:  CLRF   33
.................... RX_Buffer[4]=0; 
0485A:  CLRF   34
.................... RX_Buffer[5]=0; 
0485C:  CLRF   35
.................... RX_Buffer[6]=0; 
0485E:  CLRF   36
.................... RX_Buffer[7]=0; 
04860:  CLRF   37
.................... RX_Buffer[8]=0; 
04862:  CLRF   38
.................... RX_Buffer[9]=0; 
04864:  CLRF   39
....................  
.................... RX_Buffer2[0]=0; 
04866:  CLRF   3B
.................... RX_Buffer2[1]=0; 
04868:  CLRF   3C
.................... RX_Buffer2[2]=0; 
0486A:  CLRF   3D
.................... RX_Buffer2[3]=0; 
0486C:  CLRF   3E
.................... RX_Buffer2[4]=0; 
0486E:  CLRF   3F
.................... RX_Buffer2[5]=0; 
04870:  CLRF   40
.................... RX_Buffer2[6]=0; 
04872:  CLRF   41
.................... RX_Buffer2[7]=0; 
04874:  CLRF   42
.................... RX_Buffer2[8]=0; 
04876:  CLRF   43
.................... RX_Buffer2[9]=0; 
04878:  CLRF   44
....................  
.................... } 
0487A:  GOTO   84FE (RETURN)
....................  
.................... char bgetc(void){ 
....................    char c; 
....................    while(RX_Counter==0) 
....................       ; 
....................    c=Rx_Buffer2[RX_Rd_Index]; 
....................    if(++RX_Rd_Index>RX_BUFFER_SIZE) 
....................       RX_Rd_Index=0; 
....................    if(RX_Counter) 
....................       RX_Counter--; 
....................    return c; 
.................... } 
....................  
.................... void bputc(char c){ 
....................    char restart=0; 
....................    while(TX_Counter> (TX_BUFFER_SIZE-1)) 
....................       ; 
....................    if(TX_Counter==0) 
....................       restart=1; 
....................    TX_Buffer[TX_Wr_Index++]=c; 
....................    if(TX_Wr_Index>TX_BUFFER_SIZE) 
....................       TX_Wr_Index=0; 
....................     
....................    TX_Counter++; 
....................     
....................    if(restart==1) 
....................       enable_interrupts(int_tbe); 
.................... } 
....................  
.................... void SendDataDisplay(void){ 
.................... delay_us(10); 
*
03924:  MOVLW  10
03926:  MOVWF  00
03928:  DECFSZ 00,F
0392A:  BRA    3928
0392C:  NOP   
.................... putc(0xFF); 
0392E:  MOVLW  FF
03930:  RCALL  391C
.................... delay_us(10); 
03932:  MOVLW  10
03934:  MOVWF  00
03936:  DECFSZ 00,F
03938:  BRA    3936
0393A:  NOP   
.................... putc(0xFF); 
0393C:  MOVLW  FF
0393E:  RCALL  391C
.................... delay_us(10); 
03940:  MOVLW  10
03942:  MOVWF  00
03944:  DECFSZ 00,F
03946:  BRA    3944
03948:  NOP   
.................... putc(0xFF); 
0394A:  MOVLW  FF
0394C:  RCALL  391C
.................... delay_us(10); 
0394E:  MOVLW  10
03950:  MOVWF  00
03952:  DECFSZ 00,F
03954:  BRA    3952
03956:  NOP   
.................... } 
03958:  RETLW  00
....................  
.................... short esBisiesto(int8 year) { 
....................      return ((year % 4 == 0 && year % 100 != 0) || year % 400 == 0); 
*
04D32:  MOVLB  4
04D34:  MOVF   x43,W
04D36:  ANDLW  03
04D38:  BNZ   4D4C
04D3A:  MOVFF  443,44D
04D3E:  MOVLW  64
04D40:  MOVWF  x4E
04D42:  MOVLB  0
04D44:  RCALL  48B0
04D46:  MOVF   00,F
04D48:  BNZ   4D7A
04D4A:  MOVLB  4
04D4C:  CLRF   x48
04D4E:  MOVFF  443,447
04D52:  MOVLW  01
04D54:  MOVWF  x4A
04D56:  MOVLW  90
04D58:  MOVWF  x49
04D5A:  MOVLB  0
04D5C:  RCALL  4CEC
04D5E:  MOVFF  00,444
04D62:  MOVLB  4
04D64:  MOVFF  03,445
04D68:  MOVF   x44,F
04D6A:  BNZ   4D76
04D6C:  MOVF   x45,F
04D6E:  BTFSS  FD8.2
04D70:  BRA    4D76
04D72:  MOVLB  0
04D74:  BRA    4D7A
04D76:  MOVLW  00
04D78:  BRA    4D7E
04D7A:  MOVLW  01
04D7C:  MOVLB  4
04D7E:  MOVWF  01
.................... } 
04D80:  MOVLB  0
04D82:  RETLW  00
....................  
.................... void LimitaDia(){ 
....................    if(MesTx>12) 
*
04E70:  MOVLB  3
04E72:  MOVF   xAA,W
04E74:  SUBLW  0C
04E76:  BC    4E7C
....................       MesTx=10; 
04E78:  MOVLW  0A
04E7A:  MOVWF  xAA
....................    if(DiaTx>31) 
04E7C:  MOVF   xAB,W
04E7E:  SUBLW  1F
04E80:  BC    4E86
....................       DiaTx=16; 
04E82:  MOVLW  10
04E84:  MOVWF  xAB
....................    if(YearTx>99) 
04E86:  MOVF   xA9,W
04E88:  SUBLW  63
04E8A:  BC    4E90
....................       YearTx=18;    
04E8C:  MOVLW  12
04E8E:  MOVWF  xA9
....................    if(HoraTx>24) 
04E90:  MOVF   xAC,W
04E92:  SUBLW  18
04E94:  BC    4E9A
....................       HoraTx=11;       
04E96:  MOVLW  0B
04E98:  MOVWF  xAC
....................    if(MinutoTx>59) 
04E9A:  MOVF   xAD,W
04E9C:  SUBLW  3B
04E9E:  BC    4EA4
....................       MinutoTx=30;       
04EA0:  MOVLW  1E
04EA2:  MOVWF  xAD
....................     
....................       if(MesTx==2){ 
04EA4:  MOVF   xAA,W
04EA6:  SUBLW  02
04EA8:  BNZ   4ED4
....................          if(esBisiesto(YearTx)){ 
04EAA:  MOVFF  3A9,443
04EAE:  MOVLB  0
04EB0:  RCALL  4D32
04EB2:  MOVF   01,F
04EB4:  BZ    4EC6
....................             if(DiaTx>29){ 
04EB6:  MOVLB  3
04EB8:  MOVF   xAB,W
04EBA:  SUBLW  1D
04EBC:  BC    4EC2
....................                DiaTx=29; 
04EBE:  MOVLW  1D
04EC0:  MOVWF  xAB
....................                //glcd_fillScreen(OFF); 
....................             } 
....................          }else{ 
04EC2:  BRA    4ED2
04EC4:  MOVLB  0
....................             if(DiaTx>28){ 
04EC6:  MOVLB  3
04EC8:  MOVF   xAB,W
04ECA:  SUBLW  1C
04ECC:  BC    4ED2
....................                DiaTx=28; 
04ECE:  MOVLW  1C
04ED0:  MOVWF  xAB
....................                //glcd_fillScreen(OFF); 
....................             } 
....................          } 
....................       }else{ 
04ED2:  BRA    4EFE
....................          if(MesTx<=7){ 
04ED4:  MOVF   xAA,W
04ED6:  SUBLW  07
04ED8:  BNC   4EEC
....................             if(MesTx % 2 ==0){ 
04EDA:  MOVF   xAA,W
04EDC:  ANDLW  01
04EDE:  BNZ   4EEA
....................                if(DiaTx>30){ 
04EE0:  MOVF   xAB,W
04EE2:  SUBLW  1E
04EE4:  BC    4EEA
....................                   DiaTx=30;  
04EE6:  MOVLW  1E
04EE8:  MOVWF  xAB
....................                   //glcd_fillScreen(OFF); 
....................                } 
....................             } 
....................          }else{ 
04EEA:  BRA    4EFE
....................             if(MesTx % 2 ==1){ 
04EEC:  MOVF   xAA,W
04EEE:  ANDLW  01
04EF0:  SUBLW  01
04EF2:  BNZ   4EFE
....................                if(DiaTx>30){ 
04EF4:  MOVF   xAB,W
04EF6:  SUBLW  1E
04EF8:  BC    4EFE
....................                   DiaTx=30;  
04EFA:  MOVLW  1E
04EFC:  MOVWF  xAB
....................                   //glcd_fillScreen(OFF); 
....................                } 
....................             } 
....................          } 
....................       } 
.................... } 
04EFE:  MOVLB  0
04F00:  GOTO   B452 (RETURN)
....................  
.................... void ActualizaRecta(){ 
....................    X[y]=Temperature; 
*
0683C:  MOVLB  3
0683E:  MOVF   x94,W
06840:  MULLW  04
06842:  MOVF   FF3,W
06844:  CLRF   03
06846:  ADDLW  B7
06848:  MOVWF  FE9
0684A:  MOVLW  02
0684C:  ADDWFC 03,W
0684E:  MOVWF  FEA
06850:  MOVFF  300,FEF
06854:  MOVFF  301,FEC
06858:  MOVFF  302,FEC
0685C:  MOVFF  303,FEC
....................    y++; 
06860:  INCF   x94,F
....................    if(y>=2) 
06862:  MOVF   x94,W
06864:  SUBLW  01
06866:  BC    68A4
....................    { 
....................       y=0; 
06868:  CLRF   x94
....................       Aumento=X[1]-X[0]; 
0686A:  BSF    FD8.1
0686C:  MOVFF  2BE,45B
06870:  MOVFF  2BD,45A
06874:  MOVFF  2BC,459
06878:  MOVFF  2BB,458
0687C:  MOVFF  2BA,45F
06880:  MOVFF  2B9,45E
06884:  MOVFF  2B8,45D
06888:  MOVFF  2B7,45C
0688C:  MOVLB  0
0688E:  CALL   1BFA
06892:  MOVFF  03,2CE
06896:  MOVFF  02,2CD
0689A:  MOVFF  01,2CC
0689E:  MOVFF  00,2CB
068A2:  MOVLB  3
....................    } 
.................... } 
068A4:  MOVLB  0
068A6:  GOTO   6922 (RETURN)
....................  
.................... void ActualizaRectaPresion(){ 
....................    Xx[yy]=Tactual; 
*
06EF2:  MOVLB  2
06EF4:  MOVF   xE1,W
06EF6:  MULLW  04
06EF8:  MOVF   FF3,W
06EFA:  CLRF   03
06EFC:  ADDLW  BF
06EFE:  MOVWF  FE9
06F00:  MOVLW  02
06F02:  ADDWFC 03,W
06F04:  MOVWF  FEA
06F06:  MOVFF  351,FEF
06F0A:  MOVFF  352,FEC
06F0E:  MOVFF  353,FEC
06F12:  MOVFF  354,FEC
....................    yy++; 
06F16:  INCF   xE1,F
....................    if(yy>=2){ 
06F18:  MOVF   xE1,W
06F1A:  SUBLW  01
06F1C:  BC    6F5A
....................       yy=0; 
06F1E:  CLRF   xE1
....................       Aumento2=Xx[1]-Xx[0]; 
06F20:  BSF    FD8.1
06F22:  MOVFF  2C6,45B
06F26:  MOVFF  2C5,45A
06F2A:  MOVFF  2C4,459
06F2E:  MOVFF  2C3,458
06F32:  MOVFF  2C2,45F
06F36:  MOVFF  2C1,45E
06F3A:  MOVFF  2C0,45D
06F3E:  MOVFF  2BF,45C
06F42:  MOVLB  0
06F44:  CALL   1BFA
06F48:  MOVFF  03,2D2
06F4C:  MOVFF  02,2D1
06F50:  MOVFF  01,2D0
06F54:  MOVFF  00,2CF
06F58:  MOVLB  2
....................    } 
.................... } 
06F5A:  MOVLB  0
06F5C:  GOTO   6FE0 (RETURN)
....................  
.................... // Funcion para conversor analogo-digital 
.................... float sensores(int x){ 
.................... float y;set_adc_channel(x);delay_ms(1);y=read_adc();return (y); 
*
03978:  MOVLB  4
0397A:  RLCF   x4C,W
0397C:  MOVWF  00
0397E:  RLCF   00,F
03980:  MOVLW  FC
03982:  ANDWF  00,F
03984:  MOVFF  00,01
03988:  MOVF   FC2,W
0398A:  ANDLW  C3
0398C:  IORWF  00,W
0398E:  MOVWF  FC2
03990:  MOVLW  01
03992:  MOVWF  x58
03994:  MOVLB  0
03996:  CALL   1A3E
0399A:  BSF    FC2.1
0399C:  BTFSC  FC2.1
0399E:  BRA    399C
039A0:  MOVFF  FC4,459
039A4:  MOVFF  FC3,458
039A8:  MOVLB  0
039AA:  CALL   1A66
039AE:  MOVFF  03,450
039B2:  MOVFF  02,44F
039B6:  MOVFF  01,44E
039BA:  MOVFF  00,44D
039BE:  MOVFF  44D,00
039C2:  MOVFF  44E,01
039C6:  MOVFF  44F,02
039CA:  MOVFF  450,03
.................... } 
039CE:  RETLW  00
.................... float LeerPT100(int media) 
.................... { 
*
03AE8:  MOVLB  4
03AEA:  CLRF   x47
03AEC:  CLRF   x46
03AEE:  CLRF   x45
03AF0:  CLRF   x44
03AF2:  CLRF   x4B
03AF4:  CLRF   x4A
03AF6:  CLRF   x49
03AF8:  CLRF   x48
....................    float ajp=0.0,ajn=0.0; 
....................    Prom=0.0; 
03AFA:  MOVLB  2
03AFC:  CLRF   xFF
03AFE:  CLRF   xFE
03B00:  CLRF   xFD
03B02:  CLRF   xFC
....................    V0 = sensores(0);   //Lectura de Divisor de Voltaje de PT100 con resistencia de 6.18k (+-2%) 
03B04:  MOVLB  4
03B06:  CLRF   x4C
03B08:  MOVLB  0
03B0A:  RCALL  3978
03B0C:  MOVFF  03,2EB
03B10:  MOVFF  02,2EA
03B14:  MOVFF  01,2E9
03B18:  MOVFF  00,2E8
....................    V0 = V0/105.56; // Se elimina la ganancia 
03B1C:  MOVFF  2EB,44F
03B20:  MOVFF  2EA,44E
03B24:  MOVFF  2E9,44D
03B28:  MOVFF  2E8,44C
03B2C:  MOVLW  B8
03B2E:  MOVLB  4
03B30:  MOVWF  x53
03B32:  MOVLW  1E
03B34:  MOVWF  x52
03B36:  MOVLW  53
03B38:  MOVWF  x51
03B3A:  MOVLW  85
03B3C:  MOVWF  x50
03B3E:  MOVLB  0
03B40:  CALL   1A9C
03B44:  MOVFF  03,2EB
03B48:  MOVFF  02,2EA
03B4C:  MOVFF  01,2E9
03B50:  MOVFF  00,2E8
....................    //V0 += 14.82; 
....................    V0 += 14.79;//5.039V 72.5mV 
03B54:  BCF    FD8.1
03B56:  MOVFF  2EB,45B
03B5A:  MOVFF  2EA,45A
03B5E:  MOVFF  2E9,459
03B62:  MOVFF  2E8,458
03B66:  MOVLW  D7
03B68:  MOVLB  4
03B6A:  MOVWF  x5F
03B6C:  MOVLW  A3
03B6E:  MOVWF  x5E
03B70:  MOVLW  6C
03B72:  MOVWF  x5D
03B74:  MOVLW  82
03B76:  MOVWF  x5C
03B78:  MOVLB  0
03B7A:  CALL   1BFA
03B7E:  MOVFF  03,2EB
03B82:  MOVFF  02,2EA
03B86:  MOVFF  01,2E9
03B8A:  MOVFF  00,2E8
....................    Pt=R10/((1023/V0)-1); 
03B8E:  MOVLB  4
03B90:  CLRF   x4F
03B92:  MOVLW  C0
03B94:  MOVWF  x4E
03B96:  MOVLW  7F
03B98:  MOVWF  x4D
03B9A:  MOVLW  88
03B9C:  MOVWF  x4C
03B9E:  MOVFF  2EB,453
03BA2:  MOVFF  2EA,452
03BA6:  MOVFF  2E9,451
03BAA:  MOVFF  2E8,450
03BAE:  MOVLB  0
03BB0:  CALL   1A9C
03BB4:  MOVFF  00,44C
03BB8:  MOVFF  01,44D
03BBC:  MOVFF  02,44E
03BC0:  MOVFF  03,44F
03BC4:  BSF    FD8.1
03BC6:  MOVFF  03,45B
03BCA:  MOVFF  02,45A
03BCE:  MOVFF  01,459
03BD2:  MOVFF  00,458
03BD6:  MOVLB  4
03BD8:  CLRF   x5F
03BDA:  CLRF   x5E
03BDC:  CLRF   x5D
03BDE:  MOVLW  7F
03BE0:  MOVWF  x5C
03BE2:  MOVLB  0
03BE4:  CALL   1BFA
03BE8:  MOVFF  2B6,44F
03BEC:  MOVFF  2B5,44E
03BF0:  MOVFF  2B4,44D
03BF4:  MOVFF  2B3,44C
03BF8:  MOVFF  03,453
03BFC:  MOVFF  02,452
03C00:  MOVFF  01,451
03C04:  MOVFF  00,450
03C08:  CALL   1A9C
03C0C:  MOVFF  03,2EF
03C10:  MOVFF  02,2EE
03C14:  MOVFF  01,2ED
03C18:  MOVFF  00,2EC
....................              
....................    if(l>(media-1)) 
03C1C:  MOVLW  01
03C1E:  MOVLB  4
03C20:  SUBWF  x43,W
03C22:  MOVLB  2
03C24:  SUBWF  xD8,W
03C26:  BZ    3C2C
03C28:  BNC   3C2C
....................    {l=0;} 
03C2A:  CLRF   xD8
....................    //promedio[l]=Temperature;l++; 
....................    promedio[l]=Pt;l++; 
03C2C:  MOVLB  4
03C2E:  CLRF   x4D
03C30:  MOVFF  2D8,44C
03C34:  CLRF   x4F
03C36:  MOVLW  04
03C38:  MOVWF  x4E
03C3A:  MOVLB  0
03C3C:  RCALL  39D0
03C3E:  MOVF   01,W
03C40:  ADDLW  C3
03C42:  MOVWF  FE9
03C44:  MOVLW  00
03C46:  ADDWFC 02,W
03C48:  MOVWF  FEA
03C4A:  MOVFF  2EC,FEF
03C4E:  MOVFF  2ED,FEC
03C52:  MOVFF  2EE,FEC
03C56:  MOVFF  2EF,FEC
03C5A:  MOVLB  2
03C5C:  INCF   xD8,F
....................           
....................    for(h=0;h<media;h++) 
03C5E:  CLRF   xD7
03C60:  MOVLB  4
03C62:  MOVF   x43,W
03C64:  MOVLB  2
03C66:  SUBWF  xD7,W
03C68:  BC    3CE8
....................    { 
....................       Prom+=promedio[h]; 
03C6A:  MOVLB  4
03C6C:  CLRF   x4D
03C6E:  MOVFF  2D7,44C
03C72:  CLRF   x4F
03C74:  MOVLW  04
03C76:  MOVWF  x4E
03C78:  MOVLB  0
03C7A:  RCALL  39D0
03C7C:  MOVFF  02,03
03C80:  MOVF   01,W
03C82:  ADDLW  C3
03C84:  MOVWF  FE9
03C86:  MOVLW  00
03C88:  ADDWFC 02,W
03C8A:  MOVWF  FEA
03C8C:  MOVFF  FEF,00
03C90:  MOVFF  FEC,01
03C94:  MOVFF  FEC,02
03C98:  MOVFF  FEC,03
03C9C:  MOVFF  FEA,44D
03CA0:  MOVFF  FE9,44C
03CA4:  BCF    FD8.1
03CA6:  MOVFF  2FF,45B
03CAA:  MOVFF  2FE,45A
03CAE:  MOVFF  2FD,459
03CB2:  MOVFF  2FC,458
03CB6:  MOVFF  03,45F
03CBA:  MOVFF  02,45E
03CBE:  MOVFF  01,45D
03CC2:  MOVFF  00,45C
03CC6:  CALL   1BFA
03CCA:  MOVFF  44D,FEA
03CCE:  MOVFF  44C,FE9
03CD2:  MOVFF  03,2FF
03CD6:  MOVFF  02,2FE
03CDA:  MOVFF  01,2FD
03CDE:  MOVFF  00,2FC
....................    }  
03CE2:  MOVLB  2
03CE4:  INCF   xD7,F
03CE6:  BRA    3C60
....................    Prom=Prom/media;    
03CE8:  MOVLB  4
03CEA:  CLRF   x59
03CEC:  MOVFF  443,458
03CF0:  MOVLB  0
03CF2:  CALL   1A66
03CF6:  MOVFF  2FF,44F
03CFA:  MOVFF  2FE,44E
03CFE:  MOVFF  2FD,44D
03D02:  MOVFF  2FC,44C
03D06:  MOVFF  03,453
03D0A:  MOVFF  02,452
03D0E:  MOVFF  01,451
03D12:  MOVFF  00,450
03D16:  CALL   1A9C
03D1A:  MOVFF  03,2FF
03D1E:  MOVFF  02,2FE
03D22:  MOVFF  01,2FD
03D26:  MOVFF  00,2FC
....................    //Temperature=(Prom-100.0)/(0.385);  // Ecuacin determinada por linealizacin en Matlab. Revisar este polinomio.   
....................    Temperature=((Prom*Prom)*a)+(Prom*b)+c;  // Ecuacin determinada por linealizacin en Matlab. Revisar este polinomio. 
03D2A:  MOVFF  2FF,45F
03D2E:  MOVFF  2FE,45E
03D32:  MOVFF  2FD,45D
03D36:  MOVFF  2FC,45C
03D3A:  MOVFF  2FF,463
03D3E:  MOVFF  2FE,462
03D42:  MOVFF  2FD,461
03D46:  MOVFF  2FC,460
03D4A:  RCALL  39F2
03D4C:  MOVFF  00,44C
03D50:  MOVFF  01,44D
03D54:  MOVFF  02,44E
03D58:  MOVFF  03,44F
03D5C:  MOVFF  03,45F
03D60:  MOVFF  02,45E
03D64:  MOVFF  01,45D
03D68:  MOVFF  00,45C
03D6C:  MOVFF  333,463
03D70:  MOVFF  332,462
03D74:  MOVFF  331,461
03D78:  MOVFF  330,460
03D7C:  RCALL  39F2
03D7E:  MOVFF  00,44C
03D82:  MOVFF  01,44D
03D86:  MOVFF  02,44E
03D8A:  MOVFF  03,44F
03D8E:  MOVFF  2FF,45F
03D92:  MOVFF  2FE,45E
03D96:  MOVFF  2FD,45D
03D9A:  MOVFF  2FC,45C
03D9E:  MOVFF  337,463
03DA2:  MOVFF  336,462
03DA6:  MOVFF  335,461
03DAA:  MOVFF  334,460
03DAE:  RCALL  39F2
03DB0:  BCF    FD8.1
03DB2:  MOVFF  44F,45B
03DB6:  MOVFF  44E,45A
03DBA:  MOVFF  44D,459
03DBE:  MOVFF  44C,458
03DC2:  MOVFF  03,45F
03DC6:  MOVFF  02,45E
03DCA:  MOVFF  01,45D
03DCE:  MOVFF  00,45C
03DD2:  CALL   1BFA
03DD6:  MOVFF  00,44C
03DDA:  MOVFF  01,44D
03DDE:  MOVFF  02,44E
03DE2:  MOVFF  03,44F
03DE6:  BCF    FD8.1
03DE8:  MOVFF  03,45B
03DEC:  MOVFF  02,45A
03DF0:  MOVFF  01,459
03DF4:  MOVFF  00,458
03DF8:  MOVFF  33B,45F
03DFC:  MOVFF  33A,45E
03E00:  MOVFF  339,45D
03E04:  MOVFF  338,45C
03E08:  CALL   1BFA
03E0C:  MOVFF  03,303
03E10:  MOVFF  02,302
03E14:  MOVFF  01,301
03E18:  MOVFF  00,300
....................    ajp=(float)Ajuste; 
03E1C:  MOVLB  4
03E1E:  CLRF   x59
03E20:  MOVFF  2D9,458
03E24:  MOVLB  0
03E26:  CALL   1A66
03E2A:  MOVFF  03,447
03E2E:  MOVFF  02,446
03E32:  MOVFF  01,445
03E36:  MOVFF  00,444
....................    ajp=ajp/10; 
03E3A:  MOVFF  447,44F
03E3E:  MOVFF  446,44E
03E42:  MOVFF  445,44D
03E46:  MOVFF  444,44C
03E4A:  MOVLB  4
03E4C:  CLRF   x53
03E4E:  CLRF   x52
03E50:  MOVLW  20
03E52:  MOVWF  x51
03E54:  MOVLW  82
03E56:  MOVWF  x50
03E58:  MOVLB  0
03E5A:  CALL   1A9C
03E5E:  MOVFF  03,447
03E62:  MOVFF  02,446
03E66:  MOVFF  01,445
03E6A:  MOVFF  00,444
....................    ajn=(float)Ajusten; 
03E6E:  MOVLB  4
03E70:  CLRF   x59
03E72:  MOVFF  2DA,458
03E76:  MOVLB  0
03E78:  CALL   1A66
03E7C:  MOVFF  03,44B
03E80:  MOVFF  02,44A
03E84:  MOVFF  01,449
03E88:  MOVFF  00,448
....................    ajn=ajn/10; 
03E8C:  MOVFF  44B,44F
03E90:  MOVFF  44A,44E
03E94:  MOVFF  449,44D
03E98:  MOVFF  448,44C
03E9C:  MOVLB  4
03E9E:  CLRF   x53
03EA0:  CLRF   x52
03EA2:  MOVLW  20
03EA4:  MOVWF  x51
03EA6:  MOVLW  82
03EA8:  MOVWF  x50
03EAA:  MOVLB  0
03EAC:  CALL   1A9C
03EB0:  MOVFF  03,44B
03EB4:  MOVFF  02,44A
03EB8:  MOVFF  01,449
03EBC:  MOVFF  00,448
....................    Temperature+=(ajp-ajn); 
03EC0:  BSF    FD8.1
03EC2:  MOVFF  447,45B
03EC6:  MOVFF  446,45A
03ECA:  MOVFF  445,459
03ECE:  MOVFF  444,458
03ED2:  MOVFF  44B,45F
03ED6:  MOVFF  44A,45E
03EDA:  MOVFF  449,45D
03EDE:  MOVFF  448,45C
03EE2:  CALL   1BFA
03EE6:  BCF    FD8.1
03EE8:  MOVFF  303,45B
03EEC:  MOVFF  302,45A
03EF0:  MOVFF  301,459
03EF4:  MOVFF  300,458
03EF8:  MOVFF  03,45F
03EFC:  MOVFF  02,45E
03F00:  MOVFF  01,45D
03F04:  MOVFF  00,45C
03F08:  CALL   1BFA
03F0C:  MOVFF  03,303
03F10:  MOVFF  02,302
03F14:  MOVFF  01,301
03F18:  MOVFF  00,300
....................    //Temperature-=39.0; 
....................     
....................    //return Prom; 
....................    return Temperature; 
03F1C:  MOVFF  300,00
03F20:  MOVFF  301,01
03F24:  MOVFF  302,02
03F28:  MOVFF  303,03
.................... } 
03F2C:  RETLW  00
....................  
.................... float Leer_Sensor_Presion_Camara(int media){ 
....................    promediopresion=0.0; 
03F2E:  MOVLB  2
03F30:  CLRF   xCA
03F32:  CLRF   xC9
03F34:  CLRF   xC8
03F36:  CLRF   xC7
....................    V1 = sensores(2);   //Lectura de Divisor de Voltaje de PT100 con resistencia de 1k (+-10%) 
03F38:  MOVLW  02
03F3A:  MOVLB  4
03F3C:  MOVWF  x4C
03F3E:  MOVLB  0
03F40:  RCALL  3978
03F42:  MOVFF  03,31B
03F46:  MOVFF  02,31A
03F4A:  MOVFF  01,319
03F4E:  MOVFF  00,318
....................    //V1 = V1*(5.0/1024.0); 
....................    //Presion=(V1-0.2)/(K); 
....................    Presion=(((V1)/1023)-0.04)/K; 
03F52:  MOVFF  31B,44F
03F56:  MOVFF  31A,44E
03F5A:  MOVFF  319,44D
03F5E:  MOVFF  318,44C
03F62:  MOVLB  4
03F64:  CLRF   x53
03F66:  MOVLW  C0
03F68:  MOVWF  x52
03F6A:  MOVLW  7F
03F6C:  MOVWF  x51
03F6E:  MOVLW  88
03F70:  MOVWF  x50
03F72:  MOVLB  0
03F74:  CALL   1A9C
03F78:  MOVFF  00,444
03F7C:  MOVFF  01,445
03F80:  MOVFF  02,446
03F84:  MOVFF  03,447
03F88:  BSF    FD8.1
03F8A:  MOVFF  03,45B
03F8E:  MOVFF  02,45A
03F92:  MOVFF  01,459
03F96:  MOVFF  00,458
03F9A:  MOVLW  0A
03F9C:  MOVLB  4
03F9E:  MOVWF  x5F
03FA0:  MOVLW  D7
03FA2:  MOVWF  x5E
03FA4:  MOVLW  23
03FA6:  MOVWF  x5D
03FA8:  MOVLW  7A
03FAA:  MOVWF  x5C
03FAC:  MOVLB  0
03FAE:  CALL   1BFA
03FB2:  MOVFF  00,444
03FB6:  MOVFF  01,445
03FBA:  MOVFF  02,446
03FBE:  MOVFF  03,447
03FC2:  MOVFF  03,44F
03FC6:  MOVFF  02,44E
03FCA:  MOVFF  01,44D
03FCE:  MOVFF  00,44C
03FD2:  MOVFF  32F,453
03FD6:  MOVFF  32E,452
03FDA:  MOVFF  32D,451
03FDE:  MOVFF  32C,450
03FE2:  CALL   1A9C
03FE6:  MOVFF  03,31F
03FEA:  MOVFF  02,31E
03FEE:  MOVFF  01,31D
03FF2:  MOVFF  00,31C
....................     
....................    if(Presion<0.0) 
03FF6:  MOVFF  31F,44E
03FFA:  MOVFF  31E,44D
03FFE:  MOVFF  31D,44C
04002:  MOVFF  31C,44B
04006:  MOVLB  4
04008:  CLRF   x52
0400A:  CLRF   x51
0400C:  CLRF   x50
0400E:  CLRF   x4F
04010:  MOVLB  0
04012:  CALL   2D72
04016:  BNC   4022
....................    { 
....................       Presion=0.0; 
04018:  MOVLB  3
0401A:  CLRF   x1F
0401C:  CLRF   x1E
0401E:  CLRF   x1D
04020:  CLRF   x1C
....................    } 
....................     
....................    if(r>media-1) 
04022:  MOVLW  01
04024:  MOVLB  4
04026:  SUBWF  x43,W
04028:  MOVLB  3
0402A:  SUBWF  x8F,W
0402C:  BZ    4032
0402E:  BNC   4032
....................    {r=0;} 
04030:  CLRF   x8F
....................    PromPresion[r]=Presion;r++; 
04032:  MOVF   x8F,W
04034:  MULLW  04
04036:  MOVF   FF3,W
04038:  CLRF   03
0403A:  ADDLW  03
0403C:  MOVWF  FE9
0403E:  MOVLW  02
04040:  ADDWFC 03,W
04042:  MOVWF  FEA
04044:  MOVFF  31C,FEF
04048:  MOVFF  31D,FEC
0404C:  MOVFF  31E,FEC
04050:  MOVFF  31F,FEC
04054:  INCF   x8F,F
....................           
....................    for(t=0;t<=(media-1);t++) 
04056:  CLRF   x90
04058:  MOVLW  01
0405A:  MOVLB  4
0405C:  SUBWF  x43,W
0405E:  MOVLB  3
04060:  SUBWF  x90,W
04062:  BZ    4066
04064:  BC    40D6
....................    { 
....................       promediopresion+=PromPresion[t]; 
04066:  MOVF   x90,W
04068:  MULLW  04
0406A:  MOVF   FF3,W
0406C:  CLRF   03
0406E:  ADDLW  03
04070:  MOVWF  FE9
04072:  MOVLW  02
04074:  ADDWFC 03,W
04076:  MOVWF  FEA
04078:  MOVFF  FEF,00
0407C:  MOVFF  FEC,01
04080:  MOVFF  FEC,02
04084:  MOVFF  FEC,03
04088:  MOVFF  FEA,445
0408C:  MOVFF  FE9,444
04090:  BCF    FD8.1
04092:  MOVFF  2CA,45B
04096:  MOVFF  2C9,45A
0409A:  MOVFF  2C8,459
0409E:  MOVFF  2C7,458
040A2:  MOVFF  03,45F
040A6:  MOVFF  02,45E
040AA:  MOVFF  01,45D
040AE:  MOVFF  00,45C
040B2:  MOVLB  0
040B4:  CALL   1BFA
040B8:  MOVFF  445,FEA
040BC:  MOVFF  444,FE9
040C0:  MOVFF  03,2CA
040C4:  MOVFF  02,2C9
040C8:  MOVFF  01,2C8
040CC:  MOVFF  00,2C7
....................    }  
040D0:  MOVLB  3
040D2:  INCF   x90,F
040D4:  BRA    4058
....................    promediopresion=promediopresion/media;    
040D6:  MOVLB  4
040D8:  CLRF   x59
040DA:  MOVFF  443,458
040DE:  MOVLB  0
040E0:  CALL   1A66
040E4:  MOVFF  2CA,44F
040E8:  MOVFF  2C9,44E
040EC:  MOVFF  2C8,44D
040F0:  MOVFF  2C7,44C
040F4:  MOVFF  03,453
040F8:  MOVFF  02,452
040FC:  MOVFF  01,451
04100:  MOVFF  00,450
04104:  CALL   1A9C
04108:  MOVFF  03,2CA
0410C:  MOVFF  02,2C9
04110:  MOVFF  01,2C8
04114:  MOVFF  00,2C7
....................     
....................    return promediopresion; 
04118:  MOVFF  2C7,00
0411C:  MOVFF  2C8,01
04120:  MOVFF  2C9,02
04124:  MOVFF  2CA,03
.................... } 
04128:  RETLW  00
....................  
.................... float Leer_Sensor_Presion_PreCamara(int media){ 
....................    promediopresionp=0.0; 
*
04166:  MOVLB  2
04168:  CLRF   xD6
0416A:  CLRF   xD5
0416C:  CLRF   xD4
0416E:  CLRF   xD3
....................    V2 = sensores(3);   //Lectura de Divisor de Voltaje de PT100 con resistencia de 1k (+-10%) 
04170:  MOVLW  03
04172:  MOVLB  4
04174:  MOVWF  x4C
04176:  MOVLB  0
04178:  CALL   3978
0417C:  MOVFF  03,323
04180:  MOVFF  02,322
04184:  MOVFF  01,321
04188:  MOVFF  00,320
....................    //V2 = V2*(5.0/1024.0); 
....................    //Presionp=(V2-0.2)/(K); 
....................    Presionp=(((V2)/1023)-0.04)/K; 
0418C:  MOVFF  323,44F
04190:  MOVFF  322,44E
04194:  MOVFF  321,44D
04198:  MOVFF  320,44C
0419C:  MOVLB  4
0419E:  CLRF   x53
041A0:  MOVLW  C0
041A2:  MOVWF  x52
041A4:  MOVLW  7F
041A6:  MOVWF  x51
041A8:  MOVLW  88
041AA:  MOVWF  x50
041AC:  MOVLB  0
041AE:  CALL   1A9C
041B2:  MOVFF  00,444
041B6:  MOVFF  01,445
041BA:  MOVFF  02,446
041BE:  MOVFF  03,447
041C2:  BSF    FD8.1
041C4:  MOVFF  03,45B
041C8:  MOVFF  02,45A
041CC:  MOVFF  01,459
041D0:  MOVFF  00,458
041D4:  MOVLW  0A
041D6:  MOVLB  4
041D8:  MOVWF  x5F
041DA:  MOVLW  D7
041DC:  MOVWF  x5E
041DE:  MOVLW  23
041E0:  MOVWF  x5D
041E2:  MOVLW  7A
041E4:  MOVWF  x5C
041E6:  MOVLB  0
041E8:  CALL   1BFA
041EC:  MOVFF  00,444
041F0:  MOVFF  01,445
041F4:  MOVFF  02,446
041F8:  MOVFF  03,447
041FC:  MOVFF  03,44F
04200:  MOVFF  02,44E
04204:  MOVFF  01,44D
04208:  MOVFF  00,44C
0420C:  MOVFF  32F,453
04210:  MOVFF  32E,452
04214:  MOVFF  32D,451
04218:  MOVFF  32C,450
0421C:  CALL   1A9C
04220:  MOVFF  03,327
04224:  MOVFF  02,326
04228:  MOVFF  01,325
0422C:  MOVFF  00,324
....................     
....................    if(Presionp<0.0) 
04230:  MOVFF  327,44E
04234:  MOVFF  326,44D
04238:  MOVFF  325,44C
0423C:  MOVFF  324,44B
04240:  MOVLB  4
04242:  CLRF   x52
04244:  CLRF   x51
04246:  CLRF   x50
04248:  CLRF   x4F
0424A:  MOVLB  0
0424C:  CALL   2D72
04250:  BNC   425C
....................    { 
....................       Presionp=0.0; 
04252:  MOVLB  3
04254:  CLRF   x27
04256:  CLRF   x26
04258:  CLRF   x25
0425A:  CLRF   x24
....................    } 
....................     
....................    if(r22>media-1) 
0425C:  MOVLW  01
0425E:  MOVLB  4
04260:  SUBWF  x43,W
04262:  MOVLB  3
04264:  SUBWF  x91,W
04266:  BZ    426C
04268:  BNC   426C
....................    {r22=0;} 
0426A:  CLRF   x91
....................    PromPresionp[r22]=Presionp;r22++; 
0426C:  MOVF   x91,W
0426E:  MULLW  04
04270:  MOVF   FF3,W
04272:  CLRF   03
04274:  ADDLW  53
04276:  MOVWF  FE9
04278:  MOVLW  02
0427A:  ADDWFC 03,W
0427C:  MOVWF  FEA
0427E:  MOVFF  324,FEF
04282:  MOVFF  325,FEC
04286:  MOVFF  326,FEC
0428A:  MOVFF  327,FEC
0428E:  INCF   x91,F
....................           
....................    for(t2=0;t2<=(media-1);t2++) 
04290:  CLRF   x92
04292:  MOVLW  01
04294:  MOVLB  4
04296:  SUBWF  x43,W
04298:  MOVLB  3
0429A:  SUBWF  x92,W
0429C:  BZ    42A0
0429E:  BC    4310
....................    { 
....................       promediopresionp+=PromPresionp[t2]; 
042A0:  MOVF   x92,W
042A2:  MULLW  04
042A4:  MOVF   FF3,W
042A6:  CLRF   03
042A8:  ADDLW  53
042AA:  MOVWF  FE9
042AC:  MOVLW  02
042AE:  ADDWFC 03,W
042B0:  MOVWF  FEA
042B2:  MOVFF  FEF,00
042B6:  MOVFF  FEC,01
042BA:  MOVFF  FEC,02
042BE:  MOVFF  FEC,03
042C2:  MOVFF  FEA,445
042C6:  MOVFF  FE9,444
042CA:  BCF    FD8.1
042CC:  MOVFF  2D6,45B
042D0:  MOVFF  2D5,45A
042D4:  MOVFF  2D4,459
042D8:  MOVFF  2D3,458
042DC:  MOVFF  03,45F
042E0:  MOVFF  02,45E
042E4:  MOVFF  01,45D
042E8:  MOVFF  00,45C
042EC:  MOVLB  0
042EE:  CALL   1BFA
042F2:  MOVFF  445,FEA
042F6:  MOVFF  444,FE9
042FA:  MOVFF  03,2D6
042FE:  MOVFF  02,2D5
04302:  MOVFF  01,2D4
04306:  MOVFF  00,2D3
....................    }  
0430A:  MOVLB  3
0430C:  INCF   x92,F
0430E:  BRA    4292
....................    promediopresionp=promediopresionp/media;    
04310:  MOVLB  4
04312:  CLRF   x59
04314:  MOVFF  443,458
04318:  MOVLB  0
0431A:  CALL   1A66
0431E:  MOVFF  2D6,44F
04322:  MOVFF  2D5,44E
04326:  MOVFF  2D4,44D
0432A:  MOVFF  2D3,44C
0432E:  MOVFF  03,453
04332:  MOVFF  02,452
04336:  MOVFF  01,451
0433A:  MOVFF  00,450
0433E:  CALL   1A9C
04342:  MOVFF  03,2D6
04346:  MOVFF  02,2D5
0434A:  MOVFF  01,2D4
0434E:  MOVFF  00,2D3
....................     
....................    return promediopresionp; 
04352:  MOVFF  2D3,00
04356:  MOVFF  2D4,01
0435A:  MOVFF  2D5,02
0435E:  MOVFF  2D6,03
.................... } 
04362:  RETLW  00
....................  
.................... void Controla(){ 
....................    if(tiemporecta>=Derivativo/2.0) 
*
068AA:  MOVLB  4
068AC:  CLRF   x59
068AE:  MOVFF  33D,458
068B2:  MOVLB  0
068B4:  CALL   1A66
068B8:  MOVFF  03,44F
068BC:  MOVFF  02,44E
068C0:  MOVFF  01,44D
068C4:  MOVFF  00,44C
068C8:  MOVLB  4
068CA:  CLRF   x53
068CC:  CLRF   x52
068CE:  CLRF   x51
068D0:  MOVLW  80
068D2:  MOVWF  x50
068D4:  MOVLB  0
068D6:  CALL   1A9C
068DA:  MOVFF  00,443
068DE:  MOVFF  01,444
068E2:  MOVFF  02,445
068E6:  MOVFF  03,446
068EA:  MOVLB  4
068EC:  CLRF   x59
068EE:  MOVFF  357,458
068F2:  MOVLB  0
068F4:  CALL   1A66
068F8:  MOVFF  446,44E
068FC:  MOVFF  445,44D
06900:  MOVFF  444,44C
06904:  MOVFF  443,44B
06908:  MOVFF  03,452
0690C:  MOVFF  02,451
06910:  MOVFF  01,450
06914:  MOVFF  00,44F
06918:  CALL   2D72
0691C:  BC    6920
0691E:  BNZ   6926
....................    { 
....................       ActualizaRecta(); 
06920:  BRA    683C
....................       tiemporecta=0; 
06922:  MOVLB  3
06924:  CLRF   x57
....................    }  
.................... //-------------------------------Control de Calentamiento------------------------------------------------------------//          
....................    error=desvio+Setpoint-Temperatura;      // Clculo del error ****** 
06926:  MOVLB  4
06928:  CLRF   x59
0692A:  MOVFF  367,458
0692E:  MOVLB  0
06930:  CALL   1A66
06934:  BCF    FD8.1
06936:  MOVFF  313,45B
0693A:  MOVFF  312,45A
0693E:  MOVFF  311,459
06942:  MOVFF  310,458
06946:  MOVFF  03,45F
0694A:  MOVFF  02,45E
0694E:  MOVFF  01,45D
06952:  MOVFF  00,45C
06956:  CALL   1BFA
0695A:  MOVFF  00,443
0695E:  MOVFF  01,444
06962:  MOVFF  02,445
06966:  MOVFF  03,446
0696A:  BSF    FD8.1
0696C:  MOVFF  03,45B
06970:  MOVFF  02,45A
06974:  MOVFF  01,459
06978:  MOVFF  00,458
0697C:  MOVFF  32B,45F
06980:  MOVFF  32A,45E
06984:  MOVFF  329,45D
06988:  MOVFF  328,45C
0698C:  CALL   1BFA
06990:  MOVFF  03,2FB
06994:  MOVFF  02,2FA
06998:  MOVFF  01,2F9
0699C:  MOVFF  00,2F8
....................     
....................    if(error>1.0 && error<15 && Aumento<0.3){ 
069A0:  MOVLB  4
069A2:  CLRF   x4E
069A4:  CLRF   x4D
069A6:  CLRF   x4C
069A8:  MOVLW  7F
069AA:  MOVWF  x4B
069AC:  MOVFF  2FB,452
069B0:  MOVFF  2FA,451
069B4:  MOVFF  2F9,450
069B8:  MOVFF  2F8,44F
069BC:  MOVLB  0
069BE:  CALL   2D72
069C2:  BTFSS  FD8.0
069C4:  BRA    6BF0
069C6:  MOVFF  2FB,44E
069CA:  MOVFF  2FA,44D
069CE:  MOVFF  2F9,44C
069D2:  MOVFF  2F8,44B
069D6:  MOVLB  4
069D8:  CLRF   x52
069DA:  CLRF   x51
069DC:  MOVLW  70
069DE:  MOVWF  x50
069E0:  MOVLW  82
069E2:  MOVWF  x4F
069E4:  MOVLB  0
069E6:  CALL   2D72
069EA:  BTFSS  FD8.0
069EC:  BRA    6BF0
069EE:  MOVFF  2CE,44E
069F2:  MOVFF  2CD,44D
069F6:  MOVFF  2CC,44C
069FA:  MOVFF  2CB,44B
069FE:  MOVLW  9A
06A00:  MOVLB  4
06A02:  MOVWF  x52
06A04:  MOVLW  99
06A06:  MOVWF  x51
06A08:  MOVLW  19
06A0A:  MOVWF  x50
06A0C:  MOVLW  7D
06A0E:  MOVWF  x4F
06A10:  MOVLB  0
06A12:  CALL   2D72
06A16:  BTFSS  FD8.0
06A18:  BRA    6BF0
....................       if(Tpulso<6.0){ 
06A1A:  MOVFF  2F7,44E
06A1E:  MOVFF  2F6,44D
06A22:  MOVFF  2F5,44C
06A26:  MOVFF  2F4,44B
06A2A:  MOVLB  4
06A2C:  CLRF   x52
06A2E:  CLRF   x51
06A30:  MOVLW  40
06A32:  MOVWF  x50
06A34:  MOVLW  81
06A36:  MOVWF  x4F
06A38:  MOVLB  0
06A3A:  CALL   2D72
06A3E:  BTFSS  FD8.0
06A40:  BRA    6BEC
....................          flagTC=1; 
06A42:  MOVLB  3
06A44:  BSF    x55.2
....................          if(TiempoControl>=Derivativo){ 
06A46:  MOVF   x3D,W
06A48:  SUBWF  x93,W
06A4A:  BTFSS  FD8.0
06A4C:  BRA    6BE8
....................             TiempoControl=0; 
06A4E:  CLRF   x93
....................             if(Aumento<-0.5){ 
06A50:  MOVFF  2CE,44E
06A54:  MOVFF  2CD,44D
06A58:  MOVFF  2CC,44C
06A5C:  MOVFF  2CB,44B
06A60:  MOVLB  4
06A62:  CLRF   x52
06A64:  CLRF   x51
06A66:  MOVLW  80
06A68:  MOVWF  x50
06A6A:  MOVLW  7E
06A6C:  MOVWF  x4F
06A6E:  MOVLB  0
06A70:  CALL   2D72
06A74:  BNC   6AE6
....................                Ganancia+=Integral+0.2; 
06A76:  MOVLB  4
06A78:  CLRF   x59
06A7A:  MOVFF  33C,458
06A7E:  MOVLB  0
06A80:  CALL   1A66
06A84:  BCF    FD8.1
06A86:  MOVFF  03,45B
06A8A:  MOVFF  02,45A
06A8E:  MOVFF  01,459
06A92:  MOVFF  00,458
06A96:  MOVLW  CD
06A98:  MOVLB  4
06A9A:  MOVWF  x5F
06A9C:  MOVLW  CC
06A9E:  MOVWF  x5E
06AA0:  MOVLW  4C
06AA2:  MOVWF  x5D
06AA4:  MOVLW  7C
06AA6:  MOVWF  x5C
06AA8:  MOVLB  0
06AAA:  CALL   1BFA
06AAE:  BCF    FD8.1
06AB0:  MOVFF  30B,45B
06AB4:  MOVFF  30A,45A
06AB8:  MOVFF  309,459
06ABC:  MOVFF  308,458
06AC0:  MOVFF  03,45F
06AC4:  MOVFF  02,45E
06AC8:  MOVFF  01,45D
06ACC:  MOVFF  00,45C
06AD0:  CALL   1BFA
06AD4:  MOVFF  03,30B
06AD8:  MOVFF  02,30A
06ADC:  MOVFF  01,309
06AE0:  MOVFF  00,308
....................             }else{ 
06AE4:  BRA    6BE6
....................                if(Aumento<-0.1){ 
06AE6:  MOVFF  2CE,44E
06AEA:  MOVFF  2CD,44D
06AEE:  MOVFF  2CC,44C
06AF2:  MOVFF  2CB,44B
06AF6:  MOVLW  CD
06AF8:  MOVLB  4
06AFA:  MOVWF  x52
06AFC:  MOVLW  CC
06AFE:  MOVWF  x51
06B00:  MOVWF  x50
06B02:  MOVLW  7B
06B04:  MOVWF  x4F
06B06:  MOVLB  0
06B08:  CALL   2D72
06B0C:  BNC   6B7E
....................                   Ganancia+=Integral-0.2; 
06B0E:  MOVLB  4
06B10:  CLRF   x59
06B12:  MOVFF  33C,458
06B16:  MOVLB  0
06B18:  CALL   1A66
06B1C:  BSF    FD8.1
06B1E:  MOVFF  03,45B
06B22:  MOVFF  02,45A
06B26:  MOVFF  01,459
06B2A:  MOVFF  00,458
06B2E:  MOVLW  CD
06B30:  MOVLB  4
06B32:  MOVWF  x5F
06B34:  MOVLW  CC
06B36:  MOVWF  x5E
06B38:  MOVLW  4C
06B3A:  MOVWF  x5D
06B3C:  MOVLW  7C
06B3E:  MOVWF  x5C
06B40:  MOVLB  0
06B42:  CALL   1BFA
06B46:  BCF    FD8.1
06B48:  MOVFF  30B,45B
06B4C:  MOVFF  30A,45A
06B50:  MOVFF  309,459
06B54:  MOVFF  308,458
06B58:  MOVFF  03,45F
06B5C:  MOVFF  02,45E
06B60:  MOVFF  01,45D
06B64:  MOVFF  00,45C
06B68:  CALL   1BFA
06B6C:  MOVFF  03,30B
06B70:  MOVFF  02,30A
06B74:  MOVFF  01,309
06B78:  MOVFF  00,308
....................                }else{ 
06B7C:  BRA    6BE6
....................                   Ganancia+=Integral-0.5; 
06B7E:  MOVLB  4
06B80:  CLRF   x59
06B82:  MOVFF  33C,458
06B86:  MOVLB  0
06B88:  CALL   1A66
06B8C:  BSF    FD8.1
06B8E:  MOVFF  03,45B
06B92:  MOVFF  02,45A
06B96:  MOVFF  01,459
06B9A:  MOVFF  00,458
06B9E:  MOVLB  4
06BA0:  CLRF   x5F
06BA2:  CLRF   x5E
06BA4:  CLRF   x5D
06BA6:  MOVLW  7E
06BA8:  MOVWF  x5C
06BAA:  MOVLB  0
06BAC:  CALL   1BFA
06BB0:  BCF    FD8.1
06BB2:  MOVFF  30B,45B
06BB6:  MOVFF  30A,45A
06BBA:  MOVFF  309,459
06BBE:  MOVFF  308,458
06BC2:  MOVFF  03,45F
06BC6:  MOVFF  02,45E
06BCA:  MOVFF  01,45D
06BCE:  MOVFF  00,45C
06BD2:  CALL   1BFA
06BD6:  MOVFF  03,30B
06BDA:  MOVFF  02,30A
06BDE:  MOVFF  01,309
06BE2:  MOVFF  00,308
06BE6:  MOVLB  3
....................                } 
....................             } 
....................          } 
....................       }else{ 
06BE8:  BRA    6BF0
06BEA:  MOVLB  0
....................          flagTC=0; 
06BEC:  MOVLB  3
06BEE:  BCF    x55.2
....................       } 
....................    } 
....................     
....................    if(error<-0.3) 
06BF0:  MOVFF  2FB,44E
06BF4:  MOVFF  2FA,44D
06BF8:  MOVFF  2F9,44C
06BFC:  MOVFF  2F8,44B
06C00:  MOVLW  9A
06C02:  MOVLB  4
06C04:  MOVWF  x52
06C06:  MOVLW  99
06C08:  MOVWF  x51
06C0A:  MOVWF  x50
06C0C:  MOVLW  7D
06C0E:  MOVWF  x4F
06C10:  MOVLB  0
06C12:  CALL   2D72
06C16:  BNC   6C28
....................       Ganancia=Ganancia2; 
06C18:  MOVFF  30F,30B
06C1C:  MOVFF  30E,30A
06C20:  MOVFF  30D,309
06C24:  MOVFF  30C,308
....................     
....................    if(Ganancia<1) 
06C28:  MOVFF  30B,44E
06C2C:  MOVFF  30A,44D
06C30:  MOVFF  309,44C
06C34:  MOVFF  308,44B
06C38:  MOVLB  4
06C3A:  CLRF   x52
06C3C:  CLRF   x51
06C3E:  CLRF   x50
06C40:  MOVLW  7F
06C42:  MOVWF  x4F
06C44:  MOVLB  0
06C46:  CALL   2D72
06C4A:  BNC   6C58
....................       Ganancia=1; 
06C4C:  MOVLB  3
06C4E:  CLRF   x0B
06C50:  CLRF   x0A
06C52:  CLRF   x09
06C54:  MOVLW  7F
06C56:  MOVWF  x08
....................        
....................    if(error<0.0)     // Anti Wind_DOWN     
06C58:  MOVFF  2FB,44E
06C5C:  MOVFF  2FA,44D
06C60:  MOVFF  2F9,44C
06C64:  MOVFF  2F8,44B
06C68:  MOVLB  4
06C6A:  CLRF   x52
06C6C:  CLRF   x51
06C6E:  CLRF   x50
06C70:  CLRF   x4F
06C72:  MOVLB  0
06C74:  CALL   2D72
06C78:  BNC   6C86
....................       error=0.0; 
06C7A:  MOVLB  2
06C7C:  CLRF   xFB
06C7E:  CLRF   xFA
06C80:  CLRF   xF9
06C82:  CLRF   xF8
06C84:  MOVLB  0
....................     
....................    //tmp=(Setpoint-Prom)*Ganancia;  // Control Proporcional. 
....................    tmp=error*Ganancia;  // Control Proporcional. 
06C86:  MOVFF  2FB,45F
06C8A:  MOVFF  2FA,45E
06C8E:  MOVFF  2F9,45D
06C92:  MOVFF  2F8,45C
06C96:  MOVFF  30B,463
06C9A:  MOVFF  30A,462
06C9E:  MOVFF  309,461
06CA2:  MOVFF  308,460
06CA6:  CALL   39F2
06CAA:  MOVFF  03,307
06CAE:  MOVFF  02,306
06CB2:  MOVFF  01,305
06CB6:  MOVFF  00,304
....................           
....................    if(tmp>Setpoint)   // Anti Wind-UP       
06CBA:  MOVLB  4
06CBC:  CLRF   x59
06CBE:  MOVFF  367,458
06CC2:  MOVLB  0
06CC4:  CALL   1A66
06CC8:  MOVFF  03,44E
06CCC:  MOVFF  02,44D
06CD0:  MOVFF  01,44C
06CD4:  MOVFF  00,44B
06CD8:  MOVFF  307,452
06CDC:  MOVFF  306,451
06CE0:  MOVFF  305,450
06CE4:  MOVFF  304,44F
06CE8:  CALL   2D72
06CEC:  BNC   6D0C
....................       tmp=Setpoint; 
06CEE:  MOVLB  4
06CF0:  CLRF   x59
06CF2:  MOVFF  367,458
06CF6:  MOVLB  0
06CF8:  CALL   1A66
06CFC:  MOVFF  03,307
06D00:  MOVFF  02,306
06D04:  MOVFF  01,305
06D08:  MOVFF  00,304
....................                   
....................    if(tmp<0.0)     // Anti Wind_DOWN     
06D0C:  MOVFF  307,44E
06D10:  MOVFF  306,44D
06D14:  MOVFF  305,44C
06D18:  MOVFF  304,44B
06D1C:  MOVLB  4
06D1E:  CLRF   x52
06D20:  CLRF   x51
06D22:  CLRF   x50
06D24:  CLRF   x4F
06D26:  MOVLB  0
06D28:  CALL   2D72
06D2C:  BNC   6D38
....................       tmp=0.0; 
06D2E:  MOVLB  3
06D30:  CLRF   x07
06D32:  CLRF   x06
06D34:  CLRF   x05
06D36:  CLRF   x04
....................     
....................    // Tpulso(t)= Tciclo*(y(t)-ymin)/(ymax - ymin); calculo de ciclo util para control de resistencia.ymax=140.ymin=0; 
....................    // Tpulso es float, hay que pasar ese ciclo a una salida de un puerto usando el TMR1. 
....................    tmp2=(tmp/Setpoint); 
06D38:  MOVLB  4
06D3A:  CLRF   x59
06D3C:  MOVFF  367,458
06D40:  MOVLB  0
06D42:  CALL   1A66
06D46:  MOVFF  307,44F
06D4A:  MOVFF  306,44E
06D4E:  MOVFF  305,44D
06D52:  MOVFF  304,44C
06D56:  MOVFF  03,453
06D5A:  MOVFF  02,452
06D5E:  MOVFF  01,451
06D62:  MOVFF  00,450
06D66:  CALL   1A9C
06D6A:  MOVFF  03,317
06D6E:  MOVFF  02,316
06D72:  MOVFF  01,315
06D76:  MOVFF  00,314
....................    //if(tmp2>0.8) 
....................    //tmp2=0.8; 
....................    Tpulso=tmp2*Tciclo;   
06D7A:  MOVFF  317,45F
06D7E:  MOVFF  316,45E
06D82:  MOVFF  315,45D
06D86:  MOVFF  314,45C
06D8A:  MOVFF  2F3,463
06D8E:  MOVFF  2F2,462
06D92:  MOVFF  2F1,461
06D96:  MOVFF  2F0,460
06D9A:  CALL   39F2
06D9E:  MOVFF  03,2F7
06DA2:  MOVFF  02,2F6
06DA6:  MOVFF  01,2F5
06DAA:  MOVFF  00,2F4
....................                                        
....................    Tp=(Tpulso/0.005); 
06DAE:  MOVFF  2F7,44F
06DB2:  MOVFF  2F6,44E
06DB6:  MOVFF  2F5,44D
06DBA:  MOVFF  2F4,44C
06DBE:  MOVLW  0A
06DC0:  MOVLB  4
06DC2:  MOVWF  x53
06DC4:  MOVLW  D7
06DC6:  MOVWF  x52
06DC8:  MOVLW  23
06DCA:  MOVWF  x51
06DCC:  MOVLW  77
06DCE:  MOVWF  x50
06DD0:  MOVLB  0
06DD2:  CALL   1A9C
06DD6:  MOVFF  03,45B
06DDA:  MOVFF  02,45A
06DDE:  MOVFF  01,459
06DE2:  MOVFF  00,458
06DE6:  CALL   412A
06DEA:  MOVFF  02,AC
06DEE:  MOVFF  01,AB
....................    Tc=(Tciclo/0.005); 
06DF2:  MOVFF  2F3,44F
06DF6:  MOVFF  2F2,44E
06DFA:  MOVFF  2F1,44D
06DFE:  MOVFF  2F0,44C
06E02:  MOVLW  0A
06E04:  MOVLB  4
06E06:  MOVWF  x53
06E08:  MOVLW  D7
06E0A:  MOVWF  x52
06E0C:  MOVLW  23
06E0E:  MOVWF  x51
06E10:  MOVLW  77
06E12:  MOVWF  x50
06E14:  MOVLB  0
06E16:  CALL   1A9C
06E1A:  MOVFF  03,45B
06E1E:  MOVFF  02,45A
06E22:  MOVFF  01,459
06E26:  MOVFF  00,458
06E2A:  CALL   412A
06E2E:  MOVFF  02,AE
06E32:  MOVFF  01,AD
....................    Controlando=1;    
06E36:  MOVLW  01
06E38:  MOVLB  3
06E3A:  MOVWF  x58
.................... //--------------------------------------------------------------------------------------------------------------------//    
.................... } 
06E3C:  MOVLB  0
06E3E:  GOTO   D140 (RETURN)
....................  
.................... void ControlaPresion(){ 
*
06F60:  MOVLB  4
06F62:  CLRF   x46
06F64:  CLRF   x45
06F66:  CLRF   x44
06F68:  CLRF   x43
....................    float prc=0.0;    
....................    if(tiemporecta>=Derivativo/2.0){ 
06F6A:  CLRF   x59
06F6C:  MOVFF  33D,458
06F70:  MOVLB  0
06F72:  CALL   1A66
06F76:  MOVFF  03,44F
06F7A:  MOVFF  02,44E
06F7E:  MOVFF  01,44D
06F82:  MOVFF  00,44C
06F86:  MOVLB  4
06F88:  CLRF   x53
06F8A:  CLRF   x52
06F8C:  CLRF   x51
06F8E:  MOVLW  80
06F90:  MOVWF  x50
06F92:  MOVLB  0
06F94:  CALL   1A9C
06F98:  MOVFF  00,447
06F9C:  MOVFF  01,448
06FA0:  MOVFF  02,449
06FA4:  MOVFF  03,44A
06FA8:  MOVLB  4
06FAA:  CLRF   x59
06FAC:  MOVFF  357,458
06FB0:  MOVLB  0
06FB2:  CALL   1A66
06FB6:  MOVFF  44A,44E
06FBA:  MOVFF  449,44D
06FBE:  MOVFF  448,44C
06FC2:  MOVFF  447,44B
06FC6:  MOVFF  03,452
06FCA:  MOVFF  02,451
06FCE:  MOVFF  01,450
06FD2:  MOVFF  00,44F
06FD6:  CALL   2D72
06FDA:  BC    6FDE
06FDC:  BNZ   6FE6
....................       ActualizaRectaPresion(); 
06FDE:  BRA    6EF2
....................       tiemporecta=0; 
06FE0:  MOVLB  3
06FE2:  CLRF   x57
06FE4:  MOVLB  0
....................    }  
....................    prc=(float)PresionCamara; 
06FE6:  MOVFF  37A,459
06FEA:  MOVFF  379,458
06FEE:  CALL   1A66
06FF2:  MOVFF  03,446
06FF6:  MOVFF  02,445
06FFA:  MOVFF  01,444
06FFE:  MOVFF  00,443
....................    Tactual=((prc)*(prc)*(prc)*p1)+((prc)*(prc)*p2)+(p3*prc)+p4; 
07002:  MOVFF  446,45F
07006:  MOVFF  445,45E
0700A:  MOVFF  444,45D
0700E:  MOVFF  443,45C
07012:  MOVFF  446,463
07016:  MOVFF  445,462
0701A:  MOVFF  444,461
0701E:  MOVFF  443,460
07022:  CALL   39F2
07026:  MOVFF  00,447
0702A:  MOVFF  01,448
0702E:  MOVFF  02,449
07032:  MOVFF  03,44A
07036:  MOVFF  03,45F
0703A:  MOVFF  02,45E
0703E:  MOVFF  01,45D
07042:  MOVFF  00,45C
07046:  MOVFF  446,463
0704A:  MOVFF  445,462
0704E:  MOVFF  444,461
07052:  MOVFF  443,460
07056:  CALL   39F2
0705A:  MOVFF  00,447
0705E:  MOVFF  01,448
07062:  MOVFF  02,449
07066:  MOVFF  03,44A
0706A:  MOVFF  03,45F
0706E:  MOVFF  02,45E
07072:  MOVFF  01,45D
07076:  MOVFF  00,45C
0707A:  MOVFF  344,463
0707E:  MOVFF  343,462
07082:  MOVFF  342,461
07086:  MOVFF  341,460
0708A:  CALL   39F2
0708E:  MOVFF  00,447
07092:  MOVFF  01,448
07096:  MOVFF  02,449
0709A:  MOVFF  03,44A
0709E:  MOVFF  446,45F
070A2:  MOVFF  445,45E
070A6:  MOVFF  444,45D
070AA:  MOVFF  443,45C
070AE:  MOVFF  446,463
070B2:  MOVFF  445,462
070B6:  MOVFF  444,461
070BA:  MOVFF  443,460
070BE:  CALL   39F2
070C2:  MOVFF  00,44B
070C6:  MOVFF  01,44C
070CA:  MOVFF  02,44D
070CE:  MOVFF  03,44E
070D2:  MOVFF  03,45F
070D6:  MOVFF  02,45E
070DA:  MOVFF  01,45D
070DE:  MOVFF  00,45C
070E2:  MOVFF  348,463
070E6:  MOVFF  347,462
070EA:  MOVFF  346,461
070EE:  MOVFF  345,460
070F2:  CALL   39F2
070F6:  BCF    FD8.1
070F8:  MOVFF  44A,45B
070FC:  MOVFF  449,45A
07100:  MOVFF  448,459
07104:  MOVFF  447,458
07108:  MOVFF  03,45F
0710C:  MOVFF  02,45E
07110:  MOVFF  01,45D
07114:  MOVFF  00,45C
07118:  CALL   1BFA
0711C:  MOVFF  00,447
07120:  MOVFF  01,448
07124:  MOVFF  02,449
07128:  MOVFF  03,44A
0712C:  MOVFF  34C,45F
07130:  MOVFF  34B,45E
07134:  MOVFF  34A,45D
07138:  MOVFF  349,45C
0713C:  MOVFF  446,463
07140:  MOVFF  445,462
07144:  MOVFF  444,461
07148:  MOVFF  443,460
0714C:  CALL   39F2
07150:  BCF    FD8.1
07152:  MOVFF  44A,45B
07156:  MOVFF  449,45A
0715A:  MOVFF  448,459
0715E:  MOVFF  447,458
07162:  MOVFF  03,45F
07166:  MOVFF  02,45E
0716A:  MOVFF  01,45D
0716E:  MOVFF  00,45C
07172:  CALL   1BFA
07176:  MOVFF  00,447
0717A:  MOVFF  01,448
0717E:  MOVFF  02,449
07182:  MOVFF  03,44A
07186:  BCF    FD8.1
07188:  MOVFF  03,45B
0718C:  MOVFF  02,45A
07190:  MOVFF  01,459
07194:  MOVFF  00,458
07198:  MOVFF  350,45F
0719C:  MOVFF  34F,45E
071A0:  MOVFF  34E,45D
071A4:  MOVFF  34D,45C
071A8:  CALL   1BFA
071AC:  MOVFF  03,354
071B0:  MOVFF  02,353
071B4:  MOVFF  01,352
071B8:  MOVFF  00,351
.................... //-------------------------------Control de Calentamiento------------------------------------------------------------//          
....................    if(Esterilizando){ 
071BC:  BTFSS  xA0.2
071BE:  BRA    723C
....................       error=desvio+Setpoint-Tactual;      // Clculo del error ****** 
071C0:  MOVLB  4
071C2:  CLRF   x59
071C4:  MOVFF  367,458
071C8:  MOVLB  0
071CA:  CALL   1A66
071CE:  BCF    FD8.1
071D0:  MOVFF  313,45B
071D4:  MOVFF  312,45A
071D8:  MOVFF  311,459
071DC:  MOVFF  310,458
071E0:  MOVFF  03,45F
071E4:  MOVFF  02,45E
071E8:  MOVFF  01,45D
071EC:  MOVFF  00,45C
071F0:  CALL   1BFA
071F4:  MOVFF  00,447
071F8:  MOVFF  01,448
071FC:  MOVFF  02,449
07200:  MOVFF  03,44A
07204:  BSF    FD8.1
07206:  MOVFF  03,45B
0720A:  MOVFF  02,45A
0720E:  MOVFF  01,459
07212:  MOVFF  00,458
07216:  MOVFF  354,45F
0721A:  MOVFF  353,45E
0721E:  MOVFF  352,45D
07222:  MOVFF  351,45C
07226:  CALL   1BFA
0722A:  MOVFF  03,2FB
0722E:  MOVFF  02,2FA
07232:  MOVFF  01,2F9
07236:  MOVFF  00,2F8
....................    }else{ 
0723A:  BRA    72EA
....................       error=desvio+1.0+Setpoint-Tactual;      // Clculo del error ****** 
0723C:  BCF    FD8.1
0723E:  MOVFF  313,45B
07242:  MOVFF  312,45A
07246:  MOVFF  311,459
0724A:  MOVFF  310,458
0724E:  MOVLB  4
07250:  CLRF   x5F
07252:  CLRF   x5E
07254:  CLRF   x5D
07256:  MOVLW  7F
07258:  MOVWF  x5C
0725A:  MOVLB  0
0725C:  CALL   1BFA
07260:  MOVFF  00,447
07264:  MOVFF  01,448
07268:  MOVFF  02,449
0726C:  MOVFF  03,44A
07270:  MOVLB  4
07272:  CLRF   x59
07274:  MOVFF  367,458
07278:  MOVLB  0
0727A:  CALL   1A66
0727E:  BCF    FD8.1
07280:  MOVFF  44A,45B
07284:  MOVFF  449,45A
07288:  MOVFF  448,459
0728C:  MOVFF  447,458
07290:  MOVFF  03,45F
07294:  MOVFF  02,45E
07298:  MOVFF  01,45D
0729C:  MOVFF  00,45C
072A0:  CALL   1BFA
072A4:  MOVFF  00,447
072A8:  MOVFF  01,448
072AC:  MOVFF  02,449
072B0:  MOVFF  03,44A
072B4:  BSF    FD8.1
072B6:  MOVFF  03,45B
072BA:  MOVFF  02,45A
072BE:  MOVFF  01,459
072C2:  MOVFF  00,458
072C6:  MOVFF  354,45F
072CA:  MOVFF  353,45E
072CE:  MOVFF  352,45D
072D2:  MOVFF  351,45C
072D6:  CALL   1BFA
072DA:  MOVFF  03,2FB
072DE:  MOVFF  02,2FA
072E2:  MOVFF  01,2F9
072E6:  MOVFF  00,2F8
....................    } 
....................     
....................    if(error>1.0 && error<20 && Aumento2<0.3){ 
072EA:  MOVLB  4
072EC:  CLRF   x4E
072EE:  CLRF   x4D
072F0:  CLRF   x4C
072F2:  MOVLW  7F
072F4:  MOVWF  x4B
072F6:  MOVFF  2FB,452
072FA:  MOVFF  2FA,451
072FE:  MOVFF  2F9,450
07302:  MOVFF  2F8,44F
07306:  MOVLB  0
07308:  CALL   2D72
0730C:  BTFSS  FD8.0
0730E:  BRA    753C
07310:  MOVFF  2FB,44E
07314:  MOVFF  2FA,44D
07318:  MOVFF  2F9,44C
0731C:  MOVFF  2F8,44B
07320:  MOVLB  4
07322:  CLRF   x52
07324:  CLRF   x51
07326:  MOVLW  20
07328:  MOVWF  x50
0732A:  MOVLW  83
0732C:  MOVWF  x4F
0732E:  MOVLB  0
07330:  CALL   2D72
07334:  BTFSS  FD8.0
07336:  BRA    753C
07338:  MOVFF  2D2,44E
0733C:  MOVFF  2D1,44D
07340:  MOVFF  2D0,44C
07344:  MOVFF  2CF,44B
07348:  MOVLW  9A
0734A:  MOVLB  4
0734C:  MOVWF  x52
0734E:  MOVLW  99
07350:  MOVWF  x51
07352:  MOVLW  19
07354:  MOVWF  x50
07356:  MOVLW  7D
07358:  MOVWF  x4F
0735A:  MOVLB  0
0735C:  CALL   2D72
07360:  BTFSS  FD8.0
07362:  BRA    753C
....................       if(Tpulso<=6.0){ 
07364:  MOVFF  2F7,44E
07368:  MOVFF  2F6,44D
0736C:  MOVFF  2F5,44C
07370:  MOVFF  2F4,44B
07374:  MOVLB  4
07376:  CLRF   x52
07378:  CLRF   x51
0737A:  MOVLW  40
0737C:  MOVWF  x50
0737E:  MOVLW  81
07380:  MOVWF  x4F
07382:  MOVLB  0
07384:  CALL   2D72
07388:  BC    738E
0738A:  BTFSS  FD8.2
0738C:  BRA    7538
....................          flagTC=1; 
0738E:  MOVLB  3
07390:  BSF    x55.2
....................          if(TiempoControl>=Derivativo){ 
07392:  MOVF   x3D,W
07394:  SUBWF  x93,W
07396:  BTFSS  FD8.0
07398:  BRA    7534
....................             TiempoControl=0; 
0739A:  CLRF   x93
....................             if(Aumento2<-0.5){ 
0739C:  MOVFF  2D2,44E
073A0:  MOVFF  2D1,44D
073A4:  MOVFF  2D0,44C
073A8:  MOVFF  2CF,44B
073AC:  MOVLB  4
073AE:  CLRF   x52
073B0:  CLRF   x51
073B2:  MOVLW  80
073B4:  MOVWF  x50
073B6:  MOVLW  7E
073B8:  MOVWF  x4F
073BA:  MOVLB  0
073BC:  CALL   2D72
073C0:  BNC   7432
....................                Ganancia+=Integral+0.2; 
073C2:  MOVLB  4
073C4:  CLRF   x59
073C6:  MOVFF  33C,458
073CA:  MOVLB  0
073CC:  CALL   1A66
073D0:  BCF    FD8.1
073D2:  MOVFF  03,45B
073D6:  MOVFF  02,45A
073DA:  MOVFF  01,459
073DE:  MOVFF  00,458
073E2:  MOVLW  CD
073E4:  MOVLB  4
073E6:  MOVWF  x5F
073E8:  MOVLW  CC
073EA:  MOVWF  x5E
073EC:  MOVLW  4C
073EE:  MOVWF  x5D
073F0:  MOVLW  7C
073F2:  MOVWF  x5C
073F4:  MOVLB  0
073F6:  CALL   1BFA
073FA:  BCF    FD8.1
073FC:  MOVFF  30B,45B
07400:  MOVFF  30A,45A
07404:  MOVFF  309,459
07408:  MOVFF  308,458
0740C:  MOVFF  03,45F
07410:  MOVFF  02,45E
07414:  MOVFF  01,45D
07418:  MOVFF  00,45C
0741C:  CALL   1BFA
07420:  MOVFF  03,30B
07424:  MOVFF  02,30A
07428:  MOVFF  01,309
0742C:  MOVFF  00,308
....................             }else{ 
07430:  BRA    7532
....................                if(Aumento2<-0.1){ 
07432:  MOVFF  2D2,44E
07436:  MOVFF  2D1,44D
0743A:  MOVFF  2D0,44C
0743E:  MOVFF  2CF,44B
07442:  MOVLW  CD
07444:  MOVLB  4
07446:  MOVWF  x52
07448:  MOVLW  CC
0744A:  MOVWF  x51
0744C:  MOVWF  x50
0744E:  MOVLW  7B
07450:  MOVWF  x4F
07452:  MOVLB  0
07454:  CALL   2D72
07458:  BNC   74CA
....................                   Ganancia+=Integral-0.2; 
0745A:  MOVLB  4
0745C:  CLRF   x59
0745E:  MOVFF  33C,458
07462:  MOVLB  0
07464:  CALL   1A66
07468:  BSF    FD8.1
0746A:  MOVFF  03,45B
0746E:  MOVFF  02,45A
07472:  MOVFF  01,459
07476:  MOVFF  00,458
0747A:  MOVLW  CD
0747C:  MOVLB  4
0747E:  MOVWF  x5F
07480:  MOVLW  CC
07482:  MOVWF  x5E
07484:  MOVLW  4C
07486:  MOVWF  x5D
07488:  MOVLW  7C
0748A:  MOVWF  x5C
0748C:  MOVLB  0
0748E:  CALL   1BFA
07492:  BCF    FD8.1
07494:  MOVFF  30B,45B
07498:  MOVFF  30A,45A
0749C:  MOVFF  309,459
074A0:  MOVFF  308,458
074A4:  MOVFF  03,45F
074A8:  MOVFF  02,45E
074AC:  MOVFF  01,45D
074B0:  MOVFF  00,45C
074B4:  CALL   1BFA
074B8:  MOVFF  03,30B
074BC:  MOVFF  02,30A
074C0:  MOVFF  01,309
074C4:  MOVFF  00,308
....................                }else{ 
074C8:  BRA    7532
....................                   Ganancia+=Integral-0.5; 
074CA:  MOVLB  4
074CC:  CLRF   x59
074CE:  MOVFF  33C,458
074D2:  MOVLB  0
074D4:  CALL   1A66
074D8:  BSF    FD8.1
074DA:  MOVFF  03,45B
074DE:  MOVFF  02,45A
074E2:  MOVFF  01,459
074E6:  MOVFF  00,458
074EA:  MOVLB  4
074EC:  CLRF   x5F
074EE:  CLRF   x5E
074F0:  CLRF   x5D
074F2:  MOVLW  7E
074F4:  MOVWF  x5C
074F6:  MOVLB  0
074F8:  CALL   1BFA
074FC:  BCF    FD8.1
074FE:  MOVFF  30B,45B
07502:  MOVFF  30A,45A
07506:  MOVFF  309,459
0750A:  MOVFF  308,458
0750E:  MOVFF  03,45F
07512:  MOVFF  02,45E
07516:  MOVFF  01,45D
0751A:  MOVFF  00,45C
0751E:  CALL   1BFA
07522:  MOVFF  03,30B
07526:  MOVFF  02,30A
0752A:  MOVFF  01,309
0752E:  MOVFF  00,308
07532:  MOVLB  3
....................                } 
....................             } 
....................          } 
....................       }else{ 
07534:  BRA    753C
07536:  MOVLB  0
....................          flagTC=0; 
07538:  MOVLB  3
0753A:  BCF    x55.2
....................       } 
....................    } 
....................     
....................    if(error<-0.3) 
0753C:  MOVFF  2FB,44E
07540:  MOVFF  2FA,44D
07544:  MOVFF  2F9,44C
07548:  MOVFF  2F8,44B
0754C:  MOVLW  9A
0754E:  MOVLB  4
07550:  MOVWF  x52
07552:  MOVLW  99
07554:  MOVWF  x51
07556:  MOVWF  x50
07558:  MOVLW  7D
0755A:  MOVWF  x4F
0755C:  MOVLB  0
0755E:  CALL   2D72
07562:  BNC   7574
....................       Ganancia=Ganancia2; 
07564:  MOVFF  30F,30B
07568:  MOVFF  30E,30A
0756C:  MOVFF  30D,309
07570:  MOVFF  30C,308
....................     
....................    if(Ganancia<1) 
07574:  MOVFF  30B,44E
07578:  MOVFF  30A,44D
0757C:  MOVFF  309,44C
07580:  MOVFF  308,44B
07584:  MOVLB  4
07586:  CLRF   x52
07588:  CLRF   x51
0758A:  CLRF   x50
0758C:  MOVLW  7F
0758E:  MOVWF  x4F
07590:  MOVLB  0
07592:  CALL   2D72
07596:  BNC   75A4
....................       Ganancia=1; 
07598:  MOVLB  3
0759A:  CLRF   x0B
0759C:  CLRF   x0A
0759E:  CLRF   x09
075A0:  MOVLW  7F
075A2:  MOVWF  x08
....................     
....................    if(error<0.0)     // Anti Wind_DOWN     
075A4:  MOVFF  2FB,44E
075A8:  MOVFF  2FA,44D
075AC:  MOVFF  2F9,44C
075B0:  MOVFF  2F8,44B
075B4:  MOVLB  4
075B6:  CLRF   x52
075B8:  CLRF   x51
075BA:  CLRF   x50
075BC:  CLRF   x4F
075BE:  MOVLB  0
075C0:  CALL   2D72
075C4:  BNC   75D2
....................       error=0.0; 
075C6:  MOVLB  2
075C8:  CLRF   xFB
075CA:  CLRF   xFA
075CC:  CLRF   xF9
075CE:  CLRF   xF8
075D0:  MOVLB  0
....................    //tmp=(Setpoint-Prom)*Ganancia;  // Control Proporcional. 
....................    tmp=error*Ganancia;  // Control Proporcional. 
075D2:  MOVFF  2FB,45F
075D6:  MOVFF  2FA,45E
075DA:  MOVFF  2F9,45D
075DE:  MOVFF  2F8,45C
075E2:  MOVFF  30B,463
075E6:  MOVFF  30A,462
075EA:  MOVFF  309,461
075EE:  MOVFF  308,460
075F2:  CALL   39F2
075F6:  MOVFF  03,307
075FA:  MOVFF  02,306
075FE:  MOVFF  01,305
07602:  MOVFF  00,304
....................           
....................    if(tmp>Setpoint)   // Anti Wind-UP       
07606:  MOVLB  4
07608:  CLRF   x59
0760A:  MOVFF  367,458
0760E:  MOVLB  0
07610:  CALL   1A66
07614:  MOVFF  03,44E
07618:  MOVFF  02,44D
0761C:  MOVFF  01,44C
07620:  MOVFF  00,44B
07624:  MOVFF  307,452
07628:  MOVFF  306,451
0762C:  MOVFF  305,450
07630:  MOVFF  304,44F
07634:  CALL   2D72
07638:  BNC   7658
....................       tmp=Setpoint; 
0763A:  MOVLB  4
0763C:  CLRF   x59
0763E:  MOVFF  367,458
07642:  MOVLB  0
07644:  CALL   1A66
07648:  MOVFF  03,307
0764C:  MOVFF  02,306
07650:  MOVFF  01,305
07654:  MOVFF  00,304
....................                 
....................    if(tmp<0.0)     // Anti Wind_DOWN     
07658:  MOVFF  307,44E
0765C:  MOVFF  306,44D
07660:  MOVFF  305,44C
07664:  MOVFF  304,44B
07668:  MOVLB  4
0766A:  CLRF   x52
0766C:  CLRF   x51
0766E:  CLRF   x50
07670:  CLRF   x4F
07672:  MOVLB  0
07674:  CALL   2D72
07678:  BNC   7684
....................       tmp=0.0; 
0767A:  MOVLB  3
0767C:  CLRF   x07
0767E:  CLRF   x06
07680:  CLRF   x05
07682:  CLRF   x04
....................     
....................    // Tpulso(t)= Tciclo*(y(t)-ymin)/(ymax - ymin); calculo de ciclo util para control de resistencia.ymax=140.ymin=0; 
....................    // Tpulso es float, hay que pasar ese ciclo a una salida de un puerto usando el TMR1. 
....................    tmp2=(tmp/Setpoint); 
07684:  MOVLB  4
07686:  CLRF   x59
07688:  MOVFF  367,458
0768C:  MOVLB  0
0768E:  CALL   1A66
07692:  MOVFF  307,44F
07696:  MOVFF  306,44E
0769A:  MOVFF  305,44D
0769E:  MOVFF  304,44C
076A2:  MOVFF  03,453
076A6:  MOVFF  02,452
076AA:  MOVFF  01,451
076AE:  MOVFF  00,450
076B2:  CALL   1A9C
076B6:  MOVFF  03,317
076BA:  MOVFF  02,316
076BE:  MOVFF  01,315
076C2:  MOVFF  00,314
....................    //if(tmp2>0.8) 
....................    //tmp2=0.8; 
....................    Tpulso=tmp2*Tciclo;   
076C6:  MOVFF  317,45F
076CA:  MOVFF  316,45E
076CE:  MOVFF  315,45D
076D2:  MOVFF  314,45C
076D6:  MOVFF  2F3,463
076DA:  MOVFF  2F2,462
076DE:  MOVFF  2F1,461
076E2:  MOVFF  2F0,460
076E6:  CALL   39F2
076EA:  MOVFF  03,2F7
076EE:  MOVFF  02,2F6
076F2:  MOVFF  01,2F5
076F6:  MOVFF  00,2F4
....................                                        
....................    Tp=(Tpulso/0.005); 
076FA:  MOVFF  2F7,44F
076FE:  MOVFF  2F6,44E
07702:  MOVFF  2F5,44D
07706:  MOVFF  2F4,44C
0770A:  MOVLW  0A
0770C:  MOVLB  4
0770E:  MOVWF  x53
07710:  MOVLW  D7
07712:  MOVWF  x52
07714:  MOVLW  23
07716:  MOVWF  x51
07718:  MOVLW  77
0771A:  MOVWF  x50
0771C:  MOVLB  0
0771E:  CALL   1A9C
07722:  MOVFF  03,45B
07726:  MOVFF  02,45A
0772A:  MOVFF  01,459
0772E:  MOVFF  00,458
07732:  CALL   412A
07736:  MOVFF  02,AC
0773A:  MOVFF  01,AB
....................    Tc=(Tciclo/0.005); 
0773E:  MOVFF  2F3,44F
07742:  MOVFF  2F2,44E
07746:  MOVFF  2F1,44D
0774A:  MOVFF  2F0,44C
0774E:  MOVLW  0A
07750:  MOVLB  4
07752:  MOVWF  x53
07754:  MOVLW  D7
07756:  MOVWF  x52
07758:  MOVLW  23
0775A:  MOVWF  x51
0775C:  MOVLW  77
0775E:  MOVWF  x50
07760:  MOVLB  0
07762:  CALL   1A9C
07766:  MOVFF  03,45B
0776A:  MOVFF  02,45A
0776E:  MOVFF  01,459
07772:  MOVFF  00,458
07776:  CALL   412A
0777A:  MOVFF  02,AE
0777E:  MOVFF  01,AD
....................    Controlando=1;    
07782:  MOVLW  01
07784:  MOVLB  3
07786:  MOVWF  x58
.................... //--------------------------------------------------------------------------------------------------------------------//    
.................... } 
07788:  MOVLB  0
0778A:  RETLW  00
....................  
....................  
.................... void Envio_I2C(direccion, posicion, dato){ 
....................  
....................    i2c_start();            // Comienzo comunicacin 
....................    i2c_write(direccion);   // Direccin del esclavo en el bus I2C 
....................    i2c_write(posicion);    // Posicin donde se guardara el dato transmitido 
....................    i2c_write(dato);        // Dato a transmitir 
....................    i2c_stop();             // Fin comunicacin 
....................  } 
....................  
.................... void Lectura_I2C (byte direccion, byte posicion, byte &dato) { 
....................  
....................    i2c_start();            // Comienzo de la comunicacin 
....................    i2c_write(direccion);   // Direccin del esclavo en el bus I2C 
....................    i2c_write(posicion);    // Posicin de donde se leer el dato en el esclavo 
....................    i2c_start();            // Reinicio 
....................    i2c_write(direccion+1); // Direccin del esclavo en modo lectura 
....................    dato=i2c_read(0);       // Lectura del dato 
....................    i2c_stop();             // Fin comunicacin 
.................... } 
....................  
.................... void Carga_Vector(void){ 
....................    SlaveA0Tx[0]=(int8)Temperatura; 
*
044F4:  MOVFF  32B,45B
044F8:  MOVFF  32A,45A
044FC:  MOVFF  329,459
04500:  MOVFF  328,458
04504:  RCALL  412A
04506:  MOVFF  01,64
....................    SlaveA0Tx[1]=(Temperatura-((int8)Temperatura))*10; 
0450A:  MOVFF  32B,45B
0450E:  MOVFF  32A,45A
04512:  MOVFF  329,459
04516:  MOVFF  328,458
0451A:  RCALL  412A
0451C:  MOVLB  4
0451E:  CLRF   x59
04520:  MOVFF  01,458
04524:  MOVLB  0
04526:  CALL   1A66
0452A:  BSF    FD8.1
0452C:  MOVFF  32B,45B
04530:  MOVFF  32A,45A
04534:  MOVFF  329,459
04538:  MOVFF  328,458
0453C:  MOVFF  03,45F
04540:  MOVFF  02,45E
04544:  MOVFF  01,45D
04548:  MOVFF  00,45C
0454C:  CALL   1BFA
04550:  MOVFF  00,458
04554:  MOVFF  01,459
04558:  MOVFF  02,45A
0455C:  MOVFF  03,45B
04560:  MOVFF  03,45F
04564:  MOVFF  02,45E
04568:  MOVFF  01,45D
0456C:  MOVFF  00,45C
04570:  MOVLB  4
04572:  CLRF   x63
04574:  CLRF   x62
04576:  MOVLW  20
04578:  MOVWF  x61
0457A:  MOVLW  82
0457C:  MOVWF  x60
0457E:  MOVLB  0
04580:  CALL   39F2
04584:  MOVFF  03,45B
04588:  MOVFF  02,45A
0458C:  MOVFF  01,459
04590:  MOVFF  00,458
04594:  RCALL  412A
04596:  MOVFF  01,65
....................    SlaveA0Tx[2]=make8((int16)PresionCamara,0); 
0459A:  MOVFF  379,66
0459E:  MOVLB  0
....................    SlaveA0Tx[3]=make8((int16)PresionCamara,1); 
045A0:  MOVFF  37A,67
045A4:  MOVLB  0
....................    SlaveA0Tx[4]=make8((int16)PresionPreCamara,0); 
045A6:  MOVFF  37B,68
045AA:  MOVLB  0
....................    SlaveA0Tx[5]=make8((int16)PresionPreCamara,1); 
045AC:  MOVFF  37C,69
045B0:  MOVLB  0
....................    SlaveA0Tx[6]=(int8)Tpulso*10; 
045B2:  MOVFF  2F7,45B
045B6:  MOVFF  2F6,45A
045BA:  MOVFF  2F5,459
045BE:  MOVFF  2F4,458
045C2:  RCALL  412A
045C4:  MOVF   01,W
045C6:  MULLW  0A
045C8:  MOVFF  FF3,6A
....................    SlaveA0Tx[7]=HIG; 
045CC:  BSF    F94.0
045CE:  CLRF   x6B
045D0:  BTFSC  F82.0
045D2:  INCF   x6B,F
....................    SlaveA0Tx[8]=LOW; 
045D4:  BSF    F94.1
045D6:  CLRF   x6C
045D8:  BTFSC  F82.1
045DA:  INCF   x6C,F
....................    SlaveA0Tx[9]=TERM; 
045DC:  BSF    F93.5
045DE:  CLRF   x6D
045E0:  BTFSS  F81.5
045E2:  INCF   x6D,F
....................    SlaveA0Tx[10]=DOOR; 
045E4:  BSF    F93.6
045E6:  CLRF   x6E
045E8:  BTFSS  F81.6
045EA:  INCF   x6E,F
....................    SlaveA0Tx[11]=STOP; 
045EC:  BSF    F93.7
045EE:  CLRF   x6F
045F0:  BTFSS  F81.7
045F2:  INCF   x6F,F
....................    SlaveA0Tx[12]=(int8)error; 
045F4:  MOVFF  2FB,45B
045F8:  MOVFF  2FA,45A
045FC:  MOVFF  2F9,459
04600:  MOVFF  2F8,458
04604:  RCALL  412A
04606:  MOVFF  01,70
....................    SlaveA0Tx[13]=CicloSeleccionado; 
0460A:  MOVFF  366,71
....................    SlaveA0Tx[14]=SetTime; 
0460E:  MOVFF  3B0,72
....................    SlaveA0Tx[15]=Dia; 
04612:  MOVFF  3A4,73
....................    SlaveA0Tx[16]=Mes; 
04616:  MOVFF  3A3,74
....................    SlaveA0Tx[17]=Year; 
0461A:  MOVFF  3A2,75
....................    SlaveA0Tx[18]=Hora; 
0461E:  MOVFF  3A5,76
....................    SlaveA0Tx[19]=Minuto; 
04622:  MOVFF  3A6,77
....................    SlaveA0Tx[20]=Segundo; 
04626:  MOVFF  3A7,78
....................    SlaveA0Tx[21]=Imprime; 
0462A:  MOVFF  3B1,79
....................    SlaveA0Tx[22]=Aire; 
0462E:  CLRF   x7A
04630:  BTFSC  xA4.1
04632:  INCF   x7A,F
....................    SlaveA0Tx[23]=make8(Ciclos,0); 
04634:  MOVFF  37D,7B
04638:  MOVLB  0
....................    SlaveA0Tx[24]=make8(Ciclos,1); 
0463A:  MOVFF  37E,7C
0463E:  MOVLB  0
.................... } 
04640:  GOTO   46BC (RETURN)
....................  
.................... void Lee_Vector(void){ 
....................    /*Dia=txbuf[0]; 
....................    Mess=txbuf[1]; 
....................    Year=txbuf[2]; 
....................    Hora=txbuf[3]; 
....................    Minuto=txbuf[4]; 
....................    Segundo=txbuf[5]; 
....................    dow=txbuf[6];*/ 
.................... } 
....................  
.................... void Envio_Esclavos(void){ 
....................    Carga_Vector(); 
*
046BA:  BRA    44F4
....................    for(i=0;i<25;i++){ 
046BC:  MOVLB  3
046BE:  CLRF   x63
046C0:  MOVF   x63,W
046C2:  SUBLW  18
046C4:  BNC   4746
....................       direccion=0xB0; 
046C6:  MOVLW  B0
046C8:  MOVLB  0
046CA:  MOVWF  x85
....................       i2c_start();            // Comienzo comunicacin 
046CC:  BSF    F94.4
046CE:  MOVLW  05
046D0:  MOVWF  00
046D2:  DECFSZ 00,F
046D4:  BRA    46D2
046D6:  BSF    F94.3
046D8:  MOVLW  06
046DA:  MOVWF  00
046DC:  DECFSZ 00,F
046DE:  BRA    46DC
046E0:  BCF    F8B.4
046E2:  BCF    F94.4
046E4:  MOVLW  05
046E6:  MOVWF  00
046E8:  DECFSZ 00,F
046EA:  BRA    46E8
046EC:  BCF    F8B.3
046EE:  BCF    F94.3
....................       i2c_write(direccion);   // Direccin del esclavo en el bus I2C 
046F0:  MOVFF  85,459
046F4:  RCALL  4644
....................       i2c_write(i);   // Direccin del esclavo en el bus I2C 
046F6:  MOVFF  363,459
046FA:  RCALL  4644
....................       i2c_write(0);    // Posicin donde se guardara el dato transmitido 
046FC:  MOVLB  4
046FE:  CLRF   x59
04700:  MOVLB  0
04702:  RCALL  4644
....................       i2c_write(SlaveA0Tx[i]); // Dato a transmitir 
04704:  CLRF   03
04706:  MOVLB  3
04708:  MOVF   x63,W
0470A:  ADDLW  64
0470C:  MOVWF  FE9
0470E:  MOVLW  00
04710:  ADDWFC 03,W
04712:  MOVWF  FEA
04714:  MOVFF  FEF,458
04718:  MOVFF  458,459
0471C:  MOVLB  0
0471E:  RCALL  4644
....................       i2c_stop();  
04720:  BCF    F94.4
04722:  NOP   
04724:  BSF    F94.3
04726:  BTFSS  F82.3
04728:  BRA    4726
0472A:  MOVLW  05
0472C:  MOVWF  00
0472E:  DECFSZ 00,F
04730:  BRA    472E
04732:  BRA    4734
04734:  NOP   
04736:  BSF    F94.4
04738:  MOVLW  05
0473A:  MOVWF  00
0473C:  DECFSZ 00,F
0473E:  BRA    473C
....................       //Envio_I2C(direccion,i,SlaveB0Tx[i]); 
....................    }  
04740:  MOVLB  3
04742:  INCF   x63,F
04744:  BRA    46C0
.................... } 
04746:  MOVLB  0
04748:  RETLW  00
.................... void Lectura_Esclavos(void){ 
....................    //for(i=0;i<7;i++) 
....................    //{ 
....................    //   direccion=0xA0;                        //Direccin en el bus I2c 
....................    //   posicion=i;                         //Posicin de memoria a leer 
....................    //   Lectura_I2C(direccion, posicion, dato);    //Lectura por I2C 
....................    //   txbuf[i]=(int8)dato; 
....................    //} 
....................    //Lee_Vector(); 
.................... } 
....................  
.................... void LeeEEPROM(){ 
.................... //Lectura EEPROM//-------------------------- 
....................    Testerilizacionp[0]=read_eeprom(0); 
*
01E72:  MOVFF  FF2,443
01E76:  BCF    FF2.6
01E78:  BCF    FF2.7
01E7A:  CLRF   FAA
01E7C:  CLRF   FA9
01E7E:  BCF    FA6.6
01E80:  BCF    FA6.7
01E82:  BSF    FA6.0
01E84:  MOVF   FA8,W
01E86:  MOVLB  4
01E88:  BTFSC  x43.6
01E8A:  BSF    FF2.6
01E8C:  BTFSC  x43.7
01E8E:  BSF    FF2.7
01E90:  MOVLB  0
01E92:  MOVWF  xB6
....................    delay_ms(10); 
01E94:  MOVLW  0A
01E96:  MOVLB  4
01E98:  MOVWF  x58
01E9A:  MOVLB  0
01E9C:  RCALL  1A3E
....................    Testerilizacionp[1]=read_eeprom(1); 
01E9E:  MOVFF  FF2,443
01EA2:  BCF    FF2.6
01EA4:  BCF    FF2.7
01EA6:  CLRF   FAA
01EA8:  MOVLW  01
01EAA:  MOVWF  FA9
01EAC:  BCF    FA6.6
01EAE:  BCF    FA6.7
01EB0:  BSF    FA6.0
01EB2:  MOVF   FA8,W
01EB4:  MOVLB  4
01EB6:  BTFSC  x43.6
01EB8:  BSF    FF2.6
01EBA:  BTFSC  x43.7
01EBC:  BSF    FF2.7
01EBE:  MOVLB  0
01EC0:  MOVWF  xB7
....................    delay_ms(10); 
01EC2:  MOVLW  0A
01EC4:  MOVLB  4
01EC6:  MOVWF  x58
01EC8:  MOVLB  0
01ECA:  RCALL  1A3E
....................    Testerilizacionp[2]=read_eeprom(2); 
01ECC:  MOVFF  FF2,443
01ED0:  BCF    FF2.6
01ED2:  BCF    FF2.7
01ED4:  CLRF   FAA
01ED6:  MOVLW  02
01ED8:  MOVWF  FA9
01EDA:  BCF    FA6.6
01EDC:  BCF    FA6.7
01EDE:  BSF    FA6.0
01EE0:  MOVF   FA8,W
01EE2:  MOVLB  4
01EE4:  BTFSC  x43.6
01EE6:  BSF    FF2.6
01EE8:  BTFSC  x43.7
01EEA:  BSF    FF2.7
01EEC:  MOVLB  0
01EEE:  MOVWF  xB8
....................    delay_ms(10); 
01EF0:  MOVLW  0A
01EF2:  MOVLB  4
01EF4:  MOVWF  x58
01EF6:  MOVLB  0
01EF8:  RCALL  1A3E
....................    Testerilizacionp[3]=read_eeprom(3); 
01EFA:  MOVFF  FF2,443
01EFE:  BCF    FF2.6
01F00:  BCF    FF2.7
01F02:  CLRF   FAA
01F04:  MOVLW  03
01F06:  MOVWF  FA9
01F08:  BCF    FA6.6
01F0A:  BCF    FA6.7
01F0C:  BSF    FA6.0
01F0E:  MOVF   FA8,W
01F10:  MOVLB  4
01F12:  BTFSC  x43.6
01F14:  BSF    FF2.6
01F16:  BTFSC  x43.7
01F18:  BSF    FF2.7
01F1A:  MOVLB  0
01F1C:  MOVWF  xB9
....................    delay_ms(10); 
01F1E:  MOVLW  0A
01F20:  MOVLB  4
01F22:  MOVWF  x58
01F24:  MOVLB  0
01F26:  RCALL  1A3E
....................    Tsecadop[0]=read_eeprom(4); 
01F28:  MOVFF  FF2,443
01F2C:  BCF    FF2.6
01F2E:  BCF    FF2.7
01F30:  CLRF   FAA
01F32:  MOVLW  04
01F34:  MOVWF  FA9
01F36:  BCF    FA6.6
01F38:  BCF    FA6.7
01F3A:  BSF    FA6.0
01F3C:  MOVF   FA8,W
01F3E:  MOVLB  4
01F40:  BTFSC  x43.6
01F42:  BSF    FF2.6
01F44:  BTFSC  x43.7
01F46:  BSF    FF2.7
01F48:  MOVLB  0
01F4A:  MOVWF  xBF
....................    delay_ms(10); 
01F4C:  MOVLW  0A
01F4E:  MOVLB  4
01F50:  MOVWF  x58
01F52:  MOVLB  0
01F54:  RCALL  1A3E
....................    Tsecadop[1]=read_eeprom(5); 
01F56:  MOVFF  FF2,443
01F5A:  BCF    FF2.6
01F5C:  BCF    FF2.7
01F5E:  CLRF   FAA
01F60:  MOVLW  05
01F62:  MOVWF  FA9
01F64:  BCF    FA6.6
01F66:  BCF    FA6.7
01F68:  BSF    FA6.0
01F6A:  MOVF   FA8,W
01F6C:  MOVLB  4
01F6E:  BTFSC  x43.6
01F70:  BSF    FF2.6
01F72:  BTFSC  x43.7
01F74:  BSF    FF2.7
01F76:  MOVLB  0
01F78:  MOVWF  xC0
....................    delay_ms(10); 
01F7A:  MOVLW  0A
01F7C:  MOVLB  4
01F7E:  MOVWF  x58
01F80:  MOVLB  0
01F82:  RCALL  1A3E
....................    Tsecadop[2]=read_eeprom(6); 
01F84:  MOVFF  FF2,443
01F88:  BCF    FF2.6
01F8A:  BCF    FF2.7
01F8C:  CLRF   FAA
01F8E:  MOVLW  06
01F90:  MOVWF  FA9
01F92:  BCF    FA6.6
01F94:  BCF    FA6.7
01F96:  BSF    FA6.0
01F98:  MOVF   FA8,W
01F9A:  MOVLB  4
01F9C:  BTFSC  x43.6
01F9E:  BSF    FF2.6
01FA0:  BTFSC  x43.7
01FA2:  BSF    FF2.7
01FA4:  MOVLB  0
01FA6:  MOVWF  xC1
....................    delay_ms(10); 
01FA8:  MOVLW  0A
01FAA:  MOVLB  4
01FAC:  MOVWF  x58
01FAE:  MOVLB  0
01FB0:  RCALL  1A3E
....................    Tsecadop[3]=read_eeprom(7); 
01FB2:  MOVFF  FF2,443
01FB6:  BCF    FF2.6
01FB8:  BCF    FF2.7
01FBA:  CLRF   FAA
01FBC:  MOVLW  07
01FBE:  MOVWF  FA9
01FC0:  BCF    FA6.6
01FC2:  BCF    FA6.7
01FC4:  BSF    FA6.0
01FC6:  MOVF   FA8,W
01FC8:  MOVLB  4
01FCA:  BTFSC  x43.6
01FCC:  BSF    FF2.6
01FCE:  BTFSC  x43.7
01FD0:  BSF    FF2.7
01FD2:  MOVLB  0
01FD4:  MOVWF  xC2
....................    delay_ms(10); 
01FD6:  MOVLW  0A
01FD8:  MOVLB  4
01FDA:  MOVWF  x58
01FDC:  MOVLB  0
01FDE:  RCALL  1A3E
....................    Setpoint=read_eeprom(8); 
01FE0:  MOVFF  FF2,443
01FE4:  BCF    FF2.6
01FE6:  BCF    FF2.7
01FE8:  CLRF   FAA
01FEA:  MOVLW  08
01FEC:  MOVWF  FA9
01FEE:  BCF    FA6.6
01FF0:  BCF    FA6.7
01FF2:  BSF    FA6.0
01FF4:  MOVF   FA8,W
01FF6:  MOVLB  4
01FF8:  BTFSC  x43.6
01FFA:  BSF    FF2.6
01FFC:  BTFSC  x43.7
01FFE:  BSF    FF2.7
02000:  MOVLB  3
02002:  MOVWF  x67
....................    delay_ms(10); 
02004:  MOVLW  0A
02006:  MOVLB  4
02008:  MOVWF  x58
0200A:  MOVLB  0
0200C:  RCALL  1A3E
....................    Nivel=read_eeprom(9); 
0200E:  MOVFF  FF2,443
02012:  BCF    FF2.6
02014:  BCF    FF2.7
02016:  CLRF   FAA
02018:  MOVLW  09
0201A:  MOVWF  FA9
0201C:  BCF    FA6.6
0201E:  BCF    FA6.7
02020:  BSF    FA6.0
02022:  MOVF   FA8,W
02024:  MOVLB  4
02026:  BTFSC  x43.6
02028:  BSF    FF2.6
0202A:  BTFSC  x43.7
0202C:  BSF    FF2.7
0202E:  MOVLB  3
02030:  CLRF   x76
02032:  MOVWF  x75
....................    delay_ms(10); 
02034:  MOVLW  0A
02036:  MOVLB  4
02038:  MOVWF  x58
0203A:  MOVLB  0
0203C:  RCALL  1A3E
....................    Password[0]=read_eeprom(10); 
0203E:  MOVFF  FF2,443
02042:  BCF    FF2.6
02044:  BCF    FF2.7
02046:  CLRF   FAA
02048:  MOVLW  0A
0204A:  MOVWF  FA9
0204C:  BCF    FA6.6
0204E:  BCF    FA6.7
02050:  BSF    FA6.0
02052:  MOVF   FA8,W
02054:  MOVLB  4
02056:  BTFSC  x43.6
02058:  BSF    FF2.6
0205A:  BTFSC  x43.7
0205C:  BSF    FF2.7
0205E:  MOVLB  3
02060:  MOVWF  x8B
....................    delay_ms(10); 
02062:  MOVLW  0A
02064:  MOVLB  4
02066:  MOVWF  x58
02068:  MOVLB  0
0206A:  RCALL  1A3E
....................    Password[1]=read_eeprom(11); 
0206C:  MOVFF  FF2,443
02070:  BCF    FF2.6
02072:  BCF    FF2.7
02074:  CLRF   FAA
02076:  MOVLW  0B
02078:  MOVWF  FA9
0207A:  BCF    FA6.6
0207C:  BCF    FA6.7
0207E:  BSF    FA6.0
02080:  MOVF   FA8,W
02082:  MOVLB  4
02084:  BTFSC  x43.6
02086:  BSF    FF2.6
02088:  BTFSC  x43.7
0208A:  BSF    FF2.7
0208C:  MOVLB  3
0208E:  MOVWF  x8C
....................    delay_ms(10); 
02090:  MOVLW  0A
02092:  MOVLB  4
02094:  MOVWF  x58
02096:  MOVLB  0
02098:  RCALL  1A3E
....................    Password[2]=read_eeprom(12); 
0209A:  MOVFF  FF2,443
0209E:  BCF    FF2.6
020A0:  BCF    FF2.7
020A2:  CLRF   FAA
020A4:  MOVLW  0C
020A6:  MOVWF  FA9
020A8:  BCF    FA6.6
020AA:  BCF    FA6.7
020AC:  BSF    FA6.0
020AE:  MOVF   FA8,W
020B0:  MOVLB  4
020B2:  BTFSC  x43.6
020B4:  BSF    FF2.6
020B6:  BTFSC  x43.7
020B8:  BSF    FF2.7
020BA:  MOVLB  3
020BC:  MOVWF  x8D
....................    delay_ms(10); 
020BE:  MOVLW  0A
020C0:  MOVLB  4
020C2:  MOVWF  x58
020C4:  MOVLB  0
020C6:  RCALL  1A3E
....................    Password[3]=read_eeprom(13); 
020C8:  MOVFF  FF2,443
020CC:  BCF    FF2.6
020CE:  BCF    FF2.7
020D0:  CLRF   FAA
020D2:  MOVLW  0D
020D4:  MOVWF  FA9
020D6:  BCF    FA6.6
020D8:  BCF    FA6.7
020DA:  BSF    FA6.0
020DC:  MOVF   FA8,W
020DE:  MOVLB  4
020E0:  BTFSC  x43.6
020E2:  BSF    FF2.6
020E4:  BTFSC  x43.7
020E6:  BSF    FF2.7
020E8:  MOVLB  3
020EA:  MOVWF  x8E
....................    delay_ms(10); 
020EC:  MOVLW  0A
020EE:  MOVLB  4
020F0:  MOVWF  x58
020F2:  MOVLB  0
020F4:  RCALL  1A3E
....................    Ganancia=read_eeprom(20); 
020F6:  MOVFF  FF2,443
020FA:  BCF    FF2.6
020FC:  BCF    FF2.7
020FE:  CLRF   FAA
02100:  MOVLW  14
02102:  MOVWF  FA9
02104:  BCF    FA6.6
02106:  BCF    FA6.7
02108:  BSF    FA6.0
0210A:  MOVF   FA8,W
0210C:  MOVLB  4
0210E:  BTFSC  x43.6
02110:  BSF    FF2.6
02112:  BTFSC  x43.7
02114:  BSF    FF2.7
02116:  CLRF   x59
02118:  MOVWF  x58
0211A:  MOVLB  0
0211C:  RCALL  1A66
0211E:  MOVFF  03,30B
02122:  MOVFF  02,30A
02126:  MOVFF  01,309
0212A:  MOVFF  00,308
....................    delay_ms(10); 
0212E:  MOVLW  0A
02130:  MOVLB  4
02132:  MOVWF  x58
02134:  MOVLB  0
02136:  RCALL  1A3E
....................    Ajuste=read_eeprom(21); 
02138:  MOVFF  FF2,443
0213C:  BCF    FF2.6
0213E:  BCF    FF2.7
02140:  CLRF   FAA
02142:  MOVLW  15
02144:  MOVWF  FA9
02146:  BCF    FA6.6
02148:  BCF    FA6.7
0214A:  BSF    FA6.0
0214C:  MOVF   FA8,W
0214E:  MOVLB  4
02150:  BTFSC  x43.6
02152:  BSF    FF2.6
02154:  BTFSC  x43.7
02156:  BSF    FF2.7
02158:  MOVLB  2
0215A:  MOVWF  xD9
....................    delay_ms(10); 
0215C:  MOVLW  0A
0215E:  MOVLB  4
02160:  MOVWF  x58
02162:  MOVLB  0
02164:  RCALL  1A3E
....................    Ajusten=read_eeprom(22); 
02166:  MOVFF  FF2,443
0216A:  BCF    FF2.6
0216C:  BCF    FF2.7
0216E:  CLRF   FAA
02170:  MOVLW  16
02172:  MOVWF  FA9
02174:  BCF    FA6.6
02176:  BCF    FA6.7
02178:  BSF    FA6.0
0217A:  MOVF   FA8,W
0217C:  MOVLB  4
0217E:  BTFSC  x43.6
02180:  BSF    FF2.6
02182:  BTFSC  x43.7
02184:  BSF    FF2.7
02186:  MOVLB  2
02188:  MOVWF  xDA
....................    delay_ms(10); 
0218A:  MOVLW  0A
0218C:  MOVLB  4
0218E:  MOVWF  x58
02190:  MOVLB  0
02192:  RCALL  1A3E
....................    //Desvio=read_eeprom(23); 
....................    MediaMovil=read_eeprom(24); 
02194:  MOVFF  FF2,443
02198:  BCF    FF2.6
0219A:  BCF    FF2.7
0219C:  CLRF   FAA
0219E:  MOVLW  18
021A0:  MOVWF  FA9
021A2:  BCF    FA6.6
021A4:  BCF    FA6.7
021A6:  BSF    FA6.0
021A8:  MOVF   FA8,W
021AA:  MOVLB  4
021AC:  BTFSC  x43.6
021AE:  BSF    FF2.6
021B0:  BTFSC  x43.7
021B2:  BSF    FF2.7
021B4:  MOVLB  2
021B6:  MOVWF  xDB
....................    delay_ms(10); 
021B8:  MOVLW  0A
021BA:  MOVLB  4
021BC:  MOVWF  x58
021BE:  MOVLB  0
021C0:  RCALL  1A3E
....................    Tciclo=read_eeprom(25); 
021C2:  MOVFF  FF2,443
021C6:  BCF    FF2.6
021C8:  BCF    FF2.7
021CA:  CLRF   FAA
021CC:  MOVLW  19
021CE:  MOVWF  FA9
021D0:  BCF    FA6.6
021D2:  BCF    FA6.7
021D4:  BSF    FA6.0
021D6:  MOVF   FA8,W
021D8:  MOVLB  4
021DA:  BTFSC  x43.6
021DC:  BSF    FF2.6
021DE:  BTFSC  x43.7
021E0:  BSF    FF2.7
021E2:  CLRF   x59
021E4:  MOVWF  x58
021E6:  MOVLB  0
021E8:  RCALL  1A66
021EA:  MOVFF  03,2F3
021EE:  MOVFF  02,2F2
021F2:  MOVFF  01,2F1
021F6:  MOVFF  00,2F0
....................    delay_ms(10); 
021FA:  MOVLW  0A
021FC:  MOVLB  4
021FE:  MOVWF  x58
02200:  MOVLB  0
02202:  RCALL  1A3E
....................    Integral=read_eeprom(26); 
02204:  MOVFF  FF2,443
02208:  BCF    FF2.6
0220A:  BCF    FF2.7
0220C:  CLRF   FAA
0220E:  MOVLW  1A
02210:  MOVWF  FA9
02212:  BCF    FA6.6
02214:  BCF    FA6.7
02216:  BSF    FA6.0
02218:  MOVF   FA8,W
0221A:  MOVLB  4
0221C:  BTFSC  x43.6
0221E:  BSF    FF2.6
02220:  BTFSC  x43.7
02222:  BSF    FF2.7
02224:  MOVLB  3
02226:  MOVWF  x3C
....................    delay_ms(10); 
02228:  MOVLW  0A
0222A:  MOVLB  4
0222C:  MOVWF  x58
0222E:  MOVLB  0
02230:  RCALL  1A3E
....................    Derivativo=read_eeprom(27); 
02232:  MOVFF  FF2,443
02236:  BCF    FF2.6
02238:  BCF    FF2.7
0223A:  CLRF   FAA
0223C:  MOVLW  1B
0223E:  MOVWF  FA9
02240:  BCF    FA6.6
02242:  BCF    FA6.7
02244:  BSF    FA6.0
02246:  MOVF   FA8,W
02248:  MOVLB  4
0224A:  BTFSC  x43.6
0224C:  BSF    FF2.6
0224E:  BTFSC  x43.7
02250:  BSF    FF2.7
02252:  MOVLB  3
02254:  MOVWF  x3D
....................    delay_ms(10); 
02256:  MOVLW  0A
02258:  MOVLB  4
0225A:  MOVWF  x58
0225C:  MOVLB  0
0225E:  CALL   1A3E
....................    Temporal=read_eeprom(29); 
02262:  MOVFF  FF2,443
02266:  BCF    FF2.6
02268:  BCF    FF2.7
0226A:  CLRF   FAA
0226C:  MOVLW  1D
0226E:  MOVWF  FA9
02270:  BCF    FA6.6
02272:  BCF    FA6.7
02274:  BSF    FA6.0
02276:  MOVF   FA8,W
02278:  MOVLB  4
0227A:  BTFSC  x43.6
0227C:  BSF    FF2.6
0227E:  BTFSC  x43.7
02280:  BSF    FF2.7
02282:  CLRF   x59
02284:  MOVWF  x58
02286:  MOVLB  0
02288:  CALL   1A66
0228C:  MOVFF  03,2AE
02290:  MOVFF  02,2AD
02294:  MOVFF  01,2AC
02298:  MOVFF  00,2AB
....................    Temporal=Temporal/10.0; 
0229C:  MOVFF  2AE,44F
022A0:  MOVFF  2AD,44E
022A4:  MOVFF  2AC,44D
022A8:  MOVFF  2AB,44C
022AC:  MOVLB  4
022AE:  CLRF   x53
022B0:  CLRF   x52
022B2:  MOVLW  20
022B4:  MOVWF  x51
022B6:  MOVLW  82
022B8:  MOVWF  x50
022BA:  MOVLB  0
022BC:  CALL   1A9C
022C0:  MOVFF  03,2AE
022C4:  MOVFF  02,2AD
022C8:  MOVFF  01,2AC
022CC:  MOVFF  00,2AB
....................    delay_ms(10); 
022D0:  MOVLW  0A
022D2:  MOVLB  4
022D4:  MOVWF  x58
022D6:  MOVLB  0
022D8:  CALL   1A3E
....................    Gain=read_eeprom(28)+Temporal; 
022DC:  MOVFF  FF2,443
022E0:  BCF    FF2.6
022E2:  BCF    FF2.7
022E4:  CLRF   FAA
022E6:  MOVLW  1C
022E8:  MOVWF  FA9
022EA:  BCF    FA6.6
022EC:  BCF    FA6.7
022EE:  BSF    FA6.0
022F0:  MOVF   FA8,W
022F2:  MOVLB  4
022F4:  BTFSC  x43.6
022F6:  BSF    FF2.6
022F8:  BTFSC  x43.7
022FA:  BSF    FF2.7
022FC:  CLRF   x59
022FE:  MOVWF  x58
02300:  MOVLB  0
02302:  CALL   1A66
02306:  BCF    FD8.1
02308:  MOVFF  03,45B
0230C:  MOVFF  02,45A
02310:  MOVFF  01,459
02314:  MOVFF  00,458
02318:  MOVFF  2AE,45F
0231C:  MOVFF  2AD,45E
02320:  MOVFF  2AC,45D
02324:  MOVFF  2AB,45C
02328:  RCALL  1BFA
0232A:  MOVFF  03,2A6
0232E:  MOVFF  02,2A5
02332:  MOVFF  01,2A4
02336:  MOVFF  00,2A3
....................    delay_ms(10); 
0233A:  MOVLW  0A
0233C:  MOVLB  4
0233E:  MOVWF  x58
02340:  MOVLB  0
02342:  CALL   1A3E
....................    R1=make16(read_eeprom(31),read_eeprom(30)); 
02346:  MOVFF  FF2,443
0234A:  BCF    FF2.6
0234C:  BCF    FF2.7
0234E:  CLRF   FAA
02350:  MOVLW  1F
02352:  MOVWF  FA9
02354:  BCF    FA6.6
02356:  BCF    FA6.7
02358:  BSF    FA6.0
0235A:  MOVF   FA8,W
0235C:  MOVLB  4
0235E:  BTFSC  x43.6
02360:  BSF    FF2.6
02362:  BTFSC  x43.7
02364:  BSF    FF2.7
02366:  MOVWF  x44
02368:  MOVFF  FF2,445
0236C:  BCF    FF2.6
0236E:  BCF    FF2.7
02370:  CLRF   FAA
02372:  MOVLW  1E
02374:  MOVWF  FA9
02376:  BCF    FA6.6
02378:  BCF    FA6.7
0237A:  BSF    FA6.0
0237C:  MOVF   FA8,W
0237E:  BTFSC  x45.6
02380:  BSF    FF2.6
02382:  BTFSC  x45.7
02384:  BSF    FF2.7
02386:  MOVWF  x46
02388:  MOVFF  444,03
0238C:  MOVF   x46,W
0238E:  MOVWF  x58
02390:  MOVFF  03,459
02394:  MOVLB  0
02396:  CALL   1A66
0239A:  MOVFF  03,2B2
0239E:  MOVFF  02,2B1
023A2:  MOVFF  01,2B0
023A6:  MOVFF  00,2AF
....................    delay_ms(10); 
023AA:  MOVLW  0A
023AC:  MOVLB  4
023AE:  MOVWF  x58
023B0:  MOVLB  0
023B2:  CALL   1A3E
....................    Temporal=read_eeprom(33); 
023B6:  MOVFF  FF2,443
023BA:  BCF    FF2.6
023BC:  BCF    FF2.7
023BE:  CLRF   FAA
023C0:  MOVLW  21
023C2:  MOVWF  FA9
023C4:  BCF    FA6.6
023C6:  BCF    FA6.7
023C8:  BSF    FA6.0
023CA:  MOVF   FA8,W
023CC:  MOVLB  4
023CE:  BTFSC  x43.6
023D0:  BSF    FF2.6
023D2:  BTFSC  x43.7
023D4:  BSF    FF2.7
023D6:  CLRF   x59
023D8:  MOVWF  x58
023DA:  MOVLB  0
023DC:  CALL   1A66
023E0:  MOVFF  03,2AE
023E4:  MOVFF  02,2AD
023E8:  MOVFF  01,2AC
023EC:  MOVFF  00,2AB
....................    Temporal=Temporal/10.0; 
023F0:  MOVFF  2AE,44F
023F4:  MOVFF  2AD,44E
023F8:  MOVFF  2AC,44D
023FC:  MOVFF  2AB,44C
02400:  MOVLB  4
02402:  CLRF   x53
02404:  CLRF   x52
02406:  MOVLW  20
02408:  MOVWF  x51
0240A:  MOVLW  82
0240C:  MOVWF  x50
0240E:  MOVLB  0
02410:  CALL   1A9C
02414:  MOVFF  03,2AE
02418:  MOVFF  02,2AD
0241C:  MOVFF  01,2AC
02420:  MOVFF  00,2AB
....................    delay_ms(10); 
02424:  MOVLW  0A
02426:  MOVLB  4
02428:  MOVWF  x58
0242A:  MOVLB  0
0242C:  CALL   1A3E
....................    RPT100=read_eeprom(32)+Temporal; 
02430:  MOVFF  FF2,443
02434:  BCF    FF2.6
02436:  BCF    FF2.7
02438:  CLRF   FAA
0243A:  MOVLW  20
0243C:  MOVWF  FA9
0243E:  BCF    FA6.6
02440:  BCF    FA6.7
02442:  BSF    FA6.0
02444:  MOVF   FA8,W
02446:  MOVLB  4
02448:  BTFSC  x43.6
0244A:  BSF    FF2.6
0244C:  BTFSC  x43.7
0244E:  BSF    FF2.7
02450:  CLRF   x59
02452:  MOVWF  x58
02454:  MOVLB  0
02456:  CALL   1A66
0245A:  BCF    FD8.1
0245C:  MOVFF  03,45B
02460:  MOVFF  02,45A
02464:  MOVFF  01,459
02468:  MOVFF  00,458
0246C:  MOVFF  2AE,45F
02470:  MOVFF  2AD,45E
02474:  MOVFF  2AC,45D
02478:  MOVFF  2AB,45C
0247C:  CALL   1BFA
02480:  MOVFF  03,2AA
02484:  MOVFF  02,2A9
02488:  MOVFF  01,2A8
0248C:  MOVFF  00,2A7
....................    delay_ms(10); 
02490:  MOVLW  0A
02492:  MOVLB  4
02494:  MOVWF  x58
02496:  MOVLB  0
02498:  CALL   1A3E
....................    CiclosL=read_eeprom(37); 
0249C:  MOVFF  FF2,443
024A0:  BCF    FF2.6
024A2:  BCF    FF2.7
024A4:  CLRF   FAA
024A6:  MOVLW  25
024A8:  MOVWF  FA9
024AA:  BCF    FA6.6
024AC:  BCF    FA6.7
024AE:  BSF    FA6.0
024B0:  MOVF   FA8,W
024B2:  MOVLB  4
024B4:  BTFSC  x43.6
024B6:  BSF    FF2.6
024B8:  BTFSC  x43.7
024BA:  BSF    FF2.7
024BC:  MOVLB  3
024BE:  MOVWF  x64
....................    delay_ms(10); 
024C0:  MOVLW  0A
024C2:  MOVLB  4
024C4:  MOVWF  x58
024C6:  MOVLB  0
024C8:  CALL   1A3E
....................    CiclosH=read_eeprom(38); 
024CC:  MOVFF  FF2,443
024D0:  BCF    FF2.6
024D2:  BCF    FF2.7
024D4:  CLRF   FAA
024D6:  MOVLW  26
024D8:  MOVWF  FA9
024DA:  BCF    FA6.6
024DC:  BCF    FA6.7
024DE:  BSF    FA6.0
024E0:  MOVF   FA8,W
024E2:  MOVLB  4
024E4:  BTFSC  x43.6
024E6:  BSF    FF2.6
024E8:  BTFSC  x43.7
024EA:  BSF    FF2.7
024EC:  MOVLB  3
024EE:  MOVWF  x65
....................    delay_ms(10); 
024F0:  MOVLW  0A
024F2:  MOVLB  4
024F4:  MOVWF  x58
024F6:  MOVLB  0
024F8:  CALL   1A3E
....................    Ciclos=make16(CiclosH,CiclosL); 
024FC:  MOVFF  365,37E
02500:  MOVFF  364,37D
....................    delay_ms(10); 
02504:  MOVLW  0A
02506:  MOVLB  4
02508:  MOVWF  x58
0250A:  MOVLB  0
0250C:  CALL   1A3E
....................    TTrampa=read_eeprom(39); 
02510:  MOVFF  FF2,443
02514:  BCF    FF2.6
02516:  BCF    FF2.7
02518:  CLRF   FAA
0251A:  MOVLW  27
0251C:  MOVWF  FA9
0251E:  BCF    FA6.6
02520:  BCF    FA6.7
02522:  BSF    FA6.0
02524:  MOVF   FA8,W
02526:  MOVLB  4
02528:  BTFSC  x43.6
0252A:  BSF    FF2.6
0252C:  BTFSC  x43.7
0252E:  BSF    FF2.7
02530:  MOVLB  2
02532:  MOVWF  xDC
....................    delay_ms(10); 
02534:  MOVLW  0A
02536:  MOVLB  4
02538:  MOVWF  x58
0253A:  MOVLB  0
0253C:  CALL   1A3E
....................    ActivaImpresion=read_eeprom(40); 
02540:  MOVFF  FF2,443
02544:  BCF    FF2.6
02546:  BCF    FF2.7
02548:  CLRF   FAA
0254A:  MOVLW  28
0254C:  MOVWF  FA9
0254E:  BCF    FA6.6
02550:  BCF    FA6.7
02552:  BSF    FA6.0
02554:  MOVF   FA8,W
02556:  MOVLB  4
02558:  BTFSC  x43.6
0255A:  BSF    FF2.6
0255C:  BTFSC  x43.7
0255E:  BSF    FF2.7
02560:  MOVLB  3
02562:  MOVWF  x59
....................    delay_ms(10); 
02564:  MOVLW  0A
02566:  MOVLB  4
02568:  MOVWF  x58
0256A:  MOVLB  0
0256C:  CALL   1A3E
....................    timpresion=read_eeprom(41); 
02570:  MOVFF  FF2,443
02574:  BCF    FF2.6
02576:  BCF    FF2.7
02578:  CLRF   FAA
0257A:  MOVLW  29
0257C:  MOVWF  FA9
0257E:  BCF    FA6.6
02580:  BCF    FA6.7
02582:  BSF    FA6.0
02584:  MOVF   FA8,W
02586:  MOVLB  4
02588:  BTFSC  x43.6
0258A:  BSF    FF2.6
0258C:  BTFSC  x43.7
0258E:  BSF    FF2.7
02590:  MOVLB  3
02592:  MOVWF  x5A
....................    delay_ms(10); 
02594:  MOVLW  0A
02596:  MOVLB  4
02598:  MOVWF  x58
0259A:  MOVLB  0
0259C:  CALL   1A3E
....................    G1=read_eeprom(42); 
025A0:  MOVFF  FF2,443
025A4:  BCF    FF2.6
025A6:  BCF    FF2.7
025A8:  CLRF   FAA
025AA:  MOVLW  2A
025AC:  MOVWF  FA9
025AE:  BCF    FA6.6
025B0:  BCF    FA6.7
025B2:  BSF    FA6.0
025B4:  MOVF   FA8,W
025B6:  MOVLB  4
025B8:  BTFSC  x43.6
025BA:  BSF    FF2.6
025BC:  BTFSC  x43.7
025BE:  BSF    FF2.7
025C0:  MOVLB  3
025C2:  MOVWF  xB3
....................    delay_ms(10); 
025C4:  MOVLW  0A
025C6:  MOVLB  4
025C8:  MOVWF  x58
025CA:  MOVLB  0
025CC:  CALL   1A3E
....................    G2=read_eeprom(43); 
025D0:  MOVFF  FF2,443
025D4:  BCF    FF2.6
025D6:  BCF    FF2.7
025D8:  CLRF   FAA
025DA:  MOVLW  2B
025DC:  MOVWF  FA9
025DE:  BCF    FA6.6
025E0:  BCF    FA6.7
025E2:  BSF    FA6.0
025E4:  MOVF   FA8,W
025E6:  MOVLB  4
025E8:  BTFSC  x43.6
025EA:  BSF    FF2.6
025EC:  BTFSC  x43.7
025EE:  BSF    FF2.7
025F0:  MOVLB  3
025F2:  MOVWF  xB4
....................    delay_ms(10); 
025F4:  MOVLW  0A
025F6:  MOVLB  4
025F8:  MOVWF  x58
025FA:  MOVLB  0
025FC:  CALL   1A3E
....................    sg1=read_eeprom(44); 
02600:  MOVFF  FF2,443
02604:  BCF    FF2.6
02606:  BCF    FF2.7
02608:  CLRF   FAA
0260A:  MOVLW  2C
0260C:  MOVWF  FA9
0260E:  BCF    FA6.6
02610:  BCF    FA6.7
02612:  BSF    FA6.0
02614:  MOVF   FA8,W
02616:  MOVLB  4
02618:  BTFSC  x43.6
0261A:  BSF    FF2.6
0261C:  BTFSC  x43.7
0261E:  BSF    FF2.7
02620:  MOVLB  3
02622:  MOVWF  xB5
....................    delay_ms(10); 
02624:  MOVLW  0A
02626:  MOVLB  4
02628:  MOVWF  x58
0262A:  MOVLB  0
0262C:  CALL   1A3E
....................    sg2=read_eeprom(45); 
02630:  MOVFF  FF2,443
02634:  BCF    FF2.6
02636:  BCF    FF2.7
02638:  CLRF   FAA
0263A:  MOVLW  2D
0263C:  MOVWF  FA9
0263E:  BCF    FA6.6
02640:  BCF    FA6.7
02642:  BSF    FA6.0
02644:  MOVF   FA8,W
02646:  MOVLB  4
02648:  BTFSC  x43.6
0264A:  BSF    FF2.6
0264C:  BTFSC  x43.7
0264E:  BSF    FF2.7
02650:  MOVLB  3
02652:  MOVWF  xB6
....................    delay_ms(10); 
02654:  MOVLW  0A
02656:  MOVLB  4
02658:  MOVWF  x58
0265A:  MOVLB  0
0265C:  CALL   1A3E
....................    Atmosferica=read_eeprom(46); 
02660:  MOVFF  FF2,443
02664:  BCF    FF2.6
02666:  BCF    FF2.7
02668:  CLRF   FAA
0266A:  MOVLW  2E
0266C:  MOVWF  FA9
0266E:  BCF    FA6.6
02670:  BCF    FA6.7
02672:  BSF    FA6.0
02674:  MOVF   FA8,W
02676:  MOVLB  4
02678:  BTFSC  x43.6
0267A:  BSF    FF2.6
0267C:  BTFSC  x43.7
0267E:  BSF    FF2.7
02680:  MOVLB  3
02682:  MOVWF  xB2
....................    delay_ms(10); 
02684:  MOVLW  0A
02686:  MOVLB  4
02688:  MOVWF  x58
0268A:  MOVLB  0
0268C:  CALL   1A3E
....................    pulsosPurgaProgramados=read_eeprom(47); 
02690:  MOVFF  FF2,443
02694:  BCF    FF2.6
02696:  BCF    FF2.7
02698:  CLRF   FAA
0269A:  MOVLW  2F
0269C:  MOVWF  FA9
0269E:  BCF    FA6.6
026A0:  BCF    FA6.7
026A2:  BSF    FA6.0
026A4:  MOVF   FA8,W
026A6:  MOVLB  4
026A8:  BTFSC  x43.6
026AA:  BSF    FF2.6
026AC:  BTFSC  x43.7
026AE:  BSF    FF2.7
026B0:  MOVLB  3
026B2:  MOVWF  x40
....................     
....................    for(i=0;i<4;i++){//Lee valores almacenados de ciclos personalizados 
026B4:  CLRF   x63
026B6:  MOVF   x63,W
026B8:  SUBLW  03
026BA:  BTFSS  FD8.0
026BC:  BRA    2C86
....................       CiclosPersonalizados[i].Temperatura=read_eeprom(100+(i*8));  
026BE:  MOVF   x63,W
026C0:  MULLW  0A
026C2:  MOVF   FF3,W
026C4:  MOVLB  4
026C6:  CLRF   x44
026C8:  MOVWF  x43
026CA:  MOVLW  1B
026CC:  ADDWF  x43,W
026CE:  MOVWF  FE9
026D0:  MOVLW  04
026D2:  ADDWFC x44,W
026D4:  MOVWF  FEA
026D6:  MOVLB  3
026D8:  MOVF   x63,W
026DA:  MULLW  08
026DC:  MOVF   FF3,W
026DE:  ADDLW  64
026E0:  MOVLB  4
026E2:  MOVWF  x45
026E4:  MOVFF  FF2,446
026E8:  BCF    FF2.6
026EA:  BCF    FF2.7
026EC:  CLRF   FAA
026EE:  MOVFF  445,FA9
026F2:  BCF    FA6.6
026F4:  BCF    FA6.7
026F6:  BSF    FA6.0
026F8:  MOVF   FA8,W
026FA:  BTFSC  x46.6
026FC:  BSF    FF2.6
026FE:  BTFSC  x46.7
02700:  BSF    FF2.7
02702:  MOVWF  FEF
....................       CiclosPersonalizados[i].MinutoestH=read_eeprom(101+(i*8));  
02704:  MOVLB  3
02706:  MOVF   x63,W
02708:  MULLW  0A
0270A:  MOVF   FF3,W
0270C:  MOVLB  4
0270E:  CLRF   x44
02710:  MOVWF  x43
02712:  MOVLW  01
02714:  ADDWF  x43,W
02716:  MOVWF  01
02718:  MOVLW  00
0271A:  ADDWFC x44,W
0271C:  MOVWF  03
0271E:  MOVF   01,W
02720:  ADDLW  1B
02722:  MOVWF  FE9
02724:  MOVLW  04
02726:  ADDWFC 03,W
02728:  MOVWF  FEA
0272A:  MOVLB  3
0272C:  MOVF   x63,W
0272E:  MULLW  08
02730:  MOVF   FF3,W
02732:  ADDLW  65
02734:  MOVLB  4
02736:  MOVWF  x45
02738:  MOVFF  FF2,446
0273C:  BCF    FF2.6
0273E:  BCF    FF2.7
02740:  CLRF   FAA
02742:  MOVFF  445,FA9
02746:  BCF    FA6.6
02748:  BCF    FA6.7
0274A:  BSF    FA6.0
0274C:  MOVF   FA8,W
0274E:  BTFSC  x46.6
02750:  BSF    FF2.6
02752:  BTFSC  x46.7
02754:  BSF    FF2.7
02756:  MOVWF  FEF
....................       CiclosPersonalizados[i].Minutoest=read_eeprom(102+(i*8));  
02758:  MOVLB  3
0275A:  MOVF   x63,W
0275C:  MULLW  0A
0275E:  MOVF   FF3,W
02760:  MOVLB  4
02762:  CLRF   x44
02764:  MOVWF  x43
02766:  MOVLW  09
02768:  ADDWF  x43,W
0276A:  MOVWF  01
0276C:  MOVLW  00
0276E:  ADDWFC x44,W
02770:  MOVWF  03
02772:  MOVF   01,W
02774:  ADDLW  1B
02776:  MOVWF  FE9
02778:  MOVLW  04
0277A:  ADDWFC 03,W
0277C:  MOVWF  FEA
0277E:  MOVLB  3
02780:  MOVF   x63,W
02782:  MULLW  08
02784:  MOVF   FF3,W
02786:  ADDLW  66
02788:  MOVLB  4
0278A:  MOVWF  x45
0278C:  MOVFF  FF2,446
02790:  BCF    FF2.6
02792:  BCF    FF2.7
02794:  CLRF   FAA
02796:  MOVFF  445,FA9
0279A:  BCF    FA6.6
0279C:  BCF    FA6.7
0279E:  BSF    FA6.0
027A0:  MOVF   FA8,W
027A2:  BTFSC  x46.6
027A4:  BSF    FF2.6
027A6:  BTFSC  x46.7
027A8:  BSF    FF2.7
027AA:  MOVWF  FEF
....................       CiclosPersonalizados[i].Segundoest=read_eeprom(103+(i*8));  
027AC:  MOVLB  3
027AE:  MOVF   x63,W
027B0:  MULLW  0A
027B2:  MOVF   FF3,W
027B4:  MOVLB  4
027B6:  CLRF   x44
027B8:  MOVWF  x43
027BA:  MOVLW  03
027BC:  ADDWF  x43,W
027BE:  MOVWF  01
027C0:  MOVLW  00
027C2:  ADDWFC x44,W
027C4:  MOVWF  03
027C6:  MOVF   01,W
027C8:  ADDLW  1B
027CA:  MOVWF  FE9
027CC:  MOVLW  04
027CE:  ADDWFC 03,W
027D0:  MOVWF  FEA
027D2:  MOVLB  3
027D4:  MOVF   x63,W
027D6:  MULLW  08
027D8:  MOVF   FF3,W
027DA:  ADDLW  67
027DC:  MOVLB  4
027DE:  MOVWF  x45
027E0:  MOVFF  FF2,446
027E4:  BCF    FF2.6
027E6:  BCF    FF2.7
027E8:  CLRF   FAA
027EA:  MOVFF  445,FA9
027EE:  BCF    FA6.6
027F0:  BCF    FA6.7
027F2:  BSF    FA6.0
027F4:  MOVF   FA8,W
027F6:  BTFSC  x46.6
027F8:  BSF    FF2.6
027FA:  BTFSC  x46.7
027FC:  BSF    FF2.7
027FE:  MOVWF  FEF
....................       CiclosPersonalizados[i].Minutosec=read_eeprom(104+(i*8));  
02800:  MOVLB  3
02802:  MOVF   x63,W
02804:  MULLW  0A
02806:  MOVF   FF3,W
02808:  MOVLB  4
0280A:  CLRF   x44
0280C:  MOVWF  x43
0280E:  MOVLW  04
02810:  ADDWF  x43,W
02812:  MOVWF  01
02814:  MOVLW  00
02816:  ADDWFC x44,W
02818:  MOVWF  03
0281A:  MOVF   01,W
0281C:  ADDLW  1B
0281E:  MOVWF  FE9
02820:  MOVLW  04
02822:  ADDWFC 03,W
02824:  MOVWF  FEA
02826:  MOVLB  3
02828:  MOVF   x63,W
0282A:  MULLW  08
0282C:  MOVF   FF3,W
0282E:  ADDLW  68
02830:  MOVLB  4
02832:  MOVWF  x45
02834:  MOVFF  FF2,446
02838:  BCF    FF2.6
0283A:  BCF    FF2.7
0283C:  CLRF   FAA
0283E:  MOVFF  445,FA9
02842:  BCF    FA6.6
02844:  BCF    FA6.7
02846:  BSF    FA6.0
02848:  MOVF   FA8,W
0284A:  BTFSC  x46.6
0284C:  BSF    FF2.6
0284E:  BTFSC  x46.7
02850:  BSF    FF2.7
02852:  MOVWF  FEF
....................       CiclosPersonalizados[i].Segundosec=read_eeprom(105+(i*8));  
02854:  MOVLB  3
02856:  MOVF   x63,W
02858:  MULLW  0A
0285A:  MOVF   FF3,W
0285C:  MOVLB  4
0285E:  CLRF   x44
02860:  MOVWF  x43
02862:  MOVLW  05
02864:  ADDWF  x43,W
02866:  MOVWF  01
02868:  MOVLW  00
0286A:  ADDWFC x44,W
0286C:  MOVWF  03
0286E:  MOVF   01,W
02870:  ADDLW  1B
02872:  MOVWF  FE9
02874:  MOVLW  04
02876:  ADDWFC 03,W
02878:  MOVWF  FEA
0287A:  MOVLB  3
0287C:  MOVF   x63,W
0287E:  MULLW  08
02880:  MOVF   FF3,W
02882:  ADDLW  69
02884:  MOVLB  4
02886:  MOVWF  x45
02888:  MOVFF  FF2,446
0288C:  BCF    FF2.6
0288E:  BCF    FF2.7
02890:  CLRF   FAA
02892:  MOVFF  445,FA9
02896:  BCF    FA6.6
02898:  BCF    FA6.7
0289A:  BSF    FA6.0
0289C:  MOVF   FA8,W
0289E:  BTFSC  x46.6
028A0:  BSF    FF2.6
028A2:  BTFSC  x46.7
028A4:  BSF    FF2.7
028A6:  MOVWF  FEF
....................       CiclosPersonalizados[i].PulsosVacio=read_eeprom(106+(i*8));  
028A8:  MOVLB  3
028AA:  MOVF   x63,W
028AC:  MULLW  0A
028AE:  MOVF   FF3,W
028B0:  MOVLB  4
028B2:  CLRF   x44
028B4:  MOVWF  x43
028B6:  MOVLW  06
028B8:  ADDWF  x43,W
028BA:  MOVWF  01
028BC:  MOVLW  00
028BE:  ADDWFC x44,W
028C0:  MOVWF  03
028C2:  MOVF   01,W
028C4:  ADDLW  1B
028C6:  MOVWF  FE9
028C8:  MOVLW  04
028CA:  ADDWFC 03,W
028CC:  MOVWF  FEA
028CE:  MOVLB  3
028D0:  MOVF   x63,W
028D2:  MULLW  08
028D4:  MOVF   FF3,W
028D6:  ADDLW  6A
028D8:  MOVLB  4
028DA:  MOVWF  x45
028DC:  MOVFF  FF2,446
028E0:  BCF    FF2.6
028E2:  BCF    FF2.7
028E4:  CLRF   FAA
028E6:  MOVFF  445,FA9
028EA:  BCF    FA6.6
028EC:  BCF    FA6.7
028EE:  BSF    FA6.0
028F0:  MOVF   FA8,W
028F2:  BTFSC  x46.6
028F4:  BSF    FF2.6
028F6:  BTFSC  x46.7
028F8:  BSF    FF2.7
028FA:  MOVWF  FEF
....................       CiclosPersonalizados[i].NivelDesfogue=read_eeprom(107+(i*8));  
028FC:  MOVLB  3
028FE:  MOVF   x63,W
02900:  MULLW  0A
02902:  MOVF   FF3,W
02904:  MOVLB  4
02906:  CLRF   x44
02908:  MOVWF  x43
0290A:  MOVLW  08
0290C:  ADDWF  x43,W
0290E:  MOVWF  01
02910:  MOVLW  00
02912:  ADDWFC x44,W
02914:  MOVWF  03
02916:  MOVF   01,W
02918:  ADDLW  1B
0291A:  MOVWF  FE9
0291C:  MOVLW  04
0291E:  ADDWFC 03,W
02920:  MOVWF  FEA
02922:  MOVLB  3
02924:  MOVF   x63,W
02926:  MULLW  08
02928:  MOVF   FF3,W
0292A:  ADDLW  6B
0292C:  MOVLB  4
0292E:  MOVWF  x45
02930:  MOVFF  FF2,446
02934:  BCF    FF2.6
02936:  BCF    FF2.7
02938:  CLRF   FAA
0293A:  MOVFF  445,FA9
0293E:  BCF    FA6.6
02940:  BCF    FA6.7
02942:  BSF    FA6.0
02944:  MOVF   FA8,W
02946:  BTFSC  x46.6
02948:  BSF    FF2.6
0294A:  BTFSC  x46.7
0294C:  BSF    FF2.7
0294E:  MOVWF  FEF
....................        
....................       if(CiclosPersonalizados[i].Temperatura>134 || CiclosPersonalizados[i].Temperatura<105) 
02950:  MOVLB  3
02952:  MOVF   x63,W
02954:  MULLW  0A
02956:  MOVF   FF3,W
02958:  MOVLB  4
0295A:  CLRF   x44
0295C:  MOVWF  x43
0295E:  MOVLW  1B
02960:  ADDWF  x43,W
02962:  MOVWF  FE9
02964:  MOVLW  04
02966:  ADDWFC x44,W
02968:  MOVWF  FEA
0296A:  MOVF   FEF,W
0296C:  SUBLW  86
0296E:  BNC   2990
02970:  MOVLB  3
02972:  MOVF   x63,W
02974:  MULLW  0A
02976:  MOVF   FF3,W
02978:  MOVLB  4
0297A:  CLRF   x44
0297C:  MOVWF  x43
0297E:  MOVLW  1B
02980:  ADDWF  x43,W
02982:  MOVWF  FE9
02984:  MOVLW  04
02986:  ADDWFC x44,W
02988:  MOVWF  FEA
0298A:  MOVF   FEF,W
0298C:  SUBLW  68
0298E:  BNC   29AE
....................          CiclosPersonalizados[i].Temperatura=121; 
02990:  MOVLB  3
02992:  MOVF   x63,W
02994:  MULLW  0A
02996:  MOVF   FF3,W
02998:  MOVLB  4
0299A:  CLRF   x44
0299C:  MOVWF  x43
0299E:  MOVLW  1B
029A0:  ADDWF  x43,W
029A2:  MOVWF  FE9
029A4:  MOVLW  04
029A6:  ADDWFC x44,W
029A8:  MOVWF  FEA
029AA:  MOVLW  79
029AC:  MOVWF  FEF
....................       if(CiclosPersonalizados[i].Minutoest>59) 
029AE:  MOVLB  3
029B0:  MOVF   x63,W
029B2:  MULLW  0A
029B4:  MOVF   FF3,W
029B6:  MOVLB  4
029B8:  CLRF   x44
029BA:  MOVWF  x43
029BC:  MOVLW  09
029BE:  ADDWF  x43,W
029C0:  MOVWF  01
029C2:  MOVLW  00
029C4:  ADDWFC x44,W
029C6:  MOVWF  03
029C8:  MOVF   01,W
029CA:  ADDLW  1B
029CC:  MOVWF  FE9
029CE:  MOVLW  04
029D0:  ADDWFC 03,W
029D2:  MOVWF  FEA
029D4:  MOVF   FEF,W
029D6:  SUBLW  3B
029D8:  BC    2A02
....................          CiclosPersonalizados[i].Minutoest=0; 
029DA:  MOVLB  3
029DC:  MOVF   x63,W
029DE:  MULLW  0A
029E0:  MOVF   FF3,W
029E2:  MOVLB  4
029E4:  CLRF   x44
029E6:  MOVWF  x43
029E8:  MOVLW  09
029EA:  ADDWF  x43,W
029EC:  MOVWF  01
029EE:  MOVLW  00
029F0:  ADDWFC x44,W
029F2:  MOVWF  03
029F4:  MOVF   01,W
029F6:  ADDLW  1B
029F8:  MOVWF  FE9
029FA:  MOVLW  04
029FC:  ADDWFC 03,W
029FE:  MOVWF  FEA
02A00:  CLRF   FEF
....................       if(CiclosPersonalizados[i].Segundoest>59) 
02A02:  MOVLB  3
02A04:  MOVF   x63,W
02A06:  MULLW  0A
02A08:  MOVF   FF3,W
02A0A:  MOVLB  4
02A0C:  CLRF   x44
02A0E:  MOVWF  x43
02A10:  MOVLW  03
02A12:  ADDWF  x43,W
02A14:  MOVWF  01
02A16:  MOVLW  00
02A18:  ADDWFC x44,W
02A1A:  MOVWF  03
02A1C:  MOVF   01,W
02A1E:  ADDLW  1B
02A20:  MOVWF  FE9
02A22:  MOVLW  04
02A24:  ADDWFC 03,W
02A26:  MOVWF  FEA
02A28:  MOVF   FEF,W
02A2A:  SUBLW  3B
02A2C:  BC    2A56
....................          CiclosPersonalizados[i].Segundoest=0; 
02A2E:  MOVLB  3
02A30:  MOVF   x63,W
02A32:  MULLW  0A
02A34:  MOVF   FF3,W
02A36:  MOVLB  4
02A38:  CLRF   x44
02A3A:  MOVWF  x43
02A3C:  MOVLW  03
02A3E:  ADDWF  x43,W
02A40:  MOVWF  01
02A42:  MOVLW  00
02A44:  ADDWFC x44,W
02A46:  MOVWF  03
02A48:  MOVF   01,W
02A4A:  ADDLW  1B
02A4C:  MOVWF  FE9
02A4E:  MOVLW  04
02A50:  ADDWFC 03,W
02A52:  MOVWF  FEA
02A54:  CLRF   FEF
....................       if(CiclosPersonalizados[i].Minutosec>59) 
02A56:  MOVLB  3
02A58:  MOVF   x63,W
02A5A:  MULLW  0A
02A5C:  MOVF   FF3,W
02A5E:  MOVLB  4
02A60:  CLRF   x44
02A62:  MOVWF  x43
02A64:  MOVLW  04
02A66:  ADDWF  x43,W
02A68:  MOVWF  01
02A6A:  MOVLW  00
02A6C:  ADDWFC x44,W
02A6E:  MOVWF  03
02A70:  MOVF   01,W
02A72:  ADDLW  1B
02A74:  MOVWF  FE9
02A76:  MOVLW  04
02A78:  ADDWFC 03,W
02A7A:  MOVWF  FEA
02A7C:  MOVF   FEF,W
02A7E:  SUBLW  3B
02A80:  BC    2AAA
....................          CiclosPersonalizados[i].Minutosec=0;    
02A82:  MOVLB  3
02A84:  MOVF   x63,W
02A86:  MULLW  0A
02A88:  MOVF   FF3,W
02A8A:  MOVLB  4
02A8C:  CLRF   x44
02A8E:  MOVWF  x43
02A90:  MOVLW  04
02A92:  ADDWF  x43,W
02A94:  MOVWF  01
02A96:  MOVLW  00
02A98:  ADDWFC x44,W
02A9A:  MOVWF  03
02A9C:  MOVF   01,W
02A9E:  ADDLW  1B
02AA0:  MOVWF  FE9
02AA2:  MOVLW  04
02AA4:  ADDWFC 03,W
02AA6:  MOVWF  FEA
02AA8:  CLRF   FEF
....................       if(CiclosPersonalizados[i].Segundoest>59) 
02AAA:  MOVLB  3
02AAC:  MOVF   x63,W
02AAE:  MULLW  0A
02AB0:  MOVF   FF3,W
02AB2:  MOVLB  4
02AB4:  CLRF   x44
02AB6:  MOVWF  x43
02AB8:  MOVLW  03
02ABA:  ADDWF  x43,W
02ABC:  MOVWF  01
02ABE:  MOVLW  00
02AC0:  ADDWFC x44,W
02AC2:  MOVWF  03
02AC4:  MOVF   01,W
02AC6:  ADDLW  1B
02AC8:  MOVWF  FE9
02ACA:  MOVLW  04
02ACC:  ADDWFC 03,W
02ACE:  MOVWF  FEA
02AD0:  MOVF   FEF,W
02AD2:  SUBLW  3B
02AD4:  BC    2AFE
....................          CiclosPersonalizados[i].Segundoest=0; 
02AD6:  MOVLB  3
02AD8:  MOVF   x63,W
02ADA:  MULLW  0A
02ADC:  MOVF   FF3,W
02ADE:  MOVLB  4
02AE0:  CLRF   x44
02AE2:  MOVWF  x43
02AE4:  MOVLW  03
02AE6:  ADDWF  x43,W
02AE8:  MOVWF  01
02AEA:  MOVLW  00
02AEC:  ADDWFC x44,W
02AEE:  MOVWF  03
02AF0:  MOVF   01,W
02AF2:  ADDLW  1B
02AF4:  MOVWF  FE9
02AF6:  MOVLW  04
02AF8:  ADDWFC 03,W
02AFA:  MOVWF  FEA
02AFC:  CLRF   FEF
....................       if(CiclosPersonalizados[i].Segundosec>59) 
02AFE:  MOVLB  3
02B00:  MOVF   x63,W
02B02:  MULLW  0A
02B04:  MOVF   FF3,W
02B06:  MOVLB  4
02B08:  CLRF   x44
02B0A:  MOVWF  x43
02B0C:  MOVLW  05
02B0E:  ADDWF  x43,W
02B10:  MOVWF  01
02B12:  MOVLW  00
02B14:  ADDWFC x44,W
02B16:  MOVWF  03
02B18:  MOVF   01,W
02B1A:  ADDLW  1B
02B1C:  MOVWF  FE9
02B1E:  MOVLW  04
02B20:  ADDWFC 03,W
02B22:  MOVWF  FEA
02B24:  MOVF   FEF,W
02B26:  SUBLW  3B
02B28:  BC    2B52
....................          CiclosPersonalizados[i].Segundosec=0;       
02B2A:  MOVLB  3
02B2C:  MOVF   x63,W
02B2E:  MULLW  0A
02B30:  MOVF   FF3,W
02B32:  MOVLB  4
02B34:  CLRF   x44
02B36:  MOVWF  x43
02B38:  MOVLW  05
02B3A:  ADDWF  x43,W
02B3C:  MOVWF  01
02B3E:  MOVLW  00
02B40:  ADDWFC x44,W
02B42:  MOVWF  03
02B44:  MOVF   01,W
02B46:  ADDLW  1B
02B48:  MOVWF  FE9
02B4A:  MOVLW  04
02B4C:  ADDWFC 03,W
02B4E:  MOVWF  FEA
02B50:  CLRF   FEF
....................       if(CiclosPersonalizados[i].PulsosVacio>15) 
02B52:  MOVLB  3
02B54:  MOVF   x63,W
02B56:  MULLW  0A
02B58:  MOVF   FF3,W
02B5A:  MOVLB  4
02B5C:  CLRF   x44
02B5E:  MOVWF  x43
02B60:  MOVLW  06
02B62:  ADDWF  x43,W
02B64:  MOVWF  01
02B66:  MOVLW  00
02B68:  ADDWFC x44,W
02B6A:  MOVWF  03
02B6C:  MOVF   01,W
02B6E:  ADDLW  1B
02B70:  MOVWF  FE9
02B72:  MOVLW  04
02B74:  ADDWFC 03,W
02B76:  MOVWF  FEA
02B78:  MOVF   FEF,W
02B7A:  SUBLW  0F
02B7C:  BC    2BA8
....................          CiclosPersonalizados[i].PulsosVacio=4; 
02B7E:  MOVLB  3
02B80:  MOVF   x63,W
02B82:  MULLW  0A
02B84:  MOVF   FF3,W
02B86:  MOVLB  4
02B88:  CLRF   x44
02B8A:  MOVWF  x43
02B8C:  MOVLW  06
02B8E:  ADDWF  x43,W
02B90:  MOVWF  01
02B92:  MOVLW  00
02B94:  ADDWFC x44,W
02B96:  MOVWF  03
02B98:  MOVF   01,W
02B9A:  ADDLW  1B
02B9C:  MOVWF  FE9
02B9E:  MOVLW  04
02BA0:  ADDWFC 03,W
02BA2:  MOVWF  FEA
02BA4:  MOVLW  04
02BA6:  MOVWF  FEF
....................       if(CiclosPersonalizados[i].NivelVacio>100 || CiclosPersonalizados[i].NivelVacio<10) 
02BA8:  MOVLB  3
02BAA:  MOVF   x63,W
02BAC:  MULLW  0A
02BAE:  MOVF   FF3,W
02BB0:  MOVLB  4
02BB2:  CLRF   x44
02BB4:  MOVWF  x43
02BB6:  MOVLW  07
02BB8:  ADDWF  x43,W
02BBA:  MOVWF  01
02BBC:  MOVLW  00
02BBE:  ADDWFC x44,W
02BC0:  MOVWF  03
02BC2:  MOVF   01,W
02BC4:  ADDLW  1B
02BC6:  MOVWF  FE9
02BC8:  MOVLW  04
02BCA:  ADDWFC 03,W
02BCC:  MOVWF  FEA
02BCE:  MOVF   FEF,W
02BD0:  SUBLW  64
02BD2:  BNC   2C00
02BD4:  MOVLB  3
02BD6:  MOVF   x63,W
02BD8:  MULLW  0A
02BDA:  MOVF   FF3,W
02BDC:  MOVLB  4
02BDE:  CLRF   x44
02BE0:  MOVWF  x43
02BE2:  MOVLW  07
02BE4:  ADDWF  x43,W
02BE6:  MOVWF  01
02BE8:  MOVLW  00
02BEA:  ADDWFC x44,W
02BEC:  MOVWF  03
02BEE:  MOVF   01,W
02BF0:  ADDLW  1B
02BF2:  MOVWF  FE9
02BF4:  MOVLW  04
02BF6:  ADDWFC 03,W
02BF8:  MOVWF  FEA
02BFA:  MOVF   FEF,W
02BFC:  SUBLW  09
02BFE:  BNC   2C2A
....................          CiclosPersonalizados[i].NivelVacio=25;    
02C00:  MOVLB  3
02C02:  MOVF   x63,W
02C04:  MULLW  0A
02C06:  MOVF   FF3,W
02C08:  MOVLB  4
02C0A:  CLRF   x44
02C0C:  MOVWF  x43
02C0E:  MOVLW  07
02C10:  ADDWF  x43,W
02C12:  MOVWF  01
02C14:  MOVLW  00
02C16:  ADDWFC x44,W
02C18:  MOVWF  03
02C1A:  MOVF   01,W
02C1C:  ADDLW  1B
02C1E:  MOVWF  FE9
02C20:  MOVLW  04
02C22:  ADDWFC 03,W
02C24:  MOVWF  FEA
02C26:  MOVLW  19
02C28:  MOVWF  FEF
....................       if(CiclosPersonalizados[i].NivelDesfogue>6) 
02C2A:  MOVLB  3
02C2C:  MOVF   x63,W
02C2E:  MULLW  0A
02C30:  MOVF   FF3,W
02C32:  MOVLB  4
02C34:  CLRF   x44
02C36:  MOVWF  x43
02C38:  MOVLW  08
02C3A:  ADDWF  x43,W
02C3C:  MOVWF  01
02C3E:  MOVLW  00
02C40:  ADDWFC x44,W
02C42:  MOVWF  03
02C44:  MOVF   01,W
02C46:  ADDLW  1B
02C48:  MOVWF  FE9
02C4A:  MOVLW  04
02C4C:  ADDWFC 03,W
02C4E:  MOVWF  FEA
02C50:  MOVF   FEF,W
02C52:  SUBLW  06
02C54:  BC    2C80
....................          CiclosPersonalizados[i].NivelDesfogue=6; 
02C56:  MOVLB  3
02C58:  MOVF   x63,W
02C5A:  MULLW  0A
02C5C:  MOVF   FF3,W
02C5E:  MOVLB  4
02C60:  CLRF   x44
02C62:  MOVWF  x43
02C64:  MOVLW  08
02C66:  ADDWF  x43,W
02C68:  MOVWF  01
02C6A:  MOVLW  00
02C6C:  ADDWFC x44,W
02C6E:  MOVWF  03
02C70:  MOVF   01,W
02C72:  ADDLW  1B
02C74:  MOVWF  FE9
02C76:  MOVLW  04
02C78:  ADDWFC 03,W
02C7A:  MOVWF  FEA
02C7C:  MOVLW  06
02C7E:  MOVWF  FEF
....................    } 
02C80:  MOVLB  3
02C82:  INCF   x63,F
02C84:  BRA    26B6
.................... } 
02C86:  MOVLB  0
02C88:  GOTO   8026 (RETURN)
....................  
.................... void LimitaValores(){ 
....................    if(Testerilizacionp[0]>9 || Testerilizacionp[0]<0){ 
*
02E3A:  BTFSC  xB6.7
02E3C:  BRA    2E44
02E3E:  MOVF   xB6,W
02E40:  SUBLW  09
02E42:  BNC   2E4A
02E44:  BTFSC  xB6.7
02E46:  BRA    2E4A
02E48:  BRA    2E82
....................       Testerilizacionp[0]=0; 
02E4A:  CLRF   xB6
....................       write_eeprom(0,0); 
02E4C:  CLRF   FAA
02E4E:  CLRF   FA9
02E50:  CLRF   FA8
02E52:  BCF    FA6.6
02E54:  BCF    FA6.7
02E56:  BSF    FA6.2
02E58:  MOVF   FF2,W
02E5A:  MOVWF  00
02E5C:  BCF    FF2.6
02E5E:  BCF    FF2.7
02E60:  MOVLB  F
02E62:  MOVLW  55
02E64:  MOVWF  FA7
02E66:  MOVLW  AA
02E68:  MOVWF  FA7
02E6A:  BSF    FA6.1
02E6C:  BTFSC  FA6.1
02E6E:  BRA    2E6C
02E70:  BCF    FA6.2
02E72:  MOVF   00,W
02E74:  IORWF  FF2,F
....................       delay_ms(10); 
02E76:  MOVLW  0A
02E78:  MOVLB  4
02E7A:  MOVWF  x58
02E7C:  MOVLB  0
02E7E:  CALL   1A3E
....................    } 
....................    if(Testerilizacionp[1]>9 || Testerilizacionp[1]<0){ 
02E82:  BTFSC  xB7.7
02E84:  BRA    2E8C
02E86:  MOVF   xB7,W
02E88:  SUBLW  09
02E8A:  BNC   2E92
02E8C:  BTFSC  xB7.7
02E8E:  BRA    2E92
02E90:  BRA    2ECC
....................       Testerilizacionp[1]=0; 
02E92:  CLRF   xB7
....................       write_eeprom(1,0); 
02E94:  CLRF   FAA
02E96:  MOVLW  01
02E98:  MOVWF  FA9
02E9A:  CLRF   FA8
02E9C:  BCF    FA6.6
02E9E:  BCF    FA6.7
02EA0:  BSF    FA6.2
02EA2:  MOVF   FF2,W
02EA4:  MOVWF  00
02EA6:  BCF    FF2.6
02EA8:  BCF    FF2.7
02EAA:  MOVLB  F
02EAC:  MOVLW  55
02EAE:  MOVWF  FA7
02EB0:  MOVLW  AA
02EB2:  MOVWF  FA7
02EB4:  BSF    FA6.1
02EB6:  BTFSC  FA6.1
02EB8:  BRA    2EB6
02EBA:  BCF    FA6.2
02EBC:  MOVF   00,W
02EBE:  IORWF  FF2,F
....................       delay_ms(10); 
02EC0:  MOVLW  0A
02EC2:  MOVLB  4
02EC4:  MOVWF  x58
02EC6:  MOVLB  0
02EC8:  CALL   1A3E
....................    } 
....................    if(Testerilizacionp[2]>9 || Testerilizacionp[2]<0){ 
02ECC:  BTFSC  xB8.7
02ECE:  BRA    2ED6
02ED0:  MOVF   xB8,W
02ED2:  SUBLW  09
02ED4:  BNC   2EDC
02ED6:  BTFSC  xB8.7
02ED8:  BRA    2EDC
02EDA:  BRA    2F16
....................       Testerilizacionp[2]=0; 
02EDC:  CLRF   xB8
....................       write_eeprom(2,0); 
02EDE:  CLRF   FAA
02EE0:  MOVLW  02
02EE2:  MOVWF  FA9
02EE4:  CLRF   FA8
02EE6:  BCF    FA6.6
02EE8:  BCF    FA6.7
02EEA:  BSF    FA6.2
02EEC:  MOVF   FF2,W
02EEE:  MOVWF  00
02EF0:  BCF    FF2.6
02EF2:  BCF    FF2.7
02EF4:  MOVLB  F
02EF6:  MOVLW  55
02EF8:  MOVWF  FA7
02EFA:  MOVLW  AA
02EFC:  MOVWF  FA7
02EFE:  BSF    FA6.1
02F00:  BTFSC  FA6.1
02F02:  BRA    2F00
02F04:  BCF    FA6.2
02F06:  MOVF   00,W
02F08:  IORWF  FF2,F
....................       delay_ms(10); 
02F0A:  MOVLW  0A
02F0C:  MOVLB  4
02F0E:  MOVWF  x58
02F10:  MOVLB  0
02F12:  CALL   1A3E
....................    } 
....................    if(Testerilizacionp[3]>9 || Testerilizacionp[3]<0){ 
02F16:  BTFSC  xB9.7
02F18:  BRA    2F20
02F1A:  MOVF   xB9,W
02F1C:  SUBLW  09
02F1E:  BNC   2F26
02F20:  BTFSC  xB9.7
02F22:  BRA    2F26
02F24:  BRA    2F60
....................       Testerilizacionp[3]=0; 
02F26:  CLRF   xB9
....................       write_eeprom(3,0); 
02F28:  CLRF   FAA
02F2A:  MOVLW  03
02F2C:  MOVWF  FA9
02F2E:  CLRF   FA8
02F30:  BCF    FA6.6
02F32:  BCF    FA6.7
02F34:  BSF    FA6.2
02F36:  MOVF   FF2,W
02F38:  MOVWF  00
02F3A:  BCF    FF2.6
02F3C:  BCF    FF2.7
02F3E:  MOVLB  F
02F40:  MOVLW  55
02F42:  MOVWF  FA7
02F44:  MOVLW  AA
02F46:  MOVWF  FA7
02F48:  BSF    FA6.1
02F4A:  BTFSC  FA6.1
02F4C:  BRA    2F4A
02F4E:  BCF    FA6.2
02F50:  MOVF   00,W
02F52:  IORWF  FF2,F
....................       delay_ms(10); 
02F54:  MOVLW  0A
02F56:  MOVLB  4
02F58:  MOVWF  x58
02F5A:  MOVLB  0
02F5C:  CALL   1A3E
....................    } 
....................    if(Tsecadop[0]>9 || Tsecadop[0]<0){ 
02F60:  BTFSC  xBF.7
02F62:  BRA    2F6A
02F64:  MOVF   xBF,W
02F66:  SUBLW  09
02F68:  BNC   2F70
02F6A:  BTFSC  xBF.7
02F6C:  BRA    2F70
02F6E:  BRA    2FAA
....................       Tsecadop[0]=0; 
02F70:  CLRF   xBF
....................       write_eeprom(4,0); 
02F72:  CLRF   FAA
02F74:  MOVLW  04
02F76:  MOVWF  FA9
02F78:  CLRF   FA8
02F7A:  BCF    FA6.6
02F7C:  BCF    FA6.7
02F7E:  BSF    FA6.2
02F80:  MOVF   FF2,W
02F82:  MOVWF  00
02F84:  BCF    FF2.6
02F86:  BCF    FF2.7
02F88:  MOVLB  F
02F8A:  MOVLW  55
02F8C:  MOVWF  FA7
02F8E:  MOVLW  AA
02F90:  MOVWF  FA7
02F92:  BSF    FA6.1
02F94:  BTFSC  FA6.1
02F96:  BRA    2F94
02F98:  BCF    FA6.2
02F9A:  MOVF   00,W
02F9C:  IORWF  FF2,F
....................       delay_ms(10); 
02F9E:  MOVLW  0A
02FA0:  MOVLB  4
02FA2:  MOVWF  x58
02FA4:  MOVLB  0
02FA6:  CALL   1A3E
....................    } 
....................    if(Tsecadop[1]>9 || Tsecadop[1]<0){ 
02FAA:  BTFSC  xC0.7
02FAC:  BRA    2FB4
02FAE:  MOVF   xC0,W
02FB0:  SUBLW  09
02FB2:  BNC   2FBA
02FB4:  BTFSC  xC0.7
02FB6:  BRA    2FBA
02FB8:  BRA    2FF4
....................       Tsecadop[1]=0; 
02FBA:  CLRF   xC0
....................       write_eeprom(5,0); 
02FBC:  CLRF   FAA
02FBE:  MOVLW  05
02FC0:  MOVWF  FA9
02FC2:  CLRF   FA8
02FC4:  BCF    FA6.6
02FC6:  BCF    FA6.7
02FC8:  BSF    FA6.2
02FCA:  MOVF   FF2,W
02FCC:  MOVWF  00
02FCE:  BCF    FF2.6
02FD0:  BCF    FF2.7
02FD2:  MOVLB  F
02FD4:  MOVLW  55
02FD6:  MOVWF  FA7
02FD8:  MOVLW  AA
02FDA:  MOVWF  FA7
02FDC:  BSF    FA6.1
02FDE:  BTFSC  FA6.1
02FE0:  BRA    2FDE
02FE2:  BCF    FA6.2
02FE4:  MOVF   00,W
02FE6:  IORWF  FF2,F
....................       delay_ms(10); 
02FE8:  MOVLW  0A
02FEA:  MOVLB  4
02FEC:  MOVWF  x58
02FEE:  MOVLB  0
02FF0:  CALL   1A3E
....................    } 
....................    if(Tsecadop[2]>9 || Tsecadop[2]<0){ 
02FF4:  BTFSC  xC1.7
02FF6:  BRA    2FFE
02FF8:  MOVF   xC1,W
02FFA:  SUBLW  09
02FFC:  BNC   3004
02FFE:  BTFSC  xC1.7
03000:  BRA    3004
03002:  BRA    303E
....................       Tsecadop[2]=0; 
03004:  CLRF   xC1
....................       write_eeprom(6,0); 
03006:  CLRF   FAA
03008:  MOVLW  06
0300A:  MOVWF  FA9
0300C:  CLRF   FA8
0300E:  BCF    FA6.6
03010:  BCF    FA6.7
03012:  BSF    FA6.2
03014:  MOVF   FF2,W
03016:  MOVWF  00
03018:  BCF    FF2.6
0301A:  BCF    FF2.7
0301C:  MOVLB  F
0301E:  MOVLW  55
03020:  MOVWF  FA7
03022:  MOVLW  AA
03024:  MOVWF  FA7
03026:  BSF    FA6.1
03028:  BTFSC  FA6.1
0302A:  BRA    3028
0302C:  BCF    FA6.2
0302E:  MOVF   00,W
03030:  IORWF  FF2,F
....................       delay_ms(10); 
03032:  MOVLW  0A
03034:  MOVLB  4
03036:  MOVWF  x58
03038:  MOVLB  0
0303A:  CALL   1A3E
....................    } 
....................    if(Tsecadop[3]>9 || Tsecadop[3]<0){ 
0303E:  BTFSC  xC2.7
03040:  BRA    3048
03042:  MOVF   xC2,W
03044:  SUBLW  09
03046:  BNC   304E
03048:  BTFSC  xC2.7
0304A:  BRA    304E
0304C:  BRA    3088
....................       Tsecadop[3]=0; 
0304E:  CLRF   xC2
....................       write_eeprom(7,0); 
03050:  CLRF   FAA
03052:  MOVLW  07
03054:  MOVWF  FA9
03056:  CLRF   FA8
03058:  BCF    FA6.6
0305A:  BCF    FA6.7
0305C:  BSF    FA6.2
0305E:  MOVF   FF2,W
03060:  MOVWF  00
03062:  BCF    FF2.6
03064:  BCF    FF2.7
03066:  MOVLB  F
03068:  MOVLW  55
0306A:  MOVWF  FA7
0306C:  MOVLW  AA
0306E:  MOVWF  FA7
03070:  BSF    FA6.1
03072:  BTFSC  FA6.1
03074:  BRA    3072
03076:  BCF    FA6.2
03078:  MOVF   00,W
0307A:  IORWF  FF2,F
....................       delay_ms(10); 
0307C:  MOVLW  0A
0307E:  MOVLB  4
03080:  MOVWF  x58
03082:  MOVLB  0
03084:  CALL   1A3E
....................    } 
....................    if(Setpoint>134){ 
03088:  MOVLB  3
0308A:  MOVF   x67,W
0308C:  SUBLW  86
0308E:  BC    30D0
....................       Setpoint=134; 
03090:  MOVLW  86
03092:  MOVWF  x67
....................       write_eeprom(8,134); 
03094:  CLRF   FAA
03096:  MOVLW  08
03098:  MOVWF  FA9
0309A:  MOVLW  86
0309C:  MOVWF  FA8
0309E:  BCF    FA6.6
030A0:  BCF    FA6.7
030A2:  BSF    FA6.2
030A4:  MOVF   FF2,W
030A6:  MOVWF  00
030A8:  BCF    FF2.6
030AA:  BCF    FF2.7
030AC:  MOVLB  F
030AE:  MOVLW  55
030B0:  MOVWF  FA7
030B2:  MOVLW  AA
030B4:  MOVWF  FA7
030B6:  BSF    FA6.1
030B8:  BTFSC  FA6.1
030BA:  BRA    30B8
030BC:  BCF    FA6.2
030BE:  MOVF   00,W
030C0:  IORWF  FF2,F
....................       delay_ms(10); 
030C2:  MOVLW  0A
030C4:  MOVLB  4
030C6:  MOVWF  x58
030C8:  MOVLB  0
030CA:  CALL   1A3E
030CE:  MOVLB  3
....................    } 
....................    if(Nivel>6){ 
030D0:  MOVF   x76,F
030D2:  BNZ   30DA
030D4:  MOVF   x75,W
030D6:  SUBLW  06
030D8:  BC    311C
....................       Nivel=3; 
030DA:  CLRF   x76
030DC:  MOVLW  03
030DE:  MOVWF  x75
....................       write_eeprom(9,3); 
030E0:  CLRF   FAA
030E2:  MOVLW  09
030E4:  MOVWF  FA9
030E6:  MOVLW  03
030E8:  MOVWF  FA8
030EA:  BCF    FA6.6
030EC:  BCF    FA6.7
030EE:  BSF    FA6.2
030F0:  MOVF   FF2,W
030F2:  MOVWF  00
030F4:  BCF    FF2.6
030F6:  BCF    FF2.7
030F8:  MOVLB  F
030FA:  MOVLW  55
030FC:  MOVWF  FA7
030FE:  MOVLW  AA
03100:  MOVWF  FA7
03102:  BSF    FA6.1
03104:  BTFSC  FA6.1
03106:  BRA    3104
03108:  BCF    FA6.2
0310A:  MOVF   00,W
0310C:  IORWF  FF2,F
....................       delay_ms(10); 
0310E:  MOVLW  0A
03110:  MOVLB  4
03112:  MOVWF  x58
03114:  MOVLB  0
03116:  CALL   1A3E
0311A:  MOVLB  3
....................    } 
....................    if(Password[0]>9 || Password[0]<0){ 
0311C:  BTFSC  x8B.7
0311E:  BRA    3126
03120:  MOVF   x8B,W
03122:  SUBLW  09
03124:  BNC   312C
03126:  BTFSC  x8B.7
03128:  BRA    312C
0312A:  BRA    3168
....................       Password[0]=0; 
0312C:  CLRF   x8B
....................       write_eeprom(10,0); 
0312E:  CLRF   FAA
03130:  MOVLW  0A
03132:  MOVWF  FA9
03134:  CLRF   FA8
03136:  BCF    FA6.6
03138:  BCF    FA6.7
0313A:  BSF    FA6.2
0313C:  MOVF   FF2,W
0313E:  MOVWF  00
03140:  BCF    FF2.6
03142:  BCF    FF2.7
03144:  MOVLB  F
03146:  MOVLW  55
03148:  MOVWF  FA7
0314A:  MOVLW  AA
0314C:  MOVWF  FA7
0314E:  BSF    FA6.1
03150:  BTFSC  FA6.1
03152:  BRA    3150
03154:  BCF    FA6.2
03156:  MOVF   00,W
03158:  IORWF  FF2,F
....................       delay_ms(10); 
0315A:  MOVLW  0A
0315C:  MOVLB  4
0315E:  MOVWF  x58
03160:  MOVLB  0
03162:  CALL   1A3E
03166:  MOVLB  3
....................    } 
....................    if(Password[1]>9 || Password[1]<0){ 
03168:  BTFSC  x8C.7
0316A:  BRA    3172
0316C:  MOVF   x8C,W
0316E:  SUBLW  09
03170:  BNC   3178
03172:  BTFSC  x8C.7
03174:  BRA    3178
03176:  BRA    31B4
....................       Password[1]=0; 
03178:  CLRF   x8C
....................       write_eeprom(11,0); 
0317A:  CLRF   FAA
0317C:  MOVLW  0B
0317E:  MOVWF  FA9
03180:  CLRF   FA8
03182:  BCF    FA6.6
03184:  BCF    FA6.7
03186:  BSF    FA6.2
03188:  MOVF   FF2,W
0318A:  MOVWF  00
0318C:  BCF    FF2.6
0318E:  BCF    FF2.7
03190:  MOVLB  F
03192:  MOVLW  55
03194:  MOVWF  FA7
03196:  MOVLW  AA
03198:  MOVWF  FA7
0319A:  BSF    FA6.1
0319C:  BTFSC  FA6.1
0319E:  BRA    319C
031A0:  BCF    FA6.2
031A2:  MOVF   00,W
031A4:  IORWF  FF2,F
....................       delay_ms(10); 
031A6:  MOVLW  0A
031A8:  MOVLB  4
031AA:  MOVWF  x58
031AC:  MOVLB  0
031AE:  CALL   1A3E
031B2:  MOVLB  3
....................    } 
....................    if(Password[2]>9 || Password[2]<0){ 
031B4:  BTFSC  x8D.7
031B6:  BRA    31BE
031B8:  MOVF   x8D,W
031BA:  SUBLW  09
031BC:  BNC   31C4
031BE:  BTFSC  x8D.7
031C0:  BRA    31C4
031C2:  BRA    3200
....................       Password[2]=0; 
031C4:  CLRF   x8D
....................       write_eeprom(12,0); 
031C6:  CLRF   FAA
031C8:  MOVLW  0C
031CA:  MOVWF  FA9
031CC:  CLRF   FA8
031CE:  BCF    FA6.6
031D0:  BCF    FA6.7
031D2:  BSF    FA6.2
031D4:  MOVF   FF2,W
031D6:  MOVWF  00
031D8:  BCF    FF2.6
031DA:  BCF    FF2.7
031DC:  MOVLB  F
031DE:  MOVLW  55
031E0:  MOVWF  FA7
031E2:  MOVLW  AA
031E4:  MOVWF  FA7
031E6:  BSF    FA6.1
031E8:  BTFSC  FA6.1
031EA:  BRA    31E8
031EC:  BCF    FA6.2
031EE:  MOVF   00,W
031F0:  IORWF  FF2,F
....................       delay_ms(10); 
031F2:  MOVLW  0A
031F4:  MOVLB  4
031F6:  MOVWF  x58
031F8:  MOVLB  0
031FA:  CALL   1A3E
031FE:  MOVLB  3
....................    } 
....................    if(Password[3]>9 || Password[3]<0){ 
03200:  BTFSC  x8E.7
03202:  BRA    320A
03204:  MOVF   x8E,W
03206:  SUBLW  09
03208:  BNC   3210
0320A:  BTFSC  x8E.7
0320C:  BRA    3210
0320E:  BRA    324A
....................       Password[3]=0; 
03210:  CLRF   x8E
....................       write_eeprom(13,0); 
03212:  CLRF   FAA
03214:  MOVLW  0D
03216:  MOVWF  FA9
03218:  CLRF   FA8
0321A:  BCF    FA6.6
0321C:  BCF    FA6.7
0321E:  BSF    FA6.2
03220:  MOVF   FF2,W
03222:  MOVWF  00
03224:  BCF    FF2.6
03226:  BCF    FF2.7
03228:  MOVLB  F
0322A:  MOVLW  55
0322C:  MOVWF  FA7
0322E:  MOVLW  AA
03230:  MOVWF  FA7
03232:  BSF    FA6.1
03234:  BTFSC  FA6.1
03236:  BRA    3234
03238:  BCF    FA6.2
0323A:  MOVF   00,W
0323C:  IORWF  FF2,F
....................       delay_ms(10); 
0323E:  MOVLW  0A
03240:  MOVLB  4
03242:  MOVWF  x58
03244:  MOVLB  0
03246:  CALL   1A3E
....................    } 
....................    if(Ganancia>12.0){ 
0324A:  MOVLB  4
0324C:  CLRF   x4E
0324E:  CLRF   x4D
03250:  MOVLW  40
03252:  MOVWF  x4C
03254:  MOVLW  82
03256:  MOVWF  x4B
03258:  MOVFF  30B,452
0325C:  MOVFF  30A,451
03260:  MOVFF  309,450
03264:  MOVFF  308,44F
03268:  MOVLB  0
0326A:  RCALL  2D72
0326C:  BNC   32B6
....................       Ganancia=12.0; 
0326E:  MOVLB  3
03270:  CLRF   x0B
03272:  CLRF   x0A
03274:  MOVLW  40
03276:  MOVWF  x09
03278:  MOVLW  82
0327A:  MOVWF  x08
....................       write_eeprom(20,12); 
0327C:  CLRF   FAA
0327E:  MOVLW  14
03280:  MOVWF  FA9
03282:  MOVLW  0C
03284:  MOVWF  FA8
03286:  BCF    FA6.6
03288:  BCF    FA6.7
0328A:  BSF    FA6.2
0328C:  MOVF   FF2,W
0328E:  MOVWF  00
03290:  BCF    FF2.6
03292:  BCF    FF2.7
03294:  MOVLB  F
03296:  MOVLW  55
03298:  MOVWF  FA7
0329A:  MOVLW  AA
0329C:  MOVWF  FA7
0329E:  BSF    FA6.1
032A0:  BTFSC  FA6.1
032A2:  BRA    32A0
032A4:  BCF    FA6.2
032A6:  MOVF   00,W
032A8:  IORWF  FF2,F
....................       delay_ms(10); 
032AA:  MOVLW  0A
032AC:  MOVLB  4
032AE:  MOVWF  x58
032B0:  MOVLB  0
032B2:  CALL   1A3E
....................    } 
....................    if(Ajuste>100){ 
032B6:  MOVLB  2
032B8:  MOVF   xD9,W
032BA:  SUBLW  64
032BC:  BC    32FA
....................       Ajuste=0; 
032BE:  CLRF   xD9
....................       write_eeprom(21,0); 
032C0:  CLRF   FAA
032C2:  MOVLW  15
032C4:  MOVWF  FA9
032C6:  CLRF   FA8
032C8:  BCF    FA6.6
032CA:  BCF    FA6.7
032CC:  BSF    FA6.2
032CE:  MOVF   FF2,W
032D0:  MOVWF  00
032D2:  BCF    FF2.6
032D4:  BCF    FF2.7
032D6:  MOVLB  F
032D8:  MOVLW  55
032DA:  MOVWF  FA7
032DC:  MOVLW  AA
032DE:  MOVWF  FA7
032E0:  BSF    FA6.1
032E2:  BTFSC  FA6.1
032E4:  BRA    32E2
032E6:  BCF    FA6.2
032E8:  MOVF   00,W
032EA:  IORWF  FF2,F
....................       delay_ms(10); 
032EC:  MOVLW  0A
032EE:  MOVLB  4
032F0:  MOVWF  x58
032F2:  MOVLB  0
032F4:  CALL   1A3E
032F8:  MOVLB  2
....................    } 
....................    if(Ajusten>100){ 
032FA:  MOVF   xDA,W
032FC:  SUBLW  64
032FE:  BC    333C
....................       Ajusten=0; 
03300:  CLRF   xDA
....................       write_eeprom(22,0); 
03302:  CLRF   FAA
03304:  MOVLW  16
03306:  MOVWF  FA9
03308:  CLRF   FA8
0330A:  BCF    FA6.6
0330C:  BCF    FA6.7
0330E:  BSF    FA6.2
03310:  MOVF   FF2,W
03312:  MOVWF  00
03314:  BCF    FF2.6
03316:  BCF    FF2.7
03318:  MOVLB  F
0331A:  MOVLW  55
0331C:  MOVWF  FA7
0331E:  MOVLW  AA
03320:  MOVWF  FA7
03322:  BSF    FA6.1
03324:  BTFSC  FA6.1
03326:  BRA    3324
03328:  BCF    FA6.2
0332A:  MOVF   00,W
0332C:  IORWF  FF2,F
....................       delay_ms(10); 
0332E:  MOVLW  0A
03330:  MOVLB  4
03332:  MOVWF  x58
03334:  MOVLB  0
03336:  CALL   1A3E
0333A:  MOVLB  2
....................    } 
....................    if(MediaMovil>80){ 
0333C:  MOVF   xDB,W
0333E:  SUBLW  50
03340:  BC    3380
....................       MediaMovil=80; 
03342:  MOVLW  50
03344:  MOVWF  xDB
....................       write_eeprom(24,80); 
03346:  CLRF   FAA
03348:  MOVLW  18
0334A:  MOVWF  FA9
0334C:  MOVLW  50
0334E:  MOVWF  FA8
03350:  BCF    FA6.6
03352:  BCF    FA6.7
03354:  BSF    FA6.2
03356:  MOVF   FF2,W
03358:  MOVWF  00
0335A:  BCF    FF2.6
0335C:  BCF    FF2.7
0335E:  MOVLB  F
03360:  MOVLW  55
03362:  MOVWF  FA7
03364:  MOVLW  AA
03366:  MOVWF  FA7
03368:  BSF    FA6.1
0336A:  BTFSC  FA6.1
0336C:  BRA    336A
0336E:  BCF    FA6.2
03370:  MOVF   00,W
03372:  IORWF  FF2,F
....................       delay_ms(10); 
03374:  MOVLW  0A
03376:  MOVLB  4
03378:  MOVWF  x58
0337A:  MOVLB  0
0337C:  CALL   1A3E
....................    } 
....................    if(Tciclo>10){ 
03380:  MOVLB  4
03382:  CLRF   x4E
03384:  CLRF   x4D
03386:  MOVLW  20
03388:  MOVWF  x4C
0338A:  MOVLW  82
0338C:  MOVWF  x4B
0338E:  MOVFF  2F3,452
03392:  MOVFF  2F2,451
03396:  MOVFF  2F1,450
0339A:  MOVFF  2F0,44F
0339E:  MOVLB  0
033A0:  RCALL  2D72
033A2:  BNC   33EC
....................       Tciclo=10; 
033A4:  MOVLB  2
033A6:  CLRF   xF3
033A8:  CLRF   xF2
033AA:  MOVLW  20
033AC:  MOVWF  xF1
033AE:  MOVLW  82
033B0:  MOVWF  xF0
....................       write_eeprom(25,10); 
033B2:  CLRF   FAA
033B4:  MOVLW  19
033B6:  MOVWF  FA9
033B8:  MOVLW  0A
033BA:  MOVWF  FA8
033BC:  BCF    FA6.6
033BE:  BCF    FA6.7
033C0:  BSF    FA6.2
033C2:  MOVF   FF2,W
033C4:  MOVWF  00
033C6:  BCF    FF2.6
033C8:  BCF    FF2.7
033CA:  MOVLB  F
033CC:  MOVLW  55
033CE:  MOVWF  FA7
033D0:  MOVLW  AA
033D2:  MOVWF  FA7
033D4:  BSF    FA6.1
033D6:  BTFSC  FA6.1
033D8:  BRA    33D6
033DA:  BCF    FA6.2
033DC:  MOVF   00,W
033DE:  IORWF  FF2,F
....................       delay_ms(10); 
033E0:  MOVLW  0A
033E2:  MOVLB  4
033E4:  MOVWF  x58
033E6:  MOVLB  0
033E8:  CALL   1A3E
....................    } 
....................    if(Integral>2.0){ 
033EC:  MOVLB  4
033EE:  CLRF   x59
033F0:  MOVFF  33C,458
033F4:  MOVLB  0
033F6:  CALL   1A66
033FA:  MOVLB  4
033FC:  CLRF   x4E
033FE:  CLRF   x4D
03400:  CLRF   x4C
03402:  MOVLW  80
03404:  MOVWF  x4B
03406:  MOVFF  03,452
0340A:  MOVFF  02,451
0340E:  MOVFF  01,450
03412:  MOVFF  00,44F
03416:  MOVLB  0
03418:  RCALL  2D72
0341A:  BNC   345C
....................       Integral=1.0; 
0341C:  MOVLW  01
0341E:  MOVLB  3
03420:  MOVWF  x3C
....................       write_eeprom(26,1); 
03422:  CLRF   FAA
03424:  MOVLW  1A
03426:  MOVWF  FA9
03428:  MOVLW  01
0342A:  MOVWF  FA8
0342C:  BCF    FA6.6
0342E:  BCF    FA6.7
03430:  BSF    FA6.2
03432:  MOVF   FF2,W
03434:  MOVWF  00
03436:  BCF    FF2.6
03438:  BCF    FF2.7
0343A:  MOVLB  F
0343C:  MOVLW  55
0343E:  MOVWF  FA7
03440:  MOVLW  AA
03442:  MOVWF  FA7
03444:  BSF    FA6.1
03446:  BTFSC  FA6.1
03448:  BRA    3446
0344A:  BCF    FA6.2
0344C:  MOVF   00,W
0344E:  IORWF  FF2,F
....................       delay_ms(10); 
03450:  MOVLW  0A
03452:  MOVLB  4
03454:  MOVWF  x58
03456:  MOVLB  0
03458:  CALL   1A3E
....................    } 
....................    if(Derivativo>20.0){ 
0345C:  MOVLB  4
0345E:  CLRF   x59
03460:  MOVFF  33D,458
03464:  MOVLB  0
03466:  CALL   1A66
0346A:  MOVLB  4
0346C:  CLRF   x4E
0346E:  CLRF   x4D
03470:  MOVLW  20
03472:  MOVWF  x4C
03474:  MOVLW  83
03476:  MOVWF  x4B
03478:  MOVFF  03,452
0347C:  MOVFF  02,451
03480:  MOVFF  01,450
03484:  MOVFF  00,44F
03488:  MOVLB  0
0348A:  RCALL  2D72
0348C:  BNC   34CE
....................       Derivativo=15.0; 
0348E:  MOVLW  0F
03490:  MOVLB  3
03492:  MOVWF  x3D
....................       write_eeprom(27,15); 
03494:  CLRF   FAA
03496:  MOVLW  1B
03498:  MOVWF  FA9
0349A:  MOVLW  0F
0349C:  MOVWF  FA8
0349E:  BCF    FA6.6
034A0:  BCF    FA6.7
034A2:  BSF    FA6.2
034A4:  MOVF   FF2,W
034A6:  MOVWF  00
034A8:  BCF    FF2.6
034AA:  BCF    FF2.7
034AC:  MOVLB  F
034AE:  MOVLW  55
034B0:  MOVWF  FA7
034B2:  MOVLW  AA
034B4:  MOVWF  FA7
034B6:  BSF    FA6.1
034B8:  BTFSC  FA6.1
034BA:  BRA    34B8
034BC:  BCF    FA6.2
034BE:  MOVF   00,W
034C0:  IORWF  FF2,F
....................       delay_ms(10); 
034C2:  MOVLW  0A
034C4:  MOVLB  4
034C6:  MOVWF  x58
034C8:  MOVLB  0
034CA:  CALL   1A3E
....................    } 
....................    if(Gain>50){ 
034CE:  MOVLB  4
034D0:  CLRF   x4E
034D2:  CLRF   x4D
034D4:  MOVLW  48
034D6:  MOVWF  x4C
034D8:  MOVLW  84
034DA:  MOVWF  x4B
034DC:  MOVFF  2A6,452
034E0:  MOVFF  2A5,451
034E4:  MOVFF  2A4,450
034E8:  MOVFF  2A3,44F
034EC:  MOVLB  0
034EE:  RCALL  2D72
034F0:  BNC   3578
....................       Gain=40.2; 
034F2:  MOVLW  CD
034F4:  MOVLB  2
034F6:  MOVWF  xA6
034F8:  MOVLW  CC
034FA:  MOVWF  xA5
034FC:  MOVLW  20
034FE:  MOVWF  xA4
03500:  MOVLW  84
03502:  MOVWF  xA3
....................       write_eeprom(28,40); 
03504:  CLRF   FAA
03506:  MOVLW  1C
03508:  MOVWF  FA9
0350A:  MOVLW  28
0350C:  MOVWF  FA8
0350E:  BCF    FA6.6
03510:  BCF    FA6.7
03512:  BSF    FA6.2
03514:  MOVF   FF2,W
03516:  MOVWF  00
03518:  BCF    FF2.6
0351A:  BCF    FF2.7
0351C:  MOVLB  F
0351E:  MOVLW  55
03520:  MOVWF  FA7
03522:  MOVLW  AA
03524:  MOVWF  FA7
03526:  BSF    FA6.1
03528:  BTFSC  FA6.1
0352A:  BRA    3528
0352C:  BCF    FA6.2
0352E:  MOVF   00,W
03530:  IORWF  FF2,F
....................       delay_ms(10); 
03532:  MOVLW  0A
03534:  MOVLB  4
03536:  MOVWF  x58
03538:  MOVLB  0
0353A:  CALL   1A3E
....................       write_eeprom(29,2); 
0353E:  CLRF   FAA
03540:  MOVLW  1D
03542:  MOVWF  FA9
03544:  MOVLW  02
03546:  MOVWF  FA8
03548:  BCF    FA6.6
0354A:  BCF    FA6.7
0354C:  BSF    FA6.2
0354E:  MOVF   FF2,W
03550:  MOVWF  00
03552:  BCF    FF2.6
03554:  BCF    FF2.7
03556:  MOVLB  F
03558:  MOVLW  55
0355A:  MOVWF  FA7
0355C:  MOVLW  AA
0355E:  MOVWF  FA7
03560:  BSF    FA6.1
03562:  BTFSC  FA6.1
03564:  BRA    3562
03566:  BCF    FA6.2
03568:  MOVF   00,W
0356A:  IORWF  FF2,F
....................       delay_ms(10); 
0356C:  MOVLW  0A
0356E:  MOVLB  4
03570:  MOVWF  x58
03572:  MOVLB  0
03574:  CALL   1A3E
....................    } 
....................    if(R1>6400){ 
03578:  MOVLB  4
0357A:  CLRF   x4E
0357C:  CLRF   x4D
0357E:  MOVLW  48
03580:  MOVWF  x4C
03582:  MOVLW  8B
03584:  MOVWF  x4B
03586:  MOVFF  2B2,452
0358A:  MOVFF  2B1,451
0358E:  MOVFF  2B0,450
03592:  MOVFF  2AF,44F
03596:  MOVLB  0
03598:  CALL   2D72
0359C:  BNC   3622
....................       R1=6200; 
0359E:  MOVLB  2
035A0:  CLRF   xB2
035A2:  MOVLW  C0
035A4:  MOVWF  xB1
035A6:  MOVLW  41
035A8:  MOVWF  xB0
035AA:  MOVLW  8B
035AC:  MOVWF  xAF
....................       write_eeprom(30,0x38); 
035AE:  CLRF   FAA
035B0:  MOVLW  1E
035B2:  MOVWF  FA9
035B4:  MOVLW  38
035B6:  MOVWF  FA8
035B8:  BCF    FA6.6
035BA:  BCF    FA6.7
035BC:  BSF    FA6.2
035BE:  MOVF   FF2,W
035C0:  MOVWF  00
035C2:  BCF    FF2.6
035C4:  BCF    FF2.7
035C6:  MOVLB  F
035C8:  MOVLW  55
035CA:  MOVWF  FA7
035CC:  MOVLW  AA
035CE:  MOVWF  FA7
035D0:  BSF    FA6.1
035D2:  BTFSC  FA6.1
035D4:  BRA    35D2
035D6:  BCF    FA6.2
035D8:  MOVF   00,W
035DA:  IORWF  FF2,F
....................       delay_ms(10); 
035DC:  MOVLW  0A
035DE:  MOVLB  4
035E0:  MOVWF  x58
035E2:  MOVLB  0
035E4:  CALL   1A3E
....................       write_eeprom(31,0x18); 
035E8:  CLRF   FAA
035EA:  MOVLW  1F
035EC:  MOVWF  FA9
035EE:  MOVLW  18
035F0:  MOVWF  FA8
035F2:  BCF    FA6.6
035F4:  BCF    FA6.7
035F6:  BSF    FA6.2
035F8:  MOVF   FF2,W
035FA:  MOVWF  00
035FC:  BCF    FF2.6
035FE:  BCF    FF2.7
03600:  MOVLB  F
03602:  MOVLW  55
03604:  MOVWF  FA7
03606:  MOVLW  AA
03608:  MOVWF  FA7
0360A:  BSF    FA6.1
0360C:  BTFSC  FA6.1
0360E:  BRA    360C
03610:  BCF    FA6.2
03612:  MOVF   00,W
03614:  IORWF  FF2,F
....................       delay_ms(10); 
03616:  MOVLW  0A
03618:  MOVLB  4
0361A:  MOVWF  x58
0361C:  MOVLB  0
0361E:  CALL   1A3E
....................    } 
....................    if(RPT100>2.0){ 
03622:  MOVLB  4
03624:  CLRF   x4E
03626:  CLRF   x4D
03628:  CLRF   x4C
0362A:  MOVLW  80
0362C:  MOVWF  x4B
0362E:  MOVFF  2AA,452
03632:  MOVFF  2A9,451
03636:  MOVFF  2A8,450
0363A:  MOVFF  2A7,44F
0363E:  MOVLB  0
03640:  CALL   2D72
03644:  BNC   36C4
....................       RPT100=0.5; 
03646:  MOVLB  2
03648:  CLRF   xAA
0364A:  CLRF   xA9
0364C:  CLRF   xA8
0364E:  MOVLW  7E
03650:  MOVWF  xA7
....................       write_eeprom(32,0); 
03652:  CLRF   FAA
03654:  MOVLW  20
03656:  MOVWF  FA9
03658:  CLRF   FA8
0365A:  BCF    FA6.6
0365C:  BCF    FA6.7
0365E:  BSF    FA6.2
03660:  MOVF   FF2,W
03662:  MOVWF  00
03664:  BCF    FF2.6
03666:  BCF    FF2.7
03668:  MOVLB  F
0366A:  MOVLW  55
0366C:  MOVWF  FA7
0366E:  MOVLW  AA
03670:  MOVWF  FA7
03672:  BSF    FA6.1
03674:  BTFSC  FA6.1
03676:  BRA    3674
03678:  BCF    FA6.2
0367A:  MOVF   00,W
0367C:  IORWF  FF2,F
....................       delay_ms(10); 
0367E:  MOVLW  0A
03680:  MOVLB  4
03682:  MOVWF  x58
03684:  MOVLB  0
03686:  CALL   1A3E
....................       write_eeprom(33,5); 
0368A:  CLRF   FAA
0368C:  MOVLW  21
0368E:  MOVWF  FA9
03690:  MOVLW  05
03692:  MOVWF  FA8
03694:  BCF    FA6.6
03696:  BCF    FA6.7
03698:  BSF    FA6.2
0369A:  MOVF   FF2,W
0369C:  MOVWF  00
0369E:  BCF    FF2.6
036A0:  BCF    FF2.7
036A2:  MOVLB  F
036A4:  MOVLW  55
036A6:  MOVWF  FA7
036A8:  MOVLW  AA
036AA:  MOVWF  FA7
036AC:  BSF    FA6.1
036AE:  BTFSC  FA6.1
036B0:  BRA    36AE
036B2:  BCF    FA6.2
036B4:  MOVF   00,W
036B6:  IORWF  FF2,F
....................       delay_ms(10); 
036B8:  MOVLW  0A
036BA:  MOVLB  4
036BC:  MOVWF  x58
036BE:  MOVLB  0
036C0:  CALL   1A3E
....................    } 
....................    if(Ciclos>60000){ 
036C4:  MOVLB  3
036C6:  MOVF   x7E,W
036C8:  SUBLW  E9
036CA:  BC    374A
036CC:  XORLW  FF
036CE:  BNZ   36D6
036D0:  MOVF   x7D,W
036D2:  SUBLW  60
036D4:  BC    374A
....................       Ciclos=0; 
036D6:  CLRF   x7E
036D8:  CLRF   x7D
....................       write_eeprom(37,0); 
036DA:  CLRF   FAA
036DC:  MOVLW  25
036DE:  MOVWF  FA9
036E0:  CLRF   FA8
036E2:  BCF    FA6.6
036E4:  BCF    FA6.7
036E6:  BSF    FA6.2
036E8:  MOVF   FF2,W
036EA:  MOVWF  00
036EC:  BCF    FF2.6
036EE:  BCF    FF2.7
036F0:  MOVLB  F
036F2:  MOVLW  55
036F4:  MOVWF  FA7
036F6:  MOVLW  AA
036F8:  MOVWF  FA7
036FA:  BSF    FA6.1
036FC:  BTFSC  FA6.1
036FE:  BRA    36FC
03700:  BCF    FA6.2
03702:  MOVF   00,W
03704:  IORWF  FF2,F
....................       delay_ms(10); 
03706:  MOVLW  0A
03708:  MOVLB  4
0370A:  MOVWF  x58
0370C:  MOVLB  0
0370E:  CALL   1A3E
....................       write_eeprom(38,0); 
03712:  CLRF   FAA
03714:  MOVLW  26
03716:  MOVWF  FA9
03718:  CLRF   FA8
0371A:  BCF    FA6.6
0371C:  BCF    FA6.7
0371E:  BSF    FA6.2
03720:  MOVF   FF2,W
03722:  MOVWF  00
03724:  BCF    FF2.6
03726:  BCF    FF2.7
03728:  MOVLB  F
0372A:  MOVLW  55
0372C:  MOVWF  FA7
0372E:  MOVLW  AA
03730:  MOVWF  FA7
03732:  BSF    FA6.1
03734:  BTFSC  FA6.1
03736:  BRA    3734
03738:  BCF    FA6.2
0373A:  MOVF   00,W
0373C:  IORWF  FF2,F
....................       delay_ms(10); 
0373E:  MOVLW  0A
03740:  MOVLB  4
03742:  MOVWF  x58
03744:  MOVLB  0
03746:  CALL   1A3E
....................    } 
....................    if(TTrampa>100){ 
0374A:  MOVLB  2
0374C:  MOVF   xDC,W
0374E:  SUBLW  64
03750:  BC    3790
....................       TTrampa=80; 
03752:  MOVLW  50
03754:  MOVWF  xDC
....................       write_eeprom(39,80); 
03756:  CLRF   FAA
03758:  MOVLW  27
0375A:  MOVWF  FA9
0375C:  MOVLW  50
0375E:  MOVWF  FA8
03760:  BCF    FA6.6
03762:  BCF    FA6.7
03764:  BSF    FA6.2
03766:  MOVF   FF2,W
03768:  MOVWF  00
0376A:  BCF    FF2.6
0376C:  BCF    FF2.7
0376E:  MOVLB  F
03770:  MOVLW  55
03772:  MOVWF  FA7
03774:  MOVLW  AA
03776:  MOVWF  FA7
03778:  BSF    FA6.1
0377A:  BTFSC  FA6.1
0377C:  BRA    377A
0377E:  BCF    FA6.2
03780:  MOVF   00,W
03782:  IORWF  FF2,F
....................       delay_ms(10); 
03784:  MOVLW  0A
03786:  MOVLB  4
03788:  MOVWF  x58
0378A:  MOVLB  0
0378C:  CALL   1A3E
....................    } 
....................    if(ActivaImpresion>1){ 
03790:  MOVLB  3
03792:  MOVF   x59,W
03794:  SUBLW  01
03796:  BC    37D8
....................       ActivaImpresion=1; 
03798:  MOVLW  01
0379A:  MOVWF  x59
....................       write_eeprom(40,1); 
0379C:  CLRF   FAA
0379E:  MOVLW  28
037A0:  MOVWF  FA9
037A2:  MOVLW  01
037A4:  MOVWF  FA8
037A6:  BCF    FA6.6
037A8:  BCF    FA6.7
037AA:  BSF    FA6.2
037AC:  MOVF   FF2,W
037AE:  MOVWF  00
037B0:  BCF    FF2.6
037B2:  BCF    FF2.7
037B4:  MOVLB  F
037B6:  MOVLW  55
037B8:  MOVWF  FA7
037BA:  MOVLW  AA
037BC:  MOVWF  FA7
037BE:  BSF    FA6.1
037C0:  BTFSC  FA6.1
037C2:  BRA    37C0
037C4:  BCF    FA6.2
037C6:  MOVF   00,W
037C8:  IORWF  FF2,F
....................       delay_ms(10); 
037CA:  MOVLW  0A
037CC:  MOVLB  4
037CE:  MOVWF  x58
037D0:  MOVLB  0
037D2:  CALL   1A3E
037D6:  MOVLB  3
....................    } 
....................    if(timpresion>30){ 
037D8:  MOVF   x5A,W
037DA:  SUBLW  1E
037DC:  BC    381E
....................       timpresion=2; 
037DE:  MOVLW  02
037E0:  MOVWF  x5A
....................       write_eeprom(41,2); 
037E2:  CLRF   FAA
037E4:  MOVLW  29
037E6:  MOVWF  FA9
037E8:  MOVLW  02
037EA:  MOVWF  FA8
037EC:  BCF    FA6.6
037EE:  BCF    FA6.7
037F0:  BSF    FA6.2
037F2:  MOVF   FF2,W
037F4:  MOVWF  00
037F6:  BCF    FF2.6
037F8:  BCF    FF2.7
037FA:  MOVLB  F
037FC:  MOVLW  55
037FE:  MOVWF  FA7
03800:  MOVLW  AA
03802:  MOVWF  FA7
03804:  BSF    FA6.1
03806:  BTFSC  FA6.1
03808:  BRA    3806
0380A:  BCF    FA6.2
0380C:  MOVF   00,W
0380E:  IORWF  FF2,F
....................       delay_ms(10); 
03810:  MOVLW  0A
03812:  MOVLB  4
03814:  MOVWF  x58
03816:  MOVLB  0
03818:  CALL   1A3E
0381C:  MOVLB  3
....................    } 
....................    if(Atmosferica>100 || Atmosferica<50){ 
0381E:  MOVF   xB2,W
03820:  SUBLW  64
03822:  BNC   382A
03824:  MOVF   xB2,W
03826:  SUBLW  31
03828:  BNC   386A
....................       Atmosferica=72; 
0382A:  MOVLW  48
0382C:  MOVWF  xB2
....................       write_eeprom(46,72); 
0382E:  CLRF   FAA
03830:  MOVLW  2E
03832:  MOVWF  FA9
03834:  MOVLW  48
03836:  MOVWF  FA8
03838:  BCF    FA6.6
0383A:  BCF    FA6.7
0383C:  BSF    FA6.2
0383E:  MOVF   FF2,W
03840:  MOVWF  00
03842:  BCF    FF2.6
03844:  BCF    FF2.7
03846:  MOVLB  F
03848:  MOVLW  55
0384A:  MOVWF  FA7
0384C:  MOVLW  AA
0384E:  MOVWF  FA7
03850:  BSF    FA6.1
03852:  BTFSC  FA6.1
03854:  BRA    3852
03856:  BCF    FA6.2
03858:  MOVF   00,W
0385A:  IORWF  FF2,F
....................       delay_ms(10); 
0385C:  MOVLW  0A
0385E:  MOVLB  4
03860:  MOVWF  x58
03862:  MOVLB  0
03864:  CALL   1A3E
03868:  MOVLB  3
....................    } 
....................    if(pulsosPurgaProgramados>30 || pulsosPurgaProgramados<1){ 
0386A:  MOVF   x40,W
0386C:  SUBLW  1E
0386E:  BNC   3874
03870:  MOVF   x40,F
03872:  BNZ   38B4
....................       pulsosPurgaProgramados=15; 
03874:  MOVLW  0F
03876:  MOVWF  x40
....................       write_eeprom(47,15); 
03878:  CLRF   FAA
0387A:  MOVLW  2F
0387C:  MOVWF  FA9
0387E:  MOVLW  0F
03880:  MOVWF  FA8
03882:  BCF    FA6.6
03884:  BCF    FA6.7
03886:  BSF    FA6.2
03888:  MOVF   FF2,W
0388A:  MOVWF  00
0388C:  BCF    FF2.6
0388E:  BCF    FF2.7
03890:  MOVLB  F
03892:  MOVLW  55
03894:  MOVWF  FA7
03896:  MOVLW  AA
03898:  MOVWF  FA7
0389A:  BSF    FA6.1
0389C:  BTFSC  FA6.1
0389E:  BRA    389C
038A0:  BCF    FA6.2
038A2:  MOVF   00,W
038A4:  IORWF  FF2,F
....................       delay_ms(10); 
038A6:  MOVLW  0A
038A8:  MOVLB  4
038AA:  MOVWF  x58
038AC:  MOVLB  0
038AE:  CALL   1A3E
038B2:  MOVLB  3
....................    } 
....................    if(sg1==10){ 
038B4:  MOVF   xB5,W
038B6:  SUBLW  0A
038B8:  BNZ   38D0
....................       G1=G1*(-1); 
038BA:  MOVFF  3B3,445
038BE:  MOVLW  FF
038C0:  MOVLB  4
038C2:  MOVWF  x46
038C4:  MOVLB  0
038C6:  CALL   2DEC
038CA:  MOVFF  01,3B3
038CE:  MOVLB  3
....................    } 
....................    if(sg2==10){ 
038D0:  MOVF   xB6,W
038D2:  SUBLW  0A
038D4:  BNZ   38EC
....................       G2=G2*(-1); 
038D6:  MOVFF  3B4,445
038DA:  MOVLW  FF
038DC:  MOVLB  4
038DE:  MOVWF  x46
038E0:  MOVLB  0
038E2:  CALL   2DEC
038E6:  MOVFF  01,3B4
038EA:  MOVLB  3
....................    } 
.................... } 
038EC:  MOVLB  0
038EE:  GOTO   803A (RETURN)
....................  
.................... void LeeDisplay(void){ 
....................    if(Dato_Exitoso==5){ 
*
04364:  MOVLB  3
04366:  MOVF   x5D,W
04368:  SUBLW  05
0436A:  BTFSS  FD8.2
0436C:  BRA    44E2
....................          RX_Buffer[0]=RX_Buffer2[0]; 
0436E:  MOVFF  3B,30
....................          RX_Buffer[1]=RX_Buffer2[1]; 
04372:  MOVFF  3C,31
....................          RX_Buffer[2]=RX_Buffer2[2]; 
04376:  MOVFF  3D,32
....................          RX_Buffer[3]=RX_Buffer2[3]; 
0437A:  MOVFF  3E,33
....................          RX_Buffer[4]=RX_Buffer2[4]; 
0437E:  MOVFF  3F,34
....................          RX_Buffer[5]=RX_Buffer2[5]; 
04382:  MOVFF  40,35
....................          RX_Buffer[6]=RX_Buffer2[6]; 
04386:  MOVFF  41,36
....................          RX_Buffer[7]=RX_Buffer2[7]; 
0438A:  MOVFF  42,37
....................          RX_Buffer[8]=RX_Buffer2[8]; 
0438E:  MOVFF  43,38
....................          RX_Buffer[9]=RX_Buffer2[9]; 
04392:  MOVFF  44,39
....................           
....................       if(RX_Buffer[3]==0x01){// Pregunta por la pagina en la que esta el display,01 es Contrasea de Acceso 
04396:  DECFSZ 33,W
04398:  BRA    43A8
....................          Menu=0; 
0439A:  CLRF   x60
....................          if(MenuAntt!=Menu) 
0439C:  MOVF   x60,W
0439E:  SUBWF  x62,W
043A0:  BZ    43A6
....................             MenuAntt=Menu; 
043A2:  MOVFF  360,362
....................       }else if(RX_Buffer[3]==0x02){//02 es Menu Principal con PantallaPriincipal=0, y con PantallaPrincipal=1 es Ciclo Libre 
043A6:  BRA    44E0
043A8:  MOVF   33,W
043AA:  SUBLW  02
043AC:  BNZ   43BE
....................          Menu=1; 
043AE:  MOVLW  01
043B0:  MOVWF  x60
....................          if(MenuAntt!=Menu) 
043B2:  MOVF   x60,W
043B4:  SUBWF  x62,W
043B6:  BZ    43BC
....................             MenuAntt=Menu; 
043B8:  MOVFF  360,362
....................       }else if(RX_Buffer[3]==0x03){//03 es Tiempo Esterilizacion 
043BC:  BRA    44E0
043BE:  MOVF   33,W
043C0:  SUBLW  03
043C2:  BNZ   43D4
....................          Menu=2; 
043C4:  MOVLW  02
043C6:  MOVWF  x60
....................          if(MenuAntt!=Menu) 
043C8:  MOVF   x60,W
043CA:  SUBWF  x62,W
043CC:  BZ    43D2
....................             MenuAntt=Menu; 
043CE:  MOVFF  360,362
....................       }else if(RX_Buffer[3]==0x04){//04 es Tiempo de Secado 
043D2:  BRA    44E0
043D4:  MOVF   33,W
043D6:  SUBLW  04
043D8:  BNZ   43EA
....................          Menu=3; 
043DA:  MOVLW  03
043DC:  MOVWF  x60
....................          if(MenuAntt!=Menu) 
043DE:  MOVF   x60,W
043E0:  SUBWF  x62,W
043E2:  BZ    43E8
....................             MenuAntt=Menu; 
043E4:  MOVFF  360,362
....................       }else if(RX_Buffer[3]==0x05){//05 es Temperatura 
043E8:  BRA    44E0
043EA:  MOVF   33,W
043EC:  SUBLW  05
043EE:  BNZ   4400
....................          Menu=4; 
043F0:  MOVLW  04
043F2:  MOVWF  x60
....................          if(MenuAntt!=Menu) 
043F4:  MOVF   x60,W
043F6:  SUBWF  x62,W
043F8:  BZ    43FE
....................             MenuAntt=Menu; 
043FA:  MOVFF  360,362
....................       }else if(RX_Buffer[3]==0x06){//06 es Nivel 
043FE:  BRA    44E0
04400:  MOVF   33,W
04402:  SUBLW  06
04404:  BNZ   4416
....................          Menu=5; 
04406:  MOVLW  05
04408:  MOVWF  x60
....................          if(MenuAntt!=Menu) 
0440A:  MOVF   x60,W
0440C:  SUBWF  x62,W
0440E:  BZ    4414
....................             MenuAntt=Menu; 
04410:  MOVFF  360,362
....................       }else if(RX_Buffer[3]==0x07){//07 es Test de Componentes 
04414:  BRA    44E0
04416:  MOVF   33,W
04418:  SUBLW  07
0441A:  BNZ   442C
....................          Menu=6; 
0441C:  MOVLW  06
0441E:  MOVWF  x60
....................          if(MenuAntt!=Menu) 
04420:  MOVF   x60,W
04422:  SUBWF  x62,W
04424:  BZ    442A
....................             MenuAntt=Menu; 
04426:  MOVFF  360,362
....................       }else if(RX_Buffer[3]==0x08){//08 es Fecha y hora 
0442A:  BRA    44E0
0442C:  MOVF   33,W
0442E:  SUBLW  08
04430:  BNZ   4442
....................          Menu=7; 
04432:  MOVLW  07
04434:  MOVWF  x60
....................          if(MenuAntt!=Menu) 
04436:  MOVF   x60,W
04438:  SUBWF  x62,W
0443A:  BZ    4440
....................             MenuAntt=Menu; 
0443C:  MOVFF  360,362
....................       }else if(RX_Buffer[3]==0x09){//09 es Ciclos Personalizados 
04440:  BRA    44E0
04442:  MOVF   33,W
04444:  SUBLW  09
04446:  BNZ   4458
....................          Menu=8; 
04448:  MOVLW  08
0444A:  MOVWF  x60
....................          if(MenuAntt!=Menu) 
0444C:  MOVF   x60,W
0444E:  SUBWF  x62,W
04450:  BZ    4456
....................             MenuAntt=Menu; 
04452:  MOVFF  360,362
....................       }else if(RX_Buffer[3]==0x0d){//0d es Ciclos 
04456:  BRA    44E0
04458:  MOVF   33,W
0445A:  SUBLW  0D
0445C:  BNZ   446E
....................          Menu=12; 
0445E:  MOVLW  0C
04460:  MOVWF  x60
....................          if(MenuAntt!=Menu) 
04462:  MOVF   x60,W
04464:  SUBWF  x62,W
04466:  BZ    446C
....................             MenuAntt=Menu; 
04468:  MOVFF  360,362
....................       }else if(RX_Buffer[3]==0x0f){//0f es Recibe caracteres de contrasea desde display 
0446C:  BRA    44E0
0446E:  MOVF   33,W
04470:  SUBLW  0F
04472:  BNZ   4476
....................           
....................       }else if(RX_Buffer[3]==0x1a){//1a es Menu de Funcionamiento 
04474:  BRA    44E0
04476:  MOVF   33,W
04478:  SUBLW  1A
0447A:  BNZ   448C
....................          Menu=20; 
0447C:  MOVLW  14
0447E:  MOVWF  x60
....................          if(MenuAntt!=Menu) 
04480:  MOVF   x60,W
04482:  SUBWF  x62,W
04484:  BZ    448A
....................             MenuAntt=Menu; 
04486:  MOVFF  360,362
....................       }else if(RX_Buffer[3]==0x1b){//1b es Menu de clave correcta 
0448A:  BRA    44E0
0448C:  MOVF   33,W
0448E:  SUBLW  1B
04490:  BNZ   44A2
....................          Menu=15; 
04492:  MOVLW  0F
04494:  MOVWF  x60
....................          if(MenuAntt!=Menu) 
04496:  MOVF   x60,W
04498:  SUBWF  x62,W
0449A:  BZ    44A0
....................             MenuAntt=Menu; 
0449C:  MOVFF  360,362
....................       }else if(RX_Buffer[3]==0x1c){//1c es Menu de clave incorrecta 
044A0:  BRA    44E0
044A2:  MOVF   33,W
044A4:  SUBLW  1C
044A6:  BNZ   44B8
....................          Menu=16; 
044A8:  MOVLW  10
044AA:  MOVWF  x60
....................          if(MenuAntt!=Menu) 
044AC:  MOVF   x60,W
044AE:  SUBWF  x62,W
044B0:  BZ    44B6
....................             MenuAntt=Menu; 
044B2:  MOVFF  360,362
....................       }else if(RX_Buffer[3]==0x2c){//2c es Menu de Configuracion de Parametros 
044B6:  BRA    44E0
044B8:  MOVF   33,W
044BA:  SUBLW  2C
044BC:  BNZ   44CE
....................          Menu=100; 
044BE:  MOVLW  64
044C0:  MOVWF  x60
....................          if(MenuAntt!=Menu) 
044C2:  MOVF   x60,W
044C4:  SUBWF  x62,W
044C6:  BZ    44CC
....................             MenuAntt=Menu; 
044C8:  MOVFF  360,362
....................       }else if(RX_Buffer[3]==0xcc){//cc es Menu de Bienvenida 
044CC:  BRA    44E0
044CE:  MOVF   33,W
044D0:  SUBLW  CC
044D2:  BNZ   44E0
....................          Menu=240; 
044D4:  MOVLW  F0
044D6:  MOVWF  x60
....................          if(MenuAntt!=240) 
044D8:  MOVF   x62,W
044DA:  SUBLW  F0
044DC:  BZ    44E0
....................             reset_cpu(); 
044DE:  RESET
....................       } 
....................    }else{ 
044E0:  BRA    44EE
....................       for(z=0;z<RX_BUFFER_SIZE;z++){ 
044E2:  CLRF   x5F
044E4:  MOVF   x5F,W
044E6:  SUBLW  09
044E8:  BNC   44EE
....................             //Rx_Buffer[z]=0; 
....................             //Rx_Buffer2[z]=0; 
....................          } 
044EA:  INCF   x5F,F
044EC:  BRA    44E4
....................    } 
.................... } 
044EE:  MOVLB  0
044F0:  GOTO   82D8 (RETURN)
....................  
.................... void ConfiguraCiclo(int8 este0,este1,este2,este3,secado0,secado1,secado2,secado3,liquidos,ciclo,temperatura){ 
....................    Testerilizacionp[0]=este0;Testerilizacionp[1]=este1;Testerilizacionp[2]=este2;Testerilizacionp[3]=este3; 
*
04BC2:  MOVFF  44D,B6
04BC6:  MOVFF  44E,B7
04BCA:  MOVFF  44F,B8
04BCE:  MOVFF  450,B9
....................    Tsecadop[0]=secado0;Tsecadop[1]=secado1;Tsecadop[2]=secado2;Tsecadop[3]=secado3; 
04BD2:  MOVFF  451,BF
04BD6:  MOVFF  452,C0
04BDA:  MOVFF  453,C1
04BDE:  MOVFF  454,C2
....................    Setpoint=temperatura;                
04BE2:  MOVFF  457,367
....................    tiempo_secado=0; 
04BE6:  MOVLB  3
04BE8:  CLRF   x6B
....................    desfoguelento=liquidos; 
04BEA:  MOVLB  0
04BEC:  BCF    xA4.6
04BEE:  MOVLB  4
04BF0:  BTFSS  x55.0
04BF2:  BRA    4BFA
04BF4:  MOVLB  0
04BF6:  BSF    xA4.6
04BF8:  MOVLB  4
....................    CicloSeleccionado=ciclo; 
04BFA:  MOVFF  456,366
....................    Testerilizacion[0]=Testerilizacionp[0];Testerilizacion[1]=Testerilizacionp[1];Testerilizacion[2]=Testerilizacionp[2]; 
04BFE:  MOVFF  B6,B1
04C02:  MOVFF  B7,B2
04C06:  MOVFF  B8,B3
....................    Testerilizacion[3]=Testerilizacionp[3];Testerilizacion[4]=Testerilizacionp[4]; 
04C0A:  MOVFF  B9,B4
04C0E:  MOVFF  BA,B5
....................    Tsecado[0]=Tsecadop[0];Tsecado[1]=Tsecadop[1];Tsecado[2]=Tsecadop[2];Tsecado[3]=Tsecadop[3]; 
04C12:  MOVFF  BF,BB
04C16:  MOVFF  C0,BC
04C1A:  MOVFF  C1,BD
04C1E:  MOVFF  C2,BE
....................    Imprime=15; 
04C22:  MOVLW  0F
04C24:  MOVLB  3
04C26:  MOVWF  xB1
....................    Envio_Esclavos(); 
04C28:  MOVLB  0
04C2A:  RCALL  46BA
....................    delay_ms(100); 
04C2C:  MOVLW  64
04C2E:  MOVLB  4
04C30:  MOVWF  x58
04C32:  MOVLB  0
04C34:  CALL   1A3E
....................    Imprime=10; 
04C38:  MOVLW  0A
04C3A:  MOVLB  3
04C3C:  MOVWF  xB1
.................... } 
04C3E:  MOVLB  0
04C40:  RETLW  00
....................  
.................... void ActivaAlarma(int8 Tipo){ 
....................     
....................    if(tsilencio>12000){ 
*
0477C:  MOVLB  3
0477E:  MOVF   x9B,W
04780:  SUBLW  2D
04782:  BC    4796
04784:  XORLW  FF
04786:  BNZ   478E
04788:  MOVF   x9A,W
0478A:  SUBLW  E0
0478C:  BC    4796
....................       tsilencio=0; 
0478E:  CLRF   x9B
04790:  CLRF   x9A
....................       flagSilencio=OFF; 
04792:  MOVLB  0
04794:  BCF    xA3.3
....................    } 
....................     
....................    if(Tipo==1){ // Alarma por Error 
04796:  MOVLB  4
04798:  DECFSZ x43,W
0479A:  BRA    47F2
....................    if(UP || DOWN || RIGHT || LEFT) 
0479C:  BSF    F93.0
0479E:  BTFSS  F81.0
047A0:  BRA    47B4
047A2:  BSF    F93.1
047A4:  BTFSS  F81.1
047A6:  BRA    47B4
047A8:  BSF    F93.2
047AA:  BTFSS  F81.2
047AC:  BRA    47B4
047AE:  BSF    F93.3
047B0:  BTFSC  F81.3
047B2:  BRA    47B8
....................       flagSilencio=ON; 
047B4:  MOVLB  0
047B6:  BSF    xA3.3
....................        
....................       if(!flagSilencio){ 
047B8:  MOVLB  0
047BA:  BTFSC  xA3.3
047BC:  BRA    47E8
....................          flagAlarma=1; 
047BE:  BSF    xA3.1
....................          if(tbuzzer>200){ 
047C0:  MOVLB  3
047C2:  MOVF   x99,F
047C4:  BNZ   47CC
047C6:  MOVF   x98,W
047C8:  SUBLW  C8
047CA:  BC    47E4
....................             tbuzzer=0; 
047CC:  CLRF   x99
047CE:  CLRF   x98
....................             flagBuzzer=!flagBuzzer; 
047D0:  MOVLB  0
047D2:  BTG    xA3.2
....................             if(flagBuzzer) 
047D4:  BTFSS  xA3.2
047D6:  BRA    47DE
....................                Buzzer_on; 
047D8:  BSF    F8C.0
047DA:  BCF    F95.0
....................             else 
047DC:  BRA    47E2
....................                Buzzer_off; 
047DE:  BCF    F8C.0
047E0:  BCF    F95.0
047E2:  MOVLB  3
....................          } 
....................       }else{ 
047E4:  BRA    47EE
047E6:  MOVLB  0
....................          Buzzer_off; 
047E8:  BCF    F8C.0
047EA:  BCF    F95.0
047EC:  MOVLB  3
....................       } 
....................    }else if(Tipo==2){ 
047EE:  BRA    484C
047F0:  MOVLB  4
047F2:  MOVF   x43,W
047F4:  SUBLW  02
047F6:  BNZ   484E
....................    if(UP || DOWN || RIGHT || LEFT) 
047F8:  BSF    F93.0
047FA:  BTFSS  F81.0
047FC:  BRA    4810
047FE:  BSF    F93.1
04800:  BTFSS  F81.1
04802:  BRA    4810
04804:  BSF    F93.2
04806:  BTFSS  F81.2
04808:  BRA    4810
0480A:  BSF    F93.3
0480C:  BTFSC  F81.3
0480E:  BRA    4816
....................       ConteoBuzzer=21; 
04810:  MOVLW  15
04812:  MOVLB  3
04814:  MOVWF  x95
....................        
....................       flagAlarma=1; 
04816:  MOVLB  0
04818:  BSF    xA3.1
....................       if(ConteoBuzzer<20){    
0481A:  MOVLB  3
0481C:  MOVF   x95,W
0481E:  SUBLW  13
04820:  BNC   4848
....................          if(tbuzzer>100){ 
04822:  MOVF   x99,F
04824:  BNZ   482C
04826:  MOVF   x98,W
04828:  SUBLW  64
0482A:  BC    4846
....................             tbuzzer=0; 
0482C:  CLRF   x99
0482E:  CLRF   x98
....................             flagBuzzer=!flagBuzzer; 
04830:  MOVLB  0
04832:  BTG    xA3.2
....................             if(flagBuzzer) 
04834:  BTFSS  xA3.2
04836:  BRA    483E
....................                Buzzer_on; 
04838:  BSF    F8C.0
0483A:  BCF    F95.0
....................             else 
0483C:  BRA    4842
....................                Buzzer_off; 
0483E:  BCF    F8C.0
04840:  BCF    F95.0
....................                 
....................             ConteoBuzzer++;    
04842:  MOVLB  3
04844:  INCF   x95,F
....................          } 
....................       }else{ 
04846:  BRA    484C
....................          Buzzer_off; 
04848:  BCF    F8C.0
0484A:  BCF    F95.0
0484C:  MOVLB  4
....................       } 
....................    } 
.................... } 
0484E:  MOVLB  0
04850:  RETLW  00
....................  
.................... void CalientaChaqueta(){ 
....................    /*if(PresionPrecamara<130){ 
....................       SSR_on; 
....................    }else if(PresionPreCamara>150){ 
....................       SSR_off; 
....................    } 
....................    */                                  
....................    Tp=50; 
*
0778C:  CLRF   xAC
0778E:  MOVLW  32
07790:  MOVWF  xAB
....................    Tc=(Tciclo/0.005); 
07792:  MOVFF  2F3,44F
07796:  MOVFF  2F2,44E
0779A:  MOVFF  2F1,44D
0779E:  MOVFF  2F0,44C
077A2:  MOVLW  0A
077A4:  MOVLB  4
077A6:  MOVWF  x53
077A8:  MOVLW  D7
077AA:  MOVWF  x52
077AC:  MOVLW  23
077AE:  MOVWF  x51
077B0:  MOVLW  77
077B2:  MOVWF  x50
077B4:  MOVLB  0
077B6:  CALL   1A9C
077BA:  MOVFF  03,45B
077BE:  MOVFF  02,45A
077C2:  MOVFF  01,459
077C6:  MOVFF  00,458
077CA:  CALL   412A
077CE:  MOVFF  02,AE
077D2:  MOVFF  01,AD
....................    Controlando=1;  
077D6:  MOVLW  01
077D8:  MOVLB  3
077DA:  MOVWF  x58
.................... } 
077DC:  MOVLB  0
077DE:  GOTO   D520 (RETURN)
....................  
.................... void ApagaSalidas(){ 
....................    Desfogue_off; 
*
0395A:  BCF    F8C.4
0395C:  BCF    F95.4
....................    #ifdef Enfriador 
....................    Enfr_off; 
0395E:  BCF    F8C.6
03960:  BCF    F95.6
....................    #else 
....................    Bomba_off; 
....................    #endif 
....................    Buzzer_off; 
03962:  BCF    F8C.0
03964:  BCF    F95.0
....................    SSR_off; 
03966:  BSF    F8B.2
03968:  BCF    F94.2
....................    Aire=OFF; 
0396A:  BCF    xA4.1
....................    Agua_off; 
0396C:  BCF    F8C.5
0396E:  BCF    F95.5
....................    Controlando=0; 
03970:  MOVLB  3
03972:  CLRF   x58
.................... } 
03974:  MOVLB  0
03976:  RETLW  00
....................  
.................... int8 extraeDecima(int8 tiempo){ 
*
04F04:  MOVLB  4
04F06:  CLRF   x4B
04F08:  CLRF   x4C
....................    int8 tmp=0,decima=0; 
....................    tmp=tiempo/10; 
04F0A:  MOVFF  44A,44D
04F0E:  MOVLW  0A
04F10:  MOVWF  x4E
04F12:  MOVLB  0
04F14:  RCALL  48B0
04F16:  MOVFF  01,44B
....................    tmp=tmp*10; 
04F1A:  MOVLB  4
04F1C:  MOVF   x4B,W
04F1E:  MULLW  0A
04F20:  MOVFF  FF3,44B
....................    decima=tiempo-tmp; 
04F24:  MOVF   x4B,W
04F26:  SUBWF  x4A,W
04F28:  MOVWF  x4C
....................    return decima; 
04F2A:  MOVFF  44C,01
.................... } 
04F2E:  MOVLB  0
04F30:  RETLW  00
....................  
.................... int8 extraeDecimal(float data){ 
*
06342:  MOVLB  4
06344:  CLRF   x50
06346:  CLRF   x4F
06348:  CLRF   x4E
0634A:  CLRF   x4D
0634C:  CLRF   x54
0634E:  CLRF   x53
06350:  CLRF   x52
06352:  CLRF   x51
....................    float entero=0; 
....................    float tmp=0.0; 
....................     
....................    entero=(int8)data; 
06354:  MOVFF  44C,45B
06358:  MOVFF  44B,45A
0635C:  MOVFF  44A,459
06360:  MOVFF  449,458
06364:  MOVLB  0
06366:  CALL   412A
0636A:  MOVLB  4
0636C:  CLRF   x59
0636E:  MOVFF  01,458
06372:  MOVLB  0
06374:  CALL   1A66
06378:  MOVFF  03,450
0637C:  MOVFF  02,44F
06380:  MOVFF  01,44E
06384:  MOVFF  00,44D
....................    tmp=(data-entero)*10; 
06388:  BSF    FD8.1
0638A:  MOVFF  44C,45B
0638E:  MOVFF  44B,45A
06392:  MOVFF  44A,459
06396:  MOVFF  449,458
0639A:  MOVFF  450,45F
0639E:  MOVFF  44F,45E
063A2:  MOVFF  44E,45D
063A6:  MOVFF  44D,45C
063AA:  CALL   1BFA
063AE:  MOVFF  00,455
063B2:  MOVFF  01,456
063B6:  MOVFF  02,457
063BA:  MOVFF  03,458
063BE:  MOVFF  03,45F
063C2:  MOVFF  02,45E
063C6:  MOVFF  01,45D
063CA:  MOVFF  00,45C
063CE:  MOVLB  4
063D0:  CLRF   x63
063D2:  CLRF   x62
063D4:  MOVLW  20
063D6:  MOVWF  x61
063D8:  MOVLW  82
063DA:  MOVWF  x60
063DC:  MOVLB  0
063DE:  CALL   39F2
063E2:  MOVFF  03,454
063E6:  MOVFF  02,453
063EA:  MOVFF  01,452
063EE:  MOVFF  00,451
....................    return (int8)tmp; 
063F2:  MOVFF  454,45B
063F6:  MOVFF  453,45A
063FA:  MOVFF  452,459
063FE:  MOVFF  451,458
06402:  CALL   412A
06406:  MOVF   01,W
.................... } 
06408:  GOTO   651A (RETURN)
....................  
.................... void actualizaTabla(){ 
....................    diaCiclos=read_ext_eeprom(2+(cicloVisto*320)); 
*
05094:  MOVLB  4
05096:  CLRF   x4D
05098:  MOVFF  2E2,44C
0509C:  MOVLW  01
0509E:  MOVWF  x4F
050A0:  MOVLW  40
050A2:  MOVWF  x4E
050A4:  MOVLB  0
050A6:  CALL   39D0
050AA:  MOVFF  02,03
050AE:  MOVF   01,W
050B0:  ADDLW  02
050B2:  MOVLB  4
050B4:  MOVWF  x43
050B6:  MOVLW  00
050B8:  ADDWFC 02,W
050BA:  MOVWF  x44
050BC:  MOVWF  x49
050BE:  MOVFF  443,448
050C2:  MOVLB  0
050C4:  RCALL  4F9E
050C6:  MOVFF  01,3C9
....................          if(diaCiclos>31) 
050CA:  MOVLB  3
050CC:  MOVF   xC9,W
050CE:  SUBLW  1F
050D0:  BC    50D6
....................             diaCiclos=1; 
050D2:  MOVLW  01
050D4:  MOVWF  xC9
....................          mesCiclos=read_ext_eeprom(3+(cicloVisto*320)); 
050D6:  MOVLB  4
050D8:  CLRF   x4D
050DA:  MOVFF  2E2,44C
050DE:  MOVLW  01
050E0:  MOVWF  x4F
050E2:  MOVLW  40
050E4:  MOVWF  x4E
050E6:  MOVLB  0
050E8:  CALL   39D0
050EC:  MOVFF  02,03
050F0:  MOVF   01,W
050F2:  ADDLW  03
050F4:  MOVLB  4
050F6:  MOVWF  x43
050F8:  MOVLW  00
050FA:  ADDWFC 02,W
050FC:  MOVWF  x44
050FE:  MOVWF  x49
05100:  MOVFF  443,448
05104:  MOVLB  0
05106:  RCALL  4F9E
05108:  MOVFF  01,3CA
....................          if(mesCiclos>12) 
0510C:  MOVLB  3
0510E:  MOVF   xCA,W
05110:  SUBLW  0C
05112:  BC    5118
....................             mesCiclos=1; 
05114:  MOVLW  01
05116:  MOVWF  xCA
....................          yearCiclos=read_ext_eeprom(4+(cicloVisto*320)); 
05118:  MOVLB  4
0511A:  CLRF   x4D
0511C:  MOVFF  2E2,44C
05120:  MOVLW  01
05122:  MOVWF  x4F
05124:  MOVLW  40
05126:  MOVWF  x4E
05128:  MOVLB  0
0512A:  CALL   39D0
0512E:  MOVFF  02,03
05132:  MOVF   01,W
05134:  ADDLW  04
05136:  MOVLB  4
05138:  MOVWF  x43
0513A:  MOVLW  00
0513C:  ADDWFC 02,W
0513E:  MOVWF  x44
05140:  MOVWF  x49
05142:  MOVFF  443,448
05146:  MOVLB  0
05148:  RCALL  4F9E
0514A:  MOVFF  01,3CB
....................          if(yearCiclos>99) 
0514E:  MOVLB  3
05150:  MOVF   xCB,W
05152:  SUBLW  63
05154:  BC    515A
....................             yearCiclos=19; 
05156:  MOVLW  13
05158:  MOVWF  xCB
....................          cicloCiclos=read_ext_eeprom(1+(cicloVisto*320)); 
0515A:  MOVLB  4
0515C:  CLRF   x4D
0515E:  MOVFF  2E2,44C
05162:  MOVLW  01
05164:  MOVWF  x4F
05166:  MOVLW  40
05168:  MOVWF  x4E
0516A:  MOVLB  0
0516C:  CALL   39D0
05170:  MOVFF  02,03
05174:  MOVF   01,W
05176:  ADDLW  01
05178:  MOVLB  4
0517A:  MOVWF  x43
0517C:  MOVLW  00
0517E:  ADDWFC 02,W
05180:  MOVWF  x44
05182:  MOVWF  x49
05184:  MOVFF  443,448
05188:  MOVLB  0
0518A:  RCALL  4F9E
0518C:  MOVFF  01,3CD
....................          if(cicloCiclos>20) 
05190:  MOVLB  3
05192:  MOVF   xCD,W
05194:  SUBLW  14
05196:  BC    519C
....................             cicloCiclos=1; 
05198:  MOVLW  01
0519A:  MOVWF  xCD
....................          usuarioCiclos=read_ext_eeprom((cicloVisto*320)); 
0519C:  MOVLB  4
0519E:  CLRF   x4D
051A0:  MOVFF  2E2,44C
051A4:  MOVLW  01
051A6:  MOVWF  x4F
051A8:  MOVLW  40
051AA:  MOVWF  x4E
051AC:  MOVLB  0
051AE:  CALL   39D0
051B2:  MOVFF  02,444
051B6:  MOVFF  01,443
051BA:  MOVFF  02,449
051BE:  MOVFF  01,448
051C2:  RCALL  4F9E
051C4:  MOVFF  01,3CC
....................          if(usuarioCiclos>10) 
051C8:  MOVLB  3
051CA:  MOVF   xCC,W
051CC:  SUBLW  0A
051CE:  BC    51D4
....................             usuarioCiclos=1; 
051D0:  MOVLW  01
051D2:  MOVWF  xCC
....................          for(i=0;i<7;i++){//Lee Valores para completar la Tabla 
051D4:  CLRF   x63
051D6:  MOVF   x63,W
051D8:  SUBLW  06
051DA:  BTFSS  FD8.0
051DC:  BRA    5724
....................             horaCiclos[i]=read_ext_eeprom((cicloVisto*320)+11+((cicloVisualizado+i)*9)); 
051DE:  CLRF   03
051E0:  MOVF   x63,W
051E2:  ADDLW  06
051E4:  MOVWF  01
051E6:  MOVLW  04
051E8:  ADDWFC 03,F
051EA:  MOVFF  01,443
051EE:  MOVLB  4
051F0:  MOVFF  03,444
051F4:  CLRF   x4D
051F6:  MOVFF  2E2,44C
051FA:  MOVLW  01
051FC:  MOVWF  x4F
051FE:  MOVLW  40
05200:  MOVWF  x4E
05202:  MOVLB  0
05204:  CALL   39D0
05208:  MOVFF  02,446
0520C:  MOVFF  01,445
05210:  MOVLW  0B
05212:  MOVLB  4
05214:  ADDWF  x45,F
05216:  MOVLW  00
05218:  ADDWFC x46,F
0521A:  MOVLB  3
0521C:  MOVF   x63,W
0521E:  MOVLB  2
05220:  ADDWF  xE3,W
05222:  MULLW  09
05224:  MOVF   FF3,W
05226:  MOVLB  4
05228:  ADDWF  x45,F
0522A:  MOVLW  00
0522C:  ADDWFC x46,F
0522E:  MOVFF  446,449
05232:  MOVFF  445,448
05236:  MOVLB  0
05238:  RCALL  4F9E
0523A:  MOVFF  444,FEA
0523E:  MOVFF  443,FE9
05242:  MOVFF  01,FEF
....................             if(horaCiclos[i]>24) 
05246:  CLRF   03
05248:  MOVLB  3
0524A:  MOVF   x63,W
0524C:  ADDLW  06
0524E:  MOVWF  FE9
05250:  MOVLW  04
05252:  ADDWFC 03,W
05254:  MOVWF  FEA
05256:  MOVF   FEF,W
05258:  SUBLW  18
0525A:  BC    526C
....................                horaCiclos[i]=0; 
0525C:  CLRF   03
0525E:  MOVF   x63,W
05260:  ADDLW  06
05262:  MOVWF  FE9
05264:  MOVLW  04
05266:  ADDWFC 03,W
05268:  MOVWF  FEA
0526A:  CLRF   FEF
....................             minutoCiclos[i]=read_ext_eeprom((cicloVisto*320)+12+((cicloVisualizado+i)*9)); 
0526C:  CLRF   03
0526E:  MOVF   x63,W
05270:  ADDLW  0D
05272:  MOVWF  01
05274:  MOVLW  04
05276:  ADDWFC 03,F
05278:  MOVFF  01,443
0527C:  MOVLB  4
0527E:  MOVFF  03,444
05282:  CLRF   x4D
05284:  MOVFF  2E2,44C
05288:  MOVLW  01
0528A:  MOVWF  x4F
0528C:  MOVLW  40
0528E:  MOVWF  x4E
05290:  MOVLB  0
05292:  CALL   39D0
05296:  MOVFF  02,446
0529A:  MOVFF  01,445
0529E:  MOVLW  0C
052A0:  MOVLB  4
052A2:  ADDWF  x45,F
052A4:  MOVLW  00
052A6:  ADDWFC x46,F
052A8:  MOVLB  3
052AA:  MOVF   x63,W
052AC:  MOVLB  2
052AE:  ADDWF  xE3,W
052B0:  MULLW  09
052B2:  MOVF   FF3,W
052B4:  MOVLB  4
052B6:  ADDWF  x45,F
052B8:  MOVLW  00
052BA:  ADDWFC x46,F
052BC:  MOVFF  446,449
052C0:  MOVFF  445,448
052C4:  MOVLB  0
052C6:  RCALL  4F9E
052C8:  MOVFF  444,FEA
052CC:  MOVFF  443,FE9
052D0:  MOVFF  01,FEF
....................             if(minutoCiclos[i]>59) 
052D4:  CLRF   03
052D6:  MOVLB  3
052D8:  MOVF   x63,W
052DA:  ADDLW  0D
052DC:  MOVWF  FE9
052DE:  MOVLW  04
052E0:  ADDWFC 03,W
052E2:  MOVWF  FEA
052E4:  MOVF   FEF,W
052E6:  SUBLW  3B
052E8:  BC    52FA
....................                minutoCiclos[i]=0; 
052EA:  CLRF   03
052EC:  MOVF   x63,W
052EE:  ADDLW  0D
052F0:  MOVWF  FE9
052F2:  MOVLW  04
052F4:  ADDWFC 03,W
052F6:  MOVWF  FEA
052F8:  CLRF   FEF
....................             TCiclos[i]=read_ext_eeprom((cicloVisto*320)+5+((cicloVisualizado+i)*9))+inttofloat(read_ext_eeprom((cicloVisto*320)+6+((cicloVisualizado+i)*9))); 
052FA:  MOVF   x63,W
052FC:  MULLW  04
052FE:  MOVF   FF3,W
05300:  CLRF   03
05302:  ADDLW  CE
05304:  MOVWF  01
05306:  MOVLW  03
05308:  ADDWFC 03,F
0530A:  MOVFF  01,443
0530E:  MOVLB  4
05310:  MOVFF  03,444
05314:  CLRF   x4D
05316:  MOVFF  2E2,44C
0531A:  MOVLW  01
0531C:  MOVWF  x4F
0531E:  MOVLW  40
05320:  MOVWF  x4E
05322:  MOVLB  0
05324:  CALL   39D0
05328:  MOVFF  02,446
0532C:  MOVFF  01,445
05330:  MOVLW  05
05332:  MOVLB  4
05334:  ADDWF  x45,F
05336:  MOVLW  00
05338:  ADDWFC x46,F
0533A:  MOVLB  3
0533C:  MOVF   x63,W
0533E:  MOVLB  2
05340:  ADDWF  xE3,W
05342:  MULLW  09
05344:  MOVF   FF3,W
05346:  MOVLB  4
05348:  ADDWF  x45,F
0534A:  MOVLW  00
0534C:  ADDWFC x46,F
0534E:  MOVFF  446,449
05352:  MOVFF  445,448
05356:  MOVLB  0
05358:  RCALL  4F9E
0535A:  MOVFF  01,445
0535E:  MOVLB  4
05360:  CLRF   x4D
05362:  MOVFF  2E2,44C
05366:  MOVLW  01
05368:  MOVWF  x4F
0536A:  MOVLW  40
0536C:  MOVWF  x4E
0536E:  MOVLB  0
05370:  CALL   39D0
05374:  MOVFF  02,447
05378:  MOVFF  01,446
0537C:  MOVLW  06
0537E:  MOVLB  4
05380:  ADDWF  x46,F
05382:  MOVLW  00
05384:  ADDWFC x47,F
05386:  MOVLB  3
05388:  MOVF   x63,W
0538A:  MOVLB  2
0538C:  ADDWF  xE3,W
0538E:  MULLW  09
05390:  MOVF   FF3,W
05392:  MOVLB  4
05394:  ADDWF  x46,F
05396:  MOVLW  00
05398:  ADDWFC x47,F
0539A:  MOVFF  447,449
0539E:  MOVFF  446,448
053A2:  MOVLB  0
053A4:  RCALL  4F9E
053A6:  MOVFF  01,446
053AA:  MOVFF  01,447
053AE:  BRA    504E
053B0:  MOVFF  00,446
053B4:  MOVFF  01,447
053B8:  MOVFF  02,448
053BC:  MOVFF  03,449
053C0:  MOVLB  4
053C2:  CLRF   x59
053C4:  MOVFF  445,458
053C8:  MOVLB  0
053CA:  CALL   1A66
053CE:  MOVFF  FEA,44B
053D2:  MOVFF  FE9,44A
053D6:  BCF    FD8.1
053D8:  MOVFF  03,45B
053DC:  MOVFF  02,45A
053E0:  MOVFF  01,459
053E4:  MOVFF  00,458
053E8:  MOVFF  449,45F
053EC:  MOVFF  448,45E
053F0:  MOVFF  447,45D
053F4:  MOVFF  446,45C
053F8:  CALL   1BFA
053FC:  MOVFF  44B,FEA
05400:  MOVFF  44A,FE9
05404:  MOVFF  444,FEA
05408:  MOVFF  443,FE9
0540C:  MOVFF  00,FEF
05410:  MOVFF  01,FEC
05414:  MOVFF  02,FEC
05418:  MOVFF  03,FEC
....................             if(TCiclos[i]>150) 
0541C:  MOVLB  3
0541E:  MOVF   x63,W
05420:  MULLW  04
05422:  MOVF   FF3,W
05424:  CLRF   03
05426:  ADDLW  CE
05428:  MOVWF  FE9
0542A:  MOVLW  03
0542C:  ADDWFC 03,W
0542E:  MOVWF  FEA
05430:  MOVFF  FEF,443
05434:  MOVFF  FEC,444
05438:  MOVFF  FEC,445
0543C:  MOVFF  FEC,446
05440:  MOVLB  4
05442:  CLRF   x4E
05444:  CLRF   x4D
05446:  MOVLW  16
05448:  MOVWF  x4C
0544A:  MOVLW  86
0544C:  MOVWF  x4B
0544E:  MOVFF  446,452
05452:  MOVFF  445,451
05456:  MOVFF  444,450
0545A:  MOVFF  443,44F
0545E:  MOVLB  0
05460:  CALL   2D72
05464:  BNC   5484
....................                TCiclos[i]=0; 
05466:  MOVLB  3
05468:  MOVF   x63,W
0546A:  MULLW  04
0546C:  MOVF   FF3,W
0546E:  CLRF   03
05470:  ADDLW  CE
05472:  MOVWF  FE9
05474:  MOVLW  03
05476:  ADDWFC 03,W
05478:  MOVWF  FEA
0547A:  CLRF   FEF
0547C:  CLRF   FEC
0547E:  CLRF   FEC
05480:  CLRF   FEC
05482:  MOVLB  0
....................             PcCiclos[i]=make16(read_ext_eeprom((cicloVisto*320)+7+((cicloVisualizado+i)*9)),read_ext_eeprom((cicloVisto*320)+8+((cicloVisualizado+i)*9))); 
05484:  BCF    FD8.0
05486:  MOVLB  3
05488:  RLCF   x63,W
0548A:  CLRF   03
0548C:  ADDLW  EA
0548E:  MOVWF  01
05490:  MOVLW  03
05492:  ADDWFC 03,F
05494:  MOVFF  01,443
05498:  MOVLB  4
0549A:  MOVFF  03,444
0549E:  CLRF   x4D
054A0:  MOVFF  2E2,44C
054A4:  MOVLW  01
054A6:  MOVWF  x4F
054A8:  MOVLW  40
054AA:  MOVWF  x4E
054AC:  MOVLB  0
054AE:  CALL   39D0
054B2:  MOVFF  02,446
054B6:  MOVFF  01,445
054BA:  MOVLW  07
054BC:  MOVLB  4
054BE:  ADDWF  x45,F
054C0:  MOVLW  00
054C2:  ADDWFC x46,F
054C4:  MOVLB  3
054C6:  MOVF   x63,W
054C8:  MOVLB  2
054CA:  ADDWF  xE3,W
054CC:  MULLW  09
054CE:  MOVF   FF3,W
054D0:  MOVLB  4
054D2:  ADDWF  x45,F
054D4:  MOVLW  00
054D6:  ADDWFC x46,F
054D8:  MOVFF  446,449
054DC:  MOVFF  445,448
054E0:  MOVLB  0
054E2:  RCALL  4F9E
054E4:  MOVFF  01,445
054E8:  MOVLB  4
054EA:  CLRF   x4D
054EC:  MOVFF  2E2,44C
054F0:  MOVLW  01
054F2:  MOVWF  x4F
054F4:  MOVLW  40
054F6:  MOVWF  x4E
054F8:  MOVLB  0
054FA:  CALL   39D0
054FE:  MOVFF  02,447
05502:  MOVFF  01,446
05506:  MOVLW  08
05508:  MOVLB  4
0550A:  ADDWF  x46,F
0550C:  MOVLW  00
0550E:  ADDWFC x47,F
05510:  MOVLB  3
05512:  MOVF   x63,W
05514:  MOVLB  2
05516:  ADDWF  xE3,W
05518:  MULLW  09
0551A:  MOVF   FF3,W
0551C:  MOVLB  4
0551E:  ADDWF  x46,F
05520:  MOVLW  00
05522:  ADDWFC x47,F
05524:  MOVFF  447,449
05528:  MOVFF  446,448
0552C:  MOVLB  0
0552E:  RCALL  4F9E
05530:  MOVFF  444,FEA
05534:  MOVFF  443,FE9
05538:  MOVFF  445,FEC
0553C:  MOVF   FED,F
0553E:  MOVFF  01,FEF
....................             if(PcCiclos[i]>400) 
05542:  BCF    FD8.0
05544:  MOVLB  3
05546:  RLCF   x63,W
05548:  CLRF   03
0554A:  ADDLW  EA
0554C:  MOVWF  FE9
0554E:  MOVLW  03
05550:  ADDWFC 03,W
05552:  MOVWF  FEA
05554:  MOVFF  FEC,444
05558:  MOVF   FED,F
0555A:  MOVFF  FEF,443
0555E:  MOVLB  4
05560:  MOVF   x44,W
05562:  SUBLW  00
05564:  BC    558A
05566:  XORLW  FF
05568:  BNZ   5570
0556A:  MOVF   x43,W
0556C:  SUBLW  90
0556E:  BC    558A
....................                PcCiclos[i]=0; 
05570:  BCF    FD8.0
05572:  MOVLB  3
05574:  RLCF   x63,W
05576:  CLRF   03
05578:  ADDLW  EA
0557A:  MOVWF  FE9
0557C:  MOVLW  03
0557E:  ADDWFC 03,W
05580:  MOVWF  FEA
05582:  CLRF   FEC
05584:  MOVF   FED,F
05586:  CLRF   FEF
05588:  MOVLB  4
....................             PpcCiclos[i]=make16(read_ext_eeprom((cicloVisto*320)+9+((cicloVisualizado+i)*9)),read_ext_eeprom((cicloVisto*320)+10+((cicloVisualizado+i)*9))); 
0558A:  BCF    FD8.0
0558C:  MOVLB  3
0558E:  RLCF   x63,W
05590:  CLRF   03
05592:  ADDLW  F8
05594:  MOVWF  01
05596:  MOVLW  03
05598:  ADDWFC 03,F
0559A:  MOVFF  01,443
0559E:  MOVLB  4
055A0:  MOVFF  03,444
055A4:  CLRF   x4D
055A6:  MOVFF  2E2,44C
055AA:  MOVLW  01
055AC:  MOVWF  x4F
055AE:  MOVLW  40
055B0:  MOVWF  x4E
055B2:  MOVLB  0
055B4:  CALL   39D0
055B8:  MOVFF  02,446
055BC:  MOVFF  01,445
055C0:  MOVLW  09
055C2:  MOVLB  4
055C4:  ADDWF  x45,F
055C6:  MOVLW  00
055C8:  ADDWFC x46,F
055CA:  MOVLB  3
055CC:  MOVF   x63,W
055CE:  MOVLB  2
055D0:  ADDWF  xE3,W
055D2:  MULLW  09
055D4:  MOVF   FF3,W
055D6:  MOVLB  4
055D8:  ADDWF  x45,F
055DA:  MOVLW  00
055DC:  ADDWFC x46,F
055DE:  MOVFF  446,449
055E2:  MOVFF  445,448
055E6:  MOVLB  0
055E8:  RCALL  4F9E
055EA:  MOVFF  01,445
055EE:  MOVLB  4
055F0:  CLRF   x4D
055F2:  MOVFF  2E2,44C
055F6:  MOVLW  01
055F8:  MOVWF  x4F
055FA:  MOVLW  40
055FC:  MOVWF  x4E
055FE:  MOVLB  0
05600:  CALL   39D0
05604:  MOVFF  02,447
05608:  MOVFF  01,446
0560C:  MOVLW  0A
0560E:  MOVLB  4
05610:  ADDWF  x46,F
05612:  MOVLW  00
05614:  ADDWFC x47,F
05616:  MOVLB  3
05618:  MOVF   x63,W
0561A:  MOVLB  2
0561C:  ADDWF  xE3,W
0561E:  MULLW  09
05620:  MOVF   FF3,W
05622:  MOVLB  4
05624:  ADDWF  x46,F
05626:  MOVLW  00
05628:  ADDWFC x47,F
0562A:  MOVFF  447,449
0562E:  MOVFF  446,448
05632:  MOVLB  0
05634:  RCALL  4F9E
05636:  MOVFF  444,FEA
0563A:  MOVFF  443,FE9
0563E:  MOVFF  445,FEC
05642:  MOVF   FED,F
05644:  MOVFF  01,FEF
....................             if(PpcCiclos[i]>400) 
05648:  BCF    FD8.0
0564A:  MOVLB  3
0564C:  RLCF   x63,W
0564E:  CLRF   03
05650:  ADDLW  F8
05652:  MOVWF  FE9
05654:  MOVLW  03
05656:  ADDWFC 03,W
05658:  MOVWF  FEA
0565A:  MOVFF  FEC,444
0565E:  MOVF   FED,F
05660:  MOVFF  FEF,443
05664:  MOVLB  4
05666:  MOVF   x44,W
05668:  SUBLW  00
0566A:  BC    5690
0566C:  XORLW  FF
0566E:  BNZ   5676
05670:  MOVF   x43,W
05672:  SUBLW  90
05674:  BC    5690
....................                PpcCiclos[i]=0; 
05676:  BCF    FD8.0
05678:  MOVLB  3
0567A:  RLCF   x63,W
0567C:  CLRF   03
0567E:  ADDLW  F8
05680:  MOVWF  FE9
05682:  MOVLW  03
05684:  ADDWFC 03,W
05686:  MOVWF  FEA
05688:  CLRF   FEC
0568A:  MOVF   FED,F
0568C:  CLRF   FEF
0568E:  MOVLB  4
....................             ACiclos[i]=read_ext_eeprom((cicloVisto*320)+13+((cicloVisualizado+i)*9)); 
05690:  CLRF   03
05692:  MOVLB  3
05694:  MOVF   x63,W
05696:  ADDLW  14
05698:  MOVWF  01
0569A:  MOVLW  04
0569C:  ADDWFC 03,F
0569E:  MOVFF  01,443
056A2:  MOVLB  4
056A4:  MOVFF  03,444
056A8:  CLRF   x4D
056AA:  MOVFF  2E2,44C
056AE:  MOVLW  01
056B0:  MOVWF  x4F
056B2:  MOVLW  40
056B4:  MOVWF  x4E
056B6:  MOVLB  0
056B8:  CALL   39D0
056BC:  MOVFF  02,446
056C0:  MOVFF  01,445
056C4:  MOVLW  0D
056C6:  MOVLB  4
056C8:  ADDWF  x45,F
056CA:  MOVLW  00
056CC:  ADDWFC x46,F
056CE:  MOVLB  3
056D0:  MOVF   x63,W
056D2:  MOVLB  2
056D4:  ADDWF  xE3,W
056D6:  MULLW  09
056D8:  MOVF   FF3,W
056DA:  MOVLB  4
056DC:  ADDWF  x45,F
056DE:  MOVLW  00
056E0:  ADDWFC x46,F
056E2:  MOVFF  446,449
056E6:  MOVFF  445,448
056EA:  MOVLB  0
056EC:  RCALL  4F9E
056EE:  MOVFF  444,FEA
056F2:  MOVFF  443,FE9
056F6:  MOVFF  01,FEF
....................             if(ACiclos[i]>30) 
056FA:  CLRF   03
056FC:  MOVLB  3
056FE:  MOVF   x63,W
05700:  ADDLW  14
05702:  MOVWF  FE9
05704:  MOVLW  04
05706:  ADDWFC 03,W
05708:  MOVWF  FEA
0570A:  MOVF   FEF,W
0570C:  SUBLW  1E
0570E:  BC    5720
....................                ACiclos[i]=0; 
05710:  CLRF   03
05712:  MOVF   x63,W
05714:  ADDLW  14
05716:  MOVWF  FE9
05718:  MOVLW  04
0571A:  ADDWFC 03,W
0571C:  MOVWF  FEA
0571E:  CLRF   FEF
....................          } 
05720:  INCF   x63,F
05722:  BRA    51D6
.................... } 
05724:  MOVLB  0
05726:  RETLW  00
.................... void GuardaDatoEstatico(){ 
*
06150:  MOVLB  4
06152:  CLRF   x44
06154:  CLRF   x43
06156:  CLRF   x46
06158:  CLRF   x45
....................    int16 posCiclo=0,cicloMemoria=0; 
....................    posCiclo=Ciclos/200; 
0615A:  MOVFF  37E,448
0615E:  MOVFF  37D,447
06162:  CLRF   x4A
06164:  MOVLW  C8
06166:  MOVWF  x49
06168:  MOVLB  0
0616A:  CALL   4CEC
0616E:  MOVFF  02,444
06172:  MOVFF  01,443
....................    cicloMemoria=Ciclos-(posCiclo*200); 
06176:  MOVFF  444,44D
0617A:  MOVFF  443,44C
0617E:  MOVLB  4
06180:  CLRF   x4F
06182:  MOVLW  C8
06184:  MOVWF  x4E
06186:  MOVLB  0
06188:  CALL   39D0
0618C:  MOVF   01,W
0618E:  MOVLB  3
06190:  SUBWF  x7D,W
06192:  MOVLB  4
06194:  MOVWF  x45
06196:  MOVF   02,W
06198:  MOVLB  3
0619A:  SUBWFB x7E,W
0619C:  MOVLB  4
0619E:  MOVWF  x46
....................    if(!disp_Guarda){ 
061A0:  MOVLB  0
061A2:  BTFSC  xA4.2
061A4:  BRA    633E
....................       write_ext_eeprom(cicloMemoria*320,1); 
061A6:  MOVFF  446,44D
061AA:  MOVFF  445,44C
061AE:  MOVLW  01
061B0:  MOVLB  4
061B2:  MOVWF  x4F
061B4:  MOVLW  40
061B6:  MOVWF  x4E
061B8:  MOVLB  0
061BA:  CALL   39D0
061BE:  MOVFF  02,448
061C2:  MOVFF  01,447
061C6:  MOVFF  02,44B
061CA:  MOVFF  01,44A
061CE:  MOVLW  01
061D0:  MOVLB  4
061D2:  MOVWF  x4C
061D4:  MOVLB  0
061D6:  RCALL  6044
....................       delay_ms(10); 
061D8:  MOVLW  0A
061DA:  MOVLB  4
061DC:  MOVWF  x58
061DE:  MOVLB  0
061E0:  CALL   1A3E
....................       if(!Libre) 
061E4:  BTFSC  xA3.6
061E6:  BRA    6222
....................          write_ext_eeprom(1+(cicloMemoria*320),CicloSeleccionado); 
061E8:  MOVFF  446,44D
061EC:  MOVFF  445,44C
061F0:  MOVLW  01
061F2:  MOVLB  4
061F4:  MOVWF  x4F
061F6:  MOVLW  40
061F8:  MOVWF  x4E
061FA:  MOVLB  0
061FC:  CALL   39D0
06200:  MOVFF  02,03
06204:  MOVF   01,W
06206:  ADDLW  01
06208:  MOVLB  4
0620A:  MOVWF  x47
0620C:  MOVLW  00
0620E:  ADDWFC 02,W
06210:  MOVWF  x48
06212:  MOVWF  x4B
06214:  MOVFF  447,44A
06218:  MOVFF  366,44C
0621C:  MOVLB  0
0621E:  RCALL  6044
....................       else 
06220:  BRA    6264
....................          write_ext_eeprom(1+(cicloMemoria*320),CicloLibre+4); 
06222:  MOVFF  446,44D
06226:  MOVFF  445,44C
0622A:  MOVLW  01
0622C:  MOVLB  4
0622E:  MOVWF  x4F
06230:  MOVLW  40
06232:  MOVWF  x4E
06234:  MOVLB  0
06236:  CALL   39D0
0623A:  MOVFF  02,03
0623E:  MOVF   01,W
06240:  ADDLW  01
06242:  MOVLB  4
06244:  MOVWF  x47
06246:  MOVLW  00
06248:  ADDWFC 02,W
0624A:  MOVWF  x48
0624C:  MOVLW  04
0624E:  MOVLB  3
06250:  ADDWF  x3E,W
06252:  MOVLB  4
06254:  MOVWF  x49
06256:  MOVFF  448,44B
0625A:  MOVFF  447,44A
0625E:  MOVWF  x4C
06260:  MOVLB  0
06262:  RCALL  6044
....................       delay_ms(10); 
06264:  MOVLW  0A
06266:  MOVLB  4
06268:  MOVWF  x58
0626A:  MOVLB  0
0626C:  CALL   1A3E
....................       write_ext_eeprom(2+(cicloMemoria*320),Dia); 
06270:  MOVFF  446,44D
06274:  MOVFF  445,44C
06278:  MOVLW  01
0627A:  MOVLB  4
0627C:  MOVWF  x4F
0627E:  MOVLW  40
06280:  MOVWF  x4E
06282:  MOVLB  0
06284:  CALL   39D0
06288:  MOVFF  02,03
0628C:  MOVF   01,W
0628E:  ADDLW  02
06290:  MOVLB  4
06292:  MOVWF  x47
06294:  MOVLW  00
06296:  ADDWFC 02,W
06298:  MOVWF  x48
0629A:  MOVWF  x4B
0629C:  MOVFF  447,44A
062A0:  MOVFF  3A4,44C
062A4:  MOVLB  0
062A6:  RCALL  6044
....................       delay_ms(10); 
062A8:  MOVLW  0A
062AA:  MOVLB  4
062AC:  MOVWF  x58
062AE:  MOVLB  0
062B0:  CALL   1A3E
....................       write_ext_eeprom(3+(cicloMemoria*320),Mes); 
062B4:  MOVFF  446,44D
062B8:  MOVFF  445,44C
062BC:  MOVLW  01
062BE:  MOVLB  4
062C0:  MOVWF  x4F
062C2:  MOVLW  40
062C4:  MOVWF  x4E
062C6:  MOVLB  0
062C8:  CALL   39D0
062CC:  MOVFF  02,03
062D0:  MOVF   01,W
062D2:  ADDLW  03
062D4:  MOVLB  4
062D6:  MOVWF  x47
062D8:  MOVLW  00
062DA:  ADDWFC 02,W
062DC:  MOVWF  x48
062DE:  MOVWF  x4B
062E0:  MOVFF  447,44A
062E4:  MOVFF  3A3,44C
062E8:  MOVLB  0
062EA:  RCALL  6044
....................       delay_ms(10); 
062EC:  MOVLW  0A
062EE:  MOVLB  4
062F0:  MOVWF  x58
062F2:  MOVLB  0
062F4:  CALL   1A3E
....................       write_ext_eeprom(4+(cicloMemoria*320),Year); 
062F8:  MOVFF  446,44D
062FC:  MOVFF  445,44C
06300:  MOVLW  01
06302:  MOVLB  4
06304:  MOVWF  x4F
06306:  MOVLW  40
06308:  MOVWF  x4E
0630A:  MOVLB  0
0630C:  CALL   39D0
06310:  MOVFF  02,03
06314:  MOVF   01,W
06316:  ADDLW  04
06318:  MOVLB  4
0631A:  MOVWF  x47
0631C:  MOVLW  00
0631E:  ADDWFC 02,W
06320:  MOVWF  x48
06322:  MOVWF  x4B
06324:  MOVFF  447,44A
06328:  MOVFF  3A2,44C
0632C:  MOVLB  0
0632E:  RCALL  6044
....................       delay_ms(10);  
06330:  MOVLW  0A
06332:  MOVLB  4
06334:  MOVWF  x58
06336:  MOVLB  0
06338:  CALL   1A3E
....................       disp_Guarda=1; 
0633C:  BSF    xA4.2
....................    }    
.................... } 
0633E:  GOTO   C898 (RETURN)
....................  
.................... void GuardaDatoCiclo(){ 
*
0640C:  MOVLB  4
0640E:  CLRF   x44
06410:  CLRF   x43
06412:  CLRF   x46
06414:  CLRF   x45
....................    int16 posCiclo=0,cicloMemoria=0; 
....................    posCiclo=Ciclos/200; 
06416:  MOVFF  37E,448
0641A:  MOVFF  37D,447
0641E:  CLRF   x4A
06420:  MOVLW  C8
06422:  MOVWF  x49
06424:  MOVLB  0
06426:  CALL   4CEC
0642A:  MOVFF  02,444
0642E:  MOVFF  01,443
....................    if(!Ciclo){ 
06432:  BTFSC  xA1.5
06434:  BRA    67AC
....................       cicloMemoria=Ciclos-(posCiclo*200); 
06436:  MOVFF  444,44D
0643A:  MOVFF  443,44C
0643E:  MOVLB  4
06440:  CLRF   x4F
06442:  MOVLW  C8
06444:  MOVWF  x4E
06446:  MOVLB  0
06448:  CALL   39D0
0644C:  MOVF   01,W
0644E:  MOVLB  3
06450:  SUBWF  x7D,W
06452:  MOVLB  4
06454:  MOVWF  x45
06456:  MOVF   02,W
06458:  MOVLB  3
0645A:  SUBWFB x7E,W
0645C:  MOVLB  4
0645E:  MOVWF  x46
....................       write_ext_eeprom(5+(cicloMemoria*320)+(posicionDato*9),(int8)Temperatura); 
06460:  MOVFF  446,44D
06464:  MOVFF  445,44C
06468:  MOVLW  01
0646A:  MOVWF  x4F
0646C:  MOVLW  40
0646E:  MOVWF  x4E
06470:  MOVLB  0
06472:  CALL   39D0
06476:  MOVFF  02,03
0647A:  MOVF   01,W
0647C:  ADDLW  05
0647E:  MOVLB  4
06480:  MOVWF  x47
06482:  MOVLW  00
06484:  ADDWFC 02,W
06486:  MOVWF  x48
06488:  MOVLB  2
0648A:  MOVF   xE4,W
0648C:  MULLW  09
0648E:  MOVF   FF3,W
06490:  MOVLB  4
06492:  ADDWF  x47,F
06494:  MOVLW  00
06496:  ADDWFC x48,F
06498:  MOVFF  32B,45B
0649C:  MOVFF  32A,45A
064A0:  MOVFF  329,459
064A4:  MOVFF  328,458
064A8:  MOVLB  0
064AA:  CALL   412A
064AE:  MOVFF  01,449
064B2:  MOVFF  448,44B
064B6:  MOVFF  447,44A
064BA:  MOVFF  01,44C
064BE:  RCALL  6044
....................       delay_ms(10); 
064C0:  MOVLW  0A
064C2:  MOVLB  4
064C4:  MOVWF  x58
064C6:  MOVLB  0
064C8:  CALL   1A3E
....................       write_ext_eeprom(6+(cicloMemoria*320)+(posicionDato*9),extraeDecimal(Temperatura)); 
064CC:  MOVFF  446,44D
064D0:  MOVFF  445,44C
064D4:  MOVLW  01
064D6:  MOVLB  4
064D8:  MOVWF  x4F
064DA:  MOVLW  40
064DC:  MOVWF  x4E
064DE:  MOVLB  0
064E0:  CALL   39D0
064E4:  MOVFF  02,03
064E8:  MOVF   01,W
064EA:  ADDLW  06
064EC:  MOVLB  4
064EE:  MOVWF  x47
064F0:  MOVLW  00
064F2:  ADDWFC 02,W
064F4:  MOVWF  x48
064F6:  MOVLB  2
064F8:  MOVF   xE4,W
064FA:  MULLW  09
064FC:  MOVF   FF3,W
064FE:  MOVLB  4
06500:  ADDWF  x47,F
06502:  MOVLW  00
06504:  ADDWFC x48,F
06506:  MOVFF  32B,44C
0650A:  MOVFF  32A,44B
0650E:  MOVFF  329,44A
06512:  MOVFF  328,449
06516:  MOVLB  0
06518:  BRA    6342
0651A:  MOVFF  01,449
0651E:  MOVFF  448,44B
06522:  MOVFF  447,44A
06526:  MOVFF  01,44C
0652A:  RCALL  6044
....................       delay_ms(10); 
0652C:  MOVLW  0A
0652E:  MOVLB  4
06530:  MOVWF  x58
06532:  MOVLB  0
06534:  CALL   1A3E
....................       write_ext_eeprom(7+(cicloMemoria*320)+(posicionDato*9),make8(PresionCamara,1)); 
06538:  MOVFF  446,44D
0653C:  MOVFF  445,44C
06540:  MOVLW  01
06542:  MOVLB  4
06544:  MOVWF  x4F
06546:  MOVLW  40
06548:  MOVWF  x4E
0654A:  MOVLB  0
0654C:  CALL   39D0
06550:  MOVFF  02,03
06554:  MOVF   01,W
06556:  ADDLW  07
06558:  MOVLB  4
0655A:  MOVWF  x47
0655C:  MOVLW  00
0655E:  ADDWFC 02,W
06560:  MOVWF  x48
06562:  MOVLB  2
06564:  MOVF   xE4,W
06566:  MULLW  09
06568:  MOVF   FF3,W
0656A:  MOVLB  4
0656C:  ADDWF  x47,F
0656E:  MOVLW  00
06570:  ADDWFC x48,F
06572:  MOVFF  37A,449
06576:  MOVFF  448,44B
0657A:  MOVFF  447,44A
0657E:  MOVFF  37A,44C
06582:  MOVLB  0
06584:  RCALL  6044
....................       delay_ms(10); 
06586:  MOVLW  0A
06588:  MOVLB  4
0658A:  MOVWF  x58
0658C:  MOVLB  0
0658E:  CALL   1A3E
....................       write_ext_eeprom(8+(cicloMemoria*320)+(posicionDato*9),make8(PresionCamara,0)); 
06592:  MOVFF  446,44D
06596:  MOVFF  445,44C
0659A:  MOVLW  01
0659C:  MOVLB  4
0659E:  MOVWF  x4F
065A0:  MOVLW  40
065A2:  MOVWF  x4E
065A4:  MOVLB  0
065A6:  CALL   39D0
065AA:  MOVFF  02,03
065AE:  MOVF   01,W
065B0:  ADDLW  08
065B2:  MOVLB  4
065B4:  MOVWF  x47
065B6:  MOVLW  00
065B8:  ADDWFC 02,W
065BA:  MOVWF  x48
065BC:  MOVLB  2
065BE:  MOVF   xE4,W
065C0:  MULLW  09
065C2:  MOVF   FF3,W
065C4:  MOVLB  4
065C6:  ADDWF  x47,F
065C8:  MOVLW  00
065CA:  ADDWFC x48,F
065CC:  MOVFF  379,449
065D0:  MOVFF  448,44B
065D4:  MOVFF  447,44A
065D8:  MOVFF  379,44C
065DC:  MOVLB  0
065DE:  RCALL  6044
....................       delay_ms(10); 
065E0:  MOVLW  0A
065E2:  MOVLB  4
065E4:  MOVWF  x58
065E6:  MOVLB  0
065E8:  CALL   1A3E
....................       write_ext_eeprom(9+(cicloMemoria*320)+(posicionDato*9),make8(PresionPreCamara,1)); 
065EC:  MOVFF  446,44D
065F0:  MOVFF  445,44C
065F4:  MOVLW  01
065F6:  MOVLB  4
065F8:  MOVWF  x4F
065FA:  MOVLW  40
065FC:  MOVWF  x4E
065FE:  MOVLB  0
06600:  CALL   39D0
06604:  MOVFF  02,03
06608:  MOVF   01,W
0660A:  ADDLW  09
0660C:  MOVLB  4
0660E:  MOVWF  x47
06610:  MOVLW  00
06612:  ADDWFC 02,W
06614:  MOVWF  x48
06616:  MOVLB  2
06618:  MOVF   xE4,W
0661A:  MULLW  09
0661C:  MOVF   FF3,W
0661E:  MOVLB  4
06620:  ADDWF  x47,F
06622:  MOVLW  00
06624:  ADDWFC x48,F
06626:  MOVFF  37C,449
0662A:  MOVFF  448,44B
0662E:  MOVFF  447,44A
06632:  MOVFF  37C,44C
06636:  MOVLB  0
06638:  RCALL  6044
....................       delay_ms(10); 
0663A:  MOVLW  0A
0663C:  MOVLB  4
0663E:  MOVWF  x58
06640:  MOVLB  0
06642:  CALL   1A3E
....................       write_ext_eeprom(10+(cicloMemoria*320)+(posicionDato*9),make8(PresionPreCamara,0)); 
06646:  MOVFF  446,44D
0664A:  MOVFF  445,44C
0664E:  MOVLW  01
06650:  MOVLB  4
06652:  MOVWF  x4F
06654:  MOVLW  40
06656:  MOVWF  x4E
06658:  MOVLB  0
0665A:  CALL   39D0
0665E:  MOVFF  02,03
06662:  MOVF   01,W
06664:  ADDLW  0A
06666:  MOVLB  4
06668:  MOVWF  x47
0666A:  MOVLW  00
0666C:  ADDWFC 02,W
0666E:  MOVWF  x48
06670:  MOVLB  2
06672:  MOVF   xE4,W
06674:  MULLW  09
06676:  MOVF   FF3,W
06678:  MOVLB  4
0667A:  ADDWF  x47,F
0667C:  MOVLW  00
0667E:  ADDWFC x48,F
06680:  MOVFF  37B,449
06684:  MOVFF  448,44B
06688:  MOVFF  447,44A
0668C:  MOVFF  37B,44C
06690:  MOVLB  0
06692:  RCALL  6044
....................       delay_ms(10); 
06694:  MOVLW  0A
06696:  MOVLB  4
06698:  MOVWF  x58
0669A:  MOVLB  0
0669C:  CALL   1A3E
....................       write_ext_eeprom(11+(cicloMemoria*320)+(posicionDato*9),Hora); 
066A0:  MOVFF  446,44D
066A4:  MOVFF  445,44C
066A8:  MOVLW  01
066AA:  MOVLB  4
066AC:  MOVWF  x4F
066AE:  MOVLW  40
066B0:  MOVWF  x4E
066B2:  MOVLB  0
066B4:  CALL   39D0
066B8:  MOVFF  02,03
066BC:  MOVF   01,W
066BE:  ADDLW  0B
066C0:  MOVLB  4
066C2:  MOVWF  x47
066C4:  MOVLW  00
066C6:  ADDWFC 02,W
066C8:  MOVWF  x48
066CA:  MOVLB  2
066CC:  MOVF   xE4,W
066CE:  MULLW  09
066D0:  MOVF   FF3,W
066D2:  MOVLB  4
066D4:  ADDWF  x47,F
066D6:  MOVLW  00
066D8:  ADDWFC x48,F
066DA:  MOVFF  448,44B
066DE:  MOVFF  447,44A
066E2:  MOVFF  3A5,44C
066E6:  MOVLB  0
066E8:  RCALL  6044
....................       delay_ms(10); 
066EA:  MOVLW  0A
066EC:  MOVLB  4
066EE:  MOVWF  x58
066F0:  MOVLB  0
066F2:  CALL   1A3E
....................       write_ext_eeprom(12+(cicloMemoria*320)+(posicionDato*9),Minuto); 
066F6:  MOVFF  446,44D
066FA:  MOVFF  445,44C
066FE:  MOVLW  01
06700:  MOVLB  4
06702:  MOVWF  x4F
06704:  MOVLW  40
06706:  MOVWF  x4E
06708:  MOVLB  0
0670A:  CALL   39D0
0670E:  MOVFF  02,03
06712:  MOVF   01,W
06714:  ADDLW  0C
06716:  MOVLB  4
06718:  MOVWF  x47
0671A:  MOVLW  00
0671C:  ADDWFC 02,W
0671E:  MOVWF  x48
06720:  MOVLB  2
06722:  MOVF   xE4,W
06724:  MULLW  09
06726:  MOVF   FF3,W
06728:  MOVLB  4
0672A:  ADDWF  x47,F
0672C:  MOVLW  00
0672E:  ADDWFC x48,F
06730:  MOVFF  448,44B
06734:  MOVFF  447,44A
06738:  MOVFF  3A6,44C
0673C:  MOVLB  0
0673E:  RCALL  6044
....................       delay_ms(10); 
06740:  MOVLW  0A
06742:  MOVLB  4
06744:  MOVWF  x58
06746:  MOVLB  0
06748:  CALL   1A3E
....................       write_ext_eeprom(13+(cicloMemoria*320)+(posicionDato*9),codigoAlarma); 
0674C:  MOVFF  446,44D
06750:  MOVFF  445,44C
06754:  MOVLW  01
06756:  MOVLB  4
06758:  MOVWF  x4F
0675A:  MOVLW  40
0675C:  MOVWF  x4E
0675E:  MOVLB  0
06760:  CALL   39D0
06764:  MOVFF  02,03
06768:  MOVF   01,W
0676A:  ADDLW  0D
0676C:  MOVLB  4
0676E:  MOVWF  x47
06770:  MOVLW  00
06772:  ADDWFC 02,W
06774:  MOVWF  x48
06776:  MOVLB  2
06778:  MOVF   xE4,W
0677A:  MULLW  09
0677C:  MOVF   FF3,W
0677E:  MOVLB  4
06780:  ADDWF  x47,F
06782:  MOVLW  00
06784:  ADDWFC x48,F
06786:  MOVFF  448,44B
0678A:  MOVFF  447,44A
0678E:  MOVFF  2E6,44C
06792:  MOVLB  0
06794:  RCALL  6044
....................       delay_ms(10); 
06796:  MOVLW  0A
06798:  MOVLB  4
0679A:  MOVWF  x58
0679C:  MOVLB  0
0679E:  CALL   1A3E
....................     
....................       if(posicionDato<35) 
067A2:  MOVLB  2
067A4:  MOVF   xE4,W
067A6:  SUBLW  22
067A8:  BNC   67AC
....................          ++posicionDato; 
067AA:  INCF   xE4,F
067AC:  MOVLB  0
....................    } 
.................... } 
067AE:  RETLW  00
....................  
.................... void incrementaCiclos(){ 
....................    if(!Ciclo){ 
067B0:  BTFSC  xA1.5
067B2:  BRA    683A
....................       Ciclo=ON; 
067B4:  BSF    xA1.5
....................       Ciclos++; 
067B6:  MOVLB  3
067B8:  INCF   x7D,F
067BA:  BTFSC  FD8.2
067BC:  INCF   x7E,F
....................       CiclosL=make8(Ciclos,0); 
067BE:  MOVFF  37D,364
....................       CiclosH=make8(Ciclos,1); 
067C2:  MOVFF  37E,365
....................       write_eeprom(37,CiclosL); 
067C6:  CLRF   FAA
067C8:  MOVLW  25
067CA:  MOVWF  FA9
067CC:  MOVFF  364,FA8
067D0:  BCF    FA6.6
067D2:  BCF    FA6.7
067D4:  BSF    FA6.2
067D6:  MOVF   FF2,W
067D8:  MOVWF  00
067DA:  BCF    FF2.6
067DC:  BCF    FF2.7
067DE:  MOVLB  F
067E0:  MOVLW  55
067E2:  MOVWF  FA7
067E4:  MOVLW  AA
067E6:  MOVWF  FA7
067E8:  BSF    FA6.1
067EA:  BTFSC  FA6.1
067EC:  BRA    67EA
067EE:  BCF    FA6.2
067F0:  MOVF   00,W
067F2:  IORWF  FF2,F
....................       delay_ms(20); 
067F4:  MOVLW  14
067F6:  MOVLB  4
067F8:  MOVWF  x58
067FA:  MOVLB  0
067FC:  CALL   1A3E
....................       write_eeprom(38,CiclosH); 
06800:  CLRF   FAA
06802:  MOVLW  26
06804:  MOVWF  FA9
06806:  MOVFF  365,FA8
0680A:  BCF    FA6.6
0680C:  BCF    FA6.7
0680E:  BSF    FA6.2
06810:  MOVF   FF2,W
06812:  MOVWF  00
06814:  BCF    FF2.6
06816:  BCF    FF2.7
06818:  MOVLB  F
0681A:  MOVLW  55
0681C:  MOVWF  FA7
0681E:  MOVLW  AA
06820:  MOVWF  FA7
06822:  BSF    FA6.1
06824:  BTFSC  FA6.1
06826:  BRA    6824
06828:  BCF    FA6.2
0682A:  MOVF   00,W
0682C:  IORWF  FF2,F
....................       delay_ms(20); 
0682E:  MOVLW  14
06830:  MOVLB  4
06832:  MOVWF  x58
06834:  MOVLB  0
06836:  CALL   1A3E
....................    } 
.................... } 
0683A:  RETLW  00
....................  
.................... void exportarData(){ 
*
05728:  MOVLB  4
0572A:  CLRF   x44
0572C:  CLRF   x43
0572E:  CLRF   x45
.................... int16 posicion=0; 
.................... int8 tmp=0; 
.................... posicion=40; 
05730:  CLRF   x44
05732:  MOVLW  28
05734:  MOVWF  x43
.................... direccion=0xB0; 
05736:  MOVLW  B0
05738:  MOVLB  0
0573A:  MOVWF  x85
.................... //Buzzer_on; 
.................... //Inicio de Transmision 
.................... i2c_start();            // Comienzo comunicacin 
0573C:  BSF    F94.4
0573E:  MOVLW  05
05740:  MOVWF  00
05742:  DECFSZ 00,F
05744:  BRA    5742
05746:  BSF    F94.3
05748:  MOVLW  06
0574A:  MOVWF  00
0574C:  DECFSZ 00,F
0574E:  BRA    574C
05750:  BCF    F8B.4
05752:  BCF    F94.4
05754:  MOVLW  05
05756:  MOVWF  00
05758:  DECFSZ 00,F
0575A:  BRA    5758
0575C:  BCF    F8B.3
0575E:  BCF    F94.3
.................... i2c_write(direccion);   // Direccin del esclavo en el bus I2C 
05760:  MOVFF  85,459
05764:  CALL   4644
.................... i2c_write(make8(posicion,0));    // Posicin donde se guardara el dato transmitido 
05768:  MOVFF  443,446
0576C:  MOVFF  443,459
05770:  CALL   4644
.................... i2c_write(make8(posicion,1));    // Posicin donde se guardara el dato transmitido 
05774:  MOVFF  444,446
05778:  MOVFF  444,459
0577C:  CALL   4644
.................... i2c_write(0xff);        // Dato a transmitir 
05780:  MOVLW  FF
05782:  MOVLB  4
05784:  MOVWF  x59
05786:  MOVLB  0
05788:  CALL   4644
.................... i2c_stop(); 
0578C:  BCF    F94.4
0578E:  NOP   
05790:  BSF    F94.3
05792:  BTFSS  F82.3
05794:  BRA    5792
05796:  MOVLW  05
05798:  MOVWF  00
0579A:  DECFSZ 00,F
0579C:  BRA    579A
0579E:  BRA    57A0
057A0:  NOP   
057A2:  BSF    F94.4
057A4:  MOVLW  05
057A6:  MOVWF  00
057A8:  DECFSZ 00,F
057AA:  BRA    57A8
.................... ++posicion; 
057AC:  MOVLB  4
057AE:  INCF   x43,F
057B0:  BTFSC  FD8.2
057B2:  INCF   x44,F
.................... i2c_start();            // Comienzo comunicacin 
057B4:  BSF    F94.4
057B6:  MOVLW  05
057B8:  MOVWF  00
057BA:  DECFSZ 00,F
057BC:  BRA    57BA
057BE:  BSF    F94.3
057C0:  MOVLW  06
057C2:  MOVWF  00
057C4:  DECFSZ 00,F
057C6:  BRA    57C4
057C8:  BCF    F8B.4
057CA:  BCF    F94.4
057CC:  MOVLW  05
057CE:  MOVWF  00
057D0:  DECFSZ 00,F
057D2:  BRA    57D0
057D4:  BCF    F8B.3
057D6:  BCF    F94.3
.................... i2c_write(direccion);   // Direccin del esclavo en el bus I2C 
057D8:  MOVFF  85,459
057DC:  MOVLB  0
057DE:  CALL   4644
.................... i2c_write(make8(posicion,0));    // Posicin donde se guardara el dato transmitido 
057E2:  MOVFF  443,446
057E6:  MOVFF  443,459
057EA:  CALL   4644
.................... i2c_write(make8(posicion,1));    // Posicin donde se guardara el dato transmitido 
057EE:  MOVFF  444,446
057F2:  MOVFF  444,459
057F6:  CALL   4644
.................... i2c_write(0xff);        // Dato a transmitir 
057FA:  MOVLW  FF
057FC:  MOVLB  4
057FE:  MOVWF  x59
05800:  MOVLB  0
05802:  CALL   4644
.................... i2c_stop(); 
05806:  BCF    F94.4
05808:  NOP   
0580A:  BSF    F94.3
0580C:  BTFSS  F82.3
0580E:  BRA    580C
05810:  MOVLW  05
05812:  MOVWF  00
05814:  DECFSZ 00,F
05816:  BRA    5814
05818:  BRA    581A
0581A:  NOP   
0581C:  BSF    F94.4
0581E:  MOVLW  05
05820:  MOVWF  00
05822:  DECFSZ 00,F
05824:  BRA    5822
.................... ++posicion; 
05826:  MOVLB  4
05828:  INCF   x43,F
0582A:  BTFSC  FD8.2
0582C:  INCF   x44,F
.................... //Se envian 2 veces ff para indicar que se inicia la transmision. 
....................  
....................    for(i=0;i<5;i++){ 
0582E:  MOVLB  3
05830:  CLRF   x63
05832:  MOVF   x63,W
05834:  SUBLW  04
05836:  BNC   58EE
....................       tmp=read_ext_eeprom((cicloVisto*320)+i); 
05838:  MOVLB  4
0583A:  CLRF   x4D
0583C:  MOVFF  2E2,44C
05840:  MOVLW  01
05842:  MOVWF  x4F
05844:  MOVLW  40
05846:  MOVWF  x4E
05848:  MOVLB  0
0584A:  CALL   39D0
0584E:  MOVFF  02,447
05852:  MOVFF  01,446
05856:  MOVLB  3
05858:  MOVF   x63,W
0585A:  MOVLB  4
0585C:  ADDWF  x46,F
0585E:  MOVLW  00
05860:  ADDWFC x47,F
05862:  MOVFF  447,449
05866:  MOVFF  446,448
0586A:  MOVLB  0
0586C:  CALL   4F9E
05870:  MOVFF  01,445
....................       //if(tmp>250) 
....................       //   tmp=20; 
....................       i2c_start();            // Comienzo comunicacin 
05874:  BSF    F94.4
05876:  MOVLW  05
05878:  MOVWF  00
0587A:  DECFSZ 00,F
0587C:  BRA    587A
0587E:  BSF    F94.3
05880:  MOVLW  06
05882:  MOVWF  00
05884:  DECFSZ 00,F
05886:  BRA    5884
05888:  BCF    F8B.4
0588A:  BCF    F94.4
0588C:  MOVLW  05
0588E:  MOVWF  00
05890:  DECFSZ 00,F
05892:  BRA    5890
05894:  BCF    F8B.3
05896:  BCF    F94.3
....................       i2c_write(direccion);   // Direccin del esclavo en el bus I2C 
05898:  MOVFF  85,459
0589C:  CALL   4644
....................       i2c_write(make8(posicion,0));    // Posicin donde se guardara el dato transmitido 
058A0:  MOVFF  443,446
058A4:  MOVFF  443,459
058A8:  CALL   4644
....................       i2c_write(make8(posicion,1));    // Posicin donde se guardara el dato transmitido 
058AC:  MOVFF  444,446
058B0:  MOVFF  444,459
058B4:  CALL   4644
....................       i2c_write(tmp);        // Dato a transmitir 
058B8:  MOVFF  445,459
058BC:  CALL   4644
....................       i2c_stop();  
058C0:  BCF    F94.4
058C2:  NOP   
058C4:  BSF    F94.3
058C6:  BTFSS  F82.3
058C8:  BRA    58C6
058CA:  MOVLW  05
058CC:  MOVWF  00
058CE:  DECFSZ 00,F
058D0:  BRA    58CE
058D2:  BRA    58D4
058D4:  NOP   
058D6:  BSF    F94.4
058D8:  MOVLW  05
058DA:  MOVWF  00
058DC:  DECFSZ 00,F
058DE:  BRA    58DC
....................       ++posicion; 
058E0:  MOVLB  4
058E2:  INCF   x43,F
058E4:  BTFSC  FD8.2
058E6:  INCF   x44,F
....................    } 
058E8:  MOVLB  3
058EA:  INCF   x63,F
058EC:  BRA    5832
....................    for(i=0;i<35;i++){//Lee Valores para completar la Tabla 
058EE:  CLRF   x63
058F0:  MOVF   x63,W
058F2:  SUBLW  22
058F4:  BNC   59CE
....................       for(j=5;j<14;j++){//Lee Valores para completar la Tabla 
058F6:  MOVLW  05
058F8:  MOVLB  2
058FA:  MOVWF  xE5
058FC:  MOVF   xE5,W
058FE:  SUBLW  0D
05900:  BNC   59C8
....................          tmp=read_ext_eeprom((cicloVisto*320)+j+(i*9)); 
05902:  MOVLB  4
05904:  CLRF   x4D
05906:  MOVFF  2E2,44C
0590A:  MOVLW  01
0590C:  MOVWF  x4F
0590E:  MOVLW  40
05910:  MOVWF  x4E
05912:  MOVLB  0
05914:  CALL   39D0
05918:  MOVFF  02,447
0591C:  MOVFF  01,446
05920:  MOVLB  2
05922:  MOVF   xE5,W
05924:  MOVLB  4
05926:  ADDWF  x46,F
05928:  MOVLW  00
0592A:  ADDWFC x47,F
0592C:  MOVLB  3
0592E:  MOVF   x63,W
05930:  MULLW  09
05932:  MOVF   FF3,W
05934:  MOVLB  4
05936:  ADDWF  x46,F
05938:  MOVLW  00
0593A:  ADDWFC x47,F
0593C:  MOVFF  447,449
05940:  MOVFF  446,448
05944:  MOVLB  0
05946:  CALL   4F9E
0594A:  MOVFF  01,445
....................          //if(tmp>250) 
....................          //   tmp=20; 
....................          i2c_start();            // Comienzo comunicacin 
0594E:  BSF    F94.4
05950:  MOVLW  05
05952:  MOVWF  00
05954:  DECFSZ 00,F
05956:  BRA    5954
05958:  BSF    F94.3
0595A:  MOVLW  06
0595C:  MOVWF  00
0595E:  DECFSZ 00,F
05960:  BRA    595E
05962:  BCF    F8B.4
05964:  BCF    F94.4
05966:  MOVLW  05
05968:  MOVWF  00
0596A:  DECFSZ 00,F
0596C:  BRA    596A
0596E:  BCF    F8B.3
05970:  BCF    F94.3
....................          i2c_write(direccion);   // Direccin del esclavo en el bus I2C 
05972:  MOVFF  85,459
05976:  CALL   4644
....................          i2c_write(make8(posicion,0));    // Posicin donde se guardara el dato transmitido 
0597A:  MOVFF  443,446
0597E:  MOVFF  443,459
05982:  CALL   4644
....................          i2c_write(make8(posicion,1));    // Posicin donde se guardara el dato transmitido 
05986:  MOVFF  444,446
0598A:  MOVFF  444,459
0598E:  CALL   4644
....................          i2c_write(tmp);        // Dato a transmitir 
05992:  MOVFF  445,459
05996:  CALL   4644
....................          i2c_stop();  
0599A:  BCF    F94.4
0599C:  NOP   
0599E:  BSF    F94.3
059A0:  BTFSS  F82.3
059A2:  BRA    59A0
059A4:  MOVLW  05
059A6:  MOVWF  00
059A8:  DECFSZ 00,F
059AA:  BRA    59A8
059AC:  BRA    59AE
059AE:  NOP   
059B0:  BSF    F94.4
059B2:  MOVLW  05
059B4:  MOVWF  00
059B6:  DECFSZ 00,F
059B8:  BRA    59B6
....................          ++posicion; 
059BA:  MOVLB  4
059BC:  INCF   x43,F
059BE:  BTFSC  FD8.2
059C0:  INCF   x44,F
....................       } 
059C2:  MOVLB  2
059C4:  INCF   xE5,F
059C6:  BRA    58FC
....................    } 
059C8:  MOVLB  3
059CA:  INCF   x63,F
059CC:  BRA    58F0
....................  
.................... //Fin de Transmision 
.................... i2c_start();            // Comienzo comunicacin 
059CE:  BSF    F94.4
059D0:  MOVLW  05
059D2:  MOVWF  00
059D4:  DECFSZ 00,F
059D6:  BRA    59D4
059D8:  BSF    F94.3
059DA:  MOVLW  06
059DC:  MOVWF  00
059DE:  DECFSZ 00,F
059E0:  BRA    59DE
059E2:  BCF    F8B.4
059E4:  BCF    F94.4
059E6:  MOVLW  05
059E8:  MOVWF  00
059EA:  DECFSZ 00,F
059EC:  BRA    59EA
059EE:  BCF    F8B.3
059F0:  BCF    F94.3
.................... i2c_write(direccion);   // Direccin del esclavo en el bus I2C 
059F2:  MOVFF  85,459
059F6:  MOVLB  0
059F8:  CALL   4644
.................... i2c_write(make8(posicion,0));    // Posicin donde se guardara el dato transmitido 
059FC:  MOVFF  443,446
05A00:  MOVFF  443,459
05A04:  CALL   4644
.................... i2c_write(make8(posicion,1));    // Posicin donde se guardara el dato transmitido 
05A08:  MOVFF  444,446
05A0C:  MOVFF  444,459
05A10:  CALL   4644
.................... i2c_write(0x1f);        // Dato a transmitir 
05A14:  MOVLW  1F
05A16:  MOVLB  4
05A18:  MOVWF  x59
05A1A:  MOVLB  0
05A1C:  CALL   4644
.................... i2c_stop(); 
05A20:  BCF    F94.4
05A22:  NOP   
05A24:  BSF    F94.3
05A26:  BTFSS  F82.3
05A28:  BRA    5A26
05A2A:  MOVLW  05
05A2C:  MOVWF  00
05A2E:  DECFSZ 00,F
05A30:  BRA    5A2E
05A32:  BRA    5A34
05A34:  NOP   
05A36:  BSF    F94.4
05A38:  MOVLW  05
05A3A:  MOVWF  00
05A3C:  DECFSZ 00,F
05A3E:  BRA    5A3C
.................... ++posicion; 
05A40:  MOVLB  4
05A42:  INCF   x43,F
05A44:  BTFSC  FD8.2
05A46:  INCF   x44,F
.................... i2c_start();            // Comienzo comunicacin 
05A48:  BSF    F94.4
05A4A:  MOVLW  05
05A4C:  MOVWF  00
05A4E:  DECFSZ 00,F
05A50:  BRA    5A4E
05A52:  BSF    F94.3
05A54:  MOVLW  06
05A56:  MOVWF  00
05A58:  DECFSZ 00,F
05A5A:  BRA    5A58
05A5C:  BCF    F8B.4
05A5E:  BCF    F94.4
05A60:  MOVLW  05
05A62:  MOVWF  00
05A64:  DECFSZ 00,F
05A66:  BRA    5A64
05A68:  BCF    F8B.3
05A6A:  BCF    F94.3
.................... i2c_write(direccion);   // Direccin del esclavo en el bus I2C 
05A6C:  MOVFF  85,459
05A70:  MOVLB  0
05A72:  CALL   4644
.................... i2c_write(make8(posicion,0));    // Posicin donde se guardara el dato transmitido 
05A76:  MOVFF  443,446
05A7A:  MOVFF  443,459
05A7E:  CALL   4644
.................... i2c_write(make8(posicion,1));    // Posicin donde se guardara el dato transmitido 
05A82:  MOVFF  444,446
05A86:  MOVFF  444,459
05A8A:  CALL   4644
.................... i2c_write(0x1f);        // Dato a transmitir 
05A8E:  MOVLW  1F
05A90:  MOVLB  4
05A92:  MOVWF  x59
05A94:  MOVLB  0
05A96:  CALL   4644
.................... i2c_stop(); 
05A9A:  BCF    F94.4
05A9C:  NOP   
05A9E:  BSF    F94.3
05AA0:  BTFSS  F82.3
05AA2:  BRA    5AA0
05AA4:  MOVLW  05
05AA6:  MOVWF  00
05AA8:  DECFSZ 00,F
05AAA:  BRA    5AA8
05AAC:  BRA    5AAE
05AAE:  NOP   
05AB0:  BSF    F94.4
05AB2:  MOVLW  05
05AB4:  MOVWF  00
05AB6:  DECFSZ 00,F
05AB8:  BRA    5AB6
.................... ++posicion; 
05ABA:  MOVLB  4
05ABC:  INCF   x43,F
05ABE:  BTFSC  FD8.2
05AC0:  INCF   x44,F
.................... //Se envian 2 veces 1f para indicar que se inicia la transmision. 
.................... delay_ms(200); 
05AC2:  MOVLW  C8
05AC4:  MOVWF  x58
05AC6:  MOVLB  0
05AC8:  CALL   1A3E
.................... //Buzzer_off; 
.................... } 
05ACC:  GOTO   C468 (RETURN)
....................  
.................... void codificaAlarma(){ 
....................    if(ACiclos[i]==0){ 
05AD0:  CLRF   03
05AD2:  MOVLB  3
05AD4:  MOVF   x63,W
05AD6:  ADDLW  14
05AD8:  MOVWF  FE9
05ADA:  MOVLW  04
05ADC:  ADDWFC 03,W
05ADE:  MOVWF  FEA
05AE0:  MOVF   FEF,F
05AE2:  BNZ   5B22
....................       printf("A%u.txt=\"----\"",i+1); 
05AE4:  MOVLW  01
05AE6:  ADDWF  x63,W
05AE8:  MOVLB  4
05AEA:  MOVWF  x43
05AEC:  MOVLW  41
05AEE:  BTFSS  F9E.4
05AF0:  BRA    5AEE
05AF2:  MOVWF  FAD
05AF4:  MOVFF  443,448
05AF8:  MOVLW  1B
05AFA:  MOVWF  x49
05AFC:  MOVLB  0
05AFE:  CALL   48DC
05B02:  MOVLW  F9
05B04:  MOVWF  FF6
05B06:  MOVLW  01
05B08:  MOVWF  FF7
05B0A:  MOVLW  00
05B0C:  MOVWF  FF8
05B0E:  MOVLW  0B
05B10:  MOVLB  4
05B12:  MOVWF  x48
05B14:  MOVLB  0
05B16:  CALL   487E
....................       SendDataDisplay(); 
05B1A:  CALL   3924
....................    }else if(ACiclos[i]==1){ 
05B1E:  BRA    603C
05B20:  MOVLB  3
05B22:  CLRF   03
05B24:  MOVF   x63,W
05B26:  ADDLW  14
05B28:  MOVWF  FE9
05B2A:  MOVLW  04
05B2C:  ADDWFC 03,W
05B2E:  MOVWF  FEA
05B30:  DECFSZ FEF,W
05B32:  BRA    5B72
....................       printf("A%u.txt=\"Parada\"",i+1); 
05B34:  MOVLW  01
05B36:  ADDWF  x63,W
05B38:  MOVLB  4
05B3A:  MOVWF  x43
05B3C:  MOVLW  41
05B3E:  BTFSS  F9E.4
05B40:  BRA    5B3E
05B42:  MOVWF  FAD
05B44:  MOVFF  443,448
05B48:  MOVLW  1B
05B4A:  MOVWF  x49
05B4C:  MOVLB  0
05B4E:  CALL   48DC
05B52:  MOVLW  09
05B54:  MOVWF  FF6
05B56:  MOVLW  02
05B58:  MOVWF  FF7
05B5A:  MOVLW  00
05B5C:  MOVWF  FF8
05B5E:  MOVLW  0D
05B60:  MOVLB  4
05B62:  MOVWF  x48
05B64:  MOVLB  0
05B66:  CALL   487E
....................       SendDataDisplay(); 
05B6A:  CALL   3924
....................    }else if(ACiclos[i]==2){ 
05B6E:  BRA    603C
05B70:  MOVLB  3
05B72:  CLRF   03
05B74:  MOVF   x63,W
05B76:  ADDLW  14
05B78:  MOVWF  FE9
05B7A:  MOVLW  04
05B7C:  ADDWFC 03,W
05B7E:  MOVWF  FEA
05B80:  MOVF   FEF,W
05B82:  SUBLW  02
05B84:  BNZ   5BC4
....................       printf("A%u.txt=\"Puerta\"",i+1); 
05B86:  MOVLW  01
05B88:  ADDWF  x63,W
05B8A:  MOVLB  4
05B8C:  MOVWF  x43
05B8E:  MOVLW  41
05B90:  BTFSS  F9E.4
05B92:  BRA    5B90
05B94:  MOVWF  FAD
05B96:  MOVFF  443,448
05B9A:  MOVLW  1B
05B9C:  MOVWF  x49
05B9E:  MOVLB  0
05BA0:  CALL   48DC
05BA4:  MOVLW  1B
05BA6:  MOVWF  FF6
05BA8:  MOVLW  02
05BAA:  MOVWF  FF7
05BAC:  MOVLW  00
05BAE:  MOVWF  FF8
05BB0:  MOVLW  0D
05BB2:  MOVLB  4
05BB4:  MOVWF  x48
05BB6:  MOVLB  0
05BB8:  CALL   487E
....................       SendDataDisplay(); 
05BBC:  CALL   3924
....................    }else if(ACiclos[i]==3){ 
05BC0:  BRA    603C
05BC2:  MOVLB  3
05BC4:  CLRF   03
05BC6:  MOVF   x63,W
05BC8:  ADDLW  14
05BCA:  MOVWF  FE9
05BCC:  MOVLW  04
05BCE:  ADDWFC 03,W
05BD0:  MOVWF  FEA
05BD2:  MOVF   FEF,W
05BD4:  SUBLW  03
05BD6:  BNZ   5C16
....................       printf("A%u.txt=\"Termostato\"",i+1); 
05BD8:  MOVLW  01
05BDA:  ADDWF  x63,W
05BDC:  MOVLB  4
05BDE:  MOVWF  x43
05BE0:  MOVLW  41
05BE2:  BTFSS  F9E.4
05BE4:  BRA    5BE2
05BE6:  MOVWF  FAD
05BE8:  MOVFF  443,448
05BEC:  MOVLW  1B
05BEE:  MOVWF  x49
05BF0:  MOVLB  0
05BF2:  CALL   48DC
05BF6:  MOVLW  2D
05BF8:  MOVWF  FF6
05BFA:  MOVLW  02
05BFC:  MOVWF  FF7
05BFE:  MOVLW  00
05C00:  MOVWF  FF8
05C02:  MOVLW  11
05C04:  MOVLB  4
05C06:  MOVWF  x48
05C08:  MOVLB  0
05C0A:  CALL   487E
....................       SendDataDisplay(); 
05C0E:  CALL   3924
....................    }else if(ACiclos[i]==4){ 
05C12:  BRA    603C
05C14:  MOVLB  3
05C16:  CLRF   03
05C18:  MOVF   x63,W
05C1A:  ADDLW  14
05C1C:  MOVWF  FE9
05C1E:  MOVLW  04
05C20:  ADDWFC 03,W
05C22:  MOVWF  FEA
05C24:  MOVF   FEF,W
05C26:  SUBLW  04
05C28:  BNZ   5C68
....................       printf("A%u.txt=\"SobreT\"",i+1); 
05C2A:  MOVLW  01
05C2C:  ADDWF  x63,W
05C2E:  MOVLB  4
05C30:  MOVWF  x43
05C32:  MOVLW  41
05C34:  BTFSS  F9E.4
05C36:  BRA    5C34
05C38:  MOVWF  FAD
05C3A:  MOVFF  443,448
05C3E:  MOVLW  1B
05C40:  MOVWF  x49
05C42:  MOVLB  0
05C44:  CALL   48DC
05C48:  MOVLW  43
05C4A:  MOVWF  FF6
05C4C:  MOVLW  02
05C4E:  MOVWF  FF7
05C50:  MOVLW  00
05C52:  MOVWF  FF8
05C54:  MOVLW  0D
05C56:  MOVLB  4
05C58:  MOVWF  x48
05C5A:  MOVLB  0
05C5C:  CALL   487E
....................       SendDataDisplay(); 
05C60:  CALL   3924
....................    }else if(ACiclos[i]==5){ 
05C64:  BRA    603C
05C66:  MOVLB  3
05C68:  CLRF   03
05C6A:  MOVF   x63,W
05C6C:  ADDLW  14
05C6E:  MOVWF  FE9
05C70:  MOVLW  04
05C72:  ADDWFC 03,W
05C74:  MOVWF  FEA
05C76:  MOVF   FEF,W
05C78:  SUBLW  05
05C7A:  BNZ   5CBA
....................       printf("A%u.txt=\"Tiempo\"",i+1); 
05C7C:  MOVLW  01
05C7E:  ADDWF  x63,W
05C80:  MOVLB  4
05C82:  MOVWF  x43
05C84:  MOVLW  41
05C86:  BTFSS  F9E.4
05C88:  BRA    5C86
05C8A:  MOVWF  FAD
05C8C:  MOVFF  443,448
05C90:  MOVLW  1B
05C92:  MOVWF  x49
05C94:  MOVLB  0
05C96:  CALL   48DC
05C9A:  MOVLW  55
05C9C:  MOVWF  FF6
05C9E:  MOVLW  02
05CA0:  MOVWF  FF7
05CA2:  MOVLW  00
05CA4:  MOVWF  FF8
05CA6:  MOVLW  0D
05CA8:  MOVLB  4
05CAA:  MOVWF  x48
05CAC:  MOVLB  0
05CAE:  CALL   487E
....................       SendDataDisplay(); 
05CB2:  CALL   3924
....................    }else if(ACiclos[i]==6){ 
05CB6:  BRA    603C
05CB8:  MOVLB  3
05CBA:  CLRF   03
05CBC:  MOVF   x63,W
05CBE:  ADDLW  14
05CC0:  MOVWF  FE9
05CC2:  MOVLW  04
05CC4:  ADDWFC 03,W
05CC6:  MOVWF  FEA
05CC8:  MOVF   FEF,W
05CCA:  SUBLW  06
05CCC:  BNZ   5D0C
....................       printf("A%u.txt=\"Presion\"",i+1); 
05CCE:  MOVLW  01
05CD0:  ADDWF  x63,W
05CD2:  MOVLB  4
05CD4:  MOVWF  x43
05CD6:  MOVLW  41
05CD8:  BTFSS  F9E.4
05CDA:  BRA    5CD8
05CDC:  MOVWF  FAD
05CDE:  MOVFF  443,448
05CE2:  MOVLW  1B
05CE4:  MOVWF  x49
05CE6:  MOVLB  0
05CE8:  CALL   48DC
05CEC:  MOVLW  67
05CEE:  MOVWF  FF6
05CF0:  MOVLW  02
05CF2:  MOVWF  FF7
05CF4:  MOVLW  00
05CF6:  MOVWF  FF8
05CF8:  MOVLW  0E
05CFA:  MOVLB  4
05CFC:  MOVWF  x48
05CFE:  MOVLB  0
05D00:  CALL   487E
....................       SendDataDisplay(); 
05D04:  CALL   3924
....................    }else if(ACiclos[i]==7){ 
05D08:  BRA    603C
05D0A:  MOVLB  3
05D0C:  CLRF   03
05D0E:  MOVF   x63,W
05D10:  ADDLW  14
05D12:  MOVWF  FE9
05D14:  MOVLW  04
05D16:  ADDWFC 03,W
05D18:  MOVWF  FEA
05D1A:  MOVF   FEF,W
05D1C:  SUBLW  07
05D1E:  BNZ   5D5E
....................       printf("A%u.txt=\"ERR Ciclo\"",i+1); 
05D20:  MOVLW  01
05D22:  ADDWF  x63,W
05D24:  MOVLB  4
05D26:  MOVWF  x43
05D28:  MOVLW  41
05D2A:  BTFSS  F9E.4
05D2C:  BRA    5D2A
05D2E:  MOVWF  FAD
05D30:  MOVFF  443,448
05D34:  MOVLW  1B
05D36:  MOVWF  x49
05D38:  MOVLB  0
05D3A:  CALL   48DC
05D3E:  MOVLW  79
05D40:  MOVWF  FF6
05D42:  MOVLW  02
05D44:  MOVWF  FF7
05D46:  MOVLW  00
05D48:  MOVWF  FF8
05D4A:  MOVLW  10
05D4C:  MOVLB  4
05D4E:  MOVWF  x48
05D50:  MOVLB  0
05D52:  CALL   487E
....................       SendDataDisplay(); 
05D56:  CALL   3924
....................    }else if(ACiclos[i]==8){ 
05D5A:  BRA    603C
05D5C:  MOVLB  3
05D5E:  CLRF   03
05D60:  MOVF   x63,W
05D62:  ADDLW  14
05D64:  MOVWF  FE9
05D66:  MOVLW  04
05D68:  ADDWFC 03,W
05D6A:  MOVWF  FEA
05D6C:  MOVF   FEF,W
05D6E:  SUBLW  08
05D70:  BNZ   5DB0
....................       printf("A%u.txt=\"Llenado\"",i+1); 
05D72:  MOVLW  01
05D74:  ADDWF  x63,W
05D76:  MOVLB  4
05D78:  MOVWF  x43
05D7A:  MOVLW  41
05D7C:  BTFSS  F9E.4
05D7E:  BRA    5D7C
05D80:  MOVWF  FAD
05D82:  MOVFF  443,448
05D86:  MOVLW  1B
05D88:  MOVWF  x49
05D8A:  MOVLB  0
05D8C:  CALL   48DC
05D90:  MOVLW  8D
05D92:  MOVWF  FF6
05D94:  MOVLW  02
05D96:  MOVWF  FF7
05D98:  MOVLW  00
05D9A:  MOVWF  FF8
05D9C:  MOVLW  0E
05D9E:  MOVLB  4
05DA0:  MOVWF  x48
05DA2:  MOVLB  0
05DA4:  CALL   487E
....................       SendDataDisplay(); 
05DA8:  CALL   3924
....................    }else if(ACiclos[i]==10){ 
05DAC:  BRA    603C
05DAE:  MOVLB  3
05DB0:  CLRF   03
05DB2:  MOVF   x63,W
05DB4:  ADDLW  14
05DB6:  MOVWF  FE9
05DB8:  MOVLW  04
05DBA:  ADDWFC 03,W
05DBC:  MOVWF  FEA
05DBE:  MOVF   FEF,W
05DC0:  SUBLW  0A
05DC2:  BNZ   5E02
....................       printf("A%u.txt=\"Llenando\"",i+1); 
05DC4:  MOVLW  01
05DC6:  ADDWF  x63,W
05DC8:  MOVLB  4
05DCA:  MOVWF  x43
05DCC:  MOVLW  41
05DCE:  BTFSS  F9E.4
05DD0:  BRA    5DCE
05DD2:  MOVWF  FAD
05DD4:  MOVFF  443,448
05DD8:  MOVLW  1B
05DDA:  MOVWF  x49
05DDC:  MOVLB  0
05DDE:  CALL   48DC
05DE2:  MOVLW  9F
05DE4:  MOVWF  FF6
05DE6:  MOVLW  02
05DE8:  MOVWF  FF7
05DEA:  MOVLW  00
05DEC:  MOVWF  FF8
05DEE:  MOVLW  0F
05DF0:  MOVLB  4
05DF2:  MOVWF  x48
05DF4:  MOVLB  0
05DF6:  CALL   487E
....................       SendDataDisplay(); 
05DFA:  CALL   3924
....................    }else if(ACiclos[i]==11){ 
05DFE:  BRA    603C
05E00:  MOVLB  3
05E02:  CLRF   03
05E04:  MOVF   x63,W
05E06:  ADDLW  14
05E08:  MOVWF  FE9
05E0A:  MOVLW  04
05E0C:  ADDWFC 03,W
05E0E:  MOVWF  FEA
05E10:  MOVF   FEF,W
05E12:  SUBLW  0B
05E14:  BNZ   5E54
....................       printf("A%u.txt=\"Vacio\"",i+1); 
05E16:  MOVLW  01
05E18:  ADDWF  x63,W
05E1A:  MOVLB  4
05E1C:  MOVWF  x43
05E1E:  MOVLW  41
05E20:  BTFSS  F9E.4
05E22:  BRA    5E20
05E24:  MOVWF  FAD
05E26:  MOVFF  443,448
05E2A:  MOVLW  1B
05E2C:  MOVWF  x49
05E2E:  MOVLB  0
05E30:  CALL   48DC
05E34:  MOVLW  B3
05E36:  MOVWF  FF6
05E38:  MOVLW  02
05E3A:  MOVWF  FF7
05E3C:  MOVLW  00
05E3E:  MOVWF  FF8
05E40:  MOVLW  0C
05E42:  MOVLB  4
05E44:  MOVWF  x48
05E46:  MOVLB  0
05E48:  CALL   487E
....................       SendDataDisplay(); 
05E4C:  CALL   3924
....................    }else if(ACiclos[i]==12){ 
05E50:  BRA    603C
05E52:  MOVLB  3
05E54:  CLRF   03
05E56:  MOVF   x63,W
05E58:  ADDLW  14
05E5A:  MOVWF  FE9
05E5C:  MOVLW  04
05E5E:  ADDWFC 03,W
05E60:  MOVWF  FEA
05E62:  MOVF   FEF,W
05E64:  SUBLW  0C
05E66:  BNZ   5EA6
....................       printf("A%u.txt=\"Calen\"",i+1); 
05E68:  MOVLW  01
05E6A:  ADDWF  x63,W
05E6C:  MOVLB  4
05E6E:  MOVWF  x43
05E70:  MOVLW  41
05E72:  BTFSS  F9E.4
05E74:  BRA    5E72
05E76:  MOVWF  FAD
05E78:  MOVFF  443,448
05E7C:  MOVLW  1B
05E7E:  MOVWF  x49
05E80:  MOVLB  0
05E82:  CALL   48DC
05E86:  MOVLW  C3
05E88:  MOVWF  FF6
05E8A:  MOVLW  02
05E8C:  MOVWF  FF7
05E8E:  MOVLW  00
05E90:  MOVWF  FF8
05E92:  MOVLW  0C
05E94:  MOVLB  4
05E96:  MOVWF  x48
05E98:  MOVLB  0
05E9A:  CALL   487E
....................       SendDataDisplay(); 
05E9E:  CALL   3924
....................    }else if(ACiclos[i]==13){ 
05EA2:  BRA    603C
05EA4:  MOVLB  3
05EA6:  CLRF   03
05EA8:  MOVF   x63,W
05EAA:  ADDLW  14
05EAC:  MOVWF  FE9
05EAE:  MOVLW  04
05EB0:  ADDWFC 03,W
05EB2:  MOVWF  FEA
05EB4:  MOVF   FEF,W
05EB6:  SUBLW  0D
05EB8:  BNZ   5EF8
....................       printf("A%u.txt=\"Desfoga\"",i+1); 
05EBA:  MOVLW  01
05EBC:  ADDWF  x63,W
05EBE:  MOVLB  4
05EC0:  MOVWF  x43
05EC2:  MOVLW  41
05EC4:  BTFSS  F9E.4
05EC6:  BRA    5EC4
05EC8:  MOVWF  FAD
05ECA:  MOVFF  443,448
05ECE:  MOVLW  1B
05ED0:  MOVWF  x49
05ED2:  MOVLB  0
05ED4:  CALL   48DC
05ED8:  MOVLW  D3
05EDA:  MOVWF  FF6
05EDC:  MOVLW  02
05EDE:  MOVWF  FF7
05EE0:  MOVLW  00
05EE2:  MOVWF  FF8
05EE4:  MOVLW  0E
05EE6:  MOVLB  4
05EE8:  MOVWF  x48
05EEA:  MOVLB  0
05EEC:  CALL   487E
....................       SendDataDisplay(); 
05EF0:  CALL   3924
....................    }else if(ACiclos[i]==14){ 
05EF4:  BRA    603C
05EF6:  MOVLB  3
05EF8:  CLRF   03
05EFA:  MOVF   x63,W
05EFC:  ADDLW  14
05EFE:  MOVWF  FE9
05F00:  MOVLW  04
05F02:  ADDWFC 03,W
05F04:  MOVWF  FEA
05F06:  MOVF   FEF,W
05F08:  SUBLW  0E
05F0A:  BNZ   5F4A
....................       printf("A%u.txt=\"Finalizado\"",i+1); 
05F0C:  MOVLW  01
05F0E:  ADDWF  x63,W
05F10:  MOVLB  4
05F12:  MOVWF  x43
05F14:  MOVLW  41
05F16:  BTFSS  F9E.4
05F18:  BRA    5F16
05F1A:  MOVWF  FAD
05F1C:  MOVFF  443,448
05F20:  MOVLW  1B
05F22:  MOVWF  x49
05F24:  MOVLB  0
05F26:  CALL   48DC
05F2A:  MOVLW  E5
05F2C:  MOVWF  FF6
05F2E:  MOVLW  02
05F30:  MOVWF  FF7
05F32:  MOVLW  00
05F34:  MOVWF  FF8
05F36:  MOVLW  11
05F38:  MOVLB  4
05F3A:  MOVWF  x48
05F3C:  MOVLB  0
05F3E:  CALL   487E
....................       SendDataDisplay(); 
05F42:  CALL   3924
....................    }else if(ACiclos[i]==15){ 
05F46:  BRA    603C
05F48:  MOVLB  3
05F4A:  CLRF   03
05F4C:  MOVF   x63,W
05F4E:  ADDLW  14
05F50:  MOVWF  FE9
05F52:  MOVLW  04
05F54:  ADDWFC 03,W
05F56:  MOVWF  FEA
05F58:  MOVF   FEF,W
05F5A:  SUBLW  0F
05F5C:  BNZ   5F9C
....................       printf("A%u.txt=\"Secando\"",i+1); 
05F5E:  MOVLW  01
05F60:  ADDWF  x63,W
05F62:  MOVLB  4
05F64:  MOVWF  x43
05F66:  MOVLW  41
05F68:  BTFSS  F9E.4
05F6A:  BRA    5F68
05F6C:  MOVWF  FAD
05F6E:  MOVFF  443,448
05F72:  MOVLW  1B
05F74:  MOVWF  x49
05F76:  MOVLB  0
05F78:  CALL   48DC
05F7C:  MOVLW  FB
05F7E:  MOVWF  FF6
05F80:  MOVLW  02
05F82:  MOVWF  FF7
05F84:  MOVLW  00
05F86:  MOVWF  FF8
05F88:  MOVLW  0E
05F8A:  MOVLB  4
05F8C:  MOVWF  x48
05F8E:  MOVLB  0
05F90:  CALL   487E
....................       SendDataDisplay(); 
05F94:  CALL   3924
....................    }else if(ACiclos[i]==16){ 
05F98:  BRA    603C
05F9A:  MOVLB  3
05F9C:  CLRF   03
05F9E:  MOVF   x63,W
05FA0:  ADDLW  14
05FA2:  MOVWF  FE9
05FA4:  MOVLW  04
05FA6:  ADDWFC 03,W
05FA8:  MOVWF  FEA
05FAA:  MOVF   FEF,W
05FAC:  SUBLW  10
05FAE:  BNZ   5FEE
....................       printf("A%u.txt=\"Esterilizando\"",i+1); 
05FB0:  MOVLW  01
05FB2:  ADDWF  x63,W
05FB4:  MOVLB  4
05FB6:  MOVWF  x43
05FB8:  MOVLW  41
05FBA:  BTFSS  F9E.4
05FBC:  BRA    5FBA
05FBE:  MOVWF  FAD
05FC0:  MOVFF  443,448
05FC4:  MOVLW  1B
05FC6:  MOVWF  x49
05FC8:  MOVLB  0
05FCA:  CALL   48DC
05FCE:  MOVLW  0D
05FD0:  MOVWF  FF6
05FD2:  MOVLW  03
05FD4:  MOVWF  FF7
05FD6:  MOVLW  00
05FD8:  MOVWF  FF8
05FDA:  MOVLW  14
05FDC:  MOVLB  4
05FDE:  MOVWF  x48
05FE0:  MOVLB  0
05FE2:  CALL   487E
....................       SendDataDisplay(); 
05FE6:  CALL   3924
....................    }else if(ACiclos[i]==17){ 
05FEA:  BRA    603C
05FEC:  MOVLB  3
05FEE:  CLRF   03
05FF0:  MOVF   x63,W
05FF2:  ADDLW  14
05FF4:  MOVWF  FE9
05FF6:  MOVLW  04
05FF8:  ADDWFC 03,W
05FFA:  MOVWF  FEA
05FFC:  MOVF   FEF,W
05FFE:  SUBLW  11
06000:  BNZ   603E
....................       printf("A%u.txt=\"Enfriando\"",i+1); 
06002:  MOVLW  01
06004:  ADDWF  x63,W
06006:  MOVLB  4
06008:  MOVWF  x43
0600A:  MOVLW  41
0600C:  BTFSS  F9E.4
0600E:  BRA    600C
06010:  MOVWF  FAD
06012:  MOVFF  443,448
06016:  MOVLW  1B
06018:  MOVWF  x49
0601A:  MOVLB  0
0601C:  CALL   48DC
06020:  MOVLW  25
06022:  MOVWF  FF6
06024:  MOVLW  03
06026:  MOVWF  FF7
06028:  MOVLW  00
0602A:  MOVWF  FF8
0602C:  MOVLW  10
0602E:  MOVLB  4
06030:  MOVWF  x48
06032:  MOVLB  0
06034:  CALL   487E
....................       SendDataDisplay(); 
06038:  CALL   3924
0603C:  MOVLB  3
....................    } 
.................... } 
0603E:  MOVLB  0
06040:  GOTO   C80A (RETURN)
....................  
.................... void enciendeBombaAgua(){ 
....................    if(tBombaAgua>120){//Enciende 120 segundos 
....................       Agua_off; 
....................       #ifdef Enfriador 
....................       Enfr_off; 
....................       #else 
....................       Bomba_off; 
....................       #endif 
....................       flagBombaAgua=OFF; 
....................       flagBombaAguaOff=ON; 
....................       if(tBombaAguaOff>=60){//Apaga 60 segundos 
....................          tBombaAgua=0; 
....................       } 
....................    }else{ 
....................       Agua_on; 
....................       #ifdef Enfriador 
....................       Enfr_on; 
....................       #else 
....................       Bomba_on; 
....................       #endif 
....................       flagBombaAgua=ON; 
....................       flagBombaAguaOff=OFF; 
....................       tBombaAguaOff=0; 
....................    } 
.................... } 
....................  
.................... void apagaBombaAgua(){ 
....................    Agua_off; 
....................    #ifdef Enfriador 
....................    Enfr_off; 
....................    #else 
....................    Bomba_off; 
....................    #endif 
....................    flagBombaAgua=OFF; 
....................    flagBombaAguaOff=OFF; 
....................    tBombaAguaOff=0; 
....................    tBombaAgua=0; 
.................... } 
....................  
.................... void purgaAire(){ 
....................    if(PresionCamara>(int16)Atmosferica+30 && !purgo){ 
*
06E42:  MOVLB  4
06E44:  CLRF   x44
06E46:  MOVFF  3B2,443
06E4A:  MOVLW  1E
06E4C:  ADDWF  x43,W
06E4E:  MOVWF  01
06E50:  MOVLW  00
06E52:  ADDWFC x44,W
06E54:  MOVWF  03
06E56:  MOVF   03,W
06E58:  MOVLB  3
06E5A:  SUBWF  x7A,W
06E5C:  BNC   6E76
06E5E:  BNZ   6E66
06E60:  MOVF   x79,W
06E62:  SUBWF  01,W
06E64:  BC    6E76
06E66:  MOVLB  0
06E68:  BTFSS  xA0.7
06E6A:  BRA    6E70
06E6C:  MOVLB  3
06E6E:  BRA    6E76
....................       purgaAire2=ON; 
06E70:  BSF    xA1.0
....................    }else{ 
06E72:  BRA    6E90
06E74:  MOVLB  3
....................       purgaAire2=OFF; 
06E76:  MOVLB  0
06E78:  BCF    xA1.0
....................       if(!purgo){ 
06E7A:  BTFSC  xA0.7
06E7C:  BRA    6E88
....................          Enfr_on; 
06E7E:  BSF    F8C.6
06E80:  BCF    F95.6
....................          Desfogue_on; 
06E82:  BSF    F8C.4
06E84:  BCF    F95.4
....................       }else{ 
06E86:  BRA    6E90
....................          Desfogue_off; 
06E88:  BCF    F8C.4
06E8A:  BCF    F95.4
....................          Enfr_off; 
06E8C:  BCF    F8C.6
06E8E:  BCF    F95.6
....................       } 
....................    } 
....................     
....................    if(purgaAire2){ 
06E90:  BTFSS  xA1.0
06E92:  BRA    6EEA
....................       Enfr_on; 
06E94:  BSF    F8C.6
06E96:  BCF    F95.6
....................       if(tPurgaAire>0 && tPurgaAire<12){ 
06E98:  MOVLB  3
06E9A:  MOVF   x85,F
06E9C:  BNZ   6EA2
06E9E:  MOVF   x86,F
06EA0:  BZ    6EB2
06EA2:  MOVF   x86,F
06EA4:  BNZ   6EB2
06EA6:  MOVF   x85,W
06EA8:  SUBLW  0B
06EAA:  BNC   6EB2
....................          Desfogue_on; 
06EAC:  BSF    F8C.4
06EAE:  BCF    F95.4
....................       }else if(tPurgaAire>=12 && tPurgaAire<66){ 
06EB0:  BRA    6EDE
06EB2:  MOVF   x86,F
06EB4:  BNZ   6EBC
06EB6:  MOVF   x85,W
06EB8:  SUBLW  0B
06EBA:  BC    6ECC
06EBC:  MOVF   x86,F
06EBE:  BNZ   6ECC
06EC0:  MOVF   x85,W
06EC2:  SUBLW  41
06EC4:  BNC   6ECC
....................          Desfogue_off; 
06EC6:  BCF    F8C.4
06EC8:  BCF    F95.4
....................       }else if(tPurgaAire>0){ 
06ECA:  BRA    6EDE
06ECC:  MOVF   x85,F
06ECE:  BNZ   6ED4
06ED0:  MOVF   x86,F
06ED2:  BZ    6EDE
....................          pulsosPurga++; 
06ED4:  INCF   x3F,F
....................          Desfogue_off; 
06ED6:  BCF    F8C.4
06ED8:  BCF    F95.4
....................          tPurgaAire=0; 
06EDA:  CLRF   x86
06EDC:  CLRF   x85
....................          //purgaAire2=OFF; 
....................          //purgo=ON; 
....................       } 
....................        
....................       if(pulsosPurga>=pulsosPurgaProgramados){ 
06EDE:  MOVF   x40,W
06EE0:  SUBWF  x3F,W
06EE2:  BNC   6EEC
....................          purgaAire2=OFF; 
06EE4:  MOVLB  0
06EE6:  BCF    xA1.0
....................          purgo=ON; 
06EE8:  BSF    xA0.7
06EEA:  MOVLB  3
....................       } 
....................    } 
....................  
.................... } 
06EEC:  MOVLB  0
06EEE:  GOTO   D14C (RETURN)
....................  
....................  
.................... #int_rda HIGH 
.................... void serial_rx_isr(){ 
....................  
....................    Dato2=fgetc(); 
*
00336:  BTFSS  F9E.5
00338:  BRA    0336
0033A:  MOVFF  FAE,35E
0033E:  MOVLB  3
....................    if(Dato2==0x65){//Inicio Comunicacion 
00340:  MOVF   x5E,W
00342:  SUBLW  65
00344:  BNZ   034C
....................       Inicio=1; 
00346:  MOVLW  01
00348:  MOVWF  x5C
....................       RX_Wr_Index =0; 
0034A:  CLRF   46
....................    } 
....................    //Inicio=1; 
....................    if(Inicio==1){ 
0034C:  DECFSZ x5C,W
0034E:  BRA    0364
....................       Rx_Buffer2[RX_Wr_Index] = Dato2; 
00350:  CLRF   03
00352:  MOVF   46,W
00354:  ADDLW  3B
00356:  MOVWF  FE9
00358:  MOVLW  00
0035A:  ADDWFC 03,W
0035C:  MOVWF  FEA
0035E:  MOVFF  35E,FEF
....................       RX_Wr_Index++; 
00362:  INCF   46,F
....................    } 
....................    if(RX_Wr_Index >= RX_BUFFER_SIZE){ 
00364:  MOVF   46,W
00366:  SUBLW  09
00368:  BC    036E
....................       RX_Wr_Index =0; 
0036A:  CLRF   46
....................       Inicio=0; 
0036C:  CLRF   x5C
....................    } 
....................  
....................    if(RX_Wr_Index==0){ 
0036E:  MOVF   46,F
00370:  BNZ   0392
....................       if(Rx_Buffer2[0]==0x65 && Rx_Buffer2[1]==0xff && Rx_Buffer2[2]==0xff && Rx_Buffer2[8]==0x00 && Rx_Buffer2[9]==0xff ){ 
00372:  MOVF   3B,W
00374:  SUBLW  65
00376:  BNZ   038E
00378:  INCFSZ 3C,W
0037A:  BRA    038E
0037C:  INCFSZ 3D,W
0037E:  BRA    038E
00380:  MOVF   43,F
00382:  BNZ   038E
00384:  INCFSZ 44,W
00386:  BRA    038E
....................          Dato_Exitoso=5; 
00388:  MOVLW  05
0038A:  MOVWF  x5D
....................       }else{ 
0038C:  BRA    0392
....................          Dato_Exitoso=10; 
0038E:  MOVLW  0A
00390:  MOVWF  x5D
....................       } 
....................    } 
....................    //Dato_Exitoso=5; 
....................    if(Menu==20) 
00392:  MOVF   x60,W
00394:  SUBLW  14
00396:  BNZ   039C
....................      Buzzer_on; 
00398:  BSF    F8C.0
0039A:  BCF    F95.0
.................... } 
....................  
0039C:  BCF    F9E.5
0039E:  MOVLB  0
003A0:  GOTO   010A
.................... #int_TIMER0 
.................... void temp0s(void){ 
....................    set_timer0(0); 
003A4:  CLRF   FD7
003A6:  CLRF   FD6
....................    t_exhaust++; 
003A8:  MOVLB  3
003AA:  INCF   x96,F
003AC:  BTFSC  FD8.2
003AE:  INCF   x97,F
....................    if(DesfogueSuave){ 
003B0:  MOVLB  0
003B2:  BTFSS  xA0.6
003B4:  BRA    03F6
....................       if(Nivel<6){ 
003B6:  MOVLB  3
003B8:  MOVF   x76,F
003BA:  BNZ   03F0
003BC:  MOVF   x75,W
003BE:  SUBLW  05
003C0:  BNC   03F0
....................          if(t_exhaust<=NivelSeleccionado) // Si el tiempo es menor o igual al tiempo de control se enciende la resistencia de lo contrario se apaga. 
003C2:  MOVF   x97,W
003C4:  SUBWF  x80,W
003C6:  BNC   03D6
003C8:  BNZ   03D0
003CA:  MOVF   x96,W
003CC:  SUBWF  x7F,W
003CE:  BNC   03D6
....................             Desfogue_on; 
003D0:  BSF    F8C.4
003D2:  BCF    F95.4
....................          else             
003D4:  BRA    03DA
....................             Desfogue_off; 
003D6:  BCF    F8C.4
003D8:  BCF    F95.4
....................        
....................          if(t_exhaust>=60000) // Si el tiempo de control es mayor al tiempo de ciclo se reinicia tiempo de control          
003DA:  MOVF   x97,W
003DC:  SUBLW  E9
003DE:  BC    03EE
003E0:  XORLW  FF
003E2:  BNZ   03EA
003E4:  MOVF   x96,W
003E6:  SUBLW  5F
003E8:  BC    03EE
....................             t_exhaust=0; // tiempoctrl incrementa una unidad cada Xms, por eso se dividen los tiempos por 0.005. 
003EA:  CLRF   x97
003EC:  CLRF   x96
....................       }else{ 
003EE:  BRA    03F4
....................          Desfogue_on; 
003F0:  BSF    F8C.4
003F2:  BCF    F95.4
003F4:  MOVLB  0
....................       } 
....................    }   
.................... } 
....................  
003F6:  BCF    FF2.2
003F8:  GOTO   0074
.................... #int_TIMER1 
.................... void temp1s(void){ 
....................    set_timer1(40536); // Se repite cada 5ms 
003FC:  MOVLW  9E
003FE:  MOVWF  FCF
00400:  MOVLW  58
00402:  MOVWF  FCE
....................    tiempos++; 
00404:  MOVLB  3
00406:  INCF   x6D,F
00408:  BTFSC  FD8.2
0040A:  INCF   x6E,F
....................    tiempos2++; 
0040C:  INCF   x6F,F
0040E:  BTFSC  FD8.2
00410:  INCF   x70,F
....................    tiempos3++; 
00412:  INCF   x71,F
00414:  BTFSC  FD8.2
00416:  INCF   x72,F
....................    tiempoctrl++; 
00418:  INCF   x73,F
0041A:  BTFSC  FD8.2
0041C:  INCF   x74,F
....................     
....................    if(!STOP){ 
0041E:  BSF    F93.7
00420:  BTFSS  F81.7
00422:  BRA    042C
....................       tStop++; 
00424:  INCF   x9E,F
00426:  BTFSC  FD8.2
00428:  INCF   x9F,F
....................    }else{ 
0042A:  BRA    0430
....................       tStop=0; 
0042C:  CLRF   x9F
0042E:  CLRF   x9E
....................    } 
....................     
....................    if(!TERM){ 
00430:  BSF    F93.5
00432:  BTFSS  F81.5
00434:  BRA    043E
....................       tTermostato++; 
00436:  INCF   xA0,F
00438:  BTFSC  FD8.2
0043A:  INCF   xA1,F
....................    }else{ 
0043C:  BRA    0442
....................       tTermostato=0; 
0043E:  CLRF   xA1
00440:  CLRF   xA0
....................    } 
....................     
....................    if(flagAlarma) 
00442:  MOVLB  0
00444:  BTFSS  xA3.1
00446:  BRA    0452
....................       tbuzzer++; 
00448:  MOVLB  3
0044A:  INCF   x98,F
0044C:  BTFSC  FD8.2
0044E:  INCF   x99,F
00450:  MOVLB  0
....................        
....................    if(flagSilencio)    
00452:  BTFSS  xA3.3
00454:  BRA    045E
....................       tsilencio++; 
00456:  MOVLB  3
00458:  INCF   x9A,F
0045A:  BTFSC  FD8.2
0045C:  INCF   x9B,F
....................     
....................    if(Controlando==1){ 
0045E:  MOVLB  3
00460:  DECFSZ x58,W
00462:  BRA    04A0
....................       if(tiempoctrl<Tp) // Si el tiempo es menor o igual al tiempo de control se enciende la resistencia de lo contrario se apaga. 
00464:  MOVF   x74,W
00466:  MOVLB  0
00468:  SUBWF  xAC,W
0046A:  BNC   0484
0046C:  BNZ   047E
0046E:  MOVF   xAB,W
00470:  MOVLB  3
00472:  SUBWF  x73,W
00474:  BTFSS  FD8.0
00476:  BRA    047C
00478:  MOVLB  0
0047A:  BRA    0484
0047C:  MOVLB  0
....................          SSR_on; 
0047E:  BCF    F8B.2
00480:  BCF    F94.2
....................       else          
00482:  BRA    0488
....................          SSR_off; 
00484:  BSF    F8B.2
00486:  BCF    F94.2
....................              
....................       if(tiempoctrl>=Tc) // Si el tiempo de control es mayor al tiempo de ciclo se reinicia tiempo de control 
00488:  MOVF   xAE,W
0048A:  MOVLB  3
0048C:  SUBWF  x74,W
0048E:  BNC   04A0
00490:  BNZ   049C
00492:  MOVLB  0
00494:  MOVF   xAD,W
00496:  MOVLB  3
00498:  SUBWF  x73,W
0049A:  BNC   04A0
....................          tiempoctrl=0;// tiempoctrl incrementa una unidad cada 5ms, por eso se dividen los tiempos por 0.005. 
0049C:  CLRF   x74
0049E:  CLRF   x73
....................    } 
....................     
....................    if(tiempos>=200)  // 12000 para que incremente cada minuto, 200para que incremente cada segundo. 
004A0:  MOVF   x6E,F
004A2:  BNZ   04AC
004A4:  MOVF   x6D,W
004A6:  SUBLW  C7
004A8:  BTFSC  FD8.0
004AA:  BRA    05FE
....................    { 
....................       if(flagTC) 
004AC:  BTFSS  x55.2
004AE:  BRA    04B2
....................          TiempoControl++; 
004B0:  INCF   x93,F
....................        
....................       if(purgaAire2) 
004B2:  MOVLB  0
004B4:  BTFSS  xA1.0
004B6:  BRA    04C0
....................          tPurgaAire++; 
004B8:  MOVLB  3
004BA:  INCF   x85,F
004BC:  BTFSC  FD8.2
004BE:  INCF   x86,F
....................        
....................       tiemporecta++; 
004C0:  MOVLB  3
004C2:  INCF   x57,F
....................        
....................       if(flagBombaAgua) 
004C4:  MOVLB  0
004C6:  BTFSS  xA4.4
004C8:  BRA    04D4
....................          tBombaAgua++; 
004CA:  MOVLB  3
004CC:  INCF   x81,F
004CE:  BTFSC  FD8.2
004D0:  INCF   x82,F
004D2:  MOVLB  0
....................        
....................       if(flagBombaAguaOff) 
004D4:  BTFSS  xA4.5
004D6:  BRA    04E2
....................          tBombaAguaOff++; 
004D8:  MOVLB  3
004DA:  INCF   x83,F
004DC:  BTFSC  FD8.2
004DE:  INCF   x84,F
004E0:  MOVLB  0
....................        
....................       if(IniciaCiclo && tiempoImpresion<CalculoImpresion){ 
004E2:  BTFSS  xA0.1
004E4:  BRA    04F8
004E6:  MOVLB  3
004E8:  MOVF   x5B,W
004EA:  SUBWF  x6C,W
004EC:  BTFSS  FD8.0
004EE:  BRA    04F4
004F0:  MOVLB  0
004F2:  BRA    04F8
....................          tiempoImpresion++; 
004F4:  INCF   x6C,F
....................       }else if(tiempoImpresion>=CalculoImpresion){ 
004F6:  BRA    0504
004F8:  MOVLB  3
004FA:  MOVF   x5B,W
004FC:  SUBWF  x6C,W
004FE:  BNC   0504
....................          flagImprime=1; 
00500:  BSF    x55.3
....................          tiempoImpresion=0; 
00502:  CLRF   x6C
....................       } 
....................        
....................       if(IniciaCiclo && !Esterilizando){ 
00504:  MOVLB  0
00506:  BTFSS  xA0.1
00508:  BRA    051E
0050A:  BTFSC  xA0.2
0050C:  BRA    051E
....................          TiempoCiclo++; 
0050E:  INCF   xA5,F
00510:  BTFSC  FD8.2
00512:  INCF   xA6,F
....................          tiempoAgua++; 
00514:  MOVLB  3
00516:  INCF   x9C,F
00518:  BTFSC  FD8.2
0051A:  INCF   x9D,F
0051C:  MOVLB  0
....................       } 
....................        
....................       if(IniciaLlenado && !CalderinLleno){ 
0051E:  BTFSS  x9F.7
00520:  BRA    052C
00522:  BTFSC  xA0.0
00524:  BRA    052C
....................          TiempoLlenado++; 
00526:  INCF   xA7,F
00528:  BTFSC  FD8.2
0052A:  INCF   xA8,F
....................       } 
....................        
....................       if(SensadoNivel){ 
0052C:  BTFSS  xA0.4
0052E:  BRA    0536
....................          TiempoSensadoNivel++; 
00530:  INCF   xA9,F
00532:  BTFSC  FD8.2
00534:  INCF   xAA,F
....................       } 
....................        
....................       if(guardaCiclo) 
00536:  BTFSS  xA4.3
00538:  BRA    0540
....................          tguarda++;  
0053A:  INCF   xAF,F
0053C:  BTFSC  FD8.2
0053E:  INCF   xB0,F
....................        
....................       tiempos=0;Lectura=1;tinicio++; 
00540:  MOVLB  3
00542:  CLRF   x6E
00544:  CLRF   x6D
00546:  MOVLB  0
00548:  BSF    xA4.7
0054A:  MOVLB  3
0054C:  INCF   x77,F
0054E:  BTFSC  FD8.2
00550:  INCF   x78,F
....................     
....................       if(Esterilizando && !Desfogando){                
00552:  MOVLB  0
00554:  BTFSS  xA0.2
00556:  BRA    05AA
00558:  BTFSC  xA0.5
0055A:  BRA    05AA
....................          if(Testerilizacion[0]>0){ 
0055C:  BTFSC  xB1.7
0055E:  BRA    056A
00560:  MOVF   xB1,W
00562:  SUBLW  00
00564:  BC    056A
....................             Testerilizacion[0]--; 
00566:  DECF   xB1,F
....................          }else if(Testerilizacion[1]>0){ 
00568:  BRA    05AA
0056A:  BTFSC  xB2.7
0056C:  BRA    057C
0056E:  MOVF   xB2,W
00570:  SUBLW  00
00572:  BC    057C
....................             Testerilizacion[1]--; 
00574:  DECF   xB2,F
....................             Testerilizacion[0]=9; 
00576:  MOVLW  09
00578:  MOVWF  xB1
....................          }else if(Testerilizacion[2]>0){ 
0057A:  BRA    05AA
0057C:  BTFSC  xB3.7
0057E:  BRA    0592
00580:  MOVF   xB3,W
00582:  SUBLW  00
00584:  BC    0592
....................             Testerilizacion[2]--; 
00586:  DECF   xB3,F
....................             Testerilizacion[1]=5; 
00588:  MOVLW  05
0058A:  MOVWF  xB2
....................             Testerilizacion[0]=9; 
0058C:  MOVLW  09
0058E:  MOVWF  xB1
....................          }else if(Testerilizacion[3]>0){ 
00590:  BRA    05AA
00592:  BTFSC  xB4.7
00594:  BRA    05AA
00596:  MOVF   xB4,W
00598:  SUBLW  00
0059A:  BC    05AA
....................             Testerilizacion[3]--; 
0059C:  DECF   xB4,F
....................             Testerilizacion[2]=9; 
0059E:  MOVLW  09
005A0:  MOVWF  xB3
....................             Testerilizacion[1]=5; 
005A2:  MOVLW  05
005A4:  MOVWF  xB2
....................             Testerilizacion[0]=9; 
005A6:  MOVLW  09
005A8:  MOVWF  xB1
....................          } 
....................       } 
....................        
....................       if(Secando){ 
005AA:  BTFSS  xA0.3
005AC:  BRA    05FC
....................          if(Tsecado[0]>0){ 
005AE:  BTFSC  xBB.7
005B0:  BRA    05BC
005B2:  MOVF   xBB,W
005B4:  SUBLW  00
005B6:  BC    05BC
....................             Tsecado[0]--; 
005B8:  DECF   xBB,F
....................          }else if(Tsecado[1]>0){ 
005BA:  BRA    05FC
005BC:  BTFSC  xBC.7
005BE:  BRA    05CE
005C0:  MOVF   xBC,W
005C2:  SUBLW  00
005C4:  BC    05CE
....................             Tsecado[1]--; 
005C6:  DECF   xBC,F
....................             Tsecado[0]=9; 
005C8:  MOVLW  09
005CA:  MOVWF  xBB
....................          }else if(Tsecado[2]>0){ 
005CC:  BRA    05FC
005CE:  BTFSC  xBD.7
005D0:  BRA    05E4
005D2:  MOVF   xBD,W
005D4:  SUBLW  00
005D6:  BC    05E4
....................             Tsecado[2]--; 
005D8:  DECF   xBD,F
....................             Tsecado[1]=5; 
005DA:  MOVLW  05
005DC:  MOVWF  xBC
....................             Tsecado[0]=9; 
005DE:  MOVLW  09
005E0:  MOVWF  xBB
....................          }else if(Tsecado[3]>0){ 
005E2:  BRA    05FC
005E4:  BTFSC  xBE.7
005E6:  BRA    05FC
005E8:  MOVF   xBE,W
005EA:  SUBLW  00
005EC:  BC    05FC
....................             Tsecado[3]--; 
005EE:  DECF   xBE,F
....................             Tsecado[2]=9; 
005F0:  MOVLW  09
005F2:  MOVWF  xBD
....................             Tsecado[1]=5; 
005F4:  MOVLW  05
005F6:  MOVWF  xBC
....................             Tsecado[0]=9; 
005F8:  MOVLW  09
005FA:  MOVWF  xBB
005FC:  MOVLB  3
....................          } 
....................       } 
....................    } 
.................... } 
....................  
005FE:  BCF    F9E.0
00600:  MOVLB  0
00602:  GOTO   0074
.................... void main() 
.................... { 
*
077E2:  CLRF   FF8
077E4:  BCF    FF1.2
077E6:  BCF    F9F.0
077E8:  BSF    F9F.5
077EA:  BSF    FD0.7
077EC:  BSF    07.7
077EE:  CLRF   FEA
077F0:  CLRF   FE9
077F2:  BSF    FB8.3
077F4:  MOVLW  08
077F6:  MOVWF  FAF
077F8:  MOVLW  02
077FA:  MOVWF  FB0
077FC:  MOVLW  A6
077FE:  MOVWF  FAC
07800:  MOVLW  90
07802:  MOVWF  FAB
07804:  CLRF   46
07806:  CLRF   47
07808:  CLRF   48
0780A:  CLRF   x62
0780C:  CLRF   x63
0780E:  CLRF   x84
07810:  CLRF   x85
07812:  CLRF   x86
07814:  BCF    x9F.0
07816:  BCF    x9F.1
07818:  BCF    x9F.2
0781A:  BCF    x9F.3
0781C:  BCF    x9F.4
0781E:  BCF    x9F.5
07820:  BCF    x9F.6
07822:  BCF    x9F.7
07824:  BCF    xA0.0
07826:  BCF    xA0.1
07828:  BCF    xA0.2
0782A:  BCF    xA0.3
0782C:  BCF    xA0.4
0782E:  BCF    xA0.5
07830:  BCF    xA0.6
07832:  BCF    xA0.7
07834:  BCF    xA1.0
07836:  BCF    xA1.1
07838:  BCF    xA1.2
0783A:  BCF    xA1.3
0783C:  BCF    xA1.4
0783E:  BCF    xA1.5
07840:  BCF    xA1.6
07842:  BCF    xA1.7
07844:  BCF    xA2.0
07846:  BCF    xA2.1
07848:  BCF    xA2.2
0784A:  BCF    xA2.3
0784C:  BCF    xA2.4
0784E:  BCF    xA2.5
07850:  BCF    xA2.6
07852:  BCF    xA2.7
07854:  BCF    xA3.0
07856:  BCF    xA3.1
07858:  BCF    xA3.2
0785A:  BCF    xA3.3
0785C:  BCF    xA3.4
0785E:  BCF    xA3.5
07860:  BCF    xA3.6
07862:  BCF    xA3.7
07864:  BCF    xA4.0
07866:  BCF    xA4.1
07868:  BCF    xA4.2
0786A:  BCF    xA4.3
0786C:  BCF    xA4.4
0786E:  BCF    xA4.5
07870:  CLRF   xA6
07872:  CLRF   xA5
07874:  CLRF   xA8
07876:  CLRF   xA7
07878:  CLRF   xAA
0787A:  CLRF   xA9
0787C:  CLRF   xAC
0787E:  CLRF   xAB
07880:  CLRF   xAE
07882:  CLRF   xAD
07884:  CLRF   xB0
07886:  CLRF   xAF
07888:  MOVLW  9A
0788A:  MOVLB  2
0788C:  MOVWF  xA6
0788E:  MOVLW  99
07890:  MOVWF  xA5
07892:  MOVLW  0D
07894:  MOVWF  xA4
07896:  MOVLW  86
07898:  MOVWF  xA3
0789A:  CLRF   xAA
0789C:  CLRF   xA9
0789E:  CLRF   xA8
078A0:  MOVLW  7E
078A2:  MOVWF  xA7
078A4:  CLRF   xAE
078A6:  CLRF   xAD
078A8:  CLRF   xAC
078AA:  CLRF   xAB
078AC:  CLRF   xB2
078AE:  CLRF   xB1
078B0:  MOVLW  48
078B2:  MOVWF  xB0
078B4:  MOVLW  85
078B6:  MOVWF  xAF
078B8:  CLRF   xB6
078BA:  MOVLW  80
078BC:  MOVWF  xB5
078BE:  MOVLW  54
078C0:  MOVWF  xB4
078C2:  MOVLW  8B
078C4:  MOVWF  xB3
078C6:  CLRF   xCA
078C8:  CLRF   xC9
078CA:  CLRF   xC8
078CC:  CLRF   xC7
078CE:  CLRF   xCE
078D0:  CLRF   xCD
078D2:  CLRF   xCC
078D4:  CLRF   xCB
078D6:  CLRF   xD2
078D8:  CLRF   xD1
078DA:  CLRF   xD0
078DC:  CLRF   xCF
078DE:  CLRF   xD6
078E0:  CLRF   xD5
078E2:  CLRF   xD4
078E4:  CLRF   xD3
078E6:  CLRF   xD7
078E8:  CLRF   xD8
078EA:  CLRF   xD9
078EC:  CLRF   xDA
078EE:  MOVLW  14
078F0:  MOVWF  xDB
078F2:  CLRF   xDC
078F4:  CLRF   xDD
078F6:  CLRF   xDE
078F8:  CLRF   xDF
078FA:  CLRF   xE0
078FC:  CLRF   xE1
078FE:  CLRF   xE2
07900:  CLRF   xE3
07902:  CLRF   xE4
07904:  CLRF   xE5
07906:  CLRF   xE6
07908:  CLRF   xE7
0790A:  CLRF   xEB
0790C:  CLRF   xEA
0790E:  CLRF   xE9
07910:  CLRF   xE8
07912:  CLRF   xF3
07914:  CLRF   xF2
07916:  MOVLW  20
07918:  MOVWF  xF1
0791A:  MOVLW  82
0791C:  MOVWF  xF0
0791E:  CLRF   xF7
07920:  CLRF   xF6
07922:  CLRF   xF5
07924:  CLRF   xF4
07926:  CLRF   xFB
07928:  CLRF   xFA
0792A:  CLRF   xF9
0792C:  CLRF   xF8
0792E:  CLRF   xFF
07930:  CLRF   xFE
07932:  CLRF   xFD
07934:  CLRF   xFC
07936:  MOVLB  3
07938:  CLRF   x03
0793A:  CLRF   x02
0793C:  CLRF   x01
0793E:  CLRF   x00
07940:  CLRF   x07
07942:  CLRF   x06
07944:  CLRF   x05
07946:  CLRF   x04
07948:  CLRF   x0B
0794A:  CLRF   x0A
0794C:  MOVLW  48
0794E:  MOVWF  x09
07950:  MOVLW  83
07952:  MOVWF  x08
07954:  CLRF   x0F
07956:  CLRF   x0E
07958:  MOVLW  20
0795A:  MOVWF  x0D
0795C:  MOVLW  83
0795E:  MOVWF  x0C
07960:  MOVLW  9A
07962:  MOVWF  x13
07964:  MOVLW  99
07966:  MOVWF  x12
07968:  MOVLW  19
0796A:  MOVWF  x11
0796C:  MOVLW  7F
0796E:  MOVWF  x10
07970:  CLRF   x17
07972:  CLRF   x16
07974:  CLRF   x15
07976:  CLRF   x14
07978:  CLRF   x1B
0797A:  CLRF   x1A
0797C:  CLRF   x19
0797E:  CLRF   x18
07980:  CLRF   x1F
07982:  CLRF   x1E
07984:  CLRF   x1D
07986:  CLRF   x1C
07988:  CLRF   x23
0798A:  CLRF   x22
0798C:  CLRF   x21
0798E:  CLRF   x20
07990:  CLRF   x27
07992:  CLRF   x26
07994:  CLRF   x25
07996:  CLRF   x24
07998:  CLRF   x2B
0799A:  CLRF   x2A
0799C:  CLRF   x29
0799E:  CLRF   x28
079A0:  MOVLW  4A
079A2:  MOVWF  x2F
079A4:  MOVLW  88
079A6:  MOVWF  x2E
079A8:  MOVLW  28
079AA:  MOVWF  x2D
079AC:  MOVLW  75
079AE:  MOVWF  x2C
079B0:  MOVLW  E0
079B2:  MOVWF  x33
079B4:  MOVLW  2D
079B6:  MOVWF  x32
079B8:  MOVLW  10
079BA:  MOVWF  x31
079BC:  MOVLW  75
079BE:  MOVWF  x30
079C0:  MOVLW  FF
079C2:  MOVWF  x37
079C4:  MOVLW  21
079C6:  MOVWF  x36
079C8:  MOVLW  15
079CA:  MOVWF  x35
079CC:  MOVLW  80
079CE:  MOVWF  x34
079D0:  MOVLW  82
079D2:  MOVWF  x3B
079D4:  MOVLW  12
079D6:  MOVWF  x3A
079D8:  MOVLW  F4
079DA:  MOVWF  x39
079DC:  MOVLW  86
079DE:  MOVWF  x38
079E0:  CLRF   x3C
079E2:  CLRF   x3D
079E4:  CLRF   x3E
079E6:  CLRF   x3F
079E8:  CLRF   x40
079EA:  MOVLW  B5
079EC:  MOVWF  x44
079EE:  MOVLW  EB
079F0:  MOVWF  x43
079F2:  MOVLW  1B
079F4:  MOVWF  x42
079F6:  MOVLW  6B
079F8:  MOVWF  x41
079FA:  MOVLW  D0
079FC:  MOVWF  x48
079FE:  MOVLW  9B
07A00:  MOVWF  x47
07A02:  MOVLW  8A
07A04:  MOVWF  x46
07A06:  MOVLW  75
07A08:  MOVWF  x45
07A0A:  MOVLW  1A
07A0C:  MOVWF  x4C
07A0E:  MOVLW  DD
07A10:  MOVWF  x4B
07A12:  MOVLW  61
07A14:  MOVWF  x4A
07A16:  MOVLW  7D
07A18:  MOVWF  x49
07A1A:  MOVLW  04
07A1C:  MOVWF  x50
07A1E:  MOVLW  16
07A20:  MOVWF  x4F
07A22:  MOVLW  02
07A24:  MOVWF  x4E
07A26:  MOVLW  85
07A28:  MOVWF  x4D
07A2A:  CLRF   x54
07A2C:  CLRF   x53
07A2E:  CLRF   x52
07A30:  CLRF   x51
07A32:  MOVLB  0
07A34:  BCF    xA4.6
07A36:  BCF    xA4.7
07A38:  MOVLB  3
07A3A:  BCF    x55.0
07A3C:  BCF    x55.1
07A3E:  BCF    x55.2
07A40:  BCF    x55.3
07A42:  BCF    x55.4
07A44:  CLRF   x56
07A46:  CLRF   x57
07A48:  CLRF   x58
07A4A:  MOVLW  01
07A4C:  MOVWF  x59
07A4E:  MOVLW  02
07A50:  MOVWF  x5A
07A52:  CLRF   x5B
07A54:  MOVLW  01
07A56:  MOVWF  x5C
07A58:  CLRF   x5D
07A5A:  CLRF   x5E
07A5C:  CLRF   x5F
07A5E:  CLRF   x60
07A60:  CLRF   x61
07A62:  MOVLW  F0
07A64:  MOVWF  x62
07A66:  CLRF   x63
07A68:  CLRF   x64
07A6A:  CLRF   x65
07A6C:  CLRF   x66
07A6E:  CLRF   x67
07A70:  MOVLW  01
07A72:  MOVWF  x68
07A74:  MOVWF  x69
07A76:  CLRF   x6A
07A78:  CLRF   x6B
07A7A:  CLRF   x6C
07A7C:  CLRF   x6E
07A7E:  CLRF   x6D
07A80:  CLRF   x70
07A82:  CLRF   x6F
07A84:  CLRF   x72
07A86:  CLRF   x71
07A88:  CLRF   x74
07A8A:  CLRF   x73
07A8C:  CLRF   x76
07A8E:  CLRF   x75
07A90:  CLRF   x78
07A92:  CLRF   x77
07A94:  CLRF   x7A
07A96:  CLRF   x79
07A98:  CLRF   x7C
07A9A:  CLRF   x7B
07A9C:  CLRF   x7E
07A9E:  CLRF   x7D
07AA0:  CLRF   x80
07AA2:  CLRF   x7F
07AA4:  CLRF   x82
07AA6:  CLRF   x81
07AA8:  CLRF   x84
07AAA:  CLRF   x83
07AAC:  CLRF   x86
07AAE:  CLRF   x85
07AB0:  CLRF   x8F
07AB2:  CLRF   x90
07AB4:  CLRF   x91
07AB6:  CLRF   x92
07AB8:  CLRF   x93
07ABA:  CLRF   x94
07ABC:  CLRF   x95
07ABE:  CLRF   x97
07AC0:  CLRF   x96
07AC2:  CLRF   x99
07AC4:  CLRF   x98
07AC6:  CLRF   x9B
07AC8:  CLRF   x9A
07ACA:  CLRF   x9D
07ACC:  CLRF   x9C
07ACE:  CLRF   x9F
07AD0:  CLRF   x9E
07AD2:  CLRF   xA1
07AD4:  CLRF   xA0
07AD6:  MOVLW  12
07AD8:  MOVWF  xA2
07ADA:  MOVLW  09
07ADC:  MOVWF  xA3
07ADE:  MOVLW  0D
07AE0:  MOVWF  xA4
07AE2:  CLRF   xA5
07AE4:  CLRF   xA6
07AE6:  CLRF   xA7
07AE8:  CLRF   xA8
07AEA:  CLRF   xA9
07AEC:  CLRF   xAA
07AEE:  CLRF   xAB
07AF0:  CLRF   xAC
07AF2:  CLRF   xAD
07AF4:  CLRF   xAE
07AF6:  CLRF   xAF
07AF8:  CLRF   xB0
07AFA:  CLRF   xB1
07AFC:  MOVLW  48
07AFE:  MOVWF  xB2
07B00:  CLRF   xB3
07B02:  CLRF   xB4
07B04:  CLRF   xB5
07B06:  CLRF   xB6
07B08:  CLRF   xC9
07B0A:  CLRF   xCA
07B0C:  CLRF   xCB
07B0E:  CLRF   xCC
07B10:  CLRF   xCD
07B12:  MOVF   FC1,W
07B14:  ANDLW  C0
07B16:  IORLW  0F
07B18:  MOVWF  FC1
07B1A:  MOVLW  07
07B1C:  MOVWF  FB4
07B1E:  CLRF   2A
07B20:  CLRF   2B
07B22:  MOVLB  0
07B24:  CLRF   x87
07B26:  MOVLW  03
07B28:  MOVWF  x88
07B2A:  MOVWF  x89
07B2C:  MOVLW  06
07B2E:  MOVWF  x8A
07B30:  MOVLW  01
07B32:  MOVWF  x8B
07B34:  MOVLW  04
07B36:  MOVWF  x8C
07B38:  MOVLW  06
07B3A:  MOVWF  x8D
07B3C:  MOVLW  02
07B3E:  MOVWF  x8E
07B40:  MOVLW  05
07B42:  MOVWF  x8F
07B44:  CLRF   x90
07B46:  MOVLW  03
07B48:  MOVWF  x91
07B4A:  MOVLW  05
07B4C:  MOVWF  x92
07B4E:  CLRF   x93
07B50:  MOVLW  03
07B52:  MOVWF  x94
07B54:  MOVLW  04
07B56:  MOVWF  x95
07B58:  CLRF   x96
07B5A:  MOVLW  02
07B5C:  MOVWF  x97
07B5E:  MOVLW  05
07B60:  MOVWF  x98
07B62:  CLRF   x99
07B64:  MOVLW  03
07B66:  MOVWF  x9A
07B68:  MOVLW  06
07B6A:  MOVWF  x9B
07B6C:  MOVLW  01
07B6E:  MOVWF  x9C
07B70:  MOVLW  04
07B72:  MOVWF  x9D
07B74:  MOVLW  06
07B76:  MOVWF  x9E
07B78:  CLRF   xB1
07B7A:  CLRF   xB2
07B7C:  CLRF   xB3
07B7E:  CLRF   xB4
07B80:  CLRF   xB5
07B82:  CLRF   xB6
07B84:  CLRF   xB7
07B86:  CLRF   xB8
07B88:  CLRF   xB9
07B8A:  CLRF   xBA
07B8C:  CLRF   xBB
07B8E:  CLRF   xBC
07B90:  CLRF   xBD
07B92:  CLRF   xBE
07B94:  CLRF   xBF
07B96:  CLRF   xC0
07B98:  CLRF   xC1
07B9A:  CLRF   xC2
07B9C:  CLRF   xC3
07B9E:  CLRF   xC4
07BA0:  CLRF   xC5
07BA2:  CLRF   xC6
07BA4:  CLRF   xC7
07BA6:  CLRF   xC8
07BA8:  CLRF   xC9
07BAA:  CLRF   xCA
07BAC:  CLRF   xCB
07BAE:  CLRF   xCC
07BB0:  CLRF   xCD
07BB2:  CLRF   xCE
07BB4:  CLRF   xCF
07BB6:  CLRF   xD0
07BB8:  CLRF   xD1
07BBA:  CLRF   xD2
07BBC:  CLRF   xD3
07BBE:  CLRF   xD4
07BC0:  CLRF   xD5
07BC2:  CLRF   xD6
07BC4:  CLRF   xD7
07BC6:  CLRF   xD8
07BC8:  CLRF   xD9
07BCA:  CLRF   xDA
07BCC:  CLRF   xDB
07BCE:  CLRF   xDC
07BD0:  CLRF   xDD
07BD2:  CLRF   xDE
07BD4:  CLRF   xDF
07BD6:  CLRF   xE0
07BD8:  CLRF   xE1
07BDA:  CLRF   xE2
07BDC:  CLRF   xE3
07BDE:  CLRF   xE4
07BE0:  CLRF   xE5
07BE2:  CLRF   xE6
07BE4:  CLRF   xE7
07BE6:  CLRF   xE8
07BE8:  CLRF   xE9
07BEA:  CLRF   xEA
07BEC:  CLRF   xEB
07BEE:  CLRF   xEC
07BF0:  CLRF   xED
07BF2:  CLRF   xEE
07BF4:  CLRF   xEF
07BF6:  CLRF   xF0
07BF8:  CLRF   xF1
07BFA:  CLRF   xF2
07BFC:  CLRF   xF3
07BFE:  CLRF   xF4
07C00:  CLRF   xF5
07C02:  CLRF   xF6
07C04:  CLRF   xF7
07C06:  CLRF   xF8
07C08:  CLRF   xF9
07C0A:  CLRF   xFA
07C0C:  CLRF   xFB
07C0E:  CLRF   xFC
07C10:  CLRF   xFD
07C12:  CLRF   xFE
07C14:  CLRF   xFF
07C16:  MOVLB  1
07C18:  CLRF   x00
07C1A:  CLRF   x01
07C1C:  CLRF   x02
07C1E:  CLRF   x03
07C20:  CLRF   x04
07C22:  CLRF   x05
07C24:  CLRF   x06
07C26:  CLRF   x07
07C28:  CLRF   x08
07C2A:  CLRF   x09
07C2C:  CLRF   x0A
07C2E:  CLRF   x0B
07C30:  CLRF   x0C
07C32:  CLRF   x0D
07C34:  CLRF   x0E
07C36:  CLRF   x0F
07C38:  CLRF   x10
07C3A:  CLRF   x11
07C3C:  CLRF   x12
07C3E:  CLRF   x13
07C40:  CLRF   x14
07C42:  CLRF   x15
07C44:  CLRF   x16
07C46:  CLRF   x17
07C48:  CLRF   x18
07C4A:  CLRF   x19
07C4C:  CLRF   x1A
07C4E:  CLRF   x1B
07C50:  CLRF   x1C
07C52:  CLRF   x1D
07C54:  CLRF   x1E
07C56:  CLRF   x1F
07C58:  CLRF   x20
07C5A:  CLRF   x21
07C5C:  CLRF   x22
07C5E:  CLRF   x23
07C60:  CLRF   x24
07C62:  CLRF   x25
07C64:  CLRF   x26
07C66:  CLRF   x27
07C68:  CLRF   x28
07C6A:  CLRF   x29
07C6C:  CLRF   x2A
07C6E:  CLRF   x2B
07C70:  CLRF   x2C
07C72:  CLRF   x2D
07C74:  CLRF   x2E
07C76:  CLRF   x2F
07C78:  CLRF   x30
07C7A:  CLRF   x31
07C7C:  CLRF   x32
07C7E:  CLRF   x33
07C80:  CLRF   x34
07C82:  CLRF   x35
07C84:  CLRF   x36
07C86:  CLRF   x37
07C88:  CLRF   x38
07C8A:  CLRF   x39
07C8C:  CLRF   x3A
07C8E:  CLRF   x3B
07C90:  CLRF   x3C
07C92:  CLRF   x3D
07C94:  CLRF   x3E
07C96:  CLRF   x3F
07C98:  CLRF   x40
07C9A:  CLRF   x41
07C9C:  CLRF   x42
07C9E:  CLRF   x43
07CA0:  CLRF   x44
07CA2:  CLRF   x45
07CA4:  CLRF   x46
07CA6:  CLRF   x47
07CA8:  CLRF   x48
07CAA:  CLRF   x49
07CAC:  CLRF   x4A
07CAE:  CLRF   x4B
07CB0:  CLRF   x4C
07CB2:  CLRF   x4D
07CB4:  CLRF   x4E
07CB6:  CLRF   x4F
07CB8:  CLRF   x50
07CBA:  CLRF   x51
07CBC:  CLRF   x52
07CBE:  CLRF   x53
07CC0:  CLRF   x54
07CC2:  CLRF   x55
07CC4:  CLRF   x56
07CC6:  CLRF   x57
07CC8:  CLRF   x58
07CCA:  CLRF   x59
07CCC:  CLRF   x5A
07CCE:  CLRF   x5B
07CD0:  CLRF   x5C
07CD2:  CLRF   x5D
07CD4:  CLRF   x5E
07CD6:  CLRF   x5F
07CD8:  CLRF   x60
07CDA:  CLRF   x61
07CDC:  CLRF   x62
07CDE:  CLRF   x63
07CE0:  CLRF   x64
07CE2:  CLRF   x65
07CE4:  CLRF   x66
07CE6:  CLRF   x67
07CE8:  CLRF   x68
07CEA:  CLRF   x69
07CEC:  CLRF   x6A
07CEE:  CLRF   x6B
07CF0:  CLRF   x6C
07CF2:  CLRF   x6D
07CF4:  CLRF   x6E
07CF6:  CLRF   x6F
07CF8:  CLRF   x70
07CFA:  CLRF   x71
07CFC:  CLRF   x72
07CFE:  CLRF   x73
07D00:  CLRF   x74
07D02:  CLRF   x75
07D04:  CLRF   x76
07D06:  CLRF   x77
07D08:  CLRF   x78
07D0A:  CLRF   x79
07D0C:  CLRF   x7A
07D0E:  CLRF   x7B
07D10:  CLRF   x7C
07D12:  CLRF   x7D
07D14:  CLRF   x7E
07D16:  CLRF   x7F
07D18:  CLRF   x80
07D1A:  CLRF   x81
07D1C:  CLRF   x82
07D1E:  CLRF   x83
07D20:  CLRF   x84
07D22:  CLRF   x85
07D24:  CLRF   x86
07D26:  CLRF   x87
07D28:  CLRF   x88
07D2A:  CLRF   x89
07D2C:  CLRF   x8A
07D2E:  CLRF   x8B
07D30:  CLRF   x8C
07D32:  CLRF   x8D
07D34:  CLRF   x8E
07D36:  CLRF   x8F
07D38:  CLRF   x90
07D3A:  CLRF   x91
07D3C:  CLRF   x92
07D3E:  CLRF   x93
07D40:  CLRF   x94
07D42:  CLRF   x95
07D44:  CLRF   x96
07D46:  CLRF   x97
07D48:  CLRF   x98
07D4A:  CLRF   x99
07D4C:  CLRF   x9A
07D4E:  CLRF   x9B
07D50:  CLRF   x9C
07D52:  CLRF   x9D
07D54:  CLRF   x9E
07D56:  CLRF   x9F
07D58:  CLRF   xA0
07D5A:  CLRF   xA1
07D5C:  CLRF   xA2
07D5E:  CLRF   xA3
07D60:  CLRF   xA4
07D62:  CLRF   xA5
07D64:  CLRF   xA6
07D66:  CLRF   xA7
07D68:  CLRF   xA8
07D6A:  CLRF   xA9
07D6C:  CLRF   xAA
07D6E:  CLRF   xAB
07D70:  CLRF   xAC
07D72:  CLRF   xAD
07D74:  CLRF   xAE
07D76:  CLRF   xAF
07D78:  CLRF   xB0
07D7A:  CLRF   xB1
07D7C:  CLRF   xB2
07D7E:  CLRF   xB3
07D80:  CLRF   xB4
07D82:  CLRF   xB5
07D84:  CLRF   xB6
07D86:  CLRF   xB7
07D88:  CLRF   xB8
07D8A:  CLRF   xB9
07D8C:  CLRF   xBA
07D8E:  CLRF   xBB
07D90:  CLRF   xBC
07D92:  CLRF   xBD
07D94:  CLRF   xBE
07D96:  CLRF   xBF
07D98:  CLRF   xC0
07D9A:  CLRF   xC1
07D9C:  CLRF   xC2
07D9E:  CLRF   xC3
07DA0:  CLRF   xC4
07DA2:  CLRF   xC5
07DA4:  CLRF   xC6
07DA6:  CLRF   xC7
07DA8:  CLRF   xC8
07DAA:  CLRF   xC9
07DAC:  CLRF   xCA
07DAE:  CLRF   xCB
07DB0:  CLRF   xCC
07DB2:  CLRF   xCD
07DB4:  CLRF   xCE
07DB6:  CLRF   xCF
07DB8:  CLRF   xD0
07DBA:  CLRF   xD1
07DBC:  CLRF   xD2
07DBE:  CLRF   xD3
07DC0:  CLRF   xD4
07DC2:  CLRF   xD5
07DC4:  CLRF   xD6
07DC6:  CLRF   xD7
07DC8:  CLRF   xD8
07DCA:  CLRF   xD9
07DCC:  CLRF   xDA
07DCE:  CLRF   xDB
07DD0:  CLRF   xDC
07DD2:  CLRF   xDD
07DD4:  CLRF   xDE
07DD6:  CLRF   xDF
07DD8:  CLRF   xE0
07DDA:  CLRF   xE1
07DDC:  CLRF   xE2
07DDE:  CLRF   xE3
07DE0:  CLRF   xE4
07DE2:  CLRF   xE5
07DE4:  CLRF   xE6
07DE6:  CLRF   xE7
07DE8:  CLRF   xE8
07DEA:  CLRF   xE9
07DEC:  CLRF   xEA
07DEE:  CLRF   xEB
07DF0:  CLRF   xEC
07DF2:  CLRF   xED
07DF4:  CLRF   xEE
07DF6:  CLRF   xEF
07DF8:  CLRF   xF0
07DFA:  CLRF   xF1
07DFC:  CLRF   xF2
07DFE:  CLRF   xF3
07E00:  CLRF   xF4
07E02:  CLRF   xF5
07E04:  CLRF   xF6
07E06:  CLRF   xF7
07E08:  CLRF   xF8
07E0A:  CLRF   xF9
07E0C:  CLRF   xFA
07E0E:  CLRF   xFB
07E10:  CLRF   xFC
07E12:  CLRF   xFD
07E14:  CLRF   xFE
07E16:  CLRF   xFF
07E18:  MOVLB  2
07E1A:  CLRF   x00
07E1C:  CLRF   x01
07E1E:  CLRF   x02
07E20:  CLRF   x03
07E22:  CLRF   x04
07E24:  CLRF   x05
07E26:  CLRF   x06
07E28:  CLRF   x07
07E2A:  CLRF   x08
07E2C:  CLRF   x09
07E2E:  CLRF   x0A
07E30:  CLRF   x0B
07E32:  CLRF   x0C
07E34:  CLRF   x0D
07E36:  CLRF   x0E
07E38:  CLRF   x0F
07E3A:  CLRF   x10
07E3C:  CLRF   x11
07E3E:  CLRF   x12
07E40:  CLRF   x13
07E42:  CLRF   x14
07E44:  CLRF   x15
07E46:  CLRF   x16
07E48:  CLRF   x17
07E4A:  CLRF   x18
07E4C:  CLRF   x19
07E4E:  CLRF   x1A
07E50:  CLRF   x1B
07E52:  CLRF   x1C
07E54:  CLRF   x1D
07E56:  CLRF   x1E
07E58:  CLRF   x1F
07E5A:  CLRF   x20
07E5C:  CLRF   x21
07E5E:  CLRF   x22
07E60:  CLRF   x23
07E62:  CLRF   x24
07E64:  CLRF   x25
07E66:  CLRF   x26
07E68:  CLRF   x27
07E6A:  CLRF   x28
07E6C:  CLRF   x29
07E6E:  CLRF   x2A
07E70:  CLRF   x2B
07E72:  CLRF   x2C
07E74:  CLRF   x2D
07E76:  CLRF   x2E
07E78:  CLRF   x2F
07E7A:  CLRF   x30
07E7C:  CLRF   x31
07E7E:  CLRF   x32
07E80:  CLRF   x33
07E82:  CLRF   x34
07E84:  CLRF   x35
07E86:  CLRF   x36
07E88:  CLRF   x37
07E8A:  CLRF   x38
07E8C:  CLRF   x39
07E8E:  CLRF   x3A
07E90:  CLRF   x3B
07E92:  CLRF   x3C
07E94:  CLRF   x3D
07E96:  CLRF   x3E
07E98:  CLRF   x3F
07E9A:  CLRF   x40
07E9C:  CLRF   x41
07E9E:  CLRF   x42
07EA0:  CLRF   x43
07EA2:  CLRF   x44
07EA4:  CLRF   x45
07EA6:  CLRF   x46
07EA8:  CLRF   x47
07EAA:  CLRF   x48
07EAC:  CLRF   x49
07EAE:  CLRF   x4A
07EB0:  CLRF   x4B
07EB2:  CLRF   x4C
07EB4:  CLRF   x4D
07EB6:  CLRF   x4E
07EB8:  CLRF   x4F
07EBA:  CLRF   x50
07EBC:  CLRF   x51
07EBE:  CLRF   x52
07EC0:  CLRF   x53
07EC2:  CLRF   x54
07EC4:  CLRF   x55
07EC6:  CLRF   x56
07EC8:  CLRF   x57
07ECA:  CLRF   x58
07ECC:  CLRF   x59
07ECE:  CLRF   x5A
07ED0:  CLRF   x5B
07ED2:  CLRF   x5C
07ED4:  CLRF   x5D
07ED6:  CLRF   x5E
07ED8:  CLRF   x5F
07EDA:  CLRF   x60
07EDC:  CLRF   x61
07EDE:  CLRF   x62
07EE0:  CLRF   x63
07EE2:  CLRF   x64
07EE4:  CLRF   x65
07EE6:  CLRF   x66
07EE8:  CLRF   x67
07EEA:  CLRF   x68
07EEC:  CLRF   x69
07EEE:  CLRF   x6A
07EF0:  CLRF   x6B
07EF2:  CLRF   x6C
07EF4:  CLRF   x6D
07EF6:  CLRF   x6E
07EF8:  CLRF   x6F
07EFA:  CLRF   x70
07EFC:  CLRF   x71
07EFE:  CLRF   x72
07F00:  CLRF   x73
07F02:  CLRF   x74
07F04:  CLRF   x75
07F06:  CLRF   x76
07F08:  CLRF   x77
07F0A:  CLRF   x78
07F0C:  CLRF   x79
07F0E:  CLRF   x7A
07F10:  CLRF   x7B
07F12:  CLRF   x7C
07F14:  CLRF   x7D
07F16:  CLRF   x7E
07F18:  CLRF   x7F
07F1A:  CLRF   x80
07F1C:  CLRF   x81
07F1E:  CLRF   x82
07F20:  CLRF   x83
07F22:  CLRF   x84
07F24:  CLRF   x85
07F26:  CLRF   x86
07F28:  CLRF   x87
07F2A:  CLRF   x88
07F2C:  CLRF   x89
07F2E:  CLRF   x8A
07F30:  CLRF   x8B
07F32:  CLRF   x8C
07F34:  CLRF   x8D
07F36:  CLRF   x8E
07F38:  CLRF   x8F
07F3A:  CLRF   x90
07F3C:  CLRF   x91
07F3E:  CLRF   x92
07F40:  CLRF   x93
07F42:  CLRF   x94
07F44:  CLRF   x95
07F46:  CLRF   x96
07F48:  CLRF   x97
07F4A:  CLRF   x98
07F4C:  CLRF   x99
07F4E:  CLRF   x9A
07F50:  CLRF   x9B
07F52:  CLRF   x9C
07F54:  CLRF   x9D
07F56:  CLRF   x9E
07F58:  CLRF   x9F
07F5A:  CLRF   xA0
07F5C:  CLRF   xA1
07F5E:  CLRF   xA2
07F60:  CLRF   xB7
07F62:  CLRF   xB8
07F64:  CLRF   xB9
07F66:  CLRF   xBA
07F68:  CLRF   xBB
07F6A:  CLRF   xBC
07F6C:  CLRF   xBD
07F6E:  CLRF   xBE
07F70:  CLRF   xBF
07F72:  CLRF   xC0
07F74:  CLRF   xC1
07F76:  CLRF   xC2
07F78:  CLRF   xC3
07F7A:  CLRF   xC4
07F7C:  CLRF   xC5
07F7E:  CLRF   xC6
07F80:  MOVLB  3
07F82:  CLRF   x87
07F84:  CLRF   x88
07F86:  CLRF   x89
07F88:  CLRF   x8A
07F8A:  CLRF   x8B
07F8C:  CLRF   x8C
07F8E:  CLRF   x8D
07F90:  CLRF   x8E
07F92:  MOVLW  19
07F94:  MOVWF  xB7
07F96:  MOVLW  10
07F98:  MOVWF  xB8
07F9A:  MOVLW  16
07F9C:  MOVWF  xB9
07F9E:  MOVLW  18
07FA0:  MOVWF  xBA
07FA2:  MOVLW  17
07FA4:  MOVWF  xBB
07FA6:  MOVLW  1C
07FA8:  MOVWF  xBC
07FAA:  MOVLW  14
07FAC:  MOVWF  xBD
07FAE:  MOVLW  2E
07FB0:  MOVWF  xBE
07FB2:  MOVLW  45
07FB4:  MOVWF  xBF
07FB6:  MOVLW  22
07FB8:  MOVWF  xC0
07FBA:  MOVLW  24
07FBC:  MOVWF  xC1
07FBE:  MOVLW  12
07FC0:  MOVWF  xC2
07FC2:  MOVLW  21
07FC4:  MOVWF  xC3
07FC6:  MOVLW  20
07FC8:  MOVWF  xC4
07FCA:  MOVLW  26
07FCC:  MOVWF  xC5
07FCE:  MOVLW  13
07FD0:  MOVWF  xC6
07FD2:  MOVLW  11
07FD4:  MOVWF  xC7
07FD6:  MOVLW  44
07FD8:  MOVWF  xC8
....................     
....................    for (posicion=0;posicion<0x10;posicion++){ 
07FDA:  MOVLB  0
07FDC:  CLRF   x86
07FDE:  MOVF   x86,W
07FE0:  SUBLW  0F
07FE2:  BNC   7FF8
....................       SlaveA0Tx[posicion] = 0x00; 
07FE4:  CLRF   03
07FE6:  MOVF   x86,W
07FE8:  ADDLW  64
07FEA:  MOVWF  FE9
07FEC:  MOVLW  00
07FEE:  ADDWFC 03,W
07FF0:  MOVWF  FEA
07FF2:  CLRF   FEF
....................    } 
07FF4:  INCF   x86,F
07FF6:  BRA    7FDE
....................    setup_timer_0(RTCC_8_BIT|RTCC_DIV_1); 
07FF8:  MOVLW  C8
07FFA:  MOVWF  FD5
....................    enable_interrupts(INT_TIMER0); 
07FFC:  BSF    FF2.5
....................    setup_timer_1(T1_INTERNAL|T1_DIV_BY_1); 
07FFE:  MOVLW  85
08000:  MOVWF  FCD
....................    enable_interrupts(INT_TIMER1); 
08002:  BSF    F9D.0
....................    setup_adc_ports(AN0_TO_AN3); 
08004:  MOVF   FC1,W
08006:  ANDLW  C0
08008:  IORLW  0B
0800A:  MOVWF  FC1
....................    setup_adc(ADC_CLOCK_DIV_32 ); 
0800C:  MOVF   FC0,W
0800E:  ANDLW  C0
08010:  IORLW  02
08012:  MOVWF  FC0
08014:  BSF    FC0.7
08016:  BSF    FC2.0
....................    port_b_pullups(true); 
08018:  BCF    FF1.7
....................    enable_interrupts(int_rda); 
0801A:  BSF    F9D.5
....................    setup_wdt(WDT_ON); 
0801C:  BSF    FD1.0
....................    enable_interrupts(global); 
0801E:  MOVLW  C0
08020:  IORWF  FF2,F
....................    LeeEEPROM(); 
08022:  GOTO   1E72
....................    rtc_init(); 
08026:  GOTO   2D20
....................    delay_ms(1); 
0802A:  MOVLW  01
0802C:  MOVLB  4
0802E:  MOVWF  x58
08030:  MOVLB  0
08032:  CALL   1A3E
....................    LimitaValores(); 
08036:  GOTO   2E3A
....................    CalculoImpresion=timpresion*60; 
0803A:  MOVLB  3
0803C:  MOVF   x5A,W
0803E:  MULLW  3C
08040:  MOVFF  FF3,35B
....................    printf("page Bienvenida"); 
08044:  MOVLW  06
08046:  MOVWF  FF6
08048:  MOVLW  06
0804A:  MOVWF  FF7
0804C:  MOVLW  00
0804E:  MOVWF  FF8
08050:  MOVLB  0
08052:  CALL   38F2
....................    SendDataDisplay(); 
08056:  CALL   3924
....................    printf("bkcmd=0"); 
0805A:  MOVLW  16
0805C:  MOVWF  FF6
0805E:  MOVLW  06
08060:  MOVWF  FF7
08062:  MOVLW  00
08064:  MOVWF  FF8
08066:  CALL   38F2
....................    SendDataDisplay(); 
0806A:  CALL   3924
....................    delay_ms(1500); 
0806E:  MOVLW  06
08070:  MOVLB  4
08072:  MOVWF  x43
08074:  MOVLW  FA
08076:  MOVWF  x58
08078:  MOVLB  0
0807A:  CALL   1A3E
0807E:  MOVLB  4
08080:  DECFSZ x43,F
08082:  BRA    8074
....................    printf("page Clave"); 
08084:  MOVLW  1E
08086:  MOVWF  FF6
08088:  MOVLW  06
0808A:  MOVWF  FF7
0808C:  MOVLW  00
0808E:  MOVWF  FF8
08090:  MOVLB  0
08092:  CALL   38F2
....................    SendDataDisplay(); 
08096:  CALL   3924
....................    ApagaSalidas(); 
0809A:  CALL   395A
....................     
....................    for(i=0;i<MediaMovil;i++){ 
0809E:  MOVLB  3
080A0:  CLRF   x63
080A2:  MOVLB  2
080A4:  MOVF   xDB,W
080A6:  MOVLB  3
080A8:  SUBWF  x63,W
080AA:  BC    811C
....................       Temperatura=LeerPT100(MediaMovil); 
080AC:  MOVFF  2DB,443
080B0:  MOVLB  0
080B2:  CALL   3AE8
080B6:  MOVFF  03,32B
080BA:  MOVFF  02,32A
080BE:  MOVFF  01,329
080C2:  MOVFF  00,328
....................       PresionCamara=Leer_Sensor_Presion_Camara(5); 
080C6:  MOVLW  05
080C8:  MOVLB  4
080CA:  MOVWF  x43
080CC:  MOVLB  0
080CE:  CALL   3F2E
080D2:  MOVFF  03,45B
080D6:  MOVFF  02,45A
080DA:  MOVFF  01,459
080DE:  MOVFF  00,458
080E2:  CALL   412A
080E6:  MOVFF  02,37A
080EA:  MOVFF  01,379
....................       PresionPreCamara=Leer_Sensor_Presion_PreCamara(5); 
080EE:  MOVLW  05
080F0:  MOVLB  4
080F2:  MOVWF  x43
080F4:  MOVLB  0
080F6:  CALL   4166
080FA:  MOVFF  03,45B
080FE:  MOVFF  02,45A
08102:  MOVFF  01,459
08106:  MOVFF  00,458
0810A:  CALL   412A
0810E:  MOVFF  02,37C
08112:  MOVFF  01,37B
....................    } 
08116:  MOVLB  3
08118:  INCF   x63,F
0811A:  BRA    80A2
....................     
....................    if(UP && DOWN && RIGHT && LEFT)//Si oprime boton de Toma. 
0811C:  BSF    F93.0
0811E:  BTFSC  F81.0
08120:  BRA    81A8
08122:  BSF    F93.1
08124:  BTFSC  F81.1
08126:  BRA    81A8
08128:  BSF    F93.2
0812A:  BTFSC  F81.2
0812C:  BRA    81A8
0812E:  BSF    F93.3
08130:  BTFSC  F81.3
08132:  BRA    81A8
....................    { 
....................       write_eeprom(37,0); 
08134:  CLRF   FAA
08136:  MOVLW  25
08138:  MOVWF  FA9
0813A:  CLRF   FA8
0813C:  BCF    FA6.6
0813E:  BCF    FA6.7
08140:  BSF    FA6.2
08142:  MOVF   FF2,W
08144:  MOVWF  00
08146:  BCF    FF2.6
08148:  BCF    FF2.7
0814A:  MOVLB  F
0814C:  MOVLW  55
0814E:  MOVWF  FA7
08150:  MOVLW  AA
08152:  MOVWF  FA7
08154:  BSF    FA6.1
08156:  BTFSC  FA6.1
08158:  BRA    8156
0815A:  BCF    FA6.2
0815C:  MOVF   00,W
0815E:  IORWF  FF2,F
....................       delay_ms(20); 
08160:  MOVLW  14
08162:  MOVLB  4
08164:  MOVWF  x58
08166:  MOVLB  0
08168:  CALL   1A3E
....................       write_eeprom(38,0); 
0816C:  CLRF   FAA
0816E:  MOVLW  26
08170:  MOVWF  FA9
08172:  CLRF   FA8
08174:  BCF    FA6.6
08176:  BCF    FA6.7
08178:  BSF    FA6.2
0817A:  MOVF   FF2,W
0817C:  MOVWF  00
0817E:  BCF    FF2.6
08180:  BCF    FF2.7
08182:  MOVLB  F
08184:  MOVLW  55
08186:  MOVWF  FA7
08188:  MOVLW  AA
0818A:  MOVWF  FA7
0818C:  BSF    FA6.1
0818E:  BTFSC  FA6.1
08190:  BRA    818E
08192:  BCF    FA6.2
08194:  MOVF   00,W
08196:  IORWF  FF2,F
....................       delay_ms(20); 
08198:  MOVLW  14
0819A:  MOVLB  4
0819C:  MOVWF  x58
0819E:  MOVLB  0
081A0:  CALL   1A3E
....................       reset_cpu(); 
081A4:  RESET
081A6:  MOVLB  3
....................    } 
....................     
....................    #ifdef PT100Fija 
....................       Atmosferica=0; 
....................    #else 
....................       if(!DOOR){ 
081A8:  BSF    F93.6
081AA:  BTFSS  F81.6
081AC:  BRA    82D2
....................          if(abs((float)PresionCamara-(float)Atmosferica)>=3 && PresionCamara<102){//Funcion de Auto Ajuste de Presion Atmosferica 
081AE:  MOVFF  37A,459
081B2:  MOVFF  379,458
081B6:  MOVLB  0
081B8:  CALL   1A66
081BC:  MOVFF  00,443
081C0:  MOVFF  01,444
081C4:  MOVFF  02,445
081C8:  MOVFF  03,446
081CC:  MOVLB  4
081CE:  CLRF   x59
081D0:  MOVFF  3B2,458
081D4:  MOVLB  0
081D6:  CALL   1A66
081DA:  BSF    FD8.1
081DC:  MOVFF  446,45B
081E0:  MOVFF  445,45A
081E4:  MOVFF  444,459
081E8:  MOVFF  443,458
081EC:  MOVFF  03,45F
081F0:  MOVFF  02,45E
081F4:  MOVFF  01,45D
081F8:  MOVFF  00,45C
081FC:  CALL   1BFA
08200:  MOVFF  00,443
08204:  MOVFF  01,444
08208:  MOVFF  02,445
0820C:  MOVFF  03,446
08210:  MOVFF  00,00
08214:  MOVFF  01,01
08218:  MOVFF  02,02
0821C:  MOVFF  03,03
08220:  BCF    01.7
08222:  MOVFF  00,443
08226:  MOVFF  01,444
0822A:  MOVFF  02,445
0822E:  MOVFF  03,446
08232:  MOVLB  4
08234:  CLRF   x4E
08236:  CLRF   x4D
08238:  MOVLW  40
0823A:  MOVWF  x4C
0823C:  MOVLW  80
0823E:  MOVWF  x4B
08240:  MOVFF  03,452
08244:  MOVFF  02,451
08248:  MOVFF  01,450
0824C:  MOVFF  00,44F
08250:  MOVLB  0
08252:  CALL   2D72
08256:  BC    825A
08258:  BNZ   82D0
0825A:  MOVLB  3
0825C:  MOVF   x7A,F
0825E:  BTFSC  FD8.2
08260:  BRA    8266
08262:  MOVLB  0
08264:  BRA    82D0
08266:  MOVF   x79,W
08268:  SUBLW  65
0826A:  BTFSC  FD8.0
0826C:  BRA    8272
0826E:  MOVLB  0
08270:  BRA    82D0
....................             Atmosferica=PresionCamara; 
08272:  MOVFF  379,3B2
....................             write_eeprom(31,Atmosferica); 
08276:  CLRF   FAA
08278:  MOVLW  1F
0827A:  MOVWF  FA9
0827C:  MOVFF  3B2,FA8
08280:  BCF    FA6.6
08282:  BCF    FA6.7
08284:  BSF    FA6.2
08286:  MOVF   FF2,W
08288:  MOVWF  00
0828A:  BCF    FF2.6
0828C:  BCF    FF2.7
0828E:  MOVLB  F
08290:  MOVLW  55
08292:  MOVWF  FA7
08294:  MOVLW  AA
08296:  MOVWF  FA7
08298:  BSF    FA6.1
0829A:  BTFSC  FA6.1
0829C:  BRA    829A
0829E:  BCF    FA6.2
082A0:  MOVF   00,W
082A2:  IORWF  FF2,F
....................             delay_ms(10); 
082A4:  MOVLW  0A
082A6:  MOVLB  4
082A8:  MOVWF  x58
082AA:  MOVLB  0
082AC:  CALL   1A3E
....................             Buzzer_on; 
082B0:  BSF    F8C.0
082B2:  BCF    F95.0
....................             delay_ms(1000); 
082B4:  MOVLW  04
082B6:  MOVLB  4
082B8:  MOVWF  x43
082BA:  MOVLW  FA
082BC:  MOVWF  x58
082BE:  MOVLB  0
082C0:  CALL   1A3E
082C4:  MOVLB  4
082C6:  DECFSZ x43,F
082C8:  BRA    82BA
....................             Buzzer_off; 
082CA:  BCF    F8C.0
082CC:  BCF    F95.0
082CE:  MOVLB  0
082D0:  MOVLB  3
....................          } 
....................       } 
....................    #endif 
....................    while(true) 
....................    { 
....................       LeeDisplay(); 
082D2:  MOVLB  0
082D4:  GOTO   4364
....................       Envio_Esclavos(); 
082D8:  CALL   46BA
....................       delay_ms(1); 
082DC:  MOVLW  01
082DE:  MOVLB  4
082E0:  MOVWF  x58
082E2:  MOVLB  0
082E4:  CALL   1A3E
....................       //Lectura_Esclavos(); 
....................       restart_wdt(); 
082E8:  CLRWDT
....................        
....................       if(!Esterilizando || Desfogando){ 
082EA:  BTFSS  xA0.2
082EC:  BRA    82F2
082EE:  BTFSS  xA0.5
082F0:  BRA    82FC
....................          CalculoImpresion=180; 
082F2:  MOVLW  B4
082F4:  MOVLB  3
082F6:  MOVWF  x5B
....................       }else{ 
082F8:  BRA    8302
082FA:  MOVLB  0
....................          CalculoImpresion=60; 
082FC:  MOVLW  3C
082FE:  MOVLB  3
08300:  MOVWF  x5B
....................       } 
....................        
....................       // Monitoreo Nivel de Agua//-------------------------------------- 
....................             if(!LOW){//Si no sensa agua en el nivel alto y no se ha llenado el calderin          
08302:  BSF    F94.1
08304:  BTFSC  F82.1
08306:  BRA    8330
....................                TiempoSensadoNivel=0; 
08308:  MOVLB  0
0830A:  CLRF   xAA
0830C:  CLRF   xA9
....................                Controlando=0;    
0830E:  MOVLB  3
08310:  CLRF   x58
....................                if(tiempoAgua<600){ 
08312:  MOVF   x9D,W
08314:  SUBLW  02
08316:  BNC   8324
08318:  BNZ   8320
0831A:  MOVF   x9C,W
0831C:  SUBLW  57
0831E:  BNC   8324
....................                   CalderinLleno=OFF; 
08320:  MOVLB  0
08322:  BCF    xA0.0
....................                } 
....................                SensadoNivel=OFF; 
08324:  MOVLB  0
08326:  BCF    xA0.4
....................                TiempoSensadoNivel=0; 
08328:  CLRF   xAA
0832A:  CLRF   xA9
....................                #ifdef ULKA 
....................                   if(!PruebaEstados){ 
....................                      if(PresionCamara<=((int16)Atmosferica+10) && Menu!=20 && HIG && Menu!=255){ 
....................                         enciendeBombaAgua(); 
....................                      } 
....................                      if(!HIG){ 
....................                         apagaBombaAgua(); 
....................                      } 
....................                   } 
....................                #endif 
....................             } else{ 
0832C:  BRA    8344
0832E:  MOVLB  3
....................                SensadoNivel=ON; 
08330:  MOVLB  0
08332:  BSF    xA0.4
....................                if(TiempoSensadoNivel>5){ 
08334:  MOVF   xAA,F
08336:  BNZ   833E
08338:  MOVF   xA9,W
0833A:  SUBLW  05
0833C:  BC    8344
....................                   SensadoNivel=OFF; 
0833E:  BCF    xA0.4
....................                   CalderinLleno=ON; 
08340:  BSF    xA0.0
....................                   IniciaLlenado=OFF;                   
08342:  BCF    x9F.7
....................                   #ifdef ULKA 
....................                      if(!PruebaEstados){ 
....................                         if(Menu!=20){ 
....................                            apagaBombaAgua(); 
....................                         } 
....................                      } 
....................                   #endif 
....................                } 
....................             } 
.................... // Tiempo de Grafica//-------------------------------------- 
....................       if(tiempos2>=6000){ 
08344:  MOVLB  3
08346:  MOVF   x70,W
08348:  SUBLW  16
0834A:  BC    835C
0834C:  XORLW  FF
0834E:  BNZ   8356
08350:  MOVF   x6F,W
08352:  SUBLW  6F
08354:  BC    835C
....................          Grafica=1; 
08356:  BSF    x55.0
....................          tiempos2=0; 
08358:  CLRF   x70
0835A:  CLRF   x6F
....................       } 
....................  
.................... // Tiempo de Muestreo//-------------------------------------- 
....................       if(tiempos3>=20){ 
0835C:  MOVF   x72,F
0835E:  BNZ   8368
08360:  MOVF   x71,W
08362:  SUBLW  13
08364:  BTFSC  FD8.0
08366:  BRA    849C
....................          Temperatura=LeerPt100(MediaMovil); 
08368:  MOVFF  2DB,443
0836C:  MOVLB  0
0836E:  CALL   3AE8
08372:  MOVFF  03,32B
08376:  MOVFF  02,32A
0837A:  MOVFF  01,329
0837E:  MOVFF  00,328
....................          PresionCamara=Leer_Sensor_Presion_Camara(10); 
08382:  MOVLW  0A
08384:  MOVLB  4
08386:  MOVWF  x43
08388:  MOVLB  0
0838A:  CALL   3F2E
0838E:  MOVFF  03,45B
08392:  MOVFF  02,45A
08396:  MOVFF  01,459
0839A:  MOVFF  00,458
0839E:  CALL   412A
083A2:  MOVFF  02,37A
083A6:  MOVFF  01,379
....................          PresionPreCamara=Leer_Sensor_Presion_PreCamara(10); 
083AA:  MOVLW  0A
083AC:  MOVLB  4
083AE:  MOVWF  x43
083B0:  MOVLB  0
083B2:  CALL   4166
083B6:  MOVFF  03,45B
083BA:  MOVFF  02,45A
083BE:  MOVFF  01,459
083C2:  MOVFF  00,458
083C6:  CALL   412A
083CA:  MOVFF  02,37C
083CE:  MOVFF  01,37B
....................          rtc_get_date(Dia,Mes,Year,dow); 
....................          rtc_get_time(Hora,Minuto,Segundo); 
....................          tiempos3=0; 
*
08496:  MOVLB  3
08498:  CLRF   x72
0849A:  CLRF   x71
....................       } 
....................        
.................... // Monitoreo Parada Emergencia//--------------------------------------       
....................       if(!STOP && !IniciaCiclo && !PruebaEstados){ 
0849C:  BSF    F93.7
0849E:  BTFSS  F81.7
084A0:  BRA    8502
084A2:  MOVLB  0
084A4:  BTFSS  xA0.1
084A6:  BRA    84AC
084A8:  MOVLB  3
084AA:  BRA    8502
084AC:  BTFSS  xA1.4
084AE:  BRA    84B4
084B0:  MOVLB  3
084B2:  BRA    8502
....................          if(!disp_Stop){ 
084B4:  MOVLB  3
084B6:  BTFSC  x55.1
084B8:  BRA    84D8
....................             disp_Stop=1;Menu=255; 
084BA:  BSF    x55.1
084BC:  MOVLW  FF
084BE:  MOVWF  x60
....................             printf("page Emergencia"); 
084C0:  MOVLW  2A
084C2:  MOVWF  FF6
084C4:  MOVLW  06
084C6:  MOVWF  FF7
084C8:  MOVLW  00
084CA:  MOVWF  FF8
084CC:  MOVLB  0
084CE:  CALL   38F2
....................             SendDataDisplay(); 
084D2:  CALL   3924
084D6:  MOVLB  3
....................          } 
....................          Controlando=0; 
084D8:  CLRF   x58
....................          Desfogue_on; 
084DA:  BSF    F8C.4
084DC:  BCF    F95.4
....................          SSR_off; 
084DE:  BSF    F8B.2
084E0:  BCF    F94.2
....................          #ifdef Enfriador 
....................          Enfr_on; 
084E2:  BSF    F8C.6
084E4:  BCF    F95.6
....................          #else 
....................          Bomba_off; 
....................          #endif 
....................          Agua_off; 
084E6:  BCF    F8C.5
084E8:  BCF    F95.5
....................          DesfogueSuave=OFF; 
084EA:  MOVLB  0
084EC:  BCF    xA0.6
....................          ActivaAlarma(1); 
084EE:  MOVLW  01
084F0:  MOVLB  4
084F2:  MOVWF  x43
084F4:  MOVLB  0
084F6:  CALL   477C
....................          BorraBuffer(); 
084FA:  GOTO   4852
....................       }else{ 
084FE:  BRA    8508
08500:  MOVLB  3
....................          if(disp_Stop){ 
08502:  BTFSS  x55.1
08504:  BRA    8508
....................             reset_cpu(); 
08506:  RESET
....................          } 
....................       }            
....................    //Buzzer_off;    
.................... //_-------------------------------------------------------------------------------------------------------------------------------------------------------- 
....................    if(Menu==240){ //Menu de Bienvenida. 
08508:  MOVLB  3
0850A:  MOVF   x60,W
0850C:  SUBLW  F0
0850E:  BNZ   8558
....................       printf("bkcmd=0"); 
08510:  MOVLW  3A
08512:  MOVWF  FF6
08514:  MOVLW  06
08516:  MOVWF  FF7
08518:  MOVLW  00
0851A:  MOVWF  FF8
0851C:  MOVLB  0
0851E:  CALL   38F2
....................       SendDataDisplay(); 
08522:  CALL   3924
....................       delay_ms(1500); 
08526:  MOVLW  06
08528:  MOVLB  4
0852A:  MOVWF  x43
0852C:  MOVLW  FA
0852E:  MOVWF  x58
08530:  MOVLB  0
08532:  CALL   1A3E
08536:  MOVLB  4
08538:  DECFSZ x43,F
0853A:  BRA    852C
....................       printf("page Clave"); 
0853C:  MOVLW  42
0853E:  MOVWF  FF6
08540:  MOVLW  06
08542:  MOVWF  FF7
08544:  MOVLW  00
08546:  MOVWF  FF8
08548:  MOVLB  0
0854A:  CALL   38F2
....................       SendDataDisplay(); 
0854E:  CALL   3924
....................       ApagaSalidas(); 
08552:  CALL   395A
08556:  MOVLB  3
....................    } 
.................... //_-------------------------------------------------------------------------------------------------------------------------------------------------------- 
....................  
.................... //_-------------------------------------------------------------------------------------------------------------------------------------------------------- 
....................     if(Menu==0){ //Menu de Contrasea de acceso. 
08558:  MOVF   x60,F
0855A:  BTFSS  FD8.2
0855C:  GOTO   8FD2
....................       //ApagaSalidas(); 
....................       entro=OFF; 
08560:  MOVLB  0
08562:  BCF    xA4.0
....................       if(Digito==1){ 
08564:  MOVLB  2
08566:  DECFSZ xE0,W
08568:  BRA    85B4
....................          printf("t0.txt=\"%u\"",Contrasena[0]); 
0856A:  MOVLW  4E
0856C:  MOVWF  FF6
0856E:  MOVLW  06
08570:  MOVWF  FF7
08572:  MOVLW  00
08574:  MOVWF  FF8
08576:  MOVLW  08
08578:  MOVLB  4
0857A:  MOVWF  x48
0857C:  MOVLB  0
0857E:  CALL   487E
08582:  MOVFF  387,448
08586:  MOVLW  1B
08588:  MOVLB  4
0858A:  MOVWF  x49
0858C:  MOVLB  0
0858E:  CALL   48DC
08592:  MOVLW  22
08594:  BTFSS  F9E.4
08596:  BRA    8594
08598:  MOVWF  FAD
....................          SendDataDisplay(); 
0859A:  CALL   3924
....................          printf("va0.val=1"); 
0859E:  MOVLW  5A
085A0:  MOVWF  FF6
085A2:  MOVLW  06
085A4:  MOVWF  FF7
085A6:  MOVLW  00
085A8:  MOVWF  FF8
085AA:  CALL   38F2
....................          SendDataDisplay(); 
085AE:  CALL   3924
085B2:  MOVLB  2
....................       } 
....................        
....................       if(Digito==2){ 
085B4:  MOVF   xE0,W
085B6:  SUBLW  02
085B8:  BNZ   8614
....................          printf("t0.txt=\"%u%u\"",Contrasena[0],Contrasena[1]); 
085BA:  MOVLW  64
085BC:  MOVWF  FF6
085BE:  MOVLW  06
085C0:  MOVWF  FF7
085C2:  MOVLW  00
085C4:  MOVWF  FF8
085C6:  MOVLW  08
085C8:  MOVLB  4
085CA:  MOVWF  x48
085CC:  MOVLB  0
085CE:  CALL   487E
085D2:  MOVFF  387,448
085D6:  MOVLW  1B
085D8:  MOVLB  4
085DA:  MOVWF  x49
085DC:  MOVLB  0
085DE:  CALL   48DC
085E2:  MOVFF  388,448
085E6:  MOVLW  1B
085E8:  MOVLB  4
085EA:  MOVWF  x49
085EC:  MOVLB  0
085EE:  CALL   48DC
085F2:  MOVLW  22
085F4:  BTFSS  F9E.4
085F6:  BRA    85F4
085F8:  MOVWF  FAD
....................          SendDataDisplay(); 
085FA:  CALL   3924
....................          printf("va0.val=2"); 
085FE:  MOVLW  72
08600:  MOVWF  FF6
08602:  MOVLW  06
08604:  MOVWF  FF7
08606:  MOVLW  00
08608:  MOVWF  FF8
0860A:  CALL   38F2
....................          SendDataDisplay(); 
0860E:  CALL   3924
08612:  MOVLB  2
....................       } 
....................        
....................       if(Digito==3){ 
08614:  MOVF   xE0,W
08616:  SUBLW  03
08618:  BNZ   8684
....................          printf("t0.txt=\"%u%u%u\"",Contrasena[0],Contrasena[1],Contrasena[2]); 
0861A:  MOVLW  7C
0861C:  MOVWF  FF6
0861E:  MOVLW  06
08620:  MOVWF  FF7
08622:  MOVLW  00
08624:  MOVWF  FF8
08626:  MOVLW  08
08628:  MOVLB  4
0862A:  MOVWF  x48
0862C:  MOVLB  0
0862E:  CALL   487E
08632:  MOVFF  387,448
08636:  MOVLW  1B
08638:  MOVLB  4
0863A:  MOVWF  x49
0863C:  MOVLB  0
0863E:  CALL   48DC
08642:  MOVFF  388,448
08646:  MOVLW  1B
08648:  MOVLB  4
0864A:  MOVWF  x49
0864C:  MOVLB  0
0864E:  CALL   48DC
08652:  MOVFF  389,448
08656:  MOVLW  1B
08658:  MOVLB  4
0865A:  MOVWF  x49
0865C:  MOVLB  0
0865E:  CALL   48DC
08662:  MOVLW  22
08664:  BTFSS  F9E.4
08666:  BRA    8664
08668:  MOVWF  FAD
....................          SendDataDisplay(); 
0866A:  CALL   3924
....................          printf("va0.val=3"); 
0866E:  MOVLW  8C
08670:  MOVWF  FF6
08672:  MOVLW  06
08674:  MOVWF  FF7
08676:  MOVLW  00
08678:  MOVWF  FF8
0867A:  CALL   38F2
....................          SendDataDisplay(); 
0867E:  CALL   3924
08682:  MOVLB  2
....................       } 
....................        
....................       if(Digito==4){ 
08684:  MOVF   xE0,W
08686:  SUBLW  04
08688:  BNZ   8704
....................          printf("t0.txt=\"%u%u%u%u\"",Contrasena[0],Contrasena[1],Contrasena[2],Contrasena[3]); 
0868A:  MOVLW  96
0868C:  MOVWF  FF6
0868E:  MOVLW  06
08690:  MOVWF  FF7
08692:  MOVLW  00
08694:  MOVWF  FF8
08696:  MOVLW  08
08698:  MOVLB  4
0869A:  MOVWF  x48
0869C:  MOVLB  0
0869E:  CALL   487E
086A2:  MOVFF  387,448
086A6:  MOVLW  1B
086A8:  MOVLB  4
086AA:  MOVWF  x49
086AC:  MOVLB  0
086AE:  CALL   48DC
086B2:  MOVFF  388,448
086B6:  MOVLW  1B
086B8:  MOVLB  4
086BA:  MOVWF  x49
086BC:  MOVLB  0
086BE:  CALL   48DC
086C2:  MOVFF  389,448
086C6:  MOVLW  1B
086C8:  MOVLB  4
086CA:  MOVWF  x49
086CC:  MOVLB  0
086CE:  CALL   48DC
086D2:  MOVFF  38A,448
086D6:  MOVLW  1B
086D8:  MOVLB  4
086DA:  MOVWF  x49
086DC:  MOVLB  0
086DE:  CALL   48DC
086E2:  MOVLW  22
086E4:  BTFSS  F9E.4
086E6:  BRA    86E4
086E8:  MOVWF  FAD
....................          SendDataDisplay(); 
086EA:  CALL   3924
....................          printf("va0.val=4"); 
086EE:  MOVLW  A8
086F0:  MOVWF  FF6
086F2:  MOVLW  06
086F4:  MOVWF  FF7
086F6:  MOVLW  00
086F8:  MOVWF  FF8
086FA:  CALL   38F2
....................          SendDataDisplay(); 
086FE:  CALL   3924
08702:  MOVLB  2
....................       } 
....................        
....................       if(UP){ 
08704:  BSF    F93.0
08706:  BTFSC  F81.0
08708:  BRA    8752
....................          delay_ms(100); 
0870A:  MOVLW  64
0870C:  MOVLB  4
0870E:  MOVWF  x58
08710:  MOVLB  0
08712:  CALL   1A3E
....................          if(UP){ 
08716:  BSF    F93.0
08718:  BTFSC  F81.0
0871A:  BRA    8754
....................          if(Digito==0) 
0871C:  MOVLB  2
0871E:  MOVF   xE0,F
08720:  BNZ   8726
....................             Digito=1; 
08722:  MOVLW  01
08724:  MOVWF  xE0
....................             if(Contrasena[Digito-1]<9) 
08726:  MOVLW  01
08728:  SUBWF  xE0,W
0872A:  CLRF   03
0872C:  ADDLW  87
0872E:  MOVWF  FE9
08730:  MOVLW  03
08732:  ADDWFC 03,W
08734:  MOVWF  FEA
08736:  BTFSC  FEF.7
08738:  BRA    8740
0873A:  MOVF   FEF,W
0873C:  SUBLW  08
0873E:  BNC   8752
....................                Contrasena[Digito-1]++; 
08740:  MOVLW  01
08742:  SUBWF  xE0,W
08744:  CLRF   03
08746:  ADDLW  87
08748:  MOVWF  FE9
0874A:  MOVLW  03
0874C:  ADDWFC 03,W
0874E:  MOVWF  FEA
08750:  INCF   FEF,F
08752:  MOVLB  0
....................          } 
....................       } 
....................        
....................       if(DOWN){ 
08754:  BSF    F93.1
08756:  BTFSC  F81.1
08758:  BRA    87A4
....................          delay_ms(100); 
0875A:  MOVLW  64
0875C:  MOVLB  4
0875E:  MOVWF  x58
08760:  MOVLB  0
08762:  CALL   1A3E
....................          if(Digito==0) 
08766:  MOVLB  2
08768:  MOVF   xE0,F
0876A:  BNZ   8770
....................             Digito=1; 
0876C:  MOVLW  01
0876E:  MOVWF  xE0
....................          if(DOWN){ 
08770:  BSF    F93.1
08772:  BTFSC  F81.1
08774:  BRA    87A2
....................             if(Contrasena[Digito-1]>0) 
08776:  MOVLW  01
08778:  SUBWF  xE0,W
0877A:  CLRF   03
0877C:  ADDLW  87
0877E:  MOVWF  FE9
08780:  MOVLW  03
08782:  ADDWFC 03,W
08784:  MOVWF  FEA
08786:  BTFSC  FEF.7
08788:  BRA    87A2
0878A:  MOVF   FEF,W
0878C:  SUBLW  00
0878E:  BC    87A2
....................                Contrasena[Digito-1]--; 
08790:  MOVLW  01
08792:  SUBWF  xE0,W
08794:  CLRF   03
08796:  ADDLW  87
08798:  MOVWF  FE9
0879A:  MOVLW  03
0879C:  ADDWFC 03,W
0879E:  MOVWF  FEA
087A0:  DECF   FEF,F
087A2:  MOVLB  0
....................          } 
....................       } 
....................        
....................       if(RIGHT){ 
087A4:  BSF    F93.2
087A6:  BTFSC  F81.2
087A8:  BRA    87C2
....................          delay_ms(100); 
087AA:  MOVLW  64
087AC:  MOVLB  4
087AE:  MOVWF  x58
087B0:  MOVLB  0
087B2:  CALL   1A3E
....................          if(RIGHT){ 
087B6:  BSF    F93.2
087B8:  BTFSC  F81.2
087BA:  BRA    87C2
....................             Digito++; 
087BC:  MOVLB  2
087BE:  INCF   xE0,F
087C0:  MOVLB  0
....................          } 
....................       } 
....................        
....................       if(Digito>4){ 
087C2:  MOVLB  2
087C4:  MOVF   xE0,W
087C6:  SUBLW  04
087C8:  BTFSC  FD8.0
087CA:  BRA    8B1C
....................       Digito=0; 
087CC:  CLRF   xE0
....................       printf("t0.txt=\"\""); 
087CE:  MOVLW  B2
087D0:  MOVWF  FF6
087D2:  MOVLW  06
087D4:  MOVWF  FF7
087D6:  MOVLW  00
087D8:  MOVWF  FF8
087DA:  MOVLB  0
087DC:  CALL   38F2
....................       SendDataDisplay(); 
087E0:  CALL   3924
....................          if(TipoClave==0){ 
087E4:  MOVLB  2
087E6:  MOVF   xDE,F
087E8:  BTFSS  FD8.2
087EA:  BRA    893A
....................             if(Contrasena[0]==3&&Contrasena[1]==8&&Contrasena[2]==9&&Contrasena[3]==2){ // Si Ingresa clave para reset general del sistema. 
087EC:  MOVLB  3
087EE:  MOVF   x87,W
087F0:  SUBLW  03
087F2:  BTFSS  FD8.2
087F4:  BRA    88EE
087F6:  MOVF   x88,W
087F8:  SUBLW  08
087FA:  BTFSS  FD8.2
087FC:  BRA    88EE
087FE:  MOVF   x89,W
08800:  SUBLW  09
08802:  BNZ   88EE
08804:  MOVF   x8A,W
08806:  SUBLW  02
08808:  BNZ   88EE
....................                write_eeprom(10,0);delay_ms(20);write_eeprom(11,0);delay_ms(20);// Reestablece a contrasea de Fabrica y reinicia Programa. 
0880A:  CLRF   FAA
0880C:  MOVLW  0A
0880E:  MOVWF  FA9
08810:  CLRF   FA8
08812:  BCF    FA6.6
08814:  BCF    FA6.7
08816:  BSF    FA6.2
08818:  MOVF   FF2,W
0881A:  MOVWF  00
0881C:  BCF    FF2.6
0881E:  BCF    FF2.7
08820:  MOVLB  F
08822:  MOVLW  55
08824:  MOVWF  FA7
08826:  MOVLW  AA
08828:  MOVWF  FA7
0882A:  BSF    FA6.1
0882C:  BTFSC  FA6.1
0882E:  BRA    882C
08830:  BCF    FA6.2
08832:  MOVF   00,W
08834:  IORWF  FF2,F
08836:  MOVLW  14
08838:  MOVLB  4
0883A:  MOVWF  x58
0883C:  MOVLB  0
0883E:  CALL   1A3E
08842:  CLRF   FAA
08844:  MOVLW  0B
08846:  MOVWF  FA9
08848:  CLRF   FA8
0884A:  BCF    FA6.6
0884C:  BCF    FA6.7
0884E:  BSF    FA6.2
08850:  MOVF   FF2,W
08852:  MOVWF  00
08854:  BCF    FF2.6
08856:  BCF    FF2.7
08858:  MOVLB  F
0885A:  MOVLW  55
0885C:  MOVWF  FA7
0885E:  MOVLW  AA
08860:  MOVWF  FA7
08862:  BSF    FA6.1
08864:  BTFSC  FA6.1
08866:  BRA    8864
08868:  BCF    FA6.2
0886A:  MOVF   00,W
0886C:  IORWF  FF2,F
0886E:  MOVLW  14
08870:  MOVLB  4
08872:  MOVWF  x58
08874:  MOVLB  0
08876:  CALL   1A3E
....................                write_eeprom(12,0);delay_ms(20);write_eeprom(13,0);delay_ms(20); 
0887A:  CLRF   FAA
0887C:  MOVLW  0C
0887E:  MOVWF  FA9
08880:  CLRF   FA8
08882:  BCF    FA6.6
08884:  BCF    FA6.7
08886:  BSF    FA6.2
08888:  MOVF   FF2,W
0888A:  MOVWF  00
0888C:  BCF    FF2.6
0888E:  BCF    FF2.7
08890:  MOVLB  F
08892:  MOVLW  55
08894:  MOVWF  FA7
08896:  MOVLW  AA
08898:  MOVWF  FA7
0889A:  BSF    FA6.1
0889C:  BTFSC  FA6.1
0889E:  BRA    889C
088A0:  BCF    FA6.2
088A2:  MOVF   00,W
088A4:  IORWF  FF2,F
088A6:  MOVLW  14
088A8:  MOVLB  4
088AA:  MOVWF  x58
088AC:  MOVLB  0
088AE:  CALL   1A3E
088B2:  CLRF   FAA
088B4:  MOVLW  0D
088B6:  MOVWF  FA9
088B8:  CLRF   FA8
088BA:  BCF    FA6.6
088BC:  BCF    FA6.7
088BE:  BSF    FA6.2
088C0:  MOVF   FF2,W
088C2:  MOVWF  00
088C4:  BCF    FF2.6
088C6:  BCF    FF2.7
088C8:  MOVLB  F
088CA:  MOVLW  55
088CC:  MOVWF  FA7
088CE:  MOVLW  AA
088D0:  MOVWF  FA7
088D2:  BSF    FA6.1
088D4:  BTFSC  FA6.1
088D6:  BRA    88D4
088D8:  BCF    FA6.2
088DA:  MOVF   00,W
088DC:  IORWF  FF2,F
088DE:  MOVLW  14
088E0:  MOVLB  4
088E2:  MOVWF  x58
088E4:  MOVLB  0
088E6:  CALL   1A3E
....................                reset_cpu(); 
088EA:  RESET
088EC:  MOVLB  3
....................             } 
....................              
....................             if((Contrasena[0]==Password[0])&&(Contrasena[1]==Password[1])&&(Contrasena[2]==Password[2])&&(Contrasena[3]==Password[3])){ 
088EE:  MOVF   x8B,W
088F0:  SUBWF  x87,W
088F2:  BNZ   8920
088F4:  MOVF   x8C,W
088F6:  SUBWF  x88,W
088F8:  BNZ   8920
088FA:  MOVF   x8D,W
088FC:  SUBWF  x89,W
088FE:  BNZ   8920
08900:  MOVF   x8E,W
08902:  SUBWF  x8A,W
08904:  BNZ   8920
....................                //BorraBuffer(); 
....................                printf("page ClaveCorrecta"); 
08906:  MOVLW  BC
08908:  MOVWF  FF6
0890A:  MOVLW  06
0890C:  MOVWF  FF7
0890E:  MOVLW  00
08910:  MOVWF  FF8
08912:  MOVLB  0
08914:  CALL   38F2
....................                SendDataDisplay(); 
08918:  CALL   3924
....................             }else{ 
0891C:  BRA    8936
0891E:  MOVLB  3
....................                //BorraBuffer(); 
....................                printf("page ClaveBad"); 
08920:  MOVLW  D0
08922:  MOVWF  FF6
08924:  MOVLW  06
08926:  MOVWF  FF7
08928:  MOVLW  00
0892A:  MOVWF  FF8
0892C:  MOVLB  0
0892E:  CALL   38F2
....................                SendDataDisplay(); 
08932:  CALL   3924
....................             }  
....................          }else if(TipoClave==1){ 
08936:  BRA    8B1A
08938:  MOVLB  2
0893A:  DECFSZ xDE,W
0893C:  BRA    898C
....................             if(Contrasena[0]==4&&Contrasena[1]==4&&Contrasena[2]==4&&Contrasena[3]==4){ // Si Ingresa clave de Servicio Tecnico 
0893E:  MOVLB  3
08940:  MOVF   x87,W
08942:  SUBLW  04
08944:  BNZ   8972
08946:  MOVF   x88,W
08948:  SUBLW  04
0894A:  BNZ   8972
0894C:  MOVF   x89,W
0894E:  SUBLW  04
08950:  BNZ   8972
08952:  MOVF   x8A,W
08954:  SUBLW  04
08956:  BNZ   8972
....................                printf("page Config"); 
08958:  MOVLW  DE
0895A:  MOVWF  FF6
0895C:  MOVLW  06
0895E:  MOVWF  FF7
08960:  MOVLW  00
08962:  MOVWF  FF8
08964:  MOVLB  0
08966:  CALL   38F2
....................                SendDataDisplay(); 
0896A:  CALL   3924
....................             }else{ 
0896E:  BRA    8988
08970:  MOVLB  3
....................                printf("page MenuPrincipal"); 
08972:  MOVLW  EA
08974:  MOVWF  FF6
08976:  MOVLW  06
08978:  MOVWF  FF7
0897A:  MOVLW  00
0897C:  MOVWF  FF8
0897E:  MOVLB  0
08980:  CALL   38F2
....................                SendDataDisplay(); 
08984:  CALL   3924
....................             } 
....................          }else if(TipoClave==2){ 
08988:  BRA    8B1A
0898A:  MOVLB  2
0898C:  MOVF   xDE,W
0898E:  SUBLW  02
08990:  BNZ   89FA
....................             if((Contrasena[0]==Password[0])&&(Contrasena[1]==Password[1])&&(Contrasena[2]==Password[2])&&(Contrasena[3]==Password[3])){ 
08992:  MOVLB  3
08994:  MOVF   x8B,W
08996:  SUBWF  x87,W
08998:  BNZ   89E0
0899A:  MOVF   x8C,W
0899C:  SUBWF  x88,W
0899E:  BNZ   89E0
089A0:  MOVF   x8D,W
089A2:  SUBWF  x89,W
089A4:  BNZ   89E0
089A6:  MOVF   x8E,W
089A8:  SUBWF  x8A,W
089AA:  BNZ   89E0
....................                printf("page Clave"); 
089AC:  MOVLW  FE
089AE:  MOVWF  FF6
089B0:  MOVLW  06
089B2:  MOVWF  FF7
089B4:  MOVLW  00
089B6:  MOVWF  FF8
089B8:  MOVLB  0
089BA:  CALL   38F2
....................                SendDataDisplay(); 
089BE:  CALL   3924
....................                printf("titulo.txt=\"Clave Nueva\""); 
089C2:  MOVLW  0A
089C4:  MOVWF  FF6
089C6:  MOVLW  07
089C8:  MOVWF  FF7
089CA:  MOVLW  00
089CC:  MOVWF  FF8
089CE:  CALL   38F2
....................                SendDataDisplay(); 
089D2:  CALL   3924
....................                TipoClave=3; 
089D6:  MOVLW  03
089D8:  MOVLB  2
089DA:  MOVWF  xDE
....................             }else{ 
089DC:  BRA    89F8
089DE:  MOVLB  3
....................                printf("page MenuPrincipal"); 
089E0:  MOVLW  24
089E2:  MOVWF  FF6
089E4:  MOVLW  07
089E6:  MOVWF  FF7
089E8:  MOVLW  00
089EA:  MOVWF  FF8
089EC:  MOVLB  0
089EE:  CALL   38F2
....................                SendDataDisplay(); 
089F2:  CALL   3924
089F6:  MOVLB  2
....................             }  
....................          }else if(TipoClave==3){ 
089F8:  BRA    8B1C
089FA:  MOVF   xDE,W
089FC:  SUBLW  03
089FE:  BTFSS  FD8.2
08A00:  BRA    8B1C
....................             printf("titulo.txt=\"Clave Nueva\""); 
08A02:  MOVLW  38
08A04:  MOVWF  FF6
08A06:  MOVLW  07
08A08:  MOVWF  FF7
08A0A:  MOVLW  00
08A0C:  MOVWF  FF8
08A0E:  MOVLB  0
08A10:  CALL   38F2
....................             SendDataDisplay(); 
08A14:  CALL   3924
....................             printf("page MenuPrincipal"); 
08A18:  MOVLW  52
08A1A:  MOVWF  FF6
08A1C:  MOVLW  07
08A1E:  MOVWF  FF7
08A20:  MOVLW  00
08A22:  MOVWF  FF8
08A24:  CALL   38F2
....................             SendDataDisplay(); 
08A28:  CALL   3924
....................             if(!GuardaEEPROM){ 
08A2C:  BTFSC  xA2.6
08A2E:  BRA    8B1A
....................                write_eeprom(10,Contrasena[0]);delay_ms(20);write_eeprom(11,Contrasena[1]);delay_ms(20); 
08A30:  CLRF   FAA
08A32:  MOVLW  0A
08A34:  MOVWF  FA9
08A36:  MOVFF  387,FA8
08A3A:  BCF    FA6.6
08A3C:  BCF    FA6.7
08A3E:  BSF    FA6.2
08A40:  MOVF   FF2,W
08A42:  MOVWF  00
08A44:  BCF    FF2.6
08A46:  BCF    FF2.7
08A48:  MOVLB  F
08A4A:  MOVLW  55
08A4C:  MOVWF  FA7
08A4E:  MOVLW  AA
08A50:  MOVWF  FA7
08A52:  BSF    FA6.1
08A54:  BTFSC  FA6.1
08A56:  BRA    8A54
08A58:  BCF    FA6.2
08A5A:  MOVF   00,W
08A5C:  IORWF  FF2,F
08A5E:  MOVLW  14
08A60:  MOVLB  4
08A62:  MOVWF  x58
08A64:  MOVLB  0
08A66:  CALL   1A3E
08A6A:  CLRF   FAA
08A6C:  MOVLW  0B
08A6E:  MOVWF  FA9
08A70:  MOVFF  388,FA8
08A74:  BCF    FA6.6
08A76:  BCF    FA6.7
08A78:  BSF    FA6.2
08A7A:  MOVF   FF2,W
08A7C:  MOVWF  00
08A7E:  BCF    FF2.6
08A80:  BCF    FF2.7
08A82:  MOVLB  F
08A84:  MOVLW  55
08A86:  MOVWF  FA7
08A88:  MOVLW  AA
08A8A:  MOVWF  FA7
08A8C:  BSF    FA6.1
08A8E:  BTFSC  FA6.1
08A90:  BRA    8A8E
08A92:  BCF    FA6.2
08A94:  MOVF   00,W
08A96:  IORWF  FF2,F
08A98:  MOVLW  14
08A9A:  MOVLB  4
08A9C:  MOVWF  x58
08A9E:  MOVLB  0
08AA0:  CALL   1A3E
....................                write_eeprom(12,Contrasena[2]);delay_ms(20);write_eeprom(13,Contrasena[3]);delay_ms(20); 
08AA4:  CLRF   FAA
08AA6:  MOVLW  0C
08AA8:  MOVWF  FA9
08AAA:  MOVFF  389,FA8
08AAE:  BCF    FA6.6
08AB0:  BCF    FA6.7
08AB2:  BSF    FA6.2
08AB4:  MOVF   FF2,W
08AB6:  MOVWF  00
08AB8:  BCF    FF2.6
08ABA:  BCF    FF2.7
08ABC:  MOVLB  F
08ABE:  MOVLW  55
08AC0:  MOVWF  FA7
08AC2:  MOVLW  AA
08AC4:  MOVWF  FA7
08AC6:  BSF    FA6.1
08AC8:  BTFSC  FA6.1
08ACA:  BRA    8AC8
08ACC:  BCF    FA6.2
08ACE:  MOVF   00,W
08AD0:  IORWF  FF2,F
08AD2:  MOVLW  14
08AD4:  MOVLB  4
08AD6:  MOVWF  x58
08AD8:  MOVLB  0
08ADA:  CALL   1A3E
08ADE:  CLRF   FAA
08AE0:  MOVLW  0D
08AE2:  MOVWF  FA9
08AE4:  MOVFF  38A,FA8
08AE8:  BCF    FA6.6
08AEA:  BCF    FA6.7
08AEC:  BSF    FA6.2
08AEE:  MOVF   FF2,W
08AF0:  MOVWF  00
08AF2:  BCF    FF2.6
08AF4:  BCF    FF2.7
08AF6:  MOVLB  F
08AF8:  MOVLW  55
08AFA:  MOVWF  FA7
08AFC:  MOVLW  AA
08AFE:  MOVWF  FA7
08B00:  BSF    FA6.1
08B02:  BTFSC  FA6.1
08B04:  BRA    8B02
08B06:  BCF    FA6.2
08B08:  MOVF   00,W
08B0A:  IORWF  FF2,F
08B0C:  MOVLW  14
08B0E:  MOVLB  4
08B10:  MOVWF  x58
08B12:  MOVLB  0
08B14:  CALL   1A3E
....................                GuardaEEPROM=ON; 
08B18:  BSF    xA2.6
08B1A:  MOVLB  2
....................             } 
....................          } 
....................       } 
....................        
....................       if(RX_Buffer[4]==0x11){//11 
08B1C:  MOVF   34,W
08B1E:  SUBLW  11
08B20:  BNZ   8B40
....................          if(TipoClave!=0){ 
08B22:  MOVF   xDE,F
08B24:  BZ    8B40
....................             printf("page MenuPrincipal"); 
08B26:  MOVLW  66
08B28:  MOVWF  FF6
08B2A:  MOVLW  07
08B2C:  MOVWF  FF7
08B2E:  MOVLW  00
08B30:  MOVWF  FF8
08B32:  MOVLB  0
08B34:  CALL   38F2
....................             SendDataDisplay(); 
08B38:  CALL   3924
....................             PantallaPrincipal=0; 
08B3C:  MOVLB  2
08B3E:  CLRF   xDD
....................          } 
....................       } 
....................        
....................       if(TipoClave==3){ 
08B40:  MOVF   xDE,W
08B42:  SUBLW  03
08B44:  BNZ   8B72
....................          printf("titulo.txt=\"Clave Nueva\""); 
08B46:  MOVLW  7A
08B48:  MOVWF  FF6
08B4A:  MOVLW  07
08B4C:  MOVWF  FF7
08B4E:  MOVLW  00
08B50:  MOVWF  FF8
08B52:  MOVLB  0
08B54:  CALL   38F2
....................          SendDataDisplay(); 
08B58:  CALL   3924
....................          printf("doevents"); 
08B5C:  MOVLW  94
08B5E:  MOVWF  FF6
08B60:  MOVLW  07
08B62:  MOVWF  FF7
08B64:  MOVLW  00
08B66:  MOVWF  FF8
08B68:  CALL   38F2
....................          SendDataDisplay(); 
08B6C:  CALL   3924
08B70:  MOVLB  2
....................       } 
....................        
....................       if(TipoClave==2){ 
08B72:  MOVF   xDE,W
08B74:  SUBLW  02
08B76:  BNZ   8BA4
....................          printf("titulo.txt=\"Clave Actual\""); 
08B78:  MOVLW  9E
08B7A:  MOVWF  FF6
08B7C:  MOVLW  07
08B7E:  MOVWF  FF7
08B80:  MOVLW  00
08B82:  MOVWF  FF8
08B84:  MOVLB  0
08B86:  CALL   38F2
....................          SendDataDisplay(); 
08B8A:  CALL   3924
....................          printf("doevents"); 
08B8E:  MOVLW  B8
08B90:  MOVWF  FF6
08B92:  MOVLW  07
08B94:  MOVWF  FF7
08B96:  MOVLW  00
08B98:  MOVWF  FF8
08B9A:  CALL   38F2
....................          SendDataDisplay(); 
08B9E:  CALL   3924
08BA2:  MOVLB  2
....................       } 
....................        
....................       if(TipoClave==1){ 
08BA4:  DECFSZ xDE,W
08BA6:  BRA    8BD4
....................          printf("titulo.txt=\"Clave Tecnico\""); 
08BA8:  MOVLW  C2
08BAA:  MOVWF  FF6
08BAC:  MOVLW  07
08BAE:  MOVWF  FF7
08BB0:  MOVLW  00
08BB2:  MOVWF  FF8
08BB4:  MOVLB  0
08BB6:  CALL   38F2
....................          SendDataDisplay(); 
08BBA:  CALL   3924
....................          printf("doevents"); 
08BBE:  MOVLW  DE
08BC0:  MOVWF  FF6
08BC2:  MOVLW  07
08BC4:  MOVWF  FF7
08BC6:  MOVLW  00
08BC8:  MOVWF  FF8
08BCA:  CALL   38F2
....................          SendDataDisplay(); 
08BCE:  CALL   3924
08BD2:  MOVLB  2
....................       } 
....................        
....................       if(TipoClave==0){ 
08BD4:  MOVF   xDE,F
08BD6:  BNZ   8BF0
....................          printf("titulo.txt=\"Ingrese Contrasea\""); 
08BD8:  MOVLW  E8
08BDA:  MOVWF  FF6
08BDC:  MOVLW  07
08BDE:  MOVWF  FF7
08BE0:  MOVLW  00
08BE2:  MOVWF  FF8
08BE4:  MOVLB  0
08BE6:  CALL   38F2
....................          SendDataDisplay(); 
08BEA:  CALL   3924
08BEE:  MOVLB  2
....................       } 
....................       if(RX_Buffer[3]==0x0f){//0f, recibe caracteres ingresados desde el Display 
08BF0:  MOVF   33,W
08BF2:  SUBLW  0F
08BF4:  BTFSS  FD8.2
08BF6:  BRA    8FD0
....................          if(TipoClave==0){ 
08BF8:  MOVF   xDE,F
08BFA:  BTFSS  FD8.2
08BFC:  BRA    8D8C
....................             if(RX_Buffer[4]==0x33&&RX_Buffer[5]==0x38&&RX_Buffer[6]==0x39&&RX_Buffer[7]==0x32){ // Si Ingresa clave para reset general del sistema. 
08BFE:  MOVF   34,W
08C00:  SUBLW  33
08C02:  BTFSS  FD8.2
08C04:  BRA    8CFE
08C06:  MOVF   35,W
08C08:  SUBLW  38
08C0A:  BTFSS  FD8.2
08C0C:  BRA    8CFE
08C0E:  MOVF   36,W
08C10:  SUBLW  39
08C12:  BNZ   8CFE
08C14:  MOVF   37,W
08C16:  SUBLW  32
08C18:  BNZ   8CFE
....................                write_eeprom(10,0);delay_ms(20);write_eeprom(11,0);delay_ms(20);// Reestablece a contrasea de Fabrica y reinicia Programa. 
08C1A:  CLRF   FAA
08C1C:  MOVLW  0A
08C1E:  MOVWF  FA9
08C20:  CLRF   FA8
08C22:  BCF    FA6.6
08C24:  BCF    FA6.7
08C26:  BSF    FA6.2
08C28:  MOVF   FF2,W
08C2A:  MOVWF  00
08C2C:  BCF    FF2.6
08C2E:  BCF    FF2.7
08C30:  MOVLB  F
08C32:  MOVLW  55
08C34:  MOVWF  FA7
08C36:  MOVLW  AA
08C38:  MOVWF  FA7
08C3A:  BSF    FA6.1
08C3C:  BTFSC  FA6.1
08C3E:  BRA    8C3C
08C40:  BCF    FA6.2
08C42:  MOVF   00,W
08C44:  IORWF  FF2,F
08C46:  MOVLW  14
08C48:  MOVLB  4
08C4A:  MOVWF  x58
08C4C:  MOVLB  0
08C4E:  CALL   1A3E
08C52:  CLRF   FAA
08C54:  MOVLW  0B
08C56:  MOVWF  FA9
08C58:  CLRF   FA8
08C5A:  BCF    FA6.6
08C5C:  BCF    FA6.7
08C5E:  BSF    FA6.2
08C60:  MOVF   FF2,W
08C62:  MOVWF  00
08C64:  BCF    FF2.6
08C66:  BCF    FF2.7
08C68:  MOVLB  F
08C6A:  MOVLW  55
08C6C:  MOVWF  FA7
08C6E:  MOVLW  AA
08C70:  MOVWF  FA7
08C72:  BSF    FA6.1
08C74:  BTFSC  FA6.1
08C76:  BRA    8C74
08C78:  BCF    FA6.2
08C7A:  MOVF   00,W
08C7C:  IORWF  FF2,F
08C7E:  MOVLW  14
08C80:  MOVLB  4
08C82:  MOVWF  x58
08C84:  MOVLB  0
08C86:  CALL   1A3E
....................                write_eeprom(12,0);delay_ms(20);write_eeprom(13,0);delay_ms(20); 
08C8A:  CLRF   FAA
08C8C:  MOVLW  0C
08C8E:  MOVWF  FA9
08C90:  CLRF   FA8
08C92:  BCF    FA6.6
08C94:  BCF    FA6.7
08C96:  BSF    FA6.2
08C98:  MOVF   FF2,W
08C9A:  MOVWF  00
08C9C:  BCF    FF2.6
08C9E:  BCF    FF2.7
08CA0:  MOVLB  F
08CA2:  MOVLW  55
08CA4:  MOVWF  FA7
08CA6:  MOVLW  AA
08CA8:  MOVWF  FA7
08CAA:  BSF    FA6.1
08CAC:  BTFSC  FA6.1
08CAE:  BRA    8CAC
08CB0:  BCF    FA6.2
08CB2:  MOVF   00,W
08CB4:  IORWF  FF2,F
08CB6:  MOVLW  14
08CB8:  MOVLB  4
08CBA:  MOVWF  x58
08CBC:  MOVLB  0
08CBE:  CALL   1A3E
08CC2:  CLRF   FAA
08CC4:  MOVLW  0D
08CC6:  MOVWF  FA9
08CC8:  CLRF   FA8
08CCA:  BCF    FA6.6
08CCC:  BCF    FA6.7
08CCE:  BSF    FA6.2
08CD0:  MOVF   FF2,W
08CD2:  MOVWF  00
08CD4:  BCF    FF2.6
08CD6:  BCF    FF2.7
08CD8:  MOVLB  F
08CDA:  MOVLW  55
08CDC:  MOVWF  FA7
08CDE:  MOVLW  AA
08CE0:  MOVWF  FA7
08CE2:  BSF    FA6.1
08CE4:  BTFSC  FA6.1
08CE6:  BRA    8CE4
08CE8:  BCF    FA6.2
08CEA:  MOVF   00,W
08CEC:  IORWF  FF2,F
08CEE:  MOVLW  14
08CF0:  MOVLB  4
08CF2:  MOVWF  x58
08CF4:  MOVLB  0
08CF6:  CALL   1A3E
....................                reset_cpu(); 
08CFA:  RESET
08CFC:  MOVLB  2
....................             } 
....................             if(RX_Buffer[4]>=0x30 && RX_Buffer[5]>=0x30 && RX_Buffer[6]>=0x30 && RX_Buffer[7]>=0x30 
....................             && RX_Buffer[4]<=0x39 && RX_Buffer[5]<=0x39 && RX_Buffer[6]<=0x39 && RX_Buffer[7]<=0x39){ 
08CFE:  MOVF   34,W
08D00:  SUBLW  2F
08D02:  BC    8D8A
08D04:  MOVF   35,W
08D06:  SUBLW  2F
08D08:  BC    8D8A
08D0A:  MOVF   36,W
08D0C:  SUBLW  2F
08D0E:  BC    8D8A
08D10:  MOVF   37,W
08D12:  SUBLW  2F
08D14:  BC    8D8A
08D16:  MOVF   34,W
08D18:  SUBLW  39
08D1A:  BNC   8D8A
08D1C:  MOVF   35,W
08D1E:  SUBLW  39
08D20:  BNC   8D8A
08D22:  MOVF   36,W
08D24:  SUBLW  39
08D26:  BNC   8D8A
08D28:  MOVF   37,W
08D2A:  SUBLW  39
08D2C:  BNC   8D8A
....................             if((RX_Buffer[4]==Password[0]+0x30)&&(RX_Buffer[5]==Password[1]+0x30)&&(RX_Buffer[6]==Password[2]+0x30)&&(RX_Buffer[7]==Password[3]+0x30)){ 
08D2E:  MOVLW  30
08D30:  MOVLB  3
08D32:  ADDWF  x8B,W
08D34:  SUBWF  34,W
08D36:  BNZ   8D6E
08D38:  MOVLW  30
08D3A:  ADDWF  x8C,W
08D3C:  SUBWF  35,W
08D3E:  BNZ   8D6E
08D40:  MOVLW  30
08D42:  ADDWF  x8D,W
08D44:  SUBWF  36,W
08D46:  BNZ   8D6E
08D48:  MOVLW  30
08D4A:  ADDWF  x8E,W
08D4C:  SUBWF  37,W
08D4E:  BNZ   8D6E
....................                   printf("page ClaveCorrecta"); 
08D50:  MOVLW  08
08D52:  MOVWF  FF6
08D54:  MOVLW  08
08D56:  MOVWF  FF7
08D58:  MOVLW  00
08D5A:  MOVWF  FF8
08D5C:  MOVLB  0
08D5E:  CALL   38F2
....................                   //printf("page MenuPrincipal"); 
....................                   SendDataDisplay(); 
08D62:  CALL   3924
....................                   RX_Buffer[3]=0x00;RX_Buffer2[3]=0x00;   
08D66:  CLRF   33
08D68:  CLRF   3E
....................                }else{ 
08D6A:  BRA    8D88
08D6C:  MOVLB  3
....................                   printf("page ClaveBad"); 
08D6E:  MOVLW  1C
08D70:  MOVWF  FF6
08D72:  MOVLW  08
08D74:  MOVWF  FF7
08D76:  MOVLW  00
08D78:  MOVWF  FF8
08D7A:  MOVLB  0
08D7C:  CALL   38F2
....................                   SendDataDisplay(); 
08D80:  CALL   3924
....................                   RX_Buffer[3]=0x00;RX_Buffer2[3]=0x00;   
08D84:  CLRF   33
08D86:  CLRF   3E
08D88:  MOVLB  2
....................                }  
....................             } 
....................          }else if(TipoClave==1){ 
08D8A:  BRA    8FD0
08D8C:  DECFSZ xDE,W
08D8E:  BRA    8DDC
....................             if(RX_Buffer[4]==0x34&&RX_Buffer[5]==0x34&&RX_Buffer[6]==0x34&&RX_Buffer[7]==0x34){ // Si Ingresa clave de Servicio Tecnico 
08D90:  MOVF   34,W
08D92:  SUBLW  34
08D94:  BNZ   8DC2
08D96:  MOVF   35,W
08D98:  SUBLW  34
08D9A:  BNZ   8DC2
08D9C:  MOVF   36,W
08D9E:  SUBLW  34
08DA0:  BNZ   8DC2
08DA2:  MOVF   37,W
08DA4:  SUBLW  34
08DA6:  BNZ   8DC2
....................                printf("page Config"); 
08DA8:  MOVLW  2A
08DAA:  MOVWF  FF6
08DAC:  MOVLW  08
08DAE:  MOVWF  FF7
08DB0:  MOVLW  00
08DB2:  MOVWF  FF8
08DB4:  MOVLB  0
08DB6:  CALL   38F2
....................                SendDataDisplay(); 
08DBA:  CALL   3924
....................             }else{ 
08DBE:  BRA    8DD8
08DC0:  MOVLB  2
....................                printf("page MenuPrincipal"); 
08DC2:  MOVLW  36
08DC4:  MOVWF  FF6
08DC6:  MOVLW  08
08DC8:  MOVWF  FF7
08DCA:  MOVLW  00
08DCC:  MOVWF  FF8
08DCE:  MOVLB  0
08DD0:  CALL   38F2
....................                SendDataDisplay(); 
08DD4:  CALL   3924
....................             } 
....................          }else if(TipoClave==2){ 
08DD8:  BRA    8FCE
08DDA:  MOVLB  2
08DDC:  MOVF   xDE,W
08DDE:  SUBLW  02
08DE0:  BNZ   8E8A
....................             if(RX_Buffer[4]>=0x30 && RX_Buffer[5]>=0x30 && RX_Buffer[6]>=0x30 && RX_Buffer[7]>=0x30 
....................             && RX_Buffer[4]<=0x39 && RX_Buffer[5]<=0x39 && RX_Buffer[6]<=0x39 && RX_Buffer[7]<=0x39){ 
08DE2:  MOVF   34,W
08DE4:  SUBLW  2F
08DE6:  BC    8E88
08DE8:  MOVF   35,W
08DEA:  SUBLW  2F
08DEC:  BC    8E88
08DEE:  MOVF   36,W
08DF0:  SUBLW  2F
08DF2:  BC    8E88
08DF4:  MOVF   37,W
08DF6:  SUBLW  2F
08DF8:  BC    8E88
08DFA:  MOVF   34,W
08DFC:  SUBLW  39
08DFE:  BNC   8E88
08E00:  MOVF   35,W
08E02:  SUBLW  39
08E04:  BNC   8E88
08E06:  MOVF   36,W
08E08:  SUBLW  39
08E0A:  BNC   8E88
08E0C:  MOVF   37,W
08E0E:  SUBLW  39
08E10:  BNC   8E88
....................             if((RX_Buffer[4]==Password[0]+0x30)&&(RX_Buffer[5]==Password[1]+0x30)&&(RX_Buffer[6]==Password[2]+0x30)&&(RX_Buffer[7]==Password[3]+0x30)){ 
08E12:  MOVLW  30
08E14:  MOVLB  3
08E16:  ADDWF  x8B,W
08E18:  SUBWF  34,W
08E1A:  BNZ   8E6C
08E1C:  MOVLW  30
08E1E:  ADDWF  x8C,W
08E20:  SUBWF  35,W
08E22:  BNZ   8E6C
08E24:  MOVLW  30
08E26:  ADDWF  x8D,W
08E28:  SUBWF  36,W
08E2A:  BNZ   8E6C
08E2C:  MOVLW  30
08E2E:  ADDWF  x8E,W
08E30:  SUBWF  37,W
08E32:  BNZ   8E6C
....................                printf("page Clave"); 
08E34:  MOVLW  4A
08E36:  MOVWF  FF6
08E38:  MOVLW  08
08E3A:  MOVWF  FF7
08E3C:  MOVLW  00
08E3E:  MOVWF  FF8
08E40:  MOVLB  0
08E42:  CALL   38F2
....................                SendDataDisplay(); 
08E46:  CALL   3924
....................                printf("titulo.txt=\"Clave Nueva\""); 
08E4A:  MOVLW  56
08E4C:  MOVWF  FF6
08E4E:  MOVLW  08
08E50:  MOVWF  FF7
08E52:  MOVLW  00
08E54:  MOVWF  FF8
08E56:  CALL   38F2
....................                SendDataDisplay(); 
08E5A:  CALL   3924
....................                TipoClave=3; 
08E5E:  MOVLW  03
08E60:  MOVLB  2
08E62:  MOVWF  xDE
....................                RX_Buffer[3]=0x00; 
08E64:  CLRF   33
....................                RX_Buffer2[3]=0x00; 
08E66:  CLRF   3E
....................             }else{ 
08E68:  BRA    8E88
08E6A:  MOVLB  3
....................                printf("page MenuPrincipal"); 
08E6C:  MOVLW  70
08E6E:  MOVWF  FF6
08E70:  MOVLW  08
08E72:  MOVWF  FF7
08E74:  MOVLW  00
08E76:  MOVWF  FF8
08E78:  MOVLB  0
08E7A:  CALL   38F2
....................                SendDataDisplay(); 
08E7E:  CALL   3924
....................                RX_Buffer[3]=0x00; 
08E82:  CLRF   33
....................                RX_Buffer2[3]=0x00; 
08E84:  CLRF   3E
08E86:  MOVLB  2
....................             }  
....................             } 
....................          }else if(TipoClave==3){ 
08E88:  BRA    8FD0
08E8A:  MOVF   xDE,W
08E8C:  SUBLW  03
08E8E:  BTFSS  FD8.2
08E90:  BRA    8FD0
....................             printf("titulo.txt=\"Clave Nueva\""); 
08E92:  MOVLW  84
08E94:  MOVWF  FF6
08E96:  MOVLW  08
08E98:  MOVWF  FF7
08E9A:  MOVLW  00
08E9C:  MOVWF  FF8
08E9E:  MOVLB  0
08EA0:  CALL   38F2
....................             SendDataDisplay(); 
08EA4:  CALL   3924
....................             printf("page MenuPrincipal"); 
08EA8:  MOVLW  9E
08EAA:  MOVWF  FF6
08EAC:  MOVLW  08
08EAE:  MOVWF  FF7
08EB0:  MOVLW  00
08EB2:  MOVWF  FF8
08EB4:  CALL   38F2
....................             SendDataDisplay(); 
08EB8:  CALL   3924
....................             if(!GuardaEEPROM){ 
08EBC:  BTFSC  xA2.6
08EBE:  BRA    8FCA
....................                write_eeprom(10,RX_Buffer[4]-0x30);delay_ms(20);write_eeprom(11,RX_Buffer[5]-0x30);delay_ms(20); 
08EC0:  MOVLW  30
08EC2:  SUBWF  34,W
08EC4:  MOVLB  4
08EC6:  MOVWF  x43
08EC8:  CLRF   FAA
08ECA:  MOVLW  0A
08ECC:  MOVWF  FA9
08ECE:  MOVFF  443,FA8
08ED2:  BCF    FA6.6
08ED4:  BCF    FA6.7
08ED6:  BSF    FA6.2
08ED8:  MOVF   FF2,W
08EDA:  MOVWF  00
08EDC:  BCF    FF2.6
08EDE:  BCF    FF2.7
08EE0:  MOVLB  F
08EE2:  MOVLW  55
08EE4:  MOVWF  FA7
08EE6:  MOVLW  AA
08EE8:  MOVWF  FA7
08EEA:  BSF    FA6.1
08EEC:  BTFSC  FA6.1
08EEE:  BRA    8EEC
08EF0:  BCF    FA6.2
08EF2:  MOVF   00,W
08EF4:  IORWF  FF2,F
08EF6:  MOVLW  14
08EF8:  MOVLB  4
08EFA:  MOVWF  x58
08EFC:  MOVLB  0
08EFE:  CALL   1A3E
08F02:  MOVLW  30
08F04:  SUBWF  35,W
08F06:  MOVLB  4
08F08:  MOVWF  x43
08F0A:  CLRF   FAA
08F0C:  MOVLW  0B
08F0E:  MOVWF  FA9
08F10:  MOVFF  443,FA8
08F14:  BCF    FA6.6
08F16:  BCF    FA6.7
08F18:  BSF    FA6.2
08F1A:  MOVF   FF2,W
08F1C:  MOVWF  00
08F1E:  BCF    FF2.6
08F20:  BCF    FF2.7
08F22:  MOVLB  F
08F24:  MOVLW  55
08F26:  MOVWF  FA7
08F28:  MOVLW  AA
08F2A:  MOVWF  FA7
08F2C:  BSF    FA6.1
08F2E:  BTFSC  FA6.1
08F30:  BRA    8F2E
08F32:  BCF    FA6.2
08F34:  MOVF   00,W
08F36:  IORWF  FF2,F
08F38:  MOVLW  14
08F3A:  MOVLB  4
08F3C:  MOVWF  x58
08F3E:  MOVLB  0
08F40:  CALL   1A3E
....................                write_eeprom(12,RX_Buffer[6]-0x30);delay_ms(20);write_eeprom(13,RX_Buffer[7]-0x30);delay_ms(20); 
08F44:  MOVLW  30
08F46:  SUBWF  36,W
08F48:  MOVLB  4
08F4A:  MOVWF  x43
08F4C:  CLRF   FAA
08F4E:  MOVLW  0C
08F50:  MOVWF  FA9
08F52:  MOVFF  443,FA8
08F56:  BCF    FA6.6
08F58:  BCF    FA6.7
08F5A:  BSF    FA6.2
08F5C:  MOVF   FF2,W
08F5E:  MOVWF  00
08F60:  BCF    FF2.6
08F62:  BCF    FF2.7
08F64:  MOVLB  F
08F66:  MOVLW  55
08F68:  MOVWF  FA7
08F6A:  MOVLW  AA
08F6C:  MOVWF  FA7
08F6E:  BSF    FA6.1
08F70:  BTFSC  FA6.1
08F72:  BRA    8F70
08F74:  BCF    FA6.2
08F76:  MOVF   00,W
08F78:  IORWF  FF2,F
08F7A:  MOVLW  14
08F7C:  MOVLB  4
08F7E:  MOVWF  x58
08F80:  MOVLB  0
08F82:  CALL   1A3E
08F86:  MOVLW  30
08F88:  SUBWF  37,W
08F8A:  MOVLB  4
08F8C:  MOVWF  x43
08F8E:  CLRF   FAA
08F90:  MOVLW  0D
08F92:  MOVWF  FA9
08F94:  MOVFF  443,FA8
08F98:  BCF    FA6.6
08F9A:  BCF    FA6.7
08F9C:  BSF    FA6.2
08F9E:  MOVF   FF2,W
08FA0:  MOVWF  00
08FA2:  BCF    FF2.6
08FA4:  BCF    FF2.7
08FA6:  MOVLB  F
08FA8:  MOVLW  55
08FAA:  MOVWF  FA7
08FAC:  MOVLW  AA
08FAE:  MOVWF  FA7
08FB0:  BSF    FA6.1
08FB2:  BTFSC  FA6.1
08FB4:  BRA    8FB2
08FB6:  BCF    FA6.2
08FB8:  MOVF   00,W
08FBA:  IORWF  FF2,F
08FBC:  MOVLW  14
08FBE:  MOVLB  4
08FC0:  MOVWF  x58
08FC2:  MOVLB  0
08FC4:  CALL   1A3E
....................                GuardaEEPROM=ON; 
08FC8:  BSF    xA2.6
....................             } 
....................             RX_Buffer[3]=0x00; 
08FCA:  CLRF   33
....................             RX_Buffer2[3]=0x00; 
08FCC:  CLRF   3E
08FCE:  MOVLB  2
08FD0:  MOVLB  3
....................          } 
....................       } 
....................     } 
.................... //_--------------------------------------------------------------------------------------------------------------------------------------------------------        
....................  
.................... //_-------------------------------------------------------------------------------------------------------------------------------------------------------- 
....................    if(Menu==1){ //Menu Principal. 
08FD2:  DECFSZ x60,W
08FD4:  GOTO   99B8
....................       printf("fecha.txt=\"T:%3.1fC Fecha:%02u/%02u/20%02u Hora: %02u:%02u:%02u\"",Temperatura,Dia,Mes,Year,Hora,Minuto,Segundo); 
08FD8:  MOVLW  B2
08FDA:  MOVWF  FF6
08FDC:  MOVLW  08
08FDE:  MOVWF  FF7
08FE0:  MOVLW  00
08FE2:  MOVWF  FF8
08FE4:  MOVLW  0D
08FE6:  MOVLB  4
08FE8:  MOVWF  x48
08FEA:  MOVLB  0
08FEC:  CALL   487E
08FF0:  MOVLW  02
08FF2:  MOVWF  FE9
08FF4:  MOVFF  32B,44B
08FF8:  MOVFF  32A,44A
08FFC:  MOVFF  329,449
09000:  MOVFF  328,448
09004:  MOVLW  01
09006:  MOVLB  4
09008:  MOVWF  x4C
0900A:  MOVLB  0
0900C:  CALL   4A1E
09010:  MOVLW  C4
09012:  MOVWF  FF6
09014:  MOVLW  08
09016:  MOVWF  FF7
09018:  MOVLW  00
0901A:  MOVWF  FF8
0901C:  MOVLW  09
0901E:  MOVLB  4
09020:  MOVWF  x48
09022:  MOVLB  0
09024:  CALL   487E
09028:  MOVFF  3A4,448
0902C:  MOVLW  01
0902E:  MOVLB  4
09030:  MOVWF  x49
09032:  MOVLB  0
09034:  CALL   48DC
09038:  MOVLW  2F
0903A:  BTFSS  F9E.4
0903C:  BRA    903A
0903E:  MOVWF  FAD
09040:  MOVFF  3A3,448
09044:  MOVLW  01
09046:  MOVLB  4
09048:  MOVWF  x49
0904A:  MOVLB  0
0904C:  CALL   48DC
09050:  MOVLW  2F
09052:  BTFSS  F9E.4
09054:  BRA    9052
09056:  MOVWF  FAD
09058:  MOVLW  32
0905A:  BTFSS  F9E.4
0905C:  BRA    905A
0905E:  MOVWF  FAD
09060:  MOVLW  30
09062:  BTFSS  F9E.4
09064:  BRA    9062
09066:  MOVWF  FAD
09068:  MOVFF  3A2,448
0906C:  MOVLW  01
0906E:  MOVLB  4
09070:  MOVWF  x49
09072:  MOVLB  0
09074:  CALL   48DC
09078:  MOVLW  DD
0907A:  MOVWF  FF6
0907C:  MOVLW  08
0907E:  MOVWF  FF7
09080:  MOVLW  00
09082:  MOVWF  FF8
09084:  MOVLW  07
09086:  MOVLB  4
09088:  MOVWF  x48
0908A:  MOVLB  0
0908C:  CALL   487E
09090:  MOVFF  3A5,448
09094:  MOVLW  01
09096:  MOVLB  4
09098:  MOVWF  x49
0909A:  MOVLB  0
0909C:  CALL   48DC
090A0:  MOVLW  3A
090A2:  BTFSS  F9E.4
090A4:  BRA    90A2
090A6:  MOVWF  FAD
090A8:  MOVFF  3A6,448
090AC:  MOVLW  01
090AE:  MOVLB  4
090B0:  MOVWF  x49
090B2:  MOVLB  0
090B4:  CALL   48DC
090B8:  MOVLW  3A
090BA:  BTFSS  F9E.4
090BC:  BRA    90BA
090BE:  MOVWF  FAD
090C0:  MOVFF  3A7,448
090C4:  MOVLW  01
090C6:  MOVLB  4
090C8:  MOVWF  x49
090CA:  MOVLB  0
090CC:  CALL   48DC
090D0:  MOVLW  22
090D2:  BTFSS  F9E.4
090D4:  BRA    90D2
090D6:  MOVWF  FAD
....................       SendDataDisplay(); 
090D8:  CALL   3924
....................       PruebaEstados=OFF; 
090DC:  BCF    xA1.4
....................       GuardaEEPROM=OFF; 
090DE:  BCF    xA2.6
....................       if(RX_Buffer[3]==0x0f || UP){//0f, recibe caracteres ingresados desde el Display 
090E0:  MOVF   33,W
090E2:  SUBLW  0F
090E4:  BZ    90EC
090E6:  BSF    F93.0
090E8:  BTFSC  F81.0
090EA:  BRA    9370
....................          delay_ms(5); 
090EC:  MOVLW  05
090EE:  MOVLB  4
090F0:  MOVWF  x58
090F2:  MOVLB  0
090F4:  CALL   1A3E
....................          if(RX_Buffer[3]==0x0f || UP){ 
090F8:  MOVF   33,W
090FA:  SUBLW  0F
090FC:  BZ    9104
090FE:  BSF    F93.0
09100:  BTFSC  F81.0
09102:  BRA    936A
....................          if(PantallaPrincipal==0){//Si esta en menu principal 
09104:  MOVLB  2
09106:  MOVF   xDD,F
09108:  BTFSS  FD8.2
0910A:  BRA    936E
....................             if(RX_Buffer[4]==0x37){//Ajustes y pasa a solicitud de password de tecnico 
0910C:  MOVF   34,W
0910E:  SUBLW  37
09110:  BNZ   913E
....................                printf("page Clave"); 
09112:  MOVLW  F4
09114:  MOVWF  FF6
09116:  MOVLW  08
09118:  MOVWF  FF7
0911A:  MOVLW  00
0911C:  MOVWF  FF8
0911E:  MOVLB  0
09120:  CALL   38F2
....................                SendDataDisplay();  
09124:  CALL   3924
....................                Op=OFF; 
09128:  BCF    xA2.2
....................                Op2=OFF; 
0912A:  BCF    xA2.3
....................                MenuAnt=Menu; 
0912C:  MOVFF  360,361
....................                TipoClave=1; 
09130:  MOVLW  01
09132:  MOVLB  2
09134:  MOVWF  xDE
....................                RX_Buffer[3]=0x00; 
09136:  CLRF   33
....................                RX_Buffer2[3]=0x00; 
09138:  CLRF   3E
....................                Opcion=0; 
0913A:  MOVLB  3
0913C:  CLRF   x68
....................             }if(Opcion==9){// Datos Ciclo 
0913E:  MOVLB  3
09140:  MOVF   x68,W
09142:  SUBLW  09
09144:  BNZ   9170
....................                printf("page Ciclos"); 
09146:  MOVLW  00
09148:  MOVWF  FF6
0914A:  MOVLW  09
0914C:  MOVWF  FF7
0914E:  MOVLW  00
09150:  MOVWF  FF8
09152:  MOVLB  0
09154:  CALL   38F2
....................                SendDataDisplay();  
09158:  CALL   3924
....................                Op=OFF; 
0915C:  BCF    xA2.2
....................                Op2=OFF; 
0915E:  BCF    xA2.3
....................                MenuAnt=Menu; 
09160:  MOVFF  360,361
....................                RX_Buffer[3]=0x00; 
09164:  CLRF   33
....................                RX_Buffer2[3]=0x00; 
09166:  CLRF   3E
....................                Opcion=1; 
09168:  MOVLW  01
0916A:  MOVLB  3
0916C:  MOVWF  x68
....................             }else if(Opcion==8){// Cambio de Clave 
0916E:  BRA    936C
09170:  MOVF   x68,W
09172:  SUBLW  08
09174:  BNZ   91A4
....................                printf("page Clave"); 
09176:  MOVLW  0C
09178:  MOVWF  FF6
0917A:  MOVLW  09
0917C:  MOVWF  FF7
0917E:  MOVLW  00
09180:  MOVWF  FF8
09182:  MOVLB  0
09184:  CALL   38F2
....................                SendDataDisplay();  
09188:  CALL   3924
....................                Op=OFF; 
0918C:  BCF    xA2.2
....................                Op2=OFF; 
0918E:  BCF    xA2.3
....................                MenuAnt=Menu; 
09190:  MOVFF  360,361
....................                TipoClave=2; 
09194:  MOVLW  02
09196:  MOVLB  2
09198:  MOVWF  xDE
....................                RX_Buffer[3]=0x00; 
0919A:  CLRF   33
....................                RX_Buffer2[3]=0x00; 
0919C:  CLRF   3E
....................                Opcion=0; 
0919E:  MOVLB  3
091A0:  CLRF   x68
....................             }else if(Opcion==7){//Hora y Fecha 
091A2:  BRA    936C
091A4:  MOVF   x68,W
091A6:  SUBLW  07
091A8:  BNZ   91E6
....................                printf("page Fecha"); 
091AA:  MOVLW  18
091AC:  MOVWF  FF6
091AE:  MOVLW  09
091B0:  MOVWF  FF7
091B2:  MOVLW  00
091B4:  MOVWF  FF8
091B6:  MOVLB  0
091B8:  CALL   38F2
....................                SendDataDisplay();      
091BC:  CALL   3924
....................                PantallaPrincipal=0; 
091C0:  MOVLB  2
091C2:  CLRF   xDD
....................                MenuAnt=Menu; 
091C4:  MOVFF  360,361
....................                Op=OFF; 
091C8:  MOVLB  0
091CA:  BCF    xA2.2
....................                Op2=OFF; 
091CC:  BCF    xA2.3
....................                DiaTx=Dia; 
091CE:  MOVFF  3A4,3AB
....................                MesTx=Mes; 
091D2:  MOVFF  3A3,3AA
....................                YearTx=Year; 
091D6:  MOVFF  3A2,3A9
....................                HoraTx=Hora; 
091DA:  MOVFF  3A5,3AC
....................                MinutoTx=Minuto; 
091DE:  MOVFF  3A6,3AD
....................             }else if(Opcion==6){//Test 
091E2:  BRA    936A
091E4:  MOVLB  3
091E6:  MOVF   x68,W
091E8:  SUBLW  06
091EA:  BNZ   9214
....................                printf("page Test"); 
091EC:  MOVLW  24
091EE:  MOVWF  FF6
091F0:  MOVLW  09
091F2:  MOVWF  FF7
091F4:  MOVLW  00
091F6:  MOVWF  FF8
091F8:  MOVLB  0
091FA:  CALL   38F2
....................                SendDataDisplay();      
091FE:  CALL   3924
....................                PantallaPrincipal=0; 
09202:  MOVLB  2
09204:  CLRF   xDD
....................                MenuAnt=Menu; 
09206:  MOVFF  360,361
....................                Op=OFF; 
0920A:  MOVLB  0
0920C:  BCF    xA2.2
....................                Op2=OFF; 
0920E:  BCF    xA2.3
....................             }else if(Opcion==5){//Ciclo Personalizado 
09210:  BRA    936A
09212:  MOVLB  3
09214:  MOVF   x68,W
09216:  SUBLW  05
09218:  BNZ   923C
....................                printf("page CicloPersona"); 
0921A:  MOVLW  2E
0921C:  MOVWF  FF6
0921E:  MOVLW  09
09220:  MOVWF  FF7
09222:  MOVLW  00
09224:  MOVWF  FF8
09226:  MOVLB  0
09228:  CALL   38F2
....................                SendDataDisplay();  
0922C:  CALL   3924
....................                MenuAnt=Menu; 
09230:  MOVFF  360,361
....................                Op=OFF; 
09234:  BCF    xA2.2
....................                Op2=OFF; 
09236:  BCF    xA2.3
....................             }else if(Opcion==4){//LiquidosB 
09238:  BRA    936A
0923A:  MOVLB  3
0923C:  MOVF   x68,W
0923E:  SUBLW  04
09240:  BNZ   928A
....................                printf("page Nivel"); 
09242:  MOVLW  40
09244:  MOVWF  FF6
09246:  MOVLW  09
09248:  MOVWF  FF7
0924A:  MOVLW  00
0924C:  MOVWF  FF8
0924E:  MOVLB  0
09250:  CALL   38F2
....................                SendDataDisplay();        
09254:  CALL   3924
....................                ConfiguraCiclo(0,0,0,3,0,0,0,0,1,4,121); 
09258:  MOVLB  4
0925A:  CLRF   x4D
0925C:  CLRF   x4E
0925E:  CLRF   x4F
09260:  MOVLW  03
09262:  MOVWF  x50
09264:  CLRF   x51
09266:  CLRF   x52
09268:  CLRF   x53
0926A:  CLRF   x54
0926C:  MOVLW  01
0926E:  MOVWF  x55
09270:  MOVLW  04
09272:  MOVWF  x56
09274:  MOVLW  79
09276:  MOVWF  x57
09278:  MOVLB  0
0927A:  CALL   4BC2
....................                Op=OFF; 
0927E:  BCF    xA2.2
....................                Op2=OFF; 
09280:  BCF    xA2.3
....................                MenuAnt=2; 
09282:  MOVLW  02
09284:  MOVLB  3
09286:  MOVWF  x61
....................             }else if(Opcion==1){//LiquidosA 
09288:  BRA    936C
0928A:  DECFSZ x68,W
0928C:  BRA    92D4
....................                printf("page Nivel"); 
0928E:  MOVLW  4C
09290:  MOVWF  FF6
09292:  MOVLW  09
09294:  MOVWF  FF7
09296:  MOVLW  00
09298:  MOVWF  FF8
0929A:  MOVLB  0
0929C:  CALL   38F2
....................                SendDataDisplay();        
092A0:  CALL   3924
....................                ConfiguraCiclo(0,0,5,1,0,0,0,0,1,1,121); 
092A4:  MOVLB  4
092A6:  CLRF   x4D
092A8:  CLRF   x4E
092AA:  MOVLW  05
092AC:  MOVWF  x4F
092AE:  MOVLW  01
092B0:  MOVWF  x50
092B2:  CLRF   x51
092B4:  CLRF   x52
092B6:  CLRF   x53
092B8:  CLRF   x54
092BA:  MOVWF  x55
092BC:  MOVWF  x56
092BE:  MOVLW  79
092C0:  MOVWF  x57
092C2:  MOVLB  0
092C4:  CALL   4BC2
....................                Op=OFF; 
092C8:  BCF    xA2.2
....................                Op2=OFF; 
092CA:  BCF    xA2.3
....................                MenuAnt=2; 
092CC:  MOVLW  02
092CE:  MOVLB  3
092D0:  MOVWF  x61
....................             }else if(Opcion==3){//Instrumental 
092D2:  BRA    936C
092D4:  MOVF   x68,W
092D6:  SUBLW  03
092D8:  BNZ   931E
....................                printf("page Funcionamiento"); 
092DA:  MOVLW  58
092DC:  MOVWF  FF6
092DE:  MOVLW  09
092E0:  MOVWF  FF7
092E2:  MOVLW  00
092E4:  MOVWF  FF8
092E6:  MOVLB  0
092E8:  CALL   38F2
....................                SendDataDisplay();        
092EC:  CALL   3924
....................                ConfiguraCiclo(0,0,0,3,0,0,0,3,0,3,121); 
092F0:  MOVLB  4
092F2:  CLRF   x4D
092F4:  CLRF   x4E
092F6:  CLRF   x4F
092F8:  MOVLW  03
092FA:  MOVWF  x50
092FC:  CLRF   x51
092FE:  CLRF   x52
09300:  CLRF   x53
09302:  MOVWF  x54
09304:  CLRF   x55
09306:  MOVWF  x56
09308:  MOVLW  79
0930A:  MOVWF  x57
0930C:  MOVLB  0
0930E:  CALL   4BC2
....................                Op=OFF; 
09312:  BCF    xA2.2
....................                Op2=OFF; 
09314:  BCF    xA2.3
....................                MenuAnt=Menu; 
09316:  MOVFF  360,361
....................                //if(Temperatura>60)TTrampa=TTrampa+5; 
....................             }else if(Opcion==2){//Caucho 
0931A:  BRA    936A
0931C:  MOVLB  3
0931E:  MOVF   x68,W
09320:  SUBLW  02
09322:  BNZ   936C
....................                printf("page Funcionamiento"); 
09324:  MOVLW  6C
09326:  MOVWF  FF6
09328:  MOVLW  09
0932A:  MOVWF  FF7
0932C:  MOVLW  00
0932E:  MOVWF  FF8
09330:  MOVLB  0
09332:  CALL   38F2
....................                SendDataDisplay();        
09336:  CALL   3924
....................                ConfiguraCiclo(0,0,5,1,0,0,3,0,0,2,121); 
0933A:  MOVLB  4
0933C:  CLRF   x4D
0933E:  CLRF   x4E
09340:  MOVLW  05
09342:  MOVWF  x4F
09344:  MOVLW  01
09346:  MOVWF  x50
09348:  CLRF   x51
0934A:  CLRF   x52
0934C:  MOVLW  03
0934E:  MOVWF  x53
09350:  CLRF   x54
09352:  CLRF   x55
09354:  MOVLW  02
09356:  MOVWF  x56
09358:  MOVLW  79
0935A:  MOVWF  x57
0935C:  MOVLB  0
0935E:  CALL   4BC2
....................                Op=OFF; 
09362:  BCF    xA2.2
....................                Op2=OFF; 
09364:  BCF    xA2.3
....................                MenuAnt=Menu; 
09366:  MOVFF  360,361
0936A:  MOVLB  3
0936C:  MOVLB  2
....................                //if(Temperatura>60)TTrampa=TTrampa+5; 
....................             } 
....................          } 
....................          } 
....................       }else if(PantallaPrincipal==0){ 
0936E:  BRA    996A
09370:  MOVLB  2
09372:  MOVF   xDD,F
09374:  BTFSS  FD8.2
09376:  BRA    996A
....................          if(Opcion>sizeof(iconoGrande)) 
09378:  MOVLB  3
0937A:  MOVF   x68,W
0937C:  SUBLW  09
0937E:  BC    9384
....................             Opcion=1; 
09380:  MOVLW  01
09382:  MOVWF  x68
....................              
....................          if(Opcion<1) 
09384:  MOVF   x68,F
09386:  BNZ   938C
....................             Opcion=sizeof(iconoGrande); 
09388:  MOVLW  09
0938A:  MOVWF  x68
....................           
....................          if(Opcion==1){ 
0938C:  DECFSZ x68,W
0938E:  BRA    953C
....................             printf("bc.pic=%u",iconoGrande[Opcion-1]); 
09390:  MOVLW  01
09392:  SUBWF  x68,W
09394:  CLRF   03
09396:  ADDLW  B7
09398:  MOVWF  FE9
0939A:  MOVLW  03
0939C:  ADDWFC 03,W
0939E:  MOVWF  FEA
093A0:  MOVFF  FEF,443
093A4:  MOVLW  80
093A6:  MOVWF  FF6
093A8:  MOVLW  09
093AA:  MOVWF  FF7
093AC:  MOVLW  00
093AE:  MOVWF  FF8
093B0:  MOVLW  07
093B2:  MOVLB  4
093B4:  MOVWF  x48
093B6:  MOVLB  0
093B8:  CALL   487E
093BC:  MOVFF  443,448
093C0:  MOVLW  1B
093C2:  MOVLB  4
093C4:  MOVWF  x49
093C6:  MOVLB  0
093C8:  CALL   48DC
....................             SendDataDisplay(); 
093CC:  CALL   3924
....................             printf("bd.pic=%u",iconoPeque[Opcion]); 
093D0:  CLRF   03
093D2:  MOVLB  3
093D4:  MOVF   x68,W
093D6:  ADDLW  C0
093D8:  MOVWF  FE9
093DA:  MOVLW  03
093DC:  ADDWFC 03,W
093DE:  MOVWF  FEA
093E0:  MOVFF  FEF,443
093E4:  MOVLW  8A
093E6:  MOVWF  FF6
093E8:  MOVLW  09
093EA:  MOVWF  FF7
093EC:  MOVLW  00
093EE:  MOVWF  FF8
093F0:  MOVLW  07
093F2:  MOVLB  4
093F4:  MOVWF  x48
093F6:  MOVLB  0
093F8:  CALL   487E
093FC:  MOVFF  443,448
09400:  MOVLW  1B
09402:  MOVLB  4
09404:  MOVWF  x49
09406:  MOVLB  0
09408:  CALL   48DC
....................             SendDataDisplay(); 
0940C:  CALL   3924
....................             printf("bi.pic=%u",iconoPeque[sizeof(iconoGrande)-1]); 
09410:  MOVLW  94
09412:  MOVWF  FF6
09414:  MOVLW  09
09416:  MOVWF  FF7
09418:  MOVLW  00
0941A:  MOVWF  FF8
0941C:  MOVLW  07
0941E:  MOVLB  4
09420:  MOVWF  x48
09422:  MOVLB  0
09424:  CALL   487E
09428:  MOVFF  3C8,448
0942C:  MOVLW  1B
0942E:  MOVLB  4
09430:  MOVWF  x49
09432:  MOVLB  0
09434:  CALL   48DC
....................             SendDataDisplay(); 
09438:  CALL   3924
....................             printf("bc.pic2=%u",iconoGrande[Opcion-1]); 
0943C:  MOVLW  01
0943E:  MOVLB  3
09440:  SUBWF  x68,W
09442:  CLRF   03
09444:  ADDLW  B7
09446:  MOVWF  FE9
09448:  MOVLW  03
0944A:  ADDWFC 03,W
0944C:  MOVWF  FEA
0944E:  MOVFF  FEF,443
09452:  MOVLW  9E
09454:  MOVWF  FF6
09456:  MOVLW  09
09458:  MOVWF  FF7
0945A:  MOVLW  00
0945C:  MOVWF  FF8
0945E:  MOVLW  08
09460:  MOVLB  4
09462:  MOVWF  x48
09464:  MOVLB  0
09466:  CALL   487E
0946A:  MOVFF  443,448
0946E:  MOVLW  1B
09470:  MOVLB  4
09472:  MOVWF  x49
09474:  MOVLB  0
09476:  CALL   48DC
....................             SendDataDisplay(); 
0947A:  CALL   3924
....................             printf("bd.pic2=%u",iconoPeque[Opcion]); 
0947E:  CLRF   03
09480:  MOVLB  3
09482:  MOVF   x68,W
09484:  ADDLW  C0
09486:  MOVWF  FE9
09488:  MOVLW  03
0948A:  ADDWFC 03,W
0948C:  MOVWF  FEA
0948E:  MOVFF  FEF,443
09492:  MOVLW  AA
09494:  MOVWF  FF6
09496:  MOVLW  09
09498:  MOVWF  FF7
0949A:  MOVLW  00
0949C:  MOVWF  FF8
0949E:  MOVLW  08
094A0:  MOVLB  4
094A2:  MOVWF  x48
094A4:  MOVLB  0
094A6:  CALL   487E
094AA:  MOVFF  443,448
094AE:  MOVLW  1B
094B0:  MOVLB  4
094B2:  MOVWF  x49
094B4:  MOVLB  0
094B6:  CALL   48DC
....................             SendDataDisplay(); 
094BA:  CALL   3924
....................             printf("bi.pic2=%u",iconoPeque[sizeof(iconoGrande)-1]); 
094BE:  MOVLW  B6
094C0:  MOVWF  FF6
094C2:  MOVLW  09
094C4:  MOVWF  FF7
094C6:  MOVLW  00
094C8:  MOVWF  FF8
094CA:  MOVLW  08
094CC:  MOVLB  4
094CE:  MOVWF  x48
094D0:  MOVLB  0
094D2:  CALL   487E
094D6:  MOVFF  3C8,448
094DA:  MOVLW  1B
094DC:  MOVLB  4
094DE:  MOVWF  x49
094E0:  MOVLB  0
094E2:  CALL   48DC
....................             SendDataDisplay(); 
094E6:  CALL   3924
....................             printf("textop.txt=\"%s\"",texto[Opcion-1]); 
094EA:  MOVLW  01
094EC:  MOVLB  3
094EE:  SUBWF  x68,W
094F0:  MULLW  14
094F2:  MOVF   FF3,W
094F4:  CLRF   03
094F6:  MOVLB  4
094F8:  MOVWF  x43
094FA:  MOVLW  C2
094FC:  MOVWF  FF6
094FE:  MOVLW  09
09500:  MOVWF  FF7
09502:  MOVLW  00
09504:  MOVWF  FF8
09506:  MOVLW  0C
09508:  MOVWF  x48
0950A:  MOVLB  0
0950C:  CALL   487E
09510:  MOVLW  50
09512:  MOVWF  FF6
09514:  MOVLW  01
09516:  MOVWF  FF7
09518:  MOVLW  00
0951A:  MOVWF  FF8
0951C:  MOVLB  4
0951E:  MOVF   x43,W
09520:  ADDWF  FF6,F
09522:  MOVLW  00
09524:  ADDWFC FF7,F
09526:  MOVLB  0
09528:  CALL   38F2
0952C:  MOVLW  22
0952E:  BTFSS  F9E.4
09530:  BRA    952E
09532:  MOVWF  FAD
....................             SendDataDisplay(); 
09534:  CALL   3924
....................          }else if(Opcion==sizeof(iconoGrande)){ 
09538:  BRA    98C8
0953A:  MOVLB  3
0953C:  MOVF   x68,W
0953E:  SUBLW  09
09540:  BTFSS  FD8.2
09542:  BRA    96F4
....................             printf("bc.pic=%u",iconoGrande[Opcion-1]); 
09544:  MOVLW  01
09546:  SUBWF  x68,W
09548:  CLRF   03
0954A:  ADDLW  B7
0954C:  MOVWF  FE9
0954E:  MOVLW  03
09550:  ADDWFC 03,W
09552:  MOVWF  FEA
09554:  MOVFF  FEF,443
09558:  MOVLW  D2
0955A:  MOVWF  FF6
0955C:  MOVLW  09
0955E:  MOVWF  FF7
09560:  MOVLW  00
09562:  MOVWF  FF8
09564:  MOVLW  07
09566:  MOVLB  4
09568:  MOVWF  x48
0956A:  MOVLB  0
0956C:  CALL   487E
09570:  MOVFF  443,448
09574:  MOVLW  1B
09576:  MOVLB  4
09578:  MOVWF  x49
0957A:  MOVLB  0
0957C:  CALL   48DC
....................             SendDataDisplay(); 
09580:  CALL   3924
....................             printf("bd.pic=%u",iconoPeque[0]); 
09584:  MOVLW  DC
09586:  MOVWF  FF6
09588:  MOVLW  09
0958A:  MOVWF  FF7
0958C:  MOVLW  00
0958E:  MOVWF  FF8
09590:  MOVLW  07
09592:  MOVLB  4
09594:  MOVWF  x48
09596:  MOVLB  0
09598:  CALL   487E
0959C:  MOVFF  3C0,448
095A0:  MOVLW  1B
095A2:  MOVLB  4
095A4:  MOVWF  x49
095A6:  MOVLB  0
095A8:  CALL   48DC
....................             SendDataDisplay(); 
095AC:  CALL   3924
....................             printf("bi.pic=%u",iconoPeque[Opcion-2]); 
095B0:  MOVLW  02
095B2:  MOVLB  3
095B4:  SUBWF  x68,W
095B6:  CLRF   03
095B8:  ADDLW  C0
095BA:  MOVWF  FE9
095BC:  MOVLW  03
095BE:  ADDWFC 03,W
095C0:  MOVWF  FEA
095C2:  MOVFF  FEF,443
095C6:  MOVLW  E6
095C8:  MOVWF  FF6
095CA:  MOVLW  09
095CC:  MOVWF  FF7
095CE:  MOVLW  00
095D0:  MOVWF  FF8
095D2:  MOVLW  07
095D4:  MOVLB  4
095D6:  MOVWF  x48
095D8:  MOVLB  0
095DA:  CALL   487E
095DE:  MOVFF  443,448
095E2:  MOVLW  1B
095E4:  MOVLB  4
095E6:  MOVWF  x49
095E8:  MOVLB  0
095EA:  CALL   48DC
....................             SendDataDisplay(); 
095EE:  CALL   3924
....................             printf("bc.pic2=%u",iconoGrande[Opcion-1]); 
095F2:  MOVLW  01
095F4:  MOVLB  3
095F6:  SUBWF  x68,W
095F8:  CLRF   03
095FA:  ADDLW  B7
095FC:  MOVWF  FE9
095FE:  MOVLW  03
09600:  ADDWFC 03,W
09602:  MOVWF  FEA
09604:  MOVFF  FEF,443
09608:  MOVLW  F0
0960A:  MOVWF  FF6
0960C:  MOVLW  09
0960E:  MOVWF  FF7
09610:  MOVLW  00
09612:  MOVWF  FF8
09614:  MOVLW  08
09616:  MOVLB  4
09618:  MOVWF  x48
0961A:  MOVLB  0
0961C:  CALL   487E
09620:  MOVFF  443,448
09624:  MOVLW  1B
09626:  MOVLB  4
09628:  MOVWF  x49
0962A:  MOVLB  0
0962C:  CALL   48DC
....................             SendDataDisplay(); 
09630:  CALL   3924
....................             printf("bd.pic2=%u",iconoPeque[0]); 
09634:  MOVLW  FC
09636:  MOVWF  FF6
09638:  MOVLW  09
0963A:  MOVWF  FF7
0963C:  MOVLW  00
0963E:  MOVWF  FF8
09640:  MOVLW  08
09642:  MOVLB  4
09644:  MOVWF  x48
09646:  MOVLB  0
09648:  CALL   487E
0964C:  MOVFF  3C0,448
09650:  MOVLW  1B
09652:  MOVLB  4
09654:  MOVWF  x49
09656:  MOVLB  0
09658:  CALL   48DC
....................             SendDataDisplay(); 
0965C:  CALL   3924
....................             printf("bi.pic2=%u",iconoPeque[Opcion-2]); 
09660:  MOVLW  02
09662:  MOVLB  3
09664:  SUBWF  x68,W
09666:  CLRF   03
09668:  ADDLW  C0
0966A:  MOVWF  FE9
0966C:  MOVLW  03
0966E:  ADDWFC 03,W
09670:  MOVWF  FEA
09672:  MOVFF  FEF,443
09676:  MOVLW  08
09678:  MOVWF  FF6
0967A:  MOVLW  0A
0967C:  MOVWF  FF7
0967E:  MOVLW  00
09680:  MOVWF  FF8
09682:  MOVLW  08
09684:  MOVLB  4
09686:  MOVWF  x48
09688:  MOVLB  0
0968A:  CALL   487E
0968E:  MOVFF  443,448
09692:  MOVLW  1B
09694:  MOVLB  4
09696:  MOVWF  x49
09698:  MOVLB  0
0969A:  CALL   48DC
....................             SendDataDisplay(); 
0969E:  CALL   3924
....................             printf("textop.txt=\"%s\"",texto[Opcion-1]); 
096A2:  MOVLW  01
096A4:  MOVLB  3
096A6:  SUBWF  x68,W
096A8:  MULLW  14
096AA:  MOVF   FF3,W
096AC:  CLRF   03
096AE:  MOVLB  4
096B0:  MOVWF  x43
096B2:  MOVLW  14
096B4:  MOVWF  FF6
096B6:  MOVLW  0A
096B8:  MOVWF  FF7
096BA:  MOVLW  00
096BC:  MOVWF  FF8
096BE:  MOVLW  0C
096C0:  MOVWF  x48
096C2:  MOVLB  0
096C4:  CALL   487E
096C8:  MOVLW  50
096CA:  MOVWF  FF6
096CC:  MOVLW  01
096CE:  MOVWF  FF7
096D0:  MOVLW  00
096D2:  MOVWF  FF8
096D4:  MOVLB  4
096D6:  MOVF   x43,W
096D8:  ADDWF  FF6,F
096DA:  MOVLW  00
096DC:  ADDWFC FF7,F
096DE:  MOVLB  0
096E0:  CALL   38F2
096E4:  MOVLW  22
096E6:  BTFSS  F9E.4
096E8:  BRA    96E6
096EA:  MOVWF  FAD
....................             SendDataDisplay(); 
096EC:  CALL   3924
....................          }else{ 
096F0:  BRA    98C8
096F2:  MOVLB  3
....................             printf("bc.pic=%u",iconoGrande[Opcion-1]); 
096F4:  MOVLW  01
096F6:  SUBWF  x68,W
096F8:  CLRF   03
096FA:  ADDLW  B7
096FC:  MOVWF  FE9
096FE:  MOVLW  03
09700:  ADDWFC 03,W
09702:  MOVWF  FEA
09704:  MOVFF  FEF,443
09708:  MOVLW  24
0970A:  MOVWF  FF6
0970C:  MOVLW  0A
0970E:  MOVWF  FF7
09710:  MOVLW  00
09712:  MOVWF  FF8
09714:  MOVLW  07
09716:  MOVLB  4
09718:  MOVWF  x48
0971A:  MOVLB  0
0971C:  CALL   487E
09720:  MOVFF  443,448
09724:  MOVLW  1B
09726:  MOVLB  4
09728:  MOVWF  x49
0972A:  MOVLB  0
0972C:  CALL   48DC
....................             SendDataDisplay(); 
09730:  CALL   3924
....................             printf("bd.pic=%u",iconoPeque[Opcion]); 
09734:  CLRF   03
09736:  MOVLB  3
09738:  MOVF   x68,W
0973A:  ADDLW  C0
0973C:  MOVWF  FE9
0973E:  MOVLW  03
09740:  ADDWFC 03,W
09742:  MOVWF  FEA
09744:  MOVFF  FEF,443
09748:  MOVLW  2E
0974A:  MOVWF  FF6
0974C:  MOVLW  0A
0974E:  MOVWF  FF7
09750:  MOVLW  00
09752:  MOVWF  FF8
09754:  MOVLW  07
09756:  MOVLB  4
09758:  MOVWF  x48
0975A:  MOVLB  0
0975C:  CALL   487E
09760:  MOVFF  443,448
09764:  MOVLW  1B
09766:  MOVLB  4
09768:  MOVWF  x49
0976A:  MOVLB  0
0976C:  CALL   48DC
....................             SendDataDisplay(); 
09770:  CALL   3924
....................             printf("bi.pic=%u",iconoPeque[Opcion-2]); 
09774:  MOVLW  02
09776:  MOVLB  3
09778:  SUBWF  x68,W
0977A:  CLRF   03
0977C:  ADDLW  C0
0977E:  MOVWF  FE9
09780:  MOVLW  03
09782:  ADDWFC 03,W
09784:  MOVWF  FEA
09786:  MOVFF  FEF,443
0978A:  MOVLW  38
0978C:  MOVWF  FF6
0978E:  MOVLW  0A
09790:  MOVWF  FF7
09792:  MOVLW  00
09794:  MOVWF  FF8
09796:  MOVLW  07
09798:  MOVLB  4
0979A:  MOVWF  x48
0979C:  MOVLB  0
0979E:  CALL   487E
097A2:  MOVFF  443,448
097A6:  MOVLW  1B
097A8:  MOVLB  4
097AA:  MOVWF  x49
097AC:  MOVLB  0
097AE:  CALL   48DC
....................             SendDataDisplay(); 
097B2:  CALL   3924
....................             printf("bc.pic2=%u",iconoGrande[Opcion-1]); 
097B6:  MOVLW  01
097B8:  MOVLB  3
097BA:  SUBWF  x68,W
097BC:  CLRF   03
097BE:  ADDLW  B7
097C0:  MOVWF  FE9
097C2:  MOVLW  03
097C4:  ADDWFC 03,W
097C6:  MOVWF  FEA
097C8:  MOVFF  FEF,443
097CC:  MOVLW  42
097CE:  MOVWF  FF6
097D0:  MOVLW  0A
097D2:  MOVWF  FF7
097D4:  MOVLW  00
097D6:  MOVWF  FF8
097D8:  MOVLW  08
097DA:  MOVLB  4
097DC:  MOVWF  x48
097DE:  MOVLB  0
097E0:  CALL   487E
097E4:  MOVFF  443,448
097E8:  MOVLW  1B
097EA:  MOVLB  4
097EC:  MOVWF  x49
097EE:  MOVLB  0
097F0:  CALL   48DC
....................             SendDataDisplay(); 
097F4:  CALL   3924
....................             printf("bd.pic2=%u",iconoPeque[Opcion]); 
097F8:  CLRF   03
097FA:  MOVLB  3
097FC:  MOVF   x68,W
097FE:  ADDLW  C0
09800:  MOVWF  FE9
09802:  MOVLW  03
09804:  ADDWFC 03,W
09806:  MOVWF  FEA
09808:  MOVFF  FEF,443
0980C:  MOVLW  4E
0980E:  MOVWF  FF6
09810:  MOVLW  0A
09812:  MOVWF  FF7
09814:  MOVLW  00
09816:  MOVWF  FF8
09818:  MOVLW  08
0981A:  MOVLB  4
0981C:  MOVWF  x48
0981E:  MOVLB  0
09820:  CALL   487E
09824:  MOVFF  443,448
09828:  MOVLW  1B
0982A:  MOVLB  4
0982C:  MOVWF  x49
0982E:  MOVLB  0
09830:  CALL   48DC
....................             SendDataDisplay(); 
09834:  CALL   3924
....................             printf("bi.pic2=%u",iconoPeque[Opcion-2]); 
09838:  MOVLW  02
0983A:  MOVLB  3
0983C:  SUBWF  x68,W
0983E:  CLRF   03
09840:  ADDLW  C0
09842:  MOVWF  FE9
09844:  MOVLW  03
09846:  ADDWFC 03,W
09848:  MOVWF  FEA
0984A:  MOVFF  FEF,443
0984E:  MOVLW  5A
09850:  MOVWF  FF6
09852:  MOVLW  0A
09854:  MOVWF  FF7
09856:  MOVLW  00
09858:  MOVWF  FF8
0985A:  MOVLW  08
0985C:  MOVLB  4
0985E:  MOVWF  x48
09860:  MOVLB  0
09862:  CALL   487E
09866:  MOVFF  443,448
0986A:  MOVLW  1B
0986C:  MOVLB  4
0986E:  MOVWF  x49
09870:  MOVLB  0
09872:  CALL   48DC
....................             SendDataDisplay(); 
09876:  CALL   3924
....................             printf("textop.txt=\"%s\"",texto[Opcion-1]); 
0987A:  MOVLW  01
0987C:  MOVLB  3
0987E:  SUBWF  x68,W
09880:  MULLW  14
09882:  MOVF   FF3,W
09884:  CLRF   03
09886:  MOVLB  4
09888:  MOVWF  x43
0988A:  MOVLW  66
0988C:  MOVWF  FF6
0988E:  MOVLW  0A
09890:  MOVWF  FF7
09892:  MOVLW  00
09894:  MOVWF  FF8
09896:  MOVLW  0C
09898:  MOVWF  x48
0989A:  MOVLB  0
0989C:  CALL   487E
098A0:  MOVLW  50
098A2:  MOVWF  FF6
098A4:  MOVLW  01
098A6:  MOVWF  FF7
098A8:  MOVLW  00
098AA:  MOVWF  FF8
098AC:  MOVLB  4
098AE:  MOVF   x43,W
098B0:  ADDWF  FF6,F
098B2:  MOVLW  00
098B4:  ADDWFC FF7,F
098B6:  MOVLB  0
098B8:  CALL   38F2
098BC:  MOVLW  22
098BE:  BTFSS  F9E.4
098C0:  BRA    98BE
098C2:  MOVWF  FAD
....................             SendDataDisplay(); 
098C4:  CALL   3924
....................          } 
....................           
....................          printf("ttitulo.txt=\"SELECCIONE SU CICLO\""); 
098C8:  MOVLW  76
098CA:  MOVWF  FF6
098CC:  MOVLW  0A
098CE:  MOVWF  FF7
098D0:  MOVLW  00
098D2:  MOVWF  FF8
098D4:  CALL   38F2
....................          SendDataDisplay(); 
098D8:  CALL   3924
....................           
....................          if(RIGHT){ 
098DC:  BSF    F93.2
098DE:  BTFSC  F81.2
098E0:  BRA    98FA
....................             delay_ms(20); 
098E2:  MOVLW  14
098E4:  MOVLB  4
098E6:  MOVWF  x58
098E8:  MOVLB  0
098EA:  CALL   1A3E
....................             if(RIGHT){ 
098EE:  BSF    F93.2
098F0:  BTFSC  F81.2
098F2:  BRA    98FA
....................                Opcion++; 
098F4:  MOVLB  3
098F6:  INCF   x68,F
098F8:  MOVLB  0
....................             } 
....................          } 
....................           
....................          if(LEFT){ 
098FA:  BSF    F93.3
098FC:  BTFSC  F81.3
098FE:  BRA    9918
....................             delay_ms(20); 
09900:  MOVLW  14
09902:  MOVLB  4
09904:  MOVWF  x58
09906:  MOVLB  0
09908:  CALL   1A3E
....................             if(LEFT){ 
0990C:  BSF    F93.3
0990E:  BTFSC  F81.3
09910:  BRA    9918
....................                Opcion--; 
09912:  MOVLB  3
09914:  DECF   x68,F
09916:  MOVLB  0
....................             } 
....................          } 
....................           
....................          if(RX_Buffer[4]==0x0d && !Op){//Tecla Derecha Oprimida 
09918:  MOVF   34,W
0991A:  SUBLW  0D
0991C:  BNZ   992C
0991E:  BTFSC  xA2.2
09920:  BRA    992C
....................             Opcion++; 
09922:  MOVLB  3
09924:  INCF   x68,F
....................             RX_Buffer[4]=0x00; 
09926:  CLRF   34
....................             Op=ON; 
09928:  MOVLB  0
0992A:  BSF    xA2.2
....................             //BorraBuffer(); 
....................          } 
....................           
....................          if(RX_Buffer[4]==0x0c && Op){//Tecla Derecha Oprimida 
0992C:  MOVF   34,W
0992E:  SUBLW  0C
09930:  BNZ   9940
09932:  BTFSS  xA2.2
09934:  BRA    9940
....................             Opcion++; 
09936:  MOVLB  3
09938:  INCF   x68,F
....................             RX_Buffer[4]=0x00; 
0993A:  CLRF   34
....................             Op=OFF; 
0993C:  MOVLB  0
0993E:  BCF    xA2.2
....................             //BorraBuffer(); 
....................          } 
....................           
....................          if(RX_Buffer[4]==0x0e && !Op2){//Tecla Izquierda Oprimida 
09940:  MOVF   34,W
09942:  SUBLW  0E
09944:  BNZ   9954
09946:  BTFSC  xA2.3
09948:  BRA    9954
....................             Opcion--; 
0994A:  MOVLB  3
0994C:  DECF   x68,F
....................             RX_Buffer[4]=0x00; 
0994E:  CLRF   34
....................             Op2=ON; 
09950:  MOVLB  0
09952:  BSF    xA2.3
....................             //BorraBuffer(); 
....................          } 
....................           
....................          if(RX_Buffer[4]==0x0f && Op2){//Tecla Izquierda Oprimida 
09954:  MOVF   34,W
09956:  SUBLW  0F
09958:  BNZ   9968
0995A:  BTFSS  xA2.3
0995C:  BRA    9968
....................             Opcion--; 
0995E:  MOVLB  3
09960:  DECF   x68,F
....................             RX_Buffer[4]=0x00; 
09962:  CLRF   34
....................             Op2=OFF; 
09964:  MOVLB  0
09966:  BCF    xA2.3
09968:  MOVLB  2
....................             //BorraBuffer(); 
....................          } 
....................           
....................       } 
....................          if(RIGHT && LEFT){ 
0996A:  BSF    F93.2
0996C:  BTFSC  F81.2
0996E:  BRA    99BC
09970:  BSF    F93.3
09972:  BTFSC  F81.3
09974:  BRA    99BC
....................             delay_ms(20); 
09976:  MOVLW  14
09978:  MOVLB  4
0997A:  MOVWF  x58
0997C:  MOVLB  0
0997E:  CALL   1A3E
....................             if(RIGHT && LEFT){ 
09982:  BSF    F93.2
09984:  BTFSC  F81.2
09986:  BRA    99BA
09988:  BSF    F93.3
0998A:  BTFSC  F81.3
0998C:  BRA    99BA
....................                printf("page Clave"); 
0998E:  MOVLW  98
09990:  MOVWF  FF6
09992:  MOVLW  0A
09994:  MOVWF  FF7
09996:  MOVLW  00
09998:  MOVWF  FF8
0999A:  CALL   38F2
....................                SendDataDisplay();  
0999E:  CALL   3924
....................                Op=OFF; 
099A2:  BCF    xA2.2
....................                Op2=OFF; 
099A4:  BCF    xA2.3
....................                MenuAnt=Menu; 
099A6:  MOVFF  360,361
....................                TipoClave=1; 
099AA:  MOVLW  01
099AC:  MOVLB  2
099AE:  MOVWF  xDE
....................                RX_Buffer[3]=0x00; 
099B0:  CLRF   33
....................                RX_Buffer2[3]=0x00; 
099B2:  CLRF   3E
....................                Opcion=0; 
099B4:  MOVLB  3
099B6:  CLRF   x68
099B8:  MOVLB  0
099BA:  MOVLB  2
....................             } 
....................          } 
....................    } 
.................... //_--------------------------------------------------------------------------------------------------------------------------------------------------------        
....................  
.................... //_-------------------------------------------------------------------------------------------------------------------------------------------------------- 
....................     if(Menu==2){ //Menu de Tiempo Esterilizacion      
099BC:  MOVLB  3
099BE:  MOVF   x60,W
099C0:  SUBLW  02
099C2:  BTFSS  FD8.2
099C4:  BRA    9EF0
....................       printf("fecha.txt=\"T:%3.1fC Fecha:%02u/%02u/20%02u Hora: %02u:%02u:%02u\"",Temperatura,Dia,Mes,Year,Hora,Minuto,Segundo); 
099C6:  MOVLW  A4
099C8:  MOVWF  FF6
099CA:  MOVLW  0A
099CC:  MOVWF  FF7
099CE:  MOVLW  00
099D0:  MOVWF  FF8
099D2:  MOVLW  0D
099D4:  MOVLB  4
099D6:  MOVWF  x48
099D8:  MOVLB  0
099DA:  CALL   487E
099DE:  MOVLW  02
099E0:  MOVWF  FE9
099E2:  MOVFF  32B,44B
099E6:  MOVFF  32A,44A
099EA:  MOVFF  329,449
099EE:  MOVFF  328,448
099F2:  MOVLW  01
099F4:  MOVLB  4
099F6:  MOVWF  x4C
099F8:  MOVLB  0
099FA:  CALL   4A1E
099FE:  MOVLW  B6
09A00:  MOVWF  FF6
09A02:  MOVLW  0A
09A04:  MOVWF  FF7
09A06:  MOVLW  00
09A08:  MOVWF  FF8
09A0A:  MOVLW  09
09A0C:  MOVLB  4
09A0E:  MOVWF  x48
09A10:  MOVLB  0
09A12:  CALL   487E
09A16:  MOVFF  3A4,448
09A1A:  MOVLW  01
09A1C:  MOVLB  4
09A1E:  MOVWF  x49
09A20:  MOVLB  0
09A22:  CALL   48DC
09A26:  MOVLW  2F
09A28:  BTFSS  F9E.4
09A2A:  BRA    9A28
09A2C:  MOVWF  FAD
09A2E:  MOVFF  3A3,448
09A32:  MOVLW  01
09A34:  MOVLB  4
09A36:  MOVWF  x49
09A38:  MOVLB  0
09A3A:  CALL   48DC
09A3E:  MOVLW  2F
09A40:  BTFSS  F9E.4
09A42:  BRA    9A40
09A44:  MOVWF  FAD
09A46:  MOVLW  32
09A48:  BTFSS  F9E.4
09A4A:  BRA    9A48
09A4C:  MOVWF  FAD
09A4E:  MOVLW  30
09A50:  BTFSS  F9E.4
09A52:  BRA    9A50
09A54:  MOVWF  FAD
09A56:  MOVFF  3A2,448
09A5A:  MOVLW  01
09A5C:  MOVLB  4
09A5E:  MOVWF  x49
09A60:  MOVLB  0
09A62:  CALL   48DC
09A66:  MOVLW  CF
09A68:  MOVWF  FF6
09A6A:  MOVLW  0A
09A6C:  MOVWF  FF7
09A6E:  MOVLW  00
09A70:  MOVWF  FF8
09A72:  MOVLW  07
09A74:  MOVLB  4
09A76:  MOVWF  x48
09A78:  MOVLB  0
09A7A:  CALL   487E
09A7E:  MOVFF  3A5,448
09A82:  MOVLW  01
09A84:  MOVLB  4
09A86:  MOVWF  x49
09A88:  MOVLB  0
09A8A:  CALL   48DC
09A8E:  MOVLW  3A
09A90:  BTFSS  F9E.4
09A92:  BRA    9A90
09A94:  MOVWF  FAD
09A96:  MOVFF  3A6,448
09A9A:  MOVLW  01
09A9C:  MOVLB  4
09A9E:  MOVWF  x49
09AA0:  MOVLB  0
09AA2:  CALL   48DC
09AA6:  MOVLW  3A
09AA8:  BTFSS  F9E.4
09AAA:  BRA    9AA8
09AAC:  MOVWF  FAD
09AAE:  MOVFF  3A7,448
09AB2:  MOVLW  01
09AB4:  MOVLB  4
09AB6:  MOVWF  x49
09AB8:  MOVLB  0
09ABA:  CALL   48DC
09ABE:  MOVLW  22
09AC0:  BTFSS  F9E.4
09AC2:  BRA    9AC0
09AC4:  MOVWF  FAD
....................       SendDataDisplay(); 
09AC6:  CALL   3924
....................          if(RX_Buffer[4]==0x0a){//Selecciono Minutos 
09ACA:  MOVF   34,W
09ACC:  SUBLW  0A
09ACE:  BNZ   9AD4
....................             Minutos=ON; 
09AD0:  BSF    xA2.4
....................             Segundos=OFF; 
09AD2:  BCF    xA2.5
....................          } 
....................           
....................          if(RX_Buffer[4]==0x0b){//Selecciono Segundos 
09AD4:  MOVF   34,W
09AD6:  SUBLW  0B
09AD8:  BNZ   9ADE
....................             Segundos=ON; 
09ADA:  BSF    xA2.5
....................             Minutos=OFF; 
09ADC:  BCF    xA2.4
....................          }            
....................           
....................          if(RX_Buffer[4]==0x11 || LEFT){//Selecciono Regresar 
09ADE:  MOVF   34,W
09AE0:  SUBLW  11
09AE2:  BZ    9AEA
09AE4:  BSF    F93.3
09AE6:  BTFSC  F81.3
09AE8:  BRA    9C74
....................             delay_ms(100); 
09AEA:  MOVLW  64
09AEC:  MOVLB  4
09AEE:  MOVWF  x58
09AF0:  MOVLB  0
09AF2:  CALL   1A3E
....................             if(RX_Buffer[4]==0x11 || LEFT){ 
09AF6:  MOVF   34,W
09AF8:  SUBLW  11
09AFA:  BZ    9B02
09AFC:  BSF    F93.3
09AFE:  BTFSC  F81.3
09B00:  BRA    9C74
....................                Segundos=OFF; 
09B02:  BCF    xA2.5
....................                Minutos=OFF; 
09B04:  BCF    xA2.4
....................                printf("page CicloPersona"); 
09B06:  MOVLW  E6
09B08:  MOVWF  FF6
09B0A:  MOVLW  0A
09B0C:  MOVWF  FF7
09B0E:  MOVLW  00
09B10:  MOVWF  FF8
09B12:  CALL   38F2
....................                SendDataDisplay();   
09B16:  CALL   3924
....................                PantallaPrincipal=1; 
09B1A:  MOVLW  01
09B1C:  MOVLB  2
09B1E:  MOVWF  xDD
....................                Op=OFF; 
09B20:  MOVLB  0
09B22:  BCF    xA2.2
....................                Op2=OFF; 
09B24:  BCF    xA2.3
....................                if(!GuardaEEPROM){ 
09B26:  BTFSC  xA2.6
09B28:  BRA    9C74
....................                   CiclosPersonalizados[CicloLibre-1].Minutoest=Testerilizacionp[2]+(Testerilizacionp[3]*10); 
09B2A:  MOVLW  01
09B2C:  MOVLB  3
09B2E:  SUBWF  x3E,W
09B30:  MULLW  0A
09B32:  MOVF   FF3,W
09B34:  MOVLB  4
09B36:  CLRF   x44
09B38:  MOVWF  x43
09B3A:  MOVLW  09
09B3C:  ADDWF  x43,W
09B3E:  MOVWF  01
09B40:  MOVLW  00
09B42:  ADDWFC x44,W
09B44:  MOVWF  03
09B46:  MOVF   01,W
09B48:  ADDLW  1B
09B4A:  MOVWF  FE9
09B4C:  MOVLW  04
09B4E:  ADDWFC 03,W
09B50:  MOVWF  FEA
09B52:  MOVFF  B9,445
09B56:  MOVLW  0A
09B58:  MOVWF  x46
09B5A:  MOVLB  0
09B5C:  CALL   2DEC
09B60:  MOVF   01,W
09B62:  ADDWF  xB8,W
09B64:  MOVWF  FEF
....................                   CiclosPersonalizados[CicloLibre-1].Segundoest=Testerilizacionp[0]+(Testerilizacionp[1]*10); 
09B66:  MOVLW  01
09B68:  MOVLB  3
09B6A:  SUBWF  x3E,W
09B6C:  MULLW  0A
09B6E:  MOVF   FF3,W
09B70:  MOVLB  4
09B72:  CLRF   x44
09B74:  MOVWF  x43
09B76:  MOVLW  03
09B78:  ADDWF  x43,W
09B7A:  MOVWF  01
09B7C:  MOVLW  00
09B7E:  ADDWFC x44,W
09B80:  MOVWF  03
09B82:  MOVF   01,W
09B84:  ADDLW  1B
09B86:  MOVWF  FE9
09B88:  MOVLW  04
09B8A:  ADDWFC 03,W
09B8C:  MOVWF  FEA
09B8E:  MOVFF  B7,445
09B92:  MOVLW  0A
09B94:  MOVWF  x46
09B96:  MOVLB  0
09B98:  CALL   2DEC
09B9C:  MOVF   01,W
09B9E:  ADDWF  xB6,W
09BA0:  MOVWF  FEF
....................                   write_eeprom(102+((CicloLibre-1)*8),Testerilizacionp[2]+(Testerilizacionp[3]*10)); 
09BA2:  MOVLW  01
09BA4:  MOVLB  3
09BA6:  SUBWF  x3E,W
09BA8:  MULLW  08
09BAA:  MOVF   FF3,W
09BAC:  ADDLW  66
09BAE:  MOVLB  4
09BB0:  MOVWF  x43
09BB2:  MOVFF  B9,445
09BB6:  MOVLW  0A
09BB8:  MOVWF  x46
09BBA:  MOVLB  0
09BBC:  CALL   2DEC
09BC0:  MOVF   01,W
09BC2:  ADDWF  xB8,W
09BC4:  MOVLB  4
09BC6:  MOVWF  x44
09BC8:  CLRF   FAA
09BCA:  MOVFF  443,FA9
09BCE:  MOVFF  444,FA8
09BD2:  BCF    FA6.6
09BD4:  BCF    FA6.7
09BD6:  BSF    FA6.2
09BD8:  MOVF   FF2,W
09BDA:  MOVWF  00
09BDC:  BCF    FF2.6
09BDE:  BCF    FF2.7
09BE0:  MOVLB  F
09BE2:  MOVLW  55
09BE4:  MOVWF  FA7
09BE6:  MOVLW  AA
09BE8:  MOVWF  FA7
09BEA:  BSF    FA6.1
09BEC:  BTFSC  FA6.1
09BEE:  BRA    9BEC
09BF0:  BCF    FA6.2
09BF2:  MOVF   00,W
09BF4:  IORWF  FF2,F
....................                   delay_ms(10); 
09BF6:  MOVLW  0A
09BF8:  MOVLB  4
09BFA:  MOVWF  x58
09BFC:  MOVLB  0
09BFE:  CALL   1A3E
....................                   write_eeprom(103+((CicloLibre-1)*8),Testerilizacionp[0]+(Testerilizacionp[1]*10)); 
09C02:  MOVLW  01
09C04:  MOVLB  3
09C06:  SUBWF  x3E,W
09C08:  MULLW  08
09C0A:  MOVF   FF3,W
09C0C:  ADDLW  67
09C0E:  MOVLB  4
09C10:  MOVWF  x43
09C12:  MOVFF  B7,445
09C16:  MOVLW  0A
09C18:  MOVWF  x46
09C1A:  MOVLB  0
09C1C:  CALL   2DEC
09C20:  MOVF   01,W
09C22:  ADDWF  xB6,W
09C24:  MOVLB  4
09C26:  MOVWF  x44
09C28:  CLRF   FAA
09C2A:  MOVFF  443,FA9
09C2E:  MOVFF  444,FA8
09C32:  BCF    FA6.6
09C34:  BCF    FA6.7
09C36:  BSF    FA6.2
09C38:  MOVF   FF2,W
09C3A:  MOVWF  00
09C3C:  BCF    FF2.6
09C3E:  BCF    FF2.7
09C40:  MOVLB  F
09C42:  MOVLW  55
09C44:  MOVWF  FA7
09C46:  MOVLW  AA
09C48:  MOVWF  FA7
09C4A:  BSF    FA6.1
09C4C:  BTFSC  FA6.1
09C4E:  BRA    9C4C
09C50:  BCF    FA6.2
09C52:  MOVF   00,W
09C54:  IORWF  FF2,F
....................                   delay_ms(10); 
09C56:  MOVLW  0A
09C58:  MOVLB  4
09C5A:  MOVWF  x58
09C5C:  MOVLB  0
09C5E:  CALL   1A3E
....................                   Testerilizacion[0]=Testerilizacionp[0]; 
09C62:  MOVFF  B6,B1
....................                   Testerilizacion[1]=Testerilizacionp[1]; 
09C66:  MOVFF  B7,B2
....................                   Testerilizacion[2]=Testerilizacionp[2]; 
09C6A:  MOVFF  B8,B3
....................                   Testerilizacion[3]=Testerilizacionp[3];                   
09C6E:  MOVFF  B9,B4
....................                   GuardaEEPROM=ON; 
09C72:  BSF    xA2.6
....................                } 
....................             } 
....................          } 
....................           
....................          if(RIGHT){ 
09C74:  BSF    F93.2
09C76:  BTFSC  F81.2
09C78:  BRA    9CEE
....................             delay_ms(100); 
09C7A:  MOVLW  64
09C7C:  MOVLB  4
09C7E:  MOVWF  x58
09C80:  MOVLB  0
09C82:  CALL   1A3E
....................             if(RIGHT){ 
09C86:  BSF    F93.2
09C88:  BTFSC  F81.2
09C8A:  BRA    9CEE
....................                if(!Segundos){ 
09C8C:  BTFSC  xA2.5
09C8E:  BRA    9CBE
....................                   Segundos=ON; 
09C90:  BSF    xA2.5
....................                   Minutos=OFF; 
09C92:  BCF    xA2.4
....................                   printf("tsecest.pco=65535"); 
09C94:  MOVLW  F8
09C96:  MOVWF  FF6
09C98:  MOVLW  0A
09C9A:  MOVWF  FF7
09C9C:  MOVLW  00
09C9E:  MOVWF  FF8
09CA0:  CALL   38F2
....................                   SendDataDisplay();   
09CA4:  CALL   3924
....................                   printf("tminest.pco=0"); 
09CA8:  MOVLW  0A
09CAA:  MOVWF  FF6
09CAC:  MOVLW  0B
09CAE:  MOVWF  FF7
09CB0:  MOVLW  00
09CB2:  MOVWF  FF8
09CB4:  CALL   38F2
....................                   SendDataDisplay();   
09CB8:  CALL   3924
....................                }else if(!Minutos){ 
09CBC:  BRA    9CEE
09CBE:  BTFSC  xA2.4
09CC0:  BRA    9CEE
....................                   Segundos=OFF; 
09CC2:  BCF    xA2.5
....................                   Minutos=ON; 
09CC4:  BSF    xA2.4
....................                   printf("tsecest.pco=0"); 
09CC6:  MOVLW  18
09CC8:  MOVWF  FF6
09CCA:  MOVLW  0B
09CCC:  MOVWF  FF7
09CCE:  MOVLW  00
09CD0:  MOVWF  FF8
09CD2:  CALL   38F2
....................                   SendDataDisplay();   
09CD6:  CALL   3924
....................                   printf("tminest.pco=65535"); 
09CDA:  MOVLW  26
09CDC:  MOVWF  FF6
09CDE:  MOVLW  0B
09CE0:  MOVWF  FF7
09CE2:  MOVLW  00
09CE4:  MOVWF  FF8
09CE6:  CALL   38F2
....................                   SendDataDisplay();   
09CEA:  CALL   3924
....................                } 
....................             } 
....................          } 
....................           
....................          if(UP){ 
09CEE:  BSF    F93.0
09CF0:  BTFSC  F81.0
09CF2:  BRA    9D3A
....................             delay_ms(100); 
09CF4:  MOVLW  64
09CF6:  MOVLB  4
09CF8:  MOVWF  x58
09CFA:  MOVLB  0
09CFC:  CALL   1A3E
....................             if(UP){ 
09D00:  BSF    F93.0
09D02:  BTFSC  F81.0
09D04:  BRA    9D3A
....................                if(Segundos){ 
09D06:  BTFSS  xA2.5
09D08:  BRA    9D1A
....................                   Testerilizacionp[0]++; 
09D0A:  INCF   xB6,F
....................                   if(Testerilizacionp[0]>9){ 
09D0C:  BTFSC  xB6.7
09D0E:  BRA    9D1A
09D10:  MOVF   xB6,W
09D12:  SUBLW  09
09D14:  BC    9D1A
....................                      Testerilizacionp[1]++; 
09D16:  INCF   xB7,F
....................                      Testerilizacionp[0]=0; 
09D18:  CLRF   xB6
....................                   } 
....................                } 
....................                if(Minutos){ 
09D1A:  BTFSS  xA2.4
09D1C:  BRA    9D3A
....................                   Testerilizacionp[2]++; 
09D1E:  INCF   xB8,F
....................                   if(Testerilizacionp[2]>9){ 
09D20:  BTFSC  xB8.7
09D22:  BRA    9D2E
09D24:  MOVF   xB8,W
09D26:  SUBLW  09
09D28:  BC    9D2E
....................                      Testerilizacionp[3]++; 
09D2A:  INCF   xB9,F
....................                      Testerilizacionp[2]=0; 
09D2C:  CLRF   xB8
....................                   } 
....................                   if(Testerilizacionp[3]>9){                      
09D2E:  BTFSC  xB9.7
09D30:  BRA    9D3A
09D32:  MOVF   xB9,W
09D34:  SUBLW  09
09D36:  BC    9D3A
....................                      Testerilizacionp[3]=0; 
09D38:  CLRF   xB9
....................                   } 
....................                }     
....................             } 
....................          } 
....................           
....................          if(DOWN){ 
09D3A:  BSF    F93.1
09D3C:  BTFSC  F81.1
09D3E:  BRA    9D80
....................             delay_ms(100); 
09D40:  MOVLW  64
09D42:  MOVLB  4
09D44:  MOVWF  x58
09D46:  MOVLB  0
09D48:  CALL   1A3E
....................             if(DOWN){ 
09D4C:  BSF    F93.1
09D4E:  BTFSC  F81.1
09D50:  BRA    9D80
....................                if(Segundos){ 
09D52:  BTFSS  xA2.5
09D54:  BRA    9D64
....................                   Testerilizacionp[0]--; 
09D56:  DECF   xB6,F
....................                   if(Testerilizacionp[0]<0){ 
09D58:  BTFSC  xB6.7
09D5A:  BRA    9D5E
09D5C:  BRA    9D64
....................                      Testerilizacionp[1]--; 
09D5E:  DECF   xB7,F
....................                      Testerilizacionp[0]=9; 
09D60:  MOVLW  09
09D62:  MOVWF  xB6
....................                   } 
....................                } 
....................                if(Minutos){ 
09D64:  BTFSS  xA2.4
09D66:  BRA    9D80
....................                   Testerilizacionp[2]--; 
09D68:  DECF   xB8,F
....................                   if(Testerilizacionp[2]<0){ 
09D6A:  BTFSC  xB8.7
09D6C:  BRA    9D70
09D6E:  BRA    9D76
....................                      Testerilizacionp[3]--; 
09D70:  DECF   xB9,F
....................                      Testerilizacionp[2]=9; 
09D72:  MOVLW  09
09D74:  MOVWF  xB8
....................                   } 
....................                   if(Testerilizacionp[3]<0){ 
09D76:  BTFSC  xB9.7
09D78:  BRA    9D7C
09D7A:  BRA    9D80
....................                      Testerilizacionp[3]=9; 
09D7C:  MOVLW  09
09D7E:  MOVWF  xB9
....................                   } 
....................                }     
....................             } 
....................          } 
....................           
....................          if(RX_Buffer[4]==0x0c || RX_Buffer[4]==0x0d){//Tecla Derecha Oprimida 
09D80:  MOVF   34,W
09D82:  SUBLW  0C
09D84:  BZ    9D8C
09D86:  MOVF   34,W
09D88:  SUBLW  0D
09D8A:  BNZ   9DC4
....................             if(Segundos){ 
09D8C:  BTFSS  xA2.5
09D8E:  BRA    9DA0
....................                Testerilizacionp[0]++; 
09D90:  INCF   xB6,F
....................                if(Testerilizacionp[0]>9){ 
09D92:  BTFSC  xB6.7
09D94:  BRA    9DA0
09D96:  MOVF   xB6,W
09D98:  SUBLW  09
09D9A:  BC    9DA0
....................                   Testerilizacionp[1]++; 
09D9C:  INCF   xB7,F
....................                   Testerilizacionp[0]=0; 
09D9E:  CLRF   xB6
....................                } 
....................             } 
....................             if(Minutos){ 
09DA0:  BTFSS  xA2.4
09DA2:  BRA    9DC0
....................                Testerilizacionp[2]++; 
09DA4:  INCF   xB8,F
....................                if(Testerilizacionp[2]>9){ 
09DA6:  BTFSC  xB8.7
09DA8:  BRA    9DB4
09DAA:  MOVF   xB8,W
09DAC:  SUBLW  09
09DAE:  BC    9DB4
....................                   Testerilizacionp[3]++; 
09DB0:  INCF   xB9,F
....................                   Testerilizacionp[2]=0; 
09DB2:  CLRF   xB8
....................                } 
....................                if(Testerilizacionp[3]>9){                   
09DB4:  BTFSC  xB9.7
09DB6:  BRA    9DC0
09DB8:  MOVF   xB9,W
09DBA:  SUBLW  09
09DBC:  BC    9DC0
....................                   Testerilizacionp[3]=0; 
09DBE:  CLRF   xB9
....................                } 
....................             } 
....................             RX_Buffer[4]=0x00;   
09DC0:  CLRF   34
....................             RX_Buffer2[4]=0x00; 
09DC2:  CLRF   3F
....................          } 
....................           
....................          if(RX_Buffer[4]==0x0f || RX_Buffer[4]==0x0e){//Tecla Izquierda Oprimida 
09DC4:  MOVF   34,W
09DC6:  SUBLW  0F
09DC8:  BZ    9DD0
09DCA:  MOVF   34,W
09DCC:  SUBLW  0E
09DCE:  BNZ   9E02
....................              
....................             if(Segundos){ 
09DD0:  BTFSS  xA2.5
09DD2:  BRA    9DE2
....................                Testerilizacionp[0]--; 
09DD4:  DECF   xB6,F
....................                if(Testerilizacionp[0]<0){ 
09DD6:  BTFSC  xB6.7
09DD8:  BRA    9DDC
09DDA:  BRA    9DE2
....................                   Testerilizacionp[1]--; 
09DDC:  DECF   xB7,F
....................                   Testerilizacionp[0]=9; 
09DDE:  MOVLW  09
09DE0:  MOVWF  xB6
....................                } 
....................             } 
....................             if(Minutos){ 
09DE2:  BTFSS  xA2.4
09DE4:  BRA    9DFE
....................                Testerilizacionp[2]--; 
09DE6:  DECF   xB8,F
....................                if(Testerilizacionp[2]<0){ 
09DE8:  BTFSC  xB8.7
09DEA:  BRA    9DEE
09DEC:  BRA    9DF4
....................                   Testerilizacionp[3]--; 
09DEE:  DECF   xB9,F
....................                   Testerilizacionp[2]=9; 
09DF0:  MOVLW  09
09DF2:  MOVWF  xB8
....................                } 
....................                if(Testerilizacionp[3]<0){ 
09DF4:  BTFSC  xB9.7
09DF6:  BRA    9DFA
09DF8:  BRA    9DFE
....................                   Testerilizacionp[3]=9; 
09DFA:  MOVLW  09
09DFC:  MOVWF  xB9
....................                } 
....................             } 
....................             RX_Buffer[4]=0x00;   
09DFE:  CLRF   34
....................             RX_Buffer2[4]=0x00; 
09E00:  CLRF   3F
....................          } 
....................           
....................          if(Testerilizacionp[0]<0) 
09E02:  BTFSC  xB6.7
09E04:  BRA    9E08
09E06:  BRA    9E0C
....................             Testerilizacionp[0]=9;             
09E08:  MOVLW  09
09E0A:  MOVWF  xB6
....................          if(Testerilizacionp[1]<0) 
09E0C:  BTFSC  xB7.7
09E0E:  BRA    9E12
09E10:  BRA    9E16
....................             Testerilizacionp[1]=5;             
09E12:  MOVLW  05
09E14:  MOVWF  xB7
....................          if(Testerilizacionp[2]<0) 
09E16:  BTFSC  xB8.7
09E18:  BRA    9E1C
09E1A:  BRA    9E20
....................             Testerilizacionp[2]=9;             
09E1C:  MOVLW  09
09E1E:  MOVWF  xB8
....................          if(Testerilizacionp[3]<0) 
09E20:  BTFSC  xB9.7
09E22:  BRA    9E26
09E24:  BRA    9E2A
....................             Testerilizacionp[3]=9;             
09E26:  MOVLW  09
09E28:  MOVWF  xB9
....................           
....................          if(Testerilizacionp[0]>9) 
09E2A:  BTFSC  xB6.7
09E2C:  BRA    9E36
09E2E:  MOVF   xB6,W
09E30:  SUBLW  09
09E32:  BC    9E36
....................             Testerilizacionp[0]=0;             
09E34:  CLRF   xB6
....................          if(Testerilizacionp[1]>5) 
09E36:  BTFSC  xB7.7
09E38:  BRA    9E42
09E3A:  MOVF   xB7,W
09E3C:  SUBLW  05
09E3E:  BC    9E42
....................             Testerilizacionp[1]=0;             
09E40:  CLRF   xB7
....................          if(Testerilizacionp[2]>9) 
09E42:  BTFSC  xB8.7
09E44:  BRA    9E4E
09E46:  MOVF   xB8,W
09E48:  SUBLW  09
09E4A:  BC    9E4E
....................             Testerilizacionp[2]=0;             
09E4C:  CLRF   xB8
....................          if(Testerilizacionp[3]>9) 
09E4E:  BTFSC  xB9.7
09E50:  BRA    9E5A
09E52:  MOVF   xB9,W
09E54:  SUBLW  09
09E56:  BC    9E5A
....................             Testerilizacionp[3]=0;  
09E58:  CLRF   xB9
....................              
....................          printf("tminest.txt=\"%02u\"",((Testerilizacionp[3]*10)+Testerilizacionp[2])); 
09E5A:  MOVFF  B9,445
09E5E:  MOVLW  0A
09E60:  MOVLB  4
09E62:  MOVWF  x46
09E64:  MOVLB  0
09E66:  CALL   2DEC
09E6A:  MOVF   xB8,W
09E6C:  ADDWF  01,W
09E6E:  MOVLB  4
09E70:  MOVWF  x43
09E72:  MOVLW  38
09E74:  MOVWF  FF6
09E76:  MOVLW  0B
09E78:  MOVWF  FF7
09E7A:  MOVLW  00
09E7C:  MOVWF  FF8
09E7E:  MOVLW  0D
09E80:  MOVWF  x48
09E82:  MOVLB  0
09E84:  CALL   487E
09E88:  MOVFF  443,448
09E8C:  MOVLW  01
09E8E:  MOVLB  4
09E90:  MOVWF  x49
09E92:  MOVLB  0
09E94:  CALL   48DC
09E98:  MOVLW  22
09E9A:  BTFSS  F9E.4
09E9C:  BRA    9E9A
09E9E:  MOVWF  FAD
....................          SendDataDisplay(); 
09EA0:  CALL   3924
....................          printf("tsecest.txt=\"%02u\"",((Testerilizacionp[1]*10)+Testerilizacionp[0])); 
09EA4:  MOVFF  B7,445
09EA8:  MOVLW  0A
09EAA:  MOVLB  4
09EAC:  MOVWF  x46
09EAE:  MOVLB  0
09EB0:  CALL   2DEC
09EB4:  MOVF   xB6,W
09EB6:  ADDWF  01,W
09EB8:  MOVLB  4
09EBA:  MOVWF  x43
09EBC:  MOVLW  4C
09EBE:  MOVWF  FF6
09EC0:  MOVLW  0B
09EC2:  MOVWF  FF7
09EC4:  MOVLW  00
09EC6:  MOVWF  FF8
09EC8:  MOVLW  0D
09ECA:  MOVWF  x48
09ECC:  MOVLB  0
09ECE:  CALL   487E
09ED2:  MOVFF  443,448
09ED6:  MOVLW  01
09ED8:  MOVLB  4
09EDA:  MOVWF  x49
09EDC:  MOVLB  0
09EDE:  CALL   48DC
09EE2:  MOVLW  22
09EE4:  BTFSS  F9E.4
09EE6:  BRA    9EE4
09EE8:  MOVWF  FAD
....................          SendDataDisplay(); 
09EEA:  CALL   3924
09EEE:  MOVLB  3
....................     } 
.................... //_--------------------------------------------------------------------------------------------------------------------------------------------------------        
....................  
.................... //_-------------------------------------------------------------------------------------------------------------------------------------------------------- 
....................     if(Menu==3){ //Menu de Tiempo de Secado 
09EF0:  MOVF   x60,W
09EF2:  SUBLW  03
09EF4:  BTFSS  FD8.2
09EF6:  BRA    A3F2
....................       printf("fecha.txt=\"T:%3.1fC Fecha:%02u/%02u/20%02u Hora: %02u:%02u:%02u\"",Temperatura,Dia,Mes,Year,Hora,Minuto,Segundo); 
09EF8:  MOVLW  60
09EFA:  MOVWF  FF6
09EFC:  MOVLW  0B
09EFE:  MOVWF  FF7
09F00:  MOVLW  00
09F02:  MOVWF  FF8
09F04:  MOVLW  0D
09F06:  MOVLB  4
09F08:  MOVWF  x48
09F0A:  MOVLB  0
09F0C:  CALL   487E
09F10:  MOVLW  02
09F12:  MOVWF  FE9
09F14:  MOVFF  32B,44B
09F18:  MOVFF  32A,44A
09F1C:  MOVFF  329,449
09F20:  MOVFF  328,448
09F24:  MOVLW  01
09F26:  MOVLB  4
09F28:  MOVWF  x4C
09F2A:  MOVLB  0
09F2C:  CALL   4A1E
09F30:  MOVLW  72
09F32:  MOVWF  FF6
09F34:  MOVLW  0B
09F36:  MOVWF  FF7
09F38:  MOVLW  00
09F3A:  MOVWF  FF8
09F3C:  MOVLW  09
09F3E:  MOVLB  4
09F40:  MOVWF  x48
09F42:  MOVLB  0
09F44:  CALL   487E
09F48:  MOVFF  3A4,448
09F4C:  MOVLW  01
09F4E:  MOVLB  4
09F50:  MOVWF  x49
09F52:  MOVLB  0
09F54:  CALL   48DC
09F58:  MOVLW  2F
09F5A:  BTFSS  F9E.4
09F5C:  BRA    9F5A
09F5E:  MOVWF  FAD
09F60:  MOVFF  3A3,448
09F64:  MOVLW  01
09F66:  MOVLB  4
09F68:  MOVWF  x49
09F6A:  MOVLB  0
09F6C:  CALL   48DC
09F70:  MOVLW  2F
09F72:  BTFSS  F9E.4
09F74:  BRA    9F72
09F76:  MOVWF  FAD
09F78:  MOVLW  32
09F7A:  BTFSS  F9E.4
09F7C:  BRA    9F7A
09F7E:  MOVWF  FAD
09F80:  MOVLW  30
09F82:  BTFSS  F9E.4
09F84:  BRA    9F82
09F86:  MOVWF  FAD
09F88:  MOVFF  3A2,448
09F8C:  MOVLW  01
09F8E:  MOVLB  4
09F90:  MOVWF  x49
09F92:  MOVLB  0
09F94:  CALL   48DC
09F98:  MOVLW  8B
09F9A:  MOVWF  FF6
09F9C:  MOVLW  0B
09F9E:  MOVWF  FF7
09FA0:  MOVLW  00
09FA2:  MOVWF  FF8
09FA4:  MOVLW  07
09FA6:  MOVLB  4
09FA8:  MOVWF  x48
09FAA:  MOVLB  0
09FAC:  CALL   487E
09FB0:  MOVFF  3A5,448
09FB4:  MOVLW  01
09FB6:  MOVLB  4
09FB8:  MOVWF  x49
09FBA:  MOVLB  0
09FBC:  CALL   48DC
09FC0:  MOVLW  3A
09FC2:  BTFSS  F9E.4
09FC4:  BRA    9FC2
09FC6:  MOVWF  FAD
09FC8:  MOVFF  3A6,448
09FCC:  MOVLW  01
09FCE:  MOVLB  4
09FD0:  MOVWF  x49
09FD2:  MOVLB  0
09FD4:  CALL   48DC
09FD8:  MOVLW  3A
09FDA:  BTFSS  F9E.4
09FDC:  BRA    9FDA
09FDE:  MOVWF  FAD
09FE0:  MOVFF  3A7,448
09FE4:  MOVLW  01
09FE6:  MOVLB  4
09FE8:  MOVWF  x49
09FEA:  MOVLB  0
09FEC:  CALL   48DC
09FF0:  MOVLW  22
09FF2:  BTFSS  F9E.4
09FF4:  BRA    9FF2
09FF6:  MOVWF  FAD
....................       SendDataDisplay();             
09FF8:  CALL   3924
....................              
....................          if(RX_Buffer[4]==0x0a){//Selecciono Minutos 
09FFC:  MOVF   34,W
09FFE:  SUBLW  0A
0A000:  BNZ   A006
....................             Minutos=ON; 
0A002:  BSF    xA2.4
....................             Segundos=OFF; 
0A004:  BCF    xA2.5
....................          } 
....................           
....................          if(RX_Buffer[4]==0x0b){//Selecciono Segundos 
0A006:  MOVF   34,W
0A008:  SUBLW  0B
0A00A:  BNZ   A010
....................             Segundos=ON; 
0A00C:  BSF    xA2.5
....................             Minutos=OFF; 
0A00E:  BCF    xA2.4
....................          } 
....................           
....................          if(RX_Buffer[4]==0x11 || LEFT){//Selecciono Regresar 
0A010:  MOVF   34,W
0A012:  SUBLW  11
0A014:  BZ    A01C
0A016:  BSF    F93.3
0A018:  BTFSC  F81.3
0A01A:  BRA    A186
....................             Segundos=OFF; 
0A01C:  BCF    xA2.5
....................             Minutos=OFF; 
0A01E:  BCF    xA2.4
....................             printf("page CicloPersona"); 
0A020:  MOVLW  A2
0A022:  MOVWF  FF6
0A024:  MOVLW  0B
0A026:  MOVWF  FF7
0A028:  MOVLW  00
0A02A:  MOVWF  FF8
0A02C:  CALL   38F2
....................             SendDataDisplay();   
0A030:  CALL   3924
....................             //PantallaPrincipal=1; 
....................             Op=OFF; 
0A034:  BCF    xA2.2
....................             Op2=OFF; 
0A036:  BCF    xA2.3
....................             if(!GuardaEEPROM){ 
0A038:  BTFSC  xA2.6
0A03A:  BRA    A186
....................                CiclosPersonalizados[CicloLibre-1].Minutosec=Tsecadop[2]+(Tsecadop[3]*10); 
0A03C:  MOVLW  01
0A03E:  MOVLB  3
0A040:  SUBWF  x3E,W
0A042:  MULLW  0A
0A044:  MOVF   FF3,W
0A046:  MOVLB  4
0A048:  CLRF   x44
0A04A:  MOVWF  x43
0A04C:  MOVLW  04
0A04E:  ADDWF  x43,W
0A050:  MOVWF  01
0A052:  MOVLW  00
0A054:  ADDWFC x44,W
0A056:  MOVWF  03
0A058:  MOVF   01,W
0A05A:  ADDLW  1B
0A05C:  MOVWF  FE9
0A05E:  MOVLW  04
0A060:  ADDWFC 03,W
0A062:  MOVWF  FEA
0A064:  MOVFF  C2,445
0A068:  MOVLW  0A
0A06A:  MOVWF  x46
0A06C:  MOVLB  0
0A06E:  CALL   2DEC
0A072:  MOVF   01,W
0A074:  ADDWF  xC1,W
0A076:  MOVWF  FEF
....................                CiclosPersonalizados[CicloLibre-1].Segundosec=Tsecadop[0]+(Tsecadop[1]*10); 
0A078:  MOVLW  01
0A07A:  MOVLB  3
0A07C:  SUBWF  x3E,W
0A07E:  MULLW  0A
0A080:  MOVF   FF3,W
0A082:  MOVLB  4
0A084:  CLRF   x44
0A086:  MOVWF  x43
0A088:  MOVLW  05
0A08A:  ADDWF  x43,W
0A08C:  MOVWF  01
0A08E:  MOVLW  00
0A090:  ADDWFC x44,W
0A092:  MOVWF  03
0A094:  MOVF   01,W
0A096:  ADDLW  1B
0A098:  MOVWF  FE9
0A09A:  MOVLW  04
0A09C:  ADDWFC 03,W
0A09E:  MOVWF  FEA
0A0A0:  MOVFF  C0,445
0A0A4:  MOVLW  0A
0A0A6:  MOVWF  x46
0A0A8:  MOVLB  0
0A0AA:  CALL   2DEC
0A0AE:  MOVF   01,W
0A0B0:  ADDWF  xBF,W
0A0B2:  MOVWF  FEF
....................                write_eeprom(104+((CicloLibre-1)*8),Tsecadop[2]+(Tsecadop[3]*10)); 
0A0B4:  MOVLW  01
0A0B6:  MOVLB  3
0A0B8:  SUBWF  x3E,W
0A0BA:  MULLW  08
0A0BC:  MOVF   FF3,W
0A0BE:  ADDLW  68
0A0C0:  MOVLB  4
0A0C2:  MOVWF  x43
0A0C4:  MOVFF  C2,445
0A0C8:  MOVLW  0A
0A0CA:  MOVWF  x46
0A0CC:  MOVLB  0
0A0CE:  CALL   2DEC
0A0D2:  MOVF   01,W
0A0D4:  ADDWF  xC1,W
0A0D6:  MOVLB  4
0A0D8:  MOVWF  x44
0A0DA:  CLRF   FAA
0A0DC:  MOVFF  443,FA9
0A0E0:  MOVFF  444,FA8
0A0E4:  BCF    FA6.6
0A0E6:  BCF    FA6.7
0A0E8:  BSF    FA6.2
0A0EA:  MOVF   FF2,W
0A0EC:  MOVWF  00
0A0EE:  BCF    FF2.6
0A0F0:  BCF    FF2.7
0A0F2:  MOVLB  F
0A0F4:  MOVLW  55
0A0F6:  MOVWF  FA7
0A0F8:  MOVLW  AA
0A0FA:  MOVWF  FA7
0A0FC:  BSF    FA6.1
0A0FE:  BTFSC  FA6.1
0A100:  BRA    A0FE
0A102:  BCF    FA6.2
0A104:  MOVF   00,W
0A106:  IORWF  FF2,F
....................                delay_ms(10); 
0A108:  MOVLW  0A
0A10A:  MOVLB  4
0A10C:  MOVWF  x58
0A10E:  MOVLB  0
0A110:  CALL   1A3E
....................                write_eeprom(105+((CicloLibre-1)*8),Tsecadop[0]+(Tsecadop[1]*10)); 
0A114:  MOVLW  01
0A116:  MOVLB  3
0A118:  SUBWF  x3E,W
0A11A:  MULLW  08
0A11C:  MOVF   FF3,W
0A11E:  ADDLW  69
0A120:  MOVLB  4
0A122:  MOVWF  x43
0A124:  MOVFF  C0,445
0A128:  MOVLW  0A
0A12A:  MOVWF  x46
0A12C:  MOVLB  0
0A12E:  CALL   2DEC
0A132:  MOVF   01,W
0A134:  ADDWF  xBF,W
0A136:  MOVLB  4
0A138:  MOVWF  x44
0A13A:  CLRF   FAA
0A13C:  MOVFF  443,FA9
0A140:  MOVFF  444,FA8
0A144:  BCF    FA6.6
0A146:  BCF    FA6.7
0A148:  BSF    FA6.2
0A14A:  MOVF   FF2,W
0A14C:  MOVWF  00
0A14E:  BCF    FF2.6
0A150:  BCF    FF2.7
0A152:  MOVLB  F
0A154:  MOVLW  55
0A156:  MOVWF  FA7
0A158:  MOVLW  AA
0A15A:  MOVWF  FA7
0A15C:  BSF    FA6.1
0A15E:  BTFSC  FA6.1
0A160:  BRA    A15E
0A162:  BCF    FA6.2
0A164:  MOVF   00,W
0A166:  IORWF  FF2,F
....................                delay_ms(10); 
0A168:  MOVLW  0A
0A16A:  MOVLB  4
0A16C:  MOVWF  x58
0A16E:  MOVLB  0
0A170:  CALL   1A3E
....................                Tsecado[0]=Tsecadop[0]; 
0A174:  MOVFF  BF,BB
....................                Tsecado[1]=Tsecadop[1]; 
0A178:  MOVFF  C0,BC
....................                Tsecado[2]=Tsecadop[2]; 
0A17C:  MOVFF  C1,BD
....................                Tsecado[3]=Tsecadop[3]; 
0A180:  MOVFF  C2,BE
....................                GuardaEEPROM=ON; 
0A184:  BSF    xA2.6
....................             } 
....................          } 
....................           
....................          if(RIGHT){ 
0A186:  BSF    F93.2
0A188:  BTFSC  F81.2
0A18A:  BRA    A200
....................             delay_ms(100); 
0A18C:  MOVLW  64
0A18E:  MOVLB  4
0A190:  MOVWF  x58
0A192:  MOVLB  0
0A194:  CALL   1A3E
....................             if(RIGHT){ 
0A198:  BSF    F93.2
0A19A:  BTFSC  F81.2
0A19C:  BRA    A200
....................                if(!Segundos){ 
0A19E:  BTFSC  xA2.5
0A1A0:  BRA    A1D0
....................                   Segundos=ON; 
0A1A2:  BSF    xA2.5
....................                   Minutos=OFF; 
0A1A4:  BCF    xA2.4
....................                   printf("tminsec.pco=0"); 
0A1A6:  MOVLW  B4
0A1A8:  MOVWF  FF6
0A1AA:  MOVLW  0B
0A1AC:  MOVWF  FF7
0A1AE:  MOVLW  00
0A1B0:  MOVWF  FF8
0A1B2:  CALL   38F2
....................                   SendDataDisplay();                    
0A1B6:  CALL   3924
....................                   printf("tsecsec.pco=65535"); 
0A1BA:  MOVLW  C2
0A1BC:  MOVWF  FF6
0A1BE:  MOVLW  0B
0A1C0:  MOVWF  FF7
0A1C2:  MOVLW  00
0A1C4:  MOVWF  FF8
0A1C6:  CALL   38F2
....................                   SendDataDisplay();   
0A1CA:  CALL   3924
....................                }else if(!Minutos){ 
0A1CE:  BRA    A200
0A1D0:  BTFSC  xA2.4
0A1D2:  BRA    A200
....................                   Segundos=OFF; 
0A1D4:  BCF    xA2.5
....................                   Minutos=ON; 
0A1D6:  BSF    xA2.4
....................                   printf("tminsec.pco=65535"); 
0A1D8:  MOVLW  D4
0A1DA:  MOVWF  FF6
0A1DC:  MOVLW  0B
0A1DE:  MOVWF  FF7
0A1E0:  MOVLW  00
0A1E2:  MOVWF  FF8
0A1E4:  CALL   38F2
....................                   SendDataDisplay();   
0A1E8:  CALL   3924
....................                   printf("tsecsec.pco=0"); 
0A1EC:  MOVLW  E6
0A1EE:  MOVWF  FF6
0A1F0:  MOVLW  0B
0A1F2:  MOVWF  FF7
0A1F4:  MOVLW  00
0A1F6:  MOVWF  FF8
0A1F8:  CALL   38F2
....................                   SendDataDisplay();   
0A1FC:  CALL   3924
....................                } 
....................             } 
....................          } 
....................           
....................          if(UP){ 
0A200:  BSF    F93.0
0A202:  BTFSC  F81.0
0A204:  BRA    A240
....................             delay_ms(100); 
0A206:  MOVLW  64
0A208:  MOVLB  4
0A20A:  MOVWF  x58
0A20C:  MOVLB  0
0A20E:  CALL   1A3E
....................             if(UP){ 
0A212:  BSF    F93.0
0A214:  BTFSC  F81.0
0A216:  BRA    A240
....................                if(Segundos){ 
0A218:  BTFSS  xA2.5
0A21A:  BRA    A22C
....................                   Tsecadop[0]++; 
0A21C:  INCF   xBF,F
....................                   if(Tsecadop[0]>9){ 
0A21E:  BTFSC  xBF.7
0A220:  BRA    A22C
0A222:  MOVF   xBF,W
0A224:  SUBLW  09
0A226:  BC    A22C
....................                      Tsecadop[1]++; 
0A228:  INCF   xC0,F
....................                      Tsecadop[0]=0; 
0A22A:  CLRF   xBF
....................                   } 
....................                } 
....................                if(Minutos){ 
0A22C:  BTFSS  xA2.4
0A22E:  BRA    A240
....................                   Tsecado[2]++; 
0A230:  INCF   xBD,F
....................                   if(Tsecadop[2]>9){ 
0A232:  BTFSC  xC1.7
0A234:  BRA    A240
0A236:  MOVF   xC1,W
0A238:  SUBLW  09
0A23A:  BC    A240
....................                      Tsecadop[3]++; 
0A23C:  INCF   xC2,F
....................                      Tsecadop[2]=0; 
0A23E:  CLRF   xC1
....................                   } 
....................                }   
....................             } 
....................          } 
....................           
....................          if(DOWN){ 
0A240:  BSF    F93.1
0A242:  BTFSC  F81.1
0A244:  BRA    A28A
....................             delay_ms(100); 
0A246:  MOVLW  64
0A248:  MOVLB  4
0A24A:  MOVWF  x58
0A24C:  MOVLB  0
0A24E:  CALL   1A3E
....................             if(DOWN){ 
0A252:  BSF    F93.1
0A254:  BTFSC  F81.1
0A256:  BRA    A28A
....................                if(Segundos){ 
0A258:  BTFSS  xA2.5
0A25A:  BRA    A278
....................                   Tsecadop[0]--; 
0A25C:  DECF   xBF,F
....................                   if(Tsecadop[0]<0){ 
0A25E:  BTFSC  xBF.7
0A260:  BRA    A264
0A262:  BRA    A26A
....................                      Tsecadop[1]--; 
0A264:  DECF   xC0,F
....................                      Tsecadop[0]=9; 
0A266:  MOVLW  09
0A268:  MOVWF  xBF
....................                   } 
....................                   if(Tsecadop[1]<0){ 
0A26A:  BTFSC  xC0.7
0A26C:  BRA    A270
0A26E:  BRA    A278
....................                      Tsecadop[1]=5; 
0A270:  MOVLW  05
0A272:  MOVWF  xC0
....................                      Tsecadop[0]=9; 
0A274:  MOVLW  09
0A276:  MOVWF  xBF
....................                   } 
....................                } 
....................                if(Minutos){ 
0A278:  BTFSS  xA2.4
0A27A:  BRA    A28A
....................                   Tsecadop[2]--; 
0A27C:  DECF   xC1,F
....................                   if(Tsecadop[2]<0){ 
0A27E:  BTFSC  xC1.7
0A280:  BRA    A284
0A282:  BRA    A28A
....................                      Tsecadop[3]--; 
0A284:  DECF   xC2,F
....................                      Tsecadop[2]=9; 
0A286:  MOVLW  09
0A288:  MOVWF  xC1
....................                   } 
....................                }   
....................             } 
....................          } 
....................           
....................          if(RX_Buffer[4]==0x0c || RX_Buffer[4]==0x0d){//Tecla Derecha Oprimida 
0A28A:  MOVF   34,W
0A28C:  SUBLW  0C
0A28E:  BZ    A296
0A290:  MOVF   34,W
0A292:  SUBLW  0D
0A294:  BNZ   A2C2
....................             if(Segundos){ 
0A296:  BTFSS  xA2.5
0A298:  BRA    A2AA
....................                Tsecadop[0]++; 
0A29A:  INCF   xBF,F
....................                if(Tsecadop[0]>9){ 
0A29C:  BTFSC  xBF.7
0A29E:  BRA    A2AA
0A2A0:  MOVF   xBF,W
0A2A2:  SUBLW  09
0A2A4:  BC    A2AA
....................                   Tsecadop[1]++; 
0A2A6:  INCF   xC0,F
....................                   Tsecadop[0]=0; 
0A2A8:  CLRF   xBF
....................                } 
....................             } 
....................             if(Minutos){ 
0A2AA:  BTFSS  xA2.4
0A2AC:  BRA    A2BE
....................                Tsecadop[2]++; 
0A2AE:  INCF   xC1,F
....................                if(Tsecadop[2]>9){ 
0A2B0:  BTFSC  xC1.7
0A2B2:  BRA    A2BE
0A2B4:  MOVF   xC1,W
0A2B6:  SUBLW  09
0A2B8:  BC    A2BE
....................                   Tsecadop[3]++; 
0A2BA:  INCF   xC2,F
....................                   Tsecadop[2]=0; 
0A2BC:  CLRF   xC1
....................                } 
....................             } 
....................             RX_Buffer[4]=0x00;   
0A2BE:  CLRF   34
....................             RX_Buffer2[4]=0x00;  
0A2C0:  CLRF   3F
....................          } 
....................           
....................          if(RX_Buffer[4]==0x0f || RX_Buffer[4]==0x0e){//Tecla Izquierda Oprimida 
0A2C2:  MOVF   34,W
0A2C4:  SUBLW  0F
0A2C6:  BZ    A2CE
0A2C8:  MOVF   34,W
0A2CA:  SUBLW  0E
0A2CC:  BNZ   A304
....................             if(Segundos){ 
0A2CE:  BTFSS  xA2.5
0A2D0:  BRA    A2EE
....................                Tsecadop[0]--; 
0A2D2:  DECF   xBF,F
....................                if(Tsecadop[0]<0){ 
0A2D4:  BTFSC  xBF.7
0A2D6:  BRA    A2DA
0A2D8:  BRA    A2E0
....................                   Tsecadop[1]--; 
0A2DA:  DECF   xC0,F
....................                   Tsecadop[0]=9; 
0A2DC:  MOVLW  09
0A2DE:  MOVWF  xBF
....................                } 
....................                if(Tsecadop[1]<0){ 
0A2E0:  BTFSC  xC0.7
0A2E2:  BRA    A2E6
0A2E4:  BRA    A2EE
....................                   Tsecadop[1]=5; 
0A2E6:  MOVLW  05
0A2E8:  MOVWF  xC0
....................                   Tsecadop[0]=9; 
0A2EA:  MOVLW  09
0A2EC:  MOVWF  xBF
....................                } 
....................             } 
....................             if(Minutos){ 
0A2EE:  BTFSS  xA2.4
0A2F0:  BRA    A300
....................                Tsecadop[2]--; 
0A2F2:  DECF   xC1,F
....................                if(Tsecadop[2]<0){ 
0A2F4:  BTFSC  xC1.7
0A2F6:  BRA    A2FA
0A2F8:  BRA    A300
....................                   Tsecadop[3]--; 
0A2FA:  DECF   xC2,F
....................                   Tsecadop[2]=9; 
0A2FC:  MOVLW  09
0A2FE:  MOVWF  xC1
....................                } 
....................             } 
....................             RX_Buffer[4]=0x00;   
0A300:  CLRF   34
....................             RX_Buffer2[4]=0x00;             
0A302:  CLRF   3F
....................          } 
....................        
....................          if(Tsecadop[0]<0) 
0A304:  BTFSC  xBF.7
0A306:  BRA    A30A
0A308:  BRA    A30E
....................             Tsecadop[0]=9;             
0A30A:  MOVLW  09
0A30C:  MOVWF  xBF
....................          if(Tsecadop[1]<0) 
0A30E:  BTFSC  xC0.7
0A310:  BRA    A314
0A312:  BRA    A318
....................             Tsecadop[1]=5;             
0A314:  MOVLW  05
0A316:  MOVWF  xC0
....................          if(Tsecadop[2]<0) 
0A318:  BTFSC  xC1.7
0A31A:  BRA    A31E
0A31C:  BRA    A322
....................             Tsecadop[2]=9;             
0A31E:  MOVLW  09
0A320:  MOVWF  xC1
....................          if(Tsecadop[3]<0) 
0A322:  BTFSC  xC2.7
0A324:  BRA    A328
0A326:  BRA    A32C
....................             Tsecadop[3]=9;             
0A328:  MOVLW  09
0A32A:  MOVWF  xC2
....................           
....................          if(Tsecadop[0]>9) 
0A32C:  BTFSC  xBF.7
0A32E:  BRA    A338
0A330:  MOVF   xBF,W
0A332:  SUBLW  09
0A334:  BC    A338
....................             Tsecadop[0]=0;             
0A336:  CLRF   xBF
....................          if(Tsecadop[1]>5) 
0A338:  BTFSC  xC0.7
0A33A:  BRA    A344
0A33C:  MOVF   xC0,W
0A33E:  SUBLW  05
0A340:  BC    A344
....................             Tsecadop[1]=0;             
0A342:  CLRF   xC0
....................          if(Tsecadop[2]>9) 
0A344:  BTFSC  xC1.7
0A346:  BRA    A350
0A348:  MOVF   xC1,W
0A34A:  SUBLW  09
0A34C:  BC    A350
....................             Tsecadop[2]=0;             
0A34E:  CLRF   xC1
....................          if(Tsecadop[3]>9) 
0A350:  BTFSC  xC2.7
0A352:  BRA    A35C
0A354:  MOVF   xC2,W
0A356:  SUBLW  09
0A358:  BC    A35C
....................             Tsecadop[3]=0; 
0A35A:  CLRF   xC2
....................              
....................       printf("tminsec.txt=\"%02u\"",((Tsecadop[3]*10)+Tsecadop[2])); 
0A35C:  MOVFF  C2,445
0A360:  MOVLW  0A
0A362:  MOVLB  4
0A364:  MOVWF  x46
0A366:  MOVLB  0
0A368:  CALL   2DEC
0A36C:  MOVF   xC1,W
0A36E:  ADDWF  01,W
0A370:  MOVLB  4
0A372:  MOVWF  x43
0A374:  MOVLW  F4
0A376:  MOVWF  FF6
0A378:  MOVLW  0B
0A37A:  MOVWF  FF7
0A37C:  MOVLW  00
0A37E:  MOVWF  FF8
0A380:  MOVLW  0D
0A382:  MOVWF  x48
0A384:  MOVLB  0
0A386:  CALL   487E
0A38A:  MOVFF  443,448
0A38E:  MOVLW  01
0A390:  MOVLB  4
0A392:  MOVWF  x49
0A394:  MOVLB  0
0A396:  CALL   48DC
0A39A:  MOVLW  22
0A39C:  BTFSS  F9E.4
0A39E:  BRA    A39C
0A3A0:  MOVWF  FAD
....................       SendDataDisplay(); 
0A3A2:  CALL   3924
....................       printf("tsecsec.txt=\"%02u\"",((Tsecadop[1]*10)+Tsecadop[0])); 
0A3A6:  MOVFF  C0,445
0A3AA:  MOVLW  0A
0A3AC:  MOVLB  4
0A3AE:  MOVWF  x46
0A3B0:  MOVLB  0
0A3B2:  CALL   2DEC
0A3B6:  MOVF   xBF,W
0A3B8:  ADDWF  01,W
0A3BA:  MOVLB  4
0A3BC:  MOVWF  x43
0A3BE:  MOVLW  08
0A3C0:  MOVWF  FF6
0A3C2:  MOVLW  0C
0A3C4:  MOVWF  FF7
0A3C6:  MOVLW  00
0A3C8:  MOVWF  FF8
0A3CA:  MOVLW  0D
0A3CC:  MOVWF  x48
0A3CE:  MOVLB  0
0A3D0:  CALL   487E
0A3D4:  MOVFF  443,448
0A3D8:  MOVLW  01
0A3DA:  MOVLB  4
0A3DC:  MOVWF  x49
0A3DE:  MOVLB  0
0A3E0:  CALL   48DC
0A3E4:  MOVLW  22
0A3E6:  BTFSS  F9E.4
0A3E8:  BRA    A3E6
0A3EA:  MOVWF  FAD
....................       SendDataDisplay(); 
0A3EC:  CALL   3924
0A3F0:  MOVLB  3
....................     } 
.................... //_--------------------------------------------------------------------------------------------------------------------------------------------------------        
....................  
.................... //_-------------------------------------------------------------------------------------------------------------------------------------------------------- 
....................     if(Menu==4){ //Menu de Temperatura 
0A3F2:  MOVF   x60,W
0A3F4:  SUBLW  04
0A3F6:  BTFSS  FD8.2
0A3F8:  BRA    A5FA
....................       printf("fecha.txt=\"Fecha:%02u/%02u/20%02u    Hora: %02u:%02u\"",Dia,Mes,Year,Hora,Minuto); 
0A3FA:  MOVLW  1C
0A3FC:  MOVWF  FF6
0A3FE:  MOVLW  0C
0A400:  MOVWF  FF7
0A402:  MOVLW  00
0A404:  MOVWF  FF8
0A406:  MOVLW  11
0A408:  MOVLB  4
0A40A:  MOVWF  x48
0A40C:  MOVLB  0
0A40E:  CALL   487E
0A412:  MOVFF  3A4,448
0A416:  MOVLW  01
0A418:  MOVLB  4
0A41A:  MOVWF  x49
0A41C:  MOVLB  0
0A41E:  CALL   48DC
0A422:  MOVLW  2F
0A424:  BTFSS  F9E.4
0A426:  BRA    A424
0A428:  MOVWF  FAD
0A42A:  MOVFF  3A3,448
0A42E:  MOVLW  01
0A430:  MOVLB  4
0A432:  MOVWF  x49
0A434:  MOVLB  0
0A436:  CALL   48DC
0A43A:  MOVLW  2F
0A43C:  BTFSS  F9E.4
0A43E:  BRA    A43C
0A440:  MOVWF  FAD
0A442:  MOVLW  32
0A444:  BTFSS  F9E.4
0A446:  BRA    A444
0A448:  MOVWF  FAD
0A44A:  MOVLW  30
0A44C:  BTFSS  F9E.4
0A44E:  BRA    A44C
0A450:  MOVWF  FAD
0A452:  MOVFF  3A2,448
0A456:  MOVLW  01
0A458:  MOVLB  4
0A45A:  MOVWF  x49
0A45C:  MOVLB  0
0A45E:  CALL   48DC
0A462:  MOVLW  3D
0A464:  MOVWF  FF6
0A466:  MOVLW  0C
0A468:  MOVWF  FF7
0A46A:  MOVLW  00
0A46C:  MOVWF  FF8
0A46E:  MOVLW  0A
0A470:  MOVLB  4
0A472:  MOVWF  x48
0A474:  MOVLB  0
0A476:  CALL   487E
0A47A:  MOVFF  3A5,448
0A47E:  MOVLW  01
0A480:  MOVLB  4
0A482:  MOVWF  x49
0A484:  MOVLB  0
0A486:  CALL   48DC
0A48A:  MOVLW  3A
0A48C:  BTFSS  F9E.4
0A48E:  BRA    A48C
0A490:  MOVWF  FAD
0A492:  MOVFF  3A6,448
0A496:  MOVLW  01
0A498:  MOVLB  4
0A49A:  MOVWF  x49
0A49C:  MOVLB  0
0A49E:  CALL   48DC
0A4A2:  MOVLW  22
0A4A4:  BTFSS  F9E.4
0A4A6:  BRA    A4A4
0A4A8:  MOVWF  FAD
....................       SendDataDisplay(); 
0A4AA:  CALL   3924
....................          if(Setpoint<Tmin) 
0A4AE:  MOVLB  3
0A4B0:  MOVF   x67,W
0A4B2:  SUBLW  6D
0A4B4:  BNC   A4BA
....................             Setpoint=Tmax; 
0A4B6:  MOVLW  7B
0A4B8:  MOVWF  x67
....................          if(Setpoint>Tmax) 
0A4BA:  MOVF   x67,W
0A4BC:  SUBLW  7B
0A4BE:  BC    A4C4
....................             Setpoint=Tmin; 
0A4C0:  MOVLW  6E
0A4C2:  MOVWF  x67
....................           
....................          if(RX_Buffer[4]==0x11 || LEFT){//Selecciono Regresar 
0A4C4:  MOVF   34,W
0A4C6:  SUBLW  11
0A4C8:  BZ    A4D0
0A4CA:  BSF    F93.3
0A4CC:  BTFSC  F81.3
0A4CE:  BRA    A568
....................             Segundos=OFF; 
0A4D0:  MOVLB  0
0A4D2:  BCF    xA2.5
....................             Minutos=OFF; 
0A4D4:  BCF    xA2.4
....................             printf("page CicloPersona"); 
0A4D6:  MOVLW  52
0A4D8:  MOVWF  FF6
0A4DA:  MOVLW  0C
0A4DC:  MOVWF  FF7
0A4DE:  MOVLW  00
0A4E0:  MOVWF  FF8
0A4E2:  CALL   38F2
....................             SendDataDisplay();   
0A4E6:  CALL   3924
....................             PantallaPrincipal=1; 
0A4EA:  MOVLW  01
0A4EC:  MOVLB  2
0A4EE:  MOVWF  xDD
....................             Op=OFF; 
0A4F0:  MOVLB  0
0A4F2:  BCF    xA2.2
....................             Op2=OFF; 
0A4F4:  BCF    xA2.3
....................             if(!GuardaEEPROM){ 
0A4F6:  BTFSC  xA2.6
0A4F8:  BRA    A566
....................                CiclosPersonalizados[CicloLibre-1].Temperatura=Setpoint; 
0A4FA:  MOVLW  01
0A4FC:  MOVLB  3
0A4FE:  SUBWF  x3E,W
0A500:  MULLW  0A
0A502:  MOVF   FF3,W
0A504:  MOVLB  4
0A506:  CLRF   x44
0A508:  MOVWF  x43
0A50A:  MOVLW  1B
0A50C:  ADDWF  x43,W
0A50E:  MOVWF  FE9
0A510:  MOVLW  04
0A512:  ADDWFC x44,W
0A514:  MOVWF  FEA
0A516:  MOVFF  367,FEF
....................                write_eeprom(100+((CicloLibre-1)*8),Setpoint); 
0A51A:  MOVLW  01
0A51C:  MOVLB  3
0A51E:  SUBWF  x3E,W
0A520:  MULLW  08
0A522:  MOVF   FF3,W
0A524:  ADDLW  64
0A526:  MOVLB  4
0A528:  MOVWF  x43
0A52A:  CLRF   FAA
0A52C:  MOVFF  443,FA9
0A530:  MOVFF  367,FA8
0A534:  BCF    FA6.6
0A536:  BCF    FA6.7
0A538:  BSF    FA6.2
0A53A:  MOVF   FF2,W
0A53C:  MOVWF  00
0A53E:  BCF    FF2.6
0A540:  BCF    FF2.7
0A542:  MOVLB  F
0A544:  MOVLW  55
0A546:  MOVWF  FA7
0A548:  MOVLW  AA
0A54A:  MOVWF  FA7
0A54C:  BSF    FA6.1
0A54E:  BTFSC  FA6.1
0A550:  BRA    A54E
0A552:  BCF    FA6.2
0A554:  MOVF   00,W
0A556:  IORWF  FF2,F
....................                delay_ms(10); 
0A558:  MOVLW  0A
0A55A:  MOVLB  4
0A55C:  MOVWF  x58
0A55E:  MOVLB  0
0A560:  CALL   1A3E
....................                GuardaEEPROM=ON; 
0A564:  BSF    xA2.6
0A566:  MOVLB  3
....................             } 
....................          } 
....................           
....................          if(UP){ 
0A568:  BSF    F93.0
0A56A:  BTFSC  F81.0
0A56C:  BRA    A584
....................             delay_ms(100); 
0A56E:  MOVLW  64
0A570:  MOVLB  4
0A572:  MOVWF  x58
0A574:  MOVLB  0
0A576:  CALL   1A3E
....................             if(UP){ 
0A57A:  BSF    F93.0
0A57C:  BTFSC  F81.0
0A57E:  BRA    A586
....................                Setpoint++; 
0A580:  MOVLB  3
0A582:  INCF   x67,F
0A584:  MOVLB  0
....................             } 
....................          } 
....................           
....................          if(DOWN){ 
0A586:  BSF    F93.1
0A588:  BTFSC  F81.1
0A58A:  BRA    A5A4
....................             delay_ms(100); 
0A58C:  MOVLW  64
0A58E:  MOVLB  4
0A590:  MOVWF  x58
0A592:  MOVLB  0
0A594:  CALL   1A3E
....................             if(DOWN){ 
0A598:  BSF    F93.1
0A59A:  BTFSC  F81.1
0A59C:  BRA    A5A4
....................                Setpoint--; 
0A59E:  MOVLB  3
0A5A0:  DECF   x67,F
0A5A2:  MOVLB  0
....................             } 
....................          } 
....................           
....................          if(RX_Buffer[4]==0x0d){//Tecla Arriba Oprimida 
0A5A4:  MOVF   34,W
0A5A6:  SUBLW  0D
0A5A8:  BNZ   A5B4
....................             Setpoint++; 
0A5AA:  MOVLB  3
0A5AC:  INCF   x67,F
....................             RX_Buffer[4]=0x00;   
0A5AE:  CLRF   34
....................             RX_Buffer2[4]=0x00;             
0A5B0:  CLRF   3F
0A5B2:  MOVLB  0
....................             //BorraBuffer(); 
....................          } 
....................           
....................          if(RX_Buffer[4]==0x0c){//Tecla Abajo Oprimida 
0A5B4:  MOVF   34,W
0A5B6:  SUBLW  0C
0A5B8:  BNZ   A5C4
....................             Setpoint--; 
0A5BA:  MOVLB  3
0A5BC:  DECF   x67,F
....................             RX_Buffer[4]=0x00; 
0A5BE:  CLRF   34
....................             RX_Buffer2[4]=0x00;             
0A5C0:  CLRF   3F
0A5C2:  MOVLB  0
....................             //BorraBuffer(); 
....................          } 
....................           
....................       printf("tsettem.txt=\"%03u\"",Setpoint); 
0A5C4:  MOVLW  64
0A5C6:  MOVWF  FF6
0A5C8:  MOVLW  0C
0A5CA:  MOVWF  FF7
0A5CC:  MOVLW  00
0A5CE:  MOVWF  FF8
0A5D0:  MOVLW  0D
0A5D2:  MOVLB  4
0A5D4:  MOVWF  x48
0A5D6:  MOVLB  0
0A5D8:  CALL   487E
0A5DC:  MOVFF  367,448
0A5E0:  MOVLW  03
0A5E2:  MOVLB  4
0A5E4:  MOVWF  x49
0A5E6:  MOVLB  0
0A5E8:  CALL   48DC
0A5EC:  MOVLW  22
0A5EE:  BTFSS  F9E.4
0A5F0:  BRA    A5EE
0A5F2:  MOVWF  FAD
....................       SendDataDisplay(); 
0A5F4:  CALL   3924
0A5F8:  MOVLB  3
....................     } 
.................... //_--------------------------------------------------------------------------------------------------------------------------------------------------------        
....................  
.................... //_--------------------------------------------------------------------------------------------------------------------------------------------------------       
....................    if(Menu==5){//Menu de Nivel 
0A5FA:  MOVF   x60,W
0A5FC:  SUBLW  05
0A5FE:  BTFSS  FD8.2
0A600:  BRA    A8D4
....................       printf("fecha.txt=\"T:%3.1fC Fecha:%02u/%02u/20%02u Hora: %02u:%02u:%02u\"",Temperatura,Dia,Mes,Year,Hora,Minuto,Segundo); 
0A602:  MOVLW  78
0A604:  MOVWF  FF6
0A606:  MOVLW  0C
0A608:  MOVWF  FF7
0A60A:  MOVLW  00
0A60C:  MOVWF  FF8
0A60E:  MOVLW  0D
0A610:  MOVLB  4
0A612:  MOVWF  x48
0A614:  MOVLB  0
0A616:  CALL   487E
0A61A:  MOVLW  02
0A61C:  MOVWF  FE9
0A61E:  MOVFF  32B,44B
0A622:  MOVFF  32A,44A
0A626:  MOVFF  329,449
0A62A:  MOVFF  328,448
0A62E:  MOVLW  01
0A630:  MOVLB  4
0A632:  MOVWF  x4C
0A634:  MOVLB  0
0A636:  CALL   4A1E
0A63A:  MOVLW  8A
0A63C:  MOVWF  FF6
0A63E:  MOVLW  0C
0A640:  MOVWF  FF7
0A642:  MOVLW  00
0A644:  MOVWF  FF8
0A646:  MOVLW  09
0A648:  MOVLB  4
0A64A:  MOVWF  x48
0A64C:  MOVLB  0
0A64E:  CALL   487E
0A652:  MOVFF  3A4,448
0A656:  MOVLW  01
0A658:  MOVLB  4
0A65A:  MOVWF  x49
0A65C:  MOVLB  0
0A65E:  CALL   48DC
0A662:  MOVLW  2F
0A664:  BTFSS  F9E.4
0A666:  BRA    A664
0A668:  MOVWF  FAD
0A66A:  MOVFF  3A3,448
0A66E:  MOVLW  01
0A670:  MOVLB  4
0A672:  MOVWF  x49
0A674:  MOVLB  0
0A676:  CALL   48DC
0A67A:  MOVLW  2F
0A67C:  BTFSS  F9E.4
0A67E:  BRA    A67C
0A680:  MOVWF  FAD
0A682:  MOVLW  32
0A684:  BTFSS  F9E.4
0A686:  BRA    A684
0A688:  MOVWF  FAD
0A68A:  MOVLW  30
0A68C:  BTFSS  F9E.4
0A68E:  BRA    A68C
0A690:  MOVWF  FAD
0A692:  MOVFF  3A2,448
0A696:  MOVLW  01
0A698:  MOVLB  4
0A69A:  MOVWF  x49
0A69C:  MOVLB  0
0A69E:  CALL   48DC
0A6A2:  MOVLW  A3
0A6A4:  MOVWF  FF6
0A6A6:  MOVLW  0C
0A6A8:  MOVWF  FF7
0A6AA:  MOVLW  00
0A6AC:  MOVWF  FF8
0A6AE:  MOVLW  07
0A6B0:  MOVLB  4
0A6B2:  MOVWF  x48
0A6B4:  MOVLB  0
0A6B6:  CALL   487E
0A6BA:  MOVFF  3A5,448
0A6BE:  MOVLW  01
0A6C0:  MOVLB  4
0A6C2:  MOVWF  x49
0A6C4:  MOVLB  0
0A6C6:  CALL   48DC
0A6CA:  MOVLW  3A
0A6CC:  BTFSS  F9E.4
0A6CE:  BRA    A6CC
0A6D0:  MOVWF  FAD
0A6D2:  MOVFF  3A6,448
0A6D6:  MOVLW  01
0A6D8:  MOVLB  4
0A6DA:  MOVWF  x49
0A6DC:  MOVLB  0
0A6DE:  CALL   48DC
0A6E2:  MOVLW  3A
0A6E4:  BTFSS  F9E.4
0A6E6:  BRA    A6E4
0A6E8:  MOVWF  FAD
0A6EA:  MOVFF  3A7,448
0A6EE:  MOVLW  01
0A6F0:  MOVLB  4
0A6F2:  MOVWF  x49
0A6F4:  MOVLB  0
0A6F6:  CALL   48DC
0A6FA:  MOVLW  22
0A6FC:  BTFSS  F9E.4
0A6FE:  BRA    A6FC
0A700:  MOVWF  FAD
....................       SendDataDisplay(); 
0A702:  CALL   3924
....................          if(Nivel<1) 
0A706:  MOVLB  3
0A708:  MOVF   x75,F
0A70A:  BNZ   A716
0A70C:  MOVF   x76,F
0A70E:  BNZ   A716
....................             Nivel=6; 
0A710:  CLRF   x76
0A712:  MOVLW  06
0A714:  MOVWF  x75
....................          if(Nivel>6) 
0A716:  MOVF   x76,F
0A718:  BNZ   A720
0A71A:  MOVF   x75,W
0A71C:  SUBLW  06
0A71E:  BC    A726
....................             Nivel=1; 
0A720:  CLRF   x76
0A722:  MOVLW  01
0A724:  MOVWF  x75
....................           
....................          if(RX_Buffer[4]==0x11 || LEFT){//Selecciono Regresar 
0A726:  MOVF   34,W
0A728:  SUBLW  11
0A72A:  BZ    A732
0A72C:  BSF    F93.3
0A72E:  BTFSC  F81.3
0A730:  BRA    A82E
....................             Segundos=OFF; 
0A732:  MOVLB  0
0A734:  BCF    xA2.5
....................             Minutos=OFF;             
0A736:  BCF    xA2.4
....................             tiempo_secado=0; 
0A738:  MOVLB  3
0A73A:  CLRF   x6B
....................              
....................             if(!GuardaEEPROM){     
0A73C:  MOVLB  0
0A73E:  BTFSC  xA2.6
0A740:  BRA    A7DA
....................                CiclosPersonalizados[CicloLibre-1].NivelDesfogue=Nivel; 
0A742:  MOVLW  01
0A744:  MOVLB  3
0A746:  SUBWF  x3E,W
0A748:  MULLW  0A
0A74A:  MOVF   FF3,W
0A74C:  MOVLB  4
0A74E:  CLRF   x44
0A750:  MOVWF  x43
0A752:  MOVLW  08
0A754:  ADDWF  x43,W
0A756:  MOVWF  01
0A758:  MOVLW  00
0A75A:  ADDWFC x44,W
0A75C:  MOVWF  03
0A75E:  MOVF   01,W
0A760:  ADDLW  1B
0A762:  MOVWF  FE9
0A764:  MOVLW  04
0A766:  ADDWFC 03,W
0A768:  MOVWF  FEA
0A76A:  MOVFF  375,FEF
....................                write_eeprom(107+((CicloLibre-1)*8),Nivel); 
0A76E:  MOVLW  01
0A770:  MOVLB  3
0A772:  SUBWF  x3E,W
0A774:  MULLW  08
0A776:  MOVF   FF3,W
0A778:  ADDLW  6B
0A77A:  MOVLB  4
0A77C:  MOVWF  x43
0A77E:  CLRF   FAA
0A780:  MOVFF  443,FA9
0A784:  MOVFF  375,FA8
0A788:  BCF    FA6.6
0A78A:  BCF    FA6.7
0A78C:  BSF    FA6.2
0A78E:  MOVF   FF2,W
0A790:  MOVWF  00
0A792:  BCF    FF2.6
0A794:  BCF    FF2.7
0A796:  MOVLB  F
0A798:  MOVLW  55
0A79A:  MOVWF  FA7
0A79C:  MOVLW  AA
0A79E:  MOVWF  FA7
0A7A0:  BSF    FA6.1
0A7A2:  BTFSC  FA6.1
0A7A4:  BRA    A7A2
0A7A6:  BCF    FA6.2
0A7A8:  MOVF   00,W
0A7AA:  IORWF  FF2,F
....................                delay_ms(20);             
0A7AC:  MOVLW  14
0A7AE:  MOVLB  4
0A7B0:  MOVWF  x58
0A7B2:  MOVLB  0
0A7B4:  CALL   1A3E
....................                NivelSeleccionado=4995*Nivel; 
0A7B8:  MOVLW  13
0A7BA:  MOVLB  4
0A7BC:  MOVWF  x4D
0A7BE:  MOVLW  83
0A7C0:  MOVWF  x4C
0A7C2:  MOVFF  376,44F
0A7C6:  MOVFF  375,44E
0A7CA:  MOVLB  0
0A7CC:  CALL   39D0
0A7D0:  MOVFF  02,380
0A7D4:  MOVFF  01,37F
....................                GuardaEEPROM=ON; 
0A7D8:  BSF    xA2.6
....................             } 
....................              
....................             if(Nivel<6) 
0A7DA:  MOVLB  3
0A7DC:  MOVF   x76,F
0A7DE:  BNZ   A7EC
0A7E0:  MOVF   x75,W
0A7E2:  SUBLW  05
0A7E4:  BNC   A7EC
....................                desfoguelento=1; 
0A7E6:  MOVLB  0
0A7E8:  BSF    xA4.6
....................             else             
0A7EA:  BRA    A7F0
....................                desfoguelento=0; 
0A7EC:  MOVLB  0
0A7EE:  BCF    xA4.6
....................  
....................             if(MenuAnt==1){ 
0A7F0:  MOVLB  3
0A7F2:  DECFSZ x61,W
0A7F4:  BRA    A810
....................                //Buzzer_on; 
....................                printf("page CicloPersona"); 
0A7F6:  MOVLW  BA
0A7F8:  MOVWF  FF6
0A7FA:  MOVLW  0C
0A7FC:  MOVWF  FF7
0A7FE:  MOVLW  00
0A800:  MOVWF  FF8
0A802:  MOVLB  0
0A804:  CALL   38F2
....................                SendDataDisplay();  
0A808:  CALL   3924
....................                //PantallaPrincipal=1; 
....................             }else if(MenuAnt==2){ 
0A80C:  BRA    A82C
0A80E:  MOVLB  3
0A810:  MOVF   x61,W
0A812:  SUBLW  02
0A814:  BNZ   A82E
....................                printf("page Funcionamiento"); 
0A816:  MOVLW  CC
0A818:  MOVWF  FF6
0A81A:  MOVLW  0C
0A81C:  MOVWF  FF7
0A81E:  MOVLW  00
0A820:  MOVWF  FF8
0A822:  MOVLB  0
0A824:  CALL   38F2
....................                SendDataDisplay();  
0A828:  CALL   3924
0A82C:  MOVLB  3
....................                //if(Temperatura>60)TTrampa=TTrampa+5; 
....................             } 
....................          } 
....................           
....................          if(UP){ 
0A82E:  BSF    F93.0
0A830:  BTFSC  F81.0
0A832:  BRA    A84E
....................             delay_ms(100); 
0A834:  MOVLW  64
0A836:  MOVLB  4
0A838:  MOVWF  x58
0A83A:  MOVLB  0
0A83C:  CALL   1A3E
....................             if(UP){ 
0A840:  BSF    F93.0
0A842:  BTFSC  F81.0
0A844:  BRA    A850
....................                Nivel++; 
0A846:  MOVLB  3
0A848:  INCF   x75,F
0A84A:  BTFSC  FD8.2
0A84C:  INCF   x76,F
0A84E:  MOVLB  0
....................             } 
....................          } 
....................           
....................          if(DOWN){ 
0A850:  BSF    F93.1
0A852:  BTFSC  F81.1
0A854:  BRA    A874
....................             delay_ms(100); 
0A856:  MOVLW  64
0A858:  MOVLB  4
0A85A:  MOVWF  x58
0A85C:  MOVLB  0
0A85E:  CALL   1A3E
....................             if(DOWN){ 
0A862:  BSF    F93.1
0A864:  BTFSC  F81.1
0A866:  BRA    A874
....................                Nivel--; 
0A868:  MOVLB  3
0A86A:  MOVF   x75,W
0A86C:  BTFSC  FD8.2
0A86E:  DECF   x76,F
0A870:  DECF   x75,F
0A872:  MOVLB  0
....................             } 
....................          } 
....................           
....................          if(RX_Buffer[4]==0x0d){//Tecla Arriba Oprimida 
0A874:  MOVF   34,W
0A876:  SUBLW  0D
0A878:  BNZ   A888
....................             Nivel++; 
0A87A:  MOVLB  3
0A87C:  INCF   x75,F
0A87E:  BTFSC  FD8.2
0A880:  INCF   x76,F
....................             RX_Buffer[4]=0x00;             
0A882:  CLRF   34
....................             RX_Buffer2[4]=0x00;             
0A884:  CLRF   3F
0A886:  MOVLB  0
....................             //BorraBuffer(); 
....................          } 
....................           
....................          if(RX_Buffer[4]==0x0c){//Tecla Abajo Oprimida 
0A888:  MOVF   34,W
0A88A:  SUBLW  0C
0A88C:  BNZ   A89E
....................             Nivel--; 
0A88E:  MOVLB  3
0A890:  MOVF   x75,W
0A892:  BTFSC  FD8.2
0A894:  DECF   x76,F
0A896:  DECF   x75,F
....................             RX_Buffer[4]=0x00; 
0A898:  CLRF   34
....................             RX_Buffer2[4]=0x00;             
0A89A:  CLRF   3F
0A89C:  MOVLB  0
....................             //BorraBuffer(); 
....................          } 
....................           
....................       printf("tnivel.txt=\"%Lu\"",Nivel); 
0A89E:  MOVLW  E0
0A8A0:  MOVWF  FF6
0A8A2:  MOVLW  0C
0A8A4:  MOVWF  FF7
0A8A6:  MOVLW  00
0A8A8:  MOVWF  FF8
0A8AA:  MOVLW  0C
0A8AC:  MOVLB  4
0A8AE:  MOVWF  x48
0A8B0:  MOVLB  0
0A8B2:  CALL   487E
0A8B6:  MOVLW  10
0A8B8:  MOVWF  FE9
0A8BA:  MOVFF  376,448
0A8BE:  MOVFF  375,447
0A8C2:  CALL   4C42
0A8C6:  MOVLW  22
0A8C8:  BTFSS  F9E.4
0A8CA:  BRA    A8C8
0A8CC:  MOVWF  FAD
....................       SendDataDisplay(); 
0A8CE:  CALL   3924
0A8D2:  MOVLB  3
....................    } 
.................... //_--------------------------------------------------------------------------------------------------------------------------------------------------------       
....................  
.................... //_--------------------------------------------------------------------------------------------------------------------------------------------------------       
....................       if(Menu==6){ // Menu de Prueba de Componentes 
0A8D4:  MOVF   x60,W
0A8D6:  SUBLW  06
0A8D8:  BTFSS  FD8.2
0A8DA:  BRA    B026
....................          PruebaEstados=ON; 
0A8DC:  MOVLB  0
0A8DE:  BSF    xA1.4
....................           
....................          if(RX_Buffer[4]==0x02)//Oprimio EV Desfogue 
0A8E0:  MOVF   34,W
0A8E2:  SUBLW  02
0A8E4:  BNZ   A8EC
....................          { 
....................             EstadoDesfogue=!EstadoDesfogue; 
0A8E6:  BTG    xA1.1
....................             RX_Buffer[4]=0x00; 
0A8E8:  CLRF   34
....................             RX_Buffer2[4]=0x00; 
0A8EA:  CLRF   3F
....................          } 
....................           
....................          if(EstadoDesfogue){ 
0A8EC:  BTFSS  xA1.1
0A8EE:  BRA    A90A
....................             printf("b1.bco=2016"); 
0A8F0:  MOVLW  F2
0A8F2:  MOVWF  FF6
0A8F4:  MOVLW  0C
0A8F6:  MOVWF  FF7
0A8F8:  MOVLW  00
0A8FA:  MOVWF  FF8
0A8FC:  CALL   38F2
....................             SendDataDisplay();  
0A900:  CALL   3924
....................             Desfogue_on; 
0A904:  BSF    F8C.4
0A906:  BCF    F95.4
....................          } 
....................          else{ 
0A908:  BRA    A922
....................             printf("b1.bco=63488"); 
0A90A:  MOVLW  FE
0A90C:  MOVWF  FF6
0A90E:  MOVLW  0C
0A910:  MOVWF  FF7
0A912:  MOVLW  00
0A914:  MOVWF  FF8
0A916:  CALL   38F2
....................             SendDataDisplay();  
0A91A:  CALL   3924
....................             Desfogue_off; 
0A91E:  BCF    F8C.4
0A920:  BCF    F95.4
....................          } 
....................           
....................          if(RX_Buffer[4]==0x01)//Oprimio EV Agua 
0A922:  DECFSZ 34,W
0A924:  BRA    A92C
....................          { 
....................             EstadoAgua=!EstadoAgua; 
0A926:  BTG    xA1.2
....................             RX_Buffer[4]=0x00; 
0A928:  CLRF   34
....................             RX_Buffer2[4]=0x00; 
0A92A:  CLRF   3F
....................          } 
....................           
....................          if(EstadoAgua){ 
0A92C:  BTFSS  xA1.2
0A92E:  BRA    A94A
....................             printf("b0.bco=2016"); 
0A930:  MOVLW  0C
0A932:  MOVWF  FF6
0A934:  MOVLW  0D
0A936:  MOVWF  FF7
0A938:  MOVLW  00
0A93A:  MOVWF  FF8
0A93C:  CALL   38F2
....................             SendDataDisplay();  
0A940:  CALL   3924
....................             Agua_on; 
0A944:  BSF    F8C.5
0A946:  BCF    F95.5
....................          } 
....................          else{ 
0A948:  BRA    A962
....................             printf("b0.bco=63488"); 
0A94A:  MOVLW  18
0A94C:  MOVWF  FF6
0A94E:  MOVLW  0D
0A950:  MOVWF  FF7
0A952:  MOVLW  00
0A954:  MOVWF  FF8
0A956:  CALL   38F2
....................             SendDataDisplay();  
0A95A:  CALL   3924
....................             Agua_off; 
0A95E:  BCF    F8C.5
0A960:  BCF    F95.5
....................          } 
....................           
....................          if(RX_Buffer[4]==0x03)//Oprimio EV Paso 
0A962:  MOVF   34,W
0A964:  SUBLW  03
0A966:  BNZ   A96E
....................          { 
....................             EstadoPaso=!EstadoPaso; 
0A968:  BTG    xA2.7
....................             RX_Buffer[4]=0x00; 
0A96A:  CLRF   34
....................             RX_Buffer2[4]=0x00; 
0A96C:  CLRF   3F
....................          } 
....................           
....................          if(EstadoPaso){ 
0A96E:  BTFSS  xA2.7
0A970:  BRA    A98C
....................             printf("b2.bco=2016"); 
0A972:  MOVLW  26
0A974:  MOVWF  FF6
0A976:  MOVLW  0D
0A978:  MOVWF  FF7
0A97A:  MOVLW  00
0A97C:  MOVWF  FF8
0A97E:  CALL   38F2
....................             SendDataDisplay();  
0A982:  CALL   3924
....................             #ifdef Enfriador 
....................             Enfr_on; 
0A986:  BSF    F8C.6
0A988:  BCF    F95.6
....................             #else 
....................             Bomba_on; 
....................             #endif 
....................          } 
....................          else{ 
0A98A:  BRA    A9A4
....................             printf("b2.bco=63488"); 
0A98C:  MOVLW  32
0A98E:  MOVWF  FF6
0A990:  MOVLW  0D
0A992:  MOVWF  FF7
0A994:  MOVLW  00
0A996:  MOVWF  FF8
0A998:  CALL   38F2
....................             SendDataDisplay();  
0A99C:  CALL   3924
....................             #ifdef Enfriador 
....................             Enfr_off; 
0A9A0:  BCF    F8C.6
0A9A2:  BCF    F95.6
....................             #else 
....................             Bomba_off; 
....................             #endif 
....................          } 
....................          
....................           
....................          if(RX_Buffer[4]==0x05)//Oprimio Bloqueo 
0A9A4:  MOVF   34,W
0A9A6:  SUBLW  05
0A9A8:  BNZ   A9B0
....................          { 
....................             EstadoAire=!EstadoAire; 
0A9AA:  BTG    xA2.0
....................             RX_Buffer[4]=0x00; 
0A9AC:  CLRF   34
....................             RX_Buffer2[4]=0x00; 
0A9AE:  CLRF   3F
....................          } 
....................           
....................          if(EstadoAire){ 
0A9B0:  BTFSS  xA2.0
0A9B2:  BRA    A9CC
....................             printf("b4.bco=2016"); 
0A9B4:  MOVLW  40
0A9B6:  MOVWF  FF6
0A9B8:  MOVLW  0D
0A9BA:  MOVWF  FF7
0A9BC:  MOVLW  00
0A9BE:  MOVWF  FF8
0A9C0:  CALL   38F2
....................             SendDataDisplay();  
0A9C4:  CALL   3924
....................             Aire=ON;    
0A9C8:  BSF    xA4.1
....................          }else{ 
0A9CA:  BRA    A9E2
....................             printf("b4.bco=63488"); 
0A9CC:  MOVLW  4C
0A9CE:  MOVWF  FF6
0A9D0:  MOVLW  0D
0A9D2:  MOVWF  FF7
0A9D4:  MOVLW  00
0A9D6:  MOVWF  FF8
0A9D8:  CALL   38F2
....................             SendDataDisplay();  
0A9DC:  CALL   3924
....................             Aire=OFF; 
0A9E0:  BCF    xA4.1
....................          } 
....................           
....................           
....................          if(RX_Buffer[4]==0x04)//Oprimio SSR1 
0A9E2:  MOVF   34,W
0A9E4:  SUBLW  04
0A9E6:  BNZ   A9EE
....................          { 
....................             EstadoSSR=!EstadoSSR; 
0A9E8:  BTG    xA1.3
....................             RX_Buffer[4]=0x00; 
0A9EA:  CLRF   34
....................             RX_Buffer2[4]=0x00; 
0A9EC:  CLRF   3F
....................          } 
....................           
....................          if(EstadoSSR){ 
0A9EE:  BTFSS  xA1.3
0A9F0:  BRA    AA0C
....................             printf("b3.bco=2016"); 
0A9F2:  MOVLW  5A
0A9F4:  MOVWF  FF6
0A9F6:  MOVLW  0D
0A9F8:  MOVWF  FF7
0A9FA:  MOVLW  00
0A9FC:  MOVWF  FF8
0A9FE:  CALL   38F2
....................             SendDataDisplay();  
0AA02:  CALL   3924
....................             SSR_on; 
0AA06:  BCF    F8B.2
0AA08:  BCF    F94.2
....................          } 
....................          else{ 
0AA0A:  BRA    AA24
....................             printf("b3.bco=63488"); 
0AA0C:  MOVLW  66
0AA0E:  MOVWF  FF6
0AA10:  MOVLW  0D
0AA12:  MOVWF  FF7
0AA14:  MOVLW  00
0AA16:  MOVWF  FF8
0AA18:  CALL   38F2
....................             SendDataDisplay();  
0AA1C:  CALL   3924
....................             SSR_off; 
0AA20:  BSF    F8B.2
0AA22:  BCF    F94.2
....................          } 
....................           
....................          if(DOOR){ 
0AA24:  BSF    F93.6
0AA26:  BTFSC  F81.6
0AA28:  BRA    AA40
....................             printf("b8.bco=2016"); 
0AA2A:  MOVLW  74
0AA2C:  MOVWF  FF6
0AA2E:  MOVLW  0D
0AA30:  MOVWF  FF7
0AA32:  MOVLW  00
0AA34:  MOVWF  FF8
0AA36:  CALL   38F2
....................             SendDataDisplay();  
0AA3A:  CALL   3924
....................          }else{ 
0AA3E:  BRA    AA54
....................             printf("b8.bco=63488"); 
0AA40:  MOVLW  80
0AA42:  MOVWF  FF6
0AA44:  MOVLW  0D
0AA46:  MOVWF  FF7
0AA48:  MOVLW  00
0AA4A:  MOVWF  FF8
0AA4C:  CALL   38F2
....................             SendDataDisplay();  
0AA50:  CALL   3924
....................          } 
....................           
....................          if(TERM){ 
0AA54:  BSF    F93.5
0AA56:  BTFSC  F81.5
0AA58:  BRA    AA70
....................             printf("b9.bco=2016"); 
0AA5A:  MOVLW  8E
0AA5C:  MOVWF  FF6
0AA5E:  MOVLW  0D
0AA60:  MOVWF  FF7
0AA62:  MOVLW  00
0AA64:  MOVWF  FF8
0AA66:  CALL   38F2
....................             SendDataDisplay();  
0AA6A:  CALL   3924
....................          }else{ 
0AA6E:  BRA    AA84
....................             printf("b9.bco=63488"); 
0AA70:  MOVLW  9A
0AA72:  MOVWF  FF6
0AA74:  MOVLW  0D
0AA76:  MOVWF  FF7
0AA78:  MOVLW  00
0AA7A:  MOVWF  FF8
0AA7C:  CALL   38F2
....................             SendDataDisplay();  
0AA80:  CALL   3924
....................          } 
....................           
....................          if(STOP){ 
0AA84:  BSF    F93.7
0AA86:  BTFSC  F81.7
0AA88:  BRA    AAA0
....................             printf("b10.bco=2016"); 
0AA8A:  MOVLW  A8
0AA8C:  MOVWF  FF6
0AA8E:  MOVLW  0D
0AA90:  MOVWF  FF7
0AA92:  MOVLW  00
0AA94:  MOVWF  FF8
0AA96:  CALL   38F2
....................             SendDataDisplay();  
0AA9A:  CALL   3924
....................          }else{ 
0AA9E:  BRA    AAB4
....................             printf("b10.bco=63488"); 
0AAA0:  MOVLW  B6
0AAA2:  MOVWF  FF6
0AAA4:  MOVLW  0D
0AAA6:  MOVWF  FF7
0AAA8:  MOVLW  00
0AAAA:  MOVWF  FF8
0AAAC:  CALL   38F2
....................             SendDataDisplay();  
0AAB0:  CALL   3924
....................          } 
....................           
....................          /*if(PRES){ 
....................             printf("b11.bco=2016"); 
....................             SendDataDisplay();  
....................          }else{ 
....................             printf("b11.bco=63488"); 
....................             SendDataDisplay();  
....................          }*/ 
....................           
....................          if(RX_Buffer[4]==0x13)//Oprimio Buzzer 
0AAB4:  MOVF   34,W
0AAB6:  SUBLW  13
0AAB8:  BNZ   AAC0
....................          { 
....................             EstadoBuzzer=!EstadoBuzzer; 
0AABA:  BTG    xA3.0
....................             RX_Buffer[4]=0x00; 
0AABC:  CLRF   34
....................             RX_Buffer2[4]=0x00; 
0AABE:  CLRF   3F
....................          } 
....................           
....................          if(EstadoBuzzer){ 
0AAC0:  BTFSS  xA3.0
0AAC2:  BRA    AADE
....................             printf("b12.bco=2016"); 
0AAC4:  MOVLW  C4
0AAC6:  MOVWF  FF6
0AAC8:  MOVLW  0D
0AACA:  MOVWF  FF7
0AACC:  MOVLW  00
0AACE:  MOVWF  FF8
0AAD0:  CALL   38F2
....................             SendDataDisplay();  
0AAD4:  CALL   3924
....................             Buzzer_on; 
0AAD8:  BSF    F8C.0
0AADA:  BCF    F95.0
....................          } 
....................          else{ 
0AADC:  BRA    AAF6
....................             printf("b12.bco=63488"); 
0AADE:  MOVLW  D2
0AAE0:  MOVWF  FF6
0AAE2:  MOVLW  0D
0AAE4:  MOVWF  FF7
0AAE6:  MOVLW  00
0AAE8:  MOVWF  FF8
0AAEA:  CALL   38F2
....................             SendDataDisplay();  
0AAEE:  CALL   3924
....................             Buzzer_off; 
0AAF2:  BCF    F8C.0
0AAF4:  BCF    F95.0
....................          } 
....................           
....................          if(HIG){ 
0AAF6:  BSF    F94.0
0AAF8:  BTFSS  F82.0
0AAFA:  BRA    AB12
....................             printf("b16.bco=2016"); 
0AAFC:  MOVLW  E0
0AAFE:  MOVWF  FF6
0AB00:  MOVLW  0D
0AB02:  MOVWF  FF7
0AB04:  MOVLW  00
0AB06:  MOVWF  FF8
0AB08:  CALL   38F2
....................             SendDataDisplay();  
0AB0C:  CALL   3924
....................          }else{ 
0AB10:  BRA    AB26
....................             printf("b16.bco=63488"); 
0AB12:  MOVLW  EE
0AB14:  MOVWF  FF6
0AB16:  MOVLW  0D
0AB18:  MOVWF  FF7
0AB1A:  MOVLW  00
0AB1C:  MOVWF  FF8
0AB1E:  CALL   38F2
....................             SendDataDisplay();  
0AB22:  CALL   3924
....................          } 
....................           
....................          if(LOW){ 
0AB26:  BSF    F94.1
0AB28:  BTFSS  F82.1
0AB2A:  BRA    AB42
....................             printf("b17.bco=2016"); 
0AB2C:  MOVLW  FC
0AB2E:  MOVWF  FF6
0AB30:  MOVLW  0D
0AB32:  MOVWF  FF7
0AB34:  MOVLW  00
0AB36:  MOVWF  FF8
0AB38:  CALL   38F2
....................             SendDataDisplay();  
0AB3C:  CALL   3924
....................          }else{ 
0AB40:  BRA    AB56
....................             printf("b17.bco=63488"); 
0AB42:  MOVLW  0A
0AB44:  MOVWF  FF6
0AB46:  MOVLW  0E
0AB48:  MOVWF  FF7
0AB4A:  MOVLW  00
0AB4C:  MOVWF  FF8
0AB4E:  CALL   38F2
....................             SendDataDisplay();  
0AB52:  CALL   3924
....................          } 
....................           
....................          printf("b13.txt=\"ADC0:%3.0f\"",sensores(0));          
0AB56:  MOVLB  4
0AB58:  CLRF   x4C
0AB5A:  MOVLB  0
0AB5C:  CALL   3978
0AB60:  MOVFF  00,443
0AB64:  MOVFF  01,444
0AB68:  MOVFF  02,445
0AB6C:  MOVFF  03,446
0AB70:  MOVLW  18
0AB72:  MOVWF  FF6
0AB74:  MOVLW  0E
0AB76:  MOVWF  FF7
0AB78:  MOVLW  00
0AB7A:  MOVWF  FF8
0AB7C:  MOVLW  0E
0AB7E:  MOVLB  4
0AB80:  MOVWF  x48
0AB82:  MOVLB  0
0AB84:  CALL   487E
0AB88:  MOVLW  02
0AB8A:  MOVWF  FE9
0AB8C:  MOVFF  446,44B
0AB90:  MOVFF  445,44A
0AB94:  MOVFF  444,449
0AB98:  MOVFF  443,448
0AB9C:  MOVLB  4
0AB9E:  CLRF   x4C
0ABA0:  MOVLB  0
0ABA2:  CALL   4A1E
0ABA6:  MOVLW  22
0ABA8:  BTFSS  F9E.4
0ABAA:  BRA    ABA8
0ABAC:  MOVWF  FAD
....................          SendDataDisplay(); 
0ABAE:  CALL   3924
....................          printf("b14.txt=\"ADC1:%3.0f\"",sensores(1));          
0ABB2:  MOVLW  01
0ABB4:  MOVLB  4
0ABB6:  MOVWF  x4C
0ABB8:  MOVLB  0
0ABBA:  CALL   3978
0ABBE:  MOVFF  00,443
0ABC2:  MOVFF  01,444
0ABC6:  MOVFF  02,445
0ABCA:  MOVFF  03,446
0ABCE:  MOVLW  2E
0ABD0:  MOVWF  FF6
0ABD2:  MOVLW  0E
0ABD4:  MOVWF  FF7
0ABD6:  MOVLW  00
0ABD8:  MOVWF  FF8
0ABDA:  MOVLW  0E
0ABDC:  MOVLB  4
0ABDE:  MOVWF  x48
0ABE0:  MOVLB  0
0ABE2:  CALL   487E
0ABE6:  MOVLW  02
0ABE8:  MOVWF  FE9
0ABEA:  MOVFF  446,44B
0ABEE:  MOVFF  445,44A
0ABF2:  MOVFF  444,449
0ABF6:  MOVFF  443,448
0ABFA:  MOVLB  4
0ABFC:  CLRF   x4C
0ABFE:  MOVLB  0
0AC00:  CALL   4A1E
0AC04:  MOVLW  22
0AC06:  BTFSS  F9E.4
0AC08:  BRA    AC06
0AC0A:  MOVWF  FAD
....................          SendDataDisplay(); 
0AC0C:  CALL   3924
....................          printf("b15.txt=\"A2:%3.0f %03Lu\"",sensores(2),PresionCamara); 
0AC10:  MOVLW  02
0AC12:  MOVLB  4
0AC14:  MOVWF  x4C
0AC16:  MOVLB  0
0AC18:  CALL   3978
0AC1C:  MOVFF  00,443
0AC20:  MOVFF  01,444
0AC24:  MOVFF  02,445
0AC28:  MOVFF  03,446
0AC2C:  MOVLW  44
0AC2E:  MOVWF  FF6
0AC30:  MOVLW  0E
0AC32:  MOVWF  FF7
0AC34:  MOVLW  00
0AC36:  MOVWF  FF8
0AC38:  MOVLW  0C
0AC3A:  MOVLB  4
0AC3C:  MOVWF  x48
0AC3E:  MOVLB  0
0AC40:  CALL   487E
0AC44:  MOVLW  02
0AC46:  MOVWF  FE9
0AC48:  MOVFF  446,44B
0AC4C:  MOVFF  445,44A
0AC50:  MOVFF  444,449
0AC54:  MOVFF  443,448
0AC58:  MOVLB  4
0AC5A:  CLRF   x4C
0AC5C:  MOVLB  0
0AC5E:  CALL   4A1E
0AC62:  MOVLW  20
0AC64:  BTFSS  F9E.4
0AC66:  BRA    AC64
0AC68:  MOVWF  FAD
0AC6A:  MOVLW  0A
0AC6C:  MOVWF  FE9
0AC6E:  MOVFF  37A,448
0AC72:  MOVFF  379,447
0AC76:  CALL   4C42
0AC7A:  MOVLW  22
0AC7C:  BTFSS  F9E.4
0AC7E:  BRA    AC7C
0AC80:  MOVWF  FAD
....................          SendDataDisplay(); 
0AC82:  CALL   3924
....................          printf("b18.txt=\"A3:%3.0f %03Lu\"",sensores(3),PresionPreCamara); 
0AC86:  MOVLW  03
0AC88:  MOVLB  4
0AC8A:  MOVWF  x4C
0AC8C:  MOVLB  0
0AC8E:  CALL   3978
0AC92:  MOVFF  00,443
0AC96:  MOVFF  01,444
0AC9A:  MOVFF  02,445
0AC9E:  MOVFF  03,446
0ACA2:  MOVLW  5E
0ACA4:  MOVWF  FF6
0ACA6:  MOVLW  0E
0ACA8:  MOVWF  FF7
0ACAA:  MOVLW  00
0ACAC:  MOVWF  FF8
0ACAE:  MOVLW  0C
0ACB0:  MOVLB  4
0ACB2:  MOVWF  x48
0ACB4:  MOVLB  0
0ACB6:  CALL   487E
0ACBA:  MOVLW  02
0ACBC:  MOVWF  FE9
0ACBE:  MOVFF  446,44B
0ACC2:  MOVFF  445,44A
0ACC6:  MOVFF  444,449
0ACCA:  MOVFF  443,448
0ACCE:  MOVLB  4
0ACD0:  CLRF   x4C
0ACD2:  MOVLB  0
0ACD4:  CALL   4A1E
0ACD8:  MOVLW  20
0ACDA:  BTFSS  F9E.4
0ACDC:  BRA    ACDA
0ACDE:  MOVWF  FAD
0ACE0:  MOVLW  0A
0ACE2:  MOVWF  FE9
0ACE4:  MOVFF  37C,448
0ACE8:  MOVFF  37B,447
0ACEC:  CALL   4C42
0ACF0:  MOVLW  22
0ACF2:  BTFSS  F9E.4
0ACF4:  BRA    ACF2
0ACF6:  MOVWF  FAD
....................          SendDataDisplay(); 
0ACF8:  CALL   3924
....................          printf("b20.txt=\"T1:%3.1f\"",Temperatura); 
0ACFC:  MOVLW  78
0ACFE:  MOVWF  FF6
0AD00:  MOVLW  0E
0AD02:  MOVWF  FF7
0AD04:  MOVLW  00
0AD06:  MOVWF  FF8
0AD08:  MOVLW  0C
0AD0A:  MOVLB  4
0AD0C:  MOVWF  x48
0AD0E:  MOVLB  0
0AD10:  CALL   487E
0AD14:  MOVLW  02
0AD16:  MOVWF  FE9
0AD18:  MOVFF  32B,44B
0AD1C:  MOVFF  32A,44A
0AD20:  MOVFF  329,449
0AD24:  MOVFF  328,448
0AD28:  MOVLW  01
0AD2A:  MOVLB  4
0AD2C:  MOVWF  x4C
0AD2E:  MOVLB  0
0AD30:  CALL   4A1E
0AD34:  MOVLW  22
0AD36:  BTFSS  F9E.4
0AD38:  BRA    AD36
0AD3A:  MOVWF  FAD
....................          SendDataDisplay(); 
0AD3C:  CALL   3924
....................           
....................          if(RX_Buffer[4]==0x21 || LEFT){//Oprimio salir 
0AD40:  MOVF   34,W
0AD42:  SUBLW  21
0AD44:  BZ    AD4C
0AD46:  BSF    F93.3
0AD48:  BTFSC  F81.3
0AD4A:  BRA    AD94
....................             delay_ms(100); 
0AD4C:  MOVLW  64
0AD4E:  MOVLB  4
0AD50:  MOVWF  x58
0AD52:  MOVLB  0
0AD54:  CALL   1A3E
....................             if(RX_Buffer[4]==0x21 || LEFT){ 
0AD58:  MOVF   34,W
0AD5A:  SUBLW  21
0AD5C:  BZ    AD64
0AD5E:  BSF    F93.3
0AD60:  BTFSC  F81.3
0AD62:  BRA    AD94
....................                printf("page MenuPrincipal"); 
0AD64:  MOVLW  8C
0AD66:  MOVWF  FF6
0AD68:  MOVLW  0E
0AD6A:  MOVWF  FF7
0AD6C:  MOVLW  00
0AD6E:  MOVWF  FF8
0AD70:  CALL   38F2
....................                SendDataDisplay(); 
0AD74:  CALL   3924
....................                PantallaPrincipal=0; 
0AD78:  MOVLB  2
0AD7A:  CLRF   xDD
....................                PruebaEstados=OFF;Desfogue_off;Agua_off; 
0AD7C:  MOVLB  0
0AD7E:  BCF    xA1.4
0AD80:  BCF    F8C.4
0AD82:  BCF    F95.4
0AD84:  BCF    F8C.5
0AD86:  BCF    F95.5
....................                #ifdef Enfriador 
....................                Enfr_off; 
0AD88:  BCF    F8C.6
0AD8A:  BCF    F95.6
....................                #else 
....................                Bomba_off; 
....................                #endif 
....................                SSR_off; 
0AD8C:  BSF    F8B.2
0AD8E:  BCF    F94.2
....................                ApagaSalidas(); 
0AD90:  CALL   395A
....................                // Falta apagar Todo 
....................             } 
....................          } 
....................           
....................          if(UP){ 
0AD94:  BSF    F93.0
0AD96:  BTFSC  F81.0
0AD98:  BRA    AEDC
....................             delay_ms(100); 
0AD9A:  MOVLW  64
0AD9C:  MOVLB  4
0AD9E:  MOVWF  x58
0ADA0:  MOVLB  0
0ADA2:  CALL   1A3E
....................             if(UP){ 
0ADA6:  BSF    F93.0
0ADA8:  BTFSC  F81.0
0ADAA:  BRA    AEDC
....................                G1=41-sensores(2); 
0ADAC:  MOVLW  02
0ADAE:  MOVLB  4
0ADB0:  MOVWF  x4C
0ADB2:  MOVLB  0
0ADB4:  CALL   3978
0ADB8:  MOVFF  FEA,444
0ADBC:  MOVFF  FE9,443
0ADC0:  BSF    FD8.1
0ADC2:  MOVLB  4
0ADC4:  CLRF   x5B
0ADC6:  CLRF   x5A
0ADC8:  MOVLW  24
0ADCA:  MOVWF  x59
0ADCC:  MOVLW  84
0ADCE:  MOVWF  x58
0ADD0:  MOVFF  03,45F
0ADD4:  MOVFF  02,45E
0ADD8:  MOVFF  01,45D
0ADDC:  MOVFF  00,45C
0ADE0:  MOVLB  0
0ADE2:  CALL   1BFA
0ADE6:  MOVFF  444,FEA
0ADEA:  MOVFF  443,FE9
0ADEE:  MOVFF  03,45B
0ADF2:  MOVFF  02,45A
0ADF6:  MOVFF  01,459
0ADFA:  MOVFF  00,458
0ADFE:  CALL   412A
0AE02:  MOVFF  01,3B3
....................                if(G1<0) 
0AE06:  MOVLB  3
0AE08:  BTFSC  xB3.7
0AE0A:  BRA    AE0E
0AE0C:  BRA    AE14
....................                   sg1=10; 
0AE0E:  MOVLW  0A
0AE10:  MOVWF  xB5
....................                else 
0AE12:  BRA    AE18
....................                   sg1=5; 
0AE14:  MOVLW  05
0AE16:  MOVWF  xB5
....................                    
....................                write_eeprom(42,(int8)G1); 
0AE18:  CLRF   FAA
0AE1A:  MOVLW  2A
0AE1C:  MOVWF  FA9
0AE1E:  MOVFF  3B3,FA8
0AE22:  BCF    FA6.6
0AE24:  BCF    FA6.7
0AE26:  BSF    FA6.2
0AE28:  MOVF   FF2,W
0AE2A:  MOVWF  00
0AE2C:  BCF    FF2.6
0AE2E:  BCF    FF2.7
0AE30:  MOVLB  F
0AE32:  MOVLW  55
0AE34:  MOVWF  FA7
0AE36:  MOVLW  AA
0AE38:  MOVWF  FA7
0AE3A:  BSF    FA6.1
0AE3C:  BTFSC  FA6.1
0AE3E:  BRA    AE3C
0AE40:  BCF    FA6.2
0AE42:  MOVF   00,W
0AE44:  IORWF  FF2,F
....................                delay_ms(10); 
0AE46:  MOVLW  0A
0AE48:  MOVLB  4
0AE4A:  MOVWF  x58
0AE4C:  MOVLB  0
0AE4E:  CALL   1A3E
....................                write_eeprom(44,(int8)sg1); 
0AE52:  CLRF   FAA
0AE54:  MOVLW  2C
0AE56:  MOVWF  FA9
0AE58:  MOVFF  3B5,FA8
0AE5C:  BCF    FA6.6
0AE5E:  BCF    FA6.7
0AE60:  BSF    FA6.2
0AE62:  MOVF   FF2,W
0AE64:  MOVWF  00
0AE66:  BCF    FF2.6
0AE68:  BCF    FF2.7
0AE6A:  MOVLB  F
0AE6C:  MOVLW  55
0AE6E:  MOVWF  FA7
0AE70:  MOVLW  AA
0AE72:  MOVWF  FA7
0AE74:  BSF    FA6.1
0AE76:  BTFSC  FA6.1
0AE78:  BRA    AE76
0AE7A:  BCF    FA6.2
0AE7C:  MOVF   00,W
0AE7E:  IORWF  FF2,F
....................                delay_ms(10); 
0AE80:  MOVLW  0A
0AE82:  MOVLB  4
0AE84:  MOVWF  x58
0AE86:  MOVLB  0
0AE88:  CALL   1A3E
....................                Buzzer_on; 
0AE8C:  BSF    F8C.0
0AE8E:  BCF    F95.0
....................                delay_ms(1000); 
0AE90:  MOVLW  04
0AE92:  MOVLB  4
0AE94:  MOVWF  x43
0AE96:  MOVLW  FA
0AE98:  MOVWF  x58
0AE9A:  MOVLB  0
0AE9C:  CALL   1A3E
0AEA0:  MOVLB  4
0AEA2:  DECFSZ x43,F
0AEA4:  BRA    AE96
....................                Buzzer_off; 
0AEA6:  BCF    F8C.0
0AEA8:  BCF    F95.0
....................                delay_ms(1000); 
0AEAA:  MOVLW  04
0AEAC:  MOVWF  x43
0AEAE:  MOVLW  FA
0AEB0:  MOVWF  x58
0AEB2:  MOVLB  0
0AEB4:  CALL   1A3E
0AEB8:  MOVLB  4
0AEBA:  DECFSZ x43,F
0AEBC:  BRA    AEAE
....................                Buzzer_on; 
0AEBE:  BSF    F8C.0
0AEC0:  BCF    F95.0
....................                delay_ms(1000); 
0AEC2:  MOVLW  04
0AEC4:  MOVWF  x43
0AEC6:  MOVLW  FA
0AEC8:  MOVWF  x58
0AECA:  MOVLB  0
0AECC:  CALL   1A3E
0AED0:  MOVLB  4
0AED2:  DECFSZ x43,F
0AED4:  BRA    AEC6
....................                Buzzer_off; 
0AED6:  BCF    F8C.0
0AED8:  BCF    F95.0
0AEDA:  MOVLB  0
....................             } 
....................          } 
....................           
....................          if(DOWN){ 
0AEDC:  BSF    F93.1
0AEDE:  BTFSC  F81.1
0AEE0:  BRA    B024
....................             delay_ms(100); 
0AEE2:  MOVLW  64
0AEE4:  MOVLB  4
0AEE6:  MOVWF  x58
0AEE8:  MOVLB  0
0AEEA:  CALL   1A3E
....................             if(DOWN){ 
0AEEE:  BSF    F93.1
0AEF0:  BTFSC  F81.1
0AEF2:  BRA    B024
....................                G2=41-sensores(3); 
0AEF4:  MOVLW  03
0AEF6:  MOVLB  4
0AEF8:  MOVWF  x4C
0AEFA:  MOVLB  0
0AEFC:  CALL   3978
0AF00:  MOVFF  FEA,444
0AF04:  MOVFF  FE9,443
0AF08:  BSF    FD8.1
0AF0A:  MOVLB  4
0AF0C:  CLRF   x5B
0AF0E:  CLRF   x5A
0AF10:  MOVLW  24
0AF12:  MOVWF  x59
0AF14:  MOVLW  84
0AF16:  MOVWF  x58
0AF18:  MOVFF  03,45F
0AF1C:  MOVFF  02,45E
0AF20:  MOVFF  01,45D
0AF24:  MOVFF  00,45C
0AF28:  MOVLB  0
0AF2A:  CALL   1BFA
0AF2E:  MOVFF  444,FEA
0AF32:  MOVFF  443,FE9
0AF36:  MOVFF  03,45B
0AF3A:  MOVFF  02,45A
0AF3E:  MOVFF  01,459
0AF42:  MOVFF  00,458
0AF46:  CALL   412A
0AF4A:  MOVFF  01,3B4
....................                if(G2<0) 
0AF4E:  MOVLB  3
0AF50:  BTFSC  xB4.7
0AF52:  BRA    AF56
0AF54:  BRA    AF5C
....................                   sg2=10; 
0AF56:  MOVLW  0A
0AF58:  MOVWF  xB6
....................                else 
0AF5A:  BRA    AF60
....................                   sg2=5; 
0AF5C:  MOVLW  05
0AF5E:  MOVWF  xB6
....................                    
....................                write_eeprom(43,(int8)G2); 
0AF60:  CLRF   FAA
0AF62:  MOVLW  2B
0AF64:  MOVWF  FA9
0AF66:  MOVFF  3B4,FA8
0AF6A:  BCF    FA6.6
0AF6C:  BCF    FA6.7
0AF6E:  BSF    FA6.2
0AF70:  MOVF   FF2,W
0AF72:  MOVWF  00
0AF74:  BCF    FF2.6
0AF76:  BCF    FF2.7
0AF78:  MOVLB  F
0AF7A:  MOVLW  55
0AF7C:  MOVWF  FA7
0AF7E:  MOVLW  AA
0AF80:  MOVWF  FA7
0AF82:  BSF    FA6.1
0AF84:  BTFSC  FA6.1
0AF86:  BRA    AF84
0AF88:  BCF    FA6.2
0AF8A:  MOVF   00,W
0AF8C:  IORWF  FF2,F
....................                delay_ms(10); 
0AF8E:  MOVLW  0A
0AF90:  MOVLB  4
0AF92:  MOVWF  x58
0AF94:  MOVLB  0
0AF96:  CALL   1A3E
....................                write_eeprom(45,(int8)sg2); 
0AF9A:  CLRF   FAA
0AF9C:  MOVLW  2D
0AF9E:  MOVWF  FA9
0AFA0:  MOVFF  3B6,FA8
0AFA4:  BCF    FA6.6
0AFA6:  BCF    FA6.7
0AFA8:  BSF    FA6.2
0AFAA:  MOVF   FF2,W
0AFAC:  MOVWF  00
0AFAE:  BCF    FF2.6
0AFB0:  BCF    FF2.7
0AFB2:  MOVLB  F
0AFB4:  MOVLW  55
0AFB6:  MOVWF  FA7
0AFB8:  MOVLW  AA
0AFBA:  MOVWF  FA7
0AFBC:  BSF    FA6.1
0AFBE:  BTFSC  FA6.1
0AFC0:  BRA    AFBE
0AFC2:  BCF    FA6.2
0AFC4:  MOVF   00,W
0AFC6:  IORWF  FF2,F
....................                delay_ms(10); 
0AFC8:  MOVLW  0A
0AFCA:  MOVLB  4
0AFCC:  MOVWF  x58
0AFCE:  MOVLB  0
0AFD0:  CALL   1A3E
....................                Buzzer_on; 
0AFD4:  BSF    F8C.0
0AFD6:  BCF    F95.0
....................                delay_ms(1000); 
0AFD8:  MOVLW  04
0AFDA:  MOVLB  4
0AFDC:  MOVWF  x43
0AFDE:  MOVLW  FA
0AFE0:  MOVWF  x58
0AFE2:  MOVLB  0
0AFE4:  CALL   1A3E
0AFE8:  MOVLB  4
0AFEA:  DECFSZ x43,F
0AFEC:  BRA    AFDE
....................                Buzzer_off; 
0AFEE:  BCF    F8C.0
0AFF0:  BCF    F95.0
....................                delay_ms(1000); 
0AFF2:  MOVLW  04
0AFF4:  MOVWF  x43
0AFF6:  MOVLW  FA
0AFF8:  MOVWF  x58
0AFFA:  MOVLB  0
0AFFC:  CALL   1A3E
0B000:  MOVLB  4
0B002:  DECFSZ x43,F
0B004:  BRA    AFF6
....................                Buzzer_on; 
0B006:  BSF    F8C.0
0B008:  BCF    F95.0
....................                delay_ms(1000); 
0B00A:  MOVLW  04
0B00C:  MOVWF  x43
0B00E:  MOVLW  FA
0B010:  MOVWF  x58
0B012:  MOVLB  0
0B014:  CALL   1A3E
0B018:  MOVLB  4
0B01A:  DECFSZ x43,F
0B01C:  BRA    B00E
....................                Buzzer_off; 
0B01E:  BCF    F8C.0
0B020:  BCF    F95.0
0B022:  MOVLB  0
0B024:  MOVLB  3
....................             } 
....................          } 
....................      } 
.................... //_--------------------------------------------------------------------------------------------------------------------------------------------------------     
....................  
.................... //_--------------------------------------------------------------------------------------------------------------------------------------------------------       
....................       if(Menu==7){ //Menu de Configuracin de Fecha y Hora 
0B026:  MOVF   x60,W
0B028:  SUBLW  07
0B02A:  BTFSS  FD8.2
0B02C:  BRA    B454
....................        
....................          if(RX_Buffer[4]==0x0a){//Selecciono Hora 
0B02E:  MOVF   34,W
0B030:  SUBLW  0A
0B032:  BNZ   B038
....................             Opcion=4; 
0B034:  MOVLW  04
0B036:  MOVWF  x68
....................          } 
....................           
....................          if(RX_Buffer[4]==0x0b){//Selecciono Minuto 
0B038:  MOVF   34,W
0B03A:  SUBLW  0B
0B03C:  BNZ   B042
....................             Opcion=5; 
0B03E:  MOVLW  05
0B040:  MOVWF  x68
....................          } 
....................           
....................          if(RX_Buffer[4]==0x0c){//Selecciono Dia 
0B042:  MOVF   34,W
0B044:  SUBLW  0C
0B046:  BNZ   B04C
....................             Opcion=1; 
0B048:  MOVLW  01
0B04A:  MOVWF  x68
....................          } 
....................           
....................          if(RX_Buffer[4]==0x0d){//Selecciono Hora 
0B04C:  MOVF   34,W
0B04E:  SUBLW  0D
0B050:  BNZ   B056
....................             Opcion=2; 
0B052:  MOVLW  02
0B054:  MOVWF  x68
....................          } 
....................           
....................          if(RX_Buffer[4]==0x0e){//Selecciono Year 
0B056:  MOVF   34,W
0B058:  SUBLW  0E
0B05A:  BNZ   B060
....................             Opcion=3; 
0B05C:  MOVLW  03
0B05E:  MOVWF  x68
....................          } 
....................           
....................          if(RIGHT){ 
0B060:  BSF    F93.2
0B062:  BTFSC  F81.2
0B064:  BRA    B07C
....................             delay_ms(200); 
0B066:  MOVLW  C8
0B068:  MOVLB  4
0B06A:  MOVWF  x58
0B06C:  MOVLB  0
0B06E:  CALL   1A3E
....................             if(RIGHT){ 
0B072:  BSF    F93.2
0B074:  BTFSC  F81.2
0B076:  BRA    B07E
....................                Opcion++; 
0B078:  MOVLB  3
0B07A:  INCF   x68,F
0B07C:  MOVLB  0
....................             } 
....................          } 
....................          if(Opcion>5) 
0B07E:  MOVLB  3
0B080:  MOVF   x68,W
0B082:  SUBLW  05
0B084:  BC    B08A
....................             Opcion=1; 
0B086:  MOVLW  01
0B088:  MOVWF  x68
....................          if(Opcion<1) 
0B08A:  MOVF   x68,F
0B08C:  BNZ   B092
....................             Opcion=5; 
0B08E:  MOVLW  05
0B090:  MOVWF  x68
....................              
....................          if(RX_Buffer[4]==0x11 || LEFT){//Selecciono Regresar 
0B092:  MOVF   34,W
0B094:  SUBLW  11
0B096:  BZ    B09E
0B098:  BSF    F93.3
0B09A:  BTFSC  F81.3
0B09C:  BRA    B1B6
....................             printf("page MenuPrincipal"); 
0B09E:  MOVLW  A0
0B0A0:  MOVWF  FF6
0B0A2:  MOVLW  0E
0B0A4:  MOVWF  FF7
0B0A6:  MOVLW  00
0B0A8:  MOVWF  FF8
0B0AA:  MOVLB  0
0B0AC:  CALL   38F2
....................             SendDataDisplay();   
0B0B0:  CALL   3924
....................             PantallaPrincipal=0; 
0B0B4:  MOVLB  2
0B0B6:  CLRF   xDD
....................             Op=OFF; 
0B0B8:  MOVLB  0
0B0BA:  BCF    xA2.2
....................             Op2=OFF; 
0B0BC:  BCF    xA2.3
....................              
....................             if(esBisiesto(YearTx)) 
0B0BE:  MOVFF  3A9,443
0B0C2:  CALL   4D32
0B0C6:  MOVF   01,F
0B0C8:  BZ    B0E4
....................                Modulo=Bisiesto[MesTx]; 
0B0CA:  CLRF   03
0B0CC:  MOVLB  3
0B0CE:  MOVF   xAA,W
0B0D0:  ADDLW  93
0B0D2:  MOVWF  FE9
0B0D4:  MOVLW  00
0B0D6:  ADDWFC 03,W
0B0D8:  MOVWF  FEA
0B0DA:  MOVFF  FEF,2DF
0B0DE:  MOVLB  2
....................             else 
0B0E0:  BRA    B0FA
0B0E2:  MOVLB  0
....................                Modulo=Regular[MesTx]; 
0B0E4:  CLRF   03
0B0E6:  MOVLB  3
0B0E8:  MOVF   xAA,W
0B0EA:  ADDLW  87
0B0EC:  MOVWF  FE9
0B0EE:  MOVLW  00
0B0F0:  ADDWFC 03,W
0B0F2:  MOVWF  FEA
0B0F4:  MOVFF  FEF,2DF
0B0F8:  MOVLB  2
....................           
....................             dowTx=((YearTx-1)%7+((YearTx-1)/4-3*((YearTx-1)/100+1)/4)%7+Modulo+DiaTx%7)%7; 
0B0FA:  MOVLW  01
0B0FC:  MOVLB  3
0B0FE:  SUBWF  xA9,W
0B100:  MOVLB  4
0B102:  MOVWF  x44
0B104:  MOVWF  x4D
0B106:  MOVLW  07
0B108:  MOVWF  x4E
0B10A:  MOVLB  0
0B10C:  CALL   48B0
0B110:  MOVFF  00,443
0B114:  MOVLW  01
0B116:  MOVLB  3
0B118:  SUBWF  xA9,W
0B11A:  MOVWF  00
0B11C:  RRCF   00,W
0B11E:  MOVLB  4
0B120:  MOVWF  x44
0B122:  RRCF   x44,F
0B124:  MOVLW  3F
0B126:  ANDWF  x44,F
0B128:  MOVLW  01
0B12A:  MOVLB  3
0B12C:  SUBWF  xA9,W
0B12E:  MOVLB  4
0B130:  MOVWF  x46
0B132:  MOVWF  x4D
0B134:  MOVLW  64
0B136:  MOVWF  x4E
0B138:  MOVLB  0
0B13A:  CALL   48B0
0B13E:  MOVLW  01
0B140:  ADDWF  01,W
0B142:  MULLW  03
0B144:  MOVFF  FF3,00
0B148:  RRCF   00,F
0B14A:  RRCF   00,F
0B14C:  MOVLW  3F
0B14E:  ANDWF  00,F
0B150:  MOVF   00,W
0B152:  MOVLB  4
0B154:  SUBWF  x44,W
0B156:  MOVWF  x45
0B158:  MOVWF  x4D
0B15A:  MOVLW  07
0B15C:  MOVWF  x4E
0B15E:  MOVLB  0
0B160:  CALL   48B0
0B164:  MOVF   00,W
0B166:  MOVLB  4
0B168:  ADDWF  x43,W
0B16A:  MOVLB  2
0B16C:  ADDWF  xDF,W
0B16E:  MOVLB  4
0B170:  MOVWF  x43
0B172:  MOVFF  3AB,44D
0B176:  MOVLW  07
0B178:  MOVWF  x4E
0B17A:  MOVLB  0
0B17C:  CALL   48B0
0B180:  MOVF   00,W
0B182:  MOVLB  4
0B184:  ADDWF  x43,W
0B186:  MOVWF  x44
0B188:  MOVWF  x4D
0B18A:  MOVLW  07
0B18C:  MOVWF  x4E
0B18E:  MOVLB  0
0B190:  CALL   48B0
0B194:  MOVFF  00,3AF
....................             rtc_set_datetime(DiaTx,MesTx,YearTx,dowTx,HoraTx,MinutoTx); 
0B198:  MOVFF  3AB,443
0B19C:  MOVFF  3AA,444
0B1A0:  MOVFF  3A9,445
0B1A4:  MOVFF  3AF,446
0B1A8:  MOVFF  3AC,447
0B1AC:  MOVFF  3AD,448
0B1B0:  GOTO   4DB4
0B1B4:  MOVLB  3
....................          } 
....................           
....................          if((RX_Buffer[4]==0x2a)|| UP){//Tecla Arriba Oprimida 
0B1B6:  MOVF   34,W
0B1B8:  SUBLW  2A
0B1BA:  BZ    B1C2
0B1BC:  BSF    F93.0
0B1BE:  BTFSC  F81.0
0B1C0:  BRA    B2C0
....................             delay_ms(200); 
0B1C2:  MOVLW  C8
0B1C4:  MOVLB  4
0B1C6:  MOVWF  x58
0B1C8:  MOVLB  0
0B1CA:  CALL   1A3E
....................             if((RX_Buffer[4]==0x2a)|| UP){    
0B1CE:  MOVF   34,W
0B1D0:  SUBLW  2A
0B1D2:  BZ    B1DA
0B1D4:  BSF    F93.0
0B1D6:  BTFSC  F81.0
0B1D8:  BRA    B2C2
....................                if(Opcion==1){ 
0B1DA:  MOVLB  3
0B1DC:  DECFSZ x68,W
0B1DE:  BRA    B26C
....................                   if(MesTx==2){ 
0B1E0:  MOVF   xAA,W
0B1E2:  SUBLW  02
0B1E4:  BNZ   B21A
....................                      if(esBisiesto(YearTx)){ 
0B1E6:  MOVFF  3A9,443
0B1EA:  MOVLB  0
0B1EC:  CALL   4D32
0B1F0:  MOVF   01,F
0B1F2:  BZ    B208
....................                         if(DiaTx<29) 
0B1F4:  MOVLB  3
0B1F6:  MOVF   xAB,W
0B1F8:  SUBLW  1C
0B1FA:  BNC   B200
....................                            DiaTx++; 
0B1FC:  INCF   xAB,F
....................                         else 
0B1FE:  BRA    B204
....................                            DiaTx=1;    
0B200:  MOVLW  01
0B202:  MOVWF  xAB
....................                      }else{ 
0B204:  BRA    B218
0B206:  MOVLB  0
....................                         if(DiaTx<28) 
0B208:  MOVLB  3
0B20A:  MOVF   xAB,W
0B20C:  SUBLW  1B
0B20E:  BNC   B214
....................                            DiaTx++; 
0B210:  INCF   xAB,F
....................                         else 
0B212:  BRA    B218
....................                            DiaTx=1;    
0B214:  MOVLW  01
0B216:  MOVWF  xAB
....................                      } 
....................                   }else{ 
0B218:  BRA    B26A
....................                      if(MesTx<=7){ 
0B21A:  MOVF   xAA,W
0B21C:  SUBLW  07
0B21E:  BNC   B246
....................                         if(MesTx % 2 ==0){ 
0B220:  MOVF   xAA,W
0B222:  ANDLW  01
0B224:  BNZ   B236
....................                            if(DiaTx<30) 
0B226:  MOVF   xAB,W
0B228:  SUBLW  1D
0B22A:  BNC   B230
....................                               DiaTx++;     
0B22C:  INCF   xAB,F
....................                            else 
0B22E:  BRA    B234
....................                               DiaTx=1;    
0B230:  MOVLW  01
0B232:  MOVWF  xAB
....................                         }else{ 
0B234:  BRA    B244
....................                            if(DiaTx<31) 
0B236:  MOVF   xAB,W
0B238:  SUBLW  1E
0B23A:  BNC   B240
....................                               DiaTx++;     
0B23C:  INCF   xAB,F
....................                            else 
0B23E:  BRA    B244
....................                               DiaTx=1;    
0B240:  MOVLW  01
0B242:  MOVWF  xAB
....................                         }     
....................                      }else{ 
0B244:  BRA    B26A
....................                         if(MesTx % 2 ==0){ 
0B246:  MOVF   xAA,W
0B248:  ANDLW  01
0B24A:  BNZ   B25C
....................                            if(DiaTx<31) 
0B24C:  MOVF   xAB,W
0B24E:  SUBLW  1E
0B250:  BNC   B256
....................                               DiaTx++;   
0B252:  INCF   xAB,F
....................                            else 
0B254:  BRA    B25A
....................                               DiaTx=1; 
0B256:  MOVLW  01
0B258:  MOVWF  xAB
....................                         }else{ 
0B25A:  BRA    B26A
....................                            if(DiaTx<30) 
0B25C:  MOVF   xAB,W
0B25E:  SUBLW  1D
0B260:  BNC   B266
....................                               DiaTx++;     
0B262:  INCF   xAB,F
....................                            else 
0B264:  BRA    B26A
....................                               DiaTx=1; 
0B266:  MOVLW  01
0B268:  MOVWF  xAB
....................                         }     
....................                      } 
....................                   } 
....................                }else if(Opcion==2){ 
0B26A:  BRA    B2BC
0B26C:  MOVF   x68,W
0B26E:  SUBLW  02
0B270:  BNZ   B282
....................                   if(MesTx<12) 
0B272:  MOVF   xAA,W
0B274:  SUBLW  0B
0B276:  BNC   B27C
....................                      MesTx++; 
0B278:  INCF   xAA,F
....................                   else 
0B27A:  BRA    B280
....................                      MesTx=1; 
0B27C:  MOVLW  01
0B27E:  MOVWF  xAA
....................                }else if(Opcion==3){ 
0B280:  BRA    B2BC
0B282:  MOVF   x68,W
0B284:  SUBLW  03
0B286:  BNZ   B296
....................                   if(YearTx<99) 
0B288:  MOVF   xA9,W
0B28A:  SUBLW  62
0B28C:  BNC   B292
....................                      YearTx++; 
0B28E:  INCF   xA9,F
....................                   else  
0B290:  BRA    B294
....................                      YearTx=0; 
0B292:  CLRF   xA9
....................                }else if(Opcion==4){ 
0B294:  BRA    B2BC
0B296:  MOVF   x68,W
0B298:  SUBLW  04
0B29A:  BNZ   B2AA
....................                   if(HoraTx<24) 
0B29C:  MOVF   xAC,W
0B29E:  SUBLW  17
0B2A0:  BNC   B2A6
....................                      HoraTx++; 
0B2A2:  INCF   xAC,F
....................                   else 
0B2A4:  BRA    B2A8
....................                      HoraTx=0; 
0B2A6:  CLRF   xAC
....................                }else if(Opcion==5){ 
0B2A8:  BRA    B2BC
0B2AA:  MOVF   x68,W
0B2AC:  SUBLW  05
0B2AE:  BNZ   B2BC
....................                   if(MinutoTx<59) 
0B2B0:  MOVF   xAD,W
0B2B2:  SUBLW  3A
0B2B4:  BNC   B2BA
....................                      MinutoTx++; 
0B2B6:  INCF   xAD,F
....................                   else 
0B2B8:  BRA    B2BC
....................                      MinutoTx=0; 
0B2BA:  CLRF   xAD
....................                } 
....................                RX_Buffer[4]=0x00; 
0B2BC:  CLRF   34
....................                RX_Buffer2[4]=0x00; 
0B2BE:  CLRF   3F
0B2C0:  MOVLB  0
....................             } 
....................          } 
....................           
....................          if(RX_Buffer[4]==0x2b || DOWN){//Tecla Abajo Oprimida 
0B2C2:  MOVF   34,W
0B2C4:  SUBLW  2B
0B2C6:  BZ    B2CE
0B2C8:  BSF    F93.1
0B2CA:  BTFSC  F81.1
0B2CC:  BRA    B34A
....................             delay_ms(200); 
0B2CE:  MOVLW  C8
0B2D0:  MOVLB  4
0B2D2:  MOVWF  x58
0B2D4:  MOVLB  0
0B2D6:  CALL   1A3E
....................             if(RX_Buffer[4]==0x2b || DOWN){    
0B2DA:  MOVF   34,W
0B2DC:  SUBLW  2B
0B2DE:  BZ    B2E6
0B2E0:  BSF    F93.1
0B2E2:  BTFSC  F81.1
0B2E4:  BRA    B34A
....................                if(Opcion==1){ 
0B2E6:  MOVLB  3
0B2E8:  DECFSZ x68,W
0B2EA:  BRA    B2F4
....................                   if(DiaTx>0) 
0B2EC:  MOVF   xAB,F
0B2EE:  BZ    B2F2
....................                      DiaTx--; 
0B2F0:  DECF   xAB,F
....................                }else if(Opcion==2){ 
0B2F2:  BRA    B344
0B2F4:  MOVF   x68,W
0B2F6:  SUBLW  02
0B2F8:  BNZ   B30A
....................                   if(MesTx>1) 
0B2FA:  MOVF   xAA,W
0B2FC:  SUBLW  01
0B2FE:  BC    B304
....................                      MesTx--; 
0B300:  DECF   xAA,F
....................                   else 
0B302:  BRA    B308
....................                      MesTx=12; 
0B304:  MOVLW  0C
0B306:  MOVWF  xAA
....................                }else if(Opcion==3){ 
0B308:  BRA    B344
0B30A:  MOVF   x68,W
0B30C:  SUBLW  03
0B30E:  BNZ   B31E
....................                   if(YearTx>0) 
0B310:  MOVF   xA9,F
0B312:  BZ    B318
....................                      YearTx--; 
0B314:  DECF   xA9,F
....................                   else 
0B316:  BRA    B31C
....................                      YearTx=99; 
0B318:  MOVLW  63
0B31A:  MOVWF  xA9
....................                }else if(Opcion==4){ 
0B31C:  BRA    B344
0B31E:  MOVF   x68,W
0B320:  SUBLW  04
0B322:  BNZ   B332
....................                   if(HoraTx>0) 
0B324:  MOVF   xAC,F
0B326:  BZ    B32C
....................                      HoraTx--; 
0B328:  DECF   xAC,F
....................                   else 
0B32A:  BRA    B330
....................                      HoraTx=23; 
0B32C:  MOVLW  17
0B32E:  MOVWF  xAC
....................                }else if(Opcion==5){ 
0B330:  BRA    B344
0B332:  MOVF   x68,W
0B334:  SUBLW  05
0B336:  BNZ   B344
....................                   if(MinutoTx>0) 
0B338:  MOVF   xAD,F
0B33A:  BZ    B340
....................                      MinutoTx--; 
0B33C:  DECF   xAD,F
....................                   else 
0B33E:  BRA    B344
....................                      MinutoTx=59; 
0B340:  MOVLW  3B
0B342:  MOVWF  xAD
....................                } 
....................                RX_Buffer[4]=0x00; 
0B344:  CLRF   34
....................                RX_Buffer2[4]=0x00; 
0B346:  CLRF   3F
0B348:  MOVLB  0
....................             } 
....................          } 
....................        
....................       printf("thora.txt=\"%02u\"",HoraTx); 
0B34A:  MOVLW  B4
0B34C:  MOVWF  FF6
0B34E:  MOVLW  0E
0B350:  MOVWF  FF7
0B352:  MOVLW  00
0B354:  MOVWF  FF8
0B356:  MOVLW  0B
0B358:  MOVLB  4
0B35A:  MOVWF  x48
0B35C:  MOVLB  0
0B35E:  CALL   487E
0B362:  MOVFF  3AC,448
0B366:  MOVLW  01
0B368:  MOVLB  4
0B36A:  MOVWF  x49
0B36C:  MOVLB  0
0B36E:  CALL   48DC
0B372:  MOVLW  22
0B374:  BTFSS  F9E.4
0B376:  BRA    B374
0B378:  MOVWF  FAD
....................       SendDataDisplay(); 
0B37A:  CALL   3924
....................       printf("tminutos.txt=\"%02u\"",MinutoTx); 
0B37E:  MOVLW  C6
0B380:  MOVWF  FF6
0B382:  MOVLW  0E
0B384:  MOVWF  FF7
0B386:  MOVLW  00
0B388:  MOVWF  FF8
0B38A:  MOVLW  0E
0B38C:  MOVLB  4
0B38E:  MOVWF  x48
0B390:  MOVLB  0
0B392:  CALL   487E
0B396:  MOVFF  3AD,448
0B39A:  MOVLW  01
0B39C:  MOVLB  4
0B39E:  MOVWF  x49
0B3A0:  MOVLB  0
0B3A2:  CALL   48DC
0B3A6:  MOVLW  22
0B3A8:  BTFSS  F9E.4
0B3AA:  BRA    B3A8
0B3AC:  MOVWF  FAD
....................       SendDataDisplay(); 
0B3AE:  CALL   3924
....................       printf("tdia.txt=\"%02u\"",DiaTx); 
0B3B2:  MOVLW  DA
0B3B4:  MOVWF  FF6
0B3B6:  MOVLW  0E
0B3B8:  MOVWF  FF7
0B3BA:  MOVLW  00
0B3BC:  MOVWF  FF8
0B3BE:  MOVLW  0A
0B3C0:  MOVLB  4
0B3C2:  MOVWF  x48
0B3C4:  MOVLB  0
0B3C6:  CALL   487E
0B3CA:  MOVFF  3AB,448
0B3CE:  MOVLW  01
0B3D0:  MOVLB  4
0B3D2:  MOVWF  x49
0B3D4:  MOVLB  0
0B3D6:  CALL   48DC
0B3DA:  MOVLW  22
0B3DC:  BTFSS  F9E.4
0B3DE:  BRA    B3DC
0B3E0:  MOVWF  FAD
....................       SendDataDisplay(); 
0B3E2:  CALL   3924
....................       printf("tmes.txt=\"%02u\"",MesTx); 
0B3E6:  MOVLW  EA
0B3E8:  MOVWF  FF6
0B3EA:  MOVLW  0E
0B3EC:  MOVWF  FF7
0B3EE:  MOVLW  00
0B3F0:  MOVWF  FF8
0B3F2:  MOVLW  0A
0B3F4:  MOVLB  4
0B3F6:  MOVWF  x48
0B3F8:  MOVLB  0
0B3FA:  CALL   487E
0B3FE:  MOVFF  3AA,448
0B402:  MOVLW  01
0B404:  MOVLB  4
0B406:  MOVWF  x49
0B408:  MOVLB  0
0B40A:  CALL   48DC
0B40E:  MOVLW  22
0B410:  BTFSS  F9E.4
0B412:  BRA    B410
0B414:  MOVWF  FAD
....................       SendDataDisplay(); 
0B416:  CALL   3924
....................       printf("tyear.txt=\"%02u\"",YearTx); 
0B41A:  MOVLW  FA
0B41C:  MOVWF  FF6
0B41E:  MOVLW  0E
0B420:  MOVWF  FF7
0B422:  MOVLW  00
0B424:  MOVWF  FF8
0B426:  MOVLW  0B
0B428:  MOVLB  4
0B42A:  MOVWF  x48
0B42C:  MOVLB  0
0B42E:  CALL   487E
0B432:  MOVFF  3A9,448
0B436:  MOVLW  01
0B438:  MOVLB  4
0B43A:  MOVWF  x49
0B43C:  MOVLB  0
0B43E:  CALL   48DC
0B442:  MOVLW  22
0B444:  BTFSS  F9E.4
0B446:  BRA    B444
0B448:  MOVWF  FAD
....................       SendDataDisplay(); 
0B44A:  CALL   3924
....................       LimitaDia();   
0B44E:  GOTO   4E70
0B452:  MOVLB  3
....................     } 
.................... //_--------------------------------------------------------------------------------------------------------------------------------------------------------        
....................  
.................... //_-------------------------------------------------------------------------------------------------------------------------------------------------------- 
....................    if(Menu==8){ //Menu Ciclos Personalizados 
0B454:  MOVF   x60,W
0B456:  SUBLW  08
0B458:  BTFSS  FD8.2
0B45A:  GOTO   C2B6
....................       printf("fecha.txt=\"T:%3.1fC Fecha:%02u/%02u/20%02u Hora: %02u:%02u:%02u\"",Temperatura,Dia,Mes,Year,Hora,Minuto,Segundo); 
0B45E:  MOVLW  0C
0B460:  MOVWF  FF6
0B462:  MOVLW  0F
0B464:  MOVWF  FF7
0B466:  MOVLW  00
0B468:  MOVWF  FF8
0B46A:  MOVLW  0D
0B46C:  MOVLB  4
0B46E:  MOVWF  x48
0B470:  MOVLB  0
0B472:  CALL   487E
0B476:  MOVLW  02
0B478:  MOVWF  FE9
0B47A:  MOVFF  32B,44B
0B47E:  MOVFF  32A,44A
0B482:  MOVFF  329,449
0B486:  MOVFF  328,448
0B48A:  MOVLW  01
0B48C:  MOVLB  4
0B48E:  MOVWF  x4C
0B490:  MOVLB  0
0B492:  CALL   4A1E
0B496:  MOVLW  1E
0B498:  MOVWF  FF6
0B49A:  MOVLW  0F
0B49C:  MOVWF  FF7
0B49E:  MOVLW  00
0B4A0:  MOVWF  FF8
0B4A2:  MOVLW  09
0B4A4:  MOVLB  4
0B4A6:  MOVWF  x48
0B4A8:  MOVLB  0
0B4AA:  CALL   487E
0B4AE:  MOVFF  3A4,448
0B4B2:  MOVLW  01
0B4B4:  MOVLB  4
0B4B6:  MOVWF  x49
0B4B8:  MOVLB  0
0B4BA:  CALL   48DC
0B4BE:  MOVLW  2F
0B4C0:  BTFSS  F9E.4
0B4C2:  BRA    B4C0
0B4C4:  MOVWF  FAD
0B4C6:  MOVFF  3A3,448
0B4CA:  MOVLW  01
0B4CC:  MOVLB  4
0B4CE:  MOVWF  x49
0B4D0:  MOVLB  0
0B4D2:  CALL   48DC
0B4D6:  MOVLW  2F
0B4D8:  BTFSS  F9E.4
0B4DA:  BRA    B4D8
0B4DC:  MOVWF  FAD
0B4DE:  MOVLW  32
0B4E0:  BTFSS  F9E.4
0B4E2:  BRA    B4E0
0B4E4:  MOVWF  FAD
0B4E6:  MOVLW  30
0B4E8:  BTFSS  F9E.4
0B4EA:  BRA    B4E8
0B4EC:  MOVWF  FAD
0B4EE:  MOVFF  3A2,448
0B4F2:  MOVLW  01
0B4F4:  MOVLB  4
0B4F6:  MOVWF  x49
0B4F8:  MOVLB  0
0B4FA:  CALL   48DC
0B4FE:  MOVLW  37
0B500:  MOVWF  FF6
0B502:  MOVLW  0F
0B504:  MOVWF  FF7
0B506:  MOVLW  00
0B508:  MOVWF  FF8
0B50A:  MOVLW  07
0B50C:  MOVLB  4
0B50E:  MOVWF  x48
0B510:  MOVLB  0
0B512:  CALL   487E
0B516:  MOVFF  3A5,448
0B51A:  MOVLW  01
0B51C:  MOVLB  4
0B51E:  MOVWF  x49
0B520:  MOVLB  0
0B522:  CALL   48DC
0B526:  MOVLW  3A
0B528:  BTFSS  F9E.4
0B52A:  BRA    B528
0B52C:  MOVWF  FAD
0B52E:  MOVFF  3A6,448
0B532:  MOVLW  01
0B534:  MOVLB  4
0B536:  MOVWF  x49
0B538:  MOVLB  0
0B53A:  CALL   48DC
0B53E:  MOVLW  3A
0B540:  BTFSS  F9E.4
0B542:  BRA    B540
0B544:  MOVWF  FAD
0B546:  MOVFF  3A7,448
0B54A:  MOVLW  01
0B54C:  MOVLB  4
0B54E:  MOVWF  x49
0B550:  MOVLB  0
0B552:  CALL   48DC
0B556:  MOVLW  22
0B558:  BTFSS  F9E.4
0B55A:  BRA    B558
0B55C:  MOVWF  FAD
....................       SendDataDisplay(); 
0B55E:  CALL   3924
....................       GuardaEEPROM=OFF; 
0B562:  BCF    xA2.6
....................        
....................       if(RX_Buffer[4]>0x00 && RX_Buffer[4]<0x04){//Personalizados 
0B564:  MOVF   34,F
0B566:  BTFSC  FD8.2
0B568:  BRA    B796
0B56A:  MOVF   34,W
0B56C:  SUBLW  03
0B56E:  BTFSS  FD8.0
0B570:  BRA    B796
....................          printf("ciclo.txt=\"CICLO P%02u\"",RX_Buffer[4]+0x04); 
0B572:  MOVLW  04
0B574:  ADDWF  34,W
0B576:  MOVLB  4
0B578:  MOVWF  x43
0B57A:  MOVLW  4E
0B57C:  MOVWF  FF6
0B57E:  MOVLW  0F
0B580:  MOVWF  FF7
0B582:  MOVLW  00
0B584:  MOVWF  FF8
0B586:  MOVLW  12
0B588:  MOVWF  x48
0B58A:  MOVLB  0
0B58C:  CALL   487E
0B590:  MOVFF  443,448
0B594:  MOVLW  01
0B596:  MOVLB  4
0B598:  MOVWF  x49
0B59A:  MOVLB  0
0B59C:  CALL   48DC
0B5A0:  MOVLW  22
0B5A2:  BTFSS  F9E.4
0B5A4:  BRA    B5A2
0B5A6:  MOVWF  FAD
....................          SendDataDisplay();           
0B5A8:  CALL   3924
....................          printf("temp.txt=\"%u\"",CiclosPersonalizados[RX_Buffer[4]-1].Temperatura); 
0B5AC:  MOVLW  01
0B5AE:  SUBWF  34,W
0B5B0:  MULLW  0A
0B5B2:  MOVF   FF3,W
0B5B4:  MOVLB  4
0B5B6:  CLRF   x44
0B5B8:  MOVWF  x43
0B5BA:  MOVLW  1B
0B5BC:  ADDWF  x43,W
0B5BE:  MOVWF  FE9
0B5C0:  MOVLW  04
0B5C2:  ADDWFC x44,W
0B5C4:  MOVWF  FEA
0B5C6:  MOVFF  FEF,443
0B5CA:  MOVLW  66
0B5CC:  MOVWF  FF6
0B5CE:  MOVLW  0F
0B5D0:  MOVWF  FF7
0B5D2:  MOVLW  00
0B5D4:  MOVWF  FF8
0B5D6:  MOVLW  0A
0B5D8:  MOVWF  x48
0B5DA:  MOVLB  0
0B5DC:  CALL   487E
0B5E0:  MOVFF  443,448
0B5E4:  MOVLW  1B
0B5E6:  MOVLB  4
0B5E8:  MOVWF  x49
0B5EA:  MOVLB  0
0B5EC:  CALL   48DC
0B5F0:  MOVLW  22
0B5F2:  BTFSS  F9E.4
0B5F4:  BRA    B5F2
0B5F6:  MOVWF  FAD
....................          SendDataDisplay(); 
0B5F8:  CALL   3924
....................          printf("test.txt=\"%02u:%02u\"",CiclosPersonalizados[RX_Buffer[4]-1].Minutoest,CiclosPersonalizados[RX_Buffer[4]-1].Segundoest); 
0B5FC:  MOVLW  01
0B5FE:  SUBWF  34,W
0B600:  MULLW  0A
0B602:  MOVF   FF3,W
0B604:  MOVLB  4
0B606:  CLRF   x44
0B608:  MOVWF  x43
0B60A:  MOVLW  09
0B60C:  ADDWF  x43,W
0B60E:  MOVWF  01
0B610:  MOVLW  00
0B612:  ADDWFC x44,W
0B614:  MOVWF  03
0B616:  MOVF   01,W
0B618:  ADDLW  1B
0B61A:  MOVWF  FE9
0B61C:  MOVLW  04
0B61E:  ADDWFC 03,W
0B620:  MOVWF  FEA
0B622:  MOVFF  FEF,443
0B626:  MOVLW  01
0B628:  SUBWF  34,W
0B62A:  MULLW  0A
0B62C:  MOVF   FF3,W
0B62E:  CLRF   x45
0B630:  MOVWF  x44
0B632:  MOVLW  03
0B634:  ADDWF  x44,W
0B636:  MOVWF  01
0B638:  MOVLW  00
0B63A:  ADDWFC x45,W
0B63C:  MOVWF  03
0B63E:  MOVF   01,W
0B640:  ADDLW  1B
0B642:  MOVWF  FE9
0B644:  MOVLW  04
0B646:  ADDWFC 03,W
0B648:  MOVWF  FEA
0B64A:  MOVFF  FEF,444
0B64E:  MOVLW  74
0B650:  MOVWF  FF6
0B652:  MOVLW  0F
0B654:  MOVWF  FF7
0B656:  MOVLW  00
0B658:  MOVWF  FF8
0B65A:  MOVLW  0A
0B65C:  MOVWF  x48
0B65E:  MOVLB  0
0B660:  CALL   487E
0B664:  MOVFF  443,448
0B668:  MOVLW  01
0B66A:  MOVLB  4
0B66C:  MOVWF  x49
0B66E:  MOVLB  0
0B670:  CALL   48DC
0B674:  MOVLW  3A
0B676:  BTFSS  F9E.4
0B678:  BRA    B676
0B67A:  MOVWF  FAD
0B67C:  MOVFF  444,448
0B680:  MOVLW  01
0B682:  MOVLB  4
0B684:  MOVWF  x49
0B686:  MOVLB  0
0B688:  CALL   48DC
0B68C:  MOVLW  22
0B68E:  BTFSS  F9E.4
0B690:  BRA    B68E
0B692:  MOVWF  FAD
....................          SendDataDisplay(); 
0B694:  CALL   3924
....................          printf("tsec.txt=\"%02u:%02u\"",CiclosPersonalizados[RX_Buffer[4]-1].Minutosec,CiclosPersonalizados[RX_Buffer[4]-1].Segundosec); 
0B698:  MOVLW  01
0B69A:  SUBWF  34,W
0B69C:  MULLW  0A
0B69E:  MOVF   FF3,W
0B6A0:  MOVLB  4
0B6A2:  CLRF   x44
0B6A4:  MOVWF  x43
0B6A6:  MOVLW  04
0B6A8:  ADDWF  x43,W
0B6AA:  MOVWF  01
0B6AC:  MOVLW  00
0B6AE:  ADDWFC x44,W
0B6B0:  MOVWF  03
0B6B2:  MOVF   01,W
0B6B4:  ADDLW  1B
0B6B6:  MOVWF  FE9
0B6B8:  MOVLW  04
0B6BA:  ADDWFC 03,W
0B6BC:  MOVWF  FEA
0B6BE:  MOVFF  FEF,443
0B6C2:  MOVLW  01
0B6C4:  SUBWF  34,W
0B6C6:  MULLW  0A
0B6C8:  MOVF   FF3,W
0B6CA:  CLRF   x45
0B6CC:  MOVWF  x44
0B6CE:  MOVLW  05
0B6D0:  ADDWF  x44,W
0B6D2:  MOVWF  01
0B6D4:  MOVLW  00
0B6D6:  ADDWFC x45,W
0B6D8:  MOVWF  03
0B6DA:  MOVF   01,W
0B6DC:  ADDLW  1B
0B6DE:  MOVWF  FE9
0B6E0:  MOVLW  04
0B6E2:  ADDWFC 03,W
0B6E4:  MOVWF  FEA
0B6E6:  MOVFF  FEF,444
0B6EA:  MOVLW  8A
0B6EC:  MOVWF  FF6
0B6EE:  MOVLW  0F
0B6F0:  MOVWF  FF7
0B6F2:  MOVLW  00
0B6F4:  MOVWF  FF8
0B6F6:  MOVLW  0A
0B6F8:  MOVWF  x48
0B6FA:  MOVLB  0
0B6FC:  CALL   487E
0B700:  MOVFF  443,448
0B704:  MOVLW  01
0B706:  MOVLB  4
0B708:  MOVWF  x49
0B70A:  MOVLB  0
0B70C:  CALL   48DC
0B710:  MOVLW  3A
0B712:  BTFSS  F9E.4
0B714:  BRA    B712
0B716:  MOVWF  FAD
0B718:  MOVFF  444,448
0B71C:  MOVLW  01
0B71E:  MOVLB  4
0B720:  MOVWF  x49
0B722:  MOVLB  0
0B724:  CALL   48DC
0B728:  MOVLW  22
0B72A:  BTFSS  F9E.4
0B72C:  BRA    B72A
0B72E:  MOVWF  FAD
....................          SendDataDisplay(); 
0B730:  CALL   3924
....................          printf("desfogue.txt=\"%u\"",CiclosPersonalizados[RX_Buffer[4]-1].NivelDesfogue); 
0B734:  MOVLW  01
0B736:  SUBWF  34,W
0B738:  MULLW  0A
0B73A:  MOVF   FF3,W
0B73C:  MOVLB  4
0B73E:  CLRF   x44
0B740:  MOVWF  x43
0B742:  MOVLW  08
0B744:  ADDWF  x43,W
0B746:  MOVWF  01
0B748:  MOVLW  00
0B74A:  ADDWFC x44,W
0B74C:  MOVWF  03
0B74E:  MOVF   01,W
0B750:  ADDLW  1B
0B752:  MOVWF  FE9
0B754:  MOVLW  04
0B756:  ADDWFC 03,W
0B758:  MOVWF  FEA
0B75A:  MOVFF  FEF,443
0B75E:  MOVLW  A0
0B760:  MOVWF  FF6
0B762:  MOVLW  0F
0B764:  MOVWF  FF7
0B766:  MOVLW  00
0B768:  MOVWF  FF8
0B76A:  MOVLW  0E
0B76C:  MOVWF  x48
0B76E:  MOVLB  0
0B770:  CALL   487E
0B774:  MOVFF  443,448
0B778:  MOVLW  1B
0B77A:  MOVLB  4
0B77C:  MOVWF  x49
0B77E:  MOVLB  0
0B780:  CALL   48DC
0B784:  MOVLW  22
0B786:  BTFSS  F9E.4
0B788:  BRA    B786
0B78A:  MOVWF  FAD
....................          SendDataDisplay(); 
0B78C:  CALL   3924
....................          CicloLibre=RX_Buffer[4]; 
0B790:  MOVFF  34,33E
....................       }else if(CicloLibre==0x00){ 
0B794:  BRA    BA42
0B796:  MOVLB  3
0B798:  MOVF   x3E,F
0B79A:  BNZ   B806
....................          printf("ciclo.txt=\"CICLO P--\""); 
0B79C:  MOVLW  B2
0B79E:  MOVWF  FF6
0B7A0:  MOVLW  0F
0B7A2:  MOVWF  FF7
0B7A4:  MOVLW  00
0B7A6:  MOVWF  FF8
0B7A8:  MOVLB  0
0B7AA:  CALL   38F2
....................          SendDataDisplay();           
0B7AE:  CALL   3924
....................          printf("temp.txt=\"--\""); 
0B7B2:  MOVLW  C8
0B7B4:  MOVWF  FF6
0B7B6:  MOVLW  0F
0B7B8:  MOVWF  FF7
0B7BA:  MOVLW  00
0B7BC:  MOVWF  FF8
0B7BE:  CALL   38F2
....................          SendDataDisplay(); 
0B7C2:  CALL   3924
....................          printf("test.txt=\"--:--\""); 
0B7C6:  MOVLW  D6
0B7C8:  MOVWF  FF6
0B7CA:  MOVLW  0F
0B7CC:  MOVWF  FF7
0B7CE:  MOVLW  00
0B7D0:  MOVWF  FF8
0B7D2:  CALL   38F2
....................          SendDataDisplay(); 
0B7D6:  CALL   3924
....................          printf("tsec.txt=\"--:--\""); 
0B7DA:  MOVLW  E8
0B7DC:  MOVWF  FF6
0B7DE:  MOVLW  0F
0B7E0:  MOVWF  FF7
0B7E2:  MOVLW  00
0B7E4:  MOVWF  FF8
0B7E6:  CALL   38F2
....................          SendDataDisplay(); 
0B7EA:  CALL   3924
....................          printf("desfogue.txt=\"--\""); 
0B7EE:  MOVLW  FA
0B7F0:  MOVWF  FF6
0B7F2:  MOVLW  0F
0B7F4:  MOVWF  FF7
0B7F6:  MOVLW  00
0B7F8:  MOVWF  FF8
0B7FA:  CALL   38F2
....................          SendDataDisplay(); 
0B7FE:  CALL   3924
....................       }else if(CicloLibre>0 && CicloLibre<4){ 
0B802:  BRA    BA42
0B804:  MOVLB  3
0B806:  MOVF   x3E,F
0B808:  BTFSC  FD8.2
0B80A:  BRA    BA44
0B80C:  MOVF   x3E,W
0B80E:  SUBLW  03
0B810:  BTFSS  FD8.0
0B812:  BRA    BA44
....................          printf("ciclo.txt=\"CICLO P%02u\"",CicloLibre+0x04); 
0B814:  MOVLW  04
0B816:  ADDWF  x3E,W
0B818:  MOVLB  4
0B81A:  MOVWF  x43
0B81C:  MOVLW  0C
0B81E:  MOVWF  FF6
0B820:  MOVLW  10
0B822:  MOVWF  FF7
0B824:  MOVLW  00
0B826:  MOVWF  FF8
0B828:  MOVLW  12
0B82A:  MOVWF  x48
0B82C:  MOVLB  0
0B82E:  CALL   487E
0B832:  MOVFF  443,448
0B836:  MOVLW  01
0B838:  MOVLB  4
0B83A:  MOVWF  x49
0B83C:  MOVLB  0
0B83E:  CALL   48DC
0B842:  MOVLW  22
0B844:  BTFSS  F9E.4
0B846:  BRA    B844
0B848:  MOVWF  FAD
....................          SendDataDisplay();           
0B84A:  CALL   3924
....................          printf("temp.txt=\"%u\"",CiclosPersonalizados[CicloLibre-1].Temperatura); 
0B84E:  MOVLW  01
0B850:  MOVLB  3
0B852:  SUBWF  x3E,W
0B854:  MULLW  0A
0B856:  MOVF   FF3,W
0B858:  MOVLB  4
0B85A:  CLRF   x44
0B85C:  MOVWF  x43
0B85E:  MOVLW  1B
0B860:  ADDWF  x43,W
0B862:  MOVWF  FE9
0B864:  MOVLW  04
0B866:  ADDWFC x44,W
0B868:  MOVWF  FEA
0B86A:  MOVFF  FEF,443
0B86E:  MOVLW  24
0B870:  MOVWF  FF6
0B872:  MOVLW  10
0B874:  MOVWF  FF7
0B876:  MOVLW  00
0B878:  MOVWF  FF8
0B87A:  MOVLW  0A
0B87C:  MOVWF  x48
0B87E:  MOVLB  0
0B880:  CALL   487E
0B884:  MOVFF  443,448
0B888:  MOVLW  1B
0B88A:  MOVLB  4
0B88C:  MOVWF  x49
0B88E:  MOVLB  0
0B890:  CALL   48DC
0B894:  MOVLW  22
0B896:  BTFSS  F9E.4
0B898:  BRA    B896
0B89A:  MOVWF  FAD
....................          SendDataDisplay(); 
0B89C:  CALL   3924
....................          printf("test.txt=\"%02u:%02u\"",CiclosPersonalizados[CicloLibre-1].Minutoest,CiclosPersonalizados[CicloLibre-1].Segundoest); 
0B8A0:  MOVLW  01
0B8A2:  MOVLB  3
0B8A4:  SUBWF  x3E,W
0B8A6:  MULLW  0A
0B8A8:  MOVF   FF3,W
0B8AA:  MOVLB  4
0B8AC:  CLRF   x44
0B8AE:  MOVWF  x43
0B8B0:  MOVLW  09
0B8B2:  ADDWF  x43,W
0B8B4:  MOVWF  01
0B8B6:  MOVLW  00
0B8B8:  ADDWFC x44,W
0B8BA:  MOVWF  03
0B8BC:  MOVF   01,W
0B8BE:  ADDLW  1B
0B8C0:  MOVWF  FE9
0B8C2:  MOVLW  04
0B8C4:  ADDWFC 03,W
0B8C6:  MOVWF  FEA
0B8C8:  MOVFF  FEF,443
0B8CC:  MOVLW  01
0B8CE:  MOVLB  3
0B8D0:  SUBWF  x3E,W
0B8D2:  MULLW  0A
0B8D4:  MOVF   FF3,W
0B8D6:  MOVLB  4
0B8D8:  CLRF   x45
0B8DA:  MOVWF  x44
0B8DC:  MOVLW  03
0B8DE:  ADDWF  x44,W
0B8E0:  MOVWF  01
0B8E2:  MOVLW  00
0B8E4:  ADDWFC x45,W
0B8E6:  MOVWF  03
0B8E8:  MOVF   01,W
0B8EA:  ADDLW  1B
0B8EC:  MOVWF  FE9
0B8EE:  MOVLW  04
0B8F0:  ADDWFC 03,W
0B8F2:  MOVWF  FEA
0B8F4:  MOVFF  FEF,444
0B8F8:  MOVLW  32
0B8FA:  MOVWF  FF6
0B8FC:  MOVLW  10
0B8FE:  MOVWF  FF7
0B900:  MOVLW  00
0B902:  MOVWF  FF8
0B904:  MOVLW  0A
0B906:  MOVWF  x48
0B908:  MOVLB  0
0B90A:  CALL   487E
0B90E:  MOVFF  443,448
0B912:  MOVLW  01
0B914:  MOVLB  4
0B916:  MOVWF  x49
0B918:  MOVLB  0
0B91A:  CALL   48DC
0B91E:  MOVLW  3A
0B920:  BTFSS  F9E.4
0B922:  BRA    B920
0B924:  MOVWF  FAD
0B926:  MOVFF  444,448
0B92A:  MOVLW  01
0B92C:  MOVLB  4
0B92E:  MOVWF  x49
0B930:  MOVLB  0
0B932:  CALL   48DC
0B936:  MOVLW  22
0B938:  BTFSS  F9E.4
0B93A:  BRA    B938
0B93C:  MOVWF  FAD
....................          SendDataDisplay(); 
0B93E:  CALL   3924
....................          printf("tsec.txt=\"%02u:%02u\"",CiclosPersonalizados[CicloLibre-1].Minutosec,CiclosPersonalizados[CicloLibre-1].Segundosec); 
0B942:  MOVLW  01
0B944:  MOVLB  3
0B946:  SUBWF  x3E,W
0B948:  MULLW  0A
0B94A:  MOVF   FF3,W
0B94C:  MOVLB  4
0B94E:  CLRF   x44
0B950:  MOVWF  x43
0B952:  MOVLW  04
0B954:  ADDWF  x43,W
0B956:  MOVWF  01
0B958:  MOVLW  00
0B95A:  ADDWFC x44,W
0B95C:  MOVWF  03
0B95E:  MOVF   01,W
0B960:  ADDLW  1B
0B962:  MOVWF  FE9
0B964:  MOVLW  04
0B966:  ADDWFC 03,W
0B968:  MOVWF  FEA
0B96A:  MOVFF  FEF,443
0B96E:  MOVLW  01
0B970:  MOVLB  3
0B972:  SUBWF  x3E,W
0B974:  MULLW  0A
0B976:  MOVF   FF3,W
0B978:  MOVLB  4
0B97A:  CLRF   x45
0B97C:  MOVWF  x44
0B97E:  MOVLW  05
0B980:  ADDWF  x44,W
0B982:  MOVWF  01
0B984:  MOVLW  00
0B986:  ADDWFC x45,W
0B988:  MOVWF  03
0B98A:  MOVF   01,W
0B98C:  ADDLW  1B
0B98E:  MOVWF  FE9
0B990:  MOVLW  04
0B992:  ADDWFC 03,W
0B994:  MOVWF  FEA
0B996:  MOVFF  FEF,444
0B99A:  MOVLW  48
0B99C:  MOVWF  FF6
0B99E:  MOVLW  10
0B9A0:  MOVWF  FF7
0B9A2:  MOVLW  00
0B9A4:  MOVWF  FF8
0B9A6:  MOVLW  0A
0B9A8:  MOVWF  x48
0B9AA:  MOVLB  0
0B9AC:  CALL   487E
0B9B0:  MOVFF  443,448
0B9B4:  MOVLW  01
0B9B6:  MOVLB  4
0B9B8:  MOVWF  x49
0B9BA:  MOVLB  0
0B9BC:  CALL   48DC
0B9C0:  MOVLW  3A
0B9C2:  BTFSS  F9E.4
0B9C4:  BRA    B9C2
0B9C6:  MOVWF  FAD
0B9C8:  MOVFF  444,448
0B9CC:  MOVLW  01
0B9CE:  MOVLB  4
0B9D0:  MOVWF  x49
0B9D2:  MOVLB  0
0B9D4:  CALL   48DC
0B9D8:  MOVLW  22
0B9DA:  BTFSS  F9E.4
0B9DC:  BRA    B9DA
0B9DE:  MOVWF  FAD
....................          SendDataDisplay(); 
0B9E0:  CALL   3924
....................          printf("desfogue.txt=\"%u\"",CiclosPersonalizados[CicloLibre-1].NivelDesfogue); 
0B9E4:  MOVLW  01
0B9E6:  MOVLB  3
0B9E8:  SUBWF  x3E,W
0B9EA:  MULLW  0A
0B9EC:  MOVF   FF3,W
0B9EE:  MOVLB  4
0B9F0:  CLRF   x44
0B9F2:  MOVWF  x43
0B9F4:  MOVLW  08
0B9F6:  ADDWF  x43,W
0B9F8:  MOVWF  01
0B9FA:  MOVLW  00
0B9FC:  ADDWFC x44,W
0B9FE:  MOVWF  03
0BA00:  MOVF   01,W
0BA02:  ADDLW  1B
0BA04:  MOVWF  FE9
0BA06:  MOVLW  04
0BA08:  ADDWFC 03,W
0BA0A:  MOVWF  FEA
0BA0C:  MOVFF  FEF,443
0BA10:  MOVLW  5E
0BA12:  MOVWF  FF6
0BA14:  MOVLW  10
0BA16:  MOVWF  FF7
0BA18:  MOVLW  00
0BA1A:  MOVWF  FF8
0BA1C:  MOVLW  0E
0BA1E:  MOVWF  x48
0BA20:  MOVLB  0
0BA22:  CALL   487E
0BA26:  MOVFF  443,448
0BA2A:  MOVLW  1B
0BA2C:  MOVLB  4
0BA2E:  MOVWF  x49
0BA30:  MOVLB  0
0BA32:  CALL   48DC
0BA36:  MOVLW  22
0BA38:  BTFSS  F9E.4
0BA3A:  BRA    BA38
0BA3C:  MOVWF  FAD
....................          SendDataDisplay(); 
0BA3E:  CALL   3924
0BA42:  MOVLB  3
....................       } 
....................        
....................       if(RIGHT){ 
0BA44:  BSF    F93.2
0BA46:  BTFSC  F81.2
0BA48:  BRA    BA60
....................          delay_ms(100); 
0BA4A:  MOVLW  64
0BA4C:  MOVLB  4
0BA4E:  MOVWF  x58
0BA50:  MOVLB  0
0BA52:  CALL   1A3E
....................          if(RIGHT){ 
0BA56:  BSF    F93.2
0BA58:  BTFSC  F81.2
0BA5A:  BRA    BA62
....................             CicloLibre++; 
0BA5C:  MOVLB  3
0BA5E:  INCF   x3E,F
0BA60:  MOVLB  0
....................          } 
....................       }       
....................        
....................       if(CicloLibre<1) 
0BA62:  MOVLB  3
0BA64:  MOVF   x3E,F
0BA66:  BNZ   BA6C
....................          CicloLibre=1; 
0BA68:  MOVLW  01
0BA6A:  MOVWF  x3E
....................       if(CicloLibre>4) 
0BA6C:  MOVF   x3E,W
0BA6E:  SUBLW  04
0BA70:  BC    BA76
....................          CicloLibre=4; 
0BA72:  MOVLW  04
0BA74:  MOVWF  x3E
....................        
....................       if(RX_Buffer[4]==0xa0 || LEFT){//a0, Menu Principal 
0BA76:  MOVF   34,W
0BA78:  SUBLW  A0
0BA7A:  BZ    BA82
0BA7C:  BSF    F93.3
0BA7E:  BTFSC  F81.3
0BA80:  BRA    BABA
....................          delay_ms(100); 
0BA82:  MOVLW  64
0BA84:  MOVLB  4
0BA86:  MOVWF  x58
0BA88:  MOVLB  0
0BA8A:  CALL   1A3E
....................          if(RX_Buffer[4]==0xa0 || LEFT){ 
0BA8E:  MOVF   34,W
0BA90:  SUBLW  A0
0BA92:  BZ    BA9A
0BA94:  BSF    F93.3
0BA96:  BTFSC  F81.3
0BA98:  BRA    BAB8
....................             printf("page MenuPrincipal"); 
0BA9A:  MOVLW  70
0BA9C:  MOVWF  FF6
0BA9E:  MOVLW  10
0BAA0:  MOVWF  FF7
0BAA2:  MOVLW  00
0BAA4:  MOVWF  FF8
0BAA6:  CALL   38F2
....................             SendDataDisplay();      
0BAAA:  CALL   3924
....................             PantallaPrincipal=0; 
0BAAE:  MOVLB  2
0BAB0:  CLRF   xDD
....................             Op=OFF; 
0BAB2:  MOVLB  0
0BAB4:  BCF    xA2.2
....................             Op2=OFF; 
0BAB6:  BCF    xA2.3
0BAB8:  MOVLB  3
....................          } 
....................       } 
....................        
....................       if(RX_Buffer[4]==0x20 && CicloLibre>0){//20, Temperatura 
0BABA:  MOVF   34,W
0BABC:  SUBLW  20
0BABE:  BNZ   BAFC
0BAC0:  MOVF   x3E,F
0BAC2:  BZ    BAFC
....................             printf("page Temperatura"); 
0BAC4:  MOVLW  84
0BAC6:  MOVWF  FF6
0BAC8:  MOVLW  10
0BACA:  MOVWF  FF7
0BACC:  MOVLW  00
0BACE:  MOVWF  FF8
0BAD0:  MOVLB  0
0BAD2:  CALL   38F2
....................             SendDataDisplay();      
0BAD6:  CALL   3924
....................             Setpoint=CiclosPersonalizados[CicloLibre-1].Temperatura; 
0BADA:  MOVLW  01
0BADC:  MOVLB  3
0BADE:  SUBWF  x3E,W
0BAE0:  MULLW  0A
0BAE2:  MOVF   FF3,W
0BAE4:  MOVLB  4
0BAE6:  CLRF   x44
0BAE8:  MOVWF  x43
0BAEA:  MOVLW  1B
0BAEC:  ADDWF  x43,W
0BAEE:  MOVWF  FE9
0BAF0:  MOVLW  04
0BAF2:  ADDWFC x44,W
0BAF4:  MOVWF  FEA
0BAF6:  MOVFF  FEF,367
0BAFA:  MOVLB  3
....................       } 
....................        
....................       if(RX_Buffer[4]==0x30 && CicloLibre>0){//30, Test 
0BAFC:  MOVF   34,W
0BAFE:  SUBLW  30
0BB00:  BTFSS  FD8.2
0BB02:  BRA    BC1E
0BB04:  MOVF   x3E,F
0BB06:  BTFSC  FD8.2
0BB08:  BRA    BC1E
....................             printf("page TiempoEst"); 
0BB0A:  MOVLW  96
0BB0C:  MOVWF  FF6
0BB0E:  MOVLW  10
0BB10:  MOVWF  FF7
0BB12:  MOVLW  00
0BB14:  MOVWF  FF8
0BB16:  MOVLB  0
0BB18:  CALL   38F2
....................             SendDataDisplay();      
0BB1C:  CALL   3924
....................             Testerilizacionp[3]=CiclosPersonalizados[CicloLibre-1].Minutoest/10; 
0BB20:  MOVLW  01
0BB22:  MOVLB  3
0BB24:  SUBWF  x3E,W
0BB26:  MULLW  0A
0BB28:  MOVF   FF3,W
0BB2A:  MOVLB  4
0BB2C:  CLRF   x44
0BB2E:  MOVWF  x43
0BB30:  MOVLW  09
0BB32:  ADDWF  x43,W
0BB34:  MOVWF  01
0BB36:  MOVLW  00
0BB38:  ADDWFC x44,W
0BB3A:  MOVWF  03
0BB3C:  MOVF   01,W
0BB3E:  ADDLW  1B
0BB40:  MOVWF  FE9
0BB42:  MOVLW  04
0BB44:  ADDWFC 03,W
0BB46:  MOVWF  FEA
0BB48:  MOVFF  FEF,44D
0BB4C:  MOVLW  0A
0BB4E:  MOVWF  x4E
0BB50:  MOVLB  0
0BB52:  CALL   48B0
0BB56:  MOVFF  01,B9
....................             Testerilizacionp[2]=CiclosPersonalizados[CicloLibre-1].Minutoest-(Testerilizacionp[3]*10); 
0BB5A:  MOVLW  01
0BB5C:  MOVLB  3
0BB5E:  SUBWF  x3E,W
0BB60:  MULLW  0A
0BB62:  MOVF   FF3,W
0BB64:  MOVLB  4
0BB66:  CLRF   x44
0BB68:  MOVWF  x43
0BB6A:  MOVLW  09
0BB6C:  ADDWF  x43,W
0BB6E:  MOVWF  01
0BB70:  MOVLW  00
0BB72:  ADDWFC x44,W
0BB74:  MOVWF  03
0BB76:  MOVF   01,W
0BB78:  ADDLW  1B
0BB7A:  MOVWF  FE9
0BB7C:  MOVLW  04
0BB7E:  ADDWFC 03,W
0BB80:  MOVWF  FEA
0BB82:  MOVFF  FEF,443
0BB86:  MOVFF  B9,445
0BB8A:  MOVLW  0A
0BB8C:  MOVWF  x46
0BB8E:  MOVLB  0
0BB90:  CALL   2DEC
0BB94:  MOVF   01,W
0BB96:  MOVLB  4
0BB98:  SUBWF  x43,W
0BB9A:  MOVLB  0
0BB9C:  MOVWF  xB8
....................             Testerilizacionp[1]=CiclosPersonalizados[CicloLibre-1].Segundoest/10; 
0BB9E:  MOVLW  01
0BBA0:  MOVLB  3
0BBA2:  SUBWF  x3E,W
0BBA4:  MULLW  0A
0BBA6:  MOVF   FF3,W
0BBA8:  MOVLB  4
0BBAA:  CLRF   x44
0BBAC:  MOVWF  x43
0BBAE:  MOVLW  03
0BBB0:  ADDWF  x43,W
0BBB2:  MOVWF  01
0BBB4:  MOVLW  00
0BBB6:  ADDWFC x44,W
0BBB8:  MOVWF  03
0BBBA:  MOVF   01,W
0BBBC:  ADDLW  1B
0BBBE:  MOVWF  FE9
0BBC0:  MOVLW  04
0BBC2:  ADDWFC 03,W
0BBC4:  MOVWF  FEA
0BBC6:  MOVFF  FEF,44D
0BBCA:  MOVLW  0A
0BBCC:  MOVWF  x4E
0BBCE:  MOVLB  0
0BBD0:  CALL   48B0
0BBD4:  MOVFF  01,B7
....................             Testerilizacionp[0]=CiclosPersonalizados[CicloLibre-1].Segundoest-(Testerilizacionp[1]*10); 
0BBD8:  MOVLW  01
0BBDA:  MOVLB  3
0BBDC:  SUBWF  x3E,W
0BBDE:  MULLW  0A
0BBE0:  MOVF   FF3,W
0BBE2:  MOVLB  4
0BBE4:  CLRF   x44
0BBE6:  MOVWF  x43
0BBE8:  MOVLW  03
0BBEA:  ADDWF  x43,W
0BBEC:  MOVWF  01
0BBEE:  MOVLW  00
0BBF0:  ADDWFC x44,W
0BBF2:  MOVWF  03
0BBF4:  MOVF   01,W
0BBF6:  ADDLW  1B
0BBF8:  MOVWF  FE9
0BBFA:  MOVLW  04
0BBFC:  ADDWFC 03,W
0BBFE:  MOVWF  FEA
0BC00:  MOVFF  FEF,443
0BC04:  MOVFF  B7,445
0BC08:  MOVLW  0A
0BC0A:  MOVWF  x46
0BC0C:  MOVLB  0
0BC0E:  CALL   2DEC
0BC12:  MOVF   01,W
0BC14:  MOVLB  4
0BC16:  SUBWF  x43,W
0BC18:  MOVLB  0
0BC1A:  MOVWF  xB6
0BC1C:  MOVLB  3
....................       } 
....................        
....................       if(RX_Buffer[4]==0x40 && CicloLibre>0){//30, Test 
0BC1E:  MOVF   34,W
0BC20:  SUBLW  40
0BC22:  BTFSS  FD8.2
0BC24:  BRA    BD40
0BC26:  MOVF   x3E,F
0BC28:  BTFSC  FD8.2
0BC2A:  BRA    BD40
....................             printf("page TiempoSec"); 
0BC2C:  MOVLW  A6
0BC2E:  MOVWF  FF6
0BC30:  MOVLW  10
0BC32:  MOVWF  FF7
0BC34:  MOVLW  00
0BC36:  MOVWF  FF8
0BC38:  MOVLB  0
0BC3A:  CALL   38F2
....................             SendDataDisplay();      
0BC3E:  CALL   3924
....................             Tsecadop[3]=CiclosPersonalizados[CicloLibre-1].Minutosec/10; 
0BC42:  MOVLW  01
0BC44:  MOVLB  3
0BC46:  SUBWF  x3E,W
0BC48:  MULLW  0A
0BC4A:  MOVF   FF3,W
0BC4C:  MOVLB  4
0BC4E:  CLRF   x44
0BC50:  MOVWF  x43
0BC52:  MOVLW  04
0BC54:  ADDWF  x43,W
0BC56:  MOVWF  01
0BC58:  MOVLW  00
0BC5A:  ADDWFC x44,W
0BC5C:  MOVWF  03
0BC5E:  MOVF   01,W
0BC60:  ADDLW  1B
0BC62:  MOVWF  FE9
0BC64:  MOVLW  04
0BC66:  ADDWFC 03,W
0BC68:  MOVWF  FEA
0BC6A:  MOVFF  FEF,44D
0BC6E:  MOVLW  0A
0BC70:  MOVWF  x4E
0BC72:  MOVLB  0
0BC74:  CALL   48B0
0BC78:  MOVFF  01,C2
....................             Tsecadop[2]=CiclosPersonalizados[CicloLibre-1].Minutosec-(Tsecadop[3]*10); 
0BC7C:  MOVLW  01
0BC7E:  MOVLB  3
0BC80:  SUBWF  x3E,W
0BC82:  MULLW  0A
0BC84:  MOVF   FF3,W
0BC86:  MOVLB  4
0BC88:  CLRF   x44
0BC8A:  MOVWF  x43
0BC8C:  MOVLW  04
0BC8E:  ADDWF  x43,W
0BC90:  MOVWF  01
0BC92:  MOVLW  00
0BC94:  ADDWFC x44,W
0BC96:  MOVWF  03
0BC98:  MOVF   01,W
0BC9A:  ADDLW  1B
0BC9C:  MOVWF  FE9
0BC9E:  MOVLW  04
0BCA0:  ADDWFC 03,W
0BCA2:  MOVWF  FEA
0BCA4:  MOVFF  FEF,443
0BCA8:  MOVFF  C2,445
0BCAC:  MOVLW  0A
0BCAE:  MOVWF  x46
0BCB0:  MOVLB  0
0BCB2:  CALL   2DEC
0BCB6:  MOVF   01,W
0BCB8:  MOVLB  4
0BCBA:  SUBWF  x43,W
0BCBC:  MOVLB  0
0BCBE:  MOVWF  xC1
....................             Tsecadop[1]=CiclosPersonalizados[CicloLibre-1].Segundosec/10; 
0BCC0:  MOVLW  01
0BCC2:  MOVLB  3
0BCC4:  SUBWF  x3E,W
0BCC6:  MULLW  0A
0BCC8:  MOVF   FF3,W
0BCCA:  MOVLB  4
0BCCC:  CLRF   x44
0BCCE:  MOVWF  x43
0BCD0:  MOVLW  05
0BCD2:  ADDWF  x43,W
0BCD4:  MOVWF  01
0BCD6:  MOVLW  00
0BCD8:  ADDWFC x44,W
0BCDA:  MOVWF  03
0BCDC:  MOVF   01,W
0BCDE:  ADDLW  1B
0BCE0:  MOVWF  FE9
0BCE2:  MOVLW  04
0BCE4:  ADDWFC 03,W
0BCE6:  MOVWF  FEA
0BCE8:  MOVFF  FEF,44D
0BCEC:  MOVLW  0A
0BCEE:  MOVWF  x4E
0BCF0:  MOVLB  0
0BCF2:  CALL   48B0
0BCF6:  MOVFF  01,C0
....................             Tsecadop[0]=CiclosPersonalizados[CicloLibre-1].Segundosec-(Tsecadop[1]*10); 
0BCFA:  MOVLW  01
0BCFC:  MOVLB  3
0BCFE:  SUBWF  x3E,W
0BD00:  MULLW  0A
0BD02:  MOVF   FF3,W
0BD04:  MOVLB  4
0BD06:  CLRF   x44
0BD08:  MOVWF  x43
0BD0A:  MOVLW  05
0BD0C:  ADDWF  x43,W
0BD0E:  MOVWF  01
0BD10:  MOVLW  00
0BD12:  ADDWFC x44,W
0BD14:  MOVWF  03
0BD16:  MOVF   01,W
0BD18:  ADDLW  1B
0BD1A:  MOVWF  FE9
0BD1C:  MOVLW  04
0BD1E:  ADDWFC 03,W
0BD20:  MOVWF  FEA
0BD22:  MOVFF  FEF,443
0BD26:  MOVFF  C0,445
0BD2A:  MOVLW  0A
0BD2C:  MOVWF  x46
0BD2E:  MOVLB  0
0BD30:  CALL   2DEC
0BD34:  MOVF   01,W
0BD36:  MOVLB  4
0BD38:  SUBWF  x43,W
0BD3A:  MOVLB  0
0BD3C:  MOVWF  xBF
0BD3E:  MOVLB  3
....................       } 
....................        
....................       if(RX_Buffer[4]==0x80 && CicloLibre>0){//80, NivelDesfogue          
0BD40:  MOVF   34,W
0BD42:  SUBLW  80
0BD44:  BNZ   BD94
0BD46:  MOVF   x3E,F
0BD48:  BZ    BD94
....................             printf("page Nivel"); 
0BD4A:  MOVLW  B6
0BD4C:  MOVWF  FF6
0BD4E:  MOVLW  10
0BD50:  MOVWF  FF7
0BD52:  MOVLW  00
0BD54:  MOVWF  FF8
0BD56:  MOVLB  0
0BD58:  CALL   38F2
....................             SendDataDisplay();      
0BD5C:  CALL   3924
....................             Nivel=CiclosPersonalizados[CicloLibre-1].NivelDesfogue;          
0BD60:  MOVLW  01
0BD62:  MOVLB  3
0BD64:  SUBWF  x3E,W
0BD66:  MULLW  0A
0BD68:  MOVF   FF3,W
0BD6A:  MOVLB  4
0BD6C:  CLRF   x44
0BD6E:  MOVWF  x43
0BD70:  MOVLW  08
0BD72:  ADDWF  x43,W
0BD74:  MOVWF  01
0BD76:  MOVLW  00
0BD78:  ADDWFC x44,W
0BD7A:  MOVWF  03
0BD7C:  MOVF   01,W
0BD7E:  ADDLW  1B
0BD80:  MOVWF  FE9
0BD82:  MOVLW  04
0BD84:  ADDWFC 03,W
0BD86:  MOVWF  FEA
0BD88:  MOVF   FEF,W
0BD8A:  CLRF   03
0BD8C:  MOVLB  3
0BD8E:  MOVWF  x75
0BD90:  MOVFF  03,376
....................       } 
....................        
....................       if((RX_Buffer[4]==0x70 || UP)&& CicloLibre>0){//70, Iniciar Ciclo 
0BD94:  MOVF   34,W
0BD96:  SUBLW  70
0BD98:  BZ    BDA0
0BD9A:  BSF    F93.0
0BD9C:  BTFSC  F81.0
0BD9E:  BRA    C2B6
0BDA0:  MOVF   x3E,F
0BDA2:  BTFSC  FD8.2
0BDA4:  BRA    C2B6
....................          delay_ms(100); 
0BDA6:  MOVLW  64
0BDA8:  MOVLB  4
0BDAA:  MOVWF  x58
0BDAC:  MOVLB  0
0BDAE:  CALL   1A3E
....................          if((RX_Buffer[4]==0x70 || UP)&& CicloLibre>0){ 
0BDB2:  MOVF   34,W
0BDB4:  SUBLW  70
0BDB6:  BZ    BDBE
0BDB8:  BSF    F93.0
0BDBA:  BTFSC  F81.0
0BDBC:  BRA    C2B4
0BDBE:  MOVLB  3
0BDC0:  MOVF   x3E,F
0BDC2:  BTFSS  FD8.2
0BDC4:  BRA    BDCA
0BDC6:  MOVLB  0
0BDC8:  BRA    C2B4
....................             printf("page Funcionamiento"); 
0BDCA:  MOVLW  C2
0BDCC:  MOVWF  FF6
0BDCE:  MOVLW  10
0BDD0:  MOVWF  FF7
0BDD2:  MOVLW  00
0BDD4:  MOVWF  FF8
0BDD6:  MOVLB  0
0BDD8:  CALL   38F2
....................             SendDataDisplay();        
0BDDC:  CALL   3924
....................             Libre=ON; 
0BDE0:  BSF    xA3.6
....................             if(CiclosPersonalizados[CicloLibre-1].NivelDesfogue>5){ 
0BDE2:  MOVLW  01
0BDE4:  MOVLB  3
0BDE6:  SUBWF  x3E,W
0BDE8:  MULLW  0A
0BDEA:  MOVF   FF3,W
0BDEC:  MOVLB  4
0BDEE:  CLRF   x44
0BDF0:  MOVWF  x43
0BDF2:  MOVLW  08
0BDF4:  ADDWF  x43,W
0BDF6:  MOVWF  01
0BDF8:  MOVLW  00
0BDFA:  ADDWFC x44,W
0BDFC:  MOVWF  03
0BDFE:  MOVF   01,W
0BE00:  ADDLW  1B
0BE02:  MOVWF  FE9
0BE04:  MOVLW  04
0BE06:  ADDWFC 03,W
0BE08:  MOVWF  FEA
0BE0A:  MOVF   FEF,W
0BE0C:  SUBLW  05
0BE0E:  BTFSC  FD8.0
0BE10:  BRA    C040
....................                ConfiguraCiclo(extraeDecima(CiclosPersonalizados[CicloLibre-1].Segundoest), 
....................                            CiclosPersonalizados[CicloLibre-1].Segundoest/10, 
....................                            extraeDecima(CiclosPersonalizados[CicloLibre-1].Minutoest), 
....................                            CiclosPersonalizados[CicloLibre-1].Minutoest/10, 
....................                            extraeDecima(CiclosPersonalizados[CicloLibre-1].Segundosec), 
....................                            CiclosPersonalizados[CicloLibre-1].Segundosec/10, 
....................                            extraeDecima(CiclosPersonalizados[CicloLibre-1].Minutosec), 
....................                            CiclosPersonalizados[CicloLibre-1].Minutosec/10,0,CicloLibre+4,CiclosPersonalizados[CicloLibre-1].Temperatura);             
0BE12:  MOVLW  01
0BE14:  MOVLB  3
0BE16:  SUBWF  x3E,W
0BE18:  MULLW  0A
0BE1A:  MOVF   FF3,W
0BE1C:  MOVLB  4
0BE1E:  CLRF   x44
0BE20:  MOVWF  x43
0BE22:  MOVLW  03
0BE24:  ADDWF  x43,W
0BE26:  MOVWF  01
0BE28:  MOVLW  00
0BE2A:  ADDWFC x44,W
0BE2C:  MOVWF  03
0BE2E:  MOVF   01,W
0BE30:  ADDLW  1B
0BE32:  MOVWF  FE9
0BE34:  MOVLW  04
0BE36:  ADDWFC 03,W
0BE38:  MOVWF  FEA
0BE3A:  MOVFF  FEF,443
0BE3E:  MOVFF  443,44A
0BE42:  MOVLB  0
0BE44:  CALL   4F04
0BE48:  MOVFF  01,443
0BE4C:  MOVLW  01
0BE4E:  MOVLB  3
0BE50:  SUBWF  x3E,W
0BE52:  MULLW  0A
0BE54:  MOVF   FF3,W
0BE56:  MOVLB  4
0BE58:  CLRF   x45
0BE5A:  MOVWF  x44
0BE5C:  MOVLW  03
0BE5E:  ADDWF  x44,W
0BE60:  MOVWF  01
0BE62:  MOVLW  00
0BE64:  ADDWFC x45,W
0BE66:  MOVWF  03
0BE68:  MOVF   01,W
0BE6A:  ADDLW  1B
0BE6C:  MOVWF  FE9
0BE6E:  MOVLW  04
0BE70:  ADDWFC 03,W
0BE72:  MOVWF  FEA
0BE74:  MOVFF  FEF,44D
0BE78:  MOVLW  0A
0BE7A:  MOVWF  x4E
0BE7C:  MOVLB  0
0BE7E:  CALL   48B0
0BE82:  MOVFF  01,444
0BE86:  MOVLW  01
0BE88:  MOVLB  3
0BE8A:  SUBWF  x3E,W
0BE8C:  MULLW  0A
0BE8E:  MOVF   FF3,W
0BE90:  MOVLB  4
0BE92:  CLRF   x46
0BE94:  MOVWF  x45
0BE96:  MOVLW  09
0BE98:  ADDWF  x45,W
0BE9A:  MOVWF  01
0BE9C:  MOVLW  00
0BE9E:  ADDWFC x46,W
0BEA0:  MOVWF  03
0BEA2:  MOVF   01,W
0BEA4:  ADDLW  1B
0BEA6:  MOVWF  FE9
0BEA8:  MOVLW  04
0BEAA:  ADDWFC 03,W
0BEAC:  MOVWF  FEA
0BEAE:  MOVFF  FEF,445
0BEB2:  MOVFF  445,44A
0BEB6:  MOVLB  0
0BEB8:  CALL   4F04
0BEBC:  MOVFF  01,445
0BEC0:  MOVLW  01
0BEC2:  MOVLB  3
0BEC4:  SUBWF  x3E,W
0BEC6:  MULLW  0A
0BEC8:  MOVF   FF3,W
0BECA:  MOVLB  4
0BECC:  CLRF   x47
0BECE:  MOVWF  x46
0BED0:  MOVLW  09
0BED2:  ADDWF  x46,W
0BED4:  MOVWF  01
0BED6:  MOVLW  00
0BED8:  ADDWFC x47,W
0BEDA:  MOVWF  03
0BEDC:  MOVF   01,W
0BEDE:  ADDLW  1B
0BEE0:  MOVWF  FE9
0BEE2:  MOVLW  04
0BEE4:  ADDWFC 03,W
0BEE6:  MOVWF  FEA
0BEE8:  MOVFF  FEF,44D
0BEEC:  MOVLW  0A
0BEEE:  MOVWF  x4E
0BEF0:  MOVLB  0
0BEF2:  CALL   48B0
0BEF6:  MOVFF  01,446
0BEFA:  MOVLW  01
0BEFC:  MOVLB  3
0BEFE:  SUBWF  x3E,W
0BF00:  MULLW  0A
0BF02:  MOVF   FF3,W
0BF04:  MOVLB  4
0BF06:  CLRF   x48
0BF08:  MOVWF  x47
0BF0A:  MOVLW  05
0BF0C:  ADDWF  x47,W
0BF0E:  MOVWF  01
0BF10:  MOVLW  00
0BF12:  ADDWFC x48,W
0BF14:  MOVWF  03
0BF16:  MOVF   01,W
0BF18:  ADDLW  1B
0BF1A:  MOVWF  FE9
0BF1C:  MOVLW  04
0BF1E:  ADDWFC 03,W
0BF20:  MOVWF  FEA
0BF22:  MOVFF  FEF,447
0BF26:  MOVFF  447,44A
0BF2A:  MOVLB  0
0BF2C:  CALL   4F04
0BF30:  MOVFF  01,447
0BF34:  MOVLW  01
0BF36:  MOVLB  3
0BF38:  SUBWF  x3E,W
0BF3A:  MULLW  0A
0BF3C:  MOVF   FF3,W
0BF3E:  MOVLB  4
0BF40:  CLRF   x49
0BF42:  MOVWF  x48
0BF44:  MOVLW  05
0BF46:  ADDWF  x48,W
0BF48:  MOVWF  01
0BF4A:  MOVLW  00
0BF4C:  ADDWFC x49,W
0BF4E:  MOVWF  03
0BF50:  MOVF   01,W
0BF52:  ADDLW  1B
0BF54:  MOVWF  FE9
0BF56:  MOVLW  04
0BF58:  ADDWFC 03,W
0BF5A:  MOVWF  FEA
0BF5C:  MOVFF  FEF,44D
0BF60:  MOVLW  0A
0BF62:  MOVWF  x4E
0BF64:  MOVLB  0
0BF66:  CALL   48B0
0BF6A:  MOVFF  01,448
0BF6E:  MOVLW  01
0BF70:  MOVLB  3
0BF72:  SUBWF  x3E,W
0BF74:  MULLW  0A
0BF76:  MOVF   FF3,W
0BF78:  MOVLB  4
0BF7A:  CLRF   x4A
0BF7C:  MOVWF  x49
0BF7E:  MOVLW  04
0BF80:  ADDWF  x49,W
0BF82:  MOVWF  01
0BF84:  MOVLW  00
0BF86:  ADDWFC x4A,W
0BF88:  MOVWF  03
0BF8A:  MOVF   01,W
0BF8C:  ADDLW  1B
0BF8E:  MOVWF  FE9
0BF90:  MOVLW  04
0BF92:  ADDWFC 03,W
0BF94:  MOVWF  FEA
0BF96:  MOVFF  FEF,449
0BF9A:  MOVFF  449,44A
0BF9E:  MOVLB  0
0BFA0:  CALL   4F04
0BFA4:  MOVFF  01,449
0BFA8:  MOVLW  01
0BFAA:  MOVLB  3
0BFAC:  SUBWF  x3E,W
0BFAE:  MULLW  0A
0BFB0:  MOVF   FF3,W
0BFB2:  MOVLB  4
0BFB4:  CLRF   x4B
0BFB6:  MOVWF  x4A
0BFB8:  MOVLW  04
0BFBA:  ADDWF  x4A,W
0BFBC:  MOVWF  01
0BFBE:  MOVLW  00
0BFC0:  ADDWFC x4B,W
0BFC2:  MOVWF  03
0BFC4:  MOVF   01,W
0BFC6:  ADDLW  1B
0BFC8:  MOVWF  FE9
0BFCA:  MOVLW  04
0BFCC:  ADDWFC 03,W
0BFCE:  MOVWF  FEA
0BFD0:  MOVFF  FEF,44D
0BFD4:  MOVLW  0A
0BFD6:  MOVWF  x4E
0BFD8:  MOVLB  0
0BFDA:  CALL   48B0
0BFDE:  MOVFF  01,44A
0BFE2:  MOVLW  04
0BFE4:  MOVLB  3
0BFE6:  ADDWF  x3E,W
0BFE8:  MOVLB  4
0BFEA:  MOVWF  x4B
0BFEC:  MOVLW  01
0BFEE:  MOVLB  3
0BFF0:  SUBWF  x3E,W
0BFF2:  MULLW  0A
0BFF4:  MOVF   FF3,W
0BFF6:  MOVLB  4
0BFF8:  CLRF   x4D
0BFFA:  MOVWF  x4C
0BFFC:  MOVLW  1B
0BFFE:  ADDWF  x4C,W
0C000:  MOVWF  FE9
0C002:  MOVLW  04
0C004:  ADDWFC x4D,W
0C006:  MOVWF  FEA
0C008:  MOVFF  FEF,44C
0C00C:  MOVFF  443,44D
0C010:  MOVFF  444,44E
0C014:  MOVFF  445,44F
0C018:  MOVFF  446,450
0C01C:  MOVFF  447,451
0C020:  MOVFF  448,452
0C024:  MOVFF  449,453
0C028:  MOVFF  01,454
0C02C:  CLRF   x55
0C02E:  MOVFF  44B,456
0C032:  MOVFF  44C,457
0C036:  MOVLB  0
0C038:  CALL   4BC2
....................             }else{ 
0C03C:  BRA    C2B4
0C03E:  MOVLB  4
....................                ConfiguraCiclo(extraeDecima(CiclosPersonalizados[CicloLibre-1].Segundoest), 
....................                            CiclosPersonalizados[CicloLibre-1].Segundoest/10, 
....................                            extraeDecima(CiclosPersonalizados[CicloLibre-1].Minutoest), 
....................                            CiclosPersonalizados[CicloLibre-1].Minutoest/10, 
....................                            extraeDecima(CiclosPersonalizados[CicloLibre-1].Segundosec), 
....................                            CiclosPersonalizados[CicloLibre-1].Segundosec/10, 
....................                            extraeDecima(CiclosPersonalizados[CicloLibre-1].Minutosec), 
....................                            CiclosPersonalizados[CicloLibre-1].Minutosec/10,1,CicloLibre+4,CiclosPersonalizados[CicloLibre-1].Temperatura);             
0C040:  MOVLW  01
0C042:  MOVLB  3
0C044:  SUBWF  x3E,W
0C046:  MULLW  0A
0C048:  MOVF   FF3,W
0C04A:  MOVLB  4
0C04C:  CLRF   x44
0C04E:  MOVWF  x43
0C050:  MOVLW  03
0C052:  ADDWF  x43,W
0C054:  MOVWF  01
0C056:  MOVLW  00
0C058:  ADDWFC x44,W
0C05A:  MOVWF  03
0C05C:  MOVF   01,W
0C05E:  ADDLW  1B
0C060:  MOVWF  FE9
0C062:  MOVLW  04
0C064:  ADDWFC 03,W
0C066:  MOVWF  FEA
0C068:  MOVFF  FEF,443
0C06C:  MOVFF  443,44A
0C070:  MOVLB  0
0C072:  CALL   4F04
0C076:  MOVFF  01,443
0C07A:  MOVLW  01
0C07C:  MOVLB  3
0C07E:  SUBWF  x3E,W
0C080:  MULLW  0A
0C082:  MOVF   FF3,W
0C084:  MOVLB  4
0C086:  CLRF   x45
0C088:  MOVWF  x44
0C08A:  MOVLW  03
0C08C:  ADDWF  x44,W
0C08E:  MOVWF  01
0C090:  MOVLW  00
0C092:  ADDWFC x45,W
0C094:  MOVWF  03
0C096:  MOVF   01,W
0C098:  ADDLW  1B
0C09A:  MOVWF  FE9
0C09C:  MOVLW  04
0C09E:  ADDWFC 03,W
0C0A0:  MOVWF  FEA
0C0A2:  MOVFF  FEF,44D
0C0A6:  MOVLW  0A
0C0A8:  MOVWF  x4E
0C0AA:  MOVLB  0
0C0AC:  CALL   48B0
0C0B0:  MOVFF  01,444
0C0B4:  MOVLW  01
0C0B6:  MOVLB  3
0C0B8:  SUBWF  x3E,W
0C0BA:  MULLW  0A
0C0BC:  MOVF   FF3,W
0C0BE:  MOVLB  4
0C0C0:  CLRF   x46
0C0C2:  MOVWF  x45
0C0C4:  MOVLW  09
0C0C6:  ADDWF  x45,W
0C0C8:  MOVWF  01
0C0CA:  MOVLW  00
0C0CC:  ADDWFC x46,W
0C0CE:  MOVWF  03
0C0D0:  MOVF   01,W
0C0D2:  ADDLW  1B
0C0D4:  MOVWF  FE9
0C0D6:  MOVLW  04
0C0D8:  ADDWFC 03,W
0C0DA:  MOVWF  FEA
0C0DC:  MOVFF  FEF,445
0C0E0:  MOVFF  445,44A
0C0E4:  MOVLB  0
0C0E6:  CALL   4F04
0C0EA:  MOVFF  01,445
0C0EE:  MOVLW  01
0C0F0:  MOVLB  3
0C0F2:  SUBWF  x3E,W
0C0F4:  MULLW  0A
0C0F6:  MOVF   FF3,W
0C0F8:  MOVLB  4
0C0FA:  CLRF   x47
0C0FC:  MOVWF  x46
0C0FE:  MOVLW  09
0C100:  ADDWF  x46,W
0C102:  MOVWF  01
0C104:  MOVLW  00
0C106:  ADDWFC x47,W
0C108:  MOVWF  03
0C10A:  MOVF   01,W
0C10C:  ADDLW  1B
0C10E:  MOVWF  FE9
0C110:  MOVLW  04
0C112:  ADDWFC 03,W
0C114:  MOVWF  FEA
0C116:  MOVFF  FEF,44D
0C11A:  MOVLW  0A
0C11C:  MOVWF  x4E
0C11E:  MOVLB  0
0C120:  CALL   48B0
0C124:  MOVFF  01,446
0C128:  MOVLW  01
0C12A:  MOVLB  3
0C12C:  SUBWF  x3E,W
0C12E:  MULLW  0A
0C130:  MOVF   FF3,W
0C132:  MOVLB  4
0C134:  CLRF   x48
0C136:  MOVWF  x47
0C138:  MOVLW  05
0C13A:  ADDWF  x47,W
0C13C:  MOVWF  01
0C13E:  MOVLW  00
0C140:  ADDWFC x48,W
0C142:  MOVWF  03
0C144:  MOVF   01,W
0C146:  ADDLW  1B
0C148:  MOVWF  FE9
0C14A:  MOVLW  04
0C14C:  ADDWFC 03,W
0C14E:  MOVWF  FEA
0C150:  MOVFF  FEF,447
0C154:  MOVFF  447,44A
0C158:  MOVLB  0
0C15A:  CALL   4F04
0C15E:  MOVFF  01,447
0C162:  MOVLW  01
0C164:  MOVLB  3
0C166:  SUBWF  x3E,W
0C168:  MULLW  0A
0C16A:  MOVF   FF3,W
0C16C:  MOVLB  4
0C16E:  CLRF   x49
0C170:  MOVWF  x48
0C172:  MOVLW  05
0C174:  ADDWF  x48,W
0C176:  MOVWF  01
0C178:  MOVLW  00
0C17A:  ADDWFC x49,W
0C17C:  MOVWF  03
0C17E:  MOVF   01,W
0C180:  ADDLW  1B
0C182:  MOVWF  FE9
0C184:  MOVLW  04
0C186:  ADDWFC 03,W
0C188:  MOVWF  FEA
0C18A:  MOVFF  FEF,44D
0C18E:  MOVLW  0A
0C190:  MOVWF  x4E
0C192:  MOVLB  0
0C194:  CALL   48B0
0C198:  MOVFF  01,448
0C19C:  MOVLW  01
0C19E:  MOVLB  3
0C1A0:  SUBWF  x3E,W
0C1A2:  MULLW  0A
0C1A4:  MOVF   FF3,W
0C1A6:  MOVLB  4
0C1A8:  CLRF   x4A
0C1AA:  MOVWF  x49
0C1AC:  MOVLW  04
0C1AE:  ADDWF  x49,W
0C1B0:  MOVWF  01
0C1B2:  MOVLW  00
0C1B4:  ADDWFC x4A,W
0C1B6:  MOVWF  03
0C1B8:  MOVF   01,W
0C1BA:  ADDLW  1B
0C1BC:  MOVWF  FE9
0C1BE:  MOVLW  04
0C1C0:  ADDWFC 03,W
0C1C2:  MOVWF  FEA
0C1C4:  MOVFF  FEF,449
0C1C8:  MOVFF  449,44A
0C1CC:  MOVLB  0
0C1CE:  CALL   4F04
0C1D2:  MOVFF  01,449
0C1D6:  MOVLW  01
0C1D8:  MOVLB  3
0C1DA:  SUBWF  x3E,W
0C1DC:  MULLW  0A
0C1DE:  MOVF   FF3,W
0C1E0:  MOVLB  4
0C1E2:  CLRF   x4B
0C1E4:  MOVWF  x4A
0C1E6:  MOVLW  04
0C1E8:  ADDWF  x4A,W
0C1EA:  MOVWF  01
0C1EC:  MOVLW  00
0C1EE:  ADDWFC x4B,W
0C1F0:  MOVWF  03
0C1F2:  MOVF   01,W
0C1F4:  ADDLW  1B
0C1F6:  MOVWF  FE9
0C1F8:  MOVLW  04
0C1FA:  ADDWFC 03,W
0C1FC:  MOVWF  FEA
0C1FE:  MOVFF  FEF,44D
0C202:  MOVLW  0A
0C204:  MOVWF  x4E
0C206:  MOVLB  0
0C208:  CALL   48B0
0C20C:  MOVFF  01,44A
0C210:  MOVLW  04
0C212:  MOVLB  3
0C214:  ADDWF  x3E,W
0C216:  MOVLB  4
0C218:  MOVWF  x4B
0C21A:  MOVLW  01
0C21C:  MOVLB  3
0C21E:  SUBWF  x3E,W
0C220:  MULLW  0A
0C222:  MOVF   FF3,W
0C224:  MOVLB  4
0C226:  CLRF   x4D
0C228:  MOVWF  x4C
0C22A:  MOVLW  1B
0C22C:  ADDWF  x4C,W
0C22E:  MOVWF  FE9
0C230:  MOVLW  04
0C232:  ADDWFC x4D,W
0C234:  MOVWF  FEA
0C236:  MOVFF  FEF,44C
0C23A:  MOVFF  443,44D
0C23E:  MOVFF  444,44E
0C242:  MOVFF  445,44F
0C246:  MOVFF  446,450
0C24A:  MOVFF  447,451
0C24E:  MOVFF  448,452
0C252:  MOVFF  449,453
0C256:  MOVFF  01,454
0C25A:  MOVLW  01
0C25C:  MOVWF  x55
0C25E:  MOVFF  44B,456
0C262:  MOVFF  44C,457
0C266:  MOVLB  0
0C268:  CALL   4BC2
....................                NivelSeleccionado=4995*CiclosPersonalizados[CicloLibre-1].NivelDesfogue; 
0C26C:  MOVLW  01
0C26E:  MOVLB  3
0C270:  SUBWF  x3E,W
0C272:  MULLW  0A
0C274:  MOVF   FF3,W
0C276:  MOVLB  4
0C278:  CLRF   x44
0C27A:  MOVWF  x43
0C27C:  MOVLW  08
0C27E:  ADDWF  x43,W
0C280:  MOVWF  01
0C282:  MOVLW  00
0C284:  ADDWFC x44,W
0C286:  MOVWF  03
0C288:  MOVF   01,W
0C28A:  ADDLW  1B
0C28C:  MOVWF  FE9
0C28E:  MOVLW  04
0C290:  ADDWFC 03,W
0C292:  MOVWF  FEA
0C294:  MOVFF  FEF,443
0C298:  MOVLW  13
0C29A:  MOVWF  x4D
0C29C:  MOVLW  83
0C29E:  MOVWF  x4C
0C2A0:  CLRF   x4F
0C2A2:  MOVFF  443,44E
0C2A6:  MOVLB  0
0C2A8:  CALL   39D0
0C2AC:  MOVFF  02,380
0C2B0:  MOVFF  01,37F
0C2B4:  MOVLB  3
....................             } 
....................          } 
....................       } 
....................    } 
.................... //_--------------------------------------------------------------------------------------------------------------------------------------------------------        
....................  
.................... //_--------------------------------------------------------------------------------------------------------------------------------------------------------       
....................    if(Menu==12){//Menu de Visualizacion de Ciclos Realizados 
0C2B6:  MOVF   x60,W
0C2B8:  SUBLW  0C
0C2BA:  BTFSS  FD8.2
0C2BC:  BRA    C810
....................       //printf("fecha.txt=\"Fecha:%02u/%02u/20%02u    Hora: %02u:%02u\"",Dia,Mes,Year,Hora,Minuto); 
....................       //SendDataDisplay(); 
....................       GuardaEEPROM=OFF; 
0C2BE:  MOVLB  0
0C2C0:  BCF    xA2.6
....................       /*  
....................       i2c_start();            // Comienzo de la comunicacin 
....................       i2c_write(0xA0);   // Direccin del esclavo en el bus I2C 
....................       i2c_write(9);    // Posicin de donde se leer el dato en el esclavo 
....................       i2c_write(0);    // Posicin de donde se leer el dato en el esclavo 
....................       i2c_start();            // Reinicio 
....................       i2c_write(direccion+1); // Direccin del esclavo en modo lectura 
....................       dato=i2c_read(0);       // Lectura del dato 
....................       i2c_stop(); 
....................       */       
....................        
....................       if(RX_Buffer[6]==0x01){//01, Ciclos 
0C2C2:  DECFSZ 36,W
0C2C4:  BRA    C2DA
....................          printf("page MenuPrincipal"); 
0C2C6:  MOVLW  D6
0C2C8:  MOVWF  FF6
0C2CA:  MOVLW  10
0C2CC:  MOVWF  FF7
0C2CE:  MOVLW  00
0C2D0:  MOVWF  FF8
0C2D2:  CALL   38F2
....................          SendDataDisplay();      
0C2D6:  CALL   3924
....................       } 
....................        
....................       if(RX_Buffer[6]==0x02 || LEFT){//02, Izquierda 
0C2DA:  MOVF   36,W
0C2DC:  SUBLW  02
0C2DE:  BZ    C2E6
0C2E0:  BSF    F93.3
0C2E2:  BTFSC  F81.3
0C2E4:  BRA    C334
....................          RX_Buffer[6]=0x00;   
0C2E6:  CLRF   36
....................          RX_Buffer2[6]=0x00; 
0C2E8:  CLRF   41
....................          if(cicloVisto>0) 
0C2EA:  MOVLB  2
0C2EC:  MOVF   xE2,F
0C2EE:  BZ    C2F2
....................             cicloVisto--; 
0C2F0:  DECF   xE2,F
....................          printf("h0.val=%u",cicloVisto+1); 
0C2F2:  MOVLW  01
0C2F4:  ADDWF  xE2,W
0C2F6:  MOVLB  4
0C2F8:  MOVWF  x43
0C2FA:  MOVLW  EA
0C2FC:  MOVWF  FF6
0C2FE:  MOVLW  10
0C300:  MOVWF  FF7
0C302:  MOVLW  00
0C304:  MOVWF  FF8
0C306:  MOVLW  07
0C308:  MOVWF  x48
0C30A:  MOVLB  0
0C30C:  CALL   487E
0C310:  MOVFF  443,448
0C314:  MOVLW  1B
0C316:  MOVLB  4
0C318:  MOVWF  x49
0C31A:  MOVLB  0
0C31C:  CALL   48DC
....................          SendDataDisplay();      
0C320:  CALL   3924
....................          actualizaTabla(); 
0C324:  CALL   5094
....................          delay_ms(100); 
0C328:  MOVLW  64
0C32A:  MOVLB  4
0C32C:  MOVWF  x58
0C32E:  MOVLB  0
0C330:  CALL   1A3E
....................       } 
....................        
....................       if(RX_Buffer[6]==0x03 || UP){//03, Arriba 
0C334:  MOVF   36,W
0C336:  SUBLW  03
0C338:  BZ    C340
0C33A:  BSF    F93.0
0C33C:  BTFSC  F81.0
0C33E:  BRA    C390
....................          RX_Buffer[6]=0x00;   
0C340:  CLRF   36
....................          RX_Buffer2[6]=0x00; 
0C342:  CLRF   41
....................          if(cicloVisualizado<28) 
0C344:  MOVLB  2
0C346:  MOVF   xE3,W
0C348:  SUBLW  1B
0C34A:  BNC   C34E
....................             cicloVisualizado++; 
0C34C:  INCF   xE3,F
....................          printf("h1.val=%u",cicloVisualizado+1); 
0C34E:  MOVLW  01
0C350:  ADDWF  xE3,W
0C352:  MOVLB  4
0C354:  MOVWF  x43
0C356:  MOVLW  F4
0C358:  MOVWF  FF6
0C35A:  MOVLW  10
0C35C:  MOVWF  FF7
0C35E:  MOVLW  00
0C360:  MOVWF  FF8
0C362:  MOVLW  07
0C364:  MOVWF  x48
0C366:  MOVLB  0
0C368:  CALL   487E
0C36C:  MOVFF  443,448
0C370:  MOVLW  1B
0C372:  MOVLB  4
0C374:  MOVWF  x49
0C376:  MOVLB  0
0C378:  CALL   48DC
....................          SendDataDisplay();     
0C37C:  CALL   3924
....................          actualizaTabla(); 
0C380:  CALL   5094
....................          delay_ms(100); 
0C384:  MOVLW  64
0C386:  MOVLB  4
0C388:  MOVWF  x58
0C38A:  MOVLB  0
0C38C:  CALL   1A3E
....................          //exportarData(); 
....................       } 
....................        
....................       if(RX_Buffer[6]==0x04 || DOWN){//04, Abajo 
0C390:  MOVF   36,W
0C392:  SUBLW  04
0C394:  BZ    C39C
0C396:  BSF    F93.1
0C398:  BTFSC  F81.1
0C39A:  BRA    C3EA
....................          RX_Buffer[6]=0x00;   
0C39C:  CLRF   36
....................          RX_Buffer2[6]=0x00; 
0C39E:  CLRF   41
....................          if(cicloVisualizado>0) 
0C3A0:  MOVLB  2
0C3A2:  MOVF   xE3,F
0C3A4:  BZ    C3A8
....................             cicloVisualizado--; 
0C3A6:  DECF   xE3,F
....................          printf("h1.val=%u",cicloVisualizado+1); 
0C3A8:  MOVLW  01
0C3AA:  ADDWF  xE3,W
0C3AC:  MOVLB  4
0C3AE:  MOVWF  x43
0C3B0:  MOVLW  FE
0C3B2:  MOVWF  FF6
0C3B4:  MOVLW  10
0C3B6:  MOVWF  FF7
0C3B8:  MOVLW  00
0C3BA:  MOVWF  FF8
0C3BC:  MOVLW  07
0C3BE:  MOVWF  x48
0C3C0:  MOVLB  0
0C3C2:  CALL   487E
0C3C6:  MOVFF  443,448
0C3CA:  MOVLW  1B
0C3CC:  MOVLB  4
0C3CE:  MOVWF  x49
0C3D0:  MOVLB  0
0C3D2:  CALL   48DC
....................          SendDataDisplay();   
0C3D6:  CALL   3924
....................          actualizaTabla(); 
0C3DA:  CALL   5094
....................          delay_ms(100); 
0C3DE:  MOVLW  64
0C3E0:  MOVLB  4
0C3E2:  MOVWF  x58
0C3E4:  MOVLB  0
0C3E6:  CALL   1A3E
....................          //exportarData(); 
....................       } 
....................        
....................       if(RX_Buffer[6]==0x05 || RIGHT){//05, Derecha 
0C3EA:  MOVF   36,W
0C3EC:  SUBLW  05
0C3EE:  BZ    C3F6
0C3F0:  BSF    F93.2
0C3F2:  BTFSC  F81.2
0C3F4:  BRA    C446
....................          RX_Buffer[6]=0x00;   
0C3F6:  CLRF   36
....................          RX_Buffer2[6]=0x00; 
0C3F8:  CLRF   41
....................          if(cicloVisto<200) 
0C3FA:  MOVLB  2
0C3FC:  MOVF   xE2,W
0C3FE:  SUBLW  C7
0C400:  BNC   C404
....................             cicloVisto++; 
0C402:  INCF   xE2,F
....................          printf("h0.val=%u",cicloVisto+1); 
0C404:  MOVLW  01
0C406:  ADDWF  xE2,W
0C408:  MOVLB  4
0C40A:  MOVWF  x43
0C40C:  MOVLW  08
0C40E:  MOVWF  FF6
0C410:  MOVLW  11
0C412:  MOVWF  FF7
0C414:  MOVLW  00
0C416:  MOVWF  FF8
0C418:  MOVLW  07
0C41A:  MOVWF  x48
0C41C:  MOVLB  0
0C41E:  CALL   487E
0C422:  MOVFF  443,448
0C426:  MOVLW  1B
0C428:  MOVLB  4
0C42A:  MOVWF  x49
0C42C:  MOVLB  0
0C42E:  CALL   48DC
....................          SendDataDisplay();   
0C432:  CALL   3924
....................          actualizaTabla(); 
0C436:  CALL   5094
....................          delay_ms(100); 
0C43A:  MOVLW  64
0C43C:  MOVLB  4
0C43E:  MOVWF  x58
0C440:  MOVLB  0
0C442:  CALL   1A3E
....................          //exportarData(); 
....................       } 
....................        
....................       if(RX_Buffer[6]==0x06){//06, Imprime 
0C446:  MOVF   36,W
0C448:  SUBLW  06
0C44A:  BNZ   C468
....................          RX_Buffer[6]=0x00;   
0C44C:  CLRF   36
....................          RX_Buffer2[6]=0x00; 
0C44E:  CLRF   41
....................          printf("t0.txt=\"!IMPRIMIENDO!\""); 
0C450:  MOVLW  12
0C452:  MOVWF  FF6
0C454:  MOVLW  11
0C456:  MOVWF  FF7
0C458:  MOVLW  00
0C45A:  MOVWF  FF8
0C45C:  CALL   38F2
....................          SendDataDisplay();  
0C460:  CALL   3924
....................          exportarData(); 
0C464:  GOTO   5728
....................       } 
....................        
....................       if(RX_Buffer[4]>0x00 || RX_Buffer[5]>0x00){ 
0C468:  MOVF   34,F
0C46A:  BNZ   C470
0C46C:  MOVF   35,F
0C46E:  BZ    C48C
....................          cicloVisualizado=RX_Buffer[4]-1; 
0C470:  MOVLW  01
0C472:  SUBWF  34,W
0C474:  MOVLB  2
0C476:  MOVWF  xE3
....................          cicloVisto=RX_Buffer[5]-1; 
0C478:  MOVLW  01
0C47A:  SUBWF  35,W
0C47C:  MOVWF  xE2
....................          RX_Buffer[4]=0x00; 
0C47E:  CLRF   34
....................          RX_Buffer[5]=0x00; 
0C480:  CLRF   35
....................          RX_Buffer2[4]=0x00; 
0C482:  CLRF   3F
....................          RX_Buffer2[5]=0x00; 
0C484:  CLRF   40
....................          actualizaTabla(); 
0C486:  MOVLB  0
0C488:  CALL   5094
....................       } 
....................        
....................       //Imprime Valores Estaticos 
....................       printf("fecha.txt=\"%02u/%02u/%02u\"",diaCiclos,mesCiclos,yearCiclos); 
0C48C:  MOVLW  2A
0C48E:  MOVWF  FF6
0C490:  MOVLW  11
0C492:  MOVWF  FF7
0C494:  MOVLW  00
0C496:  MOVWF  FF8
0C498:  MOVLW  0B
0C49A:  MOVLB  4
0C49C:  MOVWF  x48
0C49E:  MOVLB  0
0C4A0:  CALL   487E
0C4A4:  MOVFF  3C9,448
0C4A8:  MOVLW  01
0C4AA:  MOVLB  4
0C4AC:  MOVWF  x49
0C4AE:  MOVLB  0
0C4B0:  CALL   48DC
0C4B4:  MOVLW  2F
0C4B6:  BTFSS  F9E.4
0C4B8:  BRA    C4B6
0C4BA:  MOVWF  FAD
0C4BC:  MOVFF  3CA,448
0C4C0:  MOVLW  01
0C4C2:  MOVLB  4
0C4C4:  MOVWF  x49
0C4C6:  MOVLB  0
0C4C8:  CALL   48DC
0C4CC:  MOVLW  2F
0C4CE:  BTFSS  F9E.4
0C4D0:  BRA    C4CE
0C4D2:  MOVWF  FAD
0C4D4:  MOVFF  3CB,448
0C4D8:  MOVLW  01
0C4DA:  MOVLB  4
0C4DC:  MOVWF  x49
0C4DE:  MOVLB  0
0C4E0:  CALL   48DC
0C4E4:  MOVLW  22
0C4E6:  BTFSS  F9E.4
0C4E8:  BRA    C4E6
0C4EA:  MOVWF  FAD
....................       SendDataDisplay(); 
0C4EC:  CALL   3924
....................        
....................       printf("ciclo.txt=\"%02u\"",cicloCiclos); 
0C4F0:  MOVLW  46
0C4F2:  MOVWF  FF6
0C4F4:  MOVLW  11
0C4F6:  MOVWF  FF7
0C4F8:  MOVLW  00
0C4FA:  MOVWF  FF8
0C4FC:  MOVLW  0B
0C4FE:  MOVLB  4
0C500:  MOVWF  x48
0C502:  MOVLB  0
0C504:  CALL   487E
0C508:  MOVFF  3CD,448
0C50C:  MOVLW  01
0C50E:  MOVLB  4
0C510:  MOVWF  x49
0C512:  MOVLB  0
0C514:  CALL   48DC
0C518:  MOVLW  22
0C51A:  BTFSS  F9E.4
0C51C:  BRA    C51A
0C51E:  MOVWF  FAD
....................       SendDataDisplay(); 
0C520:  CALL   3924
....................        
....................       printf("t0.txt=\"Ciclo %02u\"",cicloVisto); 
0C524:  MOVLW  58
0C526:  MOVWF  FF6
0C528:  MOVLW  11
0C52A:  MOVWF  FF7
0C52C:  MOVLW  00
0C52E:  MOVWF  FF8
0C530:  MOVLW  0E
0C532:  MOVLB  4
0C534:  MOVWF  x48
0C536:  MOVLB  0
0C538:  CALL   487E
0C53C:  MOVFF  2E2,448
0C540:  MOVLW  01
0C542:  MOVLB  4
0C544:  MOVWF  x49
0C546:  MOVLB  0
0C548:  CALL   48DC
0C54C:  MOVLW  22
0C54E:  BTFSS  F9E.4
0C550:  BRA    C54E
0C552:  MOVWF  FAD
....................       SendDataDisplay(); 
0C554:  CALL   3924
....................        
....................       printf("usuario.txt=\"---\""); 
0C558:  MOVLW  6C
0C55A:  MOVWF  FF6
0C55C:  MOVLW  11
0C55E:  MOVWF  FF7
0C560:  MOVLW  00
0C562:  MOVWF  FF8
0C564:  CALL   38F2
....................       SendDataDisplay(); 
0C568:  CALL   3924
....................        
....................       //Imprime Valores Dinamicos 
....................       for(i=0;i<7;i++){ 
0C56C:  MOVLB  3
0C56E:  CLRF   x63
0C570:  MOVF   x63,W
0C572:  SUBLW  06
0C574:  BTFSS  FD8.0
0C576:  BRA    C810
....................          printf("hora%u.txt=\"%02u.  %02u:%02u\"",i+1,cicloVisualizado+i+1,horaCiclos[i],minutoCiclos[i]); 
0C578:  MOVLW  01
0C57A:  ADDWF  x63,W
0C57C:  MOVLB  4
0C57E:  MOVWF  x43
0C580:  MOVLB  3
0C582:  MOVF   x63,W
0C584:  MOVLB  2
0C586:  ADDWF  xE3,W
0C588:  ADDLW  01
0C58A:  MOVLB  4
0C58C:  MOVWF  x44
0C58E:  CLRF   03
0C590:  MOVLB  3
0C592:  MOVF   x63,W
0C594:  ADDLW  06
0C596:  MOVWF  FE9
0C598:  MOVLW  04
0C59A:  ADDWFC 03,W
0C59C:  MOVWF  FEA
0C59E:  MOVFF  FEF,445
0C5A2:  CLRF   03
0C5A4:  MOVF   x63,W
0C5A6:  ADDLW  0D
0C5A8:  MOVWF  FE9
0C5AA:  MOVLW  04
0C5AC:  ADDWFC 03,W
0C5AE:  MOVWF  FEA
0C5B0:  MOVFF  FEF,446
0C5B4:  MOVLW  7E
0C5B6:  MOVWF  FF6
0C5B8:  MOVLW  11
0C5BA:  MOVWF  FF7
0C5BC:  MOVLW  00
0C5BE:  MOVWF  FF8
0C5C0:  MOVLW  04
0C5C2:  MOVLB  4
0C5C4:  MOVWF  x48
0C5C6:  MOVLB  0
0C5C8:  CALL   487E
0C5CC:  MOVFF  443,448
0C5D0:  MOVLW  1B
0C5D2:  MOVLB  4
0C5D4:  MOVWF  x49
0C5D6:  MOVLB  0
0C5D8:  CALL   48DC
0C5DC:  MOVLW  84
0C5DE:  MOVWF  FF6
0C5E0:  MOVLW  11
0C5E2:  MOVWF  FF7
0C5E4:  MOVLW  00
0C5E6:  MOVWF  FF8
0C5E8:  MOVLW  06
0C5EA:  MOVLB  4
0C5EC:  MOVWF  x48
0C5EE:  MOVLB  0
0C5F0:  CALL   487E
0C5F4:  MOVFF  444,448
0C5F8:  MOVLW  01
0C5FA:  MOVLB  4
0C5FC:  MOVWF  x49
0C5FE:  MOVLB  0
0C600:  CALL   48DC
0C604:  MOVLW  2E
0C606:  BTFSS  F9E.4
0C608:  BRA    C606
0C60A:  MOVWF  FAD
0C60C:  MOVLW  20
0C60E:  BTFSS  F9E.4
0C610:  BRA    C60E
0C612:  MOVWF  FAD
0C614:  MOVLW  20
0C616:  BTFSS  F9E.4
0C618:  BRA    C616
0C61A:  MOVWF  FAD
0C61C:  MOVFF  445,448
0C620:  MOVLW  01
0C622:  MOVLB  4
0C624:  MOVWF  x49
0C626:  MOVLB  0
0C628:  CALL   48DC
0C62C:  MOVLW  3A
0C62E:  BTFSS  F9E.4
0C630:  BRA    C62E
0C632:  MOVWF  FAD
0C634:  MOVFF  446,448
0C638:  MOVLW  01
0C63A:  MOVLB  4
0C63C:  MOVWF  x49
0C63E:  MOVLB  0
0C640:  CALL   48DC
0C644:  MOVLW  22
0C646:  BTFSS  F9E.4
0C648:  BRA    C646
0C64A:  MOVWF  FAD
....................          SendDataDisplay(); 
0C64C:  CALL   3924
....................          printf("T%u.txt=\"%3.1fC\"",i+1,TCiclos[i]); 
0C650:  MOVLW  01
0C652:  MOVLB  3
0C654:  ADDWF  x63,W
0C656:  MOVLB  4
0C658:  MOVWF  x43
0C65A:  MOVLB  3
0C65C:  MOVF   x63,W
0C65E:  MULLW  04
0C660:  MOVF   FF3,W
0C662:  CLRF   03
0C664:  ADDLW  CE
0C666:  MOVWF  FE9
0C668:  MOVLW  03
0C66A:  ADDWFC 03,W
0C66C:  MOVWF  FEA
0C66E:  MOVFF  FEF,444
0C672:  MOVFF  FEC,445
0C676:  MOVFF  FEC,446
0C67A:  MOVFF  FEC,447
0C67E:  MOVLW  54
0C680:  BTFSS  F9E.4
0C682:  BRA    C680
0C684:  MOVWF  FAD
0C686:  MOVFF  443,448
0C68A:  MOVLW  1B
0C68C:  MOVLB  4
0C68E:  MOVWF  x49
0C690:  MOVLB  0
0C692:  CALL   48DC
0C696:  MOVLW  9F
0C698:  MOVWF  FF6
0C69A:  MOVLW  11
0C69C:  MOVWF  FF7
0C69E:  MOVLW  00
0C6A0:  MOVWF  FF8
0C6A2:  MOVLW  06
0C6A4:  MOVLB  4
0C6A6:  MOVWF  x48
0C6A8:  MOVLB  0
0C6AA:  CALL   487E
0C6AE:  MOVLW  02
0C6B0:  MOVWF  FE9
0C6B2:  MOVFF  447,44B
0C6B6:  MOVFF  446,44A
0C6BA:  MOVFF  445,449
0C6BE:  MOVFF  444,448
0C6C2:  MOVLW  01
0C6C4:  MOVLB  4
0C6C6:  MOVWF  x4C
0C6C8:  MOVLB  0
0C6CA:  CALL   4A1E
0C6CE:  MOVLW  B0
0C6D0:  BTFSS  F9E.4
0C6D2:  BRA    C6D0
0C6D4:  MOVWF  FAD
0C6D6:  MOVLW  43
0C6D8:  BTFSS  F9E.4
0C6DA:  BRA    C6D8
0C6DC:  MOVWF  FAD
0C6DE:  MOVLW  22
0C6E0:  BTFSS  F9E.4
0C6E2:  BRA    C6E0
0C6E4:  MOVWF  FAD
....................          SendDataDisplay(); 
0C6E6:  CALL   3924
....................          printf("Pc%u.txt=\"%03LukPa\"",i+1,PcCiclos[i]); 
0C6EA:  MOVLW  01
0C6EC:  MOVLB  3
0C6EE:  ADDWF  x63,W
0C6F0:  MOVLB  4
0C6F2:  MOVWF  x43
0C6F4:  BCF    FD8.0
0C6F6:  MOVLB  3
0C6F8:  RLCF   x63,W
0C6FA:  CLRF   03
0C6FC:  ADDLW  EA
0C6FE:  MOVWF  FE9
0C700:  MOVLW  03
0C702:  ADDWFC 03,W
0C704:  MOVWF  FEA
0C706:  MOVFF  FEC,445
0C70A:  MOVF   FED,F
0C70C:  MOVFF  FEF,444
0C710:  MOVLW  50
0C712:  BTFSS  F9E.4
0C714:  BRA    C712
0C716:  MOVWF  FAD
0C718:  MOVLW  63
0C71A:  BTFSS  F9E.4
0C71C:  BRA    C71A
0C71E:  MOVWF  FAD
0C720:  MOVFF  443,448
0C724:  MOVLW  1B
0C726:  MOVLB  4
0C728:  MOVWF  x49
0C72A:  MOVLB  0
0C72C:  CALL   48DC
0C730:  MOVLW  B2
0C732:  MOVWF  FF6
0C734:  MOVLW  11
0C736:  MOVWF  FF7
0C738:  MOVLW  00
0C73A:  MOVWF  FF8
0C73C:  MOVLW  06
0C73E:  MOVLB  4
0C740:  MOVWF  x48
0C742:  MOVLB  0
0C744:  CALL   487E
0C748:  MOVLW  0A
0C74A:  MOVWF  FE9
0C74C:  MOVFF  445,448
0C750:  MOVFF  444,447
0C754:  CALL   4C42
0C758:  MOVLW  BD
0C75A:  MOVWF  FF6
0C75C:  MOVLW  11
0C75E:  MOVWF  FF7
0C760:  MOVLW  00
0C762:  MOVWF  FF8
0C764:  MOVLW  04
0C766:  MOVLB  4
0C768:  MOVWF  x48
0C76A:  MOVLB  0
0C76C:  CALL   487E
....................          SendDataDisplay(); 
0C770:  CALL   3924
....................          printf("Ppc%u.txt=\"%03LukPa\"",i+1,PpcCiclos[i]); 
0C774:  MOVLW  01
0C776:  MOVLB  3
0C778:  ADDWF  x63,W
0C77A:  MOVLB  4
0C77C:  MOVWF  x43
0C77E:  BCF    FD8.0
0C780:  MOVLB  3
0C782:  RLCF   x63,W
0C784:  CLRF   03
0C786:  ADDLW  F8
0C788:  MOVWF  FE9
0C78A:  MOVLW  03
0C78C:  ADDWFC 03,W
0C78E:  MOVWF  FEA
0C790:  MOVFF  FEC,445
0C794:  MOVF   FED,F
0C796:  MOVFF  FEF,444
0C79A:  MOVLW  50
0C79C:  BTFSS  F9E.4
0C79E:  BRA    C79C
0C7A0:  MOVWF  FAD
0C7A2:  MOVLW  70
0C7A4:  BTFSS  F9E.4
0C7A6:  BRA    C7A4
0C7A8:  MOVWF  FAD
0C7AA:  MOVLW  63
0C7AC:  BTFSS  F9E.4
0C7AE:  BRA    C7AC
0C7B0:  MOVWF  FAD
0C7B2:  MOVFF  443,448
0C7B6:  MOVLW  1B
0C7B8:  MOVLB  4
0C7BA:  MOVWF  x49
0C7BC:  MOVLB  0
0C7BE:  CALL   48DC
0C7C2:  MOVLW  C7
0C7C4:  MOVWF  FF6
0C7C6:  MOVLW  11
0C7C8:  MOVWF  FF7
0C7CA:  MOVLW  00
0C7CC:  MOVWF  FF8
0C7CE:  MOVLW  06
0C7D0:  MOVLB  4
0C7D2:  MOVWF  x48
0C7D4:  MOVLB  0
0C7D6:  CALL   487E
0C7DA:  MOVLW  0A
0C7DC:  MOVWF  FE9
0C7DE:  MOVFF  445,448
0C7E2:  MOVFF  444,447
0C7E6:  CALL   4C42
0C7EA:  MOVLW  D2
0C7EC:  MOVWF  FF6
0C7EE:  MOVLW  11
0C7F0:  MOVWF  FF7
0C7F2:  MOVLW  00
0C7F4:  MOVWF  FF8
0C7F6:  MOVLW  04
0C7F8:  MOVLB  4
0C7FA:  MOVWF  x48
0C7FC:  MOVLB  0
0C7FE:  CALL   487E
....................          SendDataDisplay();          
0C802:  CALL   3924
....................          codificaAlarma(); 
0C806:  GOTO   5AD0
....................       }   
0C80A:  MOVLB  3
0C80C:  INCF   x63,F
0C80E:  BRA    C570
....................    } 
.................... //_--------------------------------------------------------------------------------------------------------------------------------------------------------       
....................  
.................... //_--------------------------------------------------------------------------------------------------------------------------------------------------------       
....................     if(Menu==15){//Menu de Clave Correcta 
0C810:  MOVF   x60,W
0C812:  SUBLW  0F
0C814:  BNZ   C84C
....................       if(!entro){ 
0C816:  MOVLB  0
0C818:  BTFSC  xA4.0
0C81A:  BRA    C836
....................          delay_ms(2000); 
0C81C:  MOVLW  08
0C81E:  MOVLB  4
0C820:  MOVWF  x43
0C822:  MOVLW  FA
0C824:  MOVWF  x58
0C826:  MOVLB  0
0C828:  CALL   1A3E
0C82C:  MOVLB  4
0C82E:  DECFSZ x43,F
0C830:  BRA    C822
....................          entro=ON; 
0C832:  MOVLB  0
0C834:  BSF    xA4.0
....................       } 
....................       printf("page MenuPrincipal"); 
0C836:  MOVLW  D8
0C838:  MOVWF  FF6
0C83A:  MOVLW  11
0C83C:  MOVWF  FF7
0C83E:  MOVLW  00
0C840:  MOVWF  FF8
0C842:  CALL   38F2
....................       SendDataDisplay(); 
0C846:  CALL   3924
0C84A:  MOVLB  3
....................    } 
.................... //_--------------------------------------------------------------------------------------------------------------------------------------------------------       
....................  
.................... //_--------------------------------------------------------------------------------------------------------------------------------------------------------       
....................     if(Menu==16){//Menu de Clave InCorrecta 
0C84C:  MOVF   x60,W
0C84E:  SUBLW  10
0C850:  BNZ   C888
....................       if(!entro){ 
0C852:  MOVLB  0
0C854:  BTFSC  xA4.0
0C856:  BRA    C872
....................          delay_ms(2000); 
0C858:  MOVLW  08
0C85A:  MOVLB  4
0C85C:  MOVWF  x43
0C85E:  MOVLW  FA
0C860:  MOVWF  x58
0C862:  MOVLB  0
0C864:  CALL   1A3E
0C868:  MOVLB  4
0C86A:  DECFSZ x43,F
0C86C:  BRA    C85E
....................          entro=ON; 
0C86E:  MOVLB  0
0C870:  BSF    xA4.0
....................       } 
....................       printf("page Clave"); 
0C872:  MOVLW  EC
0C874:  MOVWF  FF6
0C876:  MOVLW  11
0C878:  MOVWF  FF7
0C87A:  MOVLW  00
0C87C:  MOVWF  FF8
0C87E:  CALL   38F2
....................       SendDataDisplay(); 
0C882:  CALL   3924
0C886:  MOVLB  3
....................    } 
.................... //_--------------------------------------------------------------------------------------------------------------------------------------------------------       
....................  
.................... //_--------------------------------------------------------------------------------------------------------------------------------------------------------     
....................    if(Menu==20){ // Este es el menu de cuando el proceso se inicio. 
0C888:  MOVF   x60,W
0C88A:  SUBLW  14
0C88C:  BTFSS  FD8.2
0C88E:  GOTO   D912
....................    //Lectura_Esclavos(); 
....................    GuardaDatoEstatico(); 
0C892:  MOVLB  0
0C894:  GOTO   6150
....................    guardaCiclo=ON; 
0C898:  BSF    xA4.3
....................    if(!Libre){ 
0C89A:  BTFSC  xA3.6
0C89C:  BRA    C922
....................       printf("t2f.txt=\"%u\"",CicloSeleccionado); 
0C89E:  MOVLW  F8
0C8A0:  MOVWF  FF6
0C8A2:  MOVLW  11
0C8A4:  MOVWF  FF7
0C8A6:  MOVLW  00
0C8A8:  MOVWF  FF8
0C8AA:  MOVLW  09
0C8AC:  MOVLB  4
0C8AE:  MOVWF  x48
0C8B0:  MOVLB  0
0C8B2:  CALL   487E
0C8B6:  MOVFF  366,448
0C8BA:  MOVLW  1B
0C8BC:  MOVLB  4
0C8BE:  MOVWF  x49
0C8C0:  MOVLB  0
0C8C2:  CALL   48DC
0C8C6:  MOVLW  22
0C8C8:  BTFSS  F9E.4
0C8CA:  BRA    C8C8
0C8CC:  MOVWF  FAD
....................       SendDataDisplay(); 
0C8CE:  CALL   3924
....................       printf("t3f.txt=\"%s\"",texto[CicloSeleccionado-1]); 
0C8D2:  MOVLW  01
0C8D4:  MOVLB  3
0C8D6:  SUBWF  x66,W
0C8D8:  MULLW  14
0C8DA:  MOVF   FF3,W
0C8DC:  CLRF   03
0C8DE:  MOVLB  4
0C8E0:  MOVWF  x43
0C8E2:  MOVLW  06
0C8E4:  MOVWF  FF6
0C8E6:  MOVLW  12
0C8E8:  MOVWF  FF7
0C8EA:  MOVLW  00
0C8EC:  MOVWF  FF8
0C8EE:  MOVLW  09
0C8F0:  MOVWF  x48
0C8F2:  MOVLB  0
0C8F4:  CALL   487E
0C8F8:  MOVLW  50
0C8FA:  MOVWF  FF6
0C8FC:  MOVLW  01
0C8FE:  MOVWF  FF7
0C900:  MOVLW  00
0C902:  MOVWF  FF8
0C904:  MOVLB  4
0C906:  MOVF   x43,W
0C908:  ADDWF  FF6,F
0C90A:  MOVLW  00
0C90C:  ADDWFC FF7,F
0C90E:  MOVLB  0
0C910:  CALL   38F2
0C914:  MOVLW  22
0C916:  BTFSS  F9E.4
0C918:  BRA    C916
0C91A:  MOVWF  FAD
....................       SendDataDisplay(); 
0C91C:  CALL   3924
....................    }else{ 
0C920:  BRA    C972
....................       printf("t2f.txt=\"%u\"",CicloLibre+4); 
0C922:  MOVLW  04
0C924:  MOVLB  3
0C926:  ADDWF  x3E,W
0C928:  MOVLB  4
0C92A:  MOVWF  x43
0C92C:  MOVLW  14
0C92E:  MOVWF  FF6
0C930:  MOVLW  12
0C932:  MOVWF  FF7
0C934:  MOVLW  00
0C936:  MOVWF  FF8
0C938:  MOVLW  09
0C93A:  MOVWF  x48
0C93C:  MOVLB  0
0C93E:  CALL   487E
0C942:  MOVFF  443,448
0C946:  MOVLW  1B
0C948:  MOVLB  4
0C94A:  MOVWF  x49
0C94C:  MOVLB  0
0C94E:  CALL   48DC
0C952:  MOVLW  22
0C954:  BTFSS  F9E.4
0C956:  BRA    C954
0C958:  MOVWF  FAD
....................       SendDataDisplay(); 
0C95A:  CALL   3924
....................       printf("t3f.txt=\"Personalizado\""); 
0C95E:  MOVLW  22
0C960:  MOVWF  FF6
0C962:  MOVLW  12
0C964:  MOVWF  FF7
0C966:  MOVLW  00
0C968:  MOVWF  FF8
0C96A:  CALL   38F2
....................       SendDataDisplay(); 
0C96E:  CALL   3924
....................    } 
....................     
....................    if(RIGHT){ 
0C972:  BSF    F93.2
0C974:  BTFSC  F81.2
0C976:  BRA    C98E
....................       //glcd_init(ON); 
....................       delay_ms(1000); 
0C978:  MOVLW  04
0C97A:  MOVLB  4
0C97C:  MOVWF  x43
0C97E:  MOVLW  FA
0C980:  MOVWF  x58
0C982:  MOVLB  0
0C984:  CALL   1A3E
0C988:  MOVLB  4
0C98A:  DECFSZ x43,F
0C98C:  BRA    C97E
....................       /*flagCalentando=OFF; 
....................       flagDesfogando=OFF; 
....................       flagEsterilizando=OFF;*/ 
....................    } 
....................     
....................    if(PresionCamara>Atmosferica+275){ 
0C98E:  MOVLW  13
0C990:  MOVLB  3
0C992:  ADDWF  xB2,W
0C994:  MOVWF  01
0C996:  MOVLW  01
0C998:  MOVWF  03
0C99A:  BTFSC  FD8.0
0C99C:  INCF   03,F
0C99E:  MOVF   03,W
0C9A0:  SUBWF  x7A,W
0C9A2:  BNC   C9B0
0C9A4:  BNZ   C9AC
0C9A6:  MOVF   x79,W
0C9A8:  SUBWF  01,W
0C9AA:  BC    C9B0
....................       AlarmaPresion=ON; 
0C9AC:  MOVLB  0
0C9AE:  BSF    xA3.5
....................    } 
....................     
....................    if(Temperatura>105 && PresionCamara<Atmosferica+10 && !Desfogando){ 
0C9B0:  MOVLB  4
0C9B2:  CLRF   x4E
0C9B4:  CLRF   x4D
0C9B6:  MOVLW  52
0C9B8:  MOVWF  x4C
0C9BA:  MOVLW  85
0C9BC:  MOVWF  x4B
0C9BE:  MOVFF  32B,452
0C9C2:  MOVFF  32A,451
0C9C6:  MOVFF  329,450
0C9CA:  MOVFF  328,44F
0C9CE:  MOVLB  0
0C9D0:  CALL   2D72
0C9D4:  BNC   C9F8
0C9D6:  MOVLW  0A
0C9D8:  MOVLB  3
0C9DA:  ADDWF  xB2,W
0C9DC:  MOVF   x7A,F
0C9DE:  BTFSC  FD8.2
0C9E0:  BRA    C9E6
0C9E2:  MOVLB  0
0C9E4:  BRA    C9F8
0C9E6:  SUBWF  x79,W
0C9E8:  BTFSS  FD8.0
0C9EA:  BRA    C9F0
0C9EC:  MOVLB  0
0C9EE:  BRA    C9F8
0C9F0:  MOVLB  0
0C9F2:  BTFSC  xA0.5
0C9F4:  BRA    C9F8
....................       AlarmaCiclo=ON; 
0C9F6:  BSF    x9F.6
....................    } 
....................     
....................    if(TiempoCiclo>3000){ 
0C9F8:  MOVF   xA6,W
0C9FA:  SUBLW  0A
0C9FC:  BC    CA32
0C9FE:  XORLW  FF
0CA00:  BNZ   CA08
0CA02:  MOVF   xA5,W
0CA04:  SUBLW  B8
0CA06:  BC    CA32
....................       if(TiempoCiclo>5000) 
0CA08:  MOVF   xA6,W
0CA0A:  SUBLW  12
0CA0C:  BC    CA1A
0CA0E:  XORLW  FF
0CA10:  BNZ   CA18
0CA12:  MOVF   xA5,W
0CA14:  SUBLW  88
0CA16:  BC    CA1A
....................          AlarmaTiempoProlongado=ON; 
0CA18:  BSF    x9F.0
....................       if(PresionCamara<Atmosferica+10){ 
0CA1A:  MOVLW  0A
0CA1C:  MOVLB  3
0CA1E:  ADDWF  xB2,W
0CA20:  MOVF   x7A,F
0CA22:  BNZ   CA2E
0CA24:  SUBWF  x79,W
0CA26:  BC    CA2E
....................          AlarmaTiempoProlongado=ON; 
0CA28:  MOVLB  0
0CA2A:  BSF    x9F.0
0CA2C:  MOVLB  3
....................       } 
....................    }else{ 
0CA2E:  BRA    CA34
0CA30:  MOVLB  0
....................       AlarmaTiempoProlongado=OFF; 
0CA32:  BCF    x9F.0
....................    } 
....................     
....................    if(Temperatura>Setpoint+3.0){ 
0CA34:  MOVLB  4
0CA36:  CLRF   x59
0CA38:  MOVFF  367,458
0CA3C:  MOVLB  0
0CA3E:  CALL   1A66
0CA42:  BCF    FD8.1
0CA44:  MOVFF  03,45B
0CA48:  MOVFF  02,45A
0CA4C:  MOVFF  01,459
0CA50:  MOVFF  00,458
0CA54:  MOVLB  4
0CA56:  CLRF   x5F
0CA58:  CLRF   x5E
0CA5A:  MOVLW  40
0CA5C:  MOVWF  x5D
0CA5E:  MOVLW  80
0CA60:  MOVWF  x5C
0CA62:  MOVLB  0
0CA64:  CALL   1BFA
0CA68:  MOVFF  03,44E
0CA6C:  MOVFF  02,44D
0CA70:  MOVFF  01,44C
0CA74:  MOVFF  00,44B
0CA78:  MOVFF  32B,452
0CA7C:  MOVFF  32A,451
0CA80:  MOVFF  329,450
0CA84:  MOVFF  328,44F
0CA88:  CALL   2D72
0CA8C:  BNC   CA90
....................       AlarmaSobreTemperatura=ON; 
0CA8E:  BSF    x9F.1
....................    } 
....................     
....................    if(TiempoLlenado>1800){ 
0CA90:  MOVF   xA8,W
0CA92:  SUBLW  06
0CA94:  BC    CAA4
0CA96:  XORLW  FF
0CA98:  BNZ   CAA0
0CA9A:  MOVF   xA7,W
0CA9C:  SUBLW  08
0CA9E:  BC    CAA4
....................       AlarmaLlenado=ON; 
0CAA0:  BSF    x9F.2
....................    }else{ 
0CAA2:  BRA    CAA6
....................       AlarmaLlenado=OFF; 
0CAA4:  BCF    x9F.2
....................    } 
....................     
....................    if(tTermostato>=2000){ 
0CAA6:  MOVLB  3
0CAA8:  MOVF   xA1,W
0CAAA:  SUBLW  06
0CAAC:  BC    CABE
0CAAE:  XORLW  FF
0CAB0:  BNZ   CAB8
0CAB2:  MOVF   xA0,W
0CAB4:  SUBLW  CF
0CAB6:  BC    CABE
....................       AlarmaTermostato=ON; 
0CAB8:  MOVLB  0
0CABA:  BSF    x9F.3
0CABC:  MOVLB  3
....................    } 
....................     
....................    if(!DOOR){ 
0CABE:  BSF    F93.6
0CAC0:  BTFSS  F81.6
0CAC2:  BRA    CADC
....................       #ifdef Reservorio 
....................          if(!Secando && !Finalizo && !Desfogando){ 
....................             AlarmaPuerta=ON; 
....................          } 
....................       #else 
....................          if(!Secando && !Finalizo && !Desfogando && CalderinLleno){ 
0CAC4:  MOVLB  0
0CAC6:  BTFSC  xA0.3
0CAC8:  BRA    CAD8
0CACA:  BTFSC  xA3.4
0CACC:  BRA    CAD8
0CACE:  BTFSC  xA0.5
0CAD0:  BRA    CAD8
0CAD2:  BTFSS  xA0.0
0CAD4:  BRA    CAD8
....................             AlarmaPuerta=ON; 
0CAD6:  BSF    x9F.4
....................          } 
....................       #endif 
....................    }else{ 
0CAD8:  BRA    CAE0
0CADA:  MOVLB  3
....................       AlarmaPuerta=OFF; 
0CADC:  MOVLB  0
0CADE:  BCF    x9F.4
....................    } 
....................  
....................    if(tStop>=300){ 
0CAE0:  MOVLB  3
0CAE2:  MOVF   x9F,W
0CAE4:  SUBLW  00
0CAE6:  BC    CAF8
0CAE8:  XORLW  FF
0CAEA:  BNZ   CAF2
0CAEC:  MOVF   x9E,W
0CAEE:  SUBLW  2B
0CAF0:  BC    CAF8
....................       AlarmaEmergencia=ON; 
0CAF2:  MOVLB  0
0CAF4:  BSF    x9F.5
0CAF6:  MOVLB  3
....................    } 
....................     
....................    if(AlarmaPuerta || AlarmaTermostato || AlarmaLlenado || AlarmaSobreTemperatura || AlarmaTiempoProlongado || AlarmaEmergencia || AlarmaPresion 
....................    || AlarmaCiclo){ 
0CAF8:  MOVLB  0
0CAFA:  BTFSC  x9F.4
0CAFC:  BRA    CB1A
0CAFE:  BTFSC  x9F.3
0CB00:  BRA    CB1A
0CB02:  BTFSC  x9F.2
0CB04:  BRA    CB1A
0CB06:  BTFSC  x9F.1
0CB08:  BRA    CB1A
0CB0A:  BTFSC  x9F.0
0CB0C:  BRA    CB1A
0CB0E:  BTFSC  x9F.5
0CB10:  BRA    CB1A
0CB12:  BTFSC  xA3.5
0CB14:  BRA    CB1A
0CB16:  BTFSS  x9F.6
0CB18:  BRA    CF76
....................       ActivaAlarma(1); 
0CB1A:  MOVLW  01
0CB1C:  MOVLB  4
0CB1E:  MOVWF  x43
0CB20:  MOVLB  0
0CB22:  CALL   477C
....................       if(AlarmaEmergencia){ 
0CB26:  BTFSS  x9F.5
0CB28:  BRA    CBB2
....................          printf("Funcionamiento.t4f.txt=\" Parada de Emergencia\""); 
0CB2A:  MOVLW  3A
0CB2C:  MOVWF  FF6
0CB2E:  MOVLW  12
0CB30:  MOVWF  FF7
0CB32:  MOVLW  00
0CB34:  MOVWF  FF8
0CB36:  CALL   38F2
....................          SendDataDisplay(); 
0CB3A:  CALL   3924
....................          printf("Funcionamiento.t5f.txt=\" Cancelado\""); 
0CB3E:  MOVLW  6A
0CB40:  MOVWF  FF6
0CB42:  MOVLW  12
0CB44:  MOVWF  FF7
0CB46:  MOVLW  00
0CB48:  MOVWF  FF8
0CB4A:  CALL   38F2
....................          SendDataDisplay(); 
0CB4E:  CALL   3924
....................          Desfogue_on; 
0CB52:  BSF    F8C.4
0CB54:  BCF    F95.4
....................          SSR_off; 
0CB56:  BSF    F8B.2
0CB58:  BCF    F94.2
....................          Agua_off; 
0CB5A:  BCF    F8C.5
0CB5C:  BCF    F95.5
....................          #ifdef Enfriador 
....................          Enfr_on; 
0CB5E:  BSF    F8C.6
0CB60:  BCF    F95.6
....................          #else 
....................          Bomba_off; 
....................          #endif 
....................          Aire=OFF; 
0CB62:  BCF    xA4.1
....................          Esterilizando=OFF; 
0CB64:  BCF    xA0.2
....................          Desfogando=OFF; 
0CB66:  BCF    xA0.5
....................          DesfogueSuave=OFF; 
0CB68:  BCF    xA0.6
....................          Esterilizando=OFF; 
0CB6A:  BCF    xA0.2
....................          //IniciaCiclo=OFF; 
....................          Controlando=0; 
0CB6C:  MOVLB  3
0CB6E:  CLRF   x58
....................          codigoAlarma=1; 
0CB70:  MOVLW  01
0CB72:  MOVLB  2
0CB74:  MOVWF  xE6
....................          if(codigoAnt!=codigoAlarma){ 
0CB76:  MOVF   xE6,W
0CB78:  SUBWF  xE7,W
0CB7A:  BZ    CB8A
....................             codigoAnt=codigoAlarma; 
0CB7C:  MOVFF  2E6,2E7
....................             GuardaDatoCiclo(); 
0CB80:  MOVLB  0
0CB82:  CALL   640C
....................             incrementaCiclos(); 
0CB86:  CALL   67B0
....................          } 
....................          if(!flagImprimir){ 
0CB8A:  MOVLB  3
0CB8C:  BTFSC  x55.4
0CB8E:  BRA    CBAE
....................             Imprime=20; 
0CB90:  MOVLW  14
0CB92:  MOVWF  xB1
....................             Envio_Esclavos(); 
0CB94:  MOVLB  0
0CB96:  CALL   46BA
....................             delay_ms(100); 
0CB9A:  MOVLW  64
0CB9C:  MOVLB  4
0CB9E:  MOVWF  x58
0CBA0:  MOVLB  0
0CBA2:  CALL   1A3E
....................             Imprime=10; 
0CBA6:  MOVLW  0A
0CBA8:  MOVLB  3
0CBAA:  MOVWF  xB1
....................             flagImprimir=1; 
0CBAC:  BSF    x55.4
....................          } 
....................       }else if(AlarmaPuerta){ 
0CBAE:  BRA    CF70
0CBB0:  MOVLB  0
0CBB2:  BTFSS  x9F.4
0CBB4:  BRA    CC16
....................             codigoAlarma=2; 
0CBB6:  MOVLW  02
0CBB8:  MOVLB  2
0CBBA:  MOVWF  xE6
....................             printf("Funcionamiento.t4f.txt=\" Puerta Abierta\""); 
0CBBC:  MOVLW  8E
0CBBE:  MOVWF  FF6
0CBC0:  MOVLW  12
0CBC2:  MOVWF  FF7
0CBC4:  MOVLW  00
0CBC6:  MOVWF  FF8
0CBC8:  MOVLB  0
0CBCA:  CALL   38F2
....................             SendDataDisplay(); 
0CBCE:  CALL   3924
....................             printf("Funcionamiento.t5f.txt=\" Pausado\""); 
0CBD2:  MOVLW  B8
0CBD4:  MOVWF  FF6
0CBD6:  MOVLW  12
0CBD8:  MOVWF  FF7
0CBDA:  MOVLW  00
0CBDC:  MOVWF  FF8
0CBDE:  CALL   38F2
....................             SendDataDisplay(); 
0CBE2:  CALL   3924
....................             SSR_off; 
0CBE6:  BSF    F8B.2
0CBE8:  BCF    F94.2
....................             Agua_off; 
0CBEA:  BCF    F8C.5
0CBEC:  BCF    F95.5
....................             #ifdef Enfriador 
....................             Enfr_off; 
0CBEE:  BCF    F8C.6
0CBF0:  BCF    F95.6
....................             #else 
....................             Bomba_off; 
....................             #endif 
....................             Aire=OFF; 
0CBF2:  BCF    xA4.1
....................             IniciaLlenado=OFF; 
0CBF4:  BCF    x9F.7
....................             IniciaCiclo=OFF; 
0CBF6:  BCF    xA0.1
....................             Esterilizando=OFF; 
0CBF8:  BCF    xA0.2
....................             Controlando=0; 
0CBFA:  MOVLB  3
0CBFC:  CLRF   x58
....................             if(codigoAnt!=codigoAlarma){ 
0CBFE:  MOVLB  2
0CC00:  MOVF   xE6,W
0CC02:  SUBWF  xE7,W
0CC04:  BZ    CC12
....................                codigoAnt=codigoAlarma; 
0CC06:  MOVFF  2E6,2E7
....................                GuardaDatoCiclo(); 
0CC0A:  MOVLB  0
0CC0C:  CALL   640C
0CC10:  MOVLB  2
....................                //incrementaCiclos(); 
....................             } 
....................       }else if(AlarmaLlenado){ 
0CC12:  BRA    CF72
0CC14:  MOVLB  0
0CC16:  BTFSS  x9F.2
0CC18:  BRA    CCA4
....................             codigoAlarma=8; 
0CC1A:  MOVLW  08
0CC1C:  MOVLB  2
0CC1E:  MOVWF  xE6
....................             printf("Funcionamiento.t4f.txt=\" Tiempo Llenado\""); 
0CC20:  MOVLW  DA
0CC22:  MOVWF  FF6
0CC24:  MOVLW  12
0CC26:  MOVWF  FF7
0CC28:  MOVLW  00
0CC2A:  MOVWF  FF8
0CC2C:  MOVLB  0
0CC2E:  CALL   38F2
....................             SendDataDisplay(); 
0CC32:  CALL   3924
....................             printf("Funcionamiento.t5f.txt=\" Cancelado\""); 
0CC36:  MOVLW  04
0CC38:  MOVWF  FF6
0CC3A:  MOVLW  13
0CC3C:  MOVWF  FF7
0CC3E:  MOVLW  00
0CC40:  MOVWF  FF8
0CC42:  CALL   38F2
....................             SendDataDisplay(); 
0CC46:  CALL   3924
....................             Desfogue_off; 
0CC4A:  BCF    F8C.4
0CC4C:  BCF    F95.4
....................             SSR_off; 
0CC4E:  BSF    F8B.2
0CC50:  BCF    F94.2
....................             Agua_off; 
0CC52:  BCF    F8C.5
0CC54:  BCF    F95.5
....................             #ifdef Enfriador 
....................             Enfr_on; 
0CC56:  BSF    F8C.6
0CC58:  BCF    F95.6
....................             #else 
....................             Bomba_off; 
....................             #endif 
....................             Aire=OFF; 
0CC5A:  BCF    xA4.1
....................             IniciaLlenado=OFF; 
0CC5C:  BCF    x9F.7
....................             IniciaCiclo=OFF; 
0CC5E:  BCF    xA0.1
....................             Esterilizando=OFF; 
0CC60:  BCF    xA0.2
....................             Controlando=0; 
0CC62:  MOVLB  3
0CC64:  CLRF   x58
....................             if(codigoAnt!=codigoAlarma){ 
0CC66:  MOVLB  2
0CC68:  MOVF   xE6,W
0CC6A:  SUBWF  xE7,W
0CC6C:  BZ    CC7C
....................                codigoAnt=codigoAlarma; 
0CC6E:  MOVFF  2E6,2E7
....................                GuardaDatoCiclo(); 
0CC72:  MOVLB  0
0CC74:  CALL   640C
....................                incrementaCiclos(); 
0CC78:  CALL   67B0
....................             } 
....................             if(!flagImprimir){ 
0CC7C:  MOVLB  3
0CC7E:  BTFSC  x55.4
0CC80:  BRA    CCA0
....................                Imprime=21; 
0CC82:  MOVLW  15
0CC84:  MOVWF  xB1
....................                Envio_Esclavos(); 
0CC86:  MOVLB  0
0CC88:  CALL   46BA
....................                delay_ms(100); 
0CC8C:  MOVLW  64
0CC8E:  MOVLB  4
0CC90:  MOVWF  x58
0CC92:  MOVLB  0
0CC94:  CALL   1A3E
....................                Imprime=10; 
0CC98:  MOVLW  0A
0CC9A:  MOVLB  3
0CC9C:  MOVWF  xB1
....................                flagImprimir=1; 
0CC9E:  BSF    x55.4
....................             } 
....................       }else if(AlarmaTermostato){ // Alarma de Termostato 
0CCA0:  BRA    CF70
0CCA2:  MOVLB  0
0CCA4:  BTFSS  x9F.3
0CCA6:  BRA    CD38
....................             codigoAlarma=3; 
0CCA8:  MOVLW  03
0CCAA:  MOVLB  2
0CCAC:  MOVWF  xE6
....................             tiempo_esterilizacion=0;tiempo_secado=0; 
0CCAE:  MOVLB  3
0CCB0:  CLRF   x6A
0CCB2:  CLRF   x6B
....................             printf("Funcionamiento.t4f.txt=\" Termostato\""); 
0CCB4:  MOVLW  28
0CCB6:  MOVWF  FF6
0CCB8:  MOVLW  13
0CCBA:  MOVWF  FF7
0CCBC:  MOVLW  00
0CCBE:  MOVWF  FF8
0CCC0:  MOVLB  0
0CCC2:  CALL   38F2
....................             SendDataDisplay(); 
0CCC6:  CALL   3924
....................             printf("Funcionamiento.t5f.txt=\" Cancelado\""); 
0CCCA:  MOVLW  4E
0CCCC:  MOVWF  FF6
0CCCE:  MOVLW  13
0CCD0:  MOVWF  FF7
0CCD2:  MOVLW  00
0CCD4:  MOVWF  FF8
0CCD6:  CALL   38F2
....................             SendDataDisplay(); 
0CCDA:  CALL   3924
....................             Desfogue_on;             
0CCDE:  BSF    F8C.4
0CCE0:  BCF    F95.4
....................             SSR_off; 
0CCE2:  BSF    F8B.2
0CCE4:  BCF    F94.2
....................             Agua_off; 
0CCE6:  BCF    F8C.5
0CCE8:  BCF    F95.5
....................             #ifdef Enfriador 
....................             Enfr_on; 
0CCEA:  BSF    F8C.6
0CCEC:  BCF    F95.6
....................             #else 
....................             Bomba_off; 
....................             #endif 
....................             Aire=OFF; 
0CCEE:  BCF    xA4.1
....................             Esterilizando=OFF; 
0CCF0:  BCF    xA0.2
....................             Desfogando=OFF; 
0CCF2:  BCF    xA0.5
....................             IniciaCiclo=OFF; 
0CCF4:  BCF    xA0.1
....................             Controlando=0; 
0CCF6:  MOVLB  3
0CCF8:  CLRF   x58
....................             if(codigoAnt!=codigoAlarma){ 
0CCFA:  MOVLB  2
0CCFC:  MOVF   xE6,W
0CCFE:  SUBWF  xE7,W
0CD00:  BZ    CD10
....................                codigoAnt=codigoAlarma; 
0CD02:  MOVFF  2E6,2E7
....................                GuardaDatoCiclo(); 
0CD06:  MOVLB  0
0CD08:  CALL   640C
....................                incrementaCiclos(); 
0CD0C:  CALL   67B0
....................             } 
....................             if(!flagImprimir){ 
0CD10:  MOVLB  3
0CD12:  BTFSC  x55.4
0CD14:  BRA    CD34
....................                Imprime=22; 
0CD16:  MOVLW  16
0CD18:  MOVWF  xB1
....................                Envio_Esclavos(); 
0CD1A:  MOVLB  0
0CD1C:  CALL   46BA
....................                delay_ms(100); 
0CD20:  MOVLW  64
0CD22:  MOVLB  4
0CD24:  MOVWF  x58
0CD26:  MOVLB  0
0CD28:  CALL   1A3E
....................                Imprime=10; 
0CD2C:  MOVLW  0A
0CD2E:  MOVLB  3
0CD30:  MOVWF  xB1
....................                flagImprimir=1; 
0CD32:  BSF    x55.4
....................             } 
....................       }else if(AlarmaSobreTemperatura){ // Alarma de Sobre Temperatura 
0CD34:  BRA    CF70
0CD36:  MOVLB  0
0CD38:  BTFSS  x9F.1
0CD3A:  BRA    CDCE
....................          codigoAlarma=4; 
0CD3C:  MOVLW  04
0CD3E:  MOVLB  2
0CD40:  MOVWF  xE6
....................          tiempo_esterilizacion=0;tiempo_secado=0; 
0CD42:  MOVLB  3
0CD44:  CLRF   x6A
0CD46:  CLRF   x6B
....................          printf("Funcionamiento.t4f.txt=\" Sobretemperatura\""); 
0CD48:  MOVLW  72
0CD4A:  MOVWF  FF6
0CD4C:  MOVLW  13
0CD4E:  MOVWF  FF7
0CD50:  MOVLW  00
0CD52:  MOVWF  FF8
0CD54:  MOVLB  0
0CD56:  CALL   38F2
....................          SendDataDisplay(); 
0CD5A:  CALL   3924
....................          printf("Funcionamiento.t5f.txt=\" Cancelado\""); 
0CD5E:  MOVLW  9E
0CD60:  MOVWF  FF6
0CD62:  MOVLW  13
0CD64:  MOVWF  FF7
0CD66:  MOVLW  00
0CD68:  MOVWF  FF8
0CD6A:  CALL   38F2
....................          SendDataDisplay();   
0CD6E:  CALL   3924
....................          Desfogue_on; 
0CD72:  BSF    F8C.4
0CD74:  BCF    F95.4
....................          SSR_off; 
0CD76:  BSF    F8B.2
0CD78:  BCF    F94.2
....................          Agua_off; 
0CD7A:  BCF    F8C.5
0CD7C:  BCF    F95.5
....................          #ifdef Enfriador 
....................          Enfr_on; 
0CD7E:  BSF    F8C.6
0CD80:  BCF    F95.6
....................          #else 
....................          Bomba_off; 
....................          #endif 
....................          Aire=OFF; 
0CD82:  BCF    xA4.1
....................          Controlando=0; 
0CD84:  MOVLB  3
0CD86:  CLRF   x58
....................          IniciaLlenado=OFF; 
0CD88:  MOVLB  0
0CD8A:  BCF    x9F.7
....................          IniciaCiclo=OFF; 
0CD8C:  BCF    xA0.1
....................          Esterilizando=OFF; 
0CD8E:  BCF    xA0.2
....................          if(codigoAnt!=codigoAlarma){ 
0CD90:  MOVLB  2
0CD92:  MOVF   xE6,W
0CD94:  SUBWF  xE7,W
0CD96:  BZ    CDA6
....................             codigoAnt=codigoAlarma; 
0CD98:  MOVFF  2E6,2E7
....................             GuardaDatoCiclo(); 
0CD9C:  MOVLB  0
0CD9E:  CALL   640C
....................             incrementaCiclos(); 
0CDA2:  CALL   67B0
....................          } 
....................          if(!flagImprimir){ 
0CDA6:  MOVLB  3
0CDA8:  BTFSC  x55.4
0CDAA:  BRA    CDCA
....................             Imprime=23; 
0CDAC:  MOVLW  17
0CDAE:  MOVWF  xB1
....................             Envio_Esclavos(); 
0CDB0:  MOVLB  0
0CDB2:  CALL   46BA
....................             delay_ms(100); 
0CDB6:  MOVLW  64
0CDB8:  MOVLB  4
0CDBA:  MOVWF  x58
0CDBC:  MOVLB  0
0CDBE:  CALL   1A3E
....................             Imprime=10; 
0CDC2:  MOVLW  0A
0CDC4:  MOVLB  3
0CDC6:  MOVWF  xB1
....................             flagImprimir=1; 
0CDC8:  BSF    x55.4
....................          } 
....................       }else if(AlarmaTiempoProlongado){ // Alarma de Error de Tiempo: Error por exceso de tiempo de calentamiento. 
0CDCA:  BRA    CF70
0CDCC:  MOVLB  0
0CDCE:  BTFSS  x9F.0
0CDD0:  BRA    CE5E
....................          codigoAlarma=5; 
0CDD2:  MOVLW  05
0CDD4:  MOVLB  2
0CDD6:  MOVWF  xE6
....................          printf("Funcionamiento.t4f.txt=\" Tiempo Prolongado\""); 
0CDD8:  MOVLW  C2
0CDDA:  MOVWF  FF6
0CDDC:  MOVLW  13
0CDDE:  MOVWF  FF7
0CDE0:  MOVLW  00
0CDE2:  MOVWF  FF8
0CDE4:  MOVLB  0
0CDE6:  CALL   38F2
....................          SendDataDisplay(); 
0CDEA:  CALL   3924
....................          printf("Funcionamiento.t5f.txt=\" Cancelado\""); 
0CDEE:  MOVLW  EE
0CDF0:  MOVWF  FF6
0CDF2:  MOVLW  13
0CDF4:  MOVWF  FF7
0CDF6:  MOVLW  00
0CDF8:  MOVWF  FF8
0CDFA:  CALL   38F2
....................          SendDataDisplay(); 
0CDFE:  CALL   3924
....................          Desfogue_on; 
0CE02:  BSF    F8C.4
0CE04:  BCF    F95.4
....................          SSR_off; 
0CE06:  BSF    F8B.2
0CE08:  BCF    F94.2
....................          Agua_off; 
0CE0A:  BCF    F8C.5
0CE0C:  BCF    F95.5
....................          #ifdef Enfriador 
....................          Enfr_on; 
0CE0E:  BSF    F8C.6
0CE10:  BCF    F95.6
....................          #else 
....................          Bomba_off; 
....................          #endif 
....................          Aire=OFF; 
0CE12:  BCF    xA4.1
....................          Controlando=0; 
0CE14:  MOVLB  3
0CE16:  CLRF   x58
....................          IniciaLlenado=OFF; 
0CE18:  MOVLB  0
0CE1A:  BCF    x9F.7
....................          IniciaCiclo=OFF; 
0CE1C:  BCF    xA0.1
....................          Esterilizando=OFF; 
0CE1E:  BCF    xA0.2
....................          if(codigoAnt!=codigoAlarma){ 
0CE20:  MOVLB  2
0CE22:  MOVF   xE6,W
0CE24:  SUBWF  xE7,W
0CE26:  BZ    CE36
....................             codigoAnt=codigoAlarma; 
0CE28:  MOVFF  2E6,2E7
....................             GuardaDatoCiclo(); 
0CE2C:  MOVLB  0
0CE2E:  CALL   640C
....................             incrementaCiclos(); 
0CE32:  CALL   67B0
....................          } 
....................          if(!flagImprimir){ 
0CE36:  MOVLB  3
0CE38:  BTFSC  x55.4
0CE3A:  BRA    CE5A
....................             Imprime=24; 
0CE3C:  MOVLW  18
0CE3E:  MOVWF  xB1
....................             Envio_Esclavos(); 
0CE40:  MOVLB  0
0CE42:  CALL   46BA
....................             delay_ms(100); 
0CE46:  MOVLW  64
0CE48:  MOVLB  4
0CE4A:  MOVWF  x58
0CE4C:  MOVLB  0
0CE4E:  CALL   1A3E
....................             Imprime=10; 
0CE52:  MOVLW  0A
0CE54:  MOVLB  3
0CE56:  MOVWF  xB1
....................             flagImprimir=1; 
0CE58:  BSF    x55.4
....................          } 
....................       }else if(AlarmaPresion){ // Alarma de Error de SobrePresion: Error por exceso de Presion. 
0CE5A:  BRA    CF70
0CE5C:  MOVLB  0
0CE5E:  BTFSS  xA3.5
0CE60:  BRA    CEEC
....................          codigoAlarma=6; 
0CE62:  MOVLW  06
0CE64:  MOVLB  2
0CE66:  MOVWF  xE6
....................          printf("Funcionamiento.t4f.txt=\" SobrePresin\""); 
0CE68:  MOVLW  12
0CE6A:  MOVWF  FF6
0CE6C:  MOVLW  14
0CE6E:  MOVWF  FF7
0CE70:  MOVLW  00
0CE72:  MOVWF  FF8
0CE74:  MOVLB  0
0CE76:  CALL   38F2
....................          SendDataDisplay(); 
0CE7A:  CALL   3924
....................          printf("Funcionamiento.t5f.txt=\" Cancelado\""); 
0CE7E:  MOVLW  3A
0CE80:  MOVWF  FF6
0CE82:  MOVLW  14
0CE84:  MOVWF  FF7
0CE86:  MOVLW  00
0CE88:  MOVWF  FF8
0CE8A:  CALL   38F2
....................          SendDataDisplay(); 
0CE8E:  CALL   3924
....................          Desfogue_on; 
0CE92:  BSF    F8C.4
0CE94:  BCF    F95.4
....................          SSR_off; 
0CE96:  BSF    F8B.2
0CE98:  BCF    F94.2
....................          IniciaLlenado=OFF; 
0CE9A:  BCF    x9F.7
....................          IniciaCiclo=OFF; 
0CE9C:  BCF    xA0.1
....................          Esterilizando=OFF; 
0CE9E:  BCF    xA0.2
....................          Agua_off; 
0CEA0:  BCF    F8C.5
0CEA2:  BCF    F95.5
....................          #ifdef Enfriador 
....................          Enfr_on; 
0CEA4:  BSF    F8C.6
0CEA6:  BCF    F95.6
....................          #else 
....................          Bomba_off; 
....................          #endif 
....................          Aire=OFF; 
0CEA8:  BCF    xA4.1
....................          Controlando=0; 
0CEAA:  MOVLB  3
0CEAC:  CLRF   x58
....................          if(codigoAnt!=codigoAlarma){ 
0CEAE:  MOVLB  2
0CEB0:  MOVF   xE6,W
0CEB2:  SUBWF  xE7,W
0CEB4:  BZ    CEC4
....................             codigoAnt=codigoAlarma; 
0CEB6:  MOVFF  2E6,2E7
....................             GuardaDatoCiclo(); 
0CEBA:  MOVLB  0
0CEBC:  CALL   640C
....................             incrementaCiclos(); 
0CEC0:  CALL   67B0
....................          } 
....................          if(!flagImprimir){ 
0CEC4:  MOVLB  3
0CEC6:  BTFSC  x55.4
0CEC8:  BRA    CEE8
....................             Imprime=25; 
0CECA:  MOVLW  19
0CECC:  MOVWF  xB1
....................             Envio_Esclavos(); 
0CECE:  MOVLB  0
0CED0:  CALL   46BA
....................             delay_ms(100); 
0CED4:  MOVLW  64
0CED6:  MOVLB  4
0CED8:  MOVWF  x58
0CEDA:  MOVLB  0
0CEDC:  CALL   1A3E
....................             Imprime=10; 
0CEE0:  MOVLW  0A
0CEE2:  MOVLB  3
0CEE4:  MOVWF  xB1
....................             flagImprimir=1; 
0CEE6:  BSF    x55.4
....................          } 
....................       }else if(AlarmaCiclo){ // Alarma de Error de SobrePresion: Error por exceso de Presion. 
0CEE8:  BRA    CF70
0CEEA:  MOVLB  0
0CEEC:  BTFSS  x9F.6
0CEEE:  BRA    CF70
....................          codigoAlarma=7; 
0CEF0:  MOVLW  07
0CEF2:  MOVLB  2
0CEF4:  MOVWF  xE6
....................          printf("Funcionamiento.t4f.txt=\" Error Ciclo\""); 
0CEF6:  MOVLW  5E
0CEF8:  MOVWF  FF6
0CEFA:  MOVLW  14
0CEFC:  MOVWF  FF7
0CEFE:  MOVLW  00
0CF00:  MOVWF  FF8
0CF02:  MOVLB  0
0CF04:  CALL   38F2
....................          SendDataDisplay(); 
0CF08:  CALL   3924
....................          printf("Funcionamiento.t5f.txt=\" Cancelado\""); 
0CF0C:  MOVLW  84
0CF0E:  MOVWF  FF6
0CF10:  MOVLW  14
0CF12:  MOVWF  FF7
0CF14:  MOVLW  00
0CF16:  MOVWF  FF8
0CF18:  CALL   38F2
....................          SendDataDisplay(); 
0CF1C:  CALL   3924
....................          Desfogue_on; 
0CF20:  BSF    F8C.4
0CF22:  BCF    F95.4
....................          SSR_off; 
0CF24:  BSF    F8B.2
0CF26:  BCF    F94.2
....................          #ifdef Enfriador 
....................          Enfr_off; 
0CF28:  BCF    F8C.6
0CF2A:  BCF    F95.6
....................          #else 
....................          Bomba_off; 
....................          #endif 
....................          IniciaLlenado=OFF; 
0CF2C:  BCF    x9F.7
....................          IniciaCiclo=OFF; 
0CF2E:  BCF    xA0.1
....................          Esterilizando=OFF; 
0CF30:  BCF    xA0.2
....................          Controlando=0; 
0CF32:  MOVLB  3
0CF34:  CLRF   x58
....................          if(codigoAnt!=codigoAlarma){ 
0CF36:  MOVLB  2
0CF38:  MOVF   xE6,W
0CF3A:  SUBWF  xE7,W
0CF3C:  BZ    CF4C
....................             codigoAnt=codigoAlarma; 
0CF3E:  MOVFF  2E6,2E7
....................             GuardaDatoCiclo(); 
0CF42:  MOVLB  0
0CF44:  CALL   640C
....................             incrementaCiclos(); 
0CF48:  CALL   67B0
....................          } 
....................          if(!flagImprimir){ 
0CF4C:  MOVLB  3
0CF4E:  BTFSC  x55.4
0CF50:  BRA    CF70
....................             Imprime=26; 
0CF52:  MOVLW  1A
0CF54:  MOVWF  xB1
....................             Envio_Esclavos(); 
0CF56:  MOVLB  0
0CF58:  CALL   46BA
....................             delay_ms(100); 
0CF5C:  MOVLW  64
0CF5E:  MOVLB  4
0CF60:  MOVWF  x58
0CF62:  MOVLB  0
0CF64:  CALL   1A3E
....................             Imprime=10; 
0CF68:  MOVLW  0A
0CF6A:  MOVLB  3
0CF6C:  MOVWF  xB1
....................             flagImprimir=1; 
0CF6E:  BSF    x55.4
0CF70:  MOVLB  2
....................          } 
....................       } 
....................    } 
....................    else{   
0CF72:  BRA    D5F0
0CF74:  MOVLB  0
....................       Buzzer_off; 
0CF76:  BCF    F8C.0
0CF78:  BCF    F95.0
....................       IniciaCiclo=ON; 
0CF7A:  BSF    xA0.1
....................       if(flagImprime){ 
0CF7C:  MOVLB  3
0CF7E:  BTFSS  x55.3
0CF80:  BRA    CFA0
....................          Imprime=5; 
0CF82:  MOVLW  05
0CF84:  MOVWF  xB1
....................          Envio_Esclavos(); 
0CF86:  MOVLB  0
0CF88:  CALL   46BA
....................          delay_ms(100); 
0CF8C:  MOVLW  64
0CF8E:  MOVLB  4
0CF90:  MOVWF  x58
0CF92:  MOVLB  0
0CF94:  CALL   1A3E
....................          Imprime=10; 
0CF98:  MOVLW  0A
0CF9A:  MOVLB  3
0CF9C:  MOVWF  xB1
....................          flagImprime=0; 
0CF9E:  BCF    x55.3
....................       } 
....................          if(!CalderinLleno){ 
0CFA0:  MOVLB  0
0CFA2:  BTFSC  xA0.0
0CFA4:  BRA    D00C
....................             //Agua_on; 
....................             #ifdef Reservorio 
....................                if(!HIG){ 
....................                   printf("Funcionamiento.t4f.txt=\" Reservorio Bajo \""); 
....................                   SendDataDisplay(); 
....................                   printf("Funcionamiento.t5f.txt=\" Llenando Camara\""); 
....................                   SendDataDisplay(); 
....................                   #ifdef ULKA               
....................                      apagaBombaAgua(); 
....................                   #else 
....................                      Bomba_off; 
....................                      Agua_off; 
....................                   #endif 
....................                }else{ 
....................                   printf("Funcionamiento.t4f.txt=\" Ninguna\""); 
....................                   SendDataDisplay(); 
....................                   printf("Funcionamiento.t5f.txt=\" Llenando Camara\""); 
....................                   SendDataDisplay(); 
....................                   #ifdef ULKA               
....................                      enciendeBombaAgua(); 
....................                   #else 
....................                      Bomba_on; 
....................                      Agua_on; 
....................                   #endif 
....................                }  
....................             #else 
....................                printf("Funcionamiento.t4f.txt=\" Ninguna\""); 
0CFA6:  MOVLW  A8
0CFA8:  MOVWF  FF6
0CFAA:  MOVLW  14
0CFAC:  MOVWF  FF7
0CFAE:  MOVLW  00
0CFB0:  MOVWF  FF8
0CFB2:  CALL   38F2
....................                SendDataDisplay(); 
0CFB6:  CALL   3924
....................                printf("Funcionamiento.t5f.txt=\" Nivel Bajo\""); 
0CFBA:  MOVLW  CA
0CFBC:  MOVWF  FF6
0CFBE:  MOVLW  14
0CFC0:  MOVWF  FF7
0CFC2:  MOVLW  00
0CFC4:  MOVWF  FF8
0CFC6:  CALL   38F2
....................                SendDataDisplay(); 
0CFCA:  CALL   3924
....................                Agua_on; 
0CFCE:  BSF    F8C.5
0CFD0:  BCF    F95.5
....................                #ifdef Enfriador 
....................                Enfr_off; 
0CFD2:  BCF    F8C.6
0CFD4:  BCF    F95.6
....................                #else 
....................                Bomba_off; 
....................                #endif 
....................             #endif 
....................             SSR_off; 
0CFD6:  BSF    F8B.2
0CFD8:  BCF    F94.2
....................             Controlando=0; 
0CFDA:  MOVLB  3
0CFDC:  CLRF   x58
....................             Control=0; 
0CFDE:  CLRF   x56
....................             IniciaLlenado=ON; 
0CFE0:  MOVLB  0
0CFE2:  BSF    x9F.7
....................             Controlando=0; 
0CFE4:  MOVLB  3
0CFE6:  CLRF   x58
....................             Desfogue_off; 
0CFE8:  BCF    F8C.4
0CFEA:  BCF    F95.4
....................             Aire=ON; 
0CFEC:  MOVLB  0
0CFEE:  BSF    xA4.1
....................             codigoAlarma=10; 
0CFF0:  MOVLW  0A
0CFF2:  MOVLB  2
0CFF4:  MOVWF  xE6
....................             if(codigoAnt!=codigoAlarma){ 
0CFF6:  MOVF   xE6,W
0CFF8:  SUBWF  xE7,W
0CFFA:  BZ    D008
....................                codigoAnt=codigoAlarma; 
0CFFC:  MOVFF  2E6,2E7
....................                GuardaDatoCiclo(); 
0D000:  MOVLB  0
0D002:  CALL   640C
0D006:  MOVLB  2
....................             } 
....................          } 
....................          else{ 
0D008:  BRA    D5F0
0D00A:  MOVLB  0
....................             Agua_off; 
0D00C:  BCF    F8C.5
0D00E:  BCF    F95.5
....................             if(Temperatura>=((float)Setpoint)){ 
0D010:  MOVLB  4
0D012:  CLRF   x59
0D014:  MOVFF  367,458
0D018:  MOVLB  0
0D01A:  CALL   1A66
0D01E:  MOVFF  03,44E
0D022:  MOVFF  02,44D
0D026:  MOVFF  01,44C
0D02A:  MOVFF  00,44B
0D02E:  MOVFF  32B,452
0D032:  MOVFF  32A,451
0D036:  MOVFF  329,450
0D03A:  MOVFF  328,44F
0D03E:  CALL   2D72
0D042:  BC    D046
0D044:  BNZ   D048
....................                Esterilizando=ON; 
0D046:  BSF    xA0.2
....................             } 
....................              
....................             if(Temperatura<((float)Setpoint-0.9) && !Desfogando){ 
0D048:  MOVLB  4
0D04A:  CLRF   x59
0D04C:  MOVFF  367,458
0D050:  MOVLB  0
0D052:  CALL   1A66
0D056:  MOVFF  00,443
0D05A:  MOVFF  01,444
0D05E:  MOVFF  02,445
0D062:  MOVFF  03,446
0D066:  BSF    FD8.1
0D068:  MOVFF  03,45B
0D06C:  MOVFF  02,45A
0D070:  MOVFF  01,459
0D074:  MOVFF  00,458
0D078:  MOVLW  66
0D07A:  MOVLB  4
0D07C:  MOVWF  x5F
0D07E:  MOVWF  x5E
0D080:  MOVWF  x5D
0D082:  MOVLW  7E
0D084:  MOVWF  x5C
0D086:  MOVLB  0
0D088:  CALL   1BFA
0D08C:  MOVFF  32B,44E
0D090:  MOVFF  32A,44D
0D094:  MOVFF  329,44C
0D098:  MOVFF  328,44B
0D09C:  MOVFF  03,452
0D0A0:  MOVFF  02,451
0D0A4:  MOVFF  01,450
0D0A8:  MOVFF  00,44F
0D0AC:  CALL   2D72
0D0B0:  BNC   D0B8
0D0B2:  BTFSC  xA0.5
0D0B4:  BRA    D0B8
....................                Esterilizando=OFF; 
0D0B6:  BCF    xA0.2
....................             } 
....................              
....................             if(!Esterilizando){ 
0D0B8:  BTFSC  xA0.2
0D0BA:  BRA    D152
....................                codigoAlarma=12; 
0D0BC:  MOVLW  0C
0D0BE:  MOVLB  2
0D0C0:  MOVWF  xE6
....................                if(codigoAnt!=codigoAlarma){ 
0D0C2:  MOVF   xE6,W
0D0C4:  SUBWF  xE7,W
0D0C6:  BZ    D0D4
....................                   codigoAnt=codigoAlarma; 
0D0C8:  MOVFF  2E6,2E7
....................                   GuardaDatoCiclo();                   
0D0CC:  MOVLB  0
0D0CE:  CALL   640C
0D0D2:  MOVLB  2
....................                } 
....................                printf("Funcionamiento.t4f.txt=\" Ninguna\""); 
0D0D4:  MOVLW  F0
0D0D6:  MOVWF  FF6
0D0D8:  MOVLW  14
0D0DA:  MOVWF  FF7
0D0DC:  MOVLW  00
0D0DE:  MOVWF  FF8
0D0E0:  MOVLB  0
0D0E2:  CALL   38F2
....................                SendDataDisplay(); 
0D0E6:  CALL   3924
....................                printf("Funcionamiento.t5f.txt=\" Calentando\""); 
0D0EA:  MOVLW  12
0D0EC:  MOVWF  FF6
0D0EE:  MOVLW  15
0D0F0:  MOVWF  FF7
0D0F2:  MOVLW  00
0D0F4:  MOVWF  FF8
0D0F6:  CALL   38F2
....................                SendDataDisplay(); 
0D0FA:  CALL   3924
....................                Control=1; 
0D0FE:  MOVLW  01
0D100:  MOVLB  3
0D102:  MOVWF  x56
....................                #ifndef Enfriador 
....................                Bomba_off; 
....................                #endif 
....................                if(Temperatura<=TTrampa){ 
0D104:  MOVLB  4
0D106:  CLRF   x59
0D108:  MOVFF  2DC,458
0D10C:  MOVLB  0
0D10E:  CALL   1A66
0D112:  MOVFF  32B,44E
0D116:  MOVFF  32A,44D
0D11A:  MOVFF  329,44C
0D11E:  MOVFF  328,44B
0D122:  MOVFF  03,452
0D126:  MOVFF  02,451
0D12A:  MOVFF  01,450
0D12E:  MOVFF  00,44F
0D132:  CALL   2D72
0D136:  BC    D13A
0D138:  BNZ   D146
....................                   Aire=ON; 
0D13A:  BSF    xA4.1
....................                   Controla(); 
0D13C:  GOTO   68AA
....................                   #ifdef Reservorio 
....................                      Desfogue_off; 
....................                   #else 
....................                      Desfogue_on; 
0D140:  BSF    F8C.4
0D142:  BCF    F95.4
....................                   #endif 
....................                }else{ 
0D144:  BRA    D150
....................                   Aire=OFF; 
0D146:  BCF    xA4.1
....................                   //Desfogue_off; 
....................                   purgaAire(); 
0D148:  GOTO   6E42
....................                   #ifdef PT100Fija 
....................                      Controla(); 
....................                   #else 
....................                      ControlaPresion(); 
0D14C:  CALL   6F60
....................                   #endif 
....................                } 
....................             }else{ 
0D150:  BRA    D5EC
....................                TiempoCiclo=0; 
0D152:  CLRF   xA6
0D154:  CLRF   xA5
....................                if((Testerilizacion[0]==0)&&(Testerilizacion[1]==0)&& 
....................                (Testerilizacion[2]==0)&&(Testerilizacion[3]==0)){  
0D156:  MOVF   xB1,F
0D158:  BTFSS  FD8.2
0D15A:  BRA    D598
0D15C:  MOVF   xB2,F
0D15E:  BTFSS  FD8.2
0D160:  BRA    D598
0D162:  MOVF   xB3,F
0D164:  BTFSS  FD8.2
0D166:  BRA    D598
0D168:  MOVF   xB4,F
0D16A:  BTFSS  FD8.2
0D16C:  BRA    D598
....................                   if(desfoguelento){ 
0D16E:  BTFSS  xA4.6
0D170:  BRA    D348
....................                      Controlando=0; 
0D172:  MOVLB  3
0D174:  CLRF   x58
....................                      if(PresionCamara<=Atmosferica+25){ 
0D176:  MOVLW  19
0D178:  ADDWF  xB2,W
0D17A:  MOVF   x7A,F
0D17C:  BTFSS  FD8.2
0D17E:  BRA    D2F0
0D180:  SUBWF  x79,W
0D182:  BZ    D188
0D184:  BTFSC  FD8.0
0D186:  BRA    D2F0
....................                         Secando=OFF; 
0D188:  MOVLB  0
0D18A:  BCF    xA0.3
....................                         DesfogueSuave=OFF; 
0D18C:  BCF    xA0.6
....................                         #ifdef Enfriador 
....................                         Enfr_on; 
0D18E:  BSF    F8C.6
0D190:  BCF    F95.6
....................                         #else 
....................                         Bomba_off; 
....................                         #endif 
....................                         Aire=OFF; 
0D192:  BCF    xA4.1
....................                         if(PresionCamara<Atmosferica+2){ 
0D194:  MOVLW  02
0D196:  MOVLB  3
0D198:  ADDWF  xB2,W
0D19A:  MOVF   x7A,F
0D19C:  BTFSS  FD8.2
0D19E:  BRA    D2DA
0D1A0:  SUBWF  x79,W
0D1A2:  BTFSC  FD8.0
0D1A4:  BRA    D2DA
....................                            if(!DOOR){ 
0D1A6:  BSF    F93.6
0D1A8:  BTFSS  F81.6
0D1AA:  BRA    D1B2
....................                               Desfogue_off; 
0D1AC:  BCF    F8C.4
0D1AE:  BCF    F95.4
....................                            }else{ 
0D1B0:  BRA    D1B6
....................                               Desfogue_on; 
0D1B2:  BSF    F8C.4
0D1B4:  BCF    F95.4
....................                            } 
....................                            if(Temperatura<=90){ 
0D1B6:  MOVFF  32B,44E
0D1BA:  MOVFF  32A,44D
0D1BE:  MOVFF  329,44C
0D1C2:  MOVFF  328,44B
0D1C6:  MOVLB  4
0D1C8:  CLRF   x52
0D1CA:  CLRF   x51
0D1CC:  MOVLW  34
0D1CE:  MOVWF  x50
0D1D0:  MOVLW  85
0D1D2:  MOVWF  x4F
0D1D4:  MOVLB  0
0D1D6:  CALL   2D72
0D1DA:  BC    D1DE
0D1DC:  BNZ   D214
....................                               ActivaAlarma(2); 
0D1DE:  MOVLW  02
0D1E0:  MOVLB  4
0D1E2:  MOVWF  x43
0D1E4:  MOVLB  0
0D1E6:  CALL   477C
....................                               printf("Funcionamiento.t4f.txt=\" Ninguna\""); 
0D1EA:  MOVLW  38
0D1EC:  MOVWF  FF6
0D1EE:  MOVLW  15
0D1F0:  MOVWF  FF7
0D1F2:  MOVLW  00
0D1F4:  MOVWF  FF8
0D1F6:  CALL   38F2
....................                               SendDataDisplay(); 
0D1FA:  CALL   3924
....................                               printf("Funcionamiento.t5f.txt=\" Finalizado\""); 
0D1FE:  MOVLW  5A
0D200:  MOVWF  FF6
0D202:  MOVLW  15
0D204:  MOVWF  FF7
0D206:  MOVLW  00
0D208:  MOVWF  FF8
0D20A:  CALL   38F2
....................                               SendDataDisplay(); 
0D20E:  CALL   3924
....................                               Finalizo=ON; 
0D212:  BSF    xA3.4
....................                            } 
....................                            codigoAlarma=14; 
0D214:  MOVLW  0E
0D216:  MOVLB  2
0D218:  MOVWF  xE6
....................                            if(codigoAnt!=codigoAlarma){ 
0D21A:  MOVF   xE6,W
0D21C:  SUBWF  xE7,W
0D21E:  BZ    D22A
....................                               codigoAnt=codigoAlarma; 
0D220:  MOVFF  2E6,2E7
....................                               GuardaDatoCiclo();                   
0D224:  MOVLB  0
0D226:  CALL   640C
....................                            } 
....................                            if(!Ciclo){ 
0D22A:  MOVLB  0
0D22C:  BTFSC  xA1.5
0D22E:  BRA    D2D6
....................                               Ciclo=ON; 
0D230:  BSF    xA1.5
....................                               Ciclos++; 
0D232:  MOVLB  3
0D234:  INCF   x7D,F
0D236:  BTFSC  FD8.2
0D238:  INCF   x7E,F
....................                               CiclosL=make8(Ciclos,0); 
0D23A:  MOVFF  37D,364
....................                               CiclosH=make8(Ciclos,1); 
0D23E:  MOVFF  37E,365
....................                               write_eeprom(37,CiclosL); 
0D242:  CLRF   FAA
0D244:  MOVLW  25
0D246:  MOVWF  FA9
0D248:  MOVFF  364,FA8
0D24C:  BCF    FA6.6
0D24E:  BCF    FA6.7
0D250:  BSF    FA6.2
0D252:  MOVF   FF2,W
0D254:  MOVWF  00
0D256:  BCF    FF2.6
0D258:  BCF    FF2.7
0D25A:  MOVLB  F
0D25C:  MOVLW  55
0D25E:  MOVWF  FA7
0D260:  MOVLW  AA
0D262:  MOVWF  FA7
0D264:  BSF    FA6.1
0D266:  BTFSC  FA6.1
0D268:  BRA    D266
0D26A:  BCF    FA6.2
0D26C:  MOVF   00,W
0D26E:  IORWF  FF2,F
....................                               delay_ms(20); 
0D270:  MOVLW  14
0D272:  MOVLB  4
0D274:  MOVWF  x58
0D276:  MOVLB  0
0D278:  CALL   1A3E
....................                               write_eeprom(38,CiclosH); 
0D27C:  CLRF   FAA
0D27E:  MOVLW  26
0D280:  MOVWF  FA9
0D282:  MOVFF  365,FA8
0D286:  BCF    FA6.6
0D288:  BCF    FA6.7
0D28A:  BSF    FA6.2
0D28C:  MOVF   FF2,W
0D28E:  MOVWF  00
0D290:  BCF    FF2.6
0D292:  BCF    FF2.7
0D294:  MOVLB  F
0D296:  MOVLW  55
0D298:  MOVWF  FA7
0D29A:  MOVLW  AA
0D29C:  MOVWF  FA7
0D29E:  BSF    FA6.1
0D2A0:  BTFSC  FA6.1
0D2A2:  BRA    D2A0
0D2A4:  BCF    FA6.2
0D2A6:  MOVF   00,W
0D2A8:  IORWF  FF2,F
....................                               delay_ms(20);                               
0D2AA:  MOVLW  14
0D2AC:  MOVLB  4
0D2AE:  MOVWF  x58
0D2B0:  MOVLB  0
0D2B2:  CALL   1A3E
....................                               Imprime=28; 
0D2B6:  MOVLW  1C
0D2B8:  MOVLB  3
0D2BA:  MOVWF  xB1
....................                               Envio_Esclavos(); 
0D2BC:  MOVLB  0
0D2BE:  CALL   46BA
....................                               delay_ms(100); 
0D2C2:  MOVLW  64
0D2C4:  MOVLB  4
0D2C6:  MOVWF  x58
0D2C8:  MOVLB  0
0D2CA:  CALL   1A3E
....................                               Imprime=10;                               
0D2CE:  MOVLW  0A
0D2D0:  MOVLB  3
0D2D2:  MOVWF  xB1
0D2D4:  MOVLB  0
....................                            } 
....................                         }else if(PresionCamara>=Atmosferica+7){ 
0D2D6:  BRA    D2EC
0D2D8:  MOVLB  3
0D2DA:  MOVLW  07
0D2DC:  ADDWF  xB2,W
0D2DE:  MOVF   x7A,F
0D2E0:  BNZ   D2E6
0D2E2:  SUBWF  x79,W
0D2E4:  BNC   D2EA
....................                            Desfogue_on; 
0D2E6:  BSF    F8C.4
0D2E8:  BCF    F95.4
0D2EA:  MOVLB  0
....................                         } 
....................                      }else{ 
0D2EC:  BRA    D346
0D2EE:  MOVLB  3
....................                         codigoAlarma=13; 
0D2F0:  MOVLW  0D
0D2F2:  MOVLB  2
0D2F4:  MOVWF  xE6
....................                         if(codigoAnt!=codigoAlarma){ 
0D2F6:  MOVF   xE6,W
0D2F8:  SUBWF  xE7,W
0D2FA:  BZ    D306
....................                            codigoAnt=codigoAlarma; 
0D2FC:  MOVFF  2E6,2E7
....................                            GuardaDatoCiclo();                   
0D300:  MOVLB  0
0D302:  CALL   640C
....................                         } 
....................                         Desfogando=ON; 
0D306:  MOVLB  0
0D308:  BSF    xA0.5
....................                         DesfogueSuave=ON; 
0D30A:  BSF    xA0.6
....................                         printf("Funcionamiento.t4f.txt=\" Ninguna\""); 
0D30C:  MOVLW  80
0D30E:  MOVWF  FF6
0D310:  MOVLW  15
0D312:  MOVWF  FF7
0D314:  MOVLW  00
0D316:  MOVWF  FF8
0D318:  CALL   38F2
....................                         SendDataDisplay(); 
0D31C:  CALL   3924
....................                         printf("Funcionamiento.t5f.txt=\" Despresurizando\""); 
0D320:  MOVLW  A2
0D322:  MOVWF  FF6
0D324:  MOVLW  15
0D326:  MOVWF  FF7
0D328:  MOVLW  00
0D32A:  MOVWF  FF8
0D32C:  CALL   38F2
....................                         SendDataDisplay(); 
0D330:  CALL   3924
....................                         Control=0; 
0D334:  MOVLB  3
0D336:  CLRF   x56
....................                         Controlando=0; 
0D338:  CLRF   x58
....................                         SSR_off; 
0D33A:  BSF    F8B.2
0D33C:  BCF    F94.2
....................                         #ifdef Enfriador 
....................                         Enfr_on; 
0D33E:  BSF    F8C.6
0D340:  BCF    F95.6
....................                         #else 
....................                         Bomba_off; 
....................                         #endif 
....................                         Aire=OFF; 
0D342:  MOVLB  0
0D344:  BCF    xA4.1
....................                      } 
....................                   }else{ 
0D346:  BRA    D592
....................                      //SSR_off; 
....................                      Controlando=0; 
0D348:  MOVLB  3
0D34A:  CLRF   x58
....................                      Control=0; 
0D34C:  CLRF   x56
....................                      if(PresionCamara<=Atmosferica+5){ 
0D34E:  MOVLW  05
0D350:  ADDWF  xB2,W
0D352:  MOVF   x7A,F
0D354:  BTFSS  FD8.2
0D356:  BRA    D52E
0D358:  SUBWF  x79,W
0D35A:  BZ    D360
0D35C:  BTFSC  FD8.0
0D35E:  BRA    D52E
....................                         if((Tsecado[0]==0)&&(Tsecado[1]==0)&&(Tsecado[2]==0)&&(Tsecado[3]==0)){ 
0D360:  MOVLB  0
0D362:  MOVF   xBB,F
0D364:  BTFSS  FD8.2
0D366:  BRA    D4CC
0D368:  MOVF   xBC,F
0D36A:  BTFSS  FD8.2
0D36C:  BRA    D4CC
0D36E:  MOVF   xBD,F
0D370:  BTFSS  FD8.2
0D372:  BRA    D4CC
0D374:  MOVF   xBE,F
0D376:  BTFSS  FD8.2
0D378:  BRA    D4CC
....................                            SSR_off; 
0D37A:  BSF    F8B.2
0D37C:  BCF    F94.2
....................                            Secando=OFF; 
0D37E:  BCF    xA0.3
....................                            if(!DOOR){ 
0D380:  BSF    F93.6
0D382:  BTFSS  F81.6
0D384:  BRA    D38C
....................                               Aire=OFF; 
0D386:  BCF    xA4.1
....................                               Desfogue_off; 
0D388:  BCF    F8C.4
0D38A:  BCF    F95.4
....................                            } 
....................                            if(Temperatura<=90){ 
0D38C:  MOVFF  32B,44E
0D390:  MOVFF  32A,44D
0D394:  MOVFF  329,44C
0D398:  MOVFF  328,44B
0D39C:  MOVLB  4
0D39E:  CLRF   x52
0D3A0:  CLRF   x51
0D3A2:  MOVLW  34
0D3A4:  MOVWF  x50
0D3A6:  MOVLW  85
0D3A8:  MOVWF  x4F
0D3AA:  MOVLB  0
0D3AC:  CALL   2D72
0D3B0:  BC    D3B4
0D3B2:  BNZ   D3F2
....................                               ActivaAlarma(2); 
0D3B4:  MOVLW  02
0D3B6:  MOVLB  4
0D3B8:  MOVWF  x43
0D3BA:  MOVLB  0
0D3BC:  CALL   477C
....................                               printf("Funcionamiento.t4f.txt=\" Ninguna\""); 
0D3C0:  MOVLW  CC
0D3C2:  MOVWF  FF6
0D3C4:  MOVLW  15
0D3C6:  MOVWF  FF7
0D3C8:  MOVLW  00
0D3CA:  MOVWF  FF8
0D3CC:  CALL   38F2
....................                               SendDataDisplay(); 
0D3D0:  CALL   3924
....................                               printf("Funcionamiento.t5f.txt=\" Finalizado\""); 
0D3D4:  MOVLW  EE
0D3D6:  MOVWF  FF6
0D3D8:  MOVLW  15
0D3DA:  MOVWF  FF7
0D3DC:  MOVLW  00
0D3DE:  MOVWF  FF8
0D3E0:  CALL   38F2
....................                               SendDataDisplay(); 
0D3E4:  CALL   3924
....................                               Finalizo=ON; 
0D3E8:  BSF    xA3.4
....................                               Aire=OFF; 
0D3EA:  BCF    xA4.1
....................                               #ifdef Enfriador 
....................                               Enfr_off; 
0D3EC:  BCF    F8C.6
0D3EE:  BCF    F95.6
....................                               #else 
....................                               Bomba_off; 
....................                               #endif 
....................                            }else{ 
0D3F0:  BRA    D402
....................                               if(DOOR){ 
0D3F2:  BSF    F93.6
0D3F4:  BTFSC  F81.6
0D3F6:  BRA    D3FE
....................                                  Aire=ON; 
0D3F8:  BSF    xA4.1
....................                                  Desfogue_on; 
0D3FA:  BSF    F8C.4
0D3FC:  BCF    F95.4
....................                               } 
....................                               #ifdef Enfriador 
....................                               Enfr_on; 
0D3FE:  BSF    F8C.6
0D400:  BCF    F95.6
....................                               #else 
....................                               Bomba_off; 
....................                               #endif 
....................                            } 
....................                            codigoAlarma=14; 
0D402:  MOVLW  0E
0D404:  MOVLB  2
0D406:  MOVWF  xE6
....................                            if(codigoAnt!=codigoAlarma){ 
0D408:  MOVF   xE6,W
0D40A:  SUBWF  xE7,W
0D40C:  BZ    D418
....................                               codigoAnt=codigoAlarma; 
0D40E:  MOVFF  2E6,2E7
....................                               GuardaDatoCiclo();                   
0D412:  MOVLB  0
0D414:  CALL   640C
....................                            } 
....................                            if(!Ciclo){ 
0D418:  MOVLB  0
0D41A:  BTFSC  xA1.5
0D41C:  BRA    D4C8
....................                               Ciclo=ON; 
0D41E:  BSF    xA1.5
....................                               Ciclos++; 
0D420:  MOVLB  3
0D422:  INCF   x7D,F
0D424:  BTFSC  FD8.2
0D426:  INCF   x7E,F
....................                               CiclosL=make8(Ciclos,0); 
0D428:  MOVFF  37D,364
....................                               CiclosH=make8(Ciclos,1); 
0D42C:  MOVFF  37E,365
....................                               write_eeprom(37,CiclosL); 
0D430:  CLRF   FAA
0D432:  MOVLW  25
0D434:  MOVWF  FA9
0D436:  MOVFF  364,FA8
0D43A:  BCF    FA6.6
0D43C:  BCF    FA6.7
0D43E:  BSF    FA6.2
0D440:  MOVF   FF2,W
0D442:  MOVWF  00
0D444:  BCF    FF2.6
0D446:  BCF    FF2.7
0D448:  MOVLB  F
0D44A:  MOVLW  55
0D44C:  MOVWF  FA7
0D44E:  MOVLW  AA
0D450:  MOVWF  FA7
0D452:  BSF    FA6.1
0D454:  BTFSC  FA6.1
0D456:  BRA    D454
0D458:  BCF    FA6.2
0D45A:  MOVF   00,W
0D45C:  IORWF  FF2,F
....................                               delay_ms(20); 
0D45E:  MOVLW  14
0D460:  MOVLB  4
0D462:  MOVWF  x58
0D464:  MOVLB  0
0D466:  CALL   1A3E
....................                               write_eeprom(38,CiclosH); 
0D46A:  CLRF   FAA
0D46C:  MOVLW  26
0D46E:  MOVWF  FA9
0D470:  MOVFF  365,FA8
0D474:  BCF    FA6.6
0D476:  BCF    FA6.7
0D478:  BSF    FA6.2
0D47A:  MOVF   FF2,W
0D47C:  MOVWF  00
0D47E:  BCF    FF2.6
0D480:  BCF    FF2.7
0D482:  MOVLB  F
0D484:  MOVLW  55
0D486:  MOVWF  FA7
0D488:  MOVLW  AA
0D48A:  MOVWF  FA7
0D48C:  BSF    FA6.1
0D48E:  BTFSC  FA6.1
0D490:  BRA    D48E
0D492:  BCF    FA6.2
0D494:  MOVF   00,W
0D496:  IORWF  FF2,F
....................                               delay_ms(20); 
0D498:  MOVLW  14
0D49A:  MOVLB  4
0D49C:  MOVWF  x58
0D49E:  MOVLB  0
0D4A0:  CALL   1A3E
....................                               if(ActivaImpresion==1){ 
0D4A4:  MOVLB  3
0D4A6:  DECFSZ x59,W
0D4A8:  BRA    D4C6
....................                                  Imprime=28; 
0D4AA:  MOVLW  1C
0D4AC:  MOVWF  xB1
....................                                  Envio_Esclavos(); 
0D4AE:  MOVLB  0
0D4B0:  CALL   46BA
....................                                  delay_ms(100); 
0D4B4:  MOVLW  64
0D4B6:  MOVLB  4
0D4B8:  MOVWF  x58
0D4BA:  MOVLB  0
0D4BC:  CALL   1A3E
....................                                  Imprime=10; 
0D4C0:  MOVLW  0A
0D4C2:  MOVLB  3
0D4C4:  MOVWF  xB1
0D4C6:  MOVLB  0
....................                               } 
....................                            } 
....................                            Secando=OFF; 
0D4C8:  BCF    xA0.3
....................                         }else{ 
0D4CA:  BRA    D52A
....................                            codigoAlarma=15; 
0D4CC:  MOVLW  0F
0D4CE:  MOVLB  2
0D4D0:  MOVWF  xE6
....................                            if(codigoAnt!=codigoAlarma){ 
0D4D2:  MOVF   xE6,W
0D4D4:  SUBWF  xE7,W
0D4D6:  BZ    D4E2
....................                               codigoAnt=codigoAlarma; 
0D4D8:  MOVFF  2E6,2E7
....................                               GuardaDatoCiclo();                   
0D4DC:  MOVLB  0
0D4DE:  CALL   640C
....................                            } 
....................                            Secando=ON; 
0D4E2:  MOVLB  0
0D4E4:  BSF    xA0.3
....................                            printf("Funcionamiento.t4f.txt=\" Ninguna\""); 
0D4E6:  MOVLW  14
0D4E8:  MOVWF  FF6
0D4EA:  MOVLW  16
0D4EC:  MOVWF  FF7
0D4EE:  MOVLW  00
0D4F0:  MOVWF  FF8
0D4F2:  CALL   38F2
....................                            SendDataDisplay(); 
0D4F6:  CALL   3924
....................                            printf("Funcionamiento.t5f.txt=\" Secando\""); 
0D4FA:  MOVLW  36
0D4FC:  MOVWF  FF6
0D4FE:  MOVLW  16
0D500:  MOVWF  FF7
0D502:  MOVLW  00
0D504:  MOVWF  FF8
0D506:  CALL   38F2
....................                            SendDataDisplay();                            
0D50A:  CALL   3924
....................                            if(DOOR){ 
0D50E:  BSF    F93.6
0D510:  BTFSC  F81.6
0D512:  BRA    D51C
....................                               Aire=ON; 
0D514:  BSF    xA4.1
....................                               Desfogue_on; 
0D516:  BSF    F8C.4
0D518:  BCF    F95.4
....................                            }else{ 
0D51A:  BRA    D52A
....................                               CalientaChaqueta(); 
0D51C:  GOTO   778C
....................                               #ifdef Enfriador 
....................                               Enfr_off; 
0D520:  BCF    F8C.6
0D522:  BCF    F95.6
....................                               #else 
....................                               Bomba_off; 
....................                               #endif 
....................                               Aire=OFF; 
0D524:  BCF    xA4.1
....................                               Desfogue_off; 
0D526:  BCF    F8C.4
0D528:  BCF    F95.4
....................                            } 
....................                         } 
....................                      }else if(PresionCamara>Atmosferica+6){ 
0D52A:  BRA    D592
0D52C:  MOVLB  3
0D52E:  MOVLW  06
0D530:  ADDWF  xB2,W
0D532:  MOVF   x7A,F
0D534:  BNZ   D53C
0D536:  SUBWF  x79,W
0D538:  BZ    D594
0D53A:  BNC   D594
....................                         codigoAlarma=13; 
0D53C:  MOVLW  0D
0D53E:  MOVLB  2
0D540:  MOVWF  xE6
....................                         if(codigoAnt!=codigoAlarma){ 
0D542:  MOVF   xE6,W
0D544:  SUBWF  xE7,W
0D546:  BZ    D552
....................                            codigoAnt=codigoAlarma; 
0D548:  MOVFF  2E6,2E7
....................                            GuardaDatoCiclo();                   
0D54C:  MOVLB  0
0D54E:  CALL   640C
....................                         } 
....................                         Desfogando=ON; 
0D552:  MOVLB  0
0D554:  BSF    xA0.5
....................                         printf("Funcionamiento.t4f.txt=\" Ninguna\""); 
0D556:  MOVLW  58
0D558:  MOVWF  FF6
0D55A:  MOVLW  16
0D55C:  MOVWF  FF7
0D55E:  MOVLW  00
0D560:  MOVWF  FF8
0D562:  CALL   38F2
....................                         SendDataDisplay(); 
0D566:  CALL   3924
....................                         printf("Funcionamiento.t5f.txt=\" Despresurizando\""); 
0D56A:  MOVLW  7A
0D56C:  MOVWF  FF6
0D56E:  MOVLW  16
0D570:  MOVWF  FF7
0D572:  MOVLW  00
0D574:  MOVWF  FF8
0D576:  CALL   38F2
....................                         SendDataDisplay();                         
0D57A:  CALL   3924
....................                         Controlando=0; 
0D57E:  MOVLB  3
0D580:  CLRF   x58
....................                         SSR_off; 
0D582:  BSF    F8B.2
0D584:  BCF    F94.2
....................                         #ifdef Enfriador 
....................                         Enfr_on; 
0D586:  BSF    F8C.6
0D588:  BCF    F95.6
....................                         #else 
....................                         Bomba_off; 
....................                         #endif 
....................                         Aire=OFF; 
0D58A:  MOVLB  0
0D58C:  BCF    xA4.1
....................                         Desfogue_on; 
0D58E:  BSF    F8C.4
0D590:  BCF    F95.4
0D592:  MOVLB  3
....................                      } 
....................                   } 
....................                    
....................                }else{ 
0D594:  BRA    D5EE
0D596:  MOVLB  0
....................                   printf("Funcionamiento.t4f.txt=\" Ninguna\""); 
0D598:  MOVLW  A4
0D59A:  MOVWF  FF6
0D59C:  MOVLW  16
0D59E:  MOVWF  FF7
0D5A0:  MOVLW  00
0D5A2:  MOVWF  FF8
0D5A4:  CALL   38F2
....................                   SendDataDisplay(); 
0D5A8:  CALL   3924
....................                   printf("Funcionamiento.t5f.txt=\" Esterilizando\""); 
0D5AC:  MOVLW  C6
0D5AE:  MOVWF  FF6
0D5B0:  MOVLW  16
0D5B2:  MOVWF  FF7
0D5B4:  MOVLW  00
0D5B6:  MOVWF  FF8
0D5B8:  CALL   38F2
....................                   SendDataDisplay(); 
0D5BC:  CALL   3924
....................                   #ifdef Enfriador 
....................                   Enfr_off; 
0D5C0:  BCF    F8C.6
0D5C2:  BCF    F95.6
....................                   #else 
....................                   Bomba_off; 
....................                   #endif 
....................                   Aire=OFF; 
0D5C4:  BCF    xA4.1
....................                   Desfogue_off; 
0D5C6:  BCF    F8C.4
0D5C8:  BCF    F95.4
....................                   Control=1; 
0D5CA:  MOVLW  01
0D5CC:  MOVLB  3
0D5CE:  MOVWF  x56
....................                   codigoAlarma=16; 
0D5D0:  MOVLW  10
0D5D2:  MOVLB  2
0D5D4:  MOVWF  xE6
....................                   if(codigoAnt!=codigoAlarma){ 
0D5D6:  MOVF   xE6,W
0D5D8:  SUBWF  xE7,W
0D5DA:  BZ    D5E6
....................                      codigoAnt=codigoAlarma; 
0D5DC:  MOVFF  2E6,2E7
....................                      GuardaDatoCiclo();                   
0D5E0:  MOVLB  0
0D5E2:  CALL   640C
....................                   } 
....................                   #ifdef PT100Fija 
....................                      Controla(); 
....................                   #else 
....................                      ControlaPresion(); 
0D5E6:  MOVLB  0
0D5E8:  CALL   6F60
0D5EC:  MOVLB  3
0D5EE:  MOVLB  2
....................                   #endif 
....................                } 
....................             } 
....................          } 
....................    } 
....................  
....................    if(tguarda>=180){ 
0D5F0:  MOVLB  0
0D5F2:  MOVF   xB0,F
0D5F4:  BNZ   D5FC
0D5F6:  MOVF   xAF,W
0D5F8:  SUBLW  B3
0D5FA:  BC    D608
....................       if(!Ciclo){ 
0D5FC:  BTFSC  xA1.5
0D5FE:  BRA    D608
....................          GuardaDatoCiclo(); 
0D600:  CALL   640C
....................          tguarda=0; 
0D604:  CLRF   xB0
0D606:  CLRF   xAF
....................       } 
....................    } 
....................     
....................    if(Grafica==1){ 
0D608:  MOVLB  3
0D60A:  BTFSS  x55.0
0D60C:  BRA    D64C
....................       printf("add 14,0,%1.0f",Temperatura); 
0D60E:  MOVLW  EE
0D610:  MOVWF  FF6
0D612:  MOVLW  16
0D614:  MOVWF  FF7
0D616:  MOVLW  00
0D618:  MOVWF  FF8
0D61A:  MOVLW  09
0D61C:  MOVLB  4
0D61E:  MOVWF  x48
0D620:  MOVLB  0
0D622:  CALL   487E
0D626:  MOVLW  00
0D628:  MOVWF  FE9
0D62A:  MOVFF  32B,44B
0D62E:  MOVFF  32A,44A
0D632:  MOVFF  329,449
0D636:  MOVFF  328,448
0D63A:  MOVLB  4
0D63C:  CLRF   x4C
0D63E:  MOVLB  0
0D640:  CALL   4A1E
....................       SendDataDisplay(); 
0D644:  CALL   3924
....................       //printf("add 14,1,%1.0f",PresionCamara/1.667); 
....................       //SendDataDisplay(); 
....................       //printf("add 14,0,%1.0f",Temperatura); 
....................       //SendDataDisplay(); 
....................       Grafica=0; 
0D648:  MOVLB  3
0D64A:  BCF    x55.0
....................    } 
....................    if(Lectura==1)// Utilizado para visualizar la lectura de la temperatura 
0D64C:  MOVLB  0
0D64E:  BTFSS  xA4.7
0D650:  BRA    D910
....................    {                             
....................       Lectura=0; 
0D652:  BCF    xA4.7
....................       printf("t6f.txt=\"%3.1fC\"",Temperatura); 
0D654:  MOVLW  FE
0D656:  MOVWF  FF6
0D658:  MOVLW  16
0D65A:  MOVWF  FF7
0D65C:  MOVLW  00
0D65E:  MOVWF  FF8
0D660:  MOVLW  09
0D662:  MOVLB  4
0D664:  MOVWF  x48
0D666:  MOVLB  0
0D668:  CALL   487E
0D66C:  MOVLW  02
0D66E:  MOVWF  FE9
0D670:  MOVFF  32B,44B
0D674:  MOVFF  32A,44A
0D678:  MOVFF  329,449
0D67C:  MOVFF  328,448
0D680:  MOVLW  01
0D682:  MOVLB  4
0D684:  MOVWF  x4C
0D686:  MOVLB  0
0D688:  CALL   4A1E
0D68C:  MOVLW  B0
0D68E:  BTFSS  F9E.4
0D690:  BRA    D68E
0D692:  MOVWF  FAD
0D694:  MOVLW  43
0D696:  BTFSS  F9E.4
0D698:  BRA    D696
0D69A:  MOVWF  FAD
0D69C:  MOVLW  22
0D69E:  BTFSS  F9E.4
0D6A0:  BRA    D69E
0D6A2:  MOVWF  FAD
....................       SendDataDisplay(); 
0D6A4:  CALL   3924
....................       printf("Funcionamiento.t7f.txt=\"%03LukPa\"",PresionCamara); 
0D6A8:  MOVLW  10
0D6AA:  MOVWF  FF6
0D6AC:  MOVLW  17
0D6AE:  MOVWF  FF7
0D6B0:  MOVLW  00
0D6B2:  MOVWF  FF8
0D6B4:  MOVLW  18
0D6B6:  MOVLB  4
0D6B8:  MOVWF  x48
0D6BA:  MOVLB  0
0D6BC:  CALL   487E
0D6C0:  MOVLW  0A
0D6C2:  MOVWF  FE9
0D6C4:  MOVFF  37A,448
0D6C8:  MOVFF  379,447
0D6CC:  CALL   4C42
0D6D0:  MOVLW  2D
0D6D2:  MOVWF  FF6
0D6D4:  MOVLW  17
0D6D6:  MOVWF  FF7
0D6D8:  MOVLW  00
0D6DA:  MOVWF  FF8
0D6DC:  MOVLW  04
0D6DE:  MOVLB  4
0D6E0:  MOVWF  x48
0D6E2:  MOVLB  0
0D6E4:  CALL   487E
....................       SendDataDisplay(); 
0D6E8:  CALL   3924
....................       //printf("Funcionamiento.t12f.txt=\"%03LukPa\"",PresionPreCamara); 
....................       printf("Funcionamiento.t12f.txt=\"000kPa\""); 
0D6EC:  MOVLW  32
0D6EE:  MOVWF  FF6
0D6F0:  MOVLW  17
0D6F2:  MOVWF  FF7
0D6F4:  MOVLW  00
0D6F6:  MOVWF  FF8
0D6F8:  CALL   38F2
....................       SendDataDisplay(); 
0D6FC:  CALL   3924
....................       printf("Funcionamiento.t9f.txt=\"%03u\"",Setpoint); 
0D700:  MOVLW  54
0D702:  MOVWF  FF6
0D704:  MOVLW  17
0D706:  MOVWF  FF7
0D708:  MOVLW  00
0D70A:  MOVWF  FF8
0D70C:  MOVLW  18
0D70E:  MOVLB  4
0D710:  MOVWF  x48
0D712:  MOVLB  0
0D714:  CALL   487E
0D718:  MOVFF  367,448
0D71C:  MOVLW  03
0D71E:  MOVLB  4
0D720:  MOVWF  x49
0D722:  MOVLB  0
0D724:  CALL   48DC
0D728:  MOVLW  22
0D72A:  BTFSS  F9E.4
0D72C:  BRA    D72A
0D72E:  MOVWF  FAD
....................       SendDataDisplay();       
0D730:  CALL   3924
....................       printf("Funcionamiento.t10f.txt=\"%02u\"",((Testerilizacion[3]*10)+Testerilizacion[2])); 
0D734:  MOVFF  B4,445
0D738:  MOVLW  0A
0D73A:  MOVLB  4
0D73C:  MOVWF  x46
0D73E:  MOVLB  0
0D740:  CALL   2DEC
0D744:  MOVF   xB3,W
0D746:  ADDWF  01,W
0D748:  MOVLB  4
0D74A:  MOVWF  x43
0D74C:  MOVLW  72
0D74E:  MOVWF  FF6
0D750:  MOVLW  17
0D752:  MOVWF  FF7
0D754:  MOVLW  00
0D756:  MOVWF  FF8
0D758:  MOVLW  19
0D75A:  MOVWF  x48
0D75C:  MOVLB  0
0D75E:  CALL   487E
0D762:  MOVFF  443,448
0D766:  MOVLW  01
0D768:  MOVLB  4
0D76A:  MOVWF  x49
0D76C:  MOVLB  0
0D76E:  CALL   48DC
0D772:  MOVLW  22
0D774:  BTFSS  F9E.4
0D776:  BRA    D774
0D778:  MOVWF  FAD
....................       SendDataDisplay();       
0D77A:  CALL   3924
....................       printf("Funcionamiento.t13f.txt=\"%02u\"",((Testerilizacion[1]*10)+Testerilizacion[0])); 
0D77E:  MOVFF  B2,445
0D782:  MOVLW  0A
0D784:  MOVLB  4
0D786:  MOVWF  x46
0D788:  MOVLB  0
0D78A:  CALL   2DEC
0D78E:  MOVF   xB1,W
0D790:  ADDWF  01,W
0D792:  MOVLB  4
0D794:  MOVWF  x43
0D796:  MOVLW  92
0D798:  MOVWF  FF6
0D79A:  MOVLW  17
0D79C:  MOVWF  FF7
0D79E:  MOVLW  00
0D7A0:  MOVWF  FF8
0D7A2:  MOVLW  19
0D7A4:  MOVWF  x48
0D7A6:  MOVLB  0
0D7A8:  CALL   487E
0D7AC:  MOVFF  443,448
0D7B0:  MOVLW  01
0D7B2:  MOVLB  4
0D7B4:  MOVWF  x49
0D7B6:  MOVLB  0
0D7B8:  CALL   48DC
0D7BC:  MOVLW  22
0D7BE:  BTFSS  F9E.4
0D7C0:  BRA    D7BE
0D7C2:  MOVWF  FAD
....................       SendDataDisplay();       
0D7C4:  CALL   3924
....................       printf("Funcionamiento.t11f.txt=\"%02u\"",((Tsecado[3]*10)+Tsecado[2])); 
0D7C8:  MOVFF  BE,445
0D7CC:  MOVLW  0A
0D7CE:  MOVLB  4
0D7D0:  MOVWF  x46
0D7D2:  MOVLB  0
0D7D4:  CALL   2DEC
0D7D8:  MOVF   xBD,W
0D7DA:  ADDWF  01,W
0D7DC:  MOVLB  4
0D7DE:  MOVWF  x43
0D7E0:  MOVLW  B2
0D7E2:  MOVWF  FF6
0D7E4:  MOVLW  17
0D7E6:  MOVWF  FF7
0D7E8:  MOVLW  00
0D7EA:  MOVWF  FF8
0D7EC:  MOVLW  19
0D7EE:  MOVWF  x48
0D7F0:  MOVLB  0
0D7F2:  CALL   487E
0D7F6:  MOVFF  443,448
0D7FA:  MOVLW  01
0D7FC:  MOVLB  4
0D7FE:  MOVWF  x49
0D800:  MOVLB  0
0D802:  CALL   48DC
0D806:  MOVLW  22
0D808:  BTFSS  F9E.4
0D80A:  BRA    D808
0D80C:  MOVWF  FAD
....................       SendDataDisplay();       
0D80E:  CALL   3924
....................       printf("Funcionamiento.t16f.txt=\"%02u\"",((Tsecado[1]*10)+Tsecado[0])); 
0D812:  MOVFF  BC,445
0D816:  MOVLW  0A
0D818:  MOVLB  4
0D81A:  MOVWF  x46
0D81C:  MOVLB  0
0D81E:  CALL   2DEC
0D822:  MOVF   xBB,W
0D824:  ADDWF  01,W
0D826:  MOVLB  4
0D828:  MOVWF  x43
0D82A:  MOVLW  D2
0D82C:  MOVWF  FF6
0D82E:  MOVLW  17
0D830:  MOVWF  FF7
0D832:  MOVLW  00
0D834:  MOVWF  FF8
0D836:  MOVLW  19
0D838:  MOVWF  x48
0D83A:  MOVLB  0
0D83C:  CALL   487E
0D840:  MOVFF  443,448
0D844:  MOVLW  01
0D846:  MOVLB  4
0D848:  MOVWF  x49
0D84A:  MOVLB  0
0D84C:  CALL   48DC
0D850:  MOVLW  22
0D852:  BTFSS  F9E.4
0D854:  BRA    D852
0D856:  MOVWF  FAD
....................       SendDataDisplay();       
0D858:  CALL   3924
....................        
....................       printf("fecha.txt=\"Fecha:%02u/%02u/20%02u    Hora: %02u:%02u\"",Dia,Mes,Year,Hora,Minuto); 
0D85C:  MOVLW  F2
0D85E:  MOVWF  FF6
0D860:  MOVLW  17
0D862:  MOVWF  FF7
0D864:  MOVLW  00
0D866:  MOVWF  FF8
0D868:  MOVLW  11
0D86A:  MOVLB  4
0D86C:  MOVWF  x48
0D86E:  MOVLB  0
0D870:  CALL   487E
0D874:  MOVFF  3A4,448
0D878:  MOVLW  01
0D87A:  MOVLB  4
0D87C:  MOVWF  x49
0D87E:  MOVLB  0
0D880:  CALL   48DC
0D884:  MOVLW  2F
0D886:  BTFSS  F9E.4
0D888:  BRA    D886
0D88A:  MOVWF  FAD
0D88C:  MOVFF  3A3,448
0D890:  MOVLW  01
0D892:  MOVLB  4
0D894:  MOVWF  x49
0D896:  MOVLB  0
0D898:  CALL   48DC
0D89C:  MOVLW  2F
0D89E:  BTFSS  F9E.4
0D8A0:  BRA    D89E
0D8A2:  MOVWF  FAD
0D8A4:  MOVLW  32
0D8A6:  BTFSS  F9E.4
0D8A8:  BRA    D8A6
0D8AA:  MOVWF  FAD
0D8AC:  MOVLW  30
0D8AE:  BTFSS  F9E.4
0D8B0:  BRA    D8AE
0D8B2:  MOVWF  FAD
0D8B4:  MOVFF  3A2,448
0D8B8:  MOVLW  01
0D8BA:  MOVLB  4
0D8BC:  MOVWF  x49
0D8BE:  MOVLB  0
0D8C0:  CALL   48DC
0D8C4:  MOVLW  13
0D8C6:  MOVWF  FF6
0D8C8:  MOVLW  18
0D8CA:  MOVWF  FF7
0D8CC:  MOVLW  00
0D8CE:  MOVWF  FF8
0D8D0:  MOVLW  0A
0D8D2:  MOVLB  4
0D8D4:  MOVWF  x48
0D8D6:  MOVLB  0
0D8D8:  CALL   487E
0D8DC:  MOVFF  3A5,448
0D8E0:  MOVLW  01
0D8E2:  MOVLB  4
0D8E4:  MOVWF  x49
0D8E6:  MOVLB  0
0D8E8:  CALL   48DC
0D8EC:  MOVLW  3A
0D8EE:  BTFSS  F9E.4
0D8F0:  BRA    D8EE
0D8F2:  MOVWF  FAD
0D8F4:  MOVFF  3A6,448
0D8F8:  MOVLW  01
0D8FA:  MOVLB  4
0D8FC:  MOVWF  x49
0D8FE:  MOVLB  0
0D900:  CALL   48DC
0D904:  MOVLW  22
0D906:  BTFSS  F9E.4
0D908:  BRA    D906
0D90A:  MOVWF  FAD
....................       SendDataDisplay(); 
0D90C:  CALL   3924
0D910:  MOVLB  3
....................    } 
....................  
....................  
.................... } 
.................... //_-------------------------------------------------------------------------------------------------------------------------------------------------------- 
....................  
.................... //_-------------------------------------------------------------------------------------------------------------------------------------------------------- 
....................       if(Menu==100){ //Menu de Configuracin de Parametros de Control 
0D912:  MOVF   x60,W
0D914:  SUBLW  64
0D916:  BTFSS  FD8.2
0D918:  GOTO   E770
....................       
....................       if(Opcion2>11) 
0D91C:  MOVF   x69,W
0D91E:  SUBLW  0B
0D920:  BC    D926
....................          Opcion2=1; 
0D922:  MOVLW  01
0D924:  MOVWF  x69
....................       if(Opcion2<1) 
0D926:  MOVF   x69,F
0D928:  BNZ   D92E
....................          Opcion2=11; 
0D92A:  MOVLW  0B
0D92C:  MOVWF  x69
....................        
....................       if(Opcion2==1){ 
0D92E:  DECFSZ x69,W
0D930:  BRA    DAAE
....................          printf("Config.t2c.txt=\"Proporcional\""); 
0D932:  MOVLW  28
0D934:  MOVWF  FF6
0D936:  MOVLW  18
0D938:  MOVWF  FF7
0D93A:  MOVLW  00
0D93C:  MOVWF  FF8
0D93E:  MOVLB  0
0D940:  CALL   38F2
....................          SendDataDisplay();       
0D944:  CALL   3924
....................          printf("t3c.txt=\"%2.0f\"",Ganancia); 
0D948:  MOVLW  46
0D94A:  MOVWF  FF6
0D94C:  MOVLW  18
0D94E:  MOVWF  FF7
0D950:  MOVLW  00
0D952:  MOVWF  FF8
0D954:  MOVLW  09
0D956:  MOVLB  4
0D958:  MOVWF  x48
0D95A:  MOVLB  0
0D95C:  CALL   487E
0D960:  MOVLW  01
0D962:  MOVWF  FE9
0D964:  MOVFF  30B,44B
0D968:  MOVFF  30A,44A
0D96C:  MOVFF  309,449
0D970:  MOVFF  308,448
0D974:  MOVLB  4
0D976:  CLRF   x4C
0D978:  MOVLB  0
0D97A:  CALL   4A1E
0D97E:  MOVLW  22
0D980:  BTFSS  F9E.4
0D982:  BRA    D980
0D984:  MOVWF  FAD
....................          SendDataDisplay(); 
0D986:  CALL   3924
....................          if(RX_Buffer[4]==0x0a || UP){//Tecla Arriba Oprimida 
0D98A:  MOVF   34,W
0D98C:  SUBLW  0A
0D98E:  BZ    D996
0D990:  BSF    F93.0
0D992:  BTFSC  F81.0
0D994:  BRA    D9E6
....................             delay_ms(20); 
0D996:  MOVLW  14
0D998:  MOVLB  4
0D99A:  MOVWF  x58
0D99C:  MOVLB  0
0D99E:  CALL   1A3E
....................             if(RX_Buffer[4]==0x0a || UP){ 
0D9A2:  MOVF   34,W
0D9A4:  SUBLW  0A
0D9A6:  BZ    D9AE
0D9A8:  BSF    F93.0
0D9AA:  BTFSC  F81.0
0D9AC:  BRA    D9E6
....................                Ganancia+=1.0; 
0D9AE:  BCF    FD8.1
0D9B0:  MOVFF  30B,45B
0D9B4:  MOVFF  30A,45A
0D9B8:  MOVFF  309,459
0D9BC:  MOVFF  308,458
0D9C0:  MOVLB  4
0D9C2:  CLRF   x5F
0D9C4:  CLRF   x5E
0D9C6:  CLRF   x5D
0D9C8:  MOVLW  7F
0D9CA:  MOVWF  x5C
0D9CC:  MOVLB  0
0D9CE:  CALL   1BFA
0D9D2:  MOVFF  03,30B
0D9D6:  MOVFF  02,30A
0D9DA:  MOVFF  01,309
0D9DE:  MOVFF  00,308
....................                RX_Buffer[4]=0x00;   
0D9E2:  CLRF   34
....................                RX_Buffer2[4]=0x00;             
0D9E4:  CLRF   3F
....................                //BorraBuffer(); 
....................             } 
....................          } 
....................              
....................          if(RX_Buffer[4]==0x0b || DOWN){//Tecla Abajo Oprimida 
0D9E6:  MOVF   34,W
0D9E8:  SUBLW  0B
0D9EA:  BZ    D9F2
0D9EC:  BSF    F93.1
0D9EE:  BTFSC  F81.1
0D9F0:  BRA    DA42
....................             delay_ms(20); 
0D9F2:  MOVLW  14
0D9F4:  MOVLB  4
0D9F6:  MOVWF  x58
0D9F8:  MOVLB  0
0D9FA:  CALL   1A3E
....................             if(RX_Buffer[4]==0x0b || DOWN){ 
0D9FE:  MOVF   34,W
0DA00:  SUBLW  0B
0DA02:  BZ    DA0A
0DA04:  BSF    F93.1
0DA06:  BTFSC  F81.1
0DA08:  BRA    DA42
....................                Ganancia-=1.0; 
0DA0A:  BSF    FD8.1
0DA0C:  MOVFF  30B,45B
0DA10:  MOVFF  30A,45A
0DA14:  MOVFF  309,459
0DA18:  MOVFF  308,458
0DA1C:  MOVLB  4
0DA1E:  CLRF   x5F
0DA20:  CLRF   x5E
0DA22:  CLRF   x5D
0DA24:  MOVLW  7F
0DA26:  MOVWF  x5C
0DA28:  MOVLB  0
0DA2A:  CALL   1BFA
0DA2E:  MOVFF  03,30B
0DA32:  MOVFF  02,30A
0DA36:  MOVFF  01,309
0DA3A:  MOVFF  00,308
....................                RX_Buffer[4]=0x00; 
0DA3E:  CLRF   34
....................                RX_Buffer2[4]=0x00;             
0DA40:  CLRF   3F
....................                //BorraBuffer(); 
....................             } 
....................          } 
....................           
....................          if(Ganancia>40) 
0DA42:  MOVLB  4
0DA44:  CLRF   x4E
0DA46:  CLRF   x4D
0DA48:  MOVLW  20
0DA4A:  MOVWF  x4C
0DA4C:  MOVLW  84
0DA4E:  MOVWF  x4B
0DA50:  MOVFF  30B,452
0DA54:  MOVFF  30A,451
0DA58:  MOVFF  309,450
0DA5C:  MOVFF  308,44F
0DA60:  MOVLB  0
0DA62:  CALL   2D72
0DA66:  BNC   DA74
....................             Ganancia=1; 
0DA68:  MOVLB  3
0DA6A:  CLRF   x0B
0DA6C:  CLRF   x0A
0DA6E:  CLRF   x09
0DA70:  MOVLW  7F
0DA72:  MOVWF  x08
....................          if(Ganancia<1) 
0DA74:  MOVFF  30B,44E
0DA78:  MOVFF  30A,44D
0DA7C:  MOVFF  309,44C
0DA80:  MOVFF  308,44B
0DA84:  MOVLB  4
0DA86:  CLRF   x52
0DA88:  CLRF   x51
0DA8A:  CLRF   x50
0DA8C:  MOVLW  7F
0DA8E:  MOVWF  x4F
0DA90:  MOVLB  0
0DA92:  CALL   2D72
0DA96:  BNC   DAA8
....................             Ganancia=40; 
0DA98:  MOVLB  3
0DA9A:  CLRF   x0B
0DA9C:  CLRF   x0A
0DA9E:  MOVLW  20
0DAA0:  MOVWF  x09
0DAA2:  MOVLW  84
0DAA4:  MOVWF  x08
0DAA6:  MOVLB  0
....................       }else if(Opcion2==2){ 
0DAA8:  GOTO   E270
0DAAC:  MOVLB  3
0DAAE:  MOVF   x69,W
0DAB0:  SUBLW  02
0DAB2:  BNZ   DB72
....................          printf("Config.t2c.txt=\"Derivativo\""); 
0DAB4:  MOVLW  56
0DAB6:  MOVWF  FF6
0DAB8:  MOVLW  18
0DABA:  MOVWF  FF7
0DABC:  MOVLW  00
0DABE:  MOVWF  FF8
0DAC0:  MOVLB  0
0DAC2:  CALL   38F2
....................          SendDataDisplay();       
0DAC6:  CALL   3924
....................          printf("t3c.txt=\"%u\"",Derivativo); 
0DACA:  MOVLW  72
0DACC:  MOVWF  FF6
0DACE:  MOVLW  18
0DAD0:  MOVWF  FF7
0DAD2:  MOVLW  00
0DAD4:  MOVWF  FF8
0DAD6:  MOVLW  09
0DAD8:  MOVLB  4
0DADA:  MOVWF  x48
0DADC:  MOVLB  0
0DADE:  CALL   487E
0DAE2:  MOVFF  33D,448
0DAE6:  MOVLW  1B
0DAE8:  MOVLB  4
0DAEA:  MOVWF  x49
0DAEC:  MOVLB  0
0DAEE:  CALL   48DC
0DAF2:  MOVLW  22
0DAF4:  BTFSS  F9E.4
0DAF6:  BRA    DAF4
0DAF8:  MOVWF  FAD
....................          SendDataDisplay(); 
0DAFA:  CALL   3924
....................          if(RX_Buffer[4]==0x0a || UP){//Tecla Arriba Oprimida 
0DAFE:  MOVF   34,W
0DB00:  SUBLW  0A
0DB02:  BZ    DB0A
0DB04:  BSF    F93.0
0DB06:  BTFSC  F81.0
0DB08:  BRA    DB2C
....................             delay_ms(20); 
0DB0A:  MOVLW  14
0DB0C:  MOVLB  4
0DB0E:  MOVWF  x58
0DB10:  MOVLB  0
0DB12:  CALL   1A3E
....................             if(RX_Buffer[4]==0x0a || UP){ 
0DB16:  MOVF   34,W
0DB18:  SUBLW  0A
0DB1A:  BZ    DB22
0DB1C:  BSF    F93.0
0DB1E:  BTFSC  F81.0
0DB20:  BRA    DB2C
....................                Derivativo++; 
0DB22:  MOVLB  3
0DB24:  INCF   x3D,F
....................                RX_Buffer[4]=0x00;   
0DB26:  CLRF   34
....................                RX_Buffer2[4]=0x00;             
0DB28:  CLRF   3F
0DB2A:  MOVLB  0
....................                //BorraBuffer(); 
....................             } 
....................          } 
....................              
....................          if(RX_Buffer[4]==0x0b || DOWN){//Tecla Abajo Oprimida 
0DB2C:  MOVF   34,W
0DB2E:  SUBLW  0B
0DB30:  BZ    DB38
0DB32:  BSF    F93.1
0DB34:  BTFSC  F81.1
0DB36:  BRA    DB5A
....................             delay_ms(20); 
0DB38:  MOVLW  14
0DB3A:  MOVLB  4
0DB3C:  MOVWF  x58
0DB3E:  MOVLB  0
0DB40:  CALL   1A3E
....................             if(RX_Buffer[4]==0x0b || DOWN){ 
0DB44:  MOVF   34,W
0DB46:  SUBLW  0B
0DB48:  BZ    DB50
0DB4A:  BSF    F93.1
0DB4C:  BTFSC  F81.1
0DB4E:  BRA    DB5A
....................                Derivativo--; 
0DB50:  MOVLB  3
0DB52:  DECF   x3D,F
....................                RX_Buffer[4]=0x00; 
0DB54:  CLRF   34
....................                RX_Buffer2[4]=0x00;             
0DB56:  CLRF   3F
0DB58:  MOVLB  0
....................                //BorraBuffer(); 
....................             } 
....................          } 
....................           
....................           
....................          if(Derivativo>40) 
0DB5A:  MOVLB  3
0DB5C:  MOVF   x3D,W
0DB5E:  SUBLW  28
0DB60:  BC    DB66
....................             Derivativo=1; 
0DB62:  MOVLW  01
0DB64:  MOVWF  x3D
....................          if(Derivativo<1) 
0DB66:  MOVF   x3D,F
0DB68:  BNZ   DB6E
....................             Derivativo=40; 
0DB6A:  MOVLW  28
0DB6C:  MOVWF  x3D
....................       }else if(Opcion2==3){ 
0DB6E:  GOTO   E26E
0DB72:  MOVF   x69,W
0DB74:  SUBLW  03
0DB76:  BNZ   DC34
....................          printf("Config.t2c.txt=\"Integral\""); 
0DB78:  MOVLW  80
0DB7A:  MOVWF  FF6
0DB7C:  MOVLW  18
0DB7E:  MOVWF  FF7
0DB80:  MOVLW  00
0DB82:  MOVWF  FF8
0DB84:  MOVLB  0
0DB86:  CALL   38F2
....................          SendDataDisplay();       
0DB8A:  CALL   3924
....................          printf("t3c.txt=\"%u\"",Integral); 
0DB8E:  MOVLW  9A
0DB90:  MOVWF  FF6
0DB92:  MOVLW  18
0DB94:  MOVWF  FF7
0DB96:  MOVLW  00
0DB98:  MOVWF  FF8
0DB9A:  MOVLW  09
0DB9C:  MOVLB  4
0DB9E:  MOVWF  x48
0DBA0:  MOVLB  0
0DBA2:  CALL   487E
0DBA6:  MOVFF  33C,448
0DBAA:  MOVLW  1B
0DBAC:  MOVLB  4
0DBAE:  MOVWF  x49
0DBB0:  MOVLB  0
0DBB2:  CALL   48DC
0DBB6:  MOVLW  22
0DBB8:  BTFSS  F9E.4
0DBBA:  BRA    DBB8
0DBBC:  MOVWF  FAD
....................          SendDataDisplay(); 
0DBBE:  CALL   3924
....................          if(RX_Buffer[4]==0x0a || UP){//Tecla Arriba Oprimida 
0DBC2:  MOVF   34,W
0DBC4:  SUBLW  0A
0DBC6:  BZ    DBCE
0DBC8:  BSF    F93.0
0DBCA:  BTFSC  F81.0
0DBCC:  BRA    DBF0
....................             delay_ms(20); 
0DBCE:  MOVLW  14
0DBD0:  MOVLB  4
0DBD2:  MOVWF  x58
0DBD4:  MOVLB  0
0DBD6:  CALL   1A3E
....................             if(RX_Buffer[4]==0x0a || UP){ 
0DBDA:  MOVF   34,W
0DBDC:  SUBLW  0A
0DBDE:  BZ    DBE6
0DBE0:  BSF    F93.0
0DBE2:  BTFSC  F81.0
0DBE4:  BRA    DBF0
....................                Integral++; 
0DBE6:  MOVLB  3
0DBE8:  INCF   x3C,F
....................                RX_Buffer[4]=0x00;   
0DBEA:  CLRF   34
....................                RX_Buffer2[4]=0x00;             
0DBEC:  CLRF   3F
0DBEE:  MOVLB  0
....................                //BorraBuffer(); 
....................             } 
....................          } 
....................              
....................          if(RX_Buffer[4]==0x0b || DOWN){//Tecla Abajo Oprimida 
0DBF0:  MOVF   34,W
0DBF2:  SUBLW  0B
0DBF4:  BZ    DBFC
0DBF6:  BSF    F93.1
0DBF8:  BTFSC  F81.1
0DBFA:  BRA    DC1E
....................             delay_ms(20); 
0DBFC:  MOVLW  14
0DBFE:  MOVLB  4
0DC00:  MOVWF  x58
0DC02:  MOVLB  0
0DC04:  CALL   1A3E
....................             if(RX_Buffer[4]==0x0b || DOWN){ 
0DC08:  MOVF   34,W
0DC0A:  SUBLW  0B
0DC0C:  BZ    DC14
0DC0E:  BSF    F93.1
0DC10:  BTFSC  F81.1
0DC12:  BRA    DC1E
....................                Integral--; 
0DC14:  MOVLB  3
0DC16:  DECF   x3C,F
....................                RX_Buffer[4]=0x00; 
0DC18:  CLRF   34
....................                RX_Buffer2[4]=0x00;             
0DC1A:  CLRF   3F
0DC1C:  MOVLB  0
....................                //BorraBuffer(); 
....................             } 
....................          } 
....................           
....................          if(Integral>40) 
0DC1E:  MOVLB  3
0DC20:  MOVF   x3C,W
0DC22:  SUBLW  28
0DC24:  BC    DC2A
....................             Integral=1; 
0DC26:  MOVLW  01
0DC28:  MOVWF  x3C
....................          if(Integral<1) 
0DC2A:  MOVF   x3C,F
0DC2C:  BNZ   DC32
....................             Integral=40; 
0DC2E:  MOVLW  28
0DC30:  MOVWF  x3C
....................       }else if(Opcion2==4){ 
0DC32:  BRA    E26E
0DC34:  MOVF   x69,W
0DC36:  SUBLW  04
0DC38:  BTFSS  FD8.2
0DC3A:  BRA    DDBA
....................          printf("Config.t2c.txt=\"Tciclo\""); 
0DC3C:  MOVLW  A8
0DC3E:  MOVWF  FF6
0DC40:  MOVLW  18
0DC42:  MOVWF  FF7
0DC44:  MOVLW  00
0DC46:  MOVWF  FF8
0DC48:  MOVLB  0
0DC4A:  CALL   38F2
....................          SendDataDisplay();       
0DC4E:  CALL   3924
....................          printf("t3c.txt=\"%2.0f\"",Tciclo); 
0DC52:  MOVLW  C0
0DC54:  MOVWF  FF6
0DC56:  MOVLW  18
0DC58:  MOVWF  FF7
0DC5A:  MOVLW  00
0DC5C:  MOVWF  FF8
0DC5E:  MOVLW  09
0DC60:  MOVLB  4
0DC62:  MOVWF  x48
0DC64:  MOVLB  0
0DC66:  CALL   487E
0DC6A:  MOVLW  01
0DC6C:  MOVWF  FE9
0DC6E:  MOVFF  2F3,44B
0DC72:  MOVFF  2F2,44A
0DC76:  MOVFF  2F1,449
0DC7A:  MOVFF  2F0,448
0DC7E:  MOVLB  4
0DC80:  CLRF   x4C
0DC82:  MOVLB  0
0DC84:  CALL   4A1E
0DC88:  MOVLW  22
0DC8A:  BTFSS  F9E.4
0DC8C:  BRA    DC8A
0DC8E:  MOVWF  FAD
....................          SendDataDisplay(); 
0DC90:  CALL   3924
....................          if(RX_Buffer[4]==0x0a || UP){//Tecla Arriba Oprimida 
0DC94:  MOVF   34,W
0DC96:  SUBLW  0A
0DC98:  BZ    DCA0
0DC9A:  BSF    F93.0
0DC9C:  BTFSC  F81.0
0DC9E:  BRA    DCF0
....................             delay_ms(20); 
0DCA0:  MOVLW  14
0DCA2:  MOVLB  4
0DCA4:  MOVWF  x58
0DCA6:  MOVLB  0
0DCA8:  CALL   1A3E
....................             if(RX_Buffer[4]==0x0a || UP){ 
0DCAC:  MOVF   34,W
0DCAE:  SUBLW  0A
0DCB0:  BZ    DCB8
0DCB2:  BSF    F93.0
0DCB4:  BTFSC  F81.0
0DCB6:  BRA    DCF0
....................                Tciclo+=1.0; 
0DCB8:  BCF    FD8.1
0DCBA:  MOVFF  2F3,45B
0DCBE:  MOVFF  2F2,45A
0DCC2:  MOVFF  2F1,459
0DCC6:  MOVFF  2F0,458
0DCCA:  MOVLB  4
0DCCC:  CLRF   x5F
0DCCE:  CLRF   x5E
0DCD0:  CLRF   x5D
0DCD2:  MOVLW  7F
0DCD4:  MOVWF  x5C
0DCD6:  MOVLB  0
0DCD8:  CALL   1BFA
0DCDC:  MOVFF  03,2F3
0DCE0:  MOVFF  02,2F2
0DCE4:  MOVFF  01,2F1
0DCE8:  MOVFF  00,2F0
....................                RX_Buffer[4]=0x00;   
0DCEC:  CLRF   34
....................                RX_Buffer2[4]=0x00;             
0DCEE:  CLRF   3F
....................                //BorraBuffer(); 
....................             } 
....................          } 
....................              
....................          if(RX_Buffer[4]==0x0b || DOWN){//Tecla Abajo Oprimida 
0DCF0:  MOVF   34,W
0DCF2:  SUBLW  0B
0DCF4:  BZ    DCFC
0DCF6:  BSF    F93.1
0DCF8:  BTFSC  F81.1
0DCFA:  BRA    DD4C
....................             delay_ms(20); 
0DCFC:  MOVLW  14
0DCFE:  MOVLB  4
0DD00:  MOVWF  x58
0DD02:  MOVLB  0
0DD04:  CALL   1A3E
....................             if(RX_Buffer[4]==0x0b || DOWN){ 
0DD08:  MOVF   34,W
0DD0A:  SUBLW  0B
0DD0C:  BZ    DD14
0DD0E:  BSF    F93.1
0DD10:  BTFSC  F81.1
0DD12:  BRA    DD4C
....................                Tciclo-=1.0; 
0DD14:  BSF    FD8.1
0DD16:  MOVFF  2F3,45B
0DD1A:  MOVFF  2F2,45A
0DD1E:  MOVFF  2F1,459
0DD22:  MOVFF  2F0,458
0DD26:  MOVLB  4
0DD28:  CLRF   x5F
0DD2A:  CLRF   x5E
0DD2C:  CLRF   x5D
0DD2E:  MOVLW  7F
0DD30:  MOVWF  x5C
0DD32:  MOVLB  0
0DD34:  CALL   1BFA
0DD38:  MOVFF  03,2F3
0DD3C:  MOVFF  02,2F2
0DD40:  MOVFF  01,2F1
0DD44:  MOVFF  00,2F0
....................                RX_Buffer[4]=0x00; 
0DD48:  CLRF   34
....................                RX_Buffer2[4]=0x00;             
0DD4A:  CLRF   3F
....................                //BorraBuffer(); 
....................             } 
....................          } 
....................           
....................          if(Tciclo>20) 
0DD4C:  MOVLB  4
0DD4E:  CLRF   x4E
0DD50:  CLRF   x4D
0DD52:  MOVLW  20
0DD54:  MOVWF  x4C
0DD56:  MOVLW  83
0DD58:  MOVWF  x4B
0DD5A:  MOVFF  2F3,452
0DD5E:  MOVFF  2F2,451
0DD62:  MOVFF  2F1,450
0DD66:  MOVFF  2F0,44F
0DD6A:  MOVLB  0
0DD6C:  CALL   2D72
0DD70:  BNC   DD80
....................             Tciclo=5; 
0DD72:  MOVLB  2
0DD74:  CLRF   xF3
0DD76:  CLRF   xF2
0DD78:  MOVLW  20
0DD7A:  MOVWF  xF1
0DD7C:  MOVLW  81
0DD7E:  MOVWF  xF0
....................          if(Tciclo<5) 
0DD80:  MOVFF  2F3,44E
0DD84:  MOVFF  2F2,44D
0DD88:  MOVFF  2F1,44C
0DD8C:  MOVFF  2F0,44B
0DD90:  MOVLB  4
0DD92:  CLRF   x52
0DD94:  CLRF   x51
0DD96:  MOVLW  20
0DD98:  MOVWF  x50
0DD9A:  MOVLW  81
0DD9C:  MOVWF  x4F
0DD9E:  MOVLB  0
0DDA0:  CALL   2D72
0DDA4:  BNC   DDB6
....................             Tciclo=20; 
0DDA6:  MOVLB  2
0DDA8:  CLRF   xF3
0DDAA:  CLRF   xF2
0DDAC:  MOVLW  20
0DDAE:  MOVWF  xF1
0DDB0:  MOVLW  83
0DDB2:  MOVWF  xF0
0DDB4:  MOVLB  0
....................       }else if(Opcion2==5){ 
0DDB6:  BRA    E270
0DDB8:  MOVLB  3
0DDBA:  MOVF   x69,W
0DDBC:  SUBLW  05
0DDBE:  BNZ   DE74
....................          printf("Config.t2c.txt=\"Ajuste +\""); 
0DDC0:  MOVLW  D0
0DDC2:  MOVWF  FF6
0DDC4:  MOVLW  18
0DDC6:  MOVWF  FF7
0DDC8:  MOVLW  00
0DDCA:  MOVWF  FF8
0DDCC:  MOVLB  0
0DDCE:  CALL   38F2
....................          SendDataDisplay();       
0DDD2:  CALL   3924
....................          printf("t3c.txt=\"%u\"",Ajuste); 
0DDD6:  MOVLW  EA
0DDD8:  MOVWF  FF6
0DDDA:  MOVLW  18
0DDDC:  MOVWF  FF7
0DDDE:  MOVLW  00
0DDE0:  MOVWF  FF8
0DDE2:  MOVLW  09
0DDE4:  MOVLB  4
0DDE6:  MOVWF  x48
0DDE8:  MOVLB  0
0DDEA:  CALL   487E
0DDEE:  MOVFF  2D9,448
0DDF2:  MOVLW  1B
0DDF4:  MOVLB  4
0DDF6:  MOVWF  x49
0DDF8:  MOVLB  0
0DDFA:  CALL   48DC
0DDFE:  MOVLW  22
0DE00:  BTFSS  F9E.4
0DE02:  BRA    DE00
0DE04:  MOVWF  FAD
....................          SendDataDisplay(); 
0DE06:  CALL   3924
....................          if(RX_Buffer[4]==0x0a || UP){//Tecla Arriba Oprimida 
0DE0A:  MOVF   34,W
0DE0C:  SUBLW  0A
0DE0E:  BZ    DE16
0DE10:  BSF    F93.0
0DE12:  BTFSC  F81.0
0DE14:  BRA    DE3E
....................             delay_ms(20); 
0DE16:  MOVLW  14
0DE18:  MOVLB  4
0DE1A:  MOVWF  x58
0DE1C:  MOVLB  0
0DE1E:  CALL   1A3E
....................             if(RX_Buffer[4]==0x0a || UP){ 
0DE22:  MOVF   34,W
0DE24:  SUBLW  0A
0DE26:  BZ    DE2E
0DE28:  BSF    F93.0
0DE2A:  BTFSC  F81.0
0DE2C:  BRA    DE3E
....................                if(Ajuste<100) 
0DE2E:  MOVLB  2
0DE30:  MOVF   xD9,W
0DE32:  SUBLW  63
0DE34:  BNC   DE38
....................                   Ajuste++; 
0DE36:  INCF   xD9,F
....................                RX_Buffer[4]=0x00;   
0DE38:  CLRF   34
....................                RX_Buffer2[4]=0x00;             
0DE3A:  CLRF   3F
0DE3C:  MOVLB  0
....................                //BorraBuffer(); 
....................             } 
....................          } 
....................              
....................          if(RX_Buffer[4]==0x0b || DOWN){//Tecla Abajo Oprimida 
0DE3E:  MOVF   34,W
0DE40:  SUBLW  0B
0DE42:  BZ    DE4A
0DE44:  BSF    F93.1
0DE46:  BTFSC  F81.1
0DE48:  BRA    DE70
....................             delay_ms(20); 
0DE4A:  MOVLW  14
0DE4C:  MOVLB  4
0DE4E:  MOVWF  x58
0DE50:  MOVLB  0
0DE52:  CALL   1A3E
....................             if(RX_Buffer[4]==0x0b || DOWN){ 
0DE56:  MOVF   34,W
0DE58:  SUBLW  0B
0DE5A:  BZ    DE62
0DE5C:  BSF    F93.1
0DE5E:  BTFSC  F81.1
0DE60:  BRA    DE70
....................                if(Ajuste>0) 
0DE62:  MOVLB  2
0DE64:  MOVF   xD9,F
0DE66:  BZ    DE6A
....................                   Ajuste--; 
0DE68:  DECF   xD9,F
....................                RX_Buffer[4]=0x00; 
0DE6A:  CLRF   34
....................                RX_Buffer2[4]=0x00;             
0DE6C:  CLRF   3F
0DE6E:  MOVLB  0
....................                //BorraBuffer(); 
....................             } 
....................          } 
....................       }else if(Opcion2==6){ 
0DE70:  BRA    E270
0DE72:  MOVLB  3
0DE74:  MOVF   x69,W
0DE76:  SUBLW  06
0DE78:  BNZ   DF2E
....................          printf("Config.t2c.txt=\"Ajuste -\""); 
0DE7A:  MOVLW  F8
0DE7C:  MOVWF  FF6
0DE7E:  MOVLW  18
0DE80:  MOVWF  FF7
0DE82:  MOVLW  00
0DE84:  MOVWF  FF8
0DE86:  MOVLB  0
0DE88:  CALL   38F2
....................          SendDataDisplay();       
0DE8C:  CALL   3924
....................          printf("t3c.txt=\"%u\"",Ajusten); 
0DE90:  MOVLW  12
0DE92:  MOVWF  FF6
0DE94:  MOVLW  19
0DE96:  MOVWF  FF7
0DE98:  MOVLW  00
0DE9A:  MOVWF  FF8
0DE9C:  MOVLW  09
0DE9E:  MOVLB  4
0DEA0:  MOVWF  x48
0DEA2:  MOVLB  0
0DEA4:  CALL   487E
0DEA8:  MOVFF  2DA,448
0DEAC:  MOVLW  1B
0DEAE:  MOVLB  4
0DEB0:  MOVWF  x49
0DEB2:  MOVLB  0
0DEB4:  CALL   48DC
0DEB8:  MOVLW  22
0DEBA:  BTFSS  F9E.4
0DEBC:  BRA    DEBA
0DEBE:  MOVWF  FAD
....................          SendDataDisplay(); 
0DEC0:  CALL   3924
....................          if(RX_Buffer[4]==0x0a || UP){//Tecla Arriba Oprimida 
0DEC4:  MOVF   34,W
0DEC6:  SUBLW  0A
0DEC8:  BZ    DED0
0DECA:  BSF    F93.0
0DECC:  BTFSC  F81.0
0DECE:  BRA    DEF8
....................             delay_ms(20); 
0DED0:  MOVLW  14
0DED2:  MOVLB  4
0DED4:  MOVWF  x58
0DED6:  MOVLB  0
0DED8:  CALL   1A3E
....................             if(RX_Buffer[4]==0x0a || UP){ 
0DEDC:  MOVF   34,W
0DEDE:  SUBLW  0A
0DEE0:  BZ    DEE8
0DEE2:  BSF    F93.0
0DEE4:  BTFSC  F81.0
0DEE6:  BRA    DEF8
....................                if(Ajusten<100) 
0DEE8:  MOVLB  2
0DEEA:  MOVF   xDA,W
0DEEC:  SUBLW  63
0DEEE:  BNC   DEF2
....................                   Ajusten++; 
0DEF0:  INCF   xDA,F
....................                RX_Buffer[4]=0x00;   
0DEF2:  CLRF   34
....................                RX_Buffer2[4]=0x00;             
0DEF4:  CLRF   3F
0DEF6:  MOVLB  0
....................                //BorraBuffer(); 
....................             } 
....................          } 
....................              
....................          if(RX_Buffer[4]==0x0b || DOWN){//Tecla Abajo Oprimida 
0DEF8:  MOVF   34,W
0DEFA:  SUBLW  0B
0DEFC:  BZ    DF04
0DEFE:  BSF    F93.1
0DF00:  BTFSC  F81.1
0DF02:  BRA    DF2A
....................             delay_ms(20); 
0DF04:  MOVLW  14
0DF06:  MOVLB  4
0DF08:  MOVWF  x58
0DF0A:  MOVLB  0
0DF0C:  CALL   1A3E
....................             if(RX_Buffer[4]==0x0b || DOWN){ 
0DF10:  MOVF   34,W
0DF12:  SUBLW  0B
0DF14:  BZ    DF1C
0DF16:  BSF    F93.1
0DF18:  BTFSC  F81.1
0DF1A:  BRA    DF2A
....................                if(Ajusten>0) 
0DF1C:  MOVLB  2
0DF1E:  MOVF   xDA,F
0DF20:  BZ    DF24
....................                   Ajusten--; 
0DF22:  DECF   xDA,F
....................                RX_Buffer[4]=0x00; 
0DF24:  CLRF   34
....................                RX_Buffer2[4]=0x00;             
0DF26:  CLRF   3F
0DF28:  MOVLB  0
....................                //BorraBuffer(); 
....................             } 
....................          } 
....................       }else if(Opcion2==7){ 
0DF2A:  BRA    E270
0DF2C:  MOVLB  3
0DF2E:  MOVF   x69,W
0DF30:  SUBLW  07
0DF32:  BNZ   DFEA
....................          printf("Config.t2c.txt=\"Media\""); 
0DF34:  MOVLW  20
0DF36:  MOVWF  FF6
0DF38:  MOVLW  19
0DF3A:  MOVWF  FF7
0DF3C:  MOVLW  00
0DF3E:  MOVWF  FF8
0DF40:  MOVLB  0
0DF42:  CALL   38F2
....................          SendDataDisplay();       
0DF46:  CALL   3924
....................          printf("t3c.txt=\"%u\"",MediaMovil); 
0DF4A:  MOVLW  38
0DF4C:  MOVWF  FF6
0DF4E:  MOVLW  19
0DF50:  MOVWF  FF7
0DF52:  MOVLW  00
0DF54:  MOVWF  FF8
0DF56:  MOVLW  09
0DF58:  MOVLB  4
0DF5A:  MOVWF  x48
0DF5C:  MOVLB  0
0DF5E:  CALL   487E
0DF62:  MOVFF  2DB,448
0DF66:  MOVLW  1B
0DF68:  MOVLB  4
0DF6A:  MOVWF  x49
0DF6C:  MOVLB  0
0DF6E:  CALL   48DC
0DF72:  MOVLW  22
0DF74:  BTFSS  F9E.4
0DF76:  BRA    DF74
0DF78:  MOVWF  FAD
....................          SendDataDisplay(); 
0DF7A:  CALL   3924
....................          if(RX_Buffer[4]==0x0a || UP){//Tecla Arriba Oprimida 
0DF7E:  MOVF   34,W
0DF80:  SUBLW  0A
0DF82:  BZ    DF8A
0DF84:  BSF    F93.0
0DF86:  BTFSC  F81.0
0DF88:  BRA    DFB2
....................             delay_ms(20); 
0DF8A:  MOVLW  14
0DF8C:  MOVLB  4
0DF8E:  MOVWF  x58
0DF90:  MOVLB  0
0DF92:  CALL   1A3E
....................             if(RX_Buffer[4]==0x0a || UP){ 
0DF96:  MOVF   34,W
0DF98:  SUBLW  0A
0DF9A:  BZ    DFA2
0DF9C:  BSF    F93.0
0DF9E:  BTFSC  F81.0
0DFA0:  BRA    DFB2
....................                if(MediaMovil<80) 
0DFA2:  MOVLB  2
0DFA4:  MOVF   xDB,W
0DFA6:  SUBLW  4F
0DFA8:  BNC   DFAC
....................                   MediaMovil++; 
0DFAA:  INCF   xDB,F
....................                RX_Buffer[4]=0x00;   
0DFAC:  CLRF   34
....................                RX_Buffer2[4]=0x00;             
0DFAE:  CLRF   3F
0DFB0:  MOVLB  0
....................                //BorraBuffer(); 
....................             } 
....................          } 
....................              
....................          if(RX_Buffer[4]==0x0b || DOWN){//Tecla Abajo Oprimida 
0DFB2:  MOVF   34,W
0DFB4:  SUBLW  0B
0DFB6:  BZ    DFBE
0DFB8:  BSF    F93.1
0DFBA:  BTFSC  F81.1
0DFBC:  BRA    DFE6
....................             delay_ms(20); 
0DFBE:  MOVLW  14
0DFC0:  MOVLB  4
0DFC2:  MOVWF  x58
0DFC4:  MOVLB  0
0DFC6:  CALL   1A3E
....................             if(RX_Buffer[4]==0x0b || DOWN){ 
0DFCA:  MOVF   34,W
0DFCC:  SUBLW  0B
0DFCE:  BZ    DFD6
0DFD0:  BSF    F93.1
0DFD2:  BTFSC  F81.1
0DFD4:  BRA    DFE6
....................                if(MediaMovil>10) 
0DFD6:  MOVLB  2
0DFD8:  MOVF   xDB,W
0DFDA:  SUBLW  0A
0DFDC:  BC    DFE0
....................                   MediaMovil--; 
0DFDE:  DECF   xDB,F
....................                RX_Buffer[4]=0x00; 
0DFE0:  CLRF   34
....................                RX_Buffer2[4]=0x00;             
0DFE2:  CLRF   3F
0DFE4:  MOVLB  0
....................                //BorraBuffer(); 
....................             } 
....................          } 
....................       }else if(Opcion2==8){ 
0DFE6:  BRA    E270
0DFE8:  MOVLB  3
0DFEA:  MOVF   x69,W
0DFEC:  SUBLW  08
0DFEE:  BNZ   E0A8
....................          printf("Config.t2c.txt=\"Pulsos Purga\""); 
0DFF0:  MOVLW  46
0DFF2:  MOVWF  FF6
0DFF4:  MOVLW  19
0DFF6:  MOVWF  FF7
0DFF8:  MOVLW  00
0DFFA:  MOVWF  FF8
0DFFC:  MOVLB  0
0DFFE:  CALL   38F2
....................          SendDataDisplay();       
0E002:  CALL   3924
....................          printf("t3c.txt=\"%02u\"",pulsosPurgaProgramados); 
0E006:  MOVLW  64
0E008:  MOVWF  FF6
0E00A:  MOVLW  19
0E00C:  MOVWF  FF7
0E00E:  MOVLW  00
0E010:  MOVWF  FF8
0E012:  MOVLW  09
0E014:  MOVLB  4
0E016:  MOVWF  x48
0E018:  MOVLB  0
0E01A:  CALL   487E
0E01E:  MOVFF  340,448
0E022:  MOVLW  01
0E024:  MOVLB  4
0E026:  MOVWF  x49
0E028:  MOVLB  0
0E02A:  CALL   48DC
0E02E:  MOVLW  22
0E030:  BTFSS  F9E.4
0E032:  BRA    E030
0E034:  MOVWF  FAD
....................          SendDataDisplay(); 
0E036:  CALL   3924
....................          if(RX_Buffer[4]==0x0a || UP){//Tecla Arriba Oprimida 
0E03A:  MOVF   34,W
0E03C:  SUBLW  0A
0E03E:  BZ    E046
0E040:  BSF    F93.0
0E042:  BTFSC  F81.0
0E044:  BRA    E070
....................             delay_ms(20); 
0E046:  MOVLW  14
0E048:  MOVLB  4
0E04A:  MOVWF  x58
0E04C:  MOVLB  0
0E04E:  CALL   1A3E
....................             if(RX_Buffer[4]==0x0a || UP){ 
0E052:  MOVF   34,W
0E054:  SUBLW  0A
0E056:  BZ    E05E
0E058:  BSF    F93.0
0E05A:  BTFSC  F81.0
0E05C:  BRA    E070
....................                if(pulsosPurgaProgramados<30) 
0E05E:  MOVLB  3
0E060:  MOVF   x40,W
0E062:  SUBLW  1D
0E064:  BNC   E06A
....................                   pulsosPurgaProgramados+=1; 
0E066:  MOVLW  01
0E068:  ADDWF  x40,F
....................                RX_Buffer[4]=0x00;   
0E06A:  CLRF   34
....................                RX_Buffer2[4]=0x00;             
0E06C:  CLRF   3F
0E06E:  MOVLB  0
....................                //BorraBuffer(); 
....................             } 
....................          } 
....................              
....................          if(RX_Buffer[4]==0x0b || DOWN){//Tecla Abajo Oprimida 
0E070:  MOVF   34,W
0E072:  SUBLW  0B
0E074:  BZ    E07C
0E076:  BSF    F93.1
0E078:  BTFSC  F81.1
0E07A:  BRA    E0A4
....................             delay_ms(20); 
0E07C:  MOVLW  14
0E07E:  MOVLB  4
0E080:  MOVWF  x58
0E082:  MOVLB  0
0E084:  CALL   1A3E
....................             if(RX_Buffer[4]==0x0b || DOWN){ 
0E088:  MOVF   34,W
0E08A:  SUBLW  0B
0E08C:  BZ    E094
0E08E:  BSF    F93.1
0E090:  BTFSC  F81.1
0E092:  BRA    E0A4
....................                if(pulsosPurgaProgramados>0) 
0E094:  MOVLB  3
0E096:  MOVF   x40,F
0E098:  BZ    E09E
....................                   pulsosPurgaProgramados-=1; 
0E09A:  MOVLW  01
0E09C:  SUBWF  x40,F
....................                RX_Buffer[4]=0x00; 
0E09E:  CLRF   34
....................                RX_Buffer2[4]=0x00;             
0E0A0:  CLRF   3F
0E0A2:  MOVLB  0
....................                //BorraBuffer(); 
....................             } 
....................          } 
....................       }else if(Opcion2==9){ 
0E0A4:  BRA    E270
0E0A6:  MOVLB  3
0E0A8:  MOVF   x69,W
0E0AA:  SUBLW  09
0E0AC:  BNZ   E164
....................          printf("Config.t2c.txt=\"TTrampa\""); 
0E0AE:  MOVLW  74
0E0B0:  MOVWF  FF6
0E0B2:  MOVLW  19
0E0B4:  MOVWF  FF7
0E0B6:  MOVLW  00
0E0B8:  MOVWF  FF8
0E0BA:  MOVLB  0
0E0BC:  CALL   38F2
....................          SendDataDisplay();       
0E0C0:  CALL   3924
....................          printf("t3c.txt=\"%02u\"",TTrampa); 
0E0C4:  MOVLW  8E
0E0C6:  MOVWF  FF6
0E0C8:  MOVLW  19
0E0CA:  MOVWF  FF7
0E0CC:  MOVLW  00
0E0CE:  MOVWF  FF8
0E0D0:  MOVLW  09
0E0D2:  MOVLB  4
0E0D4:  MOVWF  x48
0E0D6:  MOVLB  0
0E0D8:  CALL   487E
0E0DC:  MOVFF  2DC,448
0E0E0:  MOVLW  01
0E0E2:  MOVLB  4
0E0E4:  MOVWF  x49
0E0E6:  MOVLB  0
0E0E8:  CALL   48DC
0E0EC:  MOVLW  22
0E0EE:  BTFSS  F9E.4
0E0F0:  BRA    E0EE
0E0F2:  MOVWF  FAD
....................          SendDataDisplay(); 
0E0F4:  CALL   3924
....................          if(RX_Buffer[4]==0x0a || UP){//Tecla Arriba Oprimida 
0E0F8:  MOVF   34,W
0E0FA:  SUBLW  0A
0E0FC:  BZ    E104
0E0FE:  BSF    F93.0
0E100:  BTFSC  F81.0
0E102:  BRA    E12C
....................             delay_ms(20); 
0E104:  MOVLW  14
0E106:  MOVLB  4
0E108:  MOVWF  x58
0E10A:  MOVLB  0
0E10C:  CALL   1A3E
....................             if(RX_Buffer[4]==0x0a || UP){ 
0E110:  MOVF   34,W
0E112:  SUBLW  0A
0E114:  BZ    E11C
0E116:  BSF    F93.0
0E118:  BTFSC  F81.0
0E11A:  BRA    E12C
....................                if(TTrampa<100) 
0E11C:  MOVLB  2
0E11E:  MOVF   xDC,W
0E120:  SUBLW  63
0E122:  BNC   E126
....................                   TTrampa++; 
0E124:  INCF   xDC,F
....................                RX_Buffer[4]=0x00;   
0E126:  CLRF   34
....................                RX_Buffer2[4]=0x00;             
0E128:  CLRF   3F
0E12A:  MOVLB  0
....................                //BorraBuffer(); 
....................             } 
....................          } 
....................              
....................          if(RX_Buffer[4]==0x0b || DOWN){//Tecla Abajo Oprimida 
0E12C:  MOVF   34,W
0E12E:  SUBLW  0B
0E130:  BZ    E138
0E132:  BSF    F93.1
0E134:  BTFSC  F81.1
0E136:  BRA    E160
....................             delay_ms(20); 
0E138:  MOVLW  14
0E13A:  MOVLB  4
0E13C:  MOVWF  x58
0E13E:  MOVLB  0
0E140:  CALL   1A3E
....................             if(RX_Buffer[4]==0x0b || DOWN){ 
0E144:  MOVF   34,W
0E146:  SUBLW  0B
0E148:  BZ    E150
0E14A:  BSF    F93.1
0E14C:  BTFSC  F81.1
0E14E:  BRA    E160
....................                if(TTrampa>50) 
0E150:  MOVLB  2
0E152:  MOVF   xDC,W
0E154:  SUBLW  32
0E156:  BC    E15A
....................                   TTrampa--; 
0E158:  DECF   xDC,F
....................                RX_Buffer[4]=0x00; 
0E15A:  CLRF   34
....................                RX_Buffer2[4]=0x00;             
0E15C:  CLRF   3F
0E15E:  MOVLB  0
....................                //BorraBuffer(); 
....................             } 
....................          } 
....................       }else if(Opcion2==10){ 
0E160:  BRA    E270
0E162:  MOVLB  3
0E164:  MOVF   x69,W
0E166:  SUBLW  0A
0E168:  BNZ   E1B8
....................          printf("Config.t2c.txt=\"Ciclos\""); 
0E16A:  MOVLW  9E
0E16C:  MOVWF  FF6
0E16E:  MOVLW  19
0E170:  MOVWF  FF7
0E172:  MOVLW  00
0E174:  MOVWF  FF8
0E176:  MOVLB  0
0E178:  CALL   38F2
....................          SendDataDisplay();       
0E17C:  CALL   3924
....................          printf("t3c.txt=\"%05Lu\"",Ciclos); 
0E180:  MOVLW  B6
0E182:  MOVWF  FF6
0E184:  MOVLW  19
0E186:  MOVWF  FF7
0E188:  MOVLW  00
0E18A:  MOVWF  FF8
0E18C:  MOVLW  09
0E18E:  MOVLB  4
0E190:  MOVWF  x48
0E192:  MOVLB  0
0E194:  CALL   487E
0E198:  MOVLW  08
0E19A:  MOVWF  FE9
0E19C:  MOVFF  37E,448
0E1A0:  MOVFF  37D,447
0E1A4:  CALL   4C42
0E1A8:  MOVLW  22
0E1AA:  BTFSS  F9E.4
0E1AC:  BRA    E1AA
0E1AE:  MOVWF  FAD
....................          SendDataDisplay(); 
0E1B0:  CALL   3924
....................       }else if(Opcion2==11){ 
0E1B4:  BRA    E270
0E1B6:  MOVLB  3
0E1B8:  MOVF   x69,W
0E1BA:  SUBLW  0B
0E1BC:  BNZ   E26E
....................          printf("Config.t2c.txt=\"Atmosferica\""); 
0E1BE:  MOVLW  C6
0E1C0:  MOVWF  FF6
0E1C2:  MOVLW  19
0E1C4:  MOVWF  FF7
0E1C6:  MOVLW  00
0E1C8:  MOVWF  FF8
0E1CA:  MOVLB  0
0E1CC:  CALL   38F2
....................          SendDataDisplay();    
0E1D0:  CALL   3924
....................          printf("t3c.txt=\"%02u\"",Atmosferica); 
0E1D4:  MOVLW  E4
0E1D6:  MOVWF  FF6
0E1D8:  MOVLW  19
0E1DA:  MOVWF  FF7
0E1DC:  MOVLW  00
0E1DE:  MOVWF  FF8
0E1E0:  MOVLW  09
0E1E2:  MOVLB  4
0E1E4:  MOVWF  x48
0E1E6:  MOVLB  0
0E1E8:  CALL   487E
0E1EC:  MOVFF  3B2,448
0E1F0:  MOVLW  01
0E1F2:  MOVLB  4
0E1F4:  MOVWF  x49
0E1F6:  MOVLB  0
0E1F8:  CALL   48DC
0E1FC:  MOVLW  22
0E1FE:  BTFSS  F9E.4
0E200:  BRA    E1FE
0E202:  MOVWF  FAD
....................          SendDataDisplay(); 
0E204:  CALL   3924
....................           
....................          #ifdef PT100Fija 
....................             Atmosferica=0; 
....................          #else 
....................             if(RX_Buffer[4]==0x0a || UP){//Tecla Arriba Oprimida 
0E208:  MOVF   34,W
0E20A:  SUBLW  0A
0E20C:  BZ    E214
0E20E:  BSF    F93.0
0E210:  BTFSC  F81.0
0E212:  BRA    E23C
....................                delay_ms(20); 
0E214:  MOVLW  14
0E216:  MOVLB  4
0E218:  MOVWF  x58
0E21A:  MOVLB  0
0E21C:  CALL   1A3E
....................                if(RX_Buffer[4]==0x0a || UP){ 
0E220:  MOVF   34,W
0E222:  SUBLW  0A
0E224:  BZ    E22C
0E226:  BSF    F93.0
0E228:  BTFSC  F81.0
0E22A:  BRA    E23C
....................                   if(Atmosferica<100) 
0E22C:  MOVLB  3
0E22E:  MOVF   xB2,W
0E230:  SUBLW  63
0E232:  BNC   E236
....................                      Atmosferica++; 
0E234:  INCF   xB2,F
....................                   RX_Buffer[4]=0x00;   
0E236:  CLRF   34
....................                   RX_Buffer2[4]=0x00;             
0E238:  CLRF   3F
0E23A:  MOVLB  0
....................                   //BorraBuffer(); 
....................                } 
....................             } 
....................                 
....................             if(RX_Buffer[4]==0x0b || DOWN){//Tecla Abajo Oprimida 
0E23C:  MOVF   34,W
0E23E:  SUBLW  0B
0E240:  BZ    E248
0E242:  BSF    F93.1
0E244:  BTFSC  F81.1
0E246:  BRA    E270
....................                delay_ms(20); 
0E248:  MOVLW  14
0E24A:  MOVLB  4
0E24C:  MOVWF  x58
0E24E:  MOVLB  0
0E250:  CALL   1A3E
....................                if(RX_Buffer[4]==0x0b || DOWN){ 
0E254:  MOVF   34,W
0E256:  SUBLW  0B
0E258:  BZ    E260
0E25A:  BSF    F93.1
0E25C:  BTFSC  F81.1
0E25E:  BRA    E270
....................                   if(Atmosferica>50) 
0E260:  MOVLB  3
0E262:  MOVF   xB2,W
0E264:  SUBLW  32
0E266:  BC    E26A
....................                      Atmosferica--; 
0E268:  DECF   xB2,F
....................                   RX_Buffer[4]=0x00; 
0E26A:  CLRF   34
....................                   RX_Buffer2[4]=0x00;             
0E26C:  CLRF   3F
0E26E:  MOVLB  0
....................                   //BorraBuffer(); 
....................                } 
....................             }  
....................          #endif 
....................       } 
....................        
....................       if(RX_Buffer[4]==0x0c || LEFT){//Tecla Izquierda Oprimida 
0E270:  MOVF   34,W
0E272:  SUBLW  0C
0E274:  BZ    E27C
0E276:  BSF    F93.3
0E278:  BTFSC  F81.3
0E27A:  BRA    E29E
....................          delay_ms(20); 
0E27C:  MOVLW  14
0E27E:  MOVLB  4
0E280:  MOVWF  x58
0E282:  MOVLB  0
0E284:  CALL   1A3E
....................          if(RX_Buffer[4]==0x0c || LEFT){ 
0E288:  MOVF   34,W
0E28A:  SUBLW  0C
0E28C:  BZ    E294
0E28E:  BSF    F93.3
0E290:  BTFSC  F81.3
0E292:  BRA    E29E
....................             Opcion2++; 
0E294:  MOVLB  3
0E296:  INCF   x69,F
....................             RX_Buffer[4]=0x00;   
0E298:  CLRF   34
....................             RX_Buffer2[4]=0x00;             
0E29A:  CLRF   3F
0E29C:  MOVLB  0
....................             //BorraBuffer(); 
....................          } 
....................       } 
....................           
....................       if(RX_Buffer[4]==0x0d || RIGHT){//Tecla Derecha Oprimida 
0E29E:  MOVF   34,W
0E2A0:  SUBLW  0D
0E2A2:  BZ    E2AA
0E2A4:  BSF    F93.2
0E2A6:  BTFSC  F81.2
0E2A8:  BRA    E2CC
....................          delay_ms(20); 
0E2AA:  MOVLW  14
0E2AC:  MOVLB  4
0E2AE:  MOVWF  x58
0E2B0:  MOVLB  0
0E2B2:  CALL   1A3E
....................          if(RX_Buffer[4]==0x0d || RIGHT){ 
0E2B6:  MOVF   34,W
0E2B8:  SUBLW  0D
0E2BA:  BZ    E2C2
0E2BC:  BSF    F93.2
0E2BE:  BTFSC  F81.2
0E2C0:  BRA    E2CC
....................             Opcion2--; 
0E2C2:  MOVLB  3
0E2C4:  DECF   x69,F
....................             RX_Buffer[4]=0x00; 
0E2C6:  CLRF   34
....................             RX_Buffer2[4]=0x00;             
0E2C8:  CLRF   3F
0E2CA:  MOVLB  0
....................             //BorraBuffer(); 
....................          } 
....................       } 
....................        
....................       if(RX_Buffer[4]==0x11 || (RIGHT && LEFT)){//Tecla Regresar 
0E2CC:  MOVF   34,W
0E2CE:  SUBLW  11
0E2D0:  BZ    E2DE
0E2D2:  BSF    F93.2
0E2D4:  BTFSC  F81.2
0E2D6:  BRA    E6BA
0E2D8:  BSF    F93.3
0E2DA:  BTFSC  F81.3
0E2DC:  BRA    E6BA
....................          delay_ms(20); 
0E2DE:  MOVLW  14
0E2E0:  MOVLB  4
0E2E2:  MOVWF  x58
0E2E4:  MOVLB  0
0E2E6:  CALL   1A3E
....................          if(RX_Buffer[4]==0x11 || (RIGHT && LEFT)){ 
0E2EA:  MOVF   34,W
0E2EC:  SUBLW  11
0E2EE:  BZ    E2FC
0E2F0:  BSF    F93.2
0E2F2:  BTFSC  F81.2
0E2F4:  BRA    E6BA
0E2F6:  BSF    F93.3
0E2F8:  BTFSC  F81.3
0E2FA:  BRA    E6BA
....................             if(!GuardaEEPROM){ 
0E2FC:  BTFSC  xA2.6
0E2FE:  BRA    E6A6
....................                write_eeprom(20,(int8)Ganancia); 
0E300:  MOVFF  30B,45B
0E304:  MOVFF  30A,45A
0E308:  MOVFF  309,459
0E30C:  MOVFF  308,458
0E310:  CALL   412A
0E314:  MOVFF  01,443
0E318:  CLRF   FAA
0E31A:  MOVLW  14
0E31C:  MOVWF  FA9
0E31E:  MOVFF  443,FA8
0E322:  BCF    FA6.6
0E324:  BCF    FA6.7
0E326:  BSF    FA6.2
0E328:  MOVF   FF2,W
0E32A:  MOVWF  00
0E32C:  BCF    FF2.6
0E32E:  BCF    FF2.7
0E330:  MOVLB  F
0E332:  MOVLW  55
0E334:  MOVWF  FA7
0E336:  MOVLW  AA
0E338:  MOVWF  FA7
0E33A:  BSF    FA6.1
0E33C:  BTFSC  FA6.1
0E33E:  BRA    E33C
0E340:  BCF    FA6.2
0E342:  MOVF   00,W
0E344:  IORWF  FF2,F
....................                delay_ms(10); 
0E346:  MOVLW  0A
0E348:  MOVLB  4
0E34A:  MOVWF  x58
0E34C:  MOVLB  0
0E34E:  CALL   1A3E
....................                write_eeprom(26,(int8)Integral); 
0E352:  CLRF   FAA
0E354:  MOVLW  1A
0E356:  MOVWF  FA9
0E358:  MOVFF  33C,FA8
0E35C:  BCF    FA6.6
0E35E:  BCF    FA6.7
0E360:  BSF    FA6.2
0E362:  MOVF   FF2,W
0E364:  MOVWF  00
0E366:  BCF    FF2.6
0E368:  BCF    FF2.7
0E36A:  MOVLB  F
0E36C:  MOVLW  55
0E36E:  MOVWF  FA7
0E370:  MOVLW  AA
0E372:  MOVWF  FA7
0E374:  BSF    FA6.1
0E376:  BTFSC  FA6.1
0E378:  BRA    E376
0E37A:  BCF    FA6.2
0E37C:  MOVF   00,W
0E37E:  IORWF  FF2,F
....................                delay_ms(10); 
0E380:  MOVLW  0A
0E382:  MOVLB  4
0E384:  MOVWF  x58
0E386:  MOVLB  0
0E388:  CALL   1A3E
....................                write_eeprom(27,(int8)Derivativo); 
0E38C:  CLRF   FAA
0E38E:  MOVLW  1B
0E390:  MOVWF  FA9
0E392:  MOVFF  33D,FA8
0E396:  BCF    FA6.6
0E398:  BCF    FA6.7
0E39A:  BSF    FA6.2
0E39C:  MOVF   FF2,W
0E39E:  MOVWF  00
0E3A0:  BCF    FF2.6
0E3A2:  BCF    FF2.7
0E3A4:  MOVLB  F
0E3A6:  MOVLW  55
0E3A8:  MOVWF  FA7
0E3AA:  MOVLW  AA
0E3AC:  MOVWF  FA7
0E3AE:  BSF    FA6.1
0E3B0:  BTFSC  FA6.1
0E3B2:  BRA    E3B0
0E3B4:  BCF    FA6.2
0E3B6:  MOVF   00,W
0E3B8:  IORWF  FF2,F
....................                delay_ms(10); 
0E3BA:  MOVLW  0A
0E3BC:  MOVLB  4
0E3BE:  MOVWF  x58
0E3C0:  MOVLB  0
0E3C2:  CALL   1A3E
....................                write_eeprom(25,(int8)Tciclo); 
0E3C6:  MOVFF  2F3,45B
0E3CA:  MOVFF  2F2,45A
0E3CE:  MOVFF  2F1,459
0E3D2:  MOVFF  2F0,458
0E3D6:  CALL   412A
0E3DA:  MOVFF  01,443
0E3DE:  CLRF   FAA
0E3E0:  MOVLW  19
0E3E2:  MOVWF  FA9
0E3E4:  MOVFF  443,FA8
0E3E8:  BCF    FA6.6
0E3EA:  BCF    FA6.7
0E3EC:  BSF    FA6.2
0E3EE:  MOVF   FF2,W
0E3F0:  MOVWF  00
0E3F2:  BCF    FF2.6
0E3F4:  BCF    FF2.7
0E3F6:  MOVLB  F
0E3F8:  MOVLW  55
0E3FA:  MOVWF  FA7
0E3FC:  MOVLW  AA
0E3FE:  MOVWF  FA7
0E400:  BSF    FA6.1
0E402:  BTFSC  FA6.1
0E404:  BRA    E402
0E406:  BCF    FA6.2
0E408:  MOVF   00,W
0E40A:  IORWF  FF2,F
....................                delay_ms(10); 
0E40C:  MOVLW  0A
0E40E:  MOVLB  4
0E410:  MOVWF  x58
0E412:  MOVLB  0
0E414:  CALL   1A3E
....................                write_eeprom(21,Ajuste); 
0E418:  CLRF   FAA
0E41A:  MOVLW  15
0E41C:  MOVWF  FA9
0E41E:  MOVFF  2D9,FA8
0E422:  BCF    FA6.6
0E424:  BCF    FA6.7
0E426:  BSF    FA6.2
0E428:  MOVF   FF2,W
0E42A:  MOVWF  00
0E42C:  BCF    FF2.6
0E42E:  BCF    FF2.7
0E430:  MOVLB  F
0E432:  MOVLW  55
0E434:  MOVWF  FA7
0E436:  MOVLW  AA
0E438:  MOVWF  FA7
0E43A:  BSF    FA6.1
0E43C:  BTFSC  FA6.1
0E43E:  BRA    E43C
0E440:  BCF    FA6.2
0E442:  MOVF   00,W
0E444:  IORWF  FF2,F
....................                delay_ms(10); 
0E446:  MOVLW  0A
0E448:  MOVLB  4
0E44A:  MOVWF  x58
0E44C:  MOVLB  0
0E44E:  CALL   1A3E
....................                write_eeprom(22,Ajusten); 
0E452:  CLRF   FAA
0E454:  MOVLW  16
0E456:  MOVWF  FA9
0E458:  MOVFF  2DA,FA8
0E45C:  BCF    FA6.6
0E45E:  BCF    FA6.7
0E460:  BSF    FA6.2
0E462:  MOVF   FF2,W
0E464:  MOVWF  00
0E466:  BCF    FF2.6
0E468:  BCF    FF2.7
0E46A:  MOVLB  F
0E46C:  MOVLW  55
0E46E:  MOVWF  FA7
0E470:  MOVLW  AA
0E472:  MOVWF  FA7
0E474:  BSF    FA6.1
0E476:  BTFSC  FA6.1
0E478:  BRA    E476
0E47A:  BCF    FA6.2
0E47C:  MOVF   00,W
0E47E:  IORWF  FF2,F
....................                delay_ms(10); 
0E480:  MOVLW  0A
0E482:  MOVLB  4
0E484:  MOVWF  x58
0E486:  MOVLB  0
0E488:  CALL   1A3E
....................                write_eeprom(24,(int8)MediaMovil); 
0E48C:  CLRF   FAA
0E48E:  MOVLW  18
0E490:  MOVWF  FA9
0E492:  MOVFF  2DB,FA8
0E496:  BCF    FA6.6
0E498:  BCF    FA6.7
0E49A:  BSF    FA6.2
0E49C:  MOVF   FF2,W
0E49E:  MOVWF  00
0E4A0:  BCF    FF2.6
0E4A2:  BCF    FF2.7
0E4A4:  MOVLB  F
0E4A6:  MOVLW  55
0E4A8:  MOVWF  FA7
0E4AA:  MOVLW  AA
0E4AC:  MOVWF  FA7
0E4AE:  BSF    FA6.1
0E4B0:  BTFSC  FA6.1
0E4B2:  BRA    E4B0
0E4B4:  BCF    FA6.2
0E4B6:  MOVF   00,W
0E4B8:  IORWF  FF2,F
....................                delay_ms(10); 
0E4BA:  MOVLW  0A
0E4BC:  MOVLB  4
0E4BE:  MOVWF  x58
0E4C0:  MOVLB  0
0E4C2:  CALL   1A3E
....................                write_eeprom(32,(int8)RPT100); 
0E4C6:  MOVFF  2AA,45B
0E4CA:  MOVFF  2A9,45A
0E4CE:  MOVFF  2A8,459
0E4D2:  MOVFF  2A7,458
0E4D6:  CALL   412A
0E4DA:  MOVFF  01,443
0E4DE:  CLRF   FAA
0E4E0:  MOVLW  20
0E4E2:  MOVWF  FA9
0E4E4:  MOVFF  443,FA8
0E4E8:  BCF    FA6.6
0E4EA:  BCF    FA6.7
0E4EC:  BSF    FA6.2
0E4EE:  MOVF   FF2,W
0E4F0:  MOVWF  00
0E4F2:  BCF    FF2.6
0E4F4:  BCF    FF2.7
0E4F6:  MOVLB  F
0E4F8:  MOVLW  55
0E4FA:  MOVWF  FA7
0E4FC:  MOVLW  AA
0E4FE:  MOVWF  FA7
0E500:  BSF    FA6.1
0E502:  BTFSC  FA6.1
0E504:  BRA    E502
0E506:  BCF    FA6.2
0E508:  MOVF   00,W
0E50A:  IORWF  FF2,F
....................                delay_ms(10); 
0E50C:  MOVLW  0A
0E50E:  MOVLB  4
0E510:  MOVWF  x58
0E512:  MOVLB  0
0E514:  CALL   1A3E
....................                Temporal=RPT100-((int8)RPT100); 
0E518:  MOVFF  2AA,45B
0E51C:  MOVFF  2A9,45A
0E520:  MOVFF  2A8,459
0E524:  MOVFF  2A7,458
0E528:  CALL   412A
0E52C:  MOVLB  4
0E52E:  CLRF   x59
0E530:  MOVFF  01,458
0E534:  MOVLB  0
0E536:  CALL   1A66
0E53A:  BSF    FD8.1
0E53C:  MOVFF  2AA,45B
0E540:  MOVFF  2A9,45A
0E544:  MOVFF  2A8,459
0E548:  MOVFF  2A7,458
0E54C:  MOVFF  03,45F
0E550:  MOVFF  02,45E
0E554:  MOVFF  01,45D
0E558:  MOVFF  00,45C
0E55C:  CALL   1BFA
0E560:  MOVFF  03,2AE
0E564:  MOVFF  02,2AD
0E568:  MOVFF  01,2AC
0E56C:  MOVFF  00,2AB
....................                Temporal=Temporal*10; 
0E570:  MOVFF  2AE,45F
0E574:  MOVFF  2AD,45E
0E578:  MOVFF  2AC,45D
0E57C:  MOVFF  2AB,45C
0E580:  MOVLB  4
0E582:  CLRF   x63
0E584:  CLRF   x62
0E586:  MOVLW  20
0E588:  MOVWF  x61
0E58A:  MOVLW  82
0E58C:  MOVWF  x60
0E58E:  MOVLB  0
0E590:  CALL   39F2
0E594:  MOVFF  03,2AE
0E598:  MOVFF  02,2AD
0E59C:  MOVFF  01,2AC
0E5A0:  MOVFF  00,2AB
....................                write_eeprom(33,(int8)Temporal); 
0E5A4:  MOVFF  2AE,45B
0E5A8:  MOVFF  2AD,45A
0E5AC:  MOVFF  2AC,459
0E5B0:  MOVFF  2AB,458
0E5B4:  CALL   412A
0E5B8:  MOVFF  01,443
0E5BC:  CLRF   FAA
0E5BE:  MOVLW  21
0E5C0:  MOVWF  FA9
0E5C2:  MOVFF  443,FA8
0E5C6:  BCF    FA6.6
0E5C8:  BCF    FA6.7
0E5CA:  BSF    FA6.2
0E5CC:  MOVF   FF2,W
0E5CE:  MOVWF  00
0E5D0:  BCF    FF2.6
0E5D2:  BCF    FF2.7
0E5D4:  MOVLB  F
0E5D6:  MOVLW  55
0E5D8:  MOVWF  FA7
0E5DA:  MOVLW  AA
0E5DC:  MOVWF  FA7
0E5DE:  BSF    FA6.1
0E5E0:  BTFSC  FA6.1
0E5E2:  BRA    E5E0
0E5E4:  BCF    FA6.2
0E5E6:  MOVF   00,W
0E5E8:  IORWF  FF2,F
....................                delay_ms(10); 
0E5EA:  MOVLW  0A
0E5EC:  MOVLB  4
0E5EE:  MOVWF  x58
0E5F0:  MOVLB  0
0E5F2:  CALL   1A3E
....................                write_eeprom(39,TTrampa); 
0E5F6:  CLRF   FAA
0E5F8:  MOVLW  27
0E5FA:  MOVWF  FA9
0E5FC:  MOVFF  2DC,FA8
0E600:  BCF    FA6.6
0E602:  BCF    FA6.7
0E604:  BSF    FA6.2
0E606:  MOVF   FF2,W
0E608:  MOVWF  00
0E60A:  BCF    FF2.6
0E60C:  BCF    FF2.7
0E60E:  MOVLB  F
0E610:  MOVLW  55
0E612:  MOVWF  FA7
0E614:  MOVLW  AA
0E616:  MOVWF  FA7
0E618:  BSF    FA6.1
0E61A:  BTFSC  FA6.1
0E61C:  BRA    E61A
0E61E:  BCF    FA6.2
0E620:  MOVF   00,W
0E622:  IORWF  FF2,F
....................                delay_ms(10); 
0E624:  MOVLW  0A
0E626:  MOVLB  4
0E628:  MOVWF  x58
0E62A:  MOVLB  0
0E62C:  CALL   1A3E
....................                write_eeprom(46,Atmosferica); 
0E630:  CLRF   FAA
0E632:  MOVLW  2E
0E634:  MOVWF  FA9
0E636:  MOVFF  3B2,FA8
0E63A:  BCF    FA6.6
0E63C:  BCF    FA6.7
0E63E:  BSF    FA6.2
0E640:  MOVF   FF2,W
0E642:  MOVWF  00
0E644:  BCF    FF2.6
0E646:  BCF    FF2.7
0E648:  MOVLB  F
0E64A:  MOVLW  55
0E64C:  MOVWF  FA7
0E64E:  MOVLW  AA
0E650:  MOVWF  FA7
0E652:  BSF    FA6.1
0E654:  BTFSC  FA6.1
0E656:  BRA    E654
0E658:  BCF    FA6.2
0E65A:  MOVF   00,W
0E65C:  IORWF  FF2,F
....................                delay_ms(10); 
0E65E:  MOVLW  0A
0E660:  MOVLB  4
0E662:  MOVWF  x58
0E664:  MOVLB  0
0E666:  CALL   1A3E
....................                write_eeprom(47,pulsosPurgaProgramados); 
0E66A:  CLRF   FAA
0E66C:  MOVLW  2F
0E66E:  MOVWF  FA9
0E670:  MOVFF  340,FA8
0E674:  BCF    FA6.6
0E676:  BCF    FA6.7
0E678:  BSF    FA6.2
0E67A:  MOVF   FF2,W
0E67C:  MOVWF  00
0E67E:  BCF    FF2.6
0E680:  BCF    FF2.7
0E682:  MOVLB  F
0E684:  MOVLW  55
0E686:  MOVWF  FA7
0E688:  MOVLW  AA
0E68A:  MOVWF  FA7
0E68C:  BSF    FA6.1
0E68E:  BTFSC  FA6.1
0E690:  BRA    E68E
0E692:  BCF    FA6.2
0E694:  MOVF   00,W
0E696:  IORWF  FF2,F
....................                delay_ms(10); 
0E698:  MOVLW  0A
0E69A:  MOVLB  4
0E69C:  MOVWF  x58
0E69E:  MOVLB  0
0E6A0:  CALL   1A3E
....................                GuardaEEPROM=ON; 
0E6A4:  BSF    xA2.6
....................             } 
....................             printf("page MenuPrincipal"); 
0E6A6:  MOVLW  F4
0E6A8:  MOVWF  FF6
0E6AA:  MOVLW  19
0E6AC:  MOVWF  FF7
0E6AE:  MOVLW  00
0E6B0:  MOVWF  FF8
0E6B2:  CALL   38F2
....................             SendDataDisplay(); 
0E6B6:  CALL   3924
....................             //BorraBuffer(); 
....................          } 
....................       } 
....................       printf("fecha.txt=\"Fecha:%02u/%02u/20%02u    Hora: %02u:%02u\"",Dia,Mes,Year,Hora,Minuto); 
0E6BA:  MOVLW  08
0E6BC:  MOVWF  FF6
0E6BE:  MOVLW  1A
0E6C0:  MOVWF  FF7
0E6C2:  MOVLW  00
0E6C4:  MOVWF  FF8
0E6C6:  MOVLW  11
0E6C8:  MOVLB  4
0E6CA:  MOVWF  x48
0E6CC:  MOVLB  0
0E6CE:  CALL   487E
0E6D2:  MOVFF  3A4,448
0E6D6:  MOVLW  01
0E6D8:  MOVLB  4
0E6DA:  MOVWF  x49
0E6DC:  MOVLB  0
0E6DE:  CALL   48DC
0E6E2:  MOVLW  2F
0E6E4:  BTFSS  F9E.4
0E6E6:  BRA    E6E4
0E6E8:  MOVWF  FAD
0E6EA:  MOVFF  3A3,448
0E6EE:  MOVLW  01
0E6F0:  MOVLB  4
0E6F2:  MOVWF  x49
0E6F4:  MOVLB  0
0E6F6:  CALL   48DC
0E6FA:  MOVLW  2F
0E6FC:  BTFSS  F9E.4
0E6FE:  BRA    E6FC
0E700:  MOVWF  FAD
0E702:  MOVLW  32
0E704:  BTFSS  F9E.4
0E706:  BRA    E704
0E708:  MOVWF  FAD
0E70A:  MOVLW  30
0E70C:  BTFSS  F9E.4
0E70E:  BRA    E70C
0E710:  MOVWF  FAD
0E712:  MOVFF  3A2,448
0E716:  MOVLW  01
0E718:  MOVLB  4
0E71A:  MOVWF  x49
0E71C:  MOVLB  0
0E71E:  CALL   48DC
0E722:  MOVLW  29
0E724:  MOVWF  FF6
0E726:  MOVLW  1A
0E728:  MOVWF  FF7
0E72A:  MOVLW  00
0E72C:  MOVWF  FF8
0E72E:  MOVLW  0A
0E730:  MOVLB  4
0E732:  MOVWF  x48
0E734:  MOVLB  0
0E736:  CALL   487E
0E73A:  MOVFF  3A5,448
0E73E:  MOVLW  01
0E740:  MOVLB  4
0E742:  MOVWF  x49
0E744:  MOVLB  0
0E746:  CALL   48DC
0E74A:  MOVLW  3A
0E74C:  BTFSS  F9E.4
0E74E:  BRA    E74C
0E750:  MOVWF  FAD
0E752:  MOVFF  3A6,448
0E756:  MOVLW  01
0E758:  MOVLB  4
0E75A:  MOVWF  x49
0E75C:  MOVLB  0
0E75E:  CALL   48DC
0E762:  MOVLW  22
0E764:  BTFSS  F9E.4
0E766:  BRA    E764
0E768:  MOVWF  FAD
....................       SendDataDisplay();  
0E76A:  CALL   3924
0E76E:  MOVLB  3
....................     } 
.................... //_--------------------------------------------------------------------------------------------------------------------------------------------------------        
....................  
....................    } 
0E770:  GOTO   82D2
.................... } 
0E774:  SLEEP 

Configuration Fuses:
   Word  1: 0200   HS NOIESO NOFCMEN
   Word  2: 1B1F   BROWNOUT WDT BORV20 NOPUT WDT8192
   Word  3: 0000   NOPBADEN NOLPT1OSC NOMCLR
   Word  4: 00B0   NOSTVREN NODEBUG NOLVP NOXINST BBSIZ4K
   Word  5: C03F   NOPROTECT NOCPD NOCPB
   Word  6: E03F   NOWRT NOWRTD NOWRTC NOWRTB
   Word  7: 403F   NOEBTR NOEBTRB
