CCS PCH C Compiler, Version 4.104, 5967               17-feb.-21 10:13

               Filename: D:\Laboratorio\Autoclave\Autoclave Horizontal\Con Precamara\2016\Autoclave 110L\Autoclave ArtiLab\Mto- 03-02-2021\Firmware V4.0.7 - Reservorio-Presion-200Ciclos-Impresora-Generador\GLCD_Controller_V3.0.1\GLCD_Controller.lst

               ROM used: 57404 bytes (58%)
                         Largest free fragment is 32768
               RAM used: 1105 (33%) at main() level
                         1133 (34%) worst case
               Stack:    5 worst case (4 in main + 1 for interrupts)

*
00000:  GOTO   76A4
*
00008:  GOTO   00BA
0000C:  NOP   
0000E:  NOP   
00010:  NOP   
00012:  NOP   
00014:  NOP   
00016:  NOP   
00018:  MOVWF  04
0001A:  MOVFF  FD8,05
0001E:  MOVFF  FE0,06
00022:  MOVLB  0
00024:  MOVFF  FE9,0C
00028:  MOVFF  FEA,07
0002C:  MOVFF  FE1,08
00030:  MOVFF  FE2,09
00034:  MOVFF  FD9,0A
00038:  MOVFF  FDA,0B
0003C:  MOVFF  FF3,12
00040:  MOVFF  FF4,13
00044:  MOVFF  FFA,14
00048:  MOVFF  FFB,15
0004C:  MOVFF  00,0E
00050:  MOVFF  01,0F
00054:  MOVFF  02,10
00058:  MOVFF  03,11
0005C:  BTFSS  FF2.5
0005E:  GOTO   0068
00062:  BTFSC  FF2.2
00064:  GOTO   0526
00068:  BTFSS  F9D.0
0006A:  GOTO   0074
0006E:  BTFSC  F9E.0
00070:  GOTO   057E
00074:  MOVFF  0E,00
00078:  MOVFF  0F,01
0007C:  MOVFF  10,02
00080:  MOVFF  11,03
00084:  MOVFF  0C,FE9
00088:  MOVFF  07,FEA
0008C:  BSF    07.7
0008E:  MOVFF  08,FE1
00092:  MOVFF  09,FE2
00096:  MOVFF  0A,FD9
0009A:  MOVFF  0B,FDA
0009E:  MOVFF  12,FF3
000A2:  MOVFF  13,FF4
000A6:  MOVFF  14,FFA
000AA:  MOVFF  15,FFB
000AE:  MOVF   04,W
000B0:  MOVFF  06,FE0
000B4:  MOVFF  05,FD8
000B8:  RETFIE 0
000BA:  MOVWF  17
000BC:  MOVFF  FD8,18
000C0:  MOVFF  FE0,19
000C4:  MOVLB  0
000C6:  MOVFF  FE9,1F
000CA:  MOVFF  FEA,1A
000CE:  MOVFF  FE1,1B
000D2:  MOVFF  FE2,1C
000D6:  MOVFF  FD9,1D
000DA:  MOVFF  FDA,1E
000DE:  MOVFF  FF3,25
000E2:  MOVFF  FF4,26
000E6:  MOVFF  FFA,27
000EA:  MOVFF  FFB,28
000EE:  MOVFF  00,21
000F2:  MOVFF  01,22
000F6:  MOVFF  02,23
000FA:  MOVFF  03,24
000FE:  BTFSS  F9D.5
00100:  GOTO   010A
00104:  BTFSC  F9E.5
00106:  GOTO   04B8
0010A:  MOVFF  21,00
0010E:  MOVFF  22,01
00112:  MOVFF  23,02
00116:  MOVFF  24,03
0011A:  MOVFF  1F,FE9
0011E:  MOVFF  1A,FEA
00122:  BSF    1A.7
00124:  MOVFF  1B,FE1
00128:  MOVFF  1C,FE2
0012C:  MOVFF  1D,FD9
00130:  MOVFF  1E,FDA
00134:  MOVFF  25,FF3
00138:  MOVFF  26,FF4
0013C:  MOVFF  27,FFA
00140:  MOVFF  28,FFB
00144:  MOVF   17,W
00146:  MOVFF  19,FE0
0014A:  MOVFF  18,FD8
0014E:  RETFIE 0
.................... //Falta crear menu de ajuste de variables y de norma CFR21 
....................  
.................... #include <18F4685.h> 
.................... //////// Standard Header file for the PIC18F4685 device //////////////// 
.................... #device PIC18F4685 
.................... #list 
....................  
.................... #device adc=10 
.................... #device HIGH_INTS=TRUE //Activamos niveles de prioridad 
.................... #fuses HS,WDT8192,NOPROTECT,NOLVP,NODEBUG,NOSTVREN,NOPUT,NOCPD,NOWRT,NOIESO,NOFCMEN,NOPBADEN,NOWRTC,NOWRTB,NOEBTR,NOEBTRB,NOCPB,NOXINST,NOLPT1OSC,NOMCLR,NOBROWNOUT 
.................... #use delay(clock=20000000) 
*
01AC8:  MOVLW  04
01ACA:  MOVWF  FEA
01ACC:  MOVLW  5B
01ACE:  MOVWF  FE9
01AD0:  MOVF   FEF,W
01AD2:  BZ    1AEE
01AD4:  MOVLW  06
01AD6:  MOVWF  01
01AD8:  CLRF   00
01ADA:  DECFSZ 00,F
01ADC:  BRA    1ADA
01ADE:  DECFSZ 01,F
01AE0:  BRA    1AD8
01AE2:  MOVLW  7B
01AE4:  MOVWF  00
01AE6:  DECFSZ 00,F
01AE8:  BRA    1AE6
01AEA:  DECFSZ FEF,F
01AEC:  BRA    1AD4
01AEE:  RETLW  00
.................... #use i2c(Master,slow,sda=PIN_C4,scl=PIN_C3) 
*
046E0:  MOVLW  08
046E2:  MOVWF  01
046E4:  MOVLW  05
046E6:  MOVWF  00
046E8:  DECFSZ 00,F
046EA:  BRA    46E8
046EC:  BCF    F8B.3
046EE:  BCF    F94.3
046F0:  MOVLW  06
046F2:  MOVWF  00
046F4:  DECFSZ 00,F
046F6:  BRA    46F4
046F8:  MOVLB  4
046FA:  RLCF   x5C,F
046FC:  BCF    F8B.4
046FE:  BTFSC  FD8.0
04700:  BSF    F94.4
04702:  BTFSS  FD8.0
04704:  BCF    F94.4
04706:  BSF    F94.3
04708:  BTFSS  F82.3
0470A:  BRA    4708
0470C:  DECFSZ 01,F
0470E:  BRA    4712
04710:  BRA    4716
04712:  MOVLB  0
04714:  BRA    46E4
04716:  MOVLW  05
04718:  MOVWF  00
0471A:  DECFSZ 00,F
0471C:  BRA    471A
0471E:  BCF    F8B.3
04720:  BCF    F94.3
04722:  NOP   
04724:  BSF    F94.4
04726:  MOVLW  06
04728:  MOVWF  00
0472A:  DECFSZ 00,F
0472C:  BRA    472A
0472E:  MOVLW  06
04730:  MOVWF  00
04732:  DECFSZ 00,F
04734:  BRA    4732
04736:  BSF    F94.3
04738:  BTFSS  F82.3
0473A:  BRA    4738
0473C:  CLRF   01
0473E:  MOVLW  06
04740:  MOVWF  00
04742:  DECFSZ 00,F
04744:  BRA    4742
04746:  BTFSC  F82.4
04748:  BSF    01.0
0474A:  BCF    F8B.3
0474C:  BCF    F94.3
0474E:  BCF    F8B.4
04750:  BCF    F94.4
04752:  MOVLB  0
04754:  RETLW  00
*
0566C:  MOVLW  08
0566E:  MOVLB  4
05670:  MOVWF  x4F
05672:  MOVFF  00,450
05676:  BSF    F94.4
05678:  MOVLW  06
0567A:  MOVWF  00
0567C:  DECFSZ 00,F
0567E:  BRA    567C
05680:  BSF    F94.3
05682:  BTFSS  F82.3
05684:  BRA    5682
05686:  BTFSC  F82.4
05688:  BSF    FD8.0
0568A:  BTFSS  F82.4
0568C:  BCF    FD8.0
0568E:  RLCF   01,F
05690:  MOVLW  05
05692:  MOVWF  00
05694:  DECFSZ 00,F
05696:  BRA    5694
05698:  BCF    F94.3
0569A:  BCF    F8B.3
0569C:  DECFSZ x4F,F
0569E:  BRA    5676
056A0:  BSF    F94.4
056A2:  MOVLW  06
056A4:  MOVWF  00
056A6:  DECFSZ 00,F
056A8:  BRA    56A6
056AA:  BCF    F8B.4
056AC:  MOVF   x50,W
056AE:  BTFSS  FD8.2
056B0:  BCF    F94.4
056B2:  NOP   
056B4:  BSF    F94.3
056B6:  BTFSS  F82.3
056B8:  BRA    56B6
056BA:  MOVLW  05
056BC:  MOVWF  00
056BE:  DECFSZ 00,F
056C0:  BRA    56BE
056C2:  BCF    F8B.3
056C4:  BCF    F94.3
056C6:  MOVLW  06
056C8:  MOVWF  00
056CA:  DECFSZ 00,F
056CC:  BRA    56CA
056CE:  BCF    F8B.4
056D0:  BCF    F94.4
056D2:  MOVLB  0
056D4:  GOTO   575A (RETURN)
.................... #use rs232(baud=9600, xmit=PIN_C6, rcv=PIN_C7, bits=8, parity=N) 
*
039B8:  BTFSS  F9E.4
039BA:  BRA    39B8
039BC:  MOVWF  FAD
039BE:  RETLW  00
.................... //#include "HDM64GS12.c" 
.................... //#include "GRAPHICS.c" 
.................... ///#include "imagen.h" 
.................... #include <stdio.h> 
.................... /////////////////////////////////////////////////////////////////////////// 
.................... ////        (C) Copyright 1996,2003 Custom Computer Services           //// 
.................... //// This source code may only be used by licensed users of the CCS C  //// 
.................... //// compiler.  This source code may only be distributed to other      //// 
.................... //// licensed users of the CCS C compiler.  No other use, reproduction //// 
.................... //// or distribution is permitted without written permission.          //// 
.................... //// Derivative programs created using this software in object code    //// 
.................... //// form are not restricted in any way.                               //// 
.................... /////////////////////////////////////////////////////////////////////////// 
....................  
.................... #ifndef _STDIO 
.................... #define _STDIO 
.................... #include <string.h> 
.................... //////////////////////////////////////////////////////////////////////////// 
.................... ////        (C) Copyright 1996,2008 Custom Computer Services            //// 
.................... //// This source code may only be used by licensed users of the CCS C   //// 
.................... //// compiler.  This source code may only be distributed to other       //// 
.................... //// licensed users of the CCS C compiler.  No other use, reproduction  //// 
.................... //// or distribution is permitted without written permission.           //// 
.................... //// Derivative programs created using this software in object code     //// 
.................... //// form are not restricted in any way.                                //// 
.................... //////////////////////////////////////////////////////////////////////////// 
....................  
.................... #ifndef _STRING 
.................... #define _STRING 
.................... #include <stddef.h> 
.................... /////////////////////////////////////////////////////////////////////////// 
.................... ////        (C) Copyright 1996,2003 Custom Computer Services           //// 
.................... //// This source code may only be used by licensed users of the CCS C  //// 
.................... //// compiler.  This source code may only be distributed to other      //// 
.................... //// licensed users of the CCS C compiler.  No other use, reproduction //// 
.................... //// or distribution is permitted without written permission.          //// 
.................... //// Derivative programs created using this software in object code    //// 
.................... //// form are not restricted in any way.                               //// 
.................... /////////////////////////////////////////////////////////////////////////// 
....................  
.................... #ifndef _STDDEF 
....................  
.................... #define _STDDEF 
....................  
.................... #if sizeof(unsigned int8 *)==1 
.................... #define ptrdiff_t unsigned int8 
.................... #else 
.................... #define ptrdiff_t unsigned int16 
.................... #endif 
....................  
.................... #define size_t unsigned int8 
.................... #define wchar_t char 
.................... #define NULL 0 
....................  
.................... #define offsetof(s,f) (offsetofbit(s,f)/8) 
....................  
.................... #endif 
....................  
.................... #include <ctype.h> 
.................... //////////////////////////////////////////////////////////////////////////// 
.................... ////        (C) Copyright 1996,2003 Custom Computer Services            //// 
.................... //// This source code may only be used by licensed users of the CCS C   //// 
.................... //// compiler.  This source code may only be distributed to other       //// 
.................... //// licensed users of the CCS C compiler.  No other use, reproduction  //// 
.................... //// or distribution is permitted without written permission.           //// 
.................... //// Derivative programs created using this software in object code     //// 
.................... //// form are not restricted in any way.                                //// 
.................... //////////////////////////////////////////////////////////////////////////// 
....................  
.................... #ifndef _CTYPE 
.................... #define _CTYPE 
....................  
.................... #define islower(x)  isamong(x,"abcdefghijklmnopqrstuvwxyz") 
.................... #define isupper(x)  isamong(x,"ABCDEFGHIJKLMNOPQRSTUVWXYZ") 
.................... #define isalnum(x)  isamong(x,"0123456789ABCDEFGHIJKLMNOPQRSTUVWXYZabcdefghijklmnopqrstuvwxyz") 
.................... #define isalpha(x)  isamong(x,"ABCDEFGHIJKLMNOPQRSTUVWXYZabcdefghijklmnopqrstuvwxyz") 
.................... #define isdigit(x)  isamong(x,"0123456789") 
.................... #define isspace(x)  ((x)==' ') 
.................... #define isxdigit(x) isamong(x,"0123456789ABCDEFabcdef") 
.................... #define iscntrl(x)  ((x)<' ') 
.................... #define isprint(x)  ((x)>=' ') 
.................... #define isgraph(x)  ((x)>' ') 
.................... #define ispunct(x)  (((x)>' ')&&!isalnum(x)) 
....................  
.................... #endif 
....................  
....................  
....................  
....................  
....................  
.................... ////////////////////////////////////////////// 
.................... //// Uncomment the following define to    //// 
.................... //// allow some functions to use a        //// 
.................... //// quicker algorithm, but use more ROM  //// 
.................... ////                                      //// 
.................... //// #define FASTER_BUT_MORE_ROM          //// 
.................... ////////////////////////////////////////////// 
....................  
....................  
....................  
.................... /*Copying functions*/ 
.................... /* standard template: 
....................    void *memmove(void *s1, void *s2, size_t n). 
....................    Copies max of n characters safely (not following ending '\0') 
....................    from s2 in s1; if s2 has less than n characters, appends 0 */ 
....................  
.................... char *memmove(void *s1,char *s2,size_t n) 
.................... { 
....................    char *sc1; 
....................    char *sc2; 
....................    sc1=s1; 
....................    sc2=s2; 
....................    if(sc2<sc1 && sc1 <sc2 +n) 
....................       for(sc1+=n,sc2+=n;0<n;--n) 
....................          *--sc1=*--sc2; 
....................    else 
....................       for(;0<n;--n) 
....................          *sc1++=*sc2++; 
....................   return s1; 
....................   } 
....................  
.................... /* Standard template: char *strcpy(char *s1, const char *s2) 
....................    copies the string s2 including the null character to s1. 
....................    This is a compiler built in to handle the different address 
....................    spaces */ 
....................  
.................... #define strcopy strcpy 
....................  
.................... /* standard template: 
....................    char *strncpy(char *s1, const char *s2, size_t n). 
....................    Copies max of n characters (not following ending '\0') 
....................    from s2 in s1; if s2 has less than n characters, appends 0 */ 
....................  
.................... char *strncpy(char *s1, char *s2, size_t n) 
.................... { 
....................   char *s; 
....................  
....................   for (s = s1; n > 0 && *s2 != '\0'; n--) 
....................      *s++ = *s2++; 
....................   for (; n > 0; n--) 
....................      *s++ = '\0'; 
....................  
....................   return(s1); 
.................... } 
.................... /***********************************************************/ 
....................  
.................... /*concatenation functions*/ 
.................... /* standard template: char *strcat(char *s1, const char *s2) 
.................... appends s2 to s1*/ 
....................  
.................... char *strcat(char *s1, char *s2) 
.................... { 
....................    char *s; 
....................  
....................    for (s = s1; *s != '\0'; ++s); 
....................    while(*s2 != '\0') 
....................    { 
....................       *s = *s2; 
....................       ++s; 
....................       ++s2; 
....................    } 
....................  
....................    *s = '\0'; 
....................    return(s1); 
.................... } 
.................... /* standard template: char *strncat(char *s1, char *s2,size_t n) 
.................... appends not more than n characters from s2 to s1*/ 
....................  
.................... char *strncat(char *s1, char *s2, size_t n) 
.................... { 
....................    char *s; 
....................  
....................    for (s = s1; *s != '\0'; ++s); 
....................    while(*s2 != '\0' && 0<n) 
....................    { 
....................       *s = *s2; 
....................       ++s; 
....................       ++s2; 
....................       --n; 
....................    } 
....................  
....................    *s = '\0'; 
....................    return(s1); 
.................... } 
....................  
.................... /***********************************************************/ 
....................  
....................  
.................... /*comparison functions*/ 
.................... /* standard template: signed int memcmp(void *s1, void *s2). 
....................    Compares s1 & s2; returns -1 if s1<s2, 0 if s1=s2, 1 if s1>s2 */ 
....................  
.................... signed int8 memcmp(void * s1,char *s2,size_t n) 
.................... { 
.................... char *su1, *su2; 
.................... for(su1=s1, su2=s2; 0<n; ++su1, ++su2, --n) 
.................... { 
....................    if(*su1!=*su2) 
....................       return ((*su1<*su2)?-1:+1); 
.................... } 
.................... return 0; 
.................... } 
....................  
.................... /* standard template: int strcmp(const char *s1, const char *s2). 
....................    Compares s1 & s2; returns -1 if s1<s2, 0 if s1=s2, 1 if s1>s2 */ 
....................  
.................... signed int8 strcmp(char *s1, char *s2) 
.................... { 
....................    for (; *s1 == *s2; s1++, s2++) 
....................       if (*s1 == '\0') 
....................          return(0); 
....................    return((*s1 < *s2) ? -1: 1); 
.................... } 
.................... /* standard template: int strcoll(const char *s1, const char *s2). 
....................    Compares s1 & s2; returns -1 if s1<s2, 0 if s1=s2, 1 if s1>s2 */ 
....................  
.................... signed int8 strcoll(char *s1, char *s2) 
.................... { 
....................    for (; *s1 == *s2; s1++, s2++) 
....................       if (*s1 == '\0') 
....................          return(0); 
....................    return((*s1 < *s2) ? -1: 1); 
.................... } 
....................  
.................... /* standard template: 
....................    int strncmp(const char *s1, const char *s2, size_t n). 
....................    Compares max of n characters (not following 0) from s1 to s2; 
....................    returns same as strcmp */ 
....................  
.................... signed int8 strncmp(char *s1, char *s2, size_t n) 
.................... { 
....................    for (; n > 0; s1++, s2++, n--) 
....................       if (*s1 != *s2) 
....................          return((*s1 <*s2) ? -1: 1); 
....................       else if (*s1 == '\0') 
....................          return(0); 
....................    return(0); 
.................... } 
.................... /* standard template: 
....................    int strxfrm(const char *s1, const char *s2, size_t n). 
....................    transforms maximum of n characters from s2 and places them into s1*/ 
.................... size_t strxfrm(char *s1, char *s2, size_t n) 
.................... { 
....................   char *s; 
....................   unsigned int8 n1; 
....................   n1=n; 
....................   for (s = s1; n > 0 && *s2 != '\0'; n--) 
....................      *s++ = *s2++; 
....................   for (; n > 0; n--) 
....................      *s++ = '\0'; 
....................  
....................   return(n1); 
.................... } 
....................  
....................  
....................  
....................  
....................  
.................... /***********************************************************/ 
.................... /*Search functions*/ 
.................... /* standard template: void *memchr(const char *s, int c). 
....................    Finds first occurrence of c in n characters of s */ 
....................  
.................... char *memchr(void *s,unsigned int8 c,size_t n) 
.................... { 
....................    char uc; 
....................    char *su; 
....................    uc=c; 
....................    for(su=s;0<n;++su,--n) 
....................       if(*su==uc) 
....................       return su; 
....................    return NULL; 
.................... } 
....................  
.................... /* standard template: char *strchr(const char *s, int c). 
....................    Finds first occurrence of c in s */ 
....................  
.................... char *strchr(char *s, unsigned int8 c) 
.................... { 
....................    for (; *s != c; s++) 
....................       if (*s == '\0') 
....................          return(0); 
....................    return(s); 
.................... } 
.................... /* standard template: 
....................    size_t strcspn(const char *s1, const char *s2). 
....................    Computes length of max initial segment of s1 that 
....................    consists entirely of characters NOT from s2*/ 
....................  
.................... unsigned int8  strcspn(char *s1, char *s2) 
.................... { 
....................    char *sc1, *sc2; 
....................  
....................    for (sc1 = s1; *sc1 != 0; sc1++) 
....................       for (sc2 = s2; *sc2 != 0; sc2++) 
....................          if (*sc1 == *sc2) 
....................             return(sc1 - s1); 
....................    return(sc1 - s1); 
.................... } 
.................... /* standard template: 
....................    char *strpbrk(const char *s1, const char *s2). 
....................    Locates first occurence of any character from s2 in s1; 
....................    returns s1 if s2 is empty string */ 
....................  
.................... char *strpbrk(char *s1, char *s2) 
.................... { 
....................    char *sc1, *sc2; 
....................  
....................    for (sc1 = s1; *sc1 != 0; sc1++) 
....................       for (sc2 = s2; *sc2 != 0; sc2++) 
....................          if (*sc1 == *sc2) 
....................             return(sc1); 
....................    return(0); 
.................... } 
....................  
....................  
.................... /* standard template: char *strrchr(const char *s, int c). 
....................    Finds last occurrence of c in s */ 
....................  
.................... char *strrchr(char *s, unsigned int8 c) 
.................... { 
....................    char *p; 
....................  
....................    for (p = 0; ; s++) 
....................    { 
....................       if (*s == c) 
....................          p = s; 
....................       if (*s == '\0') 
....................          return(p); 
....................    } 
.................... } 
.................... /* computes length of max initial segment of s1 consisting 
....................    entirely of characters from s2 */ 
....................  
.................... unsigned int8  strspn(char *s1, char *s2) 
.................... { 
....................    char *sc1, *sc2; 
....................  
....................    for (sc1 = s1; *sc1 != 0; sc1++) 
....................       for (sc2 = s2; ; sc2++) 
....................     if (*sc2 == '\0') 
....................        return(sc1 - s1); 
....................          else if (*sc1 == *sc2) 
....................             break; 
....................    return(sc1 - s1); 
.................... } 
.................... /* standard template: 
....................    char *strstr(const char *s1, const char *s2); 
....................    Locates first occurence of character sequence s2 in s1; 
....................    returns 0 if s2 is empty string 
....................  
....................    Uncomment #define FASTER_BUT_MORE_ROM at the top of the 
....................    file to use the faster algorithm */ 
.................... char *strstr(char *s1, char *s2) 
.................... { 
....................    char *s, *t; 
....................  
....................    #ifdef FASTER_BUT_MORE_ROM 
....................    if (*s2 == '\0') 
....................          return(s1); 
....................    #endif 
....................  
....................    while (*s1) 
....................    { 
....................       for(s = s1, t = s2; *t && (*s == *t); ++s, ++t); 
....................  
....................       if (*t == '\0') 
....................          return s1; 
....................       ++s1; 
....................       #ifdef FASTER_BUT_MORE_ROM 
....................          while(*s1 != '\0' && *s1 != *s2) 
....................             ++s1; 
....................       #endif 
....................    } 
....................    return 0; 
.................... } 
....................  
.................... /* standard template: char *strtok(char *s1, const char *s2). 
....................  
....................    Finds next token in s1 delimited by a character from separator 
....................    string s2 (which can be different from call to call).  First call 
....................    starts at beginning of s1 searching for first character NOT 
....................    contained in s2; returns 0 if none is found. 
....................    If one is found, it is the start of first token (return value). 
....................    Function then searches from there for a character contained in s2. 
....................    If none is found, current token extends to end of s1, and subsequent 
....................    searches for a token will return 0.  If one is found, it is 
....................    overwritten by '\0', which terminates current token.  Function saves 
....................    pointer to following character from which next search will start. 
....................    Each subsequent call, with 0 as first argument, starts searching 
....................    from saved pointer */ 
....................  
.................... char *strtok(char *s1, char *s2) 
.................... { 
....................    char *beg, *end; 
....................    static char *save; 
....................  
....................    beg = (s1)? s1: save; 
....................    beg += strspn(beg, s2); 
....................    if (*beg == '\0') 
....................    { 
....................       *save = ' '; 
....................       return(0); 
....................    } 
....................    end = strpbrk(beg, s2); 
....................    if (*end != '\0') 
....................    { 
....................       *end = '\0'; 
....................       end++; 
....................    } 
....................    save = end; 
....................    return(beg); 
.................... } 
....................  
.................... /*****************************************************************/ 
.................... /*Miscellaneous functions*/ 
.................... /* standard template 
.................... maps error number in errnum to an error message string 
.................... Returns: Pointer to string 
.................... */ 
.................... #ifdef _ERRNO 
.................... char * strerror(unsigned int8 errnum) 
.................... { 
.................... char s[15]; 
.................... switch( errnum) 
.................... { 
.................... case 0: 
....................    strcpy(s,"no errors"); 
....................    return s; 
.................... case EDOM : 
....................    strcpy(s,"domain error"); 
....................    return s; 
.................... case ERANGE: 
....................    strcpy(s,"range error"); 
....................    return s; 
.................... } 
.................... } 
.................... #ENDIF 
.................... /* standard template: size_t strlen(const char *s). 
....................    Computes length of s1 (preceding terminating 0) */ 
....................  
.................... unsigned int8 strlen(char *s) 
.................... { 
....................    char *sc; 
....................  
....................    for (sc = s; *sc != 0; sc++); 
....................    return(sc - s); 
.................... } 
....................  
.................... /* standard template: size_t stricmp(const char *s1, const char *s2). 
....................    Compares s1 to s2 ignoring case (upper vs. lower) */ 
....................  
.................... signed int8 stricmp(char *s1, char *s2) 
.................... { 
....................  for(; *s1==*s2||(isalpha(*s1)&&isalpha(*s2)&&(*s1==*s2+32||*s2==*s1+32)); 
....................     s1++, s2++) 
....................     if (*s1 == '\0') 
....................        return(0); 
....................  return((*s1 < *s2) ? -1: 1); 
.................... } 
....................  
....................  
.................... /* standard template: char *strlwr(char *s). 
....................    Replaces uppercase letters by lowercase; 
....................    returns pointer to new string s */ 
....................  
.................... char *strlwr(char *s) 
.................... { 
....................    char *p; 
....................  
....................    for (p = s; *p != '\0'; p++) 
....................       if (*p >= 'A' && *p <='Z') 
....................          *p += 'a' - 'A'; 
....................    return(s); 
.................... } 
....................  
....................  
.................... /************************************************************/ 
....................  
....................  
.................... #endif 
....................  
.................... #ifndef getc 
.................... #define getc getch 
.................... #define getchar getch 
.................... #define puts(s) {printf(s); putchar(13); putchar(10);} 
.................... #define putc putchar 
.................... #endif 
.................... /* maps error number to an error message. Writes a sequence of characters to 
.................... stderr stream thus: if s is not null then string pointed to by s follwed by 
.................... a colon (:) and a space and the appropriate error message returned by strerror 
.................... function with argument errno 
....................  
.................... Returns: no value 
.................... */ 
....................  
.................... #ifdef _ERRNO 
.................... void perror(char *s) 
.................... { 
....................   if(s) 
....................   fprintf(STDERR,"%s: ",s); 
....................   fprintf(STDERR,"%s\r\n",strerror(errno)); 
.................... } 
.................... #endif 
.................... #endif 
....................  
.................... #include <string.h> 
.................... //////////////////////////////////////////////////////////////////////////// 
.................... ////        (C) Copyright 1996,2008 Custom Computer Services            //// 
.................... //// This source code may only be used by licensed users of the CCS C   //// 
.................... //// compiler.  This source code may only be distributed to other       //// 
.................... //// licensed users of the CCS C compiler.  No other use, reproduction  //// 
.................... //// or distribution is permitted without written permission.           //// 
.................... //// Derivative programs created using this software in object code     //// 
.................... //// form are not restricted in any way.                                //// 
.................... //////////////////////////////////////////////////////////////////////////// 
....................  
.................... #ifndef _STRING 
.................... #define _STRING 
.................... #include <stddef.h> 
.................... #include <ctype.h> 
....................  
....................  
....................  
.................... ////////////////////////////////////////////// 
.................... //// Uncomment the following define to    //// 
.................... //// allow some functions to use a        //// 
.................... //// quicker algorithm, but use more ROM  //// 
.................... ////                                      //// 
.................... //// #define FASTER_BUT_MORE_ROM          //// 
.................... ////////////////////////////////////////////// 
....................  
....................  
....................  
.................... /*Copying functions*/ 
.................... /* standard template: 
....................    void *memmove(void *s1, void *s2, size_t n). 
....................    Copies max of n characters safely (not following ending '\0') 
....................    from s2 in s1; if s2 has less than n characters, appends 0 */ 
....................  
.................... char *memmove(void *s1,char *s2,size_t n) 
.................... { 
....................    char *sc1; 
....................    char *sc2; 
....................    sc1=s1; 
....................    sc2=s2; 
....................    if(sc2<sc1 && sc1 <sc2 +n) 
....................       for(sc1+=n,sc2+=n;0<n;--n) 
....................          *--sc1=*--sc2; 
....................    else 
....................       for(;0<n;--n) 
....................          *sc1++=*sc2++; 
....................   return s1; 
....................   } 
....................  
.................... /* Standard template: char *strcpy(char *s1, const char *s2) 
....................    copies the string s2 including the null character to s1. 
....................    This is a compiler built in to handle the different address 
....................    spaces */ 
....................  
.................... #define strcopy strcpy 
....................  
.................... /* standard template: 
....................    char *strncpy(char *s1, const char *s2, size_t n). 
....................    Copies max of n characters (not following ending '\0') 
....................    from s2 in s1; if s2 has less than n characters, appends 0 */ 
....................  
.................... char *strncpy(char *s1, char *s2, size_t n) 
.................... { 
....................   char *s; 
....................  
....................   for (s = s1; n > 0 && *s2 != '\0'; n--) 
....................      *s++ = *s2++; 
....................   for (; n > 0; n--) 
....................      *s++ = '\0'; 
....................  
....................   return(s1); 
.................... } 
.................... /***********************************************************/ 
....................  
.................... /*concatenation functions*/ 
.................... /* standard template: char *strcat(char *s1, const char *s2) 
.................... appends s2 to s1*/ 
....................  
.................... char *strcat(char *s1, char *s2) 
.................... { 
....................    char *s; 
....................  
....................    for (s = s1; *s != '\0'; ++s); 
....................    while(*s2 != '\0') 
....................    { 
....................       *s = *s2; 
....................       ++s; 
....................       ++s2; 
....................    } 
....................  
....................    *s = '\0'; 
....................    return(s1); 
.................... } 
.................... /* standard template: char *strncat(char *s1, char *s2,size_t n) 
.................... appends not more than n characters from s2 to s1*/ 
....................  
.................... char *strncat(char *s1, char *s2, size_t n) 
.................... { 
....................    char *s; 
....................  
....................    for (s = s1; *s != '\0'; ++s); 
....................    while(*s2 != '\0' && 0<n) 
....................    { 
....................       *s = *s2; 
....................       ++s; 
....................       ++s2; 
....................       --n; 
....................    } 
....................  
....................    *s = '\0'; 
....................    return(s1); 
.................... } 
....................  
.................... /***********************************************************/ 
....................  
....................  
.................... /*comparison functions*/ 
.................... /* standard template: signed int memcmp(void *s1, void *s2). 
....................    Compares s1 & s2; returns -1 if s1<s2, 0 if s1=s2, 1 if s1>s2 */ 
....................  
.................... signed int8 memcmp(void * s1,char *s2,size_t n) 
.................... { 
.................... char *su1, *su2; 
.................... for(su1=s1, su2=s2; 0<n; ++su1, ++su2, --n) 
.................... { 
....................    if(*su1!=*su2) 
....................       return ((*su1<*su2)?-1:+1); 
.................... } 
.................... return 0; 
.................... } 
....................  
.................... /* standard template: int strcmp(const char *s1, const char *s2). 
....................    Compares s1 & s2; returns -1 if s1<s2, 0 if s1=s2, 1 if s1>s2 */ 
....................  
.................... signed int8 strcmp(char *s1, char *s2) 
.................... { 
....................    for (; *s1 == *s2; s1++, s2++) 
....................       if (*s1 == '\0') 
....................          return(0); 
....................    return((*s1 < *s2) ? -1: 1); 
.................... } 
.................... /* standard template: int strcoll(const char *s1, const char *s2). 
....................    Compares s1 & s2; returns -1 if s1<s2, 0 if s1=s2, 1 if s1>s2 */ 
....................  
.................... signed int8 strcoll(char *s1, char *s2) 
.................... { 
....................    for (; *s1 == *s2; s1++, s2++) 
....................       if (*s1 == '\0') 
....................          return(0); 
....................    return((*s1 < *s2) ? -1: 1); 
.................... } 
....................  
.................... /* standard template: 
....................    int strncmp(const char *s1, const char *s2, size_t n). 
....................    Compares max of n characters (not following 0) from s1 to s2; 
....................    returns same as strcmp */ 
....................  
.................... signed int8 strncmp(char *s1, char *s2, size_t n) 
.................... { 
....................    for (; n > 0; s1++, s2++, n--) 
....................       if (*s1 != *s2) 
....................          return((*s1 <*s2) ? -1: 1); 
....................       else if (*s1 == '\0') 
....................          return(0); 
....................    return(0); 
.................... } 
.................... /* standard template: 
....................    int strxfrm(const char *s1, const char *s2, size_t n). 
....................    transforms maximum of n characters from s2 and places them into s1*/ 
.................... size_t strxfrm(char *s1, char *s2, size_t n) 
.................... { 
....................   char *s; 
....................   unsigned int8 n1; 
....................   n1=n; 
....................   for (s = s1; n > 0 && *s2 != '\0'; n--) 
....................      *s++ = *s2++; 
....................   for (; n > 0; n--) 
....................      *s++ = '\0'; 
....................  
....................   return(n1); 
.................... } 
....................  
....................  
....................  
....................  
....................  
.................... /***********************************************************/ 
.................... /*Search functions*/ 
.................... /* standard template: void *memchr(const char *s, int c). 
....................    Finds first occurrence of c in n characters of s */ 
....................  
.................... char *memchr(void *s,unsigned int8 c,size_t n) 
.................... { 
....................    char uc; 
....................    char *su; 
....................    uc=c; 
....................    for(su=s;0<n;++su,--n) 
....................       if(*su==uc) 
....................       return su; 
....................    return NULL; 
.................... } 
....................  
.................... /* standard template: char *strchr(const char *s, int c). 
....................    Finds first occurrence of c in s */ 
....................  
.................... char *strchr(char *s, unsigned int8 c) 
.................... { 
....................    for (; *s != c; s++) 
....................       if (*s == '\0') 
....................          return(0); 
....................    return(s); 
.................... } 
.................... /* standard template: 
....................    size_t strcspn(const char *s1, const char *s2). 
....................    Computes length of max initial segment of s1 that 
....................    consists entirely of characters NOT from s2*/ 
....................  
.................... unsigned int8  strcspn(char *s1, char *s2) 
.................... { 
....................    char *sc1, *sc2; 
....................  
....................    for (sc1 = s1; *sc1 != 0; sc1++) 
....................       for (sc2 = s2; *sc2 != 0; sc2++) 
....................          if (*sc1 == *sc2) 
....................             return(sc1 - s1); 
....................    return(sc1 - s1); 
.................... } 
.................... /* standard template: 
....................    char *strpbrk(const char *s1, const char *s2). 
....................    Locates first occurence of any character from s2 in s1; 
....................    returns s1 if s2 is empty string */ 
....................  
.................... char *strpbrk(char *s1, char *s2) 
.................... { 
....................    char *sc1, *sc2; 
....................  
....................    for (sc1 = s1; *sc1 != 0; sc1++) 
....................       for (sc2 = s2; *sc2 != 0; sc2++) 
....................          if (*sc1 == *sc2) 
....................             return(sc1); 
....................    return(0); 
.................... } 
....................  
....................  
.................... /* standard template: char *strrchr(const char *s, int c). 
....................    Finds last occurrence of c in s */ 
....................  
.................... char *strrchr(char *s, unsigned int8 c) 
.................... { 
....................    char *p; 
....................  
....................    for (p = 0; ; s++) 
....................    { 
....................       if (*s == c) 
....................          p = s; 
....................       if (*s == '\0') 
....................          return(p); 
....................    } 
.................... } 
.................... /* computes length of max initial segment of s1 consisting 
....................    entirely of characters from s2 */ 
....................  
.................... unsigned int8  strspn(char *s1, char *s2) 
.................... { 
....................    char *sc1, *sc2; 
....................  
....................    for (sc1 = s1; *sc1 != 0; sc1++) 
....................       for (sc2 = s2; ; sc2++) 
....................     if (*sc2 == '\0') 
....................        return(sc1 - s1); 
....................          else if (*sc1 == *sc2) 
....................             break; 
....................    return(sc1 - s1); 
.................... } 
.................... /* standard template: 
....................    char *strstr(const char *s1, const char *s2); 
....................    Locates first occurence of character sequence s2 in s1; 
....................    returns 0 if s2 is empty string 
....................  
....................    Uncomment #define FASTER_BUT_MORE_ROM at the top of the 
....................    file to use the faster algorithm */ 
.................... char *strstr(char *s1, char *s2) 
.................... { 
....................    char *s, *t; 
....................  
....................    #ifdef FASTER_BUT_MORE_ROM 
....................    if (*s2 == '\0') 
....................          return(s1); 
....................    #endif 
....................  
....................    while (*s1) 
....................    { 
....................       for(s = s1, t = s2; *t && (*s == *t); ++s, ++t); 
....................  
....................       if (*t == '\0') 
....................          return s1; 
....................       ++s1; 
....................       #ifdef FASTER_BUT_MORE_ROM 
....................          while(*s1 != '\0' && *s1 != *s2) 
....................             ++s1; 
....................       #endif 
....................    } 
....................    return 0; 
.................... } 
....................  
.................... /* standard template: char *strtok(char *s1, const char *s2). 
....................  
....................    Finds next token in s1 delimited by a character from separator 
....................    string s2 (which can be different from call to call).  First call 
....................    starts at beginning of s1 searching for first character NOT 
....................    contained in s2; returns 0 if none is found. 
....................    If one is found, it is the start of first token (return value). 
....................    Function then searches from there for a character contained in s2. 
....................    If none is found, current token extends to end of s1, and subsequent 
....................    searches for a token will return 0.  If one is found, it is 
....................    overwritten by '\0', which terminates current token.  Function saves 
....................    pointer to following character from which next search will start. 
....................    Each subsequent call, with 0 as first argument, starts searching 
....................    from saved pointer */ 
....................  
.................... char *strtok(char *s1, char *s2) 
.................... { 
....................    char *beg, *end; 
....................    static char *save; 
....................  
....................    beg = (s1)? s1: save; 
....................    beg += strspn(beg, s2); 
....................    if (*beg == '\0') 
....................    { 
....................       *save = ' '; 
....................       return(0); 
....................    } 
....................    end = strpbrk(beg, s2); 
....................    if (*end != '\0') 
....................    { 
....................       *end = '\0'; 
....................       end++; 
....................    } 
....................    save = end; 
....................    return(beg); 
.................... } 
....................  
.................... /*****************************************************************/ 
.................... /*Miscellaneous functions*/ 
.................... /* standard template 
.................... maps error number in errnum to an error message string 
.................... Returns: Pointer to string 
.................... */ 
.................... #ifdef _ERRNO 
.................... char * strerror(unsigned int8 errnum) 
.................... { 
.................... char s[15]; 
.................... switch( errnum) 
.................... { 
.................... case 0: 
....................    strcpy(s,"no errors"); 
....................    return s; 
.................... case EDOM : 
....................    strcpy(s,"domain error"); 
....................    return s; 
.................... case ERANGE: 
....................    strcpy(s,"range error"); 
....................    return s; 
.................... } 
.................... } 
.................... #ENDIF 
.................... /* standard template: size_t strlen(const char *s). 
....................    Computes length of s1 (preceding terminating 0) */ 
....................  
.................... unsigned int8 strlen(char *s) 
.................... { 
....................    char *sc; 
....................  
....................    for (sc = s; *sc != 0; sc++); 
....................    return(sc - s); 
.................... } 
....................  
.................... /* standard template: size_t stricmp(const char *s1, const char *s2). 
....................    Compares s1 to s2 ignoring case (upper vs. lower) */ 
....................  
.................... signed int8 stricmp(char *s1, char *s2) 
.................... { 
....................  for(; *s1==*s2||(isalpha(*s1)&&isalpha(*s2)&&(*s1==*s2+32||*s2==*s1+32)); 
....................     s1++, s2++) 
....................     if (*s1 == '\0') 
....................        return(0); 
....................  return((*s1 < *s2) ? -1: 1); 
.................... } 
....................  
....................  
.................... /* standard template: char *strlwr(char *s). 
....................    Replaces uppercase letters by lowercase; 
....................    returns pointer to new string s */ 
....................  
.................... char *strlwr(char *s) 
.................... { 
....................    char *p; 
....................  
....................    for (p = s; *p != '\0'; p++) 
....................       if (*p >= 'A' && *p <='Z') 
....................          *p += 'a' - 'A'; 
....................    return(s); 
.................... } 
....................  
....................  
.................... /************************************************************/ 
....................  
....................  
.................... #endif 
....................  
.................... #include <stdlib.h> 
.................... /////////////////////////////////////////////////////////////////////////// 
.................... ////        (C) Copyright 1996,2007 Custom Computer Services           //// 
.................... //// This source code may only be used by licensed users of the CCS C  //// 
.................... //// compiler.  This source code may only be distributed to other      //// 
.................... //// licensed users of the CCS C compiler.  No other use, reproduction //// 
.................... //// or distribution is permitted without written permission.          //// 
.................... //// Derivative programs created using this software in object code    //// 
.................... //// form are not restricted in any way.                               //// 
.................... /////////////////////////////////////////////////////////////////////////// 
....................  
.................... #ifndef _STDLIB 
.................... #define _STDLIB 
....................  
.................... //--------------------------------------------------------------------------- 
.................... // Definitions and types 
.................... //--------------------------------------------------------------------------- 
....................  
.................... #ifndef RAND_MAX 
.................... #define RAND_MAX  32767    // The value of which is the maximum value 
....................                            // ... returned by the rand function 
.................... #endif 
....................  
....................  
.................... #IF (sizeof(int16*)>1) 
.................... #DEFINE LONG_POINTERS 1 
.................... #ELSE  
.................... #DEFINE LONG_POINTERS 0 
.................... #ENDIF 
....................  
.................... typedef struct { 
....................    signed int quot; 
....................    signed int rem; 
.................... } div_t; 
....................  
.................... typedef struct { 
....................    signed long quot; 
....................    signed long rem; 
.................... } ldiv_t; 
....................  
.................... #include <stddef.h> 
.................... /////////////////////////////////////////////////////////////////////////// 
.................... ////        (C) Copyright 1996,2003 Custom Computer Services           //// 
.................... //// This source code may only be used by licensed users of the CCS C  //// 
.................... //// compiler.  This source code may only be distributed to other      //// 
.................... //// licensed users of the CCS C compiler.  No other use, reproduction //// 
.................... //// or distribution is permitted without written permission.          //// 
.................... //// Derivative programs created using this software in object code    //// 
.................... //// form are not restricted in any way.                               //// 
.................... /////////////////////////////////////////////////////////////////////////// 
....................  
.................... #ifndef _STDDEF 
....................  
.................... #define _STDDEF 
....................  
.................... #if sizeof(unsigned int8 *)==1 
.................... #define ptrdiff_t unsigned int8 
.................... #else 
.................... #define ptrdiff_t unsigned int16 
.................... #endif 
....................  
.................... #define size_t unsigned int8 
.................... #define wchar_t char 
.................... #define NULL 0 
....................  
.................... #define offsetof(s,f) (offsetofbit(s,f)/8) 
....................  
.................... #endif 
....................  
....................  
.................... //--------------------------------------------------------------------------- 
.................... // String conversion functions 
.................... //--------------------------------------------------------------------------- 
....................  
.................... /* Standard template: signed int  atoi(char * s) 
....................  * converts the initial portion of the string s to a signed int 
....................  * returns the converted value if any, 0 otherwise 
....................  */ 
.................... signed int atoi(char *s); 
....................  
.................... /* Syntax: signed int32  atoi32(char * s) 
....................    converts the initial portion of the string s to a signed int32 
....................    returns the converted value if any, 0 otherwise*/ 
.................... #if (sizeof(long)==4) 
....................  #define atoi32(s) atol(s) 
.................... #else  
....................  signed int32 atoi32(char *s); 
.................... #endif 
....................  
.................... #if defined(__PCD__) 
.................... // The following functions only work on the 24 bit compiler 
.................... // for the 30F, 33F, 24F and 24H parts 
.................... /* Syntax: signed int48  atoi48(char * s) 
....................    converts the initial portion of the string s to a signed int48 
....................    returns the converted value if any, 0 otherwise*/ 
....................     
.................... signed int48 atoi48(char *s); 
....................  
.................... /* Syntax: signed int64  atoi64(char * s) 
....................    converts the initial portion of the string s to a signed int64 
....................    returns the converted value if any, 0 otherwise*/ 
.................... signed int64 atoi64(char *s); 
.................... #endif 
....................  
.................... /* Syntax: char *  itoa(signed int32 num, int8 base, char * s) 
....................    converts the signed int32 to a string and 
....................    returns the converted value if any, 0 otherwise*/ 
.................... char * itoa(signed int32 num, unsigned int base, char * s); 
....................  
.................... /* Standard template: signed int16  atol(char * s) 
....................  * converts the initial portion of the string s to a signed int16 
....................  * returns the converted value if any, 0 otherwise 
....................  */ 
.................... signed long atol(char *s); 
....................  
.................... /* Standard template: int16 strtoul(char * s,char *endptr,signed int base) 
....................  * converts the initial portion of the string s, represented as an 
....................  * integral value of radix base  to a signed long. 
....................  * Returns the converted value if any, 0 otherwise 
....................  * the final string is returned in the endptr, if endptr is not null 
....................  */ 
.................... signed long strtol(char *s,char *endptr, signed int base); 
....................  
.................... /* Standard template: int16 strtoul(char * s,char *endptr,signed int base) 
....................  * converts the initial portion of the string s, represented as an 
....................  * integral value of radix base to a unsigned long. 
....................  * returns the converted value if any, 0 otherwise 
....................  * the final string is returned in the endptr, if endptr is not null 
....................  */ 
.................... unsigned long strtoul(char *s,char *endptr, signed int base); 
....................  
.................... /* Standart template: float strtof(char * s,char *endptr) 
....................                       float48 strtof48(char *s,char *endptr); 
....................                       float64 strtod(char *s,char *endptr); 
....................  * converts the initial portion of the string s to a float32, float48 or float64, 
....................  * returns the converted value if any, 0 otherwise 
....................  * the final string is returned in the endptr, if endptr is not null                    
.................... */ 
.................... float strtof(char *s,char *endptr); 
.................... #if defined(__PCD__) 
.................... float48 strtof48(char *s,char *endptr); 
.................... float64 strtod(char *s,char *endptr); 
.................... #else 
.................... //provided for compatibility 
.................... #define strtof48(s, e) strtof(s, e) 
.................... #define strtod(s, e) strtof(s, e) 
.................... #endif 
....................  
.................... /* Standard template: float32 atof(char * s) 
....................  * converts the initial portion of the string s to a float. 
....................  * returns the converted value if any, 0 otherwise 
....................  */ 
.................... #define atof(s)   strtof(s, 0) 
....................  
.................... #if defined(__PCD__) 
.................... // The following functions only work on the 24 bit compiler 
.................... // for the 30F, 33F, 24F and 24H parts 
....................  
.................... /* Standard template: float48 atof48(char * s) 
....................  * converts the initial portion of the string s to a float. 
....................  * returns the converted value if any, 0 otherwise 
....................  */ 
.................... #define atof48(s) strtof48(s, 0) 
....................  
.................... /* Standard template: float64 atof64(char * s) 
....................  * converts the initial portion of the string s to a float. 
....................  * returns the converted value if any, 0 otherwise 
....................  */ 
.................... #define atof64(s) strtod(s, 0) 
.................... #endif 
....................  
.................... /* Standard template: float32 atoe(char * s) 
....................  * converts the initial portion of the string s to a float. 
....................  * returns the converted value if any, 0 otherwise 
....................  * also handles E format numbers 
....................  */ 
.................... #if !defined(__PCD__) 
.................... float atoe(char * s); 
.................... #endif 
....................  
.................... #if defined(__PCD__) 
.................... float32 atoe(char * s); 
.................... #endif 
....................  
.................... //--------------------------------------------------------------------------- 
.................... // Pseudo-random sequence generation functions 
.................... //--------------------------------------------------------------------------- 
....................  
.................... /* The rand function computes a sequence of pseudo-random integers in 
....................  * the range 0 to RAND_MAX 
....................  * 
....................  * Parameters: 
....................  *       (none) 
....................  * 
....................  * Returns: 
....................  *       The pseudo-random integer 
....................  */ 
.................... unsigned int16 rand(void); 
....................  
.................... /* The srand function uses the argument as a seed for a new sequence of 
....................  * pseudo-random numbers to be returned by subsequent calls to rand. 
....................  * 
....................  * Parameters: 
....................  *       [in] seed: The seed value to start from. You might need to pass 
....................  * 
....................  * Returns: 
....................  *       (none) 
....................  * 
....................  * Remarks 
....................  *          The srand function sets the starting point for generating 
....................  *       a series of pseudorandom integers. To reinitialize the 
....................  *       generator, use 1 as the seed argument. Any other value for 
....................  *       seed sets the generator to a random starting point. rand 
....................  *       retrieves the pseudorandom numbers that are generated. 
....................  *       Calling rand before any call to srand generates the same 
....................  *       sequence as calling srand with seed passed as 1. 
....................  *          Usually, you need to pass a time here from outer source 
....................  *       so that the numbers will be different every time you run. 
....................  */ 
.................... void srand(unsigned int32 seed); 
....................  
.................... //--------------------------------------------------------------------------- 
.................... // Memory management functions 
.................... //--------------------------------------------------------------------------- 
....................  
.................... // Comming soon 
....................  
.................... //--------------------------------------------------------------------------- 
.................... // Communication with the environment 
.................... //--------------------------------------------------------------------------- 
....................  
.................... /* The function returns 0 always 
....................  */ 
.................... signed int8 system(char *string); 
....................  
.................... //--------------------------------------------------------------------------- 
.................... // Searching and sorting utilities 
.................... //--------------------------------------------------------------------------- 
....................  
.................... /* Performs a binary search of a sorted array.. 
....................  * 
....................  * Parameters: 
....................  *       [in] key: Object to search for 
....................  *       [in] base: Pointer to base of search data 
....................  *       [in] num: Number of elements 
....................  *       [in] width: Width of elements 
....................  *       [in] compare: Function that compares two elements 
....................  * 
....................  * Returns: 
....................  *       bsearch returns a pointer to an occurrence of key in the array pointed 
....................  *       to by base. If key is not found, the function returns NULL. If the 
....................  *       array is not in order or contains duplicate records with identical keys, 
....................  *       the result is unpredictable. 
....................  */ 
.................... //void *bsearch(const void *key, const void *base, size_t num, size_t width, 
.................... //              int (*compare)(const void *, const void *)); 
....................  
.................... /* Performs the shell-metzner sort (not the quick sort algorithm). The contents 
....................  * of the array are sorted into ascending order according to a comparison 
....................  * function pointed to by compar. 
....................  * 
....................  * Parameters: 
....................  *       [in] base: Pointer to base of search data 
....................  *       [in] num: Number of elements 
....................  *       [in] width: Width of elements 
....................  *       [in] compare: Function that compares two elements 
....................  * 
....................  * Returns: 
....................  *       (none) 
....................  */ 
.................... //void *qsort(const void *base, size_t num, size_t width, 
.................... //              int (*compare)(const void *, const void *)); 
....................  
.................... //--------------------------------------------------------------------------- 
.................... // Integer arithmetic functions 
.................... //--------------------------------------------------------------------------- 
....................  
.................... #define labs abs 
....................  
.................... div_t div(signed int numer, signed int denom); 
.................... ldiv_t ldiv(signed long numer, signed long denom); 
....................  
.................... //--------------------------------------------------------------------------- 
.................... // Multibyte character functions 
.................... //--------------------------------------------------------------------------- 
....................  
.................... // Not supported 
....................  
.................... //--------------------------------------------------------------------------- 
.................... // Multibyte string functions 
.................... //--------------------------------------------------------------------------- 
....................  
.................... // Not supported 
....................  
....................  
.................... //--------------------------------------------------------------------------- 
.................... // Internal implementation 
.................... //--------------------------------------------------------------------------- 
....................  
.................... #include <stddef.h> 
.................... /////////////////////////////////////////////////////////////////////////// 
.................... ////        (C) Copyright 1996,2003 Custom Computer Services           //// 
.................... //// This source code may only be used by licensed users of the CCS C  //// 
.................... //// compiler.  This source code may only be distributed to other      //// 
.................... //// licensed users of the CCS C compiler.  No other use, reproduction //// 
.................... //// or distribution is permitted without written permission.          //// 
.................... //// Derivative programs created using this software in object code    //// 
.................... //// form are not restricted in any way.                               //// 
.................... /////////////////////////////////////////////////////////////////////////// 
....................  
.................... #ifndef _STDDEF 
....................  
.................... #define _STDDEF 
....................  
.................... #if sizeof(unsigned int8 *)==1 
.................... #define ptrdiff_t unsigned int8 
.................... #else 
.................... #define ptrdiff_t unsigned int16 
.................... #endif 
....................  
.................... #define size_t unsigned int8 
.................... #define wchar_t char 
.................... #define NULL 0 
....................  
.................... #define offsetof(s,f) (offsetofbit(s,f)/8) 
....................  
.................... #endif 
....................  
.................... #include <string.h> 
.................... //////////////////////////////////////////////////////////////////////////// 
.................... ////        (C) Copyright 1996,2008 Custom Computer Services            //// 
.................... //// This source code may only be used by licensed users of the CCS C   //// 
.................... //// compiler.  This source code may only be distributed to other       //// 
.................... //// licensed users of the CCS C compiler.  No other use, reproduction  //// 
.................... //// or distribution is permitted without written permission.           //// 
.................... //// Derivative programs created using this software in object code     //// 
.................... //// form are not restricted in any way.                                //// 
.................... //////////////////////////////////////////////////////////////////////////// 
....................  
.................... #ifndef _STRING 
.................... #define _STRING 
.................... #include <stddef.h> 
.................... #include <ctype.h> 
....................  
....................  
....................  
.................... ////////////////////////////////////////////// 
.................... //// Uncomment the following define to    //// 
.................... //// allow some functions to use a        //// 
.................... //// quicker algorithm, but use more ROM  //// 
.................... ////                                      //// 
.................... //// #define FASTER_BUT_MORE_ROM          //// 
.................... ////////////////////////////////////////////// 
....................  
....................  
....................  
.................... /*Copying functions*/ 
.................... /* standard template: 
....................    void *memmove(void *s1, void *s2, size_t n). 
....................    Copies max of n characters safely (not following ending '\0') 
....................    from s2 in s1; if s2 has less than n characters, appends 0 */ 
....................  
.................... char *memmove(void *s1,char *s2,size_t n) 
.................... { 
....................    char *sc1; 
....................    char *sc2; 
....................    sc1=s1; 
....................    sc2=s2; 
....................    if(sc2<sc1 && sc1 <sc2 +n) 
....................       for(sc1+=n,sc2+=n;0<n;--n) 
....................          *--sc1=*--sc2; 
....................    else 
....................       for(;0<n;--n) 
....................          *sc1++=*sc2++; 
....................   return s1; 
....................   } 
....................  
.................... /* Standard template: char *strcpy(char *s1, const char *s2) 
....................    copies the string s2 including the null character to s1. 
....................    This is a compiler built in to handle the different address 
....................    spaces */ 
....................  
.................... #define strcopy strcpy 
....................  
.................... /* standard template: 
....................    char *strncpy(char *s1, const char *s2, size_t n). 
....................    Copies max of n characters (not following ending '\0') 
....................    from s2 in s1; if s2 has less than n characters, appends 0 */ 
....................  
.................... char *strncpy(char *s1, char *s2, size_t n) 
.................... { 
....................   char *s; 
....................  
....................   for (s = s1; n > 0 && *s2 != '\0'; n--) 
....................      *s++ = *s2++; 
....................   for (; n > 0; n--) 
....................      *s++ = '\0'; 
....................  
....................   return(s1); 
.................... } 
.................... /***********************************************************/ 
....................  
.................... /*concatenation functions*/ 
.................... /* standard template: char *strcat(char *s1, const char *s2) 
.................... appends s2 to s1*/ 
....................  
.................... char *strcat(char *s1, char *s2) 
.................... { 
....................    char *s; 
....................  
....................    for (s = s1; *s != '\0'; ++s); 
....................    while(*s2 != '\0') 
....................    { 
....................       *s = *s2; 
....................       ++s; 
....................       ++s2; 
....................    } 
....................  
....................    *s = '\0'; 
....................    return(s1); 
.................... } 
.................... /* standard template: char *strncat(char *s1, char *s2,size_t n) 
.................... appends not more than n characters from s2 to s1*/ 
....................  
.................... char *strncat(char *s1, char *s2, size_t n) 
.................... { 
....................    char *s; 
....................  
....................    for (s = s1; *s != '\0'; ++s); 
....................    while(*s2 != '\0' && 0<n) 
....................    { 
....................       *s = *s2; 
....................       ++s; 
....................       ++s2; 
....................       --n; 
....................    } 
....................  
....................    *s = '\0'; 
....................    return(s1); 
.................... } 
....................  
.................... /***********************************************************/ 
....................  
....................  
.................... /*comparison functions*/ 
.................... /* standard template: signed int memcmp(void *s1, void *s2). 
....................    Compares s1 & s2; returns -1 if s1<s2, 0 if s1=s2, 1 if s1>s2 */ 
....................  
.................... signed int8 memcmp(void * s1,char *s2,size_t n) 
.................... { 
.................... char *su1, *su2; 
.................... for(su1=s1, su2=s2; 0<n; ++su1, ++su2, --n) 
.................... { 
....................    if(*su1!=*su2) 
....................       return ((*su1<*su2)?-1:+1); 
.................... } 
.................... return 0; 
.................... } 
....................  
.................... /* standard template: int strcmp(const char *s1, const char *s2). 
....................    Compares s1 & s2; returns -1 if s1<s2, 0 if s1=s2, 1 if s1>s2 */ 
....................  
.................... signed int8 strcmp(char *s1, char *s2) 
.................... { 
....................    for (; *s1 == *s2; s1++, s2++) 
....................       if (*s1 == '\0') 
....................          return(0); 
....................    return((*s1 < *s2) ? -1: 1); 
.................... } 
.................... /* standard template: int strcoll(const char *s1, const char *s2). 
....................    Compares s1 & s2; returns -1 if s1<s2, 0 if s1=s2, 1 if s1>s2 */ 
....................  
.................... signed int8 strcoll(char *s1, char *s2) 
.................... { 
....................    for (; *s1 == *s2; s1++, s2++) 
....................       if (*s1 == '\0') 
....................          return(0); 
....................    return((*s1 < *s2) ? -1: 1); 
.................... } 
....................  
.................... /* standard template: 
....................    int strncmp(const char *s1, const char *s2, size_t n). 
....................    Compares max of n characters (not following 0) from s1 to s2; 
....................    returns same as strcmp */ 
....................  
.................... signed int8 strncmp(char *s1, char *s2, size_t n) 
.................... { 
....................    for (; n > 0; s1++, s2++, n--) 
....................       if (*s1 != *s2) 
....................          return((*s1 <*s2) ? -1: 1); 
....................       else if (*s1 == '\0') 
....................          return(0); 
....................    return(0); 
.................... } 
.................... /* standard template: 
....................    int strxfrm(const char *s1, const char *s2, size_t n). 
....................    transforms maximum of n characters from s2 and places them into s1*/ 
.................... size_t strxfrm(char *s1, char *s2, size_t n) 
.................... { 
....................   char *s; 
....................   unsigned int8 n1; 
....................   n1=n; 
....................   for (s = s1; n > 0 && *s2 != '\0'; n--) 
....................      *s++ = *s2++; 
....................   for (; n > 0; n--) 
....................      *s++ = '\0'; 
....................  
....................   return(n1); 
.................... } 
....................  
....................  
....................  
....................  
....................  
.................... /***********************************************************/ 
.................... /*Search functions*/ 
.................... /* standard template: void *memchr(const char *s, int c). 
....................    Finds first occurrence of c in n characters of s */ 
....................  
.................... char *memchr(void *s,unsigned int8 c,size_t n) 
.................... { 
....................    char uc; 
....................    char *su; 
....................    uc=c; 
....................    for(su=s;0<n;++su,--n) 
....................       if(*su==uc) 
....................       return su; 
....................    return NULL; 
.................... } 
....................  
.................... /* standard template: char *strchr(const char *s, int c). 
....................    Finds first occurrence of c in s */ 
....................  
.................... char *strchr(char *s, unsigned int8 c) 
.................... { 
....................    for (; *s != c; s++) 
....................       if (*s == '\0') 
....................          return(0); 
....................    return(s); 
.................... } 
.................... /* standard template: 
....................    size_t strcspn(const char *s1, const char *s2). 
....................    Computes length of max initial segment of s1 that 
....................    consists entirely of characters NOT from s2*/ 
....................  
.................... unsigned int8  strcspn(char *s1, char *s2) 
.................... { 
....................    char *sc1, *sc2; 
....................  
....................    for (sc1 = s1; *sc1 != 0; sc1++) 
....................       for (sc2 = s2; *sc2 != 0; sc2++) 
....................          if (*sc1 == *sc2) 
....................             return(sc1 - s1); 
....................    return(sc1 - s1); 
.................... } 
.................... /* standard template: 
....................    char *strpbrk(const char *s1, const char *s2). 
....................    Locates first occurence of any character from s2 in s1; 
....................    returns s1 if s2 is empty string */ 
....................  
.................... char *strpbrk(char *s1, char *s2) 
.................... { 
....................    char *sc1, *sc2; 
....................  
....................    for (sc1 = s1; *sc1 != 0; sc1++) 
....................       for (sc2 = s2; *sc2 != 0; sc2++) 
....................          if (*sc1 == *sc2) 
....................             return(sc1); 
....................    return(0); 
.................... } 
....................  
....................  
.................... /* standard template: char *strrchr(const char *s, int c). 
....................    Finds last occurrence of c in s */ 
....................  
.................... char *strrchr(char *s, unsigned int8 c) 
.................... { 
....................    char *p; 
....................  
....................    for (p = 0; ; s++) 
....................    { 
....................       if (*s == c) 
....................          p = s; 
....................       if (*s == '\0') 
....................          return(p); 
....................    } 
.................... } 
.................... /* computes length of max initial segment of s1 consisting 
....................    entirely of characters from s2 */ 
....................  
.................... unsigned int8  strspn(char *s1, char *s2) 
.................... { 
....................    char *sc1, *sc2; 
....................  
....................    for (sc1 = s1; *sc1 != 0; sc1++) 
....................       for (sc2 = s2; ; sc2++) 
....................     if (*sc2 == '\0') 
....................        return(sc1 - s1); 
....................          else if (*sc1 == *sc2) 
....................             break; 
....................    return(sc1 - s1); 
.................... } 
.................... /* standard template: 
....................    char *strstr(const char *s1, const char *s2); 
....................    Locates first occurence of character sequence s2 in s1; 
....................    returns 0 if s2 is empty string 
....................  
....................    Uncomment #define FASTER_BUT_MORE_ROM at the top of the 
....................    file to use the faster algorithm */ 
.................... char *strstr(char *s1, char *s2) 
.................... { 
....................    char *s, *t; 
....................  
....................    #ifdef FASTER_BUT_MORE_ROM 
....................    if (*s2 == '\0') 
....................          return(s1); 
....................    #endif 
....................  
....................    while (*s1) 
....................    { 
....................       for(s = s1, t = s2; *t && (*s == *t); ++s, ++t); 
....................  
....................       if (*t == '\0') 
....................          return s1; 
....................       ++s1; 
....................       #ifdef FASTER_BUT_MORE_ROM 
....................          while(*s1 != '\0' && *s1 != *s2) 
....................             ++s1; 
....................       #endif 
....................    } 
....................    return 0; 
.................... } 
....................  
.................... /* standard template: char *strtok(char *s1, const char *s2). 
....................  
....................    Finds next token in s1 delimited by a character from separator 
....................    string s2 (which can be different from call to call).  First call 
....................    starts at beginning of s1 searching for first character NOT 
....................    contained in s2; returns 0 if none is found. 
....................    If one is found, it is the start of first token (return value). 
....................    Function then searches from there for a character contained in s2. 
....................    If none is found, current token extends to end of s1, and subsequent 
....................    searches for a token will return 0.  If one is found, it is 
....................    overwritten by '\0', which terminates current token.  Function saves 
....................    pointer to following character from which next search will start. 
....................    Each subsequent call, with 0 as first argument, starts searching 
....................    from saved pointer */ 
....................  
.................... char *strtok(char *s1, char *s2) 
.................... { 
....................    char *beg, *end; 
....................    static char *save; 
....................  
....................    beg = (s1)? s1: save; 
....................    beg += strspn(beg, s2); 
....................    if (*beg == '\0') 
....................    { 
....................       *save = ' '; 
....................       return(0); 
....................    } 
....................    end = strpbrk(beg, s2); 
....................    if (*end != '\0') 
....................    { 
....................       *end = '\0'; 
....................       end++; 
....................    } 
....................    save = end; 
....................    return(beg); 
.................... } 
....................  
.................... /*****************************************************************/ 
.................... /*Miscellaneous functions*/ 
.................... /* standard template 
.................... maps error number in errnum to an error message string 
.................... Returns: Pointer to string 
.................... */ 
.................... #ifdef _ERRNO 
.................... char * strerror(unsigned int8 errnum) 
.................... { 
.................... char s[15]; 
.................... switch( errnum) 
.................... { 
.................... case 0: 
....................    strcpy(s,"no errors"); 
....................    return s; 
.................... case EDOM : 
....................    strcpy(s,"domain error"); 
....................    return s; 
.................... case ERANGE: 
....................    strcpy(s,"range error"); 
....................    return s; 
.................... } 
.................... } 
.................... #ENDIF 
.................... /* standard template: size_t strlen(const char *s). 
....................    Computes length of s1 (preceding terminating 0) */ 
....................  
.................... unsigned int8 strlen(char *s) 
.................... { 
....................    char *sc; 
....................  
....................    for (sc = s; *sc != 0; sc++); 
....................    return(sc - s); 
.................... } 
....................  
.................... /* standard template: size_t stricmp(const char *s1, const char *s2). 
....................    Compares s1 to s2 ignoring case (upper vs. lower) */ 
....................  
.................... signed int8 stricmp(char *s1, char *s2) 
.................... { 
....................  for(; *s1==*s2||(isalpha(*s1)&&isalpha(*s2)&&(*s1==*s2+32||*s2==*s1+32)); 
....................     s1++, s2++) 
....................     if (*s1 == '\0') 
....................        return(0); 
....................  return((*s1 < *s2) ? -1: 1); 
.................... } 
....................  
....................  
.................... /* standard template: char *strlwr(char *s). 
....................    Replaces uppercase letters by lowercase; 
....................    returns pointer to new string s */ 
....................  
.................... char *strlwr(char *s) 
.................... { 
....................    char *p; 
....................  
....................    for (p = s; *p != '\0'; p++) 
....................       if (*p >= 'A' && *p <='Z') 
....................          *p += 'a' - 'A'; 
....................    return(s); 
.................... } 
....................  
....................  
.................... /************************************************************/ 
....................  
....................  
.................... #endif 
....................  
....................  
.................... div_t div(signed int numer, signed int denom) 
.................... { 
....................    div_t val; 
....................    val.quot = numer / denom; 
....................    val.rem = numer - (denom * val.quot); 
....................    return (val); 
.................... } 
....................  
.................... ldiv_t ldiv(signed long numer, signed long denom) 
.................... { 
....................    ldiv_t val; 
....................  
....................    val.quot = numer / denom; 
....................    val.rem = numer - (denom * val.quot); 
....................    return (val); 
.................... } 
....................  
.................... #if defined(__PCD__) 
.................... float32 atoe(char * s) 
.................... { 
....................    float32 pow10 = 1.0; 
....................    float32 result = 0.0; 
....................    unsigned int8 sign = 0; 
....................    unsigned int8 expsign = 0; 
....................    char c; 
....................    unsigned int8 ptr = 0; 
....................    unsigned int8 i; 
....................    float32 exp = 1.0; 
....................    unsigned int8 expcnt = 0; 
....................  
....................    c = s[ptr++]; 
....................  
....................    if ((c>='0' && c<='9') || c=='+' || c=='-' || c=='.' || c=='E' || c=='e') { 
....................       if(c == '-') { 
....................          sign = 1; 
....................          c = s[ptr++]; 
....................       } 
....................       if(c == '+') 
....................          c = s[ptr++]; 
....................  
....................       while((c >= '0' && c <= '9')) { 
....................          result = 10*result + c - '0'; 
....................          c = s[ptr++]; 
....................       } 
....................  
....................       if (c == '.') { 
....................          c = s[ptr++]; 
....................          while((c >= '0' && c <= '9')) { 
....................              pow10 = pow10*10; 
....................              result += (c - '0')/pow10; 
....................              c = s[ptr++]; 
....................          } 
....................       } 
....................  
....................       // Handling the exponent 
....................       if (c=='e' || c=='E') { 
....................          c = s[ptr++]; 
....................  
....................          if(c == '-') { 
....................             expsign = 1; 
....................             c = s[ptr++]; 
....................          } 
....................          if(c == '+') 
....................             c = s[ptr++]; 
....................  
....................          while((c >= '0' && c <= '9')) { 
....................             expcnt = 10*expcnt + c - '0'; 
....................             c = s[ptr++]; 
....................          } 
....................  
....................          for(i=0;i<expcnt;i++) 
....................             exp*=10; 
....................  
....................          if(expsign==1) 
....................             result/=exp; 
....................          else 
....................             result*=exp; 
....................       } 
....................    } 
....................  
....................    if (sign == 1) 
....................       result = -1*result; 
....................    return(result); 
.................... } 
.................... #endif 
....................  
.................... #if !defined(__PCD__) 
.................... float atoe(char * s) 
.................... { 
....................    float pow10 = 1.0; 
....................    float result = 0.0; 
....................    unsigned int8 sign = 0; 
....................    unsigned int8 expsign = 0; 
....................    char c; 
....................    unsigned int8 ptr = 0; 
....................    unsigned int8 i; 
....................    float exp = 1.0; 
....................    unsigned int8 expcnt = 0; 
....................  
....................    c = s[ptr++]; 
....................  
....................    if ((c>='0' && c<='9') || c=='+' || c=='-' || c=='.' || c=='E' || c=='e') { 
....................       if(c == '-') { 
....................          sign = 1; 
....................          c = s[ptr++]; 
....................       } 
....................       if(c == '+') 
....................          c = s[ptr++]; 
....................  
....................       while((c >= '0' && c <= '9')) { 
....................          result = 10*result + c - '0'; 
....................          c = s[ptr++]; 
....................       } 
....................  
....................       if (c == '.') { 
....................          c = s[ptr++]; 
....................          while((c >= '0' && c <= '9')) { 
....................              pow10 = pow10*10; 
....................              result += (c - '0')/pow10; 
....................              c = s[ptr++]; 
....................          } 
....................       } 
....................  
....................       // Handling the exponent 
....................       if (c=='e' || c=='E') { 
....................          c = s[ptr++]; 
....................  
....................          if(c == '-') { 
....................             expsign = 1; 
....................             c = s[ptr++]; 
....................          } 
....................          if(c == '+') 
....................             c = s[ptr++]; 
....................  
....................          while((c >= '0' && c <= '9')) { 
....................             expcnt = 10*expcnt + c - '0'; 
....................             c = s[ptr++]; 
....................          } 
....................  
....................          for(i=0;i<expcnt;i++) 
....................             exp*=10; 
....................  
....................          if(expsign==1) 
....................             result/=exp; 
....................          else 
....................             result*=exp; 
....................       } 
....................    } 
....................  
....................    if (sign == 1) 
....................       result = -1*result; 
....................    return(result); 
.................... } 
.................... #endif 
....................  
.................... signed int atoi(char *s) 
.................... { 
....................    signed int result; 
....................    unsigned int sign, base, index; 
....................    char c; 
....................  
....................    index = 0; 
....................    sign = 0; 
....................    base = 10; 
....................    result = 0; 
....................  
....................    if (!s) 
....................       return 0; 
....................    // Omit all preceeding alpha characters 
....................    c = s[index++]; 
....................  
....................    // increase index if either positive or negative sign is detected 
....................    if (c == '-') 
....................    { 
....................       sign = 1;         // Set the sign to negative 
....................       c = s[index++]; 
....................    } 
....................    else if (c == '+') 
....................    { 
....................       c = s[index++]; 
....................    } 
....................  
....................    if (c >= '0' && c <= '9') 
....................    { 
....................  
....................       // Check for hexa number 
....................       if (c == '0' && (s[index] == 'x' || s[index] == 'X')) 
....................       { 
....................          base = 16; 
....................          index++; 
....................          c = s[index++]; 
....................       } 
....................  
....................       // The number is a decimal number 
....................       if (base == 10) 
....................       { 
....................          while (c >= '0' && c <= '9') 
....................          { 
....................             result = 10*result + (c - '0'); 
....................             c = s[index++]; 
....................          } 
....................       } 
....................       else if (base == 16)    // The number is a hexa number 
....................       { 
....................          c = toupper(c); 
....................          while ( (c >= '0' && c <= '9') || (c >= 'A' && c<='F')) 
....................          { 
....................             if (c >= '0' && c <= '9') 
....................                result = (result << 4) + (c - '0'); 
....................             else 
....................                result = (result << 4) + (c - 'A' + 10); 
....................  
....................             c = s[index++]; 
....................             c = toupper(c); 
....................          } 
....................       } 
....................    } 
....................  
....................    if (sign == 1 && base == 10) 
....................        result = -result; 
....................  
....................    return(result); 
.................... } 
....................  
.................... signed long atol(char *s) 
.................... { 
....................    signed long result; 
....................    unsigned int sign, base, index; 
....................    char c; 
....................  
....................    index = 0; 
....................    sign = 0; 
....................    base = 10; 
....................    result = 0; 
....................  
....................    if (!s) 
....................       return 0; 
....................    c = s[index++]; 
....................  
....................    // increase index if either positive or negative sign is detected 
....................    if (c == '-') 
....................    { 
....................       sign = 1;         // Set the sign to negative 
....................       c = s[index++]; 
....................    } 
....................    else if (c == '+') 
....................    { 
....................       c = s[index++]; 
....................    } 
....................  
....................    if (c >= '0' && c <= '9') 
....................    { 
....................       if (c == '0' && (s[index] == 'x' || s[index] == 'X')) 
....................       { 
....................          base = 16; 
....................          index++; 
....................          c = s[index++]; 
....................       } 
....................  
....................       // The number is a decimal number 
....................       if (base == 10) 
....................       { 
....................          while (c >= '0' && c <= '9') 
....................          { 
....................             result = 10*result + (c - '0'); 
....................             c = s[index++]; 
....................          } 
....................       } 
....................       else if (base == 16)    // The number is a hexa number 
....................       { 
....................          c = toupper(c); 
....................          while ( (c >= '0' && c <= '9') || (c >= 'A' && c <='F')) 
....................          { 
....................             if (c >= '0' && c <= '9') 
....................                result = (result << 4) + (c - '0'); 
....................             else 
....................                result = (result << 4) + (c - 'A' + 10); 
....................  
....................             c = s[index++];c = toupper(c); 
....................          } 
....................       } 
....................    } 
....................  
....................    if (base == 10 && sign == 1) 
....................       result = -result; 
....................  
....................    return(result); 
.................... } 
....................  
.................... /* A fast routine to multiply by 10 
....................  */ 
.................... signed int32 mult_with10(int32 num) 
.................... { 
....................    return ( (num << 1) + (num << 3) ); 
.................... } 
....................  
.................... #if sizeof(long)==2 
.................... signed int32 atoi32(char *s) 
.................... { 
....................    signed int32 result; 
....................    int8 sign, base, index; 
....................    char c; 
....................  
....................    index = 0; 
....................    sign = 0; 
....................    base = 10; 
....................    result = 0; 
....................  
....................    if (!s) 
....................       return 0; 
....................    c = s[index++]; 
....................  
....................    // increase index if either positive or negative sign is detected 
....................    if (c == '-') 
....................    { 
....................       sign = 1;         // Set the sign to negative 
....................       c = s[index++]; 
....................    } 
....................    else if (c == '+') 
....................    { 
....................       c = s[index++]; 
....................    } 
....................  
....................    if (c >= '0' && c <= '9') 
....................    { 
....................       if (c == '0' && (s[index] == 'x' || s[index] == 'X')) 
....................       { 
....................          base = 16; 
....................          index++; 
....................          c = s[index++]; 
....................       } 
....................  
....................       // The number is a decimal number 
....................       if (base == 10) 
....................       { 
....................          while (c >= '0' && c <= '9') { 
....................             result = (result << 1) + (result << 3);  // result *= 10; 
....................             result += (c - '0'); 
....................             c = s[index++]; 
....................          } 
....................       } 
....................       else if (base == 16)    // The number is a hexa number 
....................       { 
....................          c = toupper(c); 
....................          while ((c >= '0' && c <= '9') || (c >= 'A' && c <='F')) 
....................          { 
....................             if (c >= '0' && c <= '9') 
....................                result = (result << 4) + (c - '0'); 
....................             else 
....................                result = (result << 4) + (c - 'A' + 10); 
....................  
....................             c = s[index++];c = toupper(c); 
....................          } 
....................       } 
....................    } 
....................  
....................    if (base == 10 && sign == 1) 
....................       result = -result; 
....................  
....................    return(result); 
.................... } 
.................... #endif 
....................  
.................... #if defined(__PCD__) 
....................  
.................... signed int48 atoi48(char *s) 
.................... { 
....................    signed int48 result; 
....................    int8 sign, base, index; 
....................    char c; 
....................  
....................    index = 0; 
....................    sign = 0; 
....................    base = 10; 
....................    result = 0; 
....................  
....................    if (!s) 
....................       return 0; 
....................    c = s[index++]; 
....................  
....................    // increase index if either positive or negative sign is detected 
....................    if (c == '-') 
....................    { 
....................       sign = 1;         // Set the sign to negative 
....................       c = s[index++]; 
....................    } 
....................    else if (c == '+') 
....................    { 
....................       c = s[index++]; 
....................    } 
....................  
....................    if (c >= '0' && c <= '9') 
....................    { 
....................       if (c == '0' && (s[index] == 'x' || s[index] == 'X')) 
....................       { 
....................          base = 16; 
....................          index++; 
....................          c = s[index++]; 
....................       } 
....................  
....................       // The number is a decimal number 
....................       if (base == 10) 
....................       { 
....................          while (c >= '0' && c <= '9') { 
....................             result = (result << 1) + (result << 3);  // result *= 10; 
....................             result += (c - '0'); 
....................             c = s[index++]; 
....................          } 
....................       } 
....................       else if (base == 16)    // The number is a hexa number 
....................       { 
....................          c = toupper(c); 
....................          while ((c >= '0' && c <= '9') || (c >= 'A' && c <='F')) 
....................          { 
....................             if (c >= '0' && c <= '9') 
....................                result = (result << 4) + (c - '0'); 
....................             else 
....................                result = (result << 4) + (c - 'A' + 10); 
....................  
....................             c = s[index++];c = toupper(c); 
....................          } 
....................       } 
....................    } 
....................  
....................    if (base == 10 && sign == 1) 
....................       result = -result; 
....................  
....................    return(result); 
.................... } 
....................  
.................... signed int64 atoi64(char *s) 
.................... { 
....................    signed int64 result; 
....................    int8 sign, base, index; 
....................    char c; 
....................  
....................    index = 0; 
....................    sign = 0; 
....................    base = 10; 
....................    result = 0; 
....................  
....................    if (!s) 
....................       return 0; 
....................    c = s[index++]; 
....................  
....................    // increase index if either positive or negative sign is detected 
....................    if (c == '-') 
....................    { 
....................       sign = 1;         // Set the sign to negative 
....................       c = s[index++]; 
....................    } 
....................    else if (c == '+') 
....................    { 
....................       c = s[index++]; 
....................    } 
....................  
....................    if (c >= '0' && c <= '9') 
....................    { 
....................       if (c == '0' && (s[index] == 'x' || s[index] == 'X')) 
....................       { 
....................          base = 16; 
....................          index++; 
....................          c = s[index++]; 
....................       } 
....................  
....................       // The number is a decimal number 
....................       if (base == 10) 
....................       { 
....................          while (c >= '0' && c <= '9') { 
....................             result = (result << 1) + (result << 3);  // result *= 10; 
....................             result += (c - '0'); 
....................             c = s[index++]; 
....................          } 
....................       } 
....................       else if (base == 16)    // The number is a hexa number 
....................       { 
....................          c = toupper(c); 
....................          while ((c >= '0' && c <= '9') || (c >= 'A' && c <='F')) 
....................          { 
....................             if (c >= '0' && c <= '9') 
....................                result = (result << 4) + (c - '0'); 
....................             else 
....................                result = (result << 4) + (c - 'A' + 10); 
....................  
....................             c = s[index++];c = toupper(c); 
....................          } 
....................       } 
....................    } 
....................  
....................    if (base == 10 && sign == 1) 
....................       result = -result; 
....................  
....................    return(result); 
.................... } 
.................... #endif 
....................  
.................... char * itoa(signed int32 num, unsigned int base, char * s) 
.................... { 
....................      unsigned int32 temp=1; 
....................      unsigned int8 i,sign=0,cnt=0; 
....................      char c; 
....................  
....................      if(num<0) { 
....................          sign=1;        // Check for negative number 
....................          num*=-1; 
....................      } 
....................  
....................      while(temp>0) { 
....................          temp=(num/base); 
....................          s[cnt]=(num%base)+'0';    // Conversion 
....................  
....................          if(s[cnt]>0x39) 
....................             s[cnt]+=0x7; 
....................  
....................          cnt++; 
....................          num=temp; 
....................      } 
....................  
....................      if(sign==1) { 
....................          s[cnt]=0x2D;      // Negative sign 
....................          cnt++; 
....................      } 
....................  
....................      for(i = 0;i<(int8)(cnt/2);i++) { 
....................  
....................          c=s[i]; 
....................          s[i]=s[cnt-i-1];        // Reverse the number 
....................          s[cnt-i-1]=c; 
....................      } 
....................      s[cnt]='\0';     // End the string 
....................      return s; 
.................... } 
....................  
.................... float strtof(char *s, char *endptr) 
.................... { 
....................    float pow10 = 1.0; 
....................    float result = 0.0; 
....................    int1 skip = 1, sign = 0, point = 0; 
....................    char c; 
....................    unsigned int8 ptr = 0; 
....................  
....................    if (!s) 
....................       return 0; 
....................  
....................    for(c=s[ptr++]; c!=0; c=s[ptr++]) 
....................    { 
....................       if (skip && !isspace(c)) 
....................       { 
....................          skip = 0; 
....................          if (c == '+') 
....................          { 
....................             sign = 0; 
....................             continue; 
....................          }             
....................          else if (c == '-') 
....................          { 
....................             sign = 1; 
....................             continue; 
....................          } 
....................       } 
....................       if (!skip && (c == '.') && !point) 
....................          point = 1; 
....................       else if (!skip && isdigit(c)) 
....................       { 
....................          c -= '0'; 
....................          if (point) 
....................          { 
....................             pow10 = pow10 * 10.0; 
....................             result += (float)c / pow10;    
....................          } 
....................          else 
....................          { 
....................             result = 10.0 * result + (float)c; 
....................          } 
....................       } 
....................       else if (!skip) 
....................          break; 
....................    } 
....................  
....................    if (sign) 
....................       result = -1*result; 
....................        
....................    if(endptr) 
....................    { 
....................       if (ptr) { 
....................          ptr--; 
....................        #IF LONG_POINTERS  
....................          *((long *)endptr)= s+ptr;  
....................        #ELSE 
....................          *((char *)endptr)=s+ptr; 
....................        #ENDIF 
....................       } 
....................       else 
....................       { 
....................       #IF LONG_POINTERS 
....................       *((long *)endptr)= s;  
....................       #ELSE 
....................       *((char *)endptr)=s; 
....................       #ENDIF 
....................       } 
....................    } 
....................  
....................    return(result); 
.................... } 
....................  
.................... #if defined(__PCD__) 
.................... float48 strtof48(char *s, char *endptr) 
.................... { 
....................    float48 pow10 = 1.0; 
....................    float48 result = 0.0; 
....................    int1 skip = 1, sign = 0, point = 0; 
....................    char c; 
....................    unsigned int8 ptr = 0; 
....................  
....................    if (!s) 
....................       return 0; 
....................  
....................    for(c=s[ptr++]; c!=0; c=s[ptr++]) 
....................    { 
....................       if (skip && !isspace(c)) 
....................       { 
....................          skip = 0; 
....................          if (c == '+') 
....................          { 
....................             sign = 0; 
....................             continue; 
....................          }             
....................          else if (c == '-') 
....................          { 
....................             sign = 1; 
....................             continue; 
....................          } 
....................       } 
....................       if (!skip && (c == '.') && !point) 
....................          point = 1; 
....................       else if (!skip && isdigit(c)) 
....................       { 
....................          c -= '0'; 
....................          if (point) 
....................          { 
....................             pow10 = pow10 * 10.0; 
....................             result += (float48)c / pow10;    
....................          } 
....................          else 
....................          { 
....................             result = 10.0 * result + (float48)c; 
....................          } 
....................       } 
....................       else if (!skip) 
....................          break; 
....................    } 
....................  
....................    if (sign) 
....................       result = -1*result; 
....................        
....................    if(endptr) 
....................    { 
....................       if (ptr) { 
....................          ptr--; 
....................        #IF LONG_POINTERS  
....................          *((long *)endptr)= s+ptr;  
....................        #ELSE 
....................          *((char *)endptr)=s+ptr; 
....................        #ENDIF 
....................       } 
....................       else 
....................       { 
....................       #IF LONG_POINTERS 
....................       *((long *)endptr)= s;  
....................       #ELSE 
....................       *((char *)endptr)=s; 
....................       #ENDIF 
....................       } 
....................    } 
....................  
....................    return(result); 
.................... } 
....................  
.................... float64 strtod(char *s, char *endptr) 
.................... { 
....................    float64 pow10 = 1.0; 
....................    float64 result = 0.0; 
....................    int1 skip = 1, sign = 0, point = 0; 
....................    char c; 
....................    unsigned int8 ptr = 0; 
....................  
....................    if (!s) 
....................       return 0; 
....................  
....................    for(c=s[ptr++]; c!=0; c=s[ptr++]) 
....................    { 
....................       if (skip && !isspace(c)) 
....................       { 
....................          skip = 0; 
....................          if (c == '+') 
....................          { 
....................             sign = 0; 
....................             continue; 
....................          }             
....................          else if (c == '-') 
....................          { 
....................             sign = 1; 
....................             continue; 
....................          } 
....................       } 
....................       if (!skip && (c == '.') && !point) 
....................          point = 1; 
....................       else if (!skip && isdigit(c)) 
....................       { 
....................          c -= '0'; 
....................          if (point) 
....................          { 
....................             pow10 = pow10 * 10.0; 
....................             result += (float64)c / pow10;    
....................          } 
....................          else 
....................          { 
....................             result = 10.0 * result + (float64)c; 
....................          } 
....................       } 
....................       else if (!skip) 
....................          break; 
....................    } 
....................  
....................    if (sign) 
....................       result = -1*result; 
....................        
....................    if(endptr) 
....................    { 
....................       if (ptr) { 
....................          ptr--; 
....................        #IF LONG_POINTERS  
....................          *((long *)endptr)= s+ptr;  
....................        #ELSE 
....................          *((char *)endptr)=s+ptr; 
....................        #ENDIF 
....................       } 
....................       else 
....................       { 
....................       #IF LONG_POINTERS 
....................       *((long *)endptr)= s;  
....................       #ELSE 
....................       *((char *)endptr)=s; 
....................       #ENDIF 
....................       } 
....................    } 
....................  
....................    return(result); 
.................... } 
.................... #endif 
....................  
.................... unsigned long strtoul(char *s, char *endptr, signed int base) 
.................... { 
....................    char *sc,*s1,*sd; 
....................    unsigned long x=0; 
....................    char sign; 
....................    char digits[]="0123456789abcdefghijklmnopqstuvwxyz"; 
....................    for(sc=s;isspace(*sc);++sc); 
....................    sign=*sc=='-'||*sc=='+'?*sc++:'+'; 
....................    if(sign=='-' || base <0 || base ==1|| base >36) // invalid base 
....................    goto StrtoulGO; 
....................  
....................    else if (base) 
....................    { 
....................       if(base==16 && *sc =='0'&&(sc[1]=='x' || sc[1]=='X')) 
....................          sc+=2; 
....................       if(base==8 && *sc =='0') 
....................          sc+=1; 
....................       if(base==2 && *sc =='0'&&sc[1]=='b') 
....................          sc+=2; 
....................  
....................    } 
....................    else if(*sc!='0') // base is 0, find base 
....................       base=10; 
....................    else if (sc[1]=='x' || sc[1]=='X') 
....................       base =16,sc+=2; 
....................    else if(sc[1]=='b') 
....................       base=2,sc+=2; 
....................    else 
....................       base=8; 
....................    for (s1=sc;*sc=='0';++sc);// skip leading zeroes 
....................    sd=memchr(digits,tolower(*sc),base); 
....................    for(; sd!=0; ) 
....................    { 
....................       x=x*base+(int16)(sd-digits); 
....................       ++sc; 
....................       sd=memchr(digits,tolower(*sc),base); 
....................    } 
....................    if(s1==sc) 
....................    { 
....................    StrtoulGO: 
....................       if (endptr) 
....................       { 
....................          #IF LONG_POINTERS 
....................          *((long *)endptr)= s;  
....................          #ELSE 
....................          *((char *)endptr)=s; 
....................          #ENDIF 
....................          } 
....................    return 0; 
....................    } 
....................    if (endptr) 
....................    { 
....................          #IF LONG_POINTERS 
....................          *((long *)endptr)= sc;  
....................          #ELSE 
....................          *((char *)endptr)=sc;  
....................          #ENDIF 
....................    } 
....................    return x; 
.................... } 
....................  
....................  
.................... signed long strtol(char *s,char *endptr, signed int base) 
.................... { 
....................    char *sc,*s1,*sd; 
....................    signed long x=0; 
....................    char sign; 
....................    char digits[]="0123456789abcdefghijklmnopqstuvwxyz"; 
....................    for(sc=s;isspace(*sc);++sc); 
....................    sign=*sc=='-'||*sc=='+'?*sc++:'+'; 
....................    if (base <0 || base ==1|| base >36) // invalid base 
....................    goto StrtolGO; 
....................    else if (base) 
....................    { 
....................       if(base==16 && *sc =='0'&&(sc[1]=='x' || sc[1]=='X')) 
....................          sc+=2; 
....................       if(base==8 && *sc =='0') 
....................          sc+=1; 
....................       if(base==2 && *sc =='0'&&sc[1]=='b') 
....................          sc+=2; 
....................  
....................    } 
....................    else if(*sc!='0') // base is 0, find base 
....................       base=10; 
....................    else if (sc[1]=='x' || sc[1]=='X') 
....................       base =16,sc+=2; 
....................    else if(sc[1]=='b') 
....................       base=2,sc+=2; 
....................    else 
....................       base=8; 
....................    for (s1=sc;*sc=='0';++sc);// skip leading zeroes 
....................  
....................    sd=memchr(digits,tolower(*sc),base); 
....................    for(;sd!=0;) 
....................    { 
....................       x=x*base+(int16)(sd-digits); 
....................       ++sc; 
....................       sd=memchr(digits,tolower(*sc),base); 
....................    } 
....................    if(s1==sc) 
....................    { 
....................    StrtolGO: 
....................       if (endptr) 
....................       { 
....................          #IF LONG_POINTERS 
....................          *((long *)endptr)= s;  
....................          #ELSE 
....................          *((char *)endptr)=s; 
....................          #ENDIF 
....................       } 
....................    return 0; 
....................    } 
....................    if(sign=='-') 
....................       x  =-x; 
....................    if (endptr) 
....................    { 
....................         #IF LONG_POINTERS 
....................          *((long *)endptr)= sc;  
....................         #ELSE 
....................         *((char *)endptr)=sc; 
....................         #ENDIF 
....................    } 
....................    return x; 
.................... } 
....................  
.................... signed int8 system(char *string) 
.................... { 
....................    return 0; 
.................... } 
....................  
.................... int8 mblen(char *s,size_t n) 
.................... { 
....................    return strlen(s); 
.................... } 
....................  
.................... int8 mbtowc(wchar_t *pwc,char *s,size_t n) 
.................... { 
....................    *pwc=*s; 
....................    return 1; 
.................... } 
....................  
.................... int8 wctomb(char *s,wchar_t wchar) 
.................... { 
....................    *s=wchar; 
....................    return 1; 
.................... } 
....................  
.................... size_t mbstowcs(wchar_t *pwcs,char *s,size_t n) 
.................... { 
....................    strncpy(pwcs,s,n); 
....................    return strlen(pwcs); 
.................... } 
....................  
.................... size_t wcstombs(char *s,wchar_t *pwcs,size_t n) 
.................... { 
....................    strncpy(s,pwcs,n); 
....................    return strlen(s); 
.................... } 
....................  
.................... //--------------------------------------------------------------------------- 
.................... // The random number implementation 
.................... //--------------------------------------------------------------------------- 
....................  
.................... unsigned int32 _Randseed; 
....................  
.................... unsigned int16 rand(void) 
.................... { 
....................    _Randseed = _Randseed * 1103515245 + 12345; 
....................    return ((unsigned int16)(_Randseed >> 16) % RAND_MAX); 
.................... } 
....................  
.................... void srand(unsigned int32 seed) 
.................... { 
....................    _Randseed = seed; 
.................... } 
....................  
.................... //--------------------------------------------------------------------------- 
.................... // Searching and sorting utilities implementation 
.................... //--------------------------------------------------------------------------- 
....................  
.................... #if !defined(__PCD__) 
.................... typedef signed int8 (*_Cmpfun)(char * p1,char * p2);  
.................... #else  
.................... typedef signed int16 (*_Cmpfun)(char * p1,char * p2);  
.................... #endif 
....................  
....................  
....................  
.................... void qsort(char * qdata, unsigned int qitems, unsigned int qsize, _Cmpfun cmp) { 
....................    unsigned int m,j,i,l; 
....................    int1 done; 
....................    unsigned int8 t[16]; 
....................  
....................    m = qitems/2; 
....................    while( m > 0 ) { 
....................      for(j=0; j<(qitems-m); ++j) { 
....................         i = j; 
....................         do 
....................         { 
....................            done=1; 
....................            l = i+m; 
....................            if( (*cmp)(qdata+i*qsize, qdata+l*qsize) > 0 ) { 
....................               memcpy(t, qdata+i*qsize, qsize); 
....................               memcpy(qdata+i*qsize, qdata+l*qsize, qsize); 
....................               memcpy(qdata+l*qsize, t, qsize); 
....................               if(m <= i) 
....................                 i -= m; 
....................                 done = 0; 
....................            } 
....................         } while(!done); 
....................      } 
....................      m = m/2; 
....................    } 
.................... } 
....................  
....................  
.................... char *bsearch(char *key, char *base, size_t num, size_t width,_Cmpfun cmp) 
.................... { 
....................    char *p, *q; 
....................    size_t n; 
....................    size_t pivot; 
....................    signed int val; 
....................  
....................    p = base; 
....................    n = num; 
....................  
....................    while (n > 0) 
....................    { 
....................       pivot = n >> 1; 
....................       q = p + width * pivot; 
....................  
....................       val = (*cmp)(key, q); 
....................  
....................       if (val < 0) 
....................          n = pivot; 
....................       else if (val == 0) 
....................          return ((char *)q); 
....................       else { 
....................          p = q + width; 
....................          n -= pivot + 1; 
....................       } 
....................    } 
....................  
....................    return NULL;      // There's no match 
.................... } 
....................  
....................  
.................... #endif 
....................  
.................... #include <DS1302.c> 
.................... ////////////////////////////////////////////////////////////////////////// 
.................... ////                               DS1302.C                           //// 
.................... ////                     Driver for Real Time Clock                   //// 
.................... ////                                                                  //// 
.................... ////  rtc_init()                                   Call after power up//// 
.................... ////                                                                  //// 
.................... ////  rtc_set_datetime(day,mth,year,dow,hour,min)  Set the date/time  //// 
.................... ////                                                                  //// 
.................... ////  rtc_get_date(day,mth,year,dow)               Get the date       //// 
.................... ////                                                                  //// 
.................... ////  rtc_get_time(hr,min,sec)                     Get the time       //// 
.................... ////                                                                  //// 
.................... ////  rtc_write_nvr(address,data)                  Write to NVR       //// 
.................... ////                                                                  //// 
.................... ////  data = rtc_read_nvr(address)                 Read from NVR      //// 
.................... ////                                                                  //// 
.................... ////  get_bcd(data)                              Convert data to BCD  //// 
.................... ////                                                                  //// 
.................... ////  rm_bcd(data)                               Convert data to int  //// 
.................... ////                                                                  //// 
.................... ////////////////////////////////////////////////////////////////////////// 
.................... ////        (C) Copyright 1996,2003 Custom Computer Services          //// 
.................... //// This source code may only be used by licensed users of the CCS C //// 
.................... //// compiler.  This source code may only be distributed to other     //// 
.................... //// licensed users of the CCS C compiler.  No other use, reproduction//// 
.................... //// or distribution is permitted without written permission.         //// 
.................... //// Derivative programs created using this software in object code   //// 
.................... //// form are not restricted in any way.                              //// 
.................... ////////////////////////////////////////////////////////////////////////// 
....................  
.................... //#ifndef RTC_SCLK 
....................  
.................... #define RTC_SCLK PIN_D1 
.................... #define RTC_IO   PIN_D2 
.................... #define RTC_RST  PIN_D3 
....................  
.................... //#endif 
....................  
.................... void write_ds1302_byte(BYTE cmd) { 
....................    BYTE i; 
....................  
....................    for(i=0;i<=7;++i) { 
*
02CE6:  MOVLB  4
02CE8:  CLRF   x50
02CEA:  MOVF   x50,W
02CEC:  SUBLW  07
02CEE:  BNC   2D0A
....................       output_bit(RTC_IO, shift_right(&cmd,1,0) ); 
02CF0:  BCF    FD8.0
02CF2:  RRCF   x4F,F
02CF4:  BC    2CFA
02CF6:  BCF    F8C.2
02CF8:  BRA    2CFC
02CFA:  BSF    F8C.2
02CFC:  BCF    F95.2
....................       output_high(RTC_SCLK); 
02CFE:  BCF    F95.1
02D00:  BSF    F8C.1
....................       output_low(RTC_SCLK); 
02D02:  BCF    F95.1
02D04:  BCF    F8C.1
....................    } 
02D06:  INCF   x50,F
02D08:  BRA    2CEA
.................... } 
02D0A:  MOVLB  0
02D0C:  RETLW  00
....................  
.................... void write_ds1302(BYTE cmd, BYTE data) { 
....................  
....................    output_high(RTC_RST); 
02D0E:  BCF    F95.3
02D10:  BSF    F8C.3
....................    write_ds1302_byte(cmd); 
02D12:  MOVFF  44D,44F
02D16:  RCALL  2CE6
....................    write_ds1302_byte(data); 
02D18:  MOVFF  44E,44F
02D1C:  RCALL  2CE6
....................    output_low(RTC_RST); 
02D1E:  BCF    F95.3
02D20:  BCF    F8C.3
.................... } 
02D22:  RETLW  00
....................  
.................... BYTE read_ds1302(BYTE cmd) { 
....................    BYTE i,data; 
....................  
....................    output_high(RTC_RST); 
02D24:  BCF    F95.3
02D26:  BSF    F8C.3
....................    write_ds1302_byte(cmd); 
02D28:  MOVFF  44A,44F
02D2C:  RCALL  2CE6
....................     
....................    input(RTC_IO); 
02D2E:  BSF    F95.2
....................    delay_us(10); 
02D30:  MOVLW  10
02D32:  MOVWF  00
02D34:  DECFSZ 00,F
02D36:  BRA    2D34
02D38:  NOP   
....................           
....................    for(i=0;i<=7;++i) { 
02D3A:  MOVLB  4
02D3C:  CLRF   x4B
02D3E:  MOVF   x4B,W
02D40:  SUBLW  07
02D42:  BNC   2D6E
....................       shift_right(&data,1,input(RTC_IO)); 
02D44:  BSF    F95.2
02D46:  BTFSC  F83.2
02D48:  BRA    2D4E
02D4A:  BCF    FD8.0
02D4C:  BRA    2D50
02D4E:  BSF    FD8.0
02D50:  RRCF   x4C,F
....................       output_high(RTC_SCLK); 
02D52:  BCF    F95.1
02D54:  BSF    F8C.1
....................       delay_us(20); 
02D56:  MOVLW  21
02D58:  MOVWF  00
02D5A:  DECFSZ 00,F
02D5C:  BRA    2D5A
....................       output_low(RTC_SCLK); 
02D5E:  BCF    F95.1
02D60:  BCF    F8C.1
....................       delay_us(20); 
02D62:  MOVLW  21
02D64:  MOVWF  00
02D66:  DECFSZ 00,F
02D68:  BRA    2D66
....................    } 
02D6A:  INCF   x4B,F
02D6C:  BRA    2D3E
....................    output_low(RTC_RST); 
02D6E:  BCF    F95.3
02D70:  BCF    F8C.3
....................  
....................    return(data); 
02D72:  MOVFF  44C,01
.................... } 
02D76:  MOVLB  0
02D78:  RETLW  00
....................  
.................... void rtc_init() { 
....................    BYTE x; 
....................    output_low(RTC_RST); 
02D7A:  BCF    F95.3
02D7C:  BCF    F8C.3
....................    delay_us(20); 
02D7E:  MOVLW  21
02D80:  MOVWF  00
02D82:  DECFSZ 00,F
02D84:  BRA    2D82
....................    output_low(RTC_SCLK); 
02D86:  BCF    F95.1
02D88:  BCF    F8C.1
....................    write_ds1302(0x8e,0); 
02D8A:  MOVLW  8E
02D8C:  MOVLB  4
02D8E:  MOVWF  x4D
02D90:  CLRF   x4E
02D92:  MOVLB  0
02D94:  RCALL  2D0E
....................    write_ds1302(0x90,0xa4); 
02D96:  MOVLW  90
02D98:  MOVLB  4
02D9A:  MOVWF  x4D
02D9C:  MOVLW  A4
02D9E:  MOVWF  x4E
02DA0:  MOVLB  0
02DA2:  RCALL  2D0E
....................    x=read_ds1302(0x81); 
02DA4:  MOVLW  81
02DA6:  MOVLB  4
02DA8:  MOVWF  x4A
02DAA:  MOVLB  0
02DAC:  RCALL  2D24
02DAE:  MOVFF  01,446
....................    if((x & 0x80)!=0) 
02DB2:  MOVLB  4
02DB4:  MOVF   x46,W
02DB6:  ANDLW  80
02DB8:  BZ    2DC6
....................      write_ds1302(0x80,0); 
02DBA:  MOVLW  80
02DBC:  MOVWF  x4D
02DBE:  CLRF   x4E
02DC0:  MOVLB  0
02DC2:  RCALL  2D0E
02DC4:  MOVLB  4
.................... } 
02DC6:  MOVLB  0
02DC8:  GOTO   7EFC (RETURN)
....................  
.................... byte get_bcd(BYTE data) 
.................... { 
....................    byte nibh; 
....................    byte nibl; 
....................  
....................    nibh=data/10; 
*
054BA:  MOVFF  44C,450
054BE:  MOVLW  0A
054C0:  MOVLB  4
054C2:  MOVWF  x51
054C4:  MOVLB  0
054C6:  CALL   4AEE
054CA:  MOVFF  01,44D
....................    nibl=data-(nibh*10); 
054CE:  MOVLB  4
054D0:  MOVF   x4D,W
054D2:  MULLW  0A
054D4:  MOVF   FF3,W
054D6:  SUBWF  x4C,W
054D8:  MOVWF  x4E
....................  
....................    return((nibh<<4)|nibl); 
054DA:  SWAPF  x4D,W
054DC:  MOVWF  00
054DE:  MOVLW  F0
054E0:  ANDWF  00,F
054E2:  MOVF   00,W
054E4:  IORWF  x4E,W
054E6:  MOVWF  01
.................... } 
054E8:  MOVLB  0
054EA:  RETLW  00
....................  
.................... byte rm_bcd(BYTE data) 
.................... { 
....................    byte i; 
....................  
....................    i=data; 
*
0492A:  MOVFF  44B,44C
....................    data=(i>>4)*10; 
0492E:  MOVLB  4
04930:  SWAPF  x4C,W
04932:  MOVWF  00
04934:  MOVLW  0F
04936:  ANDWF  00,F
04938:  MOVF   00,W
0493A:  MULLW  0A
0493C:  MOVFF  FF3,44B
....................    data=data+(i<<4>>4); 
04940:  SWAPF  x4C,W
04942:  MOVWF  00
04944:  MOVLW  F0
04946:  ANDWF  00,F
04948:  MOVF   00,W
0494A:  SWAPF  00,F
0494C:  MOVLW  0F
0494E:  ANDWF  00,F
04950:  MOVF   00,W
04952:  ADDWF  x4B,F
....................  
....................    return data; 
04954:  MOVFF  44B,01
.................... } 
04958:  MOVLB  0
0495A:  RETLW  00
....................  
.................... void rtc_set_datetime(BYTE day, BYTE mth, BYTE year, BYTE dow, BYTE hr, BYTE min) { 
....................  
....................    write_ds1302(0x86,get_bcd(day)); 
*
054EC:  MOVFF  446,44C
054F0:  RCALL  54BA
054F2:  MOVFF  01,44C
054F6:  MOVLW  86
054F8:  MOVLB  4
054FA:  MOVWF  x4D
054FC:  MOVFF  01,44E
05500:  MOVLB  0
05502:  CALL   2D0E
....................    write_ds1302(0x88,get_bcd(mth)); 
05506:  MOVFF  447,44C
0550A:  RCALL  54BA
0550C:  MOVFF  01,44C
05510:  MOVLW  88
05512:  MOVLB  4
05514:  MOVWF  x4D
05516:  MOVFF  01,44E
0551A:  MOVLB  0
0551C:  CALL   2D0E
....................    write_ds1302(0x8c,get_bcd(year)); 
05520:  MOVFF  448,44C
05524:  RCALL  54BA
05526:  MOVFF  01,44C
0552A:  MOVLW  8C
0552C:  MOVLB  4
0552E:  MOVWF  x4D
05530:  MOVFF  01,44E
05534:  MOVLB  0
05536:  CALL   2D0E
....................    write_ds1302(0x8a,get_bcd(dow)); 
0553A:  MOVFF  449,44C
0553E:  RCALL  54BA
05540:  MOVFF  01,44C
05544:  MOVLW  8A
05546:  MOVLB  4
05548:  MOVWF  x4D
0554A:  MOVFF  01,44E
0554E:  MOVLB  0
05550:  CALL   2D0E
....................    write_ds1302(0x84,get_bcd(hr)); 
05554:  MOVFF  44A,44C
05558:  RCALL  54BA
0555A:  MOVFF  01,44C
0555E:  MOVLW  84
05560:  MOVLB  4
05562:  MOVWF  x4D
05564:  MOVFF  01,44E
05568:  MOVLB  0
0556A:  CALL   2D0E
....................    write_ds1302(0x82,get_bcd(min)); 
0556E:  MOVFF  44B,44C
05572:  RCALL  54BA
05574:  MOVFF  01,44C
05578:  MOVLW  82
0557A:  MOVLB  4
0557C:  MOVWF  x4D
0557E:  MOVFF  01,44E
05582:  MOVLB  0
05584:  CALL   2D0E
....................    write_ds1302(0x80,get_bcd(0)); 
05588:  MOVLB  4
0558A:  CLRF   x4C
0558C:  MOVLB  0
0558E:  RCALL  54BA
05590:  MOVFF  01,44C
05594:  MOVLW  80
05596:  MOVLB  4
05598:  MOVWF  x4D
0559A:  MOVFF  01,44E
0559E:  MOVLB  0
055A0:  CALL   2D0E
.................... } 
055A4:  GOTO   AAB0 (RETURN)
....................  
.................... void rtc_get_date(BYTE& day, BYTE& mth, BYTE& year, BYTE& dow) { 
....................    day = rm_bcd(read_ds1302(0x87)); 
*
0814C:  MOVLW  87
0814E:  MOVLB  4
08150:  MOVWF  x4A
08152:  MOVLB  0
08154:  CALL   2D24
08158:  MOVFF  01,446
0815C:  MOVFF  01,44B
08160:  CALL   492A
08164:  MOVFF  01,3A7
....................    mth = rm_bcd(read_ds1302(0x89)); 
08168:  MOVLW  89
0816A:  MOVLB  4
0816C:  MOVWF  x4A
0816E:  MOVLB  0
08170:  CALL   2D24
08174:  MOVFF  01,446
08178:  MOVFF  01,44B
0817C:  CALL   492A
08180:  MOVFF  01,3A6
....................    year = rm_bcd(read_ds1302(0x8d)); 
08184:  MOVLW  8D
08186:  MOVLB  4
08188:  MOVWF  x4A
0818A:  MOVLB  0
0818C:  CALL   2D24
08190:  MOVFF  01,446
08194:  MOVFF  01,44B
08198:  CALL   492A
0819C:  MOVFF  01,3A5
....................    dow = rm_bcd(read_ds1302(0x8b)); 
081A0:  MOVLW  8B
081A2:  MOVLB  4
081A4:  MOVWF  x4A
081A6:  MOVLB  0
081A8:  CALL   2D24
081AC:  MOVFF  01,446
081B0:  MOVFF  01,44B
081B4:  CALL   492A
081B8:  MOVFF  01,3AB
.................... } 
....................  
.................... void rtc_get_time(BYTE& hr, BYTE& min, BYTE& sec) { 
....................    hr = rm_bcd(read_ds1302(0x85)); 
081BC:  MOVLW  85
081BE:  MOVLB  4
081C0:  MOVWF  x4A
081C2:  MOVLB  0
081C4:  CALL   2D24
081C8:  MOVFF  01,446
081CC:  MOVFF  01,44B
081D0:  CALL   492A
081D4:  MOVFF  01,3A8
....................    min = rm_bcd(read_ds1302(0x83)); 
081D8:  MOVLW  83
081DA:  MOVLB  4
081DC:  MOVWF  x4A
081DE:  MOVLB  0
081E0:  CALL   2D24
081E4:  MOVFF  01,446
081E8:  MOVFF  01,44B
081EC:  CALL   492A
081F0:  MOVFF  01,3A9
....................    sec = rm_bcd(read_ds1302(0x81)); 
081F4:  MOVLW  81
081F6:  MOVLB  4
081F8:  MOVWF  x4A
081FA:  MOVLB  0
081FC:  CALL   2D24
08200:  MOVFF  01,446
08204:  MOVFF  01,44B
08208:  CALL   492A
0820C:  MOVFF  01,3AA
.................... } 
....................  
.................... void rtc_write_nvr(BYTE address, BYTE data) { 
....................    write_ds1302(address|0xc0,data); 
.................... } 
....................  
.................... BYTE rtc_read_nvr(BYTE address) { 
....................     return(read_ds1302(address|0xc1)); 
.................... } 
....................  
.................... #include <24512.c> 
.................... /////////////////////////////////////////////////////////////////////////// 
.................... ////   Library for a 24LC512 serial EEPROM                             //// 
.................... ////                                                                   //// 
.................... ////   init_ext_eeprom();    Call before the other functions are used  //// 
.................... ////                                                                   //// 
.................... ////   write_ext_eeprom(a, d);  Write the byte d to the address a      //// 
.................... ////                                                                   //// 
.................... ////   d = read_ext_eeprom(a);   Read the byte d from the address a    //// 
.................... ////                                                                   //// 
.................... ////   The main program may define eeprom_sda                          //// 
.................... ////   and eeprom_scl to override the defaults below.                  //// 
.................... ////                                                                   //// 
.................... /////////////////////////////////////////////////////////////////////////// 
.................... ////        (C) Copyright 1996,2003 Custom Computer Services           //// 
.................... //// This source code may only be used by licensed users of the CCS C  //// 
.................... //// compiler.  This source code may only be distributed to other      //// 
.................... //// licensed users of the CCS C compiler.  No other use, reproduction //// 
.................... //// or distribution is permitted without written permission.          //// 
.................... //// Derivative programs created using this software in object code    //// 
.................... //// form are not restricted in any way.                               //// 
.................... /////////////////////////////////////////////////////////////////////////// 
....................  
.................... #ifndef EEPROM_SDA 
....................  
.................... #define EEPROM_SDA  PIN_C4 
.................... #define EEPROM_SCL  PIN_C3 
....................  
.................... #endif 
....................  
.................... //#use i2c(master, sda=EEPROM_SDA, scl=EEPROM_SCL) 
....................  
.................... #define EEPROM_ADDRESS long int 
.................... #define EEPROM_SIZE   65535 
....................  
.................... void init_ext_eeprom() 
.................... { 
....................    output_float(EEPROM_SCL); 
....................    output_float(EEPROM_SDA); 
....................  
.................... } 
....................  
.................... void write_ext_eeprom(long int address, BYTE data) 
.................... { 
....................    short int status; 
....................    i2c_start(); 
*
0677E:  BSF    F94.4
06780:  MOVLW  05
06782:  MOVWF  00
06784:  DECFSZ 00,F
06786:  BRA    6784
06788:  BSF    F94.3
0678A:  MOVLW  06
0678C:  MOVWF  00
0678E:  DECFSZ 00,F
06790:  BRA    678E
06792:  BCF    F8B.4
06794:  BCF    F94.4
06796:  MOVLW  05
06798:  MOVWF  00
0679A:  DECFSZ 00,F
0679C:  BRA    679A
0679E:  BCF    F8B.3
067A0:  BCF    F94.3
....................    i2c_write(0xa0); 
067A2:  MOVLW  A0
067A4:  MOVLB  4
067A6:  MOVWF  x5C
067A8:  MOVLB  0
067AA:  CALL   46E0
....................    i2c_write(address>>8); 
067AE:  MOVFF  44E,451
067B2:  MOVLB  4
067B4:  CLRF   x52
067B6:  MOVFF  44E,45C
067BA:  MOVLB  0
067BC:  CALL   46E0
....................    i2c_write(address); 
067C0:  MOVFF  44D,45C
067C4:  CALL   46E0
....................    i2c_write(data); 
067C8:  MOVFF  44F,45C
067CC:  CALL   46E0
....................    i2c_stop(); 
067D0:  BCF    F94.4
067D2:  NOP   
067D4:  BSF    F94.3
067D6:  BTFSS  F82.3
067D8:  BRA    67D6
067DA:  MOVLW  05
067DC:  MOVWF  00
067DE:  DECFSZ 00,F
067E0:  BRA    67DE
067E2:  BRA    67E4
067E4:  NOP   
067E6:  BSF    F94.4
067E8:  MOVLW  05
067EA:  MOVWF  00
067EC:  DECFSZ 00,F
067EE:  BRA    67EC
....................    i2c_start(); 
067F0:  BSF    F94.4
067F2:  MOVLW  05
067F4:  MOVWF  00
067F6:  DECFSZ 00,F
067F8:  BRA    67F6
067FA:  BSF    F94.3
067FC:  MOVLW  06
067FE:  MOVWF  00
06800:  DECFSZ 00,F
06802:  BRA    6800
06804:  BCF    F8B.4
06806:  BCF    F94.4
06808:  MOVLW  05
0680A:  MOVWF  00
0680C:  DECFSZ 00,F
0680E:  BRA    680C
06810:  BCF    F8B.3
06812:  BCF    F94.3
....................    status=i2c_write(0xa0); 
06814:  MOVLW  A0
06816:  MOVLB  4
06818:  MOVWF  x5C
0681A:  MOVLB  0
0681C:  CALL   46E0
06820:  MOVF   01,W
06822:  MOVLB  4
06824:  BCF    x50.0
06826:  BTFSC  01.0
06828:  BSF    x50.0
....................    //while(status==1) 
....................    //{ 
....................       i2c_start(); 
0682A:  BSF    F94.4
0682C:  MOVLW  05
0682E:  MOVWF  00
06830:  DECFSZ 00,F
06832:  BRA    6830
06834:  BSF    F94.3
06836:  MOVLW  06
06838:  MOVWF  00
0683A:  DECFSZ 00,F
0683C:  BRA    683A
0683E:  BTFSS  F82.3
06840:  BRA    683E
06842:  BCF    F8B.4
06844:  BCF    F94.4
06846:  MOVLW  05
06848:  MOVWF  00
0684A:  DECFSZ 00,F
0684C:  BRA    684A
0684E:  BCF    F8B.3
06850:  BCF    F94.3
....................       status=i2c_write(0xa0); 
06852:  MOVLW  A0
06854:  MOVWF  x5C
06856:  MOVLB  0
06858:  CALL   46E0
0685C:  MOVF   01,W
0685E:  MOVLB  4
06860:  BCF    x50.0
06862:  BTFSC  01.0
06864:  BSF    x50.0
....................    //} 
....................    i2c_stop(); 
06866:  BCF    F94.4
06868:  NOP   
0686A:  BSF    F94.3
0686C:  BTFSS  F82.3
0686E:  BRA    686C
06870:  MOVLW  05
06872:  MOVWF  00
06874:  DECFSZ 00,F
06876:  BRA    6874
06878:  BRA    687A
0687A:  NOP   
0687C:  BSF    F94.4
0687E:  MOVLW  05
06880:  MOVWF  00
06882:  DECFSZ 00,F
06884:  BRA    6882
.................... } 
06886:  MOVLB  0
06888:  RETLW  00
....................  
.................... BYTE read_ext_eeprom(long int address) { 
....................    BYTE data; 
....................    i2c_start(); 
*
056D8:  BSF    F94.4
056DA:  MOVLW  05
056DC:  MOVWF  00
056DE:  DECFSZ 00,F
056E0:  BRA    56DE
056E2:  BSF    F94.3
056E4:  MOVLW  06
056E6:  MOVWF  00
056E8:  DECFSZ 00,F
056EA:  BRA    56E8
056EC:  BCF    F8B.4
056EE:  BCF    F94.4
056F0:  MOVLW  05
056F2:  MOVWF  00
056F4:  DECFSZ 00,F
056F6:  BRA    56F4
056F8:  BCF    F8B.3
056FA:  BCF    F94.3
....................    i2c_write(0xa0); 
056FC:  MOVLW  A0
056FE:  MOVLB  4
05700:  MOVWF  x5C
05702:  MOVLB  0
05704:  CALL   46E0
....................    i2c_write(address>>8); 
05708:  MOVFF  44C,44E
0570C:  MOVLB  4
0570E:  CLRF   x4F
05710:  MOVFF  44C,45C
05714:  MOVLB  0
05716:  CALL   46E0
....................    i2c_write(address); 
0571A:  MOVFF  44B,45C
0571E:  CALL   46E0
....................    i2c_start(); 
05722:  BSF    F94.4
05724:  MOVLW  05
05726:  MOVWF  00
05728:  DECFSZ 00,F
0572A:  BRA    5728
0572C:  BSF    F94.3
0572E:  MOVLW  06
05730:  MOVWF  00
05732:  DECFSZ 00,F
05734:  BRA    5732
05736:  BTFSS  F82.3
05738:  BRA    5736
0573A:  BCF    F8B.4
0573C:  BCF    F94.4
0573E:  MOVLW  05
05740:  MOVWF  00
05742:  DECFSZ 00,F
05744:  BRA    5742
05746:  BCF    F8B.3
05748:  BCF    F94.3
....................    i2c_write(0xa1); 
0574A:  MOVLW  A1
0574C:  MOVLB  4
0574E:  MOVWF  x5C
05750:  MOVLB  0
05752:  CALL   46E0
....................    data=i2c_read(0); 
05756:  CLRF   00
05758:  BRA    566C
0575A:  MOVFF  01,44D
....................    i2c_stop(); 
0575E:  BCF    F94.4
05760:  NOP   
05762:  BSF    F94.3
05764:  BTFSS  F82.3
05766:  BRA    5764
05768:  MOVLW  05
0576A:  MOVWF  00
0576C:  DECFSZ 00,F
0576E:  BRA    576C
05770:  BRA    5772
05772:  NOP   
05774:  BSF    F94.4
05776:  MOVLW  05
05778:  MOVWF  00
0577A:  DECFSZ 00,F
0577C:  BRA    577A
....................    return(data); 
0577E:  MOVLB  4
05780:  MOVFF  44D,01
.................... } 
05784:  MOVLB  0
05786:  RETLW  00
....................  
....................  
.................... //-----Defines para configuracion de logica de funcionamiento de autoclave---// 
.................... #define PT100Fija //Define para autcolaves con reservorio y Pt100 fija (NO FLEXIBLE) 
.................... //#define Reservorio //Define para autoclaves con reservorio 
.................... #define Tmax 134 
.................... #define Tmin 105 
.................... //#define ULKA 
.................... #define Generador 
.................... //--------------------------------------------------------------------------// 
....................  
.................... #define   UP            !input(PIN_B0) 
.................... #define   DOWN          !input(PIN_B1) 
.................... #define   RIGHT         !input(PIN_B2) 
.................... #define   LEFT          !input(PIN_B3) 
....................  
.................... #define   DOOR          !input(PIN_B6) 
.................... #define   STOP          !input(PIN_B7) 
.................... #define   TERM          !input(PIN_B5) 
....................  
.................... #define   LOW           input(PIN_C1) 
.................... #define   HIG           input(PIN_C0) 
....................  
.................... #define   SSR_on           output_bit(PIN_C2,0) 
.................... #define   SSR_off          output_bit(PIN_C2,1) 
....................  
.................... #define   Buzzer_on        output_bit(PIN_D0,1) 
.................... #define   Buzzer_off       output_bit(PIN_D0,0) 
....................  
.................... #define   Desfogue_on      output_bit(PIN_D4,1) 
.................... #define   Desfogue_off     output_bit(PIN_D4,0) 
....................  
.................... #define   Agua_on          output_bit(PIN_D5,1) 
.................... #define   Agua_off         output_bit(PIN_D5,0) 
....................  
.................... #ifdef Generador 
.................... #define   Paso_on          output_bit(PIN_D6,1) 
.................... #define   Paso_off         output_bit(PIN_D6,0) 
.................... #else 
.................... #define   Bomba_on         output_bit(PIN_D6,1) 
.................... #define   Bomba_off        output_bit(PIN_D6,0) 
.................... #endif 
....................  
....................  
.................... #define OFF 0 
.................... #define ON  1 
.................... #define RX_BUFFER_SIZE  10 
.................... char Rx_Buffer[RX_BUFFER_SIZE+1]; 
.................... char Rx_Buffer2[RX_BUFFER_SIZE+1]; 
.................... char RX_Wr_Index=0; 
.................... char RX_Rd_Index=0; 
.................... char RX_Counter=0; 
....................  
.................... #define TX_BUFFER_SIZE  24 
.................... char Tx_Buffer[TX_BUFFER_SIZE+1]; 
.................... char TX_Wr_Index=0; 
.................... char TX_Counter=0; 
.................... //int1 RX_Buffer_Overflow=0; 
....................  
.................... //Comunicacion//------------------------ 
.................... byte SlaveA0Tx[0X20]; 
.................... byte dato=0;            //Contendr la informacin a enviar o recibir 
.................... byte direccion=0;       //Contendr la direccin del esclavo en el bus I2C 
.................... byte posicion=0;        //Contendr la posicin en el buffer de memoria del esclavo donde se almacenar o de donde se recuperar el dato 
....................  
.................... /* Tabla de Modulos, Primera Fila Ao Regular y el siguiente ao Bisiesto 
.................... E   F   M   A   M   J   J   A   S   O   N   D 
.................... 0   3   3   6   1   4   6   2   5   0   3   5 
.................... 0   3   4   0   2   5   0   3   6   1   4   6 
.................... */ 
.................... int8 Regular[12]={0,3,3,6,1,4,6,2,5,0,3,5}; 
.................... int8 Bisiesto[12]={0,3,4,0,2,5,0,3,6,1,4,6}; 
....................  
.................... //Alarmas//--------------------- 
.................... short AlarmaTiempoProlongado=OFF,AlarmaSobreTemperatura=OFF,AlarmaLlenado=OFF,AlarmaTermostato=OFF,AlarmaPuerta=OFF,AlarmaEmergencia=OFF,AlarmaCiclo=OFF; 
....................  
.................... //Banderas//-------------------- 
.................... short IniciaLlenado=OFF,CalderinLleno=OFF,IniciaCiclo=OFF,Esterilizando=OFF,Secando=OFF,SensadoNivel=OFF,Desfogando=OFF,DesfogueSuave=OFF,Precalentamiento=OFF; 
.................... short EstadoDesfogue=OFF,EstadoAgua=OFF,EstadoSSR=OFF,PruebaEstados=OFF,Ciclo=OFF,flagCalentando=OFF,flagEsterilizando=OFF,EstadoAire=OFF,SensadoNivelL=OFF; 
.................... short flagDesfogando=OFF,Op=OFF,Op2=OFF,Minutos=OFF,Segundos=OFF,GuardaEEPROM=OFF,EstadoPaso=OFF,EstadoBuzzer=OFF,flagAlarma=OFF,NivelBajo=OFF,purgo=OFF,purgaAire2=OFF; 
.................... short flagBuzzer=OFF,flagSilencio=OFF,Finalizo=OFF,AlarmaPresion=OFF,Libre=OFF,purga=OFF,entro=OFF,Aire=OFF,disp_Guarda=OFF,guardaCiclo=OFF,flagBombaAgua=OFF,flagBombaAguaOff=OFF; 
....................  
.................... //Tiempos//--------------------- 
.................... int16 TiempoCiclo=0,TiempoLlenado=0,TiempoSensadoNivel=0,Tp=0,Tc=0,tguarda=0,tNivelBajo=0,conteoPresion=0,tPurgaAire=0; 
.................... signed int  Testerilizacion[5]={0,0,0,0,0};   // Tiempo transcurrido 
.................... signed int  Testerilizacionp[5]={0,0,0,0,0};   // Tiempo transcurrido 
.................... signed int  Tsecado[4]={0,0,0,0};   // Tiempo transcurrido 
.................... signed int  Tsecadop[4]={0,0,0,0};   // Tiempo transcurrido 
....................  
.................... //Control//------------------------ 
.................... float promedio[80]={0.0,0.0,0.0,0.0,0.0,0.0,0.0,0.0,0.0,0.0,0.0,0.0,0.0,0.0,0.0,0.0,0.0,0.0,0.0,0.0,0.0,0.0,0.0,0.0,0.0,0.0,0.0,0.0,0.0,0.0,0.0,0.0,0.0,0.0,0.0,0.0,0.0,0.0,0.0,0.0,0.0,0.0,0.0,0.0,0.0,0.0,0.0,0.0,0.0,0.0,0.0,0.0,0.0,0.0,0.0,0.0,0.0,0.0,0.0,0.0,0.0,0.0,0.0,0.0}; 
.................... float PromPresion[20]={0.0,0.0,0.0,0.0,0.0,0.0,0.0,0.0,0.0,0.0,0.0,0.0,0.0,0.0,0.0,0.0,0.0,0.0,0.0,0.0}; 
.................... float PromPresionp[20]={0.0,0.0,0.0,0.0,0.0,0.0,0.0,0.0,0.0,0.0,0.0,0.0,0.0,0.0,0.0,0.0,0.0,0.0,0.0,0.0}; 
.................... float Gain=141.6,RPT100=0.5,Temporal=0.0; 
.................... float R1=100,R10=6800; 
.................... float X[2]={0.0,0.0}; 
.................... float Xx[2]={0.0,0.0}; 
.................... float promediopresion=0.0,Aumento=0.0,Aumento2=0.0,promediopresionp=0.0; 
.................... int8 h=0,l=0,Ajuste=0,Ajusten=0,MediaMovil=20,TTrampa=0,PantallaPrincipal=0,TipoClave=0,Modulo=0,Digito=0,yy=0,cicloVisto=0,cicloVisualizado=0,posicionDato=0,j=0,codigoAlarma=0,codigoAnt=0; 
.................... float V0=0.0,Pt,Tciclo=10.0,Tpulso=0.0,error=0.0,Prom=0.0,Temperature=0.0,tmp=0.0,Ganancia=25.0,Ganancia2=20.0,desvio=1.2,tmp2=0.0; 
.................... float V1=0.0,Presion=0.0,V2=0.0,Presionp=0.0; 
.................... float Temperatura=0.0,K=0.0012858; 
.................... float a=0.0011,b=2.3302,c=-244.0723; 
.................... int8 Integral=0,Derivativo=0,CicloLibre=0; 
.................... float p1=0.0000011617,p2=-0.0010575,p3=0.44114,p4=65.043,Tactual=0.0; 
....................  
.................... //Varios//-------------------------------- 
.................... short desfoguelento=0,Lectura=0,Grafica=0; 
.................... short disp_Stop=0,flagTC=0,flagImprime=0,flagImprimir=0; 
.................... int8 Control=0,tiemporecta=0,Controlando=0,ActivaImpresion=1,timpresion=2,CalculoImpresion=0,Inicio=1,Dato_Exitoso=0,Dato2=0,z=0; 
.................... int8 Menu=0, MenuAnt=0,MenuAntt=240,i=0,CiclosL=0,CiclosH=0,CicloSeleccionado=0; 
.................... int8 Setpoint=0,Opcion=1,Opcion2=1,tiempo_esterilizacion=0,tiempo_secado=0,tiempoImpresion=0,temperaturaInicial=0; 
.................... int16 tiempos=0,tiempos2=0,tiempos3=0,tiempoctrl=0,Nivel=0,tinicio=0,PresionCamara=0,PresionPreCamara=0,Ciclos=0,NivelSeleccionado=0,tBombaAgua=0,tBombaAguaOff=0; 
.................... signed int  Contrasena[4]={0,0,0,0};      // Contrasena de 4 digitos 
.................... signed int  Password[4]={0,0,0,0};        // Contrasena Almacenada de 4 digitos 
.................... int8 r=0,t=0,r22=0,t2=0,TiempoControl=0; 
.................... int8 y=0,ConteoBuzzer=0; 
.................... int16 t_exhaust=0,tbuzzer=0,tsilencio=0,tiempoAgua=0,tStop=0,tTermostato=0; 
.................... int8 Year=18,Mes=9,Dia=13,Hora=0,Minuto=0,Segundo=0,dow=0; 
.................... int8 YearTx=0,MesTx=0,DiaTx=0,HoraTx=0,MinutoTx=0,SegundoTx=0,dowTx=0,SetTime=0,Imprime=0; 
.................... int8 Atmosferica=72; 
.................... signed int8 G1=0,G2=0,sg1=0,sg2=0; 
.................... int8 iconoGrande[9]={25,16,22,24,23,28,20,46,69}; 
.................... int8 iconoPeque[9]={34,36,18,33,32,38,19,17,68}; 
.................... char const texto[9][20]={"LIQUIDOS A","CAUCHO","INSTRUMENTAL","LIQUIDOS B","LIBRE","TEST","HORA Y FECHA","CLAVE","DATOS"}; 
.................... int8 diaCiclos=0,mesCiclos=0,yearCiclos=0,usuarioCiclos=0,cicloCiclos=0; 
....................  
.................... float TCiclos[7]; 
.................... int16 PcCiclos[7]; 
.................... int16 PpcCiclos[7]; 
.................... int8 horaCiclos[7]; 
.................... int8 minutoCiclos[7]; 
.................... int8 ACiclos[7]; 
....................  
.................... typedef struct{ 
....................    int8 Temperatura; 
....................    int8 MinutoestH; 
....................    int8 MinutoestL; 
....................    int8 Segundoest; 
....................    int8 Minutosec; 
....................    int8 Segundosec; 
....................    int8 PulsosVacio; 
....................    int8 NivelVacio; 
....................    int8 NivelDesfogue; 
....................    int8 Minutoest; 
.................... }Personalizado; 
....................  
.................... Personalizado CiclosPersonalizados[4]; 
....................  
.................... #include "Funciones.h" 
.................... float inttofloat(int8 decimal){ 
....................    float tmp; 
....................    tmp=decimal; 
05788:  MOVLB  4
0578A:  CLRF   x5C
0578C:  MOVFF  44A,45B
05790:  MOVLB  0
05792:  CALL   1AF0
05796:  MOVFF  03,44E
0579A:  MOVFF  02,44D
0579E:  MOVFF  01,44C
057A2:  MOVFF  00,44B
....................    return tmp/10; 
057A6:  MOVFF  44E,452
057AA:  MOVFF  44D,451
057AE:  MOVFF  44C,450
057B2:  MOVFF  44B,44F
057B6:  MOVLB  4
057B8:  CLRF   x56
057BA:  CLRF   x55
057BC:  MOVLW  20
057BE:  MOVWF  x54
057C0:  MOVLW  82
057C2:  MOVWF  x53
057C4:  MOVLB  0
057C6:  CALL   1B26
.................... } 
057CA:  GOTO   5AEA (RETURN)
....................  
.................... void BorraBuffer(void){ 
.................... RX_Buffer[0]=0; 
*
04A90:  CLRF   30
.................... RX_Buffer[1]=0; 
04A92:  CLRF   31
.................... RX_Buffer[2]=0; 
04A94:  CLRF   32
.................... RX_Buffer[3]=0; 
04A96:  CLRF   33
.................... RX_Buffer[4]=0; 
04A98:  CLRF   34
.................... RX_Buffer[5]=0; 
04A9A:  CLRF   35
.................... RX_Buffer[6]=0; 
04A9C:  CLRF   36
.................... RX_Buffer[7]=0; 
04A9E:  CLRF   37
.................... RX_Buffer[8]=0; 
04AA0:  CLRF   38
.................... RX_Buffer[9]=0; 
04AA2:  CLRF   39
....................  
.................... RX_Buffer2[0]=0; 
04AA4:  CLRF   3B
.................... RX_Buffer2[1]=0; 
04AA6:  CLRF   3C
.................... RX_Buffer2[2]=0; 
04AA8:  CLRF   3D
.................... RX_Buffer2[3]=0; 
04AAA:  CLRF   3E
.................... RX_Buffer2[4]=0; 
04AAC:  CLRF   3F
.................... RX_Buffer2[5]=0; 
04AAE:  CLRF   40
.................... RX_Buffer2[6]=0; 
04AB0:  CLRF   41
.................... RX_Buffer2[7]=0; 
04AB2:  CLRF   42
.................... RX_Buffer2[8]=0; 
04AB4:  CLRF   43
.................... RX_Buffer2[9]=0; 
04AB6:  CLRF   44
....................  
.................... } 
04AB8:  GOTO   8278 (RETURN)
....................  
.................... char bgetc(void){ 
....................    char c; 
....................    while(RX_Counter==0) 
....................       ; 
....................    c=Rx_Buffer2[RX_Rd_Index]; 
....................    if(++RX_Rd_Index>RX_BUFFER_SIZE) 
....................       RX_Rd_Index=0; 
....................    if(RX_Counter) 
....................       RX_Counter--; 
....................    return c; 
.................... } 
....................  
.................... void bputc(char c){ 
....................    char restart=0; 
....................    while(TX_Counter> (TX_BUFFER_SIZE-1)) 
....................       ; 
....................    if(TX_Counter==0) 
....................       restart=1; 
....................    TX_Buffer[TX_Wr_Index++]=c; 
....................    if(TX_Wr_Index>TX_BUFFER_SIZE) 
....................       TX_Wr_Index=0; 
....................     
....................    TX_Counter++; 
....................     
....................    if(restart==1) 
....................       enable_interrupts(int_tbe); 
.................... } 
....................  
.................... void SendDataDisplay(void){ 
.................... delay_us(10); 
*
039C0:  MOVLW  10
039C2:  MOVWF  00
039C4:  DECFSZ 00,F
039C6:  BRA    39C4
039C8:  NOP   
.................... putc(0xFF); 
039CA:  MOVLW  FF
039CC:  RCALL  39B8
.................... delay_us(10); 
039CE:  MOVLW  10
039D0:  MOVWF  00
039D2:  DECFSZ 00,F
039D4:  BRA    39D2
039D6:  NOP   
.................... putc(0xFF); 
039D8:  MOVLW  FF
039DA:  RCALL  39B8
.................... delay_us(10); 
039DC:  MOVLW  10
039DE:  MOVWF  00
039E0:  DECFSZ 00,F
039E2:  BRA    39E0
039E4:  NOP   
.................... putc(0xFF); 
039E6:  MOVLW  FF
039E8:  RCALL  39B8
.................... delay_us(10); 
039EA:  MOVLW  10
039EC:  MOVWF  00
039EE:  DECFSZ 00,F
039F0:  BRA    39EE
039F2:  NOP   
.................... } 
039F4:  RETLW  00
....................  
.................... short esBisiesto(int8 year) { 
....................      return ((year % 4 == 0 && year % 100 != 0) || year % 400 == 0); 
*
05466:  MOVLB  4
05468:  MOVF   x46,W
0546A:  ANDLW  03
0546C:  BNZ   5482
0546E:  MOVFF  446,450
05472:  MOVLW  64
05474:  MOVWF  x51
05476:  MOVLB  0
05478:  CALL   4AEE
0547C:  MOVF   00,F
0547E:  BNZ   54B0
05480:  MOVLB  4
05482:  CLRF   x4B
05484:  MOVFF  446,44A
05488:  MOVLW  01
0548A:  MOVWF  x4D
0548C:  MOVLW  90
0548E:  MOVWF  x4C
05490:  MOVLB  0
05492:  RCALL  5420
05494:  MOVFF  00,447
05498:  MOVLB  4
0549A:  MOVFF  03,448
0549E:  MOVF   x47,F
054A0:  BNZ   54AC
054A2:  MOVF   x48,F
054A4:  BTFSS  FD8.2
054A6:  BRA    54AC
054A8:  MOVLB  0
054AA:  BRA    54B0
054AC:  MOVLW  00
054AE:  BRA    54B4
054B0:  MOVLW  01
054B2:  MOVLB  4
054B4:  MOVWF  01
.................... } 
054B6:  MOVLB  0
054B8:  RETLW  00
....................  
.................... void LimitaDia(){ 
....................    if(MesTx>12) 
*
055A8:  MOVLB  3
055AA:  MOVF   xAD,W
055AC:  SUBLW  0C
055AE:  BC    55B4
....................       MesTx=10; 
055B0:  MOVLW  0A
055B2:  MOVWF  xAD
....................    if(DiaTx>31) 
055B4:  MOVF   xAE,W
055B6:  SUBLW  1F
055B8:  BC    55BE
....................       DiaTx=16; 
055BA:  MOVLW  10
055BC:  MOVWF  xAE
....................    if(YearTx>99) 
055BE:  MOVF   xAC,W
055C0:  SUBLW  63
055C2:  BC    55C8
....................       YearTx=18;    
055C4:  MOVLW  12
055C6:  MOVWF  xAC
....................    if(HoraTx>24) 
055C8:  MOVF   xAF,W
055CA:  SUBLW  18
055CC:  BC    55D2
....................       HoraTx=11;       
055CE:  MOVLW  0B
055D0:  MOVWF  xAF
....................    if(MinutoTx>59) 
055D2:  MOVF   xB0,W
055D4:  SUBLW  3B
055D6:  BC    55DC
....................       MinutoTx=30;       
055D8:  MOVLW  1E
055DA:  MOVWF  xB0
....................     
....................       if(MesTx==2){ 
055DC:  MOVF   xAD,W
055DE:  SUBLW  02
055E0:  BNZ   560C
....................          if(esBisiesto(YearTx)){ 
055E2:  MOVFF  3AC,446
055E6:  MOVLB  0
055E8:  RCALL  5466
055EA:  MOVF   01,F
055EC:  BZ    55FE
....................             if(DiaTx>29){ 
055EE:  MOVLB  3
055F0:  MOVF   xAE,W
055F2:  SUBLW  1D
055F4:  BC    55FA
....................                DiaTx=29; 
055F6:  MOVLW  1D
055F8:  MOVWF  xAE
....................                //glcd_fillScreen(OFF); 
....................             } 
....................          }else{ 
055FA:  BRA    560A
055FC:  MOVLB  0
....................             if(DiaTx>28){ 
055FE:  MOVLB  3
05600:  MOVF   xAE,W
05602:  SUBLW  1C
05604:  BC    560A
....................                DiaTx=28; 
05606:  MOVLW  1C
05608:  MOVWF  xAE
....................                //glcd_fillScreen(OFF); 
....................             } 
....................          } 
....................       }else{ 
0560A:  BRA    5636
....................          if(MesTx<=7){ 
0560C:  MOVF   xAD,W
0560E:  SUBLW  07
05610:  BNC   5624
....................             if(MesTx % 2 ==0){ 
05612:  MOVF   xAD,W
05614:  ANDLW  01
05616:  BNZ   5622
....................                if(DiaTx>30){ 
05618:  MOVF   xAE,W
0561A:  SUBLW  1E
0561C:  BC    5622
....................                   DiaTx=30;  
0561E:  MOVLW  1E
05620:  MOVWF  xAE
....................                   //glcd_fillScreen(OFF); 
....................                } 
....................             } 
....................          }else{ 
05622:  BRA    5636
....................             if(MesTx % 2 ==1){ 
05624:  MOVF   xAD,W
05626:  ANDLW  01
05628:  SUBLW  01
0562A:  BNZ   5636
....................                if(DiaTx>30){ 
0562C:  MOVF   xAE,W
0562E:  SUBLW  1E
05630:  BC    5636
....................                   DiaTx=30;  
05632:  MOVLW  1E
05634:  MOVWF  xAE
....................                   //glcd_fillScreen(OFF); 
....................                } 
....................             } 
....................          } 
....................       } 
.................... } 
05636:  MOVLB  0
05638:  GOTO   AD4E (RETURN)
....................  
.................... void ActualizaRecta(){ 
....................    X[y]=Temperature; 
*
06FAA:  MOVLB  3
06FAC:  MOVF   x97,W
06FAE:  MULLW  04
06FB0:  MOVF   FF3,W
06FB2:  CLRF   03
06FB4:  ADDLW  BE
06FB6:  MOVWF  FE9
06FB8:  MOVLW  02
06FBA:  ADDWFC 03,W
06FBC:  MOVWF  FEA
06FBE:  MOVFF  307,FEF
06FC2:  MOVFF  308,FEC
06FC6:  MOVFF  309,FEC
06FCA:  MOVFF  30A,FEC
....................    y++; 
06FCE:  INCF   x97,F
....................    if(y>=2) 
06FD0:  MOVF   x97,W
06FD2:  SUBLW  01
06FD4:  BC    7012
....................    { 
....................       y=0; 
06FD6:  CLRF   x97
....................       Aumento=X[1]-X[0]; 
06FD8:  BSF    FD8.1
06FDA:  MOVFF  2C5,45E
06FDE:  MOVFF  2C4,45D
06FE2:  MOVFF  2C3,45C
06FE6:  MOVFF  2C2,45B
06FEA:  MOVFF  2C1,462
06FEE:  MOVFF  2C0,461
06FF2:  MOVFF  2BF,460
06FF6:  MOVFF  2BE,45F
06FFA:  MOVLB  0
06FFC:  CALL   1C84
07000:  MOVFF  03,2D5
07004:  MOVFF  02,2D4
07008:  MOVFF  01,2D3
0700C:  MOVFF  00,2D2
07010:  MOVLB  3
....................    } 
.................... } 
07012:  MOVLB  0
07014:  GOTO   7090 (RETURN)
....................  
.................... void ActualizaRectaPresion(){ 
....................    Xx[yy]=Tactual; 
....................    yy++; 
....................    if(yy>=2){ 
....................       yy=0; 
....................       Aumento2=Xx[1]-Xx[0]; 
....................    } 
.................... } 
....................  
.................... // Funcion para conversor analogo-digital 
.................... float sensores(int x){ 
.................... float y;set_adc_channel(x);delay_ms(1);y=read_adc();return (y); 
*
03A14:  MOVLB  4
03A16:  RLCF   x4F,W
03A18:  MOVWF  00
03A1A:  RLCF   00,F
03A1C:  MOVLW  FC
03A1E:  ANDWF  00,F
03A20:  MOVFF  00,01
03A24:  MOVF   FC2,W
03A26:  ANDLW  C3
03A28:  IORWF  00,W
03A2A:  MOVWF  FC2
03A2C:  MOVLW  01
03A2E:  MOVWF  x5B
03A30:  MOVLB  0
03A32:  CALL   1AC8
03A36:  BSF    FC2.1
03A38:  BTFSC  FC2.1
03A3A:  BRA    3A38
03A3C:  MOVFF  FC4,45C
03A40:  MOVFF  FC3,45B
03A44:  MOVLB  0
03A46:  CALL   1AF0
03A4A:  MOVFF  03,453
03A4E:  MOVFF  02,452
03A52:  MOVFF  01,451
03A56:  MOVFF  00,450
03A5A:  MOVFF  450,00
03A5E:  MOVFF  451,01
03A62:  MOVFF  452,02
03A66:  MOVFF  453,03
.................... } 
03A6A:  RETLW  00
.................... float LeerPT100(int media) 
.................... { 
*
03B84:  MOVLB  4
03B86:  CLRF   x4A
03B88:  CLRF   x49
03B8A:  CLRF   x48
03B8C:  CLRF   x47
03B8E:  CLRF   x4E
03B90:  CLRF   x4D
03B92:  CLRF   x4C
03B94:  CLRF   x4B
....................    float ajp=0.0,ajn=0.0; 
....................    Prom=0.0; 
03B96:  MOVLB  3
03B98:  CLRF   x06
03B9A:  CLRF   x05
03B9C:  CLRF   x04
03B9E:  CLRF   x03
....................    V0 = sensores(0);   //Lectura de Divisor de Voltaje de PT100 con resistencia de 6.18k (+-2%) 
03BA0:  MOVLB  4
03BA2:  CLRF   x4F
03BA4:  MOVLB  0
03BA6:  RCALL  3A14
03BA8:  MOVFF  03,2F2
03BAC:  MOVFF  02,2F1
03BB0:  MOVFF  01,2F0
03BB4:  MOVFF  00,2EF
....................    V0 = V0/105.77; // Se elimina la ganancia 
03BB8:  MOVFF  2F2,452
03BBC:  MOVFF  2F1,451
03BC0:  MOVFF  2F0,450
03BC4:  MOVFF  2EF,44F
03BC8:  MOVLW  3D
03BCA:  MOVLB  4
03BCC:  MOVWF  x56
03BCE:  MOVLW  8A
03BD0:  MOVWF  x55
03BD2:  MOVLW  53
03BD4:  MOVWF  x54
03BD6:  MOVLW  85
03BD8:  MOVWF  x53
03BDA:  MOVLB  0
03BDC:  CALL   1B26
03BE0:  MOVFF  03,2F2
03BE4:  MOVFF  02,2F1
03BE8:  MOVFF  01,2F0
03BEC:  MOVFF  00,2EF
....................    //V0 += 14.82; 
....................    V0 += 14.82;//5.041V 73mV 
03BF0:  BCF    FD8.1
03BF2:  MOVFF  2F2,45E
03BF6:  MOVFF  2F1,45D
03BFA:  MOVFF  2F0,45C
03BFE:  MOVFF  2EF,45B
03C02:  MOVLW  B8
03C04:  MOVLB  4
03C06:  MOVWF  x62
03C08:  MOVLW  1E
03C0A:  MOVWF  x61
03C0C:  MOVLW  6D
03C0E:  MOVWF  x60
03C10:  MOVLW  82
03C12:  MOVWF  x5F
03C14:  MOVLB  0
03C16:  CALL   1C84
03C1A:  MOVFF  03,2F2
03C1E:  MOVFF  02,2F1
03C22:  MOVFF  01,2F0
03C26:  MOVFF  00,2EF
....................    Pt=R10/((1023/V0)-1); 
03C2A:  MOVLB  4
03C2C:  CLRF   x52
03C2E:  MOVLW  C0
03C30:  MOVWF  x51
03C32:  MOVLW  7F
03C34:  MOVWF  x50
03C36:  MOVLW  88
03C38:  MOVWF  x4F
03C3A:  MOVFF  2F2,456
03C3E:  MOVFF  2F1,455
03C42:  MOVFF  2F0,454
03C46:  MOVFF  2EF,453
03C4A:  MOVLB  0
03C4C:  CALL   1B26
03C50:  MOVFF  00,44F
03C54:  MOVFF  01,450
03C58:  MOVFF  02,451
03C5C:  MOVFF  03,452
03C60:  BSF    FD8.1
03C62:  MOVFF  03,45E
03C66:  MOVFF  02,45D
03C6A:  MOVFF  01,45C
03C6E:  MOVFF  00,45B
03C72:  MOVLB  4
03C74:  CLRF   x62
03C76:  CLRF   x61
03C78:  CLRF   x60
03C7A:  MOVLW  7F
03C7C:  MOVWF  x5F
03C7E:  MOVLB  0
03C80:  CALL   1C84
03C84:  MOVFF  2BD,452
03C88:  MOVFF  2BC,451
03C8C:  MOVFF  2BB,450
03C90:  MOVFF  2BA,44F
03C94:  MOVFF  03,456
03C98:  MOVFF  02,455
03C9C:  MOVFF  01,454
03CA0:  MOVFF  00,453
03CA4:  CALL   1B26
03CA8:  MOVFF  03,2F6
03CAC:  MOVFF  02,2F5
03CB0:  MOVFF  01,2F4
03CB4:  MOVFF  00,2F3
....................              
....................    if(l>(media-1)) 
03CB8:  MOVLW  01
03CBA:  MOVLB  4
03CBC:  SUBWF  x46,W
03CBE:  MOVLB  2
03CC0:  SUBWF  xDF,W
03CC2:  BZ    3CC8
03CC4:  BNC   3CC8
....................    {l=0;} 
03CC6:  CLRF   xDF
....................    //promedio[l]=Temperature;l++; 
....................    promedio[l]=Pt;l++; 
03CC8:  MOVLB  4
03CCA:  CLRF   x50
03CCC:  MOVFF  2DF,44F
03CD0:  CLRF   x52
03CD2:  MOVLW  04
03CD4:  MOVWF  x51
03CD6:  MOVLB  0
03CD8:  RCALL  3A6C
03CDA:  MOVF   01,W
03CDC:  ADDLW  CA
03CDE:  MOVWF  FE9
03CE0:  MOVLW  00
03CE2:  ADDWFC 02,W
03CE4:  MOVWF  FEA
03CE6:  MOVFF  2F3,FEF
03CEA:  MOVFF  2F4,FEC
03CEE:  MOVFF  2F5,FEC
03CF2:  MOVFF  2F6,FEC
03CF6:  MOVLB  2
03CF8:  INCF   xDF,F
....................           
....................    for(h=0;h<media;h++) 
03CFA:  CLRF   xDE
03CFC:  MOVLB  4
03CFE:  MOVF   x46,W
03D00:  MOVLB  2
03D02:  SUBWF  xDE,W
03D04:  BC    3D84
....................    { 
....................       Prom+=promedio[h]; 
03D06:  MOVLB  4
03D08:  CLRF   x50
03D0A:  MOVFF  2DE,44F
03D0E:  CLRF   x52
03D10:  MOVLW  04
03D12:  MOVWF  x51
03D14:  MOVLB  0
03D16:  RCALL  3A6C
03D18:  MOVFF  02,03
03D1C:  MOVF   01,W
03D1E:  ADDLW  CA
03D20:  MOVWF  FE9
03D22:  MOVLW  00
03D24:  ADDWFC 02,W
03D26:  MOVWF  FEA
03D28:  MOVFF  FEF,00
03D2C:  MOVFF  FEC,01
03D30:  MOVFF  FEC,02
03D34:  MOVFF  FEC,03
03D38:  MOVFF  FEA,450
03D3C:  MOVFF  FE9,44F
03D40:  BCF    FD8.1
03D42:  MOVFF  306,45E
03D46:  MOVFF  305,45D
03D4A:  MOVFF  304,45C
03D4E:  MOVFF  303,45B
03D52:  MOVFF  03,462
03D56:  MOVFF  02,461
03D5A:  MOVFF  01,460
03D5E:  MOVFF  00,45F
03D62:  CALL   1C84
03D66:  MOVFF  450,FEA
03D6A:  MOVFF  44F,FE9
03D6E:  MOVFF  03,306
03D72:  MOVFF  02,305
03D76:  MOVFF  01,304
03D7A:  MOVFF  00,303
....................    }  
03D7E:  MOVLB  2
03D80:  INCF   xDE,F
03D82:  BRA    3CFC
....................    Prom=Prom/media;    
03D84:  MOVLB  4
03D86:  CLRF   x5C
03D88:  MOVFF  446,45B
03D8C:  MOVLB  0
03D8E:  CALL   1AF0
03D92:  MOVFF  306,452
03D96:  MOVFF  305,451
03D9A:  MOVFF  304,450
03D9E:  MOVFF  303,44F
03DA2:  MOVFF  03,456
03DA6:  MOVFF  02,455
03DAA:  MOVFF  01,454
03DAE:  MOVFF  00,453
03DB2:  CALL   1B26
03DB6:  MOVFF  03,306
03DBA:  MOVFF  02,305
03DBE:  MOVFF  01,304
03DC2:  MOVFF  00,303
....................    //Temperature=(Prom-100.0)/(0.385);  // Ecuacin determinada por linealizacin en Matlab. Revisar este polinomio.   
....................    Temperature=((Prom*Prom)*a)+(Prom*b)+c;  // Ecuacin determinada por linealizacin en Matlab. Revisar este polinomio. 
03DC6:  MOVFF  306,462
03DCA:  MOVFF  305,461
03DCE:  MOVFF  304,460
03DD2:  MOVFF  303,45F
03DD6:  MOVFF  306,466
03DDA:  MOVFF  305,465
03DDE:  MOVFF  304,464
03DE2:  MOVFF  303,463
03DE6:  RCALL  3A8E
03DE8:  MOVFF  00,44F
03DEC:  MOVFF  01,450
03DF0:  MOVFF  02,451
03DF4:  MOVFF  03,452
03DF8:  MOVFF  03,462
03DFC:  MOVFF  02,461
03E00:  MOVFF  01,460
03E04:  MOVFF  00,45F
03E08:  MOVFF  33A,466
03E0C:  MOVFF  339,465
03E10:  MOVFF  338,464
03E14:  MOVFF  337,463
03E18:  RCALL  3A8E
03E1A:  MOVFF  00,44F
03E1E:  MOVFF  01,450
03E22:  MOVFF  02,451
03E26:  MOVFF  03,452
03E2A:  MOVFF  306,462
03E2E:  MOVFF  305,461
03E32:  MOVFF  304,460
03E36:  MOVFF  303,45F
03E3A:  MOVFF  33E,466
03E3E:  MOVFF  33D,465
03E42:  MOVFF  33C,464
03E46:  MOVFF  33B,463
03E4A:  RCALL  3A8E
03E4C:  BCF    FD8.1
03E4E:  MOVFF  452,45E
03E52:  MOVFF  451,45D
03E56:  MOVFF  450,45C
03E5A:  MOVFF  44F,45B
03E5E:  MOVFF  03,462
03E62:  MOVFF  02,461
03E66:  MOVFF  01,460
03E6A:  MOVFF  00,45F
03E6E:  CALL   1C84
03E72:  MOVFF  00,44F
03E76:  MOVFF  01,450
03E7A:  MOVFF  02,451
03E7E:  MOVFF  03,452
03E82:  BCF    FD8.1
03E84:  MOVFF  03,45E
03E88:  MOVFF  02,45D
03E8C:  MOVFF  01,45C
03E90:  MOVFF  00,45B
03E94:  MOVFF  342,462
03E98:  MOVFF  341,461
03E9C:  MOVFF  340,460
03EA0:  MOVFF  33F,45F
03EA4:  CALL   1C84
03EA8:  MOVFF  03,30A
03EAC:  MOVFF  02,309
03EB0:  MOVFF  01,308
03EB4:  MOVFF  00,307
....................    ajp=(float)Ajuste; 
03EB8:  MOVLB  4
03EBA:  CLRF   x5C
03EBC:  MOVFF  2E0,45B
03EC0:  MOVLB  0
03EC2:  CALL   1AF0
03EC6:  MOVFF  03,44A
03ECA:  MOVFF  02,449
03ECE:  MOVFF  01,448
03ED2:  MOVFF  00,447
....................    ajp=ajp/10; 
03ED6:  MOVFF  44A,452
03EDA:  MOVFF  449,451
03EDE:  MOVFF  448,450
03EE2:  MOVFF  447,44F
03EE6:  MOVLB  4
03EE8:  CLRF   x56
03EEA:  CLRF   x55
03EEC:  MOVLW  20
03EEE:  MOVWF  x54
03EF0:  MOVLW  82
03EF2:  MOVWF  x53
03EF4:  MOVLB  0
03EF6:  CALL   1B26
03EFA:  MOVFF  03,44A
03EFE:  MOVFF  02,449
03F02:  MOVFF  01,448
03F06:  MOVFF  00,447
....................    ajn=(float)Ajusten; 
03F0A:  MOVLB  4
03F0C:  CLRF   x5C
03F0E:  MOVFF  2E1,45B
03F12:  MOVLB  0
03F14:  CALL   1AF0
03F18:  MOVFF  03,44E
03F1C:  MOVFF  02,44D
03F20:  MOVFF  01,44C
03F24:  MOVFF  00,44B
....................    ajn=ajn/10; 
03F28:  MOVFF  44E,452
03F2C:  MOVFF  44D,451
03F30:  MOVFF  44C,450
03F34:  MOVFF  44B,44F
03F38:  MOVLB  4
03F3A:  CLRF   x56
03F3C:  CLRF   x55
03F3E:  MOVLW  20
03F40:  MOVWF  x54
03F42:  MOVLW  82
03F44:  MOVWF  x53
03F46:  MOVLB  0
03F48:  CALL   1B26
03F4C:  MOVFF  03,44E
03F50:  MOVFF  02,44D
03F54:  MOVFF  01,44C
03F58:  MOVFF  00,44B
....................    Temperature+=(ajp-ajn); 
03F5C:  BSF    FD8.1
03F5E:  MOVFF  44A,45E
03F62:  MOVFF  449,45D
03F66:  MOVFF  448,45C
03F6A:  MOVFF  447,45B
03F6E:  MOVFF  44E,462
03F72:  MOVFF  44D,461
03F76:  MOVFF  44C,460
03F7A:  MOVFF  44B,45F
03F7E:  CALL   1C84
03F82:  BCF    FD8.1
03F84:  MOVFF  30A,45E
03F88:  MOVFF  309,45D
03F8C:  MOVFF  308,45C
03F90:  MOVFF  307,45B
03F94:  MOVFF  03,462
03F98:  MOVFF  02,461
03F9C:  MOVFF  01,460
03FA0:  MOVFF  00,45F
03FA4:  CALL   1C84
03FA8:  MOVFF  03,30A
03FAC:  MOVFF  02,309
03FB0:  MOVFF  01,308
03FB4:  MOVFF  00,307
....................    //Temperature-=39.0; 
....................     
....................    //return Prom; 
....................    return Temperature; 
03FB8:  MOVFF  307,00
03FBC:  MOVFF  308,01
03FC0:  MOVFF  309,02
03FC4:  MOVFF  30A,03
.................... } 
03FC8:  RETLW  00
....................  
.................... float Leer_Sensor_Presion_Camara(int media){ 
....................    promediopresion=0.0; 
03FCA:  MOVLB  2
03FCC:  CLRF   xD1
03FCE:  CLRF   xD0
03FD0:  CLRF   xCF
03FD2:  CLRF   xCE
....................    V1 = sensores(2);   //Lectura de Divisor de Voltaje de PT100 con resistencia de 1k (+-10%) 
03FD4:  MOVLW  02
03FD6:  MOVLB  4
03FD8:  MOVWF  x4F
03FDA:  MOVLB  0
03FDC:  RCALL  3A14
03FDE:  MOVFF  03,322
03FE2:  MOVFF  02,321
03FE6:  MOVFF  01,320
03FEA:  MOVFF  00,31F
....................    //V1 = V1*(5.0/1024.0); 
....................    //Presion=(V1-0.2)/(K); 
....................    Presion=(((V1)/1023)-0.04)/K; 
03FEE:  MOVFF  322,452
03FF2:  MOVFF  321,451
03FF6:  MOVFF  320,450
03FFA:  MOVFF  31F,44F
03FFE:  MOVLB  4
04000:  CLRF   x56
04002:  MOVLW  C0
04004:  MOVWF  x55
04006:  MOVLW  7F
04008:  MOVWF  x54
0400A:  MOVLW  88
0400C:  MOVWF  x53
0400E:  MOVLB  0
04010:  CALL   1B26
04014:  MOVFF  00,447
04018:  MOVFF  01,448
0401C:  MOVFF  02,449
04020:  MOVFF  03,44A
04024:  BSF    FD8.1
04026:  MOVFF  03,45E
0402A:  MOVFF  02,45D
0402E:  MOVFF  01,45C
04032:  MOVFF  00,45B
04036:  MOVLW  0A
04038:  MOVLB  4
0403A:  MOVWF  x62
0403C:  MOVLW  D7
0403E:  MOVWF  x61
04040:  MOVLW  23
04042:  MOVWF  x60
04044:  MOVLW  7A
04046:  MOVWF  x5F
04048:  MOVLB  0
0404A:  CALL   1C84
0404E:  MOVFF  00,447
04052:  MOVFF  01,448
04056:  MOVFF  02,449
0405A:  MOVFF  03,44A
0405E:  MOVFF  03,452
04062:  MOVFF  02,451
04066:  MOVFF  01,450
0406A:  MOVFF  00,44F
0406E:  MOVFF  336,456
04072:  MOVFF  335,455
04076:  MOVFF  334,454
0407A:  MOVFF  333,453
0407E:  CALL   1B26
04082:  MOVFF  03,326
04086:  MOVFF  02,325
0408A:  MOVFF  01,324
0408E:  MOVFF  00,323
....................     
....................    if(Presion<0.0) 
04092:  MOVFF  326,44D
04096:  MOVFF  325,44C
0409A:  MOVFF  324,44B
0409E:  MOVFF  323,44A
040A2:  MOVLB  4
040A4:  CLRF   x51
040A6:  CLRF   x50
040A8:  CLRF   x4F
040AA:  CLRF   x4E
040AC:  MOVLB  0
040AE:  CALL   2DCC
040B2:  BNC   40BE
....................    { 
....................       Presion=0.0; 
040B4:  MOVLB  3
040B6:  CLRF   x26
040B8:  CLRF   x25
040BA:  CLRF   x24
040BC:  CLRF   x23
....................    } 
....................     
....................    if(r>media-1) 
040BE:  MOVLW  01
040C0:  MOVLB  4
040C2:  SUBWF  x46,W
040C4:  MOVLB  3
040C6:  SUBWF  x92,W
040C8:  BZ    40CE
040CA:  BNC   40CE
....................    {r=0;} 
040CC:  CLRF   x92
....................    PromPresion[r]=Presion;r++; 
040CE:  MOVF   x92,W
040D0:  MULLW  04
040D2:  MOVF   FF3,W
040D4:  CLRF   03
040D6:  ADDLW  0A
040D8:  MOVWF  FE9
040DA:  MOVLW  02
040DC:  ADDWFC 03,W
040DE:  MOVWF  FEA
040E0:  MOVFF  323,FEF
040E4:  MOVFF  324,FEC
040E8:  MOVFF  325,FEC
040EC:  MOVFF  326,FEC
040F0:  INCF   x92,F
....................           
....................    for(t=0;t<=(media-1);t++) 
040F2:  CLRF   x93
040F4:  MOVLW  01
040F6:  MOVLB  4
040F8:  SUBWF  x46,W
040FA:  MOVLB  3
040FC:  SUBWF  x93,W
040FE:  BZ    4102
04100:  BC    4172
....................    { 
....................       promediopresion+=PromPresion[t]; 
04102:  MOVF   x93,W
04104:  MULLW  04
04106:  MOVF   FF3,W
04108:  CLRF   03
0410A:  ADDLW  0A
0410C:  MOVWF  FE9
0410E:  MOVLW  02
04110:  ADDWFC 03,W
04112:  MOVWF  FEA
04114:  MOVFF  FEF,00
04118:  MOVFF  FEC,01
0411C:  MOVFF  FEC,02
04120:  MOVFF  FEC,03
04124:  MOVFF  FEA,448
04128:  MOVFF  FE9,447
0412C:  BCF    FD8.1
0412E:  MOVFF  2D1,45E
04132:  MOVFF  2D0,45D
04136:  MOVFF  2CF,45C
0413A:  MOVFF  2CE,45B
0413E:  MOVFF  03,462
04142:  MOVFF  02,461
04146:  MOVFF  01,460
0414A:  MOVFF  00,45F
0414E:  MOVLB  0
04150:  CALL   1C84
04154:  MOVFF  448,FEA
04158:  MOVFF  447,FE9
0415C:  MOVFF  03,2D1
04160:  MOVFF  02,2D0
04164:  MOVFF  01,2CF
04168:  MOVFF  00,2CE
....................    }  
0416C:  MOVLB  3
0416E:  INCF   x93,F
04170:  BRA    40F4
....................    promediopresion=promediopresion/media;    
04172:  MOVLB  4
04174:  CLRF   x5C
04176:  MOVFF  446,45B
0417A:  MOVLB  0
0417C:  CALL   1AF0
04180:  MOVFF  2D1,452
04184:  MOVFF  2D0,451
04188:  MOVFF  2CF,450
0418C:  MOVFF  2CE,44F
04190:  MOVFF  03,456
04194:  MOVFF  02,455
04198:  MOVFF  01,454
0419C:  MOVFF  00,453
041A0:  CALL   1B26
041A4:  MOVFF  03,2D1
041A8:  MOVFF  02,2D0
041AC:  MOVFF  01,2CF
041B0:  MOVFF  00,2CE
....................     
....................    return promediopresion; 
041B4:  MOVFF  2CE,00
041B8:  MOVFF  2CF,01
041BC:  MOVFF  2D0,02
041C0:  MOVFF  2D1,03
.................... } 
041C4:  RETLW  00
....................  
.................... float Leer_Sensor_Presion_PreCamara(int media){ 
....................    promediopresionp=0.0; 
*
04202:  MOVLB  2
04204:  CLRF   xDD
04206:  CLRF   xDC
04208:  CLRF   xDB
0420A:  CLRF   xDA
....................    V2 = sensores(3);   //Lectura de Divisor de Voltaje de PT100 con resistencia de 1k (+-10%) 
0420C:  MOVLW  03
0420E:  MOVLB  4
04210:  MOVWF  x4F
04212:  MOVLB  0
04214:  CALL   3A14
04218:  MOVFF  03,32A
0421C:  MOVFF  02,329
04220:  MOVFF  01,328
04224:  MOVFF  00,327
....................    //V2 = V2*(5.0/1024.0); 
....................    //Presionp=(V2-0.2)/(K); 
....................    Presionp=(((V2)/1023)-0.04)/K; 
04228:  MOVFF  32A,452
0422C:  MOVFF  329,451
04230:  MOVFF  328,450
04234:  MOVFF  327,44F
04238:  MOVLB  4
0423A:  CLRF   x56
0423C:  MOVLW  C0
0423E:  MOVWF  x55
04240:  MOVLW  7F
04242:  MOVWF  x54
04244:  MOVLW  88
04246:  MOVWF  x53
04248:  MOVLB  0
0424A:  CALL   1B26
0424E:  MOVFF  00,447
04252:  MOVFF  01,448
04256:  MOVFF  02,449
0425A:  MOVFF  03,44A
0425E:  BSF    FD8.1
04260:  MOVFF  03,45E
04264:  MOVFF  02,45D
04268:  MOVFF  01,45C
0426C:  MOVFF  00,45B
04270:  MOVLW  0A
04272:  MOVLB  4
04274:  MOVWF  x62
04276:  MOVLW  D7
04278:  MOVWF  x61
0427A:  MOVLW  23
0427C:  MOVWF  x60
0427E:  MOVLW  7A
04280:  MOVWF  x5F
04282:  MOVLB  0
04284:  CALL   1C84
04288:  MOVFF  00,447
0428C:  MOVFF  01,448
04290:  MOVFF  02,449
04294:  MOVFF  03,44A
04298:  MOVFF  03,452
0429C:  MOVFF  02,451
042A0:  MOVFF  01,450
042A4:  MOVFF  00,44F
042A8:  MOVFF  336,456
042AC:  MOVFF  335,455
042B0:  MOVFF  334,454
042B4:  MOVFF  333,453
042B8:  CALL   1B26
042BC:  MOVFF  03,32E
042C0:  MOVFF  02,32D
042C4:  MOVFF  01,32C
042C8:  MOVFF  00,32B
....................     
....................    if(Presionp<0.0) 
042CC:  MOVFF  32E,44D
042D0:  MOVFF  32D,44C
042D4:  MOVFF  32C,44B
042D8:  MOVFF  32B,44A
042DC:  MOVLB  4
042DE:  CLRF   x51
042E0:  CLRF   x50
042E2:  CLRF   x4F
042E4:  CLRF   x4E
042E6:  MOVLB  0
042E8:  CALL   2DCC
042EC:  BNC   42F8
....................    { 
....................       Presionp=0.0; 
042EE:  MOVLB  3
042F0:  CLRF   x2E
042F2:  CLRF   x2D
042F4:  CLRF   x2C
042F6:  CLRF   x2B
....................    } 
....................     
....................    if(r22>media-1) 
042F8:  MOVLW  01
042FA:  MOVLB  4
042FC:  SUBWF  x46,W
042FE:  MOVLB  3
04300:  SUBWF  x94,W
04302:  BZ    4308
04304:  BNC   4308
....................    {r22=0;} 
04306:  CLRF   x94
....................    PromPresionp[r22]=Presionp;r22++; 
04308:  MOVF   x94,W
0430A:  MULLW  04
0430C:  MOVF   FF3,W
0430E:  CLRF   03
04310:  ADDLW  5A
04312:  MOVWF  FE9
04314:  MOVLW  02
04316:  ADDWFC 03,W
04318:  MOVWF  FEA
0431A:  MOVFF  32B,FEF
0431E:  MOVFF  32C,FEC
04322:  MOVFF  32D,FEC
04326:  MOVFF  32E,FEC
0432A:  INCF   x94,F
....................           
....................    for(t2=0;t2<=(media-1);t2++) 
0432C:  CLRF   x95
0432E:  MOVLW  01
04330:  MOVLB  4
04332:  SUBWF  x46,W
04334:  MOVLB  3
04336:  SUBWF  x95,W
04338:  BZ    433C
0433A:  BC    43AC
....................    { 
....................       promediopresionp+=PromPresionp[t2]; 
0433C:  MOVF   x95,W
0433E:  MULLW  04
04340:  MOVF   FF3,W
04342:  CLRF   03
04344:  ADDLW  5A
04346:  MOVWF  FE9
04348:  MOVLW  02
0434A:  ADDWFC 03,W
0434C:  MOVWF  FEA
0434E:  MOVFF  FEF,00
04352:  MOVFF  FEC,01
04356:  MOVFF  FEC,02
0435A:  MOVFF  FEC,03
0435E:  MOVFF  FEA,448
04362:  MOVFF  FE9,447
04366:  BCF    FD8.1
04368:  MOVFF  2DD,45E
0436C:  MOVFF  2DC,45D
04370:  MOVFF  2DB,45C
04374:  MOVFF  2DA,45B
04378:  MOVFF  03,462
0437C:  MOVFF  02,461
04380:  MOVFF  01,460
04384:  MOVFF  00,45F
04388:  MOVLB  0
0438A:  CALL   1C84
0438E:  MOVFF  448,FEA
04392:  MOVFF  447,FE9
04396:  MOVFF  03,2DD
0439A:  MOVFF  02,2DC
0439E:  MOVFF  01,2DB
043A2:  MOVFF  00,2DA
....................    }  
043A6:  MOVLB  3
043A8:  INCF   x95,F
043AA:  BRA    432E
....................    promediopresionp=promediopresionp/media;    
043AC:  MOVLB  4
043AE:  CLRF   x5C
043B0:  MOVFF  446,45B
043B4:  MOVLB  0
043B6:  CALL   1AF0
043BA:  MOVFF  2DD,452
043BE:  MOVFF  2DC,451
043C2:  MOVFF  2DB,450
043C6:  MOVFF  2DA,44F
043CA:  MOVFF  03,456
043CE:  MOVFF  02,455
043D2:  MOVFF  01,454
043D6:  MOVFF  00,453
043DA:  CALL   1B26
043DE:  MOVFF  03,2DD
043E2:  MOVFF  02,2DC
043E6:  MOVFF  01,2DB
043EA:  MOVFF  00,2DA
....................     
....................    return promediopresionp; 
043EE:  MOVFF  2DA,00
043F2:  MOVFF  2DB,01
043F6:  MOVFF  2DC,02
043FA:  MOVFF  2DD,03
.................... } 
043FE:  RETLW  00
....................  
.................... void Controla(){ 
....................    if(tiemporecta>=Derivativo/2.0) 
*
07018:  MOVLB  4
0701A:  CLRF   x5C
0701C:  MOVFF  344,45B
07020:  MOVLB  0
07022:  CALL   1AF0
07026:  MOVFF  03,452
0702A:  MOVFF  02,451
0702E:  MOVFF  01,450
07032:  MOVFF  00,44F
07036:  MOVLB  4
07038:  CLRF   x56
0703A:  CLRF   x55
0703C:  CLRF   x54
0703E:  MOVLW  80
07040:  MOVWF  x53
07042:  MOVLB  0
07044:  CALL   1B26
07048:  MOVFF  00,446
0704C:  MOVFF  01,447
07050:  MOVFF  02,448
07054:  MOVFF  03,449
07058:  MOVLB  4
0705A:  CLRF   x5C
0705C:  MOVFF  35B,45B
07060:  MOVLB  0
07062:  CALL   1AF0
07066:  MOVFF  449,44D
0706A:  MOVFF  448,44C
0706E:  MOVFF  447,44B
07072:  MOVFF  446,44A
07076:  MOVFF  03,451
0707A:  MOVFF  02,450
0707E:  MOVFF  01,44F
07082:  MOVFF  00,44E
07086:  CALL   2DCC
0708A:  BC    708E
0708C:  BNZ   7094
....................    { 
....................       ActualizaRecta(); 
0708E:  BRA    6FAA
....................       tiemporecta=0; 
07090:  MOVLB  3
07092:  CLRF   x5B
....................    }  
.................... //-------------------------------Control de Calentamiento------------------------------------------------------------//          
....................    error=desvio+Setpoint-Temperatura;      // Clculo del error ****** 
07094:  MOVLB  4
07096:  CLRF   x5C
07098:  MOVFF  36B,45B
0709C:  MOVLB  0
0709E:  CALL   1AF0
070A2:  BCF    FD8.1
070A4:  MOVFF  31A,45E
070A8:  MOVFF  319,45D
070AC:  MOVFF  318,45C
070B0:  MOVFF  317,45B
070B4:  MOVFF  03,462
070B8:  MOVFF  02,461
070BC:  MOVFF  01,460
070C0:  MOVFF  00,45F
070C4:  CALL   1C84
070C8:  MOVFF  00,446
070CC:  MOVFF  01,447
070D0:  MOVFF  02,448
070D4:  MOVFF  03,449
070D8:  BSF    FD8.1
070DA:  MOVFF  03,45E
070DE:  MOVFF  02,45D
070E2:  MOVFF  01,45C
070E6:  MOVFF  00,45B
070EA:  MOVFF  332,462
070EE:  MOVFF  331,461
070F2:  MOVFF  330,460
070F6:  MOVFF  32F,45F
070FA:  CALL   1C84
070FE:  MOVFF  03,302
07102:  MOVFF  02,301
07106:  MOVFF  01,300
0710A:  MOVFF  00,2FF
....................     
....................    if(error>1.0 && error<15 && Aumento<0.3){ 
0710E:  MOVLB  4
07110:  CLRF   x4D
07112:  CLRF   x4C
07114:  CLRF   x4B
07116:  MOVLW  7F
07118:  MOVWF  x4A
0711A:  MOVFF  302,451
0711E:  MOVFF  301,450
07122:  MOVFF  300,44F
07126:  MOVFF  2FF,44E
0712A:  MOVLB  0
0712C:  CALL   2DCC
07130:  BTFSS  FD8.0
07132:  BRA    735C
07134:  MOVFF  302,44D
07138:  MOVFF  301,44C
0713C:  MOVFF  300,44B
07140:  MOVFF  2FF,44A
07144:  MOVLB  4
07146:  CLRF   x51
07148:  CLRF   x50
0714A:  MOVLW  70
0714C:  MOVWF  x4F
0714E:  MOVLW  82
07150:  MOVWF  x4E
07152:  MOVLB  0
07154:  CALL   2DCC
07158:  BTFSS  FD8.0
0715A:  BRA    735C
0715C:  MOVFF  2D5,44D
07160:  MOVFF  2D4,44C
07164:  MOVFF  2D3,44B
07168:  MOVFF  2D2,44A
0716C:  MOVLW  9A
0716E:  MOVLB  4
07170:  MOVWF  x51
07172:  MOVLW  99
07174:  MOVWF  x50
07176:  MOVLW  19
07178:  MOVWF  x4F
0717A:  MOVLW  7D
0717C:  MOVWF  x4E
0717E:  MOVLB  0
07180:  CALL   2DCC
07184:  BTFSS  FD8.0
07186:  BRA    735C
....................       if(Tpulso<6.0){ 
07188:  MOVFF  2FE,44D
0718C:  MOVFF  2FD,44C
07190:  MOVFF  2FC,44B
07194:  MOVFF  2FB,44A
07198:  MOVLB  4
0719A:  CLRF   x51
0719C:  CLRF   x50
0719E:  MOVLW  40
071A0:  MOVWF  x4F
071A2:  MOVLW  81
071A4:  MOVWF  x4E
071A6:  MOVLB  0
071A8:  CALL   2DCC
071AC:  BTFSS  FD8.0
071AE:  BRA    735A
....................          flagTC=1; 
071B0:  BSF    xA5.5
....................          if(TiempoControl>=Derivativo){ 
071B2:  MOVLB  3
071B4:  MOVF   x44,W
071B6:  SUBWF  x96,W
071B8:  BTFSS  FD8.0
071BA:  BRA    7356
....................             TiempoControl=0; 
071BC:  CLRF   x96
....................             if(Aumento<-0.5){ 
071BE:  MOVFF  2D5,44D
071C2:  MOVFF  2D4,44C
071C6:  MOVFF  2D3,44B
071CA:  MOVFF  2D2,44A
071CE:  MOVLB  4
071D0:  CLRF   x51
071D2:  CLRF   x50
071D4:  MOVLW  80
071D6:  MOVWF  x4F
071D8:  MOVLW  7E
071DA:  MOVWF  x4E
071DC:  MOVLB  0
071DE:  CALL   2DCC
071E2:  BNC   7254
....................                Ganancia+=Integral+0.2; 
071E4:  MOVLB  4
071E6:  CLRF   x5C
071E8:  MOVFF  343,45B
071EC:  MOVLB  0
071EE:  CALL   1AF0
071F2:  BCF    FD8.1
071F4:  MOVFF  03,45E
071F8:  MOVFF  02,45D
071FC:  MOVFF  01,45C
07200:  MOVFF  00,45B
07204:  MOVLW  CD
07206:  MOVLB  4
07208:  MOVWF  x62
0720A:  MOVLW  CC
0720C:  MOVWF  x61
0720E:  MOVLW  4C
07210:  MOVWF  x60
07212:  MOVLW  7C
07214:  MOVWF  x5F
07216:  MOVLB  0
07218:  CALL   1C84
0721C:  BCF    FD8.1
0721E:  MOVFF  312,45E
07222:  MOVFF  311,45D
07226:  MOVFF  310,45C
0722A:  MOVFF  30F,45B
0722E:  MOVFF  03,462
07232:  MOVFF  02,461
07236:  MOVFF  01,460
0723A:  MOVFF  00,45F
0723E:  CALL   1C84
07242:  MOVFF  03,312
07246:  MOVFF  02,311
0724A:  MOVFF  01,310
0724E:  MOVFF  00,30F
....................             }else{ 
07252:  BRA    7354
....................                if(Aumento<-0.1){ 
07254:  MOVFF  2D5,44D
07258:  MOVFF  2D4,44C
0725C:  MOVFF  2D3,44B
07260:  MOVFF  2D2,44A
07264:  MOVLW  CD
07266:  MOVLB  4
07268:  MOVWF  x51
0726A:  MOVLW  CC
0726C:  MOVWF  x50
0726E:  MOVWF  x4F
07270:  MOVLW  7B
07272:  MOVWF  x4E
07274:  MOVLB  0
07276:  CALL   2DCC
0727A:  BNC   72EC
....................                   Ganancia+=Integral-0.2; 
0727C:  MOVLB  4
0727E:  CLRF   x5C
07280:  MOVFF  343,45B
07284:  MOVLB  0
07286:  CALL   1AF0
0728A:  BSF    FD8.1
0728C:  MOVFF  03,45E
07290:  MOVFF  02,45D
07294:  MOVFF  01,45C
07298:  MOVFF  00,45B
0729C:  MOVLW  CD
0729E:  MOVLB  4
072A0:  MOVWF  x62
072A2:  MOVLW  CC
072A4:  MOVWF  x61
072A6:  MOVLW  4C
072A8:  MOVWF  x60
072AA:  MOVLW  7C
072AC:  MOVWF  x5F
072AE:  MOVLB  0
072B0:  CALL   1C84
072B4:  BCF    FD8.1
072B6:  MOVFF  312,45E
072BA:  MOVFF  311,45D
072BE:  MOVFF  310,45C
072C2:  MOVFF  30F,45B
072C6:  MOVFF  03,462
072CA:  MOVFF  02,461
072CE:  MOVFF  01,460
072D2:  MOVFF  00,45F
072D6:  CALL   1C84
072DA:  MOVFF  03,312
072DE:  MOVFF  02,311
072E2:  MOVFF  01,310
072E6:  MOVFF  00,30F
....................                }else{ 
072EA:  BRA    7354
....................                   Ganancia+=Integral-0.5; 
072EC:  MOVLB  4
072EE:  CLRF   x5C
072F0:  MOVFF  343,45B
072F4:  MOVLB  0
072F6:  CALL   1AF0
072FA:  BSF    FD8.1
072FC:  MOVFF  03,45E
07300:  MOVFF  02,45D
07304:  MOVFF  01,45C
07308:  MOVFF  00,45B
0730C:  MOVLB  4
0730E:  CLRF   x62
07310:  CLRF   x61
07312:  CLRF   x60
07314:  MOVLW  7E
07316:  MOVWF  x5F
07318:  MOVLB  0
0731A:  CALL   1C84
0731E:  BCF    FD8.1
07320:  MOVFF  312,45E
07324:  MOVFF  311,45D
07328:  MOVFF  310,45C
0732C:  MOVFF  30F,45B
07330:  MOVFF  03,462
07334:  MOVFF  02,461
07338:  MOVFF  01,460
0733C:  MOVFF  00,45F
07340:  CALL   1C84
07344:  MOVFF  03,312
07348:  MOVFF  02,311
0734C:  MOVFF  01,310
07350:  MOVFF  00,30F
07354:  MOVLB  3
....................                } 
....................             } 
....................          } 
....................       }else{ 
07356:  BRA    735E
07358:  MOVLB  0
....................          flagTC=0; 
0735A:  BCF    xA5.5
0735C:  MOVLB  3
....................       } 
....................    } 
....................     
....................    if(error<-0.3) 
0735E:  MOVFF  302,44D
07362:  MOVFF  301,44C
07366:  MOVFF  300,44B
0736A:  MOVFF  2FF,44A
0736E:  MOVLW  9A
07370:  MOVLB  4
07372:  MOVWF  x51
07374:  MOVLW  99
07376:  MOVWF  x50
07378:  MOVWF  x4F
0737A:  MOVLW  7D
0737C:  MOVWF  x4E
0737E:  MOVLB  0
07380:  CALL   2DCC
07384:  BNC   7396
....................       Ganancia=Ganancia2; 
07386:  MOVFF  316,312
0738A:  MOVFF  315,311
0738E:  MOVFF  314,310
07392:  MOVFF  313,30F
....................     
....................    if(Ganancia<1) 
07396:  MOVFF  312,44D
0739A:  MOVFF  311,44C
0739E:  MOVFF  310,44B
073A2:  MOVFF  30F,44A
073A6:  MOVLB  4
073A8:  CLRF   x51
073AA:  CLRF   x50
073AC:  CLRF   x4F
073AE:  MOVLW  7F
073B0:  MOVWF  x4E
073B2:  MOVLB  0
073B4:  CALL   2DCC
073B8:  BNC   73C6
....................       Ganancia=1; 
073BA:  MOVLB  3
073BC:  CLRF   x12
073BE:  CLRF   x11
073C0:  CLRF   x10
073C2:  MOVLW  7F
073C4:  MOVWF  x0F
....................        
....................    if(error<0.0)     // Anti Wind_DOWN     
073C6:  MOVFF  302,44D
073CA:  MOVFF  301,44C
073CE:  MOVFF  300,44B
073D2:  MOVFF  2FF,44A
073D6:  MOVLB  4
073D8:  CLRF   x51
073DA:  CLRF   x50
073DC:  CLRF   x4F
073DE:  CLRF   x4E
073E0:  MOVLB  0
073E2:  CALL   2DCC
073E6:  BNC   73F6
....................       error=0.0; 
073E8:  MOVLB  3
073EA:  CLRF   x02
073EC:  CLRF   x01
073EE:  CLRF   x00
073F0:  MOVLB  2
073F2:  CLRF   xFF
073F4:  MOVLB  0
....................     
....................    //tmp=(Setpoint-Prom)*Ganancia;  // Control Proporcional. 
....................    tmp=error*Ganancia;  // Control Proporcional. 
073F6:  MOVFF  302,462
073FA:  MOVFF  301,461
073FE:  MOVFF  300,460
07402:  MOVFF  2FF,45F
07406:  MOVFF  312,466
0740A:  MOVFF  311,465
0740E:  MOVFF  310,464
07412:  MOVFF  30F,463
07416:  CALL   3A8E
0741A:  MOVFF  03,30E
0741E:  MOVFF  02,30D
07422:  MOVFF  01,30C
07426:  MOVFF  00,30B
....................           
....................    if(tmp>Setpoint)   // Anti Wind-UP       
0742A:  MOVLB  4
0742C:  CLRF   x5C
0742E:  MOVFF  36B,45B
07432:  MOVLB  0
07434:  CALL   1AF0
07438:  MOVFF  03,44D
0743C:  MOVFF  02,44C
07440:  MOVFF  01,44B
07444:  MOVFF  00,44A
07448:  MOVFF  30E,451
0744C:  MOVFF  30D,450
07450:  MOVFF  30C,44F
07454:  MOVFF  30B,44E
07458:  CALL   2DCC
0745C:  BNC   747C
....................       tmp=Setpoint; 
0745E:  MOVLB  4
07460:  CLRF   x5C
07462:  MOVFF  36B,45B
07466:  MOVLB  0
07468:  CALL   1AF0
0746C:  MOVFF  03,30E
07470:  MOVFF  02,30D
07474:  MOVFF  01,30C
07478:  MOVFF  00,30B
....................                   
....................    if(tmp<0.0)     // Anti Wind_DOWN     
0747C:  MOVFF  30E,44D
07480:  MOVFF  30D,44C
07484:  MOVFF  30C,44B
07488:  MOVFF  30B,44A
0748C:  MOVLB  4
0748E:  CLRF   x51
07490:  CLRF   x50
07492:  CLRF   x4F
07494:  CLRF   x4E
07496:  MOVLB  0
07498:  CALL   2DCC
0749C:  BNC   74A8
....................       tmp=0.0; 
0749E:  MOVLB  3
074A0:  CLRF   x0E
074A2:  CLRF   x0D
074A4:  CLRF   x0C
074A6:  CLRF   x0B
....................     
....................    // Tpulso(t)= Tciclo*(y(t)-ymin)/(ymax - ymin); calculo de ciclo util para control de resistencia.ymax=140.ymin=0; 
....................    // Tpulso es float, hay que pasar ese ciclo a una salida de un puerto usando el TMR1. 
....................    tmp2=(tmp/Setpoint); 
074A8:  MOVLB  4
074AA:  CLRF   x5C
074AC:  MOVFF  36B,45B
074B0:  MOVLB  0
074B2:  CALL   1AF0
074B6:  MOVFF  30E,452
074BA:  MOVFF  30D,451
074BE:  MOVFF  30C,450
074C2:  MOVFF  30B,44F
074C6:  MOVFF  03,456
074CA:  MOVFF  02,455
074CE:  MOVFF  01,454
074D2:  MOVFF  00,453
074D6:  CALL   1B26
074DA:  MOVFF  03,31E
074DE:  MOVFF  02,31D
074E2:  MOVFF  01,31C
074E6:  MOVFF  00,31B
....................    //if(tmp2>0.8) 
....................    //tmp2=0.8; 
....................    Tpulso=tmp2*Tciclo;   
074EA:  MOVFF  31E,462
074EE:  MOVFF  31D,461
074F2:  MOVFF  31C,460
074F6:  MOVFF  31B,45F
074FA:  MOVFF  2FA,466
074FE:  MOVFF  2F9,465
07502:  MOVFF  2F8,464
07506:  MOVFF  2F7,463
0750A:  CALL   3A8E
0750E:  MOVFF  03,2FE
07512:  MOVFF  02,2FD
07516:  MOVFF  01,2FC
0751A:  MOVFF  00,2FB
....................                                        
....................    Tp=(Tpulso/0.005); 
0751E:  MOVFF  2FE,452
07522:  MOVFF  2FD,451
07526:  MOVFF  2FC,450
0752A:  MOVFF  2FB,44F
0752E:  MOVLW  0A
07530:  MOVLB  4
07532:  MOVWF  x56
07534:  MOVLW  D7
07536:  MOVWF  x55
07538:  MOVLW  23
0753A:  MOVWF  x54
0753C:  MOVLW  77
0753E:  MOVWF  x53
07540:  MOVLB  0
07542:  CALL   1B26
07546:  MOVFF  03,45E
0754A:  MOVFF  02,45D
0754E:  MOVFF  01,45C
07552:  MOVFF  00,45B
07556:  CALL   41C6
0755A:  MOVFF  02,AD
0755E:  MOVFF  01,AC
....................    Tc=(Tciclo/0.005); 
07562:  MOVFF  2FA,452
07566:  MOVFF  2F9,451
0756A:  MOVFF  2F8,450
0756E:  MOVFF  2F7,44F
07572:  MOVLW  0A
07574:  MOVLB  4
07576:  MOVWF  x56
07578:  MOVLW  D7
0757A:  MOVWF  x55
0757C:  MOVLW  23
0757E:  MOVWF  x54
07580:  MOVLW  77
07582:  MOVWF  x53
07584:  MOVLB  0
07586:  CALL   1B26
0758A:  MOVFF  03,45E
0758E:  MOVFF  02,45D
07592:  MOVFF  01,45C
07596:  MOVFF  00,45B
0759A:  CALL   41C6
0759E:  MOVFF  02,AF
075A2:  MOVFF  01,AE
....................    Controlando=1;    
075A6:  MOVLW  01
075A8:  MOVLB  3
075AA:  MOVWF  x5C
.................... //--------------------------------------------------------------------------------------------------------------------//    
.................... } 
075AC:  MOVLB  0
075AE:  RETLW  00
....................  
.................... void ControlaPresion(){ 
....................    float prc=0.0;    
....................    if(tiemporecta>=Derivativo/2.0){ 
....................       ActualizaRectaPresion(); 
....................       tiemporecta=0; 
....................    }  
....................    prc=(float)PresionCamara; 
....................    Tactual=((prc)*(prc)*(prc)*p1)+((prc)*(prc)*p2)+(p3*prc)+p4; 
.................... //-------------------------------Control de Calentamiento------------------------------------------------------------//          
....................    if(Esterilizando){ 
....................       error=desvio+Setpoint-Tactual;      // Clculo del error ****** 
....................    }else{ 
....................       error=desvio+1.0+Setpoint-Tactual;      // Clculo del error ****** 
....................    } 
....................     
....................    if(error>1.0 && error<20 && Aumento2<0.3){ 
....................       if(Tpulso<=6.0){ 
....................          flagTC=1; 
....................          if(TiempoControl>=Derivativo){ 
....................             TiempoControl=0; 
....................             if(Aumento2<-0.5){ 
....................                Ganancia+=Integral+0.2; 
....................             }else{ 
....................                if(Aumento2<-0.1){ 
....................                   Ganancia+=Integral-0.2; 
....................                }else{ 
....................                   Ganancia+=Integral-0.5; 
....................                } 
....................             } 
....................          } 
....................       }else{ 
....................          flagTC=0; 
....................       } 
....................    } 
....................     
....................    if(error<-0.3) 
....................       Ganancia=Ganancia2; 
....................     
....................    if(Ganancia<1) 
....................       Ganancia=1; 
....................     
....................    if(error<0.0)     // Anti Wind_DOWN     
....................       error=0.0; 
....................    //tmp=(Setpoint-Prom)*Ganancia;  // Control Proporcional. 
....................    tmp=error*Ganancia;  // Control Proporcional. 
....................           
....................    if(tmp>Setpoint)   // Anti Wind-UP       
....................       tmp=Setpoint; 
....................                 
....................    if(tmp<0.0)     // Anti Wind_DOWN     
....................       tmp=0.0; 
....................     
....................    // Tpulso(t)= Tciclo*(y(t)-ymin)/(ymax - ymin); calculo de ciclo util para control de resistencia.ymax=140.ymin=0; 
....................    // Tpulso es float, hay que pasar ese ciclo a una salida de un puerto usando el TMR1. 
....................    tmp2=(tmp/Setpoint); 
....................    //if(tmp2>0.8) 
....................    //tmp2=0.8; 
....................    Tpulso=tmp2*Tciclo;   
....................                                        
....................    Tp=(Tpulso/0.005); 
....................    Tc=(Tciclo/0.005); 
....................    Controlando=1;    
.................... //--------------------------------------------------------------------------------------------------------------------//    
.................... } 
....................  
....................  
.................... void Envio_I2C(direccion, posicion, dato){ 
....................  
....................    i2c_start();            // Comienzo comunicacin 
....................    i2c_write(direccion);   // Direccin del esclavo en el bus I2C 
....................    i2c_write(posicion);    // Posicin donde se guardara el dato transmitido 
....................    i2c_write(dato);        // Dato a transmitir 
....................    i2c_stop();             // Fin comunicacin 
....................  } 
....................  
.................... void Lectura_I2C (byte direccion, byte posicion, byte &dato) { 
....................  
....................    i2c_start();            // Comienzo de la comunicacin 
....................    i2c_write(direccion);   // Direccin del esclavo en el bus I2C 
....................    i2c_write(posicion);    // Posicin de donde se leer el dato en el esclavo 
....................    i2c_start();            // Reinicio 
....................    i2c_write(direccion+1); // Direccin del esclavo en modo lectura 
....................    dato=i2c_read(0);       // Lectura del dato 
....................    i2c_stop();             // Fin comunicacin 
.................... } 
....................  
.................... void Carga_Vector(void){ 
....................    SlaveA0Tx[0]=(int8)Temperatura; 
*
04590:  MOVFF  332,45E
04594:  MOVFF  331,45D
04598:  MOVFF  330,45C
0459C:  MOVFF  32F,45B
045A0:  RCALL  41C6
045A2:  MOVFF  01,64
....................    SlaveA0Tx[1]=(Temperatura-((int8)Temperatura))*10; 
045A6:  MOVFF  332,45E
045AA:  MOVFF  331,45D
045AE:  MOVFF  330,45C
045B2:  MOVFF  32F,45B
045B6:  RCALL  41C6
045B8:  MOVLB  4
045BA:  CLRF   x5C
045BC:  MOVFF  01,45B
045C0:  MOVLB  0
045C2:  CALL   1AF0
045C6:  BSF    FD8.1
045C8:  MOVFF  332,45E
045CC:  MOVFF  331,45D
045D0:  MOVFF  330,45C
045D4:  MOVFF  32F,45B
045D8:  MOVFF  03,462
045DC:  MOVFF  02,461
045E0:  MOVFF  01,460
045E4:  MOVFF  00,45F
045E8:  CALL   1C84
045EC:  MOVFF  00,45B
045F0:  MOVFF  01,45C
045F4:  MOVFF  02,45D
045F8:  MOVFF  03,45E
045FC:  MOVFF  03,462
04600:  MOVFF  02,461
04604:  MOVFF  01,460
04608:  MOVFF  00,45F
0460C:  MOVLB  4
0460E:  CLRF   x66
04610:  CLRF   x65
04612:  MOVLW  20
04614:  MOVWF  x64
04616:  MOVLW  82
04618:  MOVWF  x63
0461A:  MOVLB  0
0461C:  CALL   3A8E
04620:  MOVFF  03,45E
04624:  MOVFF  02,45D
04628:  MOVFF  01,45C
0462C:  MOVFF  00,45B
04630:  RCALL  41C6
04632:  MOVFF  01,65
....................    SlaveA0Tx[2]=make8((int16)PresionCamara,0); 
04636:  MOVFF  37E,66
0463A:  MOVLB  0
....................    SlaveA0Tx[3]=make8((int16)PresionCamara,1); 
0463C:  MOVFF  37F,67
04640:  MOVLB  0
....................    SlaveA0Tx[4]=make8((int16)PresionPreCamara,0); 
04642:  MOVFF  380,68
04646:  MOVLB  0
....................    SlaveA0Tx[5]=make8((int16)PresionPreCamara,1); 
04648:  MOVFF  381,69
0464C:  MOVLB  0
....................    SlaveA0Tx[6]=(int8)Tpulso*10; 
0464E:  MOVFF  2FE,45E
04652:  MOVFF  2FD,45D
04656:  MOVFF  2FC,45C
0465A:  MOVFF  2FB,45B
0465E:  RCALL  41C6
04660:  MOVF   01,W
04662:  MULLW  0A
04664:  MOVFF  FF3,6A
....................    SlaveA0Tx[7]=HIG; 
04668:  BSF    F94.0
0466A:  CLRF   x6B
0466C:  BTFSC  F82.0
0466E:  INCF   x6B,F
....................    SlaveA0Tx[8]=LOW; 
04670:  BSF    F94.1
04672:  CLRF   x6C
04674:  BTFSC  F82.1
04676:  INCF   x6C,F
....................    SlaveA0Tx[9]=TERM; 
04678:  BSF    F93.5
0467A:  CLRF   x6D
0467C:  BTFSS  F81.5
0467E:  INCF   x6D,F
....................    SlaveA0Tx[10]=DOOR; 
04680:  BSF    F93.6
04682:  CLRF   x6E
04684:  BTFSS  F81.6
04686:  INCF   x6E,F
....................    SlaveA0Tx[11]=STOP; 
04688:  BSF    F93.7
0468A:  CLRF   x6F
0468C:  BTFSS  F81.7
0468E:  INCF   x6F,F
....................    SlaveA0Tx[12]=(int8)error; 
04690:  MOVFF  302,45E
04694:  MOVFF  301,45D
04698:  MOVFF  300,45C
0469C:  MOVFF  2FF,45B
046A0:  RCALL  41C6
046A2:  MOVFF  01,70
....................    SlaveA0Tx[13]=CicloSeleccionado; 
046A6:  MOVFF  36A,71
....................    SlaveA0Tx[14]=SetTime; 
046AA:  MOVFF  3B3,72
....................    SlaveA0Tx[15]=Dia; 
046AE:  MOVFF  3A7,73
....................    SlaveA0Tx[16]=Mes; 
046B2:  MOVFF  3A6,74
....................    SlaveA0Tx[17]=Year; 
046B6:  MOVFF  3A5,75
....................    SlaveA0Tx[18]=Hora; 
046BA:  MOVFF  3A8,76
....................    SlaveA0Tx[19]=Minuto; 
046BE:  MOVFF  3A9,77
....................    SlaveA0Tx[20]=Segundo; 
046C2:  MOVFF  3AA,78
....................    SlaveA0Tx[21]=Imprime; 
046C6:  MOVFF  3B4,79
....................    SlaveA0Tx[22]=Aire; 
046CA:  CLRF   x7A
046CC:  BTFSC  xA4.4
046CE:  INCF   x7A,F
....................    SlaveA0Tx[23]=make8(Ciclos,0); 
046D0:  MOVFF  382,7B
046D4:  MOVLB  0
....................    SlaveA0Tx[24]=make8(Ciclos,1); 
046D6:  MOVFF  383,7C
046DA:  MOVLB  0
.................... } 
046DC:  GOTO   4758 (RETURN)
....................  
.................... void Lee_Vector(void){ 
....................    /*Dia=txbuf[0]; 
....................    Mess=txbuf[1]; 
....................    Year=txbuf[2]; 
....................    Hora=txbuf[3]; 
....................    Minuto=txbuf[4]; 
....................    Segundo=txbuf[5]; 
....................    dow=txbuf[6];*/ 
.................... } 
....................  
.................... void Envio_Esclavos(void){ 
....................    Carga_Vector(); 
*
04756:  BRA    4590
....................    for(i=0;i<25;i++){ 
04758:  MOVLB  3
0475A:  CLRF   x67
0475C:  MOVF   x67,W
0475E:  SUBLW  18
04760:  BNC   47E2
....................       direccion=0xB0; 
04762:  MOVLW  B0
04764:  MOVLB  0
04766:  MOVWF  x85
....................       i2c_start();            // Comienzo comunicacin 
04768:  BSF    F94.4
0476A:  MOVLW  05
0476C:  MOVWF  00
0476E:  DECFSZ 00,F
04770:  BRA    476E
04772:  BSF    F94.3
04774:  MOVLW  06
04776:  MOVWF  00
04778:  DECFSZ 00,F
0477A:  BRA    4778
0477C:  BCF    F8B.4
0477E:  BCF    F94.4
04780:  MOVLW  05
04782:  MOVWF  00
04784:  DECFSZ 00,F
04786:  BRA    4784
04788:  BCF    F8B.3
0478A:  BCF    F94.3
....................       i2c_write(direccion);   // Direccin del esclavo en el bus I2C 
0478C:  MOVFF  85,45C
04790:  RCALL  46E0
....................       i2c_write(i);   // Direccin del esclavo en el bus I2C 
04792:  MOVFF  367,45C
04796:  RCALL  46E0
....................       i2c_write(0);    // Posicin donde se guardara el dato transmitido 
04798:  MOVLB  4
0479A:  CLRF   x5C
0479C:  MOVLB  0
0479E:  RCALL  46E0
....................       i2c_write(SlaveA0Tx[i]); // Dato a transmitir 
047A0:  CLRF   03
047A2:  MOVLB  3
047A4:  MOVF   x67,W
047A6:  ADDLW  64
047A8:  MOVWF  FE9
047AA:  MOVLW  00
047AC:  ADDWFC 03,W
047AE:  MOVWF  FEA
047B0:  MOVFF  FEF,45B
047B4:  MOVFF  45B,45C
047B8:  MOVLB  0
047BA:  RCALL  46E0
....................       i2c_stop();  
047BC:  BCF    F94.4
047BE:  NOP   
047C0:  BSF    F94.3
047C2:  BTFSS  F82.3
047C4:  BRA    47C2
047C6:  MOVLW  05
047C8:  MOVWF  00
047CA:  DECFSZ 00,F
047CC:  BRA    47CA
047CE:  BRA    47D0
047D0:  NOP   
047D2:  BSF    F94.4
047D4:  MOVLW  05
047D6:  MOVWF  00
047D8:  DECFSZ 00,F
047DA:  BRA    47D8
....................       //Envio_I2C(direccion,i,SlaveB0Tx[i]); 
....................    }  
047DC:  MOVLB  3
047DE:  INCF   x67,F
047E0:  BRA    475C
.................... } 
047E2:  MOVLB  0
047E4:  RETLW  00
.................... void Lectura_Esclavos(void){ 
....................    //for(i=0;i<7;i++) 
....................    //{ 
....................    //   direccion=0xA0;                        //Direccin en el bus I2c 
....................    //   posicion=i;                         //Posicin de memoria a leer 
....................    //   Lectura_I2C(direccion, posicion, dato);    //Lectura por I2C 
....................    //   txbuf[i]=(int8)dato; 
....................    //} 
....................    //Lee_Vector(); 
.................... } 
....................  
.................... void LeeEEPROM(){ 
.................... //Lectura EEPROM//-------------------------- 
....................    Testerilizacionp[0]=read_eeprom(0); 
*
01EFC:  MOVFF  FF2,446
01F00:  BCF    FF2.6
01F02:  BCF    FF2.7
01F04:  CLRF   FAA
01F06:  CLRF   FA9
01F08:  BCF    FA6.6
01F0A:  BCF    FA6.7
01F0C:  BSF    FA6.0
01F0E:  MOVF   FA8,W
01F10:  MOVLB  4
01F12:  BTFSC  x46.6
01F14:  BSF    FF2.6
01F16:  BTFSC  x46.7
01F18:  BSF    FF2.7
01F1A:  MOVLB  0
01F1C:  MOVWF  xBD
....................    delay_ms(10); 
01F1E:  MOVLW  0A
01F20:  MOVLB  4
01F22:  MOVWF  x5B
01F24:  MOVLB  0
01F26:  RCALL  1AC8
....................    Testerilizacionp[1]=read_eeprom(1); 
01F28:  MOVFF  FF2,446
01F2C:  BCF    FF2.6
01F2E:  BCF    FF2.7
01F30:  CLRF   FAA
01F32:  MOVLW  01
01F34:  MOVWF  FA9
01F36:  BCF    FA6.6
01F38:  BCF    FA6.7
01F3A:  BSF    FA6.0
01F3C:  MOVF   FA8,W
01F3E:  MOVLB  4
01F40:  BTFSC  x46.6
01F42:  BSF    FF2.6
01F44:  BTFSC  x46.7
01F46:  BSF    FF2.7
01F48:  MOVLB  0
01F4A:  MOVWF  xBE
....................    delay_ms(10); 
01F4C:  MOVLW  0A
01F4E:  MOVLB  4
01F50:  MOVWF  x5B
01F52:  MOVLB  0
01F54:  RCALL  1AC8
....................    Testerilizacionp[2]=read_eeprom(2); 
01F56:  MOVFF  FF2,446
01F5A:  BCF    FF2.6
01F5C:  BCF    FF2.7
01F5E:  CLRF   FAA
01F60:  MOVLW  02
01F62:  MOVWF  FA9
01F64:  BCF    FA6.6
01F66:  BCF    FA6.7
01F68:  BSF    FA6.0
01F6A:  MOVF   FA8,W
01F6C:  MOVLB  4
01F6E:  BTFSC  x46.6
01F70:  BSF    FF2.6
01F72:  BTFSC  x46.7
01F74:  BSF    FF2.7
01F76:  MOVLB  0
01F78:  MOVWF  xBF
....................    delay_ms(10); 
01F7A:  MOVLW  0A
01F7C:  MOVLB  4
01F7E:  MOVWF  x5B
01F80:  MOVLB  0
01F82:  RCALL  1AC8
....................    Testerilizacionp[3]=read_eeprom(3); 
01F84:  MOVFF  FF2,446
01F88:  BCF    FF2.6
01F8A:  BCF    FF2.7
01F8C:  CLRF   FAA
01F8E:  MOVLW  03
01F90:  MOVWF  FA9
01F92:  BCF    FA6.6
01F94:  BCF    FA6.7
01F96:  BSF    FA6.0
01F98:  MOVF   FA8,W
01F9A:  MOVLB  4
01F9C:  BTFSC  x46.6
01F9E:  BSF    FF2.6
01FA0:  BTFSC  x46.7
01FA2:  BSF    FF2.7
01FA4:  MOVLB  0
01FA6:  MOVWF  xC0
....................    delay_ms(10); 
01FA8:  MOVLW  0A
01FAA:  MOVLB  4
01FAC:  MOVWF  x5B
01FAE:  MOVLB  0
01FB0:  RCALL  1AC8
....................    Tsecadop[0]=read_eeprom(4); 
01FB2:  MOVFF  FF2,446
01FB6:  BCF    FF2.6
01FB8:  BCF    FF2.7
01FBA:  CLRF   FAA
01FBC:  MOVLW  04
01FBE:  MOVWF  FA9
01FC0:  BCF    FA6.6
01FC2:  BCF    FA6.7
01FC4:  BSF    FA6.0
01FC6:  MOVF   FA8,W
01FC8:  MOVLB  4
01FCA:  BTFSC  x46.6
01FCC:  BSF    FF2.6
01FCE:  BTFSC  x46.7
01FD0:  BSF    FF2.7
01FD2:  MOVLB  0
01FD4:  MOVWF  xC6
....................    delay_ms(10); 
01FD6:  MOVLW  0A
01FD8:  MOVLB  4
01FDA:  MOVWF  x5B
01FDC:  MOVLB  0
01FDE:  RCALL  1AC8
....................    Tsecadop[1]=read_eeprom(5); 
01FE0:  MOVFF  FF2,446
01FE4:  BCF    FF2.6
01FE6:  BCF    FF2.7
01FE8:  CLRF   FAA
01FEA:  MOVLW  05
01FEC:  MOVWF  FA9
01FEE:  BCF    FA6.6
01FF0:  BCF    FA6.7
01FF2:  BSF    FA6.0
01FF4:  MOVF   FA8,W
01FF6:  MOVLB  4
01FF8:  BTFSC  x46.6
01FFA:  BSF    FF2.6
01FFC:  BTFSC  x46.7
01FFE:  BSF    FF2.7
02000:  MOVLB  0
02002:  MOVWF  xC7
....................    delay_ms(10); 
02004:  MOVLW  0A
02006:  MOVLB  4
02008:  MOVWF  x5B
0200A:  MOVLB  0
0200C:  RCALL  1AC8
....................    Tsecadop[2]=read_eeprom(6); 
0200E:  MOVFF  FF2,446
02012:  BCF    FF2.6
02014:  BCF    FF2.7
02016:  CLRF   FAA
02018:  MOVLW  06
0201A:  MOVWF  FA9
0201C:  BCF    FA6.6
0201E:  BCF    FA6.7
02020:  BSF    FA6.0
02022:  MOVF   FA8,W
02024:  MOVLB  4
02026:  BTFSC  x46.6
02028:  BSF    FF2.6
0202A:  BTFSC  x46.7
0202C:  BSF    FF2.7
0202E:  MOVLB  0
02030:  MOVWF  xC8
....................    delay_ms(10); 
02032:  MOVLW  0A
02034:  MOVLB  4
02036:  MOVWF  x5B
02038:  MOVLB  0
0203A:  RCALL  1AC8
....................    Tsecadop[3]=read_eeprom(7); 
0203C:  MOVFF  FF2,446
02040:  BCF    FF2.6
02042:  BCF    FF2.7
02044:  CLRF   FAA
02046:  MOVLW  07
02048:  MOVWF  FA9
0204A:  BCF    FA6.6
0204C:  BCF    FA6.7
0204E:  BSF    FA6.0
02050:  MOVF   FA8,W
02052:  MOVLB  4
02054:  BTFSC  x46.6
02056:  BSF    FF2.6
02058:  BTFSC  x46.7
0205A:  BSF    FF2.7
0205C:  MOVLB  0
0205E:  MOVWF  xC9
....................    delay_ms(10); 
02060:  MOVLW  0A
02062:  MOVLB  4
02064:  MOVWF  x5B
02066:  MOVLB  0
02068:  RCALL  1AC8
....................    Setpoint=read_eeprom(8); 
0206A:  MOVFF  FF2,446
0206E:  BCF    FF2.6
02070:  BCF    FF2.7
02072:  CLRF   FAA
02074:  MOVLW  08
02076:  MOVWF  FA9
02078:  BCF    FA6.6
0207A:  BCF    FA6.7
0207C:  BSF    FA6.0
0207E:  MOVF   FA8,W
02080:  MOVLB  4
02082:  BTFSC  x46.6
02084:  BSF    FF2.6
02086:  BTFSC  x46.7
02088:  BSF    FF2.7
0208A:  MOVLB  3
0208C:  MOVWF  x6B
....................    delay_ms(10); 
0208E:  MOVLW  0A
02090:  MOVLB  4
02092:  MOVWF  x5B
02094:  MOVLB  0
02096:  RCALL  1AC8
....................    Nivel=read_eeprom(9); 
02098:  MOVFF  FF2,446
0209C:  BCF    FF2.6
0209E:  BCF    FF2.7
020A0:  CLRF   FAA
020A2:  MOVLW  09
020A4:  MOVWF  FA9
020A6:  BCF    FA6.6
020A8:  BCF    FA6.7
020AA:  BSF    FA6.0
020AC:  MOVF   FA8,W
020AE:  MOVLB  4
020B0:  BTFSC  x46.6
020B2:  BSF    FF2.6
020B4:  BTFSC  x46.7
020B6:  BSF    FF2.7
020B8:  MOVLB  3
020BA:  CLRF   x7B
020BC:  MOVWF  x7A
....................    delay_ms(10); 
020BE:  MOVLW  0A
020C0:  MOVLB  4
020C2:  MOVWF  x5B
020C4:  MOVLB  0
020C6:  RCALL  1AC8
....................    Password[0]=read_eeprom(10); 
020C8:  MOVFF  FF2,446
020CC:  BCF    FF2.6
020CE:  BCF    FF2.7
020D0:  CLRF   FAA
020D2:  MOVLW  0A
020D4:  MOVWF  FA9
020D6:  BCF    FA6.6
020D8:  BCF    FA6.7
020DA:  BSF    FA6.0
020DC:  MOVF   FA8,W
020DE:  MOVLB  4
020E0:  BTFSC  x46.6
020E2:  BSF    FF2.6
020E4:  BTFSC  x46.7
020E6:  BSF    FF2.7
020E8:  MOVLB  3
020EA:  MOVWF  x8E
....................    delay_ms(10); 
020EC:  MOVLW  0A
020EE:  MOVLB  4
020F0:  MOVWF  x5B
020F2:  MOVLB  0
020F4:  RCALL  1AC8
....................    Password[1]=read_eeprom(11); 
020F6:  MOVFF  FF2,446
020FA:  BCF    FF2.6
020FC:  BCF    FF2.7
020FE:  CLRF   FAA
02100:  MOVLW  0B
02102:  MOVWF  FA9
02104:  BCF    FA6.6
02106:  BCF    FA6.7
02108:  BSF    FA6.0
0210A:  MOVF   FA8,W
0210C:  MOVLB  4
0210E:  BTFSC  x46.6
02110:  BSF    FF2.6
02112:  BTFSC  x46.7
02114:  BSF    FF2.7
02116:  MOVLB  3
02118:  MOVWF  x8F
....................    delay_ms(10); 
0211A:  MOVLW  0A
0211C:  MOVLB  4
0211E:  MOVWF  x5B
02120:  MOVLB  0
02122:  RCALL  1AC8
....................    Password[2]=read_eeprom(12); 
02124:  MOVFF  FF2,446
02128:  BCF    FF2.6
0212A:  BCF    FF2.7
0212C:  CLRF   FAA
0212E:  MOVLW  0C
02130:  MOVWF  FA9
02132:  BCF    FA6.6
02134:  BCF    FA6.7
02136:  BSF    FA6.0
02138:  MOVF   FA8,W
0213A:  MOVLB  4
0213C:  BTFSC  x46.6
0213E:  BSF    FF2.6
02140:  BTFSC  x46.7
02142:  BSF    FF2.7
02144:  MOVLB  3
02146:  MOVWF  x90
....................    delay_ms(10); 
02148:  MOVLW  0A
0214A:  MOVLB  4
0214C:  MOVWF  x5B
0214E:  MOVLB  0
02150:  RCALL  1AC8
....................    Password[3]=read_eeprom(13); 
02152:  MOVFF  FF2,446
02156:  BCF    FF2.6
02158:  BCF    FF2.7
0215A:  CLRF   FAA
0215C:  MOVLW  0D
0215E:  MOVWF  FA9
02160:  BCF    FA6.6
02162:  BCF    FA6.7
02164:  BSF    FA6.0
02166:  MOVF   FA8,W
02168:  MOVLB  4
0216A:  BTFSC  x46.6
0216C:  BSF    FF2.6
0216E:  BTFSC  x46.7
02170:  BSF    FF2.7
02172:  MOVLB  3
02174:  MOVWF  x91
....................    delay_ms(10); 
02176:  MOVLW  0A
02178:  MOVLB  4
0217A:  MOVWF  x5B
0217C:  MOVLB  0
0217E:  RCALL  1AC8
....................    Ganancia=read_eeprom(20); 
02180:  MOVFF  FF2,446
02184:  BCF    FF2.6
02186:  BCF    FF2.7
02188:  CLRF   FAA
0218A:  MOVLW  14
0218C:  MOVWF  FA9
0218E:  BCF    FA6.6
02190:  BCF    FA6.7
02192:  BSF    FA6.0
02194:  MOVF   FA8,W
02196:  MOVLB  4
02198:  BTFSC  x46.6
0219A:  BSF    FF2.6
0219C:  BTFSC  x46.7
0219E:  BSF    FF2.7
021A0:  CLRF   x5C
021A2:  MOVWF  x5B
021A4:  MOVLB  0
021A6:  RCALL  1AF0
021A8:  MOVFF  03,312
021AC:  MOVFF  02,311
021B0:  MOVFF  01,310
021B4:  MOVFF  00,30F
....................    delay_ms(10); 
021B8:  MOVLW  0A
021BA:  MOVLB  4
021BC:  MOVWF  x5B
021BE:  MOVLB  0
021C0:  RCALL  1AC8
....................    Ajuste=read_eeprom(21); 
021C2:  MOVFF  FF2,446
021C6:  BCF    FF2.6
021C8:  BCF    FF2.7
021CA:  CLRF   FAA
021CC:  MOVLW  15
021CE:  MOVWF  FA9
021D0:  BCF    FA6.6
021D2:  BCF    FA6.7
021D4:  BSF    FA6.0
021D6:  MOVF   FA8,W
021D8:  MOVLB  4
021DA:  BTFSC  x46.6
021DC:  BSF    FF2.6
021DE:  BTFSC  x46.7
021E0:  BSF    FF2.7
021E2:  MOVLB  2
021E4:  MOVWF  xE0
....................    delay_ms(10); 
021E6:  MOVLW  0A
021E8:  MOVLB  4
021EA:  MOVWF  x5B
021EC:  MOVLB  0
021EE:  RCALL  1AC8
....................    Ajusten=read_eeprom(22); 
021F0:  MOVFF  FF2,446
021F4:  BCF    FF2.6
021F6:  BCF    FF2.7
021F8:  CLRF   FAA
021FA:  MOVLW  16
021FC:  MOVWF  FA9
021FE:  BCF    FA6.6
02200:  BCF    FA6.7
02202:  BSF    FA6.0
02204:  MOVF   FA8,W
02206:  MOVLB  4
02208:  BTFSC  x46.6
0220A:  BSF    FF2.6
0220C:  BTFSC  x46.7
0220E:  BSF    FF2.7
02210:  MOVLB  2
02212:  MOVWF  xE1
....................    delay_ms(10); 
02214:  MOVLW  0A
02216:  MOVLB  4
02218:  MOVWF  x5B
0221A:  MOVLB  0
0221C:  RCALL  1AC8
....................    //Desvio=read_eeprom(23); 
....................    MediaMovil=read_eeprom(24); 
0221E:  MOVFF  FF2,446
02222:  BCF    FF2.6
02224:  BCF    FF2.7
02226:  CLRF   FAA
02228:  MOVLW  18
0222A:  MOVWF  FA9
0222C:  BCF    FA6.6
0222E:  BCF    FA6.7
02230:  BSF    FA6.0
02232:  MOVF   FA8,W
02234:  MOVLB  4
02236:  BTFSC  x46.6
02238:  BSF    FF2.6
0223A:  BTFSC  x46.7
0223C:  BSF    FF2.7
0223E:  MOVLB  2
02240:  MOVWF  xE2
....................    delay_ms(10); 
02242:  MOVLW  0A
02244:  MOVLB  4
02246:  MOVWF  x5B
02248:  MOVLB  0
0224A:  RCALL  1AC8
....................    Tciclo=read_eeprom(25); 
0224C:  MOVFF  FF2,446
02250:  BCF    FF2.6
02252:  BCF    FF2.7
02254:  CLRF   FAA
02256:  MOVLW  19
02258:  MOVWF  FA9
0225A:  BCF    FA6.6
0225C:  BCF    FA6.7
0225E:  BSF    FA6.0
02260:  MOVF   FA8,W
02262:  MOVLB  4
02264:  BTFSC  x46.6
02266:  BSF    FF2.6
02268:  BTFSC  x46.7
0226A:  BSF    FF2.7
0226C:  CLRF   x5C
0226E:  MOVWF  x5B
02270:  MOVLB  0
02272:  RCALL  1AF0
02274:  MOVFF  03,2FA
02278:  MOVFF  02,2F9
0227C:  MOVFF  01,2F8
02280:  MOVFF  00,2F7
....................    delay_ms(10); 
02284:  MOVLW  0A
02286:  MOVLB  4
02288:  MOVWF  x5B
0228A:  MOVLB  0
0228C:  RCALL  1AC8
....................    Integral=read_eeprom(26); 
0228E:  MOVFF  FF2,446
02292:  BCF    FF2.6
02294:  BCF    FF2.7
02296:  CLRF   FAA
02298:  MOVLW  1A
0229A:  MOVWF  FA9
0229C:  BCF    FA6.6
0229E:  BCF    FA6.7
022A0:  BSF    FA6.0
022A2:  MOVF   FA8,W
022A4:  MOVLB  4
022A6:  BTFSC  x46.6
022A8:  BSF    FF2.6
022AA:  BTFSC  x46.7
022AC:  BSF    FF2.7
022AE:  MOVLB  3
022B0:  MOVWF  x43
....................    delay_ms(10); 
022B2:  MOVLW  0A
022B4:  MOVLB  4
022B6:  MOVWF  x5B
022B8:  MOVLB  0
022BA:  RCALL  1AC8
....................    Derivativo=read_eeprom(27); 
022BC:  MOVFF  FF2,446
022C0:  BCF    FF2.6
022C2:  BCF    FF2.7
022C4:  CLRF   FAA
022C6:  MOVLW  1B
022C8:  MOVWF  FA9
022CA:  BCF    FA6.6
022CC:  BCF    FA6.7
022CE:  BSF    FA6.0
022D0:  MOVF   FA8,W
022D2:  MOVLB  4
022D4:  BTFSC  x46.6
022D6:  BSF    FF2.6
022D8:  BTFSC  x46.7
022DA:  BSF    FF2.7
022DC:  MOVLB  3
022DE:  MOVWF  x44
....................    delay_ms(10); 
022E0:  MOVLW  0A
022E2:  MOVLB  4
022E4:  MOVWF  x5B
022E6:  MOVLB  0
022E8:  CALL   1AC8
....................    Temporal=read_eeprom(29); 
022EC:  MOVFF  FF2,446
022F0:  BCF    FF2.6
022F2:  BCF    FF2.7
022F4:  CLRF   FAA
022F6:  MOVLW  1D
022F8:  MOVWF  FA9
022FA:  BCF    FA6.6
022FC:  BCF    FA6.7
022FE:  BSF    FA6.0
02300:  MOVF   FA8,W
02302:  MOVLB  4
02304:  BTFSC  x46.6
02306:  BSF    FF2.6
02308:  BTFSC  x46.7
0230A:  BSF    FF2.7
0230C:  CLRF   x5C
0230E:  MOVWF  x5B
02310:  MOVLB  0
02312:  CALL   1AF0
02316:  MOVFF  03,2B5
0231A:  MOVFF  02,2B4
0231E:  MOVFF  01,2B3
02322:  MOVFF  00,2B2
....................    Temporal=Temporal/10.0; 
02326:  MOVFF  2B5,452
0232A:  MOVFF  2B4,451
0232E:  MOVFF  2B3,450
02332:  MOVFF  2B2,44F
02336:  MOVLB  4
02338:  CLRF   x56
0233A:  CLRF   x55
0233C:  MOVLW  20
0233E:  MOVWF  x54
02340:  MOVLW  82
02342:  MOVWF  x53
02344:  MOVLB  0
02346:  CALL   1B26
0234A:  MOVFF  03,2B5
0234E:  MOVFF  02,2B4
02352:  MOVFF  01,2B3
02356:  MOVFF  00,2B2
....................    delay_ms(10); 
0235A:  MOVLW  0A
0235C:  MOVLB  4
0235E:  MOVWF  x5B
02360:  MOVLB  0
02362:  CALL   1AC8
....................    Gain=read_eeprom(28)+Temporal; 
02366:  MOVFF  FF2,446
0236A:  BCF    FF2.6
0236C:  BCF    FF2.7
0236E:  CLRF   FAA
02370:  MOVLW  1C
02372:  MOVWF  FA9
02374:  BCF    FA6.6
02376:  BCF    FA6.7
02378:  BSF    FA6.0
0237A:  MOVF   FA8,W
0237C:  MOVLB  4
0237E:  BTFSC  x46.6
02380:  BSF    FF2.6
02382:  BTFSC  x46.7
02384:  BSF    FF2.7
02386:  CLRF   x5C
02388:  MOVWF  x5B
0238A:  MOVLB  0
0238C:  CALL   1AF0
02390:  BCF    FD8.1
02392:  MOVFF  03,45E
02396:  MOVFF  02,45D
0239A:  MOVFF  01,45C
0239E:  MOVFF  00,45B
023A2:  MOVFF  2B5,462
023A6:  MOVFF  2B4,461
023AA:  MOVFF  2B3,460
023AE:  MOVFF  2B2,45F
023B2:  RCALL  1C84
023B4:  MOVFF  03,2AD
023B8:  MOVFF  02,2AC
023BC:  MOVFF  01,2AB
023C0:  MOVFF  00,2AA
....................    delay_ms(10); 
023C4:  MOVLW  0A
023C6:  MOVLB  4
023C8:  MOVWF  x5B
023CA:  MOVLB  0
023CC:  CALL   1AC8
....................    R1=make16(read_eeprom(31),read_eeprom(30)); 
023D0:  MOVFF  FF2,446
023D4:  BCF    FF2.6
023D6:  BCF    FF2.7
023D8:  CLRF   FAA
023DA:  MOVLW  1F
023DC:  MOVWF  FA9
023DE:  BCF    FA6.6
023E0:  BCF    FA6.7
023E2:  BSF    FA6.0
023E4:  MOVF   FA8,W
023E6:  MOVLB  4
023E8:  BTFSC  x46.6
023EA:  BSF    FF2.6
023EC:  BTFSC  x46.7
023EE:  BSF    FF2.7
023F0:  MOVWF  x47
023F2:  MOVFF  FF2,448
023F6:  BCF    FF2.6
023F8:  BCF    FF2.7
023FA:  CLRF   FAA
023FC:  MOVLW  1E
023FE:  MOVWF  FA9
02400:  BCF    FA6.6
02402:  BCF    FA6.7
02404:  BSF    FA6.0
02406:  MOVF   FA8,W
02408:  BTFSC  x48.6
0240A:  BSF    FF2.6
0240C:  BTFSC  x48.7
0240E:  BSF    FF2.7
02410:  MOVWF  x49
02412:  MOVFF  447,03
02416:  MOVF   x49,W
02418:  MOVWF  x5B
0241A:  MOVFF  03,45C
0241E:  MOVLB  0
02420:  CALL   1AF0
02424:  MOVFF  03,2B9
02428:  MOVFF  02,2B8
0242C:  MOVFF  01,2B7
02430:  MOVFF  00,2B6
....................    delay_ms(10); 
02434:  MOVLW  0A
02436:  MOVLB  4
02438:  MOVWF  x5B
0243A:  MOVLB  0
0243C:  CALL   1AC8
....................    Temporal=read_eeprom(33); 
02440:  MOVFF  FF2,446
02444:  BCF    FF2.6
02446:  BCF    FF2.7
02448:  CLRF   FAA
0244A:  MOVLW  21
0244C:  MOVWF  FA9
0244E:  BCF    FA6.6
02450:  BCF    FA6.7
02452:  BSF    FA6.0
02454:  MOVF   FA8,W
02456:  MOVLB  4
02458:  BTFSC  x46.6
0245A:  BSF    FF2.6
0245C:  BTFSC  x46.7
0245E:  BSF    FF2.7
02460:  CLRF   x5C
02462:  MOVWF  x5B
02464:  MOVLB  0
02466:  CALL   1AF0
0246A:  MOVFF  03,2B5
0246E:  MOVFF  02,2B4
02472:  MOVFF  01,2B3
02476:  MOVFF  00,2B2
....................    Temporal=Temporal/10.0; 
0247A:  MOVFF  2B5,452
0247E:  MOVFF  2B4,451
02482:  MOVFF  2B3,450
02486:  MOVFF  2B2,44F
0248A:  MOVLB  4
0248C:  CLRF   x56
0248E:  CLRF   x55
02490:  MOVLW  20
02492:  MOVWF  x54
02494:  MOVLW  82
02496:  MOVWF  x53
02498:  MOVLB  0
0249A:  CALL   1B26
0249E:  MOVFF  03,2B5
024A2:  MOVFF  02,2B4
024A6:  MOVFF  01,2B3
024AA:  MOVFF  00,2B2
....................    delay_ms(10); 
024AE:  MOVLW  0A
024B0:  MOVLB  4
024B2:  MOVWF  x5B
024B4:  MOVLB  0
024B6:  CALL   1AC8
....................    RPT100=read_eeprom(32)+Temporal; 
024BA:  MOVFF  FF2,446
024BE:  BCF    FF2.6
024C0:  BCF    FF2.7
024C2:  CLRF   FAA
024C4:  MOVLW  20
024C6:  MOVWF  FA9
024C8:  BCF    FA6.6
024CA:  BCF    FA6.7
024CC:  BSF    FA6.0
024CE:  MOVF   FA8,W
024D0:  MOVLB  4
024D2:  BTFSC  x46.6
024D4:  BSF    FF2.6
024D6:  BTFSC  x46.7
024D8:  BSF    FF2.7
024DA:  CLRF   x5C
024DC:  MOVWF  x5B
024DE:  MOVLB  0
024E0:  CALL   1AF0
024E4:  BCF    FD8.1
024E6:  MOVFF  03,45E
024EA:  MOVFF  02,45D
024EE:  MOVFF  01,45C
024F2:  MOVFF  00,45B
024F6:  MOVFF  2B5,462
024FA:  MOVFF  2B4,461
024FE:  MOVFF  2B3,460
02502:  MOVFF  2B2,45F
02506:  CALL   1C84
0250A:  MOVFF  03,2B1
0250E:  MOVFF  02,2B0
02512:  MOVFF  01,2AF
02516:  MOVFF  00,2AE
....................    delay_ms(10); 
0251A:  MOVLW  0A
0251C:  MOVLB  4
0251E:  MOVWF  x5B
02520:  MOVLB  0
02522:  CALL   1AC8
....................    CiclosL=read_eeprom(37); 
02526:  MOVFF  FF2,446
0252A:  BCF    FF2.6
0252C:  BCF    FF2.7
0252E:  CLRF   FAA
02530:  MOVLW  25
02532:  MOVWF  FA9
02534:  BCF    FA6.6
02536:  BCF    FA6.7
02538:  BSF    FA6.0
0253A:  MOVF   FA8,W
0253C:  MOVLB  4
0253E:  BTFSC  x46.6
02540:  BSF    FF2.6
02542:  BTFSC  x46.7
02544:  BSF    FF2.7
02546:  MOVLB  3
02548:  MOVWF  x68
....................    delay_ms(10); 
0254A:  MOVLW  0A
0254C:  MOVLB  4
0254E:  MOVWF  x5B
02550:  MOVLB  0
02552:  CALL   1AC8
....................    CiclosH=read_eeprom(38); 
02556:  MOVFF  FF2,446
0255A:  BCF    FF2.6
0255C:  BCF    FF2.7
0255E:  CLRF   FAA
02560:  MOVLW  26
02562:  MOVWF  FA9
02564:  BCF    FA6.6
02566:  BCF    FA6.7
02568:  BSF    FA6.0
0256A:  MOVF   FA8,W
0256C:  MOVLB  4
0256E:  BTFSC  x46.6
02570:  BSF    FF2.6
02572:  BTFSC  x46.7
02574:  BSF    FF2.7
02576:  MOVLB  3
02578:  MOVWF  x69
....................    delay_ms(10); 
0257A:  MOVLW  0A
0257C:  MOVLB  4
0257E:  MOVWF  x5B
02580:  MOVLB  0
02582:  CALL   1AC8
....................    Ciclos=make16(CiclosH,CiclosL); 
02586:  MOVFF  369,383
0258A:  MOVFF  368,382
....................    delay_ms(10); 
0258E:  MOVLW  0A
02590:  MOVLB  4
02592:  MOVWF  x5B
02594:  MOVLB  0
02596:  CALL   1AC8
....................    TTrampa=read_eeprom(39); 
0259A:  MOVFF  FF2,446
0259E:  BCF    FF2.6
025A0:  BCF    FF2.7
025A2:  CLRF   FAA
025A4:  MOVLW  27
025A6:  MOVWF  FA9
025A8:  BCF    FA6.6
025AA:  BCF    FA6.7
025AC:  BSF    FA6.0
025AE:  MOVF   FA8,W
025B0:  MOVLB  4
025B2:  BTFSC  x46.6
025B4:  BSF    FF2.6
025B6:  BTFSC  x46.7
025B8:  BSF    FF2.7
025BA:  MOVLB  2
025BC:  MOVWF  xE3
....................    delay_ms(10); 
025BE:  MOVLW  0A
025C0:  MOVLB  4
025C2:  MOVWF  x5B
025C4:  MOVLB  0
025C6:  CALL   1AC8
....................    ActivaImpresion=read_eeprom(40); 
025CA:  MOVFF  FF2,446
025CE:  BCF    FF2.6
025D0:  BCF    FF2.7
025D2:  CLRF   FAA
025D4:  MOVLW  28
025D6:  MOVWF  FA9
025D8:  BCF    FA6.6
025DA:  BCF    FA6.7
025DC:  BSF    FA6.0
025DE:  MOVF   FA8,W
025E0:  MOVLB  4
025E2:  BTFSC  x46.6
025E4:  BSF    FF2.6
025E6:  BTFSC  x46.7
025E8:  BSF    FF2.7
025EA:  MOVLB  3
025EC:  MOVWF  x5D
....................    delay_ms(10); 
025EE:  MOVLW  0A
025F0:  MOVLB  4
025F2:  MOVWF  x5B
025F4:  MOVLB  0
025F6:  CALL   1AC8
....................    timpresion=read_eeprom(41); 
025FA:  MOVFF  FF2,446
025FE:  BCF    FF2.6
02600:  BCF    FF2.7
02602:  CLRF   FAA
02604:  MOVLW  29
02606:  MOVWF  FA9
02608:  BCF    FA6.6
0260A:  BCF    FA6.7
0260C:  BSF    FA6.0
0260E:  MOVF   FA8,W
02610:  MOVLB  4
02612:  BTFSC  x46.6
02614:  BSF    FF2.6
02616:  BTFSC  x46.7
02618:  BSF    FF2.7
0261A:  MOVLB  3
0261C:  MOVWF  x5E
....................    delay_ms(10); 
0261E:  MOVLW  0A
02620:  MOVLB  4
02622:  MOVWF  x5B
02624:  MOVLB  0
02626:  CALL   1AC8
....................    G1=read_eeprom(42); 
0262A:  MOVFF  FF2,446
0262E:  BCF    FF2.6
02630:  BCF    FF2.7
02632:  CLRF   FAA
02634:  MOVLW  2A
02636:  MOVWF  FA9
02638:  BCF    FA6.6
0263A:  BCF    FA6.7
0263C:  BSF    FA6.0
0263E:  MOVF   FA8,W
02640:  MOVLB  4
02642:  BTFSC  x46.6
02644:  BSF    FF2.6
02646:  BTFSC  x46.7
02648:  BSF    FF2.7
0264A:  MOVLB  3
0264C:  MOVWF  xB6
....................    delay_ms(10); 
0264E:  MOVLW  0A
02650:  MOVLB  4
02652:  MOVWF  x5B
02654:  MOVLB  0
02656:  CALL   1AC8
....................    G2=read_eeprom(43); 
0265A:  MOVFF  FF2,446
0265E:  BCF    FF2.6
02660:  BCF    FF2.7
02662:  CLRF   FAA
02664:  MOVLW  2B
02666:  MOVWF  FA9
02668:  BCF    FA6.6
0266A:  BCF    FA6.7
0266C:  BSF    FA6.0
0266E:  MOVF   FA8,W
02670:  MOVLB  4
02672:  BTFSC  x46.6
02674:  BSF    FF2.6
02676:  BTFSC  x46.7
02678:  BSF    FF2.7
0267A:  MOVLB  3
0267C:  MOVWF  xB7
....................    delay_ms(10); 
0267E:  MOVLW  0A
02680:  MOVLB  4
02682:  MOVWF  x5B
02684:  MOVLB  0
02686:  CALL   1AC8
....................    sg1=read_eeprom(44); 
0268A:  MOVFF  FF2,446
0268E:  BCF    FF2.6
02690:  BCF    FF2.7
02692:  CLRF   FAA
02694:  MOVLW  2C
02696:  MOVWF  FA9
02698:  BCF    FA6.6
0269A:  BCF    FA6.7
0269C:  BSF    FA6.0
0269E:  MOVF   FA8,W
026A0:  MOVLB  4
026A2:  BTFSC  x46.6
026A4:  BSF    FF2.6
026A6:  BTFSC  x46.7
026A8:  BSF    FF2.7
026AA:  MOVLB  3
026AC:  MOVWF  xB8
....................    delay_ms(10); 
026AE:  MOVLW  0A
026B0:  MOVLB  4
026B2:  MOVWF  x5B
026B4:  MOVLB  0
026B6:  CALL   1AC8
....................    sg2=read_eeprom(45); 
026BA:  MOVFF  FF2,446
026BE:  BCF    FF2.6
026C0:  BCF    FF2.7
026C2:  CLRF   FAA
026C4:  MOVLW  2D
026C6:  MOVWF  FA9
026C8:  BCF    FA6.6
026CA:  BCF    FA6.7
026CC:  BSF    FA6.0
026CE:  MOVF   FA8,W
026D0:  MOVLB  4
026D2:  BTFSC  x46.6
026D4:  BSF    FF2.6
026D6:  BTFSC  x46.7
026D8:  BSF    FF2.7
026DA:  MOVLB  3
026DC:  MOVWF  xB9
....................    delay_ms(10); 
026DE:  MOVLW  0A
026E0:  MOVLB  4
026E2:  MOVWF  x5B
026E4:  MOVLB  0
026E6:  CALL   1AC8
....................    Atmosferica=read_eeprom(46); 
026EA:  MOVFF  FF2,446
026EE:  BCF    FF2.6
026F0:  BCF    FF2.7
026F2:  CLRF   FAA
026F4:  MOVLW  2E
026F6:  MOVWF  FA9
026F8:  BCF    FA6.6
026FA:  BCF    FA6.7
026FC:  BSF    FA6.0
026FE:  MOVF   FA8,W
02700:  MOVLB  4
02702:  BTFSC  x46.6
02704:  BSF    FF2.6
02706:  BTFSC  x46.7
02708:  BSF    FF2.7
0270A:  MOVLB  3
0270C:  MOVWF  xB5
....................     
....................    for(i=0;i<4;i++){//Lee valores almacenados de ciclos personalizados 
0270E:  CLRF   x67
02710:  MOVF   x67,W
02712:  SUBLW  03
02714:  BTFSS  FD8.0
02716:  BRA    2CE0
....................       CiclosPersonalizados[i].Temperatura=read_eeprom(100+(i*8));  
02718:  MOVF   x67,W
0271A:  MULLW  0A
0271C:  MOVF   FF3,W
0271E:  MOVLB  4
02720:  CLRF   x47
02722:  MOVWF  x46
02724:  MOVLW  1E
02726:  ADDWF  x46,W
02728:  MOVWF  FE9
0272A:  MOVLW  04
0272C:  ADDWFC x47,W
0272E:  MOVWF  FEA
02730:  MOVLB  3
02732:  MOVF   x67,W
02734:  MULLW  08
02736:  MOVF   FF3,W
02738:  ADDLW  64
0273A:  MOVLB  4
0273C:  MOVWF  x48
0273E:  MOVFF  FF2,449
02742:  BCF    FF2.6
02744:  BCF    FF2.7
02746:  CLRF   FAA
02748:  MOVFF  448,FA9
0274C:  BCF    FA6.6
0274E:  BCF    FA6.7
02750:  BSF    FA6.0
02752:  MOVF   FA8,W
02754:  BTFSC  x49.6
02756:  BSF    FF2.6
02758:  BTFSC  x49.7
0275A:  BSF    FF2.7
0275C:  MOVWF  FEF
....................       CiclosPersonalizados[i].MinutoestH=read_eeprom(101+(i*8));  
0275E:  MOVLB  3
02760:  MOVF   x67,W
02762:  MULLW  0A
02764:  MOVF   FF3,W
02766:  MOVLB  4
02768:  CLRF   x47
0276A:  MOVWF  x46
0276C:  MOVLW  01
0276E:  ADDWF  x46,W
02770:  MOVWF  01
02772:  MOVLW  00
02774:  ADDWFC x47,W
02776:  MOVWF  03
02778:  MOVF   01,W
0277A:  ADDLW  1E
0277C:  MOVWF  FE9
0277E:  MOVLW  04
02780:  ADDWFC 03,W
02782:  MOVWF  FEA
02784:  MOVLB  3
02786:  MOVF   x67,W
02788:  MULLW  08
0278A:  MOVF   FF3,W
0278C:  ADDLW  65
0278E:  MOVLB  4
02790:  MOVWF  x48
02792:  MOVFF  FF2,449
02796:  BCF    FF2.6
02798:  BCF    FF2.7
0279A:  CLRF   FAA
0279C:  MOVFF  448,FA9
027A0:  BCF    FA6.6
027A2:  BCF    FA6.7
027A4:  BSF    FA6.0
027A6:  MOVF   FA8,W
027A8:  BTFSC  x49.6
027AA:  BSF    FF2.6
027AC:  BTFSC  x49.7
027AE:  BSF    FF2.7
027B0:  MOVWF  FEF
....................       CiclosPersonalizados[i].Minutoest=read_eeprom(102+(i*8));  
027B2:  MOVLB  3
027B4:  MOVF   x67,W
027B6:  MULLW  0A
027B8:  MOVF   FF3,W
027BA:  MOVLB  4
027BC:  CLRF   x47
027BE:  MOVWF  x46
027C0:  MOVLW  09
027C2:  ADDWF  x46,W
027C4:  MOVWF  01
027C6:  MOVLW  00
027C8:  ADDWFC x47,W
027CA:  MOVWF  03
027CC:  MOVF   01,W
027CE:  ADDLW  1E
027D0:  MOVWF  FE9
027D2:  MOVLW  04
027D4:  ADDWFC 03,W
027D6:  MOVWF  FEA
027D8:  MOVLB  3
027DA:  MOVF   x67,W
027DC:  MULLW  08
027DE:  MOVF   FF3,W
027E0:  ADDLW  66
027E2:  MOVLB  4
027E4:  MOVWF  x48
027E6:  MOVFF  FF2,449
027EA:  BCF    FF2.6
027EC:  BCF    FF2.7
027EE:  CLRF   FAA
027F0:  MOVFF  448,FA9
027F4:  BCF    FA6.6
027F6:  BCF    FA6.7
027F8:  BSF    FA6.0
027FA:  MOVF   FA8,W
027FC:  BTFSC  x49.6
027FE:  BSF    FF2.6
02800:  BTFSC  x49.7
02802:  BSF    FF2.7
02804:  MOVWF  FEF
....................       CiclosPersonalizados[i].Segundoest=read_eeprom(103+(i*8));  
02806:  MOVLB  3
02808:  MOVF   x67,W
0280A:  MULLW  0A
0280C:  MOVF   FF3,W
0280E:  MOVLB  4
02810:  CLRF   x47
02812:  MOVWF  x46
02814:  MOVLW  03
02816:  ADDWF  x46,W
02818:  MOVWF  01
0281A:  MOVLW  00
0281C:  ADDWFC x47,W
0281E:  MOVWF  03
02820:  MOVF   01,W
02822:  ADDLW  1E
02824:  MOVWF  FE9
02826:  MOVLW  04
02828:  ADDWFC 03,W
0282A:  MOVWF  FEA
0282C:  MOVLB  3
0282E:  MOVF   x67,W
02830:  MULLW  08
02832:  MOVF   FF3,W
02834:  ADDLW  67
02836:  MOVLB  4
02838:  MOVWF  x48
0283A:  MOVFF  FF2,449
0283E:  BCF    FF2.6
02840:  BCF    FF2.7
02842:  CLRF   FAA
02844:  MOVFF  448,FA9
02848:  BCF    FA6.6
0284A:  BCF    FA6.7
0284C:  BSF    FA6.0
0284E:  MOVF   FA8,W
02850:  BTFSC  x49.6
02852:  BSF    FF2.6
02854:  BTFSC  x49.7
02856:  BSF    FF2.7
02858:  MOVWF  FEF
....................       CiclosPersonalizados[i].Minutosec=read_eeprom(104+(i*8));  
0285A:  MOVLB  3
0285C:  MOVF   x67,W
0285E:  MULLW  0A
02860:  MOVF   FF3,W
02862:  MOVLB  4
02864:  CLRF   x47
02866:  MOVWF  x46
02868:  MOVLW  04
0286A:  ADDWF  x46,W
0286C:  MOVWF  01
0286E:  MOVLW  00
02870:  ADDWFC x47,W
02872:  MOVWF  03
02874:  MOVF   01,W
02876:  ADDLW  1E
02878:  MOVWF  FE9
0287A:  MOVLW  04
0287C:  ADDWFC 03,W
0287E:  MOVWF  FEA
02880:  MOVLB  3
02882:  MOVF   x67,W
02884:  MULLW  08
02886:  MOVF   FF3,W
02888:  ADDLW  68
0288A:  MOVLB  4
0288C:  MOVWF  x48
0288E:  MOVFF  FF2,449
02892:  BCF    FF2.6
02894:  BCF    FF2.7
02896:  CLRF   FAA
02898:  MOVFF  448,FA9
0289C:  BCF    FA6.6
0289E:  BCF    FA6.7
028A0:  BSF    FA6.0
028A2:  MOVF   FA8,W
028A4:  BTFSC  x49.6
028A6:  BSF    FF2.6
028A8:  BTFSC  x49.7
028AA:  BSF    FF2.7
028AC:  MOVWF  FEF
....................       CiclosPersonalizados[i].Segundosec=read_eeprom(105+(i*8));  
028AE:  MOVLB  3
028B0:  MOVF   x67,W
028B2:  MULLW  0A
028B4:  MOVF   FF3,W
028B6:  MOVLB  4
028B8:  CLRF   x47
028BA:  MOVWF  x46
028BC:  MOVLW  05
028BE:  ADDWF  x46,W
028C0:  MOVWF  01
028C2:  MOVLW  00
028C4:  ADDWFC x47,W
028C6:  MOVWF  03
028C8:  MOVF   01,W
028CA:  ADDLW  1E
028CC:  MOVWF  FE9
028CE:  MOVLW  04
028D0:  ADDWFC 03,W
028D2:  MOVWF  FEA
028D4:  MOVLB  3
028D6:  MOVF   x67,W
028D8:  MULLW  08
028DA:  MOVF   FF3,W
028DC:  ADDLW  69
028DE:  MOVLB  4
028E0:  MOVWF  x48
028E2:  MOVFF  FF2,449
028E6:  BCF    FF2.6
028E8:  BCF    FF2.7
028EA:  CLRF   FAA
028EC:  MOVFF  448,FA9
028F0:  BCF    FA6.6
028F2:  BCF    FA6.7
028F4:  BSF    FA6.0
028F6:  MOVF   FA8,W
028F8:  BTFSC  x49.6
028FA:  BSF    FF2.6
028FC:  BTFSC  x49.7
028FE:  BSF    FF2.7
02900:  MOVWF  FEF
....................       CiclosPersonalizados[i].PulsosVacio=read_eeprom(106+(i*8));  
02902:  MOVLB  3
02904:  MOVF   x67,W
02906:  MULLW  0A
02908:  MOVF   FF3,W
0290A:  MOVLB  4
0290C:  CLRF   x47
0290E:  MOVWF  x46
02910:  MOVLW  06
02912:  ADDWF  x46,W
02914:  MOVWF  01
02916:  MOVLW  00
02918:  ADDWFC x47,W
0291A:  MOVWF  03
0291C:  MOVF   01,W
0291E:  ADDLW  1E
02920:  MOVWF  FE9
02922:  MOVLW  04
02924:  ADDWFC 03,W
02926:  MOVWF  FEA
02928:  MOVLB  3
0292A:  MOVF   x67,W
0292C:  MULLW  08
0292E:  MOVF   FF3,W
02930:  ADDLW  6A
02932:  MOVLB  4
02934:  MOVWF  x48
02936:  MOVFF  FF2,449
0293A:  BCF    FF2.6
0293C:  BCF    FF2.7
0293E:  CLRF   FAA
02940:  MOVFF  448,FA9
02944:  BCF    FA6.6
02946:  BCF    FA6.7
02948:  BSF    FA6.0
0294A:  MOVF   FA8,W
0294C:  BTFSC  x49.6
0294E:  BSF    FF2.6
02950:  BTFSC  x49.7
02952:  BSF    FF2.7
02954:  MOVWF  FEF
....................       CiclosPersonalizados[i].NivelDesfogue=read_eeprom(107+(i*8));  
02956:  MOVLB  3
02958:  MOVF   x67,W
0295A:  MULLW  0A
0295C:  MOVF   FF3,W
0295E:  MOVLB  4
02960:  CLRF   x47
02962:  MOVWF  x46
02964:  MOVLW  08
02966:  ADDWF  x46,W
02968:  MOVWF  01
0296A:  MOVLW  00
0296C:  ADDWFC x47,W
0296E:  MOVWF  03
02970:  MOVF   01,W
02972:  ADDLW  1E
02974:  MOVWF  FE9
02976:  MOVLW  04
02978:  ADDWFC 03,W
0297A:  MOVWF  FEA
0297C:  MOVLB  3
0297E:  MOVF   x67,W
02980:  MULLW  08
02982:  MOVF   FF3,W
02984:  ADDLW  6B
02986:  MOVLB  4
02988:  MOVWF  x48
0298A:  MOVFF  FF2,449
0298E:  BCF    FF2.6
02990:  BCF    FF2.7
02992:  CLRF   FAA
02994:  MOVFF  448,FA9
02998:  BCF    FA6.6
0299A:  BCF    FA6.7
0299C:  BSF    FA6.0
0299E:  MOVF   FA8,W
029A0:  BTFSC  x49.6
029A2:  BSF    FF2.6
029A4:  BTFSC  x49.7
029A6:  BSF    FF2.7
029A8:  MOVWF  FEF
....................        
....................       if(CiclosPersonalizados[i].Temperatura>134 || CiclosPersonalizados[i].Temperatura<105) 
029AA:  MOVLB  3
029AC:  MOVF   x67,W
029AE:  MULLW  0A
029B0:  MOVF   FF3,W
029B2:  MOVLB  4
029B4:  CLRF   x47
029B6:  MOVWF  x46
029B8:  MOVLW  1E
029BA:  ADDWF  x46,W
029BC:  MOVWF  FE9
029BE:  MOVLW  04
029C0:  ADDWFC x47,W
029C2:  MOVWF  FEA
029C4:  MOVF   FEF,W
029C6:  SUBLW  86
029C8:  BNC   29EA
029CA:  MOVLB  3
029CC:  MOVF   x67,W
029CE:  MULLW  0A
029D0:  MOVF   FF3,W
029D2:  MOVLB  4
029D4:  CLRF   x47
029D6:  MOVWF  x46
029D8:  MOVLW  1E
029DA:  ADDWF  x46,W
029DC:  MOVWF  FE9
029DE:  MOVLW  04
029E0:  ADDWFC x47,W
029E2:  MOVWF  FEA
029E4:  MOVF   FEF,W
029E6:  SUBLW  68
029E8:  BNC   2A08
....................          CiclosPersonalizados[i].Temperatura=121; 
029EA:  MOVLB  3
029EC:  MOVF   x67,W
029EE:  MULLW  0A
029F0:  MOVF   FF3,W
029F2:  MOVLB  4
029F4:  CLRF   x47
029F6:  MOVWF  x46
029F8:  MOVLW  1E
029FA:  ADDWF  x46,W
029FC:  MOVWF  FE9
029FE:  MOVLW  04
02A00:  ADDWFC x47,W
02A02:  MOVWF  FEA
02A04:  MOVLW  79
02A06:  MOVWF  FEF
....................       if(CiclosPersonalizados[i].Minutoest>59) 
02A08:  MOVLB  3
02A0A:  MOVF   x67,W
02A0C:  MULLW  0A
02A0E:  MOVF   FF3,W
02A10:  MOVLB  4
02A12:  CLRF   x47
02A14:  MOVWF  x46
02A16:  MOVLW  09
02A18:  ADDWF  x46,W
02A1A:  MOVWF  01
02A1C:  MOVLW  00
02A1E:  ADDWFC x47,W
02A20:  MOVWF  03
02A22:  MOVF   01,W
02A24:  ADDLW  1E
02A26:  MOVWF  FE9
02A28:  MOVLW  04
02A2A:  ADDWFC 03,W
02A2C:  MOVWF  FEA
02A2E:  MOVF   FEF,W
02A30:  SUBLW  3B
02A32:  BC    2A5C
....................          CiclosPersonalizados[i].Minutoest=0; 
02A34:  MOVLB  3
02A36:  MOVF   x67,W
02A38:  MULLW  0A
02A3A:  MOVF   FF3,W
02A3C:  MOVLB  4
02A3E:  CLRF   x47
02A40:  MOVWF  x46
02A42:  MOVLW  09
02A44:  ADDWF  x46,W
02A46:  MOVWF  01
02A48:  MOVLW  00
02A4A:  ADDWFC x47,W
02A4C:  MOVWF  03
02A4E:  MOVF   01,W
02A50:  ADDLW  1E
02A52:  MOVWF  FE9
02A54:  MOVLW  04
02A56:  ADDWFC 03,W
02A58:  MOVWF  FEA
02A5A:  CLRF   FEF
....................       if(CiclosPersonalizados[i].Segundoest>59) 
02A5C:  MOVLB  3
02A5E:  MOVF   x67,W
02A60:  MULLW  0A
02A62:  MOVF   FF3,W
02A64:  MOVLB  4
02A66:  CLRF   x47
02A68:  MOVWF  x46
02A6A:  MOVLW  03
02A6C:  ADDWF  x46,W
02A6E:  MOVWF  01
02A70:  MOVLW  00
02A72:  ADDWFC x47,W
02A74:  MOVWF  03
02A76:  MOVF   01,W
02A78:  ADDLW  1E
02A7A:  MOVWF  FE9
02A7C:  MOVLW  04
02A7E:  ADDWFC 03,W
02A80:  MOVWF  FEA
02A82:  MOVF   FEF,W
02A84:  SUBLW  3B
02A86:  BC    2AB0
....................          CiclosPersonalizados[i].Segundoest=0; 
02A88:  MOVLB  3
02A8A:  MOVF   x67,W
02A8C:  MULLW  0A
02A8E:  MOVF   FF3,W
02A90:  MOVLB  4
02A92:  CLRF   x47
02A94:  MOVWF  x46
02A96:  MOVLW  03
02A98:  ADDWF  x46,W
02A9A:  MOVWF  01
02A9C:  MOVLW  00
02A9E:  ADDWFC x47,W
02AA0:  MOVWF  03
02AA2:  MOVF   01,W
02AA4:  ADDLW  1E
02AA6:  MOVWF  FE9
02AA8:  MOVLW  04
02AAA:  ADDWFC 03,W
02AAC:  MOVWF  FEA
02AAE:  CLRF   FEF
....................       if(CiclosPersonalizados[i].Minutosec>59) 
02AB0:  MOVLB  3
02AB2:  MOVF   x67,W
02AB4:  MULLW  0A
02AB6:  MOVF   FF3,W
02AB8:  MOVLB  4
02ABA:  CLRF   x47
02ABC:  MOVWF  x46
02ABE:  MOVLW  04
02AC0:  ADDWF  x46,W
02AC2:  MOVWF  01
02AC4:  MOVLW  00
02AC6:  ADDWFC x47,W
02AC8:  MOVWF  03
02ACA:  MOVF   01,W
02ACC:  ADDLW  1E
02ACE:  MOVWF  FE9
02AD0:  MOVLW  04
02AD2:  ADDWFC 03,W
02AD4:  MOVWF  FEA
02AD6:  MOVF   FEF,W
02AD8:  SUBLW  3B
02ADA:  BC    2B04
....................          CiclosPersonalizados[i].Minutosec=0;    
02ADC:  MOVLB  3
02ADE:  MOVF   x67,W
02AE0:  MULLW  0A
02AE2:  MOVF   FF3,W
02AE4:  MOVLB  4
02AE6:  CLRF   x47
02AE8:  MOVWF  x46
02AEA:  MOVLW  04
02AEC:  ADDWF  x46,W
02AEE:  MOVWF  01
02AF0:  MOVLW  00
02AF2:  ADDWFC x47,W
02AF4:  MOVWF  03
02AF6:  MOVF   01,W
02AF8:  ADDLW  1E
02AFA:  MOVWF  FE9
02AFC:  MOVLW  04
02AFE:  ADDWFC 03,W
02B00:  MOVWF  FEA
02B02:  CLRF   FEF
....................       if(CiclosPersonalizados[i].Segundoest>59) 
02B04:  MOVLB  3
02B06:  MOVF   x67,W
02B08:  MULLW  0A
02B0A:  MOVF   FF3,W
02B0C:  MOVLB  4
02B0E:  CLRF   x47
02B10:  MOVWF  x46
02B12:  MOVLW  03
02B14:  ADDWF  x46,W
02B16:  MOVWF  01
02B18:  MOVLW  00
02B1A:  ADDWFC x47,W
02B1C:  MOVWF  03
02B1E:  MOVF   01,W
02B20:  ADDLW  1E
02B22:  MOVWF  FE9
02B24:  MOVLW  04
02B26:  ADDWFC 03,W
02B28:  MOVWF  FEA
02B2A:  MOVF   FEF,W
02B2C:  SUBLW  3B
02B2E:  BC    2B58
....................          CiclosPersonalizados[i].Segundoest=0; 
02B30:  MOVLB  3
02B32:  MOVF   x67,W
02B34:  MULLW  0A
02B36:  MOVF   FF3,W
02B38:  MOVLB  4
02B3A:  CLRF   x47
02B3C:  MOVWF  x46
02B3E:  MOVLW  03
02B40:  ADDWF  x46,W
02B42:  MOVWF  01
02B44:  MOVLW  00
02B46:  ADDWFC x47,W
02B48:  MOVWF  03
02B4A:  MOVF   01,W
02B4C:  ADDLW  1E
02B4E:  MOVWF  FE9
02B50:  MOVLW  04
02B52:  ADDWFC 03,W
02B54:  MOVWF  FEA
02B56:  CLRF   FEF
....................       if(CiclosPersonalizados[i].Segundosec>59) 
02B58:  MOVLB  3
02B5A:  MOVF   x67,W
02B5C:  MULLW  0A
02B5E:  MOVF   FF3,W
02B60:  MOVLB  4
02B62:  CLRF   x47
02B64:  MOVWF  x46
02B66:  MOVLW  05
02B68:  ADDWF  x46,W
02B6A:  MOVWF  01
02B6C:  MOVLW  00
02B6E:  ADDWFC x47,W
02B70:  MOVWF  03
02B72:  MOVF   01,W
02B74:  ADDLW  1E
02B76:  MOVWF  FE9
02B78:  MOVLW  04
02B7A:  ADDWFC 03,W
02B7C:  MOVWF  FEA
02B7E:  MOVF   FEF,W
02B80:  SUBLW  3B
02B82:  BC    2BAC
....................          CiclosPersonalizados[i].Segundosec=0;       
02B84:  MOVLB  3
02B86:  MOVF   x67,W
02B88:  MULLW  0A
02B8A:  MOVF   FF3,W
02B8C:  MOVLB  4
02B8E:  CLRF   x47
02B90:  MOVWF  x46
02B92:  MOVLW  05
02B94:  ADDWF  x46,W
02B96:  MOVWF  01
02B98:  MOVLW  00
02B9A:  ADDWFC x47,W
02B9C:  MOVWF  03
02B9E:  MOVF   01,W
02BA0:  ADDLW  1E
02BA2:  MOVWF  FE9
02BA4:  MOVLW  04
02BA6:  ADDWFC 03,W
02BA8:  MOVWF  FEA
02BAA:  CLRF   FEF
....................       if(CiclosPersonalizados[i].PulsosVacio>15) 
02BAC:  MOVLB  3
02BAE:  MOVF   x67,W
02BB0:  MULLW  0A
02BB2:  MOVF   FF3,W
02BB4:  MOVLB  4
02BB6:  CLRF   x47
02BB8:  MOVWF  x46
02BBA:  MOVLW  06
02BBC:  ADDWF  x46,W
02BBE:  MOVWF  01
02BC0:  MOVLW  00
02BC2:  ADDWFC x47,W
02BC4:  MOVWF  03
02BC6:  MOVF   01,W
02BC8:  ADDLW  1E
02BCA:  MOVWF  FE9
02BCC:  MOVLW  04
02BCE:  ADDWFC 03,W
02BD0:  MOVWF  FEA
02BD2:  MOVF   FEF,W
02BD4:  SUBLW  0F
02BD6:  BC    2C02
....................          CiclosPersonalizados[i].PulsosVacio=4; 
02BD8:  MOVLB  3
02BDA:  MOVF   x67,W
02BDC:  MULLW  0A
02BDE:  MOVF   FF3,W
02BE0:  MOVLB  4
02BE2:  CLRF   x47
02BE4:  MOVWF  x46
02BE6:  MOVLW  06
02BE8:  ADDWF  x46,W
02BEA:  MOVWF  01
02BEC:  MOVLW  00
02BEE:  ADDWFC x47,W
02BF0:  MOVWF  03
02BF2:  MOVF   01,W
02BF4:  ADDLW  1E
02BF6:  MOVWF  FE9
02BF8:  MOVLW  04
02BFA:  ADDWFC 03,W
02BFC:  MOVWF  FEA
02BFE:  MOVLW  04
02C00:  MOVWF  FEF
....................       if(CiclosPersonalizados[i].NivelVacio>100 || CiclosPersonalizados[i].NivelVacio<10) 
02C02:  MOVLB  3
02C04:  MOVF   x67,W
02C06:  MULLW  0A
02C08:  MOVF   FF3,W
02C0A:  MOVLB  4
02C0C:  CLRF   x47
02C0E:  MOVWF  x46
02C10:  MOVLW  07
02C12:  ADDWF  x46,W
02C14:  MOVWF  01
02C16:  MOVLW  00
02C18:  ADDWFC x47,W
02C1A:  MOVWF  03
02C1C:  MOVF   01,W
02C1E:  ADDLW  1E
02C20:  MOVWF  FE9
02C22:  MOVLW  04
02C24:  ADDWFC 03,W
02C26:  MOVWF  FEA
02C28:  MOVF   FEF,W
02C2A:  SUBLW  64
02C2C:  BNC   2C5A
02C2E:  MOVLB  3
02C30:  MOVF   x67,W
02C32:  MULLW  0A
02C34:  MOVF   FF3,W
02C36:  MOVLB  4
02C38:  CLRF   x47
02C3A:  MOVWF  x46
02C3C:  MOVLW  07
02C3E:  ADDWF  x46,W
02C40:  MOVWF  01
02C42:  MOVLW  00
02C44:  ADDWFC x47,W
02C46:  MOVWF  03
02C48:  MOVF   01,W
02C4A:  ADDLW  1E
02C4C:  MOVWF  FE9
02C4E:  MOVLW  04
02C50:  ADDWFC 03,W
02C52:  MOVWF  FEA
02C54:  MOVF   FEF,W
02C56:  SUBLW  09
02C58:  BNC   2C84
....................          CiclosPersonalizados[i].NivelVacio=25;    
02C5A:  MOVLB  3
02C5C:  MOVF   x67,W
02C5E:  MULLW  0A
02C60:  MOVF   FF3,W
02C62:  MOVLB  4
02C64:  CLRF   x47
02C66:  MOVWF  x46
02C68:  MOVLW  07
02C6A:  ADDWF  x46,W
02C6C:  MOVWF  01
02C6E:  MOVLW  00
02C70:  ADDWFC x47,W
02C72:  MOVWF  03
02C74:  MOVF   01,W
02C76:  ADDLW  1E
02C78:  MOVWF  FE9
02C7A:  MOVLW  04
02C7C:  ADDWFC 03,W
02C7E:  MOVWF  FEA
02C80:  MOVLW  19
02C82:  MOVWF  FEF
....................       if(CiclosPersonalizados[i].NivelDesfogue>6) 
02C84:  MOVLB  3
02C86:  MOVF   x67,W
02C88:  MULLW  0A
02C8A:  MOVF   FF3,W
02C8C:  MOVLB  4
02C8E:  CLRF   x47
02C90:  MOVWF  x46
02C92:  MOVLW  08
02C94:  ADDWF  x46,W
02C96:  MOVWF  01
02C98:  MOVLW  00
02C9A:  ADDWFC x47,W
02C9C:  MOVWF  03
02C9E:  MOVF   01,W
02CA0:  ADDLW  1E
02CA2:  MOVWF  FE9
02CA4:  MOVLW  04
02CA6:  ADDWFC 03,W
02CA8:  MOVWF  FEA
02CAA:  MOVF   FEF,W
02CAC:  SUBLW  06
02CAE:  BC    2CDA
....................          CiclosPersonalizados[i].NivelDesfogue=6; 
02CB0:  MOVLB  3
02CB2:  MOVF   x67,W
02CB4:  MULLW  0A
02CB6:  MOVF   FF3,W
02CB8:  MOVLB  4
02CBA:  CLRF   x47
02CBC:  MOVWF  x46
02CBE:  MOVLW  08
02CC0:  ADDWF  x46,W
02CC2:  MOVWF  01
02CC4:  MOVLW  00
02CC6:  ADDWFC x47,W
02CC8:  MOVWF  03
02CCA:  MOVF   01,W
02CCC:  ADDLW  1E
02CCE:  MOVWF  FE9
02CD0:  MOVLW  04
02CD2:  ADDWFC 03,W
02CD4:  MOVWF  FEA
02CD6:  MOVLW  06
02CD8:  MOVWF  FEF
....................    } 
02CDA:  MOVLB  3
02CDC:  INCF   x67,F
02CDE:  BRA    2710
.................... } 
02CE0:  MOVLB  0
02CE2:  GOTO   7EF8 (RETURN)
....................  
.................... void LimitaValores(){ 
....................    if(Testerilizacionp[0]>9 || Testerilizacionp[0]<0){ 
*
02E94:  BTFSC  xBD.7
02E96:  BRA    2E9E
02E98:  MOVF   xBD,W
02E9A:  SUBLW  09
02E9C:  BNC   2EA4
02E9E:  BTFSC  xBD.7
02EA0:  BRA    2EA4
02EA2:  BRA    2EDC
....................       Testerilizacionp[0]=0; 
02EA4:  CLRF   xBD
....................       write_eeprom(0,0); 
02EA6:  CLRF   FAA
02EA8:  CLRF   FA9
02EAA:  CLRF   FA8
02EAC:  BCF    FA6.6
02EAE:  BCF    FA6.7
02EB0:  BSF    FA6.2
02EB2:  MOVF   FF2,W
02EB4:  MOVWF  00
02EB6:  BCF    FF2.6
02EB8:  BCF    FF2.7
02EBA:  MOVLB  F
02EBC:  MOVLW  55
02EBE:  MOVWF  FA7
02EC0:  MOVLW  AA
02EC2:  MOVWF  FA7
02EC4:  BSF    FA6.1
02EC6:  BTFSC  FA6.1
02EC8:  BRA    2EC6
02ECA:  BCF    FA6.2
02ECC:  MOVF   00,W
02ECE:  IORWF  FF2,F
....................       delay_ms(10); 
02ED0:  MOVLW  0A
02ED2:  MOVLB  4
02ED4:  MOVWF  x5B
02ED6:  MOVLB  0
02ED8:  CALL   1AC8
....................    } 
....................    if(Testerilizacionp[1]>9 || Testerilizacionp[1]<0){ 
02EDC:  BTFSC  xBE.7
02EDE:  BRA    2EE6
02EE0:  MOVF   xBE,W
02EE2:  SUBLW  09
02EE4:  BNC   2EEC
02EE6:  BTFSC  xBE.7
02EE8:  BRA    2EEC
02EEA:  BRA    2F26
....................       Testerilizacionp[1]=0; 
02EEC:  CLRF   xBE
....................       write_eeprom(1,0); 
02EEE:  CLRF   FAA
02EF0:  MOVLW  01
02EF2:  MOVWF  FA9
02EF4:  CLRF   FA8
02EF6:  BCF    FA6.6
02EF8:  BCF    FA6.7
02EFA:  BSF    FA6.2
02EFC:  MOVF   FF2,W
02EFE:  MOVWF  00
02F00:  BCF    FF2.6
02F02:  BCF    FF2.7
02F04:  MOVLB  F
02F06:  MOVLW  55
02F08:  MOVWF  FA7
02F0A:  MOVLW  AA
02F0C:  MOVWF  FA7
02F0E:  BSF    FA6.1
02F10:  BTFSC  FA6.1
02F12:  BRA    2F10
02F14:  BCF    FA6.2
02F16:  MOVF   00,W
02F18:  IORWF  FF2,F
....................       delay_ms(10); 
02F1A:  MOVLW  0A
02F1C:  MOVLB  4
02F1E:  MOVWF  x5B
02F20:  MOVLB  0
02F22:  CALL   1AC8
....................    } 
....................    if(Testerilizacionp[2]>9 || Testerilizacionp[2]<0){ 
02F26:  BTFSC  xBF.7
02F28:  BRA    2F30
02F2A:  MOVF   xBF,W
02F2C:  SUBLW  09
02F2E:  BNC   2F36
02F30:  BTFSC  xBF.7
02F32:  BRA    2F36
02F34:  BRA    2F70
....................       Testerilizacionp[2]=0; 
02F36:  CLRF   xBF
....................       write_eeprom(2,0); 
02F38:  CLRF   FAA
02F3A:  MOVLW  02
02F3C:  MOVWF  FA9
02F3E:  CLRF   FA8
02F40:  BCF    FA6.6
02F42:  BCF    FA6.7
02F44:  BSF    FA6.2
02F46:  MOVF   FF2,W
02F48:  MOVWF  00
02F4A:  BCF    FF2.6
02F4C:  BCF    FF2.7
02F4E:  MOVLB  F
02F50:  MOVLW  55
02F52:  MOVWF  FA7
02F54:  MOVLW  AA
02F56:  MOVWF  FA7
02F58:  BSF    FA6.1
02F5A:  BTFSC  FA6.1
02F5C:  BRA    2F5A
02F5E:  BCF    FA6.2
02F60:  MOVF   00,W
02F62:  IORWF  FF2,F
....................       delay_ms(10); 
02F64:  MOVLW  0A
02F66:  MOVLB  4
02F68:  MOVWF  x5B
02F6A:  MOVLB  0
02F6C:  CALL   1AC8
....................    } 
....................    if(Testerilizacionp[3]>9 || Testerilizacionp[3]<0){ 
02F70:  BTFSC  xC0.7
02F72:  BRA    2F7A
02F74:  MOVF   xC0,W
02F76:  SUBLW  09
02F78:  BNC   2F80
02F7A:  BTFSC  xC0.7
02F7C:  BRA    2F80
02F7E:  BRA    2FBA
....................       Testerilizacionp[3]=0; 
02F80:  CLRF   xC0
....................       write_eeprom(3,0); 
02F82:  CLRF   FAA
02F84:  MOVLW  03
02F86:  MOVWF  FA9
02F88:  CLRF   FA8
02F8A:  BCF    FA6.6
02F8C:  BCF    FA6.7
02F8E:  BSF    FA6.2
02F90:  MOVF   FF2,W
02F92:  MOVWF  00
02F94:  BCF    FF2.6
02F96:  BCF    FF2.7
02F98:  MOVLB  F
02F9A:  MOVLW  55
02F9C:  MOVWF  FA7
02F9E:  MOVLW  AA
02FA0:  MOVWF  FA7
02FA2:  BSF    FA6.1
02FA4:  BTFSC  FA6.1
02FA6:  BRA    2FA4
02FA8:  BCF    FA6.2
02FAA:  MOVF   00,W
02FAC:  IORWF  FF2,F
....................       delay_ms(10); 
02FAE:  MOVLW  0A
02FB0:  MOVLB  4
02FB2:  MOVWF  x5B
02FB4:  MOVLB  0
02FB6:  CALL   1AC8
....................    } 
....................    if(Tsecadop[0]>9 || Tsecadop[0]<0){ 
02FBA:  BTFSC  xC6.7
02FBC:  BRA    2FC4
02FBE:  MOVF   xC6,W
02FC0:  SUBLW  09
02FC2:  BNC   2FCA
02FC4:  BTFSC  xC6.7
02FC6:  BRA    2FCA
02FC8:  BRA    3004
....................       Tsecadop[0]=0; 
02FCA:  CLRF   xC6
....................       write_eeprom(4,0); 
02FCC:  CLRF   FAA
02FCE:  MOVLW  04
02FD0:  MOVWF  FA9
02FD2:  CLRF   FA8
02FD4:  BCF    FA6.6
02FD6:  BCF    FA6.7
02FD8:  BSF    FA6.2
02FDA:  MOVF   FF2,W
02FDC:  MOVWF  00
02FDE:  BCF    FF2.6
02FE0:  BCF    FF2.7
02FE2:  MOVLB  F
02FE4:  MOVLW  55
02FE6:  MOVWF  FA7
02FE8:  MOVLW  AA
02FEA:  MOVWF  FA7
02FEC:  BSF    FA6.1
02FEE:  BTFSC  FA6.1
02FF0:  BRA    2FEE
02FF2:  BCF    FA6.2
02FF4:  MOVF   00,W
02FF6:  IORWF  FF2,F
....................       delay_ms(10); 
02FF8:  MOVLW  0A
02FFA:  MOVLB  4
02FFC:  MOVWF  x5B
02FFE:  MOVLB  0
03000:  CALL   1AC8
....................    } 
....................    if(Tsecadop[1]>9 || Tsecadop[1]<0){ 
03004:  BTFSC  xC7.7
03006:  BRA    300E
03008:  MOVF   xC7,W
0300A:  SUBLW  09
0300C:  BNC   3014
0300E:  BTFSC  xC7.7
03010:  BRA    3014
03012:  BRA    304E
....................       Tsecadop[1]=0; 
03014:  CLRF   xC7
....................       write_eeprom(5,0); 
03016:  CLRF   FAA
03018:  MOVLW  05
0301A:  MOVWF  FA9
0301C:  CLRF   FA8
0301E:  BCF    FA6.6
03020:  BCF    FA6.7
03022:  BSF    FA6.2
03024:  MOVF   FF2,W
03026:  MOVWF  00
03028:  BCF    FF2.6
0302A:  BCF    FF2.7
0302C:  MOVLB  F
0302E:  MOVLW  55
03030:  MOVWF  FA7
03032:  MOVLW  AA
03034:  MOVWF  FA7
03036:  BSF    FA6.1
03038:  BTFSC  FA6.1
0303A:  BRA    3038
0303C:  BCF    FA6.2
0303E:  MOVF   00,W
03040:  IORWF  FF2,F
....................       delay_ms(10); 
03042:  MOVLW  0A
03044:  MOVLB  4
03046:  MOVWF  x5B
03048:  MOVLB  0
0304A:  CALL   1AC8
....................    } 
....................    if(Tsecadop[2]>9 || Tsecadop[2]<0){ 
0304E:  BTFSC  xC8.7
03050:  BRA    3058
03052:  MOVF   xC8,W
03054:  SUBLW  09
03056:  BNC   305E
03058:  BTFSC  xC8.7
0305A:  BRA    305E
0305C:  BRA    3098
....................       Tsecadop[2]=0; 
0305E:  CLRF   xC8
....................       write_eeprom(6,0); 
03060:  CLRF   FAA
03062:  MOVLW  06
03064:  MOVWF  FA9
03066:  CLRF   FA8
03068:  BCF    FA6.6
0306A:  BCF    FA6.7
0306C:  BSF    FA6.2
0306E:  MOVF   FF2,W
03070:  MOVWF  00
03072:  BCF    FF2.6
03074:  BCF    FF2.7
03076:  MOVLB  F
03078:  MOVLW  55
0307A:  MOVWF  FA7
0307C:  MOVLW  AA
0307E:  MOVWF  FA7
03080:  BSF    FA6.1
03082:  BTFSC  FA6.1
03084:  BRA    3082
03086:  BCF    FA6.2
03088:  MOVF   00,W
0308A:  IORWF  FF2,F
....................       delay_ms(10); 
0308C:  MOVLW  0A
0308E:  MOVLB  4
03090:  MOVWF  x5B
03092:  MOVLB  0
03094:  CALL   1AC8
....................    } 
....................    if(Tsecadop[3]>9 || Tsecadop[3]<0){ 
03098:  BTFSC  xC9.7
0309A:  BRA    30A2
0309C:  MOVF   xC9,W
0309E:  SUBLW  09
030A0:  BNC   30A8
030A2:  BTFSC  xC9.7
030A4:  BRA    30A8
030A6:  BRA    30E2
....................       Tsecadop[3]=0; 
030A8:  CLRF   xC9
....................       write_eeprom(7,0); 
030AA:  CLRF   FAA
030AC:  MOVLW  07
030AE:  MOVWF  FA9
030B0:  CLRF   FA8
030B2:  BCF    FA6.6
030B4:  BCF    FA6.7
030B6:  BSF    FA6.2
030B8:  MOVF   FF2,W
030BA:  MOVWF  00
030BC:  BCF    FF2.6
030BE:  BCF    FF2.7
030C0:  MOVLB  F
030C2:  MOVLW  55
030C4:  MOVWF  FA7
030C6:  MOVLW  AA
030C8:  MOVWF  FA7
030CA:  BSF    FA6.1
030CC:  BTFSC  FA6.1
030CE:  BRA    30CC
030D0:  BCF    FA6.2
030D2:  MOVF   00,W
030D4:  IORWF  FF2,F
....................       delay_ms(10); 
030D6:  MOVLW  0A
030D8:  MOVLB  4
030DA:  MOVWF  x5B
030DC:  MOVLB  0
030DE:  CALL   1AC8
....................    } 
....................    if(Setpoint>134){ 
030E2:  MOVLB  3
030E4:  MOVF   x6B,W
030E6:  SUBLW  86
030E8:  BC    312A
....................       Setpoint=134; 
030EA:  MOVLW  86
030EC:  MOVWF  x6B
....................       write_eeprom(8,134); 
030EE:  CLRF   FAA
030F0:  MOVLW  08
030F2:  MOVWF  FA9
030F4:  MOVLW  86
030F6:  MOVWF  FA8
030F8:  BCF    FA6.6
030FA:  BCF    FA6.7
030FC:  BSF    FA6.2
030FE:  MOVF   FF2,W
03100:  MOVWF  00
03102:  BCF    FF2.6
03104:  BCF    FF2.7
03106:  MOVLB  F
03108:  MOVLW  55
0310A:  MOVWF  FA7
0310C:  MOVLW  AA
0310E:  MOVWF  FA7
03110:  BSF    FA6.1
03112:  BTFSC  FA6.1
03114:  BRA    3112
03116:  BCF    FA6.2
03118:  MOVF   00,W
0311A:  IORWF  FF2,F
....................       delay_ms(10); 
0311C:  MOVLW  0A
0311E:  MOVLB  4
03120:  MOVWF  x5B
03122:  MOVLB  0
03124:  CALL   1AC8
03128:  MOVLB  3
....................    } 
....................    if(Nivel>6){ 
0312A:  MOVF   x7B,F
0312C:  BNZ   3134
0312E:  MOVF   x7A,W
03130:  SUBLW  06
03132:  BC    3176
....................       Nivel=3; 
03134:  CLRF   x7B
03136:  MOVLW  03
03138:  MOVWF  x7A
....................       write_eeprom(9,3); 
0313A:  CLRF   FAA
0313C:  MOVLW  09
0313E:  MOVWF  FA9
03140:  MOVLW  03
03142:  MOVWF  FA8
03144:  BCF    FA6.6
03146:  BCF    FA6.7
03148:  BSF    FA6.2
0314A:  MOVF   FF2,W
0314C:  MOVWF  00
0314E:  BCF    FF2.6
03150:  BCF    FF2.7
03152:  MOVLB  F
03154:  MOVLW  55
03156:  MOVWF  FA7
03158:  MOVLW  AA
0315A:  MOVWF  FA7
0315C:  BSF    FA6.1
0315E:  BTFSC  FA6.1
03160:  BRA    315E
03162:  BCF    FA6.2
03164:  MOVF   00,W
03166:  IORWF  FF2,F
....................       delay_ms(10); 
03168:  MOVLW  0A
0316A:  MOVLB  4
0316C:  MOVWF  x5B
0316E:  MOVLB  0
03170:  CALL   1AC8
03174:  MOVLB  3
....................    } 
....................    if(Password[0]>9 || Password[0]<0){ 
03176:  BTFSC  x8E.7
03178:  BRA    3180
0317A:  MOVF   x8E,W
0317C:  SUBLW  09
0317E:  BNC   3186
03180:  BTFSC  x8E.7
03182:  BRA    3186
03184:  BRA    31C2
....................       Password[0]=0; 
03186:  CLRF   x8E
....................       write_eeprom(10,0); 
03188:  CLRF   FAA
0318A:  MOVLW  0A
0318C:  MOVWF  FA9
0318E:  CLRF   FA8
03190:  BCF    FA6.6
03192:  BCF    FA6.7
03194:  BSF    FA6.2
03196:  MOVF   FF2,W
03198:  MOVWF  00
0319A:  BCF    FF2.6
0319C:  BCF    FF2.7
0319E:  MOVLB  F
031A0:  MOVLW  55
031A2:  MOVWF  FA7
031A4:  MOVLW  AA
031A6:  MOVWF  FA7
031A8:  BSF    FA6.1
031AA:  BTFSC  FA6.1
031AC:  BRA    31AA
031AE:  BCF    FA6.2
031B0:  MOVF   00,W
031B2:  IORWF  FF2,F
....................       delay_ms(10); 
031B4:  MOVLW  0A
031B6:  MOVLB  4
031B8:  MOVWF  x5B
031BA:  MOVLB  0
031BC:  CALL   1AC8
031C0:  MOVLB  3
....................    } 
....................    if(Password[1]>9 || Password[1]<0){ 
031C2:  BTFSC  x8F.7
031C4:  BRA    31CC
031C6:  MOVF   x8F,W
031C8:  SUBLW  09
031CA:  BNC   31D2
031CC:  BTFSC  x8F.7
031CE:  BRA    31D2
031D0:  BRA    320E
....................       Password[1]=0; 
031D2:  CLRF   x8F
....................       write_eeprom(11,0); 
031D4:  CLRF   FAA
031D6:  MOVLW  0B
031D8:  MOVWF  FA9
031DA:  CLRF   FA8
031DC:  BCF    FA6.6
031DE:  BCF    FA6.7
031E0:  BSF    FA6.2
031E2:  MOVF   FF2,W
031E4:  MOVWF  00
031E6:  BCF    FF2.6
031E8:  BCF    FF2.7
031EA:  MOVLB  F
031EC:  MOVLW  55
031EE:  MOVWF  FA7
031F0:  MOVLW  AA
031F2:  MOVWF  FA7
031F4:  BSF    FA6.1
031F6:  BTFSC  FA6.1
031F8:  BRA    31F6
031FA:  BCF    FA6.2
031FC:  MOVF   00,W
031FE:  IORWF  FF2,F
....................       delay_ms(10); 
03200:  MOVLW  0A
03202:  MOVLB  4
03204:  MOVWF  x5B
03206:  MOVLB  0
03208:  CALL   1AC8
0320C:  MOVLB  3
....................    } 
....................    if(Password[2]>9 || Password[2]<0){ 
0320E:  BTFSC  x90.7
03210:  BRA    3218
03212:  MOVF   x90,W
03214:  SUBLW  09
03216:  BNC   321E
03218:  BTFSC  x90.7
0321A:  BRA    321E
0321C:  BRA    325A
....................       Password[2]=0; 
0321E:  CLRF   x90
....................       write_eeprom(12,0); 
03220:  CLRF   FAA
03222:  MOVLW  0C
03224:  MOVWF  FA9
03226:  CLRF   FA8
03228:  BCF    FA6.6
0322A:  BCF    FA6.7
0322C:  BSF    FA6.2
0322E:  MOVF   FF2,W
03230:  MOVWF  00
03232:  BCF    FF2.6
03234:  BCF    FF2.7
03236:  MOVLB  F
03238:  MOVLW  55
0323A:  MOVWF  FA7
0323C:  MOVLW  AA
0323E:  MOVWF  FA7
03240:  BSF    FA6.1
03242:  BTFSC  FA6.1
03244:  BRA    3242
03246:  BCF    FA6.2
03248:  MOVF   00,W
0324A:  IORWF  FF2,F
....................       delay_ms(10); 
0324C:  MOVLW  0A
0324E:  MOVLB  4
03250:  MOVWF  x5B
03252:  MOVLB  0
03254:  CALL   1AC8
03258:  MOVLB  3
....................    } 
....................    if(Password[3]>9 || Password[3]<0){ 
0325A:  BTFSC  x91.7
0325C:  BRA    3264
0325E:  MOVF   x91,W
03260:  SUBLW  09
03262:  BNC   326A
03264:  BTFSC  x91.7
03266:  BRA    326A
03268:  BRA    32A4
....................       Password[3]=0; 
0326A:  CLRF   x91
....................       write_eeprom(13,0); 
0326C:  CLRF   FAA
0326E:  MOVLW  0D
03270:  MOVWF  FA9
03272:  CLRF   FA8
03274:  BCF    FA6.6
03276:  BCF    FA6.7
03278:  BSF    FA6.2
0327A:  MOVF   FF2,W
0327C:  MOVWF  00
0327E:  BCF    FF2.6
03280:  BCF    FF2.7
03282:  MOVLB  F
03284:  MOVLW  55
03286:  MOVWF  FA7
03288:  MOVLW  AA
0328A:  MOVWF  FA7
0328C:  BSF    FA6.1
0328E:  BTFSC  FA6.1
03290:  BRA    328E
03292:  BCF    FA6.2
03294:  MOVF   00,W
03296:  IORWF  FF2,F
....................       delay_ms(10); 
03298:  MOVLW  0A
0329A:  MOVLB  4
0329C:  MOVWF  x5B
0329E:  MOVLB  0
032A0:  CALL   1AC8
....................    } 
....................    if(Ganancia>30.0 || Ganancia<5.0){ 
032A4:  MOVLB  4
032A6:  CLRF   x4D
032A8:  CLRF   x4C
032AA:  MOVLW  70
032AC:  MOVWF  x4B
032AE:  MOVLW  83
032B0:  MOVWF  x4A
032B2:  MOVFF  312,451
032B6:  MOVFF  311,450
032BA:  MOVFF  310,44F
032BE:  MOVFF  30F,44E
032C2:  MOVLB  0
032C4:  RCALL  2DCC
032C6:  BC    32EC
032C8:  MOVFF  312,44D
032CC:  MOVFF  311,44C
032D0:  MOVFF  310,44B
032D4:  MOVFF  30F,44A
032D8:  MOVLB  4
032DA:  CLRF   x51
032DC:  CLRF   x50
032DE:  MOVLW  20
032E0:  MOVWF  x4F
032E2:  MOVLW  81
032E4:  MOVWF  x4E
032E6:  MOVLB  0
032E8:  RCALL  2DCC
032EA:  BNC   3334
....................       Ganancia=12.0; 
032EC:  MOVLB  3
032EE:  CLRF   x12
032F0:  CLRF   x11
032F2:  MOVLW  40
032F4:  MOVWF  x10
032F6:  MOVLW  82
032F8:  MOVWF  x0F
....................       write_eeprom(20,12); 
032FA:  CLRF   FAA
032FC:  MOVLW  14
032FE:  MOVWF  FA9
03300:  MOVLW  0C
03302:  MOVWF  FA8
03304:  BCF    FA6.6
03306:  BCF    FA6.7
03308:  BSF    FA6.2
0330A:  MOVF   FF2,W
0330C:  MOVWF  00
0330E:  BCF    FF2.6
03310:  BCF    FF2.7
03312:  MOVLB  F
03314:  MOVLW  55
03316:  MOVWF  FA7
03318:  MOVLW  AA
0331A:  MOVWF  FA7
0331C:  BSF    FA6.1
0331E:  BTFSC  FA6.1
03320:  BRA    331E
03322:  BCF    FA6.2
03324:  MOVF   00,W
03326:  IORWF  FF2,F
....................       delay_ms(10); 
03328:  MOVLW  0A
0332A:  MOVLB  4
0332C:  MOVWF  x5B
0332E:  MOVLB  0
03330:  CALL   1AC8
....................    } 
....................    if(Ajuste>100){ 
03334:  MOVLB  2
03336:  MOVF   xE0,W
03338:  SUBLW  64
0333A:  BC    3378
....................       Ajuste=0; 
0333C:  CLRF   xE0
....................       write_eeprom(21,0); 
0333E:  CLRF   FAA
03340:  MOVLW  15
03342:  MOVWF  FA9
03344:  CLRF   FA8
03346:  BCF    FA6.6
03348:  BCF    FA6.7
0334A:  BSF    FA6.2
0334C:  MOVF   FF2,W
0334E:  MOVWF  00
03350:  BCF    FF2.6
03352:  BCF    FF2.7
03354:  MOVLB  F
03356:  MOVLW  55
03358:  MOVWF  FA7
0335A:  MOVLW  AA
0335C:  MOVWF  FA7
0335E:  BSF    FA6.1
03360:  BTFSC  FA6.1
03362:  BRA    3360
03364:  BCF    FA6.2
03366:  MOVF   00,W
03368:  IORWF  FF2,F
....................       delay_ms(10); 
0336A:  MOVLW  0A
0336C:  MOVLB  4
0336E:  MOVWF  x5B
03370:  MOVLB  0
03372:  CALL   1AC8
03376:  MOVLB  2
....................    } 
....................    if(Ajusten>100){ 
03378:  MOVF   xE1,W
0337A:  SUBLW  64
0337C:  BC    33BA
....................       Ajusten=0; 
0337E:  CLRF   xE1
....................       write_eeprom(22,0); 
03380:  CLRF   FAA
03382:  MOVLW  16
03384:  MOVWF  FA9
03386:  CLRF   FA8
03388:  BCF    FA6.6
0338A:  BCF    FA6.7
0338C:  BSF    FA6.2
0338E:  MOVF   FF2,W
03390:  MOVWF  00
03392:  BCF    FF2.6
03394:  BCF    FF2.7
03396:  MOVLB  F
03398:  MOVLW  55
0339A:  MOVWF  FA7
0339C:  MOVLW  AA
0339E:  MOVWF  FA7
033A0:  BSF    FA6.1
033A2:  BTFSC  FA6.1
033A4:  BRA    33A2
033A6:  BCF    FA6.2
033A8:  MOVF   00,W
033AA:  IORWF  FF2,F
....................       delay_ms(10); 
033AC:  MOVLW  0A
033AE:  MOVLB  4
033B0:  MOVWF  x5B
033B2:  MOVLB  0
033B4:  CALL   1AC8
033B8:  MOVLB  2
....................    } 
....................    if(MediaMovil>80 || MediaMovil<10){ 
033BA:  MOVF   xE2,W
033BC:  SUBLW  50
033BE:  BNC   33C6
033C0:  MOVF   xE2,W
033C2:  SUBLW  09
033C4:  BNC   3404
....................       MediaMovil=80; 
033C6:  MOVLW  50
033C8:  MOVWF  xE2
....................       write_eeprom(24,80); 
033CA:  CLRF   FAA
033CC:  MOVLW  18
033CE:  MOVWF  FA9
033D0:  MOVLW  50
033D2:  MOVWF  FA8
033D4:  BCF    FA6.6
033D6:  BCF    FA6.7
033D8:  BSF    FA6.2
033DA:  MOVF   FF2,W
033DC:  MOVWF  00
033DE:  BCF    FF2.6
033E0:  BCF    FF2.7
033E2:  MOVLB  F
033E4:  MOVLW  55
033E6:  MOVWF  FA7
033E8:  MOVLW  AA
033EA:  MOVWF  FA7
033EC:  BSF    FA6.1
033EE:  BTFSC  FA6.1
033F0:  BRA    33EE
033F2:  BCF    FA6.2
033F4:  MOVF   00,W
033F6:  IORWF  FF2,F
....................       delay_ms(10); 
033F8:  MOVLW  0A
033FA:  MOVLB  4
033FC:  MOVWF  x5B
033FE:  MOVLB  0
03400:  CALL   1AC8
....................    } 
....................    if(Tciclo>10 || Tciclo<5){ 
03404:  MOVLB  4
03406:  CLRF   x4D
03408:  CLRF   x4C
0340A:  MOVLW  20
0340C:  MOVWF  x4B
0340E:  MOVLW  82
03410:  MOVWF  x4A
03412:  MOVFF  2FA,451
03416:  MOVFF  2F9,450
0341A:  MOVFF  2F8,44F
0341E:  MOVFF  2F7,44E
03422:  MOVLB  0
03424:  RCALL  2DCC
03426:  BC    344C
03428:  MOVFF  2FA,44D
0342C:  MOVFF  2F9,44C
03430:  MOVFF  2F8,44B
03434:  MOVFF  2F7,44A
03438:  MOVLB  4
0343A:  CLRF   x51
0343C:  CLRF   x50
0343E:  MOVLW  20
03440:  MOVWF  x4F
03442:  MOVLW  81
03444:  MOVWF  x4E
03446:  MOVLB  0
03448:  RCALL  2DCC
0344A:  BNC   3494
....................       Tciclo=10; 
0344C:  MOVLB  2
0344E:  CLRF   xFA
03450:  CLRF   xF9
03452:  MOVLW  20
03454:  MOVWF  xF8
03456:  MOVLW  82
03458:  MOVWF  xF7
....................       write_eeprom(25,10); 
0345A:  CLRF   FAA
0345C:  MOVLW  19
0345E:  MOVWF  FA9
03460:  MOVLW  0A
03462:  MOVWF  FA8
03464:  BCF    FA6.6
03466:  BCF    FA6.7
03468:  BSF    FA6.2
0346A:  MOVF   FF2,W
0346C:  MOVWF  00
0346E:  BCF    FF2.6
03470:  BCF    FF2.7
03472:  MOVLB  F
03474:  MOVLW  55
03476:  MOVWF  FA7
03478:  MOVLW  AA
0347A:  MOVWF  FA7
0347C:  BSF    FA6.1
0347E:  BTFSC  FA6.1
03480:  BRA    347E
03482:  BCF    FA6.2
03484:  MOVF   00,W
03486:  IORWF  FF2,F
....................       delay_ms(10); 
03488:  MOVLW  0A
0348A:  MOVLB  4
0348C:  MOVWF  x5B
0348E:  MOVLB  0
03490:  CALL   1AC8
....................    } 
....................    if(Integral>10.0 || Integral<1.0){ 
03494:  MOVLB  4
03496:  CLRF   x5C
03498:  MOVFF  343,45B
0349C:  MOVLB  0
0349E:  CALL   1AF0
034A2:  MOVLB  4
034A4:  CLRF   x4D
034A6:  CLRF   x4C
034A8:  MOVLW  20
034AA:  MOVWF  x4B
034AC:  MOVLW  82
034AE:  MOVWF  x4A
034B0:  MOVFF  03,451
034B4:  MOVFF  02,450
034B8:  MOVFF  01,44F
034BC:  MOVFF  00,44E
034C0:  MOVLB  0
034C2:  RCALL  2DCC
034C4:  BC    34F6
034C6:  MOVLB  4
034C8:  CLRF   x5C
034CA:  MOVFF  343,45B
034CE:  MOVLB  0
034D0:  CALL   1AF0
034D4:  MOVFF  03,44D
034D8:  MOVFF  02,44C
034DC:  MOVFF  01,44B
034E0:  MOVFF  00,44A
034E4:  MOVLB  4
034E6:  CLRF   x51
034E8:  CLRF   x50
034EA:  CLRF   x4F
034EC:  MOVLW  7F
034EE:  MOVWF  x4E
034F0:  MOVLB  0
034F2:  RCALL  2DCC
034F4:  BNC   3536
....................       Integral=1.0; 
034F6:  MOVLW  01
034F8:  MOVLB  3
034FA:  MOVWF  x43
....................       write_eeprom(26,1); 
034FC:  CLRF   FAA
034FE:  MOVLW  1A
03500:  MOVWF  FA9
03502:  MOVLW  01
03504:  MOVWF  FA8
03506:  BCF    FA6.6
03508:  BCF    FA6.7
0350A:  BSF    FA6.2
0350C:  MOVF   FF2,W
0350E:  MOVWF  00
03510:  BCF    FF2.6
03512:  BCF    FF2.7
03514:  MOVLB  F
03516:  MOVLW  55
03518:  MOVWF  FA7
0351A:  MOVLW  AA
0351C:  MOVWF  FA7
0351E:  BSF    FA6.1
03520:  BTFSC  FA6.1
03522:  BRA    3520
03524:  BCF    FA6.2
03526:  MOVF   00,W
03528:  IORWF  FF2,F
....................       delay_ms(10); 
0352A:  MOVLW  0A
0352C:  MOVLB  4
0352E:  MOVWF  x5B
03530:  MOVLB  0
03532:  CALL   1AC8
....................    } 
....................    if(Derivativo>20.0 || Derivativo<5){ 
03536:  MOVLB  4
03538:  CLRF   x5C
0353A:  MOVFF  344,45B
0353E:  MOVLB  0
03540:  CALL   1AF0
03544:  MOVLB  4
03546:  CLRF   x4D
03548:  CLRF   x4C
0354A:  MOVLW  20
0354C:  MOVWF  x4B
0354E:  MOVLW  83
03550:  MOVWF  x4A
03552:  MOVFF  03,451
03556:  MOVFF  02,450
0355A:  MOVFF  01,44F
0355E:  MOVFF  00,44E
03562:  MOVLB  0
03564:  RCALL  2DCC
03566:  BC    3572
03568:  MOVLB  3
0356A:  MOVF   x44,W
0356C:  SUBLW  04
0356E:  BNC   35B2
03570:  MOVLB  0
....................       Derivativo=15.0; 
03572:  MOVLW  0F
03574:  MOVLB  3
03576:  MOVWF  x44
....................       write_eeprom(27,15); 
03578:  CLRF   FAA
0357A:  MOVLW  1B
0357C:  MOVWF  FA9
0357E:  MOVLW  0F
03580:  MOVWF  FA8
03582:  BCF    FA6.6
03584:  BCF    FA6.7
03586:  BSF    FA6.2
03588:  MOVF   FF2,W
0358A:  MOVWF  00
0358C:  BCF    FF2.6
0358E:  BCF    FF2.7
03590:  MOVLB  F
03592:  MOVLW  55
03594:  MOVWF  FA7
03596:  MOVLW  AA
03598:  MOVWF  FA7
0359A:  BSF    FA6.1
0359C:  BTFSC  FA6.1
0359E:  BRA    359C
035A0:  BCF    FA6.2
035A2:  MOVF   00,W
035A4:  IORWF  FF2,F
....................       delay_ms(10); 
035A6:  MOVLW  0A
035A8:  MOVLB  4
035AA:  MOVWF  x5B
035AC:  MOVLB  0
035AE:  CALL   1AC8
....................    } 
....................    if(Gain>50){ 
035B2:  MOVLB  4
035B4:  CLRF   x4D
035B6:  CLRF   x4C
035B8:  MOVLW  48
035BA:  MOVWF  x4B
035BC:  MOVLW  84
035BE:  MOVWF  x4A
035C0:  MOVFF  2AD,451
035C4:  MOVFF  2AC,450
035C8:  MOVFF  2AB,44F
035CC:  MOVFF  2AA,44E
035D0:  MOVLB  0
035D2:  CALL   2DCC
035D6:  BNC   365E
....................       Gain=40.2; 
035D8:  MOVLW  CD
035DA:  MOVLB  2
035DC:  MOVWF  xAD
035DE:  MOVLW  CC
035E0:  MOVWF  xAC
035E2:  MOVLW  20
035E4:  MOVWF  xAB
035E6:  MOVLW  84
035E8:  MOVWF  xAA
....................       write_eeprom(28,40); 
035EA:  CLRF   FAA
035EC:  MOVLW  1C
035EE:  MOVWF  FA9
035F0:  MOVLW  28
035F2:  MOVWF  FA8
035F4:  BCF    FA6.6
035F6:  BCF    FA6.7
035F8:  BSF    FA6.2
035FA:  MOVF   FF2,W
035FC:  MOVWF  00
035FE:  BCF    FF2.6
03600:  BCF    FF2.7
03602:  MOVLB  F
03604:  MOVLW  55
03606:  MOVWF  FA7
03608:  MOVLW  AA
0360A:  MOVWF  FA7
0360C:  BSF    FA6.1
0360E:  BTFSC  FA6.1
03610:  BRA    360E
03612:  BCF    FA6.2
03614:  MOVF   00,W
03616:  IORWF  FF2,F
....................       delay_ms(10); 
03618:  MOVLW  0A
0361A:  MOVLB  4
0361C:  MOVWF  x5B
0361E:  MOVLB  0
03620:  CALL   1AC8
....................       write_eeprom(29,2); 
03624:  CLRF   FAA
03626:  MOVLW  1D
03628:  MOVWF  FA9
0362A:  MOVLW  02
0362C:  MOVWF  FA8
0362E:  BCF    FA6.6
03630:  BCF    FA6.7
03632:  BSF    FA6.2
03634:  MOVF   FF2,W
03636:  MOVWF  00
03638:  BCF    FF2.6
0363A:  BCF    FF2.7
0363C:  MOVLB  F
0363E:  MOVLW  55
03640:  MOVWF  FA7
03642:  MOVLW  AA
03644:  MOVWF  FA7
03646:  BSF    FA6.1
03648:  BTFSC  FA6.1
0364A:  BRA    3648
0364C:  BCF    FA6.2
0364E:  MOVF   00,W
03650:  IORWF  FF2,F
....................       delay_ms(10); 
03652:  MOVLW  0A
03654:  MOVLB  4
03656:  MOVWF  x5B
03658:  MOVLB  0
0365A:  CALL   1AC8
....................    } 
....................    if(R1>6400){ 
0365E:  MOVLB  4
03660:  CLRF   x4D
03662:  CLRF   x4C
03664:  MOVLW  48
03666:  MOVWF  x4B
03668:  MOVLW  8B
0366A:  MOVWF  x4A
0366C:  MOVFF  2B9,451
03670:  MOVFF  2B8,450
03674:  MOVFF  2B7,44F
03678:  MOVFF  2B6,44E
0367C:  MOVLB  0
0367E:  CALL   2DCC
03682:  BNC   3708
....................       R1=6200; 
03684:  MOVLB  2
03686:  CLRF   xB9
03688:  MOVLW  C0
0368A:  MOVWF  xB8
0368C:  MOVLW  41
0368E:  MOVWF  xB7
03690:  MOVLW  8B
03692:  MOVWF  xB6
....................       write_eeprom(30,0x38); 
03694:  CLRF   FAA
03696:  MOVLW  1E
03698:  MOVWF  FA9
0369A:  MOVLW  38
0369C:  MOVWF  FA8
0369E:  BCF    FA6.6
036A0:  BCF    FA6.7
036A2:  BSF    FA6.2
036A4:  MOVF   FF2,W
036A6:  MOVWF  00
036A8:  BCF    FF2.6
036AA:  BCF    FF2.7
036AC:  MOVLB  F
036AE:  MOVLW  55
036B0:  MOVWF  FA7
036B2:  MOVLW  AA
036B4:  MOVWF  FA7
036B6:  BSF    FA6.1
036B8:  BTFSC  FA6.1
036BA:  BRA    36B8
036BC:  BCF    FA6.2
036BE:  MOVF   00,W
036C0:  IORWF  FF2,F
....................       delay_ms(10); 
036C2:  MOVLW  0A
036C4:  MOVLB  4
036C6:  MOVWF  x5B
036C8:  MOVLB  0
036CA:  CALL   1AC8
....................       write_eeprom(31,0x18); 
036CE:  CLRF   FAA
036D0:  MOVLW  1F
036D2:  MOVWF  FA9
036D4:  MOVLW  18
036D6:  MOVWF  FA8
036D8:  BCF    FA6.6
036DA:  BCF    FA6.7
036DC:  BSF    FA6.2
036DE:  MOVF   FF2,W
036E0:  MOVWF  00
036E2:  BCF    FF2.6
036E4:  BCF    FF2.7
036E6:  MOVLB  F
036E8:  MOVLW  55
036EA:  MOVWF  FA7
036EC:  MOVLW  AA
036EE:  MOVWF  FA7
036F0:  BSF    FA6.1
036F2:  BTFSC  FA6.1
036F4:  BRA    36F2
036F6:  BCF    FA6.2
036F8:  MOVF   00,W
036FA:  IORWF  FF2,F
....................       delay_ms(10); 
036FC:  MOVLW  0A
036FE:  MOVLB  4
03700:  MOVWF  x5B
03702:  MOVLB  0
03704:  CALL   1AC8
....................    } 
....................    if(RPT100>2.0){ 
03708:  MOVLB  4
0370A:  CLRF   x4D
0370C:  CLRF   x4C
0370E:  CLRF   x4B
03710:  MOVLW  80
03712:  MOVWF  x4A
03714:  MOVFF  2B1,451
03718:  MOVFF  2B0,450
0371C:  MOVFF  2AF,44F
03720:  MOVFF  2AE,44E
03724:  MOVLB  0
03726:  CALL   2DCC
0372A:  BNC   37AA
....................       RPT100=0.5; 
0372C:  MOVLB  2
0372E:  CLRF   xB1
03730:  CLRF   xB0
03732:  CLRF   xAF
03734:  MOVLW  7E
03736:  MOVWF  xAE
....................       write_eeprom(32,0); 
03738:  CLRF   FAA
0373A:  MOVLW  20
0373C:  MOVWF  FA9
0373E:  CLRF   FA8
03740:  BCF    FA6.6
03742:  BCF    FA6.7
03744:  BSF    FA6.2
03746:  MOVF   FF2,W
03748:  MOVWF  00
0374A:  BCF    FF2.6
0374C:  BCF    FF2.7
0374E:  MOVLB  F
03750:  MOVLW  55
03752:  MOVWF  FA7
03754:  MOVLW  AA
03756:  MOVWF  FA7
03758:  BSF    FA6.1
0375A:  BTFSC  FA6.1
0375C:  BRA    375A
0375E:  BCF    FA6.2
03760:  MOVF   00,W
03762:  IORWF  FF2,F
....................       delay_ms(10); 
03764:  MOVLW  0A
03766:  MOVLB  4
03768:  MOVWF  x5B
0376A:  MOVLB  0
0376C:  CALL   1AC8
....................       write_eeprom(33,5); 
03770:  CLRF   FAA
03772:  MOVLW  21
03774:  MOVWF  FA9
03776:  MOVLW  05
03778:  MOVWF  FA8
0377A:  BCF    FA6.6
0377C:  BCF    FA6.7
0377E:  BSF    FA6.2
03780:  MOVF   FF2,W
03782:  MOVWF  00
03784:  BCF    FF2.6
03786:  BCF    FF2.7
03788:  MOVLB  F
0378A:  MOVLW  55
0378C:  MOVWF  FA7
0378E:  MOVLW  AA
03790:  MOVWF  FA7
03792:  BSF    FA6.1
03794:  BTFSC  FA6.1
03796:  BRA    3794
03798:  BCF    FA6.2
0379A:  MOVF   00,W
0379C:  IORWF  FF2,F
....................       delay_ms(10); 
0379E:  MOVLW  0A
037A0:  MOVLB  4
037A2:  MOVWF  x5B
037A4:  MOVLB  0
037A6:  CALL   1AC8
....................    } 
....................    if(Ciclos>60000){ 
037AA:  MOVLB  3
037AC:  MOVF   x83,W
037AE:  SUBLW  E9
037B0:  BC    3830
037B2:  XORLW  FF
037B4:  BNZ   37BC
037B6:  MOVF   x82,W
037B8:  SUBLW  60
037BA:  BC    3830
....................       Ciclos=0; 
037BC:  CLRF   x83
037BE:  CLRF   x82
....................       write_eeprom(37,0); 
037C0:  CLRF   FAA
037C2:  MOVLW  25
037C4:  MOVWF  FA9
037C6:  CLRF   FA8
037C8:  BCF    FA6.6
037CA:  BCF    FA6.7
037CC:  BSF    FA6.2
037CE:  MOVF   FF2,W
037D0:  MOVWF  00
037D2:  BCF    FF2.6
037D4:  BCF    FF2.7
037D6:  MOVLB  F
037D8:  MOVLW  55
037DA:  MOVWF  FA7
037DC:  MOVLW  AA
037DE:  MOVWF  FA7
037E0:  BSF    FA6.1
037E2:  BTFSC  FA6.1
037E4:  BRA    37E2
037E6:  BCF    FA6.2
037E8:  MOVF   00,W
037EA:  IORWF  FF2,F
....................       delay_ms(10); 
037EC:  MOVLW  0A
037EE:  MOVLB  4
037F0:  MOVWF  x5B
037F2:  MOVLB  0
037F4:  CALL   1AC8
....................       write_eeprom(38,0); 
037F8:  CLRF   FAA
037FA:  MOVLW  26
037FC:  MOVWF  FA9
037FE:  CLRF   FA8
03800:  BCF    FA6.6
03802:  BCF    FA6.7
03804:  BSF    FA6.2
03806:  MOVF   FF2,W
03808:  MOVWF  00
0380A:  BCF    FF2.6
0380C:  BCF    FF2.7
0380E:  MOVLB  F
03810:  MOVLW  55
03812:  MOVWF  FA7
03814:  MOVLW  AA
03816:  MOVWF  FA7
03818:  BSF    FA6.1
0381A:  BTFSC  FA6.1
0381C:  BRA    381A
0381E:  BCF    FA6.2
03820:  MOVF   00,W
03822:  IORWF  FF2,F
....................       delay_ms(10); 
03824:  MOVLW  0A
03826:  MOVLB  4
03828:  MOVWF  x5B
0382A:  MOVLB  0
0382C:  CALL   1AC8
....................    } 
....................    if(TTrampa>100){ 
03830:  MOVLB  2
03832:  MOVF   xE3,W
03834:  SUBLW  64
03836:  BC    3876
....................       TTrampa=80; 
03838:  MOVLW  50
0383A:  MOVWF  xE3
....................       write_eeprom(39,80); 
0383C:  CLRF   FAA
0383E:  MOVLW  27
03840:  MOVWF  FA9
03842:  MOVLW  50
03844:  MOVWF  FA8
03846:  BCF    FA6.6
03848:  BCF    FA6.7
0384A:  BSF    FA6.2
0384C:  MOVF   FF2,W
0384E:  MOVWF  00
03850:  BCF    FF2.6
03852:  BCF    FF2.7
03854:  MOVLB  F
03856:  MOVLW  55
03858:  MOVWF  FA7
0385A:  MOVLW  AA
0385C:  MOVWF  FA7
0385E:  BSF    FA6.1
03860:  BTFSC  FA6.1
03862:  BRA    3860
03864:  BCF    FA6.2
03866:  MOVF   00,W
03868:  IORWF  FF2,F
....................       delay_ms(10); 
0386A:  MOVLW  0A
0386C:  MOVLB  4
0386E:  MOVWF  x5B
03870:  MOVLB  0
03872:  CALL   1AC8
....................    } 
....................    if(ActivaImpresion>1){ 
03876:  MOVLB  3
03878:  MOVF   x5D,W
0387A:  SUBLW  01
0387C:  BC    38BE
....................       ActivaImpresion=1; 
0387E:  MOVLW  01
03880:  MOVWF  x5D
....................       write_eeprom(40,1); 
03882:  CLRF   FAA
03884:  MOVLW  28
03886:  MOVWF  FA9
03888:  MOVLW  01
0388A:  MOVWF  FA8
0388C:  BCF    FA6.6
0388E:  BCF    FA6.7
03890:  BSF    FA6.2
03892:  MOVF   FF2,W
03894:  MOVWF  00
03896:  BCF    FF2.6
03898:  BCF    FF2.7
0389A:  MOVLB  F
0389C:  MOVLW  55
0389E:  MOVWF  FA7
038A0:  MOVLW  AA
038A2:  MOVWF  FA7
038A4:  BSF    FA6.1
038A6:  BTFSC  FA6.1
038A8:  BRA    38A6
038AA:  BCF    FA6.2
038AC:  MOVF   00,W
038AE:  IORWF  FF2,F
....................       delay_ms(10); 
038B0:  MOVLW  0A
038B2:  MOVLB  4
038B4:  MOVWF  x5B
038B6:  MOVLB  0
038B8:  CALL   1AC8
038BC:  MOVLB  3
....................    } 
....................    if(timpresion>30){ 
038BE:  MOVF   x5E,W
038C0:  SUBLW  1E
038C2:  BC    3904
....................       timpresion=2; 
038C4:  MOVLW  02
038C6:  MOVWF  x5E
....................       write_eeprom(41,2); 
038C8:  CLRF   FAA
038CA:  MOVLW  29
038CC:  MOVWF  FA9
038CE:  MOVLW  02
038D0:  MOVWF  FA8
038D2:  BCF    FA6.6
038D4:  BCF    FA6.7
038D6:  BSF    FA6.2
038D8:  MOVF   FF2,W
038DA:  MOVWF  00
038DC:  BCF    FF2.6
038DE:  BCF    FF2.7
038E0:  MOVLB  F
038E2:  MOVLW  55
038E4:  MOVWF  FA7
038E6:  MOVLW  AA
038E8:  MOVWF  FA7
038EA:  BSF    FA6.1
038EC:  BTFSC  FA6.1
038EE:  BRA    38EC
038F0:  BCF    FA6.2
038F2:  MOVF   00,W
038F4:  IORWF  FF2,F
....................       delay_ms(10); 
038F6:  MOVLW  0A
038F8:  MOVLB  4
038FA:  MOVWF  x5B
038FC:  MOVLB  0
038FE:  CALL   1AC8
03902:  MOVLB  3
....................    } 
....................    if(Atmosferica>100 || Atmosferica<50){ 
03904:  MOVF   xB5,W
03906:  SUBLW  64
03908:  BNC   3910
0390A:  MOVF   xB5,W
0390C:  SUBLW  31
0390E:  BNC   3950
....................       Atmosferica=72; 
03910:  MOVLW  48
03912:  MOVWF  xB5
....................       write_eeprom(46,72); 
03914:  CLRF   FAA
03916:  MOVLW  2E
03918:  MOVWF  FA9
0391A:  MOVLW  48
0391C:  MOVWF  FA8
0391E:  BCF    FA6.6
03920:  BCF    FA6.7
03922:  BSF    FA6.2
03924:  MOVF   FF2,W
03926:  MOVWF  00
03928:  BCF    FF2.6
0392A:  BCF    FF2.7
0392C:  MOVLB  F
0392E:  MOVLW  55
03930:  MOVWF  FA7
03932:  MOVLW  AA
03934:  MOVWF  FA7
03936:  BSF    FA6.1
03938:  BTFSC  FA6.1
0393A:  BRA    3938
0393C:  BCF    FA6.2
0393E:  MOVF   00,W
03940:  IORWF  FF2,F
....................       delay_ms(10); 
03942:  MOVLW  0A
03944:  MOVLB  4
03946:  MOVWF  x5B
03948:  MOVLB  0
0394A:  CALL   1AC8
0394E:  MOVLB  3
....................    } 
....................    if(sg1==10){ 
03950:  MOVF   xB8,W
03952:  SUBLW  0A
03954:  BNZ   396C
....................       G1=G1*(-1); 
03956:  MOVFF  3B6,448
0395A:  MOVLW  FF
0395C:  MOVLB  4
0395E:  MOVWF  x49
03960:  MOVLB  0
03962:  CALL   2E46
03966:  MOVFF  01,3B6
0396A:  MOVLB  3
....................    } 
....................    if(sg2==10){ 
0396C:  MOVF   xB9,W
0396E:  SUBLW  0A
03970:  BNZ   3988
....................       G2=G2*(-1); 
03972:  MOVFF  3B7,448
03976:  MOVLW  FF
03978:  MOVLB  4
0397A:  MOVWF  x49
0397C:  MOVLB  0
0397E:  CALL   2E46
03982:  MOVFF  01,3B7
03986:  MOVLB  3
....................    } 
.................... } 
03988:  MOVLB  0
0398A:  GOTO   7F0C (RETURN)
....................  
.................... void LeeDisplay(void){ 
....................    if(Dato_Exitoso==5){ 
*
04400:  MOVLB  3
04402:  MOVF   x61,W
04404:  SUBLW  05
04406:  BTFSS  FD8.2
04408:  BRA    457E
....................          RX_Buffer[0]=RX_Buffer2[0]; 
0440A:  MOVFF  3B,30
....................          RX_Buffer[1]=RX_Buffer2[1]; 
0440E:  MOVFF  3C,31
....................          RX_Buffer[2]=RX_Buffer2[2]; 
04412:  MOVFF  3D,32
....................          RX_Buffer[3]=RX_Buffer2[3]; 
04416:  MOVFF  3E,33
....................          RX_Buffer[4]=RX_Buffer2[4]; 
0441A:  MOVFF  3F,34
....................          RX_Buffer[5]=RX_Buffer2[5]; 
0441E:  MOVFF  40,35
....................          RX_Buffer[6]=RX_Buffer2[6]; 
04422:  MOVFF  41,36
....................          RX_Buffer[7]=RX_Buffer2[7]; 
04426:  MOVFF  42,37
....................          RX_Buffer[8]=RX_Buffer2[8]; 
0442A:  MOVFF  43,38
....................          RX_Buffer[9]=RX_Buffer2[9]; 
0442E:  MOVFF  44,39
....................           
....................       if(RX_Buffer[3]==0x01){// Pregunta por la pagina en la que esta el display,01 es Contrasea de Acceso 
04432:  DECFSZ 33,W
04434:  BRA    4444
....................          Menu=0; 
04436:  CLRF   x64
....................          if(MenuAntt!=Menu) 
04438:  MOVF   x64,W
0443A:  SUBWF  x66,W
0443C:  BZ    4442
....................             MenuAntt=Menu; 
0443E:  MOVFF  364,366
....................       }else if(RX_Buffer[3]==0x02){//02 es Menu Principal con PantallaPriincipal=0, y con PantallaPrincipal=1 es Ciclo Libre 
04442:  BRA    457C
04444:  MOVF   33,W
04446:  SUBLW  02
04448:  BNZ   445A
....................          Menu=1; 
0444A:  MOVLW  01
0444C:  MOVWF  x64
....................          if(MenuAntt!=Menu) 
0444E:  MOVF   x64,W
04450:  SUBWF  x66,W
04452:  BZ    4458
....................             MenuAntt=Menu; 
04454:  MOVFF  364,366
....................       }else if(RX_Buffer[3]==0x03){//03 es Tiempo Esterilizacion 
04458:  BRA    457C
0445A:  MOVF   33,W
0445C:  SUBLW  03
0445E:  BNZ   4470
....................          Menu=2; 
04460:  MOVLW  02
04462:  MOVWF  x64
....................          if(MenuAntt!=Menu) 
04464:  MOVF   x64,W
04466:  SUBWF  x66,W
04468:  BZ    446E
....................             MenuAntt=Menu; 
0446A:  MOVFF  364,366
....................       }else if(RX_Buffer[3]==0x04){//04 es Tiempo de Secado 
0446E:  BRA    457C
04470:  MOVF   33,W
04472:  SUBLW  04
04474:  BNZ   4486
....................          Menu=3; 
04476:  MOVLW  03
04478:  MOVWF  x64
....................          if(MenuAntt!=Menu) 
0447A:  MOVF   x64,W
0447C:  SUBWF  x66,W
0447E:  BZ    4484
....................             MenuAntt=Menu; 
04480:  MOVFF  364,366
....................       }else if(RX_Buffer[3]==0x05){//05 es Temperatura 
04484:  BRA    457C
04486:  MOVF   33,W
04488:  SUBLW  05
0448A:  BNZ   449C
....................          Menu=4; 
0448C:  MOVLW  04
0448E:  MOVWF  x64
....................          if(MenuAntt!=Menu) 
04490:  MOVF   x64,W
04492:  SUBWF  x66,W
04494:  BZ    449A
....................             MenuAntt=Menu; 
04496:  MOVFF  364,366
....................       }else if(RX_Buffer[3]==0x06){//06 es Nivel 
0449A:  BRA    457C
0449C:  MOVF   33,W
0449E:  SUBLW  06
044A0:  BNZ   44B2
....................          Menu=5; 
044A2:  MOVLW  05
044A4:  MOVWF  x64
....................          if(MenuAntt!=Menu) 
044A6:  MOVF   x64,W
044A8:  SUBWF  x66,W
044AA:  BZ    44B0
....................             MenuAntt=Menu; 
044AC:  MOVFF  364,366
....................       }else if(RX_Buffer[3]==0x07){//07 es Test de Componentes 
044B0:  BRA    457C
044B2:  MOVF   33,W
044B4:  SUBLW  07
044B6:  BNZ   44C8
....................          Menu=6; 
044B8:  MOVLW  06
044BA:  MOVWF  x64
....................          if(MenuAntt!=Menu) 
044BC:  MOVF   x64,W
044BE:  SUBWF  x66,W
044C0:  BZ    44C6
....................             MenuAntt=Menu; 
044C2:  MOVFF  364,366
....................       }else if(RX_Buffer[3]==0x08){//08 es Fecha y hora 
044C6:  BRA    457C
044C8:  MOVF   33,W
044CA:  SUBLW  08
044CC:  BNZ   44DE
....................          Menu=7; 
044CE:  MOVLW  07
044D0:  MOVWF  x64
....................          if(MenuAntt!=Menu) 
044D2:  MOVF   x64,W
044D4:  SUBWF  x66,W
044D6:  BZ    44DC
....................             MenuAntt=Menu; 
044D8:  MOVFF  364,366
....................       }else if(RX_Buffer[3]==0x09){//09 es Ciclos Personalizados 
044DC:  BRA    457C
044DE:  MOVF   33,W
044E0:  SUBLW  09
044E2:  BNZ   44F4
....................          Menu=8; 
044E4:  MOVLW  08
044E6:  MOVWF  x64
....................          if(MenuAntt!=Menu) 
044E8:  MOVF   x64,W
044EA:  SUBWF  x66,W
044EC:  BZ    44F2
....................             MenuAntt=Menu; 
044EE:  MOVFF  364,366
....................       }else if(RX_Buffer[3]==0x0d){//0d es Ciclos 
044F2:  BRA    457C
044F4:  MOVF   33,W
044F6:  SUBLW  0D
044F8:  BNZ   450A
....................          Menu=12; 
044FA:  MOVLW  0C
044FC:  MOVWF  x64
....................          if(MenuAntt!=Menu) 
044FE:  MOVF   x64,W
04500:  SUBWF  x66,W
04502:  BZ    4508
....................             MenuAntt=Menu; 
04504:  MOVFF  364,366
....................       }else if(RX_Buffer[3]==0x0f){//0f es Recibe caracteres de contrasea desde display 
04508:  BRA    457C
0450A:  MOVF   33,W
0450C:  SUBLW  0F
0450E:  BNZ   4512
....................           
....................       }else if(RX_Buffer[3]==0x1a){//1a es Menu de Funcionamiento 
04510:  BRA    457C
04512:  MOVF   33,W
04514:  SUBLW  1A
04516:  BNZ   4528
....................          Menu=20; 
04518:  MOVLW  14
0451A:  MOVWF  x64
....................          if(MenuAntt!=Menu) 
0451C:  MOVF   x64,W
0451E:  SUBWF  x66,W
04520:  BZ    4526
....................             MenuAntt=Menu; 
04522:  MOVFF  364,366
....................       }else if(RX_Buffer[3]==0x1b){//1b es Menu de clave correcta 
04526:  BRA    457C
04528:  MOVF   33,W
0452A:  SUBLW  1B
0452C:  BNZ   453E
....................          Menu=15; 
0452E:  MOVLW  0F
04530:  MOVWF  x64
....................          if(MenuAntt!=Menu) 
04532:  MOVF   x64,W
04534:  SUBWF  x66,W
04536:  BZ    453C
....................             MenuAntt=Menu; 
04538:  MOVFF  364,366
....................       }else if(RX_Buffer[3]==0x1c){//1c es Menu de clave incorrecta 
0453C:  BRA    457C
0453E:  MOVF   33,W
04540:  SUBLW  1C
04542:  BNZ   4554
....................          Menu=16; 
04544:  MOVLW  10
04546:  MOVWF  x64
....................          if(MenuAntt!=Menu) 
04548:  MOVF   x64,W
0454A:  SUBWF  x66,W
0454C:  BZ    4552
....................             MenuAntt=Menu; 
0454E:  MOVFF  364,366
....................       }else if(RX_Buffer[3]==0x2c){//2c es Menu de Configuracion de Parametros 
04552:  BRA    457C
04554:  MOVF   33,W
04556:  SUBLW  2C
04558:  BNZ   456A
....................          Menu=100; 
0455A:  MOVLW  64
0455C:  MOVWF  x64
....................          if(MenuAntt!=Menu) 
0455E:  MOVF   x64,W
04560:  SUBWF  x66,W
04562:  BZ    4568
....................             MenuAntt=Menu; 
04564:  MOVFF  364,366
....................       }else if(RX_Buffer[3]==0xcc){//cc es Menu de Bienvenida 
04568:  BRA    457C
0456A:  MOVF   33,W
0456C:  SUBLW  CC
0456E:  BNZ   457C
....................          Menu=240; 
04570:  MOVLW  F0
04572:  MOVWF  x64
....................          if(MenuAntt!=240) 
04574:  MOVF   x66,W
04576:  SUBLW  F0
04578:  BZ    457C
....................             reset_cpu(); 
0457A:  RESET
....................       } 
....................    }else{ 
0457C:  BRA    458A
....................       for(z=0;z<RX_BUFFER_SIZE;z++){ 
0457E:  CLRF   x63
04580:  MOVF   x63,W
04582:  SUBLW  09
04584:  BNC   458A
....................             //Rx_Buffer[z]=0; 
....................             //Rx_Buffer2[z]=0; 
....................          } 
04586:  INCF   x63,F
04588:  BRA    4580
....................    } 
.................... } 
0458A:  MOVLB  0
0458C:  GOTO   8086 (RETURN)
....................  
.................... void ConfiguraCiclo(int8 este0,este1,este2,este3,secado0,secado1,secado2,secado3,liquidos,ciclo,temperatura){ 
....................    Testerilizacionp[0]=este0;Testerilizacionp[1]=este1;Testerilizacionp[2]=este2;Testerilizacionp[3]=este3; 
*
0539E:  MOVFF  450,BD
053A2:  MOVFF  451,BE
053A6:  MOVFF  452,BF
053AA:  MOVFF  453,C0
....................    Tsecadop[0]=secado0;Tsecadop[1]=secado1;Tsecadop[2]=secado2;Tsecadop[3]=secado3; 
053AE:  MOVFF  454,C6
053B2:  MOVFF  455,C7
053B6:  MOVFF  456,C8
053BA:  MOVFF  457,C9
....................    Setpoint=temperatura;                
053BE:  MOVFF  45A,36B
....................    tiempo_secado=0; 
053C2:  MOVLB  3
053C4:  CLRF   x6F
....................    desfoguelento=liquidos; 
053C6:  MOVLB  0
053C8:  BCF    xA5.1
053CA:  MOVLB  4
053CC:  BTFSS  x58.0
053CE:  BRA    53D6
053D0:  MOVLB  0
053D2:  BSF    xA5.1
053D4:  MOVLB  4
....................    CicloSeleccionado=ciclo; 
053D6:  MOVFF  459,36A
....................    Testerilizacion[0]=Testerilizacionp[0];Testerilizacion[1]=Testerilizacionp[1];Testerilizacion[2]=Testerilizacionp[2]; 
053DA:  MOVFF  BD,B8
053DE:  MOVFF  BE,B9
053E2:  MOVFF  BF,BA
....................    Testerilizacion[3]=Testerilizacionp[3];Testerilizacion[4]=Testerilizacionp[4]; 
053E6:  MOVFF  C0,BB
053EA:  MOVFF  C1,BC
....................    Tsecado[0]=Tsecadop[0];Tsecado[1]=Tsecadop[1];Tsecado[2]=Tsecadop[2];Tsecado[3]=Tsecadop[3]; 
053EE:  MOVFF  C6,C2
053F2:  MOVFF  C7,C3
053F6:  MOVFF  C8,C4
053FA:  MOVFF  C9,C5
....................    Imprime=15; 
053FE:  MOVLW  0F
05400:  MOVLB  3
05402:  MOVWF  xB4
....................    Envio_Esclavos(); 
05404:  MOVLB  0
05406:  CALL   4756
....................    delay_ms(100); 
0540A:  MOVLW  64
0540C:  MOVLB  4
0540E:  MOVWF  x5B
05410:  MOVLB  0
05412:  CALL   1AC8
....................    Imprime=10; 
05416:  MOVLW  0A
05418:  MOVLB  3
0541A:  MOVWF  xB4
.................... } 
0541C:  MOVLB  0
0541E:  RETLW  00
....................  
.................... void ActivaAlarma(int8 Tipo){ 
....................     
....................    if(tsilencio>12000){ 
*
0495C:  MOVLB  3
0495E:  MOVF   x9E,W
04960:  SUBLW  2D
04962:  BC    4976
04964:  XORLW  FF
04966:  BNZ   496E
04968:  MOVF   x9D,W
0496A:  SUBLW  E0
0496C:  BC    4976
....................       tsilencio=0; 
0496E:  CLRF   x9E
04970:  CLRF   x9D
....................       flagSilencio=OFF; 
04972:  MOVLB  0
04974:  BCF    xA3.6
....................    } 
....................     
....................    if(Tipo==1){ // Alarma por Error 
04976:  MOVLB  4
04978:  DECFSZ x46,W
0497A:  BRA    49D0
....................    if(UP || DOWN || RIGHT || LEFT) 
0497C:  BSF    F93.0
0497E:  BTFSS  F81.0
04980:  BRA    4994
04982:  BSF    F93.1
04984:  BTFSS  F81.1
04986:  BRA    4994
04988:  BSF    F93.2
0498A:  BTFSS  F81.2
0498C:  BRA    4994
0498E:  BSF    F93.3
04990:  BTFSC  F81.3
04992:  BRA    4998
....................       flagSilencio=ON; 
04994:  MOVLB  0
04996:  BSF    xA3.6
....................        
....................       if(!flagSilencio){ 
04998:  MOVLB  0
0499A:  BTFSC  xA3.6
0499C:  BRA    49C6
....................          flagAlarma=1; 
0499E:  BSF    xA3.1
....................          if(tbuzzer>200){ 
049A0:  MOVLB  3
049A2:  MOVF   x9C,F
049A4:  BNZ   49AC
049A6:  MOVF   x9B,W
049A8:  SUBLW  C8
049AA:  BC    49C2
....................             tbuzzer=0; 
049AC:  CLRF   x9C
049AE:  CLRF   x9B
....................             if(flagBuzzer) 
049B0:  MOVLB  0
049B2:  BTFSS  xA3.5
049B4:  BRA    49BC
....................                Buzzer_on; 
049B6:  BSF    F8C.0
049B8:  BCF    F95.0
....................             else 
049BA:  BRA    49C0
....................                Buzzer_off; 
049BC:  BCF    F8C.0
049BE:  BCF    F95.0
049C0:  MOVLB  3
....................          } 
....................       }else{ 
049C2:  BRA    49CC
049C4:  MOVLB  0
....................          Buzzer_off; 
049C6:  BCF    F8C.0
049C8:  BCF    F95.0
049CA:  MOVLB  3
....................       } 
....................    }else if(Tipo==2){ 
049CC:  BRA    4A8A
049CE:  MOVLB  4
049D0:  MOVF   x46,W
049D2:  SUBLW  02
049D4:  BNZ   4A2E
....................    if(UP || DOWN || RIGHT || LEFT) 
049D6:  BSF    F93.0
049D8:  BTFSS  F81.0
049DA:  BRA    49EE
049DC:  BSF    F93.1
049DE:  BTFSS  F81.1
049E0:  BRA    49EE
049E2:  BSF    F93.2
049E4:  BTFSS  F81.2
049E6:  BRA    49EE
049E8:  BSF    F93.3
049EA:  BTFSC  F81.3
049EC:  BRA    49F4
....................       ConteoBuzzer=21; 
049EE:  MOVLW  15
049F0:  MOVLB  3
049F2:  MOVWF  x98
....................        
....................       flagAlarma=1; 
049F4:  MOVLB  0
049F6:  BSF    xA3.1
....................       if(ConteoBuzzer<20){    
049F8:  MOVLB  3
049FA:  MOVF   x98,W
049FC:  SUBLW  13
049FE:  BNC   4A26
....................          if(tbuzzer>100){ 
04A00:  MOVF   x9C,F
04A02:  BNZ   4A0A
04A04:  MOVF   x9B,W
04A06:  SUBLW  64
04A08:  BC    4A24
....................             tbuzzer=0; 
04A0A:  CLRF   x9C
04A0C:  CLRF   x9B
....................             flagBuzzer=!flagBuzzer; 
04A0E:  MOVLB  0
04A10:  BTG    xA3.5
....................             if(flagBuzzer) 
04A12:  BTFSS  xA3.5
04A14:  BRA    4A1C
....................                Buzzer_on; 
04A16:  BSF    F8C.0
04A18:  BCF    F95.0
....................             else 
04A1A:  BRA    4A20
....................                Buzzer_off; 
04A1C:  BCF    F8C.0
04A1E:  BCF    F95.0
....................                 
....................             ConteoBuzzer++;    
04A20:  MOVLB  3
04A22:  INCF   x98,F
....................          } 
....................       }else{ 
04A24:  BRA    4A2A
....................          Buzzer_off; 
04A26:  BCF    F8C.0
04A28:  BCF    F95.0
....................       } 
....................    }else if(Tipo==3){ 
04A2A:  BRA    4A8A
04A2C:  MOVLB  4
04A2E:  MOVF   x46,W
04A30:  SUBLW  03
04A32:  BNZ   4A8C
....................       flagAlarma=1; 
04A34:  MOVLB  0
04A36:  BSF    xA3.1
....................       if(tbuzzer<400){    
04A38:  MOVLB  3
04A3A:  MOVF   x9C,W
04A3C:  SUBLW  01
04A3E:  BNC   4A4E
04A40:  BNZ   4A48
04A42:  MOVF   x9B,W
04A44:  SUBLW  8F
04A46:  BNC   4A4E
....................          Buzzer_on; 
04A48:  BSF    F8C.0
04A4A:  BCF    F95.0
....................       }else if(tbuzzer>400 && tbuzzer<2000){ 
04A4C:  BRA    4A8A
04A4E:  MOVF   x9C,W
04A50:  SUBLW  00
04A52:  BC    4A72
04A54:  XORLW  FF
04A56:  BNZ   4A5E
04A58:  MOVF   x9B,W
04A5A:  SUBLW  90
04A5C:  BC    4A72
04A5E:  MOVF   x9C,W
04A60:  SUBLW  07
04A62:  BNC   4A72
04A64:  BNZ   4A6C
04A66:  MOVF   x9B,W
04A68:  SUBLW  CF
04A6A:  BNC   4A72
....................          Buzzer_off; 
04A6C:  BCF    F8C.0
04A6E:  BCF    F95.0
....................       }else if(tbuzzer>2000){ 
04A70:  BRA    4A8A
04A72:  MOVF   x9C,W
04A74:  SUBLW  06
04A76:  BC    4A8A
04A78:  XORLW  FF
04A7A:  BNZ   4A82
04A7C:  MOVF   x9B,W
04A7E:  SUBLW  D0
04A80:  BC    4A8A
....................          Buzzer_off; 
04A82:  BCF    F8C.0
04A84:  BCF    F95.0
....................          tbuzzer=0; 
04A86:  CLRF   x9C
04A88:  CLRF   x9B
04A8A:  MOVLB  4
....................       } 
....................    } 
.................... } 
04A8C:  MOVLB  0
04A8E:  RETLW  00
....................  
....................  
.................... void CalientaChaqueta(){ 
....................    /*if(PresionPrecamara<130){ 
....................       SSR_on; 
....................    }else if(PresionPreCamara>150){ 
....................       SSR_off; 
....................    } 
....................    */                                  
....................    Tp=50; 
....................    Tc=(Tciclo/0.005); 
....................    Controlando=1;  
.................... } 
....................  
.................... void ApagaSalidas(){ 
....................    Desfogue_off; 
*
039F6:  BCF    F8C.4
039F8:  BCF    F95.4
....................    #ifdef Generador 
....................    Paso_off; 
039FA:  BCF    F8C.6
039FC:  BCF    F95.6
....................    #else 
....................    Bomba_off; 
....................    #endif 
....................    Buzzer_off; 
039FE:  BCF    F8C.0
03A00:  BCF    F95.0
....................    SSR_off; 
03A02:  BSF    F8B.2
03A04:  BCF    F94.2
....................    Aire=OFF; 
03A06:  BCF    xA4.4
....................    Agua_off; 
03A08:  BCF    F8C.5
03A0A:  BCF    F95.5
....................    Controlando=0; 
03A0C:  MOVLB  3
03A0E:  CLRF   x5C
.................... } 
03A10:  MOVLB  0
03A12:  RETLW  00
....................  
.................... int8 extraeDecima(int8 tiempo){ 
*
0563C:  MOVLB  4
0563E:  CLRF   x4E
05640:  CLRF   x4F
....................    int8 tmp=0,decima=0; 
....................    tmp=tiempo/10; 
05642:  MOVFF  44D,450
05646:  MOVLW  0A
05648:  MOVWF  x51
0564A:  MOVLB  0
0564C:  CALL   4AEE
05650:  MOVFF  01,44E
....................    tmp=tmp*10; 
05654:  MOVLB  4
05656:  MOVF   x4E,W
05658:  MULLW  0A
0565A:  MOVFF  FF3,44E
....................    decima=tiempo-tmp; 
0565E:  MOVF   x4E,W
05660:  SUBWF  x4D,W
05662:  MOVWF  x4F
....................    return decima; 
05664:  MOVFF  44F,01
.................... } 
05668:  MOVLB  0
0566A:  RETLW  00
....................  
.................... int8 extraeDecimal(float data){ 
*
06AB0:  MOVLB  4
06AB2:  CLRF   x53
06AB4:  CLRF   x52
06AB6:  CLRF   x51
06AB8:  CLRF   x50
06ABA:  CLRF   x57
06ABC:  CLRF   x56
06ABE:  CLRF   x55
06AC0:  CLRF   x54
....................    float entero=0; 
....................    float tmp=0.0; 
....................     
....................    entero=(int8)data; 
06AC2:  MOVFF  44F,45E
06AC6:  MOVFF  44E,45D
06ACA:  MOVFF  44D,45C
06ACE:  MOVFF  44C,45B
06AD2:  MOVLB  0
06AD4:  CALL   41C6
06AD8:  MOVLB  4
06ADA:  CLRF   x5C
06ADC:  MOVFF  01,45B
06AE0:  MOVLB  0
06AE2:  CALL   1AF0
06AE6:  MOVFF  03,453
06AEA:  MOVFF  02,452
06AEE:  MOVFF  01,451
06AF2:  MOVFF  00,450
....................    tmp=(data-entero)*10; 
06AF6:  BSF    FD8.1
06AF8:  MOVFF  44F,45E
06AFC:  MOVFF  44E,45D
06B00:  MOVFF  44D,45C
06B04:  MOVFF  44C,45B
06B08:  MOVFF  453,462
06B0C:  MOVFF  452,461
06B10:  MOVFF  451,460
06B14:  MOVFF  450,45F
06B18:  CALL   1C84
06B1C:  MOVFF  00,458
06B20:  MOVFF  01,459
06B24:  MOVFF  02,45A
06B28:  MOVFF  03,45B
06B2C:  MOVFF  03,462
06B30:  MOVFF  02,461
06B34:  MOVFF  01,460
06B38:  MOVFF  00,45F
06B3C:  MOVLB  4
06B3E:  CLRF   x66
06B40:  CLRF   x65
06B42:  MOVLW  20
06B44:  MOVWF  x64
06B46:  MOVLW  82
06B48:  MOVWF  x63
06B4A:  MOVLB  0
06B4C:  CALL   3A8E
06B50:  MOVFF  03,457
06B54:  MOVFF  02,456
06B58:  MOVFF  01,455
06B5C:  MOVFF  00,454
....................    return (int8)tmp; 
06B60:  MOVFF  457,45E
06B64:  MOVFF  456,45D
06B68:  MOVFF  455,45C
06B6C:  MOVFF  454,45B
06B70:  CALL   41C6
06B74:  MOVF   01,W
.................... } 
06B76:  GOTO   6C88 (RETURN)
....................  
.................... void actualizaTabla(){ 
....................    diaCiclos=read_ext_eeprom(2+(cicloVisto*320)); 
*
057CE:  MOVLB  4
057D0:  CLRF   x50
057D2:  MOVFF  2E9,44F
057D6:  MOVLW  01
057D8:  MOVWF  x52
057DA:  MOVLW  40
057DC:  MOVWF  x51
057DE:  MOVLB  0
057E0:  CALL   3A6C
057E4:  MOVFF  02,03
057E8:  MOVF   01,W
057EA:  ADDLW  02
057EC:  MOVLB  4
057EE:  MOVWF  x46
057F0:  MOVLW  00
057F2:  ADDWFC 02,W
057F4:  MOVWF  x47
057F6:  MOVWF  x4C
057F8:  MOVFF  446,44B
057FC:  MOVLB  0
057FE:  RCALL  56D8
05800:  MOVFF  01,3CC
....................          if(diaCiclos>31) 
05804:  MOVLB  3
05806:  MOVF   xCC,W
05808:  SUBLW  1F
0580A:  BC    5810
....................             diaCiclos=1; 
0580C:  MOVLW  01
0580E:  MOVWF  xCC
....................          mesCiclos=read_ext_eeprom(3+(cicloVisto*320)); 
05810:  MOVLB  4
05812:  CLRF   x50
05814:  MOVFF  2E9,44F
05818:  MOVLW  01
0581A:  MOVWF  x52
0581C:  MOVLW  40
0581E:  MOVWF  x51
05820:  MOVLB  0
05822:  CALL   3A6C
05826:  MOVFF  02,03
0582A:  MOVF   01,W
0582C:  ADDLW  03
0582E:  MOVLB  4
05830:  MOVWF  x46
05832:  MOVLW  00
05834:  ADDWFC 02,W
05836:  MOVWF  x47
05838:  MOVWF  x4C
0583A:  MOVFF  446,44B
0583E:  MOVLB  0
05840:  RCALL  56D8
05842:  MOVFF  01,3CD
....................          if(mesCiclos>12) 
05846:  MOVLB  3
05848:  MOVF   xCD,W
0584A:  SUBLW  0C
0584C:  BC    5852
....................             mesCiclos=1; 
0584E:  MOVLW  01
05850:  MOVWF  xCD
....................          yearCiclos=read_ext_eeprom(4+(cicloVisto*320)); 
05852:  MOVLB  4
05854:  CLRF   x50
05856:  MOVFF  2E9,44F
0585A:  MOVLW  01
0585C:  MOVWF  x52
0585E:  MOVLW  40
05860:  MOVWF  x51
05862:  MOVLB  0
05864:  CALL   3A6C
05868:  MOVFF  02,03
0586C:  MOVF   01,W
0586E:  ADDLW  04
05870:  MOVLB  4
05872:  MOVWF  x46
05874:  MOVLW  00
05876:  ADDWFC 02,W
05878:  MOVWF  x47
0587A:  MOVWF  x4C
0587C:  MOVFF  446,44B
05880:  MOVLB  0
05882:  RCALL  56D8
05884:  MOVFF  01,3CE
....................          if(yearCiclos>99) 
05888:  MOVLB  3
0588A:  MOVF   xCE,W
0588C:  SUBLW  63
0588E:  BC    5894
....................             yearCiclos=19; 
05890:  MOVLW  13
05892:  MOVWF  xCE
....................          cicloCiclos=read_ext_eeprom(1+(cicloVisto*320)); 
05894:  MOVLB  4
05896:  CLRF   x50
05898:  MOVFF  2E9,44F
0589C:  MOVLW  01
0589E:  MOVWF  x52
058A0:  MOVLW  40
058A2:  MOVWF  x51
058A4:  MOVLB  0
058A6:  CALL   3A6C
058AA:  MOVFF  02,03
058AE:  MOVF   01,W
058B0:  ADDLW  01
058B2:  MOVLB  4
058B4:  MOVWF  x46
058B6:  MOVLW  00
058B8:  ADDWFC 02,W
058BA:  MOVWF  x47
058BC:  MOVWF  x4C
058BE:  MOVFF  446,44B
058C2:  MOVLB  0
058C4:  RCALL  56D8
058C6:  MOVFF  01,3D0
....................          if(cicloCiclos>20) 
058CA:  MOVLB  3
058CC:  MOVF   xD0,W
058CE:  SUBLW  14
058D0:  BC    58D6
....................             cicloCiclos=1; 
058D2:  MOVLW  01
058D4:  MOVWF  xD0
....................          usuarioCiclos=read_ext_eeprom((cicloVisto*320)); 
058D6:  MOVLB  4
058D8:  CLRF   x50
058DA:  MOVFF  2E9,44F
058DE:  MOVLW  01
058E0:  MOVWF  x52
058E2:  MOVLW  40
058E4:  MOVWF  x51
058E6:  MOVLB  0
058E8:  CALL   3A6C
058EC:  MOVFF  02,447
058F0:  MOVFF  01,446
058F4:  MOVFF  02,44C
058F8:  MOVFF  01,44B
058FC:  RCALL  56D8
058FE:  MOVFF  01,3CF
....................          if(usuarioCiclos>10) 
05902:  MOVLB  3
05904:  MOVF   xCF,W
05906:  SUBLW  0A
05908:  BC    590E
....................             usuarioCiclos=1; 
0590A:  MOVLW  01
0590C:  MOVWF  xCF
....................          for(i=0;i<7;i++){//Lee Valores para completar la Tabla 
0590E:  CLRF   x67
05910:  MOVF   x67,W
05912:  SUBLW  06
05914:  BTFSS  FD8.0
05916:  BRA    5E5E
....................             horaCiclos[i]=read_ext_eeprom((cicloVisto*320)+11+((cicloVisualizado+i)*9)); 
05918:  CLRF   03
0591A:  MOVF   x67,W
0591C:  ADDLW  09
0591E:  MOVWF  01
05920:  MOVLW  04
05922:  ADDWFC 03,F
05924:  MOVFF  01,446
05928:  MOVLB  4
0592A:  MOVFF  03,447
0592E:  CLRF   x50
05930:  MOVFF  2E9,44F
05934:  MOVLW  01
05936:  MOVWF  x52
05938:  MOVLW  40
0593A:  MOVWF  x51
0593C:  MOVLB  0
0593E:  CALL   3A6C
05942:  MOVFF  02,449
05946:  MOVFF  01,448
0594A:  MOVLW  0B
0594C:  MOVLB  4
0594E:  ADDWF  x48,F
05950:  MOVLW  00
05952:  ADDWFC x49,F
05954:  MOVLB  3
05956:  MOVF   x67,W
05958:  MOVLB  2
0595A:  ADDWF  xEA,W
0595C:  MULLW  09
0595E:  MOVF   FF3,W
05960:  MOVLB  4
05962:  ADDWF  x48,F
05964:  MOVLW  00
05966:  ADDWFC x49,F
05968:  MOVFF  449,44C
0596C:  MOVFF  448,44B
05970:  MOVLB  0
05972:  RCALL  56D8
05974:  MOVFF  447,FEA
05978:  MOVFF  446,FE9
0597C:  MOVFF  01,FEF
....................             if(horaCiclos[i]>24) 
05980:  CLRF   03
05982:  MOVLB  3
05984:  MOVF   x67,W
05986:  ADDLW  09
05988:  MOVWF  FE9
0598A:  MOVLW  04
0598C:  ADDWFC 03,W
0598E:  MOVWF  FEA
05990:  MOVF   FEF,W
05992:  SUBLW  18
05994:  BC    59A6
....................                horaCiclos[i]=0; 
05996:  CLRF   03
05998:  MOVF   x67,W
0599A:  ADDLW  09
0599C:  MOVWF  FE9
0599E:  MOVLW  04
059A0:  ADDWFC 03,W
059A2:  MOVWF  FEA
059A4:  CLRF   FEF
....................             minutoCiclos[i]=read_ext_eeprom((cicloVisto*320)+12+((cicloVisualizado+i)*9)); 
059A6:  CLRF   03
059A8:  MOVF   x67,W
059AA:  ADDLW  10
059AC:  MOVWF  01
059AE:  MOVLW  04
059B0:  ADDWFC 03,F
059B2:  MOVFF  01,446
059B6:  MOVLB  4
059B8:  MOVFF  03,447
059BC:  CLRF   x50
059BE:  MOVFF  2E9,44F
059C2:  MOVLW  01
059C4:  MOVWF  x52
059C6:  MOVLW  40
059C8:  MOVWF  x51
059CA:  MOVLB  0
059CC:  CALL   3A6C
059D0:  MOVFF  02,449
059D4:  MOVFF  01,448
059D8:  MOVLW  0C
059DA:  MOVLB  4
059DC:  ADDWF  x48,F
059DE:  MOVLW  00
059E0:  ADDWFC x49,F
059E2:  MOVLB  3
059E4:  MOVF   x67,W
059E6:  MOVLB  2
059E8:  ADDWF  xEA,W
059EA:  MULLW  09
059EC:  MOVF   FF3,W
059EE:  MOVLB  4
059F0:  ADDWF  x48,F
059F2:  MOVLW  00
059F4:  ADDWFC x49,F
059F6:  MOVFF  449,44C
059FA:  MOVFF  448,44B
059FE:  MOVLB  0
05A00:  RCALL  56D8
05A02:  MOVFF  447,FEA
05A06:  MOVFF  446,FE9
05A0A:  MOVFF  01,FEF
....................             if(minutoCiclos[i]>59) 
05A0E:  CLRF   03
05A10:  MOVLB  3
05A12:  MOVF   x67,W
05A14:  ADDLW  10
05A16:  MOVWF  FE9
05A18:  MOVLW  04
05A1A:  ADDWFC 03,W
05A1C:  MOVWF  FEA
05A1E:  MOVF   FEF,W
05A20:  SUBLW  3B
05A22:  BC    5A34
....................                minutoCiclos[i]=0; 
05A24:  CLRF   03
05A26:  MOVF   x67,W
05A28:  ADDLW  10
05A2A:  MOVWF  FE9
05A2C:  MOVLW  04
05A2E:  ADDWFC 03,W
05A30:  MOVWF  FEA
05A32:  CLRF   FEF
....................             TCiclos[i]=read_ext_eeprom((cicloVisto*320)+5+((cicloVisualizado+i)*9))+inttofloat(read_ext_eeprom((cicloVisto*320)+6+((cicloVisualizado+i)*9))); 
05A34:  MOVF   x67,W
05A36:  MULLW  04
05A38:  MOVF   FF3,W
05A3A:  CLRF   03
05A3C:  ADDLW  D1
05A3E:  MOVWF  01
05A40:  MOVLW  03
05A42:  ADDWFC 03,F
05A44:  MOVFF  01,446
05A48:  MOVLB  4
05A4A:  MOVFF  03,447
05A4E:  CLRF   x50
05A50:  MOVFF  2E9,44F
05A54:  MOVLW  01
05A56:  MOVWF  x52
05A58:  MOVLW  40
05A5A:  MOVWF  x51
05A5C:  MOVLB  0
05A5E:  CALL   3A6C
05A62:  MOVFF  02,449
05A66:  MOVFF  01,448
05A6A:  MOVLW  05
05A6C:  MOVLB  4
05A6E:  ADDWF  x48,F
05A70:  MOVLW  00
05A72:  ADDWFC x49,F
05A74:  MOVLB  3
05A76:  MOVF   x67,W
05A78:  MOVLB  2
05A7A:  ADDWF  xEA,W
05A7C:  MULLW  09
05A7E:  MOVF   FF3,W
05A80:  MOVLB  4
05A82:  ADDWF  x48,F
05A84:  MOVLW  00
05A86:  ADDWFC x49,F
05A88:  MOVFF  449,44C
05A8C:  MOVFF  448,44B
05A90:  MOVLB  0
05A92:  RCALL  56D8
05A94:  MOVFF  01,448
05A98:  MOVLB  4
05A9A:  CLRF   x50
05A9C:  MOVFF  2E9,44F
05AA0:  MOVLW  01
05AA2:  MOVWF  x52
05AA4:  MOVLW  40
05AA6:  MOVWF  x51
05AA8:  MOVLB  0
05AAA:  CALL   3A6C
05AAE:  MOVFF  02,44A
05AB2:  MOVFF  01,449
05AB6:  MOVLW  06
05AB8:  MOVLB  4
05ABA:  ADDWF  x49,F
05ABC:  MOVLW  00
05ABE:  ADDWFC x4A,F
05AC0:  MOVLB  3
05AC2:  MOVF   x67,W
05AC4:  MOVLB  2
05AC6:  ADDWF  xEA,W
05AC8:  MULLW  09
05ACA:  MOVF   FF3,W
05ACC:  MOVLB  4
05ACE:  ADDWF  x49,F
05AD0:  MOVLW  00
05AD2:  ADDWFC x4A,F
05AD4:  MOVFF  44A,44C
05AD8:  MOVFF  449,44B
05ADC:  MOVLB  0
05ADE:  RCALL  56D8
05AE0:  MOVFF  01,449
05AE4:  MOVFF  01,44A
05AE8:  BRA    5788
05AEA:  MOVFF  00,449
05AEE:  MOVFF  01,44A
05AF2:  MOVFF  02,44B
05AF6:  MOVFF  03,44C
05AFA:  MOVLB  4
05AFC:  CLRF   x5C
05AFE:  MOVFF  448,45B
05B02:  MOVLB  0
05B04:  CALL   1AF0
05B08:  MOVFF  FEA,44E
05B0C:  MOVFF  FE9,44D
05B10:  BCF    FD8.1
05B12:  MOVFF  03,45E
05B16:  MOVFF  02,45D
05B1A:  MOVFF  01,45C
05B1E:  MOVFF  00,45B
05B22:  MOVFF  44C,462
05B26:  MOVFF  44B,461
05B2A:  MOVFF  44A,460
05B2E:  MOVFF  449,45F
05B32:  CALL   1C84
05B36:  MOVFF  44E,FEA
05B3A:  MOVFF  44D,FE9
05B3E:  MOVFF  447,FEA
05B42:  MOVFF  446,FE9
05B46:  MOVFF  00,FEF
05B4A:  MOVFF  01,FEC
05B4E:  MOVFF  02,FEC
05B52:  MOVFF  03,FEC
....................             if(TCiclos[i]>150) 
05B56:  MOVLB  3
05B58:  MOVF   x67,W
05B5A:  MULLW  04
05B5C:  MOVF   FF3,W
05B5E:  CLRF   03
05B60:  ADDLW  D1
05B62:  MOVWF  FE9
05B64:  MOVLW  03
05B66:  ADDWFC 03,W
05B68:  MOVWF  FEA
05B6A:  MOVFF  FEF,446
05B6E:  MOVFF  FEC,447
05B72:  MOVFF  FEC,448
05B76:  MOVFF  FEC,449
05B7A:  MOVLB  4
05B7C:  CLRF   x4D
05B7E:  CLRF   x4C
05B80:  MOVLW  16
05B82:  MOVWF  x4B
05B84:  MOVLW  86
05B86:  MOVWF  x4A
05B88:  MOVFF  449,451
05B8C:  MOVFF  448,450
05B90:  MOVFF  447,44F
05B94:  MOVFF  446,44E
05B98:  MOVLB  0
05B9A:  CALL   2DCC
05B9E:  BNC   5BBE
....................                TCiclos[i]=0; 
05BA0:  MOVLB  3
05BA2:  MOVF   x67,W
05BA4:  MULLW  04
05BA6:  MOVF   FF3,W
05BA8:  CLRF   03
05BAA:  ADDLW  D1
05BAC:  MOVWF  FE9
05BAE:  MOVLW  03
05BB0:  ADDWFC 03,W
05BB2:  MOVWF  FEA
05BB4:  CLRF   FEF
05BB6:  CLRF   FEC
05BB8:  CLRF   FEC
05BBA:  CLRF   FEC
05BBC:  MOVLB  0
....................             PcCiclos[i]=make16(read_ext_eeprom((cicloVisto*320)+7+((cicloVisualizado+i)*9)),read_ext_eeprom((cicloVisto*320)+8+((cicloVisualizado+i)*9))); 
05BBE:  BCF    FD8.0
05BC0:  MOVLB  3
05BC2:  RLCF   x67,W
05BC4:  CLRF   03
05BC6:  ADDLW  ED
05BC8:  MOVWF  01
05BCA:  MOVLW  03
05BCC:  ADDWFC 03,F
05BCE:  MOVFF  01,446
05BD2:  MOVLB  4
05BD4:  MOVFF  03,447
05BD8:  CLRF   x50
05BDA:  MOVFF  2E9,44F
05BDE:  MOVLW  01
05BE0:  MOVWF  x52
05BE2:  MOVLW  40
05BE4:  MOVWF  x51
05BE6:  MOVLB  0
05BE8:  CALL   3A6C
05BEC:  MOVFF  02,449
05BF0:  MOVFF  01,448
05BF4:  MOVLW  07
05BF6:  MOVLB  4
05BF8:  ADDWF  x48,F
05BFA:  MOVLW  00
05BFC:  ADDWFC x49,F
05BFE:  MOVLB  3
05C00:  MOVF   x67,W
05C02:  MOVLB  2
05C04:  ADDWF  xEA,W
05C06:  MULLW  09
05C08:  MOVF   FF3,W
05C0A:  MOVLB  4
05C0C:  ADDWF  x48,F
05C0E:  MOVLW  00
05C10:  ADDWFC x49,F
05C12:  MOVFF  449,44C
05C16:  MOVFF  448,44B
05C1A:  MOVLB  0
05C1C:  RCALL  56D8
05C1E:  MOVFF  01,448
05C22:  MOVLB  4
05C24:  CLRF   x50
05C26:  MOVFF  2E9,44F
05C2A:  MOVLW  01
05C2C:  MOVWF  x52
05C2E:  MOVLW  40
05C30:  MOVWF  x51
05C32:  MOVLB  0
05C34:  CALL   3A6C
05C38:  MOVFF  02,44A
05C3C:  MOVFF  01,449
05C40:  MOVLW  08
05C42:  MOVLB  4
05C44:  ADDWF  x49,F
05C46:  MOVLW  00
05C48:  ADDWFC x4A,F
05C4A:  MOVLB  3
05C4C:  MOVF   x67,W
05C4E:  MOVLB  2
05C50:  ADDWF  xEA,W
05C52:  MULLW  09
05C54:  MOVF   FF3,W
05C56:  MOVLB  4
05C58:  ADDWF  x49,F
05C5A:  MOVLW  00
05C5C:  ADDWFC x4A,F
05C5E:  MOVFF  44A,44C
05C62:  MOVFF  449,44B
05C66:  MOVLB  0
05C68:  RCALL  56D8
05C6A:  MOVFF  447,FEA
05C6E:  MOVFF  446,FE9
05C72:  MOVFF  448,FEC
05C76:  MOVF   FED,F
05C78:  MOVFF  01,FEF
....................             if(PcCiclos[i]>400) 
05C7C:  BCF    FD8.0
05C7E:  MOVLB  3
05C80:  RLCF   x67,W
05C82:  CLRF   03
05C84:  ADDLW  ED
05C86:  MOVWF  FE9
05C88:  MOVLW  03
05C8A:  ADDWFC 03,W
05C8C:  MOVWF  FEA
05C8E:  MOVFF  FEC,447
05C92:  MOVF   FED,F
05C94:  MOVFF  FEF,446
05C98:  MOVLB  4
05C9A:  MOVF   x47,W
05C9C:  SUBLW  00
05C9E:  BC    5CC4
05CA0:  XORLW  FF
05CA2:  BNZ   5CAA
05CA4:  MOVF   x46,W
05CA6:  SUBLW  90
05CA8:  BC    5CC4
....................                PcCiclos[i]=0; 
05CAA:  BCF    FD8.0
05CAC:  MOVLB  3
05CAE:  RLCF   x67,W
05CB0:  CLRF   03
05CB2:  ADDLW  ED
05CB4:  MOVWF  FE9
05CB6:  MOVLW  03
05CB8:  ADDWFC 03,W
05CBA:  MOVWF  FEA
05CBC:  CLRF   FEC
05CBE:  MOVF   FED,F
05CC0:  CLRF   FEF
05CC2:  MOVLB  4
....................             PpcCiclos[i]=make16(read_ext_eeprom((cicloVisto*320)+9+((cicloVisualizado+i)*9)),read_ext_eeprom((cicloVisto*320)+10+((cicloVisualizado+i)*9))); 
05CC4:  BCF    FD8.0
05CC6:  MOVLB  3
05CC8:  RLCF   x67,W
05CCA:  CLRF   03
05CCC:  ADDLW  FB
05CCE:  MOVWF  01
05CD0:  MOVLW  03
05CD2:  ADDWFC 03,F
05CD4:  MOVFF  01,446
05CD8:  MOVLB  4
05CDA:  MOVFF  03,447
05CDE:  CLRF   x50
05CE0:  MOVFF  2E9,44F
05CE4:  MOVLW  01
05CE6:  MOVWF  x52
05CE8:  MOVLW  40
05CEA:  MOVWF  x51
05CEC:  MOVLB  0
05CEE:  CALL   3A6C
05CF2:  MOVFF  02,449
05CF6:  MOVFF  01,448
05CFA:  MOVLW  09
05CFC:  MOVLB  4
05CFE:  ADDWF  x48,F
05D00:  MOVLW  00
05D02:  ADDWFC x49,F
05D04:  MOVLB  3
05D06:  MOVF   x67,W
05D08:  MOVLB  2
05D0A:  ADDWF  xEA,W
05D0C:  MULLW  09
05D0E:  MOVF   FF3,W
05D10:  MOVLB  4
05D12:  ADDWF  x48,F
05D14:  MOVLW  00
05D16:  ADDWFC x49,F
05D18:  MOVFF  449,44C
05D1C:  MOVFF  448,44B
05D20:  MOVLB  0
05D22:  RCALL  56D8
05D24:  MOVFF  01,448
05D28:  MOVLB  4
05D2A:  CLRF   x50
05D2C:  MOVFF  2E9,44F
05D30:  MOVLW  01
05D32:  MOVWF  x52
05D34:  MOVLW  40
05D36:  MOVWF  x51
05D38:  MOVLB  0
05D3A:  CALL   3A6C
05D3E:  MOVFF  02,44A
05D42:  MOVFF  01,449
05D46:  MOVLW  0A
05D48:  MOVLB  4
05D4A:  ADDWF  x49,F
05D4C:  MOVLW  00
05D4E:  ADDWFC x4A,F
05D50:  MOVLB  3
05D52:  MOVF   x67,W
05D54:  MOVLB  2
05D56:  ADDWF  xEA,W
05D58:  MULLW  09
05D5A:  MOVF   FF3,W
05D5C:  MOVLB  4
05D5E:  ADDWF  x49,F
05D60:  MOVLW  00
05D62:  ADDWFC x4A,F
05D64:  MOVFF  44A,44C
05D68:  MOVFF  449,44B
05D6C:  MOVLB  0
05D6E:  RCALL  56D8
05D70:  MOVFF  447,FEA
05D74:  MOVFF  446,FE9
05D78:  MOVFF  448,FEC
05D7C:  MOVF   FED,F
05D7E:  MOVFF  01,FEF
....................             if(PpcCiclos[i]>400) 
05D82:  BCF    FD8.0
05D84:  MOVLB  3
05D86:  RLCF   x67,W
05D88:  CLRF   03
05D8A:  ADDLW  FB
05D8C:  MOVWF  FE9
05D8E:  MOVLW  03
05D90:  ADDWFC 03,W
05D92:  MOVWF  FEA
05D94:  MOVFF  FEC,447
05D98:  MOVF   FED,F
05D9A:  MOVFF  FEF,446
05D9E:  MOVLB  4
05DA0:  MOVF   x47,W
05DA2:  SUBLW  00
05DA4:  BC    5DCA
05DA6:  XORLW  FF
05DA8:  BNZ   5DB0
05DAA:  MOVF   x46,W
05DAC:  SUBLW  90
05DAE:  BC    5DCA
....................                PpcCiclos[i]=0; 
05DB0:  BCF    FD8.0
05DB2:  MOVLB  3
05DB4:  RLCF   x67,W
05DB6:  CLRF   03
05DB8:  ADDLW  FB
05DBA:  MOVWF  FE9
05DBC:  MOVLW  03
05DBE:  ADDWFC 03,W
05DC0:  MOVWF  FEA
05DC2:  CLRF   FEC
05DC4:  MOVF   FED,F
05DC6:  CLRF   FEF
05DC8:  MOVLB  4
....................             ACiclos[i]=read_ext_eeprom((cicloVisto*320)+13+((cicloVisualizado+i)*9)); 
05DCA:  CLRF   03
05DCC:  MOVLB  3
05DCE:  MOVF   x67,W
05DD0:  ADDLW  17
05DD2:  MOVWF  01
05DD4:  MOVLW  04
05DD6:  ADDWFC 03,F
05DD8:  MOVFF  01,446
05DDC:  MOVLB  4
05DDE:  MOVFF  03,447
05DE2:  CLRF   x50
05DE4:  MOVFF  2E9,44F
05DE8:  MOVLW  01
05DEA:  MOVWF  x52
05DEC:  MOVLW  40
05DEE:  MOVWF  x51
05DF0:  MOVLB  0
05DF2:  CALL   3A6C
05DF6:  MOVFF  02,449
05DFA:  MOVFF  01,448
05DFE:  MOVLW  0D
05E00:  MOVLB  4
05E02:  ADDWF  x48,F
05E04:  MOVLW  00
05E06:  ADDWFC x49,F
05E08:  MOVLB  3
05E0A:  MOVF   x67,W
05E0C:  MOVLB  2
05E0E:  ADDWF  xEA,W
05E10:  MULLW  09
05E12:  MOVF   FF3,W
05E14:  MOVLB  4
05E16:  ADDWF  x48,F
05E18:  MOVLW  00
05E1A:  ADDWFC x49,F
05E1C:  MOVFF  449,44C
05E20:  MOVFF  448,44B
05E24:  MOVLB  0
05E26:  RCALL  56D8
05E28:  MOVFF  447,FEA
05E2C:  MOVFF  446,FE9
05E30:  MOVFF  01,FEF
....................             if(ACiclos[i]>30) 
05E34:  CLRF   03
05E36:  MOVLB  3
05E38:  MOVF   x67,W
05E3A:  ADDLW  17
05E3C:  MOVWF  FE9
05E3E:  MOVLW  04
05E40:  ADDWFC 03,W
05E42:  MOVWF  FEA
05E44:  MOVF   FEF,W
05E46:  SUBLW  1E
05E48:  BC    5E5A
....................                ACiclos[i]=0; 
05E4A:  CLRF   03
05E4C:  MOVF   x67,W
05E4E:  ADDLW  17
05E50:  MOVWF  FE9
05E52:  MOVLW  04
05E54:  ADDWFC 03,W
05E56:  MOVWF  FEA
05E58:  CLRF   FEF
....................          } 
05E5A:  INCF   x67,F
05E5C:  BRA    5910
.................... } 
05E5E:  MOVLB  0
05E60:  RETLW  00
.................... void GuardaDatoEstatico(){ 
*
0688A:  MOVLB  4
0688C:  CLRF   x47
0688E:  CLRF   x46
06890:  CLRF   x49
06892:  CLRF   x48
....................    int16 posCiclo=0,cicloMemoria=0; 
....................    posCiclo=Ciclos/200; 
06894:  MOVFF  383,44B
06898:  MOVFF  382,44A
0689C:  CLRF   x4D
0689E:  MOVLW  C8
068A0:  MOVWF  x4C
068A2:  MOVLB  0
068A4:  CALL   5420
068A8:  MOVFF  02,447
068AC:  MOVFF  01,446
....................    cicloMemoria=Ciclos-(posCiclo*200); 
068B0:  MOVFF  447,450
068B4:  MOVFF  446,44F
068B8:  MOVLB  4
068BA:  CLRF   x52
068BC:  MOVLW  C8
068BE:  MOVWF  x51
068C0:  MOVLB  0
068C2:  CALL   3A6C
068C6:  MOVF   01,W
068C8:  MOVLB  3
068CA:  SUBWF  x82,W
068CC:  MOVLB  4
068CE:  MOVWF  x48
068D0:  MOVF   02,W
068D2:  MOVLB  3
068D4:  SUBWFB x83,W
068D6:  MOVLB  4
068D8:  MOVWF  x49
....................    if(!disp_Guarda){ 
068DA:  MOVLB  0
068DC:  BTFSC  xA4.5
068DE:  BRA    6AAA
....................       if(Temperatura>=85) 
068E0:  MOVLB  4
068E2:  CLRF   x4D
068E4:  CLRF   x4C
068E6:  MOVLW  2A
068E8:  MOVWF  x4B
068EA:  MOVLW  85
068EC:  MOVWF  x4A
068EE:  MOVFF  332,451
068F2:  MOVFF  331,450
068F6:  MOVFF  330,44F
068FA:  MOVFF  32F,44E
068FE:  MOVLB  0
06900:  CALL   2DCC
06904:  BC    6908
06906:  BNZ   690E
....................          Ttrampa=97; 
06908:  MOVLW  61
0690A:  MOVLB  2
0690C:  MOVWF  xE3
....................       write_ext_eeprom(cicloMemoria*320,1); 
0690E:  MOVFF  449,450
06912:  MOVFF  448,44F
06916:  MOVLW  01
06918:  MOVLB  4
0691A:  MOVWF  x52
0691C:  MOVLW  40
0691E:  MOVWF  x51
06920:  MOVLB  0
06922:  CALL   3A6C
06926:  MOVFF  02,44B
0692A:  MOVFF  01,44A
0692E:  MOVFF  02,44E
06932:  MOVFF  01,44D
06936:  MOVLW  01
06938:  MOVLB  4
0693A:  MOVWF  x4F
0693C:  MOVLB  0
0693E:  RCALL  677E
....................       delay_ms(10); 
06940:  MOVLW  0A
06942:  MOVLB  4
06944:  MOVWF  x5B
06946:  MOVLB  0
06948:  CALL   1AC8
....................       if(!Libre) 
0694C:  BTFSC  xA4.1
0694E:  BRA    698A
....................          write_ext_eeprom(1+(cicloMemoria*320),CicloSeleccionado); 
06950:  MOVFF  449,450
06954:  MOVFF  448,44F
06958:  MOVLW  01
0695A:  MOVLB  4
0695C:  MOVWF  x52
0695E:  MOVLW  40
06960:  MOVWF  x51
06962:  MOVLB  0
06964:  CALL   3A6C
06968:  MOVFF  02,03
0696C:  MOVF   01,W
0696E:  ADDLW  01
06970:  MOVLB  4
06972:  MOVWF  x4A
06974:  MOVLW  00
06976:  ADDWFC 02,W
06978:  MOVWF  x4B
0697A:  MOVWF  x4E
0697C:  MOVFF  44A,44D
06980:  MOVFF  36A,44F
06984:  MOVLB  0
06986:  RCALL  677E
....................       else 
06988:  BRA    69CC
....................          write_ext_eeprom(1+(cicloMemoria*320),CicloLibre+4); 
0698A:  MOVFF  449,450
0698E:  MOVFF  448,44F
06992:  MOVLW  01
06994:  MOVLB  4
06996:  MOVWF  x52
06998:  MOVLW  40
0699A:  MOVWF  x51
0699C:  MOVLB  0
0699E:  CALL   3A6C
069A2:  MOVFF  02,03
069A6:  MOVF   01,W
069A8:  ADDLW  01
069AA:  MOVLB  4
069AC:  MOVWF  x4A
069AE:  MOVLW  00
069B0:  ADDWFC 02,W
069B2:  MOVWF  x4B
069B4:  MOVLW  04
069B6:  MOVLB  3
069B8:  ADDWF  x45,W
069BA:  MOVLB  4
069BC:  MOVWF  x4C
069BE:  MOVFF  44B,44E
069C2:  MOVFF  44A,44D
069C6:  MOVWF  x4F
069C8:  MOVLB  0
069CA:  RCALL  677E
....................       delay_ms(10); 
069CC:  MOVLW  0A
069CE:  MOVLB  4
069D0:  MOVWF  x5B
069D2:  MOVLB  0
069D4:  CALL   1AC8
....................       write_ext_eeprom(2+(cicloMemoria*320),Dia); 
069D8:  MOVFF  449,450
069DC:  MOVFF  448,44F
069E0:  MOVLW  01
069E2:  MOVLB  4
069E4:  MOVWF  x52
069E6:  MOVLW  40
069E8:  MOVWF  x51
069EA:  MOVLB  0
069EC:  CALL   3A6C
069F0:  MOVFF  02,03
069F4:  MOVF   01,W
069F6:  ADDLW  02
069F8:  MOVLB  4
069FA:  MOVWF  x4A
069FC:  MOVLW  00
069FE:  ADDWFC 02,W
06A00:  MOVWF  x4B
06A02:  MOVWF  x4E
06A04:  MOVFF  44A,44D
06A08:  MOVFF  3A7,44F
06A0C:  MOVLB  0
06A0E:  RCALL  677E
....................       delay_ms(10); 
06A10:  MOVLW  0A
06A12:  MOVLB  4
06A14:  MOVWF  x5B
06A16:  MOVLB  0
06A18:  CALL   1AC8
....................       write_ext_eeprom(3+(cicloMemoria*320),Mes); 
06A1C:  MOVFF  449,450
06A20:  MOVFF  448,44F
06A24:  MOVLW  01
06A26:  MOVLB  4
06A28:  MOVWF  x52
06A2A:  MOVLW  40
06A2C:  MOVWF  x51
06A2E:  MOVLB  0
06A30:  CALL   3A6C
06A34:  MOVFF  02,03
06A38:  MOVF   01,W
06A3A:  ADDLW  03
06A3C:  MOVLB  4
06A3E:  MOVWF  x4A
06A40:  MOVLW  00
06A42:  ADDWFC 02,W
06A44:  MOVWF  x4B
06A46:  MOVWF  x4E
06A48:  MOVFF  44A,44D
06A4C:  MOVFF  3A6,44F
06A50:  MOVLB  0
06A52:  RCALL  677E
....................       delay_ms(10); 
06A54:  MOVLW  0A
06A56:  MOVLB  4
06A58:  MOVWF  x5B
06A5A:  MOVLB  0
06A5C:  CALL   1AC8
....................       write_ext_eeprom(4+(cicloMemoria*320),Year); 
06A60:  MOVFF  449,450
06A64:  MOVFF  448,44F
06A68:  MOVLW  01
06A6A:  MOVLB  4
06A6C:  MOVWF  x52
06A6E:  MOVLW  40
06A70:  MOVWF  x51
06A72:  MOVLB  0
06A74:  CALL   3A6C
06A78:  MOVFF  02,03
06A7C:  MOVF   01,W
06A7E:  ADDLW  04
06A80:  MOVLB  4
06A82:  MOVWF  x4A
06A84:  MOVLW  00
06A86:  ADDWFC 02,W
06A88:  MOVWF  x4B
06A8A:  MOVWF  x4E
06A8C:  MOVFF  44A,44D
06A90:  MOVFF  3A5,44F
06A94:  MOVLB  0
06A96:  RCALL  677E
....................       delay_ms(10);  
06A98:  MOVLW  0A
06A9A:  MOVLB  4
06A9C:  MOVWF  x5B
06A9E:  MOVLB  0
06AA0:  CALL   1AC8
....................       disp_Guarda=1; 
06AA4:  BSF    xA4.5
....................       posicionDato=0; 
06AA6:  MOVLB  2
06AA8:  CLRF   xEB
06AAA:  MOVLB  0
....................    }    
.................... } 
06AAC:  GOTO   C096 (RETURN)
....................  
.................... void GuardaDatoCiclo(){ 
*
06B7A:  MOVLB  4
06B7C:  CLRF   x47
06B7E:  CLRF   x46
06B80:  CLRF   x49
06B82:  CLRF   x48
....................    int16 posCiclo=0,cicloMemoria=0; 
....................    posCiclo=Ciclos/200; 
06B84:  MOVFF  383,44B
06B88:  MOVFF  382,44A
06B8C:  CLRF   x4D
06B8E:  MOVLW  C8
06B90:  MOVWF  x4C
06B92:  MOVLB  0
06B94:  CALL   5420
06B98:  MOVFF  02,447
06B9C:  MOVFF  01,446
....................    if(!Ciclo){ 
06BA0:  BTFSC  xA1.4
06BA2:  BRA    6F1A
....................       cicloMemoria=Ciclos-(posCiclo*200); 
06BA4:  MOVFF  447,450
06BA8:  MOVFF  446,44F
06BAC:  MOVLB  4
06BAE:  CLRF   x52
06BB0:  MOVLW  C8
06BB2:  MOVWF  x51
06BB4:  MOVLB  0
06BB6:  CALL   3A6C
06BBA:  MOVF   01,W
06BBC:  MOVLB  3
06BBE:  SUBWF  x82,W
06BC0:  MOVLB  4
06BC2:  MOVWF  x48
06BC4:  MOVF   02,W
06BC6:  MOVLB  3
06BC8:  SUBWFB x83,W
06BCA:  MOVLB  4
06BCC:  MOVWF  x49
....................       write_ext_eeprom(5+(cicloMemoria*320)+(posicionDato*9),(int8)Temperatura); 
06BCE:  MOVFF  449,450
06BD2:  MOVFF  448,44F
06BD6:  MOVLW  01
06BD8:  MOVWF  x52
06BDA:  MOVLW  40
06BDC:  MOVWF  x51
06BDE:  MOVLB  0
06BE0:  CALL   3A6C
06BE4:  MOVFF  02,03
06BE8:  MOVF   01,W
06BEA:  ADDLW  05
06BEC:  MOVLB  4
06BEE:  MOVWF  x4A
06BF0:  MOVLW  00
06BF2:  ADDWFC 02,W
06BF4:  MOVWF  x4B
06BF6:  MOVLB  2
06BF8:  MOVF   xEB,W
06BFA:  MULLW  09
06BFC:  MOVF   FF3,W
06BFE:  MOVLB  4
06C00:  ADDWF  x4A,F
06C02:  MOVLW  00
06C04:  ADDWFC x4B,F
06C06:  MOVFF  332,45E
06C0A:  MOVFF  331,45D
06C0E:  MOVFF  330,45C
06C12:  MOVFF  32F,45B
06C16:  MOVLB  0
06C18:  CALL   41C6
06C1C:  MOVFF  01,44C
06C20:  MOVFF  44B,44E
06C24:  MOVFF  44A,44D
06C28:  MOVFF  01,44F
06C2C:  RCALL  677E
....................       delay_ms(10); 
06C2E:  MOVLW  0A
06C30:  MOVLB  4
06C32:  MOVWF  x5B
06C34:  MOVLB  0
06C36:  CALL   1AC8
....................       write_ext_eeprom(6+(cicloMemoria*320)+(posicionDato*9),extraeDecimal(Temperatura)); 
06C3A:  MOVFF  449,450
06C3E:  MOVFF  448,44F
06C42:  MOVLW  01
06C44:  MOVLB  4
06C46:  MOVWF  x52
06C48:  MOVLW  40
06C4A:  MOVWF  x51
06C4C:  MOVLB  0
06C4E:  CALL   3A6C
06C52:  MOVFF  02,03
06C56:  MOVF   01,W
06C58:  ADDLW  06
06C5A:  MOVLB  4
06C5C:  MOVWF  x4A
06C5E:  MOVLW  00
06C60:  ADDWFC 02,W
06C62:  MOVWF  x4B
06C64:  MOVLB  2
06C66:  MOVF   xEB,W
06C68:  MULLW  09
06C6A:  MOVF   FF3,W
06C6C:  MOVLB  4
06C6E:  ADDWF  x4A,F
06C70:  MOVLW  00
06C72:  ADDWFC x4B,F
06C74:  MOVFF  332,44F
06C78:  MOVFF  331,44E
06C7C:  MOVFF  330,44D
06C80:  MOVFF  32F,44C
06C84:  MOVLB  0
06C86:  BRA    6AB0
06C88:  MOVFF  01,44C
06C8C:  MOVFF  44B,44E
06C90:  MOVFF  44A,44D
06C94:  MOVFF  01,44F
06C98:  RCALL  677E
....................       delay_ms(10); 
06C9A:  MOVLW  0A
06C9C:  MOVLB  4
06C9E:  MOVWF  x5B
06CA0:  MOVLB  0
06CA2:  CALL   1AC8
....................       write_ext_eeprom(7+(cicloMemoria*320)+(posicionDato*9),make8(PresionCamara,1)); 
06CA6:  MOVFF  449,450
06CAA:  MOVFF  448,44F
06CAE:  MOVLW  01
06CB0:  MOVLB  4
06CB2:  MOVWF  x52
06CB4:  MOVLW  40
06CB6:  MOVWF  x51
06CB8:  MOVLB  0
06CBA:  CALL   3A6C
06CBE:  MOVFF  02,03
06CC2:  MOVF   01,W
06CC4:  ADDLW  07
06CC6:  MOVLB  4
06CC8:  MOVWF  x4A
06CCA:  MOVLW  00
06CCC:  ADDWFC 02,W
06CCE:  MOVWF  x4B
06CD0:  MOVLB  2
06CD2:  MOVF   xEB,W
06CD4:  MULLW  09
06CD6:  MOVF   FF3,W
06CD8:  MOVLB  4
06CDA:  ADDWF  x4A,F
06CDC:  MOVLW  00
06CDE:  ADDWFC x4B,F
06CE0:  MOVFF  37F,44C
06CE4:  MOVFF  44B,44E
06CE8:  MOVFF  44A,44D
06CEC:  MOVFF  37F,44F
06CF0:  MOVLB  0
06CF2:  RCALL  677E
....................       delay_ms(10); 
06CF4:  MOVLW  0A
06CF6:  MOVLB  4
06CF8:  MOVWF  x5B
06CFA:  MOVLB  0
06CFC:  CALL   1AC8
....................       write_ext_eeprom(8+(cicloMemoria*320)+(posicionDato*9),make8(PresionCamara,0)); 
06D00:  MOVFF  449,450
06D04:  MOVFF  448,44F
06D08:  MOVLW  01
06D0A:  MOVLB  4
06D0C:  MOVWF  x52
06D0E:  MOVLW  40
06D10:  MOVWF  x51
06D12:  MOVLB  0
06D14:  CALL   3A6C
06D18:  MOVFF  02,03
06D1C:  MOVF   01,W
06D1E:  ADDLW  08
06D20:  MOVLB  4
06D22:  MOVWF  x4A
06D24:  MOVLW  00
06D26:  ADDWFC 02,W
06D28:  MOVWF  x4B
06D2A:  MOVLB  2
06D2C:  MOVF   xEB,W
06D2E:  MULLW  09
06D30:  MOVF   FF3,W
06D32:  MOVLB  4
06D34:  ADDWF  x4A,F
06D36:  MOVLW  00
06D38:  ADDWFC x4B,F
06D3A:  MOVFF  37E,44C
06D3E:  MOVFF  44B,44E
06D42:  MOVFF  44A,44D
06D46:  MOVFF  37E,44F
06D4A:  MOVLB  0
06D4C:  RCALL  677E
....................       delay_ms(10); 
06D4E:  MOVLW  0A
06D50:  MOVLB  4
06D52:  MOVWF  x5B
06D54:  MOVLB  0
06D56:  CALL   1AC8
....................       write_ext_eeprom(9+(cicloMemoria*320)+(posicionDato*9),make8(PresionPreCamara,1)); 
06D5A:  MOVFF  449,450
06D5E:  MOVFF  448,44F
06D62:  MOVLW  01
06D64:  MOVLB  4
06D66:  MOVWF  x52
06D68:  MOVLW  40
06D6A:  MOVWF  x51
06D6C:  MOVLB  0
06D6E:  CALL   3A6C
06D72:  MOVFF  02,03
06D76:  MOVF   01,W
06D78:  ADDLW  09
06D7A:  MOVLB  4
06D7C:  MOVWF  x4A
06D7E:  MOVLW  00
06D80:  ADDWFC 02,W
06D82:  MOVWF  x4B
06D84:  MOVLB  2
06D86:  MOVF   xEB,W
06D88:  MULLW  09
06D8A:  MOVF   FF3,W
06D8C:  MOVLB  4
06D8E:  ADDWF  x4A,F
06D90:  MOVLW  00
06D92:  ADDWFC x4B,F
06D94:  MOVFF  381,44C
06D98:  MOVFF  44B,44E
06D9C:  MOVFF  44A,44D
06DA0:  MOVFF  381,44F
06DA4:  MOVLB  0
06DA6:  RCALL  677E
....................       delay_ms(10); 
06DA8:  MOVLW  0A
06DAA:  MOVLB  4
06DAC:  MOVWF  x5B
06DAE:  MOVLB  0
06DB0:  CALL   1AC8
....................       write_ext_eeprom(10+(cicloMemoria*320)+(posicionDato*9),make8(PresionPreCamara,0)); 
06DB4:  MOVFF  449,450
06DB8:  MOVFF  448,44F
06DBC:  MOVLW  01
06DBE:  MOVLB  4
06DC0:  MOVWF  x52
06DC2:  MOVLW  40
06DC4:  MOVWF  x51
06DC6:  MOVLB  0
06DC8:  CALL   3A6C
06DCC:  MOVFF  02,03
06DD0:  MOVF   01,W
06DD2:  ADDLW  0A
06DD4:  MOVLB  4
06DD6:  MOVWF  x4A
06DD8:  MOVLW  00
06DDA:  ADDWFC 02,W
06DDC:  MOVWF  x4B
06DDE:  MOVLB  2
06DE0:  MOVF   xEB,W
06DE2:  MULLW  09
06DE4:  MOVF   FF3,W
06DE6:  MOVLB  4
06DE8:  ADDWF  x4A,F
06DEA:  MOVLW  00
06DEC:  ADDWFC x4B,F
06DEE:  MOVFF  380,44C
06DF2:  MOVFF  44B,44E
06DF6:  MOVFF  44A,44D
06DFA:  MOVFF  380,44F
06DFE:  MOVLB  0
06E00:  RCALL  677E
....................       delay_ms(10); 
06E02:  MOVLW  0A
06E04:  MOVLB  4
06E06:  MOVWF  x5B
06E08:  MOVLB  0
06E0A:  CALL   1AC8
....................       write_ext_eeprom(11+(cicloMemoria*320)+(posicionDato*9),Hora); 
06E0E:  MOVFF  449,450
06E12:  MOVFF  448,44F
06E16:  MOVLW  01
06E18:  MOVLB  4
06E1A:  MOVWF  x52
06E1C:  MOVLW  40
06E1E:  MOVWF  x51
06E20:  MOVLB  0
06E22:  CALL   3A6C
06E26:  MOVFF  02,03
06E2A:  MOVF   01,W
06E2C:  ADDLW  0B
06E2E:  MOVLB  4
06E30:  MOVWF  x4A
06E32:  MOVLW  00
06E34:  ADDWFC 02,W
06E36:  MOVWF  x4B
06E38:  MOVLB  2
06E3A:  MOVF   xEB,W
06E3C:  MULLW  09
06E3E:  MOVF   FF3,W
06E40:  MOVLB  4
06E42:  ADDWF  x4A,F
06E44:  MOVLW  00
06E46:  ADDWFC x4B,F
06E48:  MOVFF  44B,44E
06E4C:  MOVFF  44A,44D
06E50:  MOVFF  3A8,44F
06E54:  MOVLB  0
06E56:  RCALL  677E
....................       delay_ms(10); 
06E58:  MOVLW  0A
06E5A:  MOVLB  4
06E5C:  MOVWF  x5B
06E5E:  MOVLB  0
06E60:  CALL   1AC8
....................       write_ext_eeprom(12+(cicloMemoria*320)+(posicionDato*9),Minuto); 
06E64:  MOVFF  449,450
06E68:  MOVFF  448,44F
06E6C:  MOVLW  01
06E6E:  MOVLB  4
06E70:  MOVWF  x52
06E72:  MOVLW  40
06E74:  MOVWF  x51
06E76:  MOVLB  0
06E78:  CALL   3A6C
06E7C:  MOVFF  02,03
06E80:  MOVF   01,W
06E82:  ADDLW  0C
06E84:  MOVLB  4
06E86:  MOVWF  x4A
06E88:  MOVLW  00
06E8A:  ADDWFC 02,W
06E8C:  MOVWF  x4B
06E8E:  MOVLB  2
06E90:  MOVF   xEB,W
06E92:  MULLW  09
06E94:  MOVF   FF3,W
06E96:  MOVLB  4
06E98:  ADDWF  x4A,F
06E9A:  MOVLW  00
06E9C:  ADDWFC x4B,F
06E9E:  MOVFF  44B,44E
06EA2:  MOVFF  44A,44D
06EA6:  MOVFF  3A9,44F
06EAA:  MOVLB  0
06EAC:  RCALL  677E
....................       delay_ms(10); 
06EAE:  MOVLW  0A
06EB0:  MOVLB  4
06EB2:  MOVWF  x5B
06EB4:  MOVLB  0
06EB6:  CALL   1AC8
....................       write_ext_eeprom(13+(cicloMemoria*320)+(posicionDato*9),codigoAlarma); 
06EBA:  MOVFF  449,450
06EBE:  MOVFF  448,44F
06EC2:  MOVLW  01
06EC4:  MOVLB  4
06EC6:  MOVWF  x52
06EC8:  MOVLW  40
06ECA:  MOVWF  x51
06ECC:  MOVLB  0
06ECE:  CALL   3A6C
06ED2:  MOVFF  02,03
06ED6:  MOVF   01,W
06ED8:  ADDLW  0D
06EDA:  MOVLB  4
06EDC:  MOVWF  x4A
06EDE:  MOVLW  00
06EE0:  ADDWFC 02,W
06EE2:  MOVWF  x4B
06EE4:  MOVLB  2
06EE6:  MOVF   xEB,W
06EE8:  MULLW  09
06EEA:  MOVF   FF3,W
06EEC:  MOVLB  4
06EEE:  ADDWF  x4A,F
06EF0:  MOVLW  00
06EF2:  ADDWFC x4B,F
06EF4:  MOVFF  44B,44E
06EF8:  MOVFF  44A,44D
06EFC:  MOVFF  2ED,44F
06F00:  MOVLB  0
06F02:  RCALL  677E
....................       delay_ms(10); 
06F04:  MOVLW  0A
06F06:  MOVLB  4
06F08:  MOVWF  x5B
06F0A:  MOVLB  0
06F0C:  CALL   1AC8
....................     
....................       if(posicionDato<35) 
06F10:  MOVLB  2
06F12:  MOVF   xEB,W
06F14:  SUBLW  22
06F16:  BNC   6F1A
....................          ++posicionDato; 
06F18:  INCF   xEB,F
06F1A:  MOVLB  0
....................    } 
.................... } 
06F1C:  RETLW  00
....................  
.................... void incrementaCiclos(){ 
....................    if(!Ciclo){ 
06F1E:  BTFSC  xA1.4
06F20:  BRA    6FA8
....................       Ciclo=ON; 
06F22:  BSF    xA1.4
....................       Ciclos++; 
06F24:  MOVLB  3
06F26:  INCF   x82,F
06F28:  BTFSC  FD8.2
06F2A:  INCF   x83,F
....................       CiclosL=make8(Ciclos,0); 
06F2C:  MOVFF  382,368
....................       CiclosH=make8(Ciclos,1); 
06F30:  MOVFF  383,369
....................       write_eeprom(37,CiclosL); 
06F34:  CLRF   FAA
06F36:  MOVLW  25
06F38:  MOVWF  FA9
06F3A:  MOVFF  368,FA8
06F3E:  BCF    FA6.6
06F40:  BCF    FA6.7
06F42:  BSF    FA6.2
06F44:  MOVF   FF2,W
06F46:  MOVWF  00
06F48:  BCF    FF2.6
06F4A:  BCF    FF2.7
06F4C:  MOVLB  F
06F4E:  MOVLW  55
06F50:  MOVWF  FA7
06F52:  MOVLW  AA
06F54:  MOVWF  FA7
06F56:  BSF    FA6.1
06F58:  BTFSC  FA6.1
06F5A:  BRA    6F58
06F5C:  BCF    FA6.2
06F5E:  MOVF   00,W
06F60:  IORWF  FF2,F
....................       delay_ms(20); 
06F62:  MOVLW  14
06F64:  MOVLB  4
06F66:  MOVWF  x5B
06F68:  MOVLB  0
06F6A:  CALL   1AC8
....................       write_eeprom(38,CiclosH); 
06F6E:  CLRF   FAA
06F70:  MOVLW  26
06F72:  MOVWF  FA9
06F74:  MOVFF  369,FA8
06F78:  BCF    FA6.6
06F7A:  BCF    FA6.7
06F7C:  BSF    FA6.2
06F7E:  MOVF   FF2,W
06F80:  MOVWF  00
06F82:  BCF    FF2.6
06F84:  BCF    FF2.7
06F86:  MOVLB  F
06F88:  MOVLW  55
06F8A:  MOVWF  FA7
06F8C:  MOVLW  AA
06F8E:  MOVWF  FA7
06F90:  BSF    FA6.1
06F92:  BTFSC  FA6.1
06F94:  BRA    6F92
06F96:  BCF    FA6.2
06F98:  MOVF   00,W
06F9A:  IORWF  FF2,F
....................       delay_ms(20); 
06F9C:  MOVLW  14
06F9E:  MOVLB  4
06FA0:  MOVWF  x5B
06FA2:  MOVLB  0
06FA4:  CALL   1AC8
....................    } 
.................... } 
06FA8:  RETLW  00
....................  
.................... void exportarData(){ 
*
05E62:  MOVLB  4
05E64:  CLRF   x47
05E66:  CLRF   x46
05E68:  CLRF   x48
.................... int16 posicion=0; 
.................... int8 tmp=0; 
.................... posicion=40; 
05E6A:  CLRF   x47
05E6C:  MOVLW  28
05E6E:  MOVWF  x46
.................... direccion=0xB0; 
05E70:  MOVLW  B0
05E72:  MOVLB  0
05E74:  MOVWF  x85
.................... //Buzzer_on; 
.................... //Inicio de Transmision 
.................... i2c_start();            // Comienzo comunicacin 
05E76:  BSF    F94.4
05E78:  MOVLW  05
05E7A:  MOVWF  00
05E7C:  DECFSZ 00,F
05E7E:  BRA    5E7C
05E80:  BSF    F94.3
05E82:  MOVLW  06
05E84:  MOVWF  00
05E86:  DECFSZ 00,F
05E88:  BRA    5E86
05E8A:  BCF    F8B.4
05E8C:  BCF    F94.4
05E8E:  MOVLW  05
05E90:  MOVWF  00
05E92:  DECFSZ 00,F
05E94:  BRA    5E92
05E96:  BCF    F8B.3
05E98:  BCF    F94.3
.................... i2c_write(direccion);   // Direccin del esclavo en el bus I2C 
05E9A:  MOVFF  85,45C
05E9E:  CALL   46E0
.................... i2c_write(make8(posicion,0));    // Posicin donde se guardara el dato transmitido 
05EA2:  MOVFF  446,449
05EA6:  MOVFF  446,45C
05EAA:  CALL   46E0
.................... i2c_write(make8(posicion,1));    // Posicin donde se guardara el dato transmitido 
05EAE:  MOVFF  447,449
05EB2:  MOVFF  447,45C
05EB6:  CALL   46E0
.................... i2c_write(0xff);        // Dato a transmitir 
05EBA:  MOVLW  FF
05EBC:  MOVLB  4
05EBE:  MOVWF  x5C
05EC0:  MOVLB  0
05EC2:  CALL   46E0
.................... i2c_stop(); 
05EC6:  BCF    F94.4
05EC8:  NOP   
05ECA:  BSF    F94.3
05ECC:  BTFSS  F82.3
05ECE:  BRA    5ECC
05ED0:  MOVLW  05
05ED2:  MOVWF  00
05ED4:  DECFSZ 00,F
05ED6:  BRA    5ED4
05ED8:  BRA    5EDA
05EDA:  NOP   
05EDC:  BSF    F94.4
05EDE:  MOVLW  05
05EE0:  MOVWF  00
05EE2:  DECFSZ 00,F
05EE4:  BRA    5EE2
.................... ++posicion; 
05EE6:  MOVLB  4
05EE8:  INCF   x46,F
05EEA:  BTFSC  FD8.2
05EEC:  INCF   x47,F
.................... i2c_start();            // Comienzo comunicacin 
05EEE:  BSF    F94.4
05EF0:  MOVLW  05
05EF2:  MOVWF  00
05EF4:  DECFSZ 00,F
05EF6:  BRA    5EF4
05EF8:  BSF    F94.3
05EFA:  MOVLW  06
05EFC:  MOVWF  00
05EFE:  DECFSZ 00,F
05F00:  BRA    5EFE
05F02:  BCF    F8B.4
05F04:  BCF    F94.4
05F06:  MOVLW  05
05F08:  MOVWF  00
05F0A:  DECFSZ 00,F
05F0C:  BRA    5F0A
05F0E:  BCF    F8B.3
05F10:  BCF    F94.3
.................... i2c_write(direccion);   // Direccin del esclavo en el bus I2C 
05F12:  MOVFF  85,45C
05F16:  MOVLB  0
05F18:  CALL   46E0
.................... i2c_write(make8(posicion,0));    // Posicin donde se guardara el dato transmitido 
05F1C:  MOVFF  446,449
05F20:  MOVFF  446,45C
05F24:  CALL   46E0
.................... i2c_write(make8(posicion,1));    // Posicin donde se guardara el dato transmitido 
05F28:  MOVFF  447,449
05F2C:  MOVFF  447,45C
05F30:  CALL   46E0
.................... i2c_write(0xff);        // Dato a transmitir 
05F34:  MOVLW  FF
05F36:  MOVLB  4
05F38:  MOVWF  x5C
05F3A:  MOVLB  0
05F3C:  CALL   46E0
.................... i2c_stop(); 
05F40:  BCF    F94.4
05F42:  NOP   
05F44:  BSF    F94.3
05F46:  BTFSS  F82.3
05F48:  BRA    5F46
05F4A:  MOVLW  05
05F4C:  MOVWF  00
05F4E:  DECFSZ 00,F
05F50:  BRA    5F4E
05F52:  BRA    5F54
05F54:  NOP   
05F56:  BSF    F94.4
05F58:  MOVLW  05
05F5A:  MOVWF  00
05F5C:  DECFSZ 00,F
05F5E:  BRA    5F5C
.................... ++posicion; 
05F60:  MOVLB  4
05F62:  INCF   x46,F
05F64:  BTFSC  FD8.2
05F66:  INCF   x47,F
.................... //Se envian 2 veces ff para indicar que se inicia la transmision. 
....................  
....................    for(i=0;i<5;i++){ 
05F68:  MOVLB  3
05F6A:  CLRF   x67
05F6C:  MOVF   x67,W
05F6E:  SUBLW  04
05F70:  BNC   6028
....................       tmp=read_ext_eeprom((cicloVisto*320)+i); 
05F72:  MOVLB  4
05F74:  CLRF   x50
05F76:  MOVFF  2E9,44F
05F7A:  MOVLW  01
05F7C:  MOVWF  x52
05F7E:  MOVLW  40
05F80:  MOVWF  x51
05F82:  MOVLB  0
05F84:  CALL   3A6C
05F88:  MOVFF  02,44A
05F8C:  MOVFF  01,449
05F90:  MOVLB  3
05F92:  MOVF   x67,W
05F94:  MOVLB  4
05F96:  ADDWF  x49,F
05F98:  MOVLW  00
05F9A:  ADDWFC x4A,F
05F9C:  MOVFF  44A,44C
05FA0:  MOVFF  449,44B
05FA4:  MOVLB  0
05FA6:  CALL   56D8
05FAA:  MOVFF  01,448
....................       //if(tmp>250) 
....................       //   tmp=20; 
....................       i2c_start();            // Comienzo comunicacin 
05FAE:  BSF    F94.4
05FB0:  MOVLW  05
05FB2:  MOVWF  00
05FB4:  DECFSZ 00,F
05FB6:  BRA    5FB4
05FB8:  BSF    F94.3
05FBA:  MOVLW  06
05FBC:  MOVWF  00
05FBE:  DECFSZ 00,F
05FC0:  BRA    5FBE
05FC2:  BCF    F8B.4
05FC4:  BCF    F94.4
05FC6:  MOVLW  05
05FC8:  MOVWF  00
05FCA:  DECFSZ 00,F
05FCC:  BRA    5FCA
05FCE:  BCF    F8B.3
05FD0:  BCF    F94.3
....................       i2c_write(direccion);   // Direccin del esclavo en el bus I2C 
05FD2:  MOVFF  85,45C
05FD6:  CALL   46E0
....................       i2c_write(make8(posicion,0));    // Posicin donde se guardara el dato transmitido 
05FDA:  MOVFF  446,449
05FDE:  MOVFF  446,45C
05FE2:  CALL   46E0
....................       i2c_write(make8(posicion,1));    // Posicin donde se guardara el dato transmitido 
05FE6:  MOVFF  447,449
05FEA:  MOVFF  447,45C
05FEE:  CALL   46E0
....................       i2c_write(tmp);        // Dato a transmitir 
05FF2:  MOVFF  448,45C
05FF6:  CALL   46E0
....................       i2c_stop();  
05FFA:  BCF    F94.4
05FFC:  NOP   
05FFE:  BSF    F94.3
06000:  BTFSS  F82.3
06002:  BRA    6000
06004:  MOVLW  05
06006:  MOVWF  00
06008:  DECFSZ 00,F
0600A:  BRA    6008
0600C:  BRA    600E
0600E:  NOP   
06010:  BSF    F94.4
06012:  MOVLW  05
06014:  MOVWF  00
06016:  DECFSZ 00,F
06018:  BRA    6016
....................       ++posicion; 
0601A:  MOVLB  4
0601C:  INCF   x46,F
0601E:  BTFSC  FD8.2
06020:  INCF   x47,F
....................    } 
06022:  MOVLB  3
06024:  INCF   x67,F
06026:  BRA    5F6C
....................    for(i=0;i<35;i++){//Lee Valores para completar la Tabla 
06028:  CLRF   x67
0602A:  MOVF   x67,W
0602C:  SUBLW  22
0602E:  BNC   6108
....................       for(j=5;j<14;j++){//Lee Valores para completar la Tabla 
06030:  MOVLW  05
06032:  MOVLB  2
06034:  MOVWF  xEC
06036:  MOVF   xEC,W
06038:  SUBLW  0D
0603A:  BNC   6102
....................          tmp=read_ext_eeprom((cicloVisto*320)+j+(i*9)); 
0603C:  MOVLB  4
0603E:  CLRF   x50
06040:  MOVFF  2E9,44F
06044:  MOVLW  01
06046:  MOVWF  x52
06048:  MOVLW  40
0604A:  MOVWF  x51
0604C:  MOVLB  0
0604E:  CALL   3A6C
06052:  MOVFF  02,44A
06056:  MOVFF  01,449
0605A:  MOVLB  2
0605C:  MOVF   xEC,W
0605E:  MOVLB  4
06060:  ADDWF  x49,F
06062:  MOVLW  00
06064:  ADDWFC x4A,F
06066:  MOVLB  3
06068:  MOVF   x67,W
0606A:  MULLW  09
0606C:  MOVF   FF3,W
0606E:  MOVLB  4
06070:  ADDWF  x49,F
06072:  MOVLW  00
06074:  ADDWFC x4A,F
06076:  MOVFF  44A,44C
0607A:  MOVFF  449,44B
0607E:  MOVLB  0
06080:  CALL   56D8
06084:  MOVFF  01,448
....................          //if(tmp>250) 
....................          //   tmp=20; 
....................          i2c_start();            // Comienzo comunicacin 
06088:  BSF    F94.4
0608A:  MOVLW  05
0608C:  MOVWF  00
0608E:  DECFSZ 00,F
06090:  BRA    608E
06092:  BSF    F94.3
06094:  MOVLW  06
06096:  MOVWF  00
06098:  DECFSZ 00,F
0609A:  BRA    6098
0609C:  BCF    F8B.4
0609E:  BCF    F94.4
060A0:  MOVLW  05
060A2:  MOVWF  00
060A4:  DECFSZ 00,F
060A6:  BRA    60A4
060A8:  BCF    F8B.3
060AA:  BCF    F94.3
....................          i2c_write(direccion);   // Direccin del esclavo en el bus I2C 
060AC:  MOVFF  85,45C
060B0:  CALL   46E0
....................          i2c_write(make8(posicion,0));    // Posicin donde se guardara el dato transmitido 
060B4:  MOVFF  446,449
060B8:  MOVFF  446,45C
060BC:  CALL   46E0
....................          i2c_write(make8(posicion,1));    // Posicin donde se guardara el dato transmitido 
060C0:  MOVFF  447,449
060C4:  MOVFF  447,45C
060C8:  CALL   46E0
....................          i2c_write(tmp);        // Dato a transmitir 
060CC:  MOVFF  448,45C
060D0:  CALL   46E0
....................          i2c_stop();  
060D4:  BCF    F94.4
060D6:  NOP   
060D8:  BSF    F94.3
060DA:  BTFSS  F82.3
060DC:  BRA    60DA
060DE:  MOVLW  05
060E0:  MOVWF  00
060E2:  DECFSZ 00,F
060E4:  BRA    60E2
060E6:  BRA    60E8
060E8:  NOP   
060EA:  BSF    F94.4
060EC:  MOVLW  05
060EE:  MOVWF  00
060F0:  DECFSZ 00,F
060F2:  BRA    60F0
....................          ++posicion; 
060F4:  MOVLB  4
060F6:  INCF   x46,F
060F8:  BTFSC  FD8.2
060FA:  INCF   x47,F
....................       } 
060FC:  MOVLB  2
060FE:  INCF   xEC,F
06100:  BRA    6036
....................    } 
06102:  MOVLB  3
06104:  INCF   x67,F
06106:  BRA    602A
....................  
.................... //Fin de Transmision 
.................... i2c_start();            // Comienzo comunicacin 
06108:  BSF    F94.4
0610A:  MOVLW  05
0610C:  MOVWF  00
0610E:  DECFSZ 00,F
06110:  BRA    610E
06112:  BSF    F94.3
06114:  MOVLW  06
06116:  MOVWF  00
06118:  DECFSZ 00,F
0611A:  BRA    6118
0611C:  BCF    F8B.4
0611E:  BCF    F94.4
06120:  MOVLW  05
06122:  MOVWF  00
06124:  DECFSZ 00,F
06126:  BRA    6124
06128:  BCF    F8B.3
0612A:  BCF    F94.3
.................... i2c_write(direccion);   // Direccin del esclavo en el bus I2C 
0612C:  MOVFF  85,45C
06130:  MOVLB  0
06132:  CALL   46E0
.................... i2c_write(make8(posicion,0));    // Posicin donde se guardara el dato transmitido 
06136:  MOVFF  446,449
0613A:  MOVFF  446,45C
0613E:  CALL   46E0
.................... i2c_write(make8(posicion,1));    // Posicin donde se guardara el dato transmitido 
06142:  MOVFF  447,449
06146:  MOVFF  447,45C
0614A:  CALL   46E0
.................... i2c_write(0x1f);        // Dato a transmitir 
0614E:  MOVLW  1F
06150:  MOVLB  4
06152:  MOVWF  x5C
06154:  MOVLB  0
06156:  CALL   46E0
.................... i2c_stop(); 
0615A:  BCF    F94.4
0615C:  NOP   
0615E:  BSF    F94.3
06160:  BTFSS  F82.3
06162:  BRA    6160
06164:  MOVLW  05
06166:  MOVWF  00
06168:  DECFSZ 00,F
0616A:  BRA    6168
0616C:  BRA    616E
0616E:  NOP   
06170:  BSF    F94.4
06172:  MOVLW  05
06174:  MOVWF  00
06176:  DECFSZ 00,F
06178:  BRA    6176
.................... ++posicion; 
0617A:  MOVLB  4
0617C:  INCF   x46,F
0617E:  BTFSC  FD8.2
06180:  INCF   x47,F
.................... i2c_start();            // Comienzo comunicacin 
06182:  BSF    F94.4
06184:  MOVLW  05
06186:  MOVWF  00
06188:  DECFSZ 00,F
0618A:  BRA    6188
0618C:  BSF    F94.3
0618E:  MOVLW  06
06190:  MOVWF  00
06192:  DECFSZ 00,F
06194:  BRA    6192
06196:  BCF    F8B.4
06198:  BCF    F94.4
0619A:  MOVLW  05
0619C:  MOVWF  00
0619E:  DECFSZ 00,F
061A0:  BRA    619E
061A2:  BCF    F8B.3
061A4:  BCF    F94.3
.................... i2c_write(direccion);   // Direccin del esclavo en el bus I2C 
061A6:  MOVFF  85,45C
061AA:  MOVLB  0
061AC:  CALL   46E0
.................... i2c_write(make8(posicion,0));    // Posicin donde se guardara el dato transmitido 
061B0:  MOVFF  446,449
061B4:  MOVFF  446,45C
061B8:  CALL   46E0
.................... i2c_write(make8(posicion,1));    // Posicin donde se guardara el dato transmitido 
061BC:  MOVFF  447,449
061C0:  MOVFF  447,45C
061C4:  CALL   46E0
.................... i2c_write(0x1f);        // Dato a transmitir 
061C8:  MOVLW  1F
061CA:  MOVLB  4
061CC:  MOVWF  x5C
061CE:  MOVLB  0
061D0:  CALL   46E0
.................... i2c_stop(); 
061D4:  BCF    F94.4
061D6:  NOP   
061D8:  BSF    F94.3
061DA:  BTFSS  F82.3
061DC:  BRA    61DA
061DE:  MOVLW  05
061E0:  MOVWF  00
061E2:  DECFSZ 00,F
061E4:  BRA    61E2
061E6:  BRA    61E8
061E8:  NOP   
061EA:  BSF    F94.4
061EC:  MOVLW  05
061EE:  MOVWF  00
061F0:  DECFSZ 00,F
061F2:  BRA    61F0
.................... ++posicion; 
061F4:  MOVLB  4
061F6:  INCF   x46,F
061F8:  BTFSC  FD8.2
061FA:  INCF   x47,F
.................... //Se envian 2 veces 1f para indicar que se inicia la transmision. 
.................... delay_ms(200); 
061FC:  MOVLW  C8
061FE:  MOVWF  x5B
06200:  MOVLB  0
06202:  CALL   1AC8
.................... //Buzzer_off; 
.................... } 
06206:  GOTO   BC66 (RETURN)
....................  
.................... void codificaAlarma(){ 
....................    if(ACiclos[i]==0){ 
0620A:  CLRF   03
0620C:  MOVLB  3
0620E:  MOVF   x67,W
06210:  ADDLW  17
06212:  MOVWF  FE9
06214:  MOVLW  04
06216:  ADDWFC 03,W
06218:  MOVWF  FEA
0621A:  MOVF   FEF,F
0621C:  BNZ   625C
....................       printf("A%u.txt=\"----\"",i+1); 
0621E:  MOVLW  01
06220:  ADDWF  x67,W
06222:  MOVLB  4
06224:  MOVWF  x46
06226:  MOVLW  41
06228:  BTFSS  F9E.4
0622A:  BRA    6228
0622C:  MOVWF  FAD
0622E:  MOVFF  446,44B
06232:  MOVLW  1B
06234:  MOVWF  x4C
06236:  MOVLB  0
06238:  CALL   4B1A
0623C:  MOVLW  F9
0623E:  MOVWF  FF6
06240:  MOVLW  01
06242:  MOVWF  FF7
06244:  MOVLW  00
06246:  MOVWF  FF8
06248:  MOVLW  0B
0624A:  MOVLB  4
0624C:  MOVWF  x4B
0624E:  MOVLB  0
06250:  CALL   4ABC
....................       SendDataDisplay(); 
06254:  CALL   39C0
....................    }else if(ACiclos[i]==1){ 
06258:  BRA    6776
0625A:  MOVLB  3
0625C:  CLRF   03
0625E:  MOVF   x67,W
06260:  ADDLW  17
06262:  MOVWF  FE9
06264:  MOVLW  04
06266:  ADDWFC 03,W
06268:  MOVWF  FEA
0626A:  DECFSZ FEF,W
0626C:  BRA    62AC
....................       printf("A%u.txt=\"Parada\"",i+1); 
0626E:  MOVLW  01
06270:  ADDWF  x67,W
06272:  MOVLB  4
06274:  MOVWF  x46
06276:  MOVLW  41
06278:  BTFSS  F9E.4
0627A:  BRA    6278
0627C:  MOVWF  FAD
0627E:  MOVFF  446,44B
06282:  MOVLW  1B
06284:  MOVWF  x4C
06286:  MOVLB  0
06288:  CALL   4B1A
0628C:  MOVLW  09
0628E:  MOVWF  FF6
06290:  MOVLW  02
06292:  MOVWF  FF7
06294:  MOVLW  00
06296:  MOVWF  FF8
06298:  MOVLW  0D
0629A:  MOVLB  4
0629C:  MOVWF  x4B
0629E:  MOVLB  0
062A0:  CALL   4ABC
....................       SendDataDisplay(); 
062A4:  CALL   39C0
....................    }else if(ACiclos[i]==2){ 
062A8:  BRA    6776
062AA:  MOVLB  3
062AC:  CLRF   03
062AE:  MOVF   x67,W
062B0:  ADDLW  17
062B2:  MOVWF  FE9
062B4:  MOVLW  04
062B6:  ADDWFC 03,W
062B8:  MOVWF  FEA
062BA:  MOVF   FEF,W
062BC:  SUBLW  02
062BE:  BNZ   62FE
....................       printf("A%u.txt=\"Puerta\"",i+1); 
062C0:  MOVLW  01
062C2:  ADDWF  x67,W
062C4:  MOVLB  4
062C6:  MOVWF  x46
062C8:  MOVLW  41
062CA:  BTFSS  F9E.4
062CC:  BRA    62CA
062CE:  MOVWF  FAD
062D0:  MOVFF  446,44B
062D4:  MOVLW  1B
062D6:  MOVWF  x4C
062D8:  MOVLB  0
062DA:  CALL   4B1A
062DE:  MOVLW  1B
062E0:  MOVWF  FF6
062E2:  MOVLW  02
062E4:  MOVWF  FF7
062E6:  MOVLW  00
062E8:  MOVWF  FF8
062EA:  MOVLW  0D
062EC:  MOVLB  4
062EE:  MOVWF  x4B
062F0:  MOVLB  0
062F2:  CALL   4ABC
....................       SendDataDisplay(); 
062F6:  CALL   39C0
....................    }else if(ACiclos[i]==3){ 
062FA:  BRA    6776
062FC:  MOVLB  3
062FE:  CLRF   03
06300:  MOVF   x67,W
06302:  ADDLW  17
06304:  MOVWF  FE9
06306:  MOVLW  04
06308:  ADDWFC 03,W
0630A:  MOVWF  FEA
0630C:  MOVF   FEF,W
0630E:  SUBLW  03
06310:  BNZ   6350
....................       printf("A%u.txt=\"Termostato\"",i+1); 
06312:  MOVLW  01
06314:  ADDWF  x67,W
06316:  MOVLB  4
06318:  MOVWF  x46
0631A:  MOVLW  41
0631C:  BTFSS  F9E.4
0631E:  BRA    631C
06320:  MOVWF  FAD
06322:  MOVFF  446,44B
06326:  MOVLW  1B
06328:  MOVWF  x4C
0632A:  MOVLB  0
0632C:  CALL   4B1A
06330:  MOVLW  2D
06332:  MOVWF  FF6
06334:  MOVLW  02
06336:  MOVWF  FF7
06338:  MOVLW  00
0633A:  MOVWF  FF8
0633C:  MOVLW  11
0633E:  MOVLB  4
06340:  MOVWF  x4B
06342:  MOVLB  0
06344:  CALL   4ABC
....................       SendDataDisplay(); 
06348:  CALL   39C0
....................    }else if(ACiclos[i]==4){ 
0634C:  BRA    6776
0634E:  MOVLB  3
06350:  CLRF   03
06352:  MOVF   x67,W
06354:  ADDLW  17
06356:  MOVWF  FE9
06358:  MOVLW  04
0635A:  ADDWFC 03,W
0635C:  MOVWF  FEA
0635E:  MOVF   FEF,W
06360:  SUBLW  04
06362:  BNZ   63A2
....................       printf("A%u.txt=\"SobreT\"",i+1); 
06364:  MOVLW  01
06366:  ADDWF  x67,W
06368:  MOVLB  4
0636A:  MOVWF  x46
0636C:  MOVLW  41
0636E:  BTFSS  F9E.4
06370:  BRA    636E
06372:  MOVWF  FAD
06374:  MOVFF  446,44B
06378:  MOVLW  1B
0637A:  MOVWF  x4C
0637C:  MOVLB  0
0637E:  CALL   4B1A
06382:  MOVLW  43
06384:  MOVWF  FF6
06386:  MOVLW  02
06388:  MOVWF  FF7
0638A:  MOVLW  00
0638C:  MOVWF  FF8
0638E:  MOVLW  0D
06390:  MOVLB  4
06392:  MOVWF  x4B
06394:  MOVLB  0
06396:  CALL   4ABC
....................       SendDataDisplay(); 
0639A:  CALL   39C0
....................    }else if(ACiclos[i]==5){ 
0639E:  BRA    6776
063A0:  MOVLB  3
063A2:  CLRF   03
063A4:  MOVF   x67,W
063A6:  ADDLW  17
063A8:  MOVWF  FE9
063AA:  MOVLW  04
063AC:  ADDWFC 03,W
063AE:  MOVWF  FEA
063B0:  MOVF   FEF,W
063B2:  SUBLW  05
063B4:  BNZ   63F4
....................       printf("A%u.txt=\"Tiempo\"",i+1); 
063B6:  MOVLW  01
063B8:  ADDWF  x67,W
063BA:  MOVLB  4
063BC:  MOVWF  x46
063BE:  MOVLW  41
063C0:  BTFSS  F9E.4
063C2:  BRA    63C0
063C4:  MOVWF  FAD
063C6:  MOVFF  446,44B
063CA:  MOVLW  1B
063CC:  MOVWF  x4C
063CE:  MOVLB  0
063D0:  CALL   4B1A
063D4:  MOVLW  55
063D6:  MOVWF  FF6
063D8:  MOVLW  02
063DA:  MOVWF  FF7
063DC:  MOVLW  00
063DE:  MOVWF  FF8
063E0:  MOVLW  0D
063E2:  MOVLB  4
063E4:  MOVWF  x4B
063E6:  MOVLB  0
063E8:  CALL   4ABC
....................       SendDataDisplay(); 
063EC:  CALL   39C0
....................    }else if(ACiclos[i]==6){ 
063F0:  BRA    6776
063F2:  MOVLB  3
063F4:  CLRF   03
063F6:  MOVF   x67,W
063F8:  ADDLW  17
063FA:  MOVWF  FE9
063FC:  MOVLW  04
063FE:  ADDWFC 03,W
06400:  MOVWF  FEA
06402:  MOVF   FEF,W
06404:  SUBLW  06
06406:  BNZ   6446
....................       printf("A%u.txt=\"Presion\"",i+1); 
06408:  MOVLW  01
0640A:  ADDWF  x67,W
0640C:  MOVLB  4
0640E:  MOVWF  x46
06410:  MOVLW  41
06412:  BTFSS  F9E.4
06414:  BRA    6412
06416:  MOVWF  FAD
06418:  MOVFF  446,44B
0641C:  MOVLW  1B
0641E:  MOVWF  x4C
06420:  MOVLB  0
06422:  CALL   4B1A
06426:  MOVLW  67
06428:  MOVWF  FF6
0642A:  MOVLW  02
0642C:  MOVWF  FF7
0642E:  MOVLW  00
06430:  MOVWF  FF8
06432:  MOVLW  0E
06434:  MOVLB  4
06436:  MOVWF  x4B
06438:  MOVLB  0
0643A:  CALL   4ABC
....................       SendDataDisplay(); 
0643E:  CALL   39C0
....................    }else if(ACiclos[i]==7){ 
06442:  BRA    6776
06444:  MOVLB  3
06446:  CLRF   03
06448:  MOVF   x67,W
0644A:  ADDLW  17
0644C:  MOVWF  FE9
0644E:  MOVLW  04
06450:  ADDWFC 03,W
06452:  MOVWF  FEA
06454:  MOVF   FEF,W
06456:  SUBLW  07
06458:  BNZ   6498
....................       printf("A%u.txt=\"ERR Ciclo\"",i+1); 
0645A:  MOVLW  01
0645C:  ADDWF  x67,W
0645E:  MOVLB  4
06460:  MOVWF  x46
06462:  MOVLW  41
06464:  BTFSS  F9E.4
06466:  BRA    6464
06468:  MOVWF  FAD
0646A:  MOVFF  446,44B
0646E:  MOVLW  1B
06470:  MOVWF  x4C
06472:  MOVLB  0
06474:  CALL   4B1A
06478:  MOVLW  79
0647A:  MOVWF  FF6
0647C:  MOVLW  02
0647E:  MOVWF  FF7
06480:  MOVLW  00
06482:  MOVWF  FF8
06484:  MOVLW  10
06486:  MOVLB  4
06488:  MOVWF  x4B
0648A:  MOVLB  0
0648C:  CALL   4ABC
....................       SendDataDisplay(); 
06490:  CALL   39C0
....................    }else if(ACiclos[i]==8){ 
06494:  BRA    6776
06496:  MOVLB  3
06498:  CLRF   03
0649A:  MOVF   x67,W
0649C:  ADDLW  17
0649E:  MOVWF  FE9
064A0:  MOVLW  04
064A2:  ADDWFC 03,W
064A4:  MOVWF  FEA
064A6:  MOVF   FEF,W
064A8:  SUBLW  08
064AA:  BNZ   64EA
....................       printf("A%u.txt=\"Llenado\"",i+1); 
064AC:  MOVLW  01
064AE:  ADDWF  x67,W
064B0:  MOVLB  4
064B2:  MOVWF  x46
064B4:  MOVLW  41
064B6:  BTFSS  F9E.4
064B8:  BRA    64B6
064BA:  MOVWF  FAD
064BC:  MOVFF  446,44B
064C0:  MOVLW  1B
064C2:  MOVWF  x4C
064C4:  MOVLB  0
064C6:  CALL   4B1A
064CA:  MOVLW  8D
064CC:  MOVWF  FF6
064CE:  MOVLW  02
064D0:  MOVWF  FF7
064D2:  MOVLW  00
064D4:  MOVWF  FF8
064D6:  MOVLW  0E
064D8:  MOVLB  4
064DA:  MOVWF  x4B
064DC:  MOVLB  0
064DE:  CALL   4ABC
....................       SendDataDisplay(); 
064E2:  CALL   39C0
....................    }else if(ACiclos[i]==10){ 
064E6:  BRA    6776
064E8:  MOVLB  3
064EA:  CLRF   03
064EC:  MOVF   x67,W
064EE:  ADDLW  17
064F0:  MOVWF  FE9
064F2:  MOVLW  04
064F4:  ADDWFC 03,W
064F6:  MOVWF  FEA
064F8:  MOVF   FEF,W
064FA:  SUBLW  0A
064FC:  BNZ   653C
....................       printf("A%u.txt=\"Llenando\"",i+1); 
064FE:  MOVLW  01
06500:  ADDWF  x67,W
06502:  MOVLB  4
06504:  MOVWF  x46
06506:  MOVLW  41
06508:  BTFSS  F9E.4
0650A:  BRA    6508
0650C:  MOVWF  FAD
0650E:  MOVFF  446,44B
06512:  MOVLW  1B
06514:  MOVWF  x4C
06516:  MOVLB  0
06518:  CALL   4B1A
0651C:  MOVLW  9F
0651E:  MOVWF  FF6
06520:  MOVLW  02
06522:  MOVWF  FF7
06524:  MOVLW  00
06526:  MOVWF  FF8
06528:  MOVLW  0F
0652A:  MOVLB  4
0652C:  MOVWF  x4B
0652E:  MOVLB  0
06530:  CALL   4ABC
....................       SendDataDisplay(); 
06534:  CALL   39C0
....................    }else if(ACiclos[i]==11){ 
06538:  BRA    6776
0653A:  MOVLB  3
0653C:  CLRF   03
0653E:  MOVF   x67,W
06540:  ADDLW  17
06542:  MOVWF  FE9
06544:  MOVLW  04
06546:  ADDWFC 03,W
06548:  MOVWF  FEA
0654A:  MOVF   FEF,W
0654C:  SUBLW  0B
0654E:  BNZ   658E
....................       printf("A%u.txt=\"Vacio\"",i+1); 
06550:  MOVLW  01
06552:  ADDWF  x67,W
06554:  MOVLB  4
06556:  MOVWF  x46
06558:  MOVLW  41
0655A:  BTFSS  F9E.4
0655C:  BRA    655A
0655E:  MOVWF  FAD
06560:  MOVFF  446,44B
06564:  MOVLW  1B
06566:  MOVWF  x4C
06568:  MOVLB  0
0656A:  CALL   4B1A
0656E:  MOVLW  B3
06570:  MOVWF  FF6
06572:  MOVLW  02
06574:  MOVWF  FF7
06576:  MOVLW  00
06578:  MOVWF  FF8
0657A:  MOVLW  0C
0657C:  MOVLB  4
0657E:  MOVWF  x4B
06580:  MOVLB  0
06582:  CALL   4ABC
....................       SendDataDisplay(); 
06586:  CALL   39C0
....................    }else if(ACiclos[i]==12){ 
0658A:  BRA    6776
0658C:  MOVLB  3
0658E:  CLRF   03
06590:  MOVF   x67,W
06592:  ADDLW  17
06594:  MOVWF  FE9
06596:  MOVLW  04
06598:  ADDWFC 03,W
0659A:  MOVWF  FEA
0659C:  MOVF   FEF,W
0659E:  SUBLW  0C
065A0:  BNZ   65E0
....................       printf("A%u.txt=\"Calen\"",i+1); 
065A2:  MOVLW  01
065A4:  ADDWF  x67,W
065A6:  MOVLB  4
065A8:  MOVWF  x46
065AA:  MOVLW  41
065AC:  BTFSS  F9E.4
065AE:  BRA    65AC
065B0:  MOVWF  FAD
065B2:  MOVFF  446,44B
065B6:  MOVLW  1B
065B8:  MOVWF  x4C
065BA:  MOVLB  0
065BC:  CALL   4B1A
065C0:  MOVLW  C3
065C2:  MOVWF  FF6
065C4:  MOVLW  02
065C6:  MOVWF  FF7
065C8:  MOVLW  00
065CA:  MOVWF  FF8
065CC:  MOVLW  0C
065CE:  MOVLB  4
065D0:  MOVWF  x4B
065D2:  MOVLB  0
065D4:  CALL   4ABC
....................       SendDataDisplay(); 
065D8:  CALL   39C0
....................    }else if(ACiclos[i]==13){ 
065DC:  BRA    6776
065DE:  MOVLB  3
065E0:  CLRF   03
065E2:  MOVF   x67,W
065E4:  ADDLW  17
065E6:  MOVWF  FE9
065E8:  MOVLW  04
065EA:  ADDWFC 03,W
065EC:  MOVWF  FEA
065EE:  MOVF   FEF,W
065F0:  SUBLW  0D
065F2:  BNZ   6632
....................       printf("A%u.txt=\"Desfoga\"",i+1); 
065F4:  MOVLW  01
065F6:  ADDWF  x67,W
065F8:  MOVLB  4
065FA:  MOVWF  x46
065FC:  MOVLW  41
065FE:  BTFSS  F9E.4
06600:  BRA    65FE
06602:  MOVWF  FAD
06604:  MOVFF  446,44B
06608:  MOVLW  1B
0660A:  MOVWF  x4C
0660C:  MOVLB  0
0660E:  CALL   4B1A
06612:  MOVLW  D3
06614:  MOVWF  FF6
06616:  MOVLW  02
06618:  MOVWF  FF7
0661A:  MOVLW  00
0661C:  MOVWF  FF8
0661E:  MOVLW  0E
06620:  MOVLB  4
06622:  MOVWF  x4B
06624:  MOVLB  0
06626:  CALL   4ABC
....................       SendDataDisplay(); 
0662A:  CALL   39C0
....................    }else if(ACiclos[i]==14){ 
0662E:  BRA    6776
06630:  MOVLB  3
06632:  CLRF   03
06634:  MOVF   x67,W
06636:  ADDLW  17
06638:  MOVWF  FE9
0663A:  MOVLW  04
0663C:  ADDWFC 03,W
0663E:  MOVWF  FEA
06640:  MOVF   FEF,W
06642:  SUBLW  0E
06644:  BNZ   6684
....................       printf("A%u.txt=\"Finalizado\"",i+1); 
06646:  MOVLW  01
06648:  ADDWF  x67,W
0664A:  MOVLB  4
0664C:  MOVWF  x46
0664E:  MOVLW  41
06650:  BTFSS  F9E.4
06652:  BRA    6650
06654:  MOVWF  FAD
06656:  MOVFF  446,44B
0665A:  MOVLW  1B
0665C:  MOVWF  x4C
0665E:  MOVLB  0
06660:  CALL   4B1A
06664:  MOVLW  E5
06666:  MOVWF  FF6
06668:  MOVLW  02
0666A:  MOVWF  FF7
0666C:  MOVLW  00
0666E:  MOVWF  FF8
06670:  MOVLW  11
06672:  MOVLB  4
06674:  MOVWF  x4B
06676:  MOVLB  0
06678:  CALL   4ABC
....................       SendDataDisplay(); 
0667C:  CALL   39C0
....................    }else if(ACiclos[i]==15){ 
06680:  BRA    6776
06682:  MOVLB  3
06684:  CLRF   03
06686:  MOVF   x67,W
06688:  ADDLW  17
0668A:  MOVWF  FE9
0668C:  MOVLW  04
0668E:  ADDWFC 03,W
06690:  MOVWF  FEA
06692:  MOVF   FEF,W
06694:  SUBLW  0F
06696:  BNZ   66D6
....................       printf("A%u.txt=\"Secando\"",i+1); 
06698:  MOVLW  01
0669A:  ADDWF  x67,W
0669C:  MOVLB  4
0669E:  MOVWF  x46
066A0:  MOVLW  41
066A2:  BTFSS  F9E.4
066A4:  BRA    66A2
066A6:  MOVWF  FAD
066A8:  MOVFF  446,44B
066AC:  MOVLW  1B
066AE:  MOVWF  x4C
066B0:  MOVLB  0
066B2:  CALL   4B1A
066B6:  MOVLW  FB
066B8:  MOVWF  FF6
066BA:  MOVLW  02
066BC:  MOVWF  FF7
066BE:  MOVLW  00
066C0:  MOVWF  FF8
066C2:  MOVLW  0E
066C4:  MOVLB  4
066C6:  MOVWF  x4B
066C8:  MOVLB  0
066CA:  CALL   4ABC
....................       SendDataDisplay(); 
066CE:  CALL   39C0
....................    }else if(ACiclos[i]==16){ 
066D2:  BRA    6776
066D4:  MOVLB  3
066D6:  CLRF   03
066D8:  MOVF   x67,W
066DA:  ADDLW  17
066DC:  MOVWF  FE9
066DE:  MOVLW  04
066E0:  ADDWFC 03,W
066E2:  MOVWF  FEA
066E4:  MOVF   FEF,W
066E6:  SUBLW  10
066E8:  BNZ   6728
....................       printf("A%u.txt=\"Esterilizando\"",i+1); 
066EA:  MOVLW  01
066EC:  ADDWF  x67,W
066EE:  MOVLB  4
066F0:  MOVWF  x46
066F2:  MOVLW  41
066F4:  BTFSS  F9E.4
066F6:  BRA    66F4
066F8:  MOVWF  FAD
066FA:  MOVFF  446,44B
066FE:  MOVLW  1B
06700:  MOVWF  x4C
06702:  MOVLB  0
06704:  CALL   4B1A
06708:  MOVLW  0D
0670A:  MOVWF  FF6
0670C:  MOVLW  03
0670E:  MOVWF  FF7
06710:  MOVLW  00
06712:  MOVWF  FF8
06714:  MOVLW  14
06716:  MOVLB  4
06718:  MOVWF  x4B
0671A:  MOVLB  0
0671C:  CALL   4ABC
....................       SendDataDisplay(); 
06720:  CALL   39C0
....................    }else if(ACiclos[i]==17){ 
06724:  BRA    6776
06726:  MOVLB  3
06728:  CLRF   03
0672A:  MOVF   x67,W
0672C:  ADDLW  17
0672E:  MOVWF  FE9
06730:  MOVLW  04
06732:  ADDWFC 03,W
06734:  MOVWF  FEA
06736:  MOVF   FEF,W
06738:  SUBLW  11
0673A:  BNZ   6778
....................       printf("A%u.txt=\"Enfriando\"",i+1); 
0673C:  MOVLW  01
0673E:  ADDWF  x67,W
06740:  MOVLB  4
06742:  MOVWF  x46
06744:  MOVLW  41
06746:  BTFSS  F9E.4
06748:  BRA    6746
0674A:  MOVWF  FAD
0674C:  MOVFF  446,44B
06750:  MOVLW  1B
06752:  MOVWF  x4C
06754:  MOVLB  0
06756:  CALL   4B1A
0675A:  MOVLW  25
0675C:  MOVWF  FF6
0675E:  MOVLW  03
06760:  MOVWF  FF7
06762:  MOVLW  00
06764:  MOVWF  FF8
06766:  MOVLW  10
06768:  MOVLB  4
0676A:  MOVWF  x4B
0676C:  MOVLB  0
0676E:  CALL   4ABC
....................       SendDataDisplay(); 
06772:  CALL   39C0
06776:  MOVLB  3
....................    } 
.................... } 
06778:  MOVLB  0
0677A:  GOTO   C008 (RETURN)
....................  
.................... #ifdef Generador 
.................... void ControlaPresionChaqueta(){ 
....................    if(Setpoint<125){ 
*
047E6:  MOVLB  3
047E8:  MOVF   x6B,W
047EA:  SUBLW  7C
047EC:  BNC   4842
....................       if(PresionPreCamara<110){ 
047EE:  MOVF   x81,F
047F0:  BNZ   47FE
047F2:  MOVF   x80,W
047F4:  SUBLW  6D
047F6:  BNC   47FE
....................          SSR_on; 
047F8:  BCF    F8B.2
047FA:  BCF    F94.2
....................       }else if(PresionPreCamara>120){ 
047FC:  BRA    4840
047FE:  MOVF   x81,F
04800:  BNZ   4808
04802:  MOVF   x80,W
04804:  SUBLW  78
04806:  BC    4840
....................          SSR_off; 
04808:  BSF    F8B.2
0480A:  BCF    F94.2
....................          if(!Precalentamiento && guardaCiclo){ 
0480C:  MOVLB  0
0480E:  BTFSC  xA0.7
04810:  BRA    483E
04812:  BTFSS  xA4.6
04814:  BRA    483E
....................             Precalentamiento=ON; 
04816:  BSF    xA0.7
....................             if(DOOR){ 
04818:  BSF    F93.6
0481A:  BTFSC  F81.6
0481C:  BRA    483E
....................                Paso_on; 
0481E:  BSF    F8C.6
04820:  BCF    F95.6
....................                delay_ms(1500); 
04822:  MOVLW  06
04824:  MOVLB  4
04826:  MOVWF  x46
04828:  MOVLW  FA
0482A:  MOVWF  x5B
0482C:  MOVLB  0
0482E:  CALL   1AC8
04832:  MOVLB  4
04834:  DECFSZ x46,F
04836:  BRA    4828
....................                Paso_off; 
04838:  BCF    F8C.6
0483A:  BCF    F95.6
0483C:  MOVLB  0
0483E:  MOVLB  3
....................             } 
....................          } 
....................       } 
....................    }else{ 
04840:  BRA    4894
....................       if(PresionPreCamara<200){ 
04842:  MOVF   x81,F
04844:  BNZ   4852
04846:  MOVF   x80,W
04848:  SUBLW  C7
0484A:  BNC   4852
....................          SSR_on; 
0484C:  BCF    F8B.2
0484E:  BCF    F94.2
....................       }else if(PresionPreCamara>215){ 
04850:  BRA    4894
04852:  MOVF   x81,F
04854:  BNZ   485C
04856:  MOVF   x80,W
04858:  SUBLW  D7
0485A:  BC    4894
....................          SSR_off; 
0485C:  BSF    F8B.2
0485E:  BCF    F94.2
....................          if(!Precalentamiento && guardaCiclo){ 
04860:  MOVLB  0
04862:  BTFSC  xA0.7
04864:  BRA    4892
04866:  BTFSS  xA4.6
04868:  BRA    4892
....................             Precalentamiento=ON; 
0486A:  BSF    xA0.7
....................             if(DOOR){ 
0486C:  BSF    F93.6
0486E:  BTFSC  F81.6
04870:  BRA    4892
....................                Paso_on; 
04872:  BSF    F8C.6
04874:  BCF    F95.6
....................                delay_ms(1500); 
04876:  MOVLW  06
04878:  MOVLB  4
0487A:  MOVWF  x46
0487C:  MOVLW  FA
0487E:  MOVWF  x5B
04880:  MOVLB  0
04882:  CALL   1AC8
04886:  MOVLB  4
04888:  DECFSZ x46,F
0488A:  BRA    487C
....................                Paso_off; 
0488C:  BCF    F8C.6
0488E:  BCF    F95.6
04890:  MOVLB  0
04892:  MOVLB  3
....................             } 
....................          } 
....................       } 
....................    } 
.................... } 
04894:  MOVLB  0
04896:  RETLW  00
....................  
.................... void monitoreaAgua(){  
....................    if(!guardaCiclo && CalderinLleno){ 
04898:  BTFSC  xA4.6
0489A:  BRA    48A8
0489C:  BTFSS  xA0.0
0489E:  BRA    48A8
....................       ControlaPresionChaqueta(); 
048A0:  RCALL  47E6
....................       Agua_off;       
048A2:  BCF    F8C.5
048A4:  BCF    F95.5
....................    }else if(!guardaCiclo && !CalderinLleno){ 
048A6:  BRA    48D0
048A8:  BTFSC  xA4.6
048AA:  BRA    48B6
048AC:  BTFSC  xA0.0
048AE:  BRA    48B6
....................       Agua_on; 
048B0:  BSF    F8C.5
048B2:  BCF    F95.5
....................    }else if(guardaCiclo && !CalderinLleno){ 
048B4:  BRA    48D0
048B6:  BTFSS  xA4.6
048B8:  BRA    48C4
048BA:  BTFSC  xA0.0
048BC:  BRA    48C4
....................       Agua_on; 
048BE:  BSF    F8C.5
048C0:  BCF    F95.5
....................    }else if(guardaCiclo && CalderinLleno){ 
048C2:  BRA    48D0
048C4:  BTFSS  xA4.6
048C6:  BRA    48D0
048C8:  BTFSS  xA0.0
048CA:  BRA    48D0
....................       Agua_off; 
048CC:  BCF    F8C.5
048CE:  BCF    F95.5
....................    } 
....................     
....................    if(!LOW){//Si no sensa agua en el nivel alto y no se ha llenado el calderin          
048D0:  BSF    F94.1
048D2:  BTFSC  F82.1
048D4:  BRA    48E0
....................       SensadoNivelL=ON;  
048D6:  BSF    xA2.0
....................       Controlando=0;    
048D8:  MOVLB  3
048DA:  CLRF   x5C
....................    }else{ 
048DC:  BRA    48E8
048DE:  MOVLB  0
....................       NivelBajo=ON; 
048E0:  BSF    xA3.2
....................       tNivelBajo=0; 
048E2:  CLRF   xB3
048E4:  CLRF   xB2
....................       SensadoNivelL=OFF; 
048E6:  BCF    xA2.0
....................    } 
....................    
....................    if(tNivelBajo>3){ 
048E8:  MOVLB  0
048EA:  MOVF   xB3,F
048EC:  BNZ   48F4
048EE:  MOVF   xB2,W
048F0:  SUBLW  03
048F2:  BC    4904
....................       SensadoNivelL=OFF; 
048F4:  BCF    xA2.0
....................       NivelBajo=OFF; 
048F6:  BCF    xA3.2
....................       TiempoSensadoNivel=0; 
048F8:  CLRF   xAB
048FA:  CLRF   xAA
....................       SensadoNivel=OFF; 
048FC:  BCF    xA0.4
....................       if(!Esterilizando) 
048FE:  BTFSC  xA0.2
04900:  BRA    4904
....................          CalderinLleno=OFF; 
04902:  BCF    xA0.0
....................    } 
....................    
....................    if(NivelBajo){ 
04904:  BTFSS  xA3.2
04906:  BRA    4928
....................       if(HIG){ 
04908:  BSF    F94.0
0490A:  BTFSS  F82.0
0490C:  BRA    4922
....................          SensadoNivel=ON; 
0490E:  BSF    xA0.4
....................          if(TiempoSensadoNivel>=3){ 
04910:  MOVF   xAB,F
04912:  BNZ   491A
04914:  MOVF   xAA,W
04916:  SUBLW  02
04918:  BC    4920
....................             SensadoNivel=OFF; 
0491A:  BCF    xA0.4
....................             CalderinLleno=ON; 
0491C:  BSF    xA0.0
....................             IniciaLlenado=OFF;                   
0491E:  BCF    x9F.7
....................          } 
....................       }else{ 
04920:  BRA    4928
....................          SensadoNivel=OFF; 
04922:  BCF    xA0.4
....................          TiempoSensadoNivel=0; 
04924:  CLRF   xAB
04926:  CLRF   xAA
....................       } 
....................    }   
.................... } 
04928:  RETLW  00
.................... #else 
.................... void enciendeBombaAgua(){ 
....................    if(tBombaAgua>120){//Enciende 120 segundos 
....................       Agua_off; 
....................       Bomba_off; 
....................       flagBombaAgua=OFF; 
....................       flagBombaAguaOff=ON; 
....................       if(tBombaAguaOff>=60){//Apaga 60 segundos 
....................          tBombaAgua=0; 
....................       } 
....................    }else{ 
....................       Agua_on; 
....................       Bomba_on; 
....................       flagBombaAgua=ON; 
....................       flagBombaAguaOff=OFF; 
....................       tBombaAguaOff=0; 
....................    } 
.................... } 
....................  
.................... void apagaBombaAgua(){ 
....................    Agua_off; 
....................    Bomba_off; 
....................    flagBombaAgua=OFF; 
....................    flagBombaAguaOff=OFF; 
....................    tBombaAguaOff=0; 
....................    tBombaAgua=0; 
.................... } 
.................... #endif 
....................  
.................... void revisePresion(){ 
....................    if(DOOR){ 
*
04F8C:  BSF    F93.6
04F8E:  BTFSC  F81.6
04F90:  BRA    52B0
....................          if(PresionCamara>=Atmosferica+22){ 
04F92:  MOVLW  16
04F94:  MOVLB  3
04F96:  ADDWF  xB5,W
04F98:  MOVF   x7F,F
04F9A:  BNZ   4FA2
04F9C:  SUBWF  x7E,W
04F9E:  BTFSS  FD8.0
04FA0:  BRA    50A0
....................             ActivaAlarma(3); 
04FA2:  MOVLW  03
04FA4:  MOVLB  4
04FA6:  MOVWF  x46
04FA8:  MOVLB  0
04FAA:  RCALL  495C
....................             if(flagBuzzer){ 
04FAC:  BTFSS  xA3.5
04FAE:  BRA    5088
....................                printf("fecha.txt=\"Pc:%03Ld kPa Pp:%03Lu kPa T:%2.1fC Hora:%02u:%02u:%02u\"",PresionCamara,PresionPrecamara,Temperatura,Hora,Minuto,Segundo); 
04FB0:  MOVLW  36
04FB2:  MOVWF  FF6
04FB4:  MOVLW  03
04FB6:  MOVWF  FF7
04FB8:  MOVLW  00
04FBA:  MOVWF  FF8
04FBC:  MOVLW  0E
04FBE:  MOVLB  4
04FC0:  MOVWF  x4B
04FC2:  MOVLB  0
04FC4:  RCALL  4ABC
04FC6:  MOVLW  0B
04FC8:  MOVWF  FE9
04FCA:  MOVFF  37F,447
04FCE:  MOVFF  37E,446
04FD2:  RCALL  4B98
04FD4:  MOVLW  49
04FD6:  MOVWF  FF6
04FD8:  MOVLW  03
04FDA:  MOVWF  FF7
04FDC:  MOVLW  00
04FDE:  MOVWF  FF8
04FE0:  MOVLW  08
04FE2:  MOVLB  4
04FE4:  MOVWF  x4B
04FE6:  MOVLB  0
04FE8:  RCALL  4ABC
04FEA:  MOVLW  0A
04FEC:  MOVWF  FE9
04FEE:  MOVFF  381,44B
04FF2:  MOVFF  380,44A
04FF6:  RCALL  4C7A
04FF8:  MOVLW  56
04FFA:  MOVWF  FF6
04FFC:  MOVLW  03
04FFE:  MOVWF  FF7
05000:  MOVLW  00
05002:  MOVWF  FF8
05004:  MOVLW  07
05006:  MOVLB  4
05008:  MOVWF  x4B
0500A:  MOVLB  0
0500C:  RCALL  4ABC
0500E:  MOVLW  01
05010:  MOVWF  FE9
05012:  MOVFF  332,44E
05016:  MOVFF  331,44D
0501A:  MOVFF  330,44C
0501E:  MOVFF  32F,44B
05022:  MOVLB  4
05024:  MOVWF  x4F
05026:  MOVLB  0
05028:  RCALL  4DE8
0502A:  MOVLW  62
0502C:  MOVWF  FF6
0502E:  MOVLW  03
05030:  MOVWF  FF7
05032:  MOVLW  00
05034:  MOVWF  FF8
05036:  MOVLW  08
05038:  MOVLB  4
0503A:  MOVWF  x4B
0503C:  MOVLB  0
0503E:  RCALL  4ABC
05040:  MOVFF  3A8,44B
05044:  MOVLW  01
05046:  MOVLB  4
05048:  MOVWF  x4C
0504A:  MOVLB  0
0504C:  RCALL  4B1A
0504E:  MOVLW  3A
05050:  BTFSS  F9E.4
05052:  BRA    5050
05054:  MOVWF  FAD
05056:  MOVFF  3A9,44B
0505A:  MOVLW  01
0505C:  MOVLB  4
0505E:  MOVWF  x4C
05060:  MOVLB  0
05062:  RCALL  4B1A
05064:  MOVLW  3A
05066:  BTFSS  F9E.4
05068:  BRA    5066
0506A:  MOVWF  FAD
0506C:  MOVFF  3AA,44B
05070:  MOVLW  01
05072:  MOVLB  4
05074:  MOVWF  x4C
05076:  MOVLB  0
05078:  RCALL  4B1A
0507A:  MOVLW  22
0507C:  BTFSS  F9E.4
0507E:  BRA    507C
05080:  MOVWF  FAD
....................                SendDataDisplay(); 
05082:  CALL   39C0
....................             }else{ 
05086:  BRA    509C
....................                printf("fecha.txt=\"!AUTOCLAVE PRESURIZADA, NO ABRA LA PUERTA!\""); 
05088:  MOVLW  7A
0508A:  MOVWF  FF6
0508C:  MOVLW  03
0508E:  MOVWF  FF7
05090:  MOVLW  00
05092:  MOVWF  FF8
05094:  CALL   398E
....................                SendDataDisplay(); 
05098:  CALL   39C0
....................             } 
....................          }else if(PresionCamara>Atmosferica+3 && PresionCamara<Atmosferica+22){ 
0509C:  BRA    52AA
0509E:  MOVLB  3
050A0:  MOVLW  03
050A2:  ADDWF  xB5,W
050A4:  MOVF   x7F,F
050A6:  BNZ   50B2
050A8:  SUBWF  x7E,W
050AA:  BTFSC  FD8.2
050AC:  BRA    51C0
050AE:  BTFSS  FD8.0
050B0:  BRA    51C0
050B2:  MOVLW  16
050B4:  ADDWF  xB5,W
050B6:  MOVF   x7F,F
050B8:  BTFSS  FD8.2
050BA:  BRA    51C0
050BC:  SUBWF  x7E,W
050BE:  BTFSC  FD8.0
050C0:  BRA    51C0
....................             ActivaAlarma(3); 
050C2:  MOVLW  03
050C4:  MOVLB  4
050C6:  MOVWF  x46
050C8:  MOVLB  0
050CA:  RCALL  495C
....................             if(flagBuzzer){ 
050CC:  BTFSS  xA3.5
050CE:  BRA    51A8
....................                printf("fecha.txt=\"Pc:%03Ld kPa Pp:%03Lu kPa T:%2.1fC Hora:%02u:%02u:%02u\"",PresionCamara,PresionPrecamara,Temperatura,Hora,Minuto,Segundo); 
050D0:  MOVLW  B2
050D2:  MOVWF  FF6
050D4:  MOVLW  03
050D6:  MOVWF  FF7
050D8:  MOVLW  00
050DA:  MOVWF  FF8
050DC:  MOVLW  0E
050DE:  MOVLB  4
050E0:  MOVWF  x4B
050E2:  MOVLB  0
050E4:  RCALL  4ABC
050E6:  MOVLW  0B
050E8:  MOVWF  FE9
050EA:  MOVFF  37F,447
050EE:  MOVFF  37E,446
050F2:  RCALL  4B98
050F4:  MOVLW  C5
050F6:  MOVWF  FF6
050F8:  MOVLW  03
050FA:  MOVWF  FF7
050FC:  MOVLW  00
050FE:  MOVWF  FF8
05100:  MOVLW  08
05102:  MOVLB  4
05104:  MOVWF  x4B
05106:  MOVLB  0
05108:  RCALL  4ABC
0510A:  MOVLW  0A
0510C:  MOVWF  FE9
0510E:  MOVFF  381,44B
05112:  MOVFF  380,44A
05116:  RCALL  4C7A
05118:  MOVLW  D2
0511A:  MOVWF  FF6
0511C:  MOVLW  03
0511E:  MOVWF  FF7
05120:  MOVLW  00
05122:  MOVWF  FF8
05124:  MOVLW  07
05126:  MOVLB  4
05128:  MOVWF  x4B
0512A:  MOVLB  0
0512C:  RCALL  4ABC
0512E:  MOVLW  01
05130:  MOVWF  FE9
05132:  MOVFF  332,44E
05136:  MOVFF  331,44D
0513A:  MOVFF  330,44C
0513E:  MOVFF  32F,44B
05142:  MOVLB  4
05144:  MOVWF  x4F
05146:  MOVLB  0
05148:  RCALL  4DE8
0514A:  MOVLW  DE
0514C:  MOVWF  FF6
0514E:  MOVLW  03
05150:  MOVWF  FF7
05152:  MOVLW  00
05154:  MOVWF  FF8
05156:  MOVLW  08
05158:  MOVLB  4
0515A:  MOVWF  x4B
0515C:  MOVLB  0
0515E:  RCALL  4ABC
05160:  MOVFF  3A8,44B
05164:  MOVLW  01
05166:  MOVLB  4
05168:  MOVWF  x4C
0516A:  MOVLB  0
0516C:  RCALL  4B1A
0516E:  MOVLW  3A
05170:  BTFSS  F9E.4
05172:  BRA    5170
05174:  MOVWF  FAD
05176:  MOVFF  3A9,44B
0517A:  MOVLW  01
0517C:  MOVLB  4
0517E:  MOVWF  x4C
05180:  MOVLB  0
05182:  RCALL  4B1A
05184:  MOVLW  3A
05186:  BTFSS  F9E.4
05188:  BRA    5186
0518A:  MOVWF  FAD
0518C:  MOVFF  3AA,44B
05190:  MOVLW  01
05192:  MOVLB  4
05194:  MOVWF  x4C
05196:  MOVLB  0
05198:  RCALL  4B1A
0519A:  MOVLW  22
0519C:  BTFSS  F9E.4
0519E:  BRA    519C
051A0:  MOVWF  FAD
....................                SendDataDisplay(); 
051A2:  CALL   39C0
....................             }else{ 
051A6:  BRA    51BC
....................                printf("fecha.txt=\"!AUTOCLAVE PRESURIZADA, ABRA CON PRECAUCION!\""); 
051A8:  MOVLW  F6
051AA:  MOVWF  FF6
051AC:  MOVLW  03
051AE:  MOVWF  FF7
051B0:  MOVLW  00
051B2:  MOVWF  FF8
051B4:  CALL   398E
....................                SendDataDisplay(); 
051B8:  CALL   39C0
....................             } 
....................          }else if(PresionCamara<= Atmosferica+3){    
051BC:  BRA    52AA
051BE:  MOVLB  3
051C0:  MOVLW  03
051C2:  ADDWF  xB5,W
051C4:  MOVF   x7F,F
051C6:  BTFSS  FD8.2
051C8:  BRA    52AC
051CA:  SUBWF  x7E,W
051CC:  BZ    51D0
051CE:  BC    52AC
....................             printf("fecha.txt=\"Pc:%03Ld kPa Pp:%03Lu kPa T:%2.1fC Hora:%02u:%02u:%02u\"",PresionCamara,PresionPrecamara,Temperatura,Hora,Minuto,Segundo); 
051D0:  MOVLW  30
051D2:  MOVWF  FF6
051D4:  MOVLW  04
051D6:  MOVWF  FF7
051D8:  MOVLW  00
051DA:  MOVWF  FF8
051DC:  MOVLW  0E
051DE:  MOVLB  4
051E0:  MOVWF  x4B
051E2:  MOVLB  0
051E4:  RCALL  4ABC
051E6:  MOVLW  0B
051E8:  MOVWF  FE9
051EA:  MOVFF  37F,447
051EE:  MOVFF  37E,446
051F2:  RCALL  4B98
051F4:  MOVLW  43
051F6:  MOVWF  FF6
051F8:  MOVLW  04
051FA:  MOVWF  FF7
051FC:  MOVLW  00
051FE:  MOVWF  FF8
05200:  MOVLW  08
05202:  MOVLB  4
05204:  MOVWF  x4B
05206:  MOVLB  0
05208:  RCALL  4ABC
0520A:  MOVLW  0A
0520C:  MOVWF  FE9
0520E:  MOVFF  381,44B
05212:  MOVFF  380,44A
05216:  RCALL  4C7A
05218:  MOVLW  50
0521A:  MOVWF  FF6
0521C:  MOVLW  04
0521E:  MOVWF  FF7
05220:  MOVLW  00
05222:  MOVWF  FF8
05224:  MOVLW  07
05226:  MOVLB  4
05228:  MOVWF  x4B
0522A:  MOVLB  0
0522C:  RCALL  4ABC
0522E:  MOVLW  01
05230:  MOVWF  FE9
05232:  MOVFF  332,44E
05236:  MOVFF  331,44D
0523A:  MOVFF  330,44C
0523E:  MOVFF  32F,44B
05242:  MOVLB  4
05244:  MOVWF  x4F
05246:  MOVLB  0
05248:  RCALL  4DE8
0524A:  MOVLW  5C
0524C:  MOVWF  FF6
0524E:  MOVLW  04
05250:  MOVWF  FF7
05252:  MOVLW  00
05254:  MOVWF  FF8
05256:  MOVLW  08
05258:  MOVLB  4
0525A:  MOVWF  x4B
0525C:  MOVLB  0
0525E:  RCALL  4ABC
05260:  MOVFF  3A8,44B
05264:  MOVLW  01
05266:  MOVLB  4
05268:  MOVWF  x4C
0526A:  MOVLB  0
0526C:  RCALL  4B1A
0526E:  MOVLW  3A
05270:  BTFSS  F9E.4
05272:  BRA    5270
05274:  MOVWF  FAD
05276:  MOVFF  3A9,44B
0527A:  MOVLW  01
0527C:  MOVLB  4
0527E:  MOVWF  x4C
05280:  MOVLB  0
05282:  RCALL  4B1A
05284:  MOVLW  3A
05286:  BTFSS  F9E.4
05288:  BRA    5286
0528A:  MOVWF  FAD
0528C:  MOVFF  3AA,44B
05290:  MOVLW  01
05292:  MOVLB  4
05294:  MOVWF  x4C
05296:  MOVLB  0
05298:  RCALL  4B1A
0529A:  MOVLW  22
0529C:  BTFSS  F9E.4
0529E:  BRA    529C
052A0:  MOVWF  FAD
....................             SendDataDisplay(); 
052A2:  CALL   39C0
....................             Buzzer_off; 
052A6:  BCF    F8C.0
052A8:  BCF    F95.0
052AA:  MOVLB  3
....................          } 
....................       }else{ 
052AC:  BRA    539A
052AE:  MOVLB  0
....................             printf("fecha.txt=\"Pc:%03Ld kPa Pp:%03Lu kPa T:%2.1fC Hora:%02u:%02u:%02u\"",PresionCamara,PresionPrecamara,Temperatura,Hora,Minuto,Segundo); 
052B0:  MOVLW  74
052B2:  MOVWF  FF6
052B4:  MOVLW  04
052B6:  MOVWF  FF7
052B8:  MOVLW  00
052BA:  MOVWF  FF8
052BC:  MOVLW  0E
052BE:  MOVLB  4
052C0:  MOVWF  x4B
052C2:  MOVLB  0
052C4:  CALL   4ABC
052C8:  MOVLW  0B
052CA:  MOVWF  FE9
052CC:  MOVFF  37F,447
052D0:  MOVFF  37E,446
052D4:  RCALL  4B98
052D6:  MOVLW  87
052D8:  MOVWF  FF6
052DA:  MOVLW  04
052DC:  MOVWF  FF7
052DE:  MOVLW  00
052E0:  MOVWF  FF8
052E2:  MOVLW  08
052E4:  MOVLB  4
052E6:  MOVWF  x4B
052E8:  MOVLB  0
052EA:  CALL   4ABC
052EE:  MOVLW  0A
052F0:  MOVWF  FE9
052F2:  MOVFF  381,44B
052F6:  MOVFF  380,44A
052FA:  RCALL  4C7A
052FC:  MOVLW  94
052FE:  MOVWF  FF6
05300:  MOVLW  04
05302:  MOVWF  FF7
05304:  MOVLW  00
05306:  MOVWF  FF8
05308:  MOVLW  07
0530A:  MOVLB  4
0530C:  MOVWF  x4B
0530E:  MOVLB  0
05310:  CALL   4ABC
05314:  MOVLW  01
05316:  MOVWF  FE9
05318:  MOVFF  332,44E
0531C:  MOVFF  331,44D
05320:  MOVFF  330,44C
05324:  MOVFF  32F,44B
05328:  MOVLB  4
0532A:  MOVWF  x4F
0532C:  MOVLB  0
0532E:  RCALL  4DE8
05330:  MOVLW  A0
05332:  MOVWF  FF6
05334:  MOVLW  04
05336:  MOVWF  FF7
05338:  MOVLW  00
0533A:  MOVWF  FF8
0533C:  MOVLW  08
0533E:  MOVLB  4
05340:  MOVWF  x4B
05342:  MOVLB  0
05344:  CALL   4ABC
05348:  MOVFF  3A8,44B
0534C:  MOVLW  01
0534E:  MOVLB  4
05350:  MOVWF  x4C
05352:  MOVLB  0
05354:  CALL   4B1A
05358:  MOVLW  3A
0535A:  BTFSS  F9E.4
0535C:  BRA    535A
0535E:  MOVWF  FAD
05360:  MOVFF  3A9,44B
05364:  MOVLW  01
05366:  MOVLB  4
05368:  MOVWF  x4C
0536A:  MOVLB  0
0536C:  CALL   4B1A
05370:  MOVLW  3A
05372:  BTFSS  F9E.4
05374:  BRA    5372
05376:  MOVWF  FAD
05378:  MOVFF  3AA,44B
0537C:  MOVLW  01
0537E:  MOVLB  4
05380:  MOVWF  x4C
05382:  MOVLB  0
05384:  CALL   4B1A
05388:  MOVLW  22
0538A:  BTFSS  F9E.4
0538C:  BRA    538A
0538E:  MOVWF  FAD
....................             SendDataDisplay(); 
05390:  CALL   39C0
....................             Buzzer_off; 
05394:  BCF    F8C.0
05396:  BCF    F95.0
05398:  MOVLB  3
....................           
....................       } 
.................... } 
0539A:  MOVLB  0
0539C:  RETLW  00
....................  
.................... void purgaAire(){ 
....................    if(PresionCamara>Atmosferica+30 && !purgo){ 
*
075B0:  MOVLW  1E
075B2:  MOVLB  3
075B4:  ADDWF  xB5,W
075B6:  MOVF   x7F,F
075B8:  BNZ   75C0
075BA:  SUBWF  x7E,W
075BC:  BZ    75D0
075BE:  BNC   75D0
075C0:  MOVLB  0
075C2:  BTFSS  xA3.3
075C4:  BRA    75CA
075C6:  MOVLB  3
075C8:  BRA    75D0
....................       purgaAire2=ON; 
075CA:  BSF    xA3.4
....................    }else{ 
075CC:  BRA    75D8
075CE:  MOVLB  3
....................       purgaAire2=OFF; 
075D0:  MOVLB  0
075D2:  BCF    xA3.4
....................       Desfogue_off; 
075D4:  BCF    F8C.4
075D6:  BCF    F95.4
....................    } 
....................     
....................    if(purgaAire2){ 
075D8:  BTFSS  xA3.4
075DA:  BRA    76A0
....................       if(tPurgaAire>0 && tPurgaAire<6){ 
075DC:  MOVF   xB6,F
075DE:  BNZ   75E4
075E0:  MOVF   xB7,F
075E2:  BZ    75F4
075E4:  MOVF   xB7,F
075E6:  BNZ   75F4
075E8:  MOVF   xB6,W
075EA:  SUBLW  05
075EC:  BNC   75F4
....................          Desfogue_on; 
075EE:  BSF    F8C.4
075F0:  BCF    F95.4
....................       }else if(tPurgaAire>=6 && tPurgaAire<66){ 
075F2:  BRA    76A0
075F4:  MOVF   xB7,F
075F6:  BNZ   75FE
075F8:  MOVF   xB6,W
075FA:  SUBLW  05
075FC:  BC    760E
075FE:  MOVF   xB7,F
07600:  BNZ   760E
07602:  MOVF   xB6,W
07604:  SUBLW  41
07606:  BNC   760E
....................          Desfogue_off; 
07608:  BCF    F8C.4
0760A:  BCF    F95.4
....................       }else if(tPurgaAire>=66 && tPurgaAire<72){ 
0760C:  BRA    76A0
0760E:  MOVF   xB7,F
07610:  BNZ   7618
07612:  MOVF   xB6,W
07614:  SUBLW  41
07616:  BC    7628
07618:  MOVF   xB7,F
0761A:  BNZ   7628
0761C:  MOVF   xB6,W
0761E:  SUBLW  47
07620:  BNC   7628
....................          Desfogue_on; 
07622:  BSF    F8C.4
07624:  BCF    F95.4
....................       }else if(tPurgaAire>=72 && tPurgaAire<132){ 
07626:  BRA    76A0
07628:  MOVF   xB7,F
0762A:  BNZ   7632
0762C:  MOVF   xB6,W
0762E:  SUBLW  47
07630:  BC    7642
07632:  MOVF   xB7,F
07634:  BNZ   7642
07636:  MOVF   xB6,W
07638:  SUBLW  83
0763A:  BNC   7642
....................          Desfogue_off; 
0763C:  BCF    F8C.4
0763E:  BCF    F95.4
....................       }else if(tPurgaAire>=132 && tPurgaAire<138){ 
07640:  BRA    76A0
07642:  MOVF   xB7,F
07644:  BNZ   764C
07646:  MOVF   xB6,W
07648:  SUBLW  83
0764A:  BC    765C
0764C:  MOVF   xB7,F
0764E:  BNZ   765C
07650:  MOVF   xB6,W
07652:  SUBLW  89
07654:  BNC   765C
....................          Desfogue_on; 
07656:  BSF    F8C.4
07658:  BCF    F95.4
....................       }else if(tPurgaAire>=138 && tPurgaAire<198){ 
0765A:  BRA    76A0
0765C:  MOVF   xB7,F
0765E:  BNZ   7666
07660:  MOVF   xB6,W
07662:  SUBLW  89
07664:  BC    7676
07666:  MOVF   xB7,F
07668:  BNZ   7676
0766A:  MOVF   xB6,W
0766C:  SUBLW  C5
0766E:  BNC   7676
....................          Desfogue_off; 
07670:  BCF    F8C.4
07672:  BCF    F95.4
....................       }else if(tPurgaAire>=198 && tPurgaAire<204){ 
07674:  BRA    76A0
07676:  MOVF   xB7,F
07678:  BNZ   7680
0767A:  MOVF   xB6,W
0767C:  SUBLW  C5
0767E:  BC    7690
07680:  MOVF   xB7,F
07682:  BNZ   7690
07684:  MOVF   xB6,W
07686:  SUBLW  CB
07688:  BNC   7690
....................          Desfogue_on; 
0768A:  BSF    F8C.4
0768C:  BCF    F95.4
....................       }else if(tPurgaAire>0){ 
0768E:  BRA    76A0
07690:  MOVF   xB6,F
07692:  BNZ   7698
07694:  MOVF   xB7,F
07696:  BZ    76A0
....................          Desfogue_off; 
07698:  BCF    F8C.4
0769A:  BCF    F95.4
....................          purgaAire2=OFF; 
0769C:  BCF    xA3.4
....................          purgo=ON; 
0769E:  BSF    xA3.3
....................       } 
....................    } 
....................  
.................... } 
076A0:  GOTO   C9F0 (RETURN)
....................  
....................  
.................... #int_rda HIGH 
.................... void serial_rx_isr(){ 
....................  
....................    Dato2=fgetc(); 
*
004B8:  BTFSS  F9E.5
004BA:  BRA    04B8
004BC:  MOVFF  FAE,362
004C0:  MOVLB  3
....................    if(Dato2==0x65){//Inicio Comunicacion 
004C2:  MOVF   x62,W
004C4:  SUBLW  65
004C6:  BNZ   04CE
....................       Inicio=1; 
004C8:  MOVLW  01
004CA:  MOVWF  x60
....................       RX_Wr_Index =0; 
004CC:  CLRF   46
....................    } 
....................    //Inicio=1; 
....................    if(Inicio==1){ 
004CE:  DECFSZ x60,W
004D0:  BRA    04E6
....................       Rx_Buffer2[RX_Wr_Index] = Dato2; 
004D2:  CLRF   03
004D4:  MOVF   46,W
004D6:  ADDLW  3B
004D8:  MOVWF  FE9
004DA:  MOVLW  00
004DC:  ADDWFC 03,W
004DE:  MOVWF  FEA
004E0:  MOVFF  362,FEF
....................       RX_Wr_Index++; 
004E4:  INCF   46,F
....................    } 
....................    if(RX_Wr_Index >= RX_BUFFER_SIZE){ 
004E6:  MOVF   46,W
004E8:  SUBLW  09
004EA:  BC    04F0
....................       RX_Wr_Index =0; 
004EC:  CLRF   46
....................       Inicio=0; 
004EE:  CLRF   x60
....................    } 
....................  
....................    if(RX_Wr_Index==0){ 
004F0:  MOVF   46,F
004F2:  BNZ   0514
....................       if(Rx_Buffer2[0]==0x65 && Rx_Buffer2[1]==0xff && Rx_Buffer2[2]==0xff && Rx_Buffer2[8]==0x00 && Rx_Buffer2[9]==0xff ){ 
004F4:  MOVF   3B,W
004F6:  SUBLW  65
004F8:  BNZ   0510
004FA:  INCFSZ 3C,W
004FC:  BRA    0510
004FE:  INCFSZ 3D,W
00500:  BRA    0510
00502:  MOVF   43,F
00504:  BNZ   0510
00506:  INCFSZ 44,W
00508:  BRA    0510
....................          Dato_Exitoso=5; 
0050A:  MOVLW  05
0050C:  MOVWF  x61
....................       }else{ 
0050E:  BRA    0514
....................          Dato_Exitoso=10; 
00510:  MOVLW  0A
00512:  MOVWF  x61
....................       } 
....................    } 
....................    //Dato_Exitoso=5; 
....................    if(Menu==20) 
00514:  MOVF   x64,W
00516:  SUBLW  14
00518:  BNZ   051E
....................      Buzzer_on; 
0051A:  BSF    F8C.0
0051C:  BCF    F95.0
.................... } 
....................  
0051E:  BCF    F9E.5
00520:  MOVLB  0
00522:  GOTO   010A
.................... #int_TIMER0 
.................... void temp0s(void){ 
....................    set_timer0(0); 
00526:  CLRF   FD7
00528:  CLRF   FD6
....................    t_exhaust++; 
0052A:  MOVLB  3
0052C:  INCF   x99,F
0052E:  BTFSC  FD8.2
00530:  INCF   x9A,F
....................    if(DesfogueSuave){ 
00532:  MOVLB  0
00534:  BTFSS  xA0.6
00536:  BRA    0578
....................       if(Nivel<6){ 
00538:  MOVLB  3
0053A:  MOVF   x7B,F
0053C:  BNZ   0572
0053E:  MOVF   x7A,W
00540:  SUBLW  05
00542:  BNC   0572
....................          if(t_exhaust<=NivelSeleccionado) // Si el tiempo es menor o igual al tiempo de control se enciende la resistencia de lo contrario se apaga. 
00544:  MOVF   x9A,W
00546:  SUBWF  x85,W
00548:  BNC   0558
0054A:  BNZ   0552
0054C:  MOVF   x99,W
0054E:  SUBWF  x84,W
00550:  BNC   0558
....................             Desfogue_on; 
00552:  BSF    F8C.4
00554:  BCF    F95.4
....................          else             
00556:  BRA    055C
....................             Desfogue_off; 
00558:  BCF    F8C.4
0055A:  BCF    F95.4
....................        
....................          if(t_exhaust>=60000) // Si el tiempo de control es mayor al tiempo de ciclo se reinicia tiempo de control          
0055C:  MOVF   x9A,W
0055E:  SUBLW  E9
00560:  BC    0570
00562:  XORLW  FF
00564:  BNZ   056C
00566:  MOVF   x99,W
00568:  SUBLW  5F
0056A:  BC    0570
....................             t_exhaust=0; // tiempoctrl incrementa una unidad cada Xms, por eso se dividen los tiempos por 0.005. 
0056C:  CLRF   x9A
0056E:  CLRF   x99
....................       }else{ 
00570:  BRA    0576
....................          Desfogue_on; 
00572:  BSF    F8C.4
00574:  BCF    F95.4
00576:  MOVLB  0
....................       } 
....................    }   
.................... } 
....................  
00578:  BCF    FF2.2
0057A:  GOTO   0074
.................... #int_TIMER1 
.................... void temp1s(void){ 
....................    set_timer1(40536); // Se repite cada 5ms 
0057E:  MOVLW  9E
00580:  MOVWF  FCF
00582:  MOVLW  58
00584:  MOVWF  FCE
....................    tiempos++; 
00586:  MOVLB  3
00588:  INCF   x72,F
0058A:  BTFSC  FD8.2
0058C:  INCF   x73,F
....................    tiempos2++; 
0058E:  INCF   x74,F
00590:  BTFSC  FD8.2
00592:  INCF   x75,F
....................    tiempos3++; 
00594:  INCF   x76,F
00596:  BTFSC  FD8.2
00598:  INCF   x77,F
....................    tiempoctrl++; 
0059A:  INCF   x78,F
0059C:  BTFSC  FD8.2
0059E:  INCF   x79,F
....................     
....................    if(!STOP){ 
005A0:  BSF    F93.7
005A2:  BTFSS  F81.7
005A4:  BRA    05AE
....................       tStop++; 
005A6:  INCF   xA1,F
005A8:  BTFSC  FD8.2
005AA:  INCF   xA2,F
....................    }else{ 
005AC:  BRA    05B2
....................       tStop=0; 
005AE:  CLRF   xA2
005B0:  CLRF   xA1
....................    } 
....................     
....................    if(!TERM){ 
005B2:  BSF    F93.5
005B4:  BTFSS  F81.5
005B6:  BRA    05C0
....................       tTermostato++; 
005B8:  INCF   xA3,F
005BA:  BTFSC  FD8.2
005BC:  INCF   xA4,F
....................    }else{ 
005BE:  BRA    05C4
....................       tTermostato=0; 
005C0:  CLRF   xA4
005C2:  CLRF   xA3
....................    } 
....................     
....................    if(flagAlarma) 
005C4:  MOVLB  0
005C6:  BTFSS  xA3.1
005C8:  BRA    05D4
....................       tbuzzer++; 
005CA:  MOVLB  3
005CC:  INCF   x9B,F
005CE:  BTFSC  FD8.2
005D0:  INCF   x9C,F
005D2:  MOVLB  0
....................        
....................    if(flagSilencio)    
005D4:  BTFSS  xA3.6
005D6:  BRA    05E0
....................       tsilencio++; 
005D8:  MOVLB  3
005DA:  INCF   x9D,F
005DC:  BTFSC  FD8.2
005DE:  INCF   x9E,F
....................     
....................    if(Controlando==1){ 
005E0:  MOVLB  3
005E2:  DECFSZ x5C,W
005E4:  BRA    0622
....................       if(tiempoctrl<Tp) // Si el tiempo es menor o igual al tiempo de control se enciende la resistencia de lo contrario se apaga. 
005E6:  MOVF   x79,W
005E8:  MOVLB  0
005EA:  SUBWF  xAD,W
005EC:  BNC   0606
005EE:  BNZ   0600
005F0:  MOVF   xAC,W
005F2:  MOVLB  3
005F4:  SUBWF  x78,W
005F6:  BTFSS  FD8.0
005F8:  BRA    05FE
005FA:  MOVLB  0
005FC:  BRA    0606
005FE:  MOVLB  0
....................          SSR_on; 
00600:  BCF    F8B.2
00602:  BCF    F94.2
....................       else          
00604:  BRA    060A
....................          SSR_off; 
00606:  BSF    F8B.2
00608:  BCF    F94.2
....................              
....................       if(tiempoctrl>=Tc) // Si el tiempo de control es mayor al tiempo de ciclo se reinicia tiempo de control 
0060A:  MOVF   xAF,W
0060C:  MOVLB  3
0060E:  SUBWF  x79,W
00610:  BNC   0622
00612:  BNZ   061E
00614:  MOVLB  0
00616:  MOVF   xAE,W
00618:  MOVLB  3
0061A:  SUBWF  x78,W
0061C:  BNC   0622
....................          tiempoctrl=0;// tiempoctrl incrementa una unidad cada 5ms, por eso se dividen los tiempos por 0.005. 
0061E:  CLRF   x79
00620:  CLRF   x78
....................    } 
....................     
....................    if(tiempos>=200)  // 12000 para que incremente cada minuto, 200para que incremente cada segundo. 
00622:  MOVF   x73,F
00624:  BNZ   062E
00626:  MOVF   x72,W
00628:  SUBLW  C7
0062A:  BTFSC  FD8.0
0062C:  BRA    0796
....................    { 
....................       if(flagTC) 
0062E:  MOVLB  0
00630:  BTFSS  xA5.5
00632:  BRA    063A
....................          TiempoControl++; 
00634:  MOVLB  3
00636:  INCF   x96,F
00638:  MOVLB  0
....................        
....................       if(purgaAire2) 
0063A:  BTFSS  xA3.4
0063C:  BRA    0644
....................          tPurgaAire++; 
0063E:  INCF   xB6,F
00640:  BTFSC  FD8.2
00642:  INCF   xB7,F
....................        
....................       if(flagAlarma) 
00644:  BTFSS  xA3.1
00646:  BRA    064A
....................          flagBuzzer=!flagBuzzer; 
00648:  BTG    xA3.5
....................           
....................       tiemporecta++; 
0064A:  MOVLB  3
0064C:  INCF   x5B,F
....................        
....................       if(flagBombaAgua) 
0064E:  MOVLB  0
00650:  BTFSS  xA4.7
00652:  BRA    065E
....................          tBombaAgua++; 
00654:  MOVLB  3
00656:  INCF   x86,F
00658:  BTFSC  FD8.2
0065A:  INCF   x87,F
0065C:  MOVLB  0
....................        
....................       if(flagBombaAguaOff) 
0065E:  BTFSS  xA5.0
00660:  BRA    066C
....................          tBombaAguaOff++; 
00662:  MOVLB  3
00664:  INCF   x88,F
00666:  BTFSC  FD8.2
00668:  INCF   x89,F
0066A:  MOVLB  0
....................        
....................       if(IniciaCiclo && tiempoImpresion<CalculoImpresion){ 
0066C:  BTFSS  xA0.1
0066E:  BRA    0682
00670:  MOVLB  3
00672:  MOVF   x5F,W
00674:  SUBWF  x70,W
00676:  BTFSS  FD8.0
00678:  BRA    067E
0067A:  MOVLB  0
0067C:  BRA    0682
....................          tiempoImpresion++; 
0067E:  INCF   x70,F
....................       }else if(tiempoImpresion>=CalculoImpresion){ 
00680:  BRA    0692
00682:  MOVLB  3
00684:  MOVF   x5F,W
00686:  SUBWF  x70,W
00688:  BNC   0692
....................          flagImprime=1; 
0068A:  MOVLB  0
0068C:  BSF    xA5.6
....................          tiempoImpresion=0; 
0068E:  MOVLB  3
00690:  CLRF   x70
....................       } 
....................        
....................       if(IniciaCiclo && !Esterilizando){ 
00692:  MOVLB  0
00694:  BTFSS  xA0.1
00696:  BRA    06AC
00698:  BTFSC  xA0.2
0069A:  BRA    06AC
....................          TiempoCiclo++; 
0069C:  INCF   xA6,F
0069E:  BTFSC  FD8.2
006A0:  INCF   xA7,F
....................          tiempoAgua++; 
006A2:  MOVLB  3
006A4:  INCF   x9F,F
006A6:  BTFSC  FD8.2
006A8:  INCF   xA0,F
006AA:  MOVLB  0
....................       } 
....................        
....................       if(IniciaLlenado && !CalderinLleno){ 
006AC:  BTFSS  x9F.7
006AE:  BRA    06BA
006B0:  BTFSC  xA0.0
006B2:  BRA    06BA
....................          TiempoLlenado++; 
006B4:  INCF   xA8,F
006B6:  BTFSC  FD8.2
006B8:  INCF   xA9,F
....................       } 
....................        
....................       if(SensadoNivel){ 
006BA:  BTFSS  xA0.4
006BC:  BRA    06C4
....................          TiempoSensadoNivel++; 
006BE:  INCF   xAA,F
006C0:  BTFSC  FD8.2
006C2:  INCF   xAB,F
....................       } 
....................        
....................       if(SensadoNivelL) 
006C4:  BTFSS  xA2.0
006C6:  BRA    06CE
....................          tNivelBajo++; 
006C8:  INCF   xB2,F
006CA:  BTFSC  FD8.2
006CC:  INCF   xB3,F
....................        
....................       if(guardaCiclo) 
006CE:  BTFSS  xA4.6
006D0:  BRA    06D8
....................          tguarda++;  
006D2:  INCF   xB0,F
006D4:  BTFSC  FD8.2
006D6:  INCF   xB1,F
....................        
....................       tiempos=0;Lectura=1;tinicio++; 
006D8:  MOVLB  3
006DA:  CLRF   x73
006DC:  CLRF   x72
006DE:  MOVLB  0
006E0:  BSF    xA5.2
006E2:  MOVLB  3
006E4:  INCF   x7C,F
006E6:  BTFSC  FD8.2
006E8:  INCF   x7D,F
....................     
....................       if(Esterilizando && !Desfogando){                
006EA:  MOVLB  0
006EC:  BTFSS  xA0.2
006EE:  BRA    0742
006F0:  BTFSC  xA0.5
006F2:  BRA    0742
....................          if(Testerilizacion[0]>0){ 
006F4:  BTFSC  xB8.7
006F6:  BRA    0702
006F8:  MOVF   xB8,W
006FA:  SUBLW  00
006FC:  BC    0702
....................             Testerilizacion[0]--; 
006FE:  DECF   xB8,F
....................          }else if(Testerilizacion[1]>0){ 
00700:  BRA    0742
00702:  BTFSC  xB9.7
00704:  BRA    0714
00706:  MOVF   xB9,W
00708:  SUBLW  00
0070A:  BC    0714
....................             Testerilizacion[1]--; 
0070C:  DECF   xB9,F
....................             Testerilizacion[0]=9; 
0070E:  MOVLW  09
00710:  MOVWF  xB8
....................          }else if(Testerilizacion[2]>0){ 
00712:  BRA    0742
00714:  BTFSC  xBA.7
00716:  BRA    072A
00718:  MOVF   xBA,W
0071A:  SUBLW  00
0071C:  BC    072A
....................             Testerilizacion[2]--; 
0071E:  DECF   xBA,F
....................             Testerilizacion[1]=5; 
00720:  MOVLW  05
00722:  MOVWF  xB9
....................             Testerilizacion[0]=9; 
00724:  MOVLW  09
00726:  MOVWF  xB8
....................          }else if(Testerilizacion[3]>0){ 
00728:  BRA    0742
0072A:  BTFSC  xBB.7
0072C:  BRA    0742
0072E:  MOVF   xBB,W
00730:  SUBLW  00
00732:  BC    0742
....................             Testerilizacion[3]--; 
00734:  DECF   xBB,F
....................             Testerilizacion[2]=9; 
00736:  MOVLW  09
00738:  MOVWF  xBA
....................             Testerilizacion[1]=5; 
0073A:  MOVLW  05
0073C:  MOVWF  xB9
....................             Testerilizacion[0]=9; 
0073E:  MOVLW  09
00740:  MOVWF  xB8
....................          } 
....................       } 
....................        
....................       if(Secando){ 
00742:  BTFSS  xA0.3
00744:  BRA    0794
....................          if(Tsecado[0]>0){ 
00746:  BTFSC  xC2.7
00748:  BRA    0754
0074A:  MOVF   xC2,W
0074C:  SUBLW  00
0074E:  BC    0754
....................             Tsecado[0]--; 
00750:  DECF   xC2,F
....................          }else if(Tsecado[1]>0){ 
00752:  BRA    0794
00754:  BTFSC  xC3.7
00756:  BRA    0766
00758:  MOVF   xC3,W
0075A:  SUBLW  00
0075C:  BC    0766
....................             Tsecado[1]--; 
0075E:  DECF   xC3,F
....................             Tsecado[0]=9; 
00760:  MOVLW  09
00762:  MOVWF  xC2
....................          }else if(Tsecado[2]>0){ 
00764:  BRA    0794
00766:  BTFSC  xC4.7
00768:  BRA    077C
0076A:  MOVF   xC4,W
0076C:  SUBLW  00
0076E:  BC    077C
....................             Tsecado[2]--; 
00770:  DECF   xC4,F
....................             Tsecado[1]=5; 
00772:  MOVLW  05
00774:  MOVWF  xC3
....................             Tsecado[0]=9; 
00776:  MOVLW  09
00778:  MOVWF  xC2
....................          }else if(Tsecado[3]>0){ 
0077A:  BRA    0794
0077C:  BTFSC  xC5.7
0077E:  BRA    0794
00780:  MOVF   xC5,W
00782:  SUBLW  00
00784:  BC    0794
....................             Tsecado[3]--; 
00786:  DECF   xC5,F
....................             Tsecado[2]=9; 
00788:  MOVLW  09
0078A:  MOVWF  xC4
....................             Tsecado[1]=5; 
0078C:  MOVLW  05
0078E:  MOVWF  xC3
....................             Tsecado[0]=9; 
00790:  MOVLW  09
00792:  MOVWF  xC2
00794:  MOVLB  3
....................          } 
....................       } 
....................    } 
.................... } 
....................  
00796:  BCF    F9E.0
00798:  MOVLB  0
0079A:  GOTO   0074
.................... void main() 
.................... { 
*
076A4:  CLRF   FF8
076A6:  BCF    FF1.2
076A8:  BCF    F9F.0
076AA:  BSF    F9F.5
076AC:  BSF    FD0.7
076AE:  BSF    07.7
076B0:  CLRF   FEA
076B2:  CLRF   FE9
076B4:  BSF    FB8.3
076B6:  MOVLW  08
076B8:  MOVWF  FAF
076BA:  MOVLW  02
076BC:  MOVWF  FB0
076BE:  MOVLW  A6
076C0:  MOVWF  FAC
076C2:  MOVLW  90
076C4:  MOVWF  FAB
076C6:  CLRF   46
076C8:  CLRF   47
076CA:  CLRF   48
076CC:  CLRF   x62
076CE:  CLRF   x63
076D0:  CLRF   x84
076D2:  CLRF   x85
076D4:  CLRF   x86
076D6:  BCF    x9F.0
076D8:  BCF    x9F.1
076DA:  BCF    x9F.2
076DC:  BCF    x9F.3
076DE:  BCF    x9F.4
076E0:  BCF    x9F.5
076E2:  BCF    x9F.6
076E4:  BCF    x9F.7
076E6:  BCF    xA0.0
076E8:  BCF    xA0.1
076EA:  BCF    xA0.2
076EC:  BCF    xA0.3
076EE:  BCF    xA0.4
076F0:  BCF    xA0.5
076F2:  BCF    xA0.6
076F4:  BCF    xA0.7
076F6:  BCF    xA1.0
076F8:  BCF    xA1.1
076FA:  BCF    xA1.2
076FC:  BCF    xA1.3
076FE:  BCF    xA1.4
07700:  BCF    xA1.5
07702:  BCF    xA1.6
07704:  BCF    xA1.7
07706:  BCF    xA2.0
07708:  BCF    xA2.1
0770A:  BCF    xA2.2
0770C:  BCF    xA2.3
0770E:  BCF    xA2.4
07710:  BCF    xA2.5
07712:  BCF    xA2.6
07714:  BCF    xA2.7
07716:  BCF    xA3.0
07718:  BCF    xA3.1
0771A:  BCF    xA3.2
0771C:  BCF    xA3.3
0771E:  BCF    xA3.4
07720:  BCF    xA3.5
07722:  BCF    xA3.6
07724:  BCF    xA3.7
07726:  BCF    xA4.0
07728:  BCF    xA4.1
0772A:  BCF    xA4.2
0772C:  BCF    xA4.3
0772E:  BCF    xA4.4
07730:  BCF    xA4.5
07732:  BCF    xA4.6
07734:  BCF    xA4.7
07736:  BCF    xA5.0
07738:  CLRF   xA7
0773A:  CLRF   xA6
0773C:  CLRF   xA9
0773E:  CLRF   xA8
07740:  CLRF   xAB
07742:  CLRF   xAA
07744:  CLRF   xAD
07746:  CLRF   xAC
07748:  CLRF   xAF
0774A:  CLRF   xAE
0774C:  CLRF   xB1
0774E:  CLRF   xB0
07750:  CLRF   xB3
07752:  CLRF   xB2
07754:  CLRF   xB5
07756:  CLRF   xB4
07758:  CLRF   xB7
0775A:  CLRF   xB6
0775C:  MOVLW  9A
0775E:  MOVLB  2
07760:  MOVWF  xAD
07762:  MOVLW  99
07764:  MOVWF  xAC
07766:  MOVLW  0D
07768:  MOVWF  xAB
0776A:  MOVLW  86
0776C:  MOVWF  xAA
0776E:  CLRF   xB1
07770:  CLRF   xB0
07772:  CLRF   xAF
07774:  MOVLW  7E
07776:  MOVWF  xAE
07778:  CLRF   xB5
0777A:  CLRF   xB4
0777C:  CLRF   xB3
0777E:  CLRF   xB2
07780:  CLRF   xB9
07782:  CLRF   xB8
07784:  MOVLW  48
07786:  MOVWF  xB7
07788:  MOVLW  85
0778A:  MOVWF  xB6
0778C:  CLRF   xBD
0778E:  MOVLW  80
07790:  MOVWF  xBC
07792:  MOVLW  54
07794:  MOVWF  xBB
07796:  MOVLW  8B
07798:  MOVWF  xBA
0779A:  CLRF   xD1
0779C:  CLRF   xD0
0779E:  CLRF   xCF
077A0:  CLRF   xCE
077A2:  CLRF   xD5
077A4:  CLRF   xD4
077A6:  CLRF   xD3
077A8:  CLRF   xD2
077AA:  CLRF   xD9
077AC:  CLRF   xD8
077AE:  CLRF   xD7
077B0:  CLRF   xD6
077B2:  CLRF   xDD
077B4:  CLRF   xDC
077B6:  CLRF   xDB
077B8:  CLRF   xDA
077BA:  CLRF   xDE
077BC:  CLRF   xDF
077BE:  CLRF   xE0
077C0:  CLRF   xE1
077C2:  MOVLW  14
077C4:  MOVWF  xE2
077C6:  CLRF   xE3
077C8:  CLRF   xE4
077CA:  CLRF   xE5
077CC:  CLRF   xE6
077CE:  CLRF   xE7
077D0:  CLRF   xE8
077D2:  CLRF   xE9
077D4:  CLRF   xEA
077D6:  CLRF   xEB
077D8:  CLRF   xEC
077DA:  CLRF   xED
077DC:  CLRF   xEE
077DE:  CLRF   xF2
077E0:  CLRF   xF1
077E2:  CLRF   xF0
077E4:  CLRF   xEF
077E6:  CLRF   xFA
077E8:  CLRF   xF9
077EA:  MOVLW  20
077EC:  MOVWF  xF8
077EE:  MOVLW  82
077F0:  MOVWF  xF7
077F2:  CLRF   xFE
077F4:  CLRF   xFD
077F6:  CLRF   xFC
077F8:  CLRF   xFB
077FA:  MOVLB  3
077FC:  CLRF   x02
077FE:  CLRF   x01
07800:  CLRF   x00
07802:  MOVLB  2
07804:  CLRF   xFF
07806:  MOVLB  3
07808:  CLRF   x06
0780A:  CLRF   x05
0780C:  CLRF   x04
0780E:  CLRF   x03
07810:  CLRF   x0A
07812:  CLRF   x09
07814:  CLRF   x08
07816:  CLRF   x07
07818:  CLRF   x0E
0781A:  CLRF   x0D
0781C:  CLRF   x0C
0781E:  CLRF   x0B
07820:  CLRF   x12
07822:  CLRF   x11
07824:  MOVLW  48
07826:  MOVWF  x10
07828:  MOVLW  83
0782A:  MOVWF  x0F
0782C:  CLRF   x16
0782E:  CLRF   x15
07830:  MOVLW  20
07832:  MOVWF  x14
07834:  MOVLW  83
07836:  MOVWF  x13
07838:  MOVLW  9A
0783A:  MOVWF  x1A
0783C:  MOVLW  99
0783E:  MOVWF  x19
07840:  MOVLW  19
07842:  MOVWF  x18
07844:  MOVLW  7F
07846:  MOVWF  x17
07848:  CLRF   x1E
0784A:  CLRF   x1D
0784C:  CLRF   x1C
0784E:  CLRF   x1B
07850:  CLRF   x22
07852:  CLRF   x21
07854:  CLRF   x20
07856:  CLRF   x1F
07858:  CLRF   x26
0785A:  CLRF   x25
0785C:  CLRF   x24
0785E:  CLRF   x23
07860:  CLRF   x2A
07862:  CLRF   x29
07864:  CLRF   x28
07866:  CLRF   x27
07868:  CLRF   x2E
0786A:  CLRF   x2D
0786C:  CLRF   x2C
0786E:  CLRF   x2B
07870:  CLRF   x32
07872:  CLRF   x31
07874:  CLRF   x30
07876:  CLRF   x2F
07878:  MOVLW  4A
0787A:  MOVWF  x36
0787C:  MOVLW  88
0787E:  MOVWF  x35
07880:  MOVLW  28
07882:  MOVWF  x34
07884:  MOVLW  75
07886:  MOVWF  x33
07888:  MOVLW  E0
0788A:  MOVWF  x3A
0788C:  MOVLW  2D
0788E:  MOVWF  x39
07890:  MOVLW  10
07892:  MOVWF  x38
07894:  MOVLW  75
07896:  MOVWF  x37
07898:  MOVLW  FF
0789A:  MOVWF  x3E
0789C:  MOVLW  21
0789E:  MOVWF  x3D
078A0:  MOVLW  15
078A2:  MOVWF  x3C
078A4:  MOVLW  80
078A6:  MOVWF  x3B
078A8:  MOVLW  82
078AA:  MOVWF  x42
078AC:  MOVLW  12
078AE:  MOVWF  x41
078B0:  MOVLW  F4
078B2:  MOVWF  x40
078B4:  MOVLW  86
078B6:  MOVWF  x3F
078B8:  CLRF   x43
078BA:  CLRF   x44
078BC:  CLRF   x45
078BE:  MOVLW  B5
078C0:  MOVWF  x49
078C2:  MOVLW  EB
078C4:  MOVWF  x48
078C6:  MOVLW  1B
078C8:  MOVWF  x47
078CA:  MOVLW  6B
078CC:  MOVWF  x46
078CE:  MOVLW  D0
078D0:  MOVWF  x4D
078D2:  MOVLW  9B
078D4:  MOVWF  x4C
078D6:  MOVLW  8A
078D8:  MOVWF  x4B
078DA:  MOVLW  75
078DC:  MOVWF  x4A
078DE:  MOVLW  1A
078E0:  MOVWF  x51
078E2:  MOVLW  DD
078E4:  MOVWF  x50
078E6:  MOVLW  61
078E8:  MOVWF  x4F
078EA:  MOVLW  7D
078EC:  MOVWF  x4E
078EE:  MOVLW  04
078F0:  MOVWF  x55
078F2:  MOVLW  16
078F4:  MOVWF  x54
078F6:  MOVLW  02
078F8:  MOVWF  x53
078FA:  MOVLW  85
078FC:  MOVWF  x52
078FE:  CLRF   x59
07900:  CLRF   x58
07902:  CLRF   x57
07904:  CLRF   x56
07906:  MOVLB  0
07908:  BCF    xA5.1
0790A:  BCF    xA5.2
0790C:  BCF    xA5.3
0790E:  BCF    xA5.4
07910:  BCF    xA5.5
07912:  BCF    xA5.6
07914:  BCF    xA5.7
07916:  MOVLB  3
07918:  CLRF   x5A
0791A:  CLRF   x5B
0791C:  CLRF   x5C
0791E:  MOVLW  01
07920:  MOVWF  x5D
07922:  MOVLW  02
07924:  MOVWF  x5E
07926:  CLRF   x5F
07928:  MOVLW  01
0792A:  MOVWF  x60
0792C:  CLRF   x61
0792E:  CLRF   x62
07930:  CLRF   x63
07932:  CLRF   x64
07934:  CLRF   x65
07936:  MOVLW  F0
07938:  MOVWF  x66
0793A:  CLRF   x67
0793C:  CLRF   x68
0793E:  CLRF   x69
07940:  CLRF   x6A
07942:  CLRF   x6B
07944:  MOVLW  01
07946:  MOVWF  x6C
07948:  MOVWF  x6D
0794A:  CLRF   x6E
0794C:  CLRF   x6F
0794E:  CLRF   x70
07950:  CLRF   x71
07952:  CLRF   x73
07954:  CLRF   x72
07956:  CLRF   x75
07958:  CLRF   x74
0795A:  CLRF   x77
0795C:  CLRF   x76
0795E:  CLRF   x79
07960:  CLRF   x78
07962:  CLRF   x7B
07964:  CLRF   x7A
07966:  CLRF   x7D
07968:  CLRF   x7C
0796A:  CLRF   x7F
0796C:  CLRF   x7E
0796E:  CLRF   x81
07970:  CLRF   x80
07972:  CLRF   x83
07974:  CLRF   x82
07976:  CLRF   x85
07978:  CLRF   x84
0797A:  CLRF   x87
0797C:  CLRF   x86
0797E:  CLRF   x89
07980:  CLRF   x88
07982:  CLRF   x92
07984:  CLRF   x93
07986:  CLRF   x94
07988:  CLRF   x95
0798A:  CLRF   x96
0798C:  CLRF   x97
0798E:  CLRF   x98
07990:  CLRF   x9A
07992:  CLRF   x99
07994:  CLRF   x9C
07996:  CLRF   x9B
07998:  CLRF   x9E
0799A:  CLRF   x9D
0799C:  CLRF   xA0
0799E:  CLRF   x9F
079A0:  CLRF   xA2
079A2:  CLRF   xA1
079A4:  CLRF   xA4
079A6:  CLRF   xA3
079A8:  MOVLW  12
079AA:  MOVWF  xA5
079AC:  MOVLW  09
079AE:  MOVWF  xA6
079B0:  MOVLW  0D
079B2:  MOVWF  xA7
079B4:  CLRF   xA8
079B6:  CLRF   xA9
079B8:  CLRF   xAA
079BA:  CLRF   xAB
079BC:  CLRF   xAC
079BE:  CLRF   xAD
079C0:  CLRF   xAE
079C2:  CLRF   xAF
079C4:  CLRF   xB0
079C6:  CLRF   xB1
079C8:  CLRF   xB2
079CA:  CLRF   xB3
079CC:  CLRF   xB4
079CE:  MOVLW  48
079D0:  MOVWF  xB5
079D2:  CLRF   xB6
079D4:  CLRF   xB7
079D6:  CLRF   xB8
079D8:  CLRF   xB9
079DA:  CLRF   xCC
079DC:  CLRF   xCD
079DE:  CLRF   xCE
079E0:  CLRF   xCF
079E2:  CLRF   xD0
079E4:  MOVF   FC1,W
079E6:  ANDLW  C0
079E8:  IORLW  0F
079EA:  MOVWF  FC1
079EC:  MOVLW  07
079EE:  MOVWF  FB4
079F0:  CLRF   2A
079F2:  CLRF   2B
079F4:  MOVLB  0
079F6:  CLRF   x87
079F8:  MOVLW  03
079FA:  MOVWF  x88
079FC:  MOVWF  x89
079FE:  MOVLW  06
07A00:  MOVWF  x8A
07A02:  MOVLW  01
07A04:  MOVWF  x8B
07A06:  MOVLW  04
07A08:  MOVWF  x8C
07A0A:  MOVLW  06
07A0C:  MOVWF  x8D
07A0E:  MOVLW  02
07A10:  MOVWF  x8E
07A12:  MOVLW  05
07A14:  MOVWF  x8F
07A16:  CLRF   x90
07A18:  MOVLW  03
07A1A:  MOVWF  x91
07A1C:  MOVLW  05
07A1E:  MOVWF  x92
07A20:  CLRF   x93
07A22:  MOVLW  03
07A24:  MOVWF  x94
07A26:  MOVLW  04
07A28:  MOVWF  x95
07A2A:  CLRF   x96
07A2C:  MOVLW  02
07A2E:  MOVWF  x97
07A30:  MOVLW  05
07A32:  MOVWF  x98
07A34:  CLRF   x99
07A36:  MOVLW  03
07A38:  MOVWF  x9A
07A3A:  MOVLW  06
07A3C:  MOVWF  x9B
07A3E:  MOVLW  01
07A40:  MOVWF  x9C
07A42:  MOVLW  04
07A44:  MOVWF  x9D
07A46:  MOVLW  06
07A48:  MOVWF  x9E
07A4A:  CLRF   xB8
07A4C:  CLRF   xB9
07A4E:  CLRF   xBA
07A50:  CLRF   xBB
07A52:  CLRF   xBC
07A54:  CLRF   xBD
07A56:  CLRF   xBE
07A58:  CLRF   xBF
07A5A:  CLRF   xC0
07A5C:  CLRF   xC1
07A5E:  CLRF   xC2
07A60:  CLRF   xC3
07A62:  CLRF   xC4
07A64:  CLRF   xC5
07A66:  CLRF   xC6
07A68:  CLRF   xC7
07A6A:  CLRF   xC8
07A6C:  CLRF   xC9
07A6E:  CLRF   xCA
07A70:  CLRF   xCB
07A72:  CLRF   xCC
07A74:  CLRF   xCD
07A76:  CLRF   xCE
07A78:  CLRF   xCF
07A7A:  CLRF   xD0
07A7C:  CLRF   xD1
07A7E:  CLRF   xD2
07A80:  CLRF   xD3
07A82:  CLRF   xD4
07A84:  CLRF   xD5
07A86:  CLRF   xD6
07A88:  CLRF   xD7
07A8A:  CLRF   xD8
07A8C:  CLRF   xD9
07A8E:  CLRF   xDA
07A90:  CLRF   xDB
07A92:  CLRF   xDC
07A94:  CLRF   xDD
07A96:  CLRF   xDE
07A98:  CLRF   xDF
07A9A:  CLRF   xE0
07A9C:  CLRF   xE1
07A9E:  CLRF   xE2
07AA0:  CLRF   xE3
07AA2:  CLRF   xE4
07AA4:  CLRF   xE5
07AA6:  CLRF   xE6
07AA8:  CLRF   xE7
07AAA:  CLRF   xE8
07AAC:  CLRF   xE9
07AAE:  CLRF   xEA
07AB0:  CLRF   xEB
07AB2:  CLRF   xEC
07AB4:  CLRF   xED
07AB6:  CLRF   xEE
07AB8:  CLRF   xEF
07ABA:  CLRF   xF0
07ABC:  CLRF   xF1
07ABE:  CLRF   xF2
07AC0:  CLRF   xF3
07AC2:  CLRF   xF4
07AC4:  CLRF   xF5
07AC6:  CLRF   xF6
07AC8:  CLRF   xF7
07ACA:  CLRF   xF8
07ACC:  CLRF   xF9
07ACE:  CLRF   xFA
07AD0:  CLRF   xFB
07AD2:  CLRF   xFC
07AD4:  CLRF   xFD
07AD6:  CLRF   xFE
07AD8:  CLRF   xFF
07ADA:  MOVLB  1
07ADC:  CLRF   x00
07ADE:  CLRF   x01
07AE0:  CLRF   x02
07AE2:  CLRF   x03
07AE4:  CLRF   x04
07AE6:  CLRF   x05
07AE8:  CLRF   x06
07AEA:  CLRF   x07
07AEC:  CLRF   x08
07AEE:  CLRF   x09
07AF0:  CLRF   x0A
07AF2:  CLRF   x0B
07AF4:  CLRF   x0C
07AF6:  CLRF   x0D
07AF8:  CLRF   x0E
07AFA:  CLRF   x0F
07AFC:  CLRF   x10
07AFE:  CLRF   x11
07B00:  CLRF   x12
07B02:  CLRF   x13
07B04:  CLRF   x14
07B06:  CLRF   x15
07B08:  CLRF   x16
07B0A:  CLRF   x17
07B0C:  CLRF   x18
07B0E:  CLRF   x19
07B10:  CLRF   x1A
07B12:  CLRF   x1B
07B14:  CLRF   x1C
07B16:  CLRF   x1D
07B18:  CLRF   x1E
07B1A:  CLRF   x1F
07B1C:  CLRF   x20
07B1E:  CLRF   x21
07B20:  CLRF   x22
07B22:  CLRF   x23
07B24:  CLRF   x24
07B26:  CLRF   x25
07B28:  CLRF   x26
07B2A:  CLRF   x27
07B2C:  CLRF   x28
07B2E:  CLRF   x29
07B30:  CLRF   x2A
07B32:  CLRF   x2B
07B34:  CLRF   x2C
07B36:  CLRF   x2D
07B38:  CLRF   x2E
07B3A:  CLRF   x2F
07B3C:  CLRF   x30
07B3E:  CLRF   x31
07B40:  CLRF   x32
07B42:  CLRF   x33
07B44:  CLRF   x34
07B46:  CLRF   x35
07B48:  CLRF   x36
07B4A:  CLRF   x37
07B4C:  CLRF   x38
07B4E:  CLRF   x39
07B50:  CLRF   x3A
07B52:  CLRF   x3B
07B54:  CLRF   x3C
07B56:  CLRF   x3D
07B58:  CLRF   x3E
07B5A:  CLRF   x3F
07B5C:  CLRF   x40
07B5E:  CLRF   x41
07B60:  CLRF   x42
07B62:  CLRF   x43
07B64:  CLRF   x44
07B66:  CLRF   x45
07B68:  CLRF   x46
07B6A:  CLRF   x47
07B6C:  CLRF   x48
07B6E:  CLRF   x49
07B70:  CLRF   x4A
07B72:  CLRF   x4B
07B74:  CLRF   x4C
07B76:  CLRF   x4D
07B78:  CLRF   x4E
07B7A:  CLRF   x4F
07B7C:  CLRF   x50
07B7E:  CLRF   x51
07B80:  CLRF   x52
07B82:  CLRF   x53
07B84:  CLRF   x54
07B86:  CLRF   x55
07B88:  CLRF   x56
07B8A:  CLRF   x57
07B8C:  CLRF   x58
07B8E:  CLRF   x59
07B90:  CLRF   x5A
07B92:  CLRF   x5B
07B94:  CLRF   x5C
07B96:  CLRF   x5D
07B98:  CLRF   x5E
07B9A:  CLRF   x5F
07B9C:  CLRF   x60
07B9E:  CLRF   x61
07BA0:  CLRF   x62
07BA2:  CLRF   x63
07BA4:  CLRF   x64
07BA6:  CLRF   x65
07BA8:  CLRF   x66
07BAA:  CLRF   x67
07BAC:  CLRF   x68
07BAE:  CLRF   x69
07BB0:  CLRF   x6A
07BB2:  CLRF   x6B
07BB4:  CLRF   x6C
07BB6:  CLRF   x6D
07BB8:  CLRF   x6E
07BBA:  CLRF   x6F
07BBC:  CLRF   x70
07BBE:  CLRF   x71
07BC0:  CLRF   x72
07BC2:  CLRF   x73
07BC4:  CLRF   x74
07BC6:  CLRF   x75
07BC8:  CLRF   x76
07BCA:  CLRF   x77
07BCC:  CLRF   x78
07BCE:  CLRF   x79
07BD0:  CLRF   x7A
07BD2:  CLRF   x7B
07BD4:  CLRF   x7C
07BD6:  CLRF   x7D
07BD8:  CLRF   x7E
07BDA:  CLRF   x7F
07BDC:  CLRF   x80
07BDE:  CLRF   x81
07BE0:  CLRF   x82
07BE2:  CLRF   x83
07BE4:  CLRF   x84
07BE6:  CLRF   x85
07BE8:  CLRF   x86
07BEA:  CLRF   x87
07BEC:  CLRF   x88
07BEE:  CLRF   x89
07BF0:  CLRF   x8A
07BF2:  CLRF   x8B
07BF4:  CLRF   x8C
07BF6:  CLRF   x8D
07BF8:  CLRF   x8E
07BFA:  CLRF   x8F
07BFC:  CLRF   x90
07BFE:  CLRF   x91
07C00:  CLRF   x92
07C02:  CLRF   x93
07C04:  CLRF   x94
07C06:  CLRF   x95
07C08:  CLRF   x96
07C0A:  CLRF   x97
07C0C:  CLRF   x98
07C0E:  CLRF   x99
07C10:  CLRF   x9A
07C12:  CLRF   x9B
07C14:  CLRF   x9C
07C16:  CLRF   x9D
07C18:  CLRF   x9E
07C1A:  CLRF   x9F
07C1C:  CLRF   xA0
07C1E:  CLRF   xA1
07C20:  CLRF   xA2
07C22:  CLRF   xA3
07C24:  CLRF   xA4
07C26:  CLRF   xA5
07C28:  CLRF   xA6
07C2A:  CLRF   xA7
07C2C:  CLRF   xA8
07C2E:  CLRF   xA9
07C30:  CLRF   xAA
07C32:  CLRF   xAB
07C34:  CLRF   xAC
07C36:  CLRF   xAD
07C38:  CLRF   xAE
07C3A:  CLRF   xAF
07C3C:  CLRF   xB0
07C3E:  CLRF   xB1
07C40:  CLRF   xB2
07C42:  CLRF   xB3
07C44:  CLRF   xB4
07C46:  CLRF   xB5
07C48:  CLRF   xB6
07C4A:  CLRF   xB7
07C4C:  CLRF   xB8
07C4E:  CLRF   xB9
07C50:  CLRF   xBA
07C52:  CLRF   xBB
07C54:  CLRF   xBC
07C56:  CLRF   xBD
07C58:  CLRF   xBE
07C5A:  CLRF   xBF
07C5C:  CLRF   xC0
07C5E:  CLRF   xC1
07C60:  CLRF   xC2
07C62:  CLRF   xC3
07C64:  CLRF   xC4
07C66:  CLRF   xC5
07C68:  CLRF   xC6
07C6A:  CLRF   xC7
07C6C:  CLRF   xC8
07C6E:  CLRF   xC9
07C70:  CLRF   xCA
07C72:  CLRF   xCB
07C74:  CLRF   xCC
07C76:  CLRF   xCD
07C78:  CLRF   xCE
07C7A:  CLRF   xCF
07C7C:  CLRF   xD0
07C7E:  CLRF   xD1
07C80:  CLRF   xD2
07C82:  CLRF   xD3
07C84:  CLRF   xD4
07C86:  CLRF   xD5
07C88:  CLRF   xD6
07C8A:  CLRF   xD7
07C8C:  CLRF   xD8
07C8E:  CLRF   xD9
07C90:  CLRF   xDA
07C92:  CLRF   xDB
07C94:  CLRF   xDC
07C96:  CLRF   xDD
07C98:  CLRF   xDE
07C9A:  CLRF   xDF
07C9C:  CLRF   xE0
07C9E:  CLRF   xE1
07CA0:  CLRF   xE2
07CA2:  CLRF   xE3
07CA4:  CLRF   xE4
07CA6:  CLRF   xE5
07CA8:  CLRF   xE6
07CAA:  CLRF   xE7
07CAC:  CLRF   xE8
07CAE:  CLRF   xE9
07CB0:  CLRF   xEA
07CB2:  CLRF   xEB
07CB4:  CLRF   xEC
07CB6:  CLRF   xED
07CB8:  CLRF   xEE
07CBA:  CLRF   xEF
07CBC:  CLRF   xF0
07CBE:  CLRF   xF1
07CC0:  CLRF   xF2
07CC2:  CLRF   xF3
07CC4:  CLRF   xF4
07CC6:  CLRF   xF5
07CC8:  CLRF   xF6
07CCA:  CLRF   xF7
07CCC:  CLRF   xF8
07CCE:  CLRF   xF9
07CD0:  CLRF   xFA
07CD2:  CLRF   xFB
07CD4:  CLRF   xFC
07CD6:  CLRF   xFD
07CD8:  CLRF   xFE
07CDA:  CLRF   xFF
07CDC:  MOVLB  2
07CDE:  CLRF   x00
07CE0:  CLRF   x01
07CE2:  CLRF   x02
07CE4:  CLRF   x03
07CE6:  CLRF   x04
07CE8:  CLRF   x05
07CEA:  CLRF   x06
07CEC:  CLRF   x07
07CEE:  CLRF   x08
07CF0:  CLRF   x09
07CF2:  CLRF   x0A
07CF4:  CLRF   x0B
07CF6:  CLRF   x0C
07CF8:  CLRF   x0D
07CFA:  CLRF   x0E
07CFC:  CLRF   x0F
07CFE:  CLRF   x10
07D00:  CLRF   x11
07D02:  CLRF   x12
07D04:  CLRF   x13
07D06:  CLRF   x14
07D08:  CLRF   x15
07D0A:  CLRF   x16
07D0C:  CLRF   x17
07D0E:  CLRF   x18
07D10:  CLRF   x19
07D12:  CLRF   x1A
07D14:  CLRF   x1B
07D16:  CLRF   x1C
07D18:  CLRF   x1D
07D1A:  CLRF   x1E
07D1C:  CLRF   x1F
07D1E:  CLRF   x20
07D20:  CLRF   x21
07D22:  CLRF   x22
07D24:  CLRF   x23
07D26:  CLRF   x24
07D28:  CLRF   x25
07D2A:  CLRF   x26
07D2C:  CLRF   x27
07D2E:  CLRF   x28
07D30:  CLRF   x29
07D32:  CLRF   x2A
07D34:  CLRF   x2B
07D36:  CLRF   x2C
07D38:  CLRF   x2D
07D3A:  CLRF   x2E
07D3C:  CLRF   x2F
07D3E:  CLRF   x30
07D40:  CLRF   x31
07D42:  CLRF   x32
07D44:  CLRF   x33
07D46:  CLRF   x34
07D48:  CLRF   x35
07D4A:  CLRF   x36
07D4C:  CLRF   x37
07D4E:  CLRF   x38
07D50:  CLRF   x39
07D52:  CLRF   x3A
07D54:  CLRF   x3B
07D56:  CLRF   x3C
07D58:  CLRF   x3D
07D5A:  CLRF   x3E
07D5C:  CLRF   x3F
07D5E:  CLRF   x40
07D60:  CLRF   x41
07D62:  CLRF   x42
07D64:  CLRF   x43
07D66:  CLRF   x44
07D68:  CLRF   x45
07D6A:  CLRF   x46
07D6C:  CLRF   x47
07D6E:  CLRF   x48
07D70:  CLRF   x49
07D72:  CLRF   x4A
07D74:  CLRF   x4B
07D76:  CLRF   x4C
07D78:  CLRF   x4D
07D7A:  CLRF   x4E
07D7C:  CLRF   x4F
07D7E:  CLRF   x50
07D80:  CLRF   x51
07D82:  CLRF   x52
07D84:  CLRF   x53
07D86:  CLRF   x54
07D88:  CLRF   x55
07D8A:  CLRF   x56
07D8C:  CLRF   x57
07D8E:  CLRF   x58
07D90:  CLRF   x59
07D92:  CLRF   x5A
07D94:  CLRF   x5B
07D96:  CLRF   x5C
07D98:  CLRF   x5D
07D9A:  CLRF   x5E
07D9C:  CLRF   x5F
07D9E:  CLRF   x60
07DA0:  CLRF   x61
07DA2:  CLRF   x62
07DA4:  CLRF   x63
07DA6:  CLRF   x64
07DA8:  CLRF   x65
07DAA:  CLRF   x66
07DAC:  CLRF   x67
07DAE:  CLRF   x68
07DB0:  CLRF   x69
07DB2:  CLRF   x6A
07DB4:  CLRF   x6B
07DB6:  CLRF   x6C
07DB8:  CLRF   x6D
07DBA:  CLRF   x6E
07DBC:  CLRF   x6F
07DBE:  CLRF   x70
07DC0:  CLRF   x71
07DC2:  CLRF   x72
07DC4:  CLRF   x73
07DC6:  CLRF   x74
07DC8:  CLRF   x75
07DCA:  CLRF   x76
07DCC:  CLRF   x77
07DCE:  CLRF   x78
07DD0:  CLRF   x79
07DD2:  CLRF   x7A
07DD4:  CLRF   x7B
07DD6:  CLRF   x7C
07DD8:  CLRF   x7D
07DDA:  CLRF   x7E
07DDC:  CLRF   x7F
07DDE:  CLRF   x80
07DE0:  CLRF   x81
07DE2:  CLRF   x82
07DE4:  CLRF   x83
07DE6:  CLRF   x84
07DE8:  CLRF   x85
07DEA:  CLRF   x86
07DEC:  CLRF   x87
07DEE:  CLRF   x88
07DF0:  CLRF   x89
07DF2:  CLRF   x8A
07DF4:  CLRF   x8B
07DF6:  CLRF   x8C
07DF8:  CLRF   x8D
07DFA:  CLRF   x8E
07DFC:  CLRF   x8F
07DFE:  CLRF   x90
07E00:  CLRF   x91
07E02:  CLRF   x92
07E04:  CLRF   x93
07E06:  CLRF   x94
07E08:  CLRF   x95
07E0A:  CLRF   x96
07E0C:  CLRF   x97
07E0E:  CLRF   x98
07E10:  CLRF   x99
07E12:  CLRF   x9A
07E14:  CLRF   x9B
07E16:  CLRF   x9C
07E18:  CLRF   x9D
07E1A:  CLRF   x9E
07E1C:  CLRF   x9F
07E1E:  CLRF   xA0
07E20:  CLRF   xA1
07E22:  CLRF   xA2
07E24:  CLRF   xA3
07E26:  CLRF   xA4
07E28:  CLRF   xA5
07E2A:  CLRF   xA6
07E2C:  CLRF   xA7
07E2E:  CLRF   xA8
07E30:  CLRF   xA9
07E32:  CLRF   xBE
07E34:  CLRF   xBF
07E36:  CLRF   xC0
07E38:  CLRF   xC1
07E3A:  CLRF   xC2
07E3C:  CLRF   xC3
07E3E:  CLRF   xC4
07E40:  CLRF   xC5
07E42:  CLRF   xC6
07E44:  CLRF   xC7
07E46:  CLRF   xC8
07E48:  CLRF   xC9
07E4A:  CLRF   xCA
07E4C:  CLRF   xCB
07E4E:  CLRF   xCC
07E50:  CLRF   xCD
07E52:  MOVLB  3
07E54:  CLRF   x8A
07E56:  CLRF   x8B
07E58:  CLRF   x8C
07E5A:  CLRF   x8D
07E5C:  CLRF   x8E
07E5E:  CLRF   x8F
07E60:  CLRF   x90
07E62:  CLRF   x91
07E64:  MOVLW  19
07E66:  MOVWF  xBA
07E68:  MOVLW  10
07E6A:  MOVWF  xBB
07E6C:  MOVLW  16
07E6E:  MOVWF  xBC
07E70:  MOVLW  18
07E72:  MOVWF  xBD
07E74:  MOVLW  17
07E76:  MOVWF  xBE
07E78:  MOVLW  1C
07E7A:  MOVWF  xBF
07E7C:  MOVLW  14
07E7E:  MOVWF  xC0
07E80:  MOVLW  2E
07E82:  MOVWF  xC1
07E84:  MOVLW  45
07E86:  MOVWF  xC2
07E88:  MOVLW  22
07E8A:  MOVWF  xC3
07E8C:  MOVLW  24
07E8E:  MOVWF  xC4
07E90:  MOVLW  12
07E92:  MOVWF  xC5
07E94:  MOVLW  21
07E96:  MOVWF  xC6
07E98:  MOVLW  20
07E9A:  MOVWF  xC7
07E9C:  MOVLW  26
07E9E:  MOVWF  xC8
07EA0:  MOVLW  13
07EA2:  MOVWF  xC9
07EA4:  MOVLW  11
07EA6:  MOVWF  xCA
07EA8:  MOVLW  44
07EAA:  MOVWF  xCB
....................     
....................    for (posicion=0;posicion<0x10;posicion++){ 
07EAC:  MOVLB  0
07EAE:  CLRF   x86
07EB0:  MOVF   x86,W
07EB2:  SUBLW  0F
07EB4:  BNC   7ECA
....................       SlaveA0Tx[posicion] = 0x00; 
07EB6:  CLRF   03
07EB8:  MOVF   x86,W
07EBA:  ADDLW  64
07EBC:  MOVWF  FE9
07EBE:  MOVLW  00
07EC0:  ADDWFC 03,W
07EC2:  MOVWF  FEA
07EC4:  CLRF   FEF
....................    } 
07EC6:  INCF   x86,F
07EC8:  BRA    7EB0
....................    setup_timer_0(RTCC_8_BIT|RTCC_DIV_1); 
07ECA:  MOVLW  C8
07ECC:  MOVWF  FD5
....................    enable_interrupts(INT_TIMER0); 
07ECE:  BSF    FF2.5
....................    setup_timer_1(T1_INTERNAL|T1_DIV_BY_1); 
07ED0:  MOVLW  85
07ED2:  MOVWF  FCD
....................    enable_interrupts(INT_TIMER1); 
07ED4:  BSF    F9D.0
....................    setup_adc_ports(AN0_TO_AN3); 
07ED6:  MOVF   FC1,W
07ED8:  ANDLW  C0
07EDA:  IORLW  0B
07EDC:  MOVWF  FC1
....................    setup_adc(ADC_CLOCK_DIV_32 ); 
07EDE:  MOVF   FC0,W
07EE0:  ANDLW  C0
07EE2:  IORLW  02
07EE4:  MOVWF  FC0
07EE6:  BSF    FC0.7
07EE8:  BSF    FC2.0
....................    port_b_pullups(true); 
07EEA:  BCF    FF1.7
....................    enable_interrupts(int_rda); 
07EEC:  BSF    F9D.5
....................    setup_wdt(WDT_ON); 
07EEE:  BSF    FD1.0
....................    enable_interrupts(global); 
07EF0:  MOVLW  C0
07EF2:  IORWF  FF2,F
....................    LeeEEPROM(); 
07EF4:  GOTO   1EFC
....................    rtc_init(); 
07EF8:  GOTO   2D7A
....................    delay_ms(1); 
07EFC:  MOVLW  01
07EFE:  MOVLB  4
07F00:  MOVWF  x5B
07F02:  MOVLB  0
07F04:  CALL   1AC8
....................    LimitaValores(); 
07F08:  GOTO   2E94
....................    CalculoImpresion=timpresion*60; 
07F0C:  MOVLB  3
07F0E:  MOVF   x5E,W
07F10:  MULLW  3C
07F12:  MOVFF  FF3,35F
....................    printf("page Bienvenida"); 
07F16:  MOVLW  9E
07F18:  MOVWF  FF6
07F1A:  MOVLW  07
07F1C:  MOVWF  FF7
07F1E:  MOVLW  00
07F20:  MOVWF  FF8
07F22:  MOVLB  0
07F24:  CALL   398E
....................    SendDataDisplay(); 
07F28:  CALL   39C0
....................    printf("bkcmd=0"); 
07F2C:  MOVLW  AE
07F2E:  MOVWF  FF6
07F30:  MOVLW  07
07F32:  MOVWF  FF7
07F34:  MOVLW  00
07F36:  MOVWF  FF8
07F38:  CALL   398E
....................    SendDataDisplay(); 
07F3C:  CALL   39C0
....................    delay_ms(1500); 
07F40:  MOVLW  06
07F42:  MOVLB  4
07F44:  MOVWF  x46
07F46:  MOVLW  FA
07F48:  MOVWF  x5B
07F4A:  MOVLB  0
07F4C:  CALL   1AC8
07F50:  MOVLB  4
07F52:  DECFSZ x46,F
07F54:  BRA    7F46
....................    printf("page Clave"); 
07F56:  MOVLW  B6
07F58:  MOVWF  FF6
07F5A:  MOVLW  07
07F5C:  MOVWF  FF7
07F5E:  MOVLW  00
07F60:  MOVWF  FF8
07F62:  MOVLB  0
07F64:  CALL   398E
....................    SendDataDisplay(); 
07F68:  CALL   39C0
....................    ApagaSalidas(); 
07F6C:  CALL   39F6
....................    Setpoint=121; 
07F70:  MOVLW  79
07F72:  MOVLB  3
07F74:  MOVWF  x6B
....................     
....................    for(i=0;i<MediaMovil;i++){ 
07F76:  CLRF   x67
07F78:  MOVLB  2
07F7A:  MOVF   xE2,W
07F7C:  MOVLB  3
07F7E:  SUBWF  x67,W
07F80:  BC    7FF2
....................       Temperatura=LeerPT100(MediaMovil); 
07F82:  MOVFF  2E2,446
07F86:  MOVLB  0
07F88:  CALL   3B84
07F8C:  MOVFF  03,332
07F90:  MOVFF  02,331
07F94:  MOVFF  01,330
07F98:  MOVFF  00,32F
....................       PresionCamara=Leer_Sensor_Presion_Camara(5); 
07F9C:  MOVLW  05
07F9E:  MOVLB  4
07FA0:  MOVWF  x46
07FA2:  MOVLB  0
07FA4:  CALL   3FCA
07FA8:  MOVFF  03,45E
07FAC:  MOVFF  02,45D
07FB0:  MOVFF  01,45C
07FB4:  MOVFF  00,45B
07FB8:  CALL   41C6
07FBC:  MOVFF  02,37F
07FC0:  MOVFF  01,37E
....................       PresionPreCamara=Leer_Sensor_Presion_PreCamara(5); 
07FC4:  MOVLW  05
07FC6:  MOVLB  4
07FC8:  MOVWF  x46
07FCA:  MOVLB  0
07FCC:  CALL   4202
07FD0:  MOVFF  03,45E
07FD4:  MOVFF  02,45D
07FD8:  MOVFF  01,45C
07FDC:  MOVFF  00,45B
07FE0:  CALL   41C6
07FE4:  MOVFF  02,381
07FE8:  MOVFF  01,380
....................    } 
07FEC:  MOVLB  3
07FEE:  INCF   x67,F
07FF0:  BRA    7F78
....................     
....................    if(UP && DOWN && RIGHT && LEFT)//Si oprime boton de Toma. 
07FF2:  BSF    F93.0
07FF4:  BTFSC  F81.0
07FF6:  BRA    807E
07FF8:  BSF    F93.1
07FFA:  BTFSC  F81.1
07FFC:  BRA    807E
07FFE:  BSF    F93.2
08000:  BTFSC  F81.2
08002:  BRA    807E
08004:  BSF    F93.3
08006:  BTFSC  F81.3
08008:  BRA    807E
....................    { 
....................       write_eeprom(37,0); 
0800A:  CLRF   FAA
0800C:  MOVLW  25
0800E:  MOVWF  FA9
08010:  CLRF   FA8
08012:  BCF    FA6.6
08014:  BCF    FA6.7
08016:  BSF    FA6.2
08018:  MOVF   FF2,W
0801A:  MOVWF  00
0801C:  BCF    FF2.6
0801E:  BCF    FF2.7
08020:  MOVLB  F
08022:  MOVLW  55
08024:  MOVWF  FA7
08026:  MOVLW  AA
08028:  MOVWF  FA7
0802A:  BSF    FA6.1
0802C:  BTFSC  FA6.1
0802E:  BRA    802C
08030:  BCF    FA6.2
08032:  MOVF   00,W
08034:  IORWF  FF2,F
....................       delay_ms(20); 
08036:  MOVLW  14
08038:  MOVLB  4
0803A:  MOVWF  x5B
0803C:  MOVLB  0
0803E:  CALL   1AC8
....................       write_eeprom(38,0); 
08042:  CLRF   FAA
08044:  MOVLW  26
08046:  MOVWF  FA9
08048:  CLRF   FA8
0804A:  BCF    FA6.6
0804C:  BCF    FA6.7
0804E:  BSF    FA6.2
08050:  MOVF   FF2,W
08052:  MOVWF  00
08054:  BCF    FF2.6
08056:  BCF    FF2.7
08058:  MOVLB  F
0805A:  MOVLW  55
0805C:  MOVWF  FA7
0805E:  MOVLW  AA
08060:  MOVWF  FA7
08062:  BSF    FA6.1
08064:  BTFSC  FA6.1
08066:  BRA    8064
08068:  BCF    FA6.2
0806A:  MOVF   00,W
0806C:  IORWF  FF2,F
....................       delay_ms(20); 
0806E:  MOVLW  14
08070:  MOVLB  4
08072:  MOVWF  x5B
08074:  MOVLB  0
08076:  CALL   1AC8
....................       reset_cpu(); 
0807A:  RESET
0807C:  MOVLB  3
....................    } 
....................     
....................    #ifdef PT100Fija 
....................       Atmosferica=0; 
0807E:  CLRF   xB5
....................    #else 
....................       if(!DOOR){ 
....................          if(abs((float)PresionCamara-(float)Atmosferica)>=3 && PresionCamara<102){//Funcion de Auto Ajuste de Presion Atmosferica 
....................             Atmosferica=PresionCamara; 
....................             write_eeprom(31,Atmosferica); 
....................             delay_ms(10); 
....................             Buzzer_on; 
....................             delay_ms(1000); 
....................             Buzzer_off; 
....................          } 
....................       } 
....................    #endif 
....................    while(true) 
....................    { 
....................       LeeDisplay(); 
08080:  MOVLB  0
08082:  GOTO   4400
....................       Envio_Esclavos(); 
08086:  CALL   4756
....................       delay_ms(1); 
0808A:  MOVLW  01
0808C:  MOVLB  4
0808E:  MOVWF  x5B
08090:  MOVLB  0
08092:  CALL   1AC8
....................       //Lectura_Esclavos(); 
....................       restart_wdt(); 
08096:  CLRWDT
....................        
....................       if(!Esterilizando || Desfogando){ 
08098:  BTFSS  xA0.2
0809A:  BRA    80A0
0809C:  BTFSS  xA0.5
0809E:  BRA    80AA
....................          CalculoImpresion=180; 
080A0:  MOVLW  B4
080A2:  MOVLB  3
080A4:  MOVWF  x5F
....................       }else{ 
080A6:  BRA    80B0
080A8:  MOVLB  0
....................          CalculoImpresion=60; 
080AA:  MOVLW  3C
080AC:  MOVLB  3
080AE:  MOVWF  x5F
....................       } 
....................        
....................       #ifdef Generador 
....................          if(!PruebaEstados) 
080B0:  MOVLB  0
080B2:  BTFSC  xA1.3
080B4:  BRA    80BA
....................             monitoreaAgua(); 
080B6:  CALL   4898
....................       #else    
....................       // Monitoreo Nivel de Agua//-------------------------------------- 
....................             if(!LOW){//Si no sensa agua en el nivel alto y no se ha llenado el calderin          
....................                TiempoSensadoNivel=0; 
....................                Controlando=0;    
....................                if(tiempoAgua<600){ 
....................                   CalderinLleno=OFF; 
....................                } 
....................                SensadoNivel=OFF; 
....................                TiempoSensadoNivel=0; 
....................                #ifdef ULKA 
....................                   if(!PruebaEstados){ 
....................                      if(PresionCamara<=((int16)Atmosferica+10) && Menu!=20 && HIG && Menu!=255){ 
....................                         enciendeBombaAgua(); 
....................                      } 
....................                      if(!HIG){ 
....................                         apagaBombaAgua(); 
....................                      } 
....................                   } 
....................                #endif 
....................             } else{ 
....................                SensadoNivel=ON; 
....................                if(TiempoSensadoNivel>5){ 
....................                   SensadoNivel=OFF; 
....................                   CalderinLleno=ON; 
....................                   IniciaLlenado=OFF;                   
....................                   #ifdef ULKA 
....................                      if(!PruebaEstados){ 
....................                         if(Menu!=20){ 
....................                            apagaBombaAgua(); 
....................                         } 
....................                      } 
....................                   #endif 
....................                } 
....................             } 
....................         #endif     
.................... // Tiempo de Grafica//-------------------------------------- 
....................       if(tiempos2>=6000){ 
080BA:  MOVLB  3
080BC:  MOVF   x75,W
080BE:  SUBLW  16
080C0:  BC    80D6
080C2:  XORLW  FF
080C4:  BNZ   80CC
080C6:  MOVF   x74,W
080C8:  SUBLW  6F
080CA:  BC    80D6
....................          Grafica=1; 
080CC:  MOVLB  0
080CE:  BSF    xA5.3
....................          tiempos2=0; 
080D0:  MOVLB  3
080D2:  CLRF   x75
080D4:  CLRF   x74
....................       } 
....................  
.................... // Tiempo de Muestreo//-------------------------------------- 
....................       if(tiempos3>=20){ 
080D6:  MOVF   x77,F
080D8:  BNZ   80E2
080DA:  MOVF   x76,W
080DC:  SUBLW  13
080DE:  BTFSC  FD8.0
080E0:  BRA    8216
....................          Temperatura=LeerPt100(MediaMovil); 
080E2:  MOVFF  2E2,446
080E6:  MOVLB  0
080E8:  CALL   3B84
080EC:  MOVFF  03,332
080F0:  MOVFF  02,331
080F4:  MOVFF  01,330
080F8:  MOVFF  00,32F
....................          PresionCamara=Leer_Sensor_Presion_Camara(10); 
080FC:  MOVLW  0A
080FE:  MOVLB  4
08100:  MOVWF  x46
08102:  MOVLB  0
08104:  CALL   3FCA
08108:  MOVFF  03,45E
0810C:  MOVFF  02,45D
08110:  MOVFF  01,45C
08114:  MOVFF  00,45B
08118:  CALL   41C6
0811C:  MOVFF  02,37F
08120:  MOVFF  01,37E
....................          PresionPreCamara=Leer_Sensor_Presion_PreCamara(10); 
08124:  MOVLW  0A
08126:  MOVLB  4
08128:  MOVWF  x46
0812A:  MOVLB  0
0812C:  CALL   4202
08130:  MOVFF  03,45E
08134:  MOVFF  02,45D
08138:  MOVFF  01,45C
0813C:  MOVFF  00,45B
08140:  CALL   41C6
08144:  MOVFF  02,381
08148:  MOVFF  01,380
....................          rtc_get_date(Dia,Mes,Year,dow); 
....................          rtc_get_time(Hora,Minuto,Segundo); 
....................          tiempos3=0; 
*
08210:  MOVLB  3
08212:  CLRF   x77
08214:  CLRF   x76
....................       } 
....................        
.................... // Monitoreo Parada Emergencia//--------------------------------------       
....................       if(!STOP && !IniciaCiclo && !PruebaEstados){ 
08216:  BSF    F93.7
08218:  BTFSS  F81.7
0821A:  BRA    827C
0821C:  MOVLB  0
0821E:  BTFSS  xA0.1
08220:  BRA    8226
08222:  MOVLB  3
08224:  BRA    827C
08226:  BTFSS  xA1.3
08228:  BRA    822E
0822A:  MOVLB  3
0822C:  BRA    827C
....................          if(!disp_Stop){ 
0822E:  BTFSC  xA5.4
08230:  BRA    8250
....................             disp_Stop=1;Menu=255; 
08232:  BSF    xA5.4
08234:  MOVLW  FF
08236:  MOVLB  3
08238:  MOVWF  x64
....................             printf("page Emergencia"); 
0823A:  MOVLW  C2
0823C:  MOVWF  FF6
0823E:  MOVLW  07
08240:  MOVWF  FF7
08242:  MOVLW  00
08244:  MOVWF  FF8
08246:  MOVLB  0
08248:  CALL   398E
....................             SendDataDisplay(); 
0824C:  CALL   39C0
....................          } 
....................          Controlando=0; 
08250:  MOVLB  3
08252:  CLRF   x5C
....................          Desfogue_on; 
08254:  BSF    F8C.4
08256:  BCF    F95.4
....................          SSR_off; 
08258:  BSF    F8B.2
0825A:  BCF    F94.2
....................          #ifdef Generador 
....................          Paso_off; 
0825C:  BCF    F8C.6
0825E:  BCF    F95.6
....................          #else 
....................          Bomba_off; 
....................          #endif 
....................          Agua_off; 
08260:  BCF    F8C.5
08262:  BCF    F95.5
....................          DesfogueSuave=OFF; 
08264:  MOVLB  0
08266:  BCF    xA0.6
....................          ActivaAlarma(1); 
08268:  MOVLW  01
0826A:  MOVLB  4
0826C:  MOVWF  x46
0826E:  MOVLB  0
08270:  CALL   495C
....................          BorraBuffer(); 
08274:  GOTO   4A90
....................       }else{ 
08278:  BRA    8284
0827A:  MOVLB  3
....................          if(disp_Stop){ 
0827C:  MOVLB  0
0827E:  BTFSS  xA5.4
08280:  BRA    8284
....................             reset_cpu(); 
08282:  RESET
....................          } 
....................       }            
....................    //Buzzer_off;    
.................... //_-------------------------------------------------------------------------------------------------------------------------------------------------------- 
....................    if(Menu==240){ //Menu de Bienvenida. 
08284:  MOVLB  3
08286:  MOVF   x64,W
08288:  SUBLW  F0
0828A:  BNZ   82D4
....................       printf("bkcmd=0"); 
0828C:  MOVLW  D2
0828E:  MOVWF  FF6
08290:  MOVLW  07
08292:  MOVWF  FF7
08294:  MOVLW  00
08296:  MOVWF  FF8
08298:  MOVLB  0
0829A:  CALL   398E
....................       SendDataDisplay(); 
0829E:  CALL   39C0
....................       delay_ms(1500); 
082A2:  MOVLW  06
082A4:  MOVLB  4
082A6:  MOVWF  x46
082A8:  MOVLW  FA
082AA:  MOVWF  x5B
082AC:  MOVLB  0
082AE:  CALL   1AC8
082B2:  MOVLB  4
082B4:  DECFSZ x46,F
082B6:  BRA    82A8
....................       printf("page Clave"); 
082B8:  MOVLW  DA
082BA:  MOVWF  FF6
082BC:  MOVLW  07
082BE:  MOVWF  FF7
082C0:  MOVLW  00
082C2:  MOVWF  FF8
082C4:  MOVLB  0
082C6:  CALL   398E
....................       SendDataDisplay(); 
082CA:  CALL   39C0
....................       ApagaSalidas(); 
082CE:  CALL   39F6
082D2:  MOVLB  3
....................    } 
.................... //_-------------------------------------------------------------------------------------------------------------------------------------------------------- 
....................  
.................... //_-------------------------------------------------------------------------------------------------------------------------------------------------------- 
....................     if(Menu==0){ //Menu de Contrasea de acceso. 
082D4:  MOVF   x64,F
082D6:  BTFSS  FD8.2
082D8:  GOTO   8D4E
....................       //ApagaSalidas(); 
....................       entro=OFF; 
082DC:  MOVLB  0
082DE:  BCF    xA4.3
....................       if(Digito==1){ 
082E0:  MOVLB  2
082E2:  DECFSZ xE7,W
082E4:  BRA    8330
....................          printf("t0.txt=\"%u\"",Contrasena[0]); 
082E6:  MOVLW  E6
082E8:  MOVWF  FF6
082EA:  MOVLW  07
082EC:  MOVWF  FF7
082EE:  MOVLW  00
082F0:  MOVWF  FF8
082F2:  MOVLW  08
082F4:  MOVLB  4
082F6:  MOVWF  x4B
082F8:  MOVLB  0
082FA:  CALL   4ABC
082FE:  MOVFF  38A,44B
08302:  MOVLW  1B
08304:  MOVLB  4
08306:  MOVWF  x4C
08308:  MOVLB  0
0830A:  CALL   4B1A
0830E:  MOVLW  22
08310:  BTFSS  F9E.4
08312:  BRA    8310
08314:  MOVWF  FAD
....................          SendDataDisplay(); 
08316:  CALL   39C0
....................          printf("va0.val=1"); 
0831A:  MOVLW  F2
0831C:  MOVWF  FF6
0831E:  MOVLW  07
08320:  MOVWF  FF7
08322:  MOVLW  00
08324:  MOVWF  FF8
08326:  CALL   398E
....................          SendDataDisplay(); 
0832A:  CALL   39C0
0832E:  MOVLB  2
....................       } 
....................        
....................       if(Digito==2){ 
08330:  MOVF   xE7,W
08332:  SUBLW  02
08334:  BNZ   8390
....................          printf("t0.txt=\"%u%u\"",Contrasena[0],Contrasena[1]); 
08336:  MOVLW  FC
08338:  MOVWF  FF6
0833A:  MOVLW  07
0833C:  MOVWF  FF7
0833E:  MOVLW  00
08340:  MOVWF  FF8
08342:  MOVLW  08
08344:  MOVLB  4
08346:  MOVWF  x4B
08348:  MOVLB  0
0834A:  CALL   4ABC
0834E:  MOVFF  38A,44B
08352:  MOVLW  1B
08354:  MOVLB  4
08356:  MOVWF  x4C
08358:  MOVLB  0
0835A:  CALL   4B1A
0835E:  MOVFF  38B,44B
08362:  MOVLW  1B
08364:  MOVLB  4
08366:  MOVWF  x4C
08368:  MOVLB  0
0836A:  CALL   4B1A
0836E:  MOVLW  22
08370:  BTFSS  F9E.4
08372:  BRA    8370
08374:  MOVWF  FAD
....................          SendDataDisplay(); 
08376:  CALL   39C0
....................          printf("va0.val=2"); 
0837A:  MOVLW  0A
0837C:  MOVWF  FF6
0837E:  MOVLW  08
08380:  MOVWF  FF7
08382:  MOVLW  00
08384:  MOVWF  FF8
08386:  CALL   398E
....................          SendDataDisplay(); 
0838A:  CALL   39C0
0838E:  MOVLB  2
....................       } 
....................        
....................       if(Digito==3){ 
08390:  MOVF   xE7,W
08392:  SUBLW  03
08394:  BNZ   8400
....................          printf("t0.txt=\"%u%u%u\"",Contrasena[0],Contrasena[1],Contrasena[2]); 
08396:  MOVLW  14
08398:  MOVWF  FF6
0839A:  MOVLW  08
0839C:  MOVWF  FF7
0839E:  MOVLW  00
083A0:  MOVWF  FF8
083A2:  MOVLW  08
083A4:  MOVLB  4
083A6:  MOVWF  x4B
083A8:  MOVLB  0
083AA:  CALL   4ABC
083AE:  MOVFF  38A,44B
083B2:  MOVLW  1B
083B4:  MOVLB  4
083B6:  MOVWF  x4C
083B8:  MOVLB  0
083BA:  CALL   4B1A
083BE:  MOVFF  38B,44B
083C2:  MOVLW  1B
083C4:  MOVLB  4
083C6:  MOVWF  x4C
083C8:  MOVLB  0
083CA:  CALL   4B1A
083CE:  MOVFF  38C,44B
083D2:  MOVLW  1B
083D4:  MOVLB  4
083D6:  MOVWF  x4C
083D8:  MOVLB  0
083DA:  CALL   4B1A
083DE:  MOVLW  22
083E0:  BTFSS  F9E.4
083E2:  BRA    83E0
083E4:  MOVWF  FAD
....................          SendDataDisplay(); 
083E6:  CALL   39C0
....................          printf("va0.val=3"); 
083EA:  MOVLW  24
083EC:  MOVWF  FF6
083EE:  MOVLW  08
083F0:  MOVWF  FF7
083F2:  MOVLW  00
083F4:  MOVWF  FF8
083F6:  CALL   398E
....................          SendDataDisplay(); 
083FA:  CALL   39C0
083FE:  MOVLB  2
....................       } 
....................        
....................       if(Digito==4){ 
08400:  MOVF   xE7,W
08402:  SUBLW  04
08404:  BNZ   8480
....................          printf("t0.txt=\"%u%u%u%u\"",Contrasena[0],Contrasena[1],Contrasena[2],Contrasena[3]); 
08406:  MOVLW  2E
08408:  MOVWF  FF6
0840A:  MOVLW  08
0840C:  MOVWF  FF7
0840E:  MOVLW  00
08410:  MOVWF  FF8
08412:  MOVLW  08
08414:  MOVLB  4
08416:  MOVWF  x4B
08418:  MOVLB  0
0841A:  CALL   4ABC
0841E:  MOVFF  38A,44B
08422:  MOVLW  1B
08424:  MOVLB  4
08426:  MOVWF  x4C
08428:  MOVLB  0
0842A:  CALL   4B1A
0842E:  MOVFF  38B,44B
08432:  MOVLW  1B
08434:  MOVLB  4
08436:  MOVWF  x4C
08438:  MOVLB  0
0843A:  CALL   4B1A
0843E:  MOVFF  38C,44B
08442:  MOVLW  1B
08444:  MOVLB  4
08446:  MOVWF  x4C
08448:  MOVLB  0
0844A:  CALL   4B1A
0844E:  MOVFF  38D,44B
08452:  MOVLW  1B
08454:  MOVLB  4
08456:  MOVWF  x4C
08458:  MOVLB  0
0845A:  CALL   4B1A
0845E:  MOVLW  22
08460:  BTFSS  F9E.4
08462:  BRA    8460
08464:  MOVWF  FAD
....................          SendDataDisplay(); 
08466:  CALL   39C0
....................          printf("va0.val=4"); 
0846A:  MOVLW  40
0846C:  MOVWF  FF6
0846E:  MOVLW  08
08470:  MOVWF  FF7
08472:  MOVLW  00
08474:  MOVWF  FF8
08476:  CALL   398E
....................          SendDataDisplay(); 
0847A:  CALL   39C0
0847E:  MOVLB  2
....................       } 
....................        
....................       if(UP){ 
08480:  BSF    F93.0
08482:  BTFSC  F81.0
08484:  BRA    84CE
....................          delay_ms(100); 
08486:  MOVLW  64
08488:  MOVLB  4
0848A:  MOVWF  x5B
0848C:  MOVLB  0
0848E:  CALL   1AC8
....................          if(UP){ 
08492:  BSF    F93.0
08494:  BTFSC  F81.0
08496:  BRA    84D0
....................          if(Digito==0) 
08498:  MOVLB  2
0849A:  MOVF   xE7,F
0849C:  BNZ   84A2
....................             Digito=1; 
0849E:  MOVLW  01
084A0:  MOVWF  xE7
....................             if(Contrasena[Digito-1]<9) 
084A2:  MOVLW  01
084A4:  SUBWF  xE7,W
084A6:  CLRF   03
084A8:  ADDLW  8A
084AA:  MOVWF  FE9
084AC:  MOVLW  03
084AE:  ADDWFC 03,W
084B0:  MOVWF  FEA
084B2:  BTFSC  FEF.7
084B4:  BRA    84BC
084B6:  MOVF   FEF,W
084B8:  SUBLW  08
084BA:  BNC   84CE
....................                Contrasena[Digito-1]++; 
084BC:  MOVLW  01
084BE:  SUBWF  xE7,W
084C0:  CLRF   03
084C2:  ADDLW  8A
084C4:  MOVWF  FE9
084C6:  MOVLW  03
084C8:  ADDWFC 03,W
084CA:  MOVWF  FEA
084CC:  INCF   FEF,F
084CE:  MOVLB  0
....................          } 
....................       } 
....................        
....................       if(DOWN){ 
084D0:  BSF    F93.1
084D2:  BTFSC  F81.1
084D4:  BRA    8520
....................          delay_ms(100); 
084D6:  MOVLW  64
084D8:  MOVLB  4
084DA:  MOVWF  x5B
084DC:  MOVLB  0
084DE:  CALL   1AC8
....................          if(Digito==0) 
084E2:  MOVLB  2
084E4:  MOVF   xE7,F
084E6:  BNZ   84EC
....................             Digito=1; 
084E8:  MOVLW  01
084EA:  MOVWF  xE7
....................          if(DOWN){ 
084EC:  BSF    F93.1
084EE:  BTFSC  F81.1
084F0:  BRA    851E
....................             if(Contrasena[Digito-1]>0) 
084F2:  MOVLW  01
084F4:  SUBWF  xE7,W
084F6:  CLRF   03
084F8:  ADDLW  8A
084FA:  MOVWF  FE9
084FC:  MOVLW  03
084FE:  ADDWFC 03,W
08500:  MOVWF  FEA
08502:  BTFSC  FEF.7
08504:  BRA    851E
08506:  MOVF   FEF,W
08508:  SUBLW  00
0850A:  BC    851E
....................                Contrasena[Digito-1]--; 
0850C:  MOVLW  01
0850E:  SUBWF  xE7,W
08510:  CLRF   03
08512:  ADDLW  8A
08514:  MOVWF  FE9
08516:  MOVLW  03
08518:  ADDWFC 03,W
0851A:  MOVWF  FEA
0851C:  DECF   FEF,F
0851E:  MOVLB  0
....................          } 
....................       } 
....................        
....................       if(RIGHT){ 
08520:  BSF    F93.2
08522:  BTFSC  F81.2
08524:  BRA    853E
....................          delay_ms(100); 
08526:  MOVLW  64
08528:  MOVLB  4
0852A:  MOVWF  x5B
0852C:  MOVLB  0
0852E:  CALL   1AC8
....................          if(RIGHT){ 
08532:  BSF    F93.2
08534:  BTFSC  F81.2
08536:  BRA    853E
....................             Digito++; 
08538:  MOVLB  2
0853A:  INCF   xE7,F
0853C:  MOVLB  0
....................          } 
....................       } 
....................        
....................       if(Digito>4){ 
0853E:  MOVLB  2
08540:  MOVF   xE7,W
08542:  SUBLW  04
08544:  BTFSC  FD8.0
08546:  BRA    8898
....................       Digito=0; 
08548:  CLRF   xE7
....................       printf("t0.txt=\"\""); 
0854A:  MOVLW  4A
0854C:  MOVWF  FF6
0854E:  MOVLW  08
08550:  MOVWF  FF7
08552:  MOVLW  00
08554:  MOVWF  FF8
08556:  MOVLB  0
08558:  CALL   398E
....................       SendDataDisplay(); 
0855C:  CALL   39C0
....................          if(TipoClave==0){ 
08560:  MOVLB  2
08562:  MOVF   xE5,F
08564:  BTFSS  FD8.2
08566:  BRA    86B6
....................             if(Contrasena[0]==3&&Contrasena[1]==8&&Contrasena[2]==9&&Contrasena[3]==2){ // Si Ingresa clave para reset general del sistema. 
08568:  MOVLB  3
0856A:  MOVF   x8A,W
0856C:  SUBLW  03
0856E:  BTFSS  FD8.2
08570:  BRA    866A
08572:  MOVF   x8B,W
08574:  SUBLW  08
08576:  BTFSS  FD8.2
08578:  BRA    866A
0857A:  MOVF   x8C,W
0857C:  SUBLW  09
0857E:  BNZ   866A
08580:  MOVF   x8D,W
08582:  SUBLW  02
08584:  BNZ   866A
....................                write_eeprom(10,0);delay_ms(20);write_eeprom(11,0);delay_ms(20);// Reestablece a contrasea de Fabrica y reinicia Programa. 
08586:  CLRF   FAA
08588:  MOVLW  0A
0858A:  MOVWF  FA9
0858C:  CLRF   FA8
0858E:  BCF    FA6.6
08590:  BCF    FA6.7
08592:  BSF    FA6.2
08594:  MOVF   FF2,W
08596:  MOVWF  00
08598:  BCF    FF2.6
0859A:  BCF    FF2.7
0859C:  MOVLB  F
0859E:  MOVLW  55
085A0:  MOVWF  FA7
085A2:  MOVLW  AA
085A4:  MOVWF  FA7
085A6:  BSF    FA6.1
085A8:  BTFSC  FA6.1
085AA:  BRA    85A8
085AC:  BCF    FA6.2
085AE:  MOVF   00,W
085B0:  IORWF  FF2,F
085B2:  MOVLW  14
085B4:  MOVLB  4
085B6:  MOVWF  x5B
085B8:  MOVLB  0
085BA:  CALL   1AC8
085BE:  CLRF   FAA
085C0:  MOVLW  0B
085C2:  MOVWF  FA9
085C4:  CLRF   FA8
085C6:  BCF    FA6.6
085C8:  BCF    FA6.7
085CA:  BSF    FA6.2
085CC:  MOVF   FF2,W
085CE:  MOVWF  00
085D0:  BCF    FF2.6
085D2:  BCF    FF2.7
085D4:  MOVLB  F
085D6:  MOVLW  55
085D8:  MOVWF  FA7
085DA:  MOVLW  AA
085DC:  MOVWF  FA7
085DE:  BSF    FA6.1
085E0:  BTFSC  FA6.1
085E2:  BRA    85E0
085E4:  BCF    FA6.2
085E6:  MOVF   00,W
085E8:  IORWF  FF2,F
085EA:  MOVLW  14
085EC:  MOVLB  4
085EE:  MOVWF  x5B
085F0:  MOVLB  0
085F2:  CALL   1AC8
....................                write_eeprom(12,0);delay_ms(20);write_eeprom(13,0);delay_ms(20); 
085F6:  CLRF   FAA
085F8:  MOVLW  0C
085FA:  MOVWF  FA9
085FC:  CLRF   FA8
085FE:  BCF    FA6.6
08600:  BCF    FA6.7
08602:  BSF    FA6.2
08604:  MOVF   FF2,W
08606:  MOVWF  00
08608:  BCF    FF2.6
0860A:  BCF    FF2.7
0860C:  MOVLB  F
0860E:  MOVLW  55
08610:  MOVWF  FA7
08612:  MOVLW  AA
08614:  MOVWF  FA7
08616:  BSF    FA6.1
08618:  BTFSC  FA6.1
0861A:  BRA    8618
0861C:  BCF    FA6.2
0861E:  MOVF   00,W
08620:  IORWF  FF2,F
08622:  MOVLW  14
08624:  MOVLB  4
08626:  MOVWF  x5B
08628:  MOVLB  0
0862A:  CALL   1AC8
0862E:  CLRF   FAA
08630:  MOVLW  0D
08632:  MOVWF  FA9
08634:  CLRF   FA8
08636:  BCF    FA6.6
08638:  BCF    FA6.7
0863A:  BSF    FA6.2
0863C:  MOVF   FF2,W
0863E:  MOVWF  00
08640:  BCF    FF2.6
08642:  BCF    FF2.7
08644:  MOVLB  F
08646:  MOVLW  55
08648:  MOVWF  FA7
0864A:  MOVLW  AA
0864C:  MOVWF  FA7
0864E:  BSF    FA6.1
08650:  BTFSC  FA6.1
08652:  BRA    8650
08654:  BCF    FA6.2
08656:  MOVF   00,W
08658:  IORWF  FF2,F
0865A:  MOVLW  14
0865C:  MOVLB  4
0865E:  MOVWF  x5B
08660:  MOVLB  0
08662:  CALL   1AC8
....................                reset_cpu(); 
08666:  RESET
08668:  MOVLB  3
....................             } 
....................              
....................             if((Contrasena[0]==Password[0])&&(Contrasena[1]==Password[1])&&(Contrasena[2]==Password[2])&&(Contrasena[3]==Password[3])){ 
0866A:  MOVF   x8E,W
0866C:  SUBWF  x8A,W
0866E:  BNZ   869C
08670:  MOVF   x8F,W
08672:  SUBWF  x8B,W
08674:  BNZ   869C
08676:  MOVF   x90,W
08678:  SUBWF  x8C,W
0867A:  BNZ   869C
0867C:  MOVF   x91,W
0867E:  SUBWF  x8D,W
08680:  BNZ   869C
....................                //BorraBuffer(); 
....................                printf("page ClaveCorrecta"); 
08682:  MOVLW  54
08684:  MOVWF  FF6
08686:  MOVLW  08
08688:  MOVWF  FF7
0868A:  MOVLW  00
0868C:  MOVWF  FF8
0868E:  MOVLB  0
08690:  CALL   398E
....................                SendDataDisplay(); 
08694:  CALL   39C0
....................             }else{ 
08698:  BRA    86B2
0869A:  MOVLB  3
....................                //BorraBuffer(); 
....................                printf("page ClaveBad"); 
0869C:  MOVLW  68
0869E:  MOVWF  FF6
086A0:  MOVLW  08
086A2:  MOVWF  FF7
086A4:  MOVLW  00
086A6:  MOVWF  FF8
086A8:  MOVLB  0
086AA:  CALL   398E
....................                SendDataDisplay(); 
086AE:  CALL   39C0
....................             }  
....................          }else if(TipoClave==1){ 
086B2:  BRA    8896
086B4:  MOVLB  2
086B6:  DECFSZ xE5,W
086B8:  BRA    8708
....................             if(Contrasena[0]==4&&Contrasena[1]==4&&Contrasena[2]==4&&Contrasena[3]==4){ // Si Ingresa clave de Servicio Tecnico 
086BA:  MOVLB  3
086BC:  MOVF   x8A,W
086BE:  SUBLW  04
086C0:  BNZ   86EE
086C2:  MOVF   x8B,W
086C4:  SUBLW  04
086C6:  BNZ   86EE
086C8:  MOVF   x8C,W
086CA:  SUBLW  04
086CC:  BNZ   86EE
086CE:  MOVF   x8D,W
086D0:  SUBLW  04
086D2:  BNZ   86EE
....................                printf("page Config"); 
086D4:  MOVLW  76
086D6:  MOVWF  FF6
086D8:  MOVLW  08
086DA:  MOVWF  FF7
086DC:  MOVLW  00
086DE:  MOVWF  FF8
086E0:  MOVLB  0
086E2:  CALL   398E
....................                SendDataDisplay(); 
086E6:  CALL   39C0
....................             }else{ 
086EA:  BRA    8704
086EC:  MOVLB  3
....................                printf("page MenuPrincipal"); 
086EE:  MOVLW  82
086F0:  MOVWF  FF6
086F2:  MOVLW  08
086F4:  MOVWF  FF7
086F6:  MOVLW  00
086F8:  MOVWF  FF8
086FA:  MOVLB  0
086FC:  CALL   398E
....................                SendDataDisplay(); 
08700:  CALL   39C0
....................             } 
....................          }else if(TipoClave==2){ 
08704:  BRA    8896
08706:  MOVLB  2
08708:  MOVF   xE5,W
0870A:  SUBLW  02
0870C:  BNZ   8776
....................             if((Contrasena[0]==Password[0])&&(Contrasena[1]==Password[1])&&(Contrasena[2]==Password[2])&&(Contrasena[3]==Password[3])){ 
0870E:  MOVLB  3
08710:  MOVF   x8E,W
08712:  SUBWF  x8A,W
08714:  BNZ   875C
08716:  MOVF   x8F,W
08718:  SUBWF  x8B,W
0871A:  BNZ   875C
0871C:  MOVF   x90,W
0871E:  SUBWF  x8C,W
08720:  BNZ   875C
08722:  MOVF   x91,W
08724:  SUBWF  x8D,W
08726:  BNZ   875C
....................                printf("page Clave"); 
08728:  MOVLW  96
0872A:  MOVWF  FF6
0872C:  MOVLW  08
0872E:  MOVWF  FF7
08730:  MOVLW  00
08732:  MOVWF  FF8
08734:  MOVLB  0
08736:  CALL   398E
....................                SendDataDisplay(); 
0873A:  CALL   39C0
....................                printf("titulo.txt=\"Clave Nueva\""); 
0873E:  MOVLW  A2
08740:  MOVWF  FF6
08742:  MOVLW  08
08744:  MOVWF  FF7
08746:  MOVLW  00
08748:  MOVWF  FF8
0874A:  CALL   398E
....................                SendDataDisplay(); 
0874E:  CALL   39C0
....................                TipoClave=3; 
08752:  MOVLW  03
08754:  MOVLB  2
08756:  MOVWF  xE5
....................             }else{ 
08758:  BRA    8774
0875A:  MOVLB  3
....................                printf("page MenuPrincipal"); 
0875C:  MOVLW  BC
0875E:  MOVWF  FF6
08760:  MOVLW  08
08762:  MOVWF  FF7
08764:  MOVLW  00
08766:  MOVWF  FF8
08768:  MOVLB  0
0876A:  CALL   398E
....................                SendDataDisplay(); 
0876E:  CALL   39C0
08772:  MOVLB  2
....................             }  
....................          }else if(TipoClave==3){ 
08774:  BRA    8898
08776:  MOVF   xE5,W
08778:  SUBLW  03
0877A:  BTFSS  FD8.2
0877C:  BRA    8898
....................             printf("titulo.txt=\"Clave Nueva\""); 
0877E:  MOVLW  D0
08780:  MOVWF  FF6
08782:  MOVLW  08
08784:  MOVWF  FF7
08786:  MOVLW  00
08788:  MOVWF  FF8
0878A:  MOVLB  0
0878C:  CALL   398E
....................             SendDataDisplay(); 
08790:  CALL   39C0
....................             printf("page MenuPrincipal"); 
08794:  MOVLW  EA
08796:  MOVWF  FF6
08798:  MOVLW  08
0879A:  MOVWF  FF7
0879C:  MOVLW  00
0879E:  MOVWF  FF8
087A0:  CALL   398E
....................             SendDataDisplay(); 
087A4:  CALL   39C0
....................             if(!GuardaEEPROM){ 
087A8:  BTFSC  xA2.6
087AA:  BRA    8896
....................                write_eeprom(10,Contrasena[0]);delay_ms(20);write_eeprom(11,Contrasena[1]);delay_ms(20); 
087AC:  CLRF   FAA
087AE:  MOVLW  0A
087B0:  MOVWF  FA9
087B2:  MOVFF  38A,FA8
087B6:  BCF    FA6.6
087B8:  BCF    FA6.7
087BA:  BSF    FA6.2
087BC:  MOVF   FF2,W
087BE:  MOVWF  00
087C0:  BCF    FF2.6
087C2:  BCF    FF2.7
087C4:  MOVLB  F
087C6:  MOVLW  55
087C8:  MOVWF  FA7
087CA:  MOVLW  AA
087CC:  MOVWF  FA7
087CE:  BSF    FA6.1
087D0:  BTFSC  FA6.1
087D2:  BRA    87D0
087D4:  BCF    FA6.2
087D6:  MOVF   00,W
087D8:  IORWF  FF2,F
087DA:  MOVLW  14
087DC:  MOVLB  4
087DE:  MOVWF  x5B
087E0:  MOVLB  0
087E2:  CALL   1AC8
087E6:  CLRF   FAA
087E8:  MOVLW  0B
087EA:  MOVWF  FA9
087EC:  MOVFF  38B,FA8
087F0:  BCF    FA6.6
087F2:  BCF    FA6.7
087F4:  BSF    FA6.2
087F6:  MOVF   FF2,W
087F8:  MOVWF  00
087FA:  BCF    FF2.6
087FC:  BCF    FF2.7
087FE:  MOVLB  F
08800:  MOVLW  55
08802:  MOVWF  FA7
08804:  MOVLW  AA
08806:  MOVWF  FA7
08808:  BSF    FA6.1
0880A:  BTFSC  FA6.1
0880C:  BRA    880A
0880E:  BCF    FA6.2
08810:  MOVF   00,W
08812:  IORWF  FF2,F
08814:  MOVLW  14
08816:  MOVLB  4
08818:  MOVWF  x5B
0881A:  MOVLB  0
0881C:  CALL   1AC8
....................                write_eeprom(12,Contrasena[2]);delay_ms(20);write_eeprom(13,Contrasena[3]);delay_ms(20); 
08820:  CLRF   FAA
08822:  MOVLW  0C
08824:  MOVWF  FA9
08826:  MOVFF  38C,FA8
0882A:  BCF    FA6.6
0882C:  BCF    FA6.7
0882E:  BSF    FA6.2
08830:  MOVF   FF2,W
08832:  MOVWF  00
08834:  BCF    FF2.6
08836:  BCF    FF2.7
08838:  MOVLB  F
0883A:  MOVLW  55
0883C:  MOVWF  FA7
0883E:  MOVLW  AA
08840:  MOVWF  FA7
08842:  BSF    FA6.1
08844:  BTFSC  FA6.1
08846:  BRA    8844
08848:  BCF    FA6.2
0884A:  MOVF   00,W
0884C:  IORWF  FF2,F
0884E:  MOVLW  14
08850:  MOVLB  4
08852:  MOVWF  x5B
08854:  MOVLB  0
08856:  CALL   1AC8
0885A:  CLRF   FAA
0885C:  MOVLW  0D
0885E:  MOVWF  FA9
08860:  MOVFF  38D,FA8
08864:  BCF    FA6.6
08866:  BCF    FA6.7
08868:  BSF    FA6.2
0886A:  MOVF   FF2,W
0886C:  MOVWF  00
0886E:  BCF    FF2.6
08870:  BCF    FF2.7
08872:  MOVLB  F
08874:  MOVLW  55
08876:  MOVWF  FA7
08878:  MOVLW  AA
0887A:  MOVWF  FA7
0887C:  BSF    FA6.1
0887E:  BTFSC  FA6.1
08880:  BRA    887E
08882:  BCF    FA6.2
08884:  MOVF   00,W
08886:  IORWF  FF2,F
08888:  MOVLW  14
0888A:  MOVLB  4
0888C:  MOVWF  x5B
0888E:  MOVLB  0
08890:  CALL   1AC8
....................                GuardaEEPROM=ON; 
08894:  BSF    xA2.6
08896:  MOVLB  2
....................             } 
....................          } 
....................       } 
....................        
....................       if(RX_Buffer[4]==0x11){//11 
08898:  MOVF   34,W
0889A:  SUBLW  11
0889C:  BNZ   88BC
....................          if(TipoClave!=0){ 
0889E:  MOVF   xE5,F
088A0:  BZ    88BC
....................             printf("page MenuPrincipal"); 
088A2:  MOVLW  FE
088A4:  MOVWF  FF6
088A6:  MOVLW  08
088A8:  MOVWF  FF7
088AA:  MOVLW  00
088AC:  MOVWF  FF8
088AE:  MOVLB  0
088B0:  CALL   398E
....................             SendDataDisplay(); 
088B4:  CALL   39C0
....................             PantallaPrincipal=0; 
088B8:  MOVLB  2
088BA:  CLRF   xE4
....................          } 
....................       } 
....................        
....................       if(TipoClave==3){ 
088BC:  MOVF   xE5,W
088BE:  SUBLW  03
088C0:  BNZ   88EE
....................          printf("titulo.txt=\"Clave Nueva\""); 
088C2:  MOVLW  12
088C4:  MOVWF  FF6
088C6:  MOVLW  09
088C8:  MOVWF  FF7
088CA:  MOVLW  00
088CC:  MOVWF  FF8
088CE:  MOVLB  0
088D0:  CALL   398E
....................          SendDataDisplay(); 
088D4:  CALL   39C0
....................          printf("doevents"); 
088D8:  MOVLW  2C
088DA:  MOVWF  FF6
088DC:  MOVLW  09
088DE:  MOVWF  FF7
088E0:  MOVLW  00
088E2:  MOVWF  FF8
088E4:  CALL   398E
....................          SendDataDisplay(); 
088E8:  CALL   39C0
088EC:  MOVLB  2
....................       } 
....................        
....................       if(TipoClave==2){ 
088EE:  MOVF   xE5,W
088F0:  SUBLW  02
088F2:  BNZ   8920
....................          printf("titulo.txt=\"Clave Actual\""); 
088F4:  MOVLW  36
088F6:  MOVWF  FF6
088F8:  MOVLW  09
088FA:  MOVWF  FF7
088FC:  MOVLW  00
088FE:  MOVWF  FF8
08900:  MOVLB  0
08902:  CALL   398E
....................          SendDataDisplay(); 
08906:  CALL   39C0
....................          printf("doevents"); 
0890A:  MOVLW  50
0890C:  MOVWF  FF6
0890E:  MOVLW  09
08910:  MOVWF  FF7
08912:  MOVLW  00
08914:  MOVWF  FF8
08916:  CALL   398E
....................          SendDataDisplay(); 
0891A:  CALL   39C0
0891E:  MOVLB  2
....................       } 
....................        
....................       if(TipoClave==1){ 
08920:  DECFSZ xE5,W
08922:  BRA    8950
....................          printf("titulo.txt=\"Clave Tecnico\""); 
08924:  MOVLW  5A
08926:  MOVWF  FF6
08928:  MOVLW  09
0892A:  MOVWF  FF7
0892C:  MOVLW  00
0892E:  MOVWF  FF8
08930:  MOVLB  0
08932:  CALL   398E
....................          SendDataDisplay(); 
08936:  CALL   39C0
....................          printf("doevents"); 
0893A:  MOVLW  76
0893C:  MOVWF  FF6
0893E:  MOVLW  09
08940:  MOVWF  FF7
08942:  MOVLW  00
08944:  MOVWF  FF8
08946:  CALL   398E
....................          SendDataDisplay(); 
0894A:  CALL   39C0
0894E:  MOVLB  2
....................       } 
....................        
....................       if(TipoClave==0){ 
08950:  MOVF   xE5,F
08952:  BNZ   896C
....................          printf("titulo.txt=\"Ingrese Contrasea\""); 
08954:  MOVLW  80
08956:  MOVWF  FF6
08958:  MOVLW  09
0895A:  MOVWF  FF7
0895C:  MOVLW  00
0895E:  MOVWF  FF8
08960:  MOVLB  0
08962:  CALL   398E
....................          SendDataDisplay(); 
08966:  CALL   39C0
0896A:  MOVLB  2
....................       } 
....................       if(RX_Buffer[3]==0x0f){//0f, recibe caracteres ingresados desde el Display 
0896C:  MOVF   33,W
0896E:  SUBLW  0F
08970:  BTFSS  FD8.2
08972:  BRA    8D4C
....................          if(TipoClave==0){ 
08974:  MOVF   xE5,F
08976:  BTFSS  FD8.2
08978:  BRA    8B08
....................             if(RX_Buffer[4]==0x33&&RX_Buffer[5]==0x38&&RX_Buffer[6]==0x39&&RX_Buffer[7]==0x32){ // Si Ingresa clave para reset general del sistema. 
0897A:  MOVF   34,W
0897C:  SUBLW  33
0897E:  BTFSS  FD8.2
08980:  BRA    8A7A
08982:  MOVF   35,W
08984:  SUBLW  38
08986:  BTFSS  FD8.2
08988:  BRA    8A7A
0898A:  MOVF   36,W
0898C:  SUBLW  39
0898E:  BNZ   8A7A
08990:  MOVF   37,W
08992:  SUBLW  32
08994:  BNZ   8A7A
....................                write_eeprom(10,0);delay_ms(20);write_eeprom(11,0);delay_ms(20);// Reestablece a contrasea de Fabrica y reinicia Programa. 
08996:  CLRF   FAA
08998:  MOVLW  0A
0899A:  MOVWF  FA9
0899C:  CLRF   FA8
0899E:  BCF    FA6.6
089A0:  BCF    FA6.7
089A2:  BSF    FA6.2
089A4:  MOVF   FF2,W
089A6:  MOVWF  00
089A8:  BCF    FF2.6
089AA:  BCF    FF2.7
089AC:  MOVLB  F
089AE:  MOVLW  55
089B0:  MOVWF  FA7
089B2:  MOVLW  AA
089B4:  MOVWF  FA7
089B6:  BSF    FA6.1
089B8:  BTFSC  FA6.1
089BA:  BRA    89B8
089BC:  BCF    FA6.2
089BE:  MOVF   00,W
089C0:  IORWF  FF2,F
089C2:  MOVLW  14
089C4:  MOVLB  4
089C6:  MOVWF  x5B
089C8:  MOVLB  0
089CA:  CALL   1AC8
089CE:  CLRF   FAA
089D0:  MOVLW  0B
089D2:  MOVWF  FA9
089D4:  CLRF   FA8
089D6:  BCF    FA6.6
089D8:  BCF    FA6.7
089DA:  BSF    FA6.2
089DC:  MOVF   FF2,W
089DE:  MOVWF  00
089E0:  BCF    FF2.6
089E2:  BCF    FF2.7
089E4:  MOVLB  F
089E6:  MOVLW  55
089E8:  MOVWF  FA7
089EA:  MOVLW  AA
089EC:  MOVWF  FA7
089EE:  BSF    FA6.1
089F0:  BTFSC  FA6.1
089F2:  BRA    89F0
089F4:  BCF    FA6.2
089F6:  MOVF   00,W
089F8:  IORWF  FF2,F
089FA:  MOVLW  14
089FC:  MOVLB  4
089FE:  MOVWF  x5B
08A00:  MOVLB  0
08A02:  CALL   1AC8
....................                write_eeprom(12,0);delay_ms(20);write_eeprom(13,0);delay_ms(20); 
08A06:  CLRF   FAA
08A08:  MOVLW  0C
08A0A:  MOVWF  FA9
08A0C:  CLRF   FA8
08A0E:  BCF    FA6.6
08A10:  BCF    FA6.7
08A12:  BSF    FA6.2
08A14:  MOVF   FF2,W
08A16:  MOVWF  00
08A18:  BCF    FF2.6
08A1A:  BCF    FF2.7
08A1C:  MOVLB  F
08A1E:  MOVLW  55
08A20:  MOVWF  FA7
08A22:  MOVLW  AA
08A24:  MOVWF  FA7
08A26:  BSF    FA6.1
08A28:  BTFSC  FA6.1
08A2A:  BRA    8A28
08A2C:  BCF    FA6.2
08A2E:  MOVF   00,W
08A30:  IORWF  FF2,F
08A32:  MOVLW  14
08A34:  MOVLB  4
08A36:  MOVWF  x5B
08A38:  MOVLB  0
08A3A:  CALL   1AC8
08A3E:  CLRF   FAA
08A40:  MOVLW  0D
08A42:  MOVWF  FA9
08A44:  CLRF   FA8
08A46:  BCF    FA6.6
08A48:  BCF    FA6.7
08A4A:  BSF    FA6.2
08A4C:  MOVF   FF2,W
08A4E:  MOVWF  00
08A50:  BCF    FF2.6
08A52:  BCF    FF2.7
08A54:  MOVLB  F
08A56:  MOVLW  55
08A58:  MOVWF  FA7
08A5A:  MOVLW  AA
08A5C:  MOVWF  FA7
08A5E:  BSF    FA6.1
08A60:  BTFSC  FA6.1
08A62:  BRA    8A60
08A64:  BCF    FA6.2
08A66:  MOVF   00,W
08A68:  IORWF  FF2,F
08A6A:  MOVLW  14
08A6C:  MOVLB  4
08A6E:  MOVWF  x5B
08A70:  MOVLB  0
08A72:  CALL   1AC8
....................                reset_cpu(); 
08A76:  RESET
08A78:  MOVLB  2
....................             } 
....................             if(RX_Buffer[4]>=0x30 && RX_Buffer[5]>=0x30 && RX_Buffer[6]>=0x30 && RX_Buffer[7]>=0x30 
....................             && RX_Buffer[4]<=0x39 && RX_Buffer[5]<=0x39 && RX_Buffer[6]<=0x39 && RX_Buffer[7]<=0x39){ 
08A7A:  MOVF   34,W
08A7C:  SUBLW  2F
08A7E:  BC    8B06
08A80:  MOVF   35,W
08A82:  SUBLW  2F
08A84:  BC    8B06
08A86:  MOVF   36,W
08A88:  SUBLW  2F
08A8A:  BC    8B06
08A8C:  MOVF   37,W
08A8E:  SUBLW  2F
08A90:  BC    8B06
08A92:  MOVF   34,W
08A94:  SUBLW  39
08A96:  BNC   8B06
08A98:  MOVF   35,W
08A9A:  SUBLW  39
08A9C:  BNC   8B06
08A9E:  MOVF   36,W
08AA0:  SUBLW  39
08AA2:  BNC   8B06
08AA4:  MOVF   37,W
08AA6:  SUBLW  39
08AA8:  BNC   8B06
....................             if((RX_Buffer[4]==Password[0]+0x30)&&(RX_Buffer[5]==Password[1]+0x30)&&(RX_Buffer[6]==Password[2]+0x30)&&(RX_Buffer[7]==Password[3]+0x30)){ 
08AAA:  MOVLW  30
08AAC:  MOVLB  3
08AAE:  ADDWF  x8E,W
08AB0:  SUBWF  34,W
08AB2:  BNZ   8AEA
08AB4:  MOVLW  30
08AB6:  ADDWF  x8F,W
08AB8:  SUBWF  35,W
08ABA:  BNZ   8AEA
08ABC:  MOVLW  30
08ABE:  ADDWF  x90,W
08AC0:  SUBWF  36,W
08AC2:  BNZ   8AEA
08AC4:  MOVLW  30
08AC6:  ADDWF  x91,W
08AC8:  SUBWF  37,W
08ACA:  BNZ   8AEA
....................                   printf("page ClaveCorrecta"); 
08ACC:  MOVLW  A0
08ACE:  MOVWF  FF6
08AD0:  MOVLW  09
08AD2:  MOVWF  FF7
08AD4:  MOVLW  00
08AD6:  MOVWF  FF8
08AD8:  MOVLB  0
08ADA:  CALL   398E
....................                   //printf("page MenuPrincipal"); 
....................                   SendDataDisplay(); 
08ADE:  CALL   39C0
....................                   RX_Buffer[3]=0x00;RX_Buffer2[3]=0x00;   
08AE2:  CLRF   33
08AE4:  CLRF   3E
....................                }else{ 
08AE6:  BRA    8B04
08AE8:  MOVLB  3
....................                   printf("page ClaveBad"); 
08AEA:  MOVLW  B4
08AEC:  MOVWF  FF6
08AEE:  MOVLW  09
08AF0:  MOVWF  FF7
08AF2:  MOVLW  00
08AF4:  MOVWF  FF8
08AF6:  MOVLB  0
08AF8:  CALL   398E
....................                   SendDataDisplay(); 
08AFC:  CALL   39C0
....................                   RX_Buffer[3]=0x00;RX_Buffer2[3]=0x00;   
08B00:  CLRF   33
08B02:  CLRF   3E
08B04:  MOVLB  2
....................                }  
....................             } 
....................          }else if(TipoClave==1){ 
08B06:  BRA    8D4C
08B08:  DECFSZ xE5,W
08B0A:  BRA    8B58
....................             if(RX_Buffer[4]==0x34&&RX_Buffer[5]==0x34&&RX_Buffer[6]==0x34&&RX_Buffer[7]==0x34){ // Si Ingresa clave de Servicio Tecnico 
08B0C:  MOVF   34,W
08B0E:  SUBLW  34
08B10:  BNZ   8B3E
08B12:  MOVF   35,W
08B14:  SUBLW  34
08B16:  BNZ   8B3E
08B18:  MOVF   36,W
08B1A:  SUBLW  34
08B1C:  BNZ   8B3E
08B1E:  MOVF   37,W
08B20:  SUBLW  34
08B22:  BNZ   8B3E
....................                printf("page Config"); 
08B24:  MOVLW  C2
08B26:  MOVWF  FF6
08B28:  MOVLW  09
08B2A:  MOVWF  FF7
08B2C:  MOVLW  00
08B2E:  MOVWF  FF8
08B30:  MOVLB  0
08B32:  CALL   398E
....................                SendDataDisplay(); 
08B36:  CALL   39C0
....................             }else{ 
08B3A:  BRA    8B54
08B3C:  MOVLB  2
....................                printf("page MenuPrincipal"); 
08B3E:  MOVLW  CE
08B40:  MOVWF  FF6
08B42:  MOVLW  09
08B44:  MOVWF  FF7
08B46:  MOVLW  00
08B48:  MOVWF  FF8
08B4A:  MOVLB  0
08B4C:  CALL   398E
....................                SendDataDisplay(); 
08B50:  CALL   39C0
....................             } 
....................          }else if(TipoClave==2){ 
08B54:  BRA    8D4A
08B56:  MOVLB  2
08B58:  MOVF   xE5,W
08B5A:  SUBLW  02
08B5C:  BNZ   8C06
....................             if(RX_Buffer[4]>=0x30 && RX_Buffer[5]>=0x30 && RX_Buffer[6]>=0x30 && RX_Buffer[7]>=0x30 
....................             && RX_Buffer[4]<=0x39 && RX_Buffer[5]<=0x39 && RX_Buffer[6]<=0x39 && RX_Buffer[7]<=0x39){ 
08B5E:  MOVF   34,W
08B60:  SUBLW  2F
08B62:  BC    8C04
08B64:  MOVF   35,W
08B66:  SUBLW  2F
08B68:  BC    8C04
08B6A:  MOVF   36,W
08B6C:  SUBLW  2F
08B6E:  BC    8C04
08B70:  MOVF   37,W
08B72:  SUBLW  2F
08B74:  BC    8C04
08B76:  MOVF   34,W
08B78:  SUBLW  39
08B7A:  BNC   8C04
08B7C:  MOVF   35,W
08B7E:  SUBLW  39
08B80:  BNC   8C04
08B82:  MOVF   36,W
08B84:  SUBLW  39
08B86:  BNC   8C04
08B88:  MOVF   37,W
08B8A:  SUBLW  39
08B8C:  BNC   8C04
....................             if((RX_Buffer[4]==Password[0]+0x30)&&(RX_Buffer[5]==Password[1]+0x30)&&(RX_Buffer[6]==Password[2]+0x30)&&(RX_Buffer[7]==Password[3]+0x30)){ 
08B8E:  MOVLW  30
08B90:  MOVLB  3
08B92:  ADDWF  x8E,W
08B94:  SUBWF  34,W
08B96:  BNZ   8BE8
08B98:  MOVLW  30
08B9A:  ADDWF  x8F,W
08B9C:  SUBWF  35,W
08B9E:  BNZ   8BE8
08BA0:  MOVLW  30
08BA2:  ADDWF  x90,W
08BA4:  SUBWF  36,W
08BA6:  BNZ   8BE8
08BA8:  MOVLW  30
08BAA:  ADDWF  x91,W
08BAC:  SUBWF  37,W
08BAE:  BNZ   8BE8
....................                printf("page Clave"); 
08BB0:  MOVLW  E2
08BB2:  MOVWF  FF6
08BB4:  MOVLW  09
08BB6:  MOVWF  FF7
08BB8:  MOVLW  00
08BBA:  MOVWF  FF8
08BBC:  MOVLB  0
08BBE:  CALL   398E
....................                SendDataDisplay(); 
08BC2:  CALL   39C0
....................                printf("titulo.txt=\"Clave Nueva\""); 
08BC6:  MOVLW  EE
08BC8:  MOVWF  FF6
08BCA:  MOVLW  09
08BCC:  MOVWF  FF7
08BCE:  MOVLW  00
08BD0:  MOVWF  FF8
08BD2:  CALL   398E
....................                SendDataDisplay(); 
08BD6:  CALL   39C0
....................                TipoClave=3; 
08BDA:  MOVLW  03
08BDC:  MOVLB  2
08BDE:  MOVWF  xE5
....................                RX_Buffer[3]=0x00; 
08BE0:  CLRF   33
....................                RX_Buffer2[3]=0x00; 
08BE2:  CLRF   3E
....................             }else{ 
08BE4:  BRA    8C04
08BE6:  MOVLB  3
....................                printf("page MenuPrincipal"); 
08BE8:  MOVLW  08
08BEA:  MOVWF  FF6
08BEC:  MOVLW  0A
08BEE:  MOVWF  FF7
08BF0:  MOVLW  00
08BF2:  MOVWF  FF8
08BF4:  MOVLB  0
08BF6:  CALL   398E
....................                SendDataDisplay(); 
08BFA:  CALL   39C0
....................                RX_Buffer[3]=0x00; 
08BFE:  CLRF   33
....................                RX_Buffer2[3]=0x00; 
08C00:  CLRF   3E
08C02:  MOVLB  2
....................             }  
....................             } 
....................          }else if(TipoClave==3){ 
08C04:  BRA    8D4C
08C06:  MOVF   xE5,W
08C08:  SUBLW  03
08C0A:  BTFSS  FD8.2
08C0C:  BRA    8D4C
....................             printf("titulo.txt=\"Clave Nueva\""); 
08C0E:  MOVLW  1C
08C10:  MOVWF  FF6
08C12:  MOVLW  0A
08C14:  MOVWF  FF7
08C16:  MOVLW  00
08C18:  MOVWF  FF8
08C1A:  MOVLB  0
08C1C:  CALL   398E
....................             SendDataDisplay(); 
08C20:  CALL   39C0
....................             printf("page MenuPrincipal"); 
08C24:  MOVLW  36
08C26:  MOVWF  FF6
08C28:  MOVLW  0A
08C2A:  MOVWF  FF7
08C2C:  MOVLW  00
08C2E:  MOVWF  FF8
08C30:  CALL   398E
....................             SendDataDisplay(); 
08C34:  CALL   39C0
....................             if(!GuardaEEPROM){ 
08C38:  BTFSC  xA2.6
08C3A:  BRA    8D46
....................                write_eeprom(10,RX_Buffer[4]-0x30);delay_ms(20);write_eeprom(11,RX_Buffer[5]-0x30);delay_ms(20); 
08C3C:  MOVLW  30
08C3E:  SUBWF  34,W
08C40:  MOVLB  4
08C42:  MOVWF  x46
08C44:  CLRF   FAA
08C46:  MOVLW  0A
08C48:  MOVWF  FA9
08C4A:  MOVFF  446,FA8
08C4E:  BCF    FA6.6
08C50:  BCF    FA6.7
08C52:  BSF    FA6.2
08C54:  MOVF   FF2,W
08C56:  MOVWF  00
08C58:  BCF    FF2.6
08C5A:  BCF    FF2.7
08C5C:  MOVLB  F
08C5E:  MOVLW  55
08C60:  MOVWF  FA7
08C62:  MOVLW  AA
08C64:  MOVWF  FA7
08C66:  BSF    FA6.1
08C68:  BTFSC  FA6.1
08C6A:  BRA    8C68
08C6C:  BCF    FA6.2
08C6E:  MOVF   00,W
08C70:  IORWF  FF2,F
08C72:  MOVLW  14
08C74:  MOVLB  4
08C76:  MOVWF  x5B
08C78:  MOVLB  0
08C7A:  CALL   1AC8
08C7E:  MOVLW  30
08C80:  SUBWF  35,W
08C82:  MOVLB  4
08C84:  MOVWF  x46
08C86:  CLRF   FAA
08C88:  MOVLW  0B
08C8A:  MOVWF  FA9
08C8C:  MOVFF  446,FA8
08C90:  BCF    FA6.6
08C92:  BCF    FA6.7
08C94:  BSF    FA6.2
08C96:  MOVF   FF2,W
08C98:  MOVWF  00
08C9A:  BCF    FF2.6
08C9C:  BCF    FF2.7
08C9E:  MOVLB  F
08CA0:  MOVLW  55
08CA2:  MOVWF  FA7
08CA4:  MOVLW  AA
08CA6:  MOVWF  FA7
08CA8:  BSF    FA6.1
08CAA:  BTFSC  FA6.1
08CAC:  BRA    8CAA
08CAE:  BCF    FA6.2
08CB0:  MOVF   00,W
08CB2:  IORWF  FF2,F
08CB4:  MOVLW  14
08CB6:  MOVLB  4
08CB8:  MOVWF  x5B
08CBA:  MOVLB  0
08CBC:  CALL   1AC8
....................                write_eeprom(12,RX_Buffer[6]-0x30);delay_ms(20);write_eeprom(13,RX_Buffer[7]-0x30);delay_ms(20); 
08CC0:  MOVLW  30
08CC2:  SUBWF  36,W
08CC4:  MOVLB  4
08CC6:  MOVWF  x46
08CC8:  CLRF   FAA
08CCA:  MOVLW  0C
08CCC:  MOVWF  FA9
08CCE:  MOVFF  446,FA8
08CD2:  BCF    FA6.6
08CD4:  BCF    FA6.7
08CD6:  BSF    FA6.2
08CD8:  MOVF   FF2,W
08CDA:  MOVWF  00
08CDC:  BCF    FF2.6
08CDE:  BCF    FF2.7
08CE0:  MOVLB  F
08CE2:  MOVLW  55
08CE4:  MOVWF  FA7
08CE6:  MOVLW  AA
08CE8:  MOVWF  FA7
08CEA:  BSF    FA6.1
08CEC:  BTFSC  FA6.1
08CEE:  BRA    8CEC
08CF0:  BCF    FA6.2
08CF2:  MOVF   00,W
08CF4:  IORWF  FF2,F
08CF6:  MOVLW  14
08CF8:  MOVLB  4
08CFA:  MOVWF  x5B
08CFC:  MOVLB  0
08CFE:  CALL   1AC8
08D02:  MOVLW  30
08D04:  SUBWF  37,W
08D06:  MOVLB  4
08D08:  MOVWF  x46
08D0A:  CLRF   FAA
08D0C:  MOVLW  0D
08D0E:  MOVWF  FA9
08D10:  MOVFF  446,FA8
08D14:  BCF    FA6.6
08D16:  BCF    FA6.7
08D18:  BSF    FA6.2
08D1A:  MOVF   FF2,W
08D1C:  MOVWF  00
08D1E:  BCF    FF2.6
08D20:  BCF    FF2.7
08D22:  MOVLB  F
08D24:  MOVLW  55
08D26:  MOVWF  FA7
08D28:  MOVLW  AA
08D2A:  MOVWF  FA7
08D2C:  BSF    FA6.1
08D2E:  BTFSC  FA6.1
08D30:  BRA    8D2E
08D32:  BCF    FA6.2
08D34:  MOVF   00,W
08D36:  IORWF  FF2,F
08D38:  MOVLW  14
08D3A:  MOVLB  4
08D3C:  MOVWF  x5B
08D3E:  MOVLB  0
08D40:  CALL   1AC8
....................                GuardaEEPROM=ON; 
08D44:  BSF    xA2.6
....................             } 
....................             RX_Buffer[3]=0x00; 
08D46:  CLRF   33
....................             RX_Buffer2[3]=0x00; 
08D48:  CLRF   3E
08D4A:  MOVLB  2
08D4C:  MOVLB  3
....................          } 
....................       } 
....................     } 
.................... //_--------------------------------------------------------------------------------------------------------------------------------------------------------        
....................  
.................... //_-------------------------------------------------------------------------------------------------------------------------------------------------------- 
....................    if(Menu==1){ //Menu Principal. 
08D4E:  DECFSZ x64,W
08D50:  GOTO   9636
....................       //printf("fecha.txt=\"T:%3.1fC Fecha:%02u/%02u/20%02u Hora: %02u:%02u:%02u\"",Temperatura,Dia,Mes,Year,Hora,Minuto,Segundo); 
....................       //SendDataDisplay(); 
....................       revisePresion(); 
08D54:  MOVLB  0
08D56:  CALL   4F8C
....................       PruebaEstados=OFF; 
08D5A:  BCF    xA1.3
....................       GuardaEEPROM=OFF; 
08D5C:  BCF    xA2.6
....................       if(RX_Buffer[3]==0x0f || UP){//0f, recibe caracteres ingresados desde el Display 
08D5E:  MOVF   33,W
08D60:  SUBLW  0F
08D62:  BZ    8D6A
08D64:  BSF    F93.0
08D66:  BTFSC  F81.0
08D68:  BRA    8FEE
....................          delay_ms(5); 
08D6A:  MOVLW  05
08D6C:  MOVLB  4
08D6E:  MOVWF  x5B
08D70:  MOVLB  0
08D72:  CALL   1AC8
....................          if(RX_Buffer[3]==0x0f || UP){ 
08D76:  MOVF   33,W
08D78:  SUBLW  0F
08D7A:  BZ    8D82
08D7C:  BSF    F93.0
08D7E:  BTFSC  F81.0
08D80:  BRA    8FE8
....................          if(PantallaPrincipal==0){//Si esta en menu principal 
08D82:  MOVLB  2
08D84:  MOVF   xE4,F
08D86:  BTFSS  FD8.2
08D88:  BRA    8FEC
....................             if(RX_Buffer[4]==0x37){//Ajustes y pasa a solicitud de password de tecnico 
08D8A:  MOVF   34,W
08D8C:  SUBLW  37
08D8E:  BNZ   8DBC
....................                printf("page Clave"); 
08D90:  MOVLW  4A
08D92:  MOVWF  FF6
08D94:  MOVLW  0A
08D96:  MOVWF  FF7
08D98:  MOVLW  00
08D9A:  MOVWF  FF8
08D9C:  MOVLB  0
08D9E:  CALL   398E
....................                SendDataDisplay();  
08DA2:  CALL   39C0
....................                Op=OFF; 
08DA6:  BCF    xA2.2
....................                Op2=OFF; 
08DA8:  BCF    xA2.3
....................                MenuAnt=Menu; 
08DAA:  MOVFF  364,365
....................                TipoClave=1; 
08DAE:  MOVLW  01
08DB0:  MOVLB  2
08DB2:  MOVWF  xE5
....................                RX_Buffer[3]=0x00; 
08DB4:  CLRF   33
....................                RX_Buffer2[3]=0x00; 
08DB6:  CLRF   3E
....................                Opcion=0; 
08DB8:  MOVLB  3
08DBA:  CLRF   x6C
....................             }if(Opcion==9){// Datos Ciclo 
08DBC:  MOVLB  3
08DBE:  MOVF   x6C,W
08DC0:  SUBLW  09
08DC2:  BNZ   8DEE
....................                printf("page Ciclos"); 
08DC4:  MOVLW  56
08DC6:  MOVWF  FF6
08DC8:  MOVLW  0A
08DCA:  MOVWF  FF7
08DCC:  MOVLW  00
08DCE:  MOVWF  FF8
08DD0:  MOVLB  0
08DD2:  CALL   398E
....................                SendDataDisplay();  
08DD6:  CALL   39C0
....................                Op=OFF; 
08DDA:  BCF    xA2.2
....................                Op2=OFF; 
08DDC:  BCF    xA2.3
....................                MenuAnt=Menu; 
08DDE:  MOVFF  364,365
....................                RX_Buffer[3]=0x00; 
08DE2:  CLRF   33
....................                RX_Buffer2[3]=0x00; 
08DE4:  CLRF   3E
....................                Opcion=1; 
08DE6:  MOVLW  01
08DE8:  MOVLB  3
08DEA:  MOVWF  x6C
....................             }else if(Opcion==8){// Cambio de Clave 
08DEC:  BRA    8FEA
08DEE:  MOVF   x6C,W
08DF0:  SUBLW  08
08DF2:  BNZ   8E22
....................                printf("page Clave"); 
08DF4:  MOVLW  62
08DF6:  MOVWF  FF6
08DF8:  MOVLW  0A
08DFA:  MOVWF  FF7
08DFC:  MOVLW  00
08DFE:  MOVWF  FF8
08E00:  MOVLB  0
08E02:  CALL   398E
....................                SendDataDisplay();  
08E06:  CALL   39C0
....................                Op=OFF; 
08E0A:  BCF    xA2.2
....................                Op2=OFF; 
08E0C:  BCF    xA2.3
....................                MenuAnt=Menu; 
08E0E:  MOVFF  364,365
....................                TipoClave=2; 
08E12:  MOVLW  02
08E14:  MOVLB  2
08E16:  MOVWF  xE5
....................                RX_Buffer[3]=0x00; 
08E18:  CLRF   33
....................                RX_Buffer2[3]=0x00; 
08E1A:  CLRF   3E
....................                Opcion=0; 
08E1C:  MOVLB  3
08E1E:  CLRF   x6C
....................             }else if(Opcion==7){//Hora y Fecha 
08E20:  BRA    8FEA
08E22:  MOVF   x6C,W
08E24:  SUBLW  07
08E26:  BNZ   8E64
....................                printf("page Fecha"); 
08E28:  MOVLW  6E
08E2A:  MOVWF  FF6
08E2C:  MOVLW  0A
08E2E:  MOVWF  FF7
08E30:  MOVLW  00
08E32:  MOVWF  FF8
08E34:  MOVLB  0
08E36:  CALL   398E
....................                SendDataDisplay();      
08E3A:  CALL   39C0
....................                PantallaPrincipal=0; 
08E3E:  MOVLB  2
08E40:  CLRF   xE4
....................                MenuAnt=Menu; 
08E42:  MOVFF  364,365
....................                Op=OFF; 
08E46:  MOVLB  0
08E48:  BCF    xA2.2
....................                Op2=OFF; 
08E4A:  BCF    xA2.3
....................                DiaTx=Dia; 
08E4C:  MOVFF  3A7,3AE
....................                MesTx=Mes; 
08E50:  MOVFF  3A6,3AD
....................                YearTx=Year; 
08E54:  MOVFF  3A5,3AC
....................                HoraTx=Hora; 
08E58:  MOVFF  3A8,3AF
....................                MinutoTx=Minuto; 
08E5C:  MOVFF  3A9,3B0
....................             }else if(Opcion==6){//Test 
08E60:  BRA    8FE8
08E62:  MOVLB  3
08E64:  MOVF   x6C,W
08E66:  SUBLW  06
08E68:  BNZ   8E92
....................                printf("page Test"); 
08E6A:  MOVLW  7A
08E6C:  MOVWF  FF6
08E6E:  MOVLW  0A
08E70:  MOVWF  FF7
08E72:  MOVLW  00
08E74:  MOVWF  FF8
08E76:  MOVLB  0
08E78:  CALL   398E
....................                SendDataDisplay();      
08E7C:  CALL   39C0
....................                PantallaPrincipal=0; 
08E80:  MOVLB  2
08E82:  CLRF   xE4
....................                MenuAnt=Menu; 
08E84:  MOVFF  364,365
....................                Op=OFF; 
08E88:  MOVLB  0
08E8A:  BCF    xA2.2
....................                Op2=OFF; 
08E8C:  BCF    xA2.3
....................             }else if(Opcion==5){//Ciclo Personalizado 
08E8E:  BRA    8FE8
08E90:  MOVLB  3
08E92:  MOVF   x6C,W
08E94:  SUBLW  05
08E96:  BNZ   8EBA
....................                printf("page CicloPersona"); 
08E98:  MOVLW  84
08E9A:  MOVWF  FF6
08E9C:  MOVLW  0A
08E9E:  MOVWF  FF7
08EA0:  MOVLW  00
08EA2:  MOVWF  FF8
08EA4:  MOVLB  0
08EA6:  CALL   398E
....................                SendDataDisplay();  
08EAA:  CALL   39C0
....................                MenuAnt=Menu; 
08EAE:  MOVFF  364,365
....................                Op=OFF; 
08EB2:  BCF    xA2.2
....................                Op2=OFF; 
08EB4:  BCF    xA2.3
....................             }else if(Opcion==4){//LiquidosB 
08EB6:  BRA    8FE8
08EB8:  MOVLB  3
08EBA:  MOVF   x6C,W
08EBC:  SUBLW  04
08EBE:  BNZ   8F08
....................                printf("page Nivel"); 
08EC0:  MOVLW  96
08EC2:  MOVWF  FF6
08EC4:  MOVLW  0A
08EC6:  MOVWF  FF7
08EC8:  MOVLW  00
08ECA:  MOVWF  FF8
08ECC:  MOVLB  0
08ECE:  CALL   398E
....................                SendDataDisplay();        
08ED2:  CALL   39C0
....................                ConfiguraCiclo(0,0,0,3,0,0,0,0,1,4,121); 
08ED6:  MOVLB  4
08ED8:  CLRF   x50
08EDA:  CLRF   x51
08EDC:  CLRF   x52
08EDE:  MOVLW  03
08EE0:  MOVWF  x53
08EE2:  CLRF   x54
08EE4:  CLRF   x55
08EE6:  CLRF   x56
08EE8:  CLRF   x57
08EEA:  MOVLW  01
08EEC:  MOVWF  x58
08EEE:  MOVLW  04
08EF0:  MOVWF  x59
08EF2:  MOVLW  79
08EF4:  MOVWF  x5A
08EF6:  MOVLB  0
08EF8:  CALL   539E
....................                Op=OFF; 
08EFC:  BCF    xA2.2
....................                Op2=OFF; 
08EFE:  BCF    xA2.3
....................                MenuAnt=2; 
08F00:  MOVLW  02
08F02:  MOVLB  3
08F04:  MOVWF  x65
....................             }else if(Opcion==1){//LiquidosA 
08F06:  BRA    8FEA
08F08:  DECFSZ x6C,W
08F0A:  BRA    8F52
....................                printf("page Nivel"); 
08F0C:  MOVLW  A2
08F0E:  MOVWF  FF6
08F10:  MOVLW  0A
08F12:  MOVWF  FF7
08F14:  MOVLW  00
08F16:  MOVWF  FF8
08F18:  MOVLB  0
08F1A:  CALL   398E
....................                SendDataDisplay();        
08F1E:  CALL   39C0
....................                ConfiguraCiclo(0,0,5,1,0,0,0,0,1,1,121); 
08F22:  MOVLB  4
08F24:  CLRF   x50
08F26:  CLRF   x51
08F28:  MOVLW  05
08F2A:  MOVWF  x52
08F2C:  MOVLW  01
08F2E:  MOVWF  x53
08F30:  CLRF   x54
08F32:  CLRF   x55
08F34:  CLRF   x56
08F36:  CLRF   x57
08F38:  MOVWF  x58
08F3A:  MOVWF  x59
08F3C:  MOVLW  79
08F3E:  MOVWF  x5A
08F40:  MOVLB  0
08F42:  CALL   539E
....................                Op=OFF; 
08F46:  BCF    xA2.2
....................                Op2=OFF; 
08F48:  BCF    xA2.3
....................                MenuAnt=2; 
08F4A:  MOVLW  02
08F4C:  MOVLB  3
08F4E:  MOVWF  x65
....................             }else if(Opcion==3){//Instrumental 
08F50:  BRA    8FEA
08F52:  MOVF   x6C,W
08F54:  SUBLW  03
08F56:  BNZ   8F9C
....................                printf("page Funcionamiento"); 
08F58:  MOVLW  AE
08F5A:  MOVWF  FF6
08F5C:  MOVLW  0A
08F5E:  MOVWF  FF7
08F60:  MOVLW  00
08F62:  MOVWF  FF8
08F64:  MOVLB  0
08F66:  CALL   398E
....................                SendDataDisplay();        
08F6A:  CALL   39C0
....................                ConfiguraCiclo(0,0,0,3,0,0,0,3,0,3,121); 
08F6E:  MOVLB  4
08F70:  CLRF   x50
08F72:  CLRF   x51
08F74:  CLRF   x52
08F76:  MOVLW  03
08F78:  MOVWF  x53
08F7A:  CLRF   x54
08F7C:  CLRF   x55
08F7E:  CLRF   x56
08F80:  MOVWF  x57
08F82:  CLRF   x58
08F84:  MOVWF  x59
08F86:  MOVLW  79
08F88:  MOVWF  x5A
08F8A:  MOVLB  0
08F8C:  CALL   539E
....................                Op=OFF; 
08F90:  BCF    xA2.2
....................                Op2=OFF; 
08F92:  BCF    xA2.3
....................                MenuAnt=Menu; 
08F94:  MOVFF  364,365
....................                //if(Temperatura>60)TTrampa=TTrampa+5; 
....................             }else if(Opcion==2){//Caucho 
08F98:  BRA    8FE8
08F9A:  MOVLB  3
08F9C:  MOVF   x6C,W
08F9E:  SUBLW  02
08FA0:  BNZ   8FEA
....................                printf("page Funcionamiento"); 
08FA2:  MOVLW  C2
08FA4:  MOVWF  FF6
08FA6:  MOVLW  0A
08FA8:  MOVWF  FF7
08FAA:  MOVLW  00
08FAC:  MOVWF  FF8
08FAE:  MOVLB  0
08FB0:  CALL   398E
....................                SendDataDisplay();        
08FB4:  CALL   39C0
....................                ConfiguraCiclo(0,0,5,1,0,0,3,0,0,2,121); 
08FB8:  MOVLB  4
08FBA:  CLRF   x50
08FBC:  CLRF   x51
08FBE:  MOVLW  05
08FC0:  MOVWF  x52
08FC2:  MOVLW  01
08FC4:  MOVWF  x53
08FC6:  CLRF   x54
08FC8:  CLRF   x55
08FCA:  MOVLW  03
08FCC:  MOVWF  x56
08FCE:  CLRF   x57
08FD0:  CLRF   x58
08FD2:  MOVLW  02
08FD4:  MOVWF  x59
08FD6:  MOVLW  79
08FD8:  MOVWF  x5A
08FDA:  MOVLB  0
08FDC:  CALL   539E
....................                Op=OFF; 
08FE0:  BCF    xA2.2
....................                Op2=OFF; 
08FE2:  BCF    xA2.3
....................                MenuAnt=Menu; 
08FE4:  MOVFF  364,365
08FE8:  MOVLB  3
08FEA:  MOVLB  2
....................                //if(Temperatura>60)TTrampa=TTrampa+5; 
....................             } 
....................          } 
....................          } 
....................       }else if(PantallaPrincipal==0){ 
08FEC:  BRA    95E8
08FEE:  MOVLB  2
08FF0:  MOVF   xE4,F
08FF2:  BTFSS  FD8.2
08FF4:  BRA    95E8
....................          if(Opcion>sizeof(iconoGrande)) 
08FF6:  MOVLB  3
08FF8:  MOVF   x6C,W
08FFA:  SUBLW  09
08FFC:  BC    9002
....................             Opcion=1; 
08FFE:  MOVLW  01
09000:  MOVWF  x6C
....................              
....................          if(Opcion<1) 
09002:  MOVF   x6C,F
09004:  BNZ   900A
....................             Opcion=sizeof(iconoGrande); 
09006:  MOVLW  09
09008:  MOVWF  x6C
....................           
....................          if(Opcion==1){ 
0900A:  DECFSZ x6C,W
0900C:  BRA    91BA
....................             printf("bc.pic=%u",iconoGrande[Opcion-1]); 
0900E:  MOVLW  01
09010:  SUBWF  x6C,W
09012:  CLRF   03
09014:  ADDLW  BA
09016:  MOVWF  FE9
09018:  MOVLW  03
0901A:  ADDWFC 03,W
0901C:  MOVWF  FEA
0901E:  MOVFF  FEF,446
09022:  MOVLW  D6
09024:  MOVWF  FF6
09026:  MOVLW  0A
09028:  MOVWF  FF7
0902A:  MOVLW  00
0902C:  MOVWF  FF8
0902E:  MOVLW  07
09030:  MOVLB  4
09032:  MOVWF  x4B
09034:  MOVLB  0
09036:  CALL   4ABC
0903A:  MOVFF  446,44B
0903E:  MOVLW  1B
09040:  MOVLB  4
09042:  MOVWF  x4C
09044:  MOVLB  0
09046:  CALL   4B1A
....................             SendDataDisplay(); 
0904A:  CALL   39C0
....................             printf("bd.pic=%u",iconoPeque[Opcion]); 
0904E:  CLRF   03
09050:  MOVLB  3
09052:  MOVF   x6C,W
09054:  ADDLW  C3
09056:  MOVWF  FE9
09058:  MOVLW  03
0905A:  ADDWFC 03,W
0905C:  MOVWF  FEA
0905E:  MOVFF  FEF,446
09062:  MOVLW  E0
09064:  MOVWF  FF6
09066:  MOVLW  0A
09068:  MOVWF  FF7
0906A:  MOVLW  00
0906C:  MOVWF  FF8
0906E:  MOVLW  07
09070:  MOVLB  4
09072:  MOVWF  x4B
09074:  MOVLB  0
09076:  CALL   4ABC
0907A:  MOVFF  446,44B
0907E:  MOVLW  1B
09080:  MOVLB  4
09082:  MOVWF  x4C
09084:  MOVLB  0
09086:  CALL   4B1A
....................             SendDataDisplay(); 
0908A:  CALL   39C0
....................             printf("bi.pic=%u",iconoPeque[sizeof(iconoGrande)-1]); 
0908E:  MOVLW  EA
09090:  MOVWF  FF6
09092:  MOVLW  0A
09094:  MOVWF  FF7
09096:  MOVLW  00
09098:  MOVWF  FF8
0909A:  MOVLW  07
0909C:  MOVLB  4
0909E:  MOVWF  x4B
090A0:  MOVLB  0
090A2:  CALL   4ABC
090A6:  MOVFF  3CB,44B
090AA:  MOVLW  1B
090AC:  MOVLB  4
090AE:  MOVWF  x4C
090B0:  MOVLB  0
090B2:  CALL   4B1A
....................             SendDataDisplay(); 
090B6:  CALL   39C0
....................             printf("bc.pic2=%u",iconoGrande[Opcion-1]); 
090BA:  MOVLW  01
090BC:  MOVLB  3
090BE:  SUBWF  x6C,W
090C0:  CLRF   03
090C2:  ADDLW  BA
090C4:  MOVWF  FE9
090C6:  MOVLW  03
090C8:  ADDWFC 03,W
090CA:  MOVWF  FEA
090CC:  MOVFF  FEF,446
090D0:  MOVLW  F4
090D2:  MOVWF  FF6
090D4:  MOVLW  0A
090D6:  MOVWF  FF7
090D8:  MOVLW  00
090DA:  MOVWF  FF8
090DC:  MOVLW  08
090DE:  MOVLB  4
090E0:  MOVWF  x4B
090E2:  MOVLB  0
090E4:  CALL   4ABC
090E8:  MOVFF  446,44B
090EC:  MOVLW  1B
090EE:  MOVLB  4
090F0:  MOVWF  x4C
090F2:  MOVLB  0
090F4:  CALL   4B1A
....................             SendDataDisplay(); 
090F8:  CALL   39C0
....................             printf("bd.pic2=%u",iconoPeque[Opcion]); 
090FC:  CLRF   03
090FE:  MOVLB  3
09100:  MOVF   x6C,W
09102:  ADDLW  C3
09104:  MOVWF  FE9
09106:  MOVLW  03
09108:  ADDWFC 03,W
0910A:  MOVWF  FEA
0910C:  MOVFF  FEF,446
09110:  MOVLW  00
09112:  MOVWF  FF6
09114:  MOVLW  0B
09116:  MOVWF  FF7
09118:  MOVLW  00
0911A:  MOVWF  FF8
0911C:  MOVLW  08
0911E:  MOVLB  4
09120:  MOVWF  x4B
09122:  MOVLB  0
09124:  CALL   4ABC
09128:  MOVFF  446,44B
0912C:  MOVLW  1B
0912E:  MOVLB  4
09130:  MOVWF  x4C
09132:  MOVLB  0
09134:  CALL   4B1A
....................             SendDataDisplay(); 
09138:  CALL   39C0
....................             printf("bi.pic2=%u",iconoPeque[sizeof(iconoGrande)-1]); 
0913C:  MOVLW  0C
0913E:  MOVWF  FF6
09140:  MOVLW  0B
09142:  MOVWF  FF7
09144:  MOVLW  00
09146:  MOVWF  FF8
09148:  MOVLW  08
0914A:  MOVLB  4
0914C:  MOVWF  x4B
0914E:  MOVLB  0
09150:  CALL   4ABC
09154:  MOVFF  3CB,44B
09158:  MOVLW  1B
0915A:  MOVLB  4
0915C:  MOVWF  x4C
0915E:  MOVLB  0
09160:  CALL   4B1A
....................             SendDataDisplay(); 
09164:  CALL   39C0
....................             printf("textop.txt=\"%s\"",texto[Opcion-1]); 
09168:  MOVLW  01
0916A:  MOVLB  3
0916C:  SUBWF  x6C,W
0916E:  MULLW  14
09170:  MOVF   FF3,W
09172:  CLRF   03
09174:  MOVLB  4
09176:  MOVWF  x46
09178:  MOVLW  18
0917A:  MOVWF  FF6
0917C:  MOVLW  0B
0917E:  MOVWF  FF7
09180:  MOVLW  00
09182:  MOVWF  FF8
09184:  MOVLW  0C
09186:  MOVWF  x4B
09188:  MOVLB  0
0918A:  CALL   4ABC
0918E:  MOVLW  50
09190:  MOVWF  FF6
09192:  MOVLW  01
09194:  MOVWF  FF7
09196:  MOVLW  00
09198:  MOVWF  FF8
0919A:  MOVLB  4
0919C:  MOVF   x46,W
0919E:  ADDWF  FF6,F
091A0:  MOVLW  00
091A2:  ADDWFC FF7,F
091A4:  MOVLB  0
091A6:  CALL   398E
091AA:  MOVLW  22
091AC:  BTFSS  F9E.4
091AE:  BRA    91AC
091B0:  MOVWF  FAD
....................             SendDataDisplay(); 
091B2:  CALL   39C0
....................          }else if(Opcion==sizeof(iconoGrande)){ 
091B6:  BRA    9546
091B8:  MOVLB  3
091BA:  MOVF   x6C,W
091BC:  SUBLW  09
091BE:  BTFSS  FD8.2
091C0:  BRA    9372
....................             printf("bc.pic=%u",iconoGrande[Opcion-1]); 
091C2:  MOVLW  01
091C4:  SUBWF  x6C,W
091C6:  CLRF   03
091C8:  ADDLW  BA
091CA:  MOVWF  FE9
091CC:  MOVLW  03
091CE:  ADDWFC 03,W
091D0:  MOVWF  FEA
091D2:  MOVFF  FEF,446
091D6:  MOVLW  28
091D8:  MOVWF  FF6
091DA:  MOVLW  0B
091DC:  MOVWF  FF7
091DE:  MOVLW  00
091E0:  MOVWF  FF8
091E2:  MOVLW  07
091E4:  MOVLB  4
091E6:  MOVWF  x4B
091E8:  MOVLB  0
091EA:  CALL   4ABC
091EE:  MOVFF  446,44B
091F2:  MOVLW  1B
091F4:  MOVLB  4
091F6:  MOVWF  x4C
091F8:  MOVLB  0
091FA:  CALL   4B1A
....................             SendDataDisplay(); 
091FE:  CALL   39C0
....................             printf("bd.pic=%u",iconoPeque[0]); 
09202:  MOVLW  32
09204:  MOVWF  FF6
09206:  MOVLW  0B
09208:  MOVWF  FF7
0920A:  MOVLW  00
0920C:  MOVWF  FF8
0920E:  MOVLW  07
09210:  MOVLB  4
09212:  MOVWF  x4B
09214:  MOVLB  0
09216:  CALL   4ABC
0921A:  MOVFF  3C3,44B
0921E:  MOVLW  1B
09220:  MOVLB  4
09222:  MOVWF  x4C
09224:  MOVLB  0
09226:  CALL   4B1A
....................             SendDataDisplay(); 
0922A:  CALL   39C0
....................             printf("bi.pic=%u",iconoPeque[Opcion-2]); 
0922E:  MOVLW  02
09230:  MOVLB  3
09232:  SUBWF  x6C,W
09234:  CLRF   03
09236:  ADDLW  C3
09238:  MOVWF  FE9
0923A:  MOVLW  03
0923C:  ADDWFC 03,W
0923E:  MOVWF  FEA
09240:  MOVFF  FEF,446
09244:  MOVLW  3C
09246:  MOVWF  FF6
09248:  MOVLW  0B
0924A:  MOVWF  FF7
0924C:  MOVLW  00
0924E:  MOVWF  FF8
09250:  MOVLW  07
09252:  MOVLB  4
09254:  MOVWF  x4B
09256:  MOVLB  0
09258:  CALL   4ABC
0925C:  MOVFF  446,44B
09260:  MOVLW  1B
09262:  MOVLB  4
09264:  MOVWF  x4C
09266:  MOVLB  0
09268:  CALL   4B1A
....................             SendDataDisplay(); 
0926C:  CALL   39C0
....................             printf("bc.pic2=%u",iconoGrande[Opcion-1]); 
09270:  MOVLW  01
09272:  MOVLB  3
09274:  SUBWF  x6C,W
09276:  CLRF   03
09278:  ADDLW  BA
0927A:  MOVWF  FE9
0927C:  MOVLW  03
0927E:  ADDWFC 03,W
09280:  MOVWF  FEA
09282:  MOVFF  FEF,446
09286:  MOVLW  46
09288:  MOVWF  FF6
0928A:  MOVLW  0B
0928C:  MOVWF  FF7
0928E:  MOVLW  00
09290:  MOVWF  FF8
09292:  MOVLW  08
09294:  MOVLB  4
09296:  MOVWF  x4B
09298:  MOVLB  0
0929A:  CALL   4ABC
0929E:  MOVFF  446,44B
092A2:  MOVLW  1B
092A4:  MOVLB  4
092A6:  MOVWF  x4C
092A8:  MOVLB  0
092AA:  CALL   4B1A
....................             SendDataDisplay(); 
092AE:  CALL   39C0
....................             printf("bd.pic2=%u",iconoPeque[0]); 
092B2:  MOVLW  52
092B4:  MOVWF  FF6
092B6:  MOVLW  0B
092B8:  MOVWF  FF7
092BA:  MOVLW  00
092BC:  MOVWF  FF8
092BE:  MOVLW  08
092C0:  MOVLB  4
092C2:  MOVWF  x4B
092C4:  MOVLB  0
092C6:  CALL   4ABC
092CA:  MOVFF  3C3,44B
092CE:  MOVLW  1B
092D0:  MOVLB  4
092D2:  MOVWF  x4C
092D4:  MOVLB  0
092D6:  CALL   4B1A
....................             SendDataDisplay(); 
092DA:  CALL   39C0
....................             printf("bi.pic2=%u",iconoPeque[Opcion-2]); 
092DE:  MOVLW  02
092E0:  MOVLB  3
092E2:  SUBWF  x6C,W
092E4:  CLRF   03
092E6:  ADDLW  C3
092E8:  MOVWF  FE9
092EA:  MOVLW  03
092EC:  ADDWFC 03,W
092EE:  MOVWF  FEA
092F0:  MOVFF  FEF,446
092F4:  MOVLW  5E
092F6:  MOVWF  FF6
092F8:  MOVLW  0B
092FA:  MOVWF  FF7
092FC:  MOVLW  00
092FE:  MOVWF  FF8
09300:  MOVLW  08
09302:  MOVLB  4
09304:  MOVWF  x4B
09306:  MOVLB  0
09308:  CALL   4ABC
0930C:  MOVFF  446,44B
09310:  MOVLW  1B
09312:  MOVLB  4
09314:  MOVWF  x4C
09316:  MOVLB  0
09318:  CALL   4B1A
....................             SendDataDisplay(); 
0931C:  CALL   39C0
....................             printf("textop.txt=\"%s\"",texto[Opcion-1]); 
09320:  MOVLW  01
09322:  MOVLB  3
09324:  SUBWF  x6C,W
09326:  MULLW  14
09328:  MOVF   FF3,W
0932A:  CLRF   03
0932C:  MOVLB  4
0932E:  MOVWF  x46
09330:  MOVLW  6A
09332:  MOVWF  FF6
09334:  MOVLW  0B
09336:  MOVWF  FF7
09338:  MOVLW  00
0933A:  MOVWF  FF8
0933C:  MOVLW  0C
0933E:  MOVWF  x4B
09340:  MOVLB  0
09342:  CALL   4ABC
09346:  MOVLW  50
09348:  MOVWF  FF6
0934A:  MOVLW  01
0934C:  MOVWF  FF7
0934E:  MOVLW  00
09350:  MOVWF  FF8
09352:  MOVLB  4
09354:  MOVF   x46,W
09356:  ADDWF  FF6,F
09358:  MOVLW  00
0935A:  ADDWFC FF7,F
0935C:  MOVLB  0
0935E:  CALL   398E
09362:  MOVLW  22
09364:  BTFSS  F9E.4
09366:  BRA    9364
09368:  MOVWF  FAD
....................             SendDataDisplay(); 
0936A:  CALL   39C0
....................          }else{ 
0936E:  BRA    9546
09370:  MOVLB  3
....................             printf("bc.pic=%u",iconoGrande[Opcion-1]); 
09372:  MOVLW  01
09374:  SUBWF  x6C,W
09376:  CLRF   03
09378:  ADDLW  BA
0937A:  MOVWF  FE9
0937C:  MOVLW  03
0937E:  ADDWFC 03,W
09380:  MOVWF  FEA
09382:  MOVFF  FEF,446
09386:  MOVLW  7A
09388:  MOVWF  FF6
0938A:  MOVLW  0B
0938C:  MOVWF  FF7
0938E:  MOVLW  00
09390:  MOVWF  FF8
09392:  MOVLW  07
09394:  MOVLB  4
09396:  MOVWF  x4B
09398:  MOVLB  0
0939A:  CALL   4ABC
0939E:  MOVFF  446,44B
093A2:  MOVLW  1B
093A4:  MOVLB  4
093A6:  MOVWF  x4C
093A8:  MOVLB  0
093AA:  CALL   4B1A
....................             SendDataDisplay(); 
093AE:  CALL   39C0
....................             printf("bd.pic=%u",iconoPeque[Opcion]); 
093B2:  CLRF   03
093B4:  MOVLB  3
093B6:  MOVF   x6C,W
093B8:  ADDLW  C3
093BA:  MOVWF  FE9
093BC:  MOVLW  03
093BE:  ADDWFC 03,W
093C0:  MOVWF  FEA
093C2:  MOVFF  FEF,446
093C6:  MOVLW  84
093C8:  MOVWF  FF6
093CA:  MOVLW  0B
093CC:  MOVWF  FF7
093CE:  MOVLW  00
093D0:  MOVWF  FF8
093D2:  MOVLW  07
093D4:  MOVLB  4
093D6:  MOVWF  x4B
093D8:  MOVLB  0
093DA:  CALL   4ABC
093DE:  MOVFF  446,44B
093E2:  MOVLW  1B
093E4:  MOVLB  4
093E6:  MOVWF  x4C
093E8:  MOVLB  0
093EA:  CALL   4B1A
....................             SendDataDisplay(); 
093EE:  CALL   39C0
....................             printf("bi.pic=%u",iconoPeque[Opcion-2]); 
093F2:  MOVLW  02
093F4:  MOVLB  3
093F6:  SUBWF  x6C,W
093F8:  CLRF   03
093FA:  ADDLW  C3
093FC:  MOVWF  FE9
093FE:  MOVLW  03
09400:  ADDWFC 03,W
09402:  MOVWF  FEA
09404:  MOVFF  FEF,446
09408:  MOVLW  8E
0940A:  MOVWF  FF6
0940C:  MOVLW  0B
0940E:  MOVWF  FF7
09410:  MOVLW  00
09412:  MOVWF  FF8
09414:  MOVLW  07
09416:  MOVLB  4
09418:  MOVWF  x4B
0941A:  MOVLB  0
0941C:  CALL   4ABC
09420:  MOVFF  446,44B
09424:  MOVLW  1B
09426:  MOVLB  4
09428:  MOVWF  x4C
0942A:  MOVLB  0
0942C:  CALL   4B1A
....................             SendDataDisplay(); 
09430:  CALL   39C0
....................             printf("bc.pic2=%u",iconoGrande[Opcion-1]); 
09434:  MOVLW  01
09436:  MOVLB  3
09438:  SUBWF  x6C,W
0943A:  CLRF   03
0943C:  ADDLW  BA
0943E:  MOVWF  FE9
09440:  MOVLW  03
09442:  ADDWFC 03,W
09444:  MOVWF  FEA
09446:  MOVFF  FEF,446
0944A:  MOVLW  98
0944C:  MOVWF  FF6
0944E:  MOVLW  0B
09450:  MOVWF  FF7
09452:  MOVLW  00
09454:  MOVWF  FF8
09456:  MOVLW  08
09458:  MOVLB  4
0945A:  MOVWF  x4B
0945C:  MOVLB  0
0945E:  CALL   4ABC
09462:  MOVFF  446,44B
09466:  MOVLW  1B
09468:  MOVLB  4
0946A:  MOVWF  x4C
0946C:  MOVLB  0
0946E:  CALL   4B1A
....................             SendDataDisplay(); 
09472:  CALL   39C0
....................             printf("bd.pic2=%u",iconoPeque[Opcion]); 
09476:  CLRF   03
09478:  MOVLB  3
0947A:  MOVF   x6C,W
0947C:  ADDLW  C3
0947E:  MOVWF  FE9
09480:  MOVLW  03
09482:  ADDWFC 03,W
09484:  MOVWF  FEA
09486:  MOVFF  FEF,446
0948A:  MOVLW  A4
0948C:  MOVWF  FF6
0948E:  MOVLW  0B
09490:  MOVWF  FF7
09492:  MOVLW  00
09494:  MOVWF  FF8
09496:  MOVLW  08
09498:  MOVLB  4
0949A:  MOVWF  x4B
0949C:  MOVLB  0
0949E:  CALL   4ABC
094A2:  MOVFF  446,44B
094A6:  MOVLW  1B
094A8:  MOVLB  4
094AA:  MOVWF  x4C
094AC:  MOVLB  0
094AE:  CALL   4B1A
....................             SendDataDisplay(); 
094B2:  CALL   39C0
....................             printf("bi.pic2=%u",iconoPeque[Opcion-2]); 
094B6:  MOVLW  02
094B8:  MOVLB  3
094BA:  SUBWF  x6C,W
094BC:  CLRF   03
094BE:  ADDLW  C3
094C0:  MOVWF  FE9
094C2:  MOVLW  03
094C4:  ADDWFC 03,W
094C6:  MOVWF  FEA
094C8:  MOVFF  FEF,446
094CC:  MOVLW  B0
094CE:  MOVWF  FF6
094D0:  MOVLW  0B
094D2:  MOVWF  FF7
094D4:  MOVLW  00
094D6:  MOVWF  FF8
094D8:  MOVLW  08
094DA:  MOVLB  4
094DC:  MOVWF  x4B
094DE:  MOVLB  0
094E0:  CALL   4ABC
094E4:  MOVFF  446,44B
094E8:  MOVLW  1B
094EA:  MOVLB  4
094EC:  MOVWF  x4C
094EE:  MOVLB  0
094F0:  CALL   4B1A
....................             SendDataDisplay(); 
094F4:  CALL   39C0
....................             printf("textop.txt=\"%s\"",texto[Opcion-1]); 
094F8:  MOVLW  01
094FA:  MOVLB  3
094FC:  SUBWF  x6C,W
094FE:  MULLW  14
09500:  MOVF   FF3,W
09502:  CLRF   03
09504:  MOVLB  4
09506:  MOVWF  x46
09508:  MOVLW  BC
0950A:  MOVWF  FF6
0950C:  MOVLW  0B
0950E:  MOVWF  FF7
09510:  MOVLW  00
09512:  MOVWF  FF8
09514:  MOVLW  0C
09516:  MOVWF  x4B
09518:  MOVLB  0
0951A:  CALL   4ABC
0951E:  MOVLW  50
09520:  MOVWF  FF6
09522:  MOVLW  01
09524:  MOVWF  FF7
09526:  MOVLW  00
09528:  MOVWF  FF8
0952A:  MOVLB  4
0952C:  MOVF   x46,W
0952E:  ADDWF  FF6,F
09530:  MOVLW  00
09532:  ADDWFC FF7,F
09534:  MOVLB  0
09536:  CALL   398E
0953A:  MOVLW  22
0953C:  BTFSS  F9E.4
0953E:  BRA    953C
09540:  MOVWF  FAD
....................             SendDataDisplay(); 
09542:  CALL   39C0
....................          } 
....................           
....................          printf("ttitulo.txt=\"SELECCIONE SU CICLO\""); 
09546:  MOVLW  CC
09548:  MOVWF  FF6
0954A:  MOVLW  0B
0954C:  MOVWF  FF7
0954E:  MOVLW  00
09550:  MOVWF  FF8
09552:  CALL   398E
....................          SendDataDisplay(); 
09556:  CALL   39C0
....................           
....................          if(RIGHT){ 
0955A:  BSF    F93.2
0955C:  BTFSC  F81.2
0955E:  BRA    9578
....................             delay_ms(20); 
09560:  MOVLW  14
09562:  MOVLB  4
09564:  MOVWF  x5B
09566:  MOVLB  0
09568:  CALL   1AC8
....................             if(RIGHT){ 
0956C:  BSF    F93.2
0956E:  BTFSC  F81.2
09570:  BRA    9578
....................                Opcion++; 
09572:  MOVLB  3
09574:  INCF   x6C,F
09576:  MOVLB  0
....................             } 
....................          } 
....................           
....................          if(LEFT){ 
09578:  BSF    F93.3
0957A:  BTFSC  F81.3
0957C:  BRA    9596
....................             delay_ms(20); 
0957E:  MOVLW  14
09580:  MOVLB  4
09582:  MOVWF  x5B
09584:  MOVLB  0
09586:  CALL   1AC8
....................             if(LEFT){ 
0958A:  BSF    F93.3
0958C:  BTFSC  F81.3
0958E:  BRA    9596
....................                Opcion--; 
09590:  MOVLB  3
09592:  DECF   x6C,F
09594:  MOVLB  0
....................             } 
....................          } 
....................           
....................          if(RX_Buffer[4]==0x0d && !Op){//Tecla Derecha Oprimida 
09596:  MOVF   34,W
09598:  SUBLW  0D
0959A:  BNZ   95AA
0959C:  BTFSC  xA2.2
0959E:  BRA    95AA
....................             Opcion++; 
095A0:  MOVLB  3
095A2:  INCF   x6C,F
....................             RX_Buffer[4]=0x00; 
095A4:  CLRF   34
....................             Op=ON; 
095A6:  MOVLB  0
095A8:  BSF    xA2.2
....................             //BorraBuffer(); 
....................          } 
....................           
....................          if(RX_Buffer[4]==0x0c && Op){//Tecla Derecha Oprimida 
095AA:  MOVF   34,W
095AC:  SUBLW  0C
095AE:  BNZ   95BE
095B0:  BTFSS  xA2.2
095B2:  BRA    95BE
....................             Opcion++; 
095B4:  MOVLB  3
095B6:  INCF   x6C,F
....................             RX_Buffer[4]=0x00; 
095B8:  CLRF   34
....................             Op=OFF; 
095BA:  MOVLB  0
095BC:  BCF    xA2.2
....................             //BorraBuffer(); 
....................          } 
....................           
....................          if(RX_Buffer[4]==0x0e && !Op2){//Tecla Izquierda Oprimida 
095BE:  MOVF   34,W
095C0:  SUBLW  0E
095C2:  BNZ   95D2
095C4:  BTFSC  xA2.3
095C6:  BRA    95D2
....................             Opcion--; 
095C8:  MOVLB  3
095CA:  DECF   x6C,F
....................             RX_Buffer[4]=0x00; 
095CC:  CLRF   34
....................             Op2=ON; 
095CE:  MOVLB  0
095D0:  BSF    xA2.3
....................             //BorraBuffer(); 
....................          } 
....................           
....................          if(RX_Buffer[4]==0x0f && Op2){//Tecla Izquierda Oprimida 
095D2:  MOVF   34,W
095D4:  SUBLW  0F
095D6:  BNZ   95E6
095D8:  BTFSS  xA2.3
095DA:  BRA    95E6
....................             Opcion--; 
095DC:  MOVLB  3
095DE:  DECF   x6C,F
....................             RX_Buffer[4]=0x00; 
095E0:  CLRF   34
....................             Op2=OFF; 
095E2:  MOVLB  0
095E4:  BCF    xA2.3
095E6:  MOVLB  2
....................             //BorraBuffer(); 
....................          } 
....................           
....................       } 
....................          if(RIGHT && LEFT){ 
095E8:  BSF    F93.2
095EA:  BTFSC  F81.2
095EC:  BRA    963A
095EE:  BSF    F93.3
095F0:  BTFSC  F81.3
095F2:  BRA    963A
....................             delay_ms(20); 
095F4:  MOVLW  14
095F6:  MOVLB  4
095F8:  MOVWF  x5B
095FA:  MOVLB  0
095FC:  CALL   1AC8
....................             if(RIGHT && LEFT){ 
09600:  BSF    F93.2
09602:  BTFSC  F81.2
09604:  BRA    9638
09606:  BSF    F93.3
09608:  BTFSC  F81.3
0960A:  BRA    9638
....................                printf("page Clave"); 
0960C:  MOVLW  EE
0960E:  MOVWF  FF6
09610:  MOVLW  0B
09612:  MOVWF  FF7
09614:  MOVLW  00
09616:  MOVWF  FF8
09618:  CALL   398E
....................                SendDataDisplay();  
0961C:  CALL   39C0
....................                Op=OFF; 
09620:  BCF    xA2.2
....................                Op2=OFF; 
09622:  BCF    xA2.3
....................                MenuAnt=Menu; 
09624:  MOVFF  364,365
....................                TipoClave=1; 
09628:  MOVLW  01
0962A:  MOVLB  2
0962C:  MOVWF  xE5
....................                RX_Buffer[3]=0x00; 
0962E:  CLRF   33
....................                RX_Buffer2[3]=0x00; 
09630:  CLRF   3E
....................                Opcion=0; 
09632:  MOVLB  3
09634:  CLRF   x6C
09636:  MOVLB  0
09638:  MOVLB  2
....................             } 
....................          } 
....................    } 
.................... //_--------------------------------------------------------------------------------------------------------------------------------------------------------        
....................  
.................... //_-------------------------------------------------------------------------------------------------------------------------------------------------------- 
....................     if(Menu==2){ //Menu de Tiempo Esterilizacion      
0963A:  MOVLB  3
0963C:  MOVF   x64,W
0963E:  SUBLW  02
09640:  BTFSS  FD8.2
09642:  BRA    9A70
....................       //printf("fecha.txt=\"T:%3.1fC Fecha:%02u/%02u/20%02u Hora: %02u:%02u:%02u\"",Temperatura,Dia,Mes,Year,Hora,Minuto,Segundo); 
....................       //SendDataDisplay(); 
....................       revisePresion(); 
09644:  MOVLB  0
09646:  CALL   4F8C
....................          if(RX_Buffer[4]==0x0a){//Selecciono Minutos 
0964A:  MOVF   34,W
0964C:  SUBLW  0A
0964E:  BNZ   9654
....................             Minutos=ON; 
09650:  BSF    xA2.4
....................             Segundos=OFF; 
09652:  BCF    xA2.5
....................          } 
....................           
....................          if(RX_Buffer[4]==0x0b){//Selecciono Segundos 
09654:  MOVF   34,W
09656:  SUBLW  0B
09658:  BNZ   965E
....................             Segundos=ON; 
0965A:  BSF    xA2.5
....................             Minutos=OFF; 
0965C:  BCF    xA2.4
....................          }            
....................           
....................          if(RX_Buffer[4]==0x11 || LEFT){//Selecciono Regresar 
0965E:  MOVF   34,W
09660:  SUBLW  11
09662:  BZ    966A
09664:  BSF    F93.3
09666:  BTFSC  F81.3
09668:  BRA    97F4
....................             delay_ms(100); 
0966A:  MOVLW  64
0966C:  MOVLB  4
0966E:  MOVWF  x5B
09670:  MOVLB  0
09672:  CALL   1AC8
....................             if(RX_Buffer[4]==0x11 || LEFT){ 
09676:  MOVF   34,W
09678:  SUBLW  11
0967A:  BZ    9682
0967C:  BSF    F93.3
0967E:  BTFSC  F81.3
09680:  BRA    97F4
....................                Segundos=OFF; 
09682:  BCF    xA2.5
....................                Minutos=OFF; 
09684:  BCF    xA2.4
....................                printf("page CicloPersona"); 
09686:  MOVLW  FA
09688:  MOVWF  FF6
0968A:  MOVLW  0B
0968C:  MOVWF  FF7
0968E:  MOVLW  00
09690:  MOVWF  FF8
09692:  CALL   398E
....................                SendDataDisplay();   
09696:  CALL   39C0
....................                PantallaPrincipal=1; 
0969A:  MOVLW  01
0969C:  MOVLB  2
0969E:  MOVWF  xE4
....................                Op=OFF; 
096A0:  MOVLB  0
096A2:  BCF    xA2.2
....................                Op2=OFF; 
096A4:  BCF    xA2.3
....................                if(!GuardaEEPROM){ 
096A6:  BTFSC  xA2.6
096A8:  BRA    97F4
....................                   CiclosPersonalizados[CicloLibre-1].Minutoest=Testerilizacionp[2]+(Testerilizacionp[3]*10); 
096AA:  MOVLW  01
096AC:  MOVLB  3
096AE:  SUBWF  x45,W
096B0:  MULLW  0A
096B2:  MOVF   FF3,W
096B4:  MOVLB  4
096B6:  CLRF   x47
096B8:  MOVWF  x46
096BA:  MOVLW  09
096BC:  ADDWF  x46,W
096BE:  MOVWF  01
096C0:  MOVLW  00
096C2:  ADDWFC x47,W
096C4:  MOVWF  03
096C6:  MOVF   01,W
096C8:  ADDLW  1E
096CA:  MOVWF  FE9
096CC:  MOVLW  04
096CE:  ADDWFC 03,W
096D0:  MOVWF  FEA
096D2:  MOVFF  C0,448
096D6:  MOVLW  0A
096D8:  MOVWF  x49
096DA:  MOVLB  0
096DC:  CALL   2E46
096E0:  MOVF   01,W
096E2:  ADDWF  xBF,W
096E4:  MOVWF  FEF
....................                   CiclosPersonalizados[CicloLibre-1].Segundoest=Testerilizacionp[0]+(Testerilizacionp[1]*10); 
096E6:  MOVLW  01
096E8:  MOVLB  3
096EA:  SUBWF  x45,W
096EC:  MULLW  0A
096EE:  MOVF   FF3,W
096F0:  MOVLB  4
096F2:  CLRF   x47
096F4:  MOVWF  x46
096F6:  MOVLW  03
096F8:  ADDWF  x46,W
096FA:  MOVWF  01
096FC:  MOVLW  00
096FE:  ADDWFC x47,W
09700:  MOVWF  03
09702:  MOVF   01,W
09704:  ADDLW  1E
09706:  MOVWF  FE9
09708:  MOVLW  04
0970A:  ADDWFC 03,W
0970C:  MOVWF  FEA
0970E:  MOVFF  BE,448
09712:  MOVLW  0A
09714:  MOVWF  x49
09716:  MOVLB  0
09718:  CALL   2E46
0971C:  MOVF   01,W
0971E:  ADDWF  xBD,W
09720:  MOVWF  FEF
....................                   write_eeprom(102+((CicloLibre-1)*8),Testerilizacionp[2]+(Testerilizacionp[3]*10)); 
09722:  MOVLW  01
09724:  MOVLB  3
09726:  SUBWF  x45,W
09728:  MULLW  08
0972A:  MOVF   FF3,W
0972C:  ADDLW  66
0972E:  MOVLB  4
09730:  MOVWF  x46
09732:  MOVFF  C0,448
09736:  MOVLW  0A
09738:  MOVWF  x49
0973A:  MOVLB  0
0973C:  CALL   2E46
09740:  MOVF   01,W
09742:  ADDWF  xBF,W
09744:  MOVLB  4
09746:  MOVWF  x47
09748:  CLRF   FAA
0974A:  MOVFF  446,FA9
0974E:  MOVFF  447,FA8
09752:  BCF    FA6.6
09754:  BCF    FA6.7
09756:  BSF    FA6.2
09758:  MOVF   FF2,W
0975A:  MOVWF  00
0975C:  BCF    FF2.6
0975E:  BCF    FF2.7
09760:  MOVLB  F
09762:  MOVLW  55
09764:  MOVWF  FA7
09766:  MOVLW  AA
09768:  MOVWF  FA7
0976A:  BSF    FA6.1
0976C:  BTFSC  FA6.1
0976E:  BRA    976C
09770:  BCF    FA6.2
09772:  MOVF   00,W
09774:  IORWF  FF2,F
....................                   delay_ms(10); 
09776:  MOVLW  0A
09778:  MOVLB  4
0977A:  MOVWF  x5B
0977C:  MOVLB  0
0977E:  CALL   1AC8
....................                   write_eeprom(103+((CicloLibre-1)*8),Testerilizacionp[0]+(Testerilizacionp[1]*10)); 
09782:  MOVLW  01
09784:  MOVLB  3
09786:  SUBWF  x45,W
09788:  MULLW  08
0978A:  MOVF   FF3,W
0978C:  ADDLW  67
0978E:  MOVLB  4
09790:  MOVWF  x46
09792:  MOVFF  BE,448
09796:  MOVLW  0A
09798:  MOVWF  x49
0979A:  MOVLB  0
0979C:  CALL   2E46
097A0:  MOVF   01,W
097A2:  ADDWF  xBD,W
097A4:  MOVLB  4
097A6:  MOVWF  x47
097A8:  CLRF   FAA
097AA:  MOVFF  446,FA9
097AE:  MOVFF  447,FA8
097B2:  BCF    FA6.6
097B4:  BCF    FA6.7
097B6:  BSF    FA6.2
097B8:  MOVF   FF2,W
097BA:  MOVWF  00
097BC:  BCF    FF2.6
097BE:  BCF    FF2.7
097C0:  MOVLB  F
097C2:  MOVLW  55
097C4:  MOVWF  FA7
097C6:  MOVLW  AA
097C8:  MOVWF  FA7
097CA:  BSF    FA6.1
097CC:  BTFSC  FA6.1
097CE:  BRA    97CC
097D0:  BCF    FA6.2
097D2:  MOVF   00,W
097D4:  IORWF  FF2,F
....................                   delay_ms(10); 
097D6:  MOVLW  0A
097D8:  MOVLB  4
097DA:  MOVWF  x5B
097DC:  MOVLB  0
097DE:  CALL   1AC8
....................                   Testerilizacion[0]=Testerilizacionp[0]; 
097E2:  MOVFF  BD,B8
....................                   Testerilizacion[1]=Testerilizacionp[1]; 
097E6:  MOVFF  BE,B9
....................                   Testerilizacion[2]=Testerilizacionp[2]; 
097EA:  MOVFF  BF,BA
....................                   Testerilizacion[3]=Testerilizacionp[3];                   
097EE:  MOVFF  C0,BB
....................                   GuardaEEPROM=ON; 
097F2:  BSF    xA2.6
....................                } 
....................             } 
....................          } 
....................           
....................          if(RIGHT){ 
097F4:  BSF    F93.2
097F6:  BTFSC  F81.2
097F8:  BRA    986E
....................             delay_ms(100); 
097FA:  MOVLW  64
097FC:  MOVLB  4
097FE:  MOVWF  x5B
09800:  MOVLB  0
09802:  CALL   1AC8
....................             if(RIGHT){ 
09806:  BSF    F93.2
09808:  BTFSC  F81.2
0980A:  BRA    986E
....................                if(!Segundos){ 
0980C:  BTFSC  xA2.5
0980E:  BRA    983E
....................                   Segundos=ON; 
09810:  BSF    xA2.5
....................                   Minutos=OFF; 
09812:  BCF    xA2.4
....................                   printf("tsecest.pco=65535"); 
09814:  MOVLW  0C
09816:  MOVWF  FF6
09818:  MOVLW  0C
0981A:  MOVWF  FF7
0981C:  MOVLW  00
0981E:  MOVWF  FF8
09820:  CALL   398E
....................                   SendDataDisplay();   
09824:  CALL   39C0
....................                   printf("tminest.pco=0"); 
09828:  MOVLW  1E
0982A:  MOVWF  FF6
0982C:  MOVLW  0C
0982E:  MOVWF  FF7
09830:  MOVLW  00
09832:  MOVWF  FF8
09834:  CALL   398E
....................                   SendDataDisplay();   
09838:  CALL   39C0
....................                }else if(!Minutos){ 
0983C:  BRA    986E
0983E:  BTFSC  xA2.4
09840:  BRA    986E
....................                   Segundos=OFF; 
09842:  BCF    xA2.5
....................                   Minutos=ON; 
09844:  BSF    xA2.4
....................                   printf("tsecest.pco=0"); 
09846:  MOVLW  2C
09848:  MOVWF  FF6
0984A:  MOVLW  0C
0984C:  MOVWF  FF7
0984E:  MOVLW  00
09850:  MOVWF  FF8
09852:  CALL   398E
....................                   SendDataDisplay();   
09856:  CALL   39C0
....................                   printf("tminest.pco=65535"); 
0985A:  MOVLW  3A
0985C:  MOVWF  FF6
0985E:  MOVLW  0C
09860:  MOVWF  FF7
09862:  MOVLW  00
09864:  MOVWF  FF8
09866:  CALL   398E
....................                   SendDataDisplay();   
0986A:  CALL   39C0
....................                } 
....................             } 
....................          } 
....................           
....................          if(UP){ 
0986E:  BSF    F93.0
09870:  BTFSC  F81.0
09872:  BRA    98BA
....................             delay_ms(100); 
09874:  MOVLW  64
09876:  MOVLB  4
09878:  MOVWF  x5B
0987A:  MOVLB  0
0987C:  CALL   1AC8
....................             if(UP){ 
09880:  BSF    F93.0
09882:  BTFSC  F81.0
09884:  BRA    98BA
....................                if(Segundos){ 
09886:  BTFSS  xA2.5
09888:  BRA    989A
....................                   Testerilizacionp[0]++; 
0988A:  INCF   xBD,F
....................                   if(Testerilizacionp[0]>9){ 
0988C:  BTFSC  xBD.7
0988E:  BRA    989A
09890:  MOVF   xBD,W
09892:  SUBLW  09
09894:  BC    989A
....................                      Testerilizacionp[1]++; 
09896:  INCF   xBE,F
....................                      Testerilizacionp[0]=0; 
09898:  CLRF   xBD
....................                   } 
....................                } 
....................                if(Minutos){ 
0989A:  BTFSS  xA2.4
0989C:  BRA    98BA
....................                   Testerilizacionp[2]++; 
0989E:  INCF   xBF,F
....................                   if(Testerilizacionp[2]>9){ 
098A0:  BTFSC  xBF.7
098A2:  BRA    98AE
098A4:  MOVF   xBF,W
098A6:  SUBLW  09
098A8:  BC    98AE
....................                      Testerilizacionp[3]++; 
098AA:  INCF   xC0,F
....................                      Testerilizacionp[2]=0; 
098AC:  CLRF   xBF
....................                   } 
....................                   if(Testerilizacionp[3]>9){                      
098AE:  BTFSC  xC0.7
098B0:  BRA    98BA
098B2:  MOVF   xC0,W
098B4:  SUBLW  09
098B6:  BC    98BA
....................                      Testerilizacionp[3]=0; 
098B8:  CLRF   xC0
....................                   } 
....................                }     
....................             } 
....................          } 
....................           
....................          if(DOWN){ 
098BA:  BSF    F93.1
098BC:  BTFSC  F81.1
098BE:  BRA    9900
....................             delay_ms(100); 
098C0:  MOVLW  64
098C2:  MOVLB  4
098C4:  MOVWF  x5B
098C6:  MOVLB  0
098C8:  CALL   1AC8
....................             if(DOWN){ 
098CC:  BSF    F93.1
098CE:  BTFSC  F81.1
098D0:  BRA    9900
....................                if(Segundos){ 
098D2:  BTFSS  xA2.5
098D4:  BRA    98E4
....................                   Testerilizacionp[0]--; 
098D6:  DECF   xBD,F
....................                   if(Testerilizacionp[0]<0){ 
098D8:  BTFSC  xBD.7
098DA:  BRA    98DE
098DC:  BRA    98E4
....................                      Testerilizacionp[1]--; 
098DE:  DECF   xBE,F
....................                      Testerilizacionp[0]=9; 
098E0:  MOVLW  09
098E2:  MOVWF  xBD
....................                   } 
....................                } 
....................                if(Minutos){ 
098E4:  BTFSS  xA2.4
098E6:  BRA    9900
....................                   Testerilizacionp[2]--; 
098E8:  DECF   xBF,F
....................                   if(Testerilizacionp[2]<0){ 
098EA:  BTFSC  xBF.7
098EC:  BRA    98F0
098EE:  BRA    98F6
....................                      Testerilizacionp[3]--; 
098F0:  DECF   xC0,F
....................                      Testerilizacionp[2]=9; 
098F2:  MOVLW  09
098F4:  MOVWF  xBF
....................                   } 
....................                   if(Testerilizacionp[3]<0){ 
098F6:  BTFSC  xC0.7
098F8:  BRA    98FC
098FA:  BRA    9900
....................                      Testerilizacionp[3]=9; 
098FC:  MOVLW  09
098FE:  MOVWF  xC0
....................                   } 
....................                }     
....................             } 
....................          } 
....................           
....................          if(RX_Buffer[4]==0x0c || RX_Buffer[4]==0x0d){//Tecla Derecha Oprimida 
09900:  MOVF   34,W
09902:  SUBLW  0C
09904:  BZ    990C
09906:  MOVF   34,W
09908:  SUBLW  0D
0990A:  BNZ   9944
....................             if(Segundos){ 
0990C:  BTFSS  xA2.5
0990E:  BRA    9920
....................                Testerilizacionp[0]++; 
09910:  INCF   xBD,F
....................                if(Testerilizacionp[0]>9){ 
09912:  BTFSC  xBD.7
09914:  BRA    9920
09916:  MOVF   xBD,W
09918:  SUBLW  09
0991A:  BC    9920
....................                   Testerilizacionp[1]++; 
0991C:  INCF   xBE,F
....................                   Testerilizacionp[0]=0; 
0991E:  CLRF   xBD
....................                } 
....................             } 
....................             if(Minutos){ 
09920:  BTFSS  xA2.4
09922:  BRA    9940
....................                Testerilizacionp[2]++; 
09924:  INCF   xBF,F
....................                if(Testerilizacionp[2]>9){ 
09926:  BTFSC  xBF.7
09928:  BRA    9934
0992A:  MOVF   xBF,W
0992C:  SUBLW  09
0992E:  BC    9934
....................                   Testerilizacionp[3]++; 
09930:  INCF   xC0,F
....................                   Testerilizacionp[2]=0; 
09932:  CLRF   xBF
....................                } 
....................                if(Testerilizacionp[3]>9){                   
09934:  BTFSC  xC0.7
09936:  BRA    9940
09938:  MOVF   xC0,W
0993A:  SUBLW  09
0993C:  BC    9940
....................                   Testerilizacionp[3]=0; 
0993E:  CLRF   xC0
....................                } 
....................             } 
....................             RX_Buffer[4]=0x00;   
09940:  CLRF   34
....................             RX_Buffer2[4]=0x00; 
09942:  CLRF   3F
....................          } 
....................           
....................          if(RX_Buffer[4]==0x0f || RX_Buffer[4]==0x0e){//Tecla Izquierda Oprimida 
09944:  MOVF   34,W
09946:  SUBLW  0F
09948:  BZ    9950
0994A:  MOVF   34,W
0994C:  SUBLW  0E
0994E:  BNZ   9982
....................              
....................             if(Segundos){ 
09950:  BTFSS  xA2.5
09952:  BRA    9962
....................                Testerilizacionp[0]--; 
09954:  DECF   xBD,F
....................                if(Testerilizacionp[0]<0){ 
09956:  BTFSC  xBD.7
09958:  BRA    995C
0995A:  BRA    9962
....................                   Testerilizacionp[1]--; 
0995C:  DECF   xBE,F
....................                   Testerilizacionp[0]=9; 
0995E:  MOVLW  09
09960:  MOVWF  xBD
....................                } 
....................             } 
....................             if(Minutos){ 
09962:  BTFSS  xA2.4
09964:  BRA    997E
....................                Testerilizacionp[2]--; 
09966:  DECF   xBF,F
....................                if(Testerilizacionp[2]<0){ 
09968:  BTFSC  xBF.7
0996A:  BRA    996E
0996C:  BRA    9974
....................                   Testerilizacionp[3]--; 
0996E:  DECF   xC0,F
....................                   Testerilizacionp[2]=9; 
09970:  MOVLW  09
09972:  MOVWF  xBF
....................                } 
....................                if(Testerilizacionp[3]<0){ 
09974:  BTFSC  xC0.7
09976:  BRA    997A
09978:  BRA    997E
....................                   Testerilizacionp[3]=9; 
0997A:  MOVLW  09
0997C:  MOVWF  xC0
....................                } 
....................             } 
....................             RX_Buffer[4]=0x00;   
0997E:  CLRF   34
....................             RX_Buffer2[4]=0x00; 
09980:  CLRF   3F
....................          } 
....................           
....................          if(Testerilizacionp[0]<0) 
09982:  BTFSC  xBD.7
09984:  BRA    9988
09986:  BRA    998C
....................             Testerilizacionp[0]=9;             
09988:  MOVLW  09
0998A:  MOVWF  xBD
....................          if(Testerilizacionp[1]<0) 
0998C:  BTFSC  xBE.7
0998E:  BRA    9992
09990:  BRA    9996
....................             Testerilizacionp[1]=5;             
09992:  MOVLW  05
09994:  MOVWF  xBE
....................          if(Testerilizacionp[2]<0) 
09996:  BTFSC  xBF.7
09998:  BRA    999C
0999A:  BRA    99A0
....................             Testerilizacionp[2]=9;             
0999C:  MOVLW  09
0999E:  MOVWF  xBF
....................          if(Testerilizacionp[3]<0) 
099A0:  BTFSC  xC0.7
099A2:  BRA    99A6
099A4:  BRA    99AA
....................             Testerilizacionp[3]=9;             
099A6:  MOVLW  09
099A8:  MOVWF  xC0
....................           
....................          if(Testerilizacionp[0]>9) 
099AA:  BTFSC  xBD.7
099AC:  BRA    99B6
099AE:  MOVF   xBD,W
099B0:  SUBLW  09
099B2:  BC    99B6
....................             Testerilizacionp[0]=0;             
099B4:  CLRF   xBD
....................          if(Testerilizacionp[1]>5) 
099B6:  BTFSC  xBE.7
099B8:  BRA    99C2
099BA:  MOVF   xBE,W
099BC:  SUBLW  05
099BE:  BC    99C2
....................             Testerilizacionp[1]=0;             
099C0:  CLRF   xBE
....................          if(Testerilizacionp[2]>9) 
099C2:  BTFSC  xBF.7
099C4:  BRA    99CE
099C6:  MOVF   xBF,W
099C8:  SUBLW  09
099CA:  BC    99CE
....................             Testerilizacionp[2]=0;             
099CC:  CLRF   xBF
....................          if(Testerilizacionp[3]>9) 
099CE:  BTFSC  xC0.7
099D0:  BRA    99DA
099D2:  MOVF   xC0,W
099D4:  SUBLW  09
099D6:  BC    99DA
....................             Testerilizacionp[3]=0;  
099D8:  CLRF   xC0
....................              
....................          printf("tminest.txt=\"%02u\"",((Testerilizacionp[3]*10)+Testerilizacionp[2])); 
099DA:  MOVFF  C0,448
099DE:  MOVLW  0A
099E0:  MOVLB  4
099E2:  MOVWF  x49
099E4:  MOVLB  0
099E6:  CALL   2E46
099EA:  MOVF   xBF,W
099EC:  ADDWF  01,W
099EE:  MOVLB  4
099F0:  MOVWF  x46
099F2:  MOVLW  4C
099F4:  MOVWF  FF6
099F6:  MOVLW  0C
099F8:  MOVWF  FF7
099FA:  MOVLW  00
099FC:  MOVWF  FF8
099FE:  MOVLW  0D
09A00:  MOVWF  x4B
09A02:  MOVLB  0
09A04:  CALL   4ABC
09A08:  MOVFF  446,44B
09A0C:  MOVLW  01
09A0E:  MOVLB  4
09A10:  MOVWF  x4C
09A12:  MOVLB  0
09A14:  CALL   4B1A
09A18:  MOVLW  22
09A1A:  BTFSS  F9E.4
09A1C:  BRA    9A1A
09A1E:  MOVWF  FAD
....................          SendDataDisplay(); 
09A20:  CALL   39C0
....................          printf("tsecest.txt=\"%02u\"",((Testerilizacionp[1]*10)+Testerilizacionp[0])); 
09A24:  MOVFF  BE,448
09A28:  MOVLW  0A
09A2A:  MOVLB  4
09A2C:  MOVWF  x49
09A2E:  MOVLB  0
09A30:  CALL   2E46
09A34:  MOVF   xBD,W
09A36:  ADDWF  01,W
09A38:  MOVLB  4
09A3A:  MOVWF  x46
09A3C:  MOVLW  60
09A3E:  MOVWF  FF6
09A40:  MOVLW  0C
09A42:  MOVWF  FF7
09A44:  MOVLW  00
09A46:  MOVWF  FF8
09A48:  MOVLW  0D
09A4A:  MOVWF  x4B
09A4C:  MOVLB  0
09A4E:  CALL   4ABC
09A52:  MOVFF  446,44B
09A56:  MOVLW  01
09A58:  MOVLB  4
09A5A:  MOVWF  x4C
09A5C:  MOVLB  0
09A5E:  CALL   4B1A
09A62:  MOVLW  22
09A64:  BTFSS  F9E.4
09A66:  BRA    9A64
09A68:  MOVWF  FAD
....................          SendDataDisplay(); 
09A6A:  CALL   39C0
09A6E:  MOVLB  3
....................     } 
.................... //_--------------------------------------------------------------------------------------------------------------------------------------------------------        
....................  
.................... //_-------------------------------------------------------------------------------------------------------------------------------------------------------- 
....................     if(Menu==3){ //Menu de Tiempo de Secado 
09A70:  MOVF   x64,W
09A72:  SUBLW  03
09A74:  BTFSS  FD8.2
09A76:  BRA    9E72
....................       //printf("fecha.txt=\"T:%3.1fC Fecha:%02u/%02u/20%02u Hora: %02u:%02u:%02u\"",Temperatura,Dia,Mes,Year,Hora,Minuto,Segundo); 
....................       //SendDataDisplay();             
....................       revisePresion(); 
09A78:  MOVLB  0
09A7A:  CALL   4F8C
....................              
....................          if(RX_Buffer[4]==0x0a){//Selecciono Minutos 
09A7E:  MOVF   34,W
09A80:  SUBLW  0A
09A82:  BNZ   9A88
....................             Minutos=ON; 
09A84:  BSF    xA2.4
....................             Segundos=OFF; 
09A86:  BCF    xA2.5
....................          } 
....................           
....................          if(RX_Buffer[4]==0x0b){//Selecciono Segundos 
09A88:  MOVF   34,W
09A8A:  SUBLW  0B
09A8C:  BNZ   9A92
....................             Segundos=ON; 
09A8E:  BSF    xA2.5
....................             Minutos=OFF; 
09A90:  BCF    xA2.4
....................          } 
....................           
....................          if(RX_Buffer[4]==0x11 || LEFT){//Selecciono Regresar 
09A92:  MOVF   34,W
09A94:  SUBLW  11
09A96:  BZ    9A9E
09A98:  BSF    F93.3
09A9A:  BTFSC  F81.3
09A9C:  BRA    9C08
....................             Segundos=OFF; 
09A9E:  BCF    xA2.5
....................             Minutos=OFF; 
09AA0:  BCF    xA2.4
....................             printf("page CicloPersona"); 
09AA2:  MOVLW  74
09AA4:  MOVWF  FF6
09AA6:  MOVLW  0C
09AA8:  MOVWF  FF7
09AAA:  MOVLW  00
09AAC:  MOVWF  FF8
09AAE:  CALL   398E
....................             SendDataDisplay();   
09AB2:  CALL   39C0
....................             //PantallaPrincipal=1; 
....................             Op=OFF; 
09AB6:  BCF    xA2.2
....................             Op2=OFF; 
09AB8:  BCF    xA2.3
....................             if(!GuardaEEPROM){ 
09ABA:  BTFSC  xA2.6
09ABC:  BRA    9C08
....................                CiclosPersonalizados[CicloLibre-1].Minutosec=Tsecadop[2]+(Tsecadop[3]*10); 
09ABE:  MOVLW  01
09AC0:  MOVLB  3
09AC2:  SUBWF  x45,W
09AC4:  MULLW  0A
09AC6:  MOVF   FF3,W
09AC8:  MOVLB  4
09ACA:  CLRF   x47
09ACC:  MOVWF  x46
09ACE:  MOVLW  04
09AD0:  ADDWF  x46,W
09AD2:  MOVWF  01
09AD4:  MOVLW  00
09AD6:  ADDWFC x47,W
09AD8:  MOVWF  03
09ADA:  MOVF   01,W
09ADC:  ADDLW  1E
09ADE:  MOVWF  FE9
09AE0:  MOVLW  04
09AE2:  ADDWFC 03,W
09AE4:  MOVWF  FEA
09AE6:  MOVFF  C9,448
09AEA:  MOVLW  0A
09AEC:  MOVWF  x49
09AEE:  MOVLB  0
09AF0:  CALL   2E46
09AF4:  MOVF   01,W
09AF6:  ADDWF  xC8,W
09AF8:  MOVWF  FEF
....................                CiclosPersonalizados[CicloLibre-1].Segundosec=Tsecadop[0]+(Tsecadop[1]*10); 
09AFA:  MOVLW  01
09AFC:  MOVLB  3
09AFE:  SUBWF  x45,W
09B00:  MULLW  0A
09B02:  MOVF   FF3,W
09B04:  MOVLB  4
09B06:  CLRF   x47
09B08:  MOVWF  x46
09B0A:  MOVLW  05
09B0C:  ADDWF  x46,W
09B0E:  MOVWF  01
09B10:  MOVLW  00
09B12:  ADDWFC x47,W
09B14:  MOVWF  03
09B16:  MOVF   01,W
09B18:  ADDLW  1E
09B1A:  MOVWF  FE9
09B1C:  MOVLW  04
09B1E:  ADDWFC 03,W
09B20:  MOVWF  FEA
09B22:  MOVFF  C7,448
09B26:  MOVLW  0A
09B28:  MOVWF  x49
09B2A:  MOVLB  0
09B2C:  CALL   2E46
09B30:  MOVF   01,W
09B32:  ADDWF  xC6,W
09B34:  MOVWF  FEF
....................                write_eeprom(104+((CicloLibre-1)*8),Tsecadop[2]+(Tsecadop[3]*10)); 
09B36:  MOVLW  01
09B38:  MOVLB  3
09B3A:  SUBWF  x45,W
09B3C:  MULLW  08
09B3E:  MOVF   FF3,W
09B40:  ADDLW  68
09B42:  MOVLB  4
09B44:  MOVWF  x46
09B46:  MOVFF  C9,448
09B4A:  MOVLW  0A
09B4C:  MOVWF  x49
09B4E:  MOVLB  0
09B50:  CALL   2E46
09B54:  MOVF   01,W
09B56:  ADDWF  xC8,W
09B58:  MOVLB  4
09B5A:  MOVWF  x47
09B5C:  CLRF   FAA
09B5E:  MOVFF  446,FA9
09B62:  MOVFF  447,FA8
09B66:  BCF    FA6.6
09B68:  BCF    FA6.7
09B6A:  BSF    FA6.2
09B6C:  MOVF   FF2,W
09B6E:  MOVWF  00
09B70:  BCF    FF2.6
09B72:  BCF    FF2.7
09B74:  MOVLB  F
09B76:  MOVLW  55
09B78:  MOVWF  FA7
09B7A:  MOVLW  AA
09B7C:  MOVWF  FA7
09B7E:  BSF    FA6.1
09B80:  BTFSC  FA6.1
09B82:  BRA    9B80
09B84:  BCF    FA6.2
09B86:  MOVF   00,W
09B88:  IORWF  FF2,F
....................                delay_ms(10); 
09B8A:  MOVLW  0A
09B8C:  MOVLB  4
09B8E:  MOVWF  x5B
09B90:  MOVLB  0
09B92:  CALL   1AC8
....................                write_eeprom(105+((CicloLibre-1)*8),Tsecadop[0]+(Tsecadop[1]*10)); 
09B96:  MOVLW  01
09B98:  MOVLB  3
09B9A:  SUBWF  x45,W
09B9C:  MULLW  08
09B9E:  MOVF   FF3,W
09BA0:  ADDLW  69
09BA2:  MOVLB  4
09BA4:  MOVWF  x46
09BA6:  MOVFF  C7,448
09BAA:  MOVLW  0A
09BAC:  MOVWF  x49
09BAE:  MOVLB  0
09BB0:  CALL   2E46
09BB4:  MOVF   01,W
09BB6:  ADDWF  xC6,W
09BB8:  MOVLB  4
09BBA:  MOVWF  x47
09BBC:  CLRF   FAA
09BBE:  MOVFF  446,FA9
09BC2:  MOVFF  447,FA8
09BC6:  BCF    FA6.6
09BC8:  BCF    FA6.7
09BCA:  BSF    FA6.2
09BCC:  MOVF   FF2,W
09BCE:  MOVWF  00
09BD0:  BCF    FF2.6
09BD2:  BCF    FF2.7
09BD4:  MOVLB  F
09BD6:  MOVLW  55
09BD8:  MOVWF  FA7
09BDA:  MOVLW  AA
09BDC:  MOVWF  FA7
09BDE:  BSF    FA6.1
09BE0:  BTFSC  FA6.1
09BE2:  BRA    9BE0
09BE4:  BCF    FA6.2
09BE6:  MOVF   00,W
09BE8:  IORWF  FF2,F
....................                delay_ms(10); 
09BEA:  MOVLW  0A
09BEC:  MOVLB  4
09BEE:  MOVWF  x5B
09BF0:  MOVLB  0
09BF2:  CALL   1AC8
....................                Tsecado[0]=Tsecadop[0]; 
09BF6:  MOVFF  C6,C2
....................                Tsecado[1]=Tsecadop[1]; 
09BFA:  MOVFF  C7,C3
....................                Tsecado[2]=Tsecadop[2]; 
09BFE:  MOVFF  C8,C4
....................                Tsecado[3]=Tsecadop[3]; 
09C02:  MOVFF  C9,C5
....................                GuardaEEPROM=ON; 
09C06:  BSF    xA2.6
....................             } 
....................          } 
....................           
....................          if(RIGHT){ 
09C08:  BSF    F93.2
09C0A:  BTFSC  F81.2
09C0C:  BRA    9C82
....................             delay_ms(100); 
09C0E:  MOVLW  64
09C10:  MOVLB  4
09C12:  MOVWF  x5B
09C14:  MOVLB  0
09C16:  CALL   1AC8
....................             if(RIGHT){ 
09C1A:  BSF    F93.2
09C1C:  BTFSC  F81.2
09C1E:  BRA    9C82
....................                if(!Segundos){ 
09C20:  BTFSC  xA2.5
09C22:  BRA    9C52
....................                   Segundos=ON; 
09C24:  BSF    xA2.5
....................                   Minutos=OFF; 
09C26:  BCF    xA2.4
....................                   printf("tminsec.pco=0"); 
09C28:  MOVLW  86
09C2A:  MOVWF  FF6
09C2C:  MOVLW  0C
09C2E:  MOVWF  FF7
09C30:  MOVLW  00
09C32:  MOVWF  FF8
09C34:  CALL   398E
....................                   SendDataDisplay();                    
09C38:  CALL   39C0
....................                   printf("tsecsec.pco=65535"); 
09C3C:  MOVLW  94
09C3E:  MOVWF  FF6
09C40:  MOVLW  0C
09C42:  MOVWF  FF7
09C44:  MOVLW  00
09C46:  MOVWF  FF8
09C48:  CALL   398E
....................                   SendDataDisplay();   
09C4C:  CALL   39C0
....................                }else if(!Minutos){ 
09C50:  BRA    9C82
09C52:  BTFSC  xA2.4
09C54:  BRA    9C82
....................                   Segundos=OFF; 
09C56:  BCF    xA2.5
....................                   Minutos=ON; 
09C58:  BSF    xA2.4
....................                   printf("tminsec.pco=65535"); 
09C5A:  MOVLW  A6
09C5C:  MOVWF  FF6
09C5E:  MOVLW  0C
09C60:  MOVWF  FF7
09C62:  MOVLW  00
09C64:  MOVWF  FF8
09C66:  CALL   398E
....................                   SendDataDisplay();   
09C6A:  CALL   39C0
....................                   printf("tsecsec.pco=0"); 
09C6E:  MOVLW  B8
09C70:  MOVWF  FF6
09C72:  MOVLW  0C
09C74:  MOVWF  FF7
09C76:  MOVLW  00
09C78:  MOVWF  FF8
09C7A:  CALL   398E
....................                   SendDataDisplay();   
09C7E:  CALL   39C0
....................                } 
....................             } 
....................          } 
....................           
....................          if(UP){ 
09C82:  BSF    F93.0
09C84:  BTFSC  F81.0
09C86:  BRA    9CC2
....................             delay_ms(100); 
09C88:  MOVLW  64
09C8A:  MOVLB  4
09C8C:  MOVWF  x5B
09C8E:  MOVLB  0
09C90:  CALL   1AC8
....................             if(UP){ 
09C94:  BSF    F93.0
09C96:  BTFSC  F81.0
09C98:  BRA    9CC2
....................                if(Segundos){ 
09C9A:  BTFSS  xA2.5
09C9C:  BRA    9CAE
....................                   Tsecadop[0]++; 
09C9E:  INCF   xC6,F
....................                   if(Tsecadop[0]>9){ 
09CA0:  BTFSC  xC6.7
09CA2:  BRA    9CAE
09CA4:  MOVF   xC6,W
09CA6:  SUBLW  09
09CA8:  BC    9CAE
....................                      Tsecadop[1]++; 
09CAA:  INCF   xC7,F
....................                      Tsecadop[0]=0; 
09CAC:  CLRF   xC6
....................                   } 
....................                } 
....................                if(Minutos){ 
09CAE:  BTFSS  xA2.4
09CB0:  BRA    9CC2
....................                   Tsecado[2]++; 
09CB2:  INCF   xC4,F
....................                   if(Tsecadop[2]>9){ 
09CB4:  BTFSC  xC8.7
09CB6:  BRA    9CC2
09CB8:  MOVF   xC8,W
09CBA:  SUBLW  09
09CBC:  BC    9CC2
....................                      Tsecadop[3]++; 
09CBE:  INCF   xC9,F
....................                      Tsecadop[2]=0; 
09CC0:  CLRF   xC8
....................                   } 
....................                }   
....................             } 
....................          } 
....................           
....................          if(DOWN){ 
09CC2:  BSF    F93.1
09CC4:  BTFSC  F81.1
09CC6:  BRA    9D0A
....................             delay_ms(100); 
09CC8:  MOVLW  64
09CCA:  MOVLB  4
09CCC:  MOVWF  x5B
09CCE:  MOVLB  0
09CD0:  CALL   1AC8
....................             if(DOWN){ 
09CD4:  BSF    F93.1
09CD6:  BTFSC  F81.1
09CD8:  BRA    9D0A
....................                if(Segundos){ 
09CDA:  BTFSS  xA2.5
09CDC:  BRA    9CF8
....................                   Tsecadop[0]--; 
09CDE:  DECF   xC6,F
....................                   if(Tsecadop[0]<0){ 
09CE0:  BTFSS  xC6.7
09CE2:  BRA    9CEA
....................                      Tsecadop[1]--; 
09CE4:  DECF   xC7,F
....................                      Tsecadop[0]=9; 
09CE6:  MOVLW  09
09CE8:  MOVWF  xC6
....................                   } 
....................                   if(Tsecadop[1]<0){ 
09CEA:  BTFSC  xC7.7
09CEC:  BRA    9CF0
09CEE:  BRA    9CF8
....................                      Tsecadop[1]=5; 
09CF0:  MOVLW  05
09CF2:  MOVWF  xC7
....................                      Tsecadop[0]=9; 
09CF4:  MOVLW  09
09CF6:  MOVWF  xC6
....................                   } 
....................                } 
....................                if(Minutos){ 
09CF8:  BTFSS  xA2.4
09CFA:  BRA    9D0A
....................                   Tsecadop[2]--; 
09CFC:  DECF   xC8,F
....................                   if(Tsecadop[2]<0){ 
09CFE:  BTFSC  xC8.7
09D00:  BRA    9D04
09D02:  BRA    9D0A
....................                      Tsecadop[3]--; 
09D04:  DECF   xC9,F
....................                      Tsecadop[2]=9; 
09D06:  MOVLW  09
09D08:  MOVWF  xC8
....................                   } 
....................                }   
....................             } 
....................          } 
....................           
....................          if(RX_Buffer[4]==0x0c || RX_Buffer[4]==0x0d){//Tecla Derecha Oprimida 
09D0A:  MOVF   34,W
09D0C:  SUBLW  0C
09D0E:  BZ    9D16
09D10:  MOVF   34,W
09D12:  SUBLW  0D
09D14:  BNZ   9D42
....................             if(Segundos){ 
09D16:  BTFSS  xA2.5
09D18:  BRA    9D2A
....................                Tsecadop[0]++; 
09D1A:  INCF   xC6,F
....................                if(Tsecadop[0]>9){ 
09D1C:  BTFSC  xC6.7
09D1E:  BRA    9D2A
09D20:  MOVF   xC6,W
09D22:  SUBLW  09
09D24:  BC    9D2A
....................                   Tsecadop[1]++; 
09D26:  INCF   xC7,F
....................                   Tsecadop[0]=0; 
09D28:  CLRF   xC6
....................                } 
....................             } 
....................             if(Minutos){ 
09D2A:  BTFSS  xA2.4
09D2C:  BRA    9D3E
....................                Tsecadop[2]++; 
09D2E:  INCF   xC8,F
....................                if(Tsecadop[2]>9){ 
09D30:  BTFSC  xC8.7
09D32:  BRA    9D3E
09D34:  MOVF   xC8,W
09D36:  SUBLW  09
09D38:  BC    9D3E
....................                   Tsecadop[3]++; 
09D3A:  INCF   xC9,F
....................                   Tsecadop[2]=0; 
09D3C:  CLRF   xC8
....................                } 
....................             } 
....................             RX_Buffer[4]=0x00;   
09D3E:  CLRF   34
....................             RX_Buffer2[4]=0x00;  
09D40:  CLRF   3F
....................          } 
....................           
....................          if(RX_Buffer[4]==0x0f || RX_Buffer[4]==0x0e){//Tecla Izquierda Oprimida 
09D42:  MOVF   34,W
09D44:  SUBLW  0F
09D46:  BZ    9D4E
09D48:  MOVF   34,W
09D4A:  SUBLW  0E
09D4C:  BNZ   9D84
....................             if(Segundos){ 
09D4E:  BTFSS  xA2.5
09D50:  BRA    9D6E
....................                Tsecadop[0]--; 
09D52:  DECF   xC6,F
....................                if(Tsecadop[0]<0){ 
09D54:  BTFSC  xC6.7
09D56:  BRA    9D5A
09D58:  BRA    9D60
....................                   Tsecadop[1]--; 
09D5A:  DECF   xC7,F
....................                   Tsecadop[0]=9; 
09D5C:  MOVLW  09
09D5E:  MOVWF  xC6
....................                } 
....................                if(Tsecadop[1]<0){ 
09D60:  BTFSC  xC7.7
09D62:  BRA    9D66
09D64:  BRA    9D6E
....................                   Tsecadop[1]=5; 
09D66:  MOVLW  05
09D68:  MOVWF  xC7
....................                   Tsecadop[0]=9; 
09D6A:  MOVLW  09
09D6C:  MOVWF  xC6
....................                } 
....................             } 
....................             if(Minutos){ 
09D6E:  BTFSS  xA2.4
09D70:  BRA    9D80
....................                Tsecadop[2]--; 
09D72:  DECF   xC8,F
....................                if(Tsecadop[2]<0){ 
09D74:  BTFSC  xC8.7
09D76:  BRA    9D7A
09D78:  BRA    9D80
....................                   Tsecadop[3]--; 
09D7A:  DECF   xC9,F
....................                   Tsecadop[2]=9; 
09D7C:  MOVLW  09
09D7E:  MOVWF  xC8
....................                } 
....................             } 
....................             RX_Buffer[4]=0x00;   
09D80:  CLRF   34
....................             RX_Buffer2[4]=0x00;             
09D82:  CLRF   3F
....................          } 
....................        
....................          if(Tsecadop[0]<0) 
09D84:  BTFSC  xC6.7
09D86:  BRA    9D8A
09D88:  BRA    9D8E
....................             Tsecadop[0]=9;             
09D8A:  MOVLW  09
09D8C:  MOVWF  xC6
....................          if(Tsecadop[1]<0) 
09D8E:  BTFSC  xC7.7
09D90:  BRA    9D94
09D92:  BRA    9D98
....................             Tsecadop[1]=5;             
09D94:  MOVLW  05
09D96:  MOVWF  xC7
....................          if(Tsecadop[2]<0) 
09D98:  BTFSC  xC8.7
09D9A:  BRA    9D9E
09D9C:  BRA    9DA2
....................             Tsecadop[2]=9;             
09D9E:  MOVLW  09
09DA0:  MOVWF  xC8
....................          if(Tsecadop[3]<0) 
09DA2:  BTFSC  xC9.7
09DA4:  BRA    9DA8
09DA6:  BRA    9DAC
....................             Tsecadop[3]=9;             
09DA8:  MOVLW  09
09DAA:  MOVWF  xC9
....................           
....................          if(Tsecadop[0]>9) 
09DAC:  BTFSC  xC6.7
09DAE:  BRA    9DB8
09DB0:  MOVF   xC6,W
09DB2:  SUBLW  09
09DB4:  BC    9DB8
....................             Tsecadop[0]=0;             
09DB6:  CLRF   xC6
....................          if(Tsecadop[1]>5) 
09DB8:  BTFSC  xC7.7
09DBA:  BRA    9DC4
09DBC:  MOVF   xC7,W
09DBE:  SUBLW  05
09DC0:  BC    9DC4
....................             Tsecadop[1]=0;             
09DC2:  CLRF   xC7
....................          if(Tsecadop[2]>9) 
09DC4:  BTFSC  xC8.7
09DC6:  BRA    9DD0
09DC8:  MOVF   xC8,W
09DCA:  SUBLW  09
09DCC:  BC    9DD0
....................             Tsecadop[2]=0;             
09DCE:  CLRF   xC8
....................          if(Tsecadop[3]>9) 
09DD0:  BTFSC  xC9.7
09DD2:  BRA    9DDC
09DD4:  MOVF   xC9,W
09DD6:  SUBLW  09
09DD8:  BC    9DDC
....................             Tsecadop[3]=0; 
09DDA:  CLRF   xC9
....................              
....................       printf("tminsec.txt=\"%02u\"",((Tsecadop[3]*10)+Tsecadop[2])); 
09DDC:  MOVFF  C9,448
09DE0:  MOVLW  0A
09DE2:  MOVLB  4
09DE4:  MOVWF  x49
09DE6:  MOVLB  0
09DE8:  CALL   2E46
09DEC:  MOVF   xC8,W
09DEE:  ADDWF  01,W
09DF0:  MOVLB  4
09DF2:  MOVWF  x46
09DF4:  MOVLW  C6
09DF6:  MOVWF  FF6
09DF8:  MOVLW  0C
09DFA:  MOVWF  FF7
09DFC:  MOVLW  00
09DFE:  MOVWF  FF8
09E00:  MOVLW  0D
09E02:  MOVWF  x4B
09E04:  MOVLB  0
09E06:  CALL   4ABC
09E0A:  MOVFF  446,44B
09E0E:  MOVLW  01
09E10:  MOVLB  4
09E12:  MOVWF  x4C
09E14:  MOVLB  0
09E16:  CALL   4B1A
09E1A:  MOVLW  22
09E1C:  BTFSS  F9E.4
09E1E:  BRA    9E1C
09E20:  MOVWF  FAD
....................       SendDataDisplay(); 
09E22:  CALL   39C0
....................       printf("tsecsec.txt=\"%02u\"",((Tsecadop[1]*10)+Tsecadop[0])); 
09E26:  MOVFF  C7,448
09E2A:  MOVLW  0A
09E2C:  MOVLB  4
09E2E:  MOVWF  x49
09E30:  MOVLB  0
09E32:  CALL   2E46
09E36:  MOVF   xC6,W
09E38:  ADDWF  01,W
09E3A:  MOVLB  4
09E3C:  MOVWF  x46
09E3E:  MOVLW  DA
09E40:  MOVWF  FF6
09E42:  MOVLW  0C
09E44:  MOVWF  FF7
09E46:  MOVLW  00
09E48:  MOVWF  FF8
09E4A:  MOVLW  0D
09E4C:  MOVWF  x4B
09E4E:  MOVLB  0
09E50:  CALL   4ABC
09E54:  MOVFF  446,44B
09E58:  MOVLW  01
09E5A:  MOVLB  4
09E5C:  MOVWF  x4C
09E5E:  MOVLB  0
09E60:  CALL   4B1A
09E64:  MOVLW  22
09E66:  BTFSS  F9E.4
09E68:  BRA    9E66
09E6A:  MOVWF  FAD
....................       SendDataDisplay(); 
09E6C:  CALL   39C0
09E70:  MOVLB  3
....................     } 
.................... //_--------------------------------------------------------------------------------------------------------------------------------------------------------        
....................  
.................... //_-------------------------------------------------------------------------------------------------------------------------------------------------------- 
....................     if(Menu==4){ //Menu de Temperatura 
09E72:  MOVF   x64,W
09E74:  SUBLW  04
09E76:  BTFSS  FD8.2
09E78:  BRA    9FCC
....................       //printf("fecha.txt=\"Fecha:%02u/%02u/20%02u    Hora: %02u:%02u\"",Dia,Mes,Year,Hora,Minuto); 
....................       //SendDataDisplay(); 
....................       revisePresion(); 
09E7A:  MOVLB  0
09E7C:  CALL   4F8C
....................          if(Setpoint<Tmin) 
09E80:  MOVLB  3
09E82:  MOVF   x6B,W
09E84:  SUBLW  68
09E86:  BNC   9E8C
....................             Setpoint=Tmax; 
09E88:  MOVLW  86
09E8A:  MOVWF  x6B
....................          if(Setpoint>Tmax) 
09E8C:  MOVF   x6B,W
09E8E:  SUBLW  86
09E90:  BC    9E96
....................             Setpoint=Tmin; 
09E92:  MOVLW  69
09E94:  MOVWF  x6B
....................           
....................          if(RX_Buffer[4]==0x11 || LEFT){//Selecciono Regresar 
09E96:  MOVF   34,W
09E98:  SUBLW  11
09E9A:  BZ    9EA2
09E9C:  BSF    F93.3
09E9E:  BTFSC  F81.3
09EA0:  BRA    9F3A
....................             Segundos=OFF; 
09EA2:  MOVLB  0
09EA4:  BCF    xA2.5
....................             Minutos=OFF; 
09EA6:  BCF    xA2.4
....................             printf("page CicloPersona"); 
09EA8:  MOVLW  EE
09EAA:  MOVWF  FF6
09EAC:  MOVLW  0C
09EAE:  MOVWF  FF7
09EB0:  MOVLW  00
09EB2:  MOVWF  FF8
09EB4:  CALL   398E
....................             SendDataDisplay();   
09EB8:  CALL   39C0
....................             PantallaPrincipal=1; 
09EBC:  MOVLW  01
09EBE:  MOVLB  2
09EC0:  MOVWF  xE4
....................             Op=OFF; 
09EC2:  MOVLB  0
09EC4:  BCF    xA2.2
....................             Op2=OFF; 
09EC6:  BCF    xA2.3
....................             if(!GuardaEEPROM){ 
09EC8:  BTFSC  xA2.6
09ECA:  BRA    9F38
....................                CiclosPersonalizados[CicloLibre-1].Temperatura=Setpoint; 
09ECC:  MOVLW  01
09ECE:  MOVLB  3
09ED0:  SUBWF  x45,W
09ED2:  MULLW  0A
09ED4:  MOVF   FF3,W
09ED6:  MOVLB  4
09ED8:  CLRF   x47
09EDA:  MOVWF  x46
09EDC:  MOVLW  1E
09EDE:  ADDWF  x46,W
09EE0:  MOVWF  FE9
09EE2:  MOVLW  04
09EE4:  ADDWFC x47,W
09EE6:  MOVWF  FEA
09EE8:  MOVFF  36B,FEF
....................                write_eeprom(100+((CicloLibre-1)*8),Setpoint); 
09EEC:  MOVLW  01
09EEE:  MOVLB  3
09EF0:  SUBWF  x45,W
09EF2:  MULLW  08
09EF4:  MOVF   FF3,W
09EF6:  ADDLW  64
09EF8:  MOVLB  4
09EFA:  MOVWF  x46
09EFC:  CLRF   FAA
09EFE:  MOVFF  446,FA9
09F02:  MOVFF  36B,FA8
09F06:  BCF    FA6.6
09F08:  BCF    FA6.7
09F0A:  BSF    FA6.2
09F0C:  MOVF   FF2,W
09F0E:  MOVWF  00
09F10:  BCF    FF2.6
09F12:  BCF    FF2.7
09F14:  MOVLB  F
09F16:  MOVLW  55
09F18:  MOVWF  FA7
09F1A:  MOVLW  AA
09F1C:  MOVWF  FA7
09F1E:  BSF    FA6.1
09F20:  BTFSC  FA6.1
09F22:  BRA    9F20
09F24:  BCF    FA6.2
09F26:  MOVF   00,W
09F28:  IORWF  FF2,F
....................                delay_ms(10); 
09F2A:  MOVLW  0A
09F2C:  MOVLB  4
09F2E:  MOVWF  x5B
09F30:  MOVLB  0
09F32:  CALL   1AC8
....................                GuardaEEPROM=ON; 
09F36:  BSF    xA2.6
09F38:  MOVLB  3
....................             } 
....................          } 
....................           
....................          if(UP){ 
09F3A:  BSF    F93.0
09F3C:  BTFSC  F81.0
09F3E:  BRA    9F56
....................             delay_ms(100); 
09F40:  MOVLW  64
09F42:  MOVLB  4
09F44:  MOVWF  x5B
09F46:  MOVLB  0
09F48:  CALL   1AC8
....................             if(UP){ 
09F4C:  BSF    F93.0
09F4E:  BTFSC  F81.0
09F50:  BRA    9F58
....................                Setpoint++; 
09F52:  MOVLB  3
09F54:  INCF   x6B,F
09F56:  MOVLB  0
....................             } 
....................          } 
....................           
....................          if(DOWN){ 
09F58:  BSF    F93.1
09F5A:  BTFSC  F81.1
09F5C:  BRA    9F76
....................             delay_ms(100); 
09F5E:  MOVLW  64
09F60:  MOVLB  4
09F62:  MOVWF  x5B
09F64:  MOVLB  0
09F66:  CALL   1AC8
....................             if(DOWN){ 
09F6A:  BSF    F93.1
09F6C:  BTFSC  F81.1
09F6E:  BRA    9F76
....................                Setpoint--; 
09F70:  MOVLB  3
09F72:  DECF   x6B,F
09F74:  MOVLB  0
....................             } 
....................          } 
....................           
....................          if(RX_Buffer[4]==0x0d){//Tecla Arriba Oprimida 
09F76:  MOVF   34,W
09F78:  SUBLW  0D
09F7A:  BNZ   9F86
....................             Setpoint++; 
09F7C:  MOVLB  3
09F7E:  INCF   x6B,F
....................             RX_Buffer[4]=0x00;   
09F80:  CLRF   34
....................             RX_Buffer2[4]=0x00;             
09F82:  CLRF   3F
09F84:  MOVLB  0
....................             //BorraBuffer(); 
....................          } 
....................           
....................          if(RX_Buffer[4]==0x0c){//Tecla Abajo Oprimida 
09F86:  MOVF   34,W
09F88:  SUBLW  0C
09F8A:  BNZ   9F96
....................             Setpoint--; 
09F8C:  MOVLB  3
09F8E:  DECF   x6B,F
....................             RX_Buffer[4]=0x00; 
09F90:  CLRF   34
....................             RX_Buffer2[4]=0x00;             
09F92:  CLRF   3F
09F94:  MOVLB  0
....................             //BorraBuffer(); 
....................          } 
....................           
....................       printf("tsettem.txt=\"%03u\"",Setpoint); 
09F96:  MOVLW  00
09F98:  MOVWF  FF6
09F9A:  MOVLW  0D
09F9C:  MOVWF  FF7
09F9E:  MOVLW  00
09FA0:  MOVWF  FF8
09FA2:  MOVLW  0D
09FA4:  MOVLB  4
09FA6:  MOVWF  x4B
09FA8:  MOVLB  0
09FAA:  CALL   4ABC
09FAE:  MOVFF  36B,44B
09FB2:  MOVLW  03
09FB4:  MOVLB  4
09FB6:  MOVWF  x4C
09FB8:  MOVLB  0
09FBA:  CALL   4B1A
09FBE:  MOVLW  22
09FC0:  BTFSS  F9E.4
09FC2:  BRA    9FC0
09FC4:  MOVWF  FAD
....................       SendDataDisplay(); 
09FC6:  CALL   39C0
09FCA:  MOVLB  3
....................     } 
.................... //_--------------------------------------------------------------------------------------------------------------------------------------------------------        
....................  
.................... //_--------------------------------------------------------------------------------------------------------------------------------------------------------       
....................    if(Menu==5){//Menu de Nivel 
09FCC:  MOVF   x64,W
09FCE:  SUBLW  05
09FD0:  BTFSS  FD8.2
09FD2:  BRA    A1A8
....................       //printf("fecha.txt=\"T:%3.1fC Fecha:%02u/%02u/20%02u Hora: %02u:%02u:%02u\"",Temperatura,Dia,Mes,Year,Hora,Minuto,Segundo); 
....................       //SendDataDisplay(); 
....................       revisePresion(); 
09FD4:  MOVLB  0
09FD6:  CALL   4F8C
....................          if(Nivel<1) 
09FDA:  MOVLB  3
09FDC:  MOVF   x7A,F
09FDE:  BNZ   9FEA
09FE0:  MOVF   x7B,F
09FE2:  BNZ   9FEA
....................             Nivel=6; 
09FE4:  CLRF   x7B
09FE6:  MOVLW  06
09FE8:  MOVWF  x7A
....................          if(Nivel>6) 
09FEA:  MOVF   x7B,F
09FEC:  BNZ   9FF4
09FEE:  MOVF   x7A,W
09FF0:  SUBLW  06
09FF2:  BC    9FFA
....................             Nivel=1; 
09FF4:  CLRF   x7B
09FF6:  MOVLW  01
09FF8:  MOVWF  x7A
....................           
....................          if(RX_Buffer[4]==0x11 || LEFT){//Selecciono Regresar 
09FFA:  MOVF   34,W
09FFC:  SUBLW  11
09FFE:  BZ    A006
0A000:  BSF    F93.3
0A002:  BTFSC  F81.3
0A004:  BRA    A102
....................             Segundos=OFF; 
0A006:  MOVLB  0
0A008:  BCF    xA2.5
....................             Minutos=OFF;             
0A00A:  BCF    xA2.4
....................             tiempo_secado=0; 
0A00C:  MOVLB  3
0A00E:  CLRF   x6F
....................              
....................             if(!GuardaEEPROM){     
0A010:  MOVLB  0
0A012:  BTFSC  xA2.6
0A014:  BRA    A0AE
....................                CiclosPersonalizados[CicloLibre-1].NivelDesfogue=Nivel; 
0A016:  MOVLW  01
0A018:  MOVLB  3
0A01A:  SUBWF  x45,W
0A01C:  MULLW  0A
0A01E:  MOVF   FF3,W
0A020:  MOVLB  4
0A022:  CLRF   x47
0A024:  MOVWF  x46
0A026:  MOVLW  08
0A028:  ADDWF  x46,W
0A02A:  MOVWF  01
0A02C:  MOVLW  00
0A02E:  ADDWFC x47,W
0A030:  MOVWF  03
0A032:  MOVF   01,W
0A034:  ADDLW  1E
0A036:  MOVWF  FE9
0A038:  MOVLW  04
0A03A:  ADDWFC 03,W
0A03C:  MOVWF  FEA
0A03E:  MOVFF  37A,FEF
....................                write_eeprom(107+((CicloLibre-1)*8),Nivel); 
0A042:  MOVLW  01
0A044:  MOVLB  3
0A046:  SUBWF  x45,W
0A048:  MULLW  08
0A04A:  MOVF   FF3,W
0A04C:  ADDLW  6B
0A04E:  MOVLB  4
0A050:  MOVWF  x46
0A052:  CLRF   FAA
0A054:  MOVFF  446,FA9
0A058:  MOVFF  37A,FA8
0A05C:  BCF    FA6.6
0A05E:  BCF    FA6.7
0A060:  BSF    FA6.2
0A062:  MOVF   FF2,W
0A064:  MOVWF  00
0A066:  BCF    FF2.6
0A068:  BCF    FF2.7
0A06A:  MOVLB  F
0A06C:  MOVLW  55
0A06E:  MOVWF  FA7
0A070:  MOVLW  AA
0A072:  MOVWF  FA7
0A074:  BSF    FA6.1
0A076:  BTFSC  FA6.1
0A078:  BRA    A076
0A07A:  BCF    FA6.2
0A07C:  MOVF   00,W
0A07E:  IORWF  FF2,F
....................                delay_ms(20);             
0A080:  MOVLW  14
0A082:  MOVLB  4
0A084:  MOVWF  x5B
0A086:  MOVLB  0
0A088:  CALL   1AC8
....................                NivelSeleccionado=4995*Nivel; 
0A08C:  MOVLW  13
0A08E:  MOVLB  4
0A090:  MOVWF  x50
0A092:  MOVLW  83
0A094:  MOVWF  x4F
0A096:  MOVFF  37B,452
0A09A:  MOVFF  37A,451
0A09E:  MOVLB  0
0A0A0:  CALL   3A6C
0A0A4:  MOVFF  02,385
0A0A8:  MOVFF  01,384
....................                GuardaEEPROM=ON; 
0A0AC:  BSF    xA2.6
....................             } 
....................              
....................             if(Nivel<6) 
0A0AE:  MOVLB  3
0A0B0:  MOVF   x7B,F
0A0B2:  BNZ   A0C0
0A0B4:  MOVF   x7A,W
0A0B6:  SUBLW  05
0A0B8:  BNC   A0C0
....................                desfoguelento=1; 
0A0BA:  MOVLB  0
0A0BC:  BSF    xA5.1
....................             else             
0A0BE:  BRA    A0C4
....................                desfoguelento=0; 
0A0C0:  MOVLB  0
0A0C2:  BCF    xA5.1
....................  
....................             if(MenuAnt==1){ 
0A0C4:  MOVLB  3
0A0C6:  DECFSZ x65,W
0A0C8:  BRA    A0E4
....................                //Buzzer_on; 
....................                printf("page CicloPersona"); 
0A0CA:  MOVLW  14
0A0CC:  MOVWF  FF6
0A0CE:  MOVLW  0D
0A0D0:  MOVWF  FF7
0A0D2:  MOVLW  00
0A0D4:  MOVWF  FF8
0A0D6:  MOVLB  0
0A0D8:  CALL   398E
....................                SendDataDisplay();  
0A0DC:  CALL   39C0
....................                //PantallaPrincipal=1; 
....................             }else if(MenuAnt==2){ 
0A0E0:  BRA    A100
0A0E2:  MOVLB  3
0A0E4:  MOVF   x65,W
0A0E6:  SUBLW  02
0A0E8:  BNZ   A102
....................                printf("page Funcionamiento"); 
0A0EA:  MOVLW  26
0A0EC:  MOVWF  FF6
0A0EE:  MOVLW  0D
0A0F0:  MOVWF  FF7
0A0F2:  MOVLW  00
0A0F4:  MOVWF  FF8
0A0F6:  MOVLB  0
0A0F8:  CALL   398E
....................                SendDataDisplay();  
0A0FC:  CALL   39C0
0A100:  MOVLB  3
....................                //if(Temperatura>60)TTrampa=TTrampa+5; 
....................             } 
....................          } 
....................           
....................          if(UP){ 
0A102:  BSF    F93.0
0A104:  BTFSC  F81.0
0A106:  BRA    A122
....................             delay_ms(100); 
0A108:  MOVLW  64
0A10A:  MOVLB  4
0A10C:  MOVWF  x5B
0A10E:  MOVLB  0
0A110:  CALL   1AC8
....................             if(UP){ 
0A114:  BSF    F93.0
0A116:  BTFSC  F81.0
0A118:  BRA    A124
....................                Nivel++; 
0A11A:  MOVLB  3
0A11C:  INCF   x7A,F
0A11E:  BTFSC  FD8.2
0A120:  INCF   x7B,F
0A122:  MOVLB  0
....................             } 
....................          } 
....................           
....................          if(DOWN){ 
0A124:  BSF    F93.1
0A126:  BTFSC  F81.1
0A128:  BRA    A148
....................             delay_ms(100); 
0A12A:  MOVLW  64
0A12C:  MOVLB  4
0A12E:  MOVWF  x5B
0A130:  MOVLB  0
0A132:  CALL   1AC8
....................             if(DOWN){ 
0A136:  BSF    F93.1
0A138:  BTFSC  F81.1
0A13A:  BRA    A148
....................                Nivel--; 
0A13C:  MOVLB  3
0A13E:  MOVF   x7A,W
0A140:  BTFSC  FD8.2
0A142:  DECF   x7B,F
0A144:  DECF   x7A,F
0A146:  MOVLB  0
....................             } 
....................          } 
....................           
....................          if(RX_Buffer[4]==0x0d){//Tecla Arriba Oprimida 
0A148:  MOVF   34,W
0A14A:  SUBLW  0D
0A14C:  BNZ   A15C
....................             Nivel++; 
0A14E:  MOVLB  3
0A150:  INCF   x7A,F
0A152:  BTFSC  FD8.2
0A154:  INCF   x7B,F
....................             RX_Buffer[4]=0x00;             
0A156:  CLRF   34
....................             RX_Buffer2[4]=0x00;             
0A158:  CLRF   3F
0A15A:  MOVLB  0
....................             //BorraBuffer(); 
....................          } 
....................           
....................          if(RX_Buffer[4]==0x0c){//Tecla Abajo Oprimida 
0A15C:  MOVF   34,W
0A15E:  SUBLW  0C
0A160:  BNZ   A172
....................             Nivel--; 
0A162:  MOVLB  3
0A164:  MOVF   x7A,W
0A166:  BTFSC  FD8.2
0A168:  DECF   x7B,F
0A16A:  DECF   x7A,F
....................             RX_Buffer[4]=0x00; 
0A16C:  CLRF   34
....................             RX_Buffer2[4]=0x00;             
0A16E:  CLRF   3F
0A170:  MOVLB  0
....................             //BorraBuffer(); 
....................          } 
....................           
....................       printf("tnivel.txt=\"%Lu\"",Nivel); 
0A172:  MOVLW  3A
0A174:  MOVWF  FF6
0A176:  MOVLW  0D
0A178:  MOVWF  FF7
0A17A:  MOVLW  00
0A17C:  MOVWF  FF8
0A17E:  MOVLW  0C
0A180:  MOVLB  4
0A182:  MOVWF  x4B
0A184:  MOVLB  0
0A186:  CALL   4ABC
0A18A:  MOVLW  10
0A18C:  MOVWF  FE9
0A18E:  MOVFF  37B,44B
0A192:  MOVFF  37A,44A
0A196:  CALL   4C7A
0A19A:  MOVLW  22
0A19C:  BTFSS  F9E.4
0A19E:  BRA    A19C
0A1A0:  MOVWF  FAD
....................       SendDataDisplay(); 
0A1A2:  CALL   39C0
0A1A6:  MOVLB  3
....................    } 
.................... //_--------------------------------------------------------------------------------------------------------------------------------------------------------       
....................  
.................... //_--------------------------------------------------------------------------------------------------------------------------------------------------------       
....................       if(Menu==6){ // Menu de Prueba de Componentes 
0A1A8:  MOVF   x64,W
0A1AA:  SUBLW  06
0A1AC:  BTFSS  FD8.2
0A1AE:  BRA    A922
....................          PruebaEstados=ON; 
0A1B0:  MOVLB  0
0A1B2:  BSF    xA1.3
....................           
....................          if(RX_Buffer[4]==0x02)//Oprimio EV Desfogue 
0A1B4:  MOVF   34,W
0A1B6:  SUBLW  02
0A1B8:  BNZ   A1C0
....................          { 
....................             EstadoDesfogue=!EstadoDesfogue; 
0A1BA:  BTG    xA1.0
....................             RX_Buffer[4]=0x00; 
0A1BC:  CLRF   34
....................             RX_Buffer2[4]=0x00; 
0A1BE:  CLRF   3F
....................          } 
....................           
....................          if(EstadoDesfogue){ 
0A1C0:  BTFSS  xA1.0
0A1C2:  BRA    A1DE
....................             printf("b1.bco=2016"); 
0A1C4:  MOVLW  4C
0A1C6:  MOVWF  FF6
0A1C8:  MOVLW  0D
0A1CA:  MOVWF  FF7
0A1CC:  MOVLW  00
0A1CE:  MOVWF  FF8
0A1D0:  CALL   398E
....................             SendDataDisplay();  
0A1D4:  CALL   39C0
....................             Desfogue_on; 
0A1D8:  BSF    F8C.4
0A1DA:  BCF    F95.4
....................          } 
....................          else{ 
0A1DC:  BRA    A1F6
....................             printf("b1.bco=63488"); 
0A1DE:  MOVLW  58
0A1E0:  MOVWF  FF6
0A1E2:  MOVLW  0D
0A1E4:  MOVWF  FF7
0A1E6:  MOVLW  00
0A1E8:  MOVWF  FF8
0A1EA:  CALL   398E
....................             SendDataDisplay();  
0A1EE:  CALL   39C0
....................             Desfogue_off; 
0A1F2:  BCF    F8C.4
0A1F4:  BCF    F95.4
....................          } 
....................           
....................          if(RX_Buffer[4]==0x01)//Oprimio EV Agua 
0A1F6:  DECFSZ 34,W
0A1F8:  BRA    A200
....................          { 
....................             EstadoAgua=!EstadoAgua; 
0A1FA:  BTG    xA1.1
....................             RX_Buffer[4]=0x00; 
0A1FC:  CLRF   34
....................             RX_Buffer2[4]=0x00; 
0A1FE:  CLRF   3F
....................          } 
....................           
....................          if(EstadoAgua){ 
0A200:  BTFSS  xA1.1
0A202:  BRA    A21E
....................             printf("b0.bco=2016"); 
0A204:  MOVLW  66
0A206:  MOVWF  FF6
0A208:  MOVLW  0D
0A20A:  MOVWF  FF7
0A20C:  MOVLW  00
0A20E:  MOVWF  FF8
0A210:  CALL   398E
....................             SendDataDisplay();  
0A214:  CALL   39C0
....................             Agua_on; 
0A218:  BSF    F8C.5
0A21A:  BCF    F95.5
....................          } 
....................          else{ 
0A21C:  BRA    A236
....................             printf("b0.bco=63488"); 
0A21E:  MOVLW  72
0A220:  MOVWF  FF6
0A222:  MOVLW  0D
0A224:  MOVWF  FF7
0A226:  MOVLW  00
0A228:  MOVWF  FF8
0A22A:  CALL   398E
....................             SendDataDisplay();  
0A22E:  CALL   39C0
....................             Agua_off; 
0A232:  BCF    F8C.5
0A234:  BCF    F95.5
....................          } 
....................           
....................          #ifdef Generador 
....................             printf("b2.txt=\"EV Paso\"");          
0A236:  MOVLW  80
0A238:  MOVWF  FF6
0A23A:  MOVLW  0D
0A23C:  MOVWF  FF7
0A23E:  MOVLW  00
0A240:  MOVWF  FF8
0A242:  CALL   398E
....................             SendDataDisplay(); 
0A246:  CALL   39C0
....................             printf("b16.txt=\"High\"");          
0A24A:  MOVLW  92
0A24C:  MOVWF  FF6
0A24E:  MOVLW  0D
0A250:  MOVWF  FF7
0A252:  MOVLW  00
0A254:  MOVWF  FF8
0A256:  CALL   398E
....................             SendDataDisplay(); 
0A25A:  CALL   39C0
....................          #endif    
....................          if(RX_Buffer[4]==0x03)//Oprimio EV Paso 
0A25E:  MOVF   34,W
0A260:  SUBLW  03
0A262:  BNZ   A26A
....................          { 
....................             EstadoPaso=!EstadoPaso; 
0A264:  BTG    xA2.7
....................             RX_Buffer[4]=0x00; 
0A266:  CLRF   34
....................             RX_Buffer2[4]=0x00; 
0A268:  CLRF   3F
....................          } 
....................           
....................          if(EstadoPaso){ 
0A26A:  BTFSS  xA2.7
0A26C:  BRA    A288
....................             printf("b2.bco=2016"); 
0A26E:  MOVLW  A2
0A270:  MOVWF  FF6
0A272:  MOVLW  0D
0A274:  MOVWF  FF7
0A276:  MOVLW  00
0A278:  MOVWF  FF8
0A27A:  CALL   398E
....................             SendDataDisplay(); 
0A27E:  CALL   39C0
....................             #ifdef Generador 
....................             Paso_on; 
0A282:  BSF    F8C.6
0A284:  BCF    F95.6
....................             #else 
....................             Bomba_on; 
....................             #endif 
....................          } 
....................          else{ 
0A286:  BRA    A2A0
....................             printf("b2.bco=63488"); 
0A288:  MOVLW  AE
0A28A:  MOVWF  FF6
0A28C:  MOVLW  0D
0A28E:  MOVWF  FF7
0A290:  MOVLW  00
0A292:  MOVWF  FF8
0A294:  CALL   398E
....................             SendDataDisplay();  
0A298:  CALL   39C0
....................             #ifdef Generador 
....................             Paso_off; 
0A29C:  BCF    F8C.6
0A29E:  BCF    F95.6
....................             #else 
....................             Bomba_off; 
....................             #endif 
....................          } 
....................          
....................           
....................          if(RX_Buffer[4]==0x05)//Oprimio Bloqueo 
0A2A0:  MOVF   34,W
0A2A2:  SUBLW  05
0A2A4:  BNZ   A2AC
....................          { 
....................             EstadoAire=!EstadoAire; 
0A2A6:  BTG    xA1.7
....................             RX_Buffer[4]=0x00; 
0A2A8:  CLRF   34
....................             RX_Buffer2[4]=0x00; 
0A2AA:  CLRF   3F
....................          } 
....................           
....................          if(EstadoAire){ 
0A2AC:  BTFSS  xA1.7
0A2AE:  BRA    A2C8
....................             printf("b4.bco=2016"); 
0A2B0:  MOVLW  BC
0A2B2:  MOVWF  FF6
0A2B4:  MOVLW  0D
0A2B6:  MOVWF  FF7
0A2B8:  MOVLW  00
0A2BA:  MOVWF  FF8
0A2BC:  CALL   398E
....................             SendDataDisplay();  
0A2C0:  CALL   39C0
....................             Aire=ON;    
0A2C4:  BSF    xA4.4
....................          }else{ 
0A2C6:  BRA    A2DE
....................             printf("b4.bco=63488"); 
0A2C8:  MOVLW  C8
0A2CA:  MOVWF  FF6
0A2CC:  MOVLW  0D
0A2CE:  MOVWF  FF7
0A2D0:  MOVLW  00
0A2D2:  MOVWF  FF8
0A2D4:  CALL   398E
....................             SendDataDisplay();  
0A2D8:  CALL   39C0
....................             Aire=OFF; 
0A2DC:  BCF    xA4.4
....................          } 
....................           
....................           
....................          if(RX_Buffer[4]==0x04)//Oprimio SSR1 
0A2DE:  MOVF   34,W
0A2E0:  SUBLW  04
0A2E2:  BNZ   A2EA
....................          { 
....................             EstadoSSR=!EstadoSSR; 
0A2E4:  BTG    xA1.2
....................             RX_Buffer[4]=0x00; 
0A2E6:  CLRF   34
....................             RX_Buffer2[4]=0x00; 
0A2E8:  CLRF   3F
....................          } 
....................           
....................          if(EstadoSSR){ 
0A2EA:  BTFSS  xA1.2
0A2EC:  BRA    A308
....................             printf("b3.bco=2016"); 
0A2EE:  MOVLW  D6
0A2F0:  MOVWF  FF6
0A2F2:  MOVLW  0D
0A2F4:  MOVWF  FF7
0A2F6:  MOVLW  00
0A2F8:  MOVWF  FF8
0A2FA:  CALL   398E
....................             SendDataDisplay();  
0A2FE:  CALL   39C0
....................             SSR_on; 
0A302:  BCF    F8B.2
0A304:  BCF    F94.2
....................          } 
....................          else{ 
0A306:  BRA    A320
....................             printf("b3.bco=63488"); 
0A308:  MOVLW  E2
0A30A:  MOVWF  FF6
0A30C:  MOVLW  0D
0A30E:  MOVWF  FF7
0A310:  MOVLW  00
0A312:  MOVWF  FF8
0A314:  CALL   398E
....................             SendDataDisplay();  
0A318:  CALL   39C0
....................             SSR_off; 
0A31C:  BSF    F8B.2
0A31E:  BCF    F94.2
....................          } 
....................           
....................          if(DOOR){ 
0A320:  BSF    F93.6
0A322:  BTFSC  F81.6
0A324:  BRA    A33C
....................             printf("b8.bco=2016"); 
0A326:  MOVLW  F0
0A328:  MOVWF  FF6
0A32A:  MOVLW  0D
0A32C:  MOVWF  FF7
0A32E:  MOVLW  00
0A330:  MOVWF  FF8
0A332:  CALL   398E
....................             SendDataDisplay();  
0A336:  CALL   39C0
....................          }else{ 
0A33A:  BRA    A350
....................             printf("b8.bco=63488"); 
0A33C:  MOVLW  FC
0A33E:  MOVWF  FF6
0A340:  MOVLW  0D
0A342:  MOVWF  FF7
0A344:  MOVLW  00
0A346:  MOVWF  FF8
0A348:  CALL   398E
....................             SendDataDisplay();  
0A34C:  CALL   39C0
....................          } 
....................           
....................          if(TERM){ 
0A350:  BSF    F93.5
0A352:  BTFSC  F81.5
0A354:  BRA    A36C
....................             printf("b9.bco=2016"); 
0A356:  MOVLW  0A
0A358:  MOVWF  FF6
0A35A:  MOVLW  0E
0A35C:  MOVWF  FF7
0A35E:  MOVLW  00
0A360:  MOVWF  FF8
0A362:  CALL   398E
....................             SendDataDisplay();  
0A366:  CALL   39C0
....................          }else{ 
0A36A:  BRA    A380
....................             printf("b9.bco=63488"); 
0A36C:  MOVLW  16
0A36E:  MOVWF  FF6
0A370:  MOVLW  0E
0A372:  MOVWF  FF7
0A374:  MOVLW  00
0A376:  MOVWF  FF8
0A378:  CALL   398E
....................             SendDataDisplay();  
0A37C:  CALL   39C0
....................          } 
....................           
....................          if(STOP){ 
0A380:  BSF    F93.7
0A382:  BTFSC  F81.7
0A384:  BRA    A39C
....................             printf("b10.bco=2016"); 
0A386:  MOVLW  24
0A388:  MOVWF  FF6
0A38A:  MOVLW  0E
0A38C:  MOVWF  FF7
0A38E:  MOVLW  00
0A390:  MOVWF  FF8
0A392:  CALL   398E
....................             SendDataDisplay();  
0A396:  CALL   39C0
....................          }else{ 
0A39A:  BRA    A3B0
....................             printf("b10.bco=63488"); 
0A39C:  MOVLW  32
0A39E:  MOVWF  FF6
0A3A0:  MOVLW  0E
0A3A2:  MOVWF  FF7
0A3A4:  MOVLW  00
0A3A6:  MOVWF  FF8
0A3A8:  CALL   398E
....................             SendDataDisplay();  
0A3AC:  CALL   39C0
....................          } 
....................           
....................          /*if(PRES){ 
....................             printf("b11.bco=2016"); 
....................             SendDataDisplay();  
....................          }else{ 
....................             printf("b11.bco=63488"); 
....................             SendDataDisplay();  
....................          }*/ 
....................           
....................          if(RX_Buffer[4]==0x13)//Oprimio Buzzer 
0A3B0:  MOVF   34,W
0A3B2:  SUBLW  13
0A3B4:  BNZ   A3BC
....................          { 
....................             EstadoBuzzer=!EstadoBuzzer; 
0A3B6:  BTG    xA3.0
....................             RX_Buffer[4]=0x00; 
0A3B8:  CLRF   34
....................             RX_Buffer2[4]=0x00; 
0A3BA:  CLRF   3F
....................          } 
....................           
....................          if(EstadoBuzzer){ 
0A3BC:  BTFSS  xA3.0
0A3BE:  BRA    A3DA
....................             printf("b12.bco=2016"); 
0A3C0:  MOVLW  40
0A3C2:  MOVWF  FF6
0A3C4:  MOVLW  0E
0A3C6:  MOVWF  FF7
0A3C8:  MOVLW  00
0A3CA:  MOVWF  FF8
0A3CC:  CALL   398E
....................             SendDataDisplay();  
0A3D0:  CALL   39C0
....................             Buzzer_on; 
0A3D4:  BSF    F8C.0
0A3D6:  BCF    F95.0
....................          } 
....................          else{ 
0A3D8:  BRA    A3F2
....................             printf("b12.bco=63488"); 
0A3DA:  MOVLW  4E
0A3DC:  MOVWF  FF6
0A3DE:  MOVLW  0E
0A3E0:  MOVWF  FF7
0A3E2:  MOVLW  00
0A3E4:  MOVWF  FF8
0A3E6:  CALL   398E
....................             SendDataDisplay();  
0A3EA:  CALL   39C0
....................             Buzzer_off; 
0A3EE:  BCF    F8C.0
0A3F0:  BCF    F95.0
....................          } 
....................           
....................          if(HIG){ 
0A3F2:  BSF    F94.0
0A3F4:  BTFSS  F82.0
0A3F6:  BRA    A40E
....................             printf("b16.bco=2016"); 
0A3F8:  MOVLW  5C
0A3FA:  MOVWF  FF6
0A3FC:  MOVLW  0E
0A3FE:  MOVWF  FF7
0A400:  MOVLW  00
0A402:  MOVWF  FF8
0A404:  CALL   398E
....................             SendDataDisplay();  
0A408:  CALL   39C0
....................          }else{ 
0A40C:  BRA    A422
....................             printf("b16.bco=63488"); 
0A40E:  MOVLW  6A
0A410:  MOVWF  FF6
0A412:  MOVLW  0E
0A414:  MOVWF  FF7
0A416:  MOVLW  00
0A418:  MOVWF  FF8
0A41A:  CALL   398E
....................             SendDataDisplay();  
0A41E:  CALL   39C0
....................          } 
....................           
....................          if(LOW){ 
0A422:  BSF    F94.1
0A424:  BTFSS  F82.1
0A426:  BRA    A43E
....................             printf("b17.bco=2016"); 
0A428:  MOVLW  78
0A42A:  MOVWF  FF6
0A42C:  MOVLW  0E
0A42E:  MOVWF  FF7
0A430:  MOVLW  00
0A432:  MOVWF  FF8
0A434:  CALL   398E
....................             SendDataDisplay();  
0A438:  CALL   39C0
....................          }else{ 
0A43C:  BRA    A452
....................             printf("b17.bco=63488"); 
0A43E:  MOVLW  86
0A440:  MOVWF  FF6
0A442:  MOVLW  0E
0A444:  MOVWF  FF7
0A446:  MOVLW  00
0A448:  MOVWF  FF8
0A44A:  CALL   398E
....................             SendDataDisplay();  
0A44E:  CALL   39C0
....................          } 
....................           
....................          printf("b13.txt=\"ADC0:%3.0f\"",sensores(0));          
0A452:  MOVLB  4
0A454:  CLRF   x4F
0A456:  MOVLB  0
0A458:  CALL   3A14
0A45C:  MOVFF  00,446
0A460:  MOVFF  01,447
0A464:  MOVFF  02,448
0A468:  MOVFF  03,449
0A46C:  MOVLW  94
0A46E:  MOVWF  FF6
0A470:  MOVLW  0E
0A472:  MOVWF  FF7
0A474:  MOVLW  00
0A476:  MOVWF  FF8
0A478:  MOVLW  0E
0A47A:  MOVLB  4
0A47C:  MOVWF  x4B
0A47E:  MOVLB  0
0A480:  CALL   4ABC
0A484:  MOVLW  02
0A486:  MOVWF  FE9
0A488:  MOVFF  449,44E
0A48C:  MOVFF  448,44D
0A490:  MOVFF  447,44C
0A494:  MOVFF  446,44B
0A498:  MOVLB  4
0A49A:  CLRF   x4F
0A49C:  MOVLB  0
0A49E:  CALL   4DE8
0A4A2:  MOVLW  22
0A4A4:  BTFSS  F9E.4
0A4A6:  BRA    A4A4
0A4A8:  MOVWF  FAD
....................          SendDataDisplay(); 
0A4AA:  CALL   39C0
....................          printf("b14.txt=\"ADC1:%3.0f\"",sensores(1));          
0A4AE:  MOVLW  01
0A4B0:  MOVLB  4
0A4B2:  MOVWF  x4F
0A4B4:  MOVLB  0
0A4B6:  CALL   3A14
0A4BA:  MOVFF  00,446
0A4BE:  MOVFF  01,447
0A4C2:  MOVFF  02,448
0A4C6:  MOVFF  03,449
0A4CA:  MOVLW  AA
0A4CC:  MOVWF  FF6
0A4CE:  MOVLW  0E
0A4D0:  MOVWF  FF7
0A4D2:  MOVLW  00
0A4D4:  MOVWF  FF8
0A4D6:  MOVLW  0E
0A4D8:  MOVLB  4
0A4DA:  MOVWF  x4B
0A4DC:  MOVLB  0
0A4DE:  CALL   4ABC
0A4E2:  MOVLW  02
0A4E4:  MOVWF  FE9
0A4E6:  MOVFF  449,44E
0A4EA:  MOVFF  448,44D
0A4EE:  MOVFF  447,44C
0A4F2:  MOVFF  446,44B
0A4F6:  MOVLB  4
0A4F8:  CLRF   x4F
0A4FA:  MOVLB  0
0A4FC:  CALL   4DE8
0A500:  MOVLW  22
0A502:  BTFSS  F9E.4
0A504:  BRA    A502
0A506:  MOVWF  FAD
....................          SendDataDisplay(); 
0A508:  CALL   39C0
....................          printf("b15.txt=\"A2:%3.0f %03Lu\"",sensores(2),PresionCamara); 
0A50C:  MOVLW  02
0A50E:  MOVLB  4
0A510:  MOVWF  x4F
0A512:  MOVLB  0
0A514:  CALL   3A14
0A518:  MOVFF  00,446
0A51C:  MOVFF  01,447
0A520:  MOVFF  02,448
0A524:  MOVFF  03,449
0A528:  MOVLW  C0
0A52A:  MOVWF  FF6
0A52C:  MOVLW  0E
0A52E:  MOVWF  FF7
0A530:  MOVLW  00
0A532:  MOVWF  FF8
0A534:  MOVLW  0C
0A536:  MOVLB  4
0A538:  MOVWF  x4B
0A53A:  MOVLB  0
0A53C:  CALL   4ABC
0A540:  MOVLW  02
0A542:  MOVWF  FE9
0A544:  MOVFF  449,44E
0A548:  MOVFF  448,44D
0A54C:  MOVFF  447,44C
0A550:  MOVFF  446,44B
0A554:  MOVLB  4
0A556:  CLRF   x4F
0A558:  MOVLB  0
0A55A:  CALL   4DE8
0A55E:  MOVLW  20
0A560:  BTFSS  F9E.4
0A562:  BRA    A560
0A564:  MOVWF  FAD
0A566:  MOVLW  0A
0A568:  MOVWF  FE9
0A56A:  MOVFF  37F,44B
0A56E:  MOVFF  37E,44A
0A572:  CALL   4C7A
0A576:  MOVLW  22
0A578:  BTFSS  F9E.4
0A57A:  BRA    A578
0A57C:  MOVWF  FAD
....................          SendDataDisplay(); 
0A57E:  CALL   39C0
....................          printf("b18.txt=\"A3:%3.0f %03Lu\"",sensores(3),PresionPreCamara); 
0A582:  MOVLW  03
0A584:  MOVLB  4
0A586:  MOVWF  x4F
0A588:  MOVLB  0
0A58A:  CALL   3A14
0A58E:  MOVFF  00,446
0A592:  MOVFF  01,447
0A596:  MOVFF  02,448
0A59A:  MOVFF  03,449
0A59E:  MOVLW  DA
0A5A0:  MOVWF  FF6
0A5A2:  MOVLW  0E
0A5A4:  MOVWF  FF7
0A5A6:  MOVLW  00
0A5A8:  MOVWF  FF8
0A5AA:  MOVLW  0C
0A5AC:  MOVLB  4
0A5AE:  MOVWF  x4B
0A5B0:  MOVLB  0
0A5B2:  CALL   4ABC
0A5B6:  MOVLW  02
0A5B8:  MOVWF  FE9
0A5BA:  MOVFF  449,44E
0A5BE:  MOVFF  448,44D
0A5C2:  MOVFF  447,44C
0A5C6:  MOVFF  446,44B
0A5CA:  MOVLB  4
0A5CC:  CLRF   x4F
0A5CE:  MOVLB  0
0A5D0:  CALL   4DE8
0A5D4:  MOVLW  20
0A5D6:  BTFSS  F9E.4
0A5D8:  BRA    A5D6
0A5DA:  MOVWF  FAD
0A5DC:  MOVLW  0A
0A5DE:  MOVWF  FE9
0A5E0:  MOVFF  381,44B
0A5E4:  MOVFF  380,44A
0A5E8:  CALL   4C7A
0A5EC:  MOVLW  22
0A5EE:  BTFSS  F9E.4
0A5F0:  BRA    A5EE
0A5F2:  MOVWF  FAD
....................          SendDataDisplay(); 
0A5F4:  CALL   39C0
....................          printf("b20.txt=\"T1:%3.1f\"",Temperatura); 
0A5F8:  MOVLW  F4
0A5FA:  MOVWF  FF6
0A5FC:  MOVLW  0E
0A5FE:  MOVWF  FF7
0A600:  MOVLW  00
0A602:  MOVWF  FF8
0A604:  MOVLW  0C
0A606:  MOVLB  4
0A608:  MOVWF  x4B
0A60A:  MOVLB  0
0A60C:  CALL   4ABC
0A610:  MOVLW  02
0A612:  MOVWF  FE9
0A614:  MOVFF  332,44E
0A618:  MOVFF  331,44D
0A61C:  MOVFF  330,44C
0A620:  MOVFF  32F,44B
0A624:  MOVLW  01
0A626:  MOVLB  4
0A628:  MOVWF  x4F
0A62A:  MOVLB  0
0A62C:  CALL   4DE8
0A630:  MOVLW  22
0A632:  BTFSS  F9E.4
0A634:  BRA    A632
0A636:  MOVWF  FAD
....................          SendDataDisplay(); 
0A638:  CALL   39C0
....................           
....................          if(RX_Buffer[4]==0x21 || LEFT){//Oprimio salir 
0A63C:  MOVF   34,W
0A63E:  SUBLW  21
0A640:  BZ    A648
0A642:  BSF    F93.3
0A644:  BTFSC  F81.3
0A646:  BRA    A690
....................             delay_ms(100); 
0A648:  MOVLW  64
0A64A:  MOVLB  4
0A64C:  MOVWF  x5B
0A64E:  MOVLB  0
0A650:  CALL   1AC8
....................             if(RX_Buffer[4]==0x21 || LEFT){ 
0A654:  MOVF   34,W
0A656:  SUBLW  21
0A658:  BZ    A660
0A65A:  BSF    F93.3
0A65C:  BTFSC  F81.3
0A65E:  BRA    A690
....................                printf("page MenuPrincipal"); 
0A660:  MOVLW  08
0A662:  MOVWF  FF6
0A664:  MOVLW  0F
0A666:  MOVWF  FF7
0A668:  MOVLW  00
0A66A:  MOVWF  FF8
0A66C:  CALL   398E
....................                SendDataDisplay(); 
0A670:  CALL   39C0
....................                PantallaPrincipal=0; 
0A674:  MOVLB  2
0A676:  CLRF   xE4
....................                PruebaEstados=OFF;Desfogue_off;Agua_off; 
0A678:  MOVLB  0
0A67A:  BCF    xA1.3
0A67C:  BCF    F8C.4
0A67E:  BCF    F95.4
0A680:  BCF    F8C.5
0A682:  BCF    F95.5
....................                #ifdef Generador 
....................                Paso_off; 
0A684:  BCF    F8C.6
0A686:  BCF    F95.6
....................                #else 
....................                Bomba_off; 
....................                #endif 
....................                SSR_off; 
0A688:  BSF    F8B.2
0A68A:  BCF    F94.2
....................                ApagaSalidas(); 
0A68C:  CALL   39F6
....................                // Falta apagar Todo 
....................             } 
....................          } 
....................           
....................          if(UP){ 
0A690:  BSF    F93.0
0A692:  BTFSC  F81.0
0A694:  BRA    A7D8
....................             delay_ms(100); 
0A696:  MOVLW  64
0A698:  MOVLB  4
0A69A:  MOVWF  x5B
0A69C:  MOVLB  0
0A69E:  CALL   1AC8
....................             if(UP){ 
0A6A2:  BSF    F93.0
0A6A4:  BTFSC  F81.0
0A6A6:  BRA    A7D8
....................                G1=41-sensores(2); 
0A6A8:  MOVLW  02
0A6AA:  MOVLB  4
0A6AC:  MOVWF  x4F
0A6AE:  MOVLB  0
0A6B0:  CALL   3A14
0A6B4:  MOVFF  FEA,447
0A6B8:  MOVFF  FE9,446
0A6BC:  BSF    FD8.1
0A6BE:  MOVLB  4
0A6C0:  CLRF   x5E
0A6C2:  CLRF   x5D
0A6C4:  MOVLW  24
0A6C6:  MOVWF  x5C
0A6C8:  MOVLW  84
0A6CA:  MOVWF  x5B
0A6CC:  MOVFF  03,462
0A6D0:  MOVFF  02,461
0A6D4:  MOVFF  01,460
0A6D8:  MOVFF  00,45F
0A6DC:  MOVLB  0
0A6DE:  CALL   1C84
0A6E2:  MOVFF  447,FEA
0A6E6:  MOVFF  446,FE9
0A6EA:  MOVFF  03,45E
0A6EE:  MOVFF  02,45D
0A6F2:  MOVFF  01,45C
0A6F6:  MOVFF  00,45B
0A6FA:  CALL   41C6
0A6FE:  MOVFF  01,3B6
....................                if(G1<0) 
0A702:  MOVLB  3
0A704:  BTFSC  xB6.7
0A706:  BRA    A70A
0A708:  BRA    A710
....................                   sg1=10; 
0A70A:  MOVLW  0A
0A70C:  MOVWF  xB8
....................                else 
0A70E:  BRA    A714
....................                   sg1=5; 
0A710:  MOVLW  05
0A712:  MOVWF  xB8
....................                    
....................                write_eeprom(42,(int8)G1); 
0A714:  CLRF   FAA
0A716:  MOVLW  2A
0A718:  MOVWF  FA9
0A71A:  MOVFF  3B6,FA8
0A71E:  BCF    FA6.6
0A720:  BCF    FA6.7
0A722:  BSF    FA6.2
0A724:  MOVF   FF2,W
0A726:  MOVWF  00
0A728:  BCF    FF2.6
0A72A:  BCF    FF2.7
0A72C:  MOVLB  F
0A72E:  MOVLW  55
0A730:  MOVWF  FA7
0A732:  MOVLW  AA
0A734:  MOVWF  FA7
0A736:  BSF    FA6.1
0A738:  BTFSC  FA6.1
0A73A:  BRA    A738
0A73C:  BCF    FA6.2
0A73E:  MOVF   00,W
0A740:  IORWF  FF2,F
....................                delay_ms(10); 
0A742:  MOVLW  0A
0A744:  MOVLB  4
0A746:  MOVWF  x5B
0A748:  MOVLB  0
0A74A:  CALL   1AC8
....................                write_eeprom(44,(int8)sg1); 
0A74E:  CLRF   FAA
0A750:  MOVLW  2C
0A752:  MOVWF  FA9
0A754:  MOVFF  3B8,FA8
0A758:  BCF    FA6.6
0A75A:  BCF    FA6.7
0A75C:  BSF    FA6.2
0A75E:  MOVF   FF2,W
0A760:  MOVWF  00
0A762:  BCF    FF2.6
0A764:  BCF    FF2.7
0A766:  MOVLB  F
0A768:  MOVLW  55
0A76A:  MOVWF  FA7
0A76C:  MOVLW  AA
0A76E:  MOVWF  FA7
0A770:  BSF    FA6.1
0A772:  BTFSC  FA6.1
0A774:  BRA    A772
0A776:  BCF    FA6.2
0A778:  MOVF   00,W
0A77A:  IORWF  FF2,F
....................                delay_ms(10); 
0A77C:  MOVLW  0A
0A77E:  MOVLB  4
0A780:  MOVWF  x5B
0A782:  MOVLB  0
0A784:  CALL   1AC8
....................                Buzzer_on; 
0A788:  BSF    F8C.0
0A78A:  BCF    F95.0
....................                delay_ms(1000); 
0A78C:  MOVLW  04
0A78E:  MOVLB  4
0A790:  MOVWF  x46
0A792:  MOVLW  FA
0A794:  MOVWF  x5B
0A796:  MOVLB  0
0A798:  CALL   1AC8
0A79C:  MOVLB  4
0A79E:  DECFSZ x46,F
0A7A0:  BRA    A792
....................                Buzzer_off; 
0A7A2:  BCF    F8C.0
0A7A4:  BCF    F95.0
....................                delay_ms(1000); 
0A7A6:  MOVLW  04
0A7A8:  MOVWF  x46
0A7AA:  MOVLW  FA
0A7AC:  MOVWF  x5B
0A7AE:  MOVLB  0
0A7B0:  CALL   1AC8
0A7B4:  MOVLB  4
0A7B6:  DECFSZ x46,F
0A7B8:  BRA    A7AA
....................                Buzzer_on; 
0A7BA:  BSF    F8C.0
0A7BC:  BCF    F95.0
....................                delay_ms(1000); 
0A7BE:  MOVLW  04
0A7C0:  MOVWF  x46
0A7C2:  MOVLW  FA
0A7C4:  MOVWF  x5B
0A7C6:  MOVLB  0
0A7C8:  CALL   1AC8
0A7CC:  MOVLB  4
0A7CE:  DECFSZ x46,F
0A7D0:  BRA    A7C2
....................                Buzzer_off; 
0A7D2:  BCF    F8C.0
0A7D4:  BCF    F95.0
0A7D6:  MOVLB  0
....................             } 
....................          } 
....................           
....................          if(DOWN){ 
0A7D8:  BSF    F93.1
0A7DA:  BTFSC  F81.1
0A7DC:  BRA    A920
....................             delay_ms(100); 
0A7DE:  MOVLW  64
0A7E0:  MOVLB  4
0A7E2:  MOVWF  x5B
0A7E4:  MOVLB  0
0A7E6:  CALL   1AC8
....................             if(DOWN){ 
0A7EA:  BSF    F93.1
0A7EC:  BTFSC  F81.1
0A7EE:  BRA    A920
....................                G2=41-sensores(3); 
0A7F0:  MOVLW  03
0A7F2:  MOVLB  4
0A7F4:  MOVWF  x4F
0A7F6:  MOVLB  0
0A7F8:  CALL   3A14
0A7FC:  MOVFF  FEA,447
0A800:  MOVFF  FE9,446
0A804:  BSF    FD8.1
0A806:  MOVLB  4
0A808:  CLRF   x5E
0A80A:  CLRF   x5D
0A80C:  MOVLW  24
0A80E:  MOVWF  x5C
0A810:  MOVLW  84
0A812:  MOVWF  x5B
0A814:  MOVFF  03,462
0A818:  MOVFF  02,461
0A81C:  MOVFF  01,460
0A820:  MOVFF  00,45F
0A824:  MOVLB  0
0A826:  CALL   1C84
0A82A:  MOVFF  447,FEA
0A82E:  MOVFF  446,FE9
0A832:  MOVFF  03,45E
0A836:  MOVFF  02,45D
0A83A:  MOVFF  01,45C
0A83E:  MOVFF  00,45B
0A842:  CALL   41C6
0A846:  MOVFF  01,3B7
....................                if(G2<0) 
0A84A:  MOVLB  3
0A84C:  BTFSC  xB7.7
0A84E:  BRA    A852
0A850:  BRA    A858
....................                   sg2=10; 
0A852:  MOVLW  0A
0A854:  MOVWF  xB9
....................                else 
0A856:  BRA    A85C
....................                   sg2=5; 
0A858:  MOVLW  05
0A85A:  MOVWF  xB9
....................                    
....................                write_eeprom(43,(int8)G2); 
0A85C:  CLRF   FAA
0A85E:  MOVLW  2B
0A860:  MOVWF  FA9
0A862:  MOVFF  3B7,FA8
0A866:  BCF    FA6.6
0A868:  BCF    FA6.7
0A86A:  BSF    FA6.2
0A86C:  MOVF   FF2,W
0A86E:  MOVWF  00
0A870:  BCF    FF2.6
0A872:  BCF    FF2.7
0A874:  MOVLB  F
0A876:  MOVLW  55
0A878:  MOVWF  FA7
0A87A:  MOVLW  AA
0A87C:  MOVWF  FA7
0A87E:  BSF    FA6.1
0A880:  BTFSC  FA6.1
0A882:  BRA    A880
0A884:  BCF    FA6.2
0A886:  MOVF   00,W
0A888:  IORWF  FF2,F
....................                delay_ms(10); 
0A88A:  MOVLW  0A
0A88C:  MOVLB  4
0A88E:  MOVWF  x5B
0A890:  MOVLB  0
0A892:  CALL   1AC8
....................                write_eeprom(45,(int8)sg2); 
0A896:  CLRF   FAA
0A898:  MOVLW  2D
0A89A:  MOVWF  FA9
0A89C:  MOVFF  3B9,FA8
0A8A0:  BCF    FA6.6
0A8A2:  BCF    FA6.7
0A8A4:  BSF    FA6.2
0A8A6:  MOVF   FF2,W
0A8A8:  MOVWF  00
0A8AA:  BCF    FF2.6
0A8AC:  BCF    FF2.7
0A8AE:  MOVLB  F
0A8B0:  MOVLW  55
0A8B2:  MOVWF  FA7
0A8B4:  MOVLW  AA
0A8B6:  MOVWF  FA7
0A8B8:  BSF    FA6.1
0A8BA:  BTFSC  FA6.1
0A8BC:  BRA    A8BA
0A8BE:  BCF    FA6.2
0A8C0:  MOVF   00,W
0A8C2:  IORWF  FF2,F
....................                delay_ms(10); 
0A8C4:  MOVLW  0A
0A8C6:  MOVLB  4
0A8C8:  MOVWF  x5B
0A8CA:  MOVLB  0
0A8CC:  CALL   1AC8
....................                Buzzer_on; 
0A8D0:  BSF    F8C.0
0A8D2:  BCF    F95.0
....................                delay_ms(1000); 
0A8D4:  MOVLW  04
0A8D6:  MOVLB  4
0A8D8:  MOVWF  x46
0A8DA:  MOVLW  FA
0A8DC:  MOVWF  x5B
0A8DE:  MOVLB  0
0A8E0:  CALL   1AC8
0A8E4:  MOVLB  4
0A8E6:  DECFSZ x46,F
0A8E8:  BRA    A8DA
....................                Buzzer_off; 
0A8EA:  BCF    F8C.0
0A8EC:  BCF    F95.0
....................                delay_ms(1000); 
0A8EE:  MOVLW  04
0A8F0:  MOVWF  x46
0A8F2:  MOVLW  FA
0A8F4:  MOVWF  x5B
0A8F6:  MOVLB  0
0A8F8:  CALL   1AC8
0A8FC:  MOVLB  4
0A8FE:  DECFSZ x46,F
0A900:  BRA    A8F2
....................                Buzzer_on; 
0A902:  BSF    F8C.0
0A904:  BCF    F95.0
....................                delay_ms(1000); 
0A906:  MOVLW  04
0A908:  MOVWF  x46
0A90A:  MOVLW  FA
0A90C:  MOVWF  x5B
0A90E:  MOVLB  0
0A910:  CALL   1AC8
0A914:  MOVLB  4
0A916:  DECFSZ x46,F
0A918:  BRA    A90A
....................                Buzzer_off; 
0A91A:  BCF    F8C.0
0A91C:  BCF    F95.0
0A91E:  MOVLB  0
0A920:  MOVLB  3
....................             } 
....................          } 
....................      } 
.................... //_--------------------------------------------------------------------------------------------------------------------------------------------------------     
....................  
.................... //_--------------------------------------------------------------------------------------------------------------------------------------------------------       
....................       if(Menu==7){ //Menu de Configuracin de Fecha y Hora 
0A922:  MOVF   x64,W
0A924:  SUBLW  07
0A926:  BTFSS  FD8.2
0A928:  BRA    AD50
....................           
....................          if(RX_Buffer[4]==0x0a){//Selecciono Hora 
0A92A:  MOVF   34,W
0A92C:  SUBLW  0A
0A92E:  BNZ   A934
....................             Opcion=4; 
0A930:  MOVLW  04
0A932:  MOVWF  x6C
....................          } 
....................           
....................          if(RX_Buffer[4]==0x0b){//Selecciono Minuto 
0A934:  MOVF   34,W
0A936:  SUBLW  0B
0A938:  BNZ   A93E
....................             Opcion=5; 
0A93A:  MOVLW  05
0A93C:  MOVWF  x6C
....................          } 
....................           
....................          if(RX_Buffer[4]==0x0c){//Selecciono Dia 
0A93E:  MOVF   34,W
0A940:  SUBLW  0C
0A942:  BNZ   A948
....................             Opcion=1; 
0A944:  MOVLW  01
0A946:  MOVWF  x6C
....................          } 
....................           
....................          if(RX_Buffer[4]==0x0d){//Selecciono Hora 
0A948:  MOVF   34,W
0A94A:  SUBLW  0D
0A94C:  BNZ   A952
....................             Opcion=2; 
0A94E:  MOVLW  02
0A950:  MOVWF  x6C
....................          } 
....................           
....................          if(RX_Buffer[4]==0x0e){//Selecciono Year 
0A952:  MOVF   34,W
0A954:  SUBLW  0E
0A956:  BNZ   A95C
....................             Opcion=3; 
0A958:  MOVLW  03
0A95A:  MOVWF  x6C
....................          } 
....................           
....................          if(RIGHT){ 
0A95C:  BSF    F93.2
0A95E:  BTFSC  F81.2
0A960:  BRA    A978
....................             delay_ms(200); 
0A962:  MOVLW  C8
0A964:  MOVLB  4
0A966:  MOVWF  x5B
0A968:  MOVLB  0
0A96A:  CALL   1AC8
....................             if(RIGHT){ 
0A96E:  BSF    F93.2
0A970:  BTFSC  F81.2
0A972:  BRA    A97A
....................                Opcion++; 
0A974:  MOVLB  3
0A976:  INCF   x6C,F
0A978:  MOVLB  0
....................             } 
....................          } 
....................          if(Opcion>5) 
0A97A:  MOVLB  3
0A97C:  MOVF   x6C,W
0A97E:  SUBLW  05
0A980:  BC    A986
....................             Opcion=1; 
0A982:  MOVLW  01
0A984:  MOVWF  x6C
....................          if(Opcion<1) 
0A986:  MOVF   x6C,F
0A988:  BNZ   A98E
....................             Opcion=5; 
0A98A:  MOVLW  05
0A98C:  MOVWF  x6C
....................              
....................          if(RX_Buffer[4]==0x11 || LEFT){//Selecciono Regresar 
0A98E:  MOVF   34,W
0A990:  SUBLW  11
0A992:  BZ    A99A
0A994:  BSF    F93.3
0A996:  BTFSC  F81.3
0A998:  BRA    AAB2
....................             printf("page MenuPrincipal"); 
0A99A:  MOVLW  1C
0A99C:  MOVWF  FF6
0A99E:  MOVLW  0F
0A9A0:  MOVWF  FF7
0A9A2:  MOVLW  00
0A9A4:  MOVWF  FF8
0A9A6:  MOVLB  0
0A9A8:  CALL   398E
....................             SendDataDisplay();   
0A9AC:  CALL   39C0
....................             PantallaPrincipal=0; 
0A9B0:  MOVLB  2
0A9B2:  CLRF   xE4
....................             Op=OFF; 
0A9B4:  MOVLB  0
0A9B6:  BCF    xA2.2
....................             Op2=OFF; 
0A9B8:  BCF    xA2.3
....................              
....................             if(esBisiesto(YearTx)) 
0A9BA:  MOVFF  3AC,446
0A9BE:  CALL   5466
0A9C2:  MOVF   01,F
0A9C4:  BZ    A9E0
....................                Modulo=Bisiesto[MesTx]; 
0A9C6:  CLRF   03
0A9C8:  MOVLB  3
0A9CA:  MOVF   xAD,W
0A9CC:  ADDLW  93
0A9CE:  MOVWF  FE9
0A9D0:  MOVLW  00
0A9D2:  ADDWFC 03,W
0A9D4:  MOVWF  FEA
0A9D6:  MOVFF  FEF,2E6
0A9DA:  MOVLB  2
....................             else 
0A9DC:  BRA    A9F6
0A9DE:  MOVLB  0
....................                Modulo=Regular[MesTx]; 
0A9E0:  CLRF   03
0A9E2:  MOVLB  3
0A9E4:  MOVF   xAD,W
0A9E6:  ADDLW  87
0A9E8:  MOVWF  FE9
0A9EA:  MOVLW  00
0A9EC:  ADDWFC 03,W
0A9EE:  MOVWF  FEA
0A9F0:  MOVFF  FEF,2E6
0A9F4:  MOVLB  2
....................           
....................             dowTx=((YearTx-1)%7+((YearTx-1)/4-3*((YearTx-1)/100+1)/4)%7+Modulo+DiaTx%7)%7; 
0A9F6:  MOVLW  01
0A9F8:  MOVLB  3
0A9FA:  SUBWF  xAC,W
0A9FC:  MOVLB  4
0A9FE:  MOVWF  x47
0AA00:  MOVWF  x50
0AA02:  MOVLW  07
0AA04:  MOVWF  x51
0AA06:  MOVLB  0
0AA08:  CALL   4AEE
0AA0C:  MOVFF  00,446
0AA10:  MOVLW  01
0AA12:  MOVLB  3
0AA14:  SUBWF  xAC,W
0AA16:  MOVWF  00
0AA18:  RRCF   00,W
0AA1A:  MOVLB  4
0AA1C:  MOVWF  x47
0AA1E:  RRCF   x47,F
0AA20:  MOVLW  3F
0AA22:  ANDWF  x47,F
0AA24:  MOVLW  01
0AA26:  MOVLB  3
0AA28:  SUBWF  xAC,W
0AA2A:  MOVLB  4
0AA2C:  MOVWF  x49
0AA2E:  MOVWF  x50
0AA30:  MOVLW  64
0AA32:  MOVWF  x51
0AA34:  MOVLB  0
0AA36:  CALL   4AEE
0AA3A:  MOVLW  01
0AA3C:  ADDWF  01,W
0AA3E:  MULLW  03
0AA40:  MOVFF  FF3,00
0AA44:  RRCF   00,F
0AA46:  RRCF   00,F
0AA48:  MOVLW  3F
0AA4A:  ANDWF  00,F
0AA4C:  MOVF   00,W
0AA4E:  MOVLB  4
0AA50:  SUBWF  x47,W
0AA52:  MOVWF  x48
0AA54:  MOVWF  x50
0AA56:  MOVLW  07
0AA58:  MOVWF  x51
0AA5A:  MOVLB  0
0AA5C:  CALL   4AEE
0AA60:  MOVF   00,W
0AA62:  MOVLB  4
0AA64:  ADDWF  x46,W
0AA66:  MOVLB  2
0AA68:  ADDWF  xE6,W
0AA6A:  MOVLB  4
0AA6C:  MOVWF  x46
0AA6E:  MOVFF  3AE,450
0AA72:  MOVLW  07
0AA74:  MOVWF  x51
0AA76:  MOVLB  0
0AA78:  CALL   4AEE
0AA7C:  MOVF   00,W
0AA7E:  MOVLB  4
0AA80:  ADDWF  x46,W
0AA82:  MOVWF  x47
0AA84:  MOVWF  x50
0AA86:  MOVLW  07
0AA88:  MOVWF  x51
0AA8A:  MOVLB  0
0AA8C:  CALL   4AEE
0AA90:  MOVFF  00,3B2
....................             rtc_set_datetime(DiaTx,MesTx,YearTx,dowTx,HoraTx,MinutoTx); 
0AA94:  MOVFF  3AE,446
0AA98:  MOVFF  3AD,447
0AA9C:  MOVFF  3AC,448
0AAA0:  MOVFF  3B2,449
0AAA4:  MOVFF  3AF,44A
0AAA8:  MOVFF  3B0,44B
0AAAC:  GOTO   54EC
0AAB0:  MOVLB  3
....................          } 
....................           
....................          if((RX_Buffer[4]==0x2a)|| UP){//Tecla Arriba Oprimida 
0AAB2:  MOVF   34,W
0AAB4:  SUBLW  2A
0AAB6:  BZ    AABE
0AAB8:  BSF    F93.0
0AABA:  BTFSC  F81.0
0AABC:  BRA    ABBC
....................             delay_ms(200); 
0AABE:  MOVLW  C8
0AAC0:  MOVLB  4
0AAC2:  MOVWF  x5B
0AAC4:  MOVLB  0
0AAC6:  CALL   1AC8
....................             if((RX_Buffer[4]==0x2a)|| UP){    
0AACA:  MOVF   34,W
0AACC:  SUBLW  2A
0AACE:  BZ    AAD6
0AAD0:  BSF    F93.0
0AAD2:  BTFSC  F81.0
0AAD4:  BRA    ABBE
....................                if(Opcion==1){ 
0AAD6:  MOVLB  3
0AAD8:  DECFSZ x6C,W
0AADA:  BRA    AB68
....................                   if(MesTx==2){ 
0AADC:  MOVF   xAD,W
0AADE:  SUBLW  02
0AAE0:  BNZ   AB16
....................                      if(esBisiesto(YearTx)){ 
0AAE2:  MOVFF  3AC,446
0AAE6:  MOVLB  0
0AAE8:  CALL   5466
0AAEC:  MOVF   01,F
0AAEE:  BZ    AB04
....................                         if(DiaTx<29) 
0AAF0:  MOVLB  3
0AAF2:  MOVF   xAE,W
0AAF4:  SUBLW  1C
0AAF6:  BNC   AAFC
....................                            DiaTx++; 
0AAF8:  INCF   xAE,F
....................                         else 
0AAFA:  BRA    AB00
....................                            DiaTx=1;    
0AAFC:  MOVLW  01
0AAFE:  MOVWF  xAE
....................                      }else{ 
0AB00:  BRA    AB14
0AB02:  MOVLB  0
....................                         if(DiaTx<28) 
0AB04:  MOVLB  3
0AB06:  MOVF   xAE,W
0AB08:  SUBLW  1B
0AB0A:  BNC   AB10
....................                            DiaTx++; 
0AB0C:  INCF   xAE,F
....................                         else 
0AB0E:  BRA    AB14
....................                            DiaTx=1;    
0AB10:  MOVLW  01
0AB12:  MOVWF  xAE
....................                      } 
....................                   }else{ 
0AB14:  BRA    AB66
....................                      if(MesTx<=7){ 
0AB16:  MOVF   xAD,W
0AB18:  SUBLW  07
0AB1A:  BNC   AB42
....................                         if(MesTx % 2 ==0){ 
0AB1C:  MOVF   xAD,W
0AB1E:  ANDLW  01
0AB20:  BNZ   AB32
....................                            if(DiaTx<30) 
0AB22:  MOVF   xAE,W
0AB24:  SUBLW  1D
0AB26:  BNC   AB2C
....................                               DiaTx++;     
0AB28:  INCF   xAE,F
....................                            else 
0AB2A:  BRA    AB30
....................                               DiaTx=1;    
0AB2C:  MOVLW  01
0AB2E:  MOVWF  xAE
....................                         }else{ 
0AB30:  BRA    AB40
....................                            if(DiaTx<31) 
0AB32:  MOVF   xAE,W
0AB34:  SUBLW  1E
0AB36:  BNC   AB3C
....................                               DiaTx++;     
0AB38:  INCF   xAE,F
....................                            else 
0AB3A:  BRA    AB40
....................                               DiaTx=1;    
0AB3C:  MOVLW  01
0AB3E:  MOVWF  xAE
....................                         }     
....................                      }else{ 
0AB40:  BRA    AB66
....................                         if(MesTx % 2 ==0){ 
0AB42:  MOVF   xAD,W
0AB44:  ANDLW  01
0AB46:  BNZ   AB58
....................                            if(DiaTx<31) 
0AB48:  MOVF   xAE,W
0AB4A:  SUBLW  1E
0AB4C:  BNC   AB52
....................                               DiaTx++;   
0AB4E:  INCF   xAE,F
....................                            else 
0AB50:  BRA    AB56
....................                               DiaTx=1; 
0AB52:  MOVLW  01
0AB54:  MOVWF  xAE
....................                         }else{ 
0AB56:  BRA    AB66
....................                            if(DiaTx<30) 
0AB58:  MOVF   xAE,W
0AB5A:  SUBLW  1D
0AB5C:  BNC   AB62
....................                               DiaTx++;     
0AB5E:  INCF   xAE,F
....................                            else 
0AB60:  BRA    AB66
....................                               DiaTx=1; 
0AB62:  MOVLW  01
0AB64:  MOVWF  xAE
....................                         }     
....................                      } 
....................                   } 
....................                }else if(Opcion==2){ 
0AB66:  BRA    ABB8
0AB68:  MOVF   x6C,W
0AB6A:  SUBLW  02
0AB6C:  BNZ   AB7E
....................                   if(MesTx<12) 
0AB6E:  MOVF   xAD,W
0AB70:  SUBLW  0B
0AB72:  BNC   AB78
....................                      MesTx++; 
0AB74:  INCF   xAD,F
....................                   else 
0AB76:  BRA    AB7C
....................                      MesTx=1; 
0AB78:  MOVLW  01
0AB7A:  MOVWF  xAD
....................                }else if(Opcion==3){ 
0AB7C:  BRA    ABB8
0AB7E:  MOVF   x6C,W
0AB80:  SUBLW  03
0AB82:  BNZ   AB92
....................                   if(YearTx<99) 
0AB84:  MOVF   xAC,W
0AB86:  SUBLW  62
0AB88:  BNC   AB8E
....................                      YearTx++; 
0AB8A:  INCF   xAC,F
....................                   else  
0AB8C:  BRA    AB90
....................                      YearTx=0; 
0AB8E:  CLRF   xAC
....................                }else if(Opcion==4){ 
0AB90:  BRA    ABB8
0AB92:  MOVF   x6C,W
0AB94:  SUBLW  04
0AB96:  BNZ   ABA6
....................                   if(HoraTx<24) 
0AB98:  MOVF   xAF,W
0AB9A:  SUBLW  17
0AB9C:  BNC   ABA2
....................                      HoraTx++; 
0AB9E:  INCF   xAF,F
....................                   else 
0ABA0:  BRA    ABA4
....................                      HoraTx=0; 
0ABA2:  CLRF   xAF
....................                }else if(Opcion==5){ 
0ABA4:  BRA    ABB8
0ABA6:  MOVF   x6C,W
0ABA8:  SUBLW  05
0ABAA:  BNZ   ABB8
....................                   if(MinutoTx<59) 
0ABAC:  MOVF   xB0,W
0ABAE:  SUBLW  3A
0ABB0:  BNC   ABB6
....................                      MinutoTx++; 
0ABB2:  INCF   xB0,F
....................                   else 
0ABB4:  BRA    ABB8
....................                      MinutoTx=0; 
0ABB6:  CLRF   xB0
....................                } 
....................                RX_Buffer[4]=0x00; 
0ABB8:  CLRF   34
....................                RX_Buffer2[4]=0x00; 
0ABBA:  CLRF   3F
0ABBC:  MOVLB  0
....................             } 
....................          } 
....................           
....................          if(RX_Buffer[4]==0x2b || DOWN){//Tecla Abajo Oprimida 
0ABBE:  MOVF   34,W
0ABC0:  SUBLW  2B
0ABC2:  BZ    ABCA
0ABC4:  BSF    F93.1
0ABC6:  BTFSC  F81.1
0ABC8:  BRA    AC46
....................             delay_ms(200); 
0ABCA:  MOVLW  C8
0ABCC:  MOVLB  4
0ABCE:  MOVWF  x5B
0ABD0:  MOVLB  0
0ABD2:  CALL   1AC8
....................             if(RX_Buffer[4]==0x2b || DOWN){    
0ABD6:  MOVF   34,W
0ABD8:  SUBLW  2B
0ABDA:  BZ    ABE2
0ABDC:  BSF    F93.1
0ABDE:  BTFSC  F81.1
0ABE0:  BRA    AC46
....................                if(Opcion==1){ 
0ABE2:  MOVLB  3
0ABE4:  DECFSZ x6C,W
0ABE6:  BRA    ABF0
....................                   if(DiaTx>0) 
0ABE8:  MOVF   xAE,F
0ABEA:  BZ    ABEE
....................                      DiaTx--; 
0ABEC:  DECF   xAE,F
....................                }else if(Opcion==2){ 
0ABEE:  BRA    AC40
0ABF0:  MOVF   x6C,W
0ABF2:  SUBLW  02
0ABF4:  BNZ   AC06
....................                   if(MesTx>1) 
0ABF6:  MOVF   xAD,W
0ABF8:  SUBLW  01
0ABFA:  BC    AC00
....................                      MesTx--; 
0ABFC:  DECF   xAD,F
....................                   else 
0ABFE:  BRA    AC04
....................                      MesTx=12; 
0AC00:  MOVLW  0C
0AC02:  MOVWF  xAD
....................                }else if(Opcion==3){ 
0AC04:  BRA    AC40
0AC06:  MOVF   x6C,W
0AC08:  SUBLW  03
0AC0A:  BNZ   AC1A
....................                   if(YearTx>0) 
0AC0C:  MOVF   xAC,F
0AC0E:  BZ    AC14
....................                      YearTx--; 
0AC10:  DECF   xAC,F
....................                   else 
0AC12:  BRA    AC18
....................                      YearTx=99; 
0AC14:  MOVLW  63
0AC16:  MOVWF  xAC
....................                }else if(Opcion==4){ 
0AC18:  BRA    AC40
0AC1A:  MOVF   x6C,W
0AC1C:  SUBLW  04
0AC1E:  BNZ   AC2E
....................                   if(HoraTx>0) 
0AC20:  MOVF   xAF,F
0AC22:  BZ    AC28
....................                      HoraTx--; 
0AC24:  DECF   xAF,F
....................                   else 
0AC26:  BRA    AC2C
....................                      HoraTx=23; 
0AC28:  MOVLW  17
0AC2A:  MOVWF  xAF
....................                }else if(Opcion==5){ 
0AC2C:  BRA    AC40
0AC2E:  MOVF   x6C,W
0AC30:  SUBLW  05
0AC32:  BNZ   AC40
....................                   if(MinutoTx>0) 
0AC34:  MOVF   xB0,F
0AC36:  BZ    AC3C
....................                      MinutoTx--; 
0AC38:  DECF   xB0,F
....................                   else 
0AC3A:  BRA    AC40
....................                      MinutoTx=59; 
0AC3C:  MOVLW  3B
0AC3E:  MOVWF  xB0
....................                } 
....................                RX_Buffer[4]=0x00; 
0AC40:  CLRF   34
....................                RX_Buffer2[4]=0x00; 
0AC42:  CLRF   3F
0AC44:  MOVLB  0
....................             } 
....................          } 
....................        
....................       printf("thora.txt=\"%02u\"",HoraTx); 
0AC46:  MOVLW  30
0AC48:  MOVWF  FF6
0AC4A:  MOVLW  0F
0AC4C:  MOVWF  FF7
0AC4E:  MOVLW  00
0AC50:  MOVWF  FF8
0AC52:  MOVLW  0B
0AC54:  MOVLB  4
0AC56:  MOVWF  x4B
0AC58:  MOVLB  0
0AC5A:  CALL   4ABC
0AC5E:  MOVFF  3AF,44B
0AC62:  MOVLW  01
0AC64:  MOVLB  4
0AC66:  MOVWF  x4C
0AC68:  MOVLB  0
0AC6A:  CALL   4B1A
0AC6E:  MOVLW  22
0AC70:  BTFSS  F9E.4
0AC72:  BRA    AC70
0AC74:  MOVWF  FAD
....................       SendDataDisplay(); 
0AC76:  CALL   39C0
....................       printf("tminutos.txt=\"%02u\"",MinutoTx); 
0AC7A:  MOVLW  42
0AC7C:  MOVWF  FF6
0AC7E:  MOVLW  0F
0AC80:  MOVWF  FF7
0AC82:  MOVLW  00
0AC84:  MOVWF  FF8
0AC86:  MOVLW  0E
0AC88:  MOVLB  4
0AC8A:  MOVWF  x4B
0AC8C:  MOVLB  0
0AC8E:  CALL   4ABC
0AC92:  MOVFF  3B0,44B
0AC96:  MOVLW  01
0AC98:  MOVLB  4
0AC9A:  MOVWF  x4C
0AC9C:  MOVLB  0
0AC9E:  CALL   4B1A
0ACA2:  MOVLW  22
0ACA4:  BTFSS  F9E.4
0ACA6:  BRA    ACA4
0ACA8:  MOVWF  FAD
....................       SendDataDisplay(); 
0ACAA:  CALL   39C0
....................       printf("tdia.txt=\"%02u\"",DiaTx); 
0ACAE:  MOVLW  56
0ACB0:  MOVWF  FF6
0ACB2:  MOVLW  0F
0ACB4:  MOVWF  FF7
0ACB6:  MOVLW  00
0ACB8:  MOVWF  FF8
0ACBA:  MOVLW  0A
0ACBC:  MOVLB  4
0ACBE:  MOVWF  x4B
0ACC0:  MOVLB  0
0ACC2:  CALL   4ABC
0ACC6:  MOVFF  3AE,44B
0ACCA:  MOVLW  01
0ACCC:  MOVLB  4
0ACCE:  MOVWF  x4C
0ACD0:  MOVLB  0
0ACD2:  CALL   4B1A
0ACD6:  MOVLW  22
0ACD8:  BTFSS  F9E.4
0ACDA:  BRA    ACD8
0ACDC:  MOVWF  FAD
....................       SendDataDisplay(); 
0ACDE:  CALL   39C0
....................       printf("tmes.txt=\"%02u\"",MesTx); 
0ACE2:  MOVLW  66
0ACE4:  MOVWF  FF6
0ACE6:  MOVLW  0F
0ACE8:  MOVWF  FF7
0ACEA:  MOVLW  00
0ACEC:  MOVWF  FF8
0ACEE:  MOVLW  0A
0ACF0:  MOVLB  4
0ACF2:  MOVWF  x4B
0ACF4:  MOVLB  0
0ACF6:  CALL   4ABC
0ACFA:  MOVFF  3AD,44B
0ACFE:  MOVLW  01
0AD00:  MOVLB  4
0AD02:  MOVWF  x4C
0AD04:  MOVLB  0
0AD06:  CALL   4B1A
0AD0A:  MOVLW  22
0AD0C:  BTFSS  F9E.4
0AD0E:  BRA    AD0C
0AD10:  MOVWF  FAD
....................       SendDataDisplay(); 
0AD12:  CALL   39C0
....................       printf("tyear.txt=\"%02u\"",YearTx); 
0AD16:  MOVLW  76
0AD18:  MOVWF  FF6
0AD1A:  MOVLW  0F
0AD1C:  MOVWF  FF7
0AD1E:  MOVLW  00
0AD20:  MOVWF  FF8
0AD22:  MOVLW  0B
0AD24:  MOVLB  4
0AD26:  MOVWF  x4B
0AD28:  MOVLB  0
0AD2A:  CALL   4ABC
0AD2E:  MOVFF  3AC,44B
0AD32:  MOVLW  01
0AD34:  MOVLB  4
0AD36:  MOVWF  x4C
0AD38:  MOVLB  0
0AD3A:  CALL   4B1A
0AD3E:  MOVLW  22
0AD40:  BTFSS  F9E.4
0AD42:  BRA    AD40
0AD44:  MOVWF  FAD
....................       SendDataDisplay(); 
0AD46:  CALL   39C0
....................       LimitaDia();   
0AD4A:  GOTO   55A8
0AD4E:  MOVLB  3
....................     } 
.................... //_--------------------------------------------------------------------------------------------------------------------------------------------------------        
....................  
.................... //_-------------------------------------------------------------------------------------------------------------------------------------------------------- 
....................    if(Menu==8){ //Menu Ciclos Personalizados 
0AD50:  MOVF   x64,W
0AD52:  SUBLW  08
0AD54:  BTFSS  FD8.2
0AD56:  GOTO   BAB4
....................       //printf("fecha.txt=\"T:%3.1fC Fecha:%02u/%02u/20%02u Hora: %02u:%02u:%02u\"",Temperatura,Dia,Mes,Year,Hora,Minuto,Segundo); 
....................       //SendDataDisplay(); 
....................       revisePresion(); 
0AD5A:  MOVLB  0
0AD5C:  CALL   4F8C
....................       GuardaEEPROM=OFF; 
0AD60:  BCF    xA2.6
....................        
....................       if(RX_Buffer[4]>0x00 && RX_Buffer[4]<0x04){//Personalizados 
0AD62:  MOVF   34,F
0AD64:  BTFSC  FD8.2
0AD66:  BRA    AF94
0AD68:  MOVF   34,W
0AD6A:  SUBLW  03
0AD6C:  BTFSS  FD8.0
0AD6E:  BRA    AF94
....................          printf("ciclo.txt=\"CICLO P%02u\"",RX_Buffer[4]+0x04); 
0AD70:  MOVLW  04
0AD72:  ADDWF  34,W
0AD74:  MOVLB  4
0AD76:  MOVWF  x46
0AD78:  MOVLW  88
0AD7A:  MOVWF  FF6
0AD7C:  MOVLW  0F
0AD7E:  MOVWF  FF7
0AD80:  MOVLW  00
0AD82:  MOVWF  FF8
0AD84:  MOVLW  12
0AD86:  MOVWF  x4B
0AD88:  MOVLB  0
0AD8A:  CALL   4ABC
0AD8E:  MOVFF  446,44B
0AD92:  MOVLW  01
0AD94:  MOVLB  4
0AD96:  MOVWF  x4C
0AD98:  MOVLB  0
0AD9A:  CALL   4B1A
0AD9E:  MOVLW  22
0ADA0:  BTFSS  F9E.4
0ADA2:  BRA    ADA0
0ADA4:  MOVWF  FAD
....................          SendDataDisplay();           
0ADA6:  CALL   39C0
....................          printf("temp.txt=\"%u\"",CiclosPersonalizados[RX_Buffer[4]-1].Temperatura); 
0ADAA:  MOVLW  01
0ADAC:  SUBWF  34,W
0ADAE:  MULLW  0A
0ADB0:  MOVF   FF3,W
0ADB2:  MOVLB  4
0ADB4:  CLRF   x47
0ADB6:  MOVWF  x46
0ADB8:  MOVLW  1E
0ADBA:  ADDWF  x46,W
0ADBC:  MOVWF  FE9
0ADBE:  MOVLW  04
0ADC0:  ADDWFC x47,W
0ADC2:  MOVWF  FEA
0ADC4:  MOVFF  FEF,446
0ADC8:  MOVLW  A0
0ADCA:  MOVWF  FF6
0ADCC:  MOVLW  0F
0ADCE:  MOVWF  FF7
0ADD0:  MOVLW  00
0ADD2:  MOVWF  FF8
0ADD4:  MOVLW  0A
0ADD6:  MOVWF  x4B
0ADD8:  MOVLB  0
0ADDA:  CALL   4ABC
0ADDE:  MOVFF  446,44B
0ADE2:  MOVLW  1B
0ADE4:  MOVLB  4
0ADE6:  MOVWF  x4C
0ADE8:  MOVLB  0
0ADEA:  CALL   4B1A
0ADEE:  MOVLW  22
0ADF0:  BTFSS  F9E.4
0ADF2:  BRA    ADF0
0ADF4:  MOVWF  FAD
....................          SendDataDisplay(); 
0ADF6:  CALL   39C0
....................          printf("test.txt=\"%02u:%02u\"",CiclosPersonalizados[RX_Buffer[4]-1].Minutoest,CiclosPersonalizados[RX_Buffer[4]-1].Segundoest); 
0ADFA:  MOVLW  01
0ADFC:  SUBWF  34,W
0ADFE:  MULLW  0A
0AE00:  MOVF   FF3,W
0AE02:  MOVLB  4
0AE04:  CLRF   x47
0AE06:  MOVWF  x46
0AE08:  MOVLW  09
0AE0A:  ADDWF  x46,W
0AE0C:  MOVWF  01
0AE0E:  MOVLW  00
0AE10:  ADDWFC x47,W
0AE12:  MOVWF  03
0AE14:  MOVF   01,W
0AE16:  ADDLW  1E
0AE18:  MOVWF  FE9
0AE1A:  MOVLW  04
0AE1C:  ADDWFC 03,W
0AE1E:  MOVWF  FEA
0AE20:  MOVFF  FEF,446
0AE24:  MOVLW  01
0AE26:  SUBWF  34,W
0AE28:  MULLW  0A
0AE2A:  MOVF   FF3,W
0AE2C:  CLRF   x48
0AE2E:  MOVWF  x47
0AE30:  MOVLW  03
0AE32:  ADDWF  x47,W
0AE34:  MOVWF  01
0AE36:  MOVLW  00
0AE38:  ADDWFC x48,W
0AE3A:  MOVWF  03
0AE3C:  MOVF   01,W
0AE3E:  ADDLW  1E
0AE40:  MOVWF  FE9
0AE42:  MOVLW  04
0AE44:  ADDWFC 03,W
0AE46:  MOVWF  FEA
0AE48:  MOVFF  FEF,447
0AE4C:  MOVLW  AE
0AE4E:  MOVWF  FF6
0AE50:  MOVLW  0F
0AE52:  MOVWF  FF7
0AE54:  MOVLW  00
0AE56:  MOVWF  FF8
0AE58:  MOVLW  0A
0AE5A:  MOVWF  x4B
0AE5C:  MOVLB  0
0AE5E:  CALL   4ABC
0AE62:  MOVFF  446,44B
0AE66:  MOVLW  01
0AE68:  MOVLB  4
0AE6A:  MOVWF  x4C
0AE6C:  MOVLB  0
0AE6E:  CALL   4B1A
0AE72:  MOVLW  3A
0AE74:  BTFSS  F9E.4
0AE76:  BRA    AE74
0AE78:  MOVWF  FAD
0AE7A:  MOVFF  447,44B
0AE7E:  MOVLW  01
0AE80:  MOVLB  4
0AE82:  MOVWF  x4C
0AE84:  MOVLB  0
0AE86:  CALL   4B1A
0AE8A:  MOVLW  22
0AE8C:  BTFSS  F9E.4
0AE8E:  BRA    AE8C
0AE90:  MOVWF  FAD
....................          SendDataDisplay(); 
0AE92:  CALL   39C0
....................          printf("tsec.txt=\"%02u:%02u\"",CiclosPersonalizados[RX_Buffer[4]-1].Minutosec,CiclosPersonalizados[RX_Buffer[4]-1].Segundosec); 
0AE96:  MOVLW  01
0AE98:  SUBWF  34,W
0AE9A:  MULLW  0A
0AE9C:  MOVF   FF3,W
0AE9E:  MOVLB  4
0AEA0:  CLRF   x47
0AEA2:  MOVWF  x46
0AEA4:  MOVLW  04
0AEA6:  ADDWF  x46,W
0AEA8:  MOVWF  01
0AEAA:  MOVLW  00
0AEAC:  ADDWFC x47,W
0AEAE:  MOVWF  03
0AEB0:  MOVF   01,W
0AEB2:  ADDLW  1E
0AEB4:  MOVWF  FE9
0AEB6:  MOVLW  04
0AEB8:  ADDWFC 03,W
0AEBA:  MOVWF  FEA
0AEBC:  MOVFF  FEF,446
0AEC0:  MOVLW  01
0AEC2:  SUBWF  34,W
0AEC4:  MULLW  0A
0AEC6:  MOVF   FF3,W
0AEC8:  CLRF   x48
0AECA:  MOVWF  x47
0AECC:  MOVLW  05
0AECE:  ADDWF  x47,W
0AED0:  MOVWF  01
0AED2:  MOVLW  00
0AED4:  ADDWFC x48,W
0AED6:  MOVWF  03
0AED8:  MOVF   01,W
0AEDA:  ADDLW  1E
0AEDC:  MOVWF  FE9
0AEDE:  MOVLW  04
0AEE0:  ADDWFC 03,W
0AEE2:  MOVWF  FEA
0AEE4:  MOVFF  FEF,447
0AEE8:  MOVLW  C4
0AEEA:  MOVWF  FF6
0AEEC:  MOVLW  0F
0AEEE:  MOVWF  FF7
0AEF0:  MOVLW  00
0AEF2:  MOVWF  FF8
0AEF4:  MOVLW  0A
0AEF6:  MOVWF  x4B
0AEF8:  MOVLB  0
0AEFA:  CALL   4ABC
0AEFE:  MOVFF  446,44B
0AF02:  MOVLW  01
0AF04:  MOVLB  4
0AF06:  MOVWF  x4C
0AF08:  MOVLB  0
0AF0A:  CALL   4B1A
0AF0E:  MOVLW  3A
0AF10:  BTFSS  F9E.4
0AF12:  BRA    AF10
0AF14:  MOVWF  FAD
0AF16:  MOVFF  447,44B
0AF1A:  MOVLW  01
0AF1C:  MOVLB  4
0AF1E:  MOVWF  x4C
0AF20:  MOVLB  0
0AF22:  CALL   4B1A
0AF26:  MOVLW  22
0AF28:  BTFSS  F9E.4
0AF2A:  BRA    AF28
0AF2C:  MOVWF  FAD
....................          SendDataDisplay(); 
0AF2E:  CALL   39C0
....................          printf("desfogue.txt=\"%u\"",CiclosPersonalizados[RX_Buffer[4]-1].NivelDesfogue); 
0AF32:  MOVLW  01
0AF34:  SUBWF  34,W
0AF36:  MULLW  0A
0AF38:  MOVF   FF3,W
0AF3A:  MOVLB  4
0AF3C:  CLRF   x47
0AF3E:  MOVWF  x46
0AF40:  MOVLW  08
0AF42:  ADDWF  x46,W
0AF44:  MOVWF  01
0AF46:  MOVLW  00
0AF48:  ADDWFC x47,W
0AF4A:  MOVWF  03
0AF4C:  MOVF   01,W
0AF4E:  ADDLW  1E
0AF50:  MOVWF  FE9
0AF52:  MOVLW  04
0AF54:  ADDWFC 03,W
0AF56:  MOVWF  FEA
0AF58:  MOVFF  FEF,446
0AF5C:  MOVLW  DA
0AF5E:  MOVWF  FF6
0AF60:  MOVLW  0F
0AF62:  MOVWF  FF7
0AF64:  MOVLW  00
0AF66:  MOVWF  FF8
0AF68:  MOVLW  0E
0AF6A:  MOVWF  x4B
0AF6C:  MOVLB  0
0AF6E:  CALL   4ABC
0AF72:  MOVFF  446,44B
0AF76:  MOVLW  1B
0AF78:  MOVLB  4
0AF7A:  MOVWF  x4C
0AF7C:  MOVLB  0
0AF7E:  CALL   4B1A
0AF82:  MOVLW  22
0AF84:  BTFSS  F9E.4
0AF86:  BRA    AF84
0AF88:  MOVWF  FAD
....................          SendDataDisplay(); 
0AF8A:  CALL   39C0
....................          CicloLibre=RX_Buffer[4]; 
0AF8E:  MOVFF  34,345
....................       }else if(CicloLibre==0x00){ 
0AF92:  BRA    B240
0AF94:  MOVLB  3
0AF96:  MOVF   x45,F
0AF98:  BNZ   B004
....................          printf("ciclo.txt=\"CICLO P--\""); 
0AF9A:  MOVLW  EC
0AF9C:  MOVWF  FF6
0AF9E:  MOVLW  0F
0AFA0:  MOVWF  FF7
0AFA2:  MOVLW  00
0AFA4:  MOVWF  FF8
0AFA6:  MOVLB  0
0AFA8:  CALL   398E
....................          SendDataDisplay();           
0AFAC:  CALL   39C0
....................          printf("temp.txt=\"--\""); 
0AFB0:  MOVLW  02
0AFB2:  MOVWF  FF6
0AFB4:  MOVLW  10
0AFB6:  MOVWF  FF7
0AFB8:  MOVLW  00
0AFBA:  MOVWF  FF8
0AFBC:  CALL   398E
....................          SendDataDisplay(); 
0AFC0:  CALL   39C0
....................          printf("test.txt=\"--:--\""); 
0AFC4:  MOVLW  10
0AFC6:  MOVWF  FF6
0AFC8:  MOVLW  10
0AFCA:  MOVWF  FF7
0AFCC:  MOVLW  00
0AFCE:  MOVWF  FF8
0AFD0:  CALL   398E
....................          SendDataDisplay(); 
0AFD4:  CALL   39C0
....................          printf("tsec.txt=\"--:--\""); 
0AFD8:  MOVLW  22
0AFDA:  MOVWF  FF6
0AFDC:  MOVLW  10
0AFDE:  MOVWF  FF7
0AFE0:  MOVLW  00
0AFE2:  MOVWF  FF8
0AFE4:  CALL   398E
....................          SendDataDisplay(); 
0AFE8:  CALL   39C0
....................          printf("desfogue.txt=\"--\""); 
0AFEC:  MOVLW  34
0AFEE:  MOVWF  FF6
0AFF0:  MOVLW  10
0AFF2:  MOVWF  FF7
0AFF4:  MOVLW  00
0AFF6:  MOVWF  FF8
0AFF8:  CALL   398E
....................          SendDataDisplay(); 
0AFFC:  CALL   39C0
....................       }else if(CicloLibre>0 && CicloLibre<4){ 
0B000:  BRA    B240
0B002:  MOVLB  3
0B004:  MOVF   x45,F
0B006:  BTFSC  FD8.2
0B008:  BRA    B242
0B00A:  MOVF   x45,W
0B00C:  SUBLW  03
0B00E:  BTFSS  FD8.0
0B010:  BRA    B242
....................          printf("ciclo.txt=\"CICLO P%02u\"",CicloLibre+0x04); 
0B012:  MOVLW  04
0B014:  ADDWF  x45,W
0B016:  MOVLB  4
0B018:  MOVWF  x46
0B01A:  MOVLW  46
0B01C:  MOVWF  FF6
0B01E:  MOVLW  10
0B020:  MOVWF  FF7
0B022:  MOVLW  00
0B024:  MOVWF  FF8
0B026:  MOVLW  12
0B028:  MOVWF  x4B
0B02A:  MOVLB  0
0B02C:  CALL   4ABC
0B030:  MOVFF  446,44B
0B034:  MOVLW  01
0B036:  MOVLB  4
0B038:  MOVWF  x4C
0B03A:  MOVLB  0
0B03C:  CALL   4B1A
0B040:  MOVLW  22
0B042:  BTFSS  F9E.4
0B044:  BRA    B042
0B046:  MOVWF  FAD
....................          SendDataDisplay();           
0B048:  CALL   39C0
....................          printf("temp.txt=\"%u\"",CiclosPersonalizados[CicloLibre-1].Temperatura); 
0B04C:  MOVLW  01
0B04E:  MOVLB  3
0B050:  SUBWF  x45,W
0B052:  MULLW  0A
0B054:  MOVF   FF3,W
0B056:  MOVLB  4
0B058:  CLRF   x47
0B05A:  MOVWF  x46
0B05C:  MOVLW  1E
0B05E:  ADDWF  x46,W
0B060:  MOVWF  FE9
0B062:  MOVLW  04
0B064:  ADDWFC x47,W
0B066:  MOVWF  FEA
0B068:  MOVFF  FEF,446
0B06C:  MOVLW  5E
0B06E:  MOVWF  FF6
0B070:  MOVLW  10
0B072:  MOVWF  FF7
0B074:  MOVLW  00
0B076:  MOVWF  FF8
0B078:  MOVLW  0A
0B07A:  MOVWF  x4B
0B07C:  MOVLB  0
0B07E:  CALL   4ABC
0B082:  MOVFF  446,44B
0B086:  MOVLW  1B
0B088:  MOVLB  4
0B08A:  MOVWF  x4C
0B08C:  MOVLB  0
0B08E:  CALL   4B1A
0B092:  MOVLW  22
0B094:  BTFSS  F9E.4
0B096:  BRA    B094
0B098:  MOVWF  FAD
....................          SendDataDisplay(); 
0B09A:  CALL   39C0
....................          printf("test.txt=\"%02u:%02u\"",CiclosPersonalizados[CicloLibre-1].Minutoest,CiclosPersonalizados[CicloLibre-1].Segundoest); 
0B09E:  MOVLW  01
0B0A0:  MOVLB  3
0B0A2:  SUBWF  x45,W
0B0A4:  MULLW  0A
0B0A6:  MOVF   FF3,W
0B0A8:  MOVLB  4
0B0AA:  CLRF   x47
0B0AC:  MOVWF  x46
0B0AE:  MOVLW  09
0B0B0:  ADDWF  x46,W
0B0B2:  MOVWF  01
0B0B4:  MOVLW  00
0B0B6:  ADDWFC x47,W
0B0B8:  MOVWF  03
0B0BA:  MOVF   01,W
0B0BC:  ADDLW  1E
0B0BE:  MOVWF  FE9
0B0C0:  MOVLW  04
0B0C2:  ADDWFC 03,W
0B0C4:  MOVWF  FEA
0B0C6:  MOVFF  FEF,446
0B0CA:  MOVLW  01
0B0CC:  MOVLB  3
0B0CE:  SUBWF  x45,W
0B0D0:  MULLW  0A
0B0D2:  MOVF   FF3,W
0B0D4:  MOVLB  4
0B0D6:  CLRF   x48
0B0D8:  MOVWF  x47
0B0DA:  MOVLW  03
0B0DC:  ADDWF  x47,W
0B0DE:  MOVWF  01
0B0E0:  MOVLW  00
0B0E2:  ADDWFC x48,W
0B0E4:  MOVWF  03
0B0E6:  MOVF   01,W
0B0E8:  ADDLW  1E
0B0EA:  MOVWF  FE9
0B0EC:  MOVLW  04
0B0EE:  ADDWFC 03,W
0B0F0:  MOVWF  FEA
0B0F2:  MOVFF  FEF,447
0B0F6:  MOVLW  6C
0B0F8:  MOVWF  FF6
0B0FA:  MOVLW  10
0B0FC:  MOVWF  FF7
0B0FE:  MOVLW  00
0B100:  MOVWF  FF8
0B102:  MOVLW  0A
0B104:  MOVWF  x4B
0B106:  MOVLB  0
0B108:  CALL   4ABC
0B10C:  MOVFF  446,44B
0B110:  MOVLW  01
0B112:  MOVLB  4
0B114:  MOVWF  x4C
0B116:  MOVLB  0
0B118:  CALL   4B1A
0B11C:  MOVLW  3A
0B11E:  BTFSS  F9E.4
0B120:  BRA    B11E
0B122:  MOVWF  FAD
0B124:  MOVFF  447,44B
0B128:  MOVLW  01
0B12A:  MOVLB  4
0B12C:  MOVWF  x4C
0B12E:  MOVLB  0
0B130:  CALL   4B1A
0B134:  MOVLW  22
0B136:  BTFSS  F9E.4
0B138:  BRA    B136
0B13A:  MOVWF  FAD
....................          SendDataDisplay(); 
0B13C:  CALL   39C0
....................          printf("tsec.txt=\"%02u:%02u\"",CiclosPersonalizados[CicloLibre-1].Minutosec,CiclosPersonalizados[CicloLibre-1].Segundosec); 
0B140:  MOVLW  01
0B142:  MOVLB  3
0B144:  SUBWF  x45,W
0B146:  MULLW  0A
0B148:  MOVF   FF3,W
0B14A:  MOVLB  4
0B14C:  CLRF   x47
0B14E:  MOVWF  x46
0B150:  MOVLW  04
0B152:  ADDWF  x46,W
0B154:  MOVWF  01
0B156:  MOVLW  00
0B158:  ADDWFC x47,W
0B15A:  MOVWF  03
0B15C:  MOVF   01,W
0B15E:  ADDLW  1E
0B160:  MOVWF  FE9
0B162:  MOVLW  04
0B164:  ADDWFC 03,W
0B166:  MOVWF  FEA
0B168:  MOVFF  FEF,446
0B16C:  MOVLW  01
0B16E:  MOVLB  3
0B170:  SUBWF  x45,W
0B172:  MULLW  0A
0B174:  MOVF   FF3,W
0B176:  MOVLB  4
0B178:  CLRF   x48
0B17A:  MOVWF  x47
0B17C:  MOVLW  05
0B17E:  ADDWF  x47,W
0B180:  MOVWF  01
0B182:  MOVLW  00
0B184:  ADDWFC x48,W
0B186:  MOVWF  03
0B188:  MOVF   01,W
0B18A:  ADDLW  1E
0B18C:  MOVWF  FE9
0B18E:  MOVLW  04
0B190:  ADDWFC 03,W
0B192:  MOVWF  FEA
0B194:  MOVFF  FEF,447
0B198:  MOVLW  82
0B19A:  MOVWF  FF6
0B19C:  MOVLW  10
0B19E:  MOVWF  FF7
0B1A0:  MOVLW  00
0B1A2:  MOVWF  FF8
0B1A4:  MOVLW  0A
0B1A6:  MOVWF  x4B
0B1A8:  MOVLB  0
0B1AA:  CALL   4ABC
0B1AE:  MOVFF  446,44B
0B1B2:  MOVLW  01
0B1B4:  MOVLB  4
0B1B6:  MOVWF  x4C
0B1B8:  MOVLB  0
0B1BA:  CALL   4B1A
0B1BE:  MOVLW  3A
0B1C0:  BTFSS  F9E.4
0B1C2:  BRA    B1C0
0B1C4:  MOVWF  FAD
0B1C6:  MOVFF  447,44B
0B1CA:  MOVLW  01
0B1CC:  MOVLB  4
0B1CE:  MOVWF  x4C
0B1D0:  MOVLB  0
0B1D2:  CALL   4B1A
0B1D6:  MOVLW  22
0B1D8:  BTFSS  F9E.4
0B1DA:  BRA    B1D8
0B1DC:  MOVWF  FAD
....................          SendDataDisplay(); 
0B1DE:  CALL   39C0
....................          printf("desfogue.txt=\"%u\"",CiclosPersonalizados[CicloLibre-1].NivelDesfogue); 
0B1E2:  MOVLW  01
0B1E4:  MOVLB  3
0B1E6:  SUBWF  x45,W
0B1E8:  MULLW  0A
0B1EA:  MOVF   FF3,W
0B1EC:  MOVLB  4
0B1EE:  CLRF   x47
0B1F0:  MOVWF  x46
0B1F2:  MOVLW  08
0B1F4:  ADDWF  x46,W
0B1F6:  MOVWF  01
0B1F8:  MOVLW  00
0B1FA:  ADDWFC x47,W
0B1FC:  MOVWF  03
0B1FE:  MOVF   01,W
0B200:  ADDLW  1E
0B202:  MOVWF  FE9
0B204:  MOVLW  04
0B206:  ADDWFC 03,W
0B208:  MOVWF  FEA
0B20A:  MOVFF  FEF,446
0B20E:  MOVLW  98
0B210:  MOVWF  FF6
0B212:  MOVLW  10
0B214:  MOVWF  FF7
0B216:  MOVLW  00
0B218:  MOVWF  FF8
0B21A:  MOVLW  0E
0B21C:  MOVWF  x4B
0B21E:  MOVLB  0
0B220:  CALL   4ABC
0B224:  MOVFF  446,44B
0B228:  MOVLW  1B
0B22A:  MOVLB  4
0B22C:  MOVWF  x4C
0B22E:  MOVLB  0
0B230:  CALL   4B1A
0B234:  MOVLW  22
0B236:  BTFSS  F9E.4
0B238:  BRA    B236
0B23A:  MOVWF  FAD
....................          SendDataDisplay(); 
0B23C:  CALL   39C0
0B240:  MOVLB  3
....................       } 
....................        
....................       if(RIGHT){ 
0B242:  BSF    F93.2
0B244:  BTFSC  F81.2
0B246:  BRA    B25E
....................          delay_ms(100); 
0B248:  MOVLW  64
0B24A:  MOVLB  4
0B24C:  MOVWF  x5B
0B24E:  MOVLB  0
0B250:  CALL   1AC8
....................          if(RIGHT){ 
0B254:  BSF    F93.2
0B256:  BTFSC  F81.2
0B258:  BRA    B260
....................             CicloLibre++; 
0B25A:  MOVLB  3
0B25C:  INCF   x45,F
0B25E:  MOVLB  0
....................          } 
....................       }       
....................        
....................       if(CicloLibre<1) 
0B260:  MOVLB  3
0B262:  MOVF   x45,F
0B264:  BNZ   B26A
....................          CicloLibre=1; 
0B266:  MOVLW  01
0B268:  MOVWF  x45
....................       if(CicloLibre>4) 
0B26A:  MOVF   x45,W
0B26C:  SUBLW  04
0B26E:  BC    B274
....................          CicloLibre=4; 
0B270:  MOVLW  04
0B272:  MOVWF  x45
....................        
....................       if(RX_Buffer[4]==0xa0 || LEFT){//a0, Menu Principal 
0B274:  MOVF   34,W
0B276:  SUBLW  A0
0B278:  BZ    B280
0B27A:  BSF    F93.3
0B27C:  BTFSC  F81.3
0B27E:  BRA    B2B8
....................          delay_ms(100); 
0B280:  MOVLW  64
0B282:  MOVLB  4
0B284:  MOVWF  x5B
0B286:  MOVLB  0
0B288:  CALL   1AC8
....................          if(RX_Buffer[4]==0xa0 || LEFT){ 
0B28C:  MOVF   34,W
0B28E:  SUBLW  A0
0B290:  BZ    B298
0B292:  BSF    F93.3
0B294:  BTFSC  F81.3
0B296:  BRA    B2B6
....................             printf("page MenuPrincipal"); 
0B298:  MOVLW  AA
0B29A:  MOVWF  FF6
0B29C:  MOVLW  10
0B29E:  MOVWF  FF7
0B2A0:  MOVLW  00
0B2A2:  MOVWF  FF8
0B2A4:  CALL   398E
....................             SendDataDisplay();      
0B2A8:  CALL   39C0
....................             PantallaPrincipal=0; 
0B2AC:  MOVLB  2
0B2AE:  CLRF   xE4
....................             Op=OFF; 
0B2B0:  MOVLB  0
0B2B2:  BCF    xA2.2
....................             Op2=OFF; 
0B2B4:  BCF    xA2.3
0B2B6:  MOVLB  3
....................          } 
....................       } 
....................        
....................       if(RX_Buffer[4]==0x20 && CicloLibre>0){//20, Temperatura 
0B2B8:  MOVF   34,W
0B2BA:  SUBLW  20
0B2BC:  BNZ   B2FA
0B2BE:  MOVF   x45,F
0B2C0:  BZ    B2FA
....................             printf("page Temperatura"); 
0B2C2:  MOVLW  BE
0B2C4:  MOVWF  FF6
0B2C6:  MOVLW  10
0B2C8:  MOVWF  FF7
0B2CA:  MOVLW  00
0B2CC:  MOVWF  FF8
0B2CE:  MOVLB  0
0B2D0:  CALL   398E
....................             SendDataDisplay();      
0B2D4:  CALL   39C0
....................             Setpoint=CiclosPersonalizados[CicloLibre-1].Temperatura; 
0B2D8:  MOVLW  01
0B2DA:  MOVLB  3
0B2DC:  SUBWF  x45,W
0B2DE:  MULLW  0A
0B2E0:  MOVF   FF3,W
0B2E2:  MOVLB  4
0B2E4:  CLRF   x47
0B2E6:  MOVWF  x46
0B2E8:  MOVLW  1E
0B2EA:  ADDWF  x46,W
0B2EC:  MOVWF  FE9
0B2EE:  MOVLW  04
0B2F0:  ADDWFC x47,W
0B2F2:  MOVWF  FEA
0B2F4:  MOVFF  FEF,36B
0B2F8:  MOVLB  3
....................       } 
....................        
....................       if(RX_Buffer[4]==0x30 && CicloLibre>0){//30, Test 
0B2FA:  MOVF   34,W
0B2FC:  SUBLW  30
0B2FE:  BTFSS  FD8.2
0B300:  BRA    B41C
0B302:  MOVF   x45,F
0B304:  BTFSC  FD8.2
0B306:  BRA    B41C
....................             printf("page TiempoEst"); 
0B308:  MOVLW  D0
0B30A:  MOVWF  FF6
0B30C:  MOVLW  10
0B30E:  MOVWF  FF7
0B310:  MOVLW  00
0B312:  MOVWF  FF8
0B314:  MOVLB  0
0B316:  CALL   398E
....................             SendDataDisplay();      
0B31A:  CALL   39C0
....................             Testerilizacionp[3]=CiclosPersonalizados[CicloLibre-1].Minutoest/10; 
0B31E:  MOVLW  01
0B320:  MOVLB  3
0B322:  SUBWF  x45,W
0B324:  MULLW  0A
0B326:  MOVF   FF3,W
0B328:  MOVLB  4
0B32A:  CLRF   x47
0B32C:  MOVWF  x46
0B32E:  MOVLW  09
0B330:  ADDWF  x46,W
0B332:  MOVWF  01
0B334:  MOVLW  00
0B336:  ADDWFC x47,W
0B338:  MOVWF  03
0B33A:  MOVF   01,W
0B33C:  ADDLW  1E
0B33E:  MOVWF  FE9
0B340:  MOVLW  04
0B342:  ADDWFC 03,W
0B344:  MOVWF  FEA
0B346:  MOVFF  FEF,450
0B34A:  MOVLW  0A
0B34C:  MOVWF  x51
0B34E:  MOVLB  0
0B350:  CALL   4AEE
0B354:  MOVFF  01,C0
....................             Testerilizacionp[2]=CiclosPersonalizados[CicloLibre-1].Minutoest-(Testerilizacionp[3]*10); 
0B358:  MOVLW  01
0B35A:  MOVLB  3
0B35C:  SUBWF  x45,W
0B35E:  MULLW  0A
0B360:  MOVF   FF3,W
0B362:  MOVLB  4
0B364:  CLRF   x47
0B366:  MOVWF  x46
0B368:  MOVLW  09
0B36A:  ADDWF  x46,W
0B36C:  MOVWF  01
0B36E:  MOVLW  00
0B370:  ADDWFC x47,W
0B372:  MOVWF  03
0B374:  MOVF   01,W
0B376:  ADDLW  1E
0B378:  MOVWF  FE9
0B37A:  MOVLW  04
0B37C:  ADDWFC 03,W
0B37E:  MOVWF  FEA
0B380:  MOVFF  FEF,446
0B384:  MOVFF  C0,448
0B388:  MOVLW  0A
0B38A:  MOVWF  x49
0B38C:  MOVLB  0
0B38E:  CALL   2E46
0B392:  MOVF   01,W
0B394:  MOVLB  4
0B396:  SUBWF  x46,W
0B398:  MOVLB  0
0B39A:  MOVWF  xBF
....................             Testerilizacionp[1]=CiclosPersonalizados[CicloLibre-1].Segundoest/10; 
0B39C:  MOVLW  01
0B39E:  MOVLB  3
0B3A0:  SUBWF  x45,W
0B3A2:  MULLW  0A
0B3A4:  MOVF   FF3,W
0B3A6:  MOVLB  4
0B3A8:  CLRF   x47
0B3AA:  MOVWF  x46
0B3AC:  MOVLW  03
0B3AE:  ADDWF  x46,W
0B3B0:  MOVWF  01
0B3B2:  MOVLW  00
0B3B4:  ADDWFC x47,W
0B3B6:  MOVWF  03
0B3B8:  MOVF   01,W
0B3BA:  ADDLW  1E
0B3BC:  MOVWF  FE9
0B3BE:  MOVLW  04
0B3C0:  ADDWFC 03,W
0B3C2:  MOVWF  FEA
0B3C4:  MOVFF  FEF,450
0B3C8:  MOVLW  0A
0B3CA:  MOVWF  x51
0B3CC:  MOVLB  0
0B3CE:  CALL   4AEE
0B3D2:  MOVFF  01,BE
....................             Testerilizacionp[0]=CiclosPersonalizados[CicloLibre-1].Segundoest-(Testerilizacionp[1]*10); 
0B3D6:  MOVLW  01
0B3D8:  MOVLB  3
0B3DA:  SUBWF  x45,W
0B3DC:  MULLW  0A
0B3DE:  MOVF   FF3,W
0B3E0:  MOVLB  4
0B3E2:  CLRF   x47
0B3E4:  MOVWF  x46
0B3E6:  MOVLW  03
0B3E8:  ADDWF  x46,W
0B3EA:  MOVWF  01
0B3EC:  MOVLW  00
0B3EE:  ADDWFC x47,W
0B3F0:  MOVWF  03
0B3F2:  MOVF   01,W
0B3F4:  ADDLW  1E
0B3F6:  MOVWF  FE9
0B3F8:  MOVLW  04
0B3FA:  ADDWFC 03,W
0B3FC:  MOVWF  FEA
0B3FE:  MOVFF  FEF,446
0B402:  MOVFF  BE,448
0B406:  MOVLW  0A
0B408:  MOVWF  x49
0B40A:  MOVLB  0
0B40C:  CALL   2E46
0B410:  MOVF   01,W
0B412:  MOVLB  4
0B414:  SUBWF  x46,W
0B416:  MOVLB  0
0B418:  MOVWF  xBD
0B41A:  MOVLB  3
....................       } 
....................        
....................       if(RX_Buffer[4]==0x40 && CicloLibre>0){//30, Test 
0B41C:  MOVF   34,W
0B41E:  SUBLW  40
0B420:  BTFSS  FD8.2
0B422:  BRA    B53E
0B424:  MOVF   x45,F
0B426:  BTFSC  FD8.2
0B428:  BRA    B53E
....................             printf("page TiempoSec"); 
0B42A:  MOVLW  E0
0B42C:  MOVWF  FF6
0B42E:  MOVLW  10
0B430:  MOVWF  FF7
0B432:  MOVLW  00
0B434:  MOVWF  FF8
0B436:  MOVLB  0
0B438:  CALL   398E
....................             SendDataDisplay();      
0B43C:  CALL   39C0
....................             Tsecadop[3]=CiclosPersonalizados[CicloLibre-1].Minutosec/10; 
0B440:  MOVLW  01
0B442:  MOVLB  3
0B444:  SUBWF  x45,W
0B446:  MULLW  0A
0B448:  MOVF   FF3,W
0B44A:  MOVLB  4
0B44C:  CLRF   x47
0B44E:  MOVWF  x46
0B450:  MOVLW  04
0B452:  ADDWF  x46,W
0B454:  MOVWF  01
0B456:  MOVLW  00
0B458:  ADDWFC x47,W
0B45A:  MOVWF  03
0B45C:  MOVF   01,W
0B45E:  ADDLW  1E
0B460:  MOVWF  FE9
0B462:  MOVLW  04
0B464:  ADDWFC 03,W
0B466:  MOVWF  FEA
0B468:  MOVFF  FEF,450
0B46C:  MOVLW  0A
0B46E:  MOVWF  x51
0B470:  MOVLB  0
0B472:  CALL   4AEE
0B476:  MOVFF  01,C9
....................             Tsecadop[2]=CiclosPersonalizados[CicloLibre-1].Minutosec-(Tsecadop[3]*10); 
0B47A:  MOVLW  01
0B47C:  MOVLB  3
0B47E:  SUBWF  x45,W
0B480:  MULLW  0A
0B482:  MOVF   FF3,W
0B484:  MOVLB  4
0B486:  CLRF   x47
0B488:  MOVWF  x46
0B48A:  MOVLW  04
0B48C:  ADDWF  x46,W
0B48E:  MOVWF  01
0B490:  MOVLW  00
0B492:  ADDWFC x47,W
0B494:  MOVWF  03
0B496:  MOVF   01,W
0B498:  ADDLW  1E
0B49A:  MOVWF  FE9
0B49C:  MOVLW  04
0B49E:  ADDWFC 03,W
0B4A0:  MOVWF  FEA
0B4A2:  MOVFF  FEF,446
0B4A6:  MOVFF  C9,448
0B4AA:  MOVLW  0A
0B4AC:  MOVWF  x49
0B4AE:  MOVLB  0
0B4B0:  CALL   2E46
0B4B4:  MOVF   01,W
0B4B6:  MOVLB  4
0B4B8:  SUBWF  x46,W
0B4BA:  MOVLB  0
0B4BC:  MOVWF  xC8
....................             Tsecadop[1]=CiclosPersonalizados[CicloLibre-1].Segundosec/10; 
0B4BE:  MOVLW  01
0B4C0:  MOVLB  3
0B4C2:  SUBWF  x45,W
0B4C4:  MULLW  0A
0B4C6:  MOVF   FF3,W
0B4C8:  MOVLB  4
0B4CA:  CLRF   x47
0B4CC:  MOVWF  x46
0B4CE:  MOVLW  05
0B4D0:  ADDWF  x46,W
0B4D2:  MOVWF  01
0B4D4:  MOVLW  00
0B4D6:  ADDWFC x47,W
0B4D8:  MOVWF  03
0B4DA:  MOVF   01,W
0B4DC:  ADDLW  1E
0B4DE:  MOVWF  FE9
0B4E0:  MOVLW  04
0B4E2:  ADDWFC 03,W
0B4E4:  MOVWF  FEA
0B4E6:  MOVFF  FEF,450
0B4EA:  MOVLW  0A
0B4EC:  MOVWF  x51
0B4EE:  MOVLB  0
0B4F0:  CALL   4AEE
0B4F4:  MOVFF  01,C7
....................             Tsecadop[0]=CiclosPersonalizados[CicloLibre-1].Segundosec-(Tsecadop[1]*10); 
0B4F8:  MOVLW  01
0B4FA:  MOVLB  3
0B4FC:  SUBWF  x45,W
0B4FE:  MULLW  0A
0B500:  MOVF   FF3,W
0B502:  MOVLB  4
0B504:  CLRF   x47
0B506:  MOVWF  x46
0B508:  MOVLW  05
0B50A:  ADDWF  x46,W
0B50C:  MOVWF  01
0B50E:  MOVLW  00
0B510:  ADDWFC x47,W
0B512:  MOVWF  03
0B514:  MOVF   01,W
0B516:  ADDLW  1E
0B518:  MOVWF  FE9
0B51A:  MOVLW  04
0B51C:  ADDWFC 03,W
0B51E:  MOVWF  FEA
0B520:  MOVFF  FEF,446
0B524:  MOVFF  C7,448
0B528:  MOVLW  0A
0B52A:  MOVWF  x49
0B52C:  MOVLB  0
0B52E:  CALL   2E46
0B532:  MOVF   01,W
0B534:  MOVLB  4
0B536:  SUBWF  x46,W
0B538:  MOVLB  0
0B53A:  MOVWF  xC6
0B53C:  MOVLB  3
....................       } 
....................        
....................       if(RX_Buffer[4]==0x80 && CicloLibre>0){//80, NivelDesfogue          
0B53E:  MOVF   34,W
0B540:  SUBLW  80
0B542:  BNZ   B592
0B544:  MOVF   x45,F
0B546:  BZ    B592
....................             printf("page Nivel"); 
0B548:  MOVLW  F0
0B54A:  MOVWF  FF6
0B54C:  MOVLW  10
0B54E:  MOVWF  FF7
0B550:  MOVLW  00
0B552:  MOVWF  FF8
0B554:  MOVLB  0
0B556:  CALL   398E
....................             SendDataDisplay();      
0B55A:  CALL   39C0
....................             Nivel=CiclosPersonalizados[CicloLibre-1].NivelDesfogue;          
0B55E:  MOVLW  01
0B560:  MOVLB  3
0B562:  SUBWF  x45,W
0B564:  MULLW  0A
0B566:  MOVF   FF3,W
0B568:  MOVLB  4
0B56A:  CLRF   x47
0B56C:  MOVWF  x46
0B56E:  MOVLW  08
0B570:  ADDWF  x46,W
0B572:  MOVWF  01
0B574:  MOVLW  00
0B576:  ADDWFC x47,W
0B578:  MOVWF  03
0B57A:  MOVF   01,W
0B57C:  ADDLW  1E
0B57E:  MOVWF  FE9
0B580:  MOVLW  04
0B582:  ADDWFC 03,W
0B584:  MOVWF  FEA
0B586:  MOVF   FEF,W
0B588:  CLRF   03
0B58A:  MOVLB  3
0B58C:  MOVWF  x7A
0B58E:  MOVFF  03,37B
....................       } 
....................        
....................       if((RX_Buffer[4]==0x70 || UP)&& CicloLibre>0){//70, Iniciar Ciclo 
0B592:  MOVF   34,W
0B594:  SUBLW  70
0B596:  BZ    B59E
0B598:  BSF    F93.0
0B59A:  BTFSC  F81.0
0B59C:  BRA    BAB4
0B59E:  MOVF   x45,F
0B5A0:  BTFSC  FD8.2
0B5A2:  BRA    BAB4
....................          delay_ms(100); 
0B5A4:  MOVLW  64
0B5A6:  MOVLB  4
0B5A8:  MOVWF  x5B
0B5AA:  MOVLB  0
0B5AC:  CALL   1AC8
....................          if((RX_Buffer[4]==0x70 || UP)&& CicloLibre>0){ 
0B5B0:  MOVF   34,W
0B5B2:  SUBLW  70
0B5B4:  BZ    B5BC
0B5B6:  BSF    F93.0
0B5B8:  BTFSC  F81.0
0B5BA:  BRA    BAB2
0B5BC:  MOVLB  3
0B5BE:  MOVF   x45,F
0B5C0:  BTFSS  FD8.2
0B5C2:  BRA    B5C8
0B5C4:  MOVLB  0
0B5C6:  BRA    BAB2
....................             printf("page Funcionamiento"); 
0B5C8:  MOVLW  FC
0B5CA:  MOVWF  FF6
0B5CC:  MOVLW  10
0B5CE:  MOVWF  FF7
0B5D0:  MOVLW  00
0B5D2:  MOVWF  FF8
0B5D4:  MOVLB  0
0B5D6:  CALL   398E
....................             SendDataDisplay();        
0B5DA:  CALL   39C0
....................             Libre=ON; 
0B5DE:  BSF    xA4.1
....................             if(CiclosPersonalizados[CicloLibre-1].NivelDesfogue>5){ 
0B5E0:  MOVLW  01
0B5E2:  MOVLB  3
0B5E4:  SUBWF  x45,W
0B5E6:  MULLW  0A
0B5E8:  MOVF   FF3,W
0B5EA:  MOVLB  4
0B5EC:  CLRF   x47
0B5EE:  MOVWF  x46
0B5F0:  MOVLW  08
0B5F2:  ADDWF  x46,W
0B5F4:  MOVWF  01
0B5F6:  MOVLW  00
0B5F8:  ADDWFC x47,W
0B5FA:  MOVWF  03
0B5FC:  MOVF   01,W
0B5FE:  ADDLW  1E
0B600:  MOVWF  FE9
0B602:  MOVLW  04
0B604:  ADDWFC 03,W
0B606:  MOVWF  FEA
0B608:  MOVF   FEF,W
0B60A:  SUBLW  05
0B60C:  BTFSC  FD8.0
0B60E:  BRA    B83E
....................                ConfiguraCiclo(extraeDecima(CiclosPersonalizados[CicloLibre-1].Segundoest), 
....................                            CiclosPersonalizados[CicloLibre-1].Segundoest/10, 
....................                            extraeDecima(CiclosPersonalizados[CicloLibre-1].Minutoest), 
....................                            CiclosPersonalizados[CicloLibre-1].Minutoest/10, 
....................                            extraeDecima(CiclosPersonalizados[CicloLibre-1].Segundosec), 
....................                            CiclosPersonalizados[CicloLibre-1].Segundosec/10, 
....................                            extraeDecima(CiclosPersonalizados[CicloLibre-1].Minutosec), 
....................                            CiclosPersonalizados[CicloLibre-1].Minutosec/10,0,CicloLibre+4,CiclosPersonalizados[CicloLibre-1].Temperatura);             
0B610:  MOVLW  01
0B612:  MOVLB  3
0B614:  SUBWF  x45,W
0B616:  MULLW  0A
0B618:  MOVF   FF3,W
0B61A:  MOVLB  4
0B61C:  CLRF   x47
0B61E:  MOVWF  x46
0B620:  MOVLW  03
0B622:  ADDWF  x46,W
0B624:  MOVWF  01
0B626:  MOVLW  00
0B628:  ADDWFC x47,W
0B62A:  MOVWF  03
0B62C:  MOVF   01,W
0B62E:  ADDLW  1E
0B630:  MOVWF  FE9
0B632:  MOVLW  04
0B634:  ADDWFC 03,W
0B636:  MOVWF  FEA
0B638:  MOVFF  FEF,446
0B63C:  MOVFF  446,44D
0B640:  MOVLB  0
0B642:  CALL   563C
0B646:  MOVFF  01,446
0B64A:  MOVLW  01
0B64C:  MOVLB  3
0B64E:  SUBWF  x45,W
0B650:  MULLW  0A
0B652:  MOVF   FF3,W
0B654:  MOVLB  4
0B656:  CLRF   x48
0B658:  MOVWF  x47
0B65A:  MOVLW  03
0B65C:  ADDWF  x47,W
0B65E:  MOVWF  01
0B660:  MOVLW  00
0B662:  ADDWFC x48,W
0B664:  MOVWF  03
0B666:  MOVF   01,W
0B668:  ADDLW  1E
0B66A:  MOVWF  FE9
0B66C:  MOVLW  04
0B66E:  ADDWFC 03,W
0B670:  MOVWF  FEA
0B672:  MOVFF  FEF,450
0B676:  MOVLW  0A
0B678:  MOVWF  x51
0B67A:  MOVLB  0
0B67C:  CALL   4AEE
0B680:  MOVFF  01,447
0B684:  MOVLW  01
0B686:  MOVLB  3
0B688:  SUBWF  x45,W
0B68A:  MULLW  0A
0B68C:  MOVF   FF3,W
0B68E:  MOVLB  4
0B690:  CLRF   x49
0B692:  MOVWF  x48
0B694:  MOVLW  09
0B696:  ADDWF  x48,W
0B698:  MOVWF  01
0B69A:  MOVLW  00
0B69C:  ADDWFC x49,W
0B69E:  MOVWF  03
0B6A0:  MOVF   01,W
0B6A2:  ADDLW  1E
0B6A4:  MOVWF  FE9
0B6A6:  MOVLW  04
0B6A8:  ADDWFC 03,W
0B6AA:  MOVWF  FEA
0B6AC:  MOVFF  FEF,448
0B6B0:  MOVFF  448,44D
0B6B4:  MOVLB  0
0B6B6:  CALL   563C
0B6BA:  MOVFF  01,448
0B6BE:  MOVLW  01
0B6C0:  MOVLB  3
0B6C2:  SUBWF  x45,W
0B6C4:  MULLW  0A
0B6C6:  MOVF   FF3,W
0B6C8:  MOVLB  4
0B6CA:  CLRF   x4A
0B6CC:  MOVWF  x49
0B6CE:  MOVLW  09
0B6D0:  ADDWF  x49,W
0B6D2:  MOVWF  01
0B6D4:  MOVLW  00
0B6D6:  ADDWFC x4A,W
0B6D8:  MOVWF  03
0B6DA:  MOVF   01,W
0B6DC:  ADDLW  1E
0B6DE:  MOVWF  FE9
0B6E0:  MOVLW  04
0B6E2:  ADDWFC 03,W
0B6E4:  MOVWF  FEA
0B6E6:  MOVFF  FEF,450
0B6EA:  MOVLW  0A
0B6EC:  MOVWF  x51
0B6EE:  MOVLB  0
0B6F0:  CALL   4AEE
0B6F4:  MOVFF  01,449
0B6F8:  MOVLW  01
0B6FA:  MOVLB  3
0B6FC:  SUBWF  x45,W
0B6FE:  MULLW  0A
0B700:  MOVF   FF3,W
0B702:  MOVLB  4
0B704:  CLRF   x4B
0B706:  MOVWF  x4A
0B708:  MOVLW  05
0B70A:  ADDWF  x4A,W
0B70C:  MOVWF  01
0B70E:  MOVLW  00
0B710:  ADDWFC x4B,W
0B712:  MOVWF  03
0B714:  MOVF   01,W
0B716:  ADDLW  1E
0B718:  MOVWF  FE9
0B71A:  MOVLW  04
0B71C:  ADDWFC 03,W
0B71E:  MOVWF  FEA
0B720:  MOVFF  FEF,44A
0B724:  MOVFF  44A,44D
0B728:  MOVLB  0
0B72A:  CALL   563C
0B72E:  MOVFF  01,44A
0B732:  MOVLW  01
0B734:  MOVLB  3
0B736:  SUBWF  x45,W
0B738:  MULLW  0A
0B73A:  MOVF   FF3,W
0B73C:  MOVLB  4
0B73E:  CLRF   x4C
0B740:  MOVWF  x4B
0B742:  MOVLW  05
0B744:  ADDWF  x4B,W
0B746:  MOVWF  01
0B748:  MOVLW  00
0B74A:  ADDWFC x4C,W
0B74C:  MOVWF  03
0B74E:  MOVF   01,W
0B750:  ADDLW  1E
0B752:  MOVWF  FE9
0B754:  MOVLW  04
0B756:  ADDWFC 03,W
0B758:  MOVWF  FEA
0B75A:  MOVFF  FEF,450
0B75E:  MOVLW  0A
0B760:  MOVWF  x51
0B762:  MOVLB  0
0B764:  CALL   4AEE
0B768:  MOVFF  01,44B
0B76C:  MOVLW  01
0B76E:  MOVLB  3
0B770:  SUBWF  x45,W
0B772:  MULLW  0A
0B774:  MOVF   FF3,W
0B776:  MOVLB  4
0B778:  CLRF   x4D
0B77A:  MOVWF  x4C
0B77C:  MOVLW  04
0B77E:  ADDWF  x4C,W
0B780:  MOVWF  01
0B782:  MOVLW  00
0B784:  ADDWFC x4D,W
0B786:  MOVWF  03
0B788:  MOVF   01,W
0B78A:  ADDLW  1E
0B78C:  MOVWF  FE9
0B78E:  MOVLW  04
0B790:  ADDWFC 03,W
0B792:  MOVWF  FEA
0B794:  MOVFF  FEF,44C
0B798:  MOVFF  44C,44D
0B79C:  MOVLB  0
0B79E:  CALL   563C
0B7A2:  MOVFF  01,44C
0B7A6:  MOVLW  01
0B7A8:  MOVLB  3
0B7AA:  SUBWF  x45,W
0B7AC:  MULLW  0A
0B7AE:  MOVF   FF3,W
0B7B0:  MOVLB  4
0B7B2:  CLRF   x4E
0B7B4:  MOVWF  x4D
0B7B6:  MOVLW  04
0B7B8:  ADDWF  x4D,W
0B7BA:  MOVWF  01
0B7BC:  MOVLW  00
0B7BE:  ADDWFC x4E,W
0B7C0:  MOVWF  03
0B7C2:  MOVF   01,W
0B7C4:  ADDLW  1E
0B7C6:  MOVWF  FE9
0B7C8:  MOVLW  04
0B7CA:  ADDWFC 03,W
0B7CC:  MOVWF  FEA
0B7CE:  MOVFF  FEF,450
0B7D2:  MOVLW  0A
0B7D4:  MOVWF  x51
0B7D6:  MOVLB  0
0B7D8:  CALL   4AEE
0B7DC:  MOVFF  01,44D
0B7E0:  MOVLW  04
0B7E2:  MOVLB  3
0B7E4:  ADDWF  x45,W
0B7E6:  MOVLB  4
0B7E8:  MOVWF  x4E
0B7EA:  MOVLW  01
0B7EC:  MOVLB  3
0B7EE:  SUBWF  x45,W
0B7F0:  MULLW  0A
0B7F2:  MOVF   FF3,W
0B7F4:  MOVLB  4
0B7F6:  CLRF   x50
0B7F8:  MOVWF  x4F
0B7FA:  MOVLW  1E
0B7FC:  ADDWF  x4F,W
0B7FE:  MOVWF  FE9
0B800:  MOVLW  04
0B802:  ADDWFC x50,W
0B804:  MOVWF  FEA
0B806:  MOVFF  FEF,44F
0B80A:  MOVFF  446,450
0B80E:  MOVFF  447,451
0B812:  MOVFF  448,452
0B816:  MOVFF  449,453
0B81A:  MOVFF  44A,454
0B81E:  MOVFF  44B,455
0B822:  MOVFF  44C,456
0B826:  MOVFF  01,457
0B82A:  CLRF   x58
0B82C:  MOVFF  44E,459
0B830:  MOVFF  44F,45A
0B834:  MOVLB  0
0B836:  CALL   539E
....................             }else{ 
0B83A:  BRA    BAB2
0B83C:  MOVLB  4
....................                ConfiguraCiclo(extraeDecima(CiclosPersonalizados[CicloLibre-1].Segundoest), 
....................                            CiclosPersonalizados[CicloLibre-1].Segundoest/10, 
....................                            extraeDecima(CiclosPersonalizados[CicloLibre-1].Minutoest), 
....................                            CiclosPersonalizados[CicloLibre-1].Minutoest/10, 
....................                            extraeDecima(CiclosPersonalizados[CicloLibre-1].Segundosec), 
....................                            CiclosPersonalizados[CicloLibre-1].Segundosec/10, 
....................                            extraeDecima(CiclosPersonalizados[CicloLibre-1].Minutosec), 
....................                            CiclosPersonalizados[CicloLibre-1].Minutosec/10,1,CicloLibre+4,CiclosPersonalizados[CicloLibre-1].Temperatura);             
0B83E:  MOVLW  01
0B840:  MOVLB  3
0B842:  SUBWF  x45,W
0B844:  MULLW  0A
0B846:  MOVF   FF3,W
0B848:  MOVLB  4
0B84A:  CLRF   x47
0B84C:  MOVWF  x46
0B84E:  MOVLW  03
0B850:  ADDWF  x46,W
0B852:  MOVWF  01
0B854:  MOVLW  00
0B856:  ADDWFC x47,W
0B858:  MOVWF  03
0B85A:  MOVF   01,W
0B85C:  ADDLW  1E
0B85E:  MOVWF  FE9
0B860:  MOVLW  04
0B862:  ADDWFC 03,W
0B864:  MOVWF  FEA
0B866:  MOVFF  FEF,446
0B86A:  MOVFF  446,44D
0B86E:  MOVLB  0
0B870:  CALL   563C
0B874:  MOVFF  01,446
0B878:  MOVLW  01
0B87A:  MOVLB  3
0B87C:  SUBWF  x45,W
0B87E:  MULLW  0A
0B880:  MOVF   FF3,W
0B882:  MOVLB  4
0B884:  CLRF   x48
0B886:  MOVWF  x47
0B888:  MOVLW  03
0B88A:  ADDWF  x47,W
0B88C:  MOVWF  01
0B88E:  MOVLW  00
0B890:  ADDWFC x48,W
0B892:  MOVWF  03
0B894:  MOVF   01,W
0B896:  ADDLW  1E
0B898:  MOVWF  FE9
0B89A:  MOVLW  04
0B89C:  ADDWFC 03,W
0B89E:  MOVWF  FEA
0B8A0:  MOVFF  FEF,450
0B8A4:  MOVLW  0A
0B8A6:  MOVWF  x51
0B8A8:  MOVLB  0
0B8AA:  CALL   4AEE
0B8AE:  MOVFF  01,447
0B8B2:  MOVLW  01
0B8B4:  MOVLB  3
0B8B6:  SUBWF  x45,W
0B8B8:  MULLW  0A
0B8BA:  MOVF   FF3,W
0B8BC:  MOVLB  4
0B8BE:  CLRF   x49
0B8C0:  MOVWF  x48
0B8C2:  MOVLW  09
0B8C4:  ADDWF  x48,W
0B8C6:  MOVWF  01
0B8C8:  MOVLW  00
0B8CA:  ADDWFC x49,W
0B8CC:  MOVWF  03
0B8CE:  MOVF   01,W
0B8D0:  ADDLW  1E
0B8D2:  MOVWF  FE9
0B8D4:  MOVLW  04
0B8D6:  ADDWFC 03,W
0B8D8:  MOVWF  FEA
0B8DA:  MOVFF  FEF,448
0B8DE:  MOVFF  448,44D
0B8E2:  MOVLB  0
0B8E4:  CALL   563C
0B8E8:  MOVFF  01,448
0B8EC:  MOVLW  01
0B8EE:  MOVLB  3
0B8F0:  SUBWF  x45,W
0B8F2:  MULLW  0A
0B8F4:  MOVF   FF3,W
0B8F6:  MOVLB  4
0B8F8:  CLRF   x4A
0B8FA:  MOVWF  x49
0B8FC:  MOVLW  09
0B8FE:  ADDWF  x49,W
0B900:  MOVWF  01
0B902:  MOVLW  00
0B904:  ADDWFC x4A,W
0B906:  MOVWF  03
0B908:  MOVF   01,W
0B90A:  ADDLW  1E
0B90C:  MOVWF  FE9
0B90E:  MOVLW  04
0B910:  ADDWFC 03,W
0B912:  MOVWF  FEA
0B914:  MOVFF  FEF,450
0B918:  MOVLW  0A
0B91A:  MOVWF  x51
0B91C:  MOVLB  0
0B91E:  CALL   4AEE
0B922:  MOVFF  01,449
0B926:  MOVLW  01
0B928:  MOVLB  3
0B92A:  SUBWF  x45,W
0B92C:  MULLW  0A
0B92E:  MOVF   FF3,W
0B930:  MOVLB  4
0B932:  CLRF   x4B
0B934:  MOVWF  x4A
0B936:  MOVLW  05
0B938:  ADDWF  x4A,W
0B93A:  MOVWF  01
0B93C:  MOVLW  00
0B93E:  ADDWFC x4B,W
0B940:  MOVWF  03
0B942:  MOVF   01,W
0B944:  ADDLW  1E
0B946:  MOVWF  FE9
0B948:  MOVLW  04
0B94A:  ADDWFC 03,W
0B94C:  MOVWF  FEA
0B94E:  MOVFF  FEF,44A
0B952:  MOVFF  44A,44D
0B956:  MOVLB  0
0B958:  CALL   563C
0B95C:  MOVFF  01,44A
0B960:  MOVLW  01
0B962:  MOVLB  3
0B964:  SUBWF  x45,W
0B966:  MULLW  0A
0B968:  MOVF   FF3,W
0B96A:  MOVLB  4
0B96C:  CLRF   x4C
0B96E:  MOVWF  x4B
0B970:  MOVLW  05
0B972:  ADDWF  x4B,W
0B974:  MOVWF  01
0B976:  MOVLW  00
0B978:  ADDWFC x4C,W
0B97A:  MOVWF  03
0B97C:  MOVF   01,W
0B97E:  ADDLW  1E
0B980:  MOVWF  FE9
0B982:  MOVLW  04
0B984:  ADDWFC 03,W
0B986:  MOVWF  FEA
0B988:  MOVFF  FEF,450
0B98C:  MOVLW  0A
0B98E:  MOVWF  x51
0B990:  MOVLB  0
0B992:  CALL   4AEE
0B996:  MOVFF  01,44B
0B99A:  MOVLW  01
0B99C:  MOVLB  3
0B99E:  SUBWF  x45,W
0B9A0:  MULLW  0A
0B9A2:  MOVF   FF3,W
0B9A4:  MOVLB  4
0B9A6:  CLRF   x4D
0B9A8:  MOVWF  x4C
0B9AA:  MOVLW  04
0B9AC:  ADDWF  x4C,W
0B9AE:  MOVWF  01
0B9B0:  MOVLW  00
0B9B2:  ADDWFC x4D,W
0B9B4:  MOVWF  03
0B9B6:  MOVF   01,W
0B9B8:  ADDLW  1E
0B9BA:  MOVWF  FE9
0B9BC:  MOVLW  04
0B9BE:  ADDWFC 03,W
0B9C0:  MOVWF  FEA
0B9C2:  MOVFF  FEF,44C
0B9C6:  MOVFF  44C,44D
0B9CA:  MOVLB  0
0B9CC:  CALL   563C
0B9D0:  MOVFF  01,44C
0B9D4:  MOVLW  01
0B9D6:  MOVLB  3
0B9D8:  SUBWF  x45,W
0B9DA:  MULLW  0A
0B9DC:  MOVF   FF3,W
0B9DE:  MOVLB  4
0B9E0:  CLRF   x4E
0B9E2:  MOVWF  x4D
0B9E4:  MOVLW  04
0B9E6:  ADDWF  x4D,W
0B9E8:  MOVWF  01
0B9EA:  MOVLW  00
0B9EC:  ADDWFC x4E,W
0B9EE:  MOVWF  03
0B9F0:  MOVF   01,W
0B9F2:  ADDLW  1E
0B9F4:  MOVWF  FE9
0B9F6:  MOVLW  04
0B9F8:  ADDWFC 03,W
0B9FA:  MOVWF  FEA
0B9FC:  MOVFF  FEF,450
0BA00:  MOVLW  0A
0BA02:  MOVWF  x51
0BA04:  MOVLB  0
0BA06:  CALL   4AEE
0BA0A:  MOVFF  01,44D
0BA0E:  MOVLW  04
0BA10:  MOVLB  3
0BA12:  ADDWF  x45,W
0BA14:  MOVLB  4
0BA16:  MOVWF  x4E
0BA18:  MOVLW  01
0BA1A:  MOVLB  3
0BA1C:  SUBWF  x45,W
0BA1E:  MULLW  0A
0BA20:  MOVF   FF3,W
0BA22:  MOVLB  4
0BA24:  CLRF   x50
0BA26:  MOVWF  x4F
0BA28:  MOVLW  1E
0BA2A:  ADDWF  x4F,W
0BA2C:  MOVWF  FE9
0BA2E:  MOVLW  04
0BA30:  ADDWFC x50,W
0BA32:  MOVWF  FEA
0BA34:  MOVFF  FEF,44F
0BA38:  MOVFF  446,450
0BA3C:  MOVFF  447,451
0BA40:  MOVFF  448,452
0BA44:  MOVFF  449,453
0BA48:  MOVFF  44A,454
0BA4C:  MOVFF  44B,455
0BA50:  MOVFF  44C,456
0BA54:  MOVFF  01,457
0BA58:  MOVLW  01
0BA5A:  MOVWF  x58
0BA5C:  MOVFF  44E,459
0BA60:  MOVFF  44F,45A
0BA64:  MOVLB  0
0BA66:  CALL   539E
....................                NivelSeleccionado=4995*CiclosPersonalizados[CicloLibre-1].NivelDesfogue; 
0BA6A:  MOVLW  01
0BA6C:  MOVLB  3
0BA6E:  SUBWF  x45,W
0BA70:  MULLW  0A
0BA72:  MOVF   FF3,W
0BA74:  MOVLB  4
0BA76:  CLRF   x47
0BA78:  MOVWF  x46
0BA7A:  MOVLW  08
0BA7C:  ADDWF  x46,W
0BA7E:  MOVWF  01
0BA80:  MOVLW  00
0BA82:  ADDWFC x47,W
0BA84:  MOVWF  03
0BA86:  MOVF   01,W
0BA88:  ADDLW  1E
0BA8A:  MOVWF  FE9
0BA8C:  MOVLW  04
0BA8E:  ADDWFC 03,W
0BA90:  MOVWF  FEA
0BA92:  MOVFF  FEF,446
0BA96:  MOVLW  13
0BA98:  MOVWF  x50
0BA9A:  MOVLW  83
0BA9C:  MOVWF  x4F
0BA9E:  CLRF   x52
0BAA0:  MOVFF  446,451
0BAA4:  MOVLB  0
0BAA6:  CALL   3A6C
0BAAA:  MOVFF  02,385
0BAAE:  MOVFF  01,384
0BAB2:  MOVLB  3
....................             } 
....................          } 
....................       } 
....................    } 
.................... //_--------------------------------------------------------------------------------------------------------------------------------------------------------        
....................  
.................... //_--------------------------------------------------------------------------------------------------------------------------------------------------------       
....................    if(Menu==12){//Menu de Visualizacion de Ciclos Realizados 
0BAB4:  MOVF   x64,W
0BAB6:  SUBLW  0C
0BAB8:  BTFSS  FD8.2
0BABA:  BRA    C00E
....................       //printf("fecha.txt=\"Fecha:%02u/%02u/20%02u    Hora: %02u:%02u\"",Dia,Mes,Year,Hora,Minuto); 
....................       //SendDataDisplay(); 
....................       GuardaEEPROM=OFF; 
0BABC:  MOVLB  0
0BABE:  BCF    xA2.6
....................       /*  
....................       i2c_start();            // Comienzo de la comunicacin 
....................       i2c_write(0xA0);   // Direccin del esclavo en el bus I2C 
....................       i2c_write(9);    // Posicin de donde se leer el dato en el esclavo 
....................       i2c_write(0);    // Posicin de donde se leer el dato en el esclavo 
....................       i2c_start();            // Reinicio 
....................       i2c_write(direccion+1); // Direccin del esclavo en modo lectura 
....................       dato=i2c_read(0);       // Lectura del dato 
....................       i2c_stop(); 
....................       */       
....................        
....................       if(RX_Buffer[6]==0x01){//01, Ciclos 
0BAC0:  DECFSZ 36,W
0BAC2:  BRA    BAD8
....................          printf("page MenuPrincipal"); 
0BAC4:  MOVLW  10
0BAC6:  MOVWF  FF6
0BAC8:  MOVLW  11
0BACA:  MOVWF  FF7
0BACC:  MOVLW  00
0BACE:  MOVWF  FF8
0BAD0:  CALL   398E
....................          SendDataDisplay();      
0BAD4:  CALL   39C0
....................       } 
....................        
....................       if(RX_Buffer[6]==0x02 || LEFT){//02, Izquierda 
0BAD8:  MOVF   36,W
0BADA:  SUBLW  02
0BADC:  BZ    BAE4
0BADE:  BSF    F93.3
0BAE0:  BTFSC  F81.3
0BAE2:  BRA    BB32
....................          RX_Buffer[6]=0x00;   
0BAE4:  CLRF   36
....................          RX_Buffer2[6]=0x00; 
0BAE6:  CLRF   41
....................          if(cicloVisto>0) 
0BAE8:  MOVLB  2
0BAEA:  MOVF   xE9,F
0BAEC:  BZ    BAF0
....................             cicloVisto--; 
0BAEE:  DECF   xE9,F
....................          printf("h0.val=%u",cicloVisto+1); 
0BAF0:  MOVLW  01
0BAF2:  ADDWF  xE9,W
0BAF4:  MOVLB  4
0BAF6:  MOVWF  x46
0BAF8:  MOVLW  24
0BAFA:  MOVWF  FF6
0BAFC:  MOVLW  11
0BAFE:  MOVWF  FF7
0BB00:  MOVLW  00
0BB02:  MOVWF  FF8
0BB04:  MOVLW  07
0BB06:  MOVWF  x4B
0BB08:  MOVLB  0
0BB0A:  CALL   4ABC
0BB0E:  MOVFF  446,44B
0BB12:  MOVLW  1B
0BB14:  MOVLB  4
0BB16:  MOVWF  x4C
0BB18:  MOVLB  0
0BB1A:  CALL   4B1A
....................          SendDataDisplay();      
0BB1E:  CALL   39C0
....................          actualizaTabla(); 
0BB22:  CALL   57CE
....................          delay_ms(100); 
0BB26:  MOVLW  64
0BB28:  MOVLB  4
0BB2A:  MOVWF  x5B
0BB2C:  MOVLB  0
0BB2E:  CALL   1AC8
....................       } 
....................        
....................       if(RX_Buffer[6]==0x03 || UP){//03, Arriba 
0BB32:  MOVF   36,W
0BB34:  SUBLW  03
0BB36:  BZ    BB3E
0BB38:  BSF    F93.0
0BB3A:  BTFSC  F81.0
0BB3C:  BRA    BB8E
....................          RX_Buffer[6]=0x00;   
0BB3E:  CLRF   36
....................          RX_Buffer2[6]=0x00; 
0BB40:  CLRF   41
....................          if(cicloVisualizado<28) 
0BB42:  MOVLB  2
0BB44:  MOVF   xEA,W
0BB46:  SUBLW  1B
0BB48:  BNC   BB4C
....................             cicloVisualizado++; 
0BB4A:  INCF   xEA,F
....................          printf("h1.val=%u",cicloVisualizado+1); 
0BB4C:  MOVLW  01
0BB4E:  ADDWF  xEA,W
0BB50:  MOVLB  4
0BB52:  MOVWF  x46
0BB54:  MOVLW  2E
0BB56:  MOVWF  FF6
0BB58:  MOVLW  11
0BB5A:  MOVWF  FF7
0BB5C:  MOVLW  00
0BB5E:  MOVWF  FF8
0BB60:  MOVLW  07
0BB62:  MOVWF  x4B
0BB64:  MOVLB  0
0BB66:  CALL   4ABC
0BB6A:  MOVFF  446,44B
0BB6E:  MOVLW  1B
0BB70:  MOVLB  4
0BB72:  MOVWF  x4C
0BB74:  MOVLB  0
0BB76:  CALL   4B1A
....................          SendDataDisplay();     
0BB7A:  CALL   39C0
....................          actualizaTabla(); 
0BB7E:  CALL   57CE
....................          delay_ms(100); 
0BB82:  MOVLW  64
0BB84:  MOVLB  4
0BB86:  MOVWF  x5B
0BB88:  MOVLB  0
0BB8A:  CALL   1AC8
....................          //exportarData(); 
....................       } 
....................        
....................       if(RX_Buffer[6]==0x04 || DOWN){//04, Abajo 
0BB8E:  MOVF   36,W
0BB90:  SUBLW  04
0BB92:  BZ    BB9A
0BB94:  BSF    F93.1
0BB96:  BTFSC  F81.1
0BB98:  BRA    BBE8
....................          RX_Buffer[6]=0x00;   
0BB9A:  CLRF   36
....................          RX_Buffer2[6]=0x00; 
0BB9C:  CLRF   41
....................          if(cicloVisualizado>0) 
0BB9E:  MOVLB  2
0BBA0:  MOVF   xEA,F
0BBA2:  BZ    BBA6
....................             cicloVisualizado--; 
0BBA4:  DECF   xEA,F
....................          printf("h1.val=%u",cicloVisualizado+1); 
0BBA6:  MOVLW  01
0BBA8:  ADDWF  xEA,W
0BBAA:  MOVLB  4
0BBAC:  MOVWF  x46
0BBAE:  MOVLW  38
0BBB0:  MOVWF  FF6
0BBB2:  MOVLW  11
0BBB4:  MOVWF  FF7
0BBB6:  MOVLW  00
0BBB8:  MOVWF  FF8
0BBBA:  MOVLW  07
0BBBC:  MOVWF  x4B
0BBBE:  MOVLB  0
0BBC0:  CALL   4ABC
0BBC4:  MOVFF  446,44B
0BBC8:  MOVLW  1B
0BBCA:  MOVLB  4
0BBCC:  MOVWF  x4C
0BBCE:  MOVLB  0
0BBD0:  CALL   4B1A
....................          SendDataDisplay();   
0BBD4:  CALL   39C0
....................          actualizaTabla(); 
0BBD8:  CALL   57CE
....................          delay_ms(100); 
0BBDC:  MOVLW  64
0BBDE:  MOVLB  4
0BBE0:  MOVWF  x5B
0BBE2:  MOVLB  0
0BBE4:  CALL   1AC8
....................          //exportarData(); 
....................       } 
....................        
....................       if(RX_Buffer[6]==0x05 || RIGHT){//05, Derecha 
0BBE8:  MOVF   36,W
0BBEA:  SUBLW  05
0BBEC:  BZ    BBF4
0BBEE:  BSF    F93.2
0BBF0:  BTFSC  F81.2
0BBF2:  BRA    BC44
....................          RX_Buffer[6]=0x00;   
0BBF4:  CLRF   36
....................          RX_Buffer2[6]=0x00; 
0BBF6:  CLRF   41
....................          if(cicloVisto<200) 
0BBF8:  MOVLB  2
0BBFA:  MOVF   xE9,W
0BBFC:  SUBLW  C7
0BBFE:  BNC   BC02
....................             cicloVisto++; 
0BC00:  INCF   xE9,F
....................          printf("h0.val=%u",cicloVisto+1); 
0BC02:  MOVLW  01
0BC04:  ADDWF  xE9,W
0BC06:  MOVLB  4
0BC08:  MOVWF  x46
0BC0A:  MOVLW  42
0BC0C:  MOVWF  FF6
0BC0E:  MOVLW  11
0BC10:  MOVWF  FF7
0BC12:  MOVLW  00
0BC14:  MOVWF  FF8
0BC16:  MOVLW  07
0BC18:  MOVWF  x4B
0BC1A:  MOVLB  0
0BC1C:  CALL   4ABC
0BC20:  MOVFF  446,44B
0BC24:  MOVLW  1B
0BC26:  MOVLB  4
0BC28:  MOVWF  x4C
0BC2A:  MOVLB  0
0BC2C:  CALL   4B1A
....................          SendDataDisplay();   
0BC30:  CALL   39C0
....................          actualizaTabla(); 
0BC34:  CALL   57CE
....................          delay_ms(100); 
0BC38:  MOVLW  64
0BC3A:  MOVLB  4
0BC3C:  MOVWF  x5B
0BC3E:  MOVLB  0
0BC40:  CALL   1AC8
....................          //exportarData(); 
....................       } 
....................        
....................       if(RX_Buffer[6]==0x06){//06, Imprime 
0BC44:  MOVF   36,W
0BC46:  SUBLW  06
0BC48:  BNZ   BC66
....................          RX_Buffer[6]=0x00;   
0BC4A:  CLRF   36
....................          RX_Buffer2[6]=0x00; 
0BC4C:  CLRF   41
....................          printf("t0.txt=\"!IMPRIMIENDO!\""); 
0BC4E:  MOVLW  4C
0BC50:  MOVWF  FF6
0BC52:  MOVLW  11
0BC54:  MOVWF  FF7
0BC56:  MOVLW  00
0BC58:  MOVWF  FF8
0BC5A:  CALL   398E
....................          SendDataDisplay();  
0BC5E:  CALL   39C0
....................          exportarData(); 
0BC62:  GOTO   5E62
....................       } 
....................        
....................       if(RX_Buffer[4]>0x00 || RX_Buffer[5]>0x00){ 
0BC66:  MOVF   34,F
0BC68:  BNZ   BC6E
0BC6A:  MOVF   35,F
0BC6C:  BZ    BC8A
....................          cicloVisualizado=RX_Buffer[4]-1; 
0BC6E:  MOVLW  01
0BC70:  SUBWF  34,W
0BC72:  MOVLB  2
0BC74:  MOVWF  xEA
....................          cicloVisto=RX_Buffer[5]-1; 
0BC76:  MOVLW  01
0BC78:  SUBWF  35,W
0BC7A:  MOVWF  xE9
....................          RX_Buffer[4]=0x00; 
0BC7C:  CLRF   34
....................          RX_Buffer[5]=0x00; 
0BC7E:  CLRF   35
....................          RX_Buffer2[4]=0x00; 
0BC80:  CLRF   3F
....................          RX_Buffer2[5]=0x00; 
0BC82:  CLRF   40
....................          actualizaTabla(); 
0BC84:  MOVLB  0
0BC86:  CALL   57CE
....................       } 
....................        
....................       //Imprime Valores Estaticos 
....................       printf("fecha.txt=\"%02u/%02u/%02u\"",diaCiclos,mesCiclos,yearCiclos); 
0BC8A:  MOVLW  64
0BC8C:  MOVWF  FF6
0BC8E:  MOVLW  11
0BC90:  MOVWF  FF7
0BC92:  MOVLW  00
0BC94:  MOVWF  FF8
0BC96:  MOVLW  0B
0BC98:  MOVLB  4
0BC9A:  MOVWF  x4B
0BC9C:  MOVLB  0
0BC9E:  CALL   4ABC
0BCA2:  MOVFF  3CC,44B
0BCA6:  MOVLW  01
0BCA8:  MOVLB  4
0BCAA:  MOVWF  x4C
0BCAC:  MOVLB  0
0BCAE:  CALL   4B1A
0BCB2:  MOVLW  2F
0BCB4:  BTFSS  F9E.4
0BCB6:  BRA    BCB4
0BCB8:  MOVWF  FAD
0BCBA:  MOVFF  3CD,44B
0BCBE:  MOVLW  01
0BCC0:  MOVLB  4
0BCC2:  MOVWF  x4C
0BCC4:  MOVLB  0
0BCC6:  CALL   4B1A
0BCCA:  MOVLW  2F
0BCCC:  BTFSS  F9E.4
0BCCE:  BRA    BCCC
0BCD0:  MOVWF  FAD
0BCD2:  MOVFF  3CE,44B
0BCD6:  MOVLW  01
0BCD8:  MOVLB  4
0BCDA:  MOVWF  x4C
0BCDC:  MOVLB  0
0BCDE:  CALL   4B1A
0BCE2:  MOVLW  22
0BCE4:  BTFSS  F9E.4
0BCE6:  BRA    BCE4
0BCE8:  MOVWF  FAD
....................       SendDataDisplay(); 
0BCEA:  CALL   39C0
....................        
....................       printf("ciclo.txt=\"%02u\"",cicloCiclos); 
0BCEE:  MOVLW  80
0BCF0:  MOVWF  FF6
0BCF2:  MOVLW  11
0BCF4:  MOVWF  FF7
0BCF6:  MOVLW  00
0BCF8:  MOVWF  FF8
0BCFA:  MOVLW  0B
0BCFC:  MOVLB  4
0BCFE:  MOVWF  x4B
0BD00:  MOVLB  0
0BD02:  CALL   4ABC
0BD06:  MOVFF  3D0,44B
0BD0A:  MOVLW  01
0BD0C:  MOVLB  4
0BD0E:  MOVWF  x4C
0BD10:  MOVLB  0
0BD12:  CALL   4B1A
0BD16:  MOVLW  22
0BD18:  BTFSS  F9E.4
0BD1A:  BRA    BD18
0BD1C:  MOVWF  FAD
....................       SendDataDisplay(); 
0BD1E:  CALL   39C0
....................        
....................       printf("t0.txt=\"Ciclo %02u\"",cicloVisto); 
0BD22:  MOVLW  92
0BD24:  MOVWF  FF6
0BD26:  MOVLW  11
0BD28:  MOVWF  FF7
0BD2A:  MOVLW  00
0BD2C:  MOVWF  FF8
0BD2E:  MOVLW  0E
0BD30:  MOVLB  4
0BD32:  MOVWF  x4B
0BD34:  MOVLB  0
0BD36:  CALL   4ABC
0BD3A:  MOVFF  2E9,44B
0BD3E:  MOVLW  01
0BD40:  MOVLB  4
0BD42:  MOVWF  x4C
0BD44:  MOVLB  0
0BD46:  CALL   4B1A
0BD4A:  MOVLW  22
0BD4C:  BTFSS  F9E.4
0BD4E:  BRA    BD4C
0BD50:  MOVWF  FAD
....................       SendDataDisplay(); 
0BD52:  CALL   39C0
....................        
....................       printf("usuario.txt=\"---\""); 
0BD56:  MOVLW  A6
0BD58:  MOVWF  FF6
0BD5A:  MOVLW  11
0BD5C:  MOVWF  FF7
0BD5E:  MOVLW  00
0BD60:  MOVWF  FF8
0BD62:  CALL   398E
....................       SendDataDisplay(); 
0BD66:  CALL   39C0
....................        
....................       //Imprime Valores Dinamicos 
....................       for(i=0;i<7;i++){ 
0BD6A:  MOVLB  3
0BD6C:  CLRF   x67
0BD6E:  MOVF   x67,W
0BD70:  SUBLW  06
0BD72:  BTFSS  FD8.0
0BD74:  BRA    C00E
....................          printf("hora%u.txt=\"%02u.  %02u:%02u\"",i+1,cicloVisualizado+i+1,horaCiclos[i],minutoCiclos[i]); 
0BD76:  MOVLW  01
0BD78:  ADDWF  x67,W
0BD7A:  MOVLB  4
0BD7C:  MOVWF  x46
0BD7E:  MOVLB  3
0BD80:  MOVF   x67,W
0BD82:  MOVLB  2
0BD84:  ADDWF  xEA,W
0BD86:  ADDLW  01
0BD88:  MOVLB  4
0BD8A:  MOVWF  x47
0BD8C:  CLRF   03
0BD8E:  MOVLB  3
0BD90:  MOVF   x67,W
0BD92:  ADDLW  09
0BD94:  MOVWF  FE9
0BD96:  MOVLW  04
0BD98:  ADDWFC 03,W
0BD9A:  MOVWF  FEA
0BD9C:  MOVFF  FEF,448
0BDA0:  CLRF   03
0BDA2:  MOVF   x67,W
0BDA4:  ADDLW  10
0BDA6:  MOVWF  FE9
0BDA8:  MOVLW  04
0BDAA:  ADDWFC 03,W
0BDAC:  MOVWF  FEA
0BDAE:  MOVFF  FEF,449
0BDB2:  MOVLW  B8
0BDB4:  MOVWF  FF6
0BDB6:  MOVLW  11
0BDB8:  MOVWF  FF7
0BDBA:  MOVLW  00
0BDBC:  MOVWF  FF8
0BDBE:  MOVLW  04
0BDC0:  MOVLB  4
0BDC2:  MOVWF  x4B
0BDC4:  MOVLB  0
0BDC6:  CALL   4ABC
0BDCA:  MOVFF  446,44B
0BDCE:  MOVLW  1B
0BDD0:  MOVLB  4
0BDD2:  MOVWF  x4C
0BDD4:  MOVLB  0
0BDD6:  CALL   4B1A
0BDDA:  MOVLW  BE
0BDDC:  MOVWF  FF6
0BDDE:  MOVLW  11
0BDE0:  MOVWF  FF7
0BDE2:  MOVLW  00
0BDE4:  MOVWF  FF8
0BDE6:  MOVLW  06
0BDE8:  MOVLB  4
0BDEA:  MOVWF  x4B
0BDEC:  MOVLB  0
0BDEE:  CALL   4ABC
0BDF2:  MOVFF  447,44B
0BDF6:  MOVLW  01
0BDF8:  MOVLB  4
0BDFA:  MOVWF  x4C
0BDFC:  MOVLB  0
0BDFE:  CALL   4B1A
0BE02:  MOVLW  2E
0BE04:  BTFSS  F9E.4
0BE06:  BRA    BE04
0BE08:  MOVWF  FAD
0BE0A:  MOVLW  20
0BE0C:  BTFSS  F9E.4
0BE0E:  BRA    BE0C
0BE10:  MOVWF  FAD
0BE12:  MOVLW  20
0BE14:  BTFSS  F9E.4
0BE16:  BRA    BE14
0BE18:  MOVWF  FAD
0BE1A:  MOVFF  448,44B
0BE1E:  MOVLW  01
0BE20:  MOVLB  4
0BE22:  MOVWF  x4C
0BE24:  MOVLB  0
0BE26:  CALL   4B1A
0BE2A:  MOVLW  3A
0BE2C:  BTFSS  F9E.4
0BE2E:  BRA    BE2C
0BE30:  MOVWF  FAD
0BE32:  MOVFF  449,44B
0BE36:  MOVLW  01
0BE38:  MOVLB  4
0BE3A:  MOVWF  x4C
0BE3C:  MOVLB  0
0BE3E:  CALL   4B1A
0BE42:  MOVLW  22
0BE44:  BTFSS  F9E.4
0BE46:  BRA    BE44
0BE48:  MOVWF  FAD
....................          SendDataDisplay(); 
0BE4A:  CALL   39C0
....................          printf("T%u.txt=\"%3.1fC\"",i+1,TCiclos[i]); 
0BE4E:  MOVLW  01
0BE50:  MOVLB  3
0BE52:  ADDWF  x67,W
0BE54:  MOVLB  4
0BE56:  MOVWF  x46
0BE58:  MOVLB  3
0BE5A:  MOVF   x67,W
0BE5C:  MULLW  04
0BE5E:  MOVF   FF3,W
0BE60:  CLRF   03
0BE62:  ADDLW  D1
0BE64:  MOVWF  FE9
0BE66:  MOVLW  03
0BE68:  ADDWFC 03,W
0BE6A:  MOVWF  FEA
0BE6C:  MOVFF  FEF,447
0BE70:  MOVFF  FEC,448
0BE74:  MOVFF  FEC,449
0BE78:  MOVFF  FEC,44A
0BE7C:  MOVLW  54
0BE7E:  BTFSS  F9E.4
0BE80:  BRA    BE7E
0BE82:  MOVWF  FAD
0BE84:  MOVFF  446,44B
0BE88:  MOVLW  1B
0BE8A:  MOVLB  4
0BE8C:  MOVWF  x4C
0BE8E:  MOVLB  0
0BE90:  CALL   4B1A
0BE94:  MOVLW  D9
0BE96:  MOVWF  FF6
0BE98:  MOVLW  11
0BE9A:  MOVWF  FF7
0BE9C:  MOVLW  00
0BE9E:  MOVWF  FF8
0BEA0:  MOVLW  06
0BEA2:  MOVLB  4
0BEA4:  MOVWF  x4B
0BEA6:  MOVLB  0
0BEA8:  CALL   4ABC
0BEAC:  MOVLW  02
0BEAE:  MOVWF  FE9
0BEB0:  MOVFF  44A,44E
0BEB4:  MOVFF  449,44D
0BEB8:  MOVFF  448,44C
0BEBC:  MOVFF  447,44B
0BEC0:  MOVLW  01
0BEC2:  MOVLB  4
0BEC4:  MOVWF  x4F
0BEC6:  MOVLB  0
0BEC8:  CALL   4DE8
0BECC:  MOVLW  B0
0BECE:  BTFSS  F9E.4
0BED0:  BRA    BECE
0BED2:  MOVWF  FAD
0BED4:  MOVLW  43
0BED6:  BTFSS  F9E.4
0BED8:  BRA    BED6
0BEDA:  MOVWF  FAD
0BEDC:  MOVLW  22
0BEDE:  BTFSS  F9E.4
0BEE0:  BRA    BEDE
0BEE2:  MOVWF  FAD
....................          SendDataDisplay(); 
0BEE4:  CALL   39C0
....................          printf("Pc%u.txt=\"%03LukPa\"",i+1,PcCiclos[i]); 
0BEE8:  MOVLW  01
0BEEA:  MOVLB  3
0BEEC:  ADDWF  x67,W
0BEEE:  MOVLB  4
0BEF0:  MOVWF  x46
0BEF2:  BCF    FD8.0
0BEF4:  MOVLB  3
0BEF6:  RLCF   x67,W
0BEF8:  CLRF   03
0BEFA:  ADDLW  ED
0BEFC:  MOVWF  FE9
0BEFE:  MOVLW  03
0BF00:  ADDWFC 03,W
0BF02:  MOVWF  FEA
0BF04:  MOVFF  FEC,448
0BF08:  MOVF   FED,F
0BF0A:  MOVFF  FEF,447
0BF0E:  MOVLW  50
0BF10:  BTFSS  F9E.4
0BF12:  BRA    BF10
0BF14:  MOVWF  FAD
0BF16:  MOVLW  63
0BF18:  BTFSS  F9E.4
0BF1A:  BRA    BF18
0BF1C:  MOVWF  FAD
0BF1E:  MOVFF  446,44B
0BF22:  MOVLW  1B
0BF24:  MOVLB  4
0BF26:  MOVWF  x4C
0BF28:  MOVLB  0
0BF2A:  CALL   4B1A
0BF2E:  MOVLW  EC
0BF30:  MOVWF  FF6
0BF32:  MOVLW  11
0BF34:  MOVWF  FF7
0BF36:  MOVLW  00
0BF38:  MOVWF  FF8
0BF3A:  MOVLW  06
0BF3C:  MOVLB  4
0BF3E:  MOVWF  x4B
0BF40:  MOVLB  0
0BF42:  CALL   4ABC
0BF46:  MOVLW  0A
0BF48:  MOVWF  FE9
0BF4A:  MOVFF  448,44B
0BF4E:  MOVFF  447,44A
0BF52:  CALL   4C7A
0BF56:  MOVLW  F7
0BF58:  MOVWF  FF6
0BF5A:  MOVLW  11
0BF5C:  MOVWF  FF7
0BF5E:  MOVLW  00
0BF60:  MOVWF  FF8
0BF62:  MOVLW  04
0BF64:  MOVLB  4
0BF66:  MOVWF  x4B
0BF68:  MOVLB  0
0BF6A:  CALL   4ABC
....................          SendDataDisplay(); 
0BF6E:  CALL   39C0
....................          printf("Ppc%u.txt=\"%03LukPa\"",i+1,PpcCiclos[i]); 
0BF72:  MOVLW  01
0BF74:  MOVLB  3
0BF76:  ADDWF  x67,W
0BF78:  MOVLB  4
0BF7A:  MOVWF  x46
0BF7C:  BCF    FD8.0
0BF7E:  MOVLB  3
0BF80:  RLCF   x67,W
0BF82:  CLRF   03
0BF84:  ADDLW  FB
0BF86:  MOVWF  FE9
0BF88:  MOVLW  03
0BF8A:  ADDWFC 03,W
0BF8C:  MOVWF  FEA
0BF8E:  MOVFF  FEC,448
0BF92:  MOVF   FED,F
0BF94:  MOVFF  FEF,447
0BF98:  MOVLW  50
0BF9A:  BTFSS  F9E.4
0BF9C:  BRA    BF9A
0BF9E:  MOVWF  FAD
0BFA0:  MOVLW  70
0BFA2:  BTFSS  F9E.4
0BFA4:  BRA    BFA2
0BFA6:  MOVWF  FAD
0BFA8:  MOVLW  63
0BFAA:  BTFSS  F9E.4
0BFAC:  BRA    BFAA
0BFAE:  MOVWF  FAD
0BFB0:  MOVFF  446,44B
0BFB4:  MOVLW  1B
0BFB6:  MOVLB  4
0BFB8:  MOVWF  x4C
0BFBA:  MOVLB  0
0BFBC:  CALL   4B1A
0BFC0:  MOVLW  01
0BFC2:  MOVWF  FF6
0BFC4:  MOVLW  12
0BFC6:  MOVWF  FF7
0BFC8:  MOVLW  00
0BFCA:  MOVWF  FF8
0BFCC:  MOVLW  06
0BFCE:  MOVLB  4
0BFD0:  MOVWF  x4B
0BFD2:  MOVLB  0
0BFD4:  CALL   4ABC
0BFD8:  MOVLW  0A
0BFDA:  MOVWF  FE9
0BFDC:  MOVFF  448,44B
0BFE0:  MOVFF  447,44A
0BFE4:  CALL   4C7A
0BFE8:  MOVLW  0C
0BFEA:  MOVWF  FF6
0BFEC:  MOVLW  12
0BFEE:  MOVWF  FF7
0BFF0:  MOVLW  00
0BFF2:  MOVWF  FF8
0BFF4:  MOVLW  04
0BFF6:  MOVLB  4
0BFF8:  MOVWF  x4B
0BFFA:  MOVLB  0
0BFFC:  CALL   4ABC
....................          SendDataDisplay();          
0C000:  CALL   39C0
....................          codificaAlarma(); 
0C004:  GOTO   620A
....................       }   
0C008:  MOVLB  3
0C00A:  INCF   x67,F
0C00C:  BRA    BD6E
....................    } 
.................... //_--------------------------------------------------------------------------------------------------------------------------------------------------------       
....................  
.................... //_--------------------------------------------------------------------------------------------------------------------------------------------------------       
....................     if(Menu==15){//Menu de Clave Correcta 
0C00E:  MOVF   x64,W
0C010:  SUBLW  0F
0C012:  BNZ   C04A
....................       if(!entro){ 
0C014:  MOVLB  0
0C016:  BTFSC  xA4.3
0C018:  BRA    C034
....................          delay_ms(2000); 
0C01A:  MOVLW  08
0C01C:  MOVLB  4
0C01E:  MOVWF  x46
0C020:  MOVLW  FA
0C022:  MOVWF  x5B
0C024:  MOVLB  0
0C026:  CALL   1AC8
0C02A:  MOVLB  4
0C02C:  DECFSZ x46,F
0C02E:  BRA    C020
....................          entro=ON; 
0C030:  MOVLB  0
0C032:  BSF    xA4.3
....................       } 
....................       printf("page MenuPrincipal"); 
0C034:  MOVLW  12
0C036:  MOVWF  FF6
0C038:  MOVLW  12
0C03A:  MOVWF  FF7
0C03C:  MOVLW  00
0C03E:  MOVWF  FF8
0C040:  CALL   398E
....................       SendDataDisplay(); 
0C044:  CALL   39C0
0C048:  MOVLB  3
....................    } 
.................... //_--------------------------------------------------------------------------------------------------------------------------------------------------------       
....................  
.................... //_--------------------------------------------------------------------------------------------------------------------------------------------------------       
....................     if(Menu==16){//Menu de Clave InCorrecta 
0C04A:  MOVF   x64,W
0C04C:  SUBLW  10
0C04E:  BNZ   C086
....................       if(!entro){ 
0C050:  MOVLB  0
0C052:  BTFSC  xA4.3
0C054:  BRA    C070
....................          delay_ms(2000); 
0C056:  MOVLW  08
0C058:  MOVLB  4
0C05A:  MOVWF  x46
0C05C:  MOVLW  FA
0C05E:  MOVWF  x5B
0C060:  MOVLB  0
0C062:  CALL   1AC8
0C066:  MOVLB  4
0C068:  DECFSZ x46,F
0C06A:  BRA    C05C
....................          entro=ON; 
0C06C:  MOVLB  0
0C06E:  BSF    xA4.3
....................       } 
....................       printf("page Clave"); 
0C070:  MOVLW  26
0C072:  MOVWF  FF6
0C074:  MOVLW  12
0C076:  MOVWF  FF7
0C078:  MOVLW  00
0C07A:  MOVWF  FF8
0C07C:  CALL   398E
....................       SendDataDisplay(); 
0C080:  CALL   39C0
0C084:  MOVLB  3
....................    } 
.................... //_--------------------------------------------------------------------------------------------------------------------------------------------------------       
....................  
.................... //_--------------------------------------------------------------------------------------------------------------------------------------------------------     
....................    if(Menu==20){ // Este es el menu de cuando el proceso se inicio. 
0C086:  MOVF   x64,W
0C088:  SUBLW  14
0C08A:  BTFSS  FD8.2
0C08C:  GOTO   D1C8
....................    //Lectura_Esclavos(); 
....................    GuardaDatoEstatico(); 
0C090:  MOVLB  0
0C092:  GOTO   688A
....................    guardaCiclo=ON; 
0C096:  BSF    xA4.6
....................    if(!Libre){ 
0C098:  BTFSC  xA4.1
0C09A:  BRA    C120
....................       printf("t2f.txt=\"%u\"",CicloSeleccionado); 
0C09C:  MOVLW  32
0C09E:  MOVWF  FF6
0C0A0:  MOVLW  12
0C0A2:  MOVWF  FF7
0C0A4:  MOVLW  00
0C0A6:  MOVWF  FF8
0C0A8:  MOVLW  09
0C0AA:  MOVLB  4
0C0AC:  MOVWF  x4B
0C0AE:  MOVLB  0
0C0B0:  CALL   4ABC
0C0B4:  MOVFF  36A,44B
0C0B8:  MOVLW  1B
0C0BA:  MOVLB  4
0C0BC:  MOVWF  x4C
0C0BE:  MOVLB  0
0C0C0:  CALL   4B1A
0C0C4:  MOVLW  22
0C0C6:  BTFSS  F9E.4
0C0C8:  BRA    C0C6
0C0CA:  MOVWF  FAD
....................       SendDataDisplay(); 
0C0CC:  CALL   39C0
....................       printf("t3f.txt=\"%s\"",texto[CicloSeleccionado-1]); 
0C0D0:  MOVLW  01
0C0D2:  MOVLB  3
0C0D4:  SUBWF  x6A,W
0C0D6:  MULLW  14
0C0D8:  MOVF   FF3,W
0C0DA:  CLRF   03
0C0DC:  MOVLB  4
0C0DE:  MOVWF  x46
0C0E0:  MOVLW  40
0C0E2:  MOVWF  FF6
0C0E4:  MOVLW  12
0C0E6:  MOVWF  FF7
0C0E8:  MOVLW  00
0C0EA:  MOVWF  FF8
0C0EC:  MOVLW  09
0C0EE:  MOVWF  x4B
0C0F0:  MOVLB  0
0C0F2:  CALL   4ABC
0C0F6:  MOVLW  50
0C0F8:  MOVWF  FF6
0C0FA:  MOVLW  01
0C0FC:  MOVWF  FF7
0C0FE:  MOVLW  00
0C100:  MOVWF  FF8
0C102:  MOVLB  4
0C104:  MOVF   x46,W
0C106:  ADDWF  FF6,F
0C108:  MOVLW  00
0C10A:  ADDWFC FF7,F
0C10C:  MOVLB  0
0C10E:  CALL   398E
0C112:  MOVLW  22
0C114:  BTFSS  F9E.4
0C116:  BRA    C114
0C118:  MOVWF  FAD
....................       SendDataDisplay(); 
0C11A:  CALL   39C0
....................    }else{ 
0C11E:  BRA    C170
....................       printf("t2f.txt=\"%u\"",CicloLibre+4); 
0C120:  MOVLW  04
0C122:  MOVLB  3
0C124:  ADDWF  x45,W
0C126:  MOVLB  4
0C128:  MOVWF  x46
0C12A:  MOVLW  4E
0C12C:  MOVWF  FF6
0C12E:  MOVLW  12
0C130:  MOVWF  FF7
0C132:  MOVLW  00
0C134:  MOVWF  FF8
0C136:  MOVLW  09
0C138:  MOVWF  x4B
0C13A:  MOVLB  0
0C13C:  CALL   4ABC
0C140:  MOVFF  446,44B
0C144:  MOVLW  1B
0C146:  MOVLB  4
0C148:  MOVWF  x4C
0C14A:  MOVLB  0
0C14C:  CALL   4B1A
0C150:  MOVLW  22
0C152:  BTFSS  F9E.4
0C154:  BRA    C152
0C156:  MOVWF  FAD
....................       SendDataDisplay(); 
0C158:  CALL   39C0
....................       printf("t3f.txt=\"Personalizado\""); 
0C15C:  MOVLW  5C
0C15E:  MOVWF  FF6
0C160:  MOVLW  12
0C162:  MOVWF  FF7
0C164:  MOVLW  00
0C166:  MOVWF  FF8
0C168:  CALL   398E
....................       SendDataDisplay(); 
0C16C:  CALL   39C0
....................    } 
....................     
....................    if(RIGHT){ 
0C170:  BSF    F93.2
0C172:  BTFSC  F81.2
0C174:  BRA    C18C
....................       //glcd_init(ON); 
....................       delay_ms(1000); 
0C176:  MOVLW  04
0C178:  MOVLB  4
0C17A:  MOVWF  x46
0C17C:  MOVLW  FA
0C17E:  MOVWF  x5B
0C180:  MOVLB  0
0C182:  CALL   1AC8
0C186:  MOVLB  4
0C188:  DECFSZ x46,F
0C18A:  BRA    C17C
....................       /*flagCalentando=OFF; 
....................       flagDesfogando=OFF; 
....................       flagEsterilizando=OFF;*/ 
....................    } 
....................     
....................    #ifdef Generador 
....................    if(PresionPreCamara>=275 || PresionCamara>=275){ 
0C18C:  MOVLB  3
0C18E:  MOVF   x81,W
0C190:  SUBLW  00
0C192:  BC    C19E
0C194:  XORLW  FF
0C196:  BNZ   C1AE
0C198:  MOVF   x80,W
0C19A:  SUBLW  12
0C19C:  BNC   C1AE
0C19E:  MOVF   x7F,W
0C1A0:  SUBLW  00
0C1A2:  BC    C1EA
0C1A4:  XORLW  FF
0C1A6:  BNZ   C1AE
0C1A8:  MOVF   x7E,W
0C1AA:  SUBLW  12
0C1AC:  BC    C1EA
....................       conteoPresion++; 
0C1AE:  MOVLB  0
0C1B0:  INCF   xB4,F
0C1B2:  BTFSC  FD8.2
0C1B4:  INCF   xB5,F
....................       if(PresionPreCamara>=275 || PresionCamara>=275){ 
0C1B6:  MOVLB  3
0C1B8:  MOVF   x81,W
0C1BA:  SUBLW  00
0C1BC:  BC    C1C8
0C1BE:  XORLW  FF
0C1C0:  BNZ   C1D8
0C1C2:  MOVF   x80,W
0C1C4:  SUBLW  12
0C1C6:  BNC   C1D8
0C1C8:  MOVF   x7F,W
0C1CA:  SUBLW  00
0C1CC:  BC    C1E8
0C1CE:  XORLW  FF
0C1D0:  BNZ   C1D8
0C1D2:  MOVF   x7E,W
0C1D4:  SUBLW  12
0C1D6:  BC    C1E8
....................          if(conteoPresion>=50) 
0C1D8:  MOVLB  0
0C1DA:  MOVF   xB5,F
0C1DC:  BNZ   C1E4
0C1DE:  MOVF   xB4,W
0C1E0:  SUBLW  31
0C1E2:  BC    C1E6
....................             AlarmaPresion=ON;   
0C1E4:  BSF    xA4.0
0C1E6:  MOVLB  3
....................       } 
....................    }else{ 
0C1E8:  BRA    C1F0
....................       conteoPresion=0; 
0C1EA:  MOVLB  0
0C1EC:  CLRF   xB5
0C1EE:  CLRF   xB4
....................    } 
....................    #else 
....................    if(PresionCamara>Atmosferica+275){ 
....................       AlarmaPresion=ON; 
....................    } 
....................    #endif 
....................     
....................    if(Temperatura>105 && PresionCamara<Atmosferica+10 && !Desfogando){ 
0C1F0:  MOVLB  4
0C1F2:  CLRF   x4D
0C1F4:  CLRF   x4C
0C1F6:  MOVLW  52
0C1F8:  MOVWF  x4B
0C1FA:  MOVLW  85
0C1FC:  MOVWF  x4A
0C1FE:  MOVFF  332,451
0C202:  MOVFF  331,450
0C206:  MOVFF  330,44F
0C20A:  MOVFF  32F,44E
0C20E:  MOVLB  0
0C210:  CALL   2DCC
0C214:  BNC   C238
0C216:  MOVLW  0A
0C218:  MOVLB  3
0C21A:  ADDWF  xB5,W
0C21C:  MOVF   x7F,F
0C21E:  BTFSC  FD8.2
0C220:  BRA    C226
0C222:  MOVLB  0
0C224:  BRA    C238
0C226:  SUBWF  x7E,W
0C228:  BTFSS  FD8.0
0C22A:  BRA    C230
0C22C:  MOVLB  0
0C22E:  BRA    C238
0C230:  MOVLB  0
0C232:  BTFSC  xA0.5
0C234:  BRA    C238
....................       AlarmaCiclo=ON; 
0C236:  BSF    x9F.6
....................    } 
....................     
....................    #ifdef Generador 
....................    if(TiempoCiclo>3000){ 
0C238:  MOVF   xA7,W
0C23A:  SUBLW  0A
0C23C:  BC    C272
0C23E:  XORLW  FF
0C240:  BNZ   C248
0C242:  MOVF   xA6,W
0C244:  SUBLW  B8
0C246:  BC    C272
....................       if(TiempoCiclo>5400) 
0C248:  MOVF   xA7,W
0C24A:  SUBLW  14
0C24C:  BC    C25A
0C24E:  XORLW  FF
0C250:  BNZ   C258
0C252:  MOVF   xA6,W
0C254:  SUBLW  18
0C256:  BC    C25A
....................          AlarmaTiempoProlongado=ON; 
0C258:  BSF    x9F.0
....................       if(PresionPreCamara<Atmosferica+10){ 
0C25A:  MOVLW  0A
0C25C:  MOVLB  3
0C25E:  ADDWF  xB5,W
0C260:  MOVF   x81,F
0C262:  BNZ   C26E
0C264:  SUBWF  x80,W
0C266:  BC    C26E
....................          AlarmaTiempoProlongado=ON; 
0C268:  MOVLB  0
0C26A:  BSF    x9F.0
0C26C:  MOVLB  3
....................       } 
....................    }else{ 
0C26E:  BRA    C274
0C270:  MOVLB  0
....................       AlarmaTiempoProlongado=OFF; 
0C272:  BCF    x9F.0
....................    } 
....................    #else 
....................    if(TiempoCiclo>3000){ 
....................       if(TiempoCiclo>5000) 
....................          AlarmaTiempoProlongado=ON; 
....................       if(PresionCamara<Atmosferica+10){ 
....................          AlarmaTiempoProlongado=ON; 
....................       } 
....................    }else{ 
....................       AlarmaTiempoProlongado=OFF; 
....................    } 
....................    #endif 
....................     
....................    if(Temperatura>Setpoint+4.0){ 
0C274:  MOVLB  4
0C276:  CLRF   x5C
0C278:  MOVFF  36B,45B
0C27C:  MOVLB  0
0C27E:  CALL   1AF0
0C282:  BCF    FD8.1
0C284:  MOVFF  03,45E
0C288:  MOVFF  02,45D
0C28C:  MOVFF  01,45C
0C290:  MOVFF  00,45B
0C294:  MOVLB  4
0C296:  CLRF   x62
0C298:  CLRF   x61
0C29A:  CLRF   x60
0C29C:  MOVLW  81
0C29E:  MOVWF  x5F
0C2A0:  MOVLB  0
0C2A2:  CALL   1C84
0C2A6:  MOVFF  03,44D
0C2AA:  MOVFF  02,44C
0C2AE:  MOVFF  01,44B
0C2B2:  MOVFF  00,44A
0C2B6:  MOVFF  332,451
0C2BA:  MOVFF  331,450
0C2BE:  MOVFF  330,44F
0C2C2:  MOVFF  32F,44E
0C2C6:  CALL   2DCC
0C2CA:  BNC   C2CE
....................       AlarmaSobreTemperatura=ON; 
0C2CC:  BSF    x9F.1
....................    } 
....................     
....................    if(TiempoLlenado>1800){ 
0C2CE:  MOVF   xA9,W
0C2D0:  SUBLW  06
0C2D2:  BC    C2E2
0C2D4:  XORLW  FF
0C2D6:  BNZ   C2DE
0C2D8:  MOVF   xA8,W
0C2DA:  SUBLW  08
0C2DC:  BC    C2E2
....................       AlarmaLlenado=ON; 
0C2DE:  BSF    x9F.2
....................    }else{ 
0C2E0:  BRA    C2E4
....................       AlarmaLlenado=OFF; 
0C2E2:  BCF    x9F.2
....................    } 
....................     
....................    if(tTermostato>=2000){ 
0C2E4:  MOVLB  3
0C2E6:  MOVF   xA4,W
0C2E8:  SUBLW  06
0C2EA:  BC    C2FC
0C2EC:  XORLW  FF
0C2EE:  BNZ   C2F6
0C2F0:  MOVF   xA3,W
0C2F2:  SUBLW  CF
0C2F4:  BC    C2FC
....................       AlarmaTermostato=ON; 
0C2F6:  MOVLB  0
0C2F8:  BSF    x9F.3
0C2FA:  MOVLB  3
....................    } 
....................     
....................    if(!DOOR){ 
0C2FC:  BSF    F93.6
0C2FE:  BTFSS  F81.6
0C300:  BRA    C316
....................       //Desfogue_off; 
....................       //Solenoide_off; 
....................       //Agua_off; 
....................       //Bomba_off; 
....................       //Aire=OFF; 
....................       if(!Secando && !Finalizo && !Desfogando){ 
0C302:  MOVLB  0
0C304:  BTFSC  xA0.3
0C306:  BRA    C312
0C308:  BTFSC  xA3.7
0C30A:  BRA    C312
0C30C:  BTFSC  xA0.5
0C30E:  BRA    C312
....................          AlarmaPuerta=ON; 
0C310:  BSF    x9F.4
....................       } 
....................    }else{ 
0C312:  BRA    C31A
0C314:  MOVLB  3
....................       AlarmaPuerta=OFF; 
0C316:  MOVLB  0
0C318:  BCF    x9F.4
....................    } 
....................  
....................    if(tStop>=300){ 
0C31A:  MOVLB  3
0C31C:  MOVF   xA2,W
0C31E:  SUBLW  00
0C320:  BC    C332
0C322:  XORLW  FF
0C324:  BNZ   C32C
0C326:  MOVF   xA1,W
0C328:  SUBLW  2B
0C32A:  BC    C332
....................       AlarmaEmergencia=ON; 
0C32C:  MOVLB  0
0C32E:  BSF    x9F.5
0C330:  MOVLB  3
....................    } 
....................     
....................    if(AlarmaPuerta || AlarmaTermostato || AlarmaLlenado || AlarmaSobreTemperatura || AlarmaTiempoProlongado || AlarmaEmergencia || AlarmaPresion 
....................    || AlarmaCiclo){ 
0C332:  MOVLB  0
0C334:  BTFSC  x9F.4
0C336:  BRA    C354
0C338:  BTFSC  x9F.3
0C33A:  BRA    C354
0C33C:  BTFSC  x9F.2
0C33E:  BRA    C354
0C340:  BTFSC  x9F.1
0C342:  BRA    C354
0C344:  BTFSC  x9F.0
0C346:  BRA    C354
0C348:  BTFSC  x9F.5
0C34A:  BRA    C354
0C34C:  BTFSC  xA4.0
0C34E:  BRA    C354
0C350:  BTFSS  x9F.6
0C352:  BRA    C7BC
....................       ActivaAlarma(1); 
0C354:  MOVLW  01
0C356:  MOVLB  4
0C358:  MOVWF  x46
0C35A:  MOVLB  0
0C35C:  CALL   495C
....................       if(AlarmaEmergencia){ 
0C360:  BTFSS  x9F.5
0C362:  BRA    C3EE
....................          printf("Funcionamiento.t4f.txt=\" Parada de Emergencia\""); 
0C364:  MOVLW  74
0C366:  MOVWF  FF6
0C368:  MOVLW  12
0C36A:  MOVWF  FF7
0C36C:  MOVLW  00
0C36E:  MOVWF  FF8
0C370:  CALL   398E
....................          SendDataDisplay(); 
0C374:  CALL   39C0
....................          printf("Funcionamiento.t5f.txt=\" Cancelado\""); 
0C378:  MOVLW  A4
0C37A:  MOVWF  FF6
0C37C:  MOVLW  12
0C37E:  MOVWF  FF7
0C380:  MOVLW  00
0C382:  MOVWF  FF8
0C384:  CALL   398E
....................          SendDataDisplay(); 
0C388:  CALL   39C0
....................          Desfogue_on; 
0C38C:  BSF    F8C.4
0C38E:  BCF    F95.4
....................          SSR_off; 
0C390:  BSF    F8B.2
0C392:  BCF    F94.2
....................          Agua_off; 
0C394:  BCF    F8C.5
0C396:  BCF    F95.5
....................          #ifdef Generador 
....................          Paso_off; 
0C398:  BCF    F8C.6
0C39A:  BCF    F95.6
....................          #else 
....................          Bomba_off; 
....................          #endif 
....................          Aire=OFF; 
0C39C:  BCF    xA4.4
....................          Esterilizando=OFF; 
0C39E:  BCF    xA0.2
....................          Desfogando=OFF; 
0C3A0:  BCF    xA0.5
....................          DesfogueSuave=OFF; 
0C3A2:  BCF    xA0.6
....................          Esterilizando=OFF; 
0C3A4:  BCF    xA0.2
....................          //IniciaCiclo=OFF; 
....................          Controlando=0; 
0C3A6:  MOVLB  3
0C3A8:  CLRF   x5C
....................          codigoAlarma=1; 
0C3AA:  MOVLW  01
0C3AC:  MOVLB  2
0C3AE:  MOVWF  xED
....................          if(codigoAnt!=codigoAlarma){ 
0C3B0:  MOVF   xED,W
0C3B2:  SUBWF  xEE,W
0C3B4:  BZ    C3C4
....................             codigoAnt=codigoAlarma; 
0C3B6:  MOVFF  2ED,2EE
....................             GuardaDatoCiclo(); 
0C3BA:  MOVLB  0
0C3BC:  CALL   6B7A
....................             incrementaCiclos(); 
0C3C0:  CALL   6F1E
....................          } 
....................          if(!flagImprimir){ 
0C3C4:  MOVLB  0
0C3C6:  BTFSC  xA5.7
0C3C8:  BRA    C3EC
....................             Imprime=20; 
0C3CA:  MOVLW  14
0C3CC:  MOVLB  3
0C3CE:  MOVWF  xB4
....................             Envio_Esclavos(); 
0C3D0:  MOVLB  0
0C3D2:  CALL   4756
....................             delay_ms(100); 
0C3D6:  MOVLW  64
0C3D8:  MOVLB  4
0C3DA:  MOVWF  x5B
0C3DC:  MOVLB  0
0C3DE:  CALL   1AC8
....................             Imprime=10; 
0C3E2:  MOVLW  0A
0C3E4:  MOVLB  3
0C3E6:  MOVWF  xB4
....................             flagImprimir=1; 
0C3E8:  MOVLB  0
0C3EA:  BSF    xA5.7
....................          } 
....................       }else if(AlarmaPuerta){ 
0C3EC:  BRA    C7B6
0C3EE:  BTFSS  x9F.4
0C3F0:  BRA    C452
....................             codigoAlarma=2; 
0C3F2:  MOVLW  02
0C3F4:  MOVLB  2
0C3F6:  MOVWF  xED
....................             printf("Funcionamiento.t4f.txt=\" Puerta Abierta\""); 
0C3F8:  MOVLW  C8
0C3FA:  MOVWF  FF6
0C3FC:  MOVLW  12
0C3FE:  MOVWF  FF7
0C400:  MOVLW  00
0C402:  MOVWF  FF8
0C404:  MOVLB  0
0C406:  CALL   398E
....................             SendDataDisplay(); 
0C40A:  CALL   39C0
....................             printf("Funcionamiento.t5f.txt=\" Pausado\""); 
0C40E:  MOVLW  F2
0C410:  MOVWF  FF6
0C412:  MOVLW  12
0C414:  MOVWF  FF7
0C416:  MOVLW  00
0C418:  MOVWF  FF8
0C41A:  CALL   398E
....................             SendDataDisplay(); 
0C41E:  CALL   39C0
....................             SSR_off; 
0C422:  BSF    F8B.2
0C424:  BCF    F94.2
....................             Agua_off; 
0C426:  BCF    F8C.5
0C428:  BCF    F95.5
....................             #ifdef Generador 
....................             Paso_off; 
0C42A:  BCF    F8C.6
0C42C:  BCF    F95.6
....................             #else 
....................             Bomba_off; 
....................             #endif 
....................             Aire=OFF; 
0C42E:  BCF    xA4.4
....................             IniciaLlenado=OFF; 
0C430:  BCF    x9F.7
....................             IniciaCiclo=OFF; 
0C432:  BCF    xA0.1
....................             Esterilizando=OFF; 
0C434:  BCF    xA0.2
....................             Controlando=0; 
0C436:  MOVLB  3
0C438:  CLRF   x5C
....................             if(codigoAnt!=codigoAlarma){ 
0C43A:  MOVLB  2
0C43C:  MOVF   xED,W
0C43E:  SUBWF  xEE,W
0C440:  BZ    C44E
....................                codigoAnt=codigoAlarma; 
0C442:  MOVFF  2ED,2EE
....................                GuardaDatoCiclo(); 
0C446:  MOVLB  0
0C448:  CALL   6B7A
0C44C:  MOVLB  2
....................                //incrementaCiclos(); 
....................             } 
....................       }else if(AlarmaLlenado){ 
0C44E:  BRA    C7B8
0C450:  MOVLB  0
0C452:  BTFSS  x9F.2
0C454:  BRA    C4E2
....................             codigoAlarma=8; 
0C456:  MOVLW  08
0C458:  MOVLB  2
0C45A:  MOVWF  xED
....................             printf("Funcionamiento.t4f.txt=\" Tiempo Llenado\""); 
0C45C:  MOVLW  14
0C45E:  MOVWF  FF6
0C460:  MOVLW  13
0C462:  MOVWF  FF7
0C464:  MOVLW  00
0C466:  MOVWF  FF8
0C468:  MOVLB  0
0C46A:  CALL   398E
....................             SendDataDisplay(); 
0C46E:  CALL   39C0
....................             printf("Funcionamiento.t5f.txt=\" Cancelado\""); 
0C472:  MOVLW  3E
0C474:  MOVWF  FF6
0C476:  MOVLW  13
0C478:  MOVWF  FF7
0C47A:  MOVLW  00
0C47C:  MOVWF  FF8
0C47E:  CALL   398E
....................             SendDataDisplay(); 
0C482:  CALL   39C0
....................             Desfogue_off; 
0C486:  BCF    F8C.4
0C488:  BCF    F95.4
....................             SSR_off; 
0C48A:  BSF    F8B.2
0C48C:  BCF    F94.2
....................             Agua_off; 
0C48E:  BCF    F8C.5
0C490:  BCF    F95.5
....................             #ifdef Generador 
....................             Paso_off; 
0C492:  BCF    F8C.6
0C494:  BCF    F95.6
....................             #else 
....................             Bomba_off; 
....................             #endif 
....................             Aire=OFF; 
0C496:  BCF    xA4.4
....................             IniciaLlenado=OFF; 
0C498:  BCF    x9F.7
....................             IniciaCiclo=OFF; 
0C49A:  BCF    xA0.1
....................             Esterilizando=OFF; 
0C49C:  BCF    xA0.2
....................             Controlando=0; 
0C49E:  MOVLB  3
0C4A0:  CLRF   x5C
....................             if(codigoAnt!=codigoAlarma){ 
0C4A2:  MOVLB  2
0C4A4:  MOVF   xED,W
0C4A6:  SUBWF  xEE,W
0C4A8:  BZ    C4B8
....................                codigoAnt=codigoAlarma; 
0C4AA:  MOVFF  2ED,2EE
....................                GuardaDatoCiclo(); 
0C4AE:  MOVLB  0
0C4B0:  CALL   6B7A
....................                incrementaCiclos(); 
0C4B4:  CALL   6F1E
....................             } 
....................             if(!flagImprimir){ 
0C4B8:  MOVLB  0
0C4BA:  BTFSC  xA5.7
0C4BC:  BRA    C4E0
....................                Imprime=21; 
0C4BE:  MOVLW  15
0C4C0:  MOVLB  3
0C4C2:  MOVWF  xB4
....................                Envio_Esclavos(); 
0C4C4:  MOVLB  0
0C4C6:  CALL   4756
....................                delay_ms(100); 
0C4CA:  MOVLW  64
0C4CC:  MOVLB  4
0C4CE:  MOVWF  x5B
0C4D0:  MOVLB  0
0C4D2:  CALL   1AC8
....................                Imprime=10; 
0C4D6:  MOVLW  0A
0C4D8:  MOVLB  3
0C4DA:  MOVWF  xB4
....................                flagImprimir=1; 
0C4DC:  MOVLB  0
0C4DE:  BSF    xA5.7
....................             } 
....................       }else if(AlarmaTermostato){ // Alarma de Termostato 
0C4E0:  BRA    C7B6
0C4E2:  BTFSS  x9F.3
0C4E4:  BRA    C578
....................             codigoAlarma=3; 
0C4E6:  MOVLW  03
0C4E8:  MOVLB  2
0C4EA:  MOVWF  xED
....................             tiempo_esterilizacion=0;tiempo_secado=0; 
0C4EC:  MOVLB  3
0C4EE:  CLRF   x6E
0C4F0:  CLRF   x6F
....................             printf("Funcionamiento.t4f.txt=\" Termostato\""); 
0C4F2:  MOVLW  62
0C4F4:  MOVWF  FF6
0C4F6:  MOVLW  13
0C4F8:  MOVWF  FF7
0C4FA:  MOVLW  00
0C4FC:  MOVWF  FF8
0C4FE:  MOVLB  0
0C500:  CALL   398E
....................             SendDataDisplay(); 
0C504:  CALL   39C0
....................             printf("Funcionamiento.t5f.txt=\" Cancelado\""); 
0C508:  MOVLW  88
0C50A:  MOVWF  FF6
0C50C:  MOVLW  13
0C50E:  MOVWF  FF7
0C510:  MOVLW  00
0C512:  MOVWF  FF8
0C514:  CALL   398E
....................             SendDataDisplay(); 
0C518:  CALL   39C0
....................             Desfogue_on;             
0C51C:  BSF    F8C.4
0C51E:  BCF    F95.4
....................             SSR_off; 
0C520:  BSF    F8B.2
0C522:  BCF    F94.2
....................             Agua_off; 
0C524:  BCF    F8C.5
0C526:  BCF    F95.5
....................             #ifdef Generador 
....................             Paso_off; 
0C528:  BCF    F8C.6
0C52A:  BCF    F95.6
....................             #else 
....................             Bomba_off; 
....................             #endif 
....................             Aire=OFF; 
0C52C:  BCF    xA4.4
....................             Esterilizando=OFF; 
0C52E:  BCF    xA0.2
....................             Desfogando=OFF; 
0C530:  BCF    xA0.5
....................             IniciaCiclo=OFF; 
0C532:  BCF    xA0.1
....................             Controlando=0; 
0C534:  MOVLB  3
0C536:  CLRF   x5C
....................             if(codigoAnt!=codigoAlarma){ 
0C538:  MOVLB  2
0C53A:  MOVF   xED,W
0C53C:  SUBWF  xEE,W
0C53E:  BZ    C54E
....................                codigoAnt=codigoAlarma; 
0C540:  MOVFF  2ED,2EE
....................                GuardaDatoCiclo(); 
0C544:  MOVLB  0
0C546:  CALL   6B7A
....................                incrementaCiclos(); 
0C54A:  CALL   6F1E
....................             } 
....................             if(!flagImprimir){ 
0C54E:  MOVLB  0
0C550:  BTFSC  xA5.7
0C552:  BRA    C576
....................                Imprime=22; 
0C554:  MOVLW  16
0C556:  MOVLB  3
0C558:  MOVWF  xB4
....................                Envio_Esclavos(); 
0C55A:  MOVLB  0
0C55C:  CALL   4756
....................                delay_ms(100); 
0C560:  MOVLW  64
0C562:  MOVLB  4
0C564:  MOVWF  x5B
0C566:  MOVLB  0
0C568:  CALL   1AC8
....................                Imprime=10; 
0C56C:  MOVLW  0A
0C56E:  MOVLB  3
0C570:  MOVWF  xB4
....................                flagImprimir=1; 
0C572:  MOVLB  0
0C574:  BSF    xA5.7
....................             } 
....................       }else if(AlarmaSobreTemperatura){ // Alarma de Sobre Temperatura 
0C576:  BRA    C7B6
0C578:  BTFSS  x9F.1
0C57A:  BRA    C610
....................          codigoAlarma=4; 
0C57C:  MOVLW  04
0C57E:  MOVLB  2
0C580:  MOVWF  xED
....................          tiempo_esterilizacion=0;tiempo_secado=0; 
0C582:  MOVLB  3
0C584:  CLRF   x6E
0C586:  CLRF   x6F
....................          printf("Funcionamiento.t4f.txt=\" Sobretemperatura\""); 
0C588:  MOVLW  AC
0C58A:  MOVWF  FF6
0C58C:  MOVLW  13
0C58E:  MOVWF  FF7
0C590:  MOVLW  00
0C592:  MOVWF  FF8
0C594:  MOVLB  0
0C596:  CALL   398E
....................          SendDataDisplay(); 
0C59A:  CALL   39C0
....................          printf("Funcionamiento.t5f.txt=\" Cancelado\""); 
0C59E:  MOVLW  D8
0C5A0:  MOVWF  FF6
0C5A2:  MOVLW  13
0C5A4:  MOVWF  FF7
0C5A6:  MOVLW  00
0C5A8:  MOVWF  FF8
0C5AA:  CALL   398E
....................          SendDataDisplay();   
0C5AE:  CALL   39C0
....................          Desfogue_on; 
0C5B2:  BSF    F8C.4
0C5B4:  BCF    F95.4
....................          SSR_off; 
0C5B6:  BSF    F8B.2
0C5B8:  BCF    F94.2
....................          Agua_off; 
0C5BA:  BCF    F8C.5
0C5BC:  BCF    F95.5
....................          #ifdef Generador 
....................          Paso_off; 
0C5BE:  BCF    F8C.6
0C5C0:  BCF    F95.6
....................          #else 
....................          Bomba_off; 
....................          #endif 
....................          Aire=OFF; 
0C5C2:  BCF    xA4.4
....................          Controlando=0; 
0C5C4:  MOVLB  3
0C5C6:  CLRF   x5C
....................          IniciaLlenado=OFF; 
0C5C8:  MOVLB  0
0C5CA:  BCF    x9F.7
....................          IniciaCiclo=OFF; 
0C5CC:  BCF    xA0.1
....................          Esterilizando=OFF; 
0C5CE:  BCF    xA0.2
....................          if(codigoAnt!=codigoAlarma){ 
0C5D0:  MOVLB  2
0C5D2:  MOVF   xED,W
0C5D4:  SUBWF  xEE,W
0C5D6:  BZ    C5E6
....................             codigoAnt=codigoAlarma; 
0C5D8:  MOVFF  2ED,2EE
....................             GuardaDatoCiclo(); 
0C5DC:  MOVLB  0
0C5DE:  CALL   6B7A
....................             incrementaCiclos(); 
0C5E2:  CALL   6F1E
....................          } 
....................          if(!flagImprimir){ 
0C5E6:  MOVLB  0
0C5E8:  BTFSC  xA5.7
0C5EA:  BRA    C60E
....................             Imprime=23; 
0C5EC:  MOVLW  17
0C5EE:  MOVLB  3
0C5F0:  MOVWF  xB4
....................             Envio_Esclavos(); 
0C5F2:  MOVLB  0
0C5F4:  CALL   4756
....................             delay_ms(100); 
0C5F8:  MOVLW  64
0C5FA:  MOVLB  4
0C5FC:  MOVWF  x5B
0C5FE:  MOVLB  0
0C600:  CALL   1AC8
....................             Imprime=10; 
0C604:  MOVLW  0A
0C606:  MOVLB  3
0C608:  MOVWF  xB4
....................             flagImprimir=1; 
0C60A:  MOVLB  0
0C60C:  BSF    xA5.7
....................          } 
....................       }else if(AlarmaTiempoProlongado){ // Alarma de Error de Tiempo: Error por exceso de tiempo de calentamiento. 
0C60E:  BRA    C7B6
0C610:  BTFSS  x9F.0
0C612:  BRA    C6A2
....................          codigoAlarma=5; 
0C614:  MOVLW  05
0C616:  MOVLB  2
0C618:  MOVWF  xED
....................          printf("Funcionamiento.t4f.txt=\" Tiempo Prolongado\""); 
0C61A:  MOVLW  FC
0C61C:  MOVWF  FF6
0C61E:  MOVLW  13
0C620:  MOVWF  FF7
0C622:  MOVLW  00
0C624:  MOVWF  FF8
0C626:  MOVLB  0
0C628:  CALL   398E
....................          SendDataDisplay(); 
0C62C:  CALL   39C0
....................          printf("Funcionamiento.t5f.txt=\" Cancelado\""); 
0C630:  MOVLW  28
0C632:  MOVWF  FF6
0C634:  MOVLW  14
0C636:  MOVWF  FF7
0C638:  MOVLW  00
0C63A:  MOVWF  FF8
0C63C:  CALL   398E
....................          SendDataDisplay(); 
0C640:  CALL   39C0
....................          Desfogue_on; 
0C644:  BSF    F8C.4
0C646:  BCF    F95.4
....................          SSR_off; 
0C648:  BSF    F8B.2
0C64A:  BCF    F94.2
....................          Agua_off; 
0C64C:  BCF    F8C.5
0C64E:  BCF    F95.5
....................          #ifdef Generador 
....................          Paso_off; 
0C650:  BCF    F8C.6
0C652:  BCF    F95.6
....................          #else 
....................          Bomba_off; 
....................          #endif 
....................          Aire=OFF; 
0C654:  BCF    xA4.4
....................          Controlando=0; 
0C656:  MOVLB  3
0C658:  CLRF   x5C
....................          IniciaLlenado=OFF; 
0C65A:  MOVLB  0
0C65C:  BCF    x9F.7
....................          IniciaCiclo=OFF; 
0C65E:  BCF    xA0.1
....................          Esterilizando=OFF; 
0C660:  BCF    xA0.2
....................          if(codigoAnt!=codigoAlarma){ 
0C662:  MOVLB  2
0C664:  MOVF   xED,W
0C666:  SUBWF  xEE,W
0C668:  BZ    C678
....................             codigoAnt=codigoAlarma; 
0C66A:  MOVFF  2ED,2EE
....................             GuardaDatoCiclo(); 
0C66E:  MOVLB  0
0C670:  CALL   6B7A
....................             incrementaCiclos(); 
0C674:  CALL   6F1E
....................          } 
....................          if(!flagImprimir){ 
0C678:  MOVLB  0
0C67A:  BTFSC  xA5.7
0C67C:  BRA    C6A0
....................             Imprime=24; 
0C67E:  MOVLW  18
0C680:  MOVLB  3
0C682:  MOVWF  xB4
....................             Envio_Esclavos(); 
0C684:  MOVLB  0
0C686:  CALL   4756
....................             delay_ms(100); 
0C68A:  MOVLW  64
0C68C:  MOVLB  4
0C68E:  MOVWF  x5B
0C690:  MOVLB  0
0C692:  CALL   1AC8
....................             Imprime=10; 
0C696:  MOVLW  0A
0C698:  MOVLB  3
0C69A:  MOVWF  xB4
....................             flagImprimir=1; 
0C69C:  MOVLB  0
0C69E:  BSF    xA5.7
....................          } 
....................       }else if(AlarmaPresion){ // Alarma de Error de SobrePresion: Error por exceso de Presion. 
0C6A0:  BRA    C7B6
0C6A2:  BTFSS  xA4.0
0C6A4:  BRA    C732
....................          codigoAlarma=6; 
0C6A6:  MOVLW  06
0C6A8:  MOVLB  2
0C6AA:  MOVWF  xED
....................          printf("Funcionamiento.t4f.txt=\" SobrePresin\""); 
0C6AC:  MOVLW  4C
0C6AE:  MOVWF  FF6
0C6B0:  MOVLW  14
0C6B2:  MOVWF  FF7
0C6B4:  MOVLW  00
0C6B6:  MOVWF  FF8
0C6B8:  MOVLB  0
0C6BA:  CALL   398E
....................          SendDataDisplay(); 
0C6BE:  CALL   39C0
....................          printf("Funcionamiento.t5f.txt=\" Cancelado\""); 
0C6C2:  MOVLW  74
0C6C4:  MOVWF  FF6
0C6C6:  MOVLW  14
0C6C8:  MOVWF  FF7
0C6CA:  MOVLW  00
0C6CC:  MOVWF  FF8
0C6CE:  CALL   398E
....................          SendDataDisplay(); 
0C6D2:  CALL   39C0
....................          Desfogue_on; 
0C6D6:  BSF    F8C.4
0C6D8:  BCF    F95.4
....................          SSR_off; 
0C6DA:  BSF    F8B.2
0C6DC:  BCF    F94.2
....................          IniciaLlenado=OFF; 
0C6DE:  BCF    x9F.7
....................          IniciaCiclo=OFF; 
0C6E0:  BCF    xA0.1
....................          Esterilizando=OFF; 
0C6E2:  BCF    xA0.2
....................          Agua_off; 
0C6E4:  BCF    F8C.5
0C6E6:  BCF    F95.5
....................          #ifdef Generador 
....................          Paso_on; 
0C6E8:  BSF    F8C.6
0C6EA:  BCF    F95.6
....................          #else 
....................          Bomba_off; 
....................          #endif 
....................          Aire=OFF; 
0C6EC:  BCF    xA4.4
....................          Controlando=0; 
0C6EE:  MOVLB  3
0C6F0:  CLRF   x5C
....................          if(codigoAnt!=codigoAlarma){ 
0C6F2:  MOVLB  2
0C6F4:  MOVF   xED,W
0C6F6:  SUBWF  xEE,W
0C6F8:  BZ    C708
....................             codigoAnt=codigoAlarma; 
0C6FA:  MOVFF  2ED,2EE
....................             GuardaDatoCiclo(); 
0C6FE:  MOVLB  0
0C700:  CALL   6B7A
....................             incrementaCiclos(); 
0C704:  CALL   6F1E
....................          } 
....................          if(!flagImprimir){ 
0C708:  MOVLB  0
0C70A:  BTFSC  xA5.7
0C70C:  BRA    C730
....................             Imprime=25; 
0C70E:  MOVLW  19
0C710:  MOVLB  3
0C712:  MOVWF  xB4
....................             Envio_Esclavos(); 
0C714:  MOVLB  0
0C716:  CALL   4756
....................             delay_ms(100); 
0C71A:  MOVLW  64
0C71C:  MOVLB  4
0C71E:  MOVWF  x5B
0C720:  MOVLB  0
0C722:  CALL   1AC8
....................             Imprime=10; 
0C726:  MOVLW  0A
0C728:  MOVLB  3
0C72A:  MOVWF  xB4
....................             flagImprimir=1; 
0C72C:  MOVLB  0
0C72E:  BSF    xA5.7
....................          } 
....................       }else if(AlarmaCiclo){ // Alarma de Error de SobrePresion: Error por exceso de Presion. 
0C730:  BRA    C7B6
0C732:  BTFSS  x9F.6
0C734:  BRA    C7B6
....................          codigoAlarma=7; 
0C736:  MOVLW  07
0C738:  MOVLB  2
0C73A:  MOVWF  xED
....................          printf("Funcionamiento.t4f.txt=\" Error Ciclo\""); 
0C73C:  MOVLW  98
0C73E:  MOVWF  FF6
0C740:  MOVLW  14
0C742:  MOVWF  FF7
0C744:  MOVLW  00
0C746:  MOVWF  FF8
0C748:  MOVLB  0
0C74A:  CALL   398E
....................          SendDataDisplay(); 
0C74E:  CALL   39C0
....................          printf("Funcionamiento.t5f.txt=\" Cancelado\""); 
0C752:  MOVLW  BE
0C754:  MOVWF  FF6
0C756:  MOVLW  14
0C758:  MOVWF  FF7
0C75A:  MOVLW  00
0C75C:  MOVWF  FF8
0C75E:  CALL   398E
....................          SendDataDisplay(); 
0C762:  CALL   39C0
....................          Desfogue_on; 
0C766:  BSF    F8C.4
0C768:  BCF    F95.4
....................          SSR_off; 
0C76A:  BSF    F8B.2
0C76C:  BCF    F94.2
....................          IniciaLlenado=OFF; 
0C76E:  BCF    x9F.7
....................          IniciaCiclo=OFF; 
0C770:  BCF    xA0.1
....................          Esterilizando=OFF; 
0C772:  BCF    xA0.2
....................          Controlando=0; 
0C774:  MOVLB  3
0C776:  CLRF   x5C
....................          if(codigoAnt!=codigoAlarma){ 
0C778:  MOVLB  2
0C77A:  MOVF   xED,W
0C77C:  SUBWF  xEE,W
0C77E:  BZ    C78E
....................             codigoAnt=codigoAlarma; 
0C780:  MOVFF  2ED,2EE
....................             GuardaDatoCiclo(); 
0C784:  MOVLB  0
0C786:  CALL   6B7A
....................             incrementaCiclos(); 
0C78A:  CALL   6F1E
....................          } 
....................          if(!flagImprimir){ 
0C78E:  MOVLB  0
0C790:  BTFSC  xA5.7
0C792:  BRA    C7B6
....................             Imprime=26; 
0C794:  MOVLW  1A
0C796:  MOVLB  3
0C798:  MOVWF  xB4
....................             Envio_Esclavos(); 
0C79A:  MOVLB  0
0C79C:  CALL   4756
....................             delay_ms(100); 
0C7A0:  MOVLW  64
0C7A2:  MOVLB  4
0C7A4:  MOVWF  x5B
0C7A6:  MOVLB  0
0C7A8:  CALL   1AC8
....................             Imprime=10; 
0C7AC:  MOVLW  0A
0C7AE:  MOVLB  3
0C7B0:  MOVWF  xB4
....................             flagImprimir=1; 
0C7B2:  MOVLB  0
0C7B4:  BSF    xA5.7
0C7B6:  MOVLB  2
....................          } 
....................       } 
....................    } 
....................    else{   
0C7B8:  BRA    CE7C
0C7BA:  MOVLB  0
....................       Buzzer_off; 
0C7BC:  BCF    F8C.0
0C7BE:  BCF    F95.0
....................       IniciaCiclo=ON; 
0C7C0:  BSF    xA0.1
....................       if(flagImprime){ 
0C7C2:  BTFSS  xA5.6
0C7C4:  BRA    C7E8
....................          Imprime=5; 
0C7C6:  MOVLW  05
0C7C8:  MOVLB  3
0C7CA:  MOVWF  xB4
....................          Envio_Esclavos(); 
0C7CC:  MOVLB  0
0C7CE:  CALL   4756
....................          delay_ms(100); 
0C7D2:  MOVLW  64
0C7D4:  MOVLB  4
0C7D6:  MOVWF  x5B
0C7D8:  MOVLB  0
0C7DA:  CALL   1AC8
....................          Imprime=10; 
0C7DE:  MOVLW  0A
0C7E0:  MOVLB  3
0C7E2:  MOVWF  xB4
....................          flagImprime=0; 
0C7E4:  MOVLB  0
0C7E6:  BCF    xA5.6
....................       } 
....................          if(!CalderinLleno){ 
0C7E8:  BTFSC  xA0.0
0C7EA:  BRA    C84E
....................             #ifdef Generador 
....................                monitoreaAgua(); 
0C7EC:  CALL   4898
....................                printf("Funcionamiento.t4f.txt=\" Ninguna\""); 
0C7F0:  MOVLW  E2
0C7F2:  MOVWF  FF6
0C7F4:  MOVLW  14
0C7F6:  MOVWF  FF7
0C7F8:  MOVLW  00
0C7FA:  MOVWF  FF8
0C7FC:  CALL   398E
....................                SendDataDisplay(); 
0C800:  CALL   39C0
....................                printf("Funcionamiento.t5f.txt=\" Llenando Generador\""); 
0C804:  MOVLW  04
0C806:  MOVWF  FF6
0C808:  MOVLW  15
0C80A:  MOVWF  FF7
0C80C:  MOVLW  00
0C80E:  MOVWF  FF8
0C810:  CALL   398E
....................                SendDataDisplay(); 
0C814:  CALL   39C0
....................             #else 
....................             #ifdef Reservorio 
....................                if(!HIG){ 
....................                   printf("Funcionamiento.t4f.txt=\" Reservorio Bajo \""); 
....................                   SendDataDisplay(); 
....................                   printf("Funcionamiento.t5f.txt=\" Llenando Camara\""); 
....................                   SendDataDisplay(); 
....................                   #ifdef ULKA               
....................                      apagaBombaAgua(); 
....................                   #else 
....................                      Bomba_off; 
....................                   #endif 
....................                }else{ 
....................                   printf("Funcionamiento.t4f.txt=\" Ninguna\""); 
....................                   SendDataDisplay(); 
....................                   printf("Funcionamiento.t5f.txt=\" Llenando Camara\""); 
....................                   SendDataDisplay(); 
....................                   #ifdef ULKA               
....................                      enciendeBombaAgua(); 
....................                   #else 
....................                      Bomba_on; 
....................                   #endif 
....................                }  
....................             #else 
....................                printf("Funcionamiento.t4f.txt=\" Ninguna\""); 
....................                SendDataDisplay(); 
....................                printf("Funcionamiento.t5f.txt=\" Nivel Bajo\""); 
....................                SendDataDisplay(); 
....................             #endif 
....................             #endif 
....................             SSR_off; 
0C818:  BSF    F8B.2
0C81A:  BCF    F94.2
....................             Controlando=0; 
0C81C:  MOVLB  3
0C81E:  CLRF   x5C
....................             Control=0; 
0C820:  CLRF   x5A
....................             IniciaLlenado=ON; 
0C822:  MOVLB  0
0C824:  BSF    x9F.7
....................             Controlando=0; 
0C826:  MOVLB  3
0C828:  CLRF   x5C
....................             Desfogue_off; 
0C82A:  BCF    F8C.4
0C82C:  BCF    F95.4
....................             Aire=ON; 
0C82E:  MOVLB  0
0C830:  BSF    xA4.4
....................             codigoAlarma=10; 
0C832:  MOVLW  0A
0C834:  MOVLB  2
0C836:  MOVWF  xED
....................             if(codigoAnt!=codigoAlarma){ 
0C838:  MOVF   xED,W
0C83A:  SUBWF  xEE,W
0C83C:  BZ    C84A
....................                codigoAnt=codigoAlarma; 
0C83E:  MOVFF  2ED,2EE
....................                GuardaDatoCiclo(); 
0C842:  MOVLB  0
0C844:  CALL   6B7A
0C848:  MOVLB  2
....................             } 
....................          } 
....................          #ifdef Generador 
....................          else if(!Precalentamiento){ 
0C84A:  BRA    CE7C
0C84C:  MOVLB  0
0C84E:  BTFSC  xA0.7
0C850:  BRA    C8AC
....................             printf("Funcionamiento.t4f.txt=\" Ninguna\""); 
0C852:  MOVLW  32
0C854:  MOVWF  FF6
0C856:  MOVLW  15
0C858:  MOVWF  FF7
0C85A:  MOVLW  00
0C85C:  MOVWF  FF8
0C85E:  CALL   398E
....................             SendDataDisplay(); 
0C862:  CALL   39C0
....................             printf("Funcionamiento.t5f.txt=\" PreCalentando\""); 
0C866:  MOVLW  54
0C868:  MOVWF  FF6
0C86A:  MOVLW  15
0C86C:  MOVWF  FF7
0C86E:  MOVLW  00
0C870:  MOVWF  FF8
0C872:  CALL   398E
....................             SendDataDisplay(); 
0C876:  CALL   39C0
....................             ControlaPresionChaqueta();  
0C87A:  CALL   47E6
....................             Control=0; 
0C87E:  MOVLB  3
0C880:  CLRF   x5A
....................             Controlando=0; 
0C882:  CLRF   x5C
....................             codigoAlarma=12; 
0C884:  MOVLW  0C
0C886:  MOVLB  2
0C888:  MOVWF  xED
....................             if(codigoAnt!=codigoAlarma){ 
0C88A:  MOVF   xED,W
0C88C:  SUBWF  xEE,W
0C88E:  BZ    C89C
....................                codigoAnt=codigoAlarma; 
0C890:  MOVFF  2ED,2EE
....................                GuardaDatoCiclo(); 
0C894:  MOVLB  0
0C896:  CALL   6B7A
0C89A:  MOVLB  2
....................             } 
....................             Agua_off; 
0C89C:  BCF    F8C.5
0C89E:  BCF    F95.5
....................             Paso_off; 
0C8A0:  BCF    F8C.6
0C8A2:  BCF    F95.6
....................             Desfogue_off;            
0C8A4:  BCF    F8C.4
0C8A6:  BCF    F95.4
....................          }         
....................           
....................          #endif 
....................          else{ 
0C8A8:  BRA    CE7C
0C8AA:  MOVLB  0
....................             Agua_off; 
0C8AC:  BCF    F8C.5
0C8AE:  BCF    F95.5
....................             if(Temperatura>=((float)Setpoint)){ 
0C8B0:  MOVLB  4
0C8B2:  CLRF   x5C
0C8B4:  MOVFF  36B,45B
0C8B8:  MOVLB  0
0C8BA:  CALL   1AF0
0C8BE:  MOVFF  03,44D
0C8C2:  MOVFF  02,44C
0C8C6:  MOVFF  01,44B
0C8CA:  MOVFF  00,44A
0C8CE:  MOVFF  332,451
0C8D2:  MOVFF  331,450
0C8D6:  MOVFF  330,44F
0C8DA:  MOVFF  32F,44E
0C8DE:  CALL   2DCC
0C8E2:  BC    C8E6
0C8E4:  BNZ   C8E8
....................                Esterilizando=ON; 
0C8E6:  BSF    xA0.2
....................             } 
....................              
....................             if(Temperatura<((float)Setpoint-0.9) && !Desfogando){ 
0C8E8:  MOVLB  4
0C8EA:  CLRF   x5C
0C8EC:  MOVFF  36B,45B
0C8F0:  MOVLB  0
0C8F2:  CALL   1AF0
0C8F6:  MOVFF  00,446
0C8FA:  MOVFF  01,447
0C8FE:  MOVFF  02,448
0C902:  MOVFF  03,449
0C906:  BSF    FD8.1
0C908:  MOVFF  03,45E
0C90C:  MOVFF  02,45D
0C910:  MOVFF  01,45C
0C914:  MOVFF  00,45B
0C918:  MOVLW  66
0C91A:  MOVLB  4
0C91C:  MOVWF  x62
0C91E:  MOVWF  x61
0C920:  MOVWF  x60
0C922:  MOVLW  7E
0C924:  MOVWF  x5F
0C926:  MOVLB  0
0C928:  CALL   1C84
0C92C:  MOVFF  332,44D
0C930:  MOVFF  331,44C
0C934:  MOVFF  330,44B
0C938:  MOVFF  32F,44A
0C93C:  MOVFF  03,451
0C940:  MOVFF  02,450
0C944:  MOVFF  01,44F
0C948:  MOVFF  00,44E
0C94C:  CALL   2DCC
0C950:  BNC   C958
0C952:  BTFSC  xA0.5
0C954:  BRA    C958
....................                Esterilizando=OFF; 
0C956:  BCF    xA0.2
....................             } 
....................              
....................             if(!Esterilizando){ 
0C958:  BTFSC  xA0.2
0C95A:  BRA    C9F6
....................                codigoAlarma=12; 
0C95C:  MOVLW  0C
0C95E:  MOVLB  2
0C960:  MOVWF  xED
....................                if(codigoAnt!=codigoAlarma){ 
0C962:  MOVF   xED,W
0C964:  SUBWF  xEE,W
0C966:  BZ    C974
....................                   codigoAnt=codigoAlarma; 
0C968:  MOVFF  2ED,2EE
....................                   GuardaDatoCiclo();                   
0C96C:  MOVLB  0
0C96E:  CALL   6B7A
0C972:  MOVLB  2
....................                } 
....................                printf("Funcionamiento.t4f.txt=\" Ninguna\""); 
0C974:  MOVLW  7C
0C976:  MOVWF  FF6
0C978:  MOVLW  15
0C97A:  MOVWF  FF7
0C97C:  MOVLW  00
0C97E:  MOVWF  FF8
0C980:  MOVLB  0
0C982:  CALL   398E
....................                SendDataDisplay(); 
0C986:  CALL   39C0
....................                printf("Funcionamiento.t5f.txt=\" Calentando\""); 
0C98A:  MOVLW  9E
0C98C:  MOVWF  FF6
0C98E:  MOVLW  15
0C990:  MOVWF  FF7
0C992:  MOVLW  00
0C994:  MOVWF  FF8
0C996:  CALL   398E
....................                SendDataDisplay(); 
0C99A:  CALL   39C0
....................                Control=1; 
0C99E:  MOVLW  01
0C9A0:  MOVLB  3
0C9A2:  MOVWF  x5A
....................                #ifdef Generador 
....................                Paso_on; 
0C9A4:  BSF    F8C.6
0C9A6:  BCF    F95.6
....................                #else 
....................                Bomba_off; 
....................                #endif 
....................                if(Temperatura<=TTrampa){ 
0C9A8:  MOVLB  4
0C9AA:  CLRF   x5C
0C9AC:  MOVFF  2E3,45B
0C9B0:  MOVLB  0
0C9B2:  CALL   1AF0
0C9B6:  MOVFF  332,44D
0C9BA:  MOVFF  331,44C
0C9BE:  MOVFF  330,44B
0C9C2:  MOVFF  32F,44A
0C9C6:  MOVFF  03,451
0C9CA:  MOVFF  02,450
0C9CE:  MOVFF  01,44F
0C9D2:  MOVFF  00,44E
0C9D6:  CALL   2DCC
0C9DA:  BC    C9DE
0C9DC:  BNZ   C9EA
....................                   Aire=ON; 
0C9DE:  BSF    xA4.4
....................                   Controla(); 
0C9E0:  CALL   7018
....................                   #ifdef Reservorio 
....................                      Desfogue_off; 
....................                   #else 
....................                      Desfogue_on; 
0C9E4:  BSF    F8C.4
0C9E6:  BCF    F95.4
....................                   #endif 
....................                }else{ 
0C9E8:  BRA    C9F4
....................                   Aire=OFF; 
0C9EA:  BCF    xA4.4
....................                   //Desfogue_off; 
....................                   purgaAire(); 
0C9EC:  GOTO   75B0
....................                   #ifdef PT100Fija 
....................                      Controla(); 
0C9F0:  CALL   7018
....................                   #else 
....................                      ControlaPresion(); 
....................                   #endif 
....................                } 
....................             }else{ 
0C9F4:  BRA    CE78
....................                TiempoCiclo=0; 
0C9F6:  CLRF   xA7
0C9F8:  CLRF   xA6
....................                if((Testerilizacion[0]==0)&&(Testerilizacion[1]==0)&& 
....................                (Testerilizacion[2]==0)&&(Testerilizacion[3]==0)){  
0C9FA:  MOVF   xB8,F
0C9FC:  BTFSS  FD8.2
0C9FE:  BRA    CE24
0CA00:  MOVF   xB9,F
0CA02:  BTFSS  FD8.2
0CA04:  BRA    CE24
0CA06:  MOVF   xBA,F
0CA08:  BTFSS  FD8.2
0CA0A:  BRA    CE24
0CA0C:  MOVF   xBB,F
0CA0E:  BTFSS  FD8.2
0CA10:  BRA    CE24
....................                   if(desfoguelento){ 
0CA12:  BTFSS  xA5.1
0CA14:  BRA    CBFC
....................                      Controlando=0; 
0CA16:  MOVLB  3
0CA18:  CLRF   x5C
....................                      if(PresionCamara<=Atmosferica+25){ 
0CA1A:  MOVLW  19
0CA1C:  ADDWF  xB5,W
0CA1E:  MOVF   x7F,F
0CA20:  BTFSS  FD8.2
0CA22:  BRA    CBA4
0CA24:  SUBWF  x7E,W
0CA26:  BZ    CA2C
0CA28:  BTFSC  FD8.0
0CA2A:  BRA    CBA4
....................                         SSR_off; 
0CA2C:  BSF    F8B.2
0CA2E:  BCF    F94.2
....................                         Secando=OFF; 
0CA30:  MOVLB  0
0CA32:  BCF    xA0.3
....................                         DesfogueSuave=OFF; 
0CA34:  BCF    xA0.6
....................                         Aire=OFF; 
0CA36:  BCF    xA4.4
....................                         if(PresionCamara<Atmosferica+2){ 
0CA38:  MOVLW  02
0CA3A:  MOVLB  3
0CA3C:  ADDWF  xB5,W
0CA3E:  MOVF   x7F,F
0CA40:  BTFSS  FD8.2
0CA42:  BRA    CB86
0CA44:  SUBWF  x7E,W
0CA46:  BTFSC  FD8.0
0CA48:  BRA    CB86
....................                            SSR_off; 
0CA4A:  BSF    F8B.2
0CA4C:  BCF    F94.2
....................                            if(!DOOR){ 
0CA4E:  BSF    F93.6
0CA50:  BTFSS  F81.6
0CA52:  BRA    CA5A
....................                               Desfogue_off; 
0CA54:  BCF    F8C.4
0CA56:  BCF    F95.4
....................                            }else{ 
0CA58:  BRA    CA5E
....................                               Desfogue_on; 
0CA5A:  BSF    F8C.4
0CA5C:  BCF    F95.4
....................                            } 
....................                            #ifdef Generador 
....................                            Paso_off; 
0CA5E:  BCF    F8C.6
0CA60:  BCF    F95.6
....................                            #endif 
....................                            if(Temperatura<=90){ 
0CA62:  MOVFF  332,44D
0CA66:  MOVFF  331,44C
0CA6A:  MOVFF  330,44B
0CA6E:  MOVFF  32F,44A
0CA72:  MOVLB  4
0CA74:  CLRF   x51
0CA76:  CLRF   x50
0CA78:  MOVLW  34
0CA7A:  MOVWF  x4F
0CA7C:  MOVLW  85
0CA7E:  MOVWF  x4E
0CA80:  MOVLB  0
0CA82:  CALL   2DCC
0CA86:  BC    CA8A
0CA88:  BNZ   CAC0
....................                               ActivaAlarma(2); 
0CA8A:  MOVLW  02
0CA8C:  MOVLB  4
0CA8E:  MOVWF  x46
0CA90:  MOVLB  0
0CA92:  CALL   495C
....................                               printf("Funcionamiento.t4f.txt=\" Ninguna\""); 
0CA96:  MOVLW  C4
0CA98:  MOVWF  FF6
0CA9A:  MOVLW  15
0CA9C:  MOVWF  FF7
0CA9E:  MOVLW  00
0CAA0:  MOVWF  FF8
0CAA2:  CALL   398E
....................                               SendDataDisplay(); 
0CAA6:  CALL   39C0
....................                               printf("Funcionamiento.t5f.txt=\" Finalizado\""); 
0CAAA:  MOVLW  E6
0CAAC:  MOVWF  FF6
0CAAE:  MOVLW  15
0CAB0:  MOVWF  FF7
0CAB2:  MOVLW  00
0CAB4:  MOVWF  FF8
0CAB6:  CALL   398E
....................                               SendDataDisplay(); 
0CABA:  CALL   39C0
....................                               Finalizo=ON; 
0CABE:  BSF    xA3.7
....................                            } 
....................                            codigoAlarma=14; 
0CAC0:  MOVLW  0E
0CAC2:  MOVLB  2
0CAC4:  MOVWF  xED
....................                            if(codigoAnt!=codigoAlarma){ 
0CAC6:  MOVF   xED,W
0CAC8:  SUBWF  xEE,W
0CACA:  BZ    CAD6
....................                               codigoAnt=codigoAlarma; 
0CACC:  MOVFF  2ED,2EE
....................                               GuardaDatoCiclo();                   
0CAD0:  MOVLB  0
0CAD2:  CALL   6B7A
....................                            } 
....................                            if(!Ciclo){ 
0CAD6:  MOVLB  0
0CAD8:  BTFSC  xA1.4
0CADA:  BRA    CB82
....................                               Ciclo=ON; 
0CADC:  BSF    xA1.4
....................                               Ciclos++; 
0CADE:  MOVLB  3
0CAE0:  INCF   x82,F
0CAE2:  BTFSC  FD8.2
0CAE4:  INCF   x83,F
....................                               CiclosL=make8(Ciclos,0); 
0CAE6:  MOVFF  382,368
....................                               CiclosH=make8(Ciclos,1); 
0CAEA:  MOVFF  383,369
....................                               write_eeprom(37,CiclosL); 
0CAEE:  CLRF   FAA
0CAF0:  MOVLW  25
0CAF2:  MOVWF  FA9
0CAF4:  MOVFF  368,FA8
0CAF8:  BCF    FA6.6
0CAFA:  BCF    FA6.7
0CAFC:  BSF    FA6.2
0CAFE:  MOVF   FF2,W
0CB00:  MOVWF  00
0CB02:  BCF    FF2.6
0CB04:  BCF    FF2.7
0CB06:  MOVLB  F
0CB08:  MOVLW  55
0CB0A:  MOVWF  FA7
0CB0C:  MOVLW  AA
0CB0E:  MOVWF  FA7
0CB10:  BSF    FA6.1
0CB12:  BTFSC  FA6.1
0CB14:  BRA    CB12
0CB16:  BCF    FA6.2
0CB18:  MOVF   00,W
0CB1A:  IORWF  FF2,F
....................                               delay_ms(20); 
0CB1C:  MOVLW  14
0CB1E:  MOVLB  4
0CB20:  MOVWF  x5B
0CB22:  MOVLB  0
0CB24:  CALL   1AC8
....................                               write_eeprom(38,CiclosH); 
0CB28:  CLRF   FAA
0CB2A:  MOVLW  26
0CB2C:  MOVWF  FA9
0CB2E:  MOVFF  369,FA8
0CB32:  BCF    FA6.6
0CB34:  BCF    FA6.7
0CB36:  BSF    FA6.2
0CB38:  MOVF   FF2,W
0CB3A:  MOVWF  00
0CB3C:  BCF    FF2.6
0CB3E:  BCF    FF2.7
0CB40:  MOVLB  F
0CB42:  MOVLW  55
0CB44:  MOVWF  FA7
0CB46:  MOVLW  AA
0CB48:  MOVWF  FA7
0CB4A:  BSF    FA6.1
0CB4C:  BTFSC  FA6.1
0CB4E:  BRA    CB4C
0CB50:  BCF    FA6.2
0CB52:  MOVF   00,W
0CB54:  IORWF  FF2,F
....................                               delay_ms(20);                               
0CB56:  MOVLW  14
0CB58:  MOVLB  4
0CB5A:  MOVWF  x5B
0CB5C:  MOVLB  0
0CB5E:  CALL   1AC8
....................                               Imprime=28; 
0CB62:  MOVLW  1C
0CB64:  MOVLB  3
0CB66:  MOVWF  xB4
....................                               Envio_Esclavos(); 
0CB68:  MOVLB  0
0CB6A:  CALL   4756
....................                               delay_ms(100); 
0CB6E:  MOVLW  64
0CB70:  MOVLB  4
0CB72:  MOVWF  x5B
0CB74:  MOVLB  0
0CB76:  CALL   1AC8
....................                               Imprime=10;                               
0CB7A:  MOVLW  0A
0CB7C:  MOVLB  3
0CB7E:  MOVWF  xB4
0CB80:  MOVLB  0
....................                            } 
....................                         }else if(PresionCamara>=Atmosferica+7){ 
0CB82:  BRA    CBA0
0CB84:  MOVLB  3
0CB86:  MOVLW  07
0CB88:  ADDWF  xB5,W
0CB8A:  MOVF   x7F,F
0CB8C:  BNZ   CB92
0CB8E:  SUBWF  x7E,W
0CB90:  BNC   CB9E
....................                            Desfogue_on; 
0CB92:  BSF    F8C.4
0CB94:  BCF    F95.4
....................                            #ifdef Generador 
....................                            Paso_on; 
0CB96:  BSF    F8C.6
0CB98:  BCF    F95.6
....................                            #endif 
....................                            SSR_off; 
0CB9A:  BSF    F8B.2
0CB9C:  BCF    F94.2
0CB9E:  MOVLB  0
....................                         } 
....................                      }else{ 
0CBA0:  BRA    CBFA
0CBA2:  MOVLB  3
....................                         codigoAlarma=13; 
0CBA4:  MOVLW  0D
0CBA6:  MOVLB  2
0CBA8:  MOVWF  xED
....................                         if(codigoAnt!=codigoAlarma){ 
0CBAA:  MOVF   xED,W
0CBAC:  SUBWF  xEE,W
0CBAE:  BZ    CBBA
....................                            codigoAnt=codigoAlarma; 
0CBB0:  MOVFF  2ED,2EE
....................                            GuardaDatoCiclo();                   
0CBB4:  MOVLB  0
0CBB6:  CALL   6B7A
....................                         } 
....................                         Desfogando=ON; 
0CBBA:  MOVLB  0
0CBBC:  BSF    xA0.5
....................                         DesfogueSuave=ON; 
0CBBE:  BSF    xA0.6
....................                         printf("Funcionamiento.t4f.txt=\" Ninguna\""); 
0CBC0:  MOVLW  0C
0CBC2:  MOVWF  FF6
0CBC4:  MOVLW  16
0CBC6:  MOVWF  FF7
0CBC8:  MOVLW  00
0CBCA:  MOVWF  FF8
0CBCC:  CALL   398E
....................                         SendDataDisplay(); 
0CBD0:  CALL   39C0
....................                         printf("Funcionamiento.t5f.txt=\" Despresurizando\""); 
0CBD4:  MOVLW  2E
0CBD6:  MOVWF  FF6
0CBD8:  MOVLW  16
0CBDA:  MOVWF  FF7
0CBDC:  MOVLW  00
0CBDE:  MOVWF  FF8
0CBE0:  CALL   398E
....................                         SendDataDisplay(); 
0CBE4:  CALL   39C0
....................                         Control=0; 
0CBE8:  MOVLB  3
0CBEA:  CLRF   x5A
....................                         Controlando=0; 
0CBEC:  CLRF   x5C
....................                         SSR_off; 
0CBEE:  BSF    F8B.2
0CBF0:  BCF    F94.2
....................                         #ifdef Generador 
....................                         Paso_on; 
0CBF2:  BSF    F8C.6
0CBF4:  BCF    F95.6
....................                         #else 
....................                         Bomba_off; 
....................                         #endif 
....................                         Aire=OFF; 
0CBF6:  MOVLB  0
0CBF8:  BCF    xA4.4
....................                      } 
....................                   }else{ 
0CBFA:  BRA    CE1E
....................                      //SSR_off; 
....................                      Controlando=0; 
0CBFC:  MOVLB  3
0CBFE:  CLRF   x5C
....................                      Control=0; 
0CC00:  CLRF   x5A
....................                      if(PresionCamara<=Atmosferica+5){ 
0CC02:  MOVLW  05
0CC04:  ADDWF  xB5,W
0CC06:  MOVF   x7F,F
0CC08:  BTFSS  FD8.2
0CC0A:  BRA    CDBA
0CC0C:  SUBWF  x7E,W
0CC0E:  BZ    CC14
0CC10:  BTFSC  FD8.0
0CC12:  BRA    CDBA
....................                         if((Tsecado[0]==0)&&(Tsecado[1]==0)&&(Tsecado[2]==0)&&(Tsecado[3]==0)){ 
0CC14:  MOVLB  0
0CC16:  MOVF   xC2,F
0CC18:  BTFSS  FD8.2
0CC1A:  BRA    CD58
0CC1C:  MOVF   xC3,F
0CC1E:  BTFSS  FD8.2
0CC20:  BRA    CD58
0CC22:  MOVF   xC4,F
0CC24:  BTFSS  FD8.2
0CC26:  BRA    CD58
0CC28:  MOVF   xC5,F
0CC2A:  BTFSS  FD8.2
0CC2C:  BRA    CD58
....................                            SSR_off; 
0CC2E:  BSF    F8B.2
0CC30:  BCF    F94.2
....................                            Secando=OFF; 
0CC32:  BCF    xA0.3
....................                            #ifdef Generador 
....................                            Paso_off; 
0CC34:  BCF    F8C.6
0CC36:  BCF    F95.6
....................                            #endif 
....................                            if(!DOOR){ 
0CC38:  BSF    F93.6
0CC3A:  BTFSS  F81.6
0CC3C:  BRA    CC48
....................                               #ifdef Generador 
....................                               Paso_off; 
0CC3E:  BCF    F8C.6
0CC40:  BCF    F95.6
....................                               #else 
....................                               Bomba_off; 
....................                               #endif 
....................                               Aire=OFF; 
0CC42:  BCF    xA4.4
....................                               Desfogue_off; 
0CC44:  BCF    F8C.4
0CC46:  BCF    F95.4
....................                            } 
....................                             
....................                            ActivaAlarma(2); 
0CC48:  MOVLW  02
0CC4A:  MOVLB  4
0CC4C:  MOVWF  x46
0CC4E:  MOVLB  0
0CC50:  CALL   495C
....................                            printf("Funcionamiento.t4f.txt=\" Ninguna\""); 
0CC54:  MOVLW  58
0CC56:  MOVWF  FF6
0CC58:  MOVLW  16
0CC5A:  MOVWF  FF7
0CC5C:  MOVLW  00
0CC5E:  MOVWF  FF8
0CC60:  CALL   398E
....................                            SendDataDisplay(); 
0CC64:  CALL   39C0
....................                            printf("Funcionamiento.t5f.txt=\" Finalizado\""); 
0CC68:  MOVLW  7A
0CC6A:  MOVWF  FF6
0CC6C:  MOVLW  16
0CC6E:  MOVWF  FF7
0CC70:  MOVLW  00
0CC72:  MOVWF  FF8
0CC74:  CALL   398E
....................                            SendDataDisplay(); 
0CC78:  CALL   39C0
....................                            Finalizo=ON; 
0CC7C:  BSF    xA3.7
....................                            #ifdef Generador 
....................                            Paso_off; 
0CC7E:  BCF    F8C.6
0CC80:  BCF    F95.6
....................                            #else 
....................                            Bomba_off; 
....................                            #endif 
....................                            Aire=OFF; 
0CC82:  BCF    xA4.4
....................                            if(DOOR){  
0CC84:  BSF    F93.6
0CC86:  BTFSC  F81.6
0CC88:  BRA    CC8E
....................                               Desfogue_on; 
0CC8A:  BSF    F8C.4
0CC8C:  BCF    F95.4
....................                            } 
....................                            codigoAlarma=14; 
0CC8E:  MOVLW  0E
0CC90:  MOVLB  2
0CC92:  MOVWF  xED
....................                            if(codigoAnt!=codigoAlarma){ 
0CC94:  MOVF   xED,W
0CC96:  SUBWF  xEE,W
0CC98:  BZ    CCA4
....................                               codigoAnt=codigoAlarma; 
0CC9A:  MOVFF  2ED,2EE
....................                               GuardaDatoCiclo();                   
0CC9E:  MOVLB  0
0CCA0:  CALL   6B7A
....................                            } 
....................                            if(!Ciclo){ 
0CCA4:  MOVLB  0
0CCA6:  BTFSC  xA1.4
0CCA8:  BRA    CD54
....................                               Ciclo=ON; 
0CCAA:  BSF    xA1.4
....................                               Ciclos++; 
0CCAC:  MOVLB  3
0CCAE:  INCF   x82,F
0CCB0:  BTFSC  FD8.2
0CCB2:  INCF   x83,F
....................                               CiclosL=make8(Ciclos,0); 
0CCB4:  MOVFF  382,368
....................                               CiclosH=make8(Ciclos,1); 
0CCB8:  MOVFF  383,369
....................                               write_eeprom(37,CiclosL); 
0CCBC:  CLRF   FAA
0CCBE:  MOVLW  25
0CCC0:  MOVWF  FA9
0CCC2:  MOVFF  368,FA8
0CCC6:  BCF    FA6.6
0CCC8:  BCF    FA6.7
0CCCA:  BSF    FA6.2
0CCCC:  MOVF   FF2,W
0CCCE:  MOVWF  00
0CCD0:  BCF    FF2.6
0CCD2:  BCF    FF2.7
0CCD4:  MOVLB  F
0CCD6:  MOVLW  55
0CCD8:  MOVWF  FA7
0CCDA:  MOVLW  AA
0CCDC:  MOVWF  FA7
0CCDE:  BSF    FA6.1
0CCE0:  BTFSC  FA6.1
0CCE2:  BRA    CCE0
0CCE4:  BCF    FA6.2
0CCE6:  MOVF   00,W
0CCE8:  IORWF  FF2,F
....................                               delay_ms(20); 
0CCEA:  MOVLW  14
0CCEC:  MOVLB  4
0CCEE:  MOVWF  x5B
0CCF0:  MOVLB  0
0CCF2:  CALL   1AC8
....................                               write_eeprom(38,CiclosH); 
0CCF6:  CLRF   FAA
0CCF8:  MOVLW  26
0CCFA:  MOVWF  FA9
0CCFC:  MOVFF  369,FA8
0CD00:  BCF    FA6.6
0CD02:  BCF    FA6.7
0CD04:  BSF    FA6.2
0CD06:  MOVF   FF2,W
0CD08:  MOVWF  00
0CD0A:  BCF    FF2.6
0CD0C:  BCF    FF2.7
0CD0E:  MOVLB  F
0CD10:  MOVLW  55
0CD12:  MOVWF  FA7
0CD14:  MOVLW  AA
0CD16:  MOVWF  FA7
0CD18:  BSF    FA6.1
0CD1A:  BTFSC  FA6.1
0CD1C:  BRA    CD1A
0CD1E:  BCF    FA6.2
0CD20:  MOVF   00,W
0CD22:  IORWF  FF2,F
....................                               delay_ms(20); 
0CD24:  MOVLW  14
0CD26:  MOVLB  4
0CD28:  MOVWF  x5B
0CD2A:  MOVLB  0
0CD2C:  CALL   1AC8
....................                               if(ActivaImpresion==1){ 
0CD30:  MOVLB  3
0CD32:  DECFSZ x5D,W
0CD34:  BRA    CD52
....................                                  Imprime=28; 
0CD36:  MOVLW  1C
0CD38:  MOVWF  xB4
....................                                  Envio_Esclavos(); 
0CD3A:  MOVLB  0
0CD3C:  CALL   4756
....................                                  delay_ms(100); 
0CD40:  MOVLW  64
0CD42:  MOVLB  4
0CD44:  MOVWF  x5B
0CD46:  MOVLB  0
0CD48:  CALL   1AC8
....................                                  Imprime=10; 
0CD4C:  MOVLW  0A
0CD4E:  MOVLB  3
0CD50:  MOVWF  xB4
0CD52:  MOVLB  0
....................                               } 
....................                            } 
....................                            Secando=OFF; 
0CD54:  BCF    xA0.3
....................                         }else{ 
0CD56:  BRA    CDB6
....................                            codigoAlarma=15; 
0CD58:  MOVLW  0F
0CD5A:  MOVLB  2
0CD5C:  MOVWF  xED
....................                            if(codigoAnt!=codigoAlarma){ 
0CD5E:  MOVF   xED,W
0CD60:  SUBWF  xEE,W
0CD62:  BZ    CD6E
....................                               codigoAnt=codigoAlarma; 
0CD64:  MOVFF  2ED,2EE
....................                               GuardaDatoCiclo();                   
0CD68:  MOVLB  0
0CD6A:  CALL   6B7A
....................                            } 
....................                            Secando=ON; 
0CD6E:  MOVLB  0
0CD70:  BSF    xA0.3
....................                            printf("Funcionamiento.t4f.txt=\" Ninguna\""); 
0CD72:  MOVLW  A0
0CD74:  MOVWF  FF6
0CD76:  MOVLW  16
0CD78:  MOVWF  FF7
0CD7A:  MOVLW  00
0CD7C:  MOVWF  FF8
0CD7E:  CALL   398E
....................                            SendDataDisplay(); 
0CD82:  CALL   39C0
....................                            printf("Funcionamiento.t5f.txt=\" Secando\""); 
0CD86:  MOVLW  C2
0CD88:  MOVWF  FF6
0CD8A:  MOVLW  16
0CD8C:  MOVWF  FF7
0CD8E:  MOVLW  00
0CD90:  MOVWF  FF8
0CD92:  CALL   398E
....................                            SendDataDisplay();                            
0CD96:  CALL   39C0
....................                            if(DOOR){ 
0CD9A:  BSF    F93.6
0CD9C:  BTFSC  F81.6
0CD9E:  BRA    CDA8
....................                               Aire=ON; 
0CDA0:  BSF    xA4.4
....................                               Desfogue_on; 
0CDA2:  BSF    F8C.4
0CDA4:  BCF    F95.4
....................                            }else{  
0CDA6:  BRA    CDB6
....................                               #ifdef Generador 
....................                               ControlaPresionChaqueta(); 
0CDA8:  CALL   47E6
....................                               Paso_off; 
0CDAC:  BCF    F8C.6
0CDAE:  BCF    F95.6
....................                               #else 
....................                               CalientaChaqueta(); 
....................                               Bomba_off; 
....................                               #endif 
....................                               Aire=OFF; 
0CDB0:  BCF    xA4.4
....................                               Desfogue_off; 
0CDB2:  BCF    F8C.4
0CDB4:  BCF    F95.4
....................                            } 
....................                         } 
....................                      }else if(PresionCamara>Atmosferica+6){ 
0CDB6:  BRA    CE1E
0CDB8:  MOVLB  3
0CDBA:  MOVLW  06
0CDBC:  ADDWF  xB5,W
0CDBE:  MOVF   x7F,F
0CDC0:  BNZ   CDC8
0CDC2:  SUBWF  x7E,W
0CDC4:  BZ    CE20
0CDC6:  BNC   CE20
....................                         codigoAlarma=13; 
0CDC8:  MOVLW  0D
0CDCA:  MOVLB  2
0CDCC:  MOVWF  xED
....................                         if(codigoAnt!=codigoAlarma){ 
0CDCE:  MOVF   xED,W
0CDD0:  SUBWF  xEE,W
0CDD2:  BZ    CDDE
....................                            codigoAnt=codigoAlarma; 
0CDD4:  MOVFF  2ED,2EE
....................                            GuardaDatoCiclo();                   
0CDD8:  MOVLB  0
0CDDA:  CALL   6B7A
....................                         } 
....................                         Desfogando=ON; 
0CDDE:  MOVLB  0
0CDE0:  BSF    xA0.5
....................                         printf("Funcionamiento.t4f.txt=\" Ninguna\""); 
0CDE2:  MOVLW  E4
0CDE4:  MOVWF  FF6
0CDE6:  MOVLW  16
0CDE8:  MOVWF  FF7
0CDEA:  MOVLW  00
0CDEC:  MOVWF  FF8
0CDEE:  CALL   398E
....................                         SendDataDisplay(); 
0CDF2:  CALL   39C0
....................                         printf("Funcionamiento.t5f.txt=\" Despresurizando\""); 
0CDF6:  MOVLW  06
0CDF8:  MOVWF  FF6
0CDFA:  MOVLW  17
0CDFC:  MOVWF  FF7
0CDFE:  MOVLW  00
0CE00:  MOVWF  FF8
0CE02:  CALL   398E
....................                         SendDataDisplay();                         
0CE06:  CALL   39C0
....................                         Controlando=0; 
0CE0A:  MOVLB  3
0CE0C:  CLRF   x5C
....................                         SSR_off; 
0CE0E:  BSF    F8B.2
0CE10:  BCF    F94.2
....................                         #ifdef Generador 
....................                         Paso_off; 
0CE12:  BCF    F8C.6
0CE14:  BCF    F95.6
....................                         #else 
....................                         Bomba_off; 
....................                         #endif 
....................                         Aire=OFF; 
0CE16:  MOVLB  0
0CE18:  BCF    xA4.4
....................                         Desfogue_on; 
0CE1A:  BSF    F8C.4
0CE1C:  BCF    F95.4
0CE1E:  MOVLB  3
....................                      } 
....................                   } 
....................                    
....................                }else{ 
0CE20:  BRA    CE7A
0CE22:  MOVLB  0
....................                   printf("Funcionamiento.t4f.txt=\" Ninguna\""); 
0CE24:  MOVLW  30
0CE26:  MOVWF  FF6
0CE28:  MOVLW  17
0CE2A:  MOVWF  FF7
0CE2C:  MOVLW  00
0CE2E:  MOVWF  FF8
0CE30:  CALL   398E
....................                   SendDataDisplay(); 
0CE34:  CALL   39C0
....................                   printf("Funcionamiento.t5f.txt=\" Esterilizando\""); 
0CE38:  MOVLW  52
0CE3A:  MOVWF  FF6
0CE3C:  MOVLW  17
0CE3E:  MOVWF  FF7
0CE40:  MOVLW  00
0CE42:  MOVWF  FF8
0CE44:  CALL   398E
....................                   SendDataDisplay(); 
0CE48:  CALL   39C0
....................                   #ifdef Generador 
....................                   Paso_on; 
0CE4C:  BSF    F8C.6
0CE4E:  BCF    F95.6
....................                   #else 
....................                   Bomba_off; 
....................                   #endif 
....................                   Aire=OFF; 
0CE50:  BCF    xA4.4
....................                   Desfogue_off; 
0CE52:  BCF    F8C.4
0CE54:  BCF    F95.4
....................                   Control=1; 
0CE56:  MOVLW  01
0CE58:  MOVLB  3
0CE5A:  MOVWF  x5A
....................                   codigoAlarma=16; 
0CE5C:  MOVLW  10
0CE5E:  MOVLB  2
0CE60:  MOVWF  xED
....................                   if(codigoAnt!=codigoAlarma){ 
0CE62:  MOVF   xED,W
0CE64:  SUBWF  xEE,W
0CE66:  BZ    CE72
....................                      codigoAnt=codigoAlarma; 
0CE68:  MOVFF  2ED,2EE
....................                      GuardaDatoCiclo();                   
0CE6C:  MOVLB  0
0CE6E:  CALL   6B7A
....................                   } 
....................                   #ifdef PT100Fija 
....................                      Controla(); 
0CE72:  MOVLB  0
0CE74:  CALL   7018
0CE78:  MOVLB  3
0CE7A:  MOVLB  2
....................                   #else 
....................                      ControlaPresion(); 
....................                   #endif 
....................                } 
....................             } 
....................          } 
....................    } 
....................  
....................    if(tguarda>=180){ 
0CE7C:  MOVLB  0
0CE7E:  MOVF   xB1,F
0CE80:  BNZ   CE88
0CE82:  MOVF   xB0,W
0CE84:  SUBLW  B3
0CE86:  BC    CE94
....................       if(!Ciclo){ 
0CE88:  BTFSC  xA1.4
0CE8A:  BRA    CE94
....................          GuardaDatoCiclo(); 
0CE8C:  CALL   6B7A
....................          tguarda=0; 
0CE90:  CLRF   xB1
0CE92:  CLRF   xB0
....................       } 
....................    } 
....................     
....................    if(Grafica==1){ 
0CE94:  BTFSS  xA5.3
0CE96:  BRA    CED4
....................       printf("add 14,0,%1.0f",Temperatura); 
0CE98:  MOVLW  7A
0CE9A:  MOVWF  FF6
0CE9C:  MOVLW  17
0CE9E:  MOVWF  FF7
0CEA0:  MOVLW  00
0CEA2:  MOVWF  FF8
0CEA4:  MOVLW  09
0CEA6:  MOVLB  4
0CEA8:  MOVWF  x4B
0CEAA:  MOVLB  0
0CEAC:  CALL   4ABC
0CEB0:  MOVLW  00
0CEB2:  MOVWF  FE9
0CEB4:  MOVFF  332,44E
0CEB8:  MOVFF  331,44D
0CEBC:  MOVFF  330,44C
0CEC0:  MOVFF  32F,44B
0CEC4:  MOVLB  4
0CEC6:  CLRF   x4F
0CEC8:  MOVLB  0
0CECA:  CALL   4DE8
....................       SendDataDisplay(); 
0CECE:  CALL   39C0
....................       //printf("add 14,1,%1.0f",PresionCamara/1.667); 
....................       //SendDataDisplay(); 
....................       //printf("add 14,0,%1.0f",Temperatura); 
....................       //SendDataDisplay(); 
....................       Grafica=0; 
0CED2:  BCF    xA5.3
....................    } 
....................    if(Lectura==1)// Utilizado para visualizar la lectura de la temperatura 
0CED4:  BTFSS  xA5.2
0CED6:  BRA    D1C6
....................    {                             
....................       Lectura=0; 
0CED8:  BCF    xA5.2
....................       printf("t6f.txt=\"%3.1fC\"",Temperatura); 
0CEDA:  MOVLW  8A
0CEDC:  MOVWF  FF6
0CEDE:  MOVLW  17
0CEE0:  MOVWF  FF7
0CEE2:  MOVLW  00
0CEE4:  MOVWF  FF8
0CEE6:  MOVLW  09
0CEE8:  MOVLB  4
0CEEA:  MOVWF  x4B
0CEEC:  MOVLB  0
0CEEE:  CALL   4ABC
0CEF2:  MOVLW  02
0CEF4:  MOVWF  FE9
0CEF6:  MOVFF  332,44E
0CEFA:  MOVFF  331,44D
0CEFE:  MOVFF  330,44C
0CF02:  MOVFF  32F,44B
0CF06:  MOVLW  01
0CF08:  MOVLB  4
0CF0A:  MOVWF  x4F
0CF0C:  MOVLB  0
0CF0E:  CALL   4DE8
0CF12:  MOVLW  B0
0CF14:  BTFSS  F9E.4
0CF16:  BRA    CF14
0CF18:  MOVWF  FAD
0CF1A:  MOVLW  43
0CF1C:  BTFSS  F9E.4
0CF1E:  BRA    CF1C
0CF20:  MOVWF  FAD
0CF22:  MOVLW  22
0CF24:  BTFSS  F9E.4
0CF26:  BRA    CF24
0CF28:  MOVWF  FAD
....................       SendDataDisplay(); 
0CF2A:  CALL   39C0
....................       printf("Funcionamiento.t7f.txt=\"%03LukPa\"",PresionCamara); 
0CF2E:  MOVLW  9C
0CF30:  MOVWF  FF6
0CF32:  MOVLW  17
0CF34:  MOVWF  FF7
0CF36:  MOVLW  00
0CF38:  MOVWF  FF8
0CF3A:  MOVLW  18
0CF3C:  MOVLB  4
0CF3E:  MOVWF  x4B
0CF40:  MOVLB  0
0CF42:  CALL   4ABC
0CF46:  MOVLW  0A
0CF48:  MOVWF  FE9
0CF4A:  MOVFF  37F,44B
0CF4E:  MOVFF  37E,44A
0CF52:  CALL   4C7A
0CF56:  MOVLW  B9
0CF58:  MOVWF  FF6
0CF5A:  MOVLW  17
0CF5C:  MOVWF  FF7
0CF5E:  MOVLW  00
0CF60:  MOVWF  FF8
0CF62:  MOVLW  04
0CF64:  MOVLB  4
0CF66:  MOVWF  x4B
0CF68:  MOVLB  0
0CF6A:  CALL   4ABC
....................       SendDataDisplay(); 
0CF6E:  CALL   39C0
....................       printf("Funcionamiento.t12f.txt=\"%03LukPa\"",PresionPreCamara); 
0CF72:  MOVLW  BE
0CF74:  MOVWF  FF6
0CF76:  MOVLW  17
0CF78:  MOVWF  FF7
0CF7A:  MOVLW  00
0CF7C:  MOVWF  FF8
0CF7E:  MOVLW  19
0CF80:  MOVLB  4
0CF82:  MOVWF  x4B
0CF84:  MOVLB  0
0CF86:  CALL   4ABC
0CF8A:  MOVLW  0A
0CF8C:  MOVWF  FE9
0CF8E:  MOVFF  381,44B
0CF92:  MOVFF  380,44A
0CF96:  CALL   4C7A
0CF9A:  MOVLW  DC
0CF9C:  MOVWF  FF6
0CF9E:  MOVLW  17
0CFA0:  MOVWF  FF7
0CFA2:  MOVLW  00
0CFA4:  MOVWF  FF8
0CFA6:  MOVLW  04
0CFA8:  MOVLB  4
0CFAA:  MOVWF  x4B
0CFAC:  MOVLB  0
0CFAE:  CALL   4ABC
....................       //printf("Funcionamiento.t12f.txt=\"000kPa\""); 
....................       SendDataDisplay(); 
0CFB2:  CALL   39C0
....................       printf("Funcionamiento.t9f.txt=\"%03u\"",Setpoint); 
0CFB6:  MOVLW  E2
0CFB8:  MOVWF  FF6
0CFBA:  MOVLW  17
0CFBC:  MOVWF  FF7
0CFBE:  MOVLW  00
0CFC0:  MOVWF  FF8
0CFC2:  MOVLW  18
0CFC4:  MOVLB  4
0CFC6:  MOVWF  x4B
0CFC8:  MOVLB  0
0CFCA:  CALL   4ABC
0CFCE:  MOVFF  36B,44B
0CFD2:  MOVLW  03
0CFD4:  MOVLB  4
0CFD6:  MOVWF  x4C
0CFD8:  MOVLB  0
0CFDA:  CALL   4B1A
0CFDE:  MOVLW  22
0CFE0:  BTFSS  F9E.4
0CFE2:  BRA    CFE0
0CFE4:  MOVWF  FAD
....................       SendDataDisplay();       
0CFE6:  CALL   39C0
....................       printf("Funcionamiento.t10f.txt=\"%02u\"",((Testerilizacion[3]*10)+Testerilizacion[2])); 
0CFEA:  MOVFF  BB,448
0CFEE:  MOVLW  0A
0CFF0:  MOVLB  4
0CFF2:  MOVWF  x49
0CFF4:  MOVLB  0
0CFF6:  CALL   2E46
0CFFA:  MOVF   xBA,W
0CFFC:  ADDWF  01,W
0CFFE:  MOVLB  4
0D000:  MOVWF  x46
0D002:  MOVLW  00
0D004:  MOVWF  FF6
0D006:  MOVLW  18
0D008:  MOVWF  FF7
0D00A:  MOVLW  00
0D00C:  MOVWF  FF8
0D00E:  MOVLW  19
0D010:  MOVWF  x4B
0D012:  MOVLB  0
0D014:  CALL   4ABC
0D018:  MOVFF  446,44B
0D01C:  MOVLW  01
0D01E:  MOVLB  4
0D020:  MOVWF  x4C
0D022:  MOVLB  0
0D024:  CALL   4B1A
0D028:  MOVLW  22
0D02A:  BTFSS  F9E.4
0D02C:  BRA    D02A
0D02E:  MOVWF  FAD
....................       SendDataDisplay();       
0D030:  CALL   39C0
....................       printf("Funcionamiento.t13f.txt=\"%02u\"",((Testerilizacion[1]*10)+Testerilizacion[0])); 
0D034:  MOVFF  B9,448
0D038:  MOVLW  0A
0D03A:  MOVLB  4
0D03C:  MOVWF  x49
0D03E:  MOVLB  0
0D040:  CALL   2E46
0D044:  MOVF   xB8,W
0D046:  ADDWF  01,W
0D048:  MOVLB  4
0D04A:  MOVWF  x46
0D04C:  MOVLW  20
0D04E:  MOVWF  FF6
0D050:  MOVLW  18
0D052:  MOVWF  FF7
0D054:  MOVLW  00
0D056:  MOVWF  FF8
0D058:  MOVLW  19
0D05A:  MOVWF  x4B
0D05C:  MOVLB  0
0D05E:  CALL   4ABC
0D062:  MOVFF  446,44B
0D066:  MOVLW  01
0D068:  MOVLB  4
0D06A:  MOVWF  x4C
0D06C:  MOVLB  0
0D06E:  CALL   4B1A
0D072:  MOVLW  22
0D074:  BTFSS  F9E.4
0D076:  BRA    D074
0D078:  MOVWF  FAD
....................       SendDataDisplay();       
0D07A:  CALL   39C0
....................       printf("Funcionamiento.t11f.txt=\"%02u\"",((Tsecado[3]*10)+Tsecado[2])); 
0D07E:  MOVFF  C5,448
0D082:  MOVLW  0A
0D084:  MOVLB  4
0D086:  MOVWF  x49
0D088:  MOVLB  0
0D08A:  CALL   2E46
0D08E:  MOVF   xC4,W
0D090:  ADDWF  01,W
0D092:  MOVLB  4
0D094:  MOVWF  x46
0D096:  MOVLW  40
0D098:  MOVWF  FF6
0D09A:  MOVLW  18
0D09C:  MOVWF  FF7
0D09E:  MOVLW  00
0D0A0:  MOVWF  FF8
0D0A2:  MOVLW  19
0D0A4:  MOVWF  x4B
0D0A6:  MOVLB  0
0D0A8:  CALL   4ABC
0D0AC:  MOVFF  446,44B
0D0B0:  MOVLW  01
0D0B2:  MOVLB  4
0D0B4:  MOVWF  x4C
0D0B6:  MOVLB  0
0D0B8:  CALL   4B1A
0D0BC:  MOVLW  22
0D0BE:  BTFSS  F9E.4
0D0C0:  BRA    D0BE
0D0C2:  MOVWF  FAD
....................       SendDataDisplay();       
0D0C4:  CALL   39C0
....................       printf("Funcionamiento.t16f.txt=\"%02u\"",((Tsecado[1]*10)+Tsecado[0])); 
0D0C8:  MOVFF  C3,448
0D0CC:  MOVLW  0A
0D0CE:  MOVLB  4
0D0D0:  MOVWF  x49
0D0D2:  MOVLB  0
0D0D4:  CALL   2E46
0D0D8:  MOVF   xC2,W
0D0DA:  ADDWF  01,W
0D0DC:  MOVLB  4
0D0DE:  MOVWF  x46
0D0E0:  MOVLW  60
0D0E2:  MOVWF  FF6
0D0E4:  MOVLW  18
0D0E6:  MOVWF  FF7
0D0E8:  MOVLW  00
0D0EA:  MOVWF  FF8
0D0EC:  MOVLW  19
0D0EE:  MOVWF  x4B
0D0F0:  MOVLB  0
0D0F2:  CALL   4ABC
0D0F6:  MOVFF  446,44B
0D0FA:  MOVLW  01
0D0FC:  MOVLB  4
0D0FE:  MOVWF  x4C
0D100:  MOVLB  0
0D102:  CALL   4B1A
0D106:  MOVLW  22
0D108:  BTFSS  F9E.4
0D10A:  BRA    D108
0D10C:  MOVWF  FAD
....................       SendDataDisplay();       
0D10E:  CALL   39C0
....................        
....................       printf("fecha.txt=\"Fecha:%02u/%02u/20%02u    Hora: %02u:%02u\"",Dia,Mes,Year,Hora,Minuto); 
0D112:  MOVLW  80
0D114:  MOVWF  FF6
0D116:  MOVLW  18
0D118:  MOVWF  FF7
0D11A:  MOVLW  00
0D11C:  MOVWF  FF8
0D11E:  MOVLW  11
0D120:  MOVLB  4
0D122:  MOVWF  x4B
0D124:  MOVLB  0
0D126:  CALL   4ABC
0D12A:  MOVFF  3A7,44B
0D12E:  MOVLW  01
0D130:  MOVLB  4
0D132:  MOVWF  x4C
0D134:  MOVLB  0
0D136:  CALL   4B1A
0D13A:  MOVLW  2F
0D13C:  BTFSS  F9E.4
0D13E:  BRA    D13C
0D140:  MOVWF  FAD
0D142:  MOVFF  3A6,44B
0D146:  MOVLW  01
0D148:  MOVLB  4
0D14A:  MOVWF  x4C
0D14C:  MOVLB  0
0D14E:  CALL   4B1A
0D152:  MOVLW  2F
0D154:  BTFSS  F9E.4
0D156:  BRA    D154
0D158:  MOVWF  FAD
0D15A:  MOVLW  32
0D15C:  BTFSS  F9E.4
0D15E:  BRA    D15C
0D160:  MOVWF  FAD
0D162:  MOVLW  30
0D164:  BTFSS  F9E.4
0D166:  BRA    D164
0D168:  MOVWF  FAD
0D16A:  MOVFF  3A5,44B
0D16E:  MOVLW  01
0D170:  MOVLB  4
0D172:  MOVWF  x4C
0D174:  MOVLB  0
0D176:  CALL   4B1A
0D17A:  MOVLW  A1
0D17C:  MOVWF  FF6
0D17E:  MOVLW  18
0D180:  MOVWF  FF7
0D182:  MOVLW  00
0D184:  MOVWF  FF8
0D186:  MOVLW  0A
0D188:  MOVLB  4
0D18A:  MOVWF  x4B
0D18C:  MOVLB  0
0D18E:  CALL   4ABC
0D192:  MOVFF  3A8,44B
0D196:  MOVLW  01
0D198:  MOVLB  4
0D19A:  MOVWF  x4C
0D19C:  MOVLB  0
0D19E:  CALL   4B1A
0D1A2:  MOVLW  3A
0D1A4:  BTFSS  F9E.4
0D1A6:  BRA    D1A4
0D1A8:  MOVWF  FAD
0D1AA:  MOVFF  3A9,44B
0D1AE:  MOVLW  01
0D1B0:  MOVLB  4
0D1B2:  MOVWF  x4C
0D1B4:  MOVLB  0
0D1B6:  CALL   4B1A
0D1BA:  MOVLW  22
0D1BC:  BTFSS  F9E.4
0D1BE:  BRA    D1BC
0D1C0:  MOVWF  FAD
....................       SendDataDisplay(); 
0D1C2:  CALL   39C0
0D1C6:  MOVLB  3
....................    } 
....................  
....................  
.................... } 
.................... //_-------------------------------------------------------------------------------------------------------------------------------------------------------- 
....................  
.................... //_-------------------------------------------------------------------------------------------------------------------------------------------------------- 
....................       if(Menu==100){ //Menu de Configuracin de Parametros de Control 
0D1C8:  MOVF   x64,W
0D1CA:  SUBLW  64
0D1CC:  BTFSS  FD8.2
0D1CE:  GOTO   E03A
....................       
....................       if(Opcion2>11) 
0D1D2:  MOVF   x6D,W
0D1D4:  SUBLW  0B
0D1D6:  BC    D1DC
....................          Opcion2=1; 
0D1D8:  MOVLW  01
0D1DA:  MOVWF  x6D
....................       if(Opcion2<1) 
0D1DC:  MOVF   x6D,F
0D1DE:  BNZ   D1E4
....................          Opcion2=11; 
0D1E0:  MOVLW  0B
0D1E2:  MOVWF  x6D
....................        
....................       if(Opcion2==1){ 
0D1E4:  DECFSZ x6D,W
0D1E6:  BRA    D364
....................          printf("Config.t2c.txt=\"Proporcional\""); 
0D1E8:  MOVLW  B6
0D1EA:  MOVWF  FF6
0D1EC:  MOVLW  18
0D1EE:  MOVWF  FF7
0D1F0:  MOVLW  00
0D1F2:  MOVWF  FF8
0D1F4:  MOVLB  0
0D1F6:  CALL   398E
....................          SendDataDisplay();       
0D1FA:  CALL   39C0
....................          printf("t3c.txt=\"%2.0f\"",Ganancia); 
0D1FE:  MOVLW  D4
0D200:  MOVWF  FF6
0D202:  MOVLW  18
0D204:  MOVWF  FF7
0D206:  MOVLW  00
0D208:  MOVWF  FF8
0D20A:  MOVLW  09
0D20C:  MOVLB  4
0D20E:  MOVWF  x4B
0D210:  MOVLB  0
0D212:  CALL   4ABC
0D216:  MOVLW  01
0D218:  MOVWF  FE9
0D21A:  MOVFF  312,44E
0D21E:  MOVFF  311,44D
0D222:  MOVFF  310,44C
0D226:  MOVFF  30F,44B
0D22A:  MOVLB  4
0D22C:  CLRF   x4F
0D22E:  MOVLB  0
0D230:  CALL   4DE8
0D234:  MOVLW  22
0D236:  BTFSS  F9E.4
0D238:  BRA    D236
0D23A:  MOVWF  FAD
....................          SendDataDisplay(); 
0D23C:  CALL   39C0
....................          if(RX_Buffer[4]==0x0a || UP){//Tecla Arriba Oprimida 
0D240:  MOVF   34,W
0D242:  SUBLW  0A
0D244:  BZ    D24C
0D246:  BSF    F93.0
0D248:  BTFSC  F81.0
0D24A:  BRA    D29C
....................             delay_ms(20); 
0D24C:  MOVLW  14
0D24E:  MOVLB  4
0D250:  MOVWF  x5B
0D252:  MOVLB  0
0D254:  CALL   1AC8
....................             if(RX_Buffer[4]==0x0a || UP){ 
0D258:  MOVF   34,W
0D25A:  SUBLW  0A
0D25C:  BZ    D264
0D25E:  BSF    F93.0
0D260:  BTFSC  F81.0
0D262:  BRA    D29C
....................                Ganancia+=1.0; 
0D264:  BCF    FD8.1
0D266:  MOVFF  312,45E
0D26A:  MOVFF  311,45D
0D26E:  MOVFF  310,45C
0D272:  MOVFF  30F,45B
0D276:  MOVLB  4
0D278:  CLRF   x62
0D27A:  CLRF   x61
0D27C:  CLRF   x60
0D27E:  MOVLW  7F
0D280:  MOVWF  x5F
0D282:  MOVLB  0
0D284:  CALL   1C84
0D288:  MOVFF  03,312
0D28C:  MOVFF  02,311
0D290:  MOVFF  01,310
0D294:  MOVFF  00,30F
....................                RX_Buffer[4]=0x00;   
0D298:  CLRF   34
....................                RX_Buffer2[4]=0x00;             
0D29A:  CLRF   3F
....................                //BorraBuffer(); 
....................             } 
....................          } 
....................              
....................          if(RX_Buffer[4]==0x0b || DOWN){//Tecla Abajo Oprimida 
0D29C:  MOVF   34,W
0D29E:  SUBLW  0B
0D2A0:  BZ    D2A8
0D2A2:  BSF    F93.1
0D2A4:  BTFSC  F81.1
0D2A6:  BRA    D2F8
....................             delay_ms(20); 
0D2A8:  MOVLW  14
0D2AA:  MOVLB  4
0D2AC:  MOVWF  x5B
0D2AE:  MOVLB  0
0D2B0:  CALL   1AC8
....................             if(RX_Buffer[4]==0x0b || DOWN){ 
0D2B4:  MOVF   34,W
0D2B6:  SUBLW  0B
0D2B8:  BZ    D2C0
0D2BA:  BSF    F93.1
0D2BC:  BTFSC  F81.1
0D2BE:  BRA    D2F8
....................                Ganancia-=1.0; 
0D2C0:  BSF    FD8.1
0D2C2:  MOVFF  312,45E
0D2C6:  MOVFF  311,45D
0D2CA:  MOVFF  310,45C
0D2CE:  MOVFF  30F,45B
0D2D2:  MOVLB  4
0D2D4:  CLRF   x62
0D2D6:  CLRF   x61
0D2D8:  CLRF   x60
0D2DA:  MOVLW  7F
0D2DC:  MOVWF  x5F
0D2DE:  MOVLB  0
0D2E0:  CALL   1C84
0D2E4:  MOVFF  03,312
0D2E8:  MOVFF  02,311
0D2EC:  MOVFF  01,310
0D2F0:  MOVFF  00,30F
....................                RX_Buffer[4]=0x00; 
0D2F4:  CLRF   34
....................                RX_Buffer2[4]=0x00;             
0D2F6:  CLRF   3F
....................                //BorraBuffer(); 
....................             } 
....................          } 
....................           
....................          if(Ganancia>40) 
0D2F8:  MOVLB  4
0D2FA:  CLRF   x4D
0D2FC:  CLRF   x4C
0D2FE:  MOVLW  20
0D300:  MOVWF  x4B
0D302:  MOVLW  84
0D304:  MOVWF  x4A
0D306:  MOVFF  312,451
0D30A:  MOVFF  311,450
0D30E:  MOVFF  310,44F
0D312:  MOVFF  30F,44E
0D316:  MOVLB  0
0D318:  CALL   2DCC
0D31C:  BNC   D32A
....................             Ganancia=1; 
0D31E:  MOVLB  3
0D320:  CLRF   x12
0D322:  CLRF   x11
0D324:  CLRF   x10
0D326:  MOVLW  7F
0D328:  MOVWF  x0F
....................          if(Ganancia<1) 
0D32A:  MOVFF  312,44D
0D32E:  MOVFF  311,44C
0D332:  MOVFF  310,44B
0D336:  MOVFF  30F,44A
0D33A:  MOVLB  4
0D33C:  CLRF   x51
0D33E:  CLRF   x50
0D340:  CLRF   x4F
0D342:  MOVLW  7F
0D344:  MOVWF  x4E
0D346:  MOVLB  0
0D348:  CALL   2DCC
0D34C:  BNC   D35E
....................             Ganancia=40; 
0D34E:  MOVLB  3
0D350:  CLRF   x12
0D352:  CLRF   x11
0D354:  MOVLW  20
0D356:  MOVWF  x10
0D358:  MOVLW  84
0D35A:  MOVWF  x0F
0D35C:  MOVLB  0
....................       }else if(Opcion2==2){ 
0D35E:  GOTO   DB74
0D362:  MOVLB  3
0D364:  MOVF   x6D,W
0D366:  SUBLW  02
0D368:  BNZ   D428
....................          printf("Config.t2c.txt=\"Derivativo\""); 
0D36A:  MOVLW  E4
0D36C:  MOVWF  FF6
0D36E:  MOVLW  18
0D370:  MOVWF  FF7
0D372:  MOVLW  00
0D374:  MOVWF  FF8
0D376:  MOVLB  0
0D378:  CALL   398E
....................          SendDataDisplay();       
0D37C:  CALL   39C0
....................          printf("t3c.txt=\"%u\"",Derivativo); 
0D380:  MOVLW  00
0D382:  MOVWF  FF6
0D384:  MOVLW  19
0D386:  MOVWF  FF7
0D388:  MOVLW  00
0D38A:  MOVWF  FF8
0D38C:  MOVLW  09
0D38E:  MOVLB  4
0D390:  MOVWF  x4B
0D392:  MOVLB  0
0D394:  CALL   4ABC
0D398:  MOVFF  344,44B
0D39C:  MOVLW  1B
0D39E:  MOVLB  4
0D3A0:  MOVWF  x4C
0D3A2:  MOVLB  0
0D3A4:  CALL   4B1A
0D3A8:  MOVLW  22
0D3AA:  BTFSS  F9E.4
0D3AC:  BRA    D3AA
0D3AE:  MOVWF  FAD
....................          SendDataDisplay(); 
0D3B0:  CALL   39C0
....................          if(RX_Buffer[4]==0x0a || UP){//Tecla Arriba Oprimida 
0D3B4:  MOVF   34,W
0D3B6:  SUBLW  0A
0D3B8:  BZ    D3C0
0D3BA:  BSF    F93.0
0D3BC:  BTFSC  F81.0
0D3BE:  BRA    D3E2
....................             delay_ms(20); 
0D3C0:  MOVLW  14
0D3C2:  MOVLB  4
0D3C4:  MOVWF  x5B
0D3C6:  MOVLB  0
0D3C8:  CALL   1AC8
....................             if(RX_Buffer[4]==0x0a || UP){ 
0D3CC:  MOVF   34,W
0D3CE:  SUBLW  0A
0D3D0:  BZ    D3D8
0D3D2:  BSF    F93.0
0D3D4:  BTFSC  F81.0
0D3D6:  BRA    D3E2
....................                Derivativo++; 
0D3D8:  MOVLB  3
0D3DA:  INCF   x44,F
....................                RX_Buffer[4]=0x00;   
0D3DC:  CLRF   34
....................                RX_Buffer2[4]=0x00;             
0D3DE:  CLRF   3F
0D3E0:  MOVLB  0
....................                //BorraBuffer(); 
....................             } 
....................          } 
....................              
....................          if(RX_Buffer[4]==0x0b || DOWN){//Tecla Abajo Oprimida 
0D3E2:  MOVF   34,W
0D3E4:  SUBLW  0B
0D3E6:  BZ    D3EE
0D3E8:  BSF    F93.1
0D3EA:  BTFSC  F81.1
0D3EC:  BRA    D410
....................             delay_ms(20); 
0D3EE:  MOVLW  14
0D3F0:  MOVLB  4
0D3F2:  MOVWF  x5B
0D3F4:  MOVLB  0
0D3F6:  CALL   1AC8
....................             if(RX_Buffer[4]==0x0b || DOWN){ 
0D3FA:  MOVF   34,W
0D3FC:  SUBLW  0B
0D3FE:  BZ    D406
0D400:  BSF    F93.1
0D402:  BTFSC  F81.1
0D404:  BRA    D410
....................                Derivativo--; 
0D406:  MOVLB  3
0D408:  DECF   x44,F
....................                RX_Buffer[4]=0x00; 
0D40A:  CLRF   34
....................                RX_Buffer2[4]=0x00;             
0D40C:  CLRF   3F
0D40E:  MOVLB  0
....................                //BorraBuffer(); 
....................             } 
....................          } 
....................           
....................           
....................          if(Derivativo>40) 
0D410:  MOVLB  3
0D412:  MOVF   x44,W
0D414:  SUBLW  28
0D416:  BC    D41C
....................             Derivativo=1; 
0D418:  MOVLW  01
0D41A:  MOVWF  x44
....................          if(Derivativo<1) 
0D41C:  MOVF   x44,F
0D41E:  BNZ   D424
....................             Derivativo=40; 
0D420:  MOVLW  28
0D422:  MOVWF  x44
....................       }else if(Opcion2==3){ 
0D424:  GOTO   DB72
0D428:  MOVF   x6D,W
0D42A:  SUBLW  03
0D42C:  BNZ   D4EA
....................          printf("Config.t2c.txt=\"Integral\""); 
0D42E:  MOVLW  0E
0D430:  MOVWF  FF6
0D432:  MOVLW  19
0D434:  MOVWF  FF7
0D436:  MOVLW  00
0D438:  MOVWF  FF8
0D43A:  MOVLB  0
0D43C:  CALL   398E
....................          SendDataDisplay();       
0D440:  CALL   39C0
....................          printf("t3c.txt=\"%u\"",Integral); 
0D444:  MOVLW  28
0D446:  MOVWF  FF6
0D448:  MOVLW  19
0D44A:  MOVWF  FF7
0D44C:  MOVLW  00
0D44E:  MOVWF  FF8
0D450:  MOVLW  09
0D452:  MOVLB  4
0D454:  MOVWF  x4B
0D456:  MOVLB  0
0D458:  CALL   4ABC
0D45C:  MOVFF  343,44B
0D460:  MOVLW  1B
0D462:  MOVLB  4
0D464:  MOVWF  x4C
0D466:  MOVLB  0
0D468:  CALL   4B1A
0D46C:  MOVLW  22
0D46E:  BTFSS  F9E.4
0D470:  BRA    D46E
0D472:  MOVWF  FAD
....................          SendDataDisplay(); 
0D474:  CALL   39C0
....................          if(RX_Buffer[4]==0x0a || UP){//Tecla Arriba Oprimida 
0D478:  MOVF   34,W
0D47A:  SUBLW  0A
0D47C:  BZ    D484
0D47E:  BSF    F93.0
0D480:  BTFSC  F81.0
0D482:  BRA    D4A6
....................             delay_ms(20); 
0D484:  MOVLW  14
0D486:  MOVLB  4
0D488:  MOVWF  x5B
0D48A:  MOVLB  0
0D48C:  CALL   1AC8
....................             if(RX_Buffer[4]==0x0a || UP){ 
0D490:  MOVF   34,W
0D492:  SUBLW  0A
0D494:  BZ    D49C
0D496:  BSF    F93.0
0D498:  BTFSC  F81.0
0D49A:  BRA    D4A6
....................                Integral++; 
0D49C:  MOVLB  3
0D49E:  INCF   x43,F
....................                RX_Buffer[4]=0x00;   
0D4A0:  CLRF   34
....................                RX_Buffer2[4]=0x00;             
0D4A2:  CLRF   3F
0D4A4:  MOVLB  0
....................                //BorraBuffer(); 
....................             } 
....................          } 
....................              
....................          if(RX_Buffer[4]==0x0b || DOWN){//Tecla Abajo Oprimida 
0D4A6:  MOVF   34,W
0D4A8:  SUBLW  0B
0D4AA:  BZ    D4B2
0D4AC:  BSF    F93.1
0D4AE:  BTFSC  F81.1
0D4B0:  BRA    D4D4
....................             delay_ms(20); 
0D4B2:  MOVLW  14
0D4B4:  MOVLB  4
0D4B6:  MOVWF  x5B
0D4B8:  MOVLB  0
0D4BA:  CALL   1AC8
....................             if(RX_Buffer[4]==0x0b || DOWN){ 
0D4BE:  MOVF   34,W
0D4C0:  SUBLW  0B
0D4C2:  BZ    D4CA
0D4C4:  BSF    F93.1
0D4C6:  BTFSC  F81.1
0D4C8:  BRA    D4D4
....................                Integral--; 
0D4CA:  MOVLB  3
0D4CC:  DECF   x43,F
....................                RX_Buffer[4]=0x00; 
0D4CE:  CLRF   34
....................                RX_Buffer2[4]=0x00;             
0D4D0:  CLRF   3F
0D4D2:  MOVLB  0
....................                //BorraBuffer(); 
....................             } 
....................          } 
....................           
....................          if(Integral>40) 
0D4D4:  MOVLB  3
0D4D6:  MOVF   x43,W
0D4D8:  SUBLW  28
0D4DA:  BC    D4E0
....................             Integral=1; 
0D4DC:  MOVLW  01
0D4DE:  MOVWF  x43
....................          if(Integral<1) 
0D4E0:  MOVF   x43,F
0D4E2:  BNZ   D4E8
....................             Integral=40; 
0D4E4:  MOVLW  28
0D4E6:  MOVWF  x43
....................       }else if(Opcion2==4){ 
0D4E8:  BRA    DB72
0D4EA:  MOVF   x6D,W
0D4EC:  SUBLW  04
0D4EE:  BTFSS  FD8.2
0D4F0:  BRA    D670
....................          printf("Config.t2c.txt=\"Tciclo\""); 
0D4F2:  MOVLW  36
0D4F4:  MOVWF  FF6
0D4F6:  MOVLW  19
0D4F8:  MOVWF  FF7
0D4FA:  MOVLW  00
0D4FC:  MOVWF  FF8
0D4FE:  MOVLB  0
0D500:  CALL   398E
....................          SendDataDisplay();       
0D504:  CALL   39C0
....................          printf("t3c.txt=\"%2.0f\"",Tciclo); 
0D508:  MOVLW  4E
0D50A:  MOVWF  FF6
0D50C:  MOVLW  19
0D50E:  MOVWF  FF7
0D510:  MOVLW  00
0D512:  MOVWF  FF8
0D514:  MOVLW  09
0D516:  MOVLB  4
0D518:  MOVWF  x4B
0D51A:  MOVLB  0
0D51C:  CALL   4ABC
0D520:  MOVLW  01
0D522:  MOVWF  FE9
0D524:  MOVFF  2FA,44E
0D528:  MOVFF  2F9,44D
0D52C:  MOVFF  2F8,44C
0D530:  MOVFF  2F7,44B
0D534:  MOVLB  4
0D536:  CLRF   x4F
0D538:  MOVLB  0
0D53A:  CALL   4DE8
0D53E:  MOVLW  22
0D540:  BTFSS  F9E.4
0D542:  BRA    D540
0D544:  MOVWF  FAD
....................          SendDataDisplay(); 
0D546:  CALL   39C0
....................          if(RX_Buffer[4]==0x0a || UP){//Tecla Arriba Oprimida 
0D54A:  MOVF   34,W
0D54C:  SUBLW  0A
0D54E:  BZ    D556
0D550:  BSF    F93.0
0D552:  BTFSC  F81.0
0D554:  BRA    D5A6
....................             delay_ms(20); 
0D556:  MOVLW  14
0D558:  MOVLB  4
0D55A:  MOVWF  x5B
0D55C:  MOVLB  0
0D55E:  CALL   1AC8
....................             if(RX_Buffer[4]==0x0a || UP){ 
0D562:  MOVF   34,W
0D564:  SUBLW  0A
0D566:  BZ    D56E
0D568:  BSF    F93.0
0D56A:  BTFSC  F81.0
0D56C:  BRA    D5A6
....................                Tciclo+=1.0; 
0D56E:  BCF    FD8.1
0D570:  MOVFF  2FA,45E
0D574:  MOVFF  2F9,45D
0D578:  MOVFF  2F8,45C
0D57C:  MOVFF  2F7,45B
0D580:  MOVLB  4
0D582:  CLRF   x62
0D584:  CLRF   x61
0D586:  CLRF   x60
0D588:  MOVLW  7F
0D58A:  MOVWF  x5F
0D58C:  MOVLB  0
0D58E:  CALL   1C84
0D592:  MOVFF  03,2FA
0D596:  MOVFF  02,2F9
0D59A:  MOVFF  01,2F8
0D59E:  MOVFF  00,2F7
....................                RX_Buffer[4]=0x00;   
0D5A2:  CLRF   34
....................                RX_Buffer2[4]=0x00;             
0D5A4:  CLRF   3F
....................                //BorraBuffer(); 
....................             } 
....................          } 
....................              
....................          if(RX_Buffer[4]==0x0b || DOWN){//Tecla Abajo Oprimida 
0D5A6:  MOVF   34,W
0D5A8:  SUBLW  0B
0D5AA:  BZ    D5B2
0D5AC:  BSF    F93.1
0D5AE:  BTFSC  F81.1
0D5B0:  BRA    D602
....................             delay_ms(20); 
0D5B2:  MOVLW  14
0D5B4:  MOVLB  4
0D5B6:  MOVWF  x5B
0D5B8:  MOVLB  0
0D5BA:  CALL   1AC8
....................             if(RX_Buffer[4]==0x0b || DOWN){ 
0D5BE:  MOVF   34,W
0D5C0:  SUBLW  0B
0D5C2:  BZ    D5CA
0D5C4:  BSF    F93.1
0D5C6:  BTFSC  F81.1
0D5C8:  BRA    D602
....................                Tciclo-=1.0; 
0D5CA:  BSF    FD8.1
0D5CC:  MOVFF  2FA,45E
0D5D0:  MOVFF  2F9,45D
0D5D4:  MOVFF  2F8,45C
0D5D8:  MOVFF  2F7,45B
0D5DC:  MOVLB  4
0D5DE:  CLRF   x62
0D5E0:  CLRF   x61
0D5E2:  CLRF   x60
0D5E4:  MOVLW  7F
0D5E6:  MOVWF  x5F
0D5E8:  MOVLB  0
0D5EA:  CALL   1C84
0D5EE:  MOVFF  03,2FA
0D5F2:  MOVFF  02,2F9
0D5F6:  MOVFF  01,2F8
0D5FA:  MOVFF  00,2F7
....................                RX_Buffer[4]=0x00; 
0D5FE:  CLRF   34
....................                RX_Buffer2[4]=0x00;             
0D600:  CLRF   3F
....................                //BorraBuffer(); 
....................             } 
....................          } 
....................           
....................          if(Tciclo>20) 
0D602:  MOVLB  4
0D604:  CLRF   x4D
0D606:  CLRF   x4C
0D608:  MOVLW  20
0D60A:  MOVWF  x4B
0D60C:  MOVLW  83
0D60E:  MOVWF  x4A
0D610:  MOVFF  2FA,451
0D614:  MOVFF  2F9,450
0D618:  MOVFF  2F8,44F
0D61C:  MOVFF  2F7,44E
0D620:  MOVLB  0
0D622:  CALL   2DCC
0D626:  BNC   D636
....................             Tciclo=5; 
0D628:  MOVLB  2
0D62A:  CLRF   xFA
0D62C:  CLRF   xF9
0D62E:  MOVLW  20
0D630:  MOVWF  xF8
0D632:  MOVLW  81
0D634:  MOVWF  xF7
....................          if(Tciclo<5) 
0D636:  MOVFF  2FA,44D
0D63A:  MOVFF  2F9,44C
0D63E:  MOVFF  2F8,44B
0D642:  MOVFF  2F7,44A
0D646:  MOVLB  4
0D648:  CLRF   x51
0D64A:  CLRF   x50
0D64C:  MOVLW  20
0D64E:  MOVWF  x4F
0D650:  MOVLW  81
0D652:  MOVWF  x4E
0D654:  MOVLB  0
0D656:  CALL   2DCC
0D65A:  BNC   D66C
....................             Tciclo=20; 
0D65C:  MOVLB  2
0D65E:  CLRF   xFA
0D660:  CLRF   xF9
0D662:  MOVLW  20
0D664:  MOVWF  xF8
0D666:  MOVLW  83
0D668:  MOVWF  xF7
0D66A:  MOVLB  0
....................       }else if(Opcion2==5){ 
0D66C:  BRA    DB74
0D66E:  MOVLB  3
0D670:  MOVF   x6D,W
0D672:  SUBLW  05
0D674:  BNZ   D72A
....................          printf("Config.t2c.txt=\"Ajuste +\""); 
0D676:  MOVLW  5E
0D678:  MOVWF  FF6
0D67A:  MOVLW  19
0D67C:  MOVWF  FF7
0D67E:  MOVLW  00
0D680:  MOVWF  FF8
0D682:  MOVLB  0
0D684:  CALL   398E
....................          SendDataDisplay();       
0D688:  CALL   39C0
....................          printf("t3c.txt=\"%u\"",Ajuste); 
0D68C:  MOVLW  78
0D68E:  MOVWF  FF6
0D690:  MOVLW  19
0D692:  MOVWF  FF7
0D694:  MOVLW  00
0D696:  MOVWF  FF8
0D698:  MOVLW  09
0D69A:  MOVLB  4
0D69C:  MOVWF  x4B
0D69E:  MOVLB  0
0D6A0:  CALL   4ABC
0D6A4:  MOVFF  2E0,44B
0D6A8:  MOVLW  1B
0D6AA:  MOVLB  4
0D6AC:  MOVWF  x4C
0D6AE:  MOVLB  0
0D6B0:  CALL   4B1A
0D6B4:  MOVLW  22
0D6B6:  BTFSS  F9E.4
0D6B8:  BRA    D6B6
0D6BA:  MOVWF  FAD
....................          SendDataDisplay(); 
0D6BC:  CALL   39C0
....................          if(RX_Buffer[4]==0x0a || UP){//Tecla Arriba Oprimida 
0D6C0:  MOVF   34,W
0D6C2:  SUBLW  0A
0D6C4:  BZ    D6CC
0D6C6:  BSF    F93.0
0D6C8:  BTFSC  F81.0
0D6CA:  BRA    D6F4
....................             delay_ms(20); 
0D6CC:  MOVLW  14
0D6CE:  MOVLB  4
0D6D0:  MOVWF  x5B
0D6D2:  MOVLB  0
0D6D4:  CALL   1AC8
....................             if(RX_Buffer[4]==0x0a || UP){ 
0D6D8:  MOVF   34,W
0D6DA:  SUBLW  0A
0D6DC:  BZ    D6E4
0D6DE:  BSF    F93.0
0D6E0:  BTFSC  F81.0
0D6E2:  BRA    D6F4
....................                if(Ajuste<100) 
0D6E4:  MOVLB  2
0D6E6:  MOVF   xE0,W
0D6E8:  SUBLW  63
0D6EA:  BNC   D6EE
....................                   Ajuste++; 
0D6EC:  INCF   xE0,F
....................                RX_Buffer[4]=0x00;   
0D6EE:  CLRF   34
....................                RX_Buffer2[4]=0x00;             
0D6F0:  CLRF   3F
0D6F2:  MOVLB  0
....................                //BorraBuffer(); 
....................             } 
....................          } 
....................              
....................          if(RX_Buffer[4]==0x0b || DOWN){//Tecla Abajo Oprimida 
0D6F4:  MOVF   34,W
0D6F6:  SUBLW  0B
0D6F8:  BZ    D700
0D6FA:  BSF    F93.1
0D6FC:  BTFSC  F81.1
0D6FE:  BRA    D726
....................             delay_ms(20); 
0D700:  MOVLW  14
0D702:  MOVLB  4
0D704:  MOVWF  x5B
0D706:  MOVLB  0
0D708:  CALL   1AC8
....................             if(RX_Buffer[4]==0x0b || DOWN){ 
0D70C:  MOVF   34,W
0D70E:  SUBLW  0B
0D710:  BZ    D718
0D712:  BSF    F93.1
0D714:  BTFSC  F81.1
0D716:  BRA    D726
....................                if(Ajuste>0) 
0D718:  MOVLB  2
0D71A:  MOVF   xE0,F
0D71C:  BZ    D720
....................                   Ajuste--; 
0D71E:  DECF   xE0,F
....................                RX_Buffer[4]=0x00; 
0D720:  CLRF   34
....................                RX_Buffer2[4]=0x00;             
0D722:  CLRF   3F
0D724:  MOVLB  0
....................                //BorraBuffer(); 
....................             } 
....................          } 
....................       }else if(Opcion2==6){ 
0D726:  BRA    DB74
0D728:  MOVLB  3
0D72A:  MOVF   x6D,W
0D72C:  SUBLW  06
0D72E:  BNZ   D7E4
....................          printf("Config.t2c.txt=\"Ajuste -\""); 
0D730:  MOVLW  86
0D732:  MOVWF  FF6
0D734:  MOVLW  19
0D736:  MOVWF  FF7
0D738:  MOVLW  00
0D73A:  MOVWF  FF8
0D73C:  MOVLB  0
0D73E:  CALL   398E
....................          SendDataDisplay();       
0D742:  CALL   39C0
....................          printf("t3c.txt=\"%u\"",Ajusten); 
0D746:  MOVLW  A0
0D748:  MOVWF  FF6
0D74A:  MOVLW  19
0D74C:  MOVWF  FF7
0D74E:  MOVLW  00
0D750:  MOVWF  FF8
0D752:  MOVLW  09
0D754:  MOVLB  4
0D756:  MOVWF  x4B
0D758:  MOVLB  0
0D75A:  CALL   4ABC
0D75E:  MOVFF  2E1,44B
0D762:  MOVLW  1B
0D764:  MOVLB  4
0D766:  MOVWF  x4C
0D768:  MOVLB  0
0D76A:  CALL   4B1A
0D76E:  MOVLW  22
0D770:  BTFSS  F9E.4
0D772:  BRA    D770
0D774:  MOVWF  FAD
....................          SendDataDisplay(); 
0D776:  CALL   39C0
....................          if(RX_Buffer[4]==0x0a || UP){//Tecla Arriba Oprimida 
0D77A:  MOVF   34,W
0D77C:  SUBLW  0A
0D77E:  BZ    D786
0D780:  BSF    F93.0
0D782:  BTFSC  F81.0
0D784:  BRA    D7AE
....................             delay_ms(20); 
0D786:  MOVLW  14
0D788:  MOVLB  4
0D78A:  MOVWF  x5B
0D78C:  MOVLB  0
0D78E:  CALL   1AC8
....................             if(RX_Buffer[4]==0x0a || UP){ 
0D792:  MOVF   34,W
0D794:  SUBLW  0A
0D796:  BZ    D79E
0D798:  BSF    F93.0
0D79A:  BTFSC  F81.0
0D79C:  BRA    D7AE
....................                if(Ajusten<100) 
0D79E:  MOVLB  2
0D7A0:  MOVF   xE1,W
0D7A2:  SUBLW  63
0D7A4:  BNC   D7A8
....................                   Ajusten++; 
0D7A6:  INCF   xE1,F
....................                RX_Buffer[4]=0x00;   
0D7A8:  CLRF   34
....................                RX_Buffer2[4]=0x00;             
0D7AA:  CLRF   3F
0D7AC:  MOVLB  0
....................                //BorraBuffer(); 
....................             } 
....................          } 
....................              
....................          if(RX_Buffer[4]==0x0b || DOWN){//Tecla Abajo Oprimida 
0D7AE:  MOVF   34,W
0D7B0:  SUBLW  0B
0D7B2:  BZ    D7BA
0D7B4:  BSF    F93.1
0D7B6:  BTFSC  F81.1
0D7B8:  BRA    D7E0
....................             delay_ms(20); 
0D7BA:  MOVLW  14
0D7BC:  MOVLB  4
0D7BE:  MOVWF  x5B
0D7C0:  MOVLB  0
0D7C2:  CALL   1AC8
....................             if(RX_Buffer[4]==0x0b || DOWN){ 
0D7C6:  MOVF   34,W
0D7C8:  SUBLW  0B
0D7CA:  BZ    D7D2
0D7CC:  BSF    F93.1
0D7CE:  BTFSC  F81.1
0D7D0:  BRA    D7E0
....................                if(Ajusten>0) 
0D7D2:  MOVLB  2
0D7D4:  MOVF   xE1,F
0D7D6:  BZ    D7DA
....................                   Ajusten--; 
0D7D8:  DECF   xE1,F
....................                RX_Buffer[4]=0x00; 
0D7DA:  CLRF   34
....................                RX_Buffer2[4]=0x00;             
0D7DC:  CLRF   3F
0D7DE:  MOVLB  0
....................                //BorraBuffer(); 
....................             } 
....................          } 
....................       }else if(Opcion2==7){ 
0D7E0:  BRA    DB74
0D7E2:  MOVLB  3
0D7E4:  MOVF   x6D,W
0D7E6:  SUBLW  07
0D7E8:  BNZ   D8A0
....................          printf("Config.t2c.txt=\"Media\""); 
0D7EA:  MOVLW  AE
0D7EC:  MOVWF  FF6
0D7EE:  MOVLW  19
0D7F0:  MOVWF  FF7
0D7F2:  MOVLW  00
0D7F4:  MOVWF  FF8
0D7F6:  MOVLB  0
0D7F8:  CALL   398E
....................          SendDataDisplay();       
0D7FC:  CALL   39C0
....................          printf("t3c.txt=\"%u\"",MediaMovil); 
0D800:  MOVLW  C6
0D802:  MOVWF  FF6
0D804:  MOVLW  19
0D806:  MOVWF  FF7
0D808:  MOVLW  00
0D80A:  MOVWF  FF8
0D80C:  MOVLW  09
0D80E:  MOVLB  4
0D810:  MOVWF  x4B
0D812:  MOVLB  0
0D814:  CALL   4ABC
0D818:  MOVFF  2E2,44B
0D81C:  MOVLW  1B
0D81E:  MOVLB  4
0D820:  MOVWF  x4C
0D822:  MOVLB  0
0D824:  CALL   4B1A
0D828:  MOVLW  22
0D82A:  BTFSS  F9E.4
0D82C:  BRA    D82A
0D82E:  MOVWF  FAD
....................          SendDataDisplay(); 
0D830:  CALL   39C0
....................          if(RX_Buffer[4]==0x0a || UP){//Tecla Arriba Oprimida 
0D834:  MOVF   34,W
0D836:  SUBLW  0A
0D838:  BZ    D840
0D83A:  BSF    F93.0
0D83C:  BTFSC  F81.0
0D83E:  BRA    D868
....................             delay_ms(20); 
0D840:  MOVLW  14
0D842:  MOVLB  4
0D844:  MOVWF  x5B
0D846:  MOVLB  0
0D848:  CALL   1AC8
....................             if(RX_Buffer[4]==0x0a || UP){ 
0D84C:  MOVF   34,W
0D84E:  SUBLW  0A
0D850:  BZ    D858
0D852:  BSF    F93.0
0D854:  BTFSC  F81.0
0D856:  BRA    D868
....................                if(MediaMovil<80) 
0D858:  MOVLB  2
0D85A:  MOVF   xE2,W
0D85C:  SUBLW  4F
0D85E:  BNC   D862
....................                   MediaMovil++; 
0D860:  INCF   xE2,F
....................                RX_Buffer[4]=0x00;   
0D862:  CLRF   34
....................                RX_Buffer2[4]=0x00;             
0D864:  CLRF   3F
0D866:  MOVLB  0
....................                //BorraBuffer(); 
....................             } 
....................          } 
....................              
....................          if(RX_Buffer[4]==0x0b || DOWN){//Tecla Abajo Oprimida 
0D868:  MOVF   34,W
0D86A:  SUBLW  0B
0D86C:  BZ    D874
0D86E:  BSF    F93.1
0D870:  BTFSC  F81.1
0D872:  BRA    D89C
....................             delay_ms(20); 
0D874:  MOVLW  14
0D876:  MOVLB  4
0D878:  MOVWF  x5B
0D87A:  MOVLB  0
0D87C:  CALL   1AC8
....................             if(RX_Buffer[4]==0x0b || DOWN){ 
0D880:  MOVF   34,W
0D882:  SUBLW  0B
0D884:  BZ    D88C
0D886:  BSF    F93.1
0D888:  BTFSC  F81.1
0D88A:  BRA    D89C
....................                if(MediaMovil>10) 
0D88C:  MOVLB  2
0D88E:  MOVF   xE2,W
0D890:  SUBLW  0A
0D892:  BC    D896
....................                   MediaMovil--; 
0D894:  DECF   xE2,F
....................                RX_Buffer[4]=0x00; 
0D896:  CLRF   34
....................                RX_Buffer2[4]=0x00;             
0D898:  CLRF   3F
0D89A:  MOVLB  0
....................                //BorraBuffer(); 
....................             } 
....................          } 
....................       }else if(Opcion2==8){ 
0D89C:  BRA    DB74
0D89E:  MOVLB  3
0D8A0:  MOVF   x6D,W
0D8A2:  SUBLW  08
0D8A4:  BTFSS  FD8.2
0D8A6:  BRA    DA0E
....................          printf("Config.t2c.txt=\"RPT100B\""); 
0D8A8:  MOVLW  D4
0D8AA:  MOVWF  FF6
0D8AC:  MOVLW  19
0D8AE:  MOVWF  FF7
0D8B0:  MOVLW  00
0D8B2:  MOVWF  FF8
0D8B4:  MOVLB  0
0D8B6:  CALL   398E
....................          SendDataDisplay();       
0D8BA:  CALL   39C0
....................          printf("t3c.txt=\"%2.1f\"",RPT100); 
0D8BE:  MOVLW  EE
0D8C0:  MOVWF  FF6
0D8C2:  MOVLW  19
0D8C4:  MOVWF  FF7
0D8C6:  MOVLW  00
0D8C8:  MOVWF  FF8
0D8CA:  MOVLW  09
0D8CC:  MOVLB  4
0D8CE:  MOVWF  x4B
0D8D0:  MOVLB  0
0D8D2:  CALL   4ABC
0D8D6:  MOVLW  01
0D8D8:  MOVWF  FE9
0D8DA:  MOVFF  2B1,44E
0D8DE:  MOVFF  2B0,44D
0D8E2:  MOVFF  2AF,44C
0D8E6:  MOVFF  2AE,44B
0D8EA:  MOVLB  4
0D8EC:  MOVWF  x4F
0D8EE:  MOVLB  0
0D8F0:  CALL   4DE8
0D8F4:  MOVLW  22
0D8F6:  BTFSS  F9E.4
0D8F8:  BRA    D8F6
0D8FA:  MOVWF  FAD
....................          SendDataDisplay(); 
0D8FC:  CALL   39C0
....................          if(RX_Buffer[4]==0x0a || UP){//Tecla Arriba Oprimida 
0D900:  MOVF   34,W
0D902:  SUBLW  0A
0D904:  BZ    D90C
0D906:  BSF    F93.0
0D908:  BTFSC  F81.0
0D90A:  BRA    D986
....................             delay_ms(20); 
0D90C:  MOVLW  14
0D90E:  MOVLB  4
0D910:  MOVWF  x5B
0D912:  MOVLB  0
0D914:  CALL   1AC8
....................             if(RX_Buffer[4]==0x0a || UP){ 
0D918:  MOVF   34,W
0D91A:  SUBLW  0A
0D91C:  BZ    D924
0D91E:  BSF    F93.0
0D920:  BTFSC  F81.0
0D922:  BRA    D986
....................                if(RPT100<2.0) 
0D924:  MOVFF  2B1,44D
0D928:  MOVFF  2B0,44C
0D92C:  MOVFF  2AF,44B
0D930:  MOVFF  2AE,44A
0D934:  MOVLB  4
0D936:  CLRF   x51
0D938:  CLRF   x50
0D93A:  CLRF   x4F
0D93C:  MOVLW  80
0D93E:  MOVWF  x4E
0D940:  MOVLB  0
0D942:  CALL   2DCC
0D946:  BNC   D982
....................                   RPT100+=0.1; 
0D948:  BCF    FD8.1
0D94A:  MOVFF  2B1,45E
0D94E:  MOVFF  2B0,45D
0D952:  MOVFF  2AF,45C
0D956:  MOVFF  2AE,45B
0D95A:  MOVLW  CD
0D95C:  MOVLB  4
0D95E:  MOVWF  x62
0D960:  MOVLW  CC
0D962:  MOVWF  x61
0D964:  MOVLW  4C
0D966:  MOVWF  x60
0D968:  MOVLW  7B
0D96A:  MOVWF  x5F
0D96C:  MOVLB  0
0D96E:  CALL   1C84
0D972:  MOVFF  03,2B1
0D976:  MOVFF  02,2B0
0D97A:  MOVFF  01,2AF
0D97E:  MOVFF  00,2AE
....................                RX_Buffer[4]=0x00;   
0D982:  CLRF   34
....................                RX_Buffer2[4]=0x00;             
0D984:  CLRF   3F
....................                //BorraBuffer(); 
....................             } 
....................          } 
....................              
....................          if(RX_Buffer[4]==0x0b || DOWN){//Tecla Abajo Oprimida 
0D986:  MOVF   34,W
0D988:  SUBLW  0B
0D98A:  BZ    D992
0D98C:  BSF    F93.1
0D98E:  BTFSC  F81.1
0D990:  BRA    DA0A
....................             delay_ms(20); 
0D992:  MOVLW  14
0D994:  MOVLB  4
0D996:  MOVWF  x5B
0D998:  MOVLB  0
0D99A:  CALL   1AC8
....................             if(RX_Buffer[4]==0x0b || DOWN){ 
0D99E:  MOVF   34,W
0D9A0:  SUBLW  0B
0D9A2:  BZ    D9AA
0D9A4:  BSF    F93.1
0D9A6:  BTFSC  F81.1
0D9A8:  BRA    DA0A
....................                if(RPT100>0.0) 
0D9AA:  MOVLB  4
0D9AC:  CLRF   x4D
0D9AE:  CLRF   x4C
0D9B0:  CLRF   x4B
0D9B2:  CLRF   x4A
0D9B4:  MOVFF  2B1,451
0D9B8:  MOVFF  2B0,450
0D9BC:  MOVFF  2AF,44F
0D9C0:  MOVFF  2AE,44E
0D9C4:  MOVLB  0
0D9C6:  CALL   2DCC
0D9CA:  BNC   DA06
....................                   RPT100-=0.1; 
0D9CC:  BSF    FD8.1
0D9CE:  MOVFF  2B1,45E
0D9D2:  MOVFF  2B0,45D
0D9D6:  MOVFF  2AF,45C
0D9DA:  MOVFF  2AE,45B
0D9DE:  MOVLW  CD
0D9E0:  MOVLB  4
0D9E2:  MOVWF  x62
0D9E4:  MOVLW  CC
0D9E6:  MOVWF  x61
0D9E8:  MOVLW  4C
0D9EA:  MOVWF  x60
0D9EC:  MOVLW  7B
0D9EE:  MOVWF  x5F
0D9F0:  MOVLB  0
0D9F2:  CALL   1C84
0D9F6:  MOVFF  03,2B1
0D9FA:  MOVFF  02,2B0
0D9FE:  MOVFF  01,2AF
0DA02:  MOVFF  00,2AE
....................                RX_Buffer[4]=0x00; 
0DA06:  CLRF   34
....................                RX_Buffer2[4]=0x00;             
0DA08:  CLRF   3F
....................                //BorraBuffer(); 
....................             } 
....................          } 
....................       }else if(Opcion2==9){ 
0DA0A:  BRA    DB74
0DA0C:  MOVLB  3
0DA0E:  MOVF   x6D,W
0DA10:  SUBLW  09
0DA12:  BNZ   DACA
....................          printf("Config.t2c.txt=\"TTrampa\""); 
0DA14:  MOVLW  FE
0DA16:  MOVWF  FF6
0DA18:  MOVLW  19
0DA1A:  MOVWF  FF7
0DA1C:  MOVLW  00
0DA1E:  MOVWF  FF8
0DA20:  MOVLB  0
0DA22:  CALL   398E
....................          SendDataDisplay();       
0DA26:  CALL   39C0
....................          printf("t3c.txt=\"%02u\"",TTrampa); 
0DA2A:  MOVLW  18
0DA2C:  MOVWF  FF6
0DA2E:  MOVLW  1A
0DA30:  MOVWF  FF7
0DA32:  MOVLW  00
0DA34:  MOVWF  FF8
0DA36:  MOVLW  09
0DA38:  MOVLB  4
0DA3A:  MOVWF  x4B
0DA3C:  MOVLB  0
0DA3E:  CALL   4ABC
0DA42:  MOVFF  2E3,44B
0DA46:  MOVLW  01
0DA48:  MOVLB  4
0DA4A:  MOVWF  x4C
0DA4C:  MOVLB  0
0DA4E:  CALL   4B1A
0DA52:  MOVLW  22
0DA54:  BTFSS  F9E.4
0DA56:  BRA    DA54
0DA58:  MOVWF  FAD
....................          SendDataDisplay(); 
0DA5A:  CALL   39C0
....................          if(RX_Buffer[4]==0x0a || UP){//Tecla Arriba Oprimida 
0DA5E:  MOVF   34,W
0DA60:  SUBLW  0A
0DA62:  BZ    DA6A
0DA64:  BSF    F93.0
0DA66:  BTFSC  F81.0
0DA68:  BRA    DA92
....................             delay_ms(20); 
0DA6A:  MOVLW  14
0DA6C:  MOVLB  4
0DA6E:  MOVWF  x5B
0DA70:  MOVLB  0
0DA72:  CALL   1AC8
....................             if(RX_Buffer[4]==0x0a || UP){ 
0DA76:  MOVF   34,W
0DA78:  SUBLW  0A
0DA7A:  BZ    DA82
0DA7C:  BSF    F93.0
0DA7E:  BTFSC  F81.0
0DA80:  BRA    DA92
....................                if(TTrampa<100) 
0DA82:  MOVLB  2
0DA84:  MOVF   xE3,W
0DA86:  SUBLW  63
0DA88:  BNC   DA8C
....................                   TTrampa++; 
0DA8A:  INCF   xE3,F
....................                RX_Buffer[4]=0x00;   
0DA8C:  CLRF   34
....................                RX_Buffer2[4]=0x00;             
0DA8E:  CLRF   3F
0DA90:  MOVLB  0
....................                //BorraBuffer(); 
....................             } 
....................          } 
....................              
....................          if(RX_Buffer[4]==0x0b || DOWN){//Tecla Abajo Oprimida 
0DA92:  MOVF   34,W
0DA94:  SUBLW  0B
0DA96:  BZ    DA9E
0DA98:  BSF    F93.1
0DA9A:  BTFSC  F81.1
0DA9C:  BRA    DAC6
....................             delay_ms(20); 
0DA9E:  MOVLW  14
0DAA0:  MOVLB  4
0DAA2:  MOVWF  x5B
0DAA4:  MOVLB  0
0DAA6:  CALL   1AC8
....................             if(RX_Buffer[4]==0x0b || DOWN){ 
0DAAA:  MOVF   34,W
0DAAC:  SUBLW  0B
0DAAE:  BZ    DAB6
0DAB0:  BSF    F93.1
0DAB2:  BTFSC  F81.1
0DAB4:  BRA    DAC6
....................                if(TTrampa>50) 
0DAB6:  MOVLB  2
0DAB8:  MOVF   xE3,W
0DABA:  SUBLW  32
0DABC:  BC    DAC0
....................                   TTrampa--; 
0DABE:  DECF   xE3,F
....................                RX_Buffer[4]=0x00; 
0DAC0:  CLRF   34
....................                RX_Buffer2[4]=0x00;             
0DAC2:  CLRF   3F
0DAC4:  MOVLB  0
....................                //BorraBuffer(); 
....................             } 
....................          } 
....................       }else if(Opcion2==10){ 
0DAC6:  BRA    DB74
0DAC8:  MOVLB  3
0DACA:  MOVF   x6D,W
0DACC:  SUBLW  0A
0DACE:  BNZ   DB1E
....................          printf("Config.t2c.txt=\"Ciclos\""); 
0DAD0:  MOVLW  28
0DAD2:  MOVWF  FF6
0DAD4:  MOVLW  1A
0DAD6:  MOVWF  FF7
0DAD8:  MOVLW  00
0DADA:  MOVWF  FF8
0DADC:  MOVLB  0
0DADE:  CALL   398E
....................          SendDataDisplay();       
0DAE2:  CALL   39C0
....................          printf("t3c.txt=\"%05Lu\"",Ciclos); 
0DAE6:  MOVLW  40
0DAE8:  MOVWF  FF6
0DAEA:  MOVLW  1A
0DAEC:  MOVWF  FF7
0DAEE:  MOVLW  00
0DAF0:  MOVWF  FF8
0DAF2:  MOVLW  09
0DAF4:  MOVLB  4
0DAF6:  MOVWF  x4B
0DAF8:  MOVLB  0
0DAFA:  CALL   4ABC
0DAFE:  MOVLW  08
0DB00:  MOVWF  FE9
0DB02:  MOVFF  383,44B
0DB06:  MOVFF  382,44A
0DB0A:  CALL   4C7A
0DB0E:  MOVLW  22
0DB10:  BTFSS  F9E.4
0DB12:  BRA    DB10
0DB14:  MOVWF  FAD
....................          SendDataDisplay(); 
0DB16:  CALL   39C0
....................       }else if(Opcion2==11){ 
0DB1A:  BRA    DB74
0DB1C:  MOVLB  3
0DB1E:  MOVF   x6D,W
0DB20:  SUBLW  0B
0DB22:  BNZ   DB72
....................          printf("Config.t2c.txt=\"Atmosferica\""); 
0DB24:  MOVLW  50
0DB26:  MOVWF  FF6
0DB28:  MOVLW  1A
0DB2A:  MOVWF  FF7
0DB2C:  MOVLW  00
0DB2E:  MOVWF  FF8
0DB30:  MOVLB  0
0DB32:  CALL   398E
....................          SendDataDisplay();    
0DB36:  CALL   39C0
....................          printf("t3c.txt=\"%02u\"",Atmosferica); 
0DB3A:  MOVLW  6E
0DB3C:  MOVWF  FF6
0DB3E:  MOVLW  1A
0DB40:  MOVWF  FF7
0DB42:  MOVLW  00
0DB44:  MOVWF  FF8
0DB46:  MOVLW  09
0DB48:  MOVLB  4
0DB4A:  MOVWF  x4B
0DB4C:  MOVLB  0
0DB4E:  CALL   4ABC
0DB52:  MOVFF  3B5,44B
0DB56:  MOVLW  01
0DB58:  MOVLB  4
0DB5A:  MOVWF  x4C
0DB5C:  MOVLB  0
0DB5E:  CALL   4B1A
0DB62:  MOVLW  22
0DB64:  BTFSS  F9E.4
0DB66:  BRA    DB64
0DB68:  MOVWF  FAD
....................          SendDataDisplay(); 
0DB6A:  CALL   39C0
....................           
....................          #ifdef PT100Fija 
....................             Atmosferica=0; 
0DB6E:  MOVLB  3
0DB70:  CLRF   xB5
0DB72:  MOVLB  0
....................          #else 
....................             if(RX_Buffer[4]==0x0a || UP){//Tecla Arriba Oprimida 
....................                delay_ms(20); 
....................                if(RX_Buffer[4]==0x0a || UP){ 
....................                   if(Atmosferica<100) 
....................                      Atmosferica++; 
....................                   RX_Buffer[4]=0x00;   
....................                   RX_Buffer2[4]=0x00;             
....................                   //BorraBuffer(); 
....................                } 
....................             } 
....................                 
....................             if(RX_Buffer[4]==0x0b || DOWN){//Tecla Abajo Oprimida 
....................                delay_ms(20); 
....................                if(RX_Buffer[4]==0x0b || DOWN){ 
....................                   if(Atmosferica>50) 
....................                      Atmosferica--; 
....................                   RX_Buffer[4]=0x00; 
....................                   RX_Buffer2[4]=0x00;             
....................                   //BorraBuffer(); 
....................                } 
....................             }  
....................          #endif 
....................       } 
....................        
....................       if(RX_Buffer[4]==0x0c || LEFT){//Tecla Izquierda Oprimida 
0DB74:  MOVF   34,W
0DB76:  SUBLW  0C
0DB78:  BZ    DB80
0DB7A:  BSF    F93.3
0DB7C:  BTFSC  F81.3
0DB7E:  BRA    DBA2
....................          delay_ms(20); 
0DB80:  MOVLW  14
0DB82:  MOVLB  4
0DB84:  MOVWF  x5B
0DB86:  MOVLB  0
0DB88:  CALL   1AC8
....................          if(RX_Buffer[4]==0x0c || LEFT){ 
0DB8C:  MOVF   34,W
0DB8E:  SUBLW  0C
0DB90:  BZ    DB98
0DB92:  BSF    F93.3
0DB94:  BTFSC  F81.3
0DB96:  BRA    DBA2
....................             Opcion2++; 
0DB98:  MOVLB  3
0DB9A:  INCF   x6D,F
....................             RX_Buffer[4]=0x00;   
0DB9C:  CLRF   34
....................             RX_Buffer2[4]=0x00;             
0DB9E:  CLRF   3F
0DBA0:  MOVLB  0
....................             //BorraBuffer(); 
....................          } 
....................       } 
....................           
....................       if(RX_Buffer[4]==0x0d || RIGHT){//Tecla Derecha Oprimida 
0DBA2:  MOVF   34,W
0DBA4:  SUBLW  0D
0DBA6:  BZ    DBAE
0DBA8:  BSF    F93.2
0DBAA:  BTFSC  F81.2
0DBAC:  BRA    DBD0
....................          delay_ms(20); 
0DBAE:  MOVLW  14
0DBB0:  MOVLB  4
0DBB2:  MOVWF  x5B
0DBB4:  MOVLB  0
0DBB6:  CALL   1AC8
....................          if(RX_Buffer[4]==0x0d || RIGHT){ 
0DBBA:  MOVF   34,W
0DBBC:  SUBLW  0D
0DBBE:  BZ    DBC6
0DBC0:  BSF    F93.2
0DBC2:  BTFSC  F81.2
0DBC4:  BRA    DBD0
....................             Opcion2--; 
0DBC6:  MOVLB  3
0DBC8:  DECF   x6D,F
....................             RX_Buffer[4]=0x00; 
0DBCA:  CLRF   34
....................             RX_Buffer2[4]=0x00;             
0DBCC:  CLRF   3F
0DBCE:  MOVLB  0
....................             //BorraBuffer(); 
....................          } 
....................       } 
....................        
....................       if(RX_Buffer[4]==0x11 || (RIGHT && LEFT)){//Tecla Regresar 
0DBD0:  MOVF   34,W
0DBD2:  SUBLW  11
0DBD4:  BZ    DBE2
0DBD6:  BSF    F93.2
0DBD8:  BTFSC  F81.2
0DBDA:  BRA    DF84
0DBDC:  BSF    F93.3
0DBDE:  BTFSC  F81.3
0DBE0:  BRA    DF84
....................          delay_ms(20); 
0DBE2:  MOVLW  14
0DBE4:  MOVLB  4
0DBE6:  MOVWF  x5B
0DBE8:  MOVLB  0
0DBEA:  CALL   1AC8
....................          if(RX_Buffer[4]==0x11 || (RIGHT && LEFT)){ 
0DBEE:  MOVF   34,W
0DBF0:  SUBLW  11
0DBF2:  BZ    DC00
0DBF4:  BSF    F93.2
0DBF6:  BTFSC  F81.2
0DBF8:  BRA    DF84
0DBFA:  BSF    F93.3
0DBFC:  BTFSC  F81.3
0DBFE:  BRA    DF84
....................             if(!GuardaEEPROM){ 
0DC00:  BTFSC  xA2.6
0DC02:  BRA    DF70
....................                write_eeprom(20,(int8)Ganancia); 
0DC04:  MOVFF  312,45E
0DC08:  MOVFF  311,45D
0DC0C:  MOVFF  310,45C
0DC10:  MOVFF  30F,45B
0DC14:  CALL   41C6
0DC18:  MOVFF  01,446
0DC1C:  CLRF   FAA
0DC1E:  MOVLW  14
0DC20:  MOVWF  FA9
0DC22:  MOVFF  446,FA8
0DC26:  BCF    FA6.6
0DC28:  BCF    FA6.7
0DC2A:  BSF    FA6.2
0DC2C:  MOVF   FF2,W
0DC2E:  MOVWF  00
0DC30:  BCF    FF2.6
0DC32:  BCF    FF2.7
0DC34:  MOVLB  F
0DC36:  MOVLW  55
0DC38:  MOVWF  FA7
0DC3A:  MOVLW  AA
0DC3C:  MOVWF  FA7
0DC3E:  BSF    FA6.1
0DC40:  BTFSC  FA6.1
0DC42:  BRA    DC40
0DC44:  BCF    FA6.2
0DC46:  MOVF   00,W
0DC48:  IORWF  FF2,F
....................                delay_ms(10); 
0DC4A:  MOVLW  0A
0DC4C:  MOVLB  4
0DC4E:  MOVWF  x5B
0DC50:  MOVLB  0
0DC52:  CALL   1AC8
....................                write_eeprom(26,(int8)Integral); 
0DC56:  CLRF   FAA
0DC58:  MOVLW  1A
0DC5A:  MOVWF  FA9
0DC5C:  MOVFF  343,FA8
0DC60:  BCF    FA6.6
0DC62:  BCF    FA6.7
0DC64:  BSF    FA6.2
0DC66:  MOVF   FF2,W
0DC68:  MOVWF  00
0DC6A:  BCF    FF2.6
0DC6C:  BCF    FF2.7
0DC6E:  MOVLB  F
0DC70:  MOVLW  55
0DC72:  MOVWF  FA7
0DC74:  MOVLW  AA
0DC76:  MOVWF  FA7
0DC78:  BSF    FA6.1
0DC7A:  BTFSC  FA6.1
0DC7C:  BRA    DC7A
0DC7E:  BCF    FA6.2
0DC80:  MOVF   00,W
0DC82:  IORWF  FF2,F
....................                delay_ms(10); 
0DC84:  MOVLW  0A
0DC86:  MOVLB  4
0DC88:  MOVWF  x5B
0DC8A:  MOVLB  0
0DC8C:  CALL   1AC8
....................                write_eeprom(27,(int8)Derivativo); 
0DC90:  CLRF   FAA
0DC92:  MOVLW  1B
0DC94:  MOVWF  FA9
0DC96:  MOVFF  344,FA8
0DC9A:  BCF    FA6.6
0DC9C:  BCF    FA6.7
0DC9E:  BSF    FA6.2
0DCA0:  MOVF   FF2,W
0DCA2:  MOVWF  00
0DCA4:  BCF    FF2.6
0DCA6:  BCF    FF2.7
0DCA8:  MOVLB  F
0DCAA:  MOVLW  55
0DCAC:  MOVWF  FA7
0DCAE:  MOVLW  AA
0DCB0:  MOVWF  FA7
0DCB2:  BSF    FA6.1
0DCB4:  BTFSC  FA6.1
0DCB6:  BRA    DCB4
0DCB8:  BCF    FA6.2
0DCBA:  MOVF   00,W
0DCBC:  IORWF  FF2,F
....................                delay_ms(10); 
0DCBE:  MOVLW  0A
0DCC0:  MOVLB  4
0DCC2:  MOVWF  x5B
0DCC4:  MOVLB  0
0DCC6:  CALL   1AC8
....................                write_eeprom(25,(int8)Tciclo); 
0DCCA:  MOVFF  2FA,45E
0DCCE:  MOVFF  2F9,45D
0DCD2:  MOVFF  2F8,45C
0DCD6:  MOVFF  2F7,45B
0DCDA:  CALL   41C6
0DCDE:  MOVFF  01,446
0DCE2:  CLRF   FAA
0DCE4:  MOVLW  19
0DCE6:  MOVWF  FA9
0DCE8:  MOVFF  446,FA8
0DCEC:  BCF    FA6.6
0DCEE:  BCF    FA6.7
0DCF0:  BSF    FA6.2
0DCF2:  MOVF   FF2,W
0DCF4:  MOVWF  00
0DCF6:  BCF    FF2.6
0DCF8:  BCF    FF2.7
0DCFA:  MOVLB  F
0DCFC:  MOVLW  55
0DCFE:  MOVWF  FA7
0DD00:  MOVLW  AA
0DD02:  MOVWF  FA7
0DD04:  BSF    FA6.1
0DD06:  BTFSC  FA6.1
0DD08:  BRA    DD06
0DD0A:  BCF    FA6.2
0DD0C:  MOVF   00,W
0DD0E:  IORWF  FF2,F
....................                delay_ms(10); 
0DD10:  MOVLW  0A
0DD12:  MOVLB  4
0DD14:  MOVWF  x5B
0DD16:  MOVLB  0
0DD18:  CALL   1AC8
....................                write_eeprom(21,Ajuste); 
0DD1C:  CLRF   FAA
0DD1E:  MOVLW  15
0DD20:  MOVWF  FA9
0DD22:  MOVFF  2E0,FA8
0DD26:  BCF    FA6.6
0DD28:  BCF    FA6.7
0DD2A:  BSF    FA6.2
0DD2C:  MOVF   FF2,W
0DD2E:  MOVWF  00
0DD30:  BCF    FF2.6
0DD32:  BCF    FF2.7
0DD34:  MOVLB  F
0DD36:  MOVLW  55
0DD38:  MOVWF  FA7
0DD3A:  MOVLW  AA
0DD3C:  MOVWF  FA7
0DD3E:  BSF    FA6.1
0DD40:  BTFSC  FA6.1
0DD42:  BRA    DD40
0DD44:  BCF    FA6.2
0DD46:  MOVF   00,W
0DD48:  IORWF  FF2,F
....................                delay_ms(10); 
0DD4A:  MOVLW  0A
0DD4C:  MOVLB  4
0DD4E:  MOVWF  x5B
0DD50:  MOVLB  0
0DD52:  CALL   1AC8
....................                write_eeprom(22,Ajusten); 
0DD56:  CLRF   FAA
0DD58:  MOVLW  16
0DD5A:  MOVWF  FA9
0DD5C:  MOVFF  2E1,FA8
0DD60:  BCF    FA6.6
0DD62:  BCF    FA6.7
0DD64:  BSF    FA6.2
0DD66:  MOVF   FF2,W
0DD68:  MOVWF  00
0DD6A:  BCF    FF2.6
0DD6C:  BCF    FF2.7
0DD6E:  MOVLB  F
0DD70:  MOVLW  55
0DD72:  MOVWF  FA7
0DD74:  MOVLW  AA
0DD76:  MOVWF  FA7
0DD78:  BSF    FA6.1
0DD7A:  BTFSC  FA6.1
0DD7C:  BRA    DD7A
0DD7E:  BCF    FA6.2
0DD80:  MOVF   00,W
0DD82:  IORWF  FF2,F
....................                delay_ms(10); 
0DD84:  MOVLW  0A
0DD86:  MOVLB  4
0DD88:  MOVWF  x5B
0DD8A:  MOVLB  0
0DD8C:  CALL   1AC8
....................                write_eeprom(24,(int8)MediaMovil); 
0DD90:  CLRF   FAA
0DD92:  MOVLW  18
0DD94:  MOVWF  FA9
0DD96:  MOVFF  2E2,FA8
0DD9A:  BCF    FA6.6
0DD9C:  BCF    FA6.7
0DD9E:  BSF    FA6.2
0DDA0:  MOVF   FF2,W
0DDA2:  MOVWF  00
0DDA4:  BCF    FF2.6
0DDA6:  BCF    FF2.7
0DDA8:  MOVLB  F
0DDAA:  MOVLW  55
0DDAC:  MOVWF  FA7
0DDAE:  MOVLW  AA
0DDB0:  MOVWF  FA7
0DDB2:  BSF    FA6.1
0DDB4:  BTFSC  FA6.1
0DDB6:  BRA    DDB4
0DDB8:  BCF    FA6.2
0DDBA:  MOVF   00,W
0DDBC:  IORWF  FF2,F
....................                delay_ms(10); 
0DDBE:  MOVLW  0A
0DDC0:  MOVLB  4
0DDC2:  MOVWF  x5B
0DDC4:  MOVLB  0
0DDC6:  CALL   1AC8
....................                write_eeprom(32,(int8)RPT100); 
0DDCA:  MOVFF  2B1,45E
0DDCE:  MOVFF  2B0,45D
0DDD2:  MOVFF  2AF,45C
0DDD6:  MOVFF  2AE,45B
0DDDA:  CALL   41C6
0DDDE:  MOVFF  01,446
0DDE2:  CLRF   FAA
0DDE4:  MOVLW  20
0DDE6:  MOVWF  FA9
0DDE8:  MOVFF  446,FA8
0DDEC:  BCF    FA6.6
0DDEE:  BCF    FA6.7
0DDF0:  BSF    FA6.2
0DDF2:  MOVF   FF2,W
0DDF4:  MOVWF  00
0DDF6:  BCF    FF2.6
0DDF8:  BCF    FF2.7
0DDFA:  MOVLB  F
0DDFC:  MOVLW  55
0DDFE:  MOVWF  FA7
0DE00:  MOVLW  AA
0DE02:  MOVWF  FA7
0DE04:  BSF    FA6.1
0DE06:  BTFSC  FA6.1
0DE08:  BRA    DE06
0DE0A:  BCF    FA6.2
0DE0C:  MOVF   00,W
0DE0E:  IORWF  FF2,F
....................                delay_ms(10); 
0DE10:  MOVLW  0A
0DE12:  MOVLB  4
0DE14:  MOVWF  x5B
0DE16:  MOVLB  0
0DE18:  CALL   1AC8
....................                Temporal=RPT100-((int8)RPT100); 
0DE1C:  MOVFF  2B1,45E
0DE20:  MOVFF  2B0,45D
0DE24:  MOVFF  2AF,45C
0DE28:  MOVFF  2AE,45B
0DE2C:  CALL   41C6
0DE30:  MOVLB  4
0DE32:  CLRF   x5C
0DE34:  MOVFF  01,45B
0DE38:  MOVLB  0
0DE3A:  CALL   1AF0
0DE3E:  BSF    FD8.1
0DE40:  MOVFF  2B1,45E
0DE44:  MOVFF  2B0,45D
0DE48:  MOVFF  2AF,45C
0DE4C:  MOVFF  2AE,45B
0DE50:  MOVFF  03,462
0DE54:  MOVFF  02,461
0DE58:  MOVFF  01,460
0DE5C:  MOVFF  00,45F
0DE60:  CALL   1C84
0DE64:  MOVFF  03,2B5
0DE68:  MOVFF  02,2B4
0DE6C:  MOVFF  01,2B3
0DE70:  MOVFF  00,2B2
....................                Temporal=Temporal*10; 
0DE74:  MOVFF  2B5,462
0DE78:  MOVFF  2B4,461
0DE7C:  MOVFF  2B3,460
0DE80:  MOVFF  2B2,45F
0DE84:  MOVLB  4
0DE86:  CLRF   x66
0DE88:  CLRF   x65
0DE8A:  MOVLW  20
0DE8C:  MOVWF  x64
0DE8E:  MOVLW  82
0DE90:  MOVWF  x63
0DE92:  MOVLB  0
0DE94:  CALL   3A8E
0DE98:  MOVFF  03,2B5
0DE9C:  MOVFF  02,2B4
0DEA0:  MOVFF  01,2B3
0DEA4:  MOVFF  00,2B2
....................                write_eeprom(33,(int8)Temporal); 
0DEA8:  MOVFF  2B5,45E
0DEAC:  MOVFF  2B4,45D
0DEB0:  MOVFF  2B3,45C
0DEB4:  MOVFF  2B2,45B
0DEB8:  CALL   41C6
0DEBC:  MOVFF  01,446
0DEC0:  CLRF   FAA
0DEC2:  MOVLW  21
0DEC4:  MOVWF  FA9
0DEC6:  MOVFF  446,FA8
0DECA:  BCF    FA6.6
0DECC:  BCF    FA6.7
0DECE:  BSF    FA6.2
0DED0:  MOVF   FF2,W
0DED2:  MOVWF  00
0DED4:  BCF    FF2.6
0DED6:  BCF    FF2.7
0DED8:  MOVLB  F
0DEDA:  MOVLW  55
0DEDC:  MOVWF  FA7
0DEDE:  MOVLW  AA
0DEE0:  MOVWF  FA7
0DEE2:  BSF    FA6.1
0DEE4:  BTFSC  FA6.1
0DEE6:  BRA    DEE4
0DEE8:  BCF    FA6.2
0DEEA:  MOVF   00,W
0DEEC:  IORWF  FF2,F
....................                delay_ms(10); 
0DEEE:  MOVLW  0A
0DEF0:  MOVLB  4
0DEF2:  MOVWF  x5B
0DEF4:  MOVLB  0
0DEF6:  CALL   1AC8
....................                write_eeprom(39,TTrampa); 
0DEFA:  CLRF   FAA
0DEFC:  MOVLW  27
0DEFE:  MOVWF  FA9
0DF00:  MOVFF  2E3,FA8
0DF04:  BCF    FA6.6
0DF06:  BCF    FA6.7
0DF08:  BSF    FA6.2
0DF0A:  MOVF   FF2,W
0DF0C:  MOVWF  00
0DF0E:  BCF    FF2.6
0DF10:  BCF    FF2.7
0DF12:  MOVLB  F
0DF14:  MOVLW  55
0DF16:  MOVWF  FA7
0DF18:  MOVLW  AA
0DF1A:  MOVWF  FA7
0DF1C:  BSF    FA6.1
0DF1E:  BTFSC  FA6.1
0DF20:  BRA    DF1E
0DF22:  BCF    FA6.2
0DF24:  MOVF   00,W
0DF26:  IORWF  FF2,F
....................                delay_ms(10); 
0DF28:  MOVLW  0A
0DF2A:  MOVLB  4
0DF2C:  MOVWF  x5B
0DF2E:  MOVLB  0
0DF30:  CALL   1AC8
....................                write_eeprom(46,Atmosferica); 
0DF34:  CLRF   FAA
0DF36:  MOVLW  2E
0DF38:  MOVWF  FA9
0DF3A:  MOVFF  3B5,FA8
0DF3E:  BCF    FA6.6
0DF40:  BCF    FA6.7
0DF42:  BSF    FA6.2
0DF44:  MOVF   FF2,W
0DF46:  MOVWF  00
0DF48:  BCF    FF2.6
0DF4A:  BCF    FF2.7
0DF4C:  MOVLB  F
0DF4E:  MOVLW  55
0DF50:  MOVWF  FA7
0DF52:  MOVLW  AA
0DF54:  MOVWF  FA7
0DF56:  BSF    FA6.1
0DF58:  BTFSC  FA6.1
0DF5A:  BRA    DF58
0DF5C:  BCF    FA6.2
0DF5E:  MOVF   00,W
0DF60:  IORWF  FF2,F
....................                delay_ms(10); 
0DF62:  MOVLW  0A
0DF64:  MOVLB  4
0DF66:  MOVWF  x5B
0DF68:  MOVLB  0
0DF6A:  CALL   1AC8
....................                GuardaEEPROM=ON; 
0DF6E:  BSF    xA2.6
....................             } 
....................             printf("page MenuPrincipal"); 
0DF70:  MOVLW  7E
0DF72:  MOVWF  FF6
0DF74:  MOVLW  1A
0DF76:  MOVWF  FF7
0DF78:  MOVLW  00
0DF7A:  MOVWF  FF8
0DF7C:  CALL   398E
....................             SendDataDisplay(); 
0DF80:  CALL   39C0
....................             //BorraBuffer(); 
....................          } 
....................       } 
....................       printf("fecha.txt=\"Fecha:%02u/%02u/20%02u    Hora: %02u:%02u\"",Dia,Mes,Year,Hora,Minuto); 
0DF84:  MOVLW  92
0DF86:  MOVWF  FF6
0DF88:  MOVLW  1A
0DF8A:  MOVWF  FF7
0DF8C:  MOVLW  00
0DF8E:  MOVWF  FF8
0DF90:  MOVLW  11
0DF92:  MOVLB  4
0DF94:  MOVWF  x4B
0DF96:  MOVLB  0
0DF98:  CALL   4ABC
0DF9C:  MOVFF  3A7,44B
0DFA0:  MOVLW  01
0DFA2:  MOVLB  4
0DFA4:  MOVWF  x4C
0DFA6:  MOVLB  0
0DFA8:  CALL   4B1A
0DFAC:  MOVLW  2F
0DFAE:  BTFSS  F9E.4
0DFB0:  BRA    DFAE
0DFB2:  MOVWF  FAD
0DFB4:  MOVFF  3A6,44B
0DFB8:  MOVLW  01
0DFBA:  MOVLB  4
0DFBC:  MOVWF  x4C
0DFBE:  MOVLB  0
0DFC0:  CALL   4B1A
0DFC4:  MOVLW  2F
0DFC6:  BTFSS  F9E.4
0DFC8:  BRA    DFC6
0DFCA:  MOVWF  FAD
0DFCC:  MOVLW  32
0DFCE:  BTFSS  F9E.4
0DFD0:  BRA    DFCE
0DFD2:  MOVWF  FAD
0DFD4:  MOVLW  30
0DFD6:  BTFSS  F9E.4
0DFD8:  BRA    DFD6
0DFDA:  MOVWF  FAD
0DFDC:  MOVFF  3A5,44B
0DFE0:  MOVLW  01
0DFE2:  MOVLB  4
0DFE4:  MOVWF  x4C
0DFE6:  MOVLB  0
0DFE8:  CALL   4B1A
0DFEC:  MOVLW  B3
0DFEE:  MOVWF  FF6
0DFF0:  MOVLW  1A
0DFF2:  MOVWF  FF7
0DFF4:  MOVLW  00
0DFF6:  MOVWF  FF8
0DFF8:  MOVLW  0A
0DFFA:  MOVLB  4
0DFFC:  MOVWF  x4B
0DFFE:  MOVLB  0
0E000:  CALL   4ABC
0E004:  MOVFF  3A8,44B
0E008:  MOVLW  01
0E00A:  MOVLB  4
0E00C:  MOVWF  x4C
0E00E:  MOVLB  0
0E010:  CALL   4B1A
0E014:  MOVLW  3A
0E016:  BTFSS  F9E.4
0E018:  BRA    E016
0E01A:  MOVWF  FAD
0E01C:  MOVFF  3A9,44B
0E020:  MOVLW  01
0E022:  MOVLB  4
0E024:  MOVWF  x4C
0E026:  MOVLB  0
0E028:  CALL   4B1A
0E02C:  MOVLW  22
0E02E:  BTFSS  F9E.4
0E030:  BRA    E02E
0E032:  MOVWF  FAD
....................       SendDataDisplay();  
0E034:  CALL   39C0
0E038:  MOVLB  3
....................     } 
.................... //_--------------------------------------------------------------------------------------------------------------------------------------------------------        
....................  
....................    } 
0E03A:  GOTO   8080
.................... } 
0E03E:  SLEEP 

Configuration Fuses:
   Word  1: 0200   HS NOIESO NOFCMEN
   Word  2: 1B19   NOBROWNOUT WDT BORV20 NOPUT WDT8192
   Word  3: 0000   NOPBADEN NOLPT1OSC NOMCLR
   Word  4: 00B0   NOSTVREN NODEBUG NOLVP NOXINST BBSIZ4K
   Word  5: C03F   NOPROTECT NOCPD NOCPB
   Word  6: E03F   NOWRT NOWRTD NOWRTC NOWRTB
   Word  7: 403F   NOEBTR NOEBTRB
