CCS PCH C Compiler, Version 4.104, 5967               23-jun.-21 07:32

               Filename: D:\Laboratorio\Autoclave\Autoclaves Vertical\Sin Precamara\2021\Autoclave 62L Federacion Nacional de Cafeteros #004588629 OP202104\Firmware V4.1.6 - Enfirador-Presion-Decimal-200Ciclos-Impresora\GLCD_Controller_V3.0.1\GLCD_Controller.lst

               ROM used: 59812 bytes (61%)
                         Largest free fragment is 32768
               RAM used: 1108 (33%) at main() level
                         1136 (34%) worst case
               Stack:    5 worst case (4 in main + 1 for interrupts)

*
00000:  GOTO   7932
*
00008:  GOTO   00BA
0000C:  NOP   
0000E:  NOP   
00010:  NOP   
00012:  NOP   
00014:  NOP   
00016:  NOP   
00018:  MOVWF  04
0001A:  MOVFF  FD8,05
0001E:  MOVFF  FE0,06
00022:  MOVLB  0
00024:  MOVFF  FE9,0C
00028:  MOVFF  FEA,07
0002C:  MOVFF  FE1,08
00030:  MOVFF  FE2,09
00034:  MOVFF  FD9,0A
00038:  MOVFF  FDA,0B
0003C:  MOVFF  FF3,12
00040:  MOVFF  FF4,13
00044:  MOVFF  FFA,14
00048:  MOVFF  FFB,15
0004C:  MOVFF  00,0E
00050:  MOVFF  01,0F
00054:  MOVFF  02,10
00058:  MOVFF  03,11
0005C:  BTFSS  FF2.5
0005E:  GOTO   0068
00062:  BTFSC  FF2.2
00064:  GOTO   03B6
00068:  BTFSS  F9D.0
0006A:  GOTO   0074
0006E:  BTFSC  F9E.0
00070:  GOTO   040E
00074:  MOVFF  0E,00
00078:  MOVFF  0F,01
0007C:  MOVFF  10,02
00080:  MOVFF  11,03
00084:  MOVFF  0C,FE9
00088:  MOVFF  07,FEA
0008C:  BSF    07.7
0008E:  MOVFF  08,FE1
00092:  MOVFF  09,FE2
00096:  MOVFF  0A,FD9
0009A:  MOVFF  0B,FDA
0009E:  MOVFF  12,FF3
000A2:  MOVFF  13,FF4
000A6:  MOVFF  14,FFA
000AA:  MOVFF  15,FFB
000AE:  MOVF   04,W
000B0:  MOVFF  06,FE0
000B4:  MOVFF  05,FD8
000B8:  RETFIE 0
000BA:  MOVWF  17
000BC:  MOVFF  FD8,18
000C0:  MOVFF  FE0,19
000C4:  MOVLB  0
000C6:  MOVFF  FE9,1F
000CA:  MOVFF  FEA,1A
000CE:  MOVFF  FE1,1B
000D2:  MOVFF  FE2,1C
000D6:  MOVFF  FD9,1D
000DA:  MOVFF  FDA,1E
000DE:  MOVFF  FF3,25
000E2:  MOVFF  FF4,26
000E6:  MOVFF  FFA,27
000EA:  MOVFF  FFB,28
000EE:  MOVFF  00,21
000F2:  MOVFF  01,22
000F6:  MOVFF  02,23
000FA:  MOVFF  03,24
000FE:  BTFSS  F9D.5
00100:  GOTO   010A
00104:  BTFSC  F9E.5
00106:  GOTO   0348
0010A:  MOVFF  21,00
0010E:  MOVFF  22,01
00112:  MOVFF  23,02
00116:  MOVFF  24,03
0011A:  MOVFF  1F,FE9
0011E:  MOVFF  1A,FEA
00122:  BSF    1A.7
00124:  MOVFF  1B,FE1
00128:  MOVFF  1C,FE2
0012C:  MOVFF  1D,FD9
00130:  MOVFF  1E,FDA
00134:  MOVFF  25,FF3
00138:  MOVFF  26,FF4
0013C:  MOVFF  27,FFA
00140:  MOVFF  28,FFB
00144:  MOVF   17,W
00146:  MOVFF  19,FE0
0014A:  MOVFF  18,FD8
0014E:  RETFIE 0
.................... //Falta crear menu de ajuste de variables y de norma CFR21 
....................  
.................... #include <18F4685.h> 
.................... //////// Standard Header file for the PIC18F4685 device //////////////// 
.................... #device PIC18F4685 
.................... #list 
....................  
.................... #device adc=10 
.................... #device HIGH_INTS=TRUE //Activamos niveles de prioridad 
.................... #fuses HS,WDT8192,NOPROTECT,NOLVP,NODEBUG,NOSTVREN,NOPUT,NOCPD,NOWRT,NOIESO,NOFCMEN,NOPBADEN,NOWRTC,NOWRTB,NOEBTR,NOEBTRB,NOCPB,NOXINST,NOLPT1OSC,NOMCLR 
.................... #use delay(clock=20000000) 
*
01A6C:  MOVLW  04
01A6E:  MOVWF  FEA
01A70:  MOVLW  62
01A72:  MOVWF  FE9
01A74:  MOVF   FEF,W
01A76:  BZ    1A92
01A78:  MOVLW  06
01A7A:  MOVWF  01
01A7C:  CLRF   00
01A7E:  DECFSZ 00,F
01A80:  BRA    1A7E
01A82:  DECFSZ 01,F
01A84:  BRA    1A7C
01A86:  MOVLW  7B
01A88:  MOVWF  00
01A8A:  DECFSZ 00,F
01A8C:  BRA    1A8A
01A8E:  DECFSZ FEF,F
01A90:  BRA    1A78
01A92:  RETLW  00
.................... #use i2c(Master,slow,sda=PIN_C4,scl=PIN_C3) 
*
048E4:  MOVLW  08
048E6:  MOVWF  01
048E8:  MOVLW  05
048EA:  MOVWF  00
048EC:  DECFSZ 00,F
048EE:  BRA    48EC
048F0:  BCF    F8B.3
048F2:  BCF    F94.3
048F4:  MOVLW  06
048F6:  MOVWF  00
048F8:  DECFSZ 00,F
048FA:  BRA    48F8
048FC:  MOVLB  4
048FE:  RLCF   x6A,F
04900:  BCF    F8B.4
04902:  BTFSC  FD8.0
04904:  BSF    F94.4
04906:  BTFSS  FD8.0
04908:  BCF    F94.4
0490A:  BSF    F94.3
0490C:  BTFSS  F82.3
0490E:  BRA    490C
04910:  DECFSZ 01,F
04912:  BRA    4916
04914:  BRA    491A
04916:  MOVLB  0
04918:  BRA    48E8
0491A:  MOVLW  05
0491C:  MOVWF  00
0491E:  DECFSZ 00,F
04920:  BRA    491E
04922:  BCF    F8B.3
04924:  BCF    F94.3
04926:  NOP   
04928:  BSF    F94.4
0492A:  MOVLW  06
0492C:  MOVWF  00
0492E:  DECFSZ 00,F
04930:  BRA    492E
04932:  MOVLW  06
04934:  MOVWF  00
04936:  DECFSZ 00,F
04938:  BRA    4936
0493A:  BSF    F94.3
0493C:  BTFSS  F82.3
0493E:  BRA    493C
04940:  CLRF   01
04942:  MOVLW  06
04944:  MOVWF  00
04946:  DECFSZ 00,F
04948:  BRA    4946
0494A:  BTFSC  F82.4
0494C:  BSF    01.0
0494E:  BCF    F8B.3
04950:  BCF    F94.3
04952:  BCF    F8B.4
04954:  BCF    F94.4
04956:  MOVLB  0
04958:  RETLW  00
*
0578C:  MOVLW  08
0578E:  MOVLB  4
05790:  MOVWF  x52
05792:  MOVFF  00,453
05796:  BSF    F94.4
05798:  MOVLW  06
0579A:  MOVWF  00
0579C:  DECFSZ 00,F
0579E:  BRA    579C
057A0:  BSF    F94.3
057A2:  BTFSS  F82.3
057A4:  BRA    57A2
057A6:  BTFSC  F82.4
057A8:  BSF    FD8.0
057AA:  BTFSS  F82.4
057AC:  BCF    FD8.0
057AE:  RLCF   01,F
057B0:  MOVLW  05
057B2:  MOVWF  00
057B4:  DECFSZ 00,F
057B6:  BRA    57B4
057B8:  BCF    F94.3
057BA:  BCF    F8B.3
057BC:  DECFSZ x52,F
057BE:  BRA    5796
057C0:  BSF    F94.4
057C2:  MOVLW  06
057C4:  MOVWF  00
057C6:  DECFSZ 00,F
057C8:  BRA    57C6
057CA:  BCF    F8B.4
057CC:  MOVF   x53,W
057CE:  BTFSS  FD8.2
057D0:  BCF    F94.4
057D2:  NOP   
057D4:  BSF    F94.3
057D6:  BTFSS  F82.3
057D8:  BRA    57D6
057DA:  MOVLW  05
057DC:  MOVWF  00
057DE:  DECFSZ 00,F
057E0:  BRA    57DE
057E2:  BCF    F8B.3
057E4:  BCF    F94.3
057E6:  MOVLW  06
057E8:  MOVWF  00
057EA:  DECFSZ 00,F
057EC:  BRA    57EA
057EE:  BCF    F8B.4
057F0:  BCF    F94.4
057F2:  MOVLB  0
057F4:  GOTO   587A (RETURN)
.................... #use rs232(baud=9600, xmit=PIN_C6, rcv=PIN_C7, bits=8, parity=N) 
*
03BDC:  BTFSS  F9E.4
03BDE:  BRA    3BDC
03BE0:  MOVWF  FAD
03BE2:  RETLW  00
.................... //#include "HDM64GS12.c" 
.................... //#include "GRAPHICS.c" 
.................... ///#include "imagen.h" 
.................... #include <stdio.h> 
.................... /////////////////////////////////////////////////////////////////////////// 
.................... ////        (C) Copyright 1996,2003 Custom Computer Services           //// 
.................... //// This source code may only be used by licensed users of the CCS C  //// 
.................... //// compiler.  This source code may only be distributed to other      //// 
.................... //// licensed users of the CCS C compiler.  No other use, reproduction //// 
.................... //// or distribution is permitted without written permission.          //// 
.................... //// Derivative programs created using this software in object code    //// 
.................... //// form are not restricted in any way.                               //// 
.................... /////////////////////////////////////////////////////////////////////////// 
....................  
.................... #ifndef _STDIO 
.................... #define _STDIO 
.................... #include <string.h> 
.................... //////////////////////////////////////////////////////////////////////////// 
.................... ////        (C) Copyright 1996,2008 Custom Computer Services            //// 
.................... //// This source code may only be used by licensed users of the CCS C   //// 
.................... //// compiler.  This source code may only be distributed to other       //// 
.................... //// licensed users of the CCS C compiler.  No other use, reproduction  //// 
.................... //// or distribution is permitted without written permission.           //// 
.................... //// Derivative programs created using this software in object code     //// 
.................... //// form are not restricted in any way.                                //// 
.................... //////////////////////////////////////////////////////////////////////////// 
....................  
.................... #ifndef _STRING 
.................... #define _STRING 
.................... #include <stddef.h> 
.................... /////////////////////////////////////////////////////////////////////////// 
.................... ////        (C) Copyright 1996,2003 Custom Computer Services           //// 
.................... //// This source code may only be used by licensed users of the CCS C  //// 
.................... //// compiler.  This source code may only be distributed to other      //// 
.................... //// licensed users of the CCS C compiler.  No other use, reproduction //// 
.................... //// or distribution is permitted without written permission.          //// 
.................... //// Derivative programs created using this software in object code    //// 
.................... //// form are not restricted in any way.                               //// 
.................... /////////////////////////////////////////////////////////////////////////// 
....................  
.................... #ifndef _STDDEF 
....................  
.................... #define _STDDEF 
....................  
.................... #if sizeof(unsigned int8 *)==1 
.................... #define ptrdiff_t unsigned int8 
.................... #else 
.................... #define ptrdiff_t unsigned int16 
.................... #endif 
....................  
.................... #define size_t unsigned int8 
.................... #define wchar_t char 
.................... #define NULL 0 
....................  
.................... #define offsetof(s,f) (offsetofbit(s,f)/8) 
....................  
.................... #endif 
....................  
.................... #include <ctype.h> 
.................... //////////////////////////////////////////////////////////////////////////// 
.................... ////        (C) Copyright 1996,2003 Custom Computer Services            //// 
.................... //// This source code may only be used by licensed users of the CCS C   //// 
.................... //// compiler.  This source code may only be distributed to other       //// 
.................... //// licensed users of the CCS C compiler.  No other use, reproduction  //// 
.................... //// or distribution is permitted without written permission.           //// 
.................... //// Derivative programs created using this software in object code     //// 
.................... //// form are not restricted in any way.                                //// 
.................... //////////////////////////////////////////////////////////////////////////// 
....................  
.................... #ifndef _CTYPE 
.................... #define _CTYPE 
....................  
.................... #define islower(x)  isamong(x,"abcdefghijklmnopqrstuvwxyz") 
.................... #define isupper(x)  isamong(x,"ABCDEFGHIJKLMNOPQRSTUVWXYZ") 
.................... #define isalnum(x)  isamong(x,"0123456789ABCDEFGHIJKLMNOPQRSTUVWXYZabcdefghijklmnopqrstuvwxyz") 
.................... #define isalpha(x)  isamong(x,"ABCDEFGHIJKLMNOPQRSTUVWXYZabcdefghijklmnopqrstuvwxyz") 
.................... #define isdigit(x)  isamong(x,"0123456789") 
.................... #define isspace(x)  ((x)==' ') 
.................... #define isxdigit(x) isamong(x,"0123456789ABCDEFabcdef") 
.................... #define iscntrl(x)  ((x)<' ') 
.................... #define isprint(x)  ((x)>=' ') 
.................... #define isgraph(x)  ((x)>' ') 
.................... #define ispunct(x)  (((x)>' ')&&!isalnum(x)) 
....................  
.................... #endif 
....................  
....................  
....................  
....................  
....................  
.................... ////////////////////////////////////////////// 
.................... //// Uncomment the following define to    //// 
.................... //// allow some functions to use a        //// 
.................... //// quicker algorithm, but use more ROM  //// 
.................... ////                                      //// 
.................... //// #define FASTER_BUT_MORE_ROM          //// 
.................... ////////////////////////////////////////////// 
....................  
....................  
....................  
.................... /*Copying functions*/ 
.................... /* standard template: 
....................    void *memmove(void *s1, void *s2, size_t n). 
....................    Copies max of n characters safely (not following ending '\0') 
....................    from s2 in s1; if s2 has less than n characters, appends 0 */ 
....................  
.................... char *memmove(void *s1,char *s2,size_t n) 
.................... { 
....................    char *sc1; 
....................    char *sc2; 
....................    sc1=s1; 
....................    sc2=s2; 
....................    if(sc2<sc1 && sc1 <sc2 +n) 
....................       for(sc1+=n,sc2+=n;0<n;--n) 
....................          *--sc1=*--sc2; 
....................    else 
....................       for(;0<n;--n) 
....................          *sc1++=*sc2++; 
....................   return s1; 
....................   } 
....................  
.................... /* Standard template: char *strcpy(char *s1, const char *s2) 
....................    copies the string s2 including the null character to s1. 
....................    This is a compiler built in to handle the different address 
....................    spaces */ 
....................  
.................... #define strcopy strcpy 
....................  
.................... /* standard template: 
....................    char *strncpy(char *s1, const char *s2, size_t n). 
....................    Copies max of n characters (not following ending '\0') 
....................    from s2 in s1; if s2 has less than n characters, appends 0 */ 
....................  
.................... char *strncpy(char *s1, char *s2, size_t n) 
.................... { 
....................   char *s; 
....................  
....................   for (s = s1; n > 0 && *s2 != '\0'; n--) 
....................      *s++ = *s2++; 
....................   for (; n > 0; n--) 
....................      *s++ = '\0'; 
....................  
....................   return(s1); 
.................... } 
.................... /***********************************************************/ 
....................  
.................... /*concatenation functions*/ 
.................... /* standard template: char *strcat(char *s1, const char *s2) 
.................... appends s2 to s1*/ 
....................  
.................... char *strcat(char *s1, char *s2) 
.................... { 
....................    char *s; 
....................  
....................    for (s = s1; *s != '\0'; ++s); 
....................    while(*s2 != '\0') 
....................    { 
....................       *s = *s2; 
....................       ++s; 
....................       ++s2; 
....................    } 
....................  
....................    *s = '\0'; 
....................    return(s1); 
.................... } 
.................... /* standard template: char *strncat(char *s1, char *s2,size_t n) 
.................... appends not more than n characters from s2 to s1*/ 
....................  
.................... char *strncat(char *s1, char *s2, size_t n) 
.................... { 
....................    char *s; 
....................  
....................    for (s = s1; *s != '\0'; ++s); 
....................    while(*s2 != '\0' && 0<n) 
....................    { 
....................       *s = *s2; 
....................       ++s; 
....................       ++s2; 
....................       --n; 
....................    } 
....................  
....................    *s = '\0'; 
....................    return(s1); 
.................... } 
....................  
.................... /***********************************************************/ 
....................  
....................  
.................... /*comparison functions*/ 
.................... /* standard template: signed int memcmp(void *s1, void *s2). 
....................    Compares s1 & s2; returns -1 if s1<s2, 0 if s1=s2, 1 if s1>s2 */ 
....................  
.................... signed int8 memcmp(void * s1,char *s2,size_t n) 
.................... { 
.................... char *su1, *su2; 
.................... for(su1=s1, su2=s2; 0<n; ++su1, ++su2, --n) 
.................... { 
....................    if(*su1!=*su2) 
....................       return ((*su1<*su2)?-1:+1); 
.................... } 
.................... return 0; 
.................... } 
....................  
.................... /* standard template: int strcmp(const char *s1, const char *s2). 
....................    Compares s1 & s2; returns -1 if s1<s2, 0 if s1=s2, 1 if s1>s2 */ 
....................  
.................... signed int8 strcmp(char *s1, char *s2) 
.................... { 
....................    for (; *s1 == *s2; s1++, s2++) 
....................       if (*s1 == '\0') 
....................          return(0); 
....................    return((*s1 < *s2) ? -1: 1); 
.................... } 
.................... /* standard template: int strcoll(const char *s1, const char *s2). 
....................    Compares s1 & s2; returns -1 if s1<s2, 0 if s1=s2, 1 if s1>s2 */ 
....................  
.................... signed int8 strcoll(char *s1, char *s2) 
.................... { 
....................    for (; *s1 == *s2; s1++, s2++) 
....................       if (*s1 == '\0') 
....................          return(0); 
....................    return((*s1 < *s2) ? -1: 1); 
.................... } 
....................  
.................... /* standard template: 
....................    int strncmp(const char *s1, const char *s2, size_t n). 
....................    Compares max of n characters (not following 0) from s1 to s2; 
....................    returns same as strcmp */ 
....................  
.................... signed int8 strncmp(char *s1, char *s2, size_t n) 
.................... { 
....................    for (; n > 0; s1++, s2++, n--) 
....................       if (*s1 != *s2) 
....................          return((*s1 <*s2) ? -1: 1); 
....................       else if (*s1 == '\0') 
....................          return(0); 
....................    return(0); 
.................... } 
.................... /* standard template: 
....................    int strxfrm(const char *s1, const char *s2, size_t n). 
....................    transforms maximum of n characters from s2 and places them into s1*/ 
.................... size_t strxfrm(char *s1, char *s2, size_t n) 
.................... { 
....................   char *s; 
....................   unsigned int8 n1; 
....................   n1=n; 
....................   for (s = s1; n > 0 && *s2 != '\0'; n--) 
....................      *s++ = *s2++; 
....................   for (; n > 0; n--) 
....................      *s++ = '\0'; 
....................  
....................   return(n1); 
.................... } 
....................  
....................  
....................  
....................  
....................  
.................... /***********************************************************/ 
.................... /*Search functions*/ 
.................... /* standard template: void *memchr(const char *s, int c). 
....................    Finds first occurrence of c in n characters of s */ 
....................  
.................... char *memchr(void *s,unsigned int8 c,size_t n) 
.................... { 
....................    char uc; 
....................    char *su; 
....................    uc=c; 
....................    for(su=s;0<n;++su,--n) 
....................       if(*su==uc) 
....................       return su; 
....................    return NULL; 
.................... } 
....................  
.................... /* standard template: char *strchr(const char *s, int c). 
....................    Finds first occurrence of c in s */ 
....................  
.................... char *strchr(char *s, unsigned int8 c) 
.................... { 
....................    for (; *s != c; s++) 
....................       if (*s == '\0') 
....................          return(0); 
....................    return(s); 
.................... } 
.................... /* standard template: 
....................    size_t strcspn(const char *s1, const char *s2). 
....................    Computes length of max initial segment of s1 that 
....................    consists entirely of characters NOT from s2*/ 
....................  
.................... unsigned int8  strcspn(char *s1, char *s2) 
.................... { 
....................    char *sc1, *sc2; 
....................  
....................    for (sc1 = s1; *sc1 != 0; sc1++) 
....................       for (sc2 = s2; *sc2 != 0; sc2++) 
....................          if (*sc1 == *sc2) 
....................             return(sc1 - s1); 
....................    return(sc1 - s1); 
.................... } 
.................... /* standard template: 
....................    char *strpbrk(const char *s1, const char *s2). 
....................    Locates first occurence of any character from s2 in s1; 
....................    returns s1 if s2 is empty string */ 
....................  
.................... char *strpbrk(char *s1, char *s2) 
.................... { 
....................    char *sc1, *sc2; 
....................  
....................    for (sc1 = s1; *sc1 != 0; sc1++) 
....................       for (sc2 = s2; *sc2 != 0; sc2++) 
....................          if (*sc1 == *sc2) 
....................             return(sc1); 
....................    return(0); 
.................... } 
....................  
....................  
.................... /* standard template: char *strrchr(const char *s, int c). 
....................    Finds last occurrence of c in s */ 
....................  
.................... char *strrchr(char *s, unsigned int8 c) 
.................... { 
....................    char *p; 
....................  
....................    for (p = 0; ; s++) 
....................    { 
....................       if (*s == c) 
....................          p = s; 
....................       if (*s == '\0') 
....................          return(p); 
....................    } 
.................... } 
.................... /* computes length of max initial segment of s1 consisting 
....................    entirely of characters from s2 */ 
....................  
.................... unsigned int8  strspn(char *s1, char *s2) 
.................... { 
....................    char *sc1, *sc2; 
....................  
....................    for (sc1 = s1; *sc1 != 0; sc1++) 
....................       for (sc2 = s2; ; sc2++) 
....................     if (*sc2 == '\0') 
....................        return(sc1 - s1); 
....................          else if (*sc1 == *sc2) 
....................             break; 
....................    return(sc1 - s1); 
.................... } 
.................... /* standard template: 
....................    char *strstr(const char *s1, const char *s2); 
....................    Locates first occurence of character sequence s2 in s1; 
....................    returns 0 if s2 is empty string 
....................  
....................    Uncomment #define FASTER_BUT_MORE_ROM at the top of the 
....................    file to use the faster algorithm */ 
.................... char *strstr(char *s1, char *s2) 
.................... { 
....................    char *s, *t; 
....................  
....................    #ifdef FASTER_BUT_MORE_ROM 
....................    if (*s2 == '\0') 
....................          return(s1); 
....................    #endif 
....................  
....................    while (*s1) 
....................    { 
....................       for(s = s1, t = s2; *t && (*s == *t); ++s, ++t); 
....................  
....................       if (*t == '\0') 
....................          return s1; 
....................       ++s1; 
....................       #ifdef FASTER_BUT_MORE_ROM 
....................          while(*s1 != '\0' && *s1 != *s2) 
....................             ++s1; 
....................       #endif 
....................    } 
....................    return 0; 
.................... } 
....................  
.................... /* standard template: char *strtok(char *s1, const char *s2). 
....................  
....................    Finds next token in s1 delimited by a character from separator 
....................    string s2 (which can be different from call to call).  First call 
....................    starts at beginning of s1 searching for first character NOT 
....................    contained in s2; returns 0 if none is found. 
....................    If one is found, it is the start of first token (return value). 
....................    Function then searches from there for a character contained in s2. 
....................    If none is found, current token extends to end of s1, and subsequent 
....................    searches for a token will return 0.  If one is found, it is 
....................    overwritten by '\0', which terminates current token.  Function saves 
....................    pointer to following character from which next search will start. 
....................    Each subsequent call, with 0 as first argument, starts searching 
....................    from saved pointer */ 
....................  
.................... char *strtok(char *s1, char *s2) 
.................... { 
....................    char *beg, *end; 
....................    static char *save; 
....................  
....................    beg = (s1)? s1: save; 
....................    beg += strspn(beg, s2); 
....................    if (*beg == '\0') 
....................    { 
....................       *save = ' '; 
....................       return(0); 
....................    } 
....................    end = strpbrk(beg, s2); 
....................    if (*end != '\0') 
....................    { 
....................       *end = '\0'; 
....................       end++; 
....................    } 
....................    save = end; 
....................    return(beg); 
.................... } 
....................  
.................... /*****************************************************************/ 
.................... /*Miscellaneous functions*/ 
.................... /* standard template 
.................... maps error number in errnum to an error message string 
.................... Returns: Pointer to string 
.................... */ 
.................... #ifdef _ERRNO 
.................... char * strerror(unsigned int8 errnum) 
.................... { 
.................... char s[15]; 
.................... switch( errnum) 
.................... { 
.................... case 0: 
....................    strcpy(s,"no errors"); 
....................    return s; 
.................... case EDOM : 
....................    strcpy(s,"domain error"); 
....................    return s; 
.................... case ERANGE: 
....................    strcpy(s,"range error"); 
....................    return s; 
.................... } 
.................... } 
.................... #ENDIF 
.................... /* standard template: size_t strlen(const char *s). 
....................    Computes length of s1 (preceding terminating 0) */ 
....................  
.................... unsigned int8 strlen(char *s) 
.................... { 
....................    char *sc; 
....................  
....................    for (sc = s; *sc != 0; sc++); 
....................    return(sc - s); 
.................... } 
....................  
.................... /* standard template: size_t stricmp(const char *s1, const char *s2). 
....................    Compares s1 to s2 ignoring case (upper vs. lower) */ 
....................  
.................... signed int8 stricmp(char *s1, char *s2) 
.................... { 
....................  for(; *s1==*s2||(isalpha(*s1)&&isalpha(*s2)&&(*s1==*s2+32||*s2==*s1+32)); 
....................     s1++, s2++) 
....................     if (*s1 == '\0') 
....................        return(0); 
....................  return((*s1 < *s2) ? -1: 1); 
.................... } 
....................  
....................  
.................... /* standard template: char *strlwr(char *s). 
....................    Replaces uppercase letters by lowercase; 
....................    returns pointer to new string s */ 
....................  
.................... char *strlwr(char *s) 
.................... { 
....................    char *p; 
....................  
....................    for (p = s; *p != '\0'; p++) 
....................       if (*p >= 'A' && *p <='Z') 
....................          *p += 'a' - 'A'; 
....................    return(s); 
.................... } 
....................  
....................  
.................... /************************************************************/ 
....................  
....................  
.................... #endif 
....................  
.................... #ifndef getc 
.................... #define getc getch 
.................... #define getchar getch 
.................... #define puts(s) {printf(s); putchar(13); putchar(10);} 
.................... #define putc putchar 
.................... #endif 
.................... /* maps error number to an error message. Writes a sequence of characters to 
.................... stderr stream thus: if s is not null then string pointed to by s follwed by 
.................... a colon (:) and a space and the appropriate error message returned by strerror 
.................... function with argument errno 
....................  
.................... Returns: no value 
.................... */ 
....................  
.................... #ifdef _ERRNO 
.................... void perror(char *s) 
.................... { 
....................   if(s) 
....................   fprintf(STDERR,"%s: ",s); 
....................   fprintf(STDERR,"%s\r\n",strerror(errno)); 
.................... } 
.................... #endif 
.................... #endif 
....................  
.................... #include <string.h> 
.................... //////////////////////////////////////////////////////////////////////////// 
.................... ////        (C) Copyright 1996,2008 Custom Computer Services            //// 
.................... //// This source code may only be used by licensed users of the CCS C   //// 
.................... //// compiler.  This source code may only be distributed to other       //// 
.................... //// licensed users of the CCS C compiler.  No other use, reproduction  //// 
.................... //// or distribution is permitted without written permission.           //// 
.................... //// Derivative programs created using this software in object code     //// 
.................... //// form are not restricted in any way.                                //// 
.................... //////////////////////////////////////////////////////////////////////////// 
....................  
.................... #ifndef _STRING 
.................... #define _STRING 
.................... #include <stddef.h> 
.................... #include <ctype.h> 
....................  
....................  
....................  
.................... ////////////////////////////////////////////// 
.................... //// Uncomment the following define to    //// 
.................... //// allow some functions to use a        //// 
.................... //// quicker algorithm, but use more ROM  //// 
.................... ////                                      //// 
.................... //// #define FASTER_BUT_MORE_ROM          //// 
.................... ////////////////////////////////////////////// 
....................  
....................  
....................  
.................... /*Copying functions*/ 
.................... /* standard template: 
....................    void *memmove(void *s1, void *s2, size_t n). 
....................    Copies max of n characters safely (not following ending '\0') 
....................    from s2 in s1; if s2 has less than n characters, appends 0 */ 
....................  
.................... char *memmove(void *s1,char *s2,size_t n) 
.................... { 
....................    char *sc1; 
....................    char *sc2; 
....................    sc1=s1; 
....................    sc2=s2; 
....................    if(sc2<sc1 && sc1 <sc2 +n) 
....................       for(sc1+=n,sc2+=n;0<n;--n) 
....................          *--sc1=*--sc2; 
....................    else 
....................       for(;0<n;--n) 
....................          *sc1++=*sc2++; 
....................   return s1; 
....................   } 
....................  
.................... /* Standard template: char *strcpy(char *s1, const char *s2) 
....................    copies the string s2 including the null character to s1. 
....................    This is a compiler built in to handle the different address 
....................    spaces */ 
....................  
.................... #define strcopy strcpy 
....................  
.................... /* standard template: 
....................    char *strncpy(char *s1, const char *s2, size_t n). 
....................    Copies max of n characters (not following ending '\0') 
....................    from s2 in s1; if s2 has less than n characters, appends 0 */ 
....................  
.................... char *strncpy(char *s1, char *s2, size_t n) 
.................... { 
....................   char *s; 
....................  
....................   for (s = s1; n > 0 && *s2 != '\0'; n--) 
....................      *s++ = *s2++; 
....................   for (; n > 0; n--) 
....................      *s++ = '\0'; 
....................  
....................   return(s1); 
.................... } 
.................... /***********************************************************/ 
....................  
.................... /*concatenation functions*/ 
.................... /* standard template: char *strcat(char *s1, const char *s2) 
.................... appends s2 to s1*/ 
....................  
.................... char *strcat(char *s1, char *s2) 
.................... { 
....................    char *s; 
....................  
....................    for (s = s1; *s != '\0'; ++s); 
....................    while(*s2 != '\0') 
....................    { 
....................       *s = *s2; 
....................       ++s; 
....................       ++s2; 
....................    } 
....................  
....................    *s = '\0'; 
....................    return(s1); 
.................... } 
.................... /* standard template: char *strncat(char *s1, char *s2,size_t n) 
.................... appends not more than n characters from s2 to s1*/ 
....................  
.................... char *strncat(char *s1, char *s2, size_t n) 
.................... { 
....................    char *s; 
....................  
....................    for (s = s1; *s != '\0'; ++s); 
....................    while(*s2 != '\0' && 0<n) 
....................    { 
....................       *s = *s2; 
....................       ++s; 
....................       ++s2; 
....................       --n; 
....................    } 
....................  
....................    *s = '\0'; 
....................    return(s1); 
.................... } 
....................  
.................... /***********************************************************/ 
....................  
....................  
.................... /*comparison functions*/ 
.................... /* standard template: signed int memcmp(void *s1, void *s2). 
....................    Compares s1 & s2; returns -1 if s1<s2, 0 if s1=s2, 1 if s1>s2 */ 
....................  
.................... signed int8 memcmp(void * s1,char *s2,size_t n) 
.................... { 
.................... char *su1, *su2; 
.................... for(su1=s1, su2=s2; 0<n; ++su1, ++su2, --n) 
.................... { 
....................    if(*su1!=*su2) 
....................       return ((*su1<*su2)?-1:+1); 
.................... } 
.................... return 0; 
.................... } 
....................  
.................... /* standard template: int strcmp(const char *s1, const char *s2). 
....................    Compares s1 & s2; returns -1 if s1<s2, 0 if s1=s2, 1 if s1>s2 */ 
....................  
.................... signed int8 strcmp(char *s1, char *s2) 
.................... { 
....................    for (; *s1 == *s2; s1++, s2++) 
....................       if (*s1 == '\0') 
....................          return(0); 
....................    return((*s1 < *s2) ? -1: 1); 
.................... } 
.................... /* standard template: int strcoll(const char *s1, const char *s2). 
....................    Compares s1 & s2; returns -1 if s1<s2, 0 if s1=s2, 1 if s1>s2 */ 
....................  
.................... signed int8 strcoll(char *s1, char *s2) 
.................... { 
....................    for (; *s1 == *s2; s1++, s2++) 
....................       if (*s1 == '\0') 
....................          return(0); 
....................    return((*s1 < *s2) ? -1: 1); 
.................... } 
....................  
.................... /* standard template: 
....................    int strncmp(const char *s1, const char *s2, size_t n). 
....................    Compares max of n characters (not following 0) from s1 to s2; 
....................    returns same as strcmp */ 
....................  
.................... signed int8 strncmp(char *s1, char *s2, size_t n) 
.................... { 
....................    for (; n > 0; s1++, s2++, n--) 
....................       if (*s1 != *s2) 
....................          return((*s1 <*s2) ? -1: 1); 
....................       else if (*s1 == '\0') 
....................          return(0); 
....................    return(0); 
.................... } 
.................... /* standard template: 
....................    int strxfrm(const char *s1, const char *s2, size_t n). 
....................    transforms maximum of n characters from s2 and places them into s1*/ 
.................... size_t strxfrm(char *s1, char *s2, size_t n) 
.................... { 
....................   char *s; 
....................   unsigned int8 n1; 
....................   n1=n; 
....................   for (s = s1; n > 0 && *s2 != '\0'; n--) 
....................      *s++ = *s2++; 
....................   for (; n > 0; n--) 
....................      *s++ = '\0'; 
....................  
....................   return(n1); 
.................... } 
....................  
....................  
....................  
....................  
....................  
.................... /***********************************************************/ 
.................... /*Search functions*/ 
.................... /* standard template: void *memchr(const char *s, int c). 
....................    Finds first occurrence of c in n characters of s */ 
....................  
.................... char *memchr(void *s,unsigned int8 c,size_t n) 
.................... { 
....................    char uc; 
....................    char *su; 
....................    uc=c; 
....................    for(su=s;0<n;++su,--n) 
....................       if(*su==uc) 
....................       return su; 
....................    return NULL; 
.................... } 
....................  
.................... /* standard template: char *strchr(const char *s, int c). 
....................    Finds first occurrence of c in s */ 
....................  
.................... char *strchr(char *s, unsigned int8 c) 
.................... { 
....................    for (; *s != c; s++) 
....................       if (*s == '\0') 
....................          return(0); 
....................    return(s); 
.................... } 
.................... /* standard template: 
....................    size_t strcspn(const char *s1, const char *s2). 
....................    Computes length of max initial segment of s1 that 
....................    consists entirely of characters NOT from s2*/ 
....................  
.................... unsigned int8  strcspn(char *s1, char *s2) 
.................... { 
....................    char *sc1, *sc2; 
....................  
....................    for (sc1 = s1; *sc1 != 0; sc1++) 
....................       for (sc2 = s2; *sc2 != 0; sc2++) 
....................          if (*sc1 == *sc2) 
....................             return(sc1 - s1); 
....................    return(sc1 - s1); 
.................... } 
.................... /* standard template: 
....................    char *strpbrk(const char *s1, const char *s2). 
....................    Locates first occurence of any character from s2 in s1; 
....................    returns s1 if s2 is empty string */ 
....................  
.................... char *strpbrk(char *s1, char *s2) 
.................... { 
....................    char *sc1, *sc2; 
....................  
....................    for (sc1 = s1; *sc1 != 0; sc1++) 
....................       for (sc2 = s2; *sc2 != 0; sc2++) 
....................          if (*sc1 == *sc2) 
....................             return(sc1); 
....................    return(0); 
.................... } 
....................  
....................  
.................... /* standard template: char *strrchr(const char *s, int c). 
....................    Finds last occurrence of c in s */ 
....................  
.................... char *strrchr(char *s, unsigned int8 c) 
.................... { 
....................    char *p; 
....................  
....................    for (p = 0; ; s++) 
....................    { 
....................       if (*s == c) 
....................          p = s; 
....................       if (*s == '\0') 
....................          return(p); 
....................    } 
.................... } 
.................... /* computes length of max initial segment of s1 consisting 
....................    entirely of characters from s2 */ 
....................  
.................... unsigned int8  strspn(char *s1, char *s2) 
.................... { 
....................    char *sc1, *sc2; 
....................  
....................    for (sc1 = s1; *sc1 != 0; sc1++) 
....................       for (sc2 = s2; ; sc2++) 
....................     if (*sc2 == '\0') 
....................        return(sc1 - s1); 
....................          else if (*sc1 == *sc2) 
....................             break; 
....................    return(sc1 - s1); 
.................... } 
.................... /* standard template: 
....................    char *strstr(const char *s1, const char *s2); 
....................    Locates first occurence of character sequence s2 in s1; 
....................    returns 0 if s2 is empty string 
....................  
....................    Uncomment #define FASTER_BUT_MORE_ROM at the top of the 
....................    file to use the faster algorithm */ 
.................... char *strstr(char *s1, char *s2) 
.................... { 
....................    char *s, *t; 
....................  
....................    #ifdef FASTER_BUT_MORE_ROM 
....................    if (*s2 == '\0') 
....................          return(s1); 
....................    #endif 
....................  
....................    while (*s1) 
....................    { 
....................       for(s = s1, t = s2; *t && (*s == *t); ++s, ++t); 
....................  
....................       if (*t == '\0') 
....................          return s1; 
....................       ++s1; 
....................       #ifdef FASTER_BUT_MORE_ROM 
....................          while(*s1 != '\0' && *s1 != *s2) 
....................             ++s1; 
....................       #endif 
....................    } 
....................    return 0; 
.................... } 
....................  
.................... /* standard template: char *strtok(char *s1, const char *s2). 
....................  
....................    Finds next token in s1 delimited by a character from separator 
....................    string s2 (which can be different from call to call).  First call 
....................    starts at beginning of s1 searching for first character NOT 
....................    contained in s2; returns 0 if none is found. 
....................    If one is found, it is the start of first token (return value). 
....................    Function then searches from there for a character contained in s2. 
....................    If none is found, current token extends to end of s1, and subsequent 
....................    searches for a token will return 0.  If one is found, it is 
....................    overwritten by '\0', which terminates current token.  Function saves 
....................    pointer to following character from which next search will start. 
....................    Each subsequent call, with 0 as first argument, starts searching 
....................    from saved pointer */ 
....................  
.................... char *strtok(char *s1, char *s2) 
.................... { 
....................    char *beg, *end; 
....................    static char *save; 
....................  
....................    beg = (s1)? s1: save; 
....................    beg += strspn(beg, s2); 
....................    if (*beg == '\0') 
....................    { 
....................       *save = ' '; 
....................       return(0); 
....................    } 
....................    end = strpbrk(beg, s2); 
....................    if (*end != '\0') 
....................    { 
....................       *end = '\0'; 
....................       end++; 
....................    } 
....................    save = end; 
....................    return(beg); 
.................... } 
....................  
.................... /*****************************************************************/ 
.................... /*Miscellaneous functions*/ 
.................... /* standard template 
.................... maps error number in errnum to an error message string 
.................... Returns: Pointer to string 
.................... */ 
.................... #ifdef _ERRNO 
.................... char * strerror(unsigned int8 errnum) 
.................... { 
.................... char s[15]; 
.................... switch( errnum) 
.................... { 
.................... case 0: 
....................    strcpy(s,"no errors"); 
....................    return s; 
.................... case EDOM : 
....................    strcpy(s,"domain error"); 
....................    return s; 
.................... case ERANGE: 
....................    strcpy(s,"range error"); 
....................    return s; 
.................... } 
.................... } 
.................... #ENDIF 
.................... /* standard template: size_t strlen(const char *s). 
....................    Computes length of s1 (preceding terminating 0) */ 
....................  
.................... unsigned int8 strlen(char *s) 
.................... { 
....................    char *sc; 
....................  
....................    for (sc = s; *sc != 0; sc++); 
....................    return(sc - s); 
.................... } 
....................  
.................... /* standard template: size_t stricmp(const char *s1, const char *s2). 
....................    Compares s1 to s2 ignoring case (upper vs. lower) */ 
....................  
.................... signed int8 stricmp(char *s1, char *s2) 
.................... { 
....................  for(; *s1==*s2||(isalpha(*s1)&&isalpha(*s2)&&(*s1==*s2+32||*s2==*s1+32)); 
....................     s1++, s2++) 
....................     if (*s1 == '\0') 
....................        return(0); 
....................  return((*s1 < *s2) ? -1: 1); 
.................... } 
....................  
....................  
.................... /* standard template: char *strlwr(char *s). 
....................    Replaces uppercase letters by lowercase; 
....................    returns pointer to new string s */ 
....................  
.................... char *strlwr(char *s) 
.................... { 
....................    char *p; 
....................  
....................    for (p = s; *p != '\0'; p++) 
....................       if (*p >= 'A' && *p <='Z') 
....................          *p += 'a' - 'A'; 
....................    return(s); 
.................... } 
....................  
....................  
.................... /************************************************************/ 
....................  
....................  
.................... #endif 
....................  
.................... #include <stdlib.h> 
.................... /////////////////////////////////////////////////////////////////////////// 
.................... ////        (C) Copyright 1996,2007 Custom Computer Services           //// 
.................... //// This source code may only be used by licensed users of the CCS C  //// 
.................... //// compiler.  This source code may only be distributed to other      //// 
.................... //// licensed users of the CCS C compiler.  No other use, reproduction //// 
.................... //// or distribution is permitted without written permission.          //// 
.................... //// Derivative programs created using this software in object code    //// 
.................... //// form are not restricted in any way.                               //// 
.................... /////////////////////////////////////////////////////////////////////////// 
....................  
.................... #ifndef _STDLIB 
.................... #define _STDLIB 
....................  
.................... //--------------------------------------------------------------------------- 
.................... // Definitions and types 
.................... //--------------------------------------------------------------------------- 
....................  
.................... #ifndef RAND_MAX 
.................... #define RAND_MAX  32767    // The value of which is the maximum value 
....................                            // ... returned by the rand function 
.................... #endif 
....................  
....................  
.................... #IF (sizeof(int16*)>1) 
.................... #DEFINE LONG_POINTERS 1 
.................... #ELSE  
.................... #DEFINE LONG_POINTERS 0 
.................... #ENDIF 
....................  
.................... typedef struct { 
....................    signed int quot; 
....................    signed int rem; 
.................... } div_t; 
....................  
.................... typedef struct { 
....................    signed long quot; 
....................    signed long rem; 
.................... } ldiv_t; 
....................  
.................... #include <stddef.h> 
.................... /////////////////////////////////////////////////////////////////////////// 
.................... ////        (C) Copyright 1996,2003 Custom Computer Services           //// 
.................... //// This source code may only be used by licensed users of the CCS C  //// 
.................... //// compiler.  This source code may only be distributed to other      //// 
.................... //// licensed users of the CCS C compiler.  No other use, reproduction //// 
.................... //// or distribution is permitted without written permission.          //// 
.................... //// Derivative programs created using this software in object code    //// 
.................... //// form are not restricted in any way.                               //// 
.................... /////////////////////////////////////////////////////////////////////////// 
....................  
.................... #ifndef _STDDEF 
....................  
.................... #define _STDDEF 
....................  
.................... #if sizeof(unsigned int8 *)==1 
.................... #define ptrdiff_t unsigned int8 
.................... #else 
.................... #define ptrdiff_t unsigned int16 
.................... #endif 
....................  
.................... #define size_t unsigned int8 
.................... #define wchar_t char 
.................... #define NULL 0 
....................  
.................... #define offsetof(s,f) (offsetofbit(s,f)/8) 
....................  
.................... #endif 
....................  
....................  
.................... //--------------------------------------------------------------------------- 
.................... // String conversion functions 
.................... //--------------------------------------------------------------------------- 
....................  
.................... /* Standard template: signed int  atoi(char * s) 
....................  * converts the initial portion of the string s to a signed int 
....................  * returns the converted value if any, 0 otherwise 
....................  */ 
.................... signed int atoi(char *s); 
....................  
.................... /* Syntax: signed int32  atoi32(char * s) 
....................    converts the initial portion of the string s to a signed int32 
....................    returns the converted value if any, 0 otherwise*/ 
.................... #if (sizeof(long)==4) 
....................  #define atoi32(s) atol(s) 
.................... #else  
....................  signed int32 atoi32(char *s); 
.................... #endif 
....................  
.................... #if defined(__PCD__) 
.................... // The following functions only work on the 24 bit compiler 
.................... // for the 30F, 33F, 24F and 24H parts 
.................... /* Syntax: signed int48  atoi48(char * s) 
....................    converts the initial portion of the string s to a signed int48 
....................    returns the converted value if any, 0 otherwise*/ 
....................     
.................... signed int48 atoi48(char *s); 
....................  
.................... /* Syntax: signed int64  atoi64(char * s) 
....................    converts the initial portion of the string s to a signed int64 
....................    returns the converted value if any, 0 otherwise*/ 
.................... signed int64 atoi64(char *s); 
.................... #endif 
....................  
.................... /* Syntax: char *  itoa(signed int32 num, int8 base, char * s) 
....................    converts the signed int32 to a string and 
....................    returns the converted value if any, 0 otherwise*/ 
.................... char * itoa(signed int32 num, unsigned int base, char * s); 
....................  
.................... /* Standard template: signed int16  atol(char * s) 
....................  * converts the initial portion of the string s to a signed int16 
....................  * returns the converted value if any, 0 otherwise 
....................  */ 
.................... signed long atol(char *s); 
....................  
.................... /* Standard template: int16 strtoul(char * s,char *endptr,signed int base) 
....................  * converts the initial portion of the string s, represented as an 
....................  * integral value of radix base  to a signed long. 
....................  * Returns the converted value if any, 0 otherwise 
....................  * the final string is returned in the endptr, if endptr is not null 
....................  */ 
.................... signed long strtol(char *s,char *endptr, signed int base); 
....................  
.................... /* Standard template: int16 strtoul(char * s,char *endptr,signed int base) 
....................  * converts the initial portion of the string s, represented as an 
....................  * integral value of radix base to a unsigned long. 
....................  * returns the converted value if any, 0 otherwise 
....................  * the final string is returned in the endptr, if endptr is not null 
....................  */ 
.................... unsigned long strtoul(char *s,char *endptr, signed int base); 
....................  
.................... /* Standart template: float strtof(char * s,char *endptr) 
....................                       float48 strtof48(char *s,char *endptr); 
....................                       float64 strtod(char *s,char *endptr); 
....................  * converts the initial portion of the string s to a float32, float48 or float64, 
....................  * returns the converted value if any, 0 otherwise 
....................  * the final string is returned in the endptr, if endptr is not null                    
.................... */ 
.................... float strtof(char *s,char *endptr); 
.................... #if defined(__PCD__) 
.................... float48 strtof48(char *s,char *endptr); 
.................... float64 strtod(char *s,char *endptr); 
.................... #else 
.................... //provided for compatibility 
.................... #define strtof48(s, e) strtof(s, e) 
.................... #define strtod(s, e) strtof(s, e) 
.................... #endif 
....................  
.................... /* Standard template: float32 atof(char * s) 
....................  * converts the initial portion of the string s to a float. 
....................  * returns the converted value if any, 0 otherwise 
....................  */ 
.................... #define atof(s)   strtof(s, 0) 
....................  
.................... #if defined(__PCD__) 
.................... // The following functions only work on the 24 bit compiler 
.................... // for the 30F, 33F, 24F and 24H parts 
....................  
.................... /* Standard template: float48 atof48(char * s) 
....................  * converts the initial portion of the string s to a float. 
....................  * returns the converted value if any, 0 otherwise 
....................  */ 
.................... #define atof48(s) strtof48(s, 0) 
....................  
.................... /* Standard template: float64 atof64(char * s) 
....................  * converts the initial portion of the string s to a float. 
....................  * returns the converted value if any, 0 otherwise 
....................  */ 
.................... #define atof64(s) strtod(s, 0) 
.................... #endif 
....................  
.................... /* Standard template: float32 atoe(char * s) 
....................  * converts the initial portion of the string s to a float. 
....................  * returns the converted value if any, 0 otherwise 
....................  * also handles E format numbers 
....................  */ 
.................... #if !defined(__PCD__) 
.................... float atoe(char * s); 
.................... #endif 
....................  
.................... #if defined(__PCD__) 
.................... float32 atoe(char * s); 
.................... #endif 
....................  
.................... //--------------------------------------------------------------------------- 
.................... // Pseudo-random sequence generation functions 
.................... //--------------------------------------------------------------------------- 
....................  
.................... /* The rand function computes a sequence of pseudo-random integers in 
....................  * the range 0 to RAND_MAX 
....................  * 
....................  * Parameters: 
....................  *       (none) 
....................  * 
....................  * Returns: 
....................  *       The pseudo-random integer 
....................  */ 
.................... unsigned int16 rand(void); 
....................  
.................... /* The srand function uses the argument as a seed for a new sequence of 
....................  * pseudo-random numbers to be returned by subsequent calls to rand. 
....................  * 
....................  * Parameters: 
....................  *       [in] seed: The seed value to start from. You might need to pass 
....................  * 
....................  * Returns: 
....................  *       (none) 
....................  * 
....................  * Remarks 
....................  *          The srand function sets the starting point for generating 
....................  *       a series of pseudorandom integers. To reinitialize the 
....................  *       generator, use 1 as the seed argument. Any other value for 
....................  *       seed sets the generator to a random starting point. rand 
....................  *       retrieves the pseudorandom numbers that are generated. 
....................  *       Calling rand before any call to srand generates the same 
....................  *       sequence as calling srand with seed passed as 1. 
....................  *          Usually, you need to pass a time here from outer source 
....................  *       so that the numbers will be different every time you run. 
....................  */ 
.................... void srand(unsigned int32 seed); 
....................  
.................... //--------------------------------------------------------------------------- 
.................... // Memory management functions 
.................... //--------------------------------------------------------------------------- 
....................  
.................... // Comming soon 
....................  
.................... //--------------------------------------------------------------------------- 
.................... // Communication with the environment 
.................... //--------------------------------------------------------------------------- 
....................  
.................... /* The function returns 0 always 
....................  */ 
.................... signed int8 system(char *string); 
....................  
.................... //--------------------------------------------------------------------------- 
.................... // Searching and sorting utilities 
.................... //--------------------------------------------------------------------------- 
....................  
.................... /* Performs a binary search of a sorted array.. 
....................  * 
....................  * Parameters: 
....................  *       [in] key: Object to search for 
....................  *       [in] base: Pointer to base of search data 
....................  *       [in] num: Number of elements 
....................  *       [in] width: Width of elements 
....................  *       [in] compare: Function that compares two elements 
....................  * 
....................  * Returns: 
....................  *       bsearch returns a pointer to an occurrence of key in the array pointed 
....................  *       to by base. If key is not found, the function returns NULL. If the 
....................  *       array is not in order or contains duplicate records with identical keys, 
....................  *       the result is unpredictable. 
....................  */ 
.................... //void *bsearch(const void *key, const void *base, size_t num, size_t width, 
.................... //              int (*compare)(const void *, const void *)); 
....................  
.................... /* Performs the shell-metzner sort (not the quick sort algorithm). The contents 
....................  * of the array are sorted into ascending order according to a comparison 
....................  * function pointed to by compar. 
....................  * 
....................  * Parameters: 
....................  *       [in] base: Pointer to base of search data 
....................  *       [in] num: Number of elements 
....................  *       [in] width: Width of elements 
....................  *       [in] compare: Function that compares two elements 
....................  * 
....................  * Returns: 
....................  *       (none) 
....................  */ 
.................... //void *qsort(const void *base, size_t num, size_t width, 
.................... //              int (*compare)(const void *, const void *)); 
....................  
.................... //--------------------------------------------------------------------------- 
.................... // Integer arithmetic functions 
.................... //--------------------------------------------------------------------------- 
....................  
.................... #define labs abs 
....................  
.................... div_t div(signed int numer, signed int denom); 
.................... ldiv_t ldiv(signed long numer, signed long denom); 
....................  
.................... //--------------------------------------------------------------------------- 
.................... // Multibyte character functions 
.................... //--------------------------------------------------------------------------- 
....................  
.................... // Not supported 
....................  
.................... //--------------------------------------------------------------------------- 
.................... // Multibyte string functions 
.................... //--------------------------------------------------------------------------- 
....................  
.................... // Not supported 
....................  
....................  
.................... //--------------------------------------------------------------------------- 
.................... // Internal implementation 
.................... //--------------------------------------------------------------------------- 
....................  
.................... #include <stddef.h> 
.................... /////////////////////////////////////////////////////////////////////////// 
.................... ////        (C) Copyright 1996,2003 Custom Computer Services           //// 
.................... //// This source code may only be used by licensed users of the CCS C  //// 
.................... //// compiler.  This source code may only be distributed to other      //// 
.................... //// licensed users of the CCS C compiler.  No other use, reproduction //// 
.................... //// or distribution is permitted without written permission.          //// 
.................... //// Derivative programs created using this software in object code    //// 
.................... //// form are not restricted in any way.                               //// 
.................... /////////////////////////////////////////////////////////////////////////// 
....................  
.................... #ifndef _STDDEF 
....................  
.................... #define _STDDEF 
....................  
.................... #if sizeof(unsigned int8 *)==1 
.................... #define ptrdiff_t unsigned int8 
.................... #else 
.................... #define ptrdiff_t unsigned int16 
.................... #endif 
....................  
.................... #define size_t unsigned int8 
.................... #define wchar_t char 
.................... #define NULL 0 
....................  
.................... #define offsetof(s,f) (offsetofbit(s,f)/8) 
....................  
.................... #endif 
....................  
.................... #include <string.h> 
.................... //////////////////////////////////////////////////////////////////////////// 
.................... ////        (C) Copyright 1996,2008 Custom Computer Services            //// 
.................... //// This source code may only be used by licensed users of the CCS C   //// 
.................... //// compiler.  This source code may only be distributed to other       //// 
.................... //// licensed users of the CCS C compiler.  No other use, reproduction  //// 
.................... //// or distribution is permitted without written permission.           //// 
.................... //// Derivative programs created using this software in object code     //// 
.................... //// form are not restricted in any way.                                //// 
.................... //////////////////////////////////////////////////////////////////////////// 
....................  
.................... #ifndef _STRING 
.................... #define _STRING 
.................... #include <stddef.h> 
.................... #include <ctype.h> 
....................  
....................  
....................  
.................... ////////////////////////////////////////////// 
.................... //// Uncomment the following define to    //// 
.................... //// allow some functions to use a        //// 
.................... //// quicker algorithm, but use more ROM  //// 
.................... ////                                      //// 
.................... //// #define FASTER_BUT_MORE_ROM          //// 
.................... ////////////////////////////////////////////// 
....................  
....................  
....................  
.................... /*Copying functions*/ 
.................... /* standard template: 
....................    void *memmove(void *s1, void *s2, size_t n). 
....................    Copies max of n characters safely (not following ending '\0') 
....................    from s2 in s1; if s2 has less than n characters, appends 0 */ 
....................  
.................... char *memmove(void *s1,char *s2,size_t n) 
.................... { 
....................    char *sc1; 
....................    char *sc2; 
....................    sc1=s1; 
....................    sc2=s2; 
....................    if(sc2<sc1 && sc1 <sc2 +n) 
....................       for(sc1+=n,sc2+=n;0<n;--n) 
....................          *--sc1=*--sc2; 
....................    else 
....................       for(;0<n;--n) 
....................          *sc1++=*sc2++; 
....................   return s1; 
....................   } 
....................  
.................... /* Standard template: char *strcpy(char *s1, const char *s2) 
....................    copies the string s2 including the null character to s1. 
....................    This is a compiler built in to handle the different address 
....................    spaces */ 
....................  
.................... #define strcopy strcpy 
....................  
.................... /* standard template: 
....................    char *strncpy(char *s1, const char *s2, size_t n). 
....................    Copies max of n characters (not following ending '\0') 
....................    from s2 in s1; if s2 has less than n characters, appends 0 */ 
....................  
.................... char *strncpy(char *s1, char *s2, size_t n) 
.................... { 
....................   char *s; 
....................  
....................   for (s = s1; n > 0 && *s2 != '\0'; n--) 
....................      *s++ = *s2++; 
....................   for (; n > 0; n--) 
....................      *s++ = '\0'; 
....................  
....................   return(s1); 
.................... } 
.................... /***********************************************************/ 
....................  
.................... /*concatenation functions*/ 
.................... /* standard template: char *strcat(char *s1, const char *s2) 
.................... appends s2 to s1*/ 
....................  
.................... char *strcat(char *s1, char *s2) 
.................... { 
....................    char *s; 
....................  
....................    for (s = s1; *s != '\0'; ++s); 
....................    while(*s2 != '\0') 
....................    { 
....................       *s = *s2; 
....................       ++s; 
....................       ++s2; 
....................    } 
....................  
....................    *s = '\0'; 
....................    return(s1); 
.................... } 
.................... /* standard template: char *strncat(char *s1, char *s2,size_t n) 
.................... appends not more than n characters from s2 to s1*/ 
....................  
.................... char *strncat(char *s1, char *s2, size_t n) 
.................... { 
....................    char *s; 
....................  
....................    for (s = s1; *s != '\0'; ++s); 
....................    while(*s2 != '\0' && 0<n) 
....................    { 
....................       *s = *s2; 
....................       ++s; 
....................       ++s2; 
....................       --n; 
....................    } 
....................  
....................    *s = '\0'; 
....................    return(s1); 
.................... } 
....................  
.................... /***********************************************************/ 
....................  
....................  
.................... /*comparison functions*/ 
.................... /* standard template: signed int memcmp(void *s1, void *s2). 
....................    Compares s1 & s2; returns -1 if s1<s2, 0 if s1=s2, 1 if s1>s2 */ 
....................  
.................... signed int8 memcmp(void * s1,char *s2,size_t n) 
.................... { 
.................... char *su1, *su2; 
.................... for(su1=s1, su2=s2; 0<n; ++su1, ++su2, --n) 
.................... { 
....................    if(*su1!=*su2) 
....................       return ((*su1<*su2)?-1:+1); 
.................... } 
.................... return 0; 
.................... } 
....................  
.................... /* standard template: int strcmp(const char *s1, const char *s2). 
....................    Compares s1 & s2; returns -1 if s1<s2, 0 if s1=s2, 1 if s1>s2 */ 
....................  
.................... signed int8 strcmp(char *s1, char *s2) 
.................... { 
....................    for (; *s1 == *s2; s1++, s2++) 
....................       if (*s1 == '\0') 
....................          return(0); 
....................    return((*s1 < *s2) ? -1: 1); 
.................... } 
.................... /* standard template: int strcoll(const char *s1, const char *s2). 
....................    Compares s1 & s2; returns -1 if s1<s2, 0 if s1=s2, 1 if s1>s2 */ 
....................  
.................... signed int8 strcoll(char *s1, char *s2) 
.................... { 
....................    for (; *s1 == *s2; s1++, s2++) 
....................       if (*s1 == '\0') 
....................          return(0); 
....................    return((*s1 < *s2) ? -1: 1); 
.................... } 
....................  
.................... /* standard template: 
....................    int strncmp(const char *s1, const char *s2, size_t n). 
....................    Compares max of n characters (not following 0) from s1 to s2; 
....................    returns same as strcmp */ 
....................  
.................... signed int8 strncmp(char *s1, char *s2, size_t n) 
.................... { 
....................    for (; n > 0; s1++, s2++, n--) 
....................       if (*s1 != *s2) 
....................          return((*s1 <*s2) ? -1: 1); 
....................       else if (*s1 == '\0') 
....................          return(0); 
....................    return(0); 
.................... } 
.................... /* standard template: 
....................    int strxfrm(const char *s1, const char *s2, size_t n). 
....................    transforms maximum of n characters from s2 and places them into s1*/ 
.................... size_t strxfrm(char *s1, char *s2, size_t n) 
.................... { 
....................   char *s; 
....................   unsigned int8 n1; 
....................   n1=n; 
....................   for (s = s1; n > 0 && *s2 != '\0'; n--) 
....................      *s++ = *s2++; 
....................   for (; n > 0; n--) 
....................      *s++ = '\0'; 
....................  
....................   return(n1); 
.................... } 
....................  
....................  
....................  
....................  
....................  
.................... /***********************************************************/ 
.................... /*Search functions*/ 
.................... /* standard template: void *memchr(const char *s, int c). 
....................    Finds first occurrence of c in n characters of s */ 
....................  
.................... char *memchr(void *s,unsigned int8 c,size_t n) 
.................... { 
....................    char uc; 
....................    char *su; 
....................    uc=c; 
....................    for(su=s;0<n;++su,--n) 
....................       if(*su==uc) 
....................       return su; 
....................    return NULL; 
.................... } 
....................  
.................... /* standard template: char *strchr(const char *s, int c). 
....................    Finds first occurrence of c in s */ 
....................  
.................... char *strchr(char *s, unsigned int8 c) 
.................... { 
....................    for (; *s != c; s++) 
....................       if (*s == '\0') 
....................          return(0); 
....................    return(s); 
.................... } 
.................... /* standard template: 
....................    size_t strcspn(const char *s1, const char *s2). 
....................    Computes length of max initial segment of s1 that 
....................    consists entirely of characters NOT from s2*/ 
....................  
.................... unsigned int8  strcspn(char *s1, char *s2) 
.................... { 
....................    char *sc1, *sc2; 
....................  
....................    for (sc1 = s1; *sc1 != 0; sc1++) 
....................       for (sc2 = s2; *sc2 != 0; sc2++) 
....................          if (*sc1 == *sc2) 
....................             return(sc1 - s1); 
....................    return(sc1 - s1); 
.................... } 
.................... /* standard template: 
....................    char *strpbrk(const char *s1, const char *s2). 
....................    Locates first occurence of any character from s2 in s1; 
....................    returns s1 if s2 is empty string */ 
....................  
.................... char *strpbrk(char *s1, char *s2) 
.................... { 
....................    char *sc1, *sc2; 
....................  
....................    for (sc1 = s1; *sc1 != 0; sc1++) 
....................       for (sc2 = s2; *sc2 != 0; sc2++) 
....................          if (*sc1 == *sc2) 
....................             return(sc1); 
....................    return(0); 
.................... } 
....................  
....................  
.................... /* standard template: char *strrchr(const char *s, int c). 
....................    Finds last occurrence of c in s */ 
....................  
.................... char *strrchr(char *s, unsigned int8 c) 
.................... { 
....................    char *p; 
....................  
....................    for (p = 0; ; s++) 
....................    { 
....................       if (*s == c) 
....................          p = s; 
....................       if (*s == '\0') 
....................          return(p); 
....................    } 
.................... } 
.................... /* computes length of max initial segment of s1 consisting 
....................    entirely of characters from s2 */ 
....................  
.................... unsigned int8  strspn(char *s1, char *s2) 
.................... { 
....................    char *sc1, *sc2; 
....................  
....................    for (sc1 = s1; *sc1 != 0; sc1++) 
....................       for (sc2 = s2; ; sc2++) 
....................     if (*sc2 == '\0') 
....................        return(sc1 - s1); 
....................          else if (*sc1 == *sc2) 
....................             break; 
....................    return(sc1 - s1); 
.................... } 
.................... /* standard template: 
....................    char *strstr(const char *s1, const char *s2); 
....................    Locates first occurence of character sequence s2 in s1; 
....................    returns 0 if s2 is empty string 
....................  
....................    Uncomment #define FASTER_BUT_MORE_ROM at the top of the 
....................    file to use the faster algorithm */ 
.................... char *strstr(char *s1, char *s2) 
.................... { 
....................    char *s, *t; 
....................  
....................    #ifdef FASTER_BUT_MORE_ROM 
....................    if (*s2 == '\0') 
....................          return(s1); 
....................    #endif 
....................  
....................    while (*s1) 
....................    { 
....................       for(s = s1, t = s2; *t && (*s == *t); ++s, ++t); 
....................  
....................       if (*t == '\0') 
....................          return s1; 
....................       ++s1; 
....................       #ifdef FASTER_BUT_MORE_ROM 
....................          while(*s1 != '\0' && *s1 != *s2) 
....................             ++s1; 
....................       #endif 
....................    } 
....................    return 0; 
.................... } 
....................  
.................... /* standard template: char *strtok(char *s1, const char *s2). 
....................  
....................    Finds next token in s1 delimited by a character from separator 
....................    string s2 (which can be different from call to call).  First call 
....................    starts at beginning of s1 searching for first character NOT 
....................    contained in s2; returns 0 if none is found. 
....................    If one is found, it is the start of first token (return value). 
....................    Function then searches from there for a character contained in s2. 
....................    If none is found, current token extends to end of s1, and subsequent 
....................    searches for a token will return 0.  If one is found, it is 
....................    overwritten by '\0', which terminates current token.  Function saves 
....................    pointer to following character from which next search will start. 
....................    Each subsequent call, with 0 as first argument, starts searching 
....................    from saved pointer */ 
....................  
.................... char *strtok(char *s1, char *s2) 
.................... { 
....................    char *beg, *end; 
....................    static char *save; 
....................  
....................    beg = (s1)? s1: save; 
....................    beg += strspn(beg, s2); 
....................    if (*beg == '\0') 
....................    { 
....................       *save = ' '; 
....................       return(0); 
....................    } 
....................    end = strpbrk(beg, s2); 
....................    if (*end != '\0') 
....................    { 
....................       *end = '\0'; 
....................       end++; 
....................    } 
....................    save = end; 
....................    return(beg); 
.................... } 
....................  
.................... /*****************************************************************/ 
.................... /*Miscellaneous functions*/ 
.................... /* standard template 
.................... maps error number in errnum to an error message string 
.................... Returns: Pointer to string 
.................... */ 
.................... #ifdef _ERRNO 
.................... char * strerror(unsigned int8 errnum) 
.................... { 
.................... char s[15]; 
.................... switch( errnum) 
.................... { 
.................... case 0: 
....................    strcpy(s,"no errors"); 
....................    return s; 
.................... case EDOM : 
....................    strcpy(s,"domain error"); 
....................    return s; 
.................... case ERANGE: 
....................    strcpy(s,"range error"); 
....................    return s; 
.................... } 
.................... } 
.................... #ENDIF 
.................... /* standard template: size_t strlen(const char *s). 
....................    Computes length of s1 (preceding terminating 0) */ 
....................  
.................... unsigned int8 strlen(char *s) 
.................... { 
....................    char *sc; 
....................  
....................    for (sc = s; *sc != 0; sc++); 
....................    return(sc - s); 
.................... } 
....................  
.................... /* standard template: size_t stricmp(const char *s1, const char *s2). 
....................    Compares s1 to s2 ignoring case (upper vs. lower) */ 
....................  
.................... signed int8 stricmp(char *s1, char *s2) 
.................... { 
....................  for(; *s1==*s2||(isalpha(*s1)&&isalpha(*s2)&&(*s1==*s2+32||*s2==*s1+32)); 
....................     s1++, s2++) 
....................     if (*s1 == '\0') 
....................        return(0); 
....................  return((*s1 < *s2) ? -1: 1); 
.................... } 
....................  
....................  
.................... /* standard template: char *strlwr(char *s). 
....................    Replaces uppercase letters by lowercase; 
....................    returns pointer to new string s */ 
....................  
.................... char *strlwr(char *s) 
.................... { 
....................    char *p; 
....................  
....................    for (p = s; *p != '\0'; p++) 
....................       if (*p >= 'A' && *p <='Z') 
....................          *p += 'a' - 'A'; 
....................    return(s); 
.................... } 
....................  
....................  
.................... /************************************************************/ 
....................  
....................  
.................... #endif 
....................  
....................  
.................... div_t div(signed int numer, signed int denom) 
.................... { 
....................    div_t val; 
....................    val.quot = numer / denom; 
....................    val.rem = numer - (denom * val.quot); 
....................    return (val); 
.................... } 
....................  
.................... ldiv_t ldiv(signed long numer, signed long denom) 
.................... { 
....................    ldiv_t val; 
....................  
....................    val.quot = numer / denom; 
....................    val.rem = numer - (denom * val.quot); 
....................    return (val); 
.................... } 
....................  
.................... #if defined(__PCD__) 
.................... float32 atoe(char * s) 
.................... { 
....................    float32 pow10 = 1.0; 
....................    float32 result = 0.0; 
....................    unsigned int8 sign = 0; 
....................    unsigned int8 expsign = 0; 
....................    char c; 
....................    unsigned int8 ptr = 0; 
....................    unsigned int8 i; 
....................    float32 exp = 1.0; 
....................    unsigned int8 expcnt = 0; 
....................  
....................    c = s[ptr++]; 
....................  
....................    if ((c>='0' && c<='9') || c=='+' || c=='-' || c=='.' || c=='E' || c=='e') { 
....................       if(c == '-') { 
....................          sign = 1; 
....................          c = s[ptr++]; 
....................       } 
....................       if(c == '+') 
....................          c = s[ptr++]; 
....................  
....................       while((c >= '0' && c <= '9')) { 
....................          result = 10*result + c - '0'; 
....................          c = s[ptr++]; 
....................       } 
....................  
....................       if (c == '.') { 
....................          c = s[ptr++]; 
....................          while((c >= '0' && c <= '9')) { 
....................              pow10 = pow10*10; 
....................              result += (c - '0')/pow10; 
....................              c = s[ptr++]; 
....................          } 
....................       } 
....................  
....................       // Handling the exponent 
....................       if (c=='e' || c=='E') { 
....................          c = s[ptr++]; 
....................  
....................          if(c == '-') { 
....................             expsign = 1; 
....................             c = s[ptr++]; 
....................          } 
....................          if(c == '+') 
....................             c = s[ptr++]; 
....................  
....................          while((c >= '0' && c <= '9')) { 
....................             expcnt = 10*expcnt + c - '0'; 
....................             c = s[ptr++]; 
....................          } 
....................  
....................          for(i=0;i<expcnt;i++) 
....................             exp*=10; 
....................  
....................          if(expsign==1) 
....................             result/=exp; 
....................          else 
....................             result*=exp; 
....................       } 
....................    } 
....................  
....................    if (sign == 1) 
....................       result = -1*result; 
....................    return(result); 
.................... } 
.................... #endif 
....................  
.................... #if !defined(__PCD__) 
.................... float atoe(char * s) 
.................... { 
....................    float pow10 = 1.0; 
....................    float result = 0.0; 
....................    unsigned int8 sign = 0; 
....................    unsigned int8 expsign = 0; 
....................    char c; 
....................    unsigned int8 ptr = 0; 
....................    unsigned int8 i; 
....................    float exp = 1.0; 
....................    unsigned int8 expcnt = 0; 
....................  
....................    c = s[ptr++]; 
....................  
....................    if ((c>='0' && c<='9') || c=='+' || c=='-' || c=='.' || c=='E' || c=='e') { 
....................       if(c == '-') { 
....................          sign = 1; 
....................          c = s[ptr++]; 
....................       } 
....................       if(c == '+') 
....................          c = s[ptr++]; 
....................  
....................       while((c >= '0' && c <= '9')) { 
....................          result = 10*result + c - '0'; 
....................          c = s[ptr++]; 
....................       } 
....................  
....................       if (c == '.') { 
....................          c = s[ptr++]; 
....................          while((c >= '0' && c <= '9')) { 
....................              pow10 = pow10*10; 
....................              result += (c - '0')/pow10; 
....................              c = s[ptr++]; 
....................          } 
....................       } 
....................  
....................       // Handling the exponent 
....................       if (c=='e' || c=='E') { 
....................          c = s[ptr++]; 
....................  
....................          if(c == '-') { 
....................             expsign = 1; 
....................             c = s[ptr++]; 
....................          } 
....................          if(c == '+') 
....................             c = s[ptr++]; 
....................  
....................          while((c >= '0' && c <= '9')) { 
....................             expcnt = 10*expcnt + c - '0'; 
....................             c = s[ptr++]; 
....................          } 
....................  
....................          for(i=0;i<expcnt;i++) 
....................             exp*=10; 
....................  
....................          if(expsign==1) 
....................             result/=exp; 
....................          else 
....................             result*=exp; 
....................       } 
....................    } 
....................  
....................    if (sign == 1) 
....................       result = -1*result; 
....................    return(result); 
.................... } 
.................... #endif 
....................  
.................... signed int atoi(char *s) 
.................... { 
....................    signed int result; 
....................    unsigned int sign, base, index; 
....................    char c; 
....................  
....................    index = 0; 
....................    sign = 0; 
....................    base = 10; 
....................    result = 0; 
....................  
....................    if (!s) 
....................       return 0; 
....................    // Omit all preceeding alpha characters 
....................    c = s[index++]; 
....................  
....................    // increase index if either positive or negative sign is detected 
....................    if (c == '-') 
....................    { 
....................       sign = 1;         // Set the sign to negative 
....................       c = s[index++]; 
....................    } 
....................    else if (c == '+') 
....................    { 
....................       c = s[index++]; 
....................    } 
....................  
....................    if (c >= '0' && c <= '9') 
....................    { 
....................  
....................       // Check for hexa number 
....................       if (c == '0' && (s[index] == 'x' || s[index] == 'X')) 
....................       { 
....................          base = 16; 
....................          index++; 
....................          c = s[index++]; 
....................       } 
....................  
....................       // The number is a decimal number 
....................       if (base == 10) 
....................       { 
....................          while (c >= '0' && c <= '9') 
....................          { 
....................             result = 10*result + (c - '0'); 
....................             c = s[index++]; 
....................          } 
....................       } 
....................       else if (base == 16)    // The number is a hexa number 
....................       { 
....................          c = toupper(c); 
....................          while ( (c >= '0' && c <= '9') || (c >= 'A' && c<='F')) 
....................          { 
....................             if (c >= '0' && c <= '9') 
....................                result = (result << 4) + (c - '0'); 
....................             else 
....................                result = (result << 4) + (c - 'A' + 10); 
....................  
....................             c = s[index++]; 
....................             c = toupper(c); 
....................          } 
....................       } 
....................    } 
....................  
....................    if (sign == 1 && base == 10) 
....................        result = -result; 
....................  
....................    return(result); 
.................... } 
....................  
.................... signed long atol(char *s) 
.................... { 
....................    signed long result; 
....................    unsigned int sign, base, index; 
....................    char c; 
....................  
....................    index = 0; 
....................    sign = 0; 
....................    base = 10; 
....................    result = 0; 
....................  
....................    if (!s) 
....................       return 0; 
....................    c = s[index++]; 
....................  
....................    // increase index if either positive or negative sign is detected 
....................    if (c == '-') 
....................    { 
....................       sign = 1;         // Set the sign to negative 
....................       c = s[index++]; 
....................    } 
....................    else if (c == '+') 
....................    { 
....................       c = s[index++]; 
....................    } 
....................  
....................    if (c >= '0' && c <= '9') 
....................    { 
....................       if (c == '0' && (s[index] == 'x' || s[index] == 'X')) 
....................       { 
....................          base = 16; 
....................          index++; 
....................          c = s[index++]; 
....................       } 
....................  
....................       // The number is a decimal number 
....................       if (base == 10) 
....................       { 
....................          while (c >= '0' && c <= '9') 
....................          { 
....................             result = 10*result + (c - '0'); 
....................             c = s[index++]; 
....................          } 
....................       } 
....................       else if (base == 16)    // The number is a hexa number 
....................       { 
....................          c = toupper(c); 
....................          while ( (c >= '0' && c <= '9') || (c >= 'A' && c <='F')) 
....................          { 
....................             if (c >= '0' && c <= '9') 
....................                result = (result << 4) + (c - '0'); 
....................             else 
....................                result = (result << 4) + (c - 'A' + 10); 
....................  
....................             c = s[index++];c = toupper(c); 
....................          } 
....................       } 
....................    } 
....................  
....................    if (base == 10 && sign == 1) 
....................       result = -result; 
....................  
....................    return(result); 
.................... } 
....................  
.................... /* A fast routine to multiply by 10 
....................  */ 
.................... signed int32 mult_with10(int32 num) 
.................... { 
....................    return ( (num << 1) + (num << 3) ); 
.................... } 
....................  
.................... #if sizeof(long)==2 
.................... signed int32 atoi32(char *s) 
.................... { 
....................    signed int32 result; 
....................    int8 sign, base, index; 
....................    char c; 
....................  
....................    index = 0; 
....................    sign = 0; 
....................    base = 10; 
....................    result = 0; 
....................  
....................    if (!s) 
....................       return 0; 
....................    c = s[index++]; 
....................  
....................    // increase index if either positive or negative sign is detected 
....................    if (c == '-') 
....................    { 
....................       sign = 1;         // Set the sign to negative 
....................       c = s[index++]; 
....................    } 
....................    else if (c == '+') 
....................    { 
....................       c = s[index++]; 
....................    } 
....................  
....................    if (c >= '0' && c <= '9') 
....................    { 
....................       if (c == '0' && (s[index] == 'x' || s[index] == 'X')) 
....................       { 
....................          base = 16; 
....................          index++; 
....................          c = s[index++]; 
....................       } 
....................  
....................       // The number is a decimal number 
....................       if (base == 10) 
....................       { 
....................          while (c >= '0' && c <= '9') { 
....................             result = (result << 1) + (result << 3);  // result *= 10; 
....................             result += (c - '0'); 
....................             c = s[index++]; 
....................          } 
....................       } 
....................       else if (base == 16)    // The number is a hexa number 
....................       { 
....................          c = toupper(c); 
....................          while ((c >= '0' && c <= '9') || (c >= 'A' && c <='F')) 
....................          { 
....................             if (c >= '0' && c <= '9') 
....................                result = (result << 4) + (c - '0'); 
....................             else 
....................                result = (result << 4) + (c - 'A' + 10); 
....................  
....................             c = s[index++];c = toupper(c); 
....................          } 
....................       } 
....................    } 
....................  
....................    if (base == 10 && sign == 1) 
....................       result = -result; 
....................  
....................    return(result); 
.................... } 
.................... #endif 
....................  
.................... #if defined(__PCD__) 
....................  
.................... signed int48 atoi48(char *s) 
.................... { 
....................    signed int48 result; 
....................    int8 sign, base, index; 
....................    char c; 
....................  
....................    index = 0; 
....................    sign = 0; 
....................    base = 10; 
....................    result = 0; 
....................  
....................    if (!s) 
....................       return 0; 
....................    c = s[index++]; 
....................  
....................    // increase index if either positive or negative sign is detected 
....................    if (c == '-') 
....................    { 
....................       sign = 1;         // Set the sign to negative 
....................       c = s[index++]; 
....................    } 
....................    else if (c == '+') 
....................    { 
....................       c = s[index++]; 
....................    } 
....................  
....................    if (c >= '0' && c <= '9') 
....................    { 
....................       if (c == '0' && (s[index] == 'x' || s[index] == 'X')) 
....................       { 
....................          base = 16; 
....................          index++; 
....................          c = s[index++]; 
....................       } 
....................  
....................       // The number is a decimal number 
....................       if (base == 10) 
....................       { 
....................          while (c >= '0' && c <= '9') { 
....................             result = (result << 1) + (result << 3);  // result *= 10; 
....................             result += (c - '0'); 
....................             c = s[index++]; 
....................          } 
....................       } 
....................       else if (base == 16)    // The number is a hexa number 
....................       { 
....................          c = toupper(c); 
....................          while ((c >= '0' && c <= '9') || (c >= 'A' && c <='F')) 
....................          { 
....................             if (c >= '0' && c <= '9') 
....................                result = (result << 4) + (c - '0'); 
....................             else 
....................                result = (result << 4) + (c - 'A' + 10); 
....................  
....................             c = s[index++];c = toupper(c); 
....................          } 
....................       } 
....................    } 
....................  
....................    if (base == 10 && sign == 1) 
....................       result = -result; 
....................  
....................    return(result); 
.................... } 
....................  
.................... signed int64 atoi64(char *s) 
.................... { 
....................    signed int64 result; 
....................    int8 sign, base, index; 
....................    char c; 
....................  
....................    index = 0; 
....................    sign = 0; 
....................    base = 10; 
....................    result = 0; 
....................  
....................    if (!s) 
....................       return 0; 
....................    c = s[index++]; 
....................  
....................    // increase index if either positive or negative sign is detected 
....................    if (c == '-') 
....................    { 
....................       sign = 1;         // Set the sign to negative 
....................       c = s[index++]; 
....................    } 
....................    else if (c == '+') 
....................    { 
....................       c = s[index++]; 
....................    } 
....................  
....................    if (c >= '0' && c <= '9') 
....................    { 
....................       if (c == '0' && (s[index] == 'x' || s[index] == 'X')) 
....................       { 
....................          base = 16; 
....................          index++; 
....................          c = s[index++]; 
....................       } 
....................  
....................       // The number is a decimal number 
....................       if (base == 10) 
....................       { 
....................          while (c >= '0' && c <= '9') { 
....................             result = (result << 1) + (result << 3);  // result *= 10; 
....................             result += (c - '0'); 
....................             c = s[index++]; 
....................          } 
....................       } 
....................       else if (base == 16)    // The number is a hexa number 
....................       { 
....................          c = toupper(c); 
....................          while ((c >= '0' && c <= '9') || (c >= 'A' && c <='F')) 
....................          { 
....................             if (c >= '0' && c <= '9') 
....................                result = (result << 4) + (c - '0'); 
....................             else 
....................                result = (result << 4) + (c - 'A' + 10); 
....................  
....................             c = s[index++];c = toupper(c); 
....................          } 
....................       } 
....................    } 
....................  
....................    if (base == 10 && sign == 1) 
....................       result = -result; 
....................  
....................    return(result); 
.................... } 
.................... #endif 
....................  
.................... char * itoa(signed int32 num, unsigned int base, char * s) 
.................... { 
....................      unsigned int32 temp=1; 
....................      unsigned int8 i,sign=0,cnt=0; 
....................      char c; 
....................  
....................      if(num<0) { 
....................          sign=1;        // Check for negative number 
....................          num*=-1; 
....................      } 
....................  
....................      while(temp>0) { 
....................          temp=(num/base); 
....................          s[cnt]=(num%base)+'0';    // Conversion 
....................  
....................          if(s[cnt]>0x39) 
....................             s[cnt]+=0x7; 
....................  
....................          cnt++; 
....................          num=temp; 
....................      } 
....................  
....................      if(sign==1) { 
....................          s[cnt]=0x2D;      // Negative sign 
....................          cnt++; 
....................      } 
....................  
....................      for(i = 0;i<(int8)(cnt/2);i++) { 
....................  
....................          c=s[i]; 
....................          s[i]=s[cnt-i-1];        // Reverse the number 
....................          s[cnt-i-1]=c; 
....................      } 
....................      s[cnt]='\0';     // End the string 
....................      return s; 
.................... } 
....................  
.................... float strtof(char *s, char *endptr) 
.................... { 
....................    float pow10 = 1.0; 
....................    float result = 0.0; 
....................    int1 skip = 1, sign = 0, point = 0; 
....................    char c; 
....................    unsigned int8 ptr = 0; 
....................  
....................    if (!s) 
....................       return 0; 
....................  
....................    for(c=s[ptr++]; c!=0; c=s[ptr++]) 
....................    { 
....................       if (skip && !isspace(c)) 
....................       { 
....................          skip = 0; 
....................          if (c == '+') 
....................          { 
....................             sign = 0; 
....................             continue; 
....................          }             
....................          else if (c == '-') 
....................          { 
....................             sign = 1; 
....................             continue; 
....................          } 
....................       } 
....................       if (!skip && (c == '.') && !point) 
....................          point = 1; 
....................       else if (!skip && isdigit(c)) 
....................       { 
....................          c -= '0'; 
....................          if (point) 
....................          { 
....................             pow10 = pow10 * 10.0; 
....................             result += (float)c / pow10;    
....................          } 
....................          else 
....................          { 
....................             result = 10.0 * result + (float)c; 
....................          } 
....................       } 
....................       else if (!skip) 
....................          break; 
....................    } 
....................  
....................    if (sign) 
....................       result = -1*result; 
....................        
....................    if(endptr) 
....................    { 
....................       if (ptr) { 
....................          ptr--; 
....................        #IF LONG_POINTERS  
....................          *((long *)endptr)= s+ptr;  
....................        #ELSE 
....................          *((char *)endptr)=s+ptr; 
....................        #ENDIF 
....................       } 
....................       else 
....................       { 
....................       #IF LONG_POINTERS 
....................       *((long *)endptr)= s;  
....................       #ELSE 
....................       *((char *)endptr)=s; 
....................       #ENDIF 
....................       } 
....................    } 
....................  
....................    return(result); 
.................... } 
....................  
.................... #if defined(__PCD__) 
.................... float48 strtof48(char *s, char *endptr) 
.................... { 
....................    float48 pow10 = 1.0; 
....................    float48 result = 0.0; 
....................    int1 skip = 1, sign = 0, point = 0; 
....................    char c; 
....................    unsigned int8 ptr = 0; 
....................  
....................    if (!s) 
....................       return 0; 
....................  
....................    for(c=s[ptr++]; c!=0; c=s[ptr++]) 
....................    { 
....................       if (skip && !isspace(c)) 
....................       { 
....................          skip = 0; 
....................          if (c == '+') 
....................          { 
....................             sign = 0; 
....................             continue; 
....................          }             
....................          else if (c == '-') 
....................          { 
....................             sign = 1; 
....................             continue; 
....................          } 
....................       } 
....................       if (!skip && (c == '.') && !point) 
....................          point = 1; 
....................       else if (!skip && isdigit(c)) 
....................       { 
....................          c -= '0'; 
....................          if (point) 
....................          { 
....................             pow10 = pow10 * 10.0; 
....................             result += (float48)c / pow10;    
....................          } 
....................          else 
....................          { 
....................             result = 10.0 * result + (float48)c; 
....................          } 
....................       } 
....................       else if (!skip) 
....................          break; 
....................    } 
....................  
....................    if (sign) 
....................       result = -1*result; 
....................        
....................    if(endptr) 
....................    { 
....................       if (ptr) { 
....................          ptr--; 
....................        #IF LONG_POINTERS  
....................          *((long *)endptr)= s+ptr;  
....................        #ELSE 
....................          *((char *)endptr)=s+ptr; 
....................        #ENDIF 
....................       } 
....................       else 
....................       { 
....................       #IF LONG_POINTERS 
....................       *((long *)endptr)= s;  
....................       #ELSE 
....................       *((char *)endptr)=s; 
....................       #ENDIF 
....................       } 
....................    } 
....................  
....................    return(result); 
.................... } 
....................  
.................... float64 strtod(char *s, char *endptr) 
.................... { 
....................    float64 pow10 = 1.0; 
....................    float64 result = 0.0; 
....................    int1 skip = 1, sign = 0, point = 0; 
....................    char c; 
....................    unsigned int8 ptr = 0; 
....................  
....................    if (!s) 
....................       return 0; 
....................  
....................    for(c=s[ptr++]; c!=0; c=s[ptr++]) 
....................    { 
....................       if (skip && !isspace(c)) 
....................       { 
....................          skip = 0; 
....................          if (c == '+') 
....................          { 
....................             sign = 0; 
....................             continue; 
....................          }             
....................          else if (c == '-') 
....................          { 
....................             sign = 1; 
....................             continue; 
....................          } 
....................       } 
....................       if (!skip && (c == '.') && !point) 
....................          point = 1; 
....................       else if (!skip && isdigit(c)) 
....................       { 
....................          c -= '0'; 
....................          if (point) 
....................          { 
....................             pow10 = pow10 * 10.0; 
....................             result += (float64)c / pow10;    
....................          } 
....................          else 
....................          { 
....................             result = 10.0 * result + (float64)c; 
....................          } 
....................       } 
....................       else if (!skip) 
....................          break; 
....................    } 
....................  
....................    if (sign) 
....................       result = -1*result; 
....................        
....................    if(endptr) 
....................    { 
....................       if (ptr) { 
....................          ptr--; 
....................        #IF LONG_POINTERS  
....................          *((long *)endptr)= s+ptr;  
....................        #ELSE 
....................          *((char *)endptr)=s+ptr; 
....................        #ENDIF 
....................       } 
....................       else 
....................       { 
....................       #IF LONG_POINTERS 
....................       *((long *)endptr)= s;  
....................       #ELSE 
....................       *((char *)endptr)=s; 
....................       #ENDIF 
....................       } 
....................    } 
....................  
....................    return(result); 
.................... } 
.................... #endif 
....................  
.................... unsigned long strtoul(char *s, char *endptr, signed int base) 
.................... { 
....................    char *sc,*s1,*sd; 
....................    unsigned long x=0; 
....................    char sign; 
....................    char digits[]="0123456789abcdefghijklmnopqstuvwxyz"; 
....................    for(sc=s;isspace(*sc);++sc); 
....................    sign=*sc=='-'||*sc=='+'?*sc++:'+'; 
....................    if(sign=='-' || base <0 || base ==1|| base >36) // invalid base 
....................    goto StrtoulGO; 
....................  
....................    else if (base) 
....................    { 
....................       if(base==16 && *sc =='0'&&(sc[1]=='x' || sc[1]=='X')) 
....................          sc+=2; 
....................       if(base==8 && *sc =='0') 
....................          sc+=1; 
....................       if(base==2 && *sc =='0'&&sc[1]=='b') 
....................          sc+=2; 
....................  
....................    } 
....................    else if(*sc!='0') // base is 0, find base 
....................       base=10; 
....................    else if (sc[1]=='x' || sc[1]=='X') 
....................       base =16,sc+=2; 
....................    else if(sc[1]=='b') 
....................       base=2,sc+=2; 
....................    else 
....................       base=8; 
....................    for (s1=sc;*sc=='0';++sc);// skip leading zeroes 
....................    sd=memchr(digits,tolower(*sc),base); 
....................    for(; sd!=0; ) 
....................    { 
....................       x=x*base+(int16)(sd-digits); 
....................       ++sc; 
....................       sd=memchr(digits,tolower(*sc),base); 
....................    } 
....................    if(s1==sc) 
....................    { 
....................    StrtoulGO: 
....................       if (endptr) 
....................       { 
....................          #IF LONG_POINTERS 
....................          *((long *)endptr)= s;  
....................          #ELSE 
....................          *((char *)endptr)=s; 
....................          #ENDIF 
....................          } 
....................    return 0; 
....................    } 
....................    if (endptr) 
....................    { 
....................          #IF LONG_POINTERS 
....................          *((long *)endptr)= sc;  
....................          #ELSE 
....................          *((char *)endptr)=sc;  
....................          #ENDIF 
....................    } 
....................    return x; 
.................... } 
....................  
....................  
.................... signed long strtol(char *s,char *endptr, signed int base) 
.................... { 
....................    char *sc,*s1,*sd; 
....................    signed long x=0; 
....................    char sign; 
....................    char digits[]="0123456789abcdefghijklmnopqstuvwxyz"; 
....................    for(sc=s;isspace(*sc);++sc); 
....................    sign=*sc=='-'||*sc=='+'?*sc++:'+'; 
....................    if (base <0 || base ==1|| base >36) // invalid base 
....................    goto StrtolGO; 
....................    else if (base) 
....................    { 
....................       if(base==16 && *sc =='0'&&(sc[1]=='x' || sc[1]=='X')) 
....................          sc+=2; 
....................       if(base==8 && *sc =='0') 
....................          sc+=1; 
....................       if(base==2 && *sc =='0'&&sc[1]=='b') 
....................          sc+=2; 
....................  
....................    } 
....................    else if(*sc!='0') // base is 0, find base 
....................       base=10; 
....................    else if (sc[1]=='x' || sc[1]=='X') 
....................       base =16,sc+=2; 
....................    else if(sc[1]=='b') 
....................       base=2,sc+=2; 
....................    else 
....................       base=8; 
....................    for (s1=sc;*sc=='0';++sc);// skip leading zeroes 
....................  
....................    sd=memchr(digits,tolower(*sc),base); 
....................    for(;sd!=0;) 
....................    { 
....................       x=x*base+(int16)(sd-digits); 
....................       ++sc; 
....................       sd=memchr(digits,tolower(*sc),base); 
....................    } 
....................    if(s1==sc) 
....................    { 
....................    StrtolGO: 
....................       if (endptr) 
....................       { 
....................          #IF LONG_POINTERS 
....................          *((long *)endptr)= s;  
....................          #ELSE 
....................          *((char *)endptr)=s; 
....................          #ENDIF 
....................       } 
....................    return 0; 
....................    } 
....................    if(sign=='-') 
....................       x  =-x; 
....................    if (endptr) 
....................    { 
....................         #IF LONG_POINTERS 
....................          *((long *)endptr)= sc;  
....................         #ELSE 
....................         *((char *)endptr)=sc; 
....................         #ENDIF 
....................    } 
....................    return x; 
.................... } 
....................  
.................... signed int8 system(char *string) 
.................... { 
....................    return 0; 
.................... } 
....................  
.................... int8 mblen(char *s,size_t n) 
.................... { 
....................    return strlen(s); 
.................... } 
....................  
.................... int8 mbtowc(wchar_t *pwc,char *s,size_t n) 
.................... { 
....................    *pwc=*s; 
....................    return 1; 
.................... } 
....................  
.................... int8 wctomb(char *s,wchar_t wchar) 
.................... { 
....................    *s=wchar; 
....................    return 1; 
.................... } 
....................  
.................... size_t mbstowcs(wchar_t *pwcs,char *s,size_t n) 
.................... { 
....................    strncpy(pwcs,s,n); 
....................    return strlen(pwcs); 
.................... } 
....................  
.................... size_t wcstombs(char *s,wchar_t *pwcs,size_t n) 
.................... { 
....................    strncpy(s,pwcs,n); 
....................    return strlen(s); 
.................... } 
....................  
.................... //--------------------------------------------------------------------------- 
.................... // The random number implementation 
.................... //--------------------------------------------------------------------------- 
....................  
.................... unsigned int32 _Randseed; 
....................  
.................... unsigned int16 rand(void) 
.................... { 
....................    _Randseed = _Randseed * 1103515245 + 12345; 
....................    return ((unsigned int16)(_Randseed >> 16) % RAND_MAX); 
.................... } 
....................  
.................... void srand(unsigned int32 seed) 
.................... { 
....................    _Randseed = seed; 
.................... } 
....................  
.................... //--------------------------------------------------------------------------- 
.................... // Searching and sorting utilities implementation 
.................... //--------------------------------------------------------------------------- 
....................  
.................... #if !defined(__PCD__) 
.................... typedef signed int8 (*_Cmpfun)(char * p1,char * p2);  
.................... #else  
.................... typedef signed int16 (*_Cmpfun)(char * p1,char * p2);  
.................... #endif 
....................  
....................  
....................  
.................... void qsort(char * qdata, unsigned int qitems, unsigned int qsize, _Cmpfun cmp) { 
....................    unsigned int m,j,i,l; 
....................    int1 done; 
....................    unsigned int8 t[16]; 
....................  
....................    m = qitems/2; 
....................    while( m > 0 ) { 
....................      for(j=0; j<(qitems-m); ++j) { 
....................         i = j; 
....................         do 
....................         { 
....................            done=1; 
....................            l = i+m; 
....................            if( (*cmp)(qdata+i*qsize, qdata+l*qsize) > 0 ) { 
....................               memcpy(t, qdata+i*qsize, qsize); 
....................               memcpy(qdata+i*qsize, qdata+l*qsize, qsize); 
....................               memcpy(qdata+l*qsize, t, qsize); 
....................               if(m <= i) 
....................                 i -= m; 
....................                 done = 0; 
....................            } 
....................         } while(!done); 
....................      } 
....................      m = m/2; 
....................    } 
.................... } 
....................  
....................  
.................... char *bsearch(char *key, char *base, size_t num, size_t width,_Cmpfun cmp) 
.................... { 
....................    char *p, *q; 
....................    size_t n; 
....................    size_t pivot; 
....................    signed int val; 
....................  
....................    p = base; 
....................    n = num; 
....................  
....................    while (n > 0) 
....................    { 
....................       pivot = n >> 1; 
....................       q = p + width * pivot; 
....................  
....................       val = (*cmp)(key, q); 
....................  
....................       if (val < 0) 
....................          n = pivot; 
....................       else if (val == 0) 
....................          return ((char *)q); 
....................       else { 
....................          p = q + width; 
....................          n -= pivot + 1; 
....................       } 
....................    } 
....................  
....................    return NULL;      // There's no match 
.................... } 
....................  
....................  
.................... #endif 
....................  
.................... #include <DS1302.c> 
.................... ////////////////////////////////////////////////////////////////////////// 
.................... ////                               DS1302.C                           //// 
.................... ////                     Driver for Real Time Clock                   //// 
.................... ////                                                                  //// 
.................... ////  rtc_init()                                   Call after power up//// 
.................... ////                                                                  //// 
.................... ////  rtc_set_datetime(day,mth,year,dow,hour,min)  Set the date/time  //// 
.................... ////                                                                  //// 
.................... ////  rtc_get_date(day,mth,year,dow)               Get the date       //// 
.................... ////                                                                  //// 
.................... ////  rtc_get_time(hr,min,sec)                     Get the time       //// 
.................... ////                                                                  //// 
.................... ////  rtc_write_nvr(address,data)                  Write to NVR       //// 
.................... ////                                                                  //// 
.................... ////  data = rtc_read_nvr(address)                 Read from NVR      //// 
.................... ////                                                                  //// 
.................... ////  get_bcd(data)                              Convert data to BCD  //// 
.................... ////                                                                  //// 
.................... ////  rm_bcd(data)                               Convert data to int  //// 
.................... ////                                                                  //// 
.................... ////////////////////////////////////////////////////////////////////////// 
.................... ////        (C) Copyright 1996,2003 Custom Computer Services          //// 
.................... //// This source code may only be used by licensed users of the CCS C //// 
.................... //// compiler.  This source code may only be distributed to other     //// 
.................... //// licensed users of the CCS C compiler.  No other use, reproduction//// 
.................... //// or distribution is permitted without written permission.         //// 
.................... //// Derivative programs created using this software in object code   //// 
.................... //// form are not restricted in any way.                              //// 
.................... ////////////////////////////////////////////////////////////////////////// 
....................  
.................... //#ifndef RTC_SCLK 
....................  
.................... #define RTC_SCLK PIN_D1 
.................... #define RTC_IO   PIN_D2 
.................... #define RTC_RST  PIN_D3 
....................  
.................... //#endif 
....................  
.................... void write_ds1302_byte(BYTE cmd) { 
....................    BYTE i; 
....................  
....................    for(i=0;i<=7;++i) { 
*
02F4C:  MOVLB  4
02F4E:  CLRF   x53
02F50:  MOVF   x53,W
02F52:  SUBLW  07
02F54:  BNC   2F70
....................       output_bit(RTC_IO, shift_right(&cmd,1,0) ); 
02F56:  BCF    FD8.0
02F58:  RRCF   x52,F
02F5A:  BC    2F60
02F5C:  BCF    F8C.2
02F5E:  BRA    2F62
02F60:  BSF    F8C.2
02F62:  BCF    F95.2
....................       output_high(RTC_SCLK); 
02F64:  BCF    F95.1
02F66:  BSF    F8C.1
....................       output_low(RTC_SCLK); 
02F68:  BCF    F95.1
02F6A:  BCF    F8C.1
....................    } 
02F6C:  INCF   x53,F
02F6E:  BRA    2F50
.................... } 
02F70:  MOVLB  0
02F72:  RETLW  00
....................  
.................... void write_ds1302(BYTE cmd, BYTE data) { 
....................  
....................    output_high(RTC_RST); 
02F74:  BCF    F95.3
02F76:  BSF    F8C.3
....................    write_ds1302_byte(cmd); 
02F78:  MOVFF  450,452
02F7C:  RCALL  2F4C
....................    write_ds1302_byte(data); 
02F7E:  MOVFF  451,452
02F82:  RCALL  2F4C
....................    output_low(RTC_RST); 
02F84:  BCF    F95.3
02F86:  BCF    F8C.3
.................... } 
02F88:  RETLW  00
....................  
.................... BYTE read_ds1302(BYTE cmd) { 
....................    BYTE i,data; 
....................  
....................    output_high(RTC_RST); 
02F8A:  BCF    F95.3
02F8C:  BSF    F8C.3
....................    write_ds1302_byte(cmd); 
02F8E:  MOVFF  44D,452
02F92:  RCALL  2F4C
....................     
....................    input(RTC_IO); 
02F94:  BSF    F95.2
....................    delay_us(10); 
02F96:  MOVLW  10
02F98:  MOVWF  00
02F9A:  DECFSZ 00,F
02F9C:  BRA    2F9A
02F9E:  NOP   
....................           
....................    for(i=0;i<=7;++i) { 
02FA0:  MOVLB  4
02FA2:  CLRF   x4E
02FA4:  MOVF   x4E,W
02FA6:  SUBLW  07
02FA8:  BNC   2FD4
....................       shift_right(&data,1,input(RTC_IO)); 
02FAA:  BSF    F95.2
02FAC:  BTFSC  F83.2
02FAE:  BRA    2FB4
02FB0:  BCF    FD8.0
02FB2:  BRA    2FB6
02FB4:  BSF    FD8.0
02FB6:  RRCF   x4F,F
....................       output_high(RTC_SCLK); 
02FB8:  BCF    F95.1
02FBA:  BSF    F8C.1
....................       delay_us(20); 
02FBC:  MOVLW  21
02FBE:  MOVWF  00
02FC0:  DECFSZ 00,F
02FC2:  BRA    2FC0
....................       output_low(RTC_SCLK); 
02FC4:  BCF    F95.1
02FC6:  BCF    F8C.1
....................       delay_us(20); 
02FC8:  MOVLW  21
02FCA:  MOVWF  00
02FCC:  DECFSZ 00,F
02FCE:  BRA    2FCC
....................    } 
02FD0:  INCF   x4E,F
02FD2:  BRA    2FA4
....................    output_low(RTC_RST); 
02FD4:  BCF    F95.3
02FD6:  BCF    F8C.3
....................  
....................    return(data); 
02FD8:  MOVFF  44F,01
.................... } 
02FDC:  MOVLB  0
02FDE:  RETLW  00
....................  
.................... void rtc_init() { 
....................    BYTE x; 
....................    output_low(RTC_RST); 
02FE0:  BCF    F95.3
02FE2:  BCF    F8C.3
....................    delay_us(20); 
02FE4:  MOVLW  21
02FE6:  MOVWF  00
02FE8:  DECFSZ 00,F
02FEA:  BRA    2FE8
....................    output_low(RTC_SCLK); 
02FEC:  BCF    F95.1
02FEE:  BCF    F8C.1
....................    write_ds1302(0x8e,0); 
02FF0:  MOVLW  8E
02FF2:  MOVLB  4
02FF4:  MOVWF  x50
02FF6:  CLRF   x51
02FF8:  MOVLB  0
02FFA:  RCALL  2F74
....................    write_ds1302(0x90,0xa4); 
02FFC:  MOVLW  90
02FFE:  MOVLB  4
03000:  MOVWF  x50
03002:  MOVLW  A4
03004:  MOVWF  x51
03006:  MOVLB  0
03008:  RCALL  2F74
....................    x=read_ds1302(0x81); 
0300A:  MOVLW  81
0300C:  MOVLB  4
0300E:  MOVWF  x4D
03010:  MOVLB  0
03012:  RCALL  2F8A
03014:  MOVFF  01,449
....................    if((x & 0x80)!=0) 
03018:  MOVLB  4
0301A:  MOVF   x49,W
0301C:  ANDLW  80
0301E:  BZ    302C
....................      write_ds1302(0x80,0); 
03020:  MOVLW  80
03022:  MOVWF  x50
03024:  CLRF   x51
03026:  MOVLB  0
03028:  RCALL  2F74
0302A:  MOVLB  4
.................... } 
0302C:  MOVLB  0
0302E:  GOTO   818C (RETURN)
....................  
.................... byte get_bcd(BYTE data) 
.................... { 
....................    byte nibh; 
....................    byte nibl; 
....................  
....................    nibh=data/10; 
*
055DA:  MOVFF  44F,453
055DE:  MOVLW  0A
055E0:  MOVLB  4
055E2:  MOVWF  x54
055E4:  MOVLB  0
055E6:  CALL   4B58
055EA:  MOVFF  01,450
....................    nibl=data-(nibh*10); 
055EE:  MOVLB  4
055F0:  MOVF   x50,W
055F2:  MULLW  0A
055F4:  MOVF   FF3,W
055F6:  SUBWF  x4F,W
055F8:  MOVWF  x51
....................  
....................    return((nibh<<4)|nibl); 
055FA:  SWAPF  x50,W
055FC:  MOVWF  00
055FE:  MOVLW  F0
05600:  ANDWF  00,F
05602:  MOVF   00,W
05604:  IORWF  x51,W
05606:  MOVWF  01
.................... } 
05608:  MOVLB  0
0560A:  RETLW  00
....................  
.................... byte rm_bcd(BYTE data) 
.................... { 
....................    byte i; 
....................  
....................    i=data; 
*
049F2:  MOVFF  44E,44F
....................    data=(i>>4)*10; 
049F6:  MOVLB  4
049F8:  SWAPF  x4F,W
049FA:  MOVWF  00
049FC:  MOVLW  0F
049FE:  ANDWF  00,F
04A00:  MOVF   00,W
04A02:  MULLW  0A
04A04:  MOVFF  FF3,44E
....................    data=data+(i<<4>>4); 
04A08:  SWAPF  x4F,W
04A0A:  MOVWF  00
04A0C:  MOVLW  F0
04A0E:  ANDWF  00,F
04A10:  MOVF   00,W
04A12:  SWAPF  00,F
04A14:  MOVLW  0F
04A16:  ANDWF  00,F
04A18:  MOVF   00,W
04A1A:  ADDWF  x4E,F
....................  
....................    return data; 
04A1C:  MOVFF  44E,01
.................... } 
04A20:  MOVLB  0
04A22:  RETLW  00
....................  
.................... void rtc_set_datetime(BYTE day, BYTE mth, BYTE year, BYTE dow, BYTE hr, BYTE min) { 
....................  
....................    write_ds1302(0x86,get_bcd(day)); 
*
0560C:  MOVFF  449,44F
05610:  RCALL  55DA
05612:  MOVFF  01,44F
05616:  MOVLW  86
05618:  MOVLB  4
0561A:  MOVWF  x50
0561C:  MOVFF  01,451
05620:  MOVLB  0
05622:  CALL   2F74
....................    write_ds1302(0x88,get_bcd(mth)); 
05626:  MOVFF  44A,44F
0562A:  RCALL  55DA
0562C:  MOVFF  01,44F
05630:  MOVLW  88
05632:  MOVLB  4
05634:  MOVWF  x50
05636:  MOVFF  01,451
0563A:  MOVLB  0
0563C:  CALL   2F74
....................    write_ds1302(0x8c,get_bcd(year)); 
05640:  MOVFF  44B,44F
05644:  RCALL  55DA
05646:  MOVFF  01,44F
0564A:  MOVLW  8C
0564C:  MOVLB  4
0564E:  MOVWF  x50
05650:  MOVFF  01,451
05654:  MOVLB  0
05656:  CALL   2F74
....................    write_ds1302(0x8a,get_bcd(dow)); 
0565A:  MOVFF  44C,44F
0565E:  RCALL  55DA
05660:  MOVFF  01,44F
05664:  MOVLW  8A
05666:  MOVLB  4
05668:  MOVWF  x50
0566A:  MOVFF  01,451
0566E:  MOVLB  0
05670:  CALL   2F74
....................    write_ds1302(0x84,get_bcd(hr)); 
05674:  MOVFF  44D,44F
05678:  RCALL  55DA
0567A:  MOVFF  01,44F
0567E:  MOVLW  84
05680:  MOVLB  4
05682:  MOVWF  x50
05684:  MOVFF  01,451
05688:  MOVLB  0
0568A:  CALL   2F74
....................    write_ds1302(0x82,get_bcd(min)); 
0568E:  MOVFF  44E,44F
05692:  RCALL  55DA
05694:  MOVFF  01,44F
05698:  MOVLW  82
0569A:  MOVLB  4
0569C:  MOVWF  x50
0569E:  MOVFF  01,451
056A2:  MOVLB  0
056A4:  CALL   2F74
....................    write_ds1302(0x80,get_bcd(0)); 
056A8:  MOVLB  4
056AA:  CLRF   x4F
056AC:  MOVLB  0
056AE:  RCALL  55DA
056B0:  MOVFF  01,44F
056B4:  MOVLW  80
056B6:  MOVLB  4
056B8:  MOVWF  x50
056BA:  MOVFF  01,451
056BE:  MOVLB  0
056C0:  CALL   2F74
.................... } 
056C4:  GOTO   B320 (RETURN)
....................  
.................... void rtc_get_date(BYTE& day, BYTE& mth, BYTE& year, BYTE& dow) { 
....................    day = rm_bcd(read_ds1302(0x87)); 
*
0853E:  MOVLW  87
08540:  MOVLB  4
08542:  MOVWF  x4D
08544:  MOVLB  0
08546:  CALL   2F8A
0854A:  MOVFF  01,449
0854E:  MOVFF  01,44E
08552:  CALL   49F2
08556:  MOVFF  01,3AA
....................    mth = rm_bcd(read_ds1302(0x89)); 
0855A:  MOVLW  89
0855C:  MOVLB  4
0855E:  MOVWF  x4D
08560:  MOVLB  0
08562:  CALL   2F8A
08566:  MOVFF  01,449
0856A:  MOVFF  01,44E
0856E:  CALL   49F2
08572:  MOVFF  01,3A9
....................    year = rm_bcd(read_ds1302(0x8d)); 
08576:  MOVLW  8D
08578:  MOVLB  4
0857A:  MOVWF  x4D
0857C:  MOVLB  0
0857E:  CALL   2F8A
08582:  MOVFF  01,449
08586:  MOVFF  01,44E
0858A:  CALL   49F2
0858E:  MOVFF  01,3A8
....................    dow = rm_bcd(read_ds1302(0x8b)); 
08592:  MOVLW  8B
08594:  MOVLB  4
08596:  MOVWF  x4D
08598:  MOVLB  0
0859A:  CALL   2F8A
0859E:  MOVFF  01,449
085A2:  MOVFF  01,44E
085A6:  CALL   49F2
085AA:  MOVFF  01,3AE
.................... } 
....................  
.................... void rtc_get_time(BYTE& hr, BYTE& min, BYTE& sec) { 
....................    hr = rm_bcd(read_ds1302(0x85)); 
085AE:  MOVLW  85
085B0:  MOVLB  4
085B2:  MOVWF  x4D
085B4:  MOVLB  0
085B6:  CALL   2F8A
085BA:  MOVFF  01,449
085BE:  MOVFF  01,44E
085C2:  CALL   49F2
085C6:  MOVFF  01,3AB
....................    min = rm_bcd(read_ds1302(0x83)); 
085CA:  MOVLW  83
085CC:  MOVLB  4
085CE:  MOVWF  x4D
085D0:  MOVLB  0
085D2:  CALL   2F8A
085D6:  MOVFF  01,449
085DA:  MOVFF  01,44E
085DE:  CALL   49F2
085E2:  MOVFF  01,3AC
....................    sec = rm_bcd(read_ds1302(0x81)); 
085E6:  MOVLW  81
085E8:  MOVLB  4
085EA:  MOVWF  x4D
085EC:  MOVLB  0
085EE:  CALL   2F8A
085F2:  MOVFF  01,449
085F6:  MOVFF  01,44E
085FA:  CALL   49F2
085FE:  MOVFF  01,3AD
.................... } 
....................  
.................... void rtc_write_nvr(BYTE address, BYTE data) { 
....................    write_ds1302(address|0xc0,data); 
.................... } 
....................  
.................... BYTE rtc_read_nvr(BYTE address) { 
....................     return(read_ds1302(address|0xc1)); 
.................... } 
....................  
.................... #include <24512.c> 
.................... /////////////////////////////////////////////////////////////////////////// 
.................... ////   Library for a 24LC512 serial EEPROM                             //// 
.................... ////                                                                   //// 
.................... ////   init_ext_eeprom();    Call before the other functions are used  //// 
.................... ////                                                                   //// 
.................... ////   write_ext_eeprom(a, d);  Write the byte d to the address a      //// 
.................... ////                                                                   //// 
.................... ////   d = read_ext_eeprom(a);   Read the byte d from the address a    //// 
.................... ////                                                                   //// 
.................... ////   The main program may define eeprom_sda                          //// 
.................... ////   and eeprom_scl to override the defaults below.                  //// 
.................... ////                                                                   //// 
.................... /////////////////////////////////////////////////////////////////////////// 
.................... ////        (C) Copyright 1996,2003 Custom Computer Services           //// 
.................... //// This source code may only be used by licensed users of the CCS C  //// 
.................... //// compiler.  This source code may only be distributed to other      //// 
.................... //// licensed users of the CCS C compiler.  No other use, reproduction //// 
.................... //// or distribution is permitted without written permission.          //// 
.................... //// Derivative programs created using this software in object code    //// 
.................... //// form are not restricted in any way.                               //// 
.................... /////////////////////////////////////////////////////////////////////////// 
....................  
.................... #ifndef EEPROM_SDA 
....................  
.................... #define EEPROM_SDA  PIN_C4 
.................... #define EEPROM_SCL  PIN_C3 
....................  
.................... #endif 
....................  
.................... //#use i2c(master, sda=EEPROM_SDA, scl=EEPROM_SCL) 
....................  
.................... #define EEPROM_ADDRESS long int 
.................... #define EEPROM_SIZE   65535 
....................  
.................... void init_ext_eeprom() 
.................... { 
....................    output_float(EEPROM_SCL); 
....................    output_float(EEPROM_SDA); 
....................  
.................... } 
....................  
.................... void write_ext_eeprom(long int address, BYTE data) 
.................... { 
....................    short int status; 
....................    i2c_start(); 
*
04EB0:  BSF    F94.4
04EB2:  MOVLW  05
04EB4:  MOVWF  00
04EB6:  DECFSZ 00,F
04EB8:  BRA    4EB6
04EBA:  BSF    F94.3
04EBC:  MOVLW  06
04EBE:  MOVWF  00
04EC0:  DECFSZ 00,F
04EC2:  BRA    4EC0
04EC4:  BCF    F8B.4
04EC6:  BCF    F94.4
04EC8:  MOVLW  05
04ECA:  MOVWF  00
04ECC:  DECFSZ 00,F
04ECE:  BRA    4ECC
04ED0:  BCF    F8B.3
04ED2:  BCF    F94.3
....................    i2c_write(0xa0); 
04ED4:  MOVLW  A0
04ED6:  MOVLB  4
04ED8:  MOVWF  x6A
04EDA:  MOVLB  0
04EDC:  RCALL  48E4
....................    i2c_write(address>>8); 
04EDE:  MOVFF  465,468
04EE2:  MOVLB  4
04EE4:  CLRF   x69
04EE6:  MOVFF  465,46A
04EEA:  MOVLB  0
04EEC:  RCALL  48E4
....................    i2c_write(address); 
04EEE:  MOVFF  464,46A
04EF2:  RCALL  48E4
....................    i2c_write(data); 
04EF4:  MOVFF  466,46A
04EF8:  RCALL  48E4
....................    i2c_stop(); 
04EFA:  BCF    F94.4
04EFC:  NOP   
04EFE:  BSF    F94.3
04F00:  BTFSS  F82.3
04F02:  BRA    4F00
04F04:  MOVLW  05
04F06:  MOVWF  00
04F08:  DECFSZ 00,F
04F0A:  BRA    4F08
04F0C:  BRA    4F0E
04F0E:  NOP   
04F10:  BSF    F94.4
04F12:  MOVLW  05
04F14:  MOVWF  00
04F16:  DECFSZ 00,F
04F18:  BRA    4F16
....................    i2c_start(); 
04F1A:  BSF    F94.4
04F1C:  MOVLW  05
04F1E:  MOVWF  00
04F20:  DECFSZ 00,F
04F22:  BRA    4F20
04F24:  BSF    F94.3
04F26:  MOVLW  06
04F28:  MOVWF  00
04F2A:  DECFSZ 00,F
04F2C:  BRA    4F2A
04F2E:  BCF    F8B.4
04F30:  BCF    F94.4
04F32:  MOVLW  05
04F34:  MOVWF  00
04F36:  DECFSZ 00,F
04F38:  BRA    4F36
04F3A:  BCF    F8B.3
04F3C:  BCF    F94.3
....................    status=i2c_write(0xa0); 
04F3E:  MOVLW  A0
04F40:  MOVLB  4
04F42:  MOVWF  x6A
04F44:  MOVLB  0
04F46:  RCALL  48E4
04F48:  MOVF   01,W
04F4A:  MOVLB  4
04F4C:  BCF    x67.0
04F4E:  BTFSC  01.0
04F50:  BSF    x67.0
....................    //while(status==1) 
....................    //{ 
....................       i2c_start(); 
04F52:  BSF    F94.4
04F54:  MOVLW  05
04F56:  MOVWF  00
04F58:  DECFSZ 00,F
04F5A:  BRA    4F58
04F5C:  BSF    F94.3
04F5E:  MOVLW  06
04F60:  MOVWF  00
04F62:  DECFSZ 00,F
04F64:  BRA    4F62
04F66:  BTFSS  F82.3
04F68:  BRA    4F66
04F6A:  BCF    F8B.4
04F6C:  BCF    F94.4
04F6E:  MOVLW  05
04F70:  MOVWF  00
04F72:  DECFSZ 00,F
04F74:  BRA    4F72
04F76:  BCF    F8B.3
04F78:  BCF    F94.3
....................       status=i2c_write(0xa0); 
04F7A:  MOVLW  A0
04F7C:  MOVWF  x6A
04F7E:  MOVLB  0
04F80:  RCALL  48E4
04F82:  MOVF   01,W
04F84:  MOVLB  4
04F86:  BCF    x67.0
04F88:  BTFSC  01.0
04F8A:  BSF    x67.0
....................    //} 
....................    i2c_stop(); 
04F8C:  BCF    F94.4
04F8E:  NOP   
04F90:  BSF    F94.3
04F92:  BTFSS  F82.3
04F94:  BRA    4F92
04F96:  MOVLW  05
04F98:  MOVWF  00
04F9A:  DECFSZ 00,F
04F9C:  BRA    4F9A
04F9E:  BRA    4FA0
04FA0:  NOP   
04FA2:  BSF    F94.4
04FA4:  MOVLW  05
04FA6:  MOVWF  00
04FA8:  DECFSZ 00,F
04FAA:  BRA    4FA8
.................... } 
04FAC:  MOVLB  0
04FAE:  RETLW  00
....................  
.................... BYTE read_ext_eeprom(long int address) { 
....................    BYTE data; 
....................    i2c_start(); 
*
057F8:  BSF    F94.4
057FA:  MOVLW  05
057FC:  MOVWF  00
057FE:  DECFSZ 00,F
05800:  BRA    57FE
05802:  BSF    F94.3
05804:  MOVLW  06
05806:  MOVWF  00
05808:  DECFSZ 00,F
0580A:  BRA    5808
0580C:  BCF    F8B.4
0580E:  BCF    F94.4
05810:  MOVLW  05
05812:  MOVWF  00
05814:  DECFSZ 00,F
05816:  BRA    5814
05818:  BCF    F8B.3
0581A:  BCF    F94.3
....................    i2c_write(0xa0); 
0581C:  MOVLW  A0
0581E:  MOVLB  4
05820:  MOVWF  x6A
05822:  MOVLB  0
05824:  CALL   48E4
....................    i2c_write(address>>8); 
05828:  MOVFF  44F,451
0582C:  MOVLB  4
0582E:  CLRF   x52
05830:  MOVFF  44F,46A
05834:  MOVLB  0
05836:  CALL   48E4
....................    i2c_write(address); 
0583A:  MOVFF  44E,46A
0583E:  CALL   48E4
....................    i2c_start(); 
05842:  BSF    F94.4
05844:  MOVLW  05
05846:  MOVWF  00
05848:  DECFSZ 00,F
0584A:  BRA    5848
0584C:  BSF    F94.3
0584E:  MOVLW  06
05850:  MOVWF  00
05852:  DECFSZ 00,F
05854:  BRA    5852
05856:  BTFSS  F82.3
05858:  BRA    5856
0585A:  BCF    F8B.4
0585C:  BCF    F94.4
0585E:  MOVLW  05
05860:  MOVWF  00
05862:  DECFSZ 00,F
05864:  BRA    5862
05866:  BCF    F8B.3
05868:  BCF    F94.3
....................    i2c_write(0xa1); 
0586A:  MOVLW  A1
0586C:  MOVLB  4
0586E:  MOVWF  x6A
05870:  MOVLB  0
05872:  CALL   48E4
....................    data=i2c_read(0); 
05876:  CLRF   00
05878:  BRA    578C
0587A:  MOVFF  01,450
....................    i2c_stop(); 
0587E:  BCF    F94.4
05880:  NOP   
05882:  BSF    F94.3
05884:  BTFSS  F82.3
05886:  BRA    5884
05888:  MOVLW  05
0588A:  MOVWF  00
0588C:  DECFSZ 00,F
0588E:  BRA    588C
05890:  BRA    5892
05892:  NOP   
05894:  BSF    F94.4
05896:  MOVLW  05
05898:  MOVWF  00
0589A:  DECFSZ 00,F
0589C:  BRA    589A
....................    return(data); 
0589E:  MOVLB  4
058A0:  MOVFF  450,01
.................... } 
058A4:  MOVLB  0
058A6:  RETLW  00
....................  
....................  
.................... //-----Defines para configuracion de logica de funcionamiento de autoclave---// 
.................... #define PT100Fija //Define para autcolaves con reservorio y Pt100 fija (NO FLEXIBLE) 
.................... //#define Reservorio //Define para autoclaves con reservorio 
.................... #define Absoluta //Define para el sensor de presion Absoluta 
.................... #define Tmax 134 
.................... #define Tmin 110 
.................... //#define ULKA 
.................... #define Enfriador 
.................... //--------------------------------------------------------------------------// 
....................  
.................... #define   UP            !input(PIN_B0) 
.................... #define   DOWN          !input(PIN_B1) 
.................... #define   RIGHT         !input(PIN_B2) 
.................... #define   LEFT          !input(PIN_B3) 
....................  
.................... #define   DOOR          !input(PIN_B6) 
.................... #define   STOP          !input(PIN_B7) 
.................... #define   TERM          !input(PIN_B5) 
....................  
.................... #define   LOW           input(PIN_C1) 
.................... #define   HIG           input(PIN_C0) 
....................  
.................... #define   SSR_on           output_bit(PIN_C2,0) 
.................... #define   SSR_off          output_bit(PIN_C2,1) 
....................  
.................... #define   Buzzer_on        output_bit(PIN_D0,1) 
.................... #define   Buzzer_off       output_bit(PIN_D0,0) 
....................  
.................... #define   Desfogue_on      output_bit(PIN_D4,1) 
.................... #define   Desfogue_off     output_bit(PIN_D4,0) 
....................  
.................... #define   Agua_on          output_bit(PIN_D5,1) 
.................... #define   Agua_off         output_bit(PIN_D5,0) 
....................  
.................... #ifdef Enfriador 
.................... #define   Enfr_on          output_bit(PIN_D6,1) 
.................... #define   Enfr_off         output_bit(PIN_D6,0) 
.................... #else 
.................... #define   Bomba_on         output_bit(PIN_D6,1) 
.................... #define   Bomba_off        output_bit(PIN_D6,0) 
.................... #endif 
....................  
.................... #define OFF 0 
.................... #define ON  1 
.................... #define RX_BUFFER_SIZE  10 
.................... char Rx_Buffer[RX_BUFFER_SIZE+1]; 
.................... char Rx_Buffer2[RX_BUFFER_SIZE+1]; 
.................... char RX_Wr_Index=0; 
.................... char RX_Rd_Index=0; 
.................... char RX_Counter=0; 
....................  
.................... #define TX_BUFFER_SIZE  24 
.................... char Tx_Buffer[TX_BUFFER_SIZE+1]; 
.................... char TX_Wr_Index=0; 
.................... char TX_Counter=0; 
.................... //int1 RX_Buffer_Overflow=0; 
....................  
.................... //Comunicacion//------------------------ 
.................... byte SlaveA0Tx[0X20]; 
.................... byte dato=0;            //Contendr la informacin a enviar o recibir 
.................... byte direccion=0;       //Contendr la direccin del esclavo en el bus I2C 
.................... byte posicion=0;        //Contendr la posicin en el buffer de memoria del esclavo donde se almacenar o de donde se recuperar el dato 
....................  
.................... /* Tabla de Modulos, Primera Fila Ao Regular y el siguiente ao Bisiesto 
.................... E   F   M   A   M   J   J   A   S   O   N   D 
.................... 0   3   3   6   1   4   6   2   5   0   3   5 
.................... 0   3   4   0   2   5   0   3   6   1   4   6 
.................... */ 
.................... int8 Regular[12]={0,3,3,6,1,4,6,2,5,0,3,5}; 
.................... int8 Bisiesto[12]={0,3,4,0,2,5,0,3,6,1,4,6}; 
....................  
.................... //Alarmas//--------------------- 
.................... short AlarmaTiempoProlongado=OFF,AlarmaSobreTemperatura=OFF,AlarmaLlenado=OFF,AlarmaTermostato=OFF,AlarmaPuerta=OFF,AlarmaEmergencia=OFF,AlarmaCiclo=OFF; 
....................  
.................... //Banderas//-------------------- 
.................... short IniciaLlenado=OFF,CalderinLleno=OFF,IniciaCiclo=OFF,Esterilizando=OFF,Secando=OFF,SensadoNivel=OFF,Desfogando=OFF,DesfogueSuave=OFF,purgo=OFF,purgaAire2=OFF; 
.................... short EstadoDesfogue=OFF,EstadoAgua=OFF,EstadoSSR=OFF,PruebaEstados=OFF,Ciclo=OFF,flagCalentando=OFF,flagEsterilizando=OFF,EstadoAire=OFF; 
.................... short flagDesfogando=OFF,Op=OFF,Op2=OFF,Minutos=OFF,Segundos=OFF,GuardaEEPROM=OFF,EstadoPaso=OFF,EstadoBuzzer=OFF,flagAlarma=OFF,borra=OFF; 
.................... short flagBuzzer=OFF,flagSilencio=OFF,Finalizo=OFF,AlarmaPresion=OFF,Libre=OFF,purga=OFF,entro=OFF,Aire=OFF,disp_Guarda=OFF,guardaCiclo=OFF,flagBombaAgua=OFF,flagBombaAguaOff=OFF; 
....................  
.................... //Tiempos//--------------------- 
.................... int16 TiempoCiclo=0,TiempoLlenado=0,TiempoSensadoNivel=0,Tp=0,Tc=0,tguarda=0; 
.................... signed int  Testerilizacion[5]={0,0,0,0,0};   // Tiempo transcurrido 
.................... signed int  Testerilizacionp[5]={0,0,0,0,0};   // Tiempo transcurrido 
.................... signed int  Tsecado[4]={0,0,0,0};   // Tiempo transcurrido 
.................... signed int  Tsecadop[4]={0,0,0,0};   // Tiempo transcurrido 
....................  
.................... //Control//------------------------ 
.................... float promedio[80]={0.0,0.0,0.0,0.0,0.0,0.0,0.0,0.0,0.0,0.0,0.0,0.0,0.0,0.0,0.0,0.0,0.0,0.0,0.0,0.0,0.0,0.0,0.0,0.0,0.0,0.0,0.0,0.0,0.0,0.0,0.0,0.0,0.0,0.0,0.0,0.0,0.0,0.0,0.0,0.0,0.0,0.0,0.0,0.0,0.0,0.0,0.0,0.0,0.0,0.0,0.0,0.0,0.0,0.0,0.0,0.0,0.0,0.0,0.0,0.0,0.0,0.0,0.0,0.0}; 
.................... float PromPresion[20]={0.0,0.0,0.0,0.0,0.0,0.0,0.0,0.0,0.0,0.0,0.0,0.0,0.0,0.0,0.0,0.0,0.0,0.0,0.0,0.0}; 
.................... float PromPresionp[20]={0.0,0.0,0.0,0.0,0.0,0.0,0.0,0.0,0.0,0.0,0.0,0.0,0.0,0.0,0.0,0.0,0.0,0.0,0.0,0.0}; 
.................... float Gain=141.6,RPT100=0.5,Temporal=0.0; 
.................... float R1=100,R10=6800; 
.................... float X[2]={0.0,0.0}; 
.................... float Xx[2]={0.0,0.0}; 
.................... float promediopresion=0.0,Aumento=0.0,Aumento2=0.0,promediopresionp=0.0; 
.................... int8 h=0,l=0,Ajuste=0,Ajusten=0,MediaMovil=20,TTrampa=0,PantallaPrincipal=0,TipoClave=0,Modulo=0,Digito=0,yy=0,posicionDato=0,codigoAlarma=0,codigoAnt=0; 
.................... float V0=0.0,Pt,Tciclo=10.0,Tpulso=0.0,error=0.0,Prom=0.0,Temperature=0.0,tmp=0.0,Ganancia=25.0,Ganancia2=20.0,desvio=1.2,tmp2=0.0; 
.................... float V1=0.0,Presion=0.0,V2=0.0,Presionp=0.0; 
.................... float Temperatura=0.0,K=0.0012858; 
.................... float a=0.0011,b=2.3302,c=-244.0723; 
.................... int8 Integral=0,Derivativo=0,CicloLibre=0,pulsosPurga=0,pulsosPurgaProgramados=0; 
.................... float p1=0.0000011617,p2=-0.0010575,p3=0.44114,p4=65.043,Tactual=0.0; 
....................  
.................... //Varios//-------------------------------- 
.................... short desfoguelento=0,Lectura=0,Grafica=0; 
.................... short disp_Stop=0,flagTC=0,flagImprime=0,flagImprimir=0; 
.................... int8 Control=0,tiemporecta=0,Controlando=0,ActivaImpresion=1,timpresion=2,CalculoImpresion=0,Inicio=1,Dato_Exitoso=0,Dato2=0,z=0; 
.................... int8 Menu=0, MenuAnt=0,MenuAntt=240,CiclosL=0,CiclosH=0,CicloSeleccionado=0; 
.................... int8 Setpoint=0,Opcion=1,Opcion2=1,tiempo_esterilizacion=0,tiempo_secado=0,tiempoImpresion=0; 
.................... int16 tiempos=0,tiempos2=0,tiempos3=0,tiempoctrl=0,Nivel=0,tinicio=0,PresionCamara=0,PresionPreCamara=0,Ciclos=0,NivelSeleccionado=0,tBombaAgua=0,tBombaAguaOff=0,tPurgaAire=0; 
.................... signed int  Contrasena[4]={0,0,0,0};      // Contrasena de 4 digitos 
.................... signed int  Password[4]={0,0,0,0};        // Contrasena Almacenada de 4 digitos 
.................... int8 r=0,t=0,r22=0,t2=0,TiempoControl=0; 
.................... int8 y=0,ConteoBuzzer=0; 
.................... int16 t_exhaust=0,tbuzzer=0,tsilencio=0,tiempoAgua=0,tStop=0,tTermostato=0,cicloVisto=0,cicloVisualizado=0,i=0,j=0,tright=0; 
.................... int8 Year=18,Mes=9,Dia=13,Hora=0,Minuto=0,Segundo=0,dow=0; 
.................... int8 YearTx=0,MesTx=0,DiaTx=0,HoraTx=0,MinutoTx=0,SegundoTx=0,dowTx=0,SetTime=0,Imprime=0; 
.................... int8 Atmosferica=72; 
.................... signed int8 G1=0,G2=0,sg1=0,sg2=0; 
.................... int8 iconoGrande[9]={25,16,22,24,23,28,20,46,69}; 
.................... int8 iconoPeque[9]={34,36,18,33,32,38,19,17,68}; 
.................... char const texto[9][20]={"LIQUIDOS A","CAUCHO","INSTRUMENTAL","LIQUIDOS B","LIBRE","TEST","HORA Y FECHA","CLAVE","DATOS"}; 
.................... int8 diaCiclos=0,mesCiclos=0,yearCiclos=0,usuarioCiclos=0,cicloCiclos=0; 
....................  
.................... float TCiclos[7]; 
.................... int16 PcCiclos[7]; 
.................... int16 PpcCiclos[7]; 
.................... int8 horaCiclos[7]; 
.................... int8 minutoCiclos[7]; 
.................... int8 ACiclos[7]; 
....................  
.................... typedef struct{ 
....................    int8 Temperatura; 
....................    int8 MinutoestH; 
....................    int8 MinutoestL; 
....................    int8 Segundoest; 
....................    int8 Minutosec; 
....................    int8 Segundosec; 
....................    int8 PulsosVacio; 
....................    int8 NivelVacio; 
....................    int8 NivelDesfogue; 
....................    int8 Minutoest; 
.................... }Personalizado; 
....................  
.................... Personalizado CiclosPersonalizados[4]; 
....................  
.................... #include "Funciones.h" 
.................... float inttofloat(int8 decimal){ 
....................    float tmp; 
....................    tmp=decimal; 
058A8:  MOVLB  4
058AA:  CLRF   x5F
058AC:  MOVFF  44D,45E
058B0:  MOVLB  0
058B2:  CALL   1A94
058B6:  MOVFF  03,451
058BA:  MOVFF  02,450
058BE:  MOVFF  01,44F
058C2:  MOVFF  00,44E
....................    return tmp/10; 
058C6:  MOVFF  451,455
058CA:  MOVFF  450,454
058CE:  MOVFF  44F,453
058D2:  MOVFF  44E,452
058D6:  MOVLB  4
058D8:  CLRF   x59
058DA:  CLRF   x58
058DC:  MOVLW  20
058DE:  MOVWF  x57
058E0:  MOVLW  82
058E2:  MOVWF  x56
058E4:  MOVLB  0
058E6:  CALL   1ACA
.................... } 
058EA:  GOTO   5CA2 (RETURN)
....................  
.................... void BorraBuffer(void){ 
.................... RX_Buffer[0]=0; 
*
04AFA:  CLRF   30
.................... RX_Buffer[1]=0; 
04AFC:  CLRF   31
.................... RX_Buffer[2]=0; 
04AFE:  CLRF   32
.................... RX_Buffer[3]=0; 
04B00:  CLRF   33
.................... RX_Buffer[4]=0; 
04B02:  CLRF   34
.................... RX_Buffer[5]=0; 
04B04:  CLRF   35
.................... RX_Buffer[6]=0; 
04B06:  CLRF   36
.................... RX_Buffer[7]=0; 
04B08:  CLRF   37
.................... RX_Buffer[8]=0; 
04B0A:  CLRF   38
.................... RX_Buffer[9]=0; 
04B0C:  CLRF   39
....................  
.................... RX_Buffer2[0]=0; 
04B0E:  CLRF   3B
.................... RX_Buffer2[1]=0; 
04B10:  CLRF   3C
.................... RX_Buffer2[2]=0; 
04B12:  CLRF   3D
.................... RX_Buffer2[3]=0; 
04B14:  CLRF   3E
.................... RX_Buffer2[4]=0; 
04B16:  CLRF   3F
.................... RX_Buffer2[5]=0; 
04B18:  CLRF   40
.................... RX_Buffer2[6]=0; 
04B1A:  CLRF   41
.................... RX_Buffer2[7]=0; 
04B1C:  CLRF   42
.................... RX_Buffer2[8]=0; 
04B1E:  CLRF   43
.................... RX_Buffer2[9]=0; 
04B20:  CLRF   44
....................  
.................... } 
04B22:  GOTO   866A (RETURN)
....................  
.................... char bgetc(void){ 
....................    char c; 
....................    while(RX_Counter==0) 
....................       ; 
....................    c=Rx_Buffer2[RX_Rd_Index]; 
....................    if(++RX_Rd_Index>RX_BUFFER_SIZE) 
....................       RX_Rd_Index=0; 
....................    if(RX_Counter) 
....................       RX_Counter--; 
....................    return c; 
.................... } 
....................  
.................... void bputc(char c){ 
....................    char restart=0; 
....................    while(TX_Counter> (TX_BUFFER_SIZE-1)) 
....................       ; 
....................    if(TX_Counter==0) 
....................       restart=1; 
....................    TX_Buffer[TX_Wr_Index++]=c; 
....................    if(TX_Wr_Index>TX_BUFFER_SIZE) 
....................       TX_Wr_Index=0; 
....................     
....................    TX_Counter++; 
....................     
....................    if(restart==1) 
....................       enable_interrupts(int_tbe); 
.................... } 
....................  
.................... void SendDataDisplay(void){ 
.................... delay_us(10); 
*
03BE4:  MOVLW  10
03BE6:  MOVWF  00
03BE8:  DECFSZ 00,F
03BEA:  BRA    3BE8
03BEC:  NOP   
.................... putc(0xFF); 
03BEE:  MOVLW  FF
03BF0:  RCALL  3BDC
.................... delay_us(10); 
03BF2:  MOVLW  10
03BF4:  MOVWF  00
03BF6:  DECFSZ 00,F
03BF8:  BRA    3BF6
03BFA:  NOP   
.................... putc(0xFF); 
03BFC:  MOVLW  FF
03BFE:  RCALL  3BDC
.................... delay_us(10); 
03C00:  MOVLW  10
03C02:  MOVWF  00
03C04:  DECFSZ 00,F
03C06:  BRA    3C04
03C08:  NOP   
.................... putc(0xFF); 
03C0A:  MOVLW  FF
03C0C:  RCALL  3BDC
.................... delay_us(10); 
03C0E:  MOVLW  10
03C10:  MOVWF  00
03C12:  DECFSZ 00,F
03C14:  BRA    3C12
03C16:  NOP   
.................... } 
03C18:  RETLW  00
....................  
.................... short esBisiesto(int8 year) { 
....................      return ((year % 4 == 0 && year % 100 != 0) || year % 400 == 0); 
*
05586:  MOVLB  4
05588:  MOVF   x49,W
0558A:  ANDLW  03
0558C:  BNZ   55A2
0558E:  MOVFF  449,453
05592:  MOVLW  64
05594:  MOVWF  x54
05596:  MOVLB  0
05598:  CALL   4B58
0559C:  MOVF   00,F
0559E:  BNZ   55D0
055A0:  MOVLB  4
055A2:  CLRF   x63
055A4:  MOVFF  449,462
055A8:  MOVLW  01
055AA:  MOVWF  x65
055AC:  MOVLW  90
055AE:  MOVWF  x64
055B0:  MOVLB  0
055B2:  RCALL  4E6A
055B4:  MOVFF  00,44A
055B8:  MOVLB  4
055BA:  MOVFF  03,44B
055BE:  MOVF   x4A,F
055C0:  BNZ   55CC
055C2:  MOVF   x4B,F
055C4:  BTFSS  FD8.2
055C6:  BRA    55CC
055C8:  MOVLB  0
055CA:  BRA    55D0
055CC:  MOVLW  00
055CE:  BRA    55D4
055D0:  MOVLW  01
055D2:  MOVLB  4
055D4:  MOVWF  01
.................... } 
055D6:  MOVLB  0
055D8:  RETLW  00
....................  
.................... void LimitaDia(){ 
....................    if(MesTx>12) 
*
056C8:  MOVLB  3
056CA:  MOVF   xB0,W
056CC:  SUBLW  0C
056CE:  BC    56D4
....................       MesTx=10; 
056D0:  MOVLW  0A
056D2:  MOVWF  xB0
....................    if(DiaTx>31) 
056D4:  MOVF   xB1,W
056D6:  SUBLW  1F
056D8:  BC    56DE
....................       DiaTx=16; 
056DA:  MOVLW  10
056DC:  MOVWF  xB1
....................    if(YearTx>99) 
056DE:  MOVF   xAF,W
056E0:  SUBLW  63
056E2:  BC    56E8
....................       YearTx=18;    
056E4:  MOVLW  12
056E6:  MOVWF  xAF
....................    if(HoraTx>24) 
056E8:  MOVF   xB2,W
056EA:  SUBLW  18
056EC:  BC    56F2
....................       HoraTx=11;       
056EE:  MOVLW  0B
056F0:  MOVWF  xB2
....................    if(MinutoTx>59) 
056F2:  MOVF   xB3,W
056F4:  SUBLW  3B
056F6:  BC    56FC
....................       MinutoTx=30;       
056F8:  MOVLW  1E
056FA:  MOVWF  xB3
....................     
....................       if(MesTx==2){ 
056FC:  MOVF   xB0,W
056FE:  SUBLW  02
05700:  BNZ   572C
....................          if(esBisiesto(YearTx)){ 
05702:  MOVFF  3AF,449
05706:  MOVLB  0
05708:  RCALL  5586
0570A:  MOVF   01,F
0570C:  BZ    571E
....................             if(DiaTx>29){ 
0570E:  MOVLB  3
05710:  MOVF   xB1,W
05712:  SUBLW  1D
05714:  BC    571A
....................                DiaTx=29; 
05716:  MOVLW  1D
05718:  MOVWF  xB1
....................                //glcd_fillScreen(OFF); 
....................             } 
....................          }else{ 
0571A:  BRA    572A
0571C:  MOVLB  0
....................             if(DiaTx>28){ 
0571E:  MOVLB  3
05720:  MOVF   xB1,W
05722:  SUBLW  1C
05724:  BC    572A
....................                DiaTx=28; 
05726:  MOVLW  1C
05728:  MOVWF  xB1
....................                //glcd_fillScreen(OFF); 
....................             } 
....................          } 
....................       }else{ 
0572A:  BRA    5756
....................          if(MesTx<=7){ 
0572C:  MOVF   xB0,W
0572E:  SUBLW  07
05730:  BNC   5744
....................             if(MesTx % 2 ==0){ 
05732:  MOVF   xB0,W
05734:  ANDLW  01
05736:  BNZ   5742
....................                if(DiaTx>30){ 
05738:  MOVF   xB1,W
0573A:  SUBLW  1E
0573C:  BC    5742
....................                   DiaTx=30;  
0573E:  MOVLW  1E
05740:  MOVWF  xB1
....................                   //glcd_fillScreen(OFF); 
....................                } 
....................             } 
....................          }else{ 
05742:  BRA    5756
....................             if(MesTx % 2 ==1){ 
05744:  MOVF   xB0,W
05746:  ANDLW  01
05748:  SUBLW  01
0574A:  BNZ   5756
....................                if(DiaTx>30){ 
0574C:  MOVF   xB1,W
0574E:  SUBLW  1E
05750:  BC    5756
....................                   DiaTx=30;  
05752:  MOVLW  1E
05754:  MOVWF  xB1
....................                   //glcd_fillScreen(OFF); 
....................                } 
....................             } 
....................          } 
....................       } 
.................... } 
05756:  MOVLB  0
05758:  GOTO   B5BE (RETURN)
....................  
.................... void ActualizaRecta(){ 
....................    X[y]=Temperature; 
*
07228:  MOVLB  3
0722A:  MOVF   x90,W
0722C:  MULLW  04
0722E:  MOVF   FF3,W
07230:  CLRF   03
07232:  ADDLW  B7
07234:  MOVWF  FE9
07236:  MOVLW  02
07238:  ADDWFC 03,W
0723A:  MOVWF  FEA
0723C:  MOVFF  2FD,FEF
07240:  MOVFF  2FE,FEC
07244:  MOVFF  2FF,FEC
07248:  MOVFF  300,FEC
....................    y++; 
0724C:  INCF   x90,F
....................    if(y>=2) 
0724E:  MOVF   x90,W
07250:  SUBLW  01
07252:  BC    7290
....................    { 
....................       y=0; 
07254:  CLRF   x90
....................       Aumento=X[1]-X[0]; 
07256:  BSF    FD8.1
07258:  MOVFF  2BE,461
0725C:  MOVFF  2BD,460
07260:  MOVFF  2BC,45F
07264:  MOVFF  2BB,45E
07268:  MOVFF  2BA,465
0726C:  MOVFF  2B9,464
07270:  MOVFF  2B8,463
07274:  MOVFF  2B7,462
07278:  MOVLB  0
0727A:  CALL   1C28
0727E:  MOVFF  03,2CE
07282:  MOVFF  02,2CD
07286:  MOVFF  01,2CC
0728A:  MOVFF  00,2CB
0728E:  MOVLB  3
....................    } 
.................... } 
07290:  MOVLB  0
07292:  GOTO   730E (RETURN)
....................  
.................... void ActualizaRectaPresion(){ 
....................    Xx[yy]=Tactual; 
....................    yy++; 
....................    if(yy>=2){ 
....................       yy=0; 
....................       Aumento2=Xx[1]-Xx[0]; 
....................    } 
.................... } 
....................  
.................... // Funcion para conversor analogo-digital 
.................... float sensores(int x){ 
.................... float y;set_adc_channel(x);delay_ms(1);y=read_adc();return (y); 
*
03C38:  MOVLB  4
03C3A:  RLCF   x52,W
03C3C:  MOVWF  00
03C3E:  RLCF   00,F
03C40:  MOVLW  FC
03C42:  ANDWF  00,F
03C44:  MOVFF  00,01
03C48:  MOVF   FC2,W
03C4A:  ANDLW  C3
03C4C:  IORWF  00,W
03C4E:  MOVWF  FC2
03C50:  MOVLW  01
03C52:  MOVWF  x62
03C54:  MOVLB  0
03C56:  CALL   1A6C
03C5A:  BSF    FC2.1
03C5C:  BTFSC  FC2.1
03C5E:  BRA    3C5C
03C60:  MOVFF  FC4,45F
03C64:  MOVFF  FC3,45E
03C68:  MOVLB  0
03C6A:  CALL   1A94
03C6E:  MOVFF  03,456
03C72:  MOVFF  02,455
03C76:  MOVFF  01,454
03C7A:  MOVFF  00,453
03C7E:  MOVFF  453,00
03C82:  MOVFF  454,01
03C86:  MOVFF  455,02
03C8A:  MOVFF  456,03
.................... } 
03C8E:  RETLW  00
.................... float LeerPT100(int media) 
.................... { 
*
03D86:  MOVLB  4
03D88:  CLRF   x4D
03D8A:  CLRF   x4C
03D8C:  CLRF   x4B
03D8E:  CLRF   x4A
03D90:  CLRF   x51
03D92:  CLRF   x50
03D94:  CLRF   x4F
03D96:  CLRF   x4E
....................    float ajp=0.0,ajn=0.0; 
....................    Prom=0.0; 
03D98:  MOVLB  2
03D9A:  CLRF   xFC
03D9C:  CLRF   xFB
03D9E:  CLRF   xFA
03DA0:  CLRF   xF9
....................    V0 = sensores(0);   //Lectura de Divisor de Voltaje de PT100 con resistencia de 6.18k (+-2%) 
03DA2:  MOVLB  4
03DA4:  CLRF   x52
03DA6:  MOVLB  0
03DA8:  RCALL  3C38
03DAA:  MOVFF  03,2E8
03DAE:  MOVFF  02,2E7
03DB2:  MOVFF  01,2E6
03DB6:  MOVFF  00,2E5
....................    V0 = V0/105.56; // Se elimina la ganancia 
03DBA:  MOVFF  2E8,455
03DBE:  MOVFF  2E7,454
03DC2:  MOVFF  2E6,453
03DC6:  MOVFF  2E5,452
03DCA:  MOVLW  B8
03DCC:  MOVLB  4
03DCE:  MOVWF  x59
03DD0:  MOVLW  1E
03DD2:  MOVWF  x58
03DD4:  MOVLW  53
03DD6:  MOVWF  x57
03DD8:  MOVLW  85
03DDA:  MOVWF  x56
03DDC:  MOVLB  0
03DDE:  CALL   1ACA
03DE2:  MOVFF  03,2E8
03DE6:  MOVFF  02,2E7
03DEA:  MOVFF  01,2E6
03DEE:  MOVFF  00,2E5
....................    //V0 += 14.82; 
....................    V0 += 14.79;//5.039V 72.5mV 
03DF2:  BCF    FD8.1
03DF4:  MOVFF  2E8,461
03DF8:  MOVFF  2E7,460
03DFC:  MOVFF  2E6,45F
03E00:  MOVFF  2E5,45E
03E04:  MOVLW  D7
03E06:  MOVLB  4
03E08:  MOVWF  x65
03E0A:  MOVLW  A3
03E0C:  MOVWF  x64
03E0E:  MOVLW  6C
03E10:  MOVWF  x63
03E12:  MOVLW  82
03E14:  MOVWF  x62
03E16:  MOVLB  0
03E18:  CALL   1C28
03E1C:  MOVFF  03,2E8
03E20:  MOVFF  02,2E7
03E24:  MOVFF  01,2E6
03E28:  MOVFF  00,2E5
....................    Pt=R10/((1023/V0)-1); 
03E2C:  MOVLB  4
03E2E:  CLRF   x55
03E30:  MOVLW  C0
03E32:  MOVWF  x54
03E34:  MOVLW  7F
03E36:  MOVWF  x53
03E38:  MOVLW  88
03E3A:  MOVWF  x52
03E3C:  MOVFF  2E8,459
03E40:  MOVFF  2E7,458
03E44:  MOVFF  2E6,457
03E48:  MOVFF  2E5,456
03E4C:  MOVLB  0
03E4E:  CALL   1ACA
03E52:  MOVFF  00,452
03E56:  MOVFF  01,453
03E5A:  MOVFF  02,454
03E5E:  MOVFF  03,455
03E62:  BSF    FD8.1
03E64:  MOVFF  03,461
03E68:  MOVFF  02,460
03E6C:  MOVFF  01,45F
03E70:  MOVFF  00,45E
03E74:  MOVLB  4
03E76:  CLRF   x65
03E78:  CLRF   x64
03E7A:  CLRF   x63
03E7C:  MOVLW  7F
03E7E:  MOVWF  x62
03E80:  MOVLB  0
03E82:  CALL   1C28
03E86:  MOVFF  2B6,455
03E8A:  MOVFF  2B5,454
03E8E:  MOVFF  2B4,453
03E92:  MOVFF  2B3,452
03E96:  MOVFF  03,459
03E9A:  MOVFF  02,458
03E9E:  MOVFF  01,457
03EA2:  MOVFF  00,456
03EA6:  CALL   1ACA
03EAA:  MOVFF  03,2EC
03EAE:  MOVFF  02,2EB
03EB2:  MOVFF  01,2EA
03EB6:  MOVFF  00,2E9
....................              
....................    if(l>(media-1)) 
03EBA:  MOVLW  01
03EBC:  MOVLB  4
03EBE:  SUBWF  x49,W
03EC0:  MOVLB  2
03EC2:  SUBWF  xD8,W
03EC4:  BZ    3ECA
03EC6:  BNC   3ECA
....................    {l=0;} 
03EC8:  CLRF   xD8
....................    //promedio[l]=Temperature;l++; 
....................    promedio[l]=Pt;l++; 
03ECA:  MOVLB  4
03ECC:  CLRF   x63
03ECE:  MOVFF  2D8,462
03ED2:  CLRF   x65
03ED4:  MOVLW  04
03ED6:  MOVWF  x64
03ED8:  MOVLB  0
03EDA:  CALL   1EA0
03EDE:  MOVF   01,W
03EE0:  ADDLW  C3
03EE2:  MOVWF  FE9
03EE4:  MOVLW  00
03EE6:  ADDWFC 02,W
03EE8:  MOVWF  FEA
03EEA:  MOVFF  2E9,FEF
03EEE:  MOVFF  2EA,FEC
03EF2:  MOVFF  2EB,FEC
03EF6:  MOVFF  2EC,FEC
03EFA:  MOVLB  2
03EFC:  INCF   xD8,F
....................           
....................    for(h=0;h<media;h++) 
03EFE:  CLRF   xD7
03F00:  MOVLB  4
03F02:  MOVF   x49,W
03F04:  MOVLB  2
03F06:  SUBWF  xD7,W
03F08:  BC    3F8A
....................    { 
....................       Prom+=promedio[h]; 
03F0A:  MOVLB  4
03F0C:  CLRF   x63
03F0E:  MOVFF  2D7,462
03F12:  CLRF   x65
03F14:  MOVLW  04
03F16:  MOVWF  x64
03F18:  MOVLB  0
03F1A:  CALL   1EA0
03F1E:  MOVFF  02,03
03F22:  MOVF   01,W
03F24:  ADDLW  C3
03F26:  MOVWF  FE9
03F28:  MOVLW  00
03F2A:  ADDWFC 02,W
03F2C:  MOVWF  FEA
03F2E:  MOVFF  FEF,00
03F32:  MOVFF  FEC,01
03F36:  MOVFF  FEC,02
03F3A:  MOVFF  FEC,03
03F3E:  MOVFF  FEA,453
03F42:  MOVFF  FE9,452
03F46:  BCF    FD8.1
03F48:  MOVFF  2FC,461
03F4C:  MOVFF  2FB,460
03F50:  MOVFF  2FA,45F
03F54:  MOVFF  2F9,45E
03F58:  MOVFF  03,465
03F5C:  MOVFF  02,464
03F60:  MOVFF  01,463
03F64:  MOVFF  00,462
03F68:  CALL   1C28
03F6C:  MOVFF  453,FEA
03F70:  MOVFF  452,FE9
03F74:  MOVFF  03,2FC
03F78:  MOVFF  02,2FB
03F7C:  MOVFF  01,2FA
03F80:  MOVFF  00,2F9
....................    }  
03F84:  MOVLB  2
03F86:  INCF   xD7,F
03F88:  BRA    3F00
....................    Prom=Prom/media;    
03F8A:  MOVLB  4
03F8C:  CLRF   x5F
03F8E:  MOVFF  449,45E
03F92:  MOVLB  0
03F94:  CALL   1A94
03F98:  MOVFF  2FC,455
03F9C:  MOVFF  2FB,454
03FA0:  MOVFF  2FA,453
03FA4:  MOVFF  2F9,452
03FA8:  MOVFF  03,459
03FAC:  MOVFF  02,458
03FB0:  MOVFF  01,457
03FB4:  MOVFF  00,456
03FB8:  CALL   1ACA
03FBC:  MOVFF  03,2FC
03FC0:  MOVFF  02,2FB
03FC4:  MOVFF  01,2FA
03FC8:  MOVFF  00,2F9
....................    //Temperature=(Prom-100.0)/(0.385);  // Ecuacin determinada por linealizacin en Matlab. Revisar este polinomio.   
....................    Temperature=((Prom*Prom)*a)+(Prom*b)+c;  // Ecuacin determinada por linealizacin en Matlab. Revisar este polinomio. 
03FCC:  MOVFF  2FC,465
03FD0:  MOVFF  2FB,464
03FD4:  MOVFF  2FA,463
03FD8:  MOVFF  2F9,462
03FDC:  MOVFF  2FC,469
03FE0:  MOVFF  2FB,468
03FE4:  MOVFF  2FA,467
03FE8:  MOVFF  2F9,466
03FEC:  RCALL  3C90
03FEE:  MOVFF  00,452
03FF2:  MOVFF  01,453
03FF6:  MOVFF  02,454
03FFA:  MOVFF  03,455
03FFE:  MOVFF  03,465
04002:  MOVFF  02,464
04006:  MOVFF  01,463
0400A:  MOVFF  00,462
0400E:  MOVFF  330,469
04012:  MOVFF  32F,468
04016:  MOVFF  32E,467
0401A:  MOVFF  32D,466
0401E:  RCALL  3C90
04020:  MOVFF  00,452
04024:  MOVFF  01,453
04028:  MOVFF  02,454
0402C:  MOVFF  03,455
04030:  MOVFF  2FC,465
04034:  MOVFF  2FB,464
04038:  MOVFF  2FA,463
0403C:  MOVFF  2F9,462
04040:  MOVFF  334,469
04044:  MOVFF  333,468
04048:  MOVFF  332,467
0404C:  MOVFF  331,466
04050:  RCALL  3C90
04052:  BCF    FD8.1
04054:  MOVFF  455,461
04058:  MOVFF  454,460
0405C:  MOVFF  453,45F
04060:  MOVFF  452,45E
04064:  MOVFF  03,465
04068:  MOVFF  02,464
0406C:  MOVFF  01,463
04070:  MOVFF  00,462
04074:  CALL   1C28
04078:  MOVFF  00,452
0407C:  MOVFF  01,453
04080:  MOVFF  02,454
04084:  MOVFF  03,455
04088:  BCF    FD8.1
0408A:  MOVFF  03,461
0408E:  MOVFF  02,460
04092:  MOVFF  01,45F
04096:  MOVFF  00,45E
0409A:  MOVFF  338,465
0409E:  MOVFF  337,464
040A2:  MOVFF  336,463
040A6:  MOVFF  335,462
040AA:  CALL   1C28
040AE:  MOVFF  03,300
040B2:  MOVFF  02,2FF
040B6:  MOVFF  01,2FE
040BA:  MOVFF  00,2FD
....................    ajp=(float)Ajuste; 
040BE:  MOVLB  4
040C0:  CLRF   x5F
040C2:  MOVFF  2D9,45E
040C6:  MOVLB  0
040C8:  CALL   1A94
040CC:  MOVFF  03,44D
040D0:  MOVFF  02,44C
040D4:  MOVFF  01,44B
040D8:  MOVFF  00,44A
....................    ajp=ajp/10; 
040DC:  MOVFF  44D,455
040E0:  MOVFF  44C,454
040E4:  MOVFF  44B,453
040E8:  MOVFF  44A,452
040EC:  MOVLB  4
040EE:  CLRF   x59
040F0:  CLRF   x58
040F2:  MOVLW  20
040F4:  MOVWF  x57
040F6:  MOVLW  82
040F8:  MOVWF  x56
040FA:  MOVLB  0
040FC:  CALL   1ACA
04100:  MOVFF  03,44D
04104:  MOVFF  02,44C
04108:  MOVFF  01,44B
0410C:  MOVFF  00,44A
....................    ajn=(float)Ajusten; 
04110:  MOVLB  4
04112:  CLRF   x5F
04114:  MOVFF  2DA,45E
04118:  MOVLB  0
0411A:  CALL   1A94
0411E:  MOVFF  03,451
04122:  MOVFF  02,450
04126:  MOVFF  01,44F
0412A:  MOVFF  00,44E
....................    ajn=ajn/10; 
0412E:  MOVFF  451,455
04132:  MOVFF  450,454
04136:  MOVFF  44F,453
0413A:  MOVFF  44E,452
0413E:  MOVLB  4
04140:  CLRF   x59
04142:  CLRF   x58
04144:  MOVLW  20
04146:  MOVWF  x57
04148:  MOVLW  82
0414A:  MOVWF  x56
0414C:  MOVLB  0
0414E:  CALL   1ACA
04152:  MOVFF  03,451
04156:  MOVFF  02,450
0415A:  MOVFF  01,44F
0415E:  MOVFF  00,44E
....................    Temperature+=(ajp-ajn); 
04162:  BSF    FD8.1
04164:  MOVFF  44D,461
04168:  MOVFF  44C,460
0416C:  MOVFF  44B,45F
04170:  MOVFF  44A,45E
04174:  MOVFF  451,465
04178:  MOVFF  450,464
0417C:  MOVFF  44F,463
04180:  MOVFF  44E,462
04184:  CALL   1C28
04188:  BCF    FD8.1
0418A:  MOVFF  300,461
0418E:  MOVFF  2FF,460
04192:  MOVFF  2FE,45F
04196:  MOVFF  2FD,45E
0419A:  MOVFF  03,465
0419E:  MOVFF  02,464
041A2:  MOVFF  01,463
041A6:  MOVFF  00,462
041AA:  CALL   1C28
041AE:  MOVFF  03,300
041B2:  MOVFF  02,2FF
041B6:  MOVFF  01,2FE
041BA:  MOVFF  00,2FD
....................    //Temperature-=39.0; 
....................     
....................    //return Prom; 
....................    return Temperature; 
041BE:  MOVFF  2FD,00
041C2:  MOVFF  2FE,01
041C6:  MOVFF  2FF,02
041CA:  MOVFF  300,03
.................... } 
041CE:  RETLW  00
....................  
.................... float Leer_Sensor_Presion_Camara(int media){ 
....................    promediopresion=0.0; 
041D0:  MOVLB  2
041D2:  CLRF   xCA
041D4:  CLRF   xC9
041D6:  CLRF   xC8
041D8:  CLRF   xC7
....................    V1 = sensores(2);   //Lectura de Divisor de Voltaje de PT100 con resistencia de 1k (+-10%) 
041DA:  MOVLW  02
041DC:  MOVLB  4
041DE:  MOVWF  x52
041E0:  MOVLB  0
041E2:  RCALL  3C38
041E4:  MOVFF  03,318
041E8:  MOVFF  02,317
041EC:  MOVFF  01,316
041F0:  MOVFF  00,315
....................    //V1 = V1*(5.0/1024.0); 
....................    //Presion=(V1-0.2)/(K); 
....................    Presion=(((V1)/1023)-0.04)/K; 
041F4:  MOVFF  318,455
041F8:  MOVFF  317,454
041FC:  MOVFF  316,453
04200:  MOVFF  315,452
04204:  MOVLB  4
04206:  CLRF   x59
04208:  MOVLW  C0
0420A:  MOVWF  x58
0420C:  MOVLW  7F
0420E:  MOVWF  x57
04210:  MOVLW  88
04212:  MOVWF  x56
04214:  MOVLB  0
04216:  CALL   1ACA
0421A:  MOVFF  00,44A
0421E:  MOVFF  01,44B
04222:  MOVFF  02,44C
04226:  MOVFF  03,44D
0422A:  BSF    FD8.1
0422C:  MOVFF  03,461
04230:  MOVFF  02,460
04234:  MOVFF  01,45F
04238:  MOVFF  00,45E
0423C:  MOVLW  0A
0423E:  MOVLB  4
04240:  MOVWF  x65
04242:  MOVLW  D7
04244:  MOVWF  x64
04246:  MOVLW  23
04248:  MOVWF  x63
0424A:  MOVLW  7A
0424C:  MOVWF  x62
0424E:  MOVLB  0
04250:  CALL   1C28
04254:  MOVFF  00,44A
04258:  MOVFF  01,44B
0425C:  MOVFF  02,44C
04260:  MOVFF  03,44D
04264:  MOVFF  03,455
04268:  MOVFF  02,454
0426C:  MOVFF  01,453
04270:  MOVFF  00,452
04274:  MOVFF  32C,459
04278:  MOVFF  32B,458
0427C:  MOVFF  32A,457
04280:  MOVFF  329,456
04284:  CALL   1ACA
04288:  MOVFF  03,31C
0428C:  MOVFF  02,31B
04290:  MOVFF  01,31A
04294:  MOVFF  00,319
....................     
....................    if(Presion<0.0) 
04298:  MOVFF  31C,450
0429C:  MOVFF  31B,44F
042A0:  MOVFF  31A,44E
042A4:  MOVFF  319,44D
042A8:  MOVLB  4
042AA:  CLRF   x54
042AC:  CLRF   x53
042AE:  CLRF   x52
042B0:  CLRF   x51
042B2:  MOVLB  0
042B4:  CALL   3032
042B8:  BNC   42C4
....................    { 
....................       Presion=0.0; 
042BA:  MOVLB  3
042BC:  CLRF   x1C
042BE:  CLRF   x1B
042C0:  CLRF   x1A
042C2:  CLRF   x19
....................    } 
....................     
....................    if(r>media-1) 
042C4:  MOVLW  01
042C6:  MOVLB  4
042C8:  SUBWF  x49,W
042CA:  MOVLB  3
042CC:  SUBWF  x8B,W
042CE:  BZ    42D4
042D0:  BNC   42D4
....................    {r=0;} 
042D2:  CLRF   x8B
....................    PromPresion[r]=Presion;r++; 
042D4:  MOVF   x8B,W
042D6:  MULLW  04
042D8:  MOVF   FF3,W
042DA:  CLRF   03
042DC:  ADDLW  03
042DE:  MOVWF  FE9
042E0:  MOVLW  02
042E2:  ADDWFC 03,W
042E4:  MOVWF  FEA
042E6:  MOVFF  319,FEF
042EA:  MOVFF  31A,FEC
042EE:  MOVFF  31B,FEC
042F2:  MOVFF  31C,FEC
042F6:  INCF   x8B,F
....................           
....................    for(t=0;t<=(media-1);t++) 
042F8:  CLRF   x8C
042FA:  MOVLW  01
042FC:  MOVLB  4
042FE:  SUBWF  x49,W
04300:  MOVLB  3
04302:  SUBWF  x8C,W
04304:  BZ    4308
04306:  BC    4378
....................    { 
....................       promediopresion+=PromPresion[t]; 
04308:  MOVF   x8C,W
0430A:  MULLW  04
0430C:  MOVF   FF3,W
0430E:  CLRF   03
04310:  ADDLW  03
04312:  MOVWF  FE9
04314:  MOVLW  02
04316:  ADDWFC 03,W
04318:  MOVWF  FEA
0431A:  MOVFF  FEF,00
0431E:  MOVFF  FEC,01
04322:  MOVFF  FEC,02
04326:  MOVFF  FEC,03
0432A:  MOVFF  FEA,44B
0432E:  MOVFF  FE9,44A
04332:  BCF    FD8.1
04334:  MOVFF  2CA,461
04338:  MOVFF  2C9,460
0433C:  MOVFF  2C8,45F
04340:  MOVFF  2C7,45E
04344:  MOVFF  03,465
04348:  MOVFF  02,464
0434C:  MOVFF  01,463
04350:  MOVFF  00,462
04354:  MOVLB  0
04356:  CALL   1C28
0435A:  MOVFF  44B,FEA
0435E:  MOVFF  44A,FE9
04362:  MOVFF  03,2CA
04366:  MOVFF  02,2C9
0436A:  MOVFF  01,2C8
0436E:  MOVFF  00,2C7
....................    }  
04372:  MOVLB  3
04374:  INCF   x8C,F
04376:  BRA    42FA
....................    promediopresion=promediopresion/media;    
04378:  MOVLB  4
0437A:  CLRF   x5F
0437C:  MOVFF  449,45E
04380:  MOVLB  0
04382:  CALL   1A94
04386:  MOVFF  2CA,455
0438A:  MOVFF  2C9,454
0438E:  MOVFF  2C8,453
04392:  MOVFF  2C7,452
04396:  MOVFF  03,459
0439A:  MOVFF  02,458
0439E:  MOVFF  01,457
043A2:  MOVFF  00,456
043A6:  CALL   1ACA
043AA:  MOVFF  03,2CA
043AE:  MOVFF  02,2C9
043B2:  MOVFF  01,2C8
043B6:  MOVFF  00,2C7
....................     
....................    return promediopresion; 
043BA:  MOVFF  2C7,00
043BE:  MOVFF  2C8,01
043C2:  MOVFF  2C9,02
043C6:  MOVFF  2CA,03
.................... } 
043CA:  RETLW  00
....................  
.................... float Leer_Sensor_Presion_PreCamara(int media){ 
....................    promediopresionp=0.0; 
*
04408:  MOVLB  2
0440A:  CLRF   xD6
0440C:  CLRF   xD5
0440E:  CLRF   xD4
04410:  CLRF   xD3
....................    V2 = sensores(3);   //Lectura de Divisor de Voltaje de PT100 con resistencia de 1k (+-10%) 
04412:  MOVLW  03
04414:  MOVLB  4
04416:  MOVWF  x52
04418:  MOVLB  0
0441A:  RCALL  3C38
0441C:  MOVFF  03,320
04420:  MOVFF  02,31F
04424:  MOVFF  01,31E
04428:  MOVFF  00,31D
....................    //V2 = V2*(5.0/1024.0); 
....................    //Presionp=(V2-0.2)/(K); 
....................    Presionp=(((V2)/1023)-0.04)/K; 
0442C:  MOVFF  320,455
04430:  MOVFF  31F,454
04434:  MOVFF  31E,453
04438:  MOVFF  31D,452
0443C:  MOVLB  4
0443E:  CLRF   x59
04440:  MOVLW  C0
04442:  MOVWF  x58
04444:  MOVLW  7F
04446:  MOVWF  x57
04448:  MOVLW  88
0444A:  MOVWF  x56
0444C:  MOVLB  0
0444E:  CALL   1ACA
04452:  MOVFF  00,44A
04456:  MOVFF  01,44B
0445A:  MOVFF  02,44C
0445E:  MOVFF  03,44D
04462:  BSF    FD8.1
04464:  MOVFF  03,461
04468:  MOVFF  02,460
0446C:  MOVFF  01,45F
04470:  MOVFF  00,45E
04474:  MOVLW  0A
04476:  MOVLB  4
04478:  MOVWF  x65
0447A:  MOVLW  D7
0447C:  MOVWF  x64
0447E:  MOVLW  23
04480:  MOVWF  x63
04482:  MOVLW  7A
04484:  MOVWF  x62
04486:  MOVLB  0
04488:  CALL   1C28
0448C:  MOVFF  00,44A
04490:  MOVFF  01,44B
04494:  MOVFF  02,44C
04498:  MOVFF  03,44D
0449C:  MOVFF  03,455
044A0:  MOVFF  02,454
044A4:  MOVFF  01,453
044A8:  MOVFF  00,452
044AC:  MOVFF  32C,459
044B0:  MOVFF  32B,458
044B4:  MOVFF  32A,457
044B8:  MOVFF  329,456
044BC:  CALL   1ACA
044C0:  MOVFF  03,324
044C4:  MOVFF  02,323
044C8:  MOVFF  01,322
044CC:  MOVFF  00,321
....................     
....................    if(Presionp<0.0) 
044D0:  MOVFF  324,450
044D4:  MOVFF  323,44F
044D8:  MOVFF  322,44E
044DC:  MOVFF  321,44D
044E0:  MOVLB  4
044E2:  CLRF   x54
044E4:  CLRF   x53
044E6:  CLRF   x52
044E8:  CLRF   x51
044EA:  MOVLB  0
044EC:  CALL   3032
044F0:  BNC   44FC
....................    { 
....................       Presionp=0.0; 
044F2:  MOVLB  3
044F4:  CLRF   x24
044F6:  CLRF   x23
044F8:  CLRF   x22
044FA:  CLRF   x21
....................    } 
....................     
....................    if(r22>media-1) 
044FC:  MOVLW  01
044FE:  MOVLB  4
04500:  SUBWF  x49,W
04502:  MOVLB  3
04504:  SUBWF  x8D,W
04506:  BZ    450C
04508:  BNC   450C
....................    {r22=0;} 
0450A:  CLRF   x8D
....................    PromPresionp[r22]=Presionp;r22++; 
0450C:  MOVF   x8D,W
0450E:  MULLW  04
04510:  MOVF   FF3,W
04512:  CLRF   03
04514:  ADDLW  53
04516:  MOVWF  FE9
04518:  MOVLW  02
0451A:  ADDWFC 03,W
0451C:  MOVWF  FEA
0451E:  MOVFF  321,FEF
04522:  MOVFF  322,FEC
04526:  MOVFF  323,FEC
0452A:  MOVFF  324,FEC
0452E:  INCF   x8D,F
....................           
....................    for(t2=0;t2<=(media-1);t2++) 
04530:  CLRF   x8E
04532:  MOVLW  01
04534:  MOVLB  4
04536:  SUBWF  x49,W
04538:  MOVLB  3
0453A:  SUBWF  x8E,W
0453C:  BZ    4540
0453E:  BC    45B0
....................    { 
....................       promediopresionp+=PromPresionp[t2]; 
04540:  MOVF   x8E,W
04542:  MULLW  04
04544:  MOVF   FF3,W
04546:  CLRF   03
04548:  ADDLW  53
0454A:  MOVWF  FE9
0454C:  MOVLW  02
0454E:  ADDWFC 03,W
04550:  MOVWF  FEA
04552:  MOVFF  FEF,00
04556:  MOVFF  FEC,01
0455A:  MOVFF  FEC,02
0455E:  MOVFF  FEC,03
04562:  MOVFF  FEA,44B
04566:  MOVFF  FE9,44A
0456A:  BCF    FD8.1
0456C:  MOVFF  2D6,461
04570:  MOVFF  2D5,460
04574:  MOVFF  2D4,45F
04578:  MOVFF  2D3,45E
0457C:  MOVFF  03,465
04580:  MOVFF  02,464
04584:  MOVFF  01,463
04588:  MOVFF  00,462
0458C:  MOVLB  0
0458E:  CALL   1C28
04592:  MOVFF  44B,FEA
04596:  MOVFF  44A,FE9
0459A:  MOVFF  03,2D6
0459E:  MOVFF  02,2D5
045A2:  MOVFF  01,2D4
045A6:  MOVFF  00,2D3
....................    }  
045AA:  MOVLB  3
045AC:  INCF   x8E,F
045AE:  BRA    4532
....................    promediopresionp=promediopresionp/media;    
045B0:  MOVLB  4
045B2:  CLRF   x5F
045B4:  MOVFF  449,45E
045B8:  MOVLB  0
045BA:  CALL   1A94
045BE:  MOVFF  2D6,455
045C2:  MOVFF  2D5,454
045C6:  MOVFF  2D4,453
045CA:  MOVFF  2D3,452
045CE:  MOVFF  03,459
045D2:  MOVFF  02,458
045D6:  MOVFF  01,457
045DA:  MOVFF  00,456
045DE:  CALL   1ACA
045E2:  MOVFF  03,2D6
045E6:  MOVFF  02,2D5
045EA:  MOVFF  01,2D4
045EE:  MOVFF  00,2D3
....................     
....................    return promediopresionp; 
045F2:  MOVFF  2D3,00
045F6:  MOVFF  2D4,01
045FA:  MOVFF  2D5,02
045FE:  MOVFF  2D6,03
.................... } 
04602:  RETLW  00
....................  
.................... void Controla(){ 
....................    if(tiemporecta>=Derivativo/2.0) 
*
07296:  MOVLB  4
07298:  CLRF   x5F
0729A:  MOVFF  33A,45E
0729E:  MOVLB  0
072A0:  CALL   1A94
072A4:  MOVFF  03,455
072A8:  MOVFF  02,454
072AC:  MOVFF  01,453
072B0:  MOVFF  00,452
072B4:  MOVLB  4
072B6:  CLRF   x59
072B8:  CLRF   x58
072BA:  CLRF   x57
072BC:  MOVLW  80
072BE:  MOVWF  x56
072C0:  MOVLB  0
072C2:  CALL   1ACA
072C6:  MOVFF  00,449
072CA:  MOVFF  01,44A
072CE:  MOVFF  02,44B
072D2:  MOVFF  03,44C
072D6:  MOVLB  4
072D8:  CLRF   x5F
072DA:  MOVFF  354,45E
072DE:  MOVLB  0
072E0:  CALL   1A94
072E4:  MOVFF  44C,450
072E8:  MOVFF  44B,44F
072EC:  MOVFF  44A,44E
072F0:  MOVFF  449,44D
072F4:  MOVFF  03,454
072F8:  MOVFF  02,453
072FC:  MOVFF  01,452
07300:  MOVFF  00,451
07304:  CALL   3032
07308:  BC    730C
0730A:  BNZ   7312
....................    { 
....................       ActualizaRecta(); 
0730C:  BRA    7228
....................       tiemporecta=0; 
0730E:  MOVLB  3
07310:  CLRF   x54
....................    }  
.................... //-------------------------------Control de Calentamiento------------------------------------------------------------//          
....................    error=desvio+Setpoint-Temperatura;      // Clculo del error ****** 
07312:  MOVLB  4
07314:  CLRF   x5F
07316:  MOVFF  363,45E
0731A:  MOVLB  0
0731C:  CALL   1A94
07320:  BCF    FD8.1
07322:  MOVFF  310,461
07326:  MOVFF  30F,460
0732A:  MOVFF  30E,45F
0732E:  MOVFF  30D,45E
07332:  MOVFF  03,465
07336:  MOVFF  02,464
0733A:  MOVFF  01,463
0733E:  MOVFF  00,462
07342:  CALL   1C28
07346:  MOVFF  00,449
0734A:  MOVFF  01,44A
0734E:  MOVFF  02,44B
07352:  MOVFF  03,44C
07356:  BSF    FD8.1
07358:  MOVFF  03,461
0735C:  MOVFF  02,460
07360:  MOVFF  01,45F
07364:  MOVFF  00,45E
07368:  MOVFF  328,465
0736C:  MOVFF  327,464
07370:  MOVFF  326,463
07374:  MOVFF  325,462
07378:  CALL   1C28
0737C:  MOVFF  03,2F8
07380:  MOVFF  02,2F7
07384:  MOVFF  01,2F6
07388:  MOVFF  00,2F5
....................     
....................    if(error>1.0 && error<15 && Aumento<0.3){ 
0738C:  MOVLB  4
0738E:  CLRF   x50
07390:  CLRF   x4F
07392:  CLRF   x4E
07394:  MOVLW  7F
07396:  MOVWF  x4D
07398:  MOVFF  2F8,454
0739C:  MOVFF  2F7,453
073A0:  MOVFF  2F6,452
073A4:  MOVFF  2F5,451
073A8:  MOVLB  0
073AA:  CALL   3032
073AE:  BTFSS  FD8.0
073B0:  BRA    75DC
073B2:  MOVFF  2F8,450
073B6:  MOVFF  2F7,44F
073BA:  MOVFF  2F6,44E
073BE:  MOVFF  2F5,44D
073C2:  MOVLB  4
073C4:  CLRF   x54
073C6:  CLRF   x53
073C8:  MOVLW  70
073CA:  MOVWF  x52
073CC:  MOVLW  82
073CE:  MOVWF  x51
073D0:  MOVLB  0
073D2:  CALL   3032
073D6:  BTFSS  FD8.0
073D8:  BRA    75DC
073DA:  MOVFF  2CE,450
073DE:  MOVFF  2CD,44F
073E2:  MOVFF  2CC,44E
073E6:  MOVFF  2CB,44D
073EA:  MOVLW  9A
073EC:  MOVLB  4
073EE:  MOVWF  x54
073F0:  MOVLW  99
073F2:  MOVWF  x53
073F4:  MOVLW  19
073F6:  MOVWF  x52
073F8:  MOVLW  7D
073FA:  MOVWF  x51
073FC:  MOVLB  0
073FE:  CALL   3032
07402:  BTFSS  FD8.0
07404:  BRA    75DC
....................       if(Tpulso<6.0){ 
07406:  MOVFF  2F4,450
0740A:  MOVFF  2F3,44F
0740E:  MOVFF  2F2,44E
07412:  MOVFF  2F1,44D
07416:  MOVLB  4
07418:  CLRF   x54
0741A:  CLRF   x53
0741C:  MOVLW  40
0741E:  MOVWF  x52
07420:  MOVLW  81
07422:  MOVWF  x51
07424:  MOVLB  0
07426:  CALL   3032
0742A:  BTFSS  FD8.0
0742C:  BRA    75D8
....................          flagTC=1; 
0742E:  MOVLB  3
07430:  BSF    x52.3
....................          if(TiempoControl>=Derivativo){ 
07432:  MOVF   x3A,W
07434:  SUBWF  x8F,W
07436:  BTFSS  FD8.0
07438:  BRA    75D4
....................             TiempoControl=0; 
0743A:  CLRF   x8F
....................             if(Aumento<-0.5){ 
0743C:  MOVFF  2CE,450
07440:  MOVFF  2CD,44F
07444:  MOVFF  2CC,44E
07448:  MOVFF  2CB,44D
0744C:  MOVLB  4
0744E:  CLRF   x54
07450:  CLRF   x53
07452:  MOVLW  80
07454:  MOVWF  x52
07456:  MOVLW  7E
07458:  MOVWF  x51
0745A:  MOVLB  0
0745C:  CALL   3032
07460:  BNC   74D2
....................                Ganancia+=Integral+0.2; 
07462:  MOVLB  4
07464:  CLRF   x5F
07466:  MOVFF  339,45E
0746A:  MOVLB  0
0746C:  CALL   1A94
07470:  BCF    FD8.1
07472:  MOVFF  03,461
07476:  MOVFF  02,460
0747A:  MOVFF  01,45F
0747E:  MOVFF  00,45E
07482:  MOVLW  CD
07484:  MOVLB  4
07486:  MOVWF  x65
07488:  MOVLW  CC
0748A:  MOVWF  x64
0748C:  MOVLW  4C
0748E:  MOVWF  x63
07490:  MOVLW  7C
07492:  MOVWF  x62
07494:  MOVLB  0
07496:  CALL   1C28
0749A:  BCF    FD8.1
0749C:  MOVFF  308,461
074A0:  MOVFF  307,460
074A4:  MOVFF  306,45F
074A8:  MOVFF  305,45E
074AC:  MOVFF  03,465
074B0:  MOVFF  02,464
074B4:  MOVFF  01,463
074B8:  MOVFF  00,462
074BC:  CALL   1C28
074C0:  MOVFF  03,308
074C4:  MOVFF  02,307
074C8:  MOVFF  01,306
074CC:  MOVFF  00,305
....................             }else{ 
074D0:  BRA    75D2
....................                if(Aumento<-0.1){ 
074D2:  MOVFF  2CE,450
074D6:  MOVFF  2CD,44F
074DA:  MOVFF  2CC,44E
074DE:  MOVFF  2CB,44D
074E2:  MOVLW  CD
074E4:  MOVLB  4
074E6:  MOVWF  x54
074E8:  MOVLW  CC
074EA:  MOVWF  x53
074EC:  MOVWF  x52
074EE:  MOVLW  7B
074F0:  MOVWF  x51
074F2:  MOVLB  0
074F4:  CALL   3032
074F8:  BNC   756A
....................                   Ganancia+=Integral-0.2; 
074FA:  MOVLB  4
074FC:  CLRF   x5F
074FE:  MOVFF  339,45E
07502:  MOVLB  0
07504:  CALL   1A94
07508:  BSF    FD8.1
0750A:  MOVFF  03,461
0750E:  MOVFF  02,460
07512:  MOVFF  01,45F
07516:  MOVFF  00,45E
0751A:  MOVLW  CD
0751C:  MOVLB  4
0751E:  MOVWF  x65
07520:  MOVLW  CC
07522:  MOVWF  x64
07524:  MOVLW  4C
07526:  MOVWF  x63
07528:  MOVLW  7C
0752A:  MOVWF  x62
0752C:  MOVLB  0
0752E:  CALL   1C28
07532:  BCF    FD8.1
07534:  MOVFF  308,461
07538:  MOVFF  307,460
0753C:  MOVFF  306,45F
07540:  MOVFF  305,45E
07544:  MOVFF  03,465
07548:  MOVFF  02,464
0754C:  MOVFF  01,463
07550:  MOVFF  00,462
07554:  CALL   1C28
07558:  MOVFF  03,308
0755C:  MOVFF  02,307
07560:  MOVFF  01,306
07564:  MOVFF  00,305
....................                }else{ 
07568:  BRA    75D2
....................                   Ganancia+=Integral-0.5; 
0756A:  MOVLB  4
0756C:  CLRF   x5F
0756E:  MOVFF  339,45E
07572:  MOVLB  0
07574:  CALL   1A94
07578:  BSF    FD8.1
0757A:  MOVFF  03,461
0757E:  MOVFF  02,460
07582:  MOVFF  01,45F
07586:  MOVFF  00,45E
0758A:  MOVLB  4
0758C:  CLRF   x65
0758E:  CLRF   x64
07590:  CLRF   x63
07592:  MOVLW  7E
07594:  MOVWF  x62
07596:  MOVLB  0
07598:  CALL   1C28
0759C:  BCF    FD8.1
0759E:  MOVFF  308,461
075A2:  MOVFF  307,460
075A6:  MOVFF  306,45F
075AA:  MOVFF  305,45E
075AE:  MOVFF  03,465
075B2:  MOVFF  02,464
075B6:  MOVFF  01,463
075BA:  MOVFF  00,462
075BE:  CALL   1C28
075C2:  MOVFF  03,308
075C6:  MOVFF  02,307
075CA:  MOVFF  01,306
075CE:  MOVFF  00,305
075D2:  MOVLB  3
....................                } 
....................             } 
....................          } 
....................       }else{ 
075D4:  BRA    75DC
075D6:  MOVLB  0
....................          flagTC=0; 
075D8:  MOVLB  3
075DA:  BCF    x52.3
....................       } 
....................    } 
....................     
....................    if(error<-0.3) 
075DC:  MOVFF  2F8,450
075E0:  MOVFF  2F7,44F
075E4:  MOVFF  2F6,44E
075E8:  MOVFF  2F5,44D
075EC:  MOVLW  9A
075EE:  MOVLB  4
075F0:  MOVWF  x54
075F2:  MOVLW  99
075F4:  MOVWF  x53
075F6:  MOVWF  x52
075F8:  MOVLW  7D
075FA:  MOVWF  x51
075FC:  MOVLB  0
075FE:  CALL   3032
07602:  BNC   7614
....................       Ganancia=Ganancia2; 
07604:  MOVFF  30C,308
07608:  MOVFF  30B,307
0760C:  MOVFF  30A,306
07610:  MOVFF  309,305
....................     
....................    if(Ganancia<1) 
07614:  MOVFF  308,450
07618:  MOVFF  307,44F
0761C:  MOVFF  306,44E
07620:  MOVFF  305,44D
07624:  MOVLB  4
07626:  CLRF   x54
07628:  CLRF   x53
0762A:  CLRF   x52
0762C:  MOVLW  7F
0762E:  MOVWF  x51
07630:  MOVLB  0
07632:  CALL   3032
07636:  BNC   7644
....................       Ganancia=1; 
07638:  MOVLB  3
0763A:  CLRF   x08
0763C:  CLRF   x07
0763E:  CLRF   x06
07640:  MOVLW  7F
07642:  MOVWF  x05
....................        
....................    if(error<0.0)     // Anti Wind_DOWN     
07644:  MOVFF  2F8,450
07648:  MOVFF  2F7,44F
0764C:  MOVFF  2F6,44E
07650:  MOVFF  2F5,44D
07654:  MOVLB  4
07656:  CLRF   x54
07658:  CLRF   x53
0765A:  CLRF   x52
0765C:  CLRF   x51
0765E:  MOVLB  0
07660:  CALL   3032
07664:  BNC   7672
....................       error=0.0; 
07666:  MOVLB  2
07668:  CLRF   xF8
0766A:  CLRF   xF7
0766C:  CLRF   xF6
0766E:  CLRF   xF5
07670:  MOVLB  0
....................     
....................    //tmp=(Setpoint-Prom)*Ganancia;  // Control Proporcional. 
....................    tmp=error*Ganancia;  // Control Proporcional. 
07672:  MOVFF  2F8,465
07676:  MOVFF  2F7,464
0767A:  MOVFF  2F6,463
0767E:  MOVFF  2F5,462
07682:  MOVFF  308,469
07686:  MOVFF  307,468
0768A:  MOVFF  306,467
0768E:  MOVFF  305,466
07692:  CALL   3C90
07696:  MOVFF  03,304
0769A:  MOVFF  02,303
0769E:  MOVFF  01,302
076A2:  MOVFF  00,301
....................           
....................    if(tmp>Setpoint)   // Anti Wind-UP       
076A6:  MOVLB  4
076A8:  CLRF   x5F
076AA:  MOVFF  363,45E
076AE:  MOVLB  0
076B0:  CALL   1A94
076B4:  MOVFF  03,450
076B8:  MOVFF  02,44F
076BC:  MOVFF  01,44E
076C0:  MOVFF  00,44D
076C4:  MOVFF  304,454
076C8:  MOVFF  303,453
076CC:  MOVFF  302,452
076D0:  MOVFF  301,451
076D4:  CALL   3032
076D8:  BNC   76F8
....................       tmp=Setpoint; 
076DA:  MOVLB  4
076DC:  CLRF   x5F
076DE:  MOVFF  363,45E
076E2:  MOVLB  0
076E4:  CALL   1A94
076E8:  MOVFF  03,304
076EC:  MOVFF  02,303
076F0:  MOVFF  01,302
076F4:  MOVFF  00,301
....................                   
....................    if(tmp<0.0)     // Anti Wind_DOWN     
076F8:  MOVFF  304,450
076FC:  MOVFF  303,44F
07700:  MOVFF  302,44E
07704:  MOVFF  301,44D
07708:  MOVLB  4
0770A:  CLRF   x54
0770C:  CLRF   x53
0770E:  CLRF   x52
07710:  CLRF   x51
07712:  MOVLB  0
07714:  CALL   3032
07718:  BNC   7724
....................       tmp=0.0; 
0771A:  MOVLB  3
0771C:  CLRF   x04
0771E:  CLRF   x03
07720:  CLRF   x02
07722:  CLRF   x01
....................     
....................    // Tpulso(t)= Tciclo*(y(t)-ymin)/(ymax - ymin); calculo de ciclo util para control de resistencia.ymax=140.ymin=0; 
....................    // Tpulso es float, hay que pasar ese ciclo a una salida de un puerto usando el TMR1. 
....................    tmp2=(tmp/Setpoint); 
07724:  MOVLB  4
07726:  CLRF   x5F
07728:  MOVFF  363,45E
0772C:  MOVLB  0
0772E:  CALL   1A94
07732:  MOVFF  304,455
07736:  MOVFF  303,454
0773A:  MOVFF  302,453
0773E:  MOVFF  301,452
07742:  MOVFF  03,459
07746:  MOVFF  02,458
0774A:  MOVFF  01,457
0774E:  MOVFF  00,456
07752:  CALL   1ACA
07756:  MOVFF  03,314
0775A:  MOVFF  02,313
0775E:  MOVFF  01,312
07762:  MOVFF  00,311
....................    //if(tmp2>0.8) 
....................    //tmp2=0.8; 
....................    Tpulso=tmp2*Tciclo;   
07766:  MOVFF  314,465
0776A:  MOVFF  313,464
0776E:  MOVFF  312,463
07772:  MOVFF  311,462
07776:  MOVFF  2F0,469
0777A:  MOVFF  2EF,468
0777E:  MOVFF  2EE,467
07782:  MOVFF  2ED,466
07786:  CALL   3C90
0778A:  MOVFF  03,2F4
0778E:  MOVFF  02,2F3
07792:  MOVFF  01,2F2
07796:  MOVFF  00,2F1
....................                                        
....................    Tp=(Tpulso/0.005); 
0779A:  MOVFF  2F4,455
0779E:  MOVFF  2F3,454
077A2:  MOVFF  2F2,453
077A6:  MOVFF  2F1,452
077AA:  MOVLW  0A
077AC:  MOVLB  4
077AE:  MOVWF  x59
077B0:  MOVLW  D7
077B2:  MOVWF  x58
077B4:  MOVLW  23
077B6:  MOVWF  x57
077B8:  MOVLW  77
077BA:  MOVWF  x56
077BC:  MOVLB  0
077BE:  CALL   1ACA
077C2:  MOVFF  03,461
077C6:  MOVFF  02,460
077CA:  MOVFF  01,45F
077CE:  MOVFF  00,45E
077D2:  CALL   43CC
077D6:  MOVFF  02,AC
077DA:  MOVFF  01,AB
....................    Tc=(Tciclo/0.005); 
077DE:  MOVFF  2F0,455
077E2:  MOVFF  2EF,454
077E6:  MOVFF  2EE,453
077EA:  MOVFF  2ED,452
077EE:  MOVLW  0A
077F0:  MOVLB  4
077F2:  MOVWF  x59
077F4:  MOVLW  D7
077F6:  MOVWF  x58
077F8:  MOVLW  23
077FA:  MOVWF  x57
077FC:  MOVLW  77
077FE:  MOVWF  x56
07800:  MOVLB  0
07802:  CALL   1ACA
07806:  MOVFF  03,461
0780A:  MOVFF  02,460
0780E:  MOVFF  01,45F
07812:  MOVFF  00,45E
07816:  CALL   43CC
0781A:  MOVFF  02,AE
0781E:  MOVFF  01,AD
....................    Controlando=1;    
07822:  MOVLW  01
07824:  MOVLB  3
07826:  MOVWF  x55
.................... //--------------------------------------------------------------------------------------------------------------------//    
.................... } 
07828:  MOVLB  0
0782A:  RETLW  00
....................  
.................... void ControlaPresion(){ 
....................    float prc=0.0;    
....................    if(tiemporecta>=Derivativo/2.0){ 
....................       ActualizaRectaPresion(); 
....................       tiemporecta=0; 
....................    }  
....................    prc=(float)PresionCamara; 
....................    Tactual=((prc)*(prc)*(prc)*p1)+((prc)*(prc)*p2)+(p3*prc)+p4; 
.................... //-------------------------------Control de Calentamiento------------------------------------------------------------//          
....................    if(Esterilizando){ 
....................       error=desvio+Setpoint-Tactual;      // Clculo del error ****** 
....................    }else{ 
....................       error=desvio+1.0+Setpoint-Tactual;      // Clculo del error ****** 
....................    } 
....................     
....................    if(error>1.0 && error<20 && Aumento2<0.3){ 
....................       if(Tpulso<=6.0){ 
....................          flagTC=1; 
....................          if(TiempoControl>=Derivativo){ 
....................             TiempoControl=0; 
....................             if(Aumento2<-0.5){ 
....................                Ganancia+=Integral+0.2; 
....................             }else{ 
....................                if(Aumento2<-0.1){ 
....................                   Ganancia+=Integral-0.2; 
....................                }else{ 
....................                   Ganancia+=Integral-0.5; 
....................                } 
....................             } 
....................          } 
....................       }else{ 
....................          flagTC=0; 
....................       } 
....................    } 
....................     
....................    if(error<-0.3) 
....................       Ganancia=Ganancia2; 
....................     
....................    if(Ganancia<1) 
....................       Ganancia=1; 
....................     
....................    if(error<0.0)     // Anti Wind_DOWN     
....................       error=0.0; 
....................    //tmp=(Setpoint-Prom)*Ganancia;  // Control Proporcional. 
....................    tmp=error*Ganancia;  // Control Proporcional. 
....................           
....................    if(tmp>Setpoint)   // Anti Wind-UP       
....................       tmp=Setpoint; 
....................                 
....................    if(tmp<0.0)     // Anti Wind_DOWN     
....................       tmp=0.0; 
....................     
....................    // Tpulso(t)= Tciclo*(y(t)-ymin)/(ymax - ymin); calculo de ciclo util para control de resistencia.ymax=140.ymin=0; 
....................    // Tpulso es float, hay que pasar ese ciclo a una salida de un puerto usando el TMR1. 
....................    tmp2=(tmp/Setpoint); 
....................    //if(tmp2>0.8) 
....................    //tmp2=0.8; 
....................    Tpulso=tmp2*Tciclo;   
....................                                        
....................    Tp=(Tpulso/0.005); 
....................    Tc=(Tciclo/0.005); 
....................    Controlando=1;    
.................... //--------------------------------------------------------------------------------------------------------------------//    
.................... } 
....................  
....................  
.................... void Envio_I2C(direccion, posicion, dato){ 
....................  
....................    i2c_start();            // Comienzo comunicacin 
....................    i2c_write(direccion);   // Direccin del esclavo en el bus I2C 
....................    i2c_write(posicion);    // Posicin donde se guardara el dato transmitido 
....................    i2c_write(dato);        // Dato a transmitir 
....................    i2c_stop();             // Fin comunicacin 
....................  } 
....................  
.................... void Lectura_I2C (byte direccion, byte posicion, byte &dato) { 
....................  
....................    i2c_start();            // Comienzo de la comunicacin 
....................    i2c_write(direccion);   // Direccin del esclavo en el bus I2C 
....................    i2c_write(posicion);    // Posicin de donde se leer el dato en el esclavo 
....................    i2c_start();            // Reinicio 
....................    i2c_write(direccion+1); // Direccin del esclavo en modo lectura 
....................    dato=i2c_read(0);       // Lectura del dato 
....................    i2c_stop();             // Fin comunicacin 
.................... } 
....................  
.................... void Carga_Vector(void){ 
....................    SlaveA0Tx[0]=(int8)Temperatura; 
*
04794:  MOVFF  328,461
04798:  MOVFF  327,460
0479C:  MOVFF  326,45F
047A0:  MOVFF  325,45E
047A4:  RCALL  43CC
047A6:  MOVFF  01,64
....................    SlaveA0Tx[1]=(Temperatura-((int8)Temperatura))*10; 
047AA:  MOVFF  328,461
047AE:  MOVFF  327,460
047B2:  MOVFF  326,45F
047B6:  MOVFF  325,45E
047BA:  RCALL  43CC
047BC:  MOVLB  4
047BE:  CLRF   x5F
047C0:  MOVFF  01,45E
047C4:  MOVLB  0
047C6:  CALL   1A94
047CA:  BSF    FD8.1
047CC:  MOVFF  328,461
047D0:  MOVFF  327,460
047D4:  MOVFF  326,45F
047D8:  MOVFF  325,45E
047DC:  MOVFF  03,465
047E0:  MOVFF  02,464
047E4:  MOVFF  01,463
047E8:  MOVFF  00,462
047EC:  CALL   1C28
047F0:  MOVFF  00,45E
047F4:  MOVFF  01,45F
047F8:  MOVFF  02,460
047FC:  MOVFF  03,461
04800:  MOVFF  03,465
04804:  MOVFF  02,464
04808:  MOVFF  01,463
0480C:  MOVFF  00,462
04810:  MOVLB  4
04812:  CLRF   x69
04814:  CLRF   x68
04816:  MOVLW  20
04818:  MOVWF  x67
0481A:  MOVLW  82
0481C:  MOVWF  x66
0481E:  MOVLB  0
04820:  CALL   3C90
04824:  MOVFF  03,461
04828:  MOVFF  02,460
0482C:  MOVFF  01,45F
04830:  MOVFF  00,45E
04834:  RCALL  43CC
04836:  MOVFF  01,65
....................    SlaveA0Tx[2]=make8((int16)PresionCamara,0); 
0483A:  MOVFF  375,66
0483E:  MOVLB  0
....................    SlaveA0Tx[3]=make8((int16)PresionCamara,1); 
04840:  MOVFF  376,67
04844:  MOVLB  0
....................    SlaveA0Tx[4]=make8((int16)PresionPreCamara,0); 
04846:  MOVFF  377,68
0484A:  MOVLB  0
....................    SlaveA0Tx[5]=make8((int16)PresionPreCamara,1); 
0484C:  MOVFF  378,69
04850:  MOVLB  0
....................    SlaveA0Tx[6]=(int8)Tpulso*10; 
04852:  MOVFF  2F4,461
04856:  MOVFF  2F3,460
0485A:  MOVFF  2F2,45F
0485E:  MOVFF  2F1,45E
04862:  RCALL  43CC
04864:  MOVF   01,W
04866:  MULLW  0A
04868:  MOVFF  FF3,6A
....................    SlaveA0Tx[7]=HIG; 
0486C:  BSF    F94.0
0486E:  CLRF   x6B
04870:  BTFSC  F82.0
04872:  INCF   x6B,F
....................    SlaveA0Tx[8]=LOW; 
04874:  BSF    F94.1
04876:  CLRF   x6C
04878:  BTFSC  F82.1
0487A:  INCF   x6C,F
....................    SlaveA0Tx[9]=TERM; 
0487C:  BSF    F93.5
0487E:  CLRF   x6D
04880:  BTFSS  F81.5
04882:  INCF   x6D,F
....................    SlaveA0Tx[10]=DOOR; 
04884:  BSF    F93.6
04886:  CLRF   x6E
04888:  BTFSS  F81.6
0488A:  INCF   x6E,F
....................    SlaveA0Tx[11]=STOP; 
0488C:  BSF    F93.7
0488E:  CLRF   x6F
04890:  BTFSS  F81.7
04892:  INCF   x6F,F
....................    SlaveA0Tx[12]=(int8)error; 
04894:  MOVFF  2F8,461
04898:  MOVFF  2F7,460
0489C:  MOVFF  2F6,45F
048A0:  MOVFF  2F5,45E
048A4:  RCALL  43CC
048A6:  MOVFF  01,70
....................    SlaveA0Tx[13]=CicloSeleccionado; 
048AA:  MOVFF  362,71
....................    SlaveA0Tx[14]=SetTime; 
048AE:  MOVFF  3B6,72
....................    SlaveA0Tx[15]=Dia; 
048B2:  MOVFF  3AA,73
....................    SlaveA0Tx[16]=Mes; 
048B6:  MOVFF  3A9,74
....................    SlaveA0Tx[17]=Year; 
048BA:  MOVFF  3A8,75
....................    SlaveA0Tx[18]=Hora; 
048BE:  MOVFF  3AB,76
....................    SlaveA0Tx[19]=Minuto; 
048C2:  MOVFF  3AC,77
....................    SlaveA0Tx[20]=Segundo; 
048C6:  MOVFF  3AD,78
....................    SlaveA0Tx[21]=Imprime; 
048CA:  MOVFF  3B7,79
....................    SlaveA0Tx[22]=Aire; 
048CE:  CLRF   x7A
048D0:  BTFSC  xA4.2
048D2:  INCF   x7A,F
....................    SlaveA0Tx[23]=make8(Ciclos,0); 
048D4:  MOVFF  379,7B
048D8:  MOVLB  0
....................    SlaveA0Tx[24]=make8(Ciclos,1); 
048DA:  MOVFF  37A,7C
048DE:  MOVLB  0
.................... } 
048E0:  GOTO   495C (RETURN)
....................  
.................... void Lee_Vector(void){ 
....................    /*Dia=txbuf[0]; 
....................    Mess=txbuf[1]; 
....................    Year=txbuf[2]; 
....................    Hora=txbuf[3]; 
....................    Minuto=txbuf[4]; 
....................    Segundo=txbuf[5]; 
....................    dow=txbuf[6];*/ 
.................... } 
....................  
.................... void Envio_Esclavos(void){ 
....................    Carga_Vector(); 
*
0495A:  BRA    4794
....................    for(i=0;i<25;i++){ 
0495C:  MOVLB  3
0495E:  CLRF   xA3
04960:  CLRF   xA2
04962:  MOVF   xA3,F
04964:  BNZ   49EE
04966:  MOVF   xA2,W
04968:  SUBLW  18
0496A:  BNC   49EE
....................       direccion=0xB0; 
0496C:  MOVLW  B0
0496E:  MOVLB  0
04970:  MOVWF  x85
....................       i2c_start();            // Comienzo comunicacin 
04972:  BSF    F94.4
04974:  MOVLW  05
04976:  MOVWF  00
04978:  DECFSZ 00,F
0497A:  BRA    4978
0497C:  BSF    F94.3
0497E:  MOVLW  06
04980:  MOVWF  00
04982:  DECFSZ 00,F
04984:  BRA    4982
04986:  BCF    F8B.4
04988:  BCF    F94.4
0498A:  MOVLW  05
0498C:  MOVWF  00
0498E:  DECFSZ 00,F
04990:  BRA    498E
04992:  BCF    F8B.3
04994:  BCF    F94.3
....................       i2c_write(direccion);   // Direccin del esclavo en el bus I2C 
04996:  MOVFF  85,46A
0499A:  RCALL  48E4
....................       i2c_write(i);   // Direccin del esclavo en el bus I2C 
0499C:  MOVFF  3A2,46A
049A0:  RCALL  48E4
....................       i2c_write(0);    // Posicin donde se guardara el dato transmitido 
049A2:  MOVLB  4
049A4:  CLRF   x6A
049A6:  MOVLB  0
049A8:  RCALL  48E4
....................       i2c_write(SlaveA0Tx[i]); // Dato a transmitir 
049AA:  MOVLW  64
049AC:  MOVLB  3
049AE:  ADDWF  xA2,W
049B0:  MOVWF  FE9
049B2:  MOVLW  00
049B4:  ADDWFC xA3,W
049B6:  MOVWF  FEA
049B8:  MOVFF  FEF,45E
049BC:  MOVFF  45E,46A
049C0:  MOVLB  0
049C2:  RCALL  48E4
....................       i2c_stop();  
049C4:  BCF    F94.4
049C6:  NOP   
049C8:  BSF    F94.3
049CA:  BTFSS  F82.3
049CC:  BRA    49CA
049CE:  MOVLW  05
049D0:  MOVWF  00
049D2:  DECFSZ 00,F
049D4:  BRA    49D2
049D6:  BRA    49D8
049D8:  NOP   
049DA:  BSF    F94.4
049DC:  MOVLW  05
049DE:  MOVWF  00
049E0:  DECFSZ 00,F
049E2:  BRA    49E0
....................       //Envio_I2C(direccion,i,SlaveB0Tx[i]); 
....................    }  
049E4:  MOVLB  3
049E6:  INCF   xA2,F
049E8:  BTFSC  FD8.2
049EA:  INCF   xA3,F
049EC:  BRA    4962
.................... } 
049EE:  MOVLB  0
049F0:  RETLW  00
.................... void Lectura_Esclavos(void){ 
....................    //for(i=0;i<7;i++) 
....................    //{ 
....................    //   direccion=0xA0;                        //Direccin en el bus I2c 
....................    //   posicion=i;                         //Posicin de memoria a leer 
....................    //   Lectura_I2C(direccion, posicion, dato);    //Lectura por I2C 
....................    //   txbuf[i]=(int8)dato; 
....................    //} 
....................    //Lee_Vector(); 
.................... } 
....................  
.................... void LeeEEPROM(){ 
.................... //Lectura EEPROM//-------------------------- 
....................    Testerilizacionp[0]=read_eeprom(0); 
*
01EC2:  MOVFF  FF2,449
01EC6:  BCF    FF2.6
01EC8:  BCF    FF2.7
01ECA:  CLRF   FAA
01ECC:  CLRF   FA9
01ECE:  BCF    FA6.6
01ED0:  BCF    FA6.7
01ED2:  BSF    FA6.0
01ED4:  MOVF   FA8,W
01ED6:  MOVLB  4
01ED8:  BTFSC  x49.6
01EDA:  BSF    FF2.6
01EDC:  BTFSC  x49.7
01EDE:  BSF    FF2.7
01EE0:  MOVLB  0
01EE2:  MOVWF  xB6
....................    delay_ms(10); 
01EE4:  MOVLW  0A
01EE6:  MOVLB  4
01EE8:  MOVWF  x62
01EEA:  MOVLB  0
01EEC:  RCALL  1A6C
....................    Testerilizacionp[1]=read_eeprom(1); 
01EEE:  MOVFF  FF2,449
01EF2:  BCF    FF2.6
01EF4:  BCF    FF2.7
01EF6:  CLRF   FAA
01EF8:  MOVLW  01
01EFA:  MOVWF  FA9
01EFC:  BCF    FA6.6
01EFE:  BCF    FA6.7
01F00:  BSF    FA6.0
01F02:  MOVF   FA8,W
01F04:  MOVLB  4
01F06:  BTFSC  x49.6
01F08:  BSF    FF2.6
01F0A:  BTFSC  x49.7
01F0C:  BSF    FF2.7
01F0E:  MOVLB  0
01F10:  MOVWF  xB7
....................    delay_ms(10); 
01F12:  MOVLW  0A
01F14:  MOVLB  4
01F16:  MOVWF  x62
01F18:  MOVLB  0
01F1A:  RCALL  1A6C
....................    Testerilizacionp[2]=read_eeprom(2); 
01F1C:  MOVFF  FF2,449
01F20:  BCF    FF2.6
01F22:  BCF    FF2.7
01F24:  CLRF   FAA
01F26:  MOVLW  02
01F28:  MOVWF  FA9
01F2A:  BCF    FA6.6
01F2C:  BCF    FA6.7
01F2E:  BSF    FA6.0
01F30:  MOVF   FA8,W
01F32:  MOVLB  4
01F34:  BTFSC  x49.6
01F36:  BSF    FF2.6
01F38:  BTFSC  x49.7
01F3A:  BSF    FF2.7
01F3C:  MOVLB  0
01F3E:  MOVWF  xB8
....................    delay_ms(10); 
01F40:  MOVLW  0A
01F42:  MOVLB  4
01F44:  MOVWF  x62
01F46:  MOVLB  0
01F48:  RCALL  1A6C
....................    Testerilizacionp[3]=read_eeprom(3); 
01F4A:  MOVFF  FF2,449
01F4E:  BCF    FF2.6
01F50:  BCF    FF2.7
01F52:  CLRF   FAA
01F54:  MOVLW  03
01F56:  MOVWF  FA9
01F58:  BCF    FA6.6
01F5A:  BCF    FA6.7
01F5C:  BSF    FA6.0
01F5E:  MOVF   FA8,W
01F60:  MOVLB  4
01F62:  BTFSC  x49.6
01F64:  BSF    FF2.6
01F66:  BTFSC  x49.7
01F68:  BSF    FF2.7
01F6A:  MOVLB  0
01F6C:  MOVWF  xB9
....................    delay_ms(10); 
01F6E:  MOVLW  0A
01F70:  MOVLB  4
01F72:  MOVWF  x62
01F74:  MOVLB  0
01F76:  RCALL  1A6C
....................    Tsecadop[0]=read_eeprom(4); 
01F78:  MOVFF  FF2,449
01F7C:  BCF    FF2.6
01F7E:  BCF    FF2.7
01F80:  CLRF   FAA
01F82:  MOVLW  04
01F84:  MOVWF  FA9
01F86:  BCF    FA6.6
01F88:  BCF    FA6.7
01F8A:  BSF    FA6.0
01F8C:  MOVF   FA8,W
01F8E:  MOVLB  4
01F90:  BTFSC  x49.6
01F92:  BSF    FF2.6
01F94:  BTFSC  x49.7
01F96:  BSF    FF2.7
01F98:  MOVLB  0
01F9A:  MOVWF  xBF
....................    delay_ms(10); 
01F9C:  MOVLW  0A
01F9E:  MOVLB  4
01FA0:  MOVWF  x62
01FA2:  MOVLB  0
01FA4:  RCALL  1A6C
....................    Tsecadop[1]=read_eeprom(5); 
01FA6:  MOVFF  FF2,449
01FAA:  BCF    FF2.6
01FAC:  BCF    FF2.7
01FAE:  CLRF   FAA
01FB0:  MOVLW  05
01FB2:  MOVWF  FA9
01FB4:  BCF    FA6.6
01FB6:  BCF    FA6.7
01FB8:  BSF    FA6.0
01FBA:  MOVF   FA8,W
01FBC:  MOVLB  4
01FBE:  BTFSC  x49.6
01FC0:  BSF    FF2.6
01FC2:  BTFSC  x49.7
01FC4:  BSF    FF2.7
01FC6:  MOVLB  0
01FC8:  MOVWF  xC0
....................    delay_ms(10); 
01FCA:  MOVLW  0A
01FCC:  MOVLB  4
01FCE:  MOVWF  x62
01FD0:  MOVLB  0
01FD2:  RCALL  1A6C
....................    Tsecadop[2]=read_eeprom(6); 
01FD4:  MOVFF  FF2,449
01FD8:  BCF    FF2.6
01FDA:  BCF    FF2.7
01FDC:  CLRF   FAA
01FDE:  MOVLW  06
01FE0:  MOVWF  FA9
01FE2:  BCF    FA6.6
01FE4:  BCF    FA6.7
01FE6:  BSF    FA6.0
01FE8:  MOVF   FA8,W
01FEA:  MOVLB  4
01FEC:  BTFSC  x49.6
01FEE:  BSF    FF2.6
01FF0:  BTFSC  x49.7
01FF2:  BSF    FF2.7
01FF4:  MOVLB  0
01FF6:  MOVWF  xC1
....................    delay_ms(10); 
01FF8:  MOVLW  0A
01FFA:  MOVLB  4
01FFC:  MOVWF  x62
01FFE:  MOVLB  0
02000:  RCALL  1A6C
....................    Tsecadop[3]=read_eeprom(7); 
02002:  MOVFF  FF2,449
02006:  BCF    FF2.6
02008:  BCF    FF2.7
0200A:  CLRF   FAA
0200C:  MOVLW  07
0200E:  MOVWF  FA9
02010:  BCF    FA6.6
02012:  BCF    FA6.7
02014:  BSF    FA6.0
02016:  MOVF   FA8,W
02018:  MOVLB  4
0201A:  BTFSC  x49.6
0201C:  BSF    FF2.6
0201E:  BTFSC  x49.7
02020:  BSF    FF2.7
02022:  MOVLB  0
02024:  MOVWF  xC2
....................    delay_ms(10); 
02026:  MOVLW  0A
02028:  MOVLB  4
0202A:  MOVWF  x62
0202C:  MOVLB  0
0202E:  RCALL  1A6C
....................    Setpoint=read_eeprom(8); 
02030:  MOVFF  FF2,449
02034:  BCF    FF2.6
02036:  BCF    FF2.7
02038:  CLRF   FAA
0203A:  MOVLW  08
0203C:  MOVWF  FA9
0203E:  BCF    FA6.6
02040:  BCF    FA6.7
02042:  BSF    FA6.0
02044:  MOVF   FA8,W
02046:  MOVLB  4
02048:  BTFSC  x49.6
0204A:  BSF    FF2.6
0204C:  BTFSC  x49.7
0204E:  BSF    FF2.7
02050:  MOVLB  3
02052:  MOVWF  x63
....................    delay_ms(10); 
02054:  MOVLW  0A
02056:  MOVLB  4
02058:  MOVWF  x62
0205A:  MOVLB  0
0205C:  RCALL  1A6C
....................    Nivel=read_eeprom(9); 
0205E:  MOVFF  FF2,449
02062:  BCF    FF2.6
02064:  BCF    FF2.7
02066:  CLRF   FAA
02068:  MOVLW  09
0206A:  MOVWF  FA9
0206C:  BCF    FA6.6
0206E:  BCF    FA6.7
02070:  BSF    FA6.0
02072:  MOVF   FA8,W
02074:  MOVLB  4
02076:  BTFSC  x49.6
02078:  BSF    FF2.6
0207A:  BTFSC  x49.7
0207C:  BSF    FF2.7
0207E:  MOVLB  3
02080:  CLRF   x72
02082:  MOVWF  x71
....................    delay_ms(10); 
02084:  MOVLW  0A
02086:  MOVLB  4
02088:  MOVWF  x62
0208A:  MOVLB  0
0208C:  RCALL  1A6C
....................    Password[0]=read_eeprom(10); 
0208E:  MOVFF  FF2,449
02092:  BCF    FF2.6
02094:  BCF    FF2.7
02096:  CLRF   FAA
02098:  MOVLW  0A
0209A:  MOVWF  FA9
0209C:  BCF    FA6.6
0209E:  BCF    FA6.7
020A0:  BSF    FA6.0
020A2:  MOVF   FA8,W
020A4:  MOVLB  4
020A6:  BTFSC  x49.6
020A8:  BSF    FF2.6
020AA:  BTFSC  x49.7
020AC:  BSF    FF2.7
020AE:  MOVLB  3
020B0:  MOVWF  x87
....................    delay_ms(10); 
020B2:  MOVLW  0A
020B4:  MOVLB  4
020B6:  MOVWF  x62
020B8:  MOVLB  0
020BA:  RCALL  1A6C
....................    Password[1]=read_eeprom(11); 
020BC:  MOVFF  FF2,449
020C0:  BCF    FF2.6
020C2:  BCF    FF2.7
020C4:  CLRF   FAA
020C6:  MOVLW  0B
020C8:  MOVWF  FA9
020CA:  BCF    FA6.6
020CC:  BCF    FA6.7
020CE:  BSF    FA6.0
020D0:  MOVF   FA8,W
020D2:  MOVLB  4
020D4:  BTFSC  x49.6
020D6:  BSF    FF2.6
020D8:  BTFSC  x49.7
020DA:  BSF    FF2.7
020DC:  MOVLB  3
020DE:  MOVWF  x88
....................    delay_ms(10); 
020E0:  MOVLW  0A
020E2:  MOVLB  4
020E4:  MOVWF  x62
020E6:  MOVLB  0
020E8:  RCALL  1A6C
....................    Password[2]=read_eeprom(12); 
020EA:  MOVFF  FF2,449
020EE:  BCF    FF2.6
020F0:  BCF    FF2.7
020F2:  CLRF   FAA
020F4:  MOVLW  0C
020F6:  MOVWF  FA9
020F8:  BCF    FA6.6
020FA:  BCF    FA6.7
020FC:  BSF    FA6.0
020FE:  MOVF   FA8,W
02100:  MOVLB  4
02102:  BTFSC  x49.6
02104:  BSF    FF2.6
02106:  BTFSC  x49.7
02108:  BSF    FF2.7
0210A:  MOVLB  3
0210C:  MOVWF  x89
....................    delay_ms(10); 
0210E:  MOVLW  0A
02110:  MOVLB  4
02112:  MOVWF  x62
02114:  MOVLB  0
02116:  RCALL  1A6C
....................    Password[3]=read_eeprom(13); 
02118:  MOVFF  FF2,449
0211C:  BCF    FF2.6
0211E:  BCF    FF2.7
02120:  CLRF   FAA
02122:  MOVLW  0D
02124:  MOVWF  FA9
02126:  BCF    FA6.6
02128:  BCF    FA6.7
0212A:  BSF    FA6.0
0212C:  MOVF   FA8,W
0212E:  MOVLB  4
02130:  BTFSC  x49.6
02132:  BSF    FF2.6
02134:  BTFSC  x49.7
02136:  BSF    FF2.7
02138:  MOVLB  3
0213A:  MOVWF  x8A
....................    delay_ms(10); 
0213C:  MOVLW  0A
0213E:  MOVLB  4
02140:  MOVWF  x62
02142:  MOVLB  0
02144:  RCALL  1A6C
....................    Ganancia=read_eeprom(20); 
02146:  MOVFF  FF2,449
0214A:  BCF    FF2.6
0214C:  BCF    FF2.7
0214E:  CLRF   FAA
02150:  MOVLW  14
02152:  MOVWF  FA9
02154:  BCF    FA6.6
02156:  BCF    FA6.7
02158:  BSF    FA6.0
0215A:  MOVF   FA8,W
0215C:  MOVLB  4
0215E:  BTFSC  x49.6
02160:  BSF    FF2.6
02162:  BTFSC  x49.7
02164:  BSF    FF2.7
02166:  CLRF   x5F
02168:  MOVWF  x5E
0216A:  MOVLB  0
0216C:  RCALL  1A94
0216E:  MOVFF  03,308
02172:  MOVFF  02,307
02176:  MOVFF  01,306
0217A:  MOVFF  00,305
....................    delay_ms(10); 
0217E:  MOVLW  0A
02180:  MOVLB  4
02182:  MOVWF  x62
02184:  MOVLB  0
02186:  RCALL  1A6C
....................    Ajuste=read_eeprom(21); 
02188:  MOVFF  FF2,449
0218C:  BCF    FF2.6
0218E:  BCF    FF2.7
02190:  CLRF   FAA
02192:  MOVLW  15
02194:  MOVWF  FA9
02196:  BCF    FA6.6
02198:  BCF    FA6.7
0219A:  BSF    FA6.0
0219C:  MOVF   FA8,W
0219E:  MOVLB  4
021A0:  BTFSC  x49.6
021A2:  BSF    FF2.6
021A4:  BTFSC  x49.7
021A6:  BSF    FF2.7
021A8:  MOVLB  2
021AA:  MOVWF  xD9
....................    delay_ms(10); 
021AC:  MOVLW  0A
021AE:  MOVLB  4
021B0:  MOVWF  x62
021B2:  MOVLB  0
021B4:  RCALL  1A6C
....................    Ajusten=read_eeprom(22); 
021B6:  MOVFF  FF2,449
021BA:  BCF    FF2.6
021BC:  BCF    FF2.7
021BE:  CLRF   FAA
021C0:  MOVLW  16
021C2:  MOVWF  FA9
021C4:  BCF    FA6.6
021C6:  BCF    FA6.7
021C8:  BSF    FA6.0
021CA:  MOVF   FA8,W
021CC:  MOVLB  4
021CE:  BTFSC  x49.6
021D0:  BSF    FF2.6
021D2:  BTFSC  x49.7
021D4:  BSF    FF2.7
021D6:  MOVLB  2
021D8:  MOVWF  xDA
....................    delay_ms(10); 
021DA:  MOVLW  0A
021DC:  MOVLB  4
021DE:  MOVWF  x62
021E0:  MOVLB  0
021E2:  RCALL  1A6C
....................    //Desvio=read_eeprom(23); 
....................    MediaMovil=read_eeprom(24); 
021E4:  MOVFF  FF2,449
021E8:  BCF    FF2.6
021EA:  BCF    FF2.7
021EC:  CLRF   FAA
021EE:  MOVLW  18
021F0:  MOVWF  FA9
021F2:  BCF    FA6.6
021F4:  BCF    FA6.7
021F6:  BSF    FA6.0
021F8:  MOVF   FA8,W
021FA:  MOVLB  4
021FC:  BTFSC  x49.6
021FE:  BSF    FF2.6
02200:  BTFSC  x49.7
02202:  BSF    FF2.7
02204:  MOVLB  2
02206:  MOVWF  xDB
....................    delay_ms(10); 
02208:  MOVLW  0A
0220A:  MOVLB  4
0220C:  MOVWF  x62
0220E:  MOVLB  0
02210:  RCALL  1A6C
....................    Tciclo=read_eeprom(25); 
02212:  MOVFF  FF2,449
02216:  BCF    FF2.6
02218:  BCF    FF2.7
0221A:  CLRF   FAA
0221C:  MOVLW  19
0221E:  MOVWF  FA9
02220:  BCF    FA6.6
02222:  BCF    FA6.7
02224:  BSF    FA6.0
02226:  MOVF   FA8,W
02228:  MOVLB  4
0222A:  BTFSC  x49.6
0222C:  BSF    FF2.6
0222E:  BTFSC  x49.7
02230:  BSF    FF2.7
02232:  CLRF   x5F
02234:  MOVWF  x5E
02236:  MOVLB  0
02238:  RCALL  1A94
0223A:  MOVFF  03,2F0
0223E:  MOVFF  02,2EF
02242:  MOVFF  01,2EE
02246:  MOVFF  00,2ED
....................    delay_ms(10); 
0224A:  MOVLW  0A
0224C:  MOVLB  4
0224E:  MOVWF  x62
02250:  MOVLB  0
02252:  RCALL  1A6C
....................    Integral=read_eeprom(26); 
02254:  MOVFF  FF2,449
02258:  BCF    FF2.6
0225A:  BCF    FF2.7
0225C:  CLRF   FAA
0225E:  MOVLW  1A
02260:  MOVWF  FA9
02262:  BCF    FA6.6
02264:  BCF    FA6.7
02266:  BSF    FA6.0
02268:  MOVF   FA8,W
0226A:  MOVLB  4
0226C:  BTFSC  x49.6
0226E:  BSF    FF2.6
02270:  BTFSC  x49.7
02272:  BSF    FF2.7
02274:  MOVLB  3
02276:  MOVWF  x39
....................    delay_ms(10); 
02278:  MOVLW  0A
0227A:  MOVLB  4
0227C:  MOVWF  x62
0227E:  MOVLB  0
02280:  CALL   1A6C
....................    Derivativo=read_eeprom(27); 
02284:  MOVFF  FF2,449
02288:  BCF    FF2.6
0228A:  BCF    FF2.7
0228C:  CLRF   FAA
0228E:  MOVLW  1B
02290:  MOVWF  FA9
02292:  BCF    FA6.6
02294:  BCF    FA6.7
02296:  BSF    FA6.0
02298:  MOVF   FA8,W
0229A:  MOVLB  4
0229C:  BTFSC  x49.6
0229E:  BSF    FF2.6
022A0:  BTFSC  x49.7
022A2:  BSF    FF2.7
022A4:  MOVLB  3
022A6:  MOVWF  x3A
....................    delay_ms(10); 
022A8:  MOVLW  0A
022AA:  MOVLB  4
022AC:  MOVWF  x62
022AE:  MOVLB  0
022B0:  CALL   1A6C
....................    Temporal=read_eeprom(29); 
022B4:  MOVFF  FF2,449
022B8:  BCF    FF2.6
022BA:  BCF    FF2.7
022BC:  CLRF   FAA
022BE:  MOVLW  1D
022C0:  MOVWF  FA9
022C2:  BCF    FA6.6
022C4:  BCF    FA6.7
022C6:  BSF    FA6.0
022C8:  MOVF   FA8,W
022CA:  MOVLB  4
022CC:  BTFSC  x49.6
022CE:  BSF    FF2.6
022D0:  BTFSC  x49.7
022D2:  BSF    FF2.7
022D4:  CLRF   x5F
022D6:  MOVWF  x5E
022D8:  MOVLB  0
022DA:  CALL   1A94
022DE:  MOVFF  03,2AE
022E2:  MOVFF  02,2AD
022E6:  MOVFF  01,2AC
022EA:  MOVFF  00,2AB
....................    Temporal=Temporal/10.0; 
022EE:  MOVFF  2AE,455
022F2:  MOVFF  2AD,454
022F6:  MOVFF  2AC,453
022FA:  MOVFF  2AB,452
022FE:  MOVLB  4
02300:  CLRF   x59
02302:  CLRF   x58
02304:  MOVLW  20
02306:  MOVWF  x57
02308:  MOVLW  82
0230A:  MOVWF  x56
0230C:  MOVLB  0
0230E:  CALL   1ACA
02312:  MOVFF  03,2AE
02316:  MOVFF  02,2AD
0231A:  MOVFF  01,2AC
0231E:  MOVFF  00,2AB
....................    delay_ms(10); 
02322:  MOVLW  0A
02324:  MOVLB  4
02326:  MOVWF  x62
02328:  MOVLB  0
0232A:  CALL   1A6C
....................    Gain=read_eeprom(28)+Temporal; 
0232E:  MOVFF  FF2,449
02332:  BCF    FF2.6
02334:  BCF    FF2.7
02336:  CLRF   FAA
02338:  MOVLW  1C
0233A:  MOVWF  FA9
0233C:  BCF    FA6.6
0233E:  BCF    FA6.7
02340:  BSF    FA6.0
02342:  MOVF   FA8,W
02344:  MOVLB  4
02346:  BTFSC  x49.6
02348:  BSF    FF2.6
0234A:  BTFSC  x49.7
0234C:  BSF    FF2.7
0234E:  CLRF   x5F
02350:  MOVWF  x5E
02352:  MOVLB  0
02354:  CALL   1A94
02358:  BCF    FD8.1
0235A:  MOVFF  03,461
0235E:  MOVFF  02,460
02362:  MOVFF  01,45F
02366:  MOVFF  00,45E
0236A:  MOVFF  2AE,465
0236E:  MOVFF  2AD,464
02372:  MOVFF  2AC,463
02376:  MOVFF  2AB,462
0237A:  RCALL  1C28
0237C:  MOVFF  03,2A6
02380:  MOVFF  02,2A5
02384:  MOVFF  01,2A4
02388:  MOVFF  00,2A3
....................    delay_ms(10); 
0238C:  MOVLW  0A
0238E:  MOVLB  4
02390:  MOVWF  x62
02392:  MOVLB  0
02394:  CALL   1A6C
....................    R1=make16(read_eeprom(31),read_eeprom(30)); 
02398:  MOVFF  FF2,449
0239C:  BCF    FF2.6
0239E:  BCF    FF2.7
023A0:  CLRF   FAA
023A2:  MOVLW  1F
023A4:  MOVWF  FA9
023A6:  BCF    FA6.6
023A8:  BCF    FA6.7
023AA:  BSF    FA6.0
023AC:  MOVF   FA8,W
023AE:  MOVLB  4
023B0:  BTFSC  x49.6
023B2:  BSF    FF2.6
023B4:  BTFSC  x49.7
023B6:  BSF    FF2.7
023B8:  MOVWF  x4A
023BA:  MOVFF  FF2,44B
023BE:  BCF    FF2.6
023C0:  BCF    FF2.7
023C2:  CLRF   FAA
023C4:  MOVLW  1E
023C6:  MOVWF  FA9
023C8:  BCF    FA6.6
023CA:  BCF    FA6.7
023CC:  BSF    FA6.0
023CE:  MOVF   FA8,W
023D0:  BTFSC  x4B.6
023D2:  BSF    FF2.6
023D4:  BTFSC  x4B.7
023D6:  BSF    FF2.7
023D8:  MOVWF  x4C
023DA:  MOVFF  44A,03
023DE:  MOVF   x4C,W
023E0:  MOVWF  x5E
023E2:  MOVFF  03,45F
023E6:  MOVLB  0
023E8:  CALL   1A94
023EC:  MOVFF  03,2B2
023F0:  MOVFF  02,2B1
023F4:  MOVFF  01,2B0
023F8:  MOVFF  00,2AF
....................    delay_ms(10); 
023FC:  MOVLW  0A
023FE:  MOVLB  4
02400:  MOVWF  x62
02402:  MOVLB  0
02404:  CALL   1A6C
....................    Temporal=read_eeprom(33); 
02408:  MOVFF  FF2,449
0240C:  BCF    FF2.6
0240E:  BCF    FF2.7
02410:  CLRF   FAA
02412:  MOVLW  21
02414:  MOVWF  FA9
02416:  BCF    FA6.6
02418:  BCF    FA6.7
0241A:  BSF    FA6.0
0241C:  MOVF   FA8,W
0241E:  MOVLB  4
02420:  BTFSC  x49.6
02422:  BSF    FF2.6
02424:  BTFSC  x49.7
02426:  BSF    FF2.7
02428:  CLRF   x5F
0242A:  MOVWF  x5E
0242C:  MOVLB  0
0242E:  CALL   1A94
02432:  MOVFF  03,2AE
02436:  MOVFF  02,2AD
0243A:  MOVFF  01,2AC
0243E:  MOVFF  00,2AB
....................    Temporal=Temporal/10.0; 
02442:  MOVFF  2AE,455
02446:  MOVFF  2AD,454
0244A:  MOVFF  2AC,453
0244E:  MOVFF  2AB,452
02452:  MOVLB  4
02454:  CLRF   x59
02456:  CLRF   x58
02458:  MOVLW  20
0245A:  MOVWF  x57
0245C:  MOVLW  82
0245E:  MOVWF  x56
02460:  MOVLB  0
02462:  CALL   1ACA
02466:  MOVFF  03,2AE
0246A:  MOVFF  02,2AD
0246E:  MOVFF  01,2AC
02472:  MOVFF  00,2AB
....................    delay_ms(10); 
02476:  MOVLW  0A
02478:  MOVLB  4
0247A:  MOVWF  x62
0247C:  MOVLB  0
0247E:  CALL   1A6C
....................    RPT100=read_eeprom(32)+Temporal; 
02482:  MOVFF  FF2,449
02486:  BCF    FF2.6
02488:  BCF    FF2.7
0248A:  CLRF   FAA
0248C:  MOVLW  20
0248E:  MOVWF  FA9
02490:  BCF    FA6.6
02492:  BCF    FA6.7
02494:  BSF    FA6.0
02496:  MOVF   FA8,W
02498:  MOVLB  4
0249A:  BTFSC  x49.6
0249C:  BSF    FF2.6
0249E:  BTFSC  x49.7
024A0:  BSF    FF2.7
024A2:  CLRF   x5F
024A4:  MOVWF  x5E
024A6:  MOVLB  0
024A8:  CALL   1A94
024AC:  BCF    FD8.1
024AE:  MOVFF  03,461
024B2:  MOVFF  02,460
024B6:  MOVFF  01,45F
024BA:  MOVFF  00,45E
024BE:  MOVFF  2AE,465
024C2:  MOVFF  2AD,464
024C6:  MOVFF  2AC,463
024CA:  MOVFF  2AB,462
024CE:  CALL   1C28
024D2:  MOVFF  03,2AA
024D6:  MOVFF  02,2A9
024DA:  MOVFF  01,2A8
024DE:  MOVFF  00,2A7
....................    delay_ms(10); 
024E2:  MOVLW  0A
024E4:  MOVLB  4
024E6:  MOVWF  x62
024E8:  MOVLB  0
024EA:  CALL   1A6C
....................    CiclosL=read_eeprom(37); 
024EE:  MOVFF  FF2,449
024F2:  BCF    FF2.6
024F4:  BCF    FF2.7
024F6:  CLRF   FAA
024F8:  MOVLW  25
024FA:  MOVWF  FA9
024FC:  BCF    FA6.6
024FE:  BCF    FA6.7
02500:  BSF    FA6.0
02502:  MOVF   FA8,W
02504:  MOVLB  4
02506:  BTFSC  x49.6
02508:  BSF    FF2.6
0250A:  BTFSC  x49.7
0250C:  BSF    FF2.7
0250E:  MOVLB  3
02510:  MOVWF  x60
....................    delay_ms(10); 
02512:  MOVLW  0A
02514:  MOVLB  4
02516:  MOVWF  x62
02518:  MOVLB  0
0251A:  CALL   1A6C
....................    CiclosH=read_eeprom(38); 
0251E:  MOVFF  FF2,449
02522:  BCF    FF2.6
02524:  BCF    FF2.7
02526:  CLRF   FAA
02528:  MOVLW  26
0252A:  MOVWF  FA9
0252C:  BCF    FA6.6
0252E:  BCF    FA6.7
02530:  BSF    FA6.0
02532:  MOVF   FA8,W
02534:  MOVLB  4
02536:  BTFSC  x49.6
02538:  BSF    FF2.6
0253A:  BTFSC  x49.7
0253C:  BSF    FF2.7
0253E:  MOVLB  3
02540:  MOVWF  x61
....................    delay_ms(10); 
02542:  MOVLW  0A
02544:  MOVLB  4
02546:  MOVWF  x62
02548:  MOVLB  0
0254A:  CALL   1A6C
....................    Ciclos=make16(CiclosH,CiclosL); 
0254E:  MOVFF  361,37A
02552:  MOVFF  360,379
....................    delay_ms(10); 
02556:  MOVLW  0A
02558:  MOVLB  4
0255A:  MOVWF  x62
0255C:  MOVLB  0
0255E:  CALL   1A6C
....................    TTrampa=read_eeprom(39); 
02562:  MOVFF  FF2,449
02566:  BCF    FF2.6
02568:  BCF    FF2.7
0256A:  CLRF   FAA
0256C:  MOVLW  27
0256E:  MOVWF  FA9
02570:  BCF    FA6.6
02572:  BCF    FA6.7
02574:  BSF    FA6.0
02576:  MOVF   FA8,W
02578:  MOVLB  4
0257A:  BTFSC  x49.6
0257C:  BSF    FF2.6
0257E:  BTFSC  x49.7
02580:  BSF    FF2.7
02582:  MOVLB  2
02584:  MOVWF  xDC
....................    delay_ms(10); 
02586:  MOVLW  0A
02588:  MOVLB  4
0258A:  MOVWF  x62
0258C:  MOVLB  0
0258E:  CALL   1A6C
....................    ActivaImpresion=read_eeprom(40); 
02592:  MOVFF  FF2,449
02596:  BCF    FF2.6
02598:  BCF    FF2.7
0259A:  CLRF   FAA
0259C:  MOVLW  28
0259E:  MOVWF  FA9
025A0:  BCF    FA6.6
025A2:  BCF    FA6.7
025A4:  BSF    FA6.0
025A6:  MOVF   FA8,W
025A8:  MOVLB  4
025AA:  BTFSC  x49.6
025AC:  BSF    FF2.6
025AE:  BTFSC  x49.7
025B0:  BSF    FF2.7
025B2:  MOVLB  3
025B4:  MOVWF  x56
....................    delay_ms(10); 
025B6:  MOVLW  0A
025B8:  MOVLB  4
025BA:  MOVWF  x62
025BC:  MOVLB  0
025BE:  CALL   1A6C
....................    timpresion=read_eeprom(41); 
025C2:  MOVFF  FF2,449
025C6:  BCF    FF2.6
025C8:  BCF    FF2.7
025CA:  CLRF   FAA
025CC:  MOVLW  29
025CE:  MOVWF  FA9
025D0:  BCF    FA6.6
025D2:  BCF    FA6.7
025D4:  BSF    FA6.0
025D6:  MOVF   FA8,W
025D8:  MOVLB  4
025DA:  BTFSC  x49.6
025DC:  BSF    FF2.6
025DE:  BTFSC  x49.7
025E0:  BSF    FF2.7
025E2:  MOVLB  3
025E4:  MOVWF  x57
....................    delay_ms(10); 
025E6:  MOVLW  0A
025E8:  MOVLB  4
025EA:  MOVWF  x62
025EC:  MOVLB  0
025EE:  CALL   1A6C
....................    G1=read_eeprom(42); 
025F2:  MOVFF  FF2,449
025F6:  BCF    FF2.6
025F8:  BCF    FF2.7
025FA:  CLRF   FAA
025FC:  MOVLW  2A
025FE:  MOVWF  FA9
02600:  BCF    FA6.6
02602:  BCF    FA6.7
02604:  BSF    FA6.0
02606:  MOVF   FA8,W
02608:  MOVLB  4
0260A:  BTFSC  x49.6
0260C:  BSF    FF2.6
0260E:  BTFSC  x49.7
02610:  BSF    FF2.7
02612:  MOVLB  3
02614:  MOVWF  xB9
....................    delay_ms(10); 
02616:  MOVLW  0A
02618:  MOVLB  4
0261A:  MOVWF  x62
0261C:  MOVLB  0
0261E:  CALL   1A6C
....................    G2=read_eeprom(43); 
02622:  MOVFF  FF2,449
02626:  BCF    FF2.6
02628:  BCF    FF2.7
0262A:  CLRF   FAA
0262C:  MOVLW  2B
0262E:  MOVWF  FA9
02630:  BCF    FA6.6
02632:  BCF    FA6.7
02634:  BSF    FA6.0
02636:  MOVF   FA8,W
02638:  MOVLB  4
0263A:  BTFSC  x49.6
0263C:  BSF    FF2.6
0263E:  BTFSC  x49.7
02640:  BSF    FF2.7
02642:  MOVLB  3
02644:  MOVWF  xBA
....................    delay_ms(10); 
02646:  MOVLW  0A
02648:  MOVLB  4
0264A:  MOVWF  x62
0264C:  MOVLB  0
0264E:  CALL   1A6C
....................    sg1=read_eeprom(44); 
02652:  MOVFF  FF2,449
02656:  BCF    FF2.6
02658:  BCF    FF2.7
0265A:  CLRF   FAA
0265C:  MOVLW  2C
0265E:  MOVWF  FA9
02660:  BCF    FA6.6
02662:  BCF    FA6.7
02664:  BSF    FA6.0
02666:  MOVF   FA8,W
02668:  MOVLB  4
0266A:  BTFSC  x49.6
0266C:  BSF    FF2.6
0266E:  BTFSC  x49.7
02670:  BSF    FF2.7
02672:  MOVLB  3
02674:  MOVWF  xBB
....................    delay_ms(10); 
02676:  MOVLW  0A
02678:  MOVLB  4
0267A:  MOVWF  x62
0267C:  MOVLB  0
0267E:  CALL   1A6C
....................    sg2=read_eeprom(45); 
02682:  MOVFF  FF2,449
02686:  BCF    FF2.6
02688:  BCF    FF2.7
0268A:  CLRF   FAA
0268C:  MOVLW  2D
0268E:  MOVWF  FA9
02690:  BCF    FA6.6
02692:  BCF    FA6.7
02694:  BSF    FA6.0
02696:  MOVF   FA8,W
02698:  MOVLB  4
0269A:  BTFSC  x49.6
0269C:  BSF    FF2.6
0269E:  BTFSC  x49.7
026A0:  BSF    FF2.7
026A2:  MOVLB  3
026A4:  MOVWF  xBC
....................    delay_ms(10); 
026A6:  MOVLW  0A
026A8:  MOVLB  4
026AA:  MOVWF  x62
026AC:  MOVLB  0
026AE:  CALL   1A6C
....................    Atmosferica=read_eeprom(46); 
026B2:  MOVFF  FF2,449
026B6:  BCF    FF2.6
026B8:  BCF    FF2.7
026BA:  CLRF   FAA
026BC:  MOVLW  2E
026BE:  MOVWF  FA9
026C0:  BCF    FA6.6
026C2:  BCF    FA6.7
026C4:  BSF    FA6.0
026C6:  MOVF   FA8,W
026C8:  MOVLB  4
026CA:  BTFSC  x49.6
026CC:  BSF    FF2.6
026CE:  BTFSC  x49.7
026D0:  BSF    FF2.7
026D2:  MOVLB  3
026D4:  MOVWF  xB8
....................    delay_ms(10); 
026D6:  MOVLW  0A
026D8:  MOVLB  4
026DA:  MOVWF  x62
026DC:  MOVLB  0
026DE:  CALL   1A6C
....................    pulsosPurgaProgramados=read_eeprom(47); 
026E2:  MOVFF  FF2,449
026E6:  BCF    FF2.6
026E8:  BCF    FF2.7
026EA:  CLRF   FAA
026EC:  MOVLW  2F
026EE:  MOVWF  FA9
026F0:  BCF    FA6.6
026F2:  BCF    FA6.7
026F4:  BSF    FA6.0
026F6:  MOVF   FA8,W
026F8:  MOVLB  4
026FA:  BTFSC  x49.6
026FC:  BSF    FF2.6
026FE:  BTFSC  x49.7
02700:  BSF    FF2.7
02702:  MOVLB  3
02704:  MOVWF  x3D
....................     
....................    for(i=0;i<4;i++){//Lee valores almacenados de ciclos personalizados 
02706:  CLRF   xA3
02708:  CLRF   xA2
0270A:  MOVF   xA3,F
0270C:  BTFSS  FD8.2
0270E:  GOTO   2F46
02712:  MOVF   xA2,W
02714:  SUBLW  03
02716:  BTFSS  FD8.0
02718:  GOTO   2F46
....................       CiclosPersonalizados[i].Temperatura=read_eeprom(100+(i*8));  
0271C:  MOVFF  3A3,463
02720:  MOVFF  3A2,462
02724:  MOVLB  4
02726:  CLRF   x65
02728:  MOVLW  0A
0272A:  MOVWF  x64
0272C:  MOVLB  0
0272E:  CALL   1EA0
02732:  MOVFF  02,44A
02736:  MOVFF  01,449
0273A:  MOVLW  21
0273C:  MOVLB  4
0273E:  ADDWF  x49,W
02740:  MOVWF  FE9
02742:  MOVLW  04
02744:  ADDWFC x4A,W
02746:  MOVWF  FEA
02748:  MOVLB  3
0274A:  RLCF   xA2,W
0274C:  MOVWF  02
0274E:  RLCF   xA3,W
02750:  MOVWF  03
02752:  RLCF   02,F
02754:  RLCF   03,F
02756:  RLCF   02,F
02758:  RLCF   03,F
0275A:  MOVLW  F8
0275C:  ANDWF  02,F
0275E:  MOVF   02,W
02760:  ADDLW  64
02762:  MOVLB  4
02764:  MOVWF  x4B
02766:  MOVLW  00
02768:  ADDWFC 03,W
0276A:  MOVWF  x4C
0276C:  MOVFF  FF2,44D
02770:  BCF    FF2.6
02772:  BCF    FF2.7
02774:  MOVFF  44C,FAA
02778:  MOVFF  44B,FA9
0277C:  BCF    FA6.6
0277E:  BCF    FA6.7
02780:  BSF    FA6.0
02782:  MOVF   FA8,W
02784:  BTFSC  x4D.6
02786:  BSF    FF2.6
02788:  BTFSC  x4D.7
0278A:  BSF    FF2.7
0278C:  MOVWF  FEF
....................       CiclosPersonalizados[i].MinutoestH=read_eeprom(101+(i*8));  
0278E:  MOVFF  3A3,463
02792:  MOVFF  3A2,462
02796:  CLRF   x65
02798:  MOVLW  0A
0279A:  MOVWF  x64
0279C:  MOVLB  0
0279E:  CALL   1EA0
027A2:  MOVFF  02,44A
027A6:  MOVFF  01,449
027AA:  MOVLW  01
027AC:  MOVLB  4
027AE:  ADDWF  x49,W
027B0:  MOVWF  01
027B2:  MOVLW  00
027B4:  ADDWFC x4A,W
027B6:  MOVWF  03
027B8:  MOVF   01,W
027BA:  ADDLW  21
027BC:  MOVWF  FE9
027BE:  MOVLW  04
027C0:  ADDWFC 03,W
027C2:  MOVWF  FEA
027C4:  MOVLB  3
027C6:  RLCF   xA2,W
027C8:  MOVWF  02
027CA:  RLCF   xA3,W
027CC:  MOVWF  03
027CE:  RLCF   02,F
027D0:  RLCF   03,F
027D2:  RLCF   02,F
027D4:  RLCF   03,F
027D6:  MOVLW  F8
027D8:  ANDWF  02,F
027DA:  MOVF   02,W
027DC:  ADDLW  65
027DE:  MOVLB  4
027E0:  MOVWF  x4B
027E2:  MOVLW  00
027E4:  ADDWFC 03,W
027E6:  MOVWF  x4C
027E8:  MOVFF  FF2,44D
027EC:  BCF    FF2.6
027EE:  BCF    FF2.7
027F0:  MOVFF  44C,FAA
027F4:  MOVFF  44B,FA9
027F8:  BCF    FA6.6
027FA:  BCF    FA6.7
027FC:  BSF    FA6.0
027FE:  MOVF   FA8,W
02800:  BTFSC  x4D.6
02802:  BSF    FF2.6
02804:  BTFSC  x4D.7
02806:  BSF    FF2.7
02808:  MOVWF  FEF
....................       CiclosPersonalizados[i].Minutoest=read_eeprom(102+(i*8));  
0280A:  MOVFF  3A3,463
0280E:  MOVFF  3A2,462
02812:  CLRF   x65
02814:  MOVLW  0A
02816:  MOVWF  x64
02818:  MOVLB  0
0281A:  CALL   1EA0
0281E:  MOVFF  02,44A
02822:  MOVFF  01,449
02826:  MOVLW  09
02828:  MOVLB  4
0282A:  ADDWF  x49,W
0282C:  MOVWF  01
0282E:  MOVLW  00
02830:  ADDWFC x4A,W
02832:  MOVWF  03
02834:  MOVF   01,W
02836:  ADDLW  21
02838:  MOVWF  FE9
0283A:  MOVLW  04
0283C:  ADDWFC 03,W
0283E:  MOVWF  FEA
02840:  MOVLB  3
02842:  RLCF   xA2,W
02844:  MOVWF  02
02846:  RLCF   xA3,W
02848:  MOVWF  03
0284A:  RLCF   02,F
0284C:  RLCF   03,F
0284E:  RLCF   02,F
02850:  RLCF   03,F
02852:  MOVLW  F8
02854:  ANDWF  02,F
02856:  MOVF   02,W
02858:  ADDLW  66
0285A:  MOVLB  4
0285C:  MOVWF  x4B
0285E:  MOVLW  00
02860:  ADDWFC 03,W
02862:  MOVWF  x4C
02864:  MOVFF  FF2,44D
02868:  BCF    FF2.6
0286A:  BCF    FF2.7
0286C:  MOVFF  44C,FAA
02870:  MOVFF  44B,FA9
02874:  BCF    FA6.6
02876:  BCF    FA6.7
02878:  BSF    FA6.0
0287A:  MOVF   FA8,W
0287C:  BTFSC  x4D.6
0287E:  BSF    FF2.6
02880:  BTFSC  x4D.7
02882:  BSF    FF2.7
02884:  MOVWF  FEF
....................       CiclosPersonalizados[i].Segundoest=read_eeprom(103+(i*8));  
02886:  MOVFF  3A3,463
0288A:  MOVFF  3A2,462
0288E:  CLRF   x65
02890:  MOVLW  0A
02892:  MOVWF  x64
02894:  MOVLB  0
02896:  CALL   1EA0
0289A:  MOVFF  02,44A
0289E:  MOVFF  01,449
028A2:  MOVLW  03
028A4:  MOVLB  4
028A6:  ADDWF  x49,W
028A8:  MOVWF  01
028AA:  MOVLW  00
028AC:  ADDWFC x4A,W
028AE:  MOVWF  03
028B0:  MOVF   01,W
028B2:  ADDLW  21
028B4:  MOVWF  FE9
028B6:  MOVLW  04
028B8:  ADDWFC 03,W
028BA:  MOVWF  FEA
028BC:  MOVLB  3
028BE:  RLCF   xA2,W
028C0:  MOVWF  02
028C2:  RLCF   xA3,W
028C4:  MOVWF  03
028C6:  RLCF   02,F
028C8:  RLCF   03,F
028CA:  RLCF   02,F
028CC:  RLCF   03,F
028CE:  MOVLW  F8
028D0:  ANDWF  02,F
028D2:  MOVF   02,W
028D4:  ADDLW  67
028D6:  MOVLB  4
028D8:  MOVWF  x4B
028DA:  MOVLW  00
028DC:  ADDWFC 03,W
028DE:  MOVWF  x4C
028E0:  MOVFF  FF2,44D
028E4:  BCF    FF2.6
028E6:  BCF    FF2.7
028E8:  MOVFF  44C,FAA
028EC:  MOVFF  44B,FA9
028F0:  BCF    FA6.6
028F2:  BCF    FA6.7
028F4:  BSF    FA6.0
028F6:  MOVF   FA8,W
028F8:  BTFSC  x4D.6
028FA:  BSF    FF2.6
028FC:  BTFSC  x4D.7
028FE:  BSF    FF2.7
02900:  MOVWF  FEF
....................       CiclosPersonalizados[i].Minutosec=read_eeprom(104+(i*8));  
02902:  MOVFF  3A3,463
02906:  MOVFF  3A2,462
0290A:  CLRF   x65
0290C:  MOVLW  0A
0290E:  MOVWF  x64
02910:  MOVLB  0
02912:  CALL   1EA0
02916:  MOVFF  02,44A
0291A:  MOVFF  01,449
0291E:  MOVLW  04
02920:  MOVLB  4
02922:  ADDWF  x49,W
02924:  MOVWF  01
02926:  MOVLW  00
02928:  ADDWFC x4A,W
0292A:  MOVWF  03
0292C:  MOVF   01,W
0292E:  ADDLW  21
02930:  MOVWF  FE9
02932:  MOVLW  04
02934:  ADDWFC 03,W
02936:  MOVWF  FEA
02938:  MOVLB  3
0293A:  RLCF   xA2,W
0293C:  MOVWF  02
0293E:  RLCF   xA3,W
02940:  MOVWF  03
02942:  RLCF   02,F
02944:  RLCF   03,F
02946:  RLCF   02,F
02948:  RLCF   03,F
0294A:  MOVLW  F8
0294C:  ANDWF  02,F
0294E:  MOVF   02,W
02950:  ADDLW  68
02952:  MOVLB  4
02954:  MOVWF  x4B
02956:  MOVLW  00
02958:  ADDWFC 03,W
0295A:  MOVWF  x4C
0295C:  MOVFF  FF2,44D
02960:  BCF    FF2.6
02962:  BCF    FF2.7
02964:  MOVFF  44C,FAA
02968:  MOVFF  44B,FA9
0296C:  BCF    FA6.6
0296E:  BCF    FA6.7
02970:  BSF    FA6.0
02972:  MOVF   FA8,W
02974:  BTFSC  x4D.6
02976:  BSF    FF2.6
02978:  BTFSC  x4D.7
0297A:  BSF    FF2.7
0297C:  MOVWF  FEF
....................       CiclosPersonalizados[i].Segundosec=read_eeprom(105+(i*8));  
0297E:  MOVFF  3A3,463
02982:  MOVFF  3A2,462
02986:  CLRF   x65
02988:  MOVLW  0A
0298A:  MOVWF  x64
0298C:  MOVLB  0
0298E:  CALL   1EA0
02992:  MOVFF  02,44A
02996:  MOVFF  01,449
0299A:  MOVLW  05
0299C:  MOVLB  4
0299E:  ADDWF  x49,W
029A0:  MOVWF  01
029A2:  MOVLW  00
029A4:  ADDWFC x4A,W
029A6:  MOVWF  03
029A8:  MOVF   01,W
029AA:  ADDLW  21
029AC:  MOVWF  FE9
029AE:  MOVLW  04
029B0:  ADDWFC 03,W
029B2:  MOVWF  FEA
029B4:  MOVLB  3
029B6:  RLCF   xA2,W
029B8:  MOVWF  02
029BA:  RLCF   xA3,W
029BC:  MOVWF  03
029BE:  RLCF   02,F
029C0:  RLCF   03,F
029C2:  RLCF   02,F
029C4:  RLCF   03,F
029C6:  MOVLW  F8
029C8:  ANDWF  02,F
029CA:  MOVF   02,W
029CC:  ADDLW  69
029CE:  MOVLB  4
029D0:  MOVWF  x4B
029D2:  MOVLW  00
029D4:  ADDWFC 03,W
029D6:  MOVWF  x4C
029D8:  MOVFF  FF2,44D
029DC:  BCF    FF2.6
029DE:  BCF    FF2.7
029E0:  MOVFF  44C,FAA
029E4:  MOVFF  44B,FA9
029E8:  BCF    FA6.6
029EA:  BCF    FA6.7
029EC:  BSF    FA6.0
029EE:  MOVF   FA8,W
029F0:  BTFSC  x4D.6
029F2:  BSF    FF2.6
029F4:  BTFSC  x4D.7
029F6:  BSF    FF2.7
029F8:  MOVWF  FEF
....................       CiclosPersonalizados[i].PulsosVacio=read_eeprom(106+(i*8));  
029FA:  MOVFF  3A3,463
029FE:  MOVFF  3A2,462
02A02:  CLRF   x65
02A04:  MOVLW  0A
02A06:  MOVWF  x64
02A08:  MOVLB  0
02A0A:  CALL   1EA0
02A0E:  MOVFF  02,44A
02A12:  MOVFF  01,449
02A16:  MOVLW  06
02A18:  MOVLB  4
02A1A:  ADDWF  x49,W
02A1C:  MOVWF  01
02A1E:  MOVLW  00
02A20:  ADDWFC x4A,W
02A22:  MOVWF  03
02A24:  MOVF   01,W
02A26:  ADDLW  21
02A28:  MOVWF  FE9
02A2A:  MOVLW  04
02A2C:  ADDWFC 03,W
02A2E:  MOVWF  FEA
02A30:  MOVLB  3
02A32:  RLCF   xA2,W
02A34:  MOVWF  02
02A36:  RLCF   xA3,W
02A38:  MOVWF  03
02A3A:  RLCF   02,F
02A3C:  RLCF   03,F
02A3E:  RLCF   02,F
02A40:  RLCF   03,F
02A42:  MOVLW  F8
02A44:  ANDWF  02,F
02A46:  MOVF   02,W
02A48:  ADDLW  6A
02A4A:  MOVLB  4
02A4C:  MOVWF  x4B
02A4E:  MOVLW  00
02A50:  ADDWFC 03,W
02A52:  MOVWF  x4C
02A54:  MOVFF  FF2,44D
02A58:  BCF    FF2.6
02A5A:  BCF    FF2.7
02A5C:  MOVFF  44C,FAA
02A60:  MOVFF  44B,FA9
02A64:  BCF    FA6.6
02A66:  BCF    FA6.7
02A68:  BSF    FA6.0
02A6A:  MOVF   FA8,W
02A6C:  BTFSC  x4D.6
02A6E:  BSF    FF2.6
02A70:  BTFSC  x4D.7
02A72:  BSF    FF2.7
02A74:  MOVWF  FEF
....................       CiclosPersonalizados[i].NivelDesfogue=read_eeprom(107+(i*8));  
02A76:  MOVFF  3A3,463
02A7A:  MOVFF  3A2,462
02A7E:  CLRF   x65
02A80:  MOVLW  0A
02A82:  MOVWF  x64
02A84:  MOVLB  0
02A86:  CALL   1EA0
02A8A:  MOVFF  02,44A
02A8E:  MOVFF  01,449
02A92:  MOVLW  08
02A94:  MOVLB  4
02A96:  ADDWF  x49,W
02A98:  MOVWF  01
02A9A:  MOVLW  00
02A9C:  ADDWFC x4A,W
02A9E:  MOVWF  03
02AA0:  MOVF   01,W
02AA2:  ADDLW  21
02AA4:  MOVWF  FE9
02AA6:  MOVLW  04
02AA8:  ADDWFC 03,W
02AAA:  MOVWF  FEA
02AAC:  MOVLB  3
02AAE:  RLCF   xA2,W
02AB0:  MOVWF  02
02AB2:  RLCF   xA3,W
02AB4:  MOVWF  03
02AB6:  RLCF   02,F
02AB8:  RLCF   03,F
02ABA:  RLCF   02,F
02ABC:  RLCF   03,F
02ABE:  MOVLW  F8
02AC0:  ANDWF  02,F
02AC2:  MOVF   02,W
02AC4:  ADDLW  6B
02AC6:  MOVLB  4
02AC8:  MOVWF  x4B
02ACA:  MOVLW  00
02ACC:  ADDWFC 03,W
02ACE:  MOVWF  x4C
02AD0:  MOVFF  FF2,44D
02AD4:  BCF    FF2.6
02AD6:  BCF    FF2.7
02AD8:  MOVFF  44C,FAA
02ADC:  MOVFF  44B,FA9
02AE0:  BCF    FA6.6
02AE2:  BCF    FA6.7
02AE4:  BSF    FA6.0
02AE6:  MOVF   FA8,W
02AE8:  BTFSC  x4D.6
02AEA:  BSF    FF2.6
02AEC:  BTFSC  x4D.7
02AEE:  BSF    FF2.7
02AF0:  MOVWF  FEF
....................        
....................       if(CiclosPersonalizados[i].Temperatura>134 || CiclosPersonalizados[i].Temperatura<105) 
02AF2:  MOVFF  3A3,463
02AF6:  MOVFF  3A2,462
02AFA:  CLRF   x65
02AFC:  MOVLW  0A
02AFE:  MOVWF  x64
02B00:  MOVLB  0
02B02:  CALL   1EA0
02B06:  MOVFF  02,44A
02B0A:  MOVFF  01,449
02B0E:  MOVLW  21
02B10:  MOVLB  4
02B12:  ADDWF  01,W
02B14:  MOVWF  FE9
02B16:  MOVLW  04
02B18:  ADDWFC 02,W
02B1A:  MOVWF  FEA
02B1C:  MOVF   FEF,W
02B1E:  SUBLW  86
02B20:  BNC   2B52
02B22:  MOVFF  3A3,463
02B26:  MOVFF  3A2,462
02B2A:  CLRF   x65
02B2C:  MOVLW  0A
02B2E:  MOVWF  x64
02B30:  MOVLB  0
02B32:  CALL   1EA0
02B36:  MOVFF  02,44A
02B3A:  MOVFF  01,449
02B3E:  MOVLW  21
02B40:  MOVLB  4
02B42:  ADDWF  01,W
02B44:  MOVWF  FE9
02B46:  MOVLW  04
02B48:  ADDWFC 02,W
02B4A:  MOVWF  FEA
02B4C:  MOVF   FEF,W
02B4E:  SUBLW  68
02B50:  BNC   2B78
....................          CiclosPersonalizados[i].Temperatura=121; 
02B52:  MOVFF  3A3,463
02B56:  MOVFF  3A2,462
02B5A:  CLRF   x65
02B5C:  MOVLW  0A
02B5E:  MOVWF  x64
02B60:  MOVLB  0
02B62:  CALL   1EA0
02B66:  MOVLW  21
02B68:  MOVLB  4
02B6A:  ADDWF  01,W
02B6C:  MOVWF  FE9
02B6E:  MOVLW  04
02B70:  ADDWFC 02,W
02B72:  MOVWF  FEA
02B74:  MOVLW  79
02B76:  MOVWF  FEF
....................       if(CiclosPersonalizados[i].Minutoest>59) 
02B78:  MOVFF  3A3,463
02B7C:  MOVFF  3A2,462
02B80:  CLRF   x65
02B82:  MOVLW  0A
02B84:  MOVWF  x64
02B86:  MOVLB  0
02B88:  CALL   1EA0
02B8C:  MOVFF  02,44A
02B90:  MOVFF  01,449
02B94:  MOVLW  09
02B96:  MOVLB  4
02B98:  ADDWF  01,W
02B9A:  MOVWF  01
02B9C:  MOVLW  00
02B9E:  ADDWFC 02,W
02BA0:  MOVWF  03
02BA2:  MOVF   01,W
02BA4:  ADDLW  21
02BA6:  MOVWF  FE9
02BA8:  MOVLW  04
02BAA:  ADDWFC 03,W
02BAC:  MOVWF  FEA
02BAE:  MOVF   FEF,W
02BB0:  SUBLW  3B
02BB2:  BC    2BE8
....................          CiclosPersonalizados[i].Minutoest=0; 
02BB4:  MOVFF  3A3,463
02BB8:  MOVFF  3A2,462
02BBC:  CLRF   x65
02BBE:  MOVLW  0A
02BC0:  MOVWF  x64
02BC2:  MOVLB  0
02BC4:  CALL   1EA0
02BC8:  MOVFF  01,449
02BCC:  MOVLW  09
02BCE:  MOVLB  4
02BD0:  ADDWF  01,W
02BD2:  MOVWF  01
02BD4:  MOVLW  00
02BD6:  ADDWFC 02,W
02BD8:  MOVWF  03
02BDA:  MOVF   01,W
02BDC:  ADDLW  21
02BDE:  MOVWF  FE9
02BE0:  MOVLW  04
02BE2:  ADDWFC 03,W
02BE4:  MOVWF  FEA
02BE6:  CLRF   FEF
....................       if(CiclosPersonalizados[i].Segundoest>59) 
02BE8:  MOVFF  3A3,463
02BEC:  MOVFF  3A2,462
02BF0:  CLRF   x65
02BF2:  MOVLW  0A
02BF4:  MOVWF  x64
02BF6:  MOVLB  0
02BF8:  CALL   1EA0
02BFC:  MOVFF  02,44A
02C00:  MOVFF  01,449
02C04:  MOVLW  03
02C06:  MOVLB  4
02C08:  ADDWF  01,W
02C0A:  MOVWF  01
02C0C:  MOVLW  00
02C0E:  ADDWFC 02,W
02C10:  MOVWF  03
02C12:  MOVF   01,W
02C14:  ADDLW  21
02C16:  MOVWF  FE9
02C18:  MOVLW  04
02C1A:  ADDWFC 03,W
02C1C:  MOVWF  FEA
02C1E:  MOVF   FEF,W
02C20:  SUBLW  3B
02C22:  BC    2C58
....................          CiclosPersonalizados[i].Segundoest=0; 
02C24:  MOVFF  3A3,463
02C28:  MOVFF  3A2,462
02C2C:  CLRF   x65
02C2E:  MOVLW  0A
02C30:  MOVWF  x64
02C32:  MOVLB  0
02C34:  CALL   1EA0
02C38:  MOVFF  01,449
02C3C:  MOVLW  03
02C3E:  MOVLB  4
02C40:  ADDWF  01,W
02C42:  MOVWF  01
02C44:  MOVLW  00
02C46:  ADDWFC 02,W
02C48:  MOVWF  03
02C4A:  MOVF   01,W
02C4C:  ADDLW  21
02C4E:  MOVWF  FE9
02C50:  MOVLW  04
02C52:  ADDWFC 03,W
02C54:  MOVWF  FEA
02C56:  CLRF   FEF
....................       if(CiclosPersonalizados[i].Minutosec>59) 
02C58:  MOVFF  3A3,463
02C5C:  MOVFF  3A2,462
02C60:  CLRF   x65
02C62:  MOVLW  0A
02C64:  MOVWF  x64
02C66:  MOVLB  0
02C68:  CALL   1EA0
02C6C:  MOVFF  02,44A
02C70:  MOVFF  01,449
02C74:  MOVLW  04
02C76:  MOVLB  4
02C78:  ADDWF  01,W
02C7A:  MOVWF  01
02C7C:  MOVLW  00
02C7E:  ADDWFC 02,W
02C80:  MOVWF  03
02C82:  MOVF   01,W
02C84:  ADDLW  21
02C86:  MOVWF  FE9
02C88:  MOVLW  04
02C8A:  ADDWFC 03,W
02C8C:  MOVWF  FEA
02C8E:  MOVF   FEF,W
02C90:  SUBLW  3B
02C92:  BC    2CC8
....................          CiclosPersonalizados[i].Minutosec=0;    
02C94:  MOVFF  3A3,463
02C98:  MOVFF  3A2,462
02C9C:  CLRF   x65
02C9E:  MOVLW  0A
02CA0:  MOVWF  x64
02CA2:  MOVLB  0
02CA4:  CALL   1EA0
02CA8:  MOVFF  01,449
02CAC:  MOVLW  04
02CAE:  MOVLB  4
02CB0:  ADDWF  01,W
02CB2:  MOVWF  01
02CB4:  MOVLW  00
02CB6:  ADDWFC 02,W
02CB8:  MOVWF  03
02CBA:  MOVF   01,W
02CBC:  ADDLW  21
02CBE:  MOVWF  FE9
02CC0:  MOVLW  04
02CC2:  ADDWFC 03,W
02CC4:  MOVWF  FEA
02CC6:  CLRF   FEF
....................       if(CiclosPersonalizados[i].Segundoest>59) 
02CC8:  MOVFF  3A3,463
02CCC:  MOVFF  3A2,462
02CD0:  CLRF   x65
02CD2:  MOVLW  0A
02CD4:  MOVWF  x64
02CD6:  MOVLB  0
02CD8:  CALL   1EA0
02CDC:  MOVFF  02,44A
02CE0:  MOVFF  01,449
02CE4:  MOVLW  03
02CE6:  MOVLB  4
02CE8:  ADDWF  01,W
02CEA:  MOVWF  01
02CEC:  MOVLW  00
02CEE:  ADDWFC 02,W
02CF0:  MOVWF  03
02CF2:  MOVF   01,W
02CF4:  ADDLW  21
02CF6:  MOVWF  FE9
02CF8:  MOVLW  04
02CFA:  ADDWFC 03,W
02CFC:  MOVWF  FEA
02CFE:  MOVF   FEF,W
02D00:  SUBLW  3B
02D02:  BC    2D38
....................          CiclosPersonalizados[i].Segundoest=0; 
02D04:  MOVFF  3A3,463
02D08:  MOVFF  3A2,462
02D0C:  CLRF   x65
02D0E:  MOVLW  0A
02D10:  MOVWF  x64
02D12:  MOVLB  0
02D14:  CALL   1EA0
02D18:  MOVFF  01,449
02D1C:  MOVLW  03
02D1E:  MOVLB  4
02D20:  ADDWF  01,W
02D22:  MOVWF  01
02D24:  MOVLW  00
02D26:  ADDWFC 02,W
02D28:  MOVWF  03
02D2A:  MOVF   01,W
02D2C:  ADDLW  21
02D2E:  MOVWF  FE9
02D30:  MOVLW  04
02D32:  ADDWFC 03,W
02D34:  MOVWF  FEA
02D36:  CLRF   FEF
....................       if(CiclosPersonalizados[i].Segundosec>59) 
02D38:  MOVFF  3A3,463
02D3C:  MOVFF  3A2,462
02D40:  CLRF   x65
02D42:  MOVLW  0A
02D44:  MOVWF  x64
02D46:  MOVLB  0
02D48:  CALL   1EA0
02D4C:  MOVFF  02,44A
02D50:  MOVFF  01,449
02D54:  MOVLW  05
02D56:  MOVLB  4
02D58:  ADDWF  01,W
02D5A:  MOVWF  01
02D5C:  MOVLW  00
02D5E:  ADDWFC 02,W
02D60:  MOVWF  03
02D62:  MOVF   01,W
02D64:  ADDLW  21
02D66:  MOVWF  FE9
02D68:  MOVLW  04
02D6A:  ADDWFC 03,W
02D6C:  MOVWF  FEA
02D6E:  MOVF   FEF,W
02D70:  SUBLW  3B
02D72:  BC    2DA8
....................          CiclosPersonalizados[i].Segundosec=0;       
02D74:  MOVFF  3A3,463
02D78:  MOVFF  3A2,462
02D7C:  CLRF   x65
02D7E:  MOVLW  0A
02D80:  MOVWF  x64
02D82:  MOVLB  0
02D84:  CALL   1EA0
02D88:  MOVFF  01,449
02D8C:  MOVLW  05
02D8E:  MOVLB  4
02D90:  ADDWF  01,W
02D92:  MOVWF  01
02D94:  MOVLW  00
02D96:  ADDWFC 02,W
02D98:  MOVWF  03
02D9A:  MOVF   01,W
02D9C:  ADDLW  21
02D9E:  MOVWF  FE9
02DA0:  MOVLW  04
02DA2:  ADDWFC 03,W
02DA4:  MOVWF  FEA
02DA6:  CLRF   FEF
....................       if(CiclosPersonalizados[i].PulsosVacio>15) 
02DA8:  MOVFF  3A3,463
02DAC:  MOVFF  3A2,462
02DB0:  CLRF   x65
02DB2:  MOVLW  0A
02DB4:  MOVWF  x64
02DB6:  MOVLB  0
02DB8:  CALL   1EA0
02DBC:  MOVFF  02,44A
02DC0:  MOVFF  01,449
02DC4:  MOVLW  06
02DC6:  MOVLB  4
02DC8:  ADDWF  01,W
02DCA:  MOVWF  01
02DCC:  MOVLW  00
02DCE:  ADDWFC 02,W
02DD0:  MOVWF  03
02DD2:  MOVF   01,W
02DD4:  ADDLW  21
02DD6:  MOVWF  FE9
02DD8:  MOVLW  04
02DDA:  ADDWFC 03,W
02DDC:  MOVWF  FEA
02DDE:  MOVF   FEF,W
02DE0:  SUBLW  0F
02DE2:  BC    2E1A
....................          CiclosPersonalizados[i].PulsosVacio=4; 
02DE4:  MOVFF  3A3,463
02DE8:  MOVFF  3A2,462
02DEC:  CLRF   x65
02DEE:  MOVLW  0A
02DF0:  MOVWF  x64
02DF2:  MOVLB  0
02DF4:  CALL   1EA0
02DF8:  MOVFF  01,449
02DFC:  MOVLW  06
02DFE:  MOVLB  4
02E00:  ADDWF  01,W
02E02:  MOVWF  01
02E04:  MOVLW  00
02E06:  ADDWFC 02,W
02E08:  MOVWF  03
02E0A:  MOVF   01,W
02E0C:  ADDLW  21
02E0E:  MOVWF  FE9
02E10:  MOVLW  04
02E12:  ADDWFC 03,W
02E14:  MOVWF  FEA
02E16:  MOVLW  04
02E18:  MOVWF  FEF
....................       if(CiclosPersonalizados[i].NivelVacio>100 || CiclosPersonalizados[i].NivelVacio<10) 
02E1A:  MOVFF  3A3,463
02E1E:  MOVFF  3A2,462
02E22:  CLRF   x65
02E24:  MOVLW  0A
02E26:  MOVWF  x64
02E28:  MOVLB  0
02E2A:  CALL   1EA0
02E2E:  MOVFF  02,44A
02E32:  MOVFF  01,449
02E36:  MOVLW  07
02E38:  MOVLB  4
02E3A:  ADDWF  01,W
02E3C:  MOVWF  01
02E3E:  MOVLW  00
02E40:  ADDWFC 02,W
02E42:  MOVWF  03
02E44:  MOVF   01,W
02E46:  ADDLW  21
02E48:  MOVWF  FE9
02E4A:  MOVLW  04
02E4C:  ADDWFC 03,W
02E4E:  MOVWF  FEA
02E50:  MOVF   FEF,W
02E52:  SUBLW  64
02E54:  BNC   2E92
02E56:  MOVFF  3A3,463
02E5A:  MOVFF  3A2,462
02E5E:  CLRF   x65
02E60:  MOVLW  0A
02E62:  MOVWF  x64
02E64:  MOVLB  0
02E66:  CALL   1EA0
02E6A:  MOVFF  02,44A
02E6E:  MOVFF  01,449
02E72:  MOVLW  07
02E74:  MOVLB  4
02E76:  ADDWF  01,W
02E78:  MOVWF  01
02E7A:  MOVLW  00
02E7C:  ADDWFC 02,W
02E7E:  MOVWF  03
02E80:  MOVF   01,W
02E82:  ADDLW  21
02E84:  MOVWF  FE9
02E86:  MOVLW  04
02E88:  ADDWFC 03,W
02E8A:  MOVWF  FEA
02E8C:  MOVF   FEF,W
02E8E:  SUBLW  09
02E90:  BNC   2EC8
....................          CiclosPersonalizados[i].NivelVacio=25;    
02E92:  MOVFF  3A3,463
02E96:  MOVFF  3A2,462
02E9A:  CLRF   x65
02E9C:  MOVLW  0A
02E9E:  MOVWF  x64
02EA0:  MOVLB  0
02EA2:  CALL   1EA0
02EA6:  MOVFF  01,449
02EAA:  MOVLW  07
02EAC:  MOVLB  4
02EAE:  ADDWF  01,W
02EB0:  MOVWF  01
02EB2:  MOVLW  00
02EB4:  ADDWFC 02,W
02EB6:  MOVWF  03
02EB8:  MOVF   01,W
02EBA:  ADDLW  21
02EBC:  MOVWF  FE9
02EBE:  MOVLW  04
02EC0:  ADDWFC 03,W
02EC2:  MOVWF  FEA
02EC4:  MOVLW  19
02EC6:  MOVWF  FEF
....................       if(CiclosPersonalizados[i].NivelDesfogue>6) 
02EC8:  MOVFF  3A3,463
02ECC:  MOVFF  3A2,462
02ED0:  CLRF   x65
02ED2:  MOVLW  0A
02ED4:  MOVWF  x64
02ED6:  MOVLB  0
02ED8:  CALL   1EA0
02EDC:  MOVFF  02,44A
02EE0:  MOVFF  01,449
02EE4:  MOVLW  08
02EE6:  MOVLB  4
02EE8:  ADDWF  01,W
02EEA:  MOVWF  01
02EEC:  MOVLW  00
02EEE:  ADDWFC 02,W
02EF0:  MOVWF  03
02EF2:  MOVF   01,W
02EF4:  ADDLW  21
02EF6:  MOVWF  FE9
02EF8:  MOVLW  04
02EFA:  ADDWFC 03,W
02EFC:  MOVWF  FEA
02EFE:  MOVF   FEF,W
02F00:  SUBLW  06
02F02:  BC    2F3A
....................          CiclosPersonalizados[i].NivelDesfogue=6; 
02F04:  MOVFF  3A3,463
02F08:  MOVFF  3A2,462
02F0C:  CLRF   x65
02F0E:  MOVLW  0A
02F10:  MOVWF  x64
02F12:  MOVLB  0
02F14:  CALL   1EA0
02F18:  MOVFF  01,449
02F1C:  MOVLW  08
02F1E:  MOVLB  4
02F20:  ADDWF  01,W
02F22:  MOVWF  01
02F24:  MOVLW  00
02F26:  ADDWFC 02,W
02F28:  MOVWF  03
02F2A:  MOVF   01,W
02F2C:  ADDLW  21
02F2E:  MOVWF  FE9
02F30:  MOVLW  04
02F32:  ADDWFC 03,W
02F34:  MOVWF  FEA
02F36:  MOVLW  06
02F38:  MOVWF  FEF
....................    } 
02F3A:  MOVLB  3
02F3C:  INCF   xA2,F
02F3E:  BTFSC  FD8.2
02F40:  INCF   xA3,F
02F42:  GOTO   270A
.................... } 
02F46:  MOVLB  0
02F48:  GOTO   8188 (RETURN)
....................  
.................... void LimitaValores(){ 
....................    if(Testerilizacionp[0]>9 || Testerilizacionp[0]<0){ 
*
030FA:  BTFSC  xB6.7
030FC:  BRA    3104
030FE:  MOVF   xB6,W
03100:  SUBLW  09
03102:  BNC   310A
03104:  BTFSC  xB6.7
03106:  BRA    310A
03108:  BRA    3142
....................       Testerilizacionp[0]=0; 
0310A:  CLRF   xB6
....................       write_eeprom(0,0); 
0310C:  CLRF   FAA
0310E:  CLRF   FA9
03110:  CLRF   FA8
03112:  BCF    FA6.6
03114:  BCF    FA6.7
03116:  BSF    FA6.2
03118:  MOVF   FF2,W
0311A:  MOVWF  00
0311C:  BCF    FF2.6
0311E:  BCF    FF2.7
03120:  MOVLB  F
03122:  MOVLW  55
03124:  MOVWF  FA7
03126:  MOVLW  AA
03128:  MOVWF  FA7
0312A:  BSF    FA6.1
0312C:  BTFSC  FA6.1
0312E:  BRA    312C
03130:  BCF    FA6.2
03132:  MOVF   00,W
03134:  IORWF  FF2,F
....................       delay_ms(10); 
03136:  MOVLW  0A
03138:  MOVLB  4
0313A:  MOVWF  x62
0313C:  MOVLB  0
0313E:  CALL   1A6C
....................    } 
....................    if(Testerilizacionp[1]>9 || Testerilizacionp[1]<0){ 
03142:  BTFSC  xB7.7
03144:  BRA    314C
03146:  MOVF   xB7,W
03148:  SUBLW  09
0314A:  BNC   3152
0314C:  BTFSC  xB7.7
0314E:  BRA    3152
03150:  BRA    318C
....................       Testerilizacionp[1]=0; 
03152:  CLRF   xB7
....................       write_eeprom(1,0); 
03154:  CLRF   FAA
03156:  MOVLW  01
03158:  MOVWF  FA9
0315A:  CLRF   FA8
0315C:  BCF    FA6.6
0315E:  BCF    FA6.7
03160:  BSF    FA6.2
03162:  MOVF   FF2,W
03164:  MOVWF  00
03166:  BCF    FF2.6
03168:  BCF    FF2.7
0316A:  MOVLB  F
0316C:  MOVLW  55
0316E:  MOVWF  FA7
03170:  MOVLW  AA
03172:  MOVWF  FA7
03174:  BSF    FA6.1
03176:  BTFSC  FA6.1
03178:  BRA    3176
0317A:  BCF    FA6.2
0317C:  MOVF   00,W
0317E:  IORWF  FF2,F
....................       delay_ms(10); 
03180:  MOVLW  0A
03182:  MOVLB  4
03184:  MOVWF  x62
03186:  MOVLB  0
03188:  CALL   1A6C
....................    } 
....................    if(Testerilizacionp[2]>9 || Testerilizacionp[2]<0){ 
0318C:  BTFSC  xB8.7
0318E:  BRA    3196
03190:  MOVF   xB8,W
03192:  SUBLW  09
03194:  BNC   319C
03196:  BTFSC  xB8.7
03198:  BRA    319C
0319A:  BRA    31D6
....................       Testerilizacionp[2]=0; 
0319C:  CLRF   xB8
....................       write_eeprom(2,0); 
0319E:  CLRF   FAA
031A0:  MOVLW  02
031A2:  MOVWF  FA9
031A4:  CLRF   FA8
031A6:  BCF    FA6.6
031A8:  BCF    FA6.7
031AA:  BSF    FA6.2
031AC:  MOVF   FF2,W
031AE:  MOVWF  00
031B0:  BCF    FF2.6
031B2:  BCF    FF2.7
031B4:  MOVLB  F
031B6:  MOVLW  55
031B8:  MOVWF  FA7
031BA:  MOVLW  AA
031BC:  MOVWF  FA7
031BE:  BSF    FA6.1
031C0:  BTFSC  FA6.1
031C2:  BRA    31C0
031C4:  BCF    FA6.2
031C6:  MOVF   00,W
031C8:  IORWF  FF2,F
....................       delay_ms(10); 
031CA:  MOVLW  0A
031CC:  MOVLB  4
031CE:  MOVWF  x62
031D0:  MOVLB  0
031D2:  CALL   1A6C
....................    } 
....................    if(Testerilizacionp[3]>9 || Testerilizacionp[3]<0){ 
031D6:  BTFSC  xB9.7
031D8:  BRA    31E0
031DA:  MOVF   xB9,W
031DC:  SUBLW  09
031DE:  BNC   31E6
031E0:  BTFSC  xB9.7
031E2:  BRA    31E6
031E4:  BRA    3220
....................       Testerilizacionp[3]=0; 
031E6:  CLRF   xB9
....................       write_eeprom(3,0); 
031E8:  CLRF   FAA
031EA:  MOVLW  03
031EC:  MOVWF  FA9
031EE:  CLRF   FA8
031F0:  BCF    FA6.6
031F2:  BCF    FA6.7
031F4:  BSF    FA6.2
031F6:  MOVF   FF2,W
031F8:  MOVWF  00
031FA:  BCF    FF2.6
031FC:  BCF    FF2.7
031FE:  MOVLB  F
03200:  MOVLW  55
03202:  MOVWF  FA7
03204:  MOVLW  AA
03206:  MOVWF  FA7
03208:  BSF    FA6.1
0320A:  BTFSC  FA6.1
0320C:  BRA    320A
0320E:  BCF    FA6.2
03210:  MOVF   00,W
03212:  IORWF  FF2,F
....................       delay_ms(10); 
03214:  MOVLW  0A
03216:  MOVLB  4
03218:  MOVWF  x62
0321A:  MOVLB  0
0321C:  CALL   1A6C
....................    } 
....................    if(Tsecadop[0]>9 || Tsecadop[0]<0){ 
03220:  BTFSC  xBF.7
03222:  BRA    322A
03224:  MOVF   xBF,W
03226:  SUBLW  09
03228:  BNC   3230
0322A:  BTFSC  xBF.7
0322C:  BRA    3230
0322E:  BRA    326A
....................       Tsecadop[0]=0; 
03230:  CLRF   xBF
....................       write_eeprom(4,0); 
03232:  CLRF   FAA
03234:  MOVLW  04
03236:  MOVWF  FA9
03238:  CLRF   FA8
0323A:  BCF    FA6.6
0323C:  BCF    FA6.7
0323E:  BSF    FA6.2
03240:  MOVF   FF2,W
03242:  MOVWF  00
03244:  BCF    FF2.6
03246:  BCF    FF2.7
03248:  MOVLB  F
0324A:  MOVLW  55
0324C:  MOVWF  FA7
0324E:  MOVLW  AA
03250:  MOVWF  FA7
03252:  BSF    FA6.1
03254:  BTFSC  FA6.1
03256:  BRA    3254
03258:  BCF    FA6.2
0325A:  MOVF   00,W
0325C:  IORWF  FF2,F
....................       delay_ms(10); 
0325E:  MOVLW  0A
03260:  MOVLB  4
03262:  MOVWF  x62
03264:  MOVLB  0
03266:  CALL   1A6C
....................    } 
....................    if(Tsecadop[1]>9 || Tsecadop[1]<0){ 
0326A:  BTFSC  xC0.7
0326C:  BRA    3274
0326E:  MOVF   xC0,W
03270:  SUBLW  09
03272:  BNC   327A
03274:  BTFSC  xC0.7
03276:  BRA    327A
03278:  BRA    32B4
....................       Tsecadop[1]=0; 
0327A:  CLRF   xC0
....................       write_eeprom(5,0); 
0327C:  CLRF   FAA
0327E:  MOVLW  05
03280:  MOVWF  FA9
03282:  CLRF   FA8
03284:  BCF    FA6.6
03286:  BCF    FA6.7
03288:  BSF    FA6.2
0328A:  MOVF   FF2,W
0328C:  MOVWF  00
0328E:  BCF    FF2.6
03290:  BCF    FF2.7
03292:  MOVLB  F
03294:  MOVLW  55
03296:  MOVWF  FA7
03298:  MOVLW  AA
0329A:  MOVWF  FA7
0329C:  BSF    FA6.1
0329E:  BTFSC  FA6.1
032A0:  BRA    329E
032A2:  BCF    FA6.2
032A4:  MOVF   00,W
032A6:  IORWF  FF2,F
....................       delay_ms(10); 
032A8:  MOVLW  0A
032AA:  MOVLB  4
032AC:  MOVWF  x62
032AE:  MOVLB  0
032B0:  CALL   1A6C
....................    } 
....................    if(Tsecadop[2]>9 || Tsecadop[2]<0){ 
032B4:  BTFSC  xC1.7
032B6:  BRA    32BE
032B8:  MOVF   xC1,W
032BA:  SUBLW  09
032BC:  BNC   32C4
032BE:  BTFSC  xC1.7
032C0:  BRA    32C4
032C2:  BRA    32FE
....................       Tsecadop[2]=0; 
032C4:  CLRF   xC1
....................       write_eeprom(6,0); 
032C6:  CLRF   FAA
032C8:  MOVLW  06
032CA:  MOVWF  FA9
032CC:  CLRF   FA8
032CE:  BCF    FA6.6
032D0:  BCF    FA6.7
032D2:  BSF    FA6.2
032D4:  MOVF   FF2,W
032D6:  MOVWF  00
032D8:  BCF    FF2.6
032DA:  BCF    FF2.7
032DC:  MOVLB  F
032DE:  MOVLW  55
032E0:  MOVWF  FA7
032E2:  MOVLW  AA
032E4:  MOVWF  FA7
032E6:  BSF    FA6.1
032E8:  BTFSC  FA6.1
032EA:  BRA    32E8
032EC:  BCF    FA6.2
032EE:  MOVF   00,W
032F0:  IORWF  FF2,F
....................       delay_ms(10); 
032F2:  MOVLW  0A
032F4:  MOVLB  4
032F6:  MOVWF  x62
032F8:  MOVLB  0
032FA:  CALL   1A6C
....................    } 
....................    if(Tsecadop[3]>9 || Tsecadop[3]<0){ 
032FE:  BTFSC  xC2.7
03300:  BRA    3308
03302:  MOVF   xC2,W
03304:  SUBLW  09
03306:  BNC   330E
03308:  BTFSC  xC2.7
0330A:  BRA    330E
0330C:  BRA    3348
....................       Tsecadop[3]=0; 
0330E:  CLRF   xC2
....................       write_eeprom(7,0); 
03310:  CLRF   FAA
03312:  MOVLW  07
03314:  MOVWF  FA9
03316:  CLRF   FA8
03318:  BCF    FA6.6
0331A:  BCF    FA6.7
0331C:  BSF    FA6.2
0331E:  MOVF   FF2,W
03320:  MOVWF  00
03322:  BCF    FF2.6
03324:  BCF    FF2.7
03326:  MOVLB  F
03328:  MOVLW  55
0332A:  MOVWF  FA7
0332C:  MOVLW  AA
0332E:  MOVWF  FA7
03330:  BSF    FA6.1
03332:  BTFSC  FA6.1
03334:  BRA    3332
03336:  BCF    FA6.2
03338:  MOVF   00,W
0333A:  IORWF  FF2,F
....................       delay_ms(10); 
0333C:  MOVLW  0A
0333E:  MOVLB  4
03340:  MOVWF  x62
03342:  MOVLB  0
03344:  CALL   1A6C
....................    } 
....................    if(Setpoint>134){ 
03348:  MOVLB  3
0334A:  MOVF   x63,W
0334C:  SUBLW  86
0334E:  BC    3390
....................       Setpoint=134; 
03350:  MOVLW  86
03352:  MOVWF  x63
....................       write_eeprom(8,134); 
03354:  CLRF   FAA
03356:  MOVLW  08
03358:  MOVWF  FA9
0335A:  MOVLW  86
0335C:  MOVWF  FA8
0335E:  BCF    FA6.6
03360:  BCF    FA6.7
03362:  BSF    FA6.2
03364:  MOVF   FF2,W
03366:  MOVWF  00
03368:  BCF    FF2.6
0336A:  BCF    FF2.7
0336C:  MOVLB  F
0336E:  MOVLW  55
03370:  MOVWF  FA7
03372:  MOVLW  AA
03374:  MOVWF  FA7
03376:  BSF    FA6.1
03378:  BTFSC  FA6.1
0337A:  BRA    3378
0337C:  BCF    FA6.2
0337E:  MOVF   00,W
03380:  IORWF  FF2,F
....................       delay_ms(10); 
03382:  MOVLW  0A
03384:  MOVLB  4
03386:  MOVWF  x62
03388:  MOVLB  0
0338A:  CALL   1A6C
0338E:  MOVLB  3
....................    } 
....................    if(Nivel>6){ 
03390:  MOVF   x72,F
03392:  BNZ   339A
03394:  MOVF   x71,W
03396:  SUBLW  06
03398:  BC    33DC
....................       Nivel=3; 
0339A:  CLRF   x72
0339C:  MOVLW  03
0339E:  MOVWF  x71
....................       write_eeprom(9,3); 
033A0:  CLRF   FAA
033A2:  MOVLW  09
033A4:  MOVWF  FA9
033A6:  MOVLW  03
033A8:  MOVWF  FA8
033AA:  BCF    FA6.6
033AC:  BCF    FA6.7
033AE:  BSF    FA6.2
033B0:  MOVF   FF2,W
033B2:  MOVWF  00
033B4:  BCF    FF2.6
033B6:  BCF    FF2.7
033B8:  MOVLB  F
033BA:  MOVLW  55
033BC:  MOVWF  FA7
033BE:  MOVLW  AA
033C0:  MOVWF  FA7
033C2:  BSF    FA6.1
033C4:  BTFSC  FA6.1
033C6:  BRA    33C4
033C8:  BCF    FA6.2
033CA:  MOVF   00,W
033CC:  IORWF  FF2,F
....................       delay_ms(10); 
033CE:  MOVLW  0A
033D0:  MOVLB  4
033D2:  MOVWF  x62
033D4:  MOVLB  0
033D6:  CALL   1A6C
033DA:  MOVLB  3
....................    } 
....................    if(Password[0]>9 || Password[0]<0){ 
033DC:  BTFSC  x87.7
033DE:  BRA    33E6
033E0:  MOVF   x87,W
033E2:  SUBLW  09
033E4:  BNC   33EC
033E6:  BTFSC  x87.7
033E8:  BRA    33EC
033EA:  BRA    3428
....................       Password[0]=0; 
033EC:  CLRF   x87
....................       write_eeprom(10,0); 
033EE:  CLRF   FAA
033F0:  MOVLW  0A
033F2:  MOVWF  FA9
033F4:  CLRF   FA8
033F6:  BCF    FA6.6
033F8:  BCF    FA6.7
033FA:  BSF    FA6.2
033FC:  MOVF   FF2,W
033FE:  MOVWF  00
03400:  BCF    FF2.6
03402:  BCF    FF2.7
03404:  MOVLB  F
03406:  MOVLW  55
03408:  MOVWF  FA7
0340A:  MOVLW  AA
0340C:  MOVWF  FA7
0340E:  BSF    FA6.1
03410:  BTFSC  FA6.1
03412:  BRA    3410
03414:  BCF    FA6.2
03416:  MOVF   00,W
03418:  IORWF  FF2,F
....................       delay_ms(10); 
0341A:  MOVLW  0A
0341C:  MOVLB  4
0341E:  MOVWF  x62
03420:  MOVLB  0
03422:  CALL   1A6C
03426:  MOVLB  3
....................    } 
....................    if(Password[1]>9 || Password[1]<0){ 
03428:  BTFSC  x88.7
0342A:  BRA    3432
0342C:  MOVF   x88,W
0342E:  SUBLW  09
03430:  BNC   3438
03432:  BTFSC  x88.7
03434:  BRA    3438
03436:  BRA    3474
....................       Password[1]=0; 
03438:  CLRF   x88
....................       write_eeprom(11,0); 
0343A:  CLRF   FAA
0343C:  MOVLW  0B
0343E:  MOVWF  FA9
03440:  CLRF   FA8
03442:  BCF    FA6.6
03444:  BCF    FA6.7
03446:  BSF    FA6.2
03448:  MOVF   FF2,W
0344A:  MOVWF  00
0344C:  BCF    FF2.6
0344E:  BCF    FF2.7
03450:  MOVLB  F
03452:  MOVLW  55
03454:  MOVWF  FA7
03456:  MOVLW  AA
03458:  MOVWF  FA7
0345A:  BSF    FA6.1
0345C:  BTFSC  FA6.1
0345E:  BRA    345C
03460:  BCF    FA6.2
03462:  MOVF   00,W
03464:  IORWF  FF2,F
....................       delay_ms(10); 
03466:  MOVLW  0A
03468:  MOVLB  4
0346A:  MOVWF  x62
0346C:  MOVLB  0
0346E:  CALL   1A6C
03472:  MOVLB  3
....................    } 
....................    if(Password[2]>9 || Password[2]<0){ 
03474:  BTFSC  x89.7
03476:  BRA    347E
03478:  MOVF   x89,W
0347A:  SUBLW  09
0347C:  BNC   3484
0347E:  BTFSC  x89.7
03480:  BRA    3484
03482:  BRA    34C0
....................       Password[2]=0; 
03484:  CLRF   x89
....................       write_eeprom(12,0); 
03486:  CLRF   FAA
03488:  MOVLW  0C
0348A:  MOVWF  FA9
0348C:  CLRF   FA8
0348E:  BCF    FA6.6
03490:  BCF    FA6.7
03492:  BSF    FA6.2
03494:  MOVF   FF2,W
03496:  MOVWF  00
03498:  BCF    FF2.6
0349A:  BCF    FF2.7
0349C:  MOVLB  F
0349E:  MOVLW  55
034A0:  MOVWF  FA7
034A2:  MOVLW  AA
034A4:  MOVWF  FA7
034A6:  BSF    FA6.1
034A8:  BTFSC  FA6.1
034AA:  BRA    34A8
034AC:  BCF    FA6.2
034AE:  MOVF   00,W
034B0:  IORWF  FF2,F
....................       delay_ms(10); 
034B2:  MOVLW  0A
034B4:  MOVLB  4
034B6:  MOVWF  x62
034B8:  MOVLB  0
034BA:  CALL   1A6C
034BE:  MOVLB  3
....................    } 
....................    if(Password[3]>9 || Password[3]<0){ 
034C0:  BTFSC  x8A.7
034C2:  BRA    34CA
034C4:  MOVF   x8A,W
034C6:  SUBLW  09
034C8:  BNC   34D0
034CA:  BTFSC  x8A.7
034CC:  BRA    34D0
034CE:  BRA    350A
....................       Password[3]=0; 
034D0:  CLRF   x8A
....................       write_eeprom(13,0); 
034D2:  CLRF   FAA
034D4:  MOVLW  0D
034D6:  MOVWF  FA9
034D8:  CLRF   FA8
034DA:  BCF    FA6.6
034DC:  BCF    FA6.7
034DE:  BSF    FA6.2
034E0:  MOVF   FF2,W
034E2:  MOVWF  00
034E4:  BCF    FF2.6
034E6:  BCF    FF2.7
034E8:  MOVLB  F
034EA:  MOVLW  55
034EC:  MOVWF  FA7
034EE:  MOVLW  AA
034F0:  MOVWF  FA7
034F2:  BSF    FA6.1
034F4:  BTFSC  FA6.1
034F6:  BRA    34F4
034F8:  BCF    FA6.2
034FA:  MOVF   00,W
034FC:  IORWF  FF2,F
....................       delay_ms(10); 
034FE:  MOVLW  0A
03500:  MOVLB  4
03502:  MOVWF  x62
03504:  MOVLB  0
03506:  CALL   1A6C
....................    } 
....................    if(Ganancia>12.0){ 
0350A:  MOVLB  4
0350C:  CLRF   x50
0350E:  CLRF   x4F
03510:  MOVLW  40
03512:  MOVWF  x4E
03514:  MOVLW  82
03516:  MOVWF  x4D
03518:  MOVFF  308,454
0351C:  MOVFF  307,453
03520:  MOVFF  306,452
03524:  MOVFF  305,451
03528:  MOVLB  0
0352A:  RCALL  3032
0352C:  BNC   3576
....................       Ganancia=12.0; 
0352E:  MOVLB  3
03530:  CLRF   x08
03532:  CLRF   x07
03534:  MOVLW  40
03536:  MOVWF  x06
03538:  MOVLW  82
0353A:  MOVWF  x05
....................       write_eeprom(20,12); 
0353C:  CLRF   FAA
0353E:  MOVLW  14
03540:  MOVWF  FA9
03542:  MOVLW  0C
03544:  MOVWF  FA8
03546:  BCF    FA6.6
03548:  BCF    FA6.7
0354A:  BSF    FA6.2
0354C:  MOVF   FF2,W
0354E:  MOVWF  00
03550:  BCF    FF2.6
03552:  BCF    FF2.7
03554:  MOVLB  F
03556:  MOVLW  55
03558:  MOVWF  FA7
0355A:  MOVLW  AA
0355C:  MOVWF  FA7
0355E:  BSF    FA6.1
03560:  BTFSC  FA6.1
03562:  BRA    3560
03564:  BCF    FA6.2
03566:  MOVF   00,W
03568:  IORWF  FF2,F
....................       delay_ms(10); 
0356A:  MOVLW  0A
0356C:  MOVLB  4
0356E:  MOVWF  x62
03570:  MOVLB  0
03572:  CALL   1A6C
....................    } 
....................    if(Ajuste>100){ 
03576:  MOVLB  2
03578:  MOVF   xD9,W
0357A:  SUBLW  64
0357C:  BC    35BA
....................       Ajuste=0; 
0357E:  CLRF   xD9
....................       write_eeprom(21,0); 
03580:  CLRF   FAA
03582:  MOVLW  15
03584:  MOVWF  FA9
03586:  CLRF   FA8
03588:  BCF    FA6.6
0358A:  BCF    FA6.7
0358C:  BSF    FA6.2
0358E:  MOVF   FF2,W
03590:  MOVWF  00
03592:  BCF    FF2.6
03594:  BCF    FF2.7
03596:  MOVLB  F
03598:  MOVLW  55
0359A:  MOVWF  FA7
0359C:  MOVLW  AA
0359E:  MOVWF  FA7
035A0:  BSF    FA6.1
035A2:  BTFSC  FA6.1
035A4:  BRA    35A2
035A6:  BCF    FA6.2
035A8:  MOVF   00,W
035AA:  IORWF  FF2,F
....................       delay_ms(10); 
035AC:  MOVLW  0A
035AE:  MOVLB  4
035B0:  MOVWF  x62
035B2:  MOVLB  0
035B4:  CALL   1A6C
035B8:  MOVLB  2
....................    } 
....................    if(Ajusten>100){ 
035BA:  MOVF   xDA,W
035BC:  SUBLW  64
035BE:  BC    35FC
....................       Ajusten=0; 
035C0:  CLRF   xDA
....................       write_eeprom(22,0); 
035C2:  CLRF   FAA
035C4:  MOVLW  16
035C6:  MOVWF  FA9
035C8:  CLRF   FA8
035CA:  BCF    FA6.6
035CC:  BCF    FA6.7
035CE:  BSF    FA6.2
035D0:  MOVF   FF2,W
035D2:  MOVWF  00
035D4:  BCF    FF2.6
035D6:  BCF    FF2.7
035D8:  MOVLB  F
035DA:  MOVLW  55
035DC:  MOVWF  FA7
035DE:  MOVLW  AA
035E0:  MOVWF  FA7
035E2:  BSF    FA6.1
035E4:  BTFSC  FA6.1
035E6:  BRA    35E4
035E8:  BCF    FA6.2
035EA:  MOVF   00,W
035EC:  IORWF  FF2,F
....................       delay_ms(10); 
035EE:  MOVLW  0A
035F0:  MOVLB  4
035F2:  MOVWF  x62
035F4:  MOVLB  0
035F6:  CALL   1A6C
035FA:  MOVLB  2
....................    } 
....................    if(MediaMovil>80){ 
035FC:  MOVF   xDB,W
035FE:  SUBLW  50
03600:  BC    3640
....................       MediaMovil=80; 
03602:  MOVLW  50
03604:  MOVWF  xDB
....................       write_eeprom(24,80); 
03606:  CLRF   FAA
03608:  MOVLW  18
0360A:  MOVWF  FA9
0360C:  MOVLW  50
0360E:  MOVWF  FA8
03610:  BCF    FA6.6
03612:  BCF    FA6.7
03614:  BSF    FA6.2
03616:  MOVF   FF2,W
03618:  MOVWF  00
0361A:  BCF    FF2.6
0361C:  BCF    FF2.7
0361E:  MOVLB  F
03620:  MOVLW  55
03622:  MOVWF  FA7
03624:  MOVLW  AA
03626:  MOVWF  FA7
03628:  BSF    FA6.1
0362A:  BTFSC  FA6.1
0362C:  BRA    362A
0362E:  BCF    FA6.2
03630:  MOVF   00,W
03632:  IORWF  FF2,F
....................       delay_ms(10); 
03634:  MOVLW  0A
03636:  MOVLB  4
03638:  MOVWF  x62
0363A:  MOVLB  0
0363C:  CALL   1A6C
....................    } 
....................    if(Tciclo>10){ 
03640:  MOVLB  4
03642:  CLRF   x50
03644:  CLRF   x4F
03646:  MOVLW  20
03648:  MOVWF  x4E
0364A:  MOVLW  82
0364C:  MOVWF  x4D
0364E:  MOVFF  2F0,454
03652:  MOVFF  2EF,453
03656:  MOVFF  2EE,452
0365A:  MOVFF  2ED,451
0365E:  MOVLB  0
03660:  RCALL  3032
03662:  BNC   36AC
....................       Tciclo=10; 
03664:  MOVLB  2
03666:  CLRF   xF0
03668:  CLRF   xEF
0366A:  MOVLW  20
0366C:  MOVWF  xEE
0366E:  MOVLW  82
03670:  MOVWF  xED
....................       write_eeprom(25,10); 
03672:  CLRF   FAA
03674:  MOVLW  19
03676:  MOVWF  FA9
03678:  MOVLW  0A
0367A:  MOVWF  FA8
0367C:  BCF    FA6.6
0367E:  BCF    FA6.7
03680:  BSF    FA6.2
03682:  MOVF   FF2,W
03684:  MOVWF  00
03686:  BCF    FF2.6
03688:  BCF    FF2.7
0368A:  MOVLB  F
0368C:  MOVLW  55
0368E:  MOVWF  FA7
03690:  MOVLW  AA
03692:  MOVWF  FA7
03694:  BSF    FA6.1
03696:  BTFSC  FA6.1
03698:  BRA    3696
0369A:  BCF    FA6.2
0369C:  MOVF   00,W
0369E:  IORWF  FF2,F
....................       delay_ms(10); 
036A0:  MOVLW  0A
036A2:  MOVLB  4
036A4:  MOVWF  x62
036A6:  MOVLB  0
036A8:  CALL   1A6C
....................    } 
....................    if(Integral>2.0){ 
036AC:  MOVLB  4
036AE:  CLRF   x5F
036B0:  MOVFF  339,45E
036B4:  MOVLB  0
036B6:  CALL   1A94
036BA:  MOVLB  4
036BC:  CLRF   x50
036BE:  CLRF   x4F
036C0:  CLRF   x4E
036C2:  MOVLW  80
036C4:  MOVWF  x4D
036C6:  MOVFF  03,454
036CA:  MOVFF  02,453
036CE:  MOVFF  01,452
036D2:  MOVFF  00,451
036D6:  MOVLB  0
036D8:  RCALL  3032
036DA:  BNC   371C
....................       Integral=1.0; 
036DC:  MOVLW  01
036DE:  MOVLB  3
036E0:  MOVWF  x39
....................       write_eeprom(26,1); 
036E2:  CLRF   FAA
036E4:  MOVLW  1A
036E6:  MOVWF  FA9
036E8:  MOVLW  01
036EA:  MOVWF  FA8
036EC:  BCF    FA6.6
036EE:  BCF    FA6.7
036F0:  BSF    FA6.2
036F2:  MOVF   FF2,W
036F4:  MOVWF  00
036F6:  BCF    FF2.6
036F8:  BCF    FF2.7
036FA:  MOVLB  F
036FC:  MOVLW  55
036FE:  MOVWF  FA7
03700:  MOVLW  AA
03702:  MOVWF  FA7
03704:  BSF    FA6.1
03706:  BTFSC  FA6.1
03708:  BRA    3706
0370A:  BCF    FA6.2
0370C:  MOVF   00,W
0370E:  IORWF  FF2,F
....................       delay_ms(10); 
03710:  MOVLW  0A
03712:  MOVLB  4
03714:  MOVWF  x62
03716:  MOVLB  0
03718:  CALL   1A6C
....................    } 
....................    if(Derivativo>20.0){ 
0371C:  MOVLB  4
0371E:  CLRF   x5F
03720:  MOVFF  33A,45E
03724:  MOVLB  0
03726:  CALL   1A94
0372A:  MOVLB  4
0372C:  CLRF   x50
0372E:  CLRF   x4F
03730:  MOVLW  20
03732:  MOVWF  x4E
03734:  MOVLW  83
03736:  MOVWF  x4D
03738:  MOVFF  03,454
0373C:  MOVFF  02,453
03740:  MOVFF  01,452
03744:  MOVFF  00,451
03748:  MOVLB  0
0374A:  RCALL  3032
0374C:  BNC   378E
....................       Derivativo=15.0; 
0374E:  MOVLW  0F
03750:  MOVLB  3
03752:  MOVWF  x3A
....................       write_eeprom(27,15); 
03754:  CLRF   FAA
03756:  MOVLW  1B
03758:  MOVWF  FA9
0375A:  MOVLW  0F
0375C:  MOVWF  FA8
0375E:  BCF    FA6.6
03760:  BCF    FA6.7
03762:  BSF    FA6.2
03764:  MOVF   FF2,W
03766:  MOVWF  00
03768:  BCF    FF2.6
0376A:  BCF    FF2.7
0376C:  MOVLB  F
0376E:  MOVLW  55
03770:  MOVWF  FA7
03772:  MOVLW  AA
03774:  MOVWF  FA7
03776:  BSF    FA6.1
03778:  BTFSC  FA6.1
0377A:  BRA    3778
0377C:  BCF    FA6.2
0377E:  MOVF   00,W
03780:  IORWF  FF2,F
....................       delay_ms(10); 
03782:  MOVLW  0A
03784:  MOVLB  4
03786:  MOVWF  x62
03788:  MOVLB  0
0378A:  CALL   1A6C
....................    } 
....................    if(Gain>50){ 
0378E:  MOVLB  4
03790:  CLRF   x50
03792:  CLRF   x4F
03794:  MOVLW  48
03796:  MOVWF  x4E
03798:  MOVLW  84
0379A:  MOVWF  x4D
0379C:  MOVFF  2A6,454
037A0:  MOVFF  2A5,453
037A4:  MOVFF  2A4,452
037A8:  MOVFF  2A3,451
037AC:  MOVLB  0
037AE:  RCALL  3032
037B0:  BNC   3838
....................       Gain=40.2; 
037B2:  MOVLW  CD
037B4:  MOVLB  2
037B6:  MOVWF  xA6
037B8:  MOVLW  CC
037BA:  MOVWF  xA5
037BC:  MOVLW  20
037BE:  MOVWF  xA4
037C0:  MOVLW  84
037C2:  MOVWF  xA3
....................       write_eeprom(28,40); 
037C4:  CLRF   FAA
037C6:  MOVLW  1C
037C8:  MOVWF  FA9
037CA:  MOVLW  28
037CC:  MOVWF  FA8
037CE:  BCF    FA6.6
037D0:  BCF    FA6.7
037D2:  BSF    FA6.2
037D4:  MOVF   FF2,W
037D6:  MOVWF  00
037D8:  BCF    FF2.6
037DA:  BCF    FF2.7
037DC:  MOVLB  F
037DE:  MOVLW  55
037E0:  MOVWF  FA7
037E2:  MOVLW  AA
037E4:  MOVWF  FA7
037E6:  BSF    FA6.1
037E8:  BTFSC  FA6.1
037EA:  BRA    37E8
037EC:  BCF    FA6.2
037EE:  MOVF   00,W
037F0:  IORWF  FF2,F
....................       delay_ms(10); 
037F2:  MOVLW  0A
037F4:  MOVLB  4
037F6:  MOVWF  x62
037F8:  MOVLB  0
037FA:  CALL   1A6C
....................       write_eeprom(29,2); 
037FE:  CLRF   FAA
03800:  MOVLW  1D
03802:  MOVWF  FA9
03804:  MOVLW  02
03806:  MOVWF  FA8
03808:  BCF    FA6.6
0380A:  BCF    FA6.7
0380C:  BSF    FA6.2
0380E:  MOVF   FF2,W
03810:  MOVWF  00
03812:  BCF    FF2.6
03814:  BCF    FF2.7
03816:  MOVLB  F
03818:  MOVLW  55
0381A:  MOVWF  FA7
0381C:  MOVLW  AA
0381E:  MOVWF  FA7
03820:  BSF    FA6.1
03822:  BTFSC  FA6.1
03824:  BRA    3822
03826:  BCF    FA6.2
03828:  MOVF   00,W
0382A:  IORWF  FF2,F
....................       delay_ms(10); 
0382C:  MOVLW  0A
0382E:  MOVLB  4
03830:  MOVWF  x62
03832:  MOVLB  0
03834:  CALL   1A6C
....................    } 
....................    if(R1>6400){ 
03838:  MOVLB  4
0383A:  CLRF   x50
0383C:  CLRF   x4F
0383E:  MOVLW  48
03840:  MOVWF  x4E
03842:  MOVLW  8B
03844:  MOVWF  x4D
03846:  MOVFF  2B2,454
0384A:  MOVFF  2B1,453
0384E:  MOVFF  2B0,452
03852:  MOVFF  2AF,451
03856:  MOVLB  0
03858:  CALL   3032
0385C:  BNC   38E2
....................       R1=6200; 
0385E:  MOVLB  2
03860:  CLRF   xB2
03862:  MOVLW  C0
03864:  MOVWF  xB1
03866:  MOVLW  41
03868:  MOVWF  xB0
0386A:  MOVLW  8B
0386C:  MOVWF  xAF
....................       write_eeprom(30,0x38); 
0386E:  CLRF   FAA
03870:  MOVLW  1E
03872:  MOVWF  FA9
03874:  MOVLW  38
03876:  MOVWF  FA8
03878:  BCF    FA6.6
0387A:  BCF    FA6.7
0387C:  BSF    FA6.2
0387E:  MOVF   FF2,W
03880:  MOVWF  00
03882:  BCF    FF2.6
03884:  BCF    FF2.7
03886:  MOVLB  F
03888:  MOVLW  55
0388A:  MOVWF  FA7
0388C:  MOVLW  AA
0388E:  MOVWF  FA7
03890:  BSF    FA6.1
03892:  BTFSC  FA6.1
03894:  BRA    3892
03896:  BCF    FA6.2
03898:  MOVF   00,W
0389A:  IORWF  FF2,F
....................       delay_ms(10); 
0389C:  MOVLW  0A
0389E:  MOVLB  4
038A0:  MOVWF  x62
038A2:  MOVLB  0
038A4:  CALL   1A6C
....................       write_eeprom(31,0x18); 
038A8:  CLRF   FAA
038AA:  MOVLW  1F
038AC:  MOVWF  FA9
038AE:  MOVLW  18
038B0:  MOVWF  FA8
038B2:  BCF    FA6.6
038B4:  BCF    FA6.7
038B6:  BSF    FA6.2
038B8:  MOVF   FF2,W
038BA:  MOVWF  00
038BC:  BCF    FF2.6
038BE:  BCF    FF2.7
038C0:  MOVLB  F
038C2:  MOVLW  55
038C4:  MOVWF  FA7
038C6:  MOVLW  AA
038C8:  MOVWF  FA7
038CA:  BSF    FA6.1
038CC:  BTFSC  FA6.1
038CE:  BRA    38CC
038D0:  BCF    FA6.2
038D2:  MOVF   00,W
038D4:  IORWF  FF2,F
....................       delay_ms(10); 
038D6:  MOVLW  0A
038D8:  MOVLB  4
038DA:  MOVWF  x62
038DC:  MOVLB  0
038DE:  CALL   1A6C
....................    } 
....................    if(RPT100>2.0){ 
038E2:  MOVLB  4
038E4:  CLRF   x50
038E6:  CLRF   x4F
038E8:  CLRF   x4E
038EA:  MOVLW  80
038EC:  MOVWF  x4D
038EE:  MOVFF  2AA,454
038F2:  MOVFF  2A9,453
038F6:  MOVFF  2A8,452
038FA:  MOVFF  2A7,451
038FE:  MOVLB  0
03900:  CALL   3032
03904:  BNC   3984
....................       RPT100=0.5; 
03906:  MOVLB  2
03908:  CLRF   xAA
0390A:  CLRF   xA9
0390C:  CLRF   xA8
0390E:  MOVLW  7E
03910:  MOVWF  xA7
....................       write_eeprom(32,0); 
03912:  CLRF   FAA
03914:  MOVLW  20
03916:  MOVWF  FA9
03918:  CLRF   FA8
0391A:  BCF    FA6.6
0391C:  BCF    FA6.7
0391E:  BSF    FA6.2
03920:  MOVF   FF2,W
03922:  MOVWF  00
03924:  BCF    FF2.6
03926:  BCF    FF2.7
03928:  MOVLB  F
0392A:  MOVLW  55
0392C:  MOVWF  FA7
0392E:  MOVLW  AA
03930:  MOVWF  FA7
03932:  BSF    FA6.1
03934:  BTFSC  FA6.1
03936:  BRA    3934
03938:  BCF    FA6.2
0393A:  MOVF   00,W
0393C:  IORWF  FF2,F
....................       delay_ms(10); 
0393E:  MOVLW  0A
03940:  MOVLB  4
03942:  MOVWF  x62
03944:  MOVLB  0
03946:  CALL   1A6C
....................       write_eeprom(33,5); 
0394A:  CLRF   FAA
0394C:  MOVLW  21
0394E:  MOVWF  FA9
03950:  MOVLW  05
03952:  MOVWF  FA8
03954:  BCF    FA6.6
03956:  BCF    FA6.7
03958:  BSF    FA6.2
0395A:  MOVF   FF2,W
0395C:  MOVWF  00
0395E:  BCF    FF2.6
03960:  BCF    FF2.7
03962:  MOVLB  F
03964:  MOVLW  55
03966:  MOVWF  FA7
03968:  MOVLW  AA
0396A:  MOVWF  FA7
0396C:  BSF    FA6.1
0396E:  BTFSC  FA6.1
03970:  BRA    396E
03972:  BCF    FA6.2
03974:  MOVF   00,W
03976:  IORWF  FF2,F
....................       delay_ms(10); 
03978:  MOVLW  0A
0397A:  MOVLB  4
0397C:  MOVWF  x62
0397E:  MOVLB  0
03980:  CALL   1A6C
....................    } 
....................    if(Ciclos>60000){ 
03984:  MOVLB  3
03986:  MOVF   x7A,W
03988:  SUBLW  E9
0398A:  BC    3A0A
0398C:  XORLW  FF
0398E:  BNZ   3996
03990:  MOVF   x79,W
03992:  SUBLW  60
03994:  BC    3A0A
....................       Ciclos=0; 
03996:  CLRF   x7A
03998:  CLRF   x79
....................       write_eeprom(37,0); 
0399A:  CLRF   FAA
0399C:  MOVLW  25
0399E:  MOVWF  FA9
039A0:  CLRF   FA8
039A2:  BCF    FA6.6
039A4:  BCF    FA6.7
039A6:  BSF    FA6.2
039A8:  MOVF   FF2,W
039AA:  MOVWF  00
039AC:  BCF    FF2.6
039AE:  BCF    FF2.7
039B0:  MOVLB  F
039B2:  MOVLW  55
039B4:  MOVWF  FA7
039B6:  MOVLW  AA
039B8:  MOVWF  FA7
039BA:  BSF    FA6.1
039BC:  BTFSC  FA6.1
039BE:  BRA    39BC
039C0:  BCF    FA6.2
039C2:  MOVF   00,W
039C4:  IORWF  FF2,F
....................       delay_ms(10); 
039C6:  MOVLW  0A
039C8:  MOVLB  4
039CA:  MOVWF  x62
039CC:  MOVLB  0
039CE:  CALL   1A6C
....................       write_eeprom(38,0); 
039D2:  CLRF   FAA
039D4:  MOVLW  26
039D6:  MOVWF  FA9
039D8:  CLRF   FA8
039DA:  BCF    FA6.6
039DC:  BCF    FA6.7
039DE:  BSF    FA6.2
039E0:  MOVF   FF2,W
039E2:  MOVWF  00
039E4:  BCF    FF2.6
039E6:  BCF    FF2.7
039E8:  MOVLB  F
039EA:  MOVLW  55
039EC:  MOVWF  FA7
039EE:  MOVLW  AA
039F0:  MOVWF  FA7
039F2:  BSF    FA6.1
039F4:  BTFSC  FA6.1
039F6:  BRA    39F4
039F8:  BCF    FA6.2
039FA:  MOVF   00,W
039FC:  IORWF  FF2,F
....................       delay_ms(10); 
039FE:  MOVLW  0A
03A00:  MOVLB  4
03A02:  MOVWF  x62
03A04:  MOVLB  0
03A06:  CALL   1A6C
....................    } 
....................    if(TTrampa>100){ 
03A0A:  MOVLB  2
03A0C:  MOVF   xDC,W
03A0E:  SUBLW  64
03A10:  BC    3A50
....................       TTrampa=80; 
03A12:  MOVLW  50
03A14:  MOVWF  xDC
....................       write_eeprom(39,80); 
03A16:  CLRF   FAA
03A18:  MOVLW  27
03A1A:  MOVWF  FA9
03A1C:  MOVLW  50
03A1E:  MOVWF  FA8
03A20:  BCF    FA6.6
03A22:  BCF    FA6.7
03A24:  BSF    FA6.2
03A26:  MOVF   FF2,W
03A28:  MOVWF  00
03A2A:  BCF    FF2.6
03A2C:  BCF    FF2.7
03A2E:  MOVLB  F
03A30:  MOVLW  55
03A32:  MOVWF  FA7
03A34:  MOVLW  AA
03A36:  MOVWF  FA7
03A38:  BSF    FA6.1
03A3A:  BTFSC  FA6.1
03A3C:  BRA    3A3A
03A3E:  BCF    FA6.2
03A40:  MOVF   00,W
03A42:  IORWF  FF2,F
....................       delay_ms(10); 
03A44:  MOVLW  0A
03A46:  MOVLB  4
03A48:  MOVWF  x62
03A4A:  MOVLB  0
03A4C:  CALL   1A6C
....................    } 
....................    if(ActivaImpresion>1){ 
03A50:  MOVLB  3
03A52:  MOVF   x56,W
03A54:  SUBLW  01
03A56:  BC    3A98
....................       ActivaImpresion=1; 
03A58:  MOVLW  01
03A5A:  MOVWF  x56
....................       write_eeprom(40,1); 
03A5C:  CLRF   FAA
03A5E:  MOVLW  28
03A60:  MOVWF  FA9
03A62:  MOVLW  01
03A64:  MOVWF  FA8
03A66:  BCF    FA6.6
03A68:  BCF    FA6.7
03A6A:  BSF    FA6.2
03A6C:  MOVF   FF2,W
03A6E:  MOVWF  00
03A70:  BCF    FF2.6
03A72:  BCF    FF2.7
03A74:  MOVLB  F
03A76:  MOVLW  55
03A78:  MOVWF  FA7
03A7A:  MOVLW  AA
03A7C:  MOVWF  FA7
03A7E:  BSF    FA6.1
03A80:  BTFSC  FA6.1
03A82:  BRA    3A80
03A84:  BCF    FA6.2
03A86:  MOVF   00,W
03A88:  IORWF  FF2,F
....................       delay_ms(10); 
03A8A:  MOVLW  0A
03A8C:  MOVLB  4
03A8E:  MOVWF  x62
03A90:  MOVLB  0
03A92:  CALL   1A6C
03A96:  MOVLB  3
....................    } 
....................    if(timpresion>30){ 
03A98:  MOVF   x57,W
03A9A:  SUBLW  1E
03A9C:  BC    3ADE
....................       timpresion=2; 
03A9E:  MOVLW  02
03AA0:  MOVWF  x57
....................       write_eeprom(41,2); 
03AA2:  CLRF   FAA
03AA4:  MOVLW  29
03AA6:  MOVWF  FA9
03AA8:  MOVLW  02
03AAA:  MOVWF  FA8
03AAC:  BCF    FA6.6
03AAE:  BCF    FA6.7
03AB0:  BSF    FA6.2
03AB2:  MOVF   FF2,W
03AB4:  MOVWF  00
03AB6:  BCF    FF2.6
03AB8:  BCF    FF2.7
03ABA:  MOVLB  F
03ABC:  MOVLW  55
03ABE:  MOVWF  FA7
03AC0:  MOVLW  AA
03AC2:  MOVWF  FA7
03AC4:  BSF    FA6.1
03AC6:  BTFSC  FA6.1
03AC8:  BRA    3AC6
03ACA:  BCF    FA6.2
03ACC:  MOVF   00,W
03ACE:  IORWF  FF2,F
....................       delay_ms(10); 
03AD0:  MOVLW  0A
03AD2:  MOVLB  4
03AD4:  MOVWF  x62
03AD6:  MOVLB  0
03AD8:  CALL   1A6C
03ADC:  MOVLB  3
....................    } 
....................    if(Atmosferica>100 || Atmosferica<50){ 
03ADE:  MOVF   xB8,W
03AE0:  SUBLW  64
03AE2:  BNC   3AEA
03AE4:  MOVF   xB8,W
03AE6:  SUBLW  31
03AE8:  BNC   3B2A
....................       Atmosferica=72; 
03AEA:  MOVLW  48
03AEC:  MOVWF  xB8
....................       write_eeprom(46,72); 
03AEE:  CLRF   FAA
03AF0:  MOVLW  2E
03AF2:  MOVWF  FA9
03AF4:  MOVLW  48
03AF6:  MOVWF  FA8
03AF8:  BCF    FA6.6
03AFA:  BCF    FA6.7
03AFC:  BSF    FA6.2
03AFE:  MOVF   FF2,W
03B00:  MOVWF  00
03B02:  BCF    FF2.6
03B04:  BCF    FF2.7
03B06:  MOVLB  F
03B08:  MOVLW  55
03B0A:  MOVWF  FA7
03B0C:  MOVLW  AA
03B0E:  MOVWF  FA7
03B10:  BSF    FA6.1
03B12:  BTFSC  FA6.1
03B14:  BRA    3B12
03B16:  BCF    FA6.2
03B18:  MOVF   00,W
03B1A:  IORWF  FF2,F
....................       delay_ms(10); 
03B1C:  MOVLW  0A
03B1E:  MOVLB  4
03B20:  MOVWF  x62
03B22:  MOVLB  0
03B24:  CALL   1A6C
03B28:  MOVLB  3
....................    } 
....................    if(pulsosPurgaProgramados>30 || pulsosPurgaProgramados<1){ 
03B2A:  MOVF   x3D,W
03B2C:  SUBLW  1E
03B2E:  BNC   3B34
03B30:  MOVF   x3D,F
03B32:  BNZ   3B74
....................       pulsosPurgaProgramados=15; 
03B34:  MOVLW  0F
03B36:  MOVWF  x3D
....................       write_eeprom(47,15); 
03B38:  CLRF   FAA
03B3A:  MOVLW  2F
03B3C:  MOVWF  FA9
03B3E:  MOVLW  0F
03B40:  MOVWF  FA8
03B42:  BCF    FA6.6
03B44:  BCF    FA6.7
03B46:  BSF    FA6.2
03B48:  MOVF   FF2,W
03B4A:  MOVWF  00
03B4C:  BCF    FF2.6
03B4E:  BCF    FF2.7
03B50:  MOVLB  F
03B52:  MOVLW  55
03B54:  MOVWF  FA7
03B56:  MOVLW  AA
03B58:  MOVWF  FA7
03B5A:  BSF    FA6.1
03B5C:  BTFSC  FA6.1
03B5E:  BRA    3B5C
03B60:  BCF    FA6.2
03B62:  MOVF   00,W
03B64:  IORWF  FF2,F
....................       delay_ms(10); 
03B66:  MOVLW  0A
03B68:  MOVLB  4
03B6A:  MOVWF  x62
03B6C:  MOVLB  0
03B6E:  CALL   1A6C
03B72:  MOVLB  3
....................    } 
....................    if(sg1==10){ 
03B74:  MOVF   xBB,W
03B76:  SUBLW  0A
03B78:  BNZ   3B90
....................       G1=G1*(-1); 
03B7A:  MOVFF  3B9,44B
03B7E:  MOVLW  FF
03B80:  MOVLB  4
03B82:  MOVWF  x4C
03B84:  MOVLB  0
03B86:  CALL   30AC
03B8A:  MOVFF  01,3B9
03B8E:  MOVLB  3
....................    } 
....................    if(sg2==10){ 
03B90:  MOVF   xBC,W
03B92:  SUBLW  0A
03B94:  BNZ   3BAC
....................       G2=G2*(-1); 
03B96:  MOVFF  3BA,44B
03B9A:  MOVLW  FF
03B9C:  MOVLB  4
03B9E:  MOVWF  x4C
03BA0:  MOVLB  0
03BA2:  CALL   30AC
03BA6:  MOVFF  01,3BA
03BAA:  MOVLB  3
....................    } 
.................... } 
03BAC:  MOVLB  0
03BAE:  GOTO   819C (RETURN)
....................  
.................... void LeeDisplay(void){ 
....................    if(Dato_Exitoso==5){ 
*
04604:  MOVLB  3
04606:  MOVF   x5A,W
04608:  SUBLW  05
0460A:  BTFSS  FD8.2
0460C:  BRA    4782
....................          RX_Buffer[0]=RX_Buffer2[0]; 
0460E:  MOVFF  3B,30
....................          RX_Buffer[1]=RX_Buffer2[1]; 
04612:  MOVFF  3C,31
....................          RX_Buffer[2]=RX_Buffer2[2]; 
04616:  MOVFF  3D,32
....................          RX_Buffer[3]=RX_Buffer2[3]; 
0461A:  MOVFF  3E,33
....................          RX_Buffer[4]=RX_Buffer2[4]; 
0461E:  MOVFF  3F,34
....................          RX_Buffer[5]=RX_Buffer2[5]; 
04622:  MOVFF  40,35
....................          RX_Buffer[6]=RX_Buffer2[6]; 
04626:  MOVFF  41,36
....................          RX_Buffer[7]=RX_Buffer2[7]; 
0462A:  MOVFF  42,37
....................          RX_Buffer[8]=RX_Buffer2[8]; 
0462E:  MOVFF  43,38
....................          RX_Buffer[9]=RX_Buffer2[9]; 
04632:  MOVFF  44,39
....................           
....................       if(RX_Buffer[3]==0x01){// Pregunta por la pagina en la que esta el display,01 es Contrasea de Acceso 
04636:  DECFSZ 33,W
04638:  BRA    4648
....................          Menu=0; 
0463A:  CLRF   x5D
....................          if(MenuAntt!=Menu) 
0463C:  MOVF   x5D,W
0463E:  SUBWF  x5F,W
04640:  BZ    4646
....................             MenuAntt=Menu; 
04642:  MOVFF  35D,35F
....................       }else if(RX_Buffer[3]==0x02){//02 es Menu Principal con PantallaPriincipal=0, y con PantallaPrincipal=1 es Ciclo Libre 
04646:  BRA    4780
04648:  MOVF   33,W
0464A:  SUBLW  02
0464C:  BNZ   465E
....................          Menu=1; 
0464E:  MOVLW  01
04650:  MOVWF  x5D
....................          if(MenuAntt!=Menu) 
04652:  MOVF   x5D,W
04654:  SUBWF  x5F,W
04656:  BZ    465C
....................             MenuAntt=Menu; 
04658:  MOVFF  35D,35F
....................       }else if(RX_Buffer[3]==0x03){//03 es Tiempo Esterilizacion 
0465C:  BRA    4780
0465E:  MOVF   33,W
04660:  SUBLW  03
04662:  BNZ   4674
....................          Menu=2; 
04664:  MOVLW  02
04666:  MOVWF  x5D
....................          if(MenuAntt!=Menu) 
04668:  MOVF   x5D,W
0466A:  SUBWF  x5F,W
0466C:  BZ    4672
....................             MenuAntt=Menu; 
0466E:  MOVFF  35D,35F
....................       }else if(RX_Buffer[3]==0x04){//04 es Tiempo de Secado 
04672:  BRA    4780
04674:  MOVF   33,W
04676:  SUBLW  04
04678:  BNZ   468A
....................          Menu=3; 
0467A:  MOVLW  03
0467C:  MOVWF  x5D
....................          if(MenuAntt!=Menu) 
0467E:  MOVF   x5D,W
04680:  SUBWF  x5F,W
04682:  BZ    4688
....................             MenuAntt=Menu; 
04684:  MOVFF  35D,35F
....................       }else if(RX_Buffer[3]==0x05){//05 es Temperatura 
04688:  BRA    4780
0468A:  MOVF   33,W
0468C:  SUBLW  05
0468E:  BNZ   46A0
....................          Menu=4; 
04690:  MOVLW  04
04692:  MOVWF  x5D
....................          if(MenuAntt!=Menu) 
04694:  MOVF   x5D,W
04696:  SUBWF  x5F,W
04698:  BZ    469E
....................             MenuAntt=Menu; 
0469A:  MOVFF  35D,35F
....................       }else if(RX_Buffer[3]==0x06){//06 es Nivel 
0469E:  BRA    4780
046A0:  MOVF   33,W
046A2:  SUBLW  06
046A4:  BNZ   46B6
....................          Menu=5; 
046A6:  MOVLW  05
046A8:  MOVWF  x5D
....................          if(MenuAntt!=Menu) 
046AA:  MOVF   x5D,W
046AC:  SUBWF  x5F,W
046AE:  BZ    46B4
....................             MenuAntt=Menu; 
046B0:  MOVFF  35D,35F
....................       }else if(RX_Buffer[3]==0x07){//07 es Test de Componentes 
046B4:  BRA    4780
046B6:  MOVF   33,W
046B8:  SUBLW  07
046BA:  BNZ   46CC
....................          Menu=6; 
046BC:  MOVLW  06
046BE:  MOVWF  x5D
....................          if(MenuAntt!=Menu) 
046C0:  MOVF   x5D,W
046C2:  SUBWF  x5F,W
046C4:  BZ    46CA
....................             MenuAntt=Menu; 
046C6:  MOVFF  35D,35F
....................       }else if(RX_Buffer[3]==0x08){//08 es Fecha y hora 
046CA:  BRA    4780
046CC:  MOVF   33,W
046CE:  SUBLW  08
046D0:  BNZ   46E2
....................          Menu=7; 
046D2:  MOVLW  07
046D4:  MOVWF  x5D
....................          if(MenuAntt!=Menu) 
046D6:  MOVF   x5D,W
046D8:  SUBWF  x5F,W
046DA:  BZ    46E0
....................             MenuAntt=Menu; 
046DC:  MOVFF  35D,35F
....................       }else if(RX_Buffer[3]==0x09){//09 es Ciclos Personalizados 
046E0:  BRA    4780
046E2:  MOVF   33,W
046E4:  SUBLW  09
046E6:  BNZ   46F8
....................          Menu=8; 
046E8:  MOVLW  08
046EA:  MOVWF  x5D
....................          if(MenuAntt!=Menu) 
046EC:  MOVF   x5D,W
046EE:  SUBWF  x5F,W
046F0:  BZ    46F6
....................             MenuAntt=Menu; 
046F2:  MOVFF  35D,35F
....................       }else if(RX_Buffer[3]==0x0d){//0d es Ciclos 
046F6:  BRA    4780
046F8:  MOVF   33,W
046FA:  SUBLW  0D
046FC:  BNZ   470E
....................          Menu=12; 
046FE:  MOVLW  0C
04700:  MOVWF  x5D
....................          if(MenuAntt!=Menu) 
04702:  MOVF   x5D,W
04704:  SUBWF  x5F,W
04706:  BZ    470C
....................             MenuAntt=Menu; 
04708:  MOVFF  35D,35F
....................       }else if(RX_Buffer[3]==0x0f){//0f es Recibe caracteres de contrasea desde display 
0470C:  BRA    4780
0470E:  MOVF   33,W
04710:  SUBLW  0F
04712:  BNZ   4716
....................           
....................       }else if(RX_Buffer[3]==0x1a){//1a es Menu de Funcionamiento 
04714:  BRA    4780
04716:  MOVF   33,W
04718:  SUBLW  1A
0471A:  BNZ   472C
....................          Menu=20; 
0471C:  MOVLW  14
0471E:  MOVWF  x5D
....................          if(MenuAntt!=Menu) 
04720:  MOVF   x5D,W
04722:  SUBWF  x5F,W
04724:  BZ    472A
....................             MenuAntt=Menu; 
04726:  MOVFF  35D,35F
....................       }else if(RX_Buffer[3]==0x1b){//1b es Menu de clave correcta 
0472A:  BRA    4780
0472C:  MOVF   33,W
0472E:  SUBLW  1B
04730:  BNZ   4742
....................          Menu=15; 
04732:  MOVLW  0F
04734:  MOVWF  x5D
....................          if(MenuAntt!=Menu) 
04736:  MOVF   x5D,W
04738:  SUBWF  x5F,W
0473A:  BZ    4740
....................             MenuAntt=Menu; 
0473C:  MOVFF  35D,35F
....................       }else if(RX_Buffer[3]==0x1c){//1c es Menu de clave incorrecta 
04740:  BRA    4780
04742:  MOVF   33,W
04744:  SUBLW  1C
04746:  BNZ   4758
....................          Menu=16; 
04748:  MOVLW  10
0474A:  MOVWF  x5D
....................          if(MenuAntt!=Menu) 
0474C:  MOVF   x5D,W
0474E:  SUBWF  x5F,W
04750:  BZ    4756
....................             MenuAntt=Menu; 
04752:  MOVFF  35D,35F
....................       }else if(RX_Buffer[3]==0x2c){//2c es Menu de Configuracion de Parametros 
04756:  BRA    4780
04758:  MOVF   33,W
0475A:  SUBLW  2C
0475C:  BNZ   476E
....................          Menu=100; 
0475E:  MOVLW  64
04760:  MOVWF  x5D
....................          if(MenuAntt!=Menu) 
04762:  MOVF   x5D,W
04764:  SUBWF  x5F,W
04766:  BZ    476C
....................             MenuAntt=Menu; 
04768:  MOVFF  35D,35F
....................       }else if(RX_Buffer[3]==0xcc){//cc es Menu de Bienvenida 
0476C:  BRA    4780
0476E:  MOVF   33,W
04770:  SUBLW  CC
04772:  BNZ   4780
....................          Menu=240; 
04774:  MOVLW  F0
04776:  MOVWF  x5D
....................          if(MenuAntt!=240) 
04778:  MOVF   x5F,W
0477A:  SUBLW  F0
0477C:  BZ    4780
....................             reset_cpu(); 
0477E:  RESET
....................       } 
....................    }else{ 
04780:  BRA    478E
....................       for(z=0;z<RX_BUFFER_SIZE;z++){ 
04782:  CLRF   x5C
04784:  MOVF   x5C,W
04786:  SUBLW  09
04788:  BNC   478E
....................             //Rx_Buffer[z]=0; 
....................             //Rx_Buffer2[z]=0; 
....................          } 
0478A:  INCF   x5C,F
0478C:  BRA    4784
....................    } 
.................... } 
0478E:  MOVLB  0
04790:  GOTO   8444 (RETURN)
....................  
.................... void ActivaAlarma(int8 Tipo){ 
....................     
....................    if(tsilencio>12000){ 
*
04A24:  MOVLB  3
04A26:  MOVF   x97,W
04A28:  SUBLW  2D
04A2A:  BC    4A3E
04A2C:  XORLW  FF
04A2E:  BNZ   4A36
04A30:  MOVF   x96,W
04A32:  SUBLW  E0
04A34:  BC    4A3E
....................       tsilencio=0; 
04A36:  CLRF   x97
04A38:  CLRF   x96
....................       flagSilencio=OFF; 
04A3A:  MOVLB  0
04A3C:  BCF    xA3.4
....................    } 
....................     
....................    if(Tipo==1){ // Alarma por Error 
04A3E:  MOVLB  4
04A40:  DECFSZ x49,W
04A42:  BRA    4A9A
....................    if(UP || DOWN || RIGHT || LEFT) 
04A44:  BSF    F93.0
04A46:  BTFSS  F81.0
04A48:  BRA    4A5C
04A4A:  BSF    F93.1
04A4C:  BTFSS  F81.1
04A4E:  BRA    4A5C
04A50:  BSF    F93.2
04A52:  BTFSS  F81.2
04A54:  BRA    4A5C
04A56:  BSF    F93.3
04A58:  BTFSC  F81.3
04A5A:  BRA    4A60
....................       flagSilencio=ON; 
04A5C:  MOVLB  0
04A5E:  BSF    xA3.4
....................        
....................       if(!flagSilencio){ 
04A60:  MOVLB  0
04A62:  BTFSC  xA3.4
04A64:  BRA    4A90
....................          flagAlarma=1; 
04A66:  BSF    xA3.1
....................          if(tbuzzer>200){ 
04A68:  MOVLB  3
04A6A:  MOVF   x95,F
04A6C:  BNZ   4A74
04A6E:  MOVF   x94,W
04A70:  SUBLW  C8
04A72:  BC    4A8C
....................             tbuzzer=0; 
04A74:  CLRF   x95
04A76:  CLRF   x94
....................             flagBuzzer=!flagBuzzer; 
04A78:  MOVLB  0
04A7A:  BTG    xA3.3
....................             if(flagBuzzer) 
04A7C:  BTFSS  xA3.3
04A7E:  BRA    4A86
....................                Buzzer_on; 
04A80:  BSF    F8C.0
04A82:  BCF    F95.0
....................             else 
04A84:  BRA    4A8A
....................                Buzzer_off; 
04A86:  BCF    F8C.0
04A88:  BCF    F95.0
04A8A:  MOVLB  3
....................          } 
....................       }else{ 
04A8C:  BRA    4A96
04A8E:  MOVLB  0
....................          Buzzer_off; 
04A90:  BCF    F8C.0
04A92:  BCF    F95.0
04A94:  MOVLB  3
....................       } 
....................    }else if(Tipo==2){ 
04A96:  BRA    4AF4
04A98:  MOVLB  4
04A9A:  MOVF   x49,W
04A9C:  SUBLW  02
04A9E:  BNZ   4AF6
....................    if(UP || DOWN || RIGHT || LEFT) 
04AA0:  BSF    F93.0
04AA2:  BTFSS  F81.0
04AA4:  BRA    4AB8
04AA6:  BSF    F93.1
04AA8:  BTFSS  F81.1
04AAA:  BRA    4AB8
04AAC:  BSF    F93.2
04AAE:  BTFSS  F81.2
04AB0:  BRA    4AB8
04AB2:  BSF    F93.3
04AB4:  BTFSC  F81.3
04AB6:  BRA    4ABE
....................       ConteoBuzzer=21; 
04AB8:  MOVLW  15
04ABA:  MOVLB  3
04ABC:  MOVWF  x91
....................        
....................       flagAlarma=1; 
04ABE:  MOVLB  0
04AC0:  BSF    xA3.1
....................       if(ConteoBuzzer<20){    
04AC2:  MOVLB  3
04AC4:  MOVF   x91,W
04AC6:  SUBLW  13
04AC8:  BNC   4AF0
....................          if(tbuzzer>100){ 
04ACA:  MOVF   x95,F
04ACC:  BNZ   4AD4
04ACE:  MOVF   x94,W
04AD0:  SUBLW  64
04AD2:  BC    4AEE
....................             tbuzzer=0; 
04AD4:  CLRF   x95
04AD6:  CLRF   x94
....................             flagBuzzer=!flagBuzzer; 
04AD8:  MOVLB  0
04ADA:  BTG    xA3.3
....................             if(flagBuzzer) 
04ADC:  BTFSS  xA3.3
04ADE:  BRA    4AE6
....................                Buzzer_on; 
04AE0:  BSF    F8C.0
04AE2:  BCF    F95.0
....................             else 
04AE4:  BRA    4AEA
....................                Buzzer_off; 
04AE6:  BCF    F8C.0
04AE8:  BCF    F95.0
....................                 
....................             ConteoBuzzer++;    
04AEA:  MOVLB  3
04AEC:  INCF   x91,F
....................          } 
....................       }else{ 
04AEE:  BRA    4AF4
....................          Buzzer_off; 
04AF0:  BCF    F8C.0
04AF2:  BCF    F95.0
04AF4:  MOVLB  4
....................       } 
....................    } 
.................... } 
04AF6:  MOVLB  0
04AF8:  RETLW  00
....................  
.................... void CalientaChaqueta(){ 
....................    /*if(PresionPrecamara<130){ 
....................       SSR_on; 
....................    }else if(PresionPreCamara>150){ 
....................       SSR_off; 
....................    } 
....................    */                                  
....................    Tp=50; 
*
078DC:  CLRF   xAC
078DE:  MOVLW  32
078E0:  MOVWF  xAB
....................    Tc=(Tciclo/0.005); 
078E2:  MOVFF  2F0,455
078E6:  MOVFF  2EF,454
078EA:  MOVFF  2EE,453
078EE:  MOVFF  2ED,452
078F2:  MOVLW  0A
078F4:  MOVLB  4
078F6:  MOVWF  x59
078F8:  MOVLW  D7
078FA:  MOVWF  x58
078FC:  MOVLW  23
078FE:  MOVWF  x57
07900:  MOVLW  77
07902:  MOVWF  x56
07904:  MOVLB  0
07906:  CALL   1ACA
0790A:  MOVFF  03,461
0790E:  MOVFF  02,460
07912:  MOVFF  01,45F
07916:  MOVFF  00,45E
0791A:  CALL   43CC
0791E:  MOVFF  02,AE
07922:  MOVFF  01,AD
....................    Controlando=1;  
07926:  MOVLW  01
07928:  MOVLB  3
0792A:  MOVWF  x55
.................... } 
0792C:  MOVLB  0
0792E:  GOTO   D754 (RETURN)
....................  
.................... void ApagaSalidas(){ 
....................    Desfogue_off; 
*
03C1A:  BCF    F8C.4
03C1C:  BCF    F95.4
....................    #ifdef Enfriador 
....................    Enfr_off; 
03C1E:  BCF    F8C.6
03C20:  BCF    F95.6
....................    #else 
....................    Bomba_off; 
....................    #endif 
....................    Buzzer_off; 
03C22:  BCF    F8C.0
03C24:  BCF    F95.0
....................    SSR_off; 
03C26:  BSF    F8B.2
03C28:  BCF    F94.2
....................    Aire=OFF; 
03C2A:  BCF    xA4.2
....................    Agua_off; 
03C2C:  BCF    F8C.5
03C2E:  BCF    F95.5
....................    Controlando=0; 
03C30:  MOVLB  3
03C32:  CLRF   x55
.................... } 
03C34:  MOVLB  0
03C36:  RETLW  00
....................  
.................... int8 extraeDecima(int8 tiempo){ 
*
0575C:  MOVLB  4
0575E:  CLRF   x51
05760:  CLRF   x52
....................    int8 tmp=0,decima=0; 
....................    tmp=tiempo/10; 
05762:  MOVFF  450,453
05766:  MOVLW  0A
05768:  MOVWF  x54
0576A:  MOVLB  0
0576C:  CALL   4B58
05770:  MOVFF  01,451
....................    tmp=tmp*10; 
05774:  MOVLB  4
05776:  MOVF   x51,W
05778:  MULLW  0A
0577A:  MOVFF  FF3,451
....................    decima=tiempo-tmp; 
0577E:  MOVF   x51,W
05780:  SUBWF  x50,W
05782:  MOVWF  x52
....................    return decima; 
05784:  MOVFF  452,01
.................... } 
05788:  MOVLB  0
0578A:  RETLW  00
....................  
.................... int8 extraeDecimal(float data){ 
*
06D1C:  MOVLB  4
06D1E:  CLRF   x56
06D20:  CLRF   x55
06D22:  CLRF   x54
06D24:  CLRF   x53
06D26:  CLRF   x5A
06D28:  CLRF   x59
06D2A:  CLRF   x58
06D2C:  CLRF   x57
....................    float entero=0; 
....................    float tmp=0.0; 
....................     
....................    entero=(int8)data; 
06D2E:  MOVFF  452,461
06D32:  MOVFF  451,460
06D36:  MOVFF  450,45F
06D3A:  MOVFF  44F,45E
06D3E:  MOVLB  0
06D40:  CALL   43CC
06D44:  MOVLB  4
06D46:  CLRF   x5F
06D48:  MOVFF  01,45E
06D4C:  MOVLB  0
06D4E:  CALL   1A94
06D52:  MOVFF  03,456
06D56:  MOVFF  02,455
06D5A:  MOVFF  01,454
06D5E:  MOVFF  00,453
....................    tmp=(data-entero)*10; 
06D62:  BSF    FD8.1
06D64:  MOVFF  452,461
06D68:  MOVFF  451,460
06D6C:  MOVFF  450,45F
06D70:  MOVFF  44F,45E
06D74:  MOVFF  456,465
06D78:  MOVFF  455,464
06D7C:  MOVFF  454,463
06D80:  MOVFF  453,462
06D84:  CALL   1C28
06D88:  MOVFF  00,45B
06D8C:  MOVFF  01,45C
06D90:  MOVFF  02,45D
06D94:  MOVFF  03,45E
06D98:  MOVFF  03,465
06D9C:  MOVFF  02,464
06DA0:  MOVFF  01,463
06DA4:  MOVFF  00,462
06DA8:  MOVLB  4
06DAA:  CLRF   x69
06DAC:  CLRF   x68
06DAE:  MOVLW  20
06DB0:  MOVWF  x67
06DB2:  MOVLW  82
06DB4:  MOVWF  x66
06DB6:  MOVLB  0
06DB8:  CALL   3C90
06DBC:  MOVFF  03,45A
06DC0:  MOVFF  02,459
06DC4:  MOVFF  01,458
06DC8:  MOVFF  00,457
....................    return (int8)tmp; 
06DCC:  MOVFF  45A,461
06DD0:  MOVFF  459,460
06DD4:  MOVFF  458,45F
06DD8:  MOVFF  457,45E
06DDC:  CALL   43CC
06DE0:  MOVF   01,W
.................... } 
06DE2:  GOTO   6EF6 (RETURN)
....................  
.................... void actualizaTabla(){ 
....................    diaCiclos=read_ext_eeprom(2+(cicloVisto*320)); 
*
058EE:  MOVFF  39F,463
058F2:  MOVFF  39E,462
058F6:  MOVLW  01
058F8:  MOVLB  4
058FA:  MOVWF  x65
058FC:  MOVLW  40
058FE:  MOVWF  x64
05900:  MOVLB  0
05902:  CALL   1EA0
05906:  MOVFF  02,03
0590A:  MOVF   01,W
0590C:  ADDLW  02
0590E:  MOVLB  4
05910:  MOVWF  x49
05912:  MOVLW  00
05914:  ADDWFC 02,W
05916:  MOVWF  x4A
05918:  MOVWF  x4F
0591A:  MOVFF  449,44E
0591E:  MOVLB  0
05920:  RCALL  57F8
05922:  MOVFF  01,3CF
....................          if(diaCiclos>31) 
05926:  MOVLB  3
05928:  MOVF   xCF,W
0592A:  SUBLW  1F
0592C:  BC    5932
....................             diaCiclos=1; 
0592E:  MOVLW  01
05930:  MOVWF  xCF
....................          mesCiclos=read_ext_eeprom(3+(cicloVisto*320)); 
05932:  MOVFF  39F,463
05936:  MOVFF  39E,462
0593A:  MOVLW  01
0593C:  MOVLB  4
0593E:  MOVWF  x65
05940:  MOVLW  40
05942:  MOVWF  x64
05944:  MOVLB  0
05946:  CALL   1EA0
0594A:  MOVFF  02,03
0594E:  MOVF   01,W
05950:  ADDLW  03
05952:  MOVLB  4
05954:  MOVWF  x49
05956:  MOVLW  00
05958:  ADDWFC 02,W
0595A:  MOVWF  x4A
0595C:  MOVWF  x4F
0595E:  MOVFF  449,44E
05962:  MOVLB  0
05964:  RCALL  57F8
05966:  MOVFF  01,3D0
....................          if(mesCiclos>12) 
0596A:  MOVLB  3
0596C:  MOVF   xD0,W
0596E:  SUBLW  0C
05970:  BC    5976
....................             mesCiclos=1; 
05972:  MOVLW  01
05974:  MOVWF  xD0
....................          yearCiclos=read_ext_eeprom(4+(cicloVisto*320)); 
05976:  MOVFF  39F,463
0597A:  MOVFF  39E,462
0597E:  MOVLW  01
05980:  MOVLB  4
05982:  MOVWF  x65
05984:  MOVLW  40
05986:  MOVWF  x64
05988:  MOVLB  0
0598A:  CALL   1EA0
0598E:  MOVFF  02,03
05992:  MOVF   01,W
05994:  ADDLW  04
05996:  MOVLB  4
05998:  MOVWF  x49
0599A:  MOVLW  00
0599C:  ADDWFC 02,W
0599E:  MOVWF  x4A
059A0:  MOVWF  x4F
059A2:  MOVFF  449,44E
059A6:  MOVLB  0
059A8:  RCALL  57F8
059AA:  MOVFF  01,3D1
....................          if(yearCiclos>99) 
059AE:  MOVLB  3
059B0:  MOVF   xD1,W
059B2:  SUBLW  63
059B4:  BC    59BA
....................             yearCiclos=19; 
059B6:  MOVLW  13
059B8:  MOVWF  xD1
....................          cicloCiclos=read_ext_eeprom(1+(cicloVisto*320)); 
059BA:  MOVFF  39F,463
059BE:  MOVFF  39E,462
059C2:  MOVLW  01
059C4:  MOVLB  4
059C6:  MOVWF  x65
059C8:  MOVLW  40
059CA:  MOVWF  x64
059CC:  MOVLB  0
059CE:  CALL   1EA0
059D2:  MOVFF  02,03
059D6:  MOVF   01,W
059D8:  ADDLW  01
059DA:  MOVLB  4
059DC:  MOVWF  x49
059DE:  MOVLW  00
059E0:  ADDWFC 02,W
059E2:  MOVWF  x4A
059E4:  MOVWF  x4F
059E6:  MOVFF  449,44E
059EA:  MOVLB  0
059EC:  RCALL  57F8
059EE:  MOVFF  01,3D3
....................          if(cicloCiclos>20) 
059F2:  MOVLB  3
059F4:  MOVF   xD3,W
059F6:  SUBLW  14
059F8:  BC    59FE
....................             cicloCiclos=1; 
059FA:  MOVLW  01
059FC:  MOVWF  xD3
....................          usuarioCiclos=read_ext_eeprom((cicloVisto*320)); 
059FE:  MOVFF  39F,463
05A02:  MOVFF  39E,462
05A06:  MOVLW  01
05A08:  MOVLB  4
05A0A:  MOVWF  x65
05A0C:  MOVLW  40
05A0E:  MOVWF  x64
05A10:  MOVLB  0
05A12:  CALL   1EA0
05A16:  MOVFF  02,44A
05A1A:  MOVFF  01,449
05A1E:  MOVFF  02,44F
05A22:  MOVFF  01,44E
05A26:  RCALL  57F8
05A28:  MOVFF  01,3D2
....................          if(usuarioCiclos>10) 
05A2C:  MOVLB  3
05A2E:  MOVF   xD2,W
05A30:  SUBLW  0A
05A32:  BC    5A38
....................             usuarioCiclos=1; 
05A34:  MOVLW  01
05A36:  MOVWF  xD2
....................          for(i=0;i<7;i++){//Lee Valores para completar la Tabla 
05A38:  CLRF   xA3
05A3A:  CLRF   xA2
05A3C:  MOVF   xA3,F
05A3E:  BTFSS  FD8.2
05A40:  BRA    60F6
05A42:  MOVF   xA2,W
05A44:  SUBLW  06
05A46:  BTFSS  FD8.0
05A48:  BRA    60F6
....................             horaCiclos[i]=read_ext_eeprom((cicloVisto*320)+11+((cicloVisualizado+i)*9)); 
05A4A:  MOVLW  0C
05A4C:  ADDWF  xA2,W
05A4E:  MOVWF  01
05A50:  MOVLW  04
05A52:  ADDWFC xA3,W
05A54:  MOVWF  03
05A56:  MOVFF  01,449
05A5A:  MOVLB  4
05A5C:  MOVWF  x4A
05A5E:  MOVFF  39F,463
05A62:  MOVFF  39E,462
05A66:  MOVLW  01
05A68:  MOVWF  x65
05A6A:  MOVLW  40
05A6C:  MOVWF  x64
05A6E:  MOVLB  0
05A70:  CALL   1EA0
05A74:  MOVFF  02,44C
05A78:  MOVFF  01,44B
05A7C:  MOVLW  0B
05A7E:  MOVLB  4
05A80:  ADDWF  x4B,F
05A82:  MOVLW  00
05A84:  ADDWFC x4C,F
05A86:  MOVLB  3
05A88:  MOVF   xA2,W
05A8A:  ADDWF  xA0,W
05A8C:  MOVLB  4
05A8E:  MOVWF  x4D
05A90:  MOVLB  3
05A92:  MOVF   xA3,W
05A94:  ADDWFC xA1,W
05A96:  MOVLB  4
05A98:  MOVWF  x4E
05A9A:  MOVWF  x63
05A9C:  MOVFF  44D,462
05AA0:  CLRF   x65
05AA2:  MOVLW  09
05AA4:  MOVWF  x64
05AA6:  MOVLB  0
05AA8:  CALL   1EA0
05AAC:  MOVFF  02,03
05AB0:  MOVF   01,W
05AB2:  MOVLB  4
05AB4:  ADDWF  x4B,F
05AB6:  MOVF   02,W
05AB8:  ADDWFC x4C,F
05ABA:  MOVFF  44C,44F
05ABE:  MOVFF  44B,44E
05AC2:  MOVLB  0
05AC4:  RCALL  57F8
05AC6:  MOVFF  44A,FEA
05ACA:  MOVFF  449,FE9
05ACE:  MOVFF  01,FEF
....................             if(horaCiclos[i]>24) 
05AD2:  MOVLW  0C
05AD4:  MOVLB  3
05AD6:  ADDWF  xA2,W
05AD8:  MOVWF  FE9
05ADA:  MOVLW  04
05ADC:  ADDWFC xA3,W
05ADE:  MOVWF  FEA
05AE0:  MOVF   FEF,W
05AE2:  SUBLW  18
05AE4:  BC    5AF4
....................                horaCiclos[i]=0; 
05AE6:  MOVLW  0C
05AE8:  ADDWF  xA2,W
05AEA:  MOVWF  FE9
05AEC:  MOVLW  04
05AEE:  ADDWFC xA3,W
05AF0:  MOVWF  FEA
05AF2:  CLRF   FEF
....................             minutoCiclos[i]=read_ext_eeprom((cicloVisto*320)+12+((cicloVisualizado+i)*9)); 
05AF4:  MOVLW  13
05AF6:  ADDWF  xA2,W
05AF8:  MOVWF  01
05AFA:  MOVLW  04
05AFC:  ADDWFC xA3,W
05AFE:  MOVWF  03
05B00:  MOVFF  01,449
05B04:  MOVLB  4
05B06:  MOVWF  x4A
05B08:  MOVFF  39F,463
05B0C:  MOVFF  39E,462
05B10:  MOVLW  01
05B12:  MOVWF  x65
05B14:  MOVLW  40
05B16:  MOVWF  x64
05B18:  MOVLB  0
05B1A:  CALL   1EA0
05B1E:  MOVFF  02,44C
05B22:  MOVFF  01,44B
05B26:  MOVLW  0C
05B28:  MOVLB  4
05B2A:  ADDWF  x4B,F
05B2C:  MOVLW  00
05B2E:  ADDWFC x4C,F
05B30:  MOVLB  3
05B32:  MOVF   xA2,W
05B34:  ADDWF  xA0,W
05B36:  MOVLB  4
05B38:  MOVWF  x4D
05B3A:  MOVLB  3
05B3C:  MOVF   xA3,W
05B3E:  ADDWFC xA1,W
05B40:  MOVLB  4
05B42:  MOVWF  x4E
05B44:  MOVWF  x63
05B46:  MOVFF  44D,462
05B4A:  CLRF   x65
05B4C:  MOVLW  09
05B4E:  MOVWF  x64
05B50:  MOVLB  0
05B52:  CALL   1EA0
05B56:  MOVFF  02,03
05B5A:  MOVF   01,W
05B5C:  MOVLB  4
05B5E:  ADDWF  x4B,F
05B60:  MOVF   02,W
05B62:  ADDWFC x4C,F
05B64:  MOVFF  44C,44F
05B68:  MOVFF  44B,44E
05B6C:  MOVLB  0
05B6E:  RCALL  57F8
05B70:  MOVFF  44A,FEA
05B74:  MOVFF  449,FE9
05B78:  MOVFF  01,FEF
....................             if(minutoCiclos[i]>59) 
05B7C:  MOVLW  13
05B7E:  MOVLB  3
05B80:  ADDWF  xA2,W
05B82:  MOVWF  FE9
05B84:  MOVLW  04
05B86:  ADDWFC xA3,W
05B88:  MOVWF  FEA
05B8A:  MOVF   FEF,W
05B8C:  SUBLW  3B
05B8E:  BC    5B9E
....................                minutoCiclos[i]=0; 
05B90:  MOVLW  13
05B92:  ADDWF  xA2,W
05B94:  MOVWF  FE9
05B96:  MOVLW  04
05B98:  ADDWFC xA3,W
05B9A:  MOVWF  FEA
05B9C:  CLRF   FEF
....................             TCiclos[i]=read_ext_eeprom((cicloVisto*320)+5+((cicloVisualizado+i)*9))+inttofloat(read_ext_eeprom((cicloVisto*320)+6+((cicloVisualizado+i)*9))); 
05B9E:  RLCF   xA2,W
05BA0:  MOVWF  02
05BA2:  RLCF   xA3,W
05BA4:  MOVWF  03
05BA6:  RLCF   02,F
05BA8:  RLCF   03,F
05BAA:  MOVLW  FC
05BAC:  ANDWF  02,F
05BAE:  MOVF   02,W
05BB0:  ADDLW  D4
05BB2:  MOVWF  01
05BB4:  MOVLW  03
05BB6:  ADDWFC 03,F
05BB8:  MOVFF  01,449
05BBC:  MOVLB  4
05BBE:  MOVFF  03,44A
05BC2:  MOVFF  39F,463
05BC6:  MOVFF  39E,462
05BCA:  MOVLW  01
05BCC:  MOVWF  x65
05BCE:  MOVLW  40
05BD0:  MOVWF  x64
05BD2:  MOVLB  0
05BD4:  CALL   1EA0
05BD8:  MOVFF  02,44C
05BDC:  MOVFF  01,44B
05BE0:  MOVLW  05
05BE2:  MOVLB  4
05BE4:  ADDWF  x4B,F
05BE6:  MOVLW  00
05BE8:  ADDWFC x4C,F
05BEA:  MOVLB  3
05BEC:  MOVF   xA2,W
05BEE:  ADDWF  xA0,W
05BF0:  MOVLB  4
05BF2:  MOVWF  x4D
05BF4:  MOVLB  3
05BF6:  MOVF   xA3,W
05BF8:  ADDWFC xA1,W
05BFA:  MOVLB  4
05BFC:  MOVWF  x4E
05BFE:  MOVWF  x63
05C00:  MOVFF  44D,462
05C04:  CLRF   x65
05C06:  MOVLW  09
05C08:  MOVWF  x64
05C0A:  MOVLB  0
05C0C:  CALL   1EA0
05C10:  MOVFF  02,03
05C14:  MOVF   01,W
05C16:  MOVLB  4
05C18:  ADDWF  x4B,F
05C1A:  MOVF   02,W
05C1C:  ADDWFC x4C,F
05C1E:  MOVFF  44C,44F
05C22:  MOVFF  44B,44E
05C26:  MOVLB  0
05C28:  RCALL  57F8
05C2A:  MOVFF  01,44B
05C2E:  MOVFF  39F,463
05C32:  MOVFF  39E,462
05C36:  MOVLW  01
05C38:  MOVLB  4
05C3A:  MOVWF  x65
05C3C:  MOVLW  40
05C3E:  MOVWF  x64
05C40:  MOVLB  0
05C42:  CALL   1EA0
05C46:  MOVFF  02,44D
05C4A:  MOVFF  01,44C
05C4E:  MOVLW  06
05C50:  MOVLB  4
05C52:  ADDWF  x4C,F
05C54:  MOVLW  00
05C56:  ADDWFC x4D,F
05C58:  MOVLB  3
05C5A:  MOVF   xA2,W
05C5C:  ADDWF  xA0,W
05C5E:  MOVLB  4
05C60:  MOVWF  x4E
05C62:  MOVLB  3
05C64:  MOVF   xA3,W
05C66:  ADDWFC xA1,W
05C68:  MOVLB  4
05C6A:  MOVWF  x4F
05C6C:  MOVWF  x63
05C6E:  MOVFF  44E,462
05C72:  CLRF   x65
05C74:  MOVLW  09
05C76:  MOVWF  x64
05C78:  MOVLB  0
05C7A:  CALL   1EA0
05C7E:  MOVFF  02,03
05C82:  MOVF   01,W
05C84:  MOVLB  4
05C86:  ADDWF  x4C,F
05C88:  MOVF   02,W
05C8A:  ADDWFC x4D,F
05C8C:  MOVFF  44D,44F
05C90:  MOVFF  44C,44E
05C94:  MOVLB  0
05C96:  RCALL  57F8
05C98:  MOVFF  01,44C
05C9C:  MOVFF  01,44D
05CA0:  BRA    58A8
05CA2:  MOVFF  00,44C
05CA6:  MOVFF  01,44D
05CAA:  MOVFF  02,44E
05CAE:  MOVFF  03,44F
05CB2:  MOVLB  4
05CB4:  CLRF   x5F
05CB6:  MOVFF  44B,45E
05CBA:  MOVLB  0
05CBC:  CALL   1A94
05CC0:  MOVFF  FEA,451
05CC4:  MOVFF  FE9,450
05CC8:  BCF    FD8.1
05CCA:  MOVFF  03,461
05CCE:  MOVFF  02,460
05CD2:  MOVFF  01,45F
05CD6:  MOVFF  00,45E
05CDA:  MOVFF  44F,465
05CDE:  MOVFF  44E,464
05CE2:  MOVFF  44D,463
05CE6:  MOVFF  44C,462
05CEA:  CALL   1C28
05CEE:  MOVFF  451,FEA
05CF2:  MOVFF  450,FE9
05CF6:  MOVFF  44A,FEA
05CFA:  MOVFF  449,FE9
05CFE:  MOVFF  00,FEF
05D02:  MOVFF  01,FEC
05D06:  MOVFF  02,FEC
05D0A:  MOVFF  03,FEC
....................             if(TCiclos[i]>150) 
05D0E:  MOVLB  3
05D10:  RLCF   xA2,W
05D12:  MOVWF  02
05D14:  RLCF   xA3,W
05D16:  MOVWF  03
05D18:  RLCF   02,F
05D1A:  RLCF   03,F
05D1C:  MOVLW  FC
05D1E:  ANDWF  02,F
05D20:  MOVF   02,W
05D22:  ADDLW  D4
05D24:  MOVWF  FE9
05D26:  MOVLW  03
05D28:  ADDWFC 03,W
05D2A:  MOVWF  FEA
05D2C:  MOVFF  FEF,449
05D30:  MOVFF  FEC,44A
05D34:  MOVFF  FEC,44B
05D38:  MOVFF  FEC,44C
05D3C:  MOVLB  4
05D3E:  CLRF   x50
05D40:  CLRF   x4F
05D42:  MOVLW  16
05D44:  MOVWF  x4E
05D46:  MOVLW  86
05D48:  MOVWF  x4D
05D4A:  MOVFF  44C,454
05D4E:  MOVFF  44B,453
05D52:  MOVFF  44A,452
05D56:  MOVFF  449,451
05D5A:  MOVLB  0
05D5C:  CALL   3032
05D60:  BNC   5D8A
....................                TCiclos[i]=0; 
05D62:  MOVLB  3
05D64:  RLCF   xA2,W
05D66:  MOVWF  02
05D68:  RLCF   xA3,W
05D6A:  MOVWF  03
05D6C:  RLCF   02,F
05D6E:  RLCF   03,F
05D70:  MOVLW  FC
05D72:  ANDWF  02,F
05D74:  MOVF   02,W
05D76:  ADDLW  D4
05D78:  MOVWF  FE9
05D7A:  MOVLW  03
05D7C:  ADDWFC 03,W
05D7E:  MOVWF  FEA
05D80:  CLRF   FEF
05D82:  CLRF   FEC
05D84:  CLRF   FEC
05D86:  CLRF   FEC
05D88:  MOVLB  0
....................             PcCiclos[i]=make16(read_ext_eeprom((cicloVisto*320)+7+((cicloVisualizado+i)*9)),read_ext_eeprom((cicloVisto*320)+8+((cicloVisualizado+i)*9))); 
05D8A:  BCF    FD8.0
05D8C:  MOVLB  3
05D8E:  RLCF   xA2,W
05D90:  MOVWF  02
05D92:  RLCF   xA3,W
05D94:  MOVWF  03
05D96:  MOVF   02,W
05D98:  ADDLW  F0
05D9A:  MOVWF  01
05D9C:  MOVLW  03
05D9E:  ADDWFC 03,F
05DA0:  MOVFF  01,449
05DA4:  MOVLB  4
05DA6:  MOVFF  03,44A
05DAA:  MOVFF  39F,463
05DAE:  MOVFF  39E,462
05DB2:  MOVLW  01
05DB4:  MOVWF  x65
05DB6:  MOVLW  40
05DB8:  MOVWF  x64
05DBA:  MOVLB  0
05DBC:  CALL   1EA0
05DC0:  MOVFF  02,44C
05DC4:  MOVFF  01,44B
05DC8:  MOVLW  07
05DCA:  MOVLB  4
05DCC:  ADDWF  x4B,F
05DCE:  MOVLW  00
05DD0:  ADDWFC x4C,F
05DD2:  MOVLB  3
05DD4:  MOVF   xA2,W
05DD6:  ADDWF  xA0,W
05DD8:  MOVLB  4
05DDA:  MOVWF  x4D
05DDC:  MOVLB  3
05DDE:  MOVF   xA3,W
05DE0:  ADDWFC xA1,W
05DE2:  MOVLB  4
05DE4:  MOVWF  x4E
05DE6:  MOVWF  x63
05DE8:  MOVFF  44D,462
05DEC:  CLRF   x65
05DEE:  MOVLW  09
05DF0:  MOVWF  x64
05DF2:  MOVLB  0
05DF4:  CALL   1EA0
05DF8:  MOVFF  02,03
05DFC:  MOVF   01,W
05DFE:  MOVLB  4
05E00:  ADDWF  x4B,F
05E02:  MOVF   02,W
05E04:  ADDWFC x4C,F
05E06:  MOVFF  44C,44F
05E0A:  MOVFF  44B,44E
05E0E:  MOVLB  0
05E10:  RCALL  57F8
05E12:  MOVFF  01,44B
05E16:  MOVFF  39F,463
05E1A:  MOVFF  39E,462
05E1E:  MOVLW  01
05E20:  MOVLB  4
05E22:  MOVWF  x65
05E24:  MOVLW  40
05E26:  MOVWF  x64
05E28:  MOVLB  0
05E2A:  CALL   1EA0
05E2E:  MOVFF  02,44D
05E32:  MOVFF  01,44C
05E36:  MOVLW  08
05E38:  MOVLB  4
05E3A:  ADDWF  x4C,F
05E3C:  MOVLW  00
05E3E:  ADDWFC x4D,F
05E40:  MOVLB  3
05E42:  MOVF   xA2,W
05E44:  ADDWF  xA0,W
05E46:  MOVLB  4
05E48:  MOVWF  x4E
05E4A:  MOVLB  3
05E4C:  MOVF   xA3,W
05E4E:  ADDWFC xA1,W
05E50:  MOVLB  4
05E52:  MOVWF  x4F
05E54:  MOVWF  x63
05E56:  MOVFF  44E,462
05E5A:  CLRF   x65
05E5C:  MOVLW  09
05E5E:  MOVWF  x64
05E60:  MOVLB  0
05E62:  CALL   1EA0
05E66:  MOVFF  02,03
05E6A:  MOVF   01,W
05E6C:  MOVLB  4
05E6E:  ADDWF  x4C,F
05E70:  MOVF   02,W
05E72:  ADDWFC x4D,F
05E74:  MOVFF  44D,44F
05E78:  MOVFF  44C,44E
05E7C:  MOVLB  0
05E7E:  RCALL  57F8
05E80:  MOVFF  44A,FEA
05E84:  MOVFF  449,FE9
05E88:  MOVFF  44B,FEC
05E8C:  MOVF   FED,F
05E8E:  MOVFF  01,FEF
....................             if(PcCiclos[i]>400) 
05E92:  BCF    FD8.0
05E94:  MOVLB  3
05E96:  RLCF   xA2,W
05E98:  MOVWF  02
05E9A:  RLCF   xA3,W
05E9C:  MOVWF  03
05E9E:  MOVF   02,W
05EA0:  ADDLW  F0
05EA2:  MOVWF  FE9
05EA4:  MOVLW  03
05EA6:  ADDWFC 03,W
05EA8:  MOVWF  FEA
05EAA:  MOVFF  FEC,44A
05EAE:  MOVF   FED,F
05EB0:  MOVFF  FEF,449
05EB4:  MOVLB  4
05EB6:  MOVF   x4A,W
05EB8:  SUBLW  00
05EBA:  BC    5EE6
05EBC:  XORLW  FF
05EBE:  BNZ   5EC6
05EC0:  MOVF   x49,W
05EC2:  SUBLW  90
05EC4:  BC    5EE6
....................                PcCiclos[i]=0; 
05EC6:  BCF    FD8.0
05EC8:  MOVLB  3
05ECA:  RLCF   xA2,W
05ECC:  MOVWF  02
05ECE:  RLCF   xA3,W
05ED0:  MOVWF  03
05ED2:  MOVF   02,W
05ED4:  ADDLW  F0
05ED6:  MOVWF  FE9
05ED8:  MOVLW  03
05EDA:  ADDWFC 03,W
05EDC:  MOVWF  FEA
05EDE:  CLRF   FEC
05EE0:  MOVF   FED,F
05EE2:  CLRF   FEF
05EE4:  MOVLB  4
....................             PpcCiclos[i]=make16(read_ext_eeprom((cicloVisto*320)+9+((cicloVisualizado+i)*9)),read_ext_eeprom((cicloVisto*320)+10+((cicloVisualizado+i)*9))); 
05EE6:  BCF    FD8.0
05EE8:  MOVLB  3
05EEA:  RLCF   xA2,W
05EEC:  MOVWF  02
05EEE:  RLCF   xA3,W
05EF0:  MOVWF  03
05EF2:  MOVF   02,W
05EF4:  ADDLW  FE
05EF6:  MOVWF  01
05EF8:  MOVLW  03
05EFA:  ADDWFC 03,F
05EFC:  MOVFF  01,449
05F00:  MOVLB  4
05F02:  MOVFF  03,44A
05F06:  MOVFF  39F,463
05F0A:  MOVFF  39E,462
05F0E:  MOVLW  01
05F10:  MOVWF  x65
05F12:  MOVLW  40
05F14:  MOVWF  x64
05F16:  MOVLB  0
05F18:  CALL   1EA0
05F1C:  MOVFF  02,44C
05F20:  MOVFF  01,44B
05F24:  MOVLW  09
05F26:  MOVLB  4
05F28:  ADDWF  x4B,F
05F2A:  MOVLW  00
05F2C:  ADDWFC x4C,F
05F2E:  MOVLB  3
05F30:  MOVF   xA2,W
05F32:  ADDWF  xA0,W
05F34:  MOVLB  4
05F36:  MOVWF  x4D
05F38:  MOVLB  3
05F3A:  MOVF   xA3,W
05F3C:  ADDWFC xA1,W
05F3E:  MOVLB  4
05F40:  MOVWF  x4E
05F42:  MOVWF  x63
05F44:  MOVFF  44D,462
05F48:  CLRF   x65
05F4A:  MOVLW  09
05F4C:  MOVWF  x64
05F4E:  MOVLB  0
05F50:  CALL   1EA0
05F54:  MOVFF  02,03
05F58:  MOVF   01,W
05F5A:  MOVLB  4
05F5C:  ADDWF  x4B,F
05F5E:  MOVF   02,W
05F60:  ADDWFC x4C,F
05F62:  MOVFF  44C,44F
05F66:  MOVFF  44B,44E
05F6A:  MOVLB  0
05F6C:  RCALL  57F8
05F6E:  MOVFF  01,44B
05F72:  MOVFF  39F,463
05F76:  MOVFF  39E,462
05F7A:  MOVLW  01
05F7C:  MOVLB  4
05F7E:  MOVWF  x65
05F80:  MOVLW  40
05F82:  MOVWF  x64
05F84:  MOVLB  0
05F86:  CALL   1EA0
05F8A:  MOVFF  02,44D
05F8E:  MOVFF  01,44C
05F92:  MOVLW  0A
05F94:  MOVLB  4
05F96:  ADDWF  x4C,F
05F98:  MOVLW  00
05F9A:  ADDWFC x4D,F
05F9C:  MOVLB  3
05F9E:  MOVF   xA2,W
05FA0:  ADDWF  xA0,W
05FA2:  MOVLB  4
05FA4:  MOVWF  x4E
05FA6:  MOVLB  3
05FA8:  MOVF   xA3,W
05FAA:  ADDWFC xA1,W
05FAC:  MOVLB  4
05FAE:  MOVWF  x4F
05FB0:  MOVWF  x63
05FB2:  MOVFF  44E,462
05FB6:  CLRF   x65
05FB8:  MOVLW  09
05FBA:  MOVWF  x64
05FBC:  MOVLB  0
05FBE:  CALL   1EA0
05FC2:  MOVFF  02,03
05FC6:  MOVF   01,W
05FC8:  MOVLB  4
05FCA:  ADDWF  x4C,F
05FCC:  MOVF   02,W
05FCE:  ADDWFC x4D,F
05FD0:  MOVFF  44D,44F
05FD4:  MOVFF  44C,44E
05FD8:  MOVLB  0
05FDA:  RCALL  57F8
05FDC:  MOVFF  44A,FEA
05FE0:  MOVFF  449,FE9
05FE4:  MOVFF  44B,FEC
05FE8:  MOVF   FED,F
05FEA:  MOVFF  01,FEF
....................             if(PpcCiclos[i]>400) 
05FEE:  BCF    FD8.0
05FF0:  MOVLB  3
05FF2:  RLCF   xA2,W
05FF4:  MOVWF  02
05FF6:  RLCF   xA3,W
05FF8:  MOVWF  03
05FFA:  MOVF   02,W
05FFC:  ADDLW  FE
05FFE:  MOVWF  FE9
06000:  MOVLW  03
06002:  ADDWFC 03,W
06004:  MOVWF  FEA
06006:  MOVFF  FEC,44A
0600A:  MOVF   FED,F
0600C:  MOVFF  FEF,449
06010:  MOVLB  4
06012:  MOVF   x4A,W
06014:  SUBLW  00
06016:  BC    6040
06018:  XORLW  FF
0601A:  BNZ   6022
0601C:  MOVF   x49,W
0601E:  SUBLW  90
06020:  BC    6040
....................                PpcCiclos[i]=0; 
06022:  BCF    FD8.0
06024:  MOVLB  3
06026:  RLCF   xA2,W
06028:  MOVWF  02
0602A:  RLCF   xA3,W
0602C:  MOVWF  03
0602E:  MOVF   02,W
06030:  ADDLW  FE
06032:  MOVWF  FE9
06034:  MOVLW  03
06036:  ADDWFC 03,W
06038:  MOVWF  FEA
0603A:  CLRF   FEC
0603C:  MOVF   FED,F
0603E:  CLRF   FEF
....................             ACiclos[i]=read_ext_eeprom((cicloVisto*320)+13+((cicloVisualizado+i)*9)); 
06040:  MOVLW  1A
06042:  MOVLB  3
06044:  ADDWF  xA2,W
06046:  MOVWF  01
06048:  MOVLW  04
0604A:  ADDWFC xA3,W
0604C:  MOVWF  03
0604E:  MOVFF  01,449
06052:  MOVLB  4
06054:  MOVWF  x4A
06056:  MOVFF  39F,463
0605A:  MOVFF  39E,462
0605E:  MOVLW  01
06060:  MOVWF  x65
06062:  MOVLW  40
06064:  MOVWF  x64
06066:  MOVLB  0
06068:  CALL   1EA0
0606C:  MOVFF  02,44C
06070:  MOVFF  01,44B
06074:  MOVLW  0D
06076:  MOVLB  4
06078:  ADDWF  x4B,F
0607A:  MOVLW  00
0607C:  ADDWFC x4C,F
0607E:  MOVLB  3
06080:  MOVF   xA2,W
06082:  ADDWF  xA0,W
06084:  MOVLB  4
06086:  MOVWF  x4D
06088:  MOVLB  3
0608A:  MOVF   xA3,W
0608C:  ADDWFC xA1,W
0608E:  MOVLB  4
06090:  MOVWF  x4E
06092:  MOVWF  x63
06094:  MOVFF  44D,462
06098:  CLRF   x65
0609A:  MOVLW  09
0609C:  MOVWF  x64
0609E:  MOVLB  0
060A0:  CALL   1EA0
060A4:  MOVFF  02,03
060A8:  MOVF   01,W
060AA:  MOVLB  4
060AC:  ADDWF  x4B,F
060AE:  MOVF   02,W
060B0:  ADDWFC x4C,F
060B2:  MOVFF  44C,44F
060B6:  MOVFF  44B,44E
060BA:  MOVLB  0
060BC:  CALL   57F8
060C0:  MOVFF  44A,FEA
060C4:  MOVFF  449,FE9
060C8:  MOVFF  01,FEF
....................             if(ACiclos[i]>30) 
060CC:  MOVLW  1A
060CE:  MOVLB  3
060D0:  ADDWF  xA2,W
060D2:  MOVWF  FE9
060D4:  MOVLW  04
060D6:  ADDWFC xA3,W
060D8:  MOVWF  FEA
060DA:  MOVF   FEF,W
060DC:  SUBLW  1E
060DE:  BC    60EE
....................                ACiclos[i]=0; 
060E0:  MOVLW  1A
060E2:  ADDWF  xA2,W
060E4:  MOVWF  FE9
060E6:  MOVLW  04
060E8:  ADDWFC xA3,W
060EA:  MOVWF  FEA
060EC:  CLRF   FEF
....................          } 
060EE:  INCF   xA2,F
060F0:  BTFSC  FD8.2
060F2:  INCF   xA3,F
060F4:  BRA    5A3C
.................... } 
060F6:  MOVLB  0
060F8:  RETLW  00
.................... void GuardaDatoEstatico(){ 
*
06B1E:  MOVLB  4
06B20:  CLRF   x4A
06B22:  CLRF   x49
06B24:  CLRF   x4C
06B26:  CLRF   x4B
....................    int16 posCiclo=0,cicloMemoria=0; 
....................    posCiclo=Ciclos/200; 
06B28:  MOVFF  37A,463
06B2C:  MOVFF  379,462
06B30:  CLRF   x65
06B32:  MOVLW  C8
06B34:  MOVWF  x64
06B36:  MOVLB  0
06B38:  CALL   4E6A
06B3C:  MOVFF  02,44A
06B40:  MOVFF  01,449
....................    cicloMemoria=Ciclos-(posCiclo*200); 
06B44:  MOVFF  44A,463
06B48:  MOVFF  449,462
06B4C:  MOVLB  4
06B4E:  CLRF   x65
06B50:  MOVLW  C8
06B52:  MOVWF  x64
06B54:  MOVLB  0
06B56:  CALL   1EA0
06B5A:  MOVF   01,W
06B5C:  MOVLB  3
06B5E:  SUBWF  x79,W
06B60:  MOVLB  4
06B62:  MOVWF  x4B
06B64:  MOVF   02,W
06B66:  MOVLB  3
06B68:  SUBWFB x7A,W
06B6A:  MOVLB  4
06B6C:  MOVWF  x4C
....................    if(!disp_Guarda){ 
06B6E:  MOVLB  0
06B70:  BTFSC  xA4.3
06B72:  BRA    6D18
....................       write_ext_eeprom(cicloMemoria*320,1); 
06B74:  MOVFF  44C,463
06B78:  MOVFF  44B,462
06B7C:  MOVLW  01
06B7E:  MOVLB  4
06B80:  MOVWF  x65
06B82:  MOVLW  40
06B84:  MOVWF  x64
06B86:  MOVLB  0
06B88:  CALL   1EA0
06B8C:  MOVFF  02,44E
06B90:  MOVFF  01,44D
06B94:  MOVFF  02,465
06B98:  MOVFF  01,464
06B9C:  MOVLW  01
06B9E:  MOVLB  4
06BA0:  MOVWF  x66
06BA2:  MOVLB  0
06BA4:  CALL   4EB0
....................       delay_ms(10); 
06BA8:  MOVLW  0A
06BAA:  MOVLB  4
06BAC:  MOVWF  x62
06BAE:  MOVLB  0
06BB0:  CALL   1A6C
....................       if(!Libre) 
06BB4:  BTFSC  xA3.7
06BB6:  BRA    6BF4
....................          write_ext_eeprom(1+(cicloMemoria*320),CicloSeleccionado); 
06BB8:  MOVFF  44C,463
06BBC:  MOVFF  44B,462
06BC0:  MOVLW  01
06BC2:  MOVLB  4
06BC4:  MOVWF  x65
06BC6:  MOVLW  40
06BC8:  MOVWF  x64
06BCA:  MOVLB  0
06BCC:  CALL   1EA0
06BD0:  MOVFF  02,03
06BD4:  MOVF   01,W
06BD6:  ADDLW  01
06BD8:  MOVLB  4
06BDA:  MOVWF  x4D
06BDC:  MOVLW  00
06BDE:  ADDWFC 02,W
06BE0:  MOVWF  x4E
06BE2:  MOVWF  x65
06BE4:  MOVFF  44D,464
06BE8:  MOVFF  362,466
06BEC:  MOVLB  0
06BEE:  CALL   4EB0
....................       else 
06BF2:  BRA    6C38
....................          write_ext_eeprom(1+(cicloMemoria*320),CicloLibre+4); 
06BF4:  MOVFF  44C,463
06BF8:  MOVFF  44B,462
06BFC:  MOVLW  01
06BFE:  MOVLB  4
06C00:  MOVWF  x65
06C02:  MOVLW  40
06C04:  MOVWF  x64
06C06:  MOVLB  0
06C08:  CALL   1EA0
06C0C:  MOVFF  02,03
06C10:  MOVF   01,W
06C12:  ADDLW  01
06C14:  MOVLB  4
06C16:  MOVWF  x4D
06C18:  MOVLW  00
06C1A:  ADDWFC 02,W
06C1C:  MOVWF  x4E
06C1E:  MOVLW  04
06C20:  MOVLB  3
06C22:  ADDWF  x3B,W
06C24:  MOVLB  4
06C26:  MOVWF  x4F
06C28:  MOVFF  44E,465
06C2C:  MOVFF  44D,464
06C30:  MOVWF  x66
06C32:  MOVLB  0
06C34:  CALL   4EB0
....................       delay_ms(10); 
06C38:  MOVLW  0A
06C3A:  MOVLB  4
06C3C:  MOVWF  x62
06C3E:  MOVLB  0
06C40:  CALL   1A6C
....................       write_ext_eeprom(2+(cicloMemoria*320),Dia); 
06C44:  MOVFF  44C,463
06C48:  MOVFF  44B,462
06C4C:  MOVLW  01
06C4E:  MOVLB  4
06C50:  MOVWF  x65
06C52:  MOVLW  40
06C54:  MOVWF  x64
06C56:  MOVLB  0
06C58:  CALL   1EA0
06C5C:  MOVFF  02,03
06C60:  MOVF   01,W
06C62:  ADDLW  02
06C64:  MOVLB  4
06C66:  MOVWF  x4D
06C68:  MOVLW  00
06C6A:  ADDWFC 02,W
06C6C:  MOVWF  x4E
06C6E:  MOVWF  x65
06C70:  MOVFF  44D,464
06C74:  MOVFF  3AA,466
06C78:  MOVLB  0
06C7A:  CALL   4EB0
....................       delay_ms(10); 
06C7E:  MOVLW  0A
06C80:  MOVLB  4
06C82:  MOVWF  x62
06C84:  MOVLB  0
06C86:  CALL   1A6C
....................       write_ext_eeprom(3+(cicloMemoria*320),Mes); 
06C8A:  MOVFF  44C,463
06C8E:  MOVFF  44B,462
06C92:  MOVLW  01
06C94:  MOVLB  4
06C96:  MOVWF  x65
06C98:  MOVLW  40
06C9A:  MOVWF  x64
06C9C:  MOVLB  0
06C9E:  CALL   1EA0
06CA2:  MOVFF  02,03
06CA6:  MOVF   01,W
06CA8:  ADDLW  03
06CAA:  MOVLB  4
06CAC:  MOVWF  x4D
06CAE:  MOVLW  00
06CB0:  ADDWFC 02,W
06CB2:  MOVWF  x4E
06CB4:  MOVWF  x65
06CB6:  MOVFF  44D,464
06CBA:  MOVFF  3A9,466
06CBE:  MOVLB  0
06CC0:  CALL   4EB0
....................       delay_ms(10); 
06CC4:  MOVLW  0A
06CC6:  MOVLB  4
06CC8:  MOVWF  x62
06CCA:  MOVLB  0
06CCC:  CALL   1A6C
....................       write_ext_eeprom(4+(cicloMemoria*320),Year); 
06CD0:  MOVFF  44C,463
06CD4:  MOVFF  44B,462
06CD8:  MOVLW  01
06CDA:  MOVLB  4
06CDC:  MOVWF  x65
06CDE:  MOVLW  40
06CE0:  MOVWF  x64
06CE2:  MOVLB  0
06CE4:  CALL   1EA0
06CE8:  MOVFF  02,03
06CEC:  MOVF   01,W
06CEE:  ADDLW  04
06CF0:  MOVLB  4
06CF2:  MOVWF  x4D
06CF4:  MOVLW  00
06CF6:  ADDWFC 02,W
06CF8:  MOVWF  x4E
06CFA:  MOVWF  x65
06CFC:  MOVFF  44D,464
06D00:  MOVFF  3A8,466
06D04:  MOVLB  0
06D06:  CALL   4EB0
....................       delay_ms(10);  
06D0A:  MOVLW  0A
06D0C:  MOVLB  4
06D0E:  MOVWF  x62
06D10:  MOVLB  0
06D12:  CALL   1A6C
....................       disp_Guarda=1; 
06D16:  BSF    xA4.3
....................    }    
.................... } 
06D18:  GOTO   CAAE (RETURN)
....................  
.................... void GuardaDatoCiclo(){ 
*
06DE6:  MOVLB  4
06DE8:  CLRF   x4A
06DEA:  CLRF   x49
06DEC:  CLRF   x4C
06DEE:  CLRF   x4B
....................    int16 posCiclo=0,cicloMemoria=0; 
....................    posCiclo=Ciclos/200; 
06DF0:  MOVFF  37A,463
06DF4:  MOVFF  379,462
06DF8:  CLRF   x65
06DFA:  MOVLW  C8
06DFC:  MOVWF  x64
06DFE:  MOVLB  0
06E00:  CALL   4E6A
06E04:  MOVFF  02,44A
06E08:  MOVFF  01,449
....................    if(!Ciclo){ 
06E0C:  BTFSC  xA1.5
06E0E:  BRA    7198
....................       cicloMemoria=Ciclos-(posCiclo*200); 
06E10:  MOVFF  44A,463
06E14:  MOVFF  449,462
06E18:  MOVLB  4
06E1A:  CLRF   x65
06E1C:  MOVLW  C8
06E1E:  MOVWF  x64
06E20:  MOVLB  0
06E22:  CALL   1EA0
06E26:  MOVF   01,W
06E28:  MOVLB  3
06E2A:  SUBWF  x79,W
06E2C:  MOVLB  4
06E2E:  MOVWF  x4B
06E30:  MOVF   02,W
06E32:  MOVLB  3
06E34:  SUBWFB x7A,W
06E36:  MOVLB  4
06E38:  MOVWF  x4C
....................       write_ext_eeprom(5+(cicloMemoria*320)+(posicionDato*9),(int8)Temperatura); 
06E3A:  MOVFF  44C,463
06E3E:  MOVFF  44B,462
06E42:  MOVLW  01
06E44:  MOVWF  x65
06E46:  MOVLW  40
06E48:  MOVWF  x64
06E4A:  MOVLB  0
06E4C:  CALL   1EA0
06E50:  MOVFF  02,03
06E54:  MOVF   01,W
06E56:  ADDLW  05
06E58:  MOVLB  4
06E5A:  MOVWF  x4D
06E5C:  MOVLW  00
06E5E:  ADDWFC 02,W
06E60:  MOVWF  x4E
06E62:  MOVLB  2
06E64:  MOVF   xE2,W
06E66:  MULLW  09
06E68:  MOVF   FF3,W
06E6A:  MOVLB  4
06E6C:  ADDWF  x4D,F
06E6E:  MOVLW  00
06E70:  ADDWFC x4E,F
06E72:  MOVFF  328,461
06E76:  MOVFF  327,460
06E7A:  MOVFF  326,45F
06E7E:  MOVFF  325,45E
06E82:  MOVLB  0
06E84:  CALL   43CC
06E88:  MOVFF  01,44F
06E8C:  MOVFF  44E,465
06E90:  MOVFF  44D,464
06E94:  MOVFF  01,466
06E98:  CALL   4EB0
....................       delay_ms(10); 
06E9C:  MOVLW  0A
06E9E:  MOVLB  4
06EA0:  MOVWF  x62
06EA2:  MOVLB  0
06EA4:  CALL   1A6C
....................       write_ext_eeprom(6+(cicloMemoria*320)+(posicionDato*9),extraeDecimal(Temperatura)); 
06EA8:  MOVFF  44C,463
06EAC:  MOVFF  44B,462
06EB0:  MOVLW  01
06EB2:  MOVLB  4
06EB4:  MOVWF  x65
06EB6:  MOVLW  40
06EB8:  MOVWF  x64
06EBA:  MOVLB  0
06EBC:  CALL   1EA0
06EC0:  MOVFF  02,03
06EC4:  MOVF   01,W
06EC6:  ADDLW  06
06EC8:  MOVLB  4
06ECA:  MOVWF  x4D
06ECC:  MOVLW  00
06ECE:  ADDWFC 02,W
06ED0:  MOVWF  x4E
06ED2:  MOVLB  2
06ED4:  MOVF   xE2,W
06ED6:  MULLW  09
06ED8:  MOVF   FF3,W
06EDA:  MOVLB  4
06EDC:  ADDWF  x4D,F
06EDE:  MOVLW  00
06EE0:  ADDWFC x4E,F
06EE2:  MOVFF  328,452
06EE6:  MOVFF  327,451
06EEA:  MOVFF  326,450
06EEE:  MOVFF  325,44F
06EF2:  MOVLB  0
06EF4:  BRA    6D1C
06EF6:  MOVFF  01,44F
06EFA:  MOVFF  44E,465
06EFE:  MOVFF  44D,464
06F02:  MOVFF  01,466
06F06:  CALL   4EB0
....................       delay_ms(10); 
06F0A:  MOVLW  0A
06F0C:  MOVLB  4
06F0E:  MOVWF  x62
06F10:  MOVLB  0
06F12:  CALL   1A6C
....................       write_ext_eeprom(7+(cicloMemoria*320)+(posicionDato*9),make8(PresionCamara,1)); 
06F16:  MOVFF  44C,463
06F1A:  MOVFF  44B,462
06F1E:  MOVLW  01
06F20:  MOVLB  4
06F22:  MOVWF  x65
06F24:  MOVLW  40
06F26:  MOVWF  x64
06F28:  MOVLB  0
06F2A:  CALL   1EA0
06F2E:  MOVFF  02,03
06F32:  MOVF   01,W
06F34:  ADDLW  07
06F36:  MOVLB  4
06F38:  MOVWF  x4D
06F3A:  MOVLW  00
06F3C:  ADDWFC 02,W
06F3E:  MOVWF  x4E
06F40:  MOVLB  2
06F42:  MOVF   xE2,W
06F44:  MULLW  09
06F46:  MOVF   FF3,W
06F48:  MOVLB  4
06F4A:  ADDWF  x4D,F
06F4C:  MOVLW  00
06F4E:  ADDWFC x4E,F
06F50:  MOVFF  376,44F
06F54:  MOVFF  44E,465
06F58:  MOVFF  44D,464
06F5C:  MOVFF  376,466
06F60:  MOVLB  0
06F62:  CALL   4EB0
....................       delay_ms(10); 
06F66:  MOVLW  0A
06F68:  MOVLB  4
06F6A:  MOVWF  x62
06F6C:  MOVLB  0
06F6E:  CALL   1A6C
....................       write_ext_eeprom(8+(cicloMemoria*320)+(posicionDato*9),make8(PresionCamara,0)); 
06F72:  MOVFF  44C,463
06F76:  MOVFF  44B,462
06F7A:  MOVLW  01
06F7C:  MOVLB  4
06F7E:  MOVWF  x65
06F80:  MOVLW  40
06F82:  MOVWF  x64
06F84:  MOVLB  0
06F86:  CALL   1EA0
06F8A:  MOVFF  02,03
06F8E:  MOVF   01,W
06F90:  ADDLW  08
06F92:  MOVLB  4
06F94:  MOVWF  x4D
06F96:  MOVLW  00
06F98:  ADDWFC 02,W
06F9A:  MOVWF  x4E
06F9C:  MOVLB  2
06F9E:  MOVF   xE2,W
06FA0:  MULLW  09
06FA2:  MOVF   FF3,W
06FA4:  MOVLB  4
06FA6:  ADDWF  x4D,F
06FA8:  MOVLW  00
06FAA:  ADDWFC x4E,F
06FAC:  MOVFF  375,44F
06FB0:  MOVFF  44E,465
06FB4:  MOVFF  44D,464
06FB8:  MOVFF  375,466
06FBC:  MOVLB  0
06FBE:  CALL   4EB0
....................       delay_ms(10); 
06FC2:  MOVLW  0A
06FC4:  MOVLB  4
06FC6:  MOVWF  x62
06FC8:  MOVLB  0
06FCA:  CALL   1A6C
....................       write_ext_eeprom(9+(cicloMemoria*320)+(posicionDato*9),make8(PresionPreCamara,1)); 
06FCE:  MOVFF  44C,463
06FD2:  MOVFF  44B,462
06FD6:  MOVLW  01
06FD8:  MOVLB  4
06FDA:  MOVWF  x65
06FDC:  MOVLW  40
06FDE:  MOVWF  x64
06FE0:  MOVLB  0
06FE2:  CALL   1EA0
06FE6:  MOVFF  02,03
06FEA:  MOVF   01,W
06FEC:  ADDLW  09
06FEE:  MOVLB  4
06FF0:  MOVWF  x4D
06FF2:  MOVLW  00
06FF4:  ADDWFC 02,W
06FF6:  MOVWF  x4E
06FF8:  MOVLB  2
06FFA:  MOVF   xE2,W
06FFC:  MULLW  09
06FFE:  MOVF   FF3,W
07000:  MOVLB  4
07002:  ADDWF  x4D,F
07004:  MOVLW  00
07006:  ADDWFC x4E,F
07008:  MOVFF  378,44F
0700C:  MOVFF  44E,465
07010:  MOVFF  44D,464
07014:  MOVFF  378,466
07018:  MOVLB  0
0701A:  CALL   4EB0
....................       delay_ms(10); 
0701E:  MOVLW  0A
07020:  MOVLB  4
07022:  MOVWF  x62
07024:  MOVLB  0
07026:  CALL   1A6C
....................       write_ext_eeprom(10+(cicloMemoria*320)+(posicionDato*9),make8(PresionPreCamara,0)); 
0702A:  MOVFF  44C,463
0702E:  MOVFF  44B,462
07032:  MOVLW  01
07034:  MOVLB  4
07036:  MOVWF  x65
07038:  MOVLW  40
0703A:  MOVWF  x64
0703C:  MOVLB  0
0703E:  CALL   1EA0
07042:  MOVFF  02,03
07046:  MOVF   01,W
07048:  ADDLW  0A
0704A:  MOVLB  4
0704C:  MOVWF  x4D
0704E:  MOVLW  00
07050:  ADDWFC 02,W
07052:  MOVWF  x4E
07054:  MOVLB  2
07056:  MOVF   xE2,W
07058:  MULLW  09
0705A:  MOVF   FF3,W
0705C:  MOVLB  4
0705E:  ADDWF  x4D,F
07060:  MOVLW  00
07062:  ADDWFC x4E,F
07064:  MOVFF  377,44F
07068:  MOVFF  44E,465
0706C:  MOVFF  44D,464
07070:  MOVFF  377,466
07074:  MOVLB  0
07076:  CALL   4EB0
....................       delay_ms(10); 
0707A:  MOVLW  0A
0707C:  MOVLB  4
0707E:  MOVWF  x62
07080:  MOVLB  0
07082:  CALL   1A6C
....................       write_ext_eeprom(11+(cicloMemoria*320)+(posicionDato*9),Hora); 
07086:  MOVFF  44C,463
0708A:  MOVFF  44B,462
0708E:  MOVLW  01
07090:  MOVLB  4
07092:  MOVWF  x65
07094:  MOVLW  40
07096:  MOVWF  x64
07098:  MOVLB  0
0709A:  CALL   1EA0
0709E:  MOVFF  02,03
070A2:  MOVF   01,W
070A4:  ADDLW  0B
070A6:  MOVLB  4
070A8:  MOVWF  x4D
070AA:  MOVLW  00
070AC:  ADDWFC 02,W
070AE:  MOVWF  x4E
070B0:  MOVLB  2
070B2:  MOVF   xE2,W
070B4:  MULLW  09
070B6:  MOVF   FF3,W
070B8:  MOVLB  4
070BA:  ADDWF  x4D,F
070BC:  MOVLW  00
070BE:  ADDWFC x4E,F
070C0:  MOVFF  44E,465
070C4:  MOVFF  44D,464
070C8:  MOVFF  3AB,466
070CC:  MOVLB  0
070CE:  CALL   4EB0
....................       delay_ms(10); 
070D2:  MOVLW  0A
070D4:  MOVLB  4
070D6:  MOVWF  x62
070D8:  MOVLB  0
070DA:  CALL   1A6C
....................       write_ext_eeprom(12+(cicloMemoria*320)+(posicionDato*9),Minuto); 
070DE:  MOVFF  44C,463
070E2:  MOVFF  44B,462
070E6:  MOVLW  01
070E8:  MOVLB  4
070EA:  MOVWF  x65
070EC:  MOVLW  40
070EE:  MOVWF  x64
070F0:  MOVLB  0
070F2:  CALL   1EA0
070F6:  MOVFF  02,03
070FA:  MOVF   01,W
070FC:  ADDLW  0C
070FE:  MOVLB  4
07100:  MOVWF  x4D
07102:  MOVLW  00
07104:  ADDWFC 02,W
07106:  MOVWF  x4E
07108:  MOVLB  2
0710A:  MOVF   xE2,W
0710C:  MULLW  09
0710E:  MOVF   FF3,W
07110:  MOVLB  4
07112:  ADDWF  x4D,F
07114:  MOVLW  00
07116:  ADDWFC x4E,F
07118:  MOVFF  44E,465
0711C:  MOVFF  44D,464
07120:  MOVFF  3AC,466
07124:  MOVLB  0
07126:  CALL   4EB0
....................       delay_ms(10); 
0712A:  MOVLW  0A
0712C:  MOVLB  4
0712E:  MOVWF  x62
07130:  MOVLB  0
07132:  CALL   1A6C
....................       write_ext_eeprom(13+(cicloMemoria*320)+(posicionDato*9),codigoAlarma); 
07136:  MOVFF  44C,463
0713A:  MOVFF  44B,462
0713E:  MOVLW  01
07140:  MOVLB  4
07142:  MOVWF  x65
07144:  MOVLW  40
07146:  MOVWF  x64
07148:  MOVLB  0
0714A:  CALL   1EA0
0714E:  MOVFF  02,03
07152:  MOVF   01,W
07154:  ADDLW  0D
07156:  MOVLB  4
07158:  MOVWF  x4D
0715A:  MOVLW  00
0715C:  ADDWFC 02,W
0715E:  MOVWF  x4E
07160:  MOVLB  2
07162:  MOVF   xE2,W
07164:  MULLW  09
07166:  MOVF   FF3,W
07168:  MOVLB  4
0716A:  ADDWF  x4D,F
0716C:  MOVLW  00
0716E:  ADDWFC x4E,F
07170:  MOVFF  44E,465
07174:  MOVFF  44D,464
07178:  MOVFF  2E3,466
0717C:  MOVLB  0
0717E:  CALL   4EB0
....................       delay_ms(10); 
07182:  MOVLW  0A
07184:  MOVLB  4
07186:  MOVWF  x62
07188:  MOVLB  0
0718A:  CALL   1A6C
....................     
....................       if(posicionDato<35) 
0718E:  MOVLB  2
07190:  MOVF   xE2,W
07192:  SUBLW  22
07194:  BNC   7198
....................          ++posicionDato; 
07196:  INCF   xE2,F
07198:  MOVLB  0
....................    } 
.................... } 
0719A:  RETLW  00
....................  
.................... void borraDatoCiclo(){ 
*
04FB0:  MOVLB  4
04FB2:  CLRF   x5F
04FB4:  CLRF   x5E
04FB6:  CLRF   x61
04FB8:  CLRF   x60
....................    int16 posCiclo=0,cicloMemoria=0; 
....................    posCiclo=Ciclos/200; 
04FBA:  MOVFF  37A,463
04FBE:  MOVFF  379,462
04FC2:  CLRF   x65
04FC4:  MOVLW  C8
04FC6:  MOVWF  x64
04FC8:  MOVLB  0
04FCA:  RCALL  4E6A
04FCC:  MOVFF  02,45F
04FD0:  MOVFF  01,45E
....................    cicloMemoria=Ciclos-(posCiclo*200); 
04FD4:  MOVFF  45F,463
04FD8:  MOVFF  45E,462
04FDC:  MOVLB  4
04FDE:  CLRF   x65
04FE0:  MOVLW  C8
04FE2:  MOVWF  x64
04FE4:  MOVLB  0
04FE6:  CALL   1EA0
04FEA:  MOVF   01,W
04FEC:  MOVLB  3
04FEE:  SUBWF  x79,W
04FF0:  MOVLB  4
04FF2:  MOVWF  x60
04FF4:  MOVF   02,W
04FF6:  MOVLB  3
04FF8:  SUBWFB x7A,W
04FFA:  MOVLB  4
04FFC:  MOVWF  x61
....................    write_ext_eeprom(cicloMemoria*320,1); 
04FFE:  MOVFF  461,463
05002:  MOVFF  460,462
05006:  MOVLW  01
05008:  MOVWF  x65
0500A:  MOVLW  40
0500C:  MOVWF  x64
0500E:  MOVLB  0
05010:  CALL   1EA0
05014:  MOVFF  02,463
05018:  MOVFF  01,462
0501C:  MOVFF  02,465
05020:  MOVFF  01,464
05024:  MOVLW  01
05026:  MOVLB  4
05028:  MOVWF  x66
0502A:  MOVLB  0
0502C:  RCALL  4EB0
....................    delay_ms(5); 
0502E:  MOVLW  05
05030:  MOVLB  4
05032:  MOVWF  x62
05034:  MOVLB  0
05036:  CALL   1A6C
....................    write_ext_eeprom(1+(cicloMemoria*320),0); 
0503A:  MOVFF  461,463
0503E:  MOVFF  460,462
05042:  MOVLW  01
05044:  MOVLB  4
05046:  MOVWF  x65
05048:  MOVLW  40
0504A:  MOVWF  x64
0504C:  MOVLB  0
0504E:  CALL   1EA0
05052:  MOVFF  02,03
05056:  MOVF   01,W
05058:  ADDLW  01
0505A:  MOVLB  4
0505C:  MOVWF  x62
0505E:  MOVLW  00
05060:  ADDWFC 02,W
05062:  MOVWF  x63
05064:  MOVWF  x65
05066:  MOVFF  462,464
0506A:  CLRF   x66
0506C:  MOVLB  0
0506E:  RCALL  4EB0
....................    delay_ms(5); 
05070:  MOVLW  05
05072:  MOVLB  4
05074:  MOVWF  x62
05076:  MOVLB  0
05078:  CALL   1A6C
....................    write_ext_eeprom(2+(cicloMemoria*320),0); 
0507C:  MOVFF  461,463
05080:  MOVFF  460,462
05084:  MOVLW  01
05086:  MOVLB  4
05088:  MOVWF  x65
0508A:  MOVLW  40
0508C:  MOVWF  x64
0508E:  MOVLB  0
05090:  CALL   1EA0
05094:  MOVFF  02,03
05098:  MOVF   01,W
0509A:  ADDLW  02
0509C:  MOVLB  4
0509E:  MOVWF  x62
050A0:  MOVLW  00
050A2:  ADDWFC 02,W
050A4:  MOVWF  x63
050A6:  MOVWF  x65
050A8:  MOVFF  462,464
050AC:  CLRF   x66
050AE:  MOVLB  0
050B0:  RCALL  4EB0
....................    delay_ms(5); 
050B2:  MOVLW  05
050B4:  MOVLB  4
050B6:  MOVWF  x62
050B8:  MOVLB  0
050BA:  CALL   1A6C
....................    write_ext_eeprom(3+(cicloMemoria*320),0); 
050BE:  MOVFF  461,463
050C2:  MOVFF  460,462
050C6:  MOVLW  01
050C8:  MOVLB  4
050CA:  MOVWF  x65
050CC:  MOVLW  40
050CE:  MOVWF  x64
050D0:  MOVLB  0
050D2:  CALL   1EA0
050D6:  MOVFF  02,03
050DA:  MOVF   01,W
050DC:  ADDLW  03
050DE:  MOVLB  4
050E0:  MOVWF  x62
050E2:  MOVLW  00
050E4:  ADDWFC 02,W
050E6:  MOVWF  x63
050E8:  MOVWF  x65
050EA:  MOVFF  462,464
050EE:  CLRF   x66
050F0:  MOVLB  0
050F2:  RCALL  4EB0
....................    delay_ms(5); 
050F4:  MOVLW  05
050F6:  MOVLB  4
050F8:  MOVWF  x62
050FA:  MOVLB  0
050FC:  CALL   1A6C
....................    write_ext_eeprom(4+(cicloMemoria*320),0); 
05100:  MOVFF  461,463
05104:  MOVFF  460,462
05108:  MOVLW  01
0510A:  MOVLB  4
0510C:  MOVWF  x65
0510E:  MOVLW  40
05110:  MOVWF  x64
05112:  MOVLB  0
05114:  CALL   1EA0
05118:  MOVFF  02,03
0511C:  MOVF   01,W
0511E:  ADDLW  04
05120:  MOVLB  4
05122:  MOVWF  x62
05124:  MOVLW  00
05126:  ADDWFC 02,W
05128:  MOVWF  x63
0512A:  MOVWF  x65
0512C:  MOVFF  462,464
05130:  CLRF   x66
05132:  MOVLB  0
05134:  RCALL  4EB0
....................    delay_ms(5); 
05136:  MOVLW  05
05138:  MOVLB  4
0513A:  MOVWF  x62
0513C:  MOVLB  0
0513E:  CALL   1A6C
....................    for(posicionDato=0;posicionDato<35;posicionDato++){ 
05142:  MOVLB  2
05144:  CLRF   xE2
05146:  MOVF   xE2,W
05148:  SUBLW  22
0514A:  BTFSS  FD8.0
0514C:  BRA    5448
....................       write_ext_eeprom(5+(cicloMemoria*320)+(posicionDato*9),0); 
0514E:  MOVFF  461,463
05152:  MOVFF  460,462
05156:  MOVLW  01
05158:  MOVLB  4
0515A:  MOVWF  x65
0515C:  MOVLW  40
0515E:  MOVWF  x64
05160:  MOVLB  0
05162:  CALL   1EA0
05166:  MOVFF  02,03
0516A:  MOVF   01,W
0516C:  ADDLW  05
0516E:  MOVLB  4
05170:  MOVWF  x62
05172:  MOVLW  00
05174:  ADDWFC 02,W
05176:  MOVWF  x63
05178:  MOVLB  2
0517A:  MOVF   xE2,W
0517C:  MULLW  09
0517E:  MOVF   FF3,W
05180:  MOVLB  4
05182:  ADDWF  x62,F
05184:  MOVLW  00
05186:  ADDWFC x63,F
05188:  MOVFF  463,465
0518C:  MOVFF  462,464
05190:  CLRF   x66
05192:  MOVLB  0
05194:  RCALL  4EB0
....................       delay_ms(5); 
05196:  MOVLW  05
05198:  MOVLB  4
0519A:  MOVWF  x62
0519C:  MOVLB  0
0519E:  CALL   1A6C
....................       write_ext_eeprom(6+(cicloMemoria*320)+(posicionDato*9),0); 
051A2:  MOVFF  461,463
051A6:  MOVFF  460,462
051AA:  MOVLW  01
051AC:  MOVLB  4
051AE:  MOVWF  x65
051B0:  MOVLW  40
051B2:  MOVWF  x64
051B4:  MOVLB  0
051B6:  CALL   1EA0
051BA:  MOVFF  02,03
051BE:  MOVF   01,W
051C0:  ADDLW  06
051C2:  MOVLB  4
051C4:  MOVWF  x62
051C6:  MOVLW  00
051C8:  ADDWFC 02,W
051CA:  MOVWF  x63
051CC:  MOVLB  2
051CE:  MOVF   xE2,W
051D0:  MULLW  09
051D2:  MOVF   FF3,W
051D4:  MOVLB  4
051D6:  ADDWF  x62,F
051D8:  MOVLW  00
051DA:  ADDWFC x63,F
051DC:  MOVFF  463,465
051E0:  MOVFF  462,464
051E4:  CLRF   x66
051E6:  MOVLB  0
051E8:  RCALL  4EB0
....................       delay_ms(5); 
051EA:  MOVLW  05
051EC:  MOVLB  4
051EE:  MOVWF  x62
051F0:  MOVLB  0
051F2:  CALL   1A6C
....................       write_ext_eeprom(7+(cicloMemoria*320)+(posicionDato*9),0); 
051F6:  MOVFF  461,463
051FA:  MOVFF  460,462
051FE:  MOVLW  01
05200:  MOVLB  4
05202:  MOVWF  x65
05204:  MOVLW  40
05206:  MOVWF  x64
05208:  MOVLB  0
0520A:  CALL   1EA0
0520E:  MOVFF  02,03
05212:  MOVF   01,W
05214:  ADDLW  07
05216:  MOVLB  4
05218:  MOVWF  x62
0521A:  MOVLW  00
0521C:  ADDWFC 02,W
0521E:  MOVWF  x63
05220:  MOVLB  2
05222:  MOVF   xE2,W
05224:  MULLW  09
05226:  MOVF   FF3,W
05228:  MOVLB  4
0522A:  ADDWF  x62,F
0522C:  MOVLW  00
0522E:  ADDWFC x63,F
05230:  MOVFF  463,465
05234:  MOVFF  462,464
05238:  CLRF   x66
0523A:  MOVLB  0
0523C:  RCALL  4EB0
....................       delay_ms(5); 
0523E:  MOVLW  05
05240:  MOVLB  4
05242:  MOVWF  x62
05244:  MOVLB  0
05246:  CALL   1A6C
....................       write_ext_eeprom(8+(cicloMemoria*320)+(posicionDato*9),0); 
0524A:  MOVFF  461,463
0524E:  MOVFF  460,462
05252:  MOVLW  01
05254:  MOVLB  4
05256:  MOVWF  x65
05258:  MOVLW  40
0525A:  MOVWF  x64
0525C:  MOVLB  0
0525E:  CALL   1EA0
05262:  MOVFF  02,03
05266:  MOVF   01,W
05268:  ADDLW  08
0526A:  MOVLB  4
0526C:  MOVWF  x62
0526E:  MOVLW  00
05270:  ADDWFC 02,W
05272:  MOVWF  x63
05274:  MOVLB  2
05276:  MOVF   xE2,W
05278:  MULLW  09
0527A:  MOVF   FF3,W
0527C:  MOVLB  4
0527E:  ADDWF  x62,F
05280:  MOVLW  00
05282:  ADDWFC x63,F
05284:  MOVFF  463,465
05288:  MOVFF  462,464
0528C:  CLRF   x66
0528E:  MOVLB  0
05290:  RCALL  4EB0
....................       delay_ms(5); 
05292:  MOVLW  05
05294:  MOVLB  4
05296:  MOVWF  x62
05298:  MOVLB  0
0529A:  CALL   1A6C
....................       write_ext_eeprom(9+(cicloMemoria*320)+(posicionDato*9),0); 
0529E:  MOVFF  461,463
052A2:  MOVFF  460,462
052A6:  MOVLW  01
052A8:  MOVLB  4
052AA:  MOVWF  x65
052AC:  MOVLW  40
052AE:  MOVWF  x64
052B0:  MOVLB  0
052B2:  CALL   1EA0
052B6:  MOVFF  02,03
052BA:  MOVF   01,W
052BC:  ADDLW  09
052BE:  MOVLB  4
052C0:  MOVWF  x62
052C2:  MOVLW  00
052C4:  ADDWFC 02,W
052C6:  MOVWF  x63
052C8:  MOVLB  2
052CA:  MOVF   xE2,W
052CC:  MULLW  09
052CE:  MOVF   FF3,W
052D0:  MOVLB  4
052D2:  ADDWF  x62,F
052D4:  MOVLW  00
052D6:  ADDWFC x63,F
052D8:  MOVFF  463,465
052DC:  MOVFF  462,464
052E0:  CLRF   x66
052E2:  MOVLB  0
052E4:  RCALL  4EB0
....................       delay_ms(5); 
052E6:  MOVLW  05
052E8:  MOVLB  4
052EA:  MOVWF  x62
052EC:  MOVLB  0
052EE:  CALL   1A6C
....................       write_ext_eeprom(10+(cicloMemoria*320)+(posicionDato*9),0); 
052F2:  MOVFF  461,463
052F6:  MOVFF  460,462
052FA:  MOVLW  01
052FC:  MOVLB  4
052FE:  MOVWF  x65
05300:  MOVLW  40
05302:  MOVWF  x64
05304:  MOVLB  0
05306:  CALL   1EA0
0530A:  MOVFF  02,03
0530E:  MOVF   01,W
05310:  ADDLW  0A
05312:  MOVLB  4
05314:  MOVWF  x62
05316:  MOVLW  00
05318:  ADDWFC 02,W
0531A:  MOVWF  x63
0531C:  MOVLB  2
0531E:  MOVF   xE2,W
05320:  MULLW  09
05322:  MOVF   FF3,W
05324:  MOVLB  4
05326:  ADDWF  x62,F
05328:  MOVLW  00
0532A:  ADDWFC x63,F
0532C:  MOVFF  463,465
05330:  MOVFF  462,464
05334:  CLRF   x66
05336:  MOVLB  0
05338:  RCALL  4EB0
....................       delay_ms(5); 
0533A:  MOVLW  05
0533C:  MOVLB  4
0533E:  MOVWF  x62
05340:  MOVLB  0
05342:  CALL   1A6C
....................       write_ext_eeprom(11+(cicloMemoria*320)+(posicionDato*9),0); 
05346:  MOVFF  461,463
0534A:  MOVFF  460,462
0534E:  MOVLW  01
05350:  MOVLB  4
05352:  MOVWF  x65
05354:  MOVLW  40
05356:  MOVWF  x64
05358:  MOVLB  0
0535A:  CALL   1EA0
0535E:  MOVFF  02,03
05362:  MOVF   01,W
05364:  ADDLW  0B
05366:  MOVLB  4
05368:  MOVWF  x62
0536A:  MOVLW  00
0536C:  ADDWFC 02,W
0536E:  MOVWF  x63
05370:  MOVLB  2
05372:  MOVF   xE2,W
05374:  MULLW  09
05376:  MOVF   FF3,W
05378:  MOVLB  4
0537A:  ADDWF  x62,F
0537C:  MOVLW  00
0537E:  ADDWFC x63,F
05380:  MOVFF  463,465
05384:  MOVFF  462,464
05388:  CLRF   x66
0538A:  MOVLB  0
0538C:  RCALL  4EB0
....................       delay_ms(5); 
0538E:  MOVLW  05
05390:  MOVLB  4
05392:  MOVWF  x62
05394:  MOVLB  0
05396:  CALL   1A6C
....................       write_ext_eeprom(12+(cicloMemoria*320)+(posicionDato*9),0); 
0539A:  MOVFF  461,463
0539E:  MOVFF  460,462
053A2:  MOVLW  01
053A4:  MOVLB  4
053A6:  MOVWF  x65
053A8:  MOVLW  40
053AA:  MOVWF  x64
053AC:  MOVLB  0
053AE:  CALL   1EA0
053B2:  MOVFF  02,03
053B6:  MOVF   01,W
053B8:  ADDLW  0C
053BA:  MOVLB  4
053BC:  MOVWF  x62
053BE:  MOVLW  00
053C0:  ADDWFC 02,W
053C2:  MOVWF  x63
053C4:  MOVLB  2
053C6:  MOVF   xE2,W
053C8:  MULLW  09
053CA:  MOVF   FF3,W
053CC:  MOVLB  4
053CE:  ADDWF  x62,F
053D0:  MOVLW  00
053D2:  ADDWFC x63,F
053D4:  MOVFF  463,465
053D8:  MOVFF  462,464
053DC:  CLRF   x66
053DE:  MOVLB  0
053E0:  RCALL  4EB0
....................       delay_ms(5); 
053E2:  MOVLW  05
053E4:  MOVLB  4
053E6:  MOVWF  x62
053E8:  MOVLB  0
053EA:  CALL   1A6C
....................       write_ext_eeprom(13+(cicloMemoria*320)+(posicionDato*9),0); 
053EE:  MOVFF  461,463
053F2:  MOVFF  460,462
053F6:  MOVLW  01
053F8:  MOVLB  4
053FA:  MOVWF  x65
053FC:  MOVLW  40
053FE:  MOVWF  x64
05400:  MOVLB  0
05402:  CALL   1EA0
05406:  MOVFF  02,03
0540A:  MOVF   01,W
0540C:  ADDLW  0D
0540E:  MOVLB  4
05410:  MOVWF  x62
05412:  MOVLW  00
05414:  ADDWFC 02,W
05416:  MOVWF  x63
05418:  MOVLB  2
0541A:  MOVF   xE2,W
0541C:  MULLW  09
0541E:  MOVF   FF3,W
05420:  MOVLB  4
05422:  ADDWF  x62,F
05424:  MOVLW  00
05426:  ADDWFC x63,F
05428:  MOVFF  463,465
0542C:  MOVFF  462,464
05430:  CLRF   x66
05432:  MOVLB  0
05434:  RCALL  4EB0
....................       delay_ms(5); 
05436:  MOVLW  05
05438:  MOVLB  4
0543A:  MOVWF  x62
0543C:  MOVLB  0
0543E:  CALL   1A6C
....................    } 
05442:  MOVLB  2
05444:  INCF   xE2,F
05446:  BRA    5146
....................    posicionDato=0; 
05448:  CLRF   xE2
.................... } 
0544A:  MOVLB  0
0544C:  GOTO   54B8 (RETURN)
....................  
....................  
.................... void incrementaCiclos(){ 
....................    if(!Ciclo){ 
*
0719C:  BTFSC  xA1.5
0719E:  BRA    7226
....................       Ciclo=ON; 
071A0:  BSF    xA1.5
....................       Ciclos++; 
071A2:  MOVLB  3
071A4:  INCF   x79,F
071A6:  BTFSC  FD8.2
071A8:  INCF   x7A,F
....................       CiclosL=make8(Ciclos,0); 
071AA:  MOVFF  379,360
....................       CiclosH=make8(Ciclos,1); 
071AE:  MOVFF  37A,361
....................       write_eeprom(37,CiclosL); 
071B2:  CLRF   FAA
071B4:  MOVLW  25
071B6:  MOVWF  FA9
071B8:  MOVFF  360,FA8
071BC:  BCF    FA6.6
071BE:  BCF    FA6.7
071C0:  BSF    FA6.2
071C2:  MOVF   FF2,W
071C4:  MOVWF  00
071C6:  BCF    FF2.6
071C8:  BCF    FF2.7
071CA:  MOVLB  F
071CC:  MOVLW  55
071CE:  MOVWF  FA7
071D0:  MOVLW  AA
071D2:  MOVWF  FA7
071D4:  BSF    FA6.1
071D6:  BTFSC  FA6.1
071D8:  BRA    71D6
071DA:  BCF    FA6.2
071DC:  MOVF   00,W
071DE:  IORWF  FF2,F
....................       delay_ms(20); 
071E0:  MOVLW  14
071E2:  MOVLB  4
071E4:  MOVWF  x62
071E6:  MOVLB  0
071E8:  CALL   1A6C
....................       write_eeprom(38,CiclosH); 
071EC:  CLRF   FAA
071EE:  MOVLW  26
071F0:  MOVWF  FA9
071F2:  MOVFF  361,FA8
071F6:  BCF    FA6.6
071F8:  BCF    FA6.7
071FA:  BSF    FA6.2
071FC:  MOVF   FF2,W
071FE:  MOVWF  00
07200:  BCF    FF2.6
07202:  BCF    FF2.7
07204:  MOVLB  F
07206:  MOVLW  55
07208:  MOVWF  FA7
0720A:  MOVLW  AA
0720C:  MOVWF  FA7
0720E:  BSF    FA6.1
07210:  BTFSC  FA6.1
07212:  BRA    7210
07214:  BCF    FA6.2
07216:  MOVF   00,W
07218:  IORWF  FF2,F
....................       delay_ms(20); 
0721A:  MOVLW  14
0721C:  MOVLB  4
0721E:  MOVWF  x62
07220:  MOVLB  0
07222:  CALL   1A6C
....................    } 
.................... } 
07226:  RETLW  00
....................  
.................... void exportarData(){ 
*
060FA:  MOVLB  4
060FC:  CLRF   x4A
060FE:  CLRF   x49
06100:  CLRF   x4B
.................... int16 posicion=0; 
.................... int8 tmp=0; 
.................... posicion=40; 
06102:  CLRF   x4A
06104:  MOVLW  28
06106:  MOVWF  x49
.................... direccion=0xB0; 
06108:  MOVLW  B0
0610A:  MOVLB  0
0610C:  MOVWF  x85
.................... //Buzzer_on; 
.................... //Inicio de Transmision 
.................... i2c_start();            // Comienzo comunicacin 
0610E:  BSF    F94.4
06110:  MOVLW  05
06112:  MOVWF  00
06114:  DECFSZ 00,F
06116:  BRA    6114
06118:  BSF    F94.3
0611A:  MOVLW  06
0611C:  MOVWF  00
0611E:  DECFSZ 00,F
06120:  BRA    611E
06122:  BCF    F8B.4
06124:  BCF    F94.4
06126:  MOVLW  05
06128:  MOVWF  00
0612A:  DECFSZ 00,F
0612C:  BRA    612A
0612E:  BCF    F8B.3
06130:  BCF    F94.3
.................... i2c_write(direccion);   // Direccin del esclavo en el bus I2C 
06132:  MOVFF  85,46A
06136:  CALL   48E4
.................... i2c_write(make8(posicion,0));    // Posicin donde se guardara el dato transmitido 
0613A:  MOVFF  449,44C
0613E:  MOVFF  449,46A
06142:  CALL   48E4
.................... i2c_write(make8(posicion,1));    // Posicin donde se guardara el dato transmitido 
06146:  MOVFF  44A,44C
0614A:  MOVFF  44A,46A
0614E:  CALL   48E4
.................... i2c_write(0xff);        // Dato a transmitir 
06152:  MOVLW  FF
06154:  MOVLB  4
06156:  MOVWF  x6A
06158:  MOVLB  0
0615A:  CALL   48E4
.................... i2c_stop(); 
0615E:  BCF    F94.4
06160:  NOP   
06162:  BSF    F94.3
06164:  BTFSS  F82.3
06166:  BRA    6164
06168:  MOVLW  05
0616A:  MOVWF  00
0616C:  DECFSZ 00,F
0616E:  BRA    616C
06170:  BRA    6172
06172:  NOP   
06174:  BSF    F94.4
06176:  MOVLW  05
06178:  MOVWF  00
0617A:  DECFSZ 00,F
0617C:  BRA    617A
.................... ++posicion; 
0617E:  MOVLB  4
06180:  INCF   x49,F
06182:  BTFSC  FD8.2
06184:  INCF   x4A,F
.................... i2c_start();            // Comienzo comunicacin 
06186:  BSF    F94.4
06188:  MOVLW  05
0618A:  MOVWF  00
0618C:  DECFSZ 00,F
0618E:  BRA    618C
06190:  BSF    F94.3
06192:  MOVLW  06
06194:  MOVWF  00
06196:  DECFSZ 00,F
06198:  BRA    6196
0619A:  BCF    F8B.4
0619C:  BCF    F94.4
0619E:  MOVLW  05
061A0:  MOVWF  00
061A2:  DECFSZ 00,F
061A4:  BRA    61A2
061A6:  BCF    F8B.3
061A8:  BCF    F94.3
.................... i2c_write(direccion);   // Direccin del esclavo en el bus I2C 
061AA:  MOVFF  85,46A
061AE:  MOVLB  0
061B0:  CALL   48E4
.................... i2c_write(make8(posicion,0));    // Posicin donde se guardara el dato transmitido 
061B4:  MOVFF  449,44C
061B8:  MOVFF  449,46A
061BC:  CALL   48E4
.................... i2c_write(make8(posicion,1));    // Posicin donde se guardara el dato transmitido 
061C0:  MOVFF  44A,44C
061C4:  MOVFF  44A,46A
061C8:  CALL   48E4
.................... i2c_write(0xff);        // Dato a transmitir 
061CC:  MOVLW  FF
061CE:  MOVLB  4
061D0:  MOVWF  x6A
061D2:  MOVLB  0
061D4:  CALL   48E4
.................... i2c_stop(); 
061D8:  BCF    F94.4
061DA:  NOP   
061DC:  BSF    F94.3
061DE:  BTFSS  F82.3
061E0:  BRA    61DE
061E2:  MOVLW  05
061E4:  MOVWF  00
061E6:  DECFSZ 00,F
061E8:  BRA    61E6
061EA:  BRA    61EC
061EC:  NOP   
061EE:  BSF    F94.4
061F0:  MOVLW  05
061F2:  MOVWF  00
061F4:  DECFSZ 00,F
061F6:  BRA    61F4
.................... ++posicion; 
061F8:  MOVLB  4
061FA:  INCF   x49,F
061FC:  BTFSC  FD8.2
061FE:  INCF   x4A,F
.................... //Se envian 2 veces ff para indicar que se inicia la transmision. 
....................  
....................    for(i=0;i<5;i++){ 
06200:  MOVLB  3
06202:  CLRF   xA3
06204:  CLRF   xA2
06206:  MOVF   xA3,F
06208:  BNZ   62D0
0620A:  MOVF   xA2,W
0620C:  SUBLW  04
0620E:  BNC   62D0
....................       tmp=read_ext_eeprom((cicloVisto*320)+i); 
06210:  MOVFF  39F,463
06214:  MOVFF  39E,462
06218:  MOVLW  01
0621A:  MOVLB  4
0621C:  MOVWF  x65
0621E:  MOVLW  40
06220:  MOVWF  x64
06222:  MOVLB  0
06224:  CALL   1EA0
06228:  MOVFF  02,44D
0622C:  MOVFF  01,44C
06230:  MOVLB  3
06232:  MOVF   xA2,W
06234:  MOVLB  4
06236:  ADDWF  x4C,F
06238:  MOVLB  3
0623A:  MOVF   xA3,W
0623C:  MOVLB  4
0623E:  ADDWFC x4D,F
06240:  MOVFF  44D,44F
06244:  MOVFF  44C,44E
06248:  MOVLB  0
0624A:  CALL   57F8
0624E:  MOVFF  01,44B
....................       //if(tmp>250) 
....................       //   tmp=20; 
....................       i2c_start();            // Comienzo comunicacin 
06252:  BSF    F94.4
06254:  MOVLW  05
06256:  MOVWF  00
06258:  DECFSZ 00,F
0625A:  BRA    6258
0625C:  BSF    F94.3
0625E:  MOVLW  06
06260:  MOVWF  00
06262:  DECFSZ 00,F
06264:  BRA    6262
06266:  BCF    F8B.4
06268:  BCF    F94.4
0626A:  MOVLW  05
0626C:  MOVWF  00
0626E:  DECFSZ 00,F
06270:  BRA    626E
06272:  BCF    F8B.3
06274:  BCF    F94.3
....................       i2c_write(direccion);   // Direccin del esclavo en el bus I2C 
06276:  MOVFF  85,46A
0627A:  CALL   48E4
....................       i2c_write(make8(posicion,0));    // Posicin donde se guardara el dato transmitido 
0627E:  MOVFF  449,44C
06282:  MOVFF  449,46A
06286:  CALL   48E4
....................       i2c_write(make8(posicion,1));    // Posicin donde se guardara el dato transmitido 
0628A:  MOVFF  44A,44C
0628E:  MOVFF  44A,46A
06292:  CALL   48E4
....................       i2c_write(tmp);        // Dato a transmitir 
06296:  MOVFF  44B,46A
0629A:  CALL   48E4
....................       i2c_stop();  
0629E:  BCF    F94.4
062A0:  NOP   
062A2:  BSF    F94.3
062A4:  BTFSS  F82.3
062A6:  BRA    62A4
062A8:  MOVLW  05
062AA:  MOVWF  00
062AC:  DECFSZ 00,F
062AE:  BRA    62AC
062B0:  BRA    62B2
062B2:  NOP   
062B4:  BSF    F94.4
062B6:  MOVLW  05
062B8:  MOVWF  00
062BA:  DECFSZ 00,F
062BC:  BRA    62BA
....................       ++posicion; 
062BE:  MOVLB  4
062C0:  INCF   x49,F
062C2:  BTFSC  FD8.2
062C4:  INCF   x4A,F
....................    } 
062C6:  MOVLB  3
062C8:  INCF   xA2,F
062CA:  BTFSC  FD8.2
062CC:  INCF   xA3,F
062CE:  BRA    6206
....................    for(i=0;i<35;i++){//Lee Valores para completar la Tabla 
062D0:  CLRF   xA3
062D2:  CLRF   xA2
062D4:  MOVF   xA3,F
062D6:  BTFSS  FD8.2
062D8:  BRA    63DC
062DA:  MOVF   xA2,W
062DC:  SUBLW  22
062DE:  BTFSS  FD8.0
062E0:  BRA    63DC
....................       for(j=5;j<14;j++){//Lee Valores para completar la Tabla 
062E2:  CLRF   xA5
062E4:  MOVLW  05
062E6:  MOVWF  xA4
062E8:  MOVF   xA5,F
062EA:  BNZ   63D4
062EC:  MOVF   xA4,W
062EE:  SUBLW  0D
062F0:  BNC   63D4
....................          tmp=read_ext_eeprom((cicloVisto*320)+j+(i*9)); 
062F2:  MOVFF  39F,463
062F6:  MOVFF  39E,462
062FA:  MOVLW  01
062FC:  MOVLB  4
062FE:  MOVWF  x65
06300:  MOVLW  40
06302:  MOVWF  x64
06304:  MOVLB  0
06306:  CALL   1EA0
0630A:  MOVFF  02,44D
0630E:  MOVFF  01,44C
06312:  MOVLB  3
06314:  MOVF   xA4,W
06316:  MOVLB  4
06318:  ADDWF  x4C,F
0631A:  MOVLB  3
0631C:  MOVF   xA5,W
0631E:  MOVLB  4
06320:  ADDWFC x4D,F
06322:  MOVFF  3A3,463
06326:  MOVFF  3A2,462
0632A:  CLRF   x65
0632C:  MOVLW  09
0632E:  MOVWF  x64
06330:  MOVLB  0
06332:  CALL   1EA0
06336:  MOVFF  02,03
0633A:  MOVF   01,W
0633C:  MOVLB  4
0633E:  ADDWF  x4C,F
06340:  MOVF   02,W
06342:  ADDWFC x4D,F
06344:  MOVFF  44D,44F
06348:  MOVFF  44C,44E
0634C:  MOVLB  0
0634E:  CALL   57F8
06352:  MOVFF  01,44B
....................          //if(tmp>250) 
....................          //   tmp=20; 
....................          i2c_start();            // Comienzo comunicacin 
06356:  BSF    F94.4
06358:  MOVLW  05
0635A:  MOVWF  00
0635C:  DECFSZ 00,F
0635E:  BRA    635C
06360:  BSF    F94.3
06362:  MOVLW  06
06364:  MOVWF  00
06366:  DECFSZ 00,F
06368:  BRA    6366
0636A:  BCF    F8B.4
0636C:  BCF    F94.4
0636E:  MOVLW  05
06370:  MOVWF  00
06372:  DECFSZ 00,F
06374:  BRA    6372
06376:  BCF    F8B.3
06378:  BCF    F94.3
....................          i2c_write(direccion);   // Direccin del esclavo en el bus I2C 
0637A:  MOVFF  85,46A
0637E:  CALL   48E4
....................          i2c_write(make8(posicion,0));    // Posicin donde se guardara el dato transmitido 
06382:  MOVFF  449,44C
06386:  MOVFF  449,46A
0638A:  CALL   48E4
....................          i2c_write(make8(posicion,1));    // Posicin donde se guardara el dato transmitido 
0638E:  MOVFF  44A,44C
06392:  MOVFF  44A,46A
06396:  CALL   48E4
....................          i2c_write(tmp);        // Dato a transmitir 
0639A:  MOVFF  44B,46A
0639E:  CALL   48E4
....................          i2c_stop();  
063A2:  BCF    F94.4
063A4:  NOP   
063A6:  BSF    F94.3
063A8:  BTFSS  F82.3
063AA:  BRA    63A8
063AC:  MOVLW  05
063AE:  MOVWF  00
063B0:  DECFSZ 00,F
063B2:  BRA    63B0
063B4:  BRA    63B6
063B6:  NOP   
063B8:  BSF    F94.4
063BA:  MOVLW  05
063BC:  MOVWF  00
063BE:  DECFSZ 00,F
063C0:  BRA    63BE
....................          ++posicion; 
063C2:  MOVLB  4
063C4:  INCF   x49,F
063C6:  BTFSC  FD8.2
063C8:  INCF   x4A,F
....................       } 
063CA:  MOVLB  3
063CC:  INCF   xA4,F
063CE:  BTFSC  FD8.2
063D0:  INCF   xA5,F
063D2:  BRA    62E8
....................    } 
063D4:  INCF   xA2,F
063D6:  BTFSC  FD8.2
063D8:  INCF   xA3,F
063DA:  BRA    62D4
....................  
.................... //Fin de Transmision 
.................... i2c_start();            // Comienzo comunicacin 
063DC:  BSF    F94.4
063DE:  MOVLW  05
063E0:  MOVWF  00
063E2:  DECFSZ 00,F
063E4:  BRA    63E2
063E6:  BSF    F94.3
063E8:  MOVLW  06
063EA:  MOVWF  00
063EC:  DECFSZ 00,F
063EE:  BRA    63EC
063F0:  BCF    F8B.4
063F2:  BCF    F94.4
063F4:  MOVLW  05
063F6:  MOVWF  00
063F8:  DECFSZ 00,F
063FA:  BRA    63F8
063FC:  BCF    F8B.3
063FE:  BCF    F94.3
.................... i2c_write(direccion);   // Direccin del esclavo en el bus I2C 
06400:  MOVFF  85,46A
06404:  MOVLB  0
06406:  CALL   48E4
.................... i2c_write(make8(posicion,0));    // Posicin donde se guardara el dato transmitido 
0640A:  MOVFF  449,44C
0640E:  MOVFF  449,46A
06412:  CALL   48E4
.................... i2c_write(make8(posicion,1));    // Posicin donde se guardara el dato transmitido 
06416:  MOVFF  44A,44C
0641A:  MOVFF  44A,46A
0641E:  CALL   48E4
.................... i2c_write(0x1f);        // Dato a transmitir 
06422:  MOVLW  1F
06424:  MOVLB  4
06426:  MOVWF  x6A
06428:  MOVLB  0
0642A:  CALL   48E4
.................... i2c_stop(); 
0642E:  BCF    F94.4
06430:  NOP   
06432:  BSF    F94.3
06434:  BTFSS  F82.3
06436:  BRA    6434
06438:  MOVLW  05
0643A:  MOVWF  00
0643C:  DECFSZ 00,F
0643E:  BRA    643C
06440:  BRA    6442
06442:  NOP   
06444:  BSF    F94.4
06446:  MOVLW  05
06448:  MOVWF  00
0644A:  DECFSZ 00,F
0644C:  BRA    644A
.................... ++posicion; 
0644E:  MOVLB  4
06450:  INCF   x49,F
06452:  BTFSC  FD8.2
06454:  INCF   x4A,F
.................... i2c_start();            // Comienzo comunicacin 
06456:  BSF    F94.4
06458:  MOVLW  05
0645A:  MOVWF  00
0645C:  DECFSZ 00,F
0645E:  BRA    645C
06460:  BSF    F94.3
06462:  MOVLW  06
06464:  MOVWF  00
06466:  DECFSZ 00,F
06468:  BRA    6466
0646A:  BCF    F8B.4
0646C:  BCF    F94.4
0646E:  MOVLW  05
06470:  MOVWF  00
06472:  DECFSZ 00,F
06474:  BRA    6472
06476:  BCF    F8B.3
06478:  BCF    F94.3
.................... i2c_write(direccion);   // Direccin del esclavo en el bus I2C 
0647A:  MOVFF  85,46A
0647E:  MOVLB  0
06480:  CALL   48E4
.................... i2c_write(make8(posicion,0));    // Posicin donde se guardara el dato transmitido 
06484:  MOVFF  449,44C
06488:  MOVFF  449,46A
0648C:  CALL   48E4
.................... i2c_write(make8(posicion,1));    // Posicin donde se guardara el dato transmitido 
06490:  MOVFF  44A,44C
06494:  MOVFF  44A,46A
06498:  CALL   48E4
.................... i2c_write(0x1f);        // Dato a transmitir 
0649C:  MOVLW  1F
0649E:  MOVLB  4
064A0:  MOVWF  x6A
064A2:  MOVLB  0
064A4:  CALL   48E4
.................... i2c_stop(); 
064A8:  BCF    F94.4
064AA:  NOP   
064AC:  BSF    F94.3
064AE:  BTFSS  F82.3
064B0:  BRA    64AE
064B2:  MOVLW  05
064B4:  MOVWF  00
064B6:  DECFSZ 00,F
064B8:  BRA    64B6
064BA:  BRA    64BC
064BC:  NOP   
064BE:  BSF    F94.4
064C0:  MOVLW  05
064C2:  MOVWF  00
064C4:  DECFSZ 00,F
064C6:  BRA    64C4
.................... ++posicion; 
064C8:  MOVLB  4
064CA:  INCF   x49,F
064CC:  BTFSC  FD8.2
064CE:  INCF   x4A,F
.................... //Se envian 2 veces 1f para indicar que se inicia la transmision. 
.................... delay_ms(200); 
064D0:  MOVLW  C8
064D2:  MOVWF  x62
064D4:  MOVLB  0
064D6:  CALL   1A6C
.................... //Buzzer_off; 
.................... } 
064DA:  GOTO   C620 (RETURN)
....................  
.................... void codificaAlarma(){ 
....................    if(ACiclos[i]==0){ 
064DE:  MOVLW  1A
064E0:  MOVLB  3
064E2:  ADDWF  xA2,W
064E4:  MOVWF  FE9
064E6:  MOVLW  04
064E8:  ADDWFC xA3,W
064EA:  MOVWF  FEA
064EC:  MOVF   FEF,F
064EE:  BNZ   653C
....................       printf("A%Lu.txt=\"----\"",i+1); 
064F0:  MOVLW  01
064F2:  ADDWF  xA2,W
064F4:  MOVLB  4
064F6:  MOVWF  x49
064F8:  MOVLW  00
064FA:  MOVLB  3
064FC:  ADDWFC xA3,W
064FE:  MOVLB  4
06500:  MOVWF  x4A
06502:  MOVLW  41
06504:  BTFSS  F9E.4
06506:  BRA    6504
06508:  MOVWF  FAD
0650A:  MOVLW  10
0650C:  MOVWF  FE9
0650E:  MOVFF  44A,450
06512:  MOVFF  449,44F
06516:  MOVLB  0
06518:  CALL   54DC
0651C:  MOVLW  FA
0651E:  MOVWF  FF6
06520:  MOVLW  01
06522:  MOVWF  FF7
06524:  MOVLW  00
06526:  MOVWF  FF8
06528:  MOVLW  0B
0652A:  MOVLB  4
0652C:  MOVWF  x4F
0652E:  MOVLB  0
06530:  CALL   4B26
....................       SendDataDisplay(); 
06534:  CALL   3BE4
....................    }else if(ACiclos[i]==1){ 
06538:  BRA    6B16
0653A:  MOVLB  3
0653C:  MOVLW  1A
0653E:  ADDWF  xA2,W
06540:  MOVWF  FE9
06542:  MOVLW  04
06544:  ADDWFC xA3,W
06546:  MOVWF  FEA
06548:  DECFSZ FEF,W
0654A:  BRA    6598
....................       printf("A%Lu.txt=\"Parada\"",i+1); 
0654C:  MOVLW  01
0654E:  ADDWF  xA2,W
06550:  MOVLB  4
06552:  MOVWF  x49
06554:  MOVLW  00
06556:  MOVLB  3
06558:  ADDWFC xA3,W
0655A:  MOVLB  4
0655C:  MOVWF  x4A
0655E:  MOVLW  41
06560:  BTFSS  F9E.4
06562:  BRA    6560
06564:  MOVWF  FAD
06566:  MOVLW  10
06568:  MOVWF  FE9
0656A:  MOVFF  44A,450
0656E:  MOVFF  449,44F
06572:  MOVLB  0
06574:  CALL   54DC
06578:  MOVLW  0A
0657A:  MOVWF  FF6
0657C:  MOVLW  02
0657E:  MOVWF  FF7
06580:  MOVLW  00
06582:  MOVWF  FF8
06584:  MOVLW  0D
06586:  MOVLB  4
06588:  MOVWF  x4F
0658A:  MOVLB  0
0658C:  CALL   4B26
....................       SendDataDisplay(); 
06590:  CALL   3BE4
....................    }else if(ACiclos[i]==2){ 
06594:  BRA    6B16
06596:  MOVLB  3
06598:  MOVLW  1A
0659A:  ADDWF  xA2,W
0659C:  MOVWF  FE9
0659E:  MOVLW  04
065A0:  ADDWFC xA3,W
065A2:  MOVWF  FEA
065A4:  MOVF   FEF,W
065A6:  SUBLW  02
065A8:  BNZ   65F6
....................       printf("A%Lu.txt=\"Puerta\"",i+1); 
065AA:  MOVLW  01
065AC:  ADDWF  xA2,W
065AE:  MOVLB  4
065B0:  MOVWF  x49
065B2:  MOVLW  00
065B4:  MOVLB  3
065B6:  ADDWFC xA3,W
065B8:  MOVLB  4
065BA:  MOVWF  x4A
065BC:  MOVLW  41
065BE:  BTFSS  F9E.4
065C0:  BRA    65BE
065C2:  MOVWF  FAD
065C4:  MOVLW  10
065C6:  MOVWF  FE9
065C8:  MOVFF  44A,450
065CC:  MOVFF  449,44F
065D0:  MOVLB  0
065D2:  CALL   54DC
065D6:  MOVLW  1C
065D8:  MOVWF  FF6
065DA:  MOVLW  02
065DC:  MOVWF  FF7
065DE:  MOVLW  00
065E0:  MOVWF  FF8
065E2:  MOVLW  0D
065E4:  MOVLB  4
065E6:  MOVWF  x4F
065E8:  MOVLB  0
065EA:  CALL   4B26
....................       SendDataDisplay(); 
065EE:  CALL   3BE4
....................    }else if(ACiclos[i]==3){ 
065F2:  BRA    6B16
065F4:  MOVLB  3
065F6:  MOVLW  1A
065F8:  ADDWF  xA2,W
065FA:  MOVWF  FE9
065FC:  MOVLW  04
065FE:  ADDWFC xA3,W
06600:  MOVWF  FEA
06602:  MOVF   FEF,W
06604:  SUBLW  03
06606:  BNZ   6654
....................       printf("A%Lu.txt=\"Termostato\"",i+1); 
06608:  MOVLW  01
0660A:  ADDWF  xA2,W
0660C:  MOVLB  4
0660E:  MOVWF  x49
06610:  MOVLW  00
06612:  MOVLB  3
06614:  ADDWFC xA3,W
06616:  MOVLB  4
06618:  MOVWF  x4A
0661A:  MOVLW  41
0661C:  BTFSS  F9E.4
0661E:  BRA    661C
06620:  MOVWF  FAD
06622:  MOVLW  10
06624:  MOVWF  FE9
06626:  MOVFF  44A,450
0662A:  MOVFF  449,44F
0662E:  MOVLB  0
06630:  CALL   54DC
06634:  MOVLW  2E
06636:  MOVWF  FF6
06638:  MOVLW  02
0663A:  MOVWF  FF7
0663C:  MOVLW  00
0663E:  MOVWF  FF8
06640:  MOVLW  11
06642:  MOVLB  4
06644:  MOVWF  x4F
06646:  MOVLB  0
06648:  CALL   4B26
....................       SendDataDisplay(); 
0664C:  CALL   3BE4
....................    }else if(ACiclos[i]==4){ 
06650:  BRA    6B16
06652:  MOVLB  3
06654:  MOVLW  1A
06656:  ADDWF  xA2,W
06658:  MOVWF  FE9
0665A:  MOVLW  04
0665C:  ADDWFC xA3,W
0665E:  MOVWF  FEA
06660:  MOVF   FEF,W
06662:  SUBLW  04
06664:  BNZ   66B2
....................       printf("A%Lu.txt=\"SobreT\"",i+1); 
06666:  MOVLW  01
06668:  ADDWF  xA2,W
0666A:  MOVLB  4
0666C:  MOVWF  x49
0666E:  MOVLW  00
06670:  MOVLB  3
06672:  ADDWFC xA3,W
06674:  MOVLB  4
06676:  MOVWF  x4A
06678:  MOVLW  41
0667A:  BTFSS  F9E.4
0667C:  BRA    667A
0667E:  MOVWF  FAD
06680:  MOVLW  10
06682:  MOVWF  FE9
06684:  MOVFF  44A,450
06688:  MOVFF  449,44F
0668C:  MOVLB  0
0668E:  CALL   54DC
06692:  MOVLW  44
06694:  MOVWF  FF6
06696:  MOVLW  02
06698:  MOVWF  FF7
0669A:  MOVLW  00
0669C:  MOVWF  FF8
0669E:  MOVLW  0D
066A0:  MOVLB  4
066A2:  MOVWF  x4F
066A4:  MOVLB  0
066A6:  CALL   4B26
....................       SendDataDisplay(); 
066AA:  CALL   3BE4
....................    }else if(ACiclos[i]==5){ 
066AE:  BRA    6B16
066B0:  MOVLB  3
066B2:  MOVLW  1A
066B4:  ADDWF  xA2,W
066B6:  MOVWF  FE9
066B8:  MOVLW  04
066BA:  ADDWFC xA3,W
066BC:  MOVWF  FEA
066BE:  MOVF   FEF,W
066C0:  SUBLW  05
066C2:  BNZ   6710
....................       printf("A%Lu.txt=\"Tiempo\"",i+1); 
066C4:  MOVLW  01
066C6:  ADDWF  xA2,W
066C8:  MOVLB  4
066CA:  MOVWF  x49
066CC:  MOVLW  00
066CE:  MOVLB  3
066D0:  ADDWFC xA3,W
066D2:  MOVLB  4
066D4:  MOVWF  x4A
066D6:  MOVLW  41
066D8:  BTFSS  F9E.4
066DA:  BRA    66D8
066DC:  MOVWF  FAD
066DE:  MOVLW  10
066E0:  MOVWF  FE9
066E2:  MOVFF  44A,450
066E6:  MOVFF  449,44F
066EA:  MOVLB  0
066EC:  CALL   54DC
066F0:  MOVLW  56
066F2:  MOVWF  FF6
066F4:  MOVLW  02
066F6:  MOVWF  FF7
066F8:  MOVLW  00
066FA:  MOVWF  FF8
066FC:  MOVLW  0D
066FE:  MOVLB  4
06700:  MOVWF  x4F
06702:  MOVLB  0
06704:  CALL   4B26
....................       SendDataDisplay(); 
06708:  CALL   3BE4
....................    }else if(ACiclos[i]==6){ 
0670C:  BRA    6B16
0670E:  MOVLB  3
06710:  MOVLW  1A
06712:  ADDWF  xA2,W
06714:  MOVWF  FE9
06716:  MOVLW  04
06718:  ADDWFC xA3,W
0671A:  MOVWF  FEA
0671C:  MOVF   FEF,W
0671E:  SUBLW  06
06720:  BNZ   676E
....................       printf("A%Lu.txt=\"Presion\"",i+1); 
06722:  MOVLW  01
06724:  ADDWF  xA2,W
06726:  MOVLB  4
06728:  MOVWF  x49
0672A:  MOVLW  00
0672C:  MOVLB  3
0672E:  ADDWFC xA3,W
06730:  MOVLB  4
06732:  MOVWF  x4A
06734:  MOVLW  41
06736:  BTFSS  F9E.4
06738:  BRA    6736
0673A:  MOVWF  FAD
0673C:  MOVLW  10
0673E:  MOVWF  FE9
06740:  MOVFF  44A,450
06744:  MOVFF  449,44F
06748:  MOVLB  0
0674A:  CALL   54DC
0674E:  MOVLW  68
06750:  MOVWF  FF6
06752:  MOVLW  02
06754:  MOVWF  FF7
06756:  MOVLW  00
06758:  MOVWF  FF8
0675A:  MOVLW  0E
0675C:  MOVLB  4
0675E:  MOVWF  x4F
06760:  MOVLB  0
06762:  CALL   4B26
....................       SendDataDisplay(); 
06766:  CALL   3BE4
....................    }else if(ACiclos[i]==7){ 
0676A:  BRA    6B16
0676C:  MOVLB  3
0676E:  MOVLW  1A
06770:  ADDWF  xA2,W
06772:  MOVWF  FE9
06774:  MOVLW  04
06776:  ADDWFC xA3,W
06778:  MOVWF  FEA
0677A:  MOVF   FEF,W
0677C:  SUBLW  07
0677E:  BNZ   67CC
....................       printf("A%Lu.txt=\"ERR Ciclo\"",i+1); 
06780:  MOVLW  01
06782:  ADDWF  xA2,W
06784:  MOVLB  4
06786:  MOVWF  x49
06788:  MOVLW  00
0678A:  MOVLB  3
0678C:  ADDWFC xA3,W
0678E:  MOVLB  4
06790:  MOVWF  x4A
06792:  MOVLW  41
06794:  BTFSS  F9E.4
06796:  BRA    6794
06798:  MOVWF  FAD
0679A:  MOVLW  10
0679C:  MOVWF  FE9
0679E:  MOVFF  44A,450
067A2:  MOVFF  449,44F
067A6:  MOVLB  0
067A8:  CALL   54DC
067AC:  MOVLW  7C
067AE:  MOVWF  FF6
067B0:  MOVLW  02
067B2:  MOVWF  FF7
067B4:  MOVLW  00
067B6:  MOVWF  FF8
067B8:  MOVLW  10
067BA:  MOVLB  4
067BC:  MOVWF  x4F
067BE:  MOVLB  0
067C0:  CALL   4B26
....................       SendDataDisplay(); 
067C4:  CALL   3BE4
....................    }else if(ACiclos[i]==8){ 
067C8:  BRA    6B16
067CA:  MOVLB  3
067CC:  MOVLW  1A
067CE:  ADDWF  xA2,W
067D0:  MOVWF  FE9
067D2:  MOVLW  04
067D4:  ADDWFC xA3,W
067D6:  MOVWF  FEA
067D8:  MOVF   FEF,W
067DA:  SUBLW  08
067DC:  BNZ   682A
....................       printf("A%Lu.txt=\"Llenado\"",i+1); 
067DE:  MOVLW  01
067E0:  ADDWF  xA2,W
067E2:  MOVLB  4
067E4:  MOVWF  x49
067E6:  MOVLW  00
067E8:  MOVLB  3
067EA:  ADDWFC xA3,W
067EC:  MOVLB  4
067EE:  MOVWF  x4A
067F0:  MOVLW  41
067F2:  BTFSS  F9E.4
067F4:  BRA    67F2
067F6:  MOVWF  FAD
067F8:  MOVLW  10
067FA:  MOVWF  FE9
067FC:  MOVFF  44A,450
06800:  MOVFF  449,44F
06804:  MOVLB  0
06806:  CALL   54DC
0680A:  MOVLW  92
0680C:  MOVWF  FF6
0680E:  MOVLW  02
06810:  MOVWF  FF7
06812:  MOVLW  00
06814:  MOVWF  FF8
06816:  MOVLW  0E
06818:  MOVLB  4
0681A:  MOVWF  x4F
0681C:  MOVLB  0
0681E:  CALL   4B26
....................       SendDataDisplay(); 
06822:  CALL   3BE4
....................    }else if(ACiclos[i]==10){ 
06826:  BRA    6B16
06828:  MOVLB  3
0682A:  MOVLW  1A
0682C:  ADDWF  xA2,W
0682E:  MOVWF  FE9
06830:  MOVLW  04
06832:  ADDWFC xA3,W
06834:  MOVWF  FEA
06836:  MOVF   FEF,W
06838:  SUBLW  0A
0683A:  BNZ   6888
....................       printf("A%Lu.txt=\"Llenando\"",i+1); 
0683C:  MOVLW  01
0683E:  ADDWF  xA2,W
06840:  MOVLB  4
06842:  MOVWF  x49
06844:  MOVLW  00
06846:  MOVLB  3
06848:  ADDWFC xA3,W
0684A:  MOVLB  4
0684C:  MOVWF  x4A
0684E:  MOVLW  41
06850:  BTFSS  F9E.4
06852:  BRA    6850
06854:  MOVWF  FAD
06856:  MOVLW  10
06858:  MOVWF  FE9
0685A:  MOVFF  44A,450
0685E:  MOVFF  449,44F
06862:  MOVLB  0
06864:  CALL   54DC
06868:  MOVLW  A6
0686A:  MOVWF  FF6
0686C:  MOVLW  02
0686E:  MOVWF  FF7
06870:  MOVLW  00
06872:  MOVWF  FF8
06874:  MOVLW  0F
06876:  MOVLB  4
06878:  MOVWF  x4F
0687A:  MOVLB  0
0687C:  CALL   4B26
....................       SendDataDisplay(); 
06880:  CALL   3BE4
....................    }else if(ACiclos[i]==11){ 
06884:  BRA    6B16
06886:  MOVLB  3
06888:  MOVLW  1A
0688A:  ADDWF  xA2,W
0688C:  MOVWF  FE9
0688E:  MOVLW  04
06890:  ADDWFC xA3,W
06892:  MOVWF  FEA
06894:  MOVF   FEF,W
06896:  SUBLW  0B
06898:  BNZ   68E6
....................       printf("A%Lu.txt=\"Vacio\"",i+1); 
0689A:  MOVLW  01
0689C:  ADDWF  xA2,W
0689E:  MOVLB  4
068A0:  MOVWF  x49
068A2:  MOVLW  00
068A4:  MOVLB  3
068A6:  ADDWFC xA3,W
068A8:  MOVLB  4
068AA:  MOVWF  x4A
068AC:  MOVLW  41
068AE:  BTFSS  F9E.4
068B0:  BRA    68AE
068B2:  MOVWF  FAD
068B4:  MOVLW  10
068B6:  MOVWF  FE9
068B8:  MOVFF  44A,450
068BC:  MOVFF  449,44F
068C0:  MOVLB  0
068C2:  CALL   54DC
068C6:  MOVLW  BA
068C8:  MOVWF  FF6
068CA:  MOVLW  02
068CC:  MOVWF  FF7
068CE:  MOVLW  00
068D0:  MOVWF  FF8
068D2:  MOVLW  0C
068D4:  MOVLB  4
068D6:  MOVWF  x4F
068D8:  MOVLB  0
068DA:  CALL   4B26
....................       SendDataDisplay(); 
068DE:  CALL   3BE4
....................    }else if(ACiclos[i]==12){ 
068E2:  BRA    6B16
068E4:  MOVLB  3
068E6:  MOVLW  1A
068E8:  ADDWF  xA2,W
068EA:  MOVWF  FE9
068EC:  MOVLW  04
068EE:  ADDWFC xA3,W
068F0:  MOVWF  FEA
068F2:  MOVF   FEF,W
068F4:  SUBLW  0C
068F6:  BNZ   6944
....................       printf("A%Lu.txt=\"Calen\"",i+1); 
068F8:  MOVLW  01
068FA:  ADDWF  xA2,W
068FC:  MOVLB  4
068FE:  MOVWF  x49
06900:  MOVLW  00
06902:  MOVLB  3
06904:  ADDWFC xA3,W
06906:  MOVLB  4
06908:  MOVWF  x4A
0690A:  MOVLW  41
0690C:  BTFSS  F9E.4
0690E:  BRA    690C
06910:  MOVWF  FAD
06912:  MOVLW  10
06914:  MOVWF  FE9
06916:  MOVFF  44A,450
0691A:  MOVFF  449,44F
0691E:  MOVLB  0
06920:  CALL   54DC
06924:  MOVLW  CC
06926:  MOVWF  FF6
06928:  MOVLW  02
0692A:  MOVWF  FF7
0692C:  MOVLW  00
0692E:  MOVWF  FF8
06930:  MOVLW  0C
06932:  MOVLB  4
06934:  MOVWF  x4F
06936:  MOVLB  0
06938:  CALL   4B26
....................       SendDataDisplay(); 
0693C:  CALL   3BE4
....................    }else if(ACiclos[i]==13){ 
06940:  BRA    6B16
06942:  MOVLB  3
06944:  MOVLW  1A
06946:  ADDWF  xA2,W
06948:  MOVWF  FE9
0694A:  MOVLW  04
0694C:  ADDWFC xA3,W
0694E:  MOVWF  FEA
06950:  MOVF   FEF,W
06952:  SUBLW  0D
06954:  BNZ   69A2
....................       printf("A%Lu.txt=\"Desfoga\"",i+1); 
06956:  MOVLW  01
06958:  ADDWF  xA2,W
0695A:  MOVLB  4
0695C:  MOVWF  x49
0695E:  MOVLW  00
06960:  MOVLB  3
06962:  ADDWFC xA3,W
06964:  MOVLB  4
06966:  MOVWF  x4A
06968:  MOVLW  41
0696A:  BTFSS  F9E.4
0696C:  BRA    696A
0696E:  MOVWF  FAD
06970:  MOVLW  10
06972:  MOVWF  FE9
06974:  MOVFF  44A,450
06978:  MOVFF  449,44F
0697C:  MOVLB  0
0697E:  CALL   54DC
06982:  MOVLW  DE
06984:  MOVWF  FF6
06986:  MOVLW  02
06988:  MOVWF  FF7
0698A:  MOVLW  00
0698C:  MOVWF  FF8
0698E:  MOVLW  0E
06990:  MOVLB  4
06992:  MOVWF  x4F
06994:  MOVLB  0
06996:  CALL   4B26
....................       SendDataDisplay(); 
0699A:  CALL   3BE4
....................    }else if(ACiclos[i]==14){ 
0699E:  BRA    6B16
069A0:  MOVLB  3
069A2:  MOVLW  1A
069A4:  ADDWF  xA2,W
069A6:  MOVWF  FE9
069A8:  MOVLW  04
069AA:  ADDWFC xA3,W
069AC:  MOVWF  FEA
069AE:  MOVF   FEF,W
069B0:  SUBLW  0E
069B2:  BNZ   6A00
....................       printf("A%Lu.txt=\"Finalizado\"",i+1); 
069B4:  MOVLW  01
069B6:  ADDWF  xA2,W
069B8:  MOVLB  4
069BA:  MOVWF  x49
069BC:  MOVLW  00
069BE:  MOVLB  3
069C0:  ADDWFC xA3,W
069C2:  MOVLB  4
069C4:  MOVWF  x4A
069C6:  MOVLW  41
069C8:  BTFSS  F9E.4
069CA:  BRA    69C8
069CC:  MOVWF  FAD
069CE:  MOVLW  10
069D0:  MOVWF  FE9
069D2:  MOVFF  44A,450
069D6:  MOVFF  449,44F
069DA:  MOVLB  0
069DC:  CALL   54DC
069E0:  MOVLW  F2
069E2:  MOVWF  FF6
069E4:  MOVLW  02
069E6:  MOVWF  FF7
069E8:  MOVLW  00
069EA:  MOVWF  FF8
069EC:  MOVLW  11
069EE:  MOVLB  4
069F0:  MOVWF  x4F
069F2:  MOVLB  0
069F4:  CALL   4B26
....................       SendDataDisplay(); 
069F8:  CALL   3BE4
....................    }else if(ACiclos[i]==15){ 
069FC:  BRA    6B16
069FE:  MOVLB  3
06A00:  MOVLW  1A
06A02:  ADDWF  xA2,W
06A04:  MOVWF  FE9
06A06:  MOVLW  04
06A08:  ADDWFC xA3,W
06A0A:  MOVWF  FEA
06A0C:  MOVF   FEF,W
06A0E:  SUBLW  0F
06A10:  BNZ   6A5E
....................       printf("A%Lu.txt=\"Secando\"",i+1); 
06A12:  MOVLW  01
06A14:  ADDWF  xA2,W
06A16:  MOVLB  4
06A18:  MOVWF  x49
06A1A:  MOVLW  00
06A1C:  MOVLB  3
06A1E:  ADDWFC xA3,W
06A20:  MOVLB  4
06A22:  MOVWF  x4A
06A24:  MOVLW  41
06A26:  BTFSS  F9E.4
06A28:  BRA    6A26
06A2A:  MOVWF  FAD
06A2C:  MOVLW  10
06A2E:  MOVWF  FE9
06A30:  MOVFF  44A,450
06A34:  MOVFF  449,44F
06A38:  MOVLB  0
06A3A:  CALL   54DC
06A3E:  MOVLW  08
06A40:  MOVWF  FF6
06A42:  MOVLW  03
06A44:  MOVWF  FF7
06A46:  MOVLW  00
06A48:  MOVWF  FF8
06A4A:  MOVLW  0E
06A4C:  MOVLB  4
06A4E:  MOVWF  x4F
06A50:  MOVLB  0
06A52:  CALL   4B26
....................       SendDataDisplay(); 
06A56:  CALL   3BE4
....................    }else if(ACiclos[i]==16){ 
06A5A:  BRA    6B16
06A5C:  MOVLB  3
06A5E:  MOVLW  1A
06A60:  ADDWF  xA2,W
06A62:  MOVWF  FE9
06A64:  MOVLW  04
06A66:  ADDWFC xA3,W
06A68:  MOVWF  FEA
06A6A:  MOVF   FEF,W
06A6C:  SUBLW  10
06A6E:  BNZ   6ABC
....................       printf("A%Lu.txt=\"Esterilizando\"",i+1); 
06A70:  MOVLW  01
06A72:  ADDWF  xA2,W
06A74:  MOVLB  4
06A76:  MOVWF  x49
06A78:  MOVLW  00
06A7A:  MOVLB  3
06A7C:  ADDWFC xA3,W
06A7E:  MOVLB  4
06A80:  MOVWF  x4A
06A82:  MOVLW  41
06A84:  BTFSS  F9E.4
06A86:  BRA    6A84
06A88:  MOVWF  FAD
06A8A:  MOVLW  10
06A8C:  MOVWF  FE9
06A8E:  MOVFF  44A,450
06A92:  MOVFF  449,44F
06A96:  MOVLB  0
06A98:  CALL   54DC
06A9C:  MOVLW  1C
06A9E:  MOVWF  FF6
06AA0:  MOVLW  03
06AA2:  MOVWF  FF7
06AA4:  MOVLW  00
06AA6:  MOVWF  FF8
06AA8:  MOVLW  14
06AAA:  MOVLB  4
06AAC:  MOVWF  x4F
06AAE:  MOVLB  0
06AB0:  CALL   4B26
....................       SendDataDisplay(); 
06AB4:  CALL   3BE4
....................    }else if(ACiclos[i]==17){ 
06AB8:  BRA    6B16
06ABA:  MOVLB  3
06ABC:  MOVLW  1A
06ABE:  ADDWF  xA2,W
06AC0:  MOVWF  FE9
06AC2:  MOVLW  04
06AC4:  ADDWFC xA3,W
06AC6:  MOVWF  FEA
06AC8:  MOVF   FEF,W
06ACA:  SUBLW  11
06ACC:  BNZ   6B18
....................       printf("A%Lu.txt=\"Enfriando\"",i+1); 
06ACE:  MOVLW  01
06AD0:  ADDWF  xA2,W
06AD2:  MOVLB  4
06AD4:  MOVWF  x49
06AD6:  MOVLW  00
06AD8:  MOVLB  3
06ADA:  ADDWFC xA3,W
06ADC:  MOVLB  4
06ADE:  MOVWF  x4A
06AE0:  MOVLW  41
06AE2:  BTFSS  F9E.4
06AE4:  BRA    6AE2
06AE6:  MOVWF  FAD
06AE8:  MOVLW  10
06AEA:  MOVWF  FE9
06AEC:  MOVFF  44A,450
06AF0:  MOVFF  449,44F
06AF4:  MOVLB  0
06AF6:  CALL   54DC
06AFA:  MOVLW  36
06AFC:  MOVWF  FF6
06AFE:  MOVLW  03
06B00:  MOVWF  FF7
06B02:  MOVLW  00
06B04:  MOVWF  FF8
06B06:  MOVLW  10
06B08:  MOVLB  4
06B0A:  MOVWF  x4F
06B0C:  MOVLB  0
06B0E:  CALL   4B26
....................       SendDataDisplay(); 
06B12:  CALL   3BE4
06B16:  MOVLB  3
....................    } 
.................... } 
06B18:  MOVLB  0
06B1A:  GOTO   CA1C (RETURN)
....................  
.................... void enciendeBombaAgua(){ 
....................    if(tBombaAgua>120){//Enciende 120 segundos 
....................       Agua_off; 
....................       #ifdef Enfriador 
....................       Enfr_off; 
....................       #else 
....................       Bomba_off; 
....................       #endif 
....................       flagBombaAgua=OFF; 
....................       flagBombaAguaOff=ON; 
....................       if(tBombaAguaOff>=60){//Apaga 60 segundos 
....................          tBombaAgua=0; 
....................       } 
....................    }else{ 
....................       Agua_on; 
....................       #ifdef Enfriador 
....................       Enfr_on; 
....................       #else 
....................       Bomba_on; 
....................       #endif 
....................       flagBombaAgua=ON; 
....................       flagBombaAguaOff=OFF; 
....................       tBombaAguaOff=0; 
....................    } 
.................... } 
....................  
.................... void apagaBombaAgua(){ 
....................    Agua_off; 
....................    #ifdef Enfriador 
....................    Enfr_off; 
....................    #else 
....................    Bomba_off; 
....................    #endif 
....................    flagBombaAgua=OFF; 
....................    flagBombaAguaOff=OFF; 
....................    tBombaAguaOff=0; 
....................    tBombaAgua=0; 
.................... } 
....................  
.................... void purgaAire(){ 
....................    if(PresionCamara>(int16)Atmosferica+30 && !purgo){ 
*
0782C:  MOVLB  4
0782E:  CLRF   x4A
07830:  MOVFF  3B8,449
07834:  MOVLW  1E
07836:  ADDWF  x49,W
07838:  MOVWF  01
0783A:  MOVLW  00
0783C:  ADDWFC x4A,W
0783E:  MOVWF  03
07840:  MOVF   03,W
07842:  MOVLB  3
07844:  SUBWF  x76,W
07846:  BNC   7860
07848:  BNZ   7850
0784A:  MOVF   x75,W
0784C:  SUBWF  01,W
0784E:  BC    7860
07850:  MOVLB  0
07852:  BTFSS  xA0.7
07854:  BRA    785A
07856:  MOVLB  3
07858:  BRA    7860
....................       purgaAire2=ON; 
0785A:  BSF    xA1.0
....................    }else{ 
0785C:  BRA    787A
0785E:  MOVLB  3
....................       purgaAire2=OFF; 
07860:  MOVLB  0
07862:  BCF    xA1.0
....................       if(!purgo){ 
07864:  BTFSC  xA0.7
07866:  BRA    7872
....................          Enfr_on; 
07868:  BSF    F8C.6
0786A:  BCF    F95.6
....................          Desfogue_on; 
0786C:  BSF    F8C.4
0786E:  BCF    F95.4
....................       }else{ 
07870:  BRA    787A
....................          Desfogue_off; 
07872:  BCF    F8C.4
07874:  BCF    F95.4
....................          Enfr_off; 
07876:  BCF    F8C.6
07878:  BCF    F95.6
....................       } 
....................    } 
....................     
....................    if(purgaAire2){ 
0787A:  BTFSS  xA1.0
0787C:  BRA    78D4
....................       Enfr_on; 
0787E:  BSF    F8C.6
07880:  BCF    F95.6
....................       if(tPurgaAire>0 && tPurgaAire<12){ 
07882:  MOVLB  3
07884:  MOVF   x81,F
07886:  BNZ   788C
07888:  MOVF   x82,F
0788A:  BZ    789C
0788C:  MOVF   x82,F
0788E:  BNZ   789C
07890:  MOVF   x81,W
07892:  SUBLW  0B
07894:  BNC   789C
....................          Desfogue_on; 
07896:  BSF    F8C.4
07898:  BCF    F95.4
....................       }else if(tPurgaAire>=12 && tPurgaAire<66){ 
0789A:  BRA    78C8
0789C:  MOVF   x82,F
0789E:  BNZ   78A6
078A0:  MOVF   x81,W
078A2:  SUBLW  0B
078A4:  BC    78B6
078A6:  MOVF   x82,F
078A8:  BNZ   78B6
078AA:  MOVF   x81,W
078AC:  SUBLW  41
078AE:  BNC   78B6
....................          Desfogue_off; 
078B0:  BCF    F8C.4
078B2:  BCF    F95.4
....................       }else if(tPurgaAire>0){ 
078B4:  BRA    78C8
078B6:  MOVF   x81,F
078B8:  BNZ   78BE
078BA:  MOVF   x82,F
078BC:  BZ    78C8
....................          pulsosPurga++; 
078BE:  INCF   x3C,F
....................          Desfogue_off; 
078C0:  BCF    F8C.4
078C2:  BCF    F95.4
....................          tPurgaAire=0; 
078C4:  CLRF   x82
078C6:  CLRF   x81
....................          //purgaAire2=OFF; 
....................          //purgo=ON; 
....................       } 
....................        
....................       if(pulsosPurga>=pulsosPurgaProgramados){ 
078C8:  MOVF   x3D,W
078CA:  SUBWF  x3C,W
078CC:  BNC   78D6
....................          purgaAire2=OFF; 
078CE:  MOVLB  0
078D0:  BCF    xA1.0
....................          purgo=ON; 
078D2:  BSF    xA0.7
078D4:  MOVLB  3
....................       } 
....................    } 
....................  
.................... } 
078D6:  MOVLB  0
078D8:  GOTO   D380 (RETURN)
....................  
.................... void ConfiguraCiclo(int8 este0,este1,este2,este3,secado0,secado1,secado2,secado3,liquidos,ciclo,temperatura){ 
....................    Testerilizacionp[0]=este0;Testerilizacionp[1]=este1;Testerilizacionp[2]=este2;Testerilizacionp[3]=este3; 
*
05450:  MOVFF  453,B6
05454:  MOVFF  454,B7
05458:  MOVFF  455,B8
0545C:  MOVFF  456,B9
....................    Tsecadop[0]=secado0;Tsecadop[1]=secado1;Tsecadop[2]=secado2;Tsecadop[3]=secado3; 
05460:  MOVFF  457,BF
05464:  MOVFF  458,C0
05468:  MOVFF  459,C1
0546C:  MOVFF  45A,C2
....................    Setpoint=temperatura;                
05470:  MOVFF  45D,363
....................    tiempo_secado=0; 
05474:  MOVLB  3
05476:  CLRF   x67
....................    desfoguelento=liquidos; 
05478:  MOVLB  0
0547A:  BCF    xA4.7
0547C:  MOVLB  4
0547E:  BTFSS  x5B.0
05480:  BRA    5488
05482:  MOVLB  0
05484:  BSF    xA4.7
05486:  MOVLB  4
....................    CicloSeleccionado=ciclo; 
05488:  MOVFF  45C,362
....................    Testerilizacion[0]=Testerilizacionp[0];Testerilizacion[1]=Testerilizacionp[1];Testerilizacion[2]=Testerilizacionp[2]; 
0548C:  MOVFF  B6,B1
05490:  MOVFF  B7,B2
05494:  MOVFF  B8,B3
....................    Testerilizacion[3]=Testerilizacionp[3];Testerilizacion[4]=Testerilizacionp[4]; 
05498:  MOVFF  B9,B4
0549C:  MOVFF  BA,B5
....................    Tsecado[0]=Tsecadop[0];Tsecado[1]=Tsecadop[1];Tsecado[2]=Tsecadop[2];Tsecado[3]=Tsecadop[3]; 
054A0:  MOVFF  BF,BB
054A4:  MOVFF  C0,BC
054A8:  MOVFF  C1,BD
054AC:  MOVFF  C2,BE
....................    if(!borra){ 
054B0:  MOVLB  0
054B2:  BTFSC  xA3.2
054B4:  BRA    54BA
....................       borraDatoCiclo(); 
054B6:  BRA    4FB0
....................       borra=ON; 
054B8:  BSF    xA3.2
....................    } 
....................    Imprime=15; 
054BA:  MOVLW  0F
054BC:  MOVLB  3
054BE:  MOVWF  xB7
....................    Envio_Esclavos(); 
054C0:  MOVLB  0
054C2:  CALL   495A
....................    delay_ms(100); 
054C6:  MOVLW  64
054C8:  MOVLB  4
054CA:  MOVWF  x62
054CC:  MOVLB  0
054CE:  CALL   1A6C
....................    Imprime=10; 
054D2:  MOVLW  0A
054D4:  MOVLB  3
054D6:  MOVWF  xB7
.................... } 
054D8:  MOVLB  0
054DA:  RETLW  00
....................  
....................  
....................  
.................... #int_rda HIGH 
.................... void serial_rx_isr(){ 
....................  
....................    Dato2=fgetc(); 
*
00348:  BTFSS  F9E.5
0034A:  BRA    0348
0034C:  MOVFF  FAE,35B
00350:  MOVLB  3
....................    if(Dato2==0x65){//Inicio Comunicacion 
00352:  MOVF   x5B,W
00354:  SUBLW  65
00356:  BNZ   035E
....................       Inicio=1; 
00358:  MOVLW  01
0035A:  MOVWF  x59
....................       RX_Wr_Index =0; 
0035C:  CLRF   46
....................    } 
....................    //Inicio=1; 
....................    if(Inicio==1){ 
0035E:  DECFSZ x59,W
00360:  BRA    0376
....................       Rx_Buffer2[RX_Wr_Index] = Dato2; 
00362:  CLRF   03
00364:  MOVF   46,W
00366:  ADDLW  3B
00368:  MOVWF  FE9
0036A:  MOVLW  00
0036C:  ADDWFC 03,W
0036E:  MOVWF  FEA
00370:  MOVFF  35B,FEF
....................       RX_Wr_Index++; 
00374:  INCF   46,F
....................    } 
....................    if(RX_Wr_Index >= RX_BUFFER_SIZE){ 
00376:  MOVF   46,W
00378:  SUBLW  09
0037A:  BC    0380
....................       RX_Wr_Index =0; 
0037C:  CLRF   46
....................       Inicio=0; 
0037E:  CLRF   x59
....................    } 
....................  
....................    if(RX_Wr_Index==0){ 
00380:  MOVF   46,F
00382:  BNZ   03A4
....................       if(Rx_Buffer2[0]==0x65 && Rx_Buffer2[1]==0xff && Rx_Buffer2[2]==0xff && Rx_Buffer2[8]==0x00 && Rx_Buffer2[9]==0xff ){ 
00384:  MOVF   3B,W
00386:  SUBLW  65
00388:  BNZ   03A0
0038A:  INCFSZ 3C,W
0038C:  BRA    03A0
0038E:  INCFSZ 3D,W
00390:  BRA    03A0
00392:  MOVF   43,F
00394:  BNZ   03A0
00396:  INCFSZ 44,W
00398:  BRA    03A0
....................          Dato_Exitoso=5; 
0039A:  MOVLW  05
0039C:  MOVWF  x5A
....................       }else{ 
0039E:  BRA    03A4
....................          Dato_Exitoso=10; 
003A0:  MOVLW  0A
003A2:  MOVWF  x5A
....................       } 
....................    } 
....................    //Dato_Exitoso=5; 
....................    if(Menu==20) 
003A4:  MOVF   x5D,W
003A6:  SUBLW  14
003A8:  BNZ   03AE
....................      Buzzer_on; 
003AA:  BSF    F8C.0
003AC:  BCF    F95.0
.................... } 
....................  
003AE:  BCF    F9E.5
003B0:  MOVLB  0
003B2:  GOTO   010A
.................... #int_TIMER0 
.................... void temp0s(void){ 
....................    set_timer0(0); 
003B6:  CLRF   FD7
003B8:  CLRF   FD6
....................    t_exhaust++; 
003BA:  MOVLB  3
003BC:  INCF   x92,F
003BE:  BTFSC  FD8.2
003C0:  INCF   x93,F
....................    if(DesfogueSuave){ 
003C2:  MOVLB  0
003C4:  BTFSS  xA0.6
003C6:  BRA    0408
....................       if(Nivel<6){ 
003C8:  MOVLB  3
003CA:  MOVF   x72,F
003CC:  BNZ   0402
003CE:  MOVF   x71,W
003D0:  SUBLW  05
003D2:  BNC   0402
....................          if(t_exhaust<=NivelSeleccionado) // Si el tiempo es menor o igual al tiempo de control se enciende la resistencia de lo contrario se apaga. 
003D4:  MOVF   x93,W
003D6:  SUBWF  x7C,W
003D8:  BNC   03E8
003DA:  BNZ   03E2
003DC:  MOVF   x92,W
003DE:  SUBWF  x7B,W
003E0:  BNC   03E8
....................             Desfogue_on; 
003E2:  BSF    F8C.4
003E4:  BCF    F95.4
....................          else             
003E6:  BRA    03EC
....................             Desfogue_off; 
003E8:  BCF    F8C.4
003EA:  BCF    F95.4
....................        
....................          if(t_exhaust>=60000) // Si el tiempo de control es mayor al tiempo de ciclo se reinicia tiempo de control          
003EC:  MOVF   x93,W
003EE:  SUBLW  E9
003F0:  BC    0400
003F2:  XORLW  FF
003F4:  BNZ   03FC
003F6:  MOVF   x92,W
003F8:  SUBLW  5F
003FA:  BC    0400
....................             t_exhaust=0; // tiempoctrl incrementa una unidad cada Xms, por eso se dividen los tiempos por 0.005. 
003FC:  CLRF   x93
003FE:  CLRF   x92
....................       }else{ 
00400:  BRA    0406
....................          Desfogue_on; 
00402:  BSF    F8C.4
00404:  BCF    F95.4
00406:  MOVLB  0
....................       } 
....................    }   
.................... } 
....................  
00408:  BCF    FF2.2
0040A:  GOTO   0074
.................... #int_TIMER1 
.................... void temp1s(void){ 
....................    set_timer1(40536); // Se repite cada 5ms 
0040E:  MOVLW  9E
00410:  MOVWF  FCF
00412:  MOVLW  58
00414:  MOVWF  FCE
....................    tiempos++; 
00416:  MOVLB  3
00418:  INCF   x69,F
0041A:  BTFSC  FD8.2
0041C:  INCF   x6A,F
....................    tiempos2++; 
0041E:  INCF   x6B,F
00420:  BTFSC  FD8.2
00422:  INCF   x6C,F
....................    tiempos3++; 
00424:  INCF   x6D,F
00426:  BTFSC  FD8.2
00428:  INCF   x6E,F
....................    tiempoctrl++; 
0042A:  INCF   x6F,F
0042C:  BTFSC  FD8.2
0042E:  INCF   x70,F
....................     
....................    if(!STOP){ 
00430:  BSF    F93.7
00432:  BTFSS  F81.7
00434:  BRA    043E
....................       tStop++; 
00436:  INCF   x9A,F
00438:  BTFSC  FD8.2
0043A:  INCF   x9B,F
....................    }else{ 
0043C:  BRA    0442
....................       tStop=0; 
0043E:  CLRF   x9B
00440:  CLRF   x9A
....................    } 
....................     
....................    if(!TERM){ 
00442:  BSF    F93.5
00444:  BTFSS  F81.5
00446:  BRA    0450
....................       tTermostato++; 
00448:  INCF   x9C,F
0044A:  BTFSC  FD8.2
0044C:  INCF   x9D,F
....................    }else{ 
0044E:  BRA    0454
....................       tTermostato=0; 
00450:  CLRF   x9D
00452:  CLRF   x9C
....................    } 
....................     
....................    if(RIGHT){ 
00454:  BSF    F93.2
00456:  BTFSC  F81.2
00458:  BRA    0462
....................       tright++; 
0045A:  INCF   xA6,F
0045C:  BTFSC  FD8.2
0045E:  INCF   xA7,F
....................    }else{ 
00460:  BRA    0466
....................       tright=0; 
00462:  CLRF   xA7
00464:  CLRF   xA6
....................    } 
....................     
....................    if(flagAlarma) 
00466:  MOVLB  0
00468:  BTFSS  xA3.1
0046A:  BRA    0476
....................       tbuzzer++; 
0046C:  MOVLB  3
0046E:  INCF   x94,F
00470:  BTFSC  FD8.2
00472:  INCF   x95,F
00474:  MOVLB  0
....................        
....................    if(flagSilencio)    
00476:  BTFSS  xA3.4
00478:  BRA    0482
....................       tsilencio++; 
0047A:  MOVLB  3
0047C:  INCF   x96,F
0047E:  BTFSC  FD8.2
00480:  INCF   x97,F
....................     
....................    if(Controlando==1){ 
00482:  MOVLB  3
00484:  DECFSZ x55,W
00486:  BRA    04C4
....................       if(tiempoctrl<Tp) // Si el tiempo es menor o igual al tiempo de control se enciende la resistencia de lo contrario se apaga. 
00488:  MOVF   x70,W
0048A:  MOVLB  0
0048C:  SUBWF  xAC,W
0048E:  BNC   04A8
00490:  BNZ   04A2
00492:  MOVF   xAB,W
00494:  MOVLB  3
00496:  SUBWF  x6F,W
00498:  BTFSS  FD8.0
0049A:  BRA    04A0
0049C:  MOVLB  0
0049E:  BRA    04A8
004A0:  MOVLB  0
....................          SSR_on; 
004A2:  BCF    F8B.2
004A4:  BCF    F94.2
....................       else          
004A6:  BRA    04AC
....................          SSR_off; 
004A8:  BSF    F8B.2
004AA:  BCF    F94.2
....................              
....................       if(tiempoctrl>=Tc) // Si el tiempo de control es mayor al tiempo de ciclo se reinicia tiempo de control 
004AC:  MOVF   xAE,W
004AE:  MOVLB  3
004B0:  SUBWF  x70,W
004B2:  BNC   04C4
004B4:  BNZ   04C0
004B6:  MOVLB  0
004B8:  MOVF   xAD,W
004BA:  MOVLB  3
004BC:  SUBWF  x6F,W
004BE:  BNC   04C4
....................          tiempoctrl=0;// tiempoctrl incrementa una unidad cada 5ms, por eso se dividen los tiempos por 0.005. 
004C0:  CLRF   x70
004C2:  CLRF   x6F
....................    } 
....................     
....................    if(tiempos>=200)  // 12000 para que incremente cada minuto, 200para que incremente cada segundo. 
004C4:  MOVF   x6A,F
004C6:  BNZ   04D0
004C8:  MOVF   x69,W
004CA:  SUBLW  C7
004CC:  BTFSC  FD8.0
004CE:  BRA    061E
....................    { 
....................       if(flagTC) 
004D0:  BTFSS  x52.3
004D2:  BRA    04D6
....................          TiempoControl++; 
004D4:  INCF   x8F,F
....................        
....................       if(purgaAire2) 
004D6:  MOVLB  0
004D8:  BTFSS  xA1.0
004DA:  BRA    04E4
....................          tPurgaAire++; 
004DC:  MOVLB  3
004DE:  INCF   x81,F
004E0:  BTFSC  FD8.2
004E2:  INCF   x82,F
....................        
....................       tiemporecta++; 
004E4:  MOVLB  3
004E6:  INCF   x54,F
....................        
....................       if(flagBombaAgua) 
004E8:  MOVLB  0
004EA:  BTFSS  xA4.5
004EC:  BRA    04F8
....................          tBombaAgua++; 
004EE:  MOVLB  3
004F0:  INCF   x7D,F
004F2:  BTFSC  FD8.2
004F4:  INCF   x7E,F
004F6:  MOVLB  0
....................        
....................       if(flagBombaAguaOff) 
004F8:  BTFSS  xA4.6
004FA:  BRA    0506
....................          tBombaAguaOff++; 
004FC:  MOVLB  3
004FE:  INCF   x7F,F
00500:  BTFSC  FD8.2
00502:  INCF   x80,F
00504:  MOVLB  0
....................        
....................       if(IniciaCiclo && tiempoImpresion<CalculoImpresion){ 
00506:  BTFSS  xA0.1
00508:  BRA    051C
0050A:  MOVLB  3
0050C:  MOVF   x58,W
0050E:  SUBWF  x68,W
00510:  BTFSS  FD8.0
00512:  BRA    0518
00514:  MOVLB  0
00516:  BRA    051C
....................          tiempoImpresion++; 
00518:  INCF   x68,F
....................       }else if(tiempoImpresion>=CalculoImpresion){ 
0051A:  BRA    0528
0051C:  MOVLB  3
0051E:  MOVF   x58,W
00520:  SUBWF  x68,W
00522:  BNC   0528
....................          flagImprime=1; 
00524:  BSF    x52.4
....................          tiempoImpresion=0; 
00526:  CLRF   x68
....................       } 
....................        
....................       if(IniciaCiclo && !Esterilizando){ 
00528:  MOVLB  0
0052A:  BTFSS  xA0.1
0052C:  BRA    0542
0052E:  BTFSC  xA0.2
00530:  BRA    0542
....................          TiempoCiclo++; 
00532:  INCF   xA5,F
00534:  BTFSC  FD8.2
00536:  INCF   xA6,F
....................          tiempoAgua++; 
00538:  MOVLB  3
0053A:  INCF   x98,F
0053C:  BTFSC  FD8.2
0053E:  INCF   x99,F
00540:  MOVLB  0
....................       } 
....................        
....................       if(IniciaLlenado && !CalderinLleno){ 
00542:  BTFSS  x9F.7
00544:  BRA    0550
00546:  BTFSC  xA0.0
00548:  BRA    0550
....................          TiempoLlenado++; 
0054A:  INCF   xA7,F
0054C:  BTFSC  FD8.2
0054E:  INCF   xA8,F
....................       } 
....................        
....................       if(SensadoNivel){ 
00550:  BTFSS  xA0.4
00552:  BRA    055A
....................          TiempoSensadoNivel++; 
00554:  INCF   xA9,F
00556:  BTFSC  FD8.2
00558:  INCF   xAA,F
....................       } 
....................        
....................       if(guardaCiclo) 
0055A:  BTFSS  xA4.4
0055C:  BRA    0564
....................          tguarda++;  
0055E:  INCF   xAF,F
00560:  BTFSC  FD8.2
00562:  INCF   xB0,F
....................        
....................       tiempos=0;Lectura=1;tinicio++; 
00564:  MOVLB  3
00566:  CLRF   x6A
00568:  CLRF   x69
0056A:  BSF    x52.0
0056C:  INCF   x73,F
0056E:  BTFSC  FD8.2
00570:  INCF   x74,F
....................     
....................       if(Esterilizando && !Desfogando){                
00572:  MOVLB  0
00574:  BTFSS  xA0.2
00576:  BRA    05CA
00578:  BTFSC  xA0.5
0057A:  BRA    05CA
....................          if(Testerilizacion[0]>0){ 
0057C:  BTFSC  xB1.7
0057E:  BRA    058A
00580:  MOVF   xB1,W
00582:  SUBLW  00
00584:  BC    058A
....................             Testerilizacion[0]--; 
00586:  DECF   xB1,F
....................          }else if(Testerilizacion[1]>0){ 
00588:  BRA    05CA
0058A:  BTFSC  xB2.7
0058C:  BRA    059C
0058E:  MOVF   xB2,W
00590:  SUBLW  00
00592:  BC    059C
....................             Testerilizacion[1]--; 
00594:  DECF   xB2,F
....................             Testerilizacion[0]=9; 
00596:  MOVLW  09
00598:  MOVWF  xB1
....................          }else if(Testerilizacion[2]>0){ 
0059A:  BRA    05CA
0059C:  BTFSC  xB3.7
0059E:  BRA    05B2
005A0:  MOVF   xB3,W
005A2:  SUBLW  00
005A4:  BC    05B2
....................             Testerilizacion[2]--; 
005A6:  DECF   xB3,F
....................             Testerilizacion[1]=5; 
005A8:  MOVLW  05
005AA:  MOVWF  xB2
....................             Testerilizacion[0]=9; 
005AC:  MOVLW  09
005AE:  MOVWF  xB1
....................          }else if(Testerilizacion[3]>0){ 
005B0:  BRA    05CA
005B2:  BTFSC  xB4.7
005B4:  BRA    05CA
005B6:  MOVF   xB4,W
005B8:  SUBLW  00
005BA:  BC    05CA
....................             Testerilizacion[3]--; 
005BC:  DECF   xB4,F
....................             Testerilizacion[2]=9; 
005BE:  MOVLW  09
005C0:  MOVWF  xB3
....................             Testerilizacion[1]=5; 
005C2:  MOVLW  05
005C4:  MOVWF  xB2
....................             Testerilizacion[0]=9; 
005C6:  MOVLW  09
005C8:  MOVWF  xB1
....................          } 
....................       } 
....................        
....................       if(Secando){ 
005CA:  BTFSS  xA0.3
005CC:  BRA    061C
....................          if(Tsecado[0]>0){ 
005CE:  BTFSC  xBB.7
005D0:  BRA    05DC
005D2:  MOVF   xBB,W
005D4:  SUBLW  00
005D6:  BC    05DC
....................             Tsecado[0]--; 
005D8:  DECF   xBB,F
....................          }else if(Tsecado[1]>0){ 
005DA:  BRA    061C
005DC:  BTFSC  xBC.7
005DE:  BRA    05EE
005E0:  MOVF   xBC,W
005E2:  SUBLW  00
005E4:  BC    05EE
....................             Tsecado[1]--; 
005E6:  DECF   xBC,F
....................             Tsecado[0]=9; 
005E8:  MOVLW  09
005EA:  MOVWF  xBB
....................          }else if(Tsecado[2]>0){ 
005EC:  BRA    061C
005EE:  BTFSC  xBD.7
005F0:  BRA    0604
005F2:  MOVF   xBD,W
005F4:  SUBLW  00
005F6:  BC    0604
....................             Tsecado[2]--; 
005F8:  DECF   xBD,F
....................             Tsecado[1]=5; 
005FA:  MOVLW  05
005FC:  MOVWF  xBC
....................             Tsecado[0]=9; 
005FE:  MOVLW  09
00600:  MOVWF  xBB
....................          }else if(Tsecado[3]>0){ 
00602:  BRA    061C
00604:  BTFSC  xBE.7
00606:  BRA    061C
00608:  MOVF   xBE,W
0060A:  SUBLW  00
0060C:  BC    061C
....................             Tsecado[3]--; 
0060E:  DECF   xBE,F
....................             Tsecado[2]=9; 
00610:  MOVLW  09
00612:  MOVWF  xBD
....................             Tsecado[1]=5; 
00614:  MOVLW  05
00616:  MOVWF  xBC
....................             Tsecado[0]=9; 
00618:  MOVLW  09
0061A:  MOVWF  xBB
0061C:  MOVLB  3
....................          } 
....................       } 
....................    } 
.................... } 
....................  
0061E:  BCF    F9E.0
00620:  MOVLB  0
00622:  GOTO   0074
.................... void main() 
.................... { 
*
07932:  CLRF   FF8
07934:  BCF    FF1.2
07936:  BCF    F9F.0
07938:  BSF    F9F.5
0793A:  BSF    FD0.7
0793C:  BSF    07.7
0793E:  CLRF   FEA
07940:  CLRF   FE9
07942:  BSF    FB8.3
07944:  MOVLW  08
07946:  MOVWF  FAF
07948:  MOVLW  02
0794A:  MOVWF  FB0
0794C:  MOVLW  A6
0794E:  MOVWF  FAC
07950:  MOVLW  90
07952:  MOVWF  FAB
07954:  CLRF   46
07956:  CLRF   47
07958:  CLRF   48
0795A:  CLRF   x62
0795C:  CLRF   x63
0795E:  CLRF   x84
07960:  CLRF   x85
07962:  CLRF   x86
07964:  BCF    x9F.0
07966:  BCF    x9F.1
07968:  BCF    x9F.2
0796A:  BCF    x9F.3
0796C:  BCF    x9F.4
0796E:  BCF    x9F.5
07970:  BCF    x9F.6
07972:  BCF    x9F.7
07974:  BCF    xA0.0
07976:  BCF    xA0.1
07978:  BCF    xA0.2
0797A:  BCF    xA0.3
0797C:  BCF    xA0.4
0797E:  BCF    xA0.5
07980:  BCF    xA0.6
07982:  BCF    xA0.7
07984:  BCF    xA1.0
07986:  BCF    xA1.1
07988:  BCF    xA1.2
0798A:  BCF    xA1.3
0798C:  BCF    xA1.4
0798E:  BCF    xA1.5
07990:  BCF    xA1.6
07992:  BCF    xA1.7
07994:  BCF    xA2.0
07996:  BCF    xA2.1
07998:  BCF    xA2.2
0799A:  BCF    xA2.3
0799C:  BCF    xA2.4
0799E:  BCF    xA2.5
079A0:  BCF    xA2.6
079A2:  BCF    xA2.7
079A4:  BCF    xA3.0
079A6:  BCF    xA3.1
079A8:  BCF    xA3.2
079AA:  BCF    xA3.3
079AC:  BCF    xA3.4
079AE:  BCF    xA3.5
079B0:  BCF    xA3.6
079B2:  BCF    xA3.7
079B4:  BCF    xA4.0
079B6:  BCF    xA4.1
079B8:  BCF    xA4.2
079BA:  BCF    xA4.3
079BC:  BCF    xA4.4
079BE:  BCF    xA4.5
079C0:  BCF    xA4.6
079C2:  CLRF   xA6
079C4:  CLRF   xA5
079C6:  CLRF   xA8
079C8:  CLRF   xA7
079CA:  CLRF   xAA
079CC:  CLRF   xA9
079CE:  CLRF   xAC
079D0:  CLRF   xAB
079D2:  CLRF   xAE
079D4:  CLRF   xAD
079D6:  CLRF   xB0
079D8:  CLRF   xAF
079DA:  MOVLW  9A
079DC:  MOVLB  2
079DE:  MOVWF  xA6
079E0:  MOVLW  99
079E2:  MOVWF  xA5
079E4:  MOVLW  0D
079E6:  MOVWF  xA4
079E8:  MOVLW  86
079EA:  MOVWF  xA3
079EC:  CLRF   xAA
079EE:  CLRF   xA9
079F0:  CLRF   xA8
079F2:  MOVLW  7E
079F4:  MOVWF  xA7
079F6:  CLRF   xAE
079F8:  CLRF   xAD
079FA:  CLRF   xAC
079FC:  CLRF   xAB
079FE:  CLRF   xB2
07A00:  CLRF   xB1
07A02:  MOVLW  48
07A04:  MOVWF  xB0
07A06:  MOVLW  85
07A08:  MOVWF  xAF
07A0A:  CLRF   xB6
07A0C:  MOVLW  80
07A0E:  MOVWF  xB5
07A10:  MOVLW  54
07A12:  MOVWF  xB4
07A14:  MOVLW  8B
07A16:  MOVWF  xB3
07A18:  CLRF   xCA
07A1A:  CLRF   xC9
07A1C:  CLRF   xC8
07A1E:  CLRF   xC7
07A20:  CLRF   xCE
07A22:  CLRF   xCD
07A24:  CLRF   xCC
07A26:  CLRF   xCB
07A28:  CLRF   xD2
07A2A:  CLRF   xD1
07A2C:  CLRF   xD0
07A2E:  CLRF   xCF
07A30:  CLRF   xD6
07A32:  CLRF   xD5
07A34:  CLRF   xD4
07A36:  CLRF   xD3
07A38:  CLRF   xD7
07A3A:  CLRF   xD8
07A3C:  CLRF   xD9
07A3E:  CLRF   xDA
07A40:  MOVLW  14
07A42:  MOVWF  xDB
07A44:  CLRF   xDC
07A46:  CLRF   xDD
07A48:  CLRF   xDE
07A4A:  CLRF   xDF
07A4C:  CLRF   xE0
07A4E:  CLRF   xE1
07A50:  CLRF   xE2
07A52:  CLRF   xE3
07A54:  CLRF   xE4
07A56:  CLRF   xE8
07A58:  CLRF   xE7
07A5A:  CLRF   xE6
07A5C:  CLRF   xE5
07A5E:  CLRF   xF0
07A60:  CLRF   xEF
07A62:  MOVLW  20
07A64:  MOVWF  xEE
07A66:  MOVLW  82
07A68:  MOVWF  xED
07A6A:  CLRF   xF4
07A6C:  CLRF   xF3
07A6E:  CLRF   xF2
07A70:  CLRF   xF1
07A72:  CLRF   xF8
07A74:  CLRF   xF7
07A76:  CLRF   xF6
07A78:  CLRF   xF5
07A7A:  CLRF   xFC
07A7C:  CLRF   xFB
07A7E:  CLRF   xFA
07A80:  CLRF   xF9
07A82:  MOVLB  3
07A84:  CLRF   x00
07A86:  MOVLB  2
07A88:  CLRF   xFF
07A8A:  CLRF   xFE
07A8C:  CLRF   xFD
07A8E:  MOVLB  3
07A90:  CLRF   x04
07A92:  CLRF   x03
07A94:  CLRF   x02
07A96:  CLRF   x01
07A98:  CLRF   x08
07A9A:  CLRF   x07
07A9C:  MOVLW  48
07A9E:  MOVWF  x06
07AA0:  MOVLW  83
07AA2:  MOVWF  x05
07AA4:  CLRF   x0C
07AA6:  CLRF   x0B
07AA8:  MOVLW  20
07AAA:  MOVWF  x0A
07AAC:  MOVLW  83
07AAE:  MOVWF  x09
07AB0:  MOVLW  9A
07AB2:  MOVWF  x10
07AB4:  MOVLW  99
07AB6:  MOVWF  x0F
07AB8:  MOVLW  19
07ABA:  MOVWF  x0E
07ABC:  MOVLW  7F
07ABE:  MOVWF  x0D
07AC0:  CLRF   x14
07AC2:  CLRF   x13
07AC4:  CLRF   x12
07AC6:  CLRF   x11
07AC8:  CLRF   x18
07ACA:  CLRF   x17
07ACC:  CLRF   x16
07ACE:  CLRF   x15
07AD0:  CLRF   x1C
07AD2:  CLRF   x1B
07AD4:  CLRF   x1A
07AD6:  CLRF   x19
07AD8:  CLRF   x20
07ADA:  CLRF   x1F
07ADC:  CLRF   x1E
07ADE:  CLRF   x1D
07AE0:  CLRF   x24
07AE2:  CLRF   x23
07AE4:  CLRF   x22
07AE6:  CLRF   x21
07AE8:  CLRF   x28
07AEA:  CLRF   x27
07AEC:  CLRF   x26
07AEE:  CLRF   x25
07AF0:  MOVLW  4A
07AF2:  MOVWF  x2C
07AF4:  MOVLW  88
07AF6:  MOVWF  x2B
07AF8:  MOVLW  28
07AFA:  MOVWF  x2A
07AFC:  MOVLW  75
07AFE:  MOVWF  x29
07B00:  MOVLW  E0
07B02:  MOVWF  x30
07B04:  MOVLW  2D
07B06:  MOVWF  x2F
07B08:  MOVLW  10
07B0A:  MOVWF  x2E
07B0C:  MOVLW  75
07B0E:  MOVWF  x2D
07B10:  MOVLW  FF
07B12:  MOVWF  x34
07B14:  MOVLW  21
07B16:  MOVWF  x33
07B18:  MOVLW  15
07B1A:  MOVWF  x32
07B1C:  MOVLW  80
07B1E:  MOVWF  x31
07B20:  MOVLW  82
07B22:  MOVWF  x38
07B24:  MOVLW  12
07B26:  MOVWF  x37
07B28:  MOVLW  F4
07B2A:  MOVWF  x36
07B2C:  MOVLW  86
07B2E:  MOVWF  x35
07B30:  CLRF   x39
07B32:  CLRF   x3A
07B34:  CLRF   x3B
07B36:  CLRF   x3C
07B38:  CLRF   x3D
07B3A:  MOVLW  B5
07B3C:  MOVWF  x41
07B3E:  MOVLW  EB
07B40:  MOVWF  x40
07B42:  MOVLW  1B
07B44:  MOVWF  x3F
07B46:  MOVLW  6B
07B48:  MOVWF  x3E
07B4A:  MOVLW  D0
07B4C:  MOVWF  x45
07B4E:  MOVLW  9B
07B50:  MOVWF  x44
07B52:  MOVLW  8A
07B54:  MOVWF  x43
07B56:  MOVLW  75
07B58:  MOVWF  x42
07B5A:  MOVLW  1A
07B5C:  MOVWF  x49
07B5E:  MOVLW  DD
07B60:  MOVWF  x48
07B62:  MOVLW  61
07B64:  MOVWF  x47
07B66:  MOVLW  7D
07B68:  MOVWF  x46
07B6A:  MOVLW  04
07B6C:  MOVWF  x4D
07B6E:  MOVLW  16
07B70:  MOVWF  x4C
07B72:  MOVLW  02
07B74:  MOVWF  x4B
07B76:  MOVLW  85
07B78:  MOVWF  x4A
07B7A:  CLRF   x51
07B7C:  CLRF   x50
07B7E:  CLRF   x4F
07B80:  CLRF   x4E
07B82:  MOVLB  0
07B84:  BCF    xA4.7
07B86:  MOVLB  3
07B88:  BCF    x52.0
07B8A:  BCF    x52.1
07B8C:  BCF    x52.2
07B8E:  BCF    x52.3
07B90:  BCF    x52.4
07B92:  BCF    x52.5
07B94:  CLRF   x53
07B96:  CLRF   x54
07B98:  CLRF   x55
07B9A:  MOVLW  01
07B9C:  MOVWF  x56
07B9E:  MOVLW  02
07BA0:  MOVWF  x57
07BA2:  CLRF   x58
07BA4:  MOVLW  01
07BA6:  MOVWF  x59
07BA8:  CLRF   x5A
07BAA:  CLRF   x5B
07BAC:  CLRF   x5C
07BAE:  CLRF   x5D
07BB0:  CLRF   x5E
07BB2:  MOVLW  F0
07BB4:  MOVWF  x5F
07BB6:  CLRF   x60
07BB8:  CLRF   x61
07BBA:  CLRF   x62
07BBC:  CLRF   x63
07BBE:  MOVLW  01
07BC0:  MOVWF  x64
07BC2:  MOVWF  x65
07BC4:  CLRF   x66
07BC6:  CLRF   x67
07BC8:  CLRF   x68
07BCA:  CLRF   x6A
07BCC:  CLRF   x69
07BCE:  CLRF   x6C
07BD0:  CLRF   x6B
07BD2:  CLRF   x6E
07BD4:  CLRF   x6D
07BD6:  CLRF   x70
07BD8:  CLRF   x6F
07BDA:  CLRF   x72
07BDC:  CLRF   x71
07BDE:  CLRF   x74
07BE0:  CLRF   x73
07BE2:  CLRF   x76
07BE4:  CLRF   x75
07BE6:  CLRF   x78
07BE8:  CLRF   x77
07BEA:  CLRF   x7A
07BEC:  CLRF   x79
07BEE:  CLRF   x7C
07BF0:  CLRF   x7B
07BF2:  CLRF   x7E
07BF4:  CLRF   x7D
07BF6:  CLRF   x80
07BF8:  CLRF   x7F
07BFA:  CLRF   x82
07BFC:  CLRF   x81
07BFE:  CLRF   x8B
07C00:  CLRF   x8C
07C02:  CLRF   x8D
07C04:  CLRF   x8E
07C06:  CLRF   x8F
07C08:  CLRF   x90
07C0A:  CLRF   x91
07C0C:  CLRF   x93
07C0E:  CLRF   x92
07C10:  CLRF   x95
07C12:  CLRF   x94
07C14:  CLRF   x97
07C16:  CLRF   x96
07C18:  CLRF   x99
07C1A:  CLRF   x98
07C1C:  CLRF   x9B
07C1E:  CLRF   x9A
07C20:  CLRF   x9D
07C22:  CLRF   x9C
07C24:  CLRF   x9F
07C26:  CLRF   x9E
07C28:  CLRF   xA1
07C2A:  CLRF   xA0
07C2C:  CLRF   xA3
07C2E:  CLRF   xA2
07C30:  CLRF   xA5
07C32:  CLRF   xA4
07C34:  CLRF   xA7
07C36:  CLRF   xA6
07C38:  MOVLW  12
07C3A:  MOVWF  xA8
07C3C:  MOVLW  09
07C3E:  MOVWF  xA9
07C40:  MOVLW  0D
07C42:  MOVWF  xAA
07C44:  CLRF   xAB
07C46:  CLRF   xAC
07C48:  CLRF   xAD
07C4A:  CLRF   xAE
07C4C:  CLRF   xAF
07C4E:  CLRF   xB0
07C50:  CLRF   xB1
07C52:  CLRF   xB2
07C54:  CLRF   xB3
07C56:  CLRF   xB4
07C58:  CLRF   xB5
07C5A:  CLRF   xB6
07C5C:  CLRF   xB7
07C5E:  MOVLW  48
07C60:  MOVWF  xB8
07C62:  CLRF   xB9
07C64:  CLRF   xBA
07C66:  CLRF   xBB
07C68:  CLRF   xBC
07C6A:  CLRF   xCF
07C6C:  CLRF   xD0
07C6E:  CLRF   xD1
07C70:  CLRF   xD2
07C72:  CLRF   xD3
07C74:  MOVF   FC1,W
07C76:  ANDLW  C0
07C78:  IORLW  0F
07C7A:  MOVWF  FC1
07C7C:  MOVLW  07
07C7E:  MOVWF  FB4
07C80:  CLRF   2A
07C82:  CLRF   2B
07C84:  MOVLB  0
07C86:  CLRF   x87
07C88:  MOVLW  03
07C8A:  MOVWF  x88
07C8C:  MOVWF  x89
07C8E:  MOVLW  06
07C90:  MOVWF  x8A
07C92:  MOVLW  01
07C94:  MOVWF  x8B
07C96:  MOVLW  04
07C98:  MOVWF  x8C
07C9A:  MOVLW  06
07C9C:  MOVWF  x8D
07C9E:  MOVLW  02
07CA0:  MOVWF  x8E
07CA2:  MOVLW  05
07CA4:  MOVWF  x8F
07CA6:  CLRF   x90
07CA8:  MOVLW  03
07CAA:  MOVWF  x91
07CAC:  MOVLW  05
07CAE:  MOVWF  x92
07CB0:  CLRF   x93
07CB2:  MOVLW  03
07CB4:  MOVWF  x94
07CB6:  MOVLW  04
07CB8:  MOVWF  x95
07CBA:  CLRF   x96
07CBC:  MOVLW  02
07CBE:  MOVWF  x97
07CC0:  MOVLW  05
07CC2:  MOVWF  x98
07CC4:  CLRF   x99
07CC6:  MOVLW  03
07CC8:  MOVWF  x9A
07CCA:  MOVLW  06
07CCC:  MOVWF  x9B
07CCE:  MOVLW  01
07CD0:  MOVWF  x9C
07CD2:  MOVLW  04
07CD4:  MOVWF  x9D
07CD6:  MOVLW  06
07CD8:  MOVWF  x9E
07CDA:  CLRF   xB1
07CDC:  CLRF   xB2
07CDE:  CLRF   xB3
07CE0:  CLRF   xB4
07CE2:  CLRF   xB5
07CE4:  CLRF   xB6
07CE6:  CLRF   xB7
07CE8:  CLRF   xB8
07CEA:  CLRF   xB9
07CEC:  CLRF   xBA
07CEE:  CLRF   xBB
07CF0:  CLRF   xBC
07CF2:  CLRF   xBD
07CF4:  CLRF   xBE
07CF6:  CLRF   xBF
07CF8:  CLRF   xC0
07CFA:  CLRF   xC1
07CFC:  CLRF   xC2
07CFE:  CLRF   xC3
07D00:  CLRF   xC4
07D02:  CLRF   xC5
07D04:  CLRF   xC6
07D06:  CLRF   xC7
07D08:  CLRF   xC8
07D0A:  CLRF   xC9
07D0C:  CLRF   xCA
07D0E:  CLRF   xCB
07D10:  CLRF   xCC
07D12:  CLRF   xCD
07D14:  CLRF   xCE
07D16:  CLRF   xCF
07D18:  CLRF   xD0
07D1A:  CLRF   xD1
07D1C:  CLRF   xD2
07D1E:  CLRF   xD3
07D20:  CLRF   xD4
07D22:  CLRF   xD5
07D24:  CLRF   xD6
07D26:  CLRF   xD7
07D28:  CLRF   xD8
07D2A:  CLRF   xD9
07D2C:  CLRF   xDA
07D2E:  CLRF   xDB
07D30:  CLRF   xDC
07D32:  CLRF   xDD
07D34:  CLRF   xDE
07D36:  CLRF   xDF
07D38:  CLRF   xE0
07D3A:  CLRF   xE1
07D3C:  CLRF   xE2
07D3E:  CLRF   xE3
07D40:  CLRF   xE4
07D42:  CLRF   xE5
07D44:  CLRF   xE6
07D46:  CLRF   xE7
07D48:  CLRF   xE8
07D4A:  CLRF   xE9
07D4C:  CLRF   xEA
07D4E:  CLRF   xEB
07D50:  CLRF   xEC
07D52:  CLRF   xED
07D54:  CLRF   xEE
07D56:  CLRF   xEF
07D58:  CLRF   xF0
07D5A:  CLRF   xF1
07D5C:  CLRF   xF2
07D5E:  CLRF   xF3
07D60:  CLRF   xF4
07D62:  CLRF   xF5
07D64:  CLRF   xF6
07D66:  CLRF   xF7
07D68:  CLRF   xF8
07D6A:  CLRF   xF9
07D6C:  CLRF   xFA
07D6E:  CLRF   xFB
07D70:  CLRF   xFC
07D72:  CLRF   xFD
07D74:  CLRF   xFE
07D76:  CLRF   xFF
07D78:  MOVLB  1
07D7A:  CLRF   x00
07D7C:  CLRF   x01
07D7E:  CLRF   x02
07D80:  CLRF   x03
07D82:  CLRF   x04
07D84:  CLRF   x05
07D86:  CLRF   x06
07D88:  CLRF   x07
07D8A:  CLRF   x08
07D8C:  CLRF   x09
07D8E:  CLRF   x0A
07D90:  CLRF   x0B
07D92:  CLRF   x0C
07D94:  CLRF   x0D
07D96:  CLRF   x0E
07D98:  CLRF   x0F
07D9A:  CLRF   x10
07D9C:  CLRF   x11
07D9E:  CLRF   x12
07DA0:  CLRF   x13
07DA2:  CLRF   x14
07DA4:  CLRF   x15
07DA6:  CLRF   x16
07DA8:  CLRF   x17
07DAA:  CLRF   x18
07DAC:  CLRF   x19
07DAE:  CLRF   x1A
07DB0:  CLRF   x1B
07DB2:  CLRF   x1C
07DB4:  CLRF   x1D
07DB6:  CLRF   x1E
07DB8:  CLRF   x1F
07DBA:  CLRF   x20
07DBC:  CLRF   x21
07DBE:  CLRF   x22
07DC0:  CLRF   x23
07DC2:  CLRF   x24
07DC4:  CLRF   x25
07DC6:  CLRF   x26
07DC8:  CLRF   x27
07DCA:  CLRF   x28
07DCC:  CLRF   x29
07DCE:  CLRF   x2A
07DD0:  CLRF   x2B
07DD2:  CLRF   x2C
07DD4:  CLRF   x2D
07DD6:  CLRF   x2E
07DD8:  CLRF   x2F
07DDA:  CLRF   x30
07DDC:  CLRF   x31
07DDE:  CLRF   x32
07DE0:  CLRF   x33
07DE2:  CLRF   x34
07DE4:  CLRF   x35
07DE6:  CLRF   x36
07DE8:  CLRF   x37
07DEA:  CLRF   x38
07DEC:  CLRF   x39
07DEE:  CLRF   x3A
07DF0:  CLRF   x3B
07DF2:  CLRF   x3C
07DF4:  CLRF   x3D
07DF6:  CLRF   x3E
07DF8:  CLRF   x3F
07DFA:  CLRF   x40
07DFC:  CLRF   x41
07DFE:  CLRF   x42
07E00:  CLRF   x43
07E02:  CLRF   x44
07E04:  CLRF   x45
07E06:  CLRF   x46
07E08:  CLRF   x47
07E0A:  CLRF   x48
07E0C:  CLRF   x49
07E0E:  CLRF   x4A
07E10:  CLRF   x4B
07E12:  CLRF   x4C
07E14:  CLRF   x4D
07E16:  CLRF   x4E
07E18:  CLRF   x4F
07E1A:  CLRF   x50
07E1C:  CLRF   x51
07E1E:  CLRF   x52
07E20:  CLRF   x53
07E22:  CLRF   x54
07E24:  CLRF   x55
07E26:  CLRF   x56
07E28:  CLRF   x57
07E2A:  CLRF   x58
07E2C:  CLRF   x59
07E2E:  CLRF   x5A
07E30:  CLRF   x5B
07E32:  CLRF   x5C
07E34:  CLRF   x5D
07E36:  CLRF   x5E
07E38:  CLRF   x5F
07E3A:  CLRF   x60
07E3C:  CLRF   x61
07E3E:  CLRF   x62
07E40:  CLRF   x63
07E42:  CLRF   x64
07E44:  CLRF   x65
07E46:  CLRF   x66
07E48:  CLRF   x67
07E4A:  CLRF   x68
07E4C:  CLRF   x69
07E4E:  CLRF   x6A
07E50:  CLRF   x6B
07E52:  CLRF   x6C
07E54:  CLRF   x6D
07E56:  CLRF   x6E
07E58:  CLRF   x6F
07E5A:  CLRF   x70
07E5C:  CLRF   x71
07E5E:  CLRF   x72
07E60:  CLRF   x73
07E62:  CLRF   x74
07E64:  CLRF   x75
07E66:  CLRF   x76
07E68:  CLRF   x77
07E6A:  CLRF   x78
07E6C:  CLRF   x79
07E6E:  CLRF   x7A
07E70:  CLRF   x7B
07E72:  CLRF   x7C
07E74:  CLRF   x7D
07E76:  CLRF   x7E
07E78:  CLRF   x7F
07E7A:  CLRF   x80
07E7C:  CLRF   x81
07E7E:  CLRF   x82
07E80:  CLRF   x83
07E82:  CLRF   x84
07E84:  CLRF   x85
07E86:  CLRF   x86
07E88:  CLRF   x87
07E8A:  CLRF   x88
07E8C:  CLRF   x89
07E8E:  CLRF   x8A
07E90:  CLRF   x8B
07E92:  CLRF   x8C
07E94:  CLRF   x8D
07E96:  CLRF   x8E
07E98:  CLRF   x8F
07E9A:  CLRF   x90
07E9C:  CLRF   x91
07E9E:  CLRF   x92
07EA0:  CLRF   x93
07EA2:  CLRF   x94
07EA4:  CLRF   x95
07EA6:  CLRF   x96
07EA8:  CLRF   x97
07EAA:  CLRF   x98
07EAC:  CLRF   x99
07EAE:  CLRF   x9A
07EB0:  CLRF   x9B
07EB2:  CLRF   x9C
07EB4:  CLRF   x9D
07EB6:  CLRF   x9E
07EB8:  CLRF   x9F
07EBA:  CLRF   xA0
07EBC:  CLRF   xA1
07EBE:  CLRF   xA2
07EC0:  CLRF   xA3
07EC2:  CLRF   xA4
07EC4:  CLRF   xA5
07EC6:  CLRF   xA6
07EC8:  CLRF   xA7
07ECA:  CLRF   xA8
07ECC:  CLRF   xA9
07ECE:  CLRF   xAA
07ED0:  CLRF   xAB
07ED2:  CLRF   xAC
07ED4:  CLRF   xAD
07ED6:  CLRF   xAE
07ED8:  CLRF   xAF
07EDA:  CLRF   xB0
07EDC:  CLRF   xB1
07EDE:  CLRF   xB2
07EE0:  CLRF   xB3
07EE2:  CLRF   xB4
07EE4:  CLRF   xB5
07EE6:  CLRF   xB6
07EE8:  CLRF   xB7
07EEA:  CLRF   xB8
07EEC:  CLRF   xB9
07EEE:  CLRF   xBA
07EF0:  CLRF   xBB
07EF2:  CLRF   xBC
07EF4:  CLRF   xBD
07EF6:  CLRF   xBE
07EF8:  CLRF   xBF
07EFA:  CLRF   xC0
07EFC:  CLRF   xC1
07EFE:  CLRF   xC2
07F00:  CLRF   xC3
07F02:  CLRF   xC4
07F04:  CLRF   xC5
07F06:  CLRF   xC6
07F08:  CLRF   xC7
07F0A:  CLRF   xC8
07F0C:  CLRF   xC9
07F0E:  CLRF   xCA
07F10:  CLRF   xCB
07F12:  CLRF   xCC
07F14:  CLRF   xCD
07F16:  CLRF   xCE
07F18:  CLRF   xCF
07F1A:  CLRF   xD0
07F1C:  CLRF   xD1
07F1E:  CLRF   xD2
07F20:  CLRF   xD3
07F22:  CLRF   xD4
07F24:  CLRF   xD5
07F26:  CLRF   xD6
07F28:  CLRF   xD7
07F2A:  CLRF   xD8
07F2C:  CLRF   xD9
07F2E:  CLRF   xDA
07F30:  CLRF   xDB
07F32:  CLRF   xDC
07F34:  CLRF   xDD
07F36:  CLRF   xDE
07F38:  CLRF   xDF
07F3A:  CLRF   xE0
07F3C:  CLRF   xE1
07F3E:  CLRF   xE2
07F40:  CLRF   xE3
07F42:  CLRF   xE4
07F44:  CLRF   xE5
07F46:  CLRF   xE6
07F48:  CLRF   xE7
07F4A:  CLRF   xE8
07F4C:  CLRF   xE9
07F4E:  CLRF   xEA
07F50:  CLRF   xEB
07F52:  CLRF   xEC
07F54:  CLRF   xED
07F56:  CLRF   xEE
07F58:  CLRF   xEF
07F5A:  CLRF   xF0
07F5C:  CLRF   xF1
07F5E:  CLRF   xF2
07F60:  CLRF   xF3
07F62:  CLRF   xF4
07F64:  CLRF   xF5
07F66:  CLRF   xF6
07F68:  CLRF   xF7
07F6A:  CLRF   xF8
07F6C:  CLRF   xF9
07F6E:  CLRF   xFA
07F70:  CLRF   xFB
07F72:  CLRF   xFC
07F74:  CLRF   xFD
07F76:  CLRF   xFE
07F78:  CLRF   xFF
07F7A:  MOVLB  2
07F7C:  CLRF   x00
07F7E:  CLRF   x01
07F80:  CLRF   x02
07F82:  CLRF   x03
07F84:  CLRF   x04
07F86:  CLRF   x05
07F88:  CLRF   x06
07F8A:  CLRF   x07
07F8C:  CLRF   x08
07F8E:  CLRF   x09
07F90:  CLRF   x0A
07F92:  CLRF   x0B
07F94:  CLRF   x0C
07F96:  CLRF   x0D
07F98:  CLRF   x0E
07F9A:  CLRF   x0F
07F9C:  CLRF   x10
07F9E:  CLRF   x11
07FA0:  CLRF   x12
07FA2:  CLRF   x13
07FA4:  CLRF   x14
07FA6:  CLRF   x15
07FA8:  CLRF   x16
07FAA:  CLRF   x17
07FAC:  CLRF   x18
07FAE:  CLRF   x19
07FB0:  CLRF   x1A
07FB2:  CLRF   x1B
07FB4:  CLRF   x1C
07FB6:  CLRF   x1D
07FB8:  CLRF   x1E
07FBA:  CLRF   x1F
07FBC:  CLRF   x20
07FBE:  CLRF   x21
07FC0:  CLRF   x22
07FC2:  CLRF   x23
07FC4:  CLRF   x24
07FC6:  CLRF   x25
07FC8:  CLRF   x26
07FCA:  CLRF   x27
07FCC:  CLRF   x28
07FCE:  CLRF   x29
07FD0:  CLRF   x2A
07FD2:  CLRF   x2B
07FD4:  CLRF   x2C
07FD6:  CLRF   x2D
07FD8:  CLRF   x2E
07FDA:  CLRF   x2F
07FDC:  CLRF   x30
07FDE:  CLRF   x31
07FE0:  CLRF   x32
07FE2:  CLRF   x33
07FE4:  CLRF   x34
07FE6:  CLRF   x35
07FE8:  CLRF   x36
07FEA:  CLRF   x37
07FEC:  CLRF   x38
07FEE:  CLRF   x39
07FF0:  CLRF   x3A
07FF2:  CLRF   x3B
07FF4:  CLRF   x3C
07FF6:  CLRF   x3D
07FF8:  CLRF   x3E
07FFA:  CLRF   x3F
07FFC:  CLRF   x40
07FFE:  CLRF   x41
08000:  CLRF   x42
08002:  CLRF   x43
08004:  CLRF   x44
08006:  CLRF   x45
08008:  CLRF   x46
0800A:  CLRF   x47
0800C:  CLRF   x48
0800E:  CLRF   x49
08010:  CLRF   x4A
08012:  CLRF   x4B
08014:  CLRF   x4C
08016:  CLRF   x4D
08018:  CLRF   x4E
0801A:  CLRF   x4F
0801C:  CLRF   x50
0801E:  CLRF   x51
08020:  CLRF   x52
08022:  CLRF   x53
08024:  CLRF   x54
08026:  CLRF   x55
08028:  CLRF   x56
0802A:  CLRF   x57
0802C:  CLRF   x58
0802E:  CLRF   x59
08030:  CLRF   x5A
08032:  CLRF   x5B
08034:  CLRF   x5C
08036:  CLRF   x5D
08038:  CLRF   x5E
0803A:  CLRF   x5F
0803C:  CLRF   x60
0803E:  CLRF   x61
08040:  CLRF   x62
08042:  CLRF   x63
08044:  CLRF   x64
08046:  CLRF   x65
08048:  CLRF   x66
0804A:  CLRF   x67
0804C:  CLRF   x68
0804E:  CLRF   x69
08050:  CLRF   x6A
08052:  CLRF   x6B
08054:  CLRF   x6C
08056:  CLRF   x6D
08058:  CLRF   x6E
0805A:  CLRF   x6F
0805C:  CLRF   x70
0805E:  CLRF   x71
08060:  CLRF   x72
08062:  CLRF   x73
08064:  CLRF   x74
08066:  CLRF   x75
08068:  CLRF   x76
0806A:  CLRF   x77
0806C:  CLRF   x78
0806E:  CLRF   x79
08070:  CLRF   x7A
08072:  CLRF   x7B
08074:  CLRF   x7C
08076:  CLRF   x7D
08078:  CLRF   x7E
0807A:  CLRF   x7F
0807C:  CLRF   x80
0807E:  CLRF   x81
08080:  CLRF   x82
08082:  CLRF   x83
08084:  CLRF   x84
08086:  CLRF   x85
08088:  CLRF   x86
0808A:  CLRF   x87
0808C:  CLRF   x88
0808E:  CLRF   x89
08090:  CLRF   x8A
08092:  CLRF   x8B
08094:  CLRF   x8C
08096:  CLRF   x8D
08098:  CLRF   x8E
0809A:  CLRF   x8F
0809C:  CLRF   x90
0809E:  CLRF   x91
080A0:  CLRF   x92
080A2:  CLRF   x93
080A4:  CLRF   x94
080A6:  CLRF   x95
080A8:  CLRF   x96
080AA:  CLRF   x97
080AC:  CLRF   x98
080AE:  CLRF   x99
080B0:  CLRF   x9A
080B2:  CLRF   x9B
080B4:  CLRF   x9C
080B6:  CLRF   x9D
080B8:  CLRF   x9E
080BA:  CLRF   x9F
080BC:  CLRF   xA0
080BE:  CLRF   xA1
080C0:  CLRF   xA2
080C2:  CLRF   xB7
080C4:  CLRF   xB8
080C6:  CLRF   xB9
080C8:  CLRF   xBA
080CA:  CLRF   xBB
080CC:  CLRF   xBC
080CE:  CLRF   xBD
080D0:  CLRF   xBE
080D2:  CLRF   xBF
080D4:  CLRF   xC0
080D6:  CLRF   xC1
080D8:  CLRF   xC2
080DA:  CLRF   xC3
080DC:  CLRF   xC4
080DE:  CLRF   xC5
080E0:  CLRF   xC6
080E2:  MOVLB  3
080E4:  CLRF   x83
080E6:  CLRF   x84
080E8:  CLRF   x85
080EA:  CLRF   x86
080EC:  CLRF   x87
080EE:  CLRF   x88
080F0:  CLRF   x89
080F2:  CLRF   x8A
080F4:  MOVLW  19
080F6:  MOVWF  xBD
080F8:  MOVLW  10
080FA:  MOVWF  xBE
080FC:  MOVLW  16
080FE:  MOVWF  xBF
08100:  MOVLW  18
08102:  MOVWF  xC0
08104:  MOVLW  17
08106:  MOVWF  xC1
08108:  MOVLW  1C
0810A:  MOVWF  xC2
0810C:  MOVLW  14
0810E:  MOVWF  xC3
08110:  MOVLW  2E
08112:  MOVWF  xC4
08114:  MOVLW  45
08116:  MOVWF  xC5
08118:  MOVLW  22
0811A:  MOVWF  xC6
0811C:  MOVLW  24
0811E:  MOVWF  xC7
08120:  MOVLW  12
08122:  MOVWF  xC8
08124:  MOVLW  21
08126:  MOVWF  xC9
08128:  MOVLW  20
0812A:  MOVWF  xCA
0812C:  MOVLW  26
0812E:  MOVWF  xCB
08130:  MOVLW  13
08132:  MOVWF  xCC
08134:  MOVLW  11
08136:  MOVWF  xCD
08138:  MOVLW  44
0813A:  MOVWF  xCE
....................     
....................    for (posicion=0;posicion<0x10;posicion++){ 
0813C:  MOVLB  0
0813E:  CLRF   x86
08140:  MOVF   x86,W
08142:  SUBLW  0F
08144:  BNC   815A
....................       SlaveA0Tx[posicion] = 0x00; 
08146:  CLRF   03
08148:  MOVF   x86,W
0814A:  ADDLW  64
0814C:  MOVWF  FE9
0814E:  MOVLW  00
08150:  ADDWFC 03,W
08152:  MOVWF  FEA
08154:  CLRF   FEF
....................    } 
08156:  INCF   x86,F
08158:  BRA    8140
....................    setup_timer_0(RTCC_8_BIT|RTCC_DIV_1); 
0815A:  MOVLW  C8
0815C:  MOVWF  FD5
....................    enable_interrupts(INT_TIMER0); 
0815E:  BSF    FF2.5
....................    setup_timer_1(T1_INTERNAL|T1_DIV_BY_1); 
08160:  MOVLW  85
08162:  MOVWF  FCD
....................    enable_interrupts(INT_TIMER1); 
08164:  BSF    F9D.0
....................    setup_adc_ports(AN0_TO_AN3); 
08166:  MOVF   FC1,W
08168:  ANDLW  C0
0816A:  IORLW  0B
0816C:  MOVWF  FC1
....................    setup_adc(ADC_CLOCK_DIV_32 ); 
0816E:  MOVF   FC0,W
08170:  ANDLW  C0
08172:  IORLW  02
08174:  MOVWF  FC0
08176:  BSF    FC0.7
08178:  BSF    FC2.0
....................    port_b_pullups(true); 
0817A:  BCF    FF1.7
....................    enable_interrupts(int_rda); 
0817C:  BSF    F9D.5
....................    setup_wdt(WDT_ON); 
0817E:  BSF    FD1.0
....................    enable_interrupts(global); 
08180:  MOVLW  C0
08182:  IORWF  FF2,F
....................    LeeEEPROM(); 
08184:  GOTO   1EC2
....................    rtc_init(); 
08188:  GOTO   2FE0
....................    delay_ms(1); 
0818C:  MOVLW  01
0818E:  MOVLB  4
08190:  MOVWF  x62
08192:  MOVLB  0
08194:  CALL   1A6C
....................    LimitaValores(); 
08198:  GOTO   30FA
....................    CalculoImpresion=timpresion*60; 
0819C:  MOVLB  3
0819E:  MOVF   x57,W
081A0:  MULLW  3C
081A2:  MOVFF  FF3,358
....................    printf("page Bienvenida"); 
081A6:  MOVLW  26
081A8:  MOVWF  FF6
081AA:  MOVLW  06
081AC:  MOVWF  FF7
081AE:  MOVLW  00
081B0:  MOVWF  FF8
081B2:  MOVLB  0
081B4:  CALL   3BB2
....................    SendDataDisplay(); 
081B8:  CALL   3BE4
....................    printf("bkcmd=0"); 
081BC:  MOVLW  36
081BE:  MOVWF  FF6
081C0:  MOVLW  06
081C2:  MOVWF  FF7
081C4:  MOVLW  00
081C6:  MOVWF  FF8
081C8:  CALL   3BB2
....................    SendDataDisplay(); 
081CC:  CALL   3BE4
....................    delay_ms(1500); 
081D0:  MOVLW  06
081D2:  MOVLB  4
081D4:  MOVWF  x49
081D6:  MOVLW  FA
081D8:  MOVWF  x62
081DA:  MOVLB  0
081DC:  CALL   1A6C
081E0:  MOVLB  4
081E2:  DECFSZ x49,F
081E4:  BRA    81D6
....................    printf("page Clave"); 
081E6:  MOVLW  3E
081E8:  MOVWF  FF6
081EA:  MOVLW  06
081EC:  MOVWF  FF7
081EE:  MOVLW  00
081F0:  MOVWF  FF8
081F2:  MOVLB  0
081F4:  CALL   3BB2
....................    SendDataDisplay(); 
081F8:  CALL   3BE4
....................    ApagaSalidas(); 
081FC:  CALL   3C1A
....................     
....................    for(i=0;i<MediaMovil;i++){ 
08200:  MOVLB  3
08202:  CLRF   xA3
08204:  CLRF   xA2
08206:  MOVF   xA3,F
08208:  BNZ   8288
0820A:  MOVLB  2
0820C:  MOVF   xDB,W
0820E:  MOVLB  3
08210:  SUBWF  xA2,W
08212:  BC    8288
....................       Temperatura=LeerPT100(MediaMovil); 
08214:  MOVFF  2DB,449
08218:  MOVLB  0
0821A:  CALL   3D86
0821E:  MOVFF  03,328
08222:  MOVFF  02,327
08226:  MOVFF  01,326
0822A:  MOVFF  00,325
....................       PresionCamara=Leer_Sensor_Presion_Camara(5); 
0822E:  MOVLW  05
08230:  MOVLB  4
08232:  MOVWF  x49
08234:  MOVLB  0
08236:  CALL   41D0
0823A:  MOVFF  03,461
0823E:  MOVFF  02,460
08242:  MOVFF  01,45F
08246:  MOVFF  00,45E
0824A:  CALL   43CC
0824E:  MOVFF  02,376
08252:  MOVFF  01,375
....................       PresionPreCamara=Leer_Sensor_Presion_PreCamara(5); 
08256:  MOVLW  05
08258:  MOVLB  4
0825A:  MOVWF  x49
0825C:  MOVLB  0
0825E:  CALL   4408
08262:  MOVFF  03,461
08266:  MOVFF  02,460
0826A:  MOVFF  01,45F
0826E:  MOVFF  00,45E
08272:  CALL   43CC
08276:  MOVFF  02,378
0827A:  MOVFF  01,377
....................    } 
0827E:  MOVLB  3
08280:  INCF   xA2,F
08282:  BTFSC  FD8.2
08284:  INCF   xA3,F
08286:  BRA    8206
....................     
....................    if(UP && DOWN && RIGHT && LEFT)//Si oprime boton de Toma. 
08288:  BSF    F93.0
0828A:  BTFSC  F81.0
0828C:  BRA    8314
0828E:  BSF    F93.1
08290:  BTFSC  F81.1
08292:  BRA    8314
08294:  BSF    F93.2
08296:  BTFSC  F81.2
08298:  BRA    8314
0829A:  BSF    F93.3
0829C:  BTFSC  F81.3
0829E:  BRA    8314
....................    { 
....................       write_eeprom(37,0); 
082A0:  CLRF   FAA
082A2:  MOVLW  25
082A4:  MOVWF  FA9
082A6:  CLRF   FA8
082A8:  BCF    FA6.6
082AA:  BCF    FA6.7
082AC:  BSF    FA6.2
082AE:  MOVF   FF2,W
082B0:  MOVWF  00
082B2:  BCF    FF2.6
082B4:  BCF    FF2.7
082B6:  MOVLB  F
082B8:  MOVLW  55
082BA:  MOVWF  FA7
082BC:  MOVLW  AA
082BE:  MOVWF  FA7
082C0:  BSF    FA6.1
082C2:  BTFSC  FA6.1
082C4:  BRA    82C2
082C6:  BCF    FA6.2
082C8:  MOVF   00,W
082CA:  IORWF  FF2,F
....................       delay_ms(20); 
082CC:  MOVLW  14
082CE:  MOVLB  4
082D0:  MOVWF  x62
082D2:  MOVLB  0
082D4:  CALL   1A6C
....................       write_eeprom(38,0); 
082D8:  CLRF   FAA
082DA:  MOVLW  26
082DC:  MOVWF  FA9
082DE:  CLRF   FA8
082E0:  BCF    FA6.6
082E2:  BCF    FA6.7
082E4:  BSF    FA6.2
082E6:  MOVF   FF2,W
082E8:  MOVWF  00
082EA:  BCF    FF2.6
082EC:  BCF    FF2.7
082EE:  MOVLB  F
082F0:  MOVLW  55
082F2:  MOVWF  FA7
082F4:  MOVLW  AA
082F6:  MOVWF  FA7
082F8:  BSF    FA6.1
082FA:  BTFSC  FA6.1
082FC:  BRA    82FA
082FE:  BCF    FA6.2
08300:  MOVF   00,W
08302:  IORWF  FF2,F
....................       delay_ms(20); 
08304:  MOVLW  14
08306:  MOVLB  4
08308:  MOVWF  x62
0830A:  MOVLB  0
0830C:  CALL   1A6C
....................       reset_cpu(); 
08310:  RESET
08312:  MOVLB  3
....................    } 
....................     
....................    #if defined(PT100Fija) && !defined(Absoluta) 
....................       Atmosferica=0; 
....................    #else 
....................       if(!DOOR){ 
08314:  BSF    F93.6
08316:  BTFSS  F81.6
08318:  BRA    843E
....................          if(abs((float)PresionCamara-(float)Atmosferica)>=3 && PresionCamara<102){//Funcion de Auto Ajuste de Presion Atmosferica 
0831A:  MOVFF  376,45F
0831E:  MOVFF  375,45E
08322:  MOVLB  0
08324:  CALL   1A94
08328:  MOVFF  00,449
0832C:  MOVFF  01,44A
08330:  MOVFF  02,44B
08334:  MOVFF  03,44C
08338:  MOVLB  4
0833A:  CLRF   x5F
0833C:  MOVFF  3B8,45E
08340:  MOVLB  0
08342:  CALL   1A94
08346:  BSF    FD8.1
08348:  MOVFF  44C,461
0834C:  MOVFF  44B,460
08350:  MOVFF  44A,45F
08354:  MOVFF  449,45E
08358:  MOVFF  03,465
0835C:  MOVFF  02,464
08360:  MOVFF  01,463
08364:  MOVFF  00,462
08368:  CALL   1C28
0836C:  MOVFF  00,449
08370:  MOVFF  01,44A
08374:  MOVFF  02,44B
08378:  MOVFF  03,44C
0837C:  MOVFF  00,00
08380:  MOVFF  01,01
08384:  MOVFF  02,02
08388:  MOVFF  03,03
0838C:  BCF    01.7
0838E:  MOVFF  00,449
08392:  MOVFF  01,44A
08396:  MOVFF  02,44B
0839A:  MOVFF  03,44C
0839E:  MOVLB  4
083A0:  CLRF   x50
083A2:  CLRF   x4F
083A4:  MOVLW  40
083A6:  MOVWF  x4E
083A8:  MOVLW  80
083AA:  MOVWF  x4D
083AC:  MOVFF  03,454
083B0:  MOVFF  02,453
083B4:  MOVFF  01,452
083B8:  MOVFF  00,451
083BC:  MOVLB  0
083BE:  CALL   3032
083C2:  BC    83C6
083C4:  BNZ   843C
083C6:  MOVLB  3
083C8:  MOVF   x76,F
083CA:  BTFSC  FD8.2
083CC:  BRA    83D2
083CE:  MOVLB  0
083D0:  BRA    843C
083D2:  MOVF   x75,W
083D4:  SUBLW  65
083D6:  BTFSC  FD8.0
083D8:  BRA    83DE
083DA:  MOVLB  0
083DC:  BRA    843C
....................             Atmosferica=PresionCamara; 
083DE:  MOVFF  375,3B8
....................             write_eeprom(46,Atmosferica); 
083E2:  CLRF   FAA
083E4:  MOVLW  2E
083E6:  MOVWF  FA9
083E8:  MOVFF  3B8,FA8
083EC:  BCF    FA6.6
083EE:  BCF    FA6.7
083F0:  BSF    FA6.2
083F2:  MOVF   FF2,W
083F4:  MOVWF  00
083F6:  BCF    FF2.6
083F8:  BCF    FF2.7
083FA:  MOVLB  F
083FC:  MOVLW  55
083FE:  MOVWF  FA7
08400:  MOVLW  AA
08402:  MOVWF  FA7
08404:  BSF    FA6.1
08406:  BTFSC  FA6.1
08408:  BRA    8406
0840A:  BCF    FA6.2
0840C:  MOVF   00,W
0840E:  IORWF  FF2,F
....................             delay_ms(10); 
08410:  MOVLW  0A
08412:  MOVLB  4
08414:  MOVWF  x62
08416:  MOVLB  0
08418:  CALL   1A6C
....................             Buzzer_on; 
0841C:  BSF    F8C.0
0841E:  BCF    F95.0
....................             delay_ms(1000); 
08420:  MOVLW  04
08422:  MOVLB  4
08424:  MOVWF  x49
08426:  MOVLW  FA
08428:  MOVWF  x62
0842A:  MOVLB  0
0842C:  CALL   1A6C
08430:  MOVLB  4
08432:  DECFSZ x49,F
08434:  BRA    8426
....................             Buzzer_off; 
08436:  BCF    F8C.0
08438:  BCF    F95.0
0843A:  MOVLB  0
0843C:  MOVLB  3
....................          } 
....................       } 
....................    #endif 
....................     
....................    while(true) 
....................    { 
....................       LeeDisplay(); 
0843E:  MOVLB  0
08440:  GOTO   4604
....................       Envio_Esclavos(); 
08444:  CALL   495A
....................       delay_ms(1); 
08448:  MOVLW  01
0844A:  MOVLB  4
0844C:  MOVWF  x62
0844E:  MOVLB  0
08450:  CALL   1A6C
....................       //Lectura_Esclavos(); 
....................       restart_wdt(); 
08454:  CLRWDT
....................        
....................       if(!Esterilizando || Desfogando){ 
08456:  BTFSS  xA0.2
08458:  BRA    845E
0845A:  BTFSS  xA0.5
0845C:  BRA    8468
....................          CalculoImpresion=180; 
0845E:  MOVLW  B4
08460:  MOVLB  3
08462:  MOVWF  x58
....................       }else{ 
08464:  BRA    846E
08466:  MOVLB  0
....................          CalculoImpresion=60; 
08468:  MOVLW  3C
0846A:  MOVLB  3
0846C:  MOVWF  x58
....................       } 
....................        
....................       // Monitoreo Nivel de Agua//-------------------------------------- 
....................             if(!LOW){//Si no sensa agua en el nivel alto y no se ha llenado el calderin          
0846E:  BSF    F94.1
08470:  BTFSC  F82.1
08472:  BRA    849C
....................                TiempoSensadoNivel=0; 
08474:  MOVLB  0
08476:  CLRF   xAA
08478:  CLRF   xA9
....................                Controlando=0;    
0847A:  MOVLB  3
0847C:  CLRF   x55
....................                if(tiempoAgua<600){ 
0847E:  MOVF   x99,W
08480:  SUBLW  02
08482:  BNC   8490
08484:  BNZ   848C
08486:  MOVF   x98,W
08488:  SUBLW  57
0848A:  BNC   8490
....................                   CalderinLleno=OFF; 
0848C:  MOVLB  0
0848E:  BCF    xA0.0
....................                } 
....................                SensadoNivel=OFF; 
08490:  MOVLB  0
08492:  BCF    xA0.4
....................                TiempoSensadoNivel=0; 
08494:  CLRF   xAA
08496:  CLRF   xA9
....................                #ifdef ULKA 
....................                   if(!PruebaEstados){ 
....................                      if(PresionCamara<=((int16)Atmosferica+10) && Menu!=20 && HIG && Menu!=255){ 
....................                         enciendeBombaAgua(); 
....................                      } 
....................                      if(!HIG){ 
....................                         apagaBombaAgua(); 
....................                      } 
....................                   } 
....................                #endif 
....................             } else{ 
08498:  BRA    84B0
0849A:  MOVLB  3
....................                SensadoNivel=ON; 
0849C:  MOVLB  0
0849E:  BSF    xA0.4
....................                if(TiempoSensadoNivel>5){ 
084A0:  MOVF   xAA,F
084A2:  BNZ   84AA
084A4:  MOVF   xA9,W
084A6:  SUBLW  05
084A8:  BC    84B0
....................                   SensadoNivel=OFF; 
084AA:  BCF    xA0.4
....................                   CalderinLleno=ON; 
084AC:  BSF    xA0.0
....................                   IniciaLlenado=OFF;                   
084AE:  BCF    x9F.7
....................                   #ifdef ULKA 
....................                      if(!PruebaEstados){ 
....................                         if(Menu!=20){ 
....................                            apagaBombaAgua(); 
....................                         } 
....................                      } 
....................                   #endif 
....................                } 
....................             } 
.................... // Tiempo de Grafica//-------------------------------------- 
....................       if(tiempos2>=6000){ 
084B0:  MOVLB  3
084B2:  MOVF   x6C,W
084B4:  SUBLW  16
084B6:  BC    84C8
084B8:  XORLW  FF
084BA:  BNZ   84C2
084BC:  MOVF   x6B,W
084BE:  SUBLW  6F
084C0:  BC    84C8
....................          Grafica=1; 
084C2:  BSF    x52.1
....................          tiempos2=0; 
084C4:  CLRF   x6C
084C6:  CLRF   x6B
....................       } 
....................  
.................... // Tiempo de Muestreo//-------------------------------------- 
....................       if(tiempos3>=20){ 
084C8:  MOVF   x6E,F
084CA:  BNZ   84D4
084CC:  MOVF   x6D,W
084CE:  SUBLW  13
084D0:  BTFSC  FD8.0
084D2:  BRA    8608
....................          Temperatura=LeerPt100(MediaMovil); 
084D4:  MOVFF  2DB,449
084D8:  MOVLB  0
084DA:  CALL   3D86
084DE:  MOVFF  03,328
084E2:  MOVFF  02,327
084E6:  MOVFF  01,326
084EA:  MOVFF  00,325
....................          PresionCamara=Leer_Sensor_Presion_Camara(10); 
084EE:  MOVLW  0A
084F0:  MOVLB  4
084F2:  MOVWF  x49
084F4:  MOVLB  0
084F6:  CALL   41D0
084FA:  MOVFF  03,461
084FE:  MOVFF  02,460
08502:  MOVFF  01,45F
08506:  MOVFF  00,45E
0850A:  CALL   43CC
0850E:  MOVFF  02,376
08512:  MOVFF  01,375
....................          PresionPreCamara=Leer_Sensor_Presion_PreCamara(10); 
08516:  MOVLW  0A
08518:  MOVLB  4
0851A:  MOVWF  x49
0851C:  MOVLB  0
0851E:  CALL   4408
08522:  MOVFF  03,461
08526:  MOVFF  02,460
0852A:  MOVFF  01,45F
0852E:  MOVFF  00,45E
08532:  CALL   43CC
08536:  MOVFF  02,378
0853A:  MOVFF  01,377
....................          rtc_get_date(Dia,Mes,Year,dow); 
....................          rtc_get_time(Hora,Minuto,Segundo); 
....................          tiempos3=0; 
*
08602:  MOVLB  3
08604:  CLRF   x6E
08606:  CLRF   x6D
....................       } 
....................        
.................... // Monitoreo Parada Emergencia//--------------------------------------       
....................       if(!STOP && !IniciaCiclo && !PruebaEstados){ 
08608:  BSF    F93.7
0860A:  BTFSS  F81.7
0860C:  BRA    866E
0860E:  MOVLB  0
08610:  BTFSS  xA0.1
08612:  BRA    8618
08614:  MOVLB  3
08616:  BRA    866E
08618:  BTFSS  xA1.4
0861A:  BRA    8620
0861C:  MOVLB  3
0861E:  BRA    866E
....................          if(!disp_Stop){ 
08620:  MOVLB  3
08622:  BTFSC  x52.2
08624:  BRA    8644
....................             disp_Stop=1;Menu=255; 
08626:  BSF    x52.2
08628:  MOVLW  FF
0862A:  MOVWF  x5D
....................             printf("page Emergencia"); 
0862C:  MOVLW  4A
0862E:  MOVWF  FF6
08630:  MOVLW  06
08632:  MOVWF  FF7
08634:  MOVLW  00
08636:  MOVWF  FF8
08638:  MOVLB  0
0863A:  CALL   3BB2
....................             SendDataDisplay(); 
0863E:  CALL   3BE4
08642:  MOVLB  3
....................          } 
....................          Controlando=0; 
08644:  CLRF   x55
....................          Desfogue_on; 
08646:  BSF    F8C.4
08648:  BCF    F95.4
....................          SSR_off; 
0864A:  BSF    F8B.2
0864C:  BCF    F94.2
....................          #ifdef Enfriador 
....................          Enfr_on; 
0864E:  BSF    F8C.6
08650:  BCF    F95.6
....................          #else 
....................          Bomba_off; 
....................          #endif 
....................          Agua_off; 
08652:  BCF    F8C.5
08654:  BCF    F95.5
....................          DesfogueSuave=OFF; 
08656:  MOVLB  0
08658:  BCF    xA0.6
....................          ActivaAlarma(1); 
0865A:  MOVLW  01
0865C:  MOVLB  4
0865E:  MOVWF  x49
08660:  MOVLB  0
08662:  CALL   4A24
....................          BorraBuffer(); 
08666:  GOTO   4AFA
....................       }else{ 
0866A:  BRA    8674
0866C:  MOVLB  3
....................          if(disp_Stop){ 
0866E:  BTFSS  x52.2
08670:  BRA    8674
....................             reset_cpu(); 
08672:  RESET
....................          } 
....................       }            
....................    //Buzzer_off;    
.................... //_-------------------------------------------------------------------------------------------------------------------------------------------------------- 
....................    if(Menu==240){ //Menu de Bienvenida. 
08674:  MOVLB  3
08676:  MOVF   x5D,W
08678:  SUBLW  F0
0867A:  BNZ   86C4
....................       printf("bkcmd=0"); 
0867C:  MOVLW  5A
0867E:  MOVWF  FF6
08680:  MOVLW  06
08682:  MOVWF  FF7
08684:  MOVLW  00
08686:  MOVWF  FF8
08688:  MOVLB  0
0868A:  CALL   3BB2
....................       SendDataDisplay(); 
0868E:  CALL   3BE4
....................       delay_ms(1500); 
08692:  MOVLW  06
08694:  MOVLB  4
08696:  MOVWF  x49
08698:  MOVLW  FA
0869A:  MOVWF  x62
0869C:  MOVLB  0
0869E:  CALL   1A6C
086A2:  MOVLB  4
086A4:  DECFSZ x49,F
086A6:  BRA    8698
....................       printf("page Clave"); 
086A8:  MOVLW  62
086AA:  MOVWF  FF6
086AC:  MOVLW  06
086AE:  MOVWF  FF7
086B0:  MOVLW  00
086B2:  MOVWF  FF8
086B4:  MOVLB  0
086B6:  CALL   3BB2
....................       SendDataDisplay(); 
086BA:  CALL   3BE4
....................       ApagaSalidas(); 
086BE:  CALL   3C1A
086C2:  MOVLB  3
....................    } 
.................... //_-------------------------------------------------------------------------------------------------------------------------------------------------------- 
....................  
.................... //_-------------------------------------------------------------------------------------------------------------------------------------------------------- 
....................     if(Menu==0){ //Menu de Contrasea de acceso. 
086C4:  MOVF   x5D,F
086C6:  BTFSS  FD8.2
086C8:  GOTO   913E
....................       //ApagaSalidas(); 
....................       entro=OFF; 
086CC:  MOVLB  0
086CE:  BCF    xA4.1
....................       if(Digito==1){ 
086D0:  MOVLB  2
086D2:  DECFSZ xE0,W
086D4:  BRA    8720
....................          printf("t0.txt=\"%u\"",Contrasena[0]); 
086D6:  MOVLW  6E
086D8:  MOVWF  FF6
086DA:  MOVLW  06
086DC:  MOVWF  FF7
086DE:  MOVLW  00
086E0:  MOVWF  FF8
086E2:  MOVLW  08
086E4:  MOVLB  4
086E6:  MOVWF  x4F
086E8:  MOVLB  0
086EA:  CALL   4B26
086EE:  MOVFF  383,44F
086F2:  MOVLW  1B
086F4:  MOVLB  4
086F6:  MOVWF  x50
086F8:  MOVLB  0
086FA:  CALL   4B84
086FE:  MOVLW  22
08700:  BTFSS  F9E.4
08702:  BRA    8700
08704:  MOVWF  FAD
....................          SendDataDisplay(); 
08706:  CALL   3BE4
....................          printf("va0.val=1"); 
0870A:  MOVLW  7A
0870C:  MOVWF  FF6
0870E:  MOVLW  06
08710:  MOVWF  FF7
08712:  MOVLW  00
08714:  MOVWF  FF8
08716:  CALL   3BB2
....................          SendDataDisplay(); 
0871A:  CALL   3BE4
0871E:  MOVLB  2
....................       } 
....................        
....................       if(Digito==2){ 
08720:  MOVF   xE0,W
08722:  SUBLW  02
08724:  BNZ   8780
....................          printf("t0.txt=\"%u%u\"",Contrasena[0],Contrasena[1]); 
08726:  MOVLW  84
08728:  MOVWF  FF6
0872A:  MOVLW  06
0872C:  MOVWF  FF7
0872E:  MOVLW  00
08730:  MOVWF  FF8
08732:  MOVLW  08
08734:  MOVLB  4
08736:  MOVWF  x4F
08738:  MOVLB  0
0873A:  CALL   4B26
0873E:  MOVFF  383,44F
08742:  MOVLW  1B
08744:  MOVLB  4
08746:  MOVWF  x50
08748:  MOVLB  0
0874A:  CALL   4B84
0874E:  MOVFF  384,44F
08752:  MOVLW  1B
08754:  MOVLB  4
08756:  MOVWF  x50
08758:  MOVLB  0
0875A:  CALL   4B84
0875E:  MOVLW  22
08760:  BTFSS  F9E.4
08762:  BRA    8760
08764:  MOVWF  FAD
....................          SendDataDisplay(); 
08766:  CALL   3BE4
....................          printf("va0.val=2"); 
0876A:  MOVLW  92
0876C:  MOVWF  FF6
0876E:  MOVLW  06
08770:  MOVWF  FF7
08772:  MOVLW  00
08774:  MOVWF  FF8
08776:  CALL   3BB2
....................          SendDataDisplay(); 
0877A:  CALL   3BE4
0877E:  MOVLB  2
....................       } 
....................        
....................       if(Digito==3){ 
08780:  MOVF   xE0,W
08782:  SUBLW  03
08784:  BNZ   87F0
....................          printf("t0.txt=\"%u%u%u\"",Contrasena[0],Contrasena[1],Contrasena[2]); 
08786:  MOVLW  9C
08788:  MOVWF  FF6
0878A:  MOVLW  06
0878C:  MOVWF  FF7
0878E:  MOVLW  00
08790:  MOVWF  FF8
08792:  MOVLW  08
08794:  MOVLB  4
08796:  MOVWF  x4F
08798:  MOVLB  0
0879A:  CALL   4B26
0879E:  MOVFF  383,44F
087A2:  MOVLW  1B
087A4:  MOVLB  4
087A6:  MOVWF  x50
087A8:  MOVLB  0
087AA:  CALL   4B84
087AE:  MOVFF  384,44F
087B2:  MOVLW  1B
087B4:  MOVLB  4
087B6:  MOVWF  x50
087B8:  MOVLB  0
087BA:  CALL   4B84
087BE:  MOVFF  385,44F
087C2:  MOVLW  1B
087C4:  MOVLB  4
087C6:  MOVWF  x50
087C8:  MOVLB  0
087CA:  CALL   4B84
087CE:  MOVLW  22
087D0:  BTFSS  F9E.4
087D2:  BRA    87D0
087D4:  MOVWF  FAD
....................          SendDataDisplay(); 
087D6:  CALL   3BE4
....................          printf("va0.val=3"); 
087DA:  MOVLW  AC
087DC:  MOVWF  FF6
087DE:  MOVLW  06
087E0:  MOVWF  FF7
087E2:  MOVLW  00
087E4:  MOVWF  FF8
087E6:  CALL   3BB2
....................          SendDataDisplay(); 
087EA:  CALL   3BE4
087EE:  MOVLB  2
....................       } 
....................        
....................       if(Digito==4){ 
087F0:  MOVF   xE0,W
087F2:  SUBLW  04
087F4:  BNZ   8870
....................          printf("t0.txt=\"%u%u%u%u\"",Contrasena[0],Contrasena[1],Contrasena[2],Contrasena[3]); 
087F6:  MOVLW  B6
087F8:  MOVWF  FF6
087FA:  MOVLW  06
087FC:  MOVWF  FF7
087FE:  MOVLW  00
08800:  MOVWF  FF8
08802:  MOVLW  08
08804:  MOVLB  4
08806:  MOVWF  x4F
08808:  MOVLB  0
0880A:  CALL   4B26
0880E:  MOVFF  383,44F
08812:  MOVLW  1B
08814:  MOVLB  4
08816:  MOVWF  x50
08818:  MOVLB  0
0881A:  CALL   4B84
0881E:  MOVFF  384,44F
08822:  MOVLW  1B
08824:  MOVLB  4
08826:  MOVWF  x50
08828:  MOVLB  0
0882A:  CALL   4B84
0882E:  MOVFF  385,44F
08832:  MOVLW  1B
08834:  MOVLB  4
08836:  MOVWF  x50
08838:  MOVLB  0
0883A:  CALL   4B84
0883E:  MOVFF  386,44F
08842:  MOVLW  1B
08844:  MOVLB  4
08846:  MOVWF  x50
08848:  MOVLB  0
0884A:  CALL   4B84
0884E:  MOVLW  22
08850:  BTFSS  F9E.4
08852:  BRA    8850
08854:  MOVWF  FAD
....................          SendDataDisplay(); 
08856:  CALL   3BE4
....................          printf("va0.val=4"); 
0885A:  MOVLW  C8
0885C:  MOVWF  FF6
0885E:  MOVLW  06
08860:  MOVWF  FF7
08862:  MOVLW  00
08864:  MOVWF  FF8
08866:  CALL   3BB2
....................          SendDataDisplay(); 
0886A:  CALL   3BE4
0886E:  MOVLB  2
....................       } 
....................        
....................       if(UP){ 
08870:  BSF    F93.0
08872:  BTFSC  F81.0
08874:  BRA    88BE
....................          delay_ms(100); 
08876:  MOVLW  64
08878:  MOVLB  4
0887A:  MOVWF  x62
0887C:  MOVLB  0
0887E:  CALL   1A6C
....................          if(UP){ 
08882:  BSF    F93.0
08884:  BTFSC  F81.0
08886:  BRA    88C0
....................          if(Digito==0) 
08888:  MOVLB  2
0888A:  MOVF   xE0,F
0888C:  BNZ   8892
....................             Digito=1; 
0888E:  MOVLW  01
08890:  MOVWF  xE0
....................             if(Contrasena[Digito-1]<9) 
08892:  MOVLW  01
08894:  SUBWF  xE0,W
08896:  CLRF   03
08898:  ADDLW  83
0889A:  MOVWF  FE9
0889C:  MOVLW  03
0889E:  ADDWFC 03,W
088A0:  MOVWF  FEA
088A2:  BTFSC  FEF.7
088A4:  BRA    88AC
088A6:  MOVF   FEF,W
088A8:  SUBLW  08
088AA:  BNC   88BE
....................                Contrasena[Digito-1]++; 
088AC:  MOVLW  01
088AE:  SUBWF  xE0,W
088B0:  CLRF   03
088B2:  ADDLW  83
088B4:  MOVWF  FE9
088B6:  MOVLW  03
088B8:  ADDWFC 03,W
088BA:  MOVWF  FEA
088BC:  INCF   FEF,F
088BE:  MOVLB  0
....................          } 
....................       } 
....................        
....................       if(DOWN){ 
088C0:  BSF    F93.1
088C2:  BTFSC  F81.1
088C4:  BRA    8910
....................          delay_ms(100); 
088C6:  MOVLW  64
088C8:  MOVLB  4
088CA:  MOVWF  x62
088CC:  MOVLB  0
088CE:  CALL   1A6C
....................          if(Digito==0) 
088D2:  MOVLB  2
088D4:  MOVF   xE0,F
088D6:  BNZ   88DC
....................             Digito=1; 
088D8:  MOVLW  01
088DA:  MOVWF  xE0
....................          if(DOWN){ 
088DC:  BSF    F93.1
088DE:  BTFSC  F81.1
088E0:  BRA    890E
....................             if(Contrasena[Digito-1]>0) 
088E2:  MOVLW  01
088E4:  SUBWF  xE0,W
088E6:  CLRF   03
088E8:  ADDLW  83
088EA:  MOVWF  FE9
088EC:  MOVLW  03
088EE:  ADDWFC 03,W
088F0:  MOVWF  FEA
088F2:  BTFSC  FEF.7
088F4:  BRA    890E
088F6:  MOVF   FEF,W
088F8:  SUBLW  00
088FA:  BC    890E
....................                Contrasena[Digito-1]--; 
088FC:  MOVLW  01
088FE:  SUBWF  xE0,W
08900:  CLRF   03
08902:  ADDLW  83
08904:  MOVWF  FE9
08906:  MOVLW  03
08908:  ADDWFC 03,W
0890A:  MOVWF  FEA
0890C:  DECF   FEF,F
0890E:  MOVLB  0
....................          } 
....................       } 
....................        
....................       if(RIGHT){ 
08910:  BSF    F93.2
08912:  BTFSC  F81.2
08914:  BRA    892E
....................          delay_ms(100); 
08916:  MOVLW  64
08918:  MOVLB  4
0891A:  MOVWF  x62
0891C:  MOVLB  0
0891E:  CALL   1A6C
....................          if(RIGHT){ 
08922:  BSF    F93.2
08924:  BTFSC  F81.2
08926:  BRA    892E
....................             Digito++; 
08928:  MOVLB  2
0892A:  INCF   xE0,F
0892C:  MOVLB  0
....................          } 
....................       } 
....................        
....................       if(Digito>4){ 
0892E:  MOVLB  2
08930:  MOVF   xE0,W
08932:  SUBLW  04
08934:  BTFSC  FD8.0
08936:  BRA    8C88
....................       Digito=0; 
08938:  CLRF   xE0
....................       printf("t0.txt=\"\""); 
0893A:  MOVLW  D2
0893C:  MOVWF  FF6
0893E:  MOVLW  06
08940:  MOVWF  FF7
08942:  MOVLW  00
08944:  MOVWF  FF8
08946:  MOVLB  0
08948:  CALL   3BB2
....................       SendDataDisplay(); 
0894C:  CALL   3BE4
....................          if(TipoClave==0){ 
08950:  MOVLB  2
08952:  MOVF   xDE,F
08954:  BTFSS  FD8.2
08956:  BRA    8AA6
....................             if(Contrasena[0]==3&&Contrasena[1]==8&&Contrasena[2]==9&&Contrasena[3]==2){ // Si Ingresa clave para reset general del sistema. 
08958:  MOVLB  3
0895A:  MOVF   x83,W
0895C:  SUBLW  03
0895E:  BTFSS  FD8.2
08960:  BRA    8A5A
08962:  MOVF   x84,W
08964:  SUBLW  08
08966:  BTFSS  FD8.2
08968:  BRA    8A5A
0896A:  MOVF   x85,W
0896C:  SUBLW  09
0896E:  BNZ   8A5A
08970:  MOVF   x86,W
08972:  SUBLW  02
08974:  BNZ   8A5A
....................                write_eeprom(10,0);delay_ms(20);write_eeprom(11,0);delay_ms(20);// Reestablece a contrasea de Fabrica y reinicia Programa. 
08976:  CLRF   FAA
08978:  MOVLW  0A
0897A:  MOVWF  FA9
0897C:  CLRF   FA8
0897E:  BCF    FA6.6
08980:  BCF    FA6.7
08982:  BSF    FA6.2
08984:  MOVF   FF2,W
08986:  MOVWF  00
08988:  BCF    FF2.6
0898A:  BCF    FF2.7
0898C:  MOVLB  F
0898E:  MOVLW  55
08990:  MOVWF  FA7
08992:  MOVLW  AA
08994:  MOVWF  FA7
08996:  BSF    FA6.1
08998:  BTFSC  FA6.1
0899A:  BRA    8998
0899C:  BCF    FA6.2
0899E:  MOVF   00,W
089A0:  IORWF  FF2,F
089A2:  MOVLW  14
089A4:  MOVLB  4
089A6:  MOVWF  x62
089A8:  MOVLB  0
089AA:  CALL   1A6C
089AE:  CLRF   FAA
089B0:  MOVLW  0B
089B2:  MOVWF  FA9
089B4:  CLRF   FA8
089B6:  BCF    FA6.6
089B8:  BCF    FA6.7
089BA:  BSF    FA6.2
089BC:  MOVF   FF2,W
089BE:  MOVWF  00
089C0:  BCF    FF2.6
089C2:  BCF    FF2.7
089C4:  MOVLB  F
089C6:  MOVLW  55
089C8:  MOVWF  FA7
089CA:  MOVLW  AA
089CC:  MOVWF  FA7
089CE:  BSF    FA6.1
089D0:  BTFSC  FA6.1
089D2:  BRA    89D0
089D4:  BCF    FA6.2
089D6:  MOVF   00,W
089D8:  IORWF  FF2,F
089DA:  MOVLW  14
089DC:  MOVLB  4
089DE:  MOVWF  x62
089E0:  MOVLB  0
089E2:  CALL   1A6C
....................                write_eeprom(12,0);delay_ms(20);write_eeprom(13,0);delay_ms(20); 
089E6:  CLRF   FAA
089E8:  MOVLW  0C
089EA:  MOVWF  FA9
089EC:  CLRF   FA8
089EE:  BCF    FA6.6
089F0:  BCF    FA6.7
089F2:  BSF    FA6.2
089F4:  MOVF   FF2,W
089F6:  MOVWF  00
089F8:  BCF    FF2.6
089FA:  BCF    FF2.7
089FC:  MOVLB  F
089FE:  MOVLW  55
08A00:  MOVWF  FA7
08A02:  MOVLW  AA
08A04:  MOVWF  FA7
08A06:  BSF    FA6.1
08A08:  BTFSC  FA6.1
08A0A:  BRA    8A08
08A0C:  BCF    FA6.2
08A0E:  MOVF   00,W
08A10:  IORWF  FF2,F
08A12:  MOVLW  14
08A14:  MOVLB  4
08A16:  MOVWF  x62
08A18:  MOVLB  0
08A1A:  CALL   1A6C
08A1E:  CLRF   FAA
08A20:  MOVLW  0D
08A22:  MOVWF  FA9
08A24:  CLRF   FA8
08A26:  BCF    FA6.6
08A28:  BCF    FA6.7
08A2A:  BSF    FA6.2
08A2C:  MOVF   FF2,W
08A2E:  MOVWF  00
08A30:  BCF    FF2.6
08A32:  BCF    FF2.7
08A34:  MOVLB  F
08A36:  MOVLW  55
08A38:  MOVWF  FA7
08A3A:  MOVLW  AA
08A3C:  MOVWF  FA7
08A3E:  BSF    FA6.1
08A40:  BTFSC  FA6.1
08A42:  BRA    8A40
08A44:  BCF    FA6.2
08A46:  MOVF   00,W
08A48:  IORWF  FF2,F
08A4A:  MOVLW  14
08A4C:  MOVLB  4
08A4E:  MOVWF  x62
08A50:  MOVLB  0
08A52:  CALL   1A6C
....................                reset_cpu(); 
08A56:  RESET
08A58:  MOVLB  3
....................             } 
....................              
....................             if((Contrasena[0]==Password[0])&&(Contrasena[1]==Password[1])&&(Contrasena[2]==Password[2])&&(Contrasena[3]==Password[3])){ 
08A5A:  MOVF   x87,W
08A5C:  SUBWF  x83,W
08A5E:  BNZ   8A8C
08A60:  MOVF   x88,W
08A62:  SUBWF  x84,W
08A64:  BNZ   8A8C
08A66:  MOVF   x89,W
08A68:  SUBWF  x85,W
08A6A:  BNZ   8A8C
08A6C:  MOVF   x8A,W
08A6E:  SUBWF  x86,W
08A70:  BNZ   8A8C
....................                //BorraBuffer(); 
....................                printf("page ClaveCorrecta"); 
08A72:  MOVLW  DC
08A74:  MOVWF  FF6
08A76:  MOVLW  06
08A78:  MOVWF  FF7
08A7A:  MOVLW  00
08A7C:  MOVWF  FF8
08A7E:  MOVLB  0
08A80:  CALL   3BB2
....................                SendDataDisplay(); 
08A84:  CALL   3BE4
....................             }else{ 
08A88:  BRA    8AA2
08A8A:  MOVLB  3
....................                //BorraBuffer(); 
....................                printf("page ClaveBad"); 
08A8C:  MOVLW  F0
08A8E:  MOVWF  FF6
08A90:  MOVLW  06
08A92:  MOVWF  FF7
08A94:  MOVLW  00
08A96:  MOVWF  FF8
08A98:  MOVLB  0
08A9A:  CALL   3BB2
....................                SendDataDisplay(); 
08A9E:  CALL   3BE4
....................             }  
....................          }else if(TipoClave==1){ 
08AA2:  BRA    8C86
08AA4:  MOVLB  2
08AA6:  DECFSZ xDE,W
08AA8:  BRA    8AF8
....................             if(Contrasena[0]==4&&Contrasena[1]==4&&Contrasena[2]==4&&Contrasena[3]==4){ // Si Ingresa clave de Servicio Tecnico 
08AAA:  MOVLB  3
08AAC:  MOVF   x83,W
08AAE:  SUBLW  04
08AB0:  BNZ   8ADE
08AB2:  MOVF   x84,W
08AB4:  SUBLW  04
08AB6:  BNZ   8ADE
08AB8:  MOVF   x85,W
08ABA:  SUBLW  04
08ABC:  BNZ   8ADE
08ABE:  MOVF   x86,W
08AC0:  SUBLW  04
08AC2:  BNZ   8ADE
....................                printf("page Config"); 
08AC4:  MOVLW  FE
08AC6:  MOVWF  FF6
08AC8:  MOVLW  06
08ACA:  MOVWF  FF7
08ACC:  MOVLW  00
08ACE:  MOVWF  FF8
08AD0:  MOVLB  0
08AD2:  CALL   3BB2
....................                SendDataDisplay(); 
08AD6:  CALL   3BE4
....................             }else{ 
08ADA:  BRA    8AF4
08ADC:  MOVLB  3
....................                printf("page MenuPrincipal"); 
08ADE:  MOVLW  0A
08AE0:  MOVWF  FF6
08AE2:  MOVLW  07
08AE4:  MOVWF  FF7
08AE6:  MOVLW  00
08AE8:  MOVWF  FF8
08AEA:  MOVLB  0
08AEC:  CALL   3BB2
....................                SendDataDisplay(); 
08AF0:  CALL   3BE4
....................             } 
....................          }else if(TipoClave==2){ 
08AF4:  BRA    8C86
08AF6:  MOVLB  2
08AF8:  MOVF   xDE,W
08AFA:  SUBLW  02
08AFC:  BNZ   8B66
....................             if((Contrasena[0]==Password[0])&&(Contrasena[1]==Password[1])&&(Contrasena[2]==Password[2])&&(Contrasena[3]==Password[3])){ 
08AFE:  MOVLB  3
08B00:  MOVF   x87,W
08B02:  SUBWF  x83,W
08B04:  BNZ   8B4C
08B06:  MOVF   x88,W
08B08:  SUBWF  x84,W
08B0A:  BNZ   8B4C
08B0C:  MOVF   x89,W
08B0E:  SUBWF  x85,W
08B10:  BNZ   8B4C
08B12:  MOVF   x8A,W
08B14:  SUBWF  x86,W
08B16:  BNZ   8B4C
....................                printf("page Clave"); 
08B18:  MOVLW  1E
08B1A:  MOVWF  FF6
08B1C:  MOVLW  07
08B1E:  MOVWF  FF7
08B20:  MOVLW  00
08B22:  MOVWF  FF8
08B24:  MOVLB  0
08B26:  CALL   3BB2
....................                SendDataDisplay(); 
08B2A:  CALL   3BE4
....................                printf("titulo.txt=\"Clave Nueva\""); 
08B2E:  MOVLW  2A
08B30:  MOVWF  FF6
08B32:  MOVLW  07
08B34:  MOVWF  FF7
08B36:  MOVLW  00
08B38:  MOVWF  FF8
08B3A:  CALL   3BB2
....................                SendDataDisplay(); 
08B3E:  CALL   3BE4
....................                TipoClave=3; 
08B42:  MOVLW  03
08B44:  MOVLB  2
08B46:  MOVWF  xDE
....................             }else{ 
08B48:  BRA    8B64
08B4A:  MOVLB  3
....................                printf("page MenuPrincipal"); 
08B4C:  MOVLW  44
08B4E:  MOVWF  FF6
08B50:  MOVLW  07
08B52:  MOVWF  FF7
08B54:  MOVLW  00
08B56:  MOVWF  FF8
08B58:  MOVLB  0
08B5A:  CALL   3BB2
....................                SendDataDisplay(); 
08B5E:  CALL   3BE4
08B62:  MOVLB  2
....................             }  
....................          }else if(TipoClave==3){ 
08B64:  BRA    8C88
08B66:  MOVF   xDE,W
08B68:  SUBLW  03
08B6A:  BTFSS  FD8.2
08B6C:  BRA    8C88
....................             printf("titulo.txt=\"Clave Nueva\""); 
08B6E:  MOVLW  58
08B70:  MOVWF  FF6
08B72:  MOVLW  07
08B74:  MOVWF  FF7
08B76:  MOVLW  00
08B78:  MOVWF  FF8
08B7A:  MOVLB  0
08B7C:  CALL   3BB2
....................             SendDataDisplay(); 
08B80:  CALL   3BE4
....................             printf("page MenuPrincipal"); 
08B84:  MOVLW  72
08B86:  MOVWF  FF6
08B88:  MOVLW  07
08B8A:  MOVWF  FF7
08B8C:  MOVLW  00
08B8E:  MOVWF  FF8
08B90:  CALL   3BB2
....................             SendDataDisplay(); 
08B94:  CALL   3BE4
....................             if(!GuardaEEPROM){ 
08B98:  BTFSC  xA2.6
08B9A:  BRA    8C86
....................                write_eeprom(10,Contrasena[0]);delay_ms(20);write_eeprom(11,Contrasena[1]);delay_ms(20); 
08B9C:  CLRF   FAA
08B9E:  MOVLW  0A
08BA0:  MOVWF  FA9
08BA2:  MOVFF  383,FA8
08BA6:  BCF    FA6.6
08BA8:  BCF    FA6.7
08BAA:  BSF    FA6.2
08BAC:  MOVF   FF2,W
08BAE:  MOVWF  00
08BB0:  BCF    FF2.6
08BB2:  BCF    FF2.7
08BB4:  MOVLB  F
08BB6:  MOVLW  55
08BB8:  MOVWF  FA7
08BBA:  MOVLW  AA
08BBC:  MOVWF  FA7
08BBE:  BSF    FA6.1
08BC0:  BTFSC  FA6.1
08BC2:  BRA    8BC0
08BC4:  BCF    FA6.2
08BC6:  MOVF   00,W
08BC8:  IORWF  FF2,F
08BCA:  MOVLW  14
08BCC:  MOVLB  4
08BCE:  MOVWF  x62
08BD0:  MOVLB  0
08BD2:  CALL   1A6C
08BD6:  CLRF   FAA
08BD8:  MOVLW  0B
08BDA:  MOVWF  FA9
08BDC:  MOVFF  384,FA8
08BE0:  BCF    FA6.6
08BE2:  BCF    FA6.7
08BE4:  BSF    FA6.2
08BE6:  MOVF   FF2,W
08BE8:  MOVWF  00
08BEA:  BCF    FF2.6
08BEC:  BCF    FF2.7
08BEE:  MOVLB  F
08BF0:  MOVLW  55
08BF2:  MOVWF  FA7
08BF4:  MOVLW  AA
08BF6:  MOVWF  FA7
08BF8:  BSF    FA6.1
08BFA:  BTFSC  FA6.1
08BFC:  BRA    8BFA
08BFE:  BCF    FA6.2
08C00:  MOVF   00,W
08C02:  IORWF  FF2,F
08C04:  MOVLW  14
08C06:  MOVLB  4
08C08:  MOVWF  x62
08C0A:  MOVLB  0
08C0C:  CALL   1A6C
....................                write_eeprom(12,Contrasena[2]);delay_ms(20);write_eeprom(13,Contrasena[3]);delay_ms(20); 
08C10:  CLRF   FAA
08C12:  MOVLW  0C
08C14:  MOVWF  FA9
08C16:  MOVFF  385,FA8
08C1A:  BCF    FA6.6
08C1C:  BCF    FA6.7
08C1E:  BSF    FA6.2
08C20:  MOVF   FF2,W
08C22:  MOVWF  00
08C24:  BCF    FF2.6
08C26:  BCF    FF2.7
08C28:  MOVLB  F
08C2A:  MOVLW  55
08C2C:  MOVWF  FA7
08C2E:  MOVLW  AA
08C30:  MOVWF  FA7
08C32:  BSF    FA6.1
08C34:  BTFSC  FA6.1
08C36:  BRA    8C34
08C38:  BCF    FA6.2
08C3A:  MOVF   00,W
08C3C:  IORWF  FF2,F
08C3E:  MOVLW  14
08C40:  MOVLB  4
08C42:  MOVWF  x62
08C44:  MOVLB  0
08C46:  CALL   1A6C
08C4A:  CLRF   FAA
08C4C:  MOVLW  0D
08C4E:  MOVWF  FA9
08C50:  MOVFF  386,FA8
08C54:  BCF    FA6.6
08C56:  BCF    FA6.7
08C58:  BSF    FA6.2
08C5A:  MOVF   FF2,W
08C5C:  MOVWF  00
08C5E:  BCF    FF2.6
08C60:  BCF    FF2.7
08C62:  MOVLB  F
08C64:  MOVLW  55
08C66:  MOVWF  FA7
08C68:  MOVLW  AA
08C6A:  MOVWF  FA7
08C6C:  BSF    FA6.1
08C6E:  BTFSC  FA6.1
08C70:  BRA    8C6E
08C72:  BCF    FA6.2
08C74:  MOVF   00,W
08C76:  IORWF  FF2,F
08C78:  MOVLW  14
08C7A:  MOVLB  4
08C7C:  MOVWF  x62
08C7E:  MOVLB  0
08C80:  CALL   1A6C
....................                GuardaEEPROM=ON; 
08C84:  BSF    xA2.6
08C86:  MOVLB  2
....................             } 
....................          } 
....................       } 
....................        
....................       if(RX_Buffer[4]==0x11){//11 
08C88:  MOVF   34,W
08C8A:  SUBLW  11
08C8C:  BNZ   8CAC
....................          if(TipoClave!=0){ 
08C8E:  MOVF   xDE,F
08C90:  BZ    8CAC
....................             printf("page MenuPrincipal"); 
08C92:  MOVLW  86
08C94:  MOVWF  FF6
08C96:  MOVLW  07
08C98:  MOVWF  FF7
08C9A:  MOVLW  00
08C9C:  MOVWF  FF8
08C9E:  MOVLB  0
08CA0:  CALL   3BB2
....................             SendDataDisplay(); 
08CA4:  CALL   3BE4
....................             PantallaPrincipal=0; 
08CA8:  MOVLB  2
08CAA:  CLRF   xDD
....................          } 
....................       } 
....................        
....................       if(TipoClave==3){ 
08CAC:  MOVF   xDE,W
08CAE:  SUBLW  03
08CB0:  BNZ   8CDE
....................          printf("titulo.txt=\"Clave Nueva\""); 
08CB2:  MOVLW  9A
08CB4:  MOVWF  FF6
08CB6:  MOVLW  07
08CB8:  MOVWF  FF7
08CBA:  MOVLW  00
08CBC:  MOVWF  FF8
08CBE:  MOVLB  0
08CC0:  CALL   3BB2
....................          SendDataDisplay(); 
08CC4:  CALL   3BE4
....................          printf("doevents"); 
08CC8:  MOVLW  B4
08CCA:  MOVWF  FF6
08CCC:  MOVLW  07
08CCE:  MOVWF  FF7
08CD0:  MOVLW  00
08CD2:  MOVWF  FF8
08CD4:  CALL   3BB2
....................          SendDataDisplay(); 
08CD8:  CALL   3BE4
08CDC:  MOVLB  2
....................       } 
....................        
....................       if(TipoClave==2){ 
08CDE:  MOVF   xDE,W
08CE0:  SUBLW  02
08CE2:  BNZ   8D10
....................          printf("titulo.txt=\"Clave Actual\""); 
08CE4:  MOVLW  BE
08CE6:  MOVWF  FF6
08CE8:  MOVLW  07
08CEA:  MOVWF  FF7
08CEC:  MOVLW  00
08CEE:  MOVWF  FF8
08CF0:  MOVLB  0
08CF2:  CALL   3BB2
....................          SendDataDisplay(); 
08CF6:  CALL   3BE4
....................          printf("doevents"); 
08CFA:  MOVLW  D8
08CFC:  MOVWF  FF6
08CFE:  MOVLW  07
08D00:  MOVWF  FF7
08D02:  MOVLW  00
08D04:  MOVWF  FF8
08D06:  CALL   3BB2
....................          SendDataDisplay(); 
08D0A:  CALL   3BE4
08D0E:  MOVLB  2
....................       } 
....................        
....................       if(TipoClave==1){ 
08D10:  DECFSZ xDE,W
08D12:  BRA    8D40
....................          printf("titulo.txt=\"Clave Tecnico\""); 
08D14:  MOVLW  E2
08D16:  MOVWF  FF6
08D18:  MOVLW  07
08D1A:  MOVWF  FF7
08D1C:  MOVLW  00
08D1E:  MOVWF  FF8
08D20:  MOVLB  0
08D22:  CALL   3BB2
....................          SendDataDisplay(); 
08D26:  CALL   3BE4
....................          printf("doevents"); 
08D2A:  MOVLW  FE
08D2C:  MOVWF  FF6
08D2E:  MOVLW  07
08D30:  MOVWF  FF7
08D32:  MOVLW  00
08D34:  MOVWF  FF8
08D36:  CALL   3BB2
....................          SendDataDisplay(); 
08D3A:  CALL   3BE4
08D3E:  MOVLB  2
....................       } 
....................        
....................       if(TipoClave==0){ 
08D40:  MOVF   xDE,F
08D42:  BNZ   8D5C
....................          printf("titulo.txt=\"Ingrese Contrasea\""); 
08D44:  MOVLW  08
08D46:  MOVWF  FF6
08D48:  MOVLW  08
08D4A:  MOVWF  FF7
08D4C:  MOVLW  00
08D4E:  MOVWF  FF8
08D50:  MOVLB  0
08D52:  CALL   3BB2
....................          SendDataDisplay(); 
08D56:  CALL   3BE4
08D5A:  MOVLB  2
....................       } 
....................       if(RX_Buffer[3]==0x0f){//0f, recibe caracteres ingresados desde el Display 
08D5C:  MOVF   33,W
08D5E:  SUBLW  0F
08D60:  BTFSS  FD8.2
08D62:  BRA    913C
....................          if(TipoClave==0){ 
08D64:  MOVF   xDE,F
08D66:  BTFSS  FD8.2
08D68:  BRA    8EF8
....................             if(RX_Buffer[4]==0x33&&RX_Buffer[5]==0x38&&RX_Buffer[6]==0x39&&RX_Buffer[7]==0x32){ // Si Ingresa clave para reset general del sistema. 
08D6A:  MOVF   34,W
08D6C:  SUBLW  33
08D6E:  BTFSS  FD8.2
08D70:  BRA    8E6A
08D72:  MOVF   35,W
08D74:  SUBLW  38
08D76:  BTFSS  FD8.2
08D78:  BRA    8E6A
08D7A:  MOVF   36,W
08D7C:  SUBLW  39
08D7E:  BNZ   8E6A
08D80:  MOVF   37,W
08D82:  SUBLW  32
08D84:  BNZ   8E6A
....................                write_eeprom(10,0);delay_ms(20);write_eeprom(11,0);delay_ms(20);// Reestablece a contrasea de Fabrica y reinicia Programa. 
08D86:  CLRF   FAA
08D88:  MOVLW  0A
08D8A:  MOVWF  FA9
08D8C:  CLRF   FA8
08D8E:  BCF    FA6.6
08D90:  BCF    FA6.7
08D92:  BSF    FA6.2
08D94:  MOVF   FF2,W
08D96:  MOVWF  00
08D98:  BCF    FF2.6
08D9A:  BCF    FF2.7
08D9C:  MOVLB  F
08D9E:  MOVLW  55
08DA0:  MOVWF  FA7
08DA2:  MOVLW  AA
08DA4:  MOVWF  FA7
08DA6:  BSF    FA6.1
08DA8:  BTFSC  FA6.1
08DAA:  BRA    8DA8
08DAC:  BCF    FA6.2
08DAE:  MOVF   00,W
08DB0:  IORWF  FF2,F
08DB2:  MOVLW  14
08DB4:  MOVLB  4
08DB6:  MOVWF  x62
08DB8:  MOVLB  0
08DBA:  CALL   1A6C
08DBE:  CLRF   FAA
08DC0:  MOVLW  0B
08DC2:  MOVWF  FA9
08DC4:  CLRF   FA8
08DC6:  BCF    FA6.6
08DC8:  BCF    FA6.7
08DCA:  BSF    FA6.2
08DCC:  MOVF   FF2,W
08DCE:  MOVWF  00
08DD0:  BCF    FF2.6
08DD2:  BCF    FF2.7
08DD4:  MOVLB  F
08DD6:  MOVLW  55
08DD8:  MOVWF  FA7
08DDA:  MOVLW  AA
08DDC:  MOVWF  FA7
08DDE:  BSF    FA6.1
08DE0:  BTFSC  FA6.1
08DE2:  BRA    8DE0
08DE4:  BCF    FA6.2
08DE6:  MOVF   00,W
08DE8:  IORWF  FF2,F
08DEA:  MOVLW  14
08DEC:  MOVLB  4
08DEE:  MOVWF  x62
08DF0:  MOVLB  0
08DF2:  CALL   1A6C
....................                write_eeprom(12,0);delay_ms(20);write_eeprom(13,0);delay_ms(20); 
08DF6:  CLRF   FAA
08DF8:  MOVLW  0C
08DFA:  MOVWF  FA9
08DFC:  CLRF   FA8
08DFE:  BCF    FA6.6
08E00:  BCF    FA6.7
08E02:  BSF    FA6.2
08E04:  MOVF   FF2,W
08E06:  MOVWF  00
08E08:  BCF    FF2.6
08E0A:  BCF    FF2.7
08E0C:  MOVLB  F
08E0E:  MOVLW  55
08E10:  MOVWF  FA7
08E12:  MOVLW  AA
08E14:  MOVWF  FA7
08E16:  BSF    FA6.1
08E18:  BTFSC  FA6.1
08E1A:  BRA    8E18
08E1C:  BCF    FA6.2
08E1E:  MOVF   00,W
08E20:  IORWF  FF2,F
08E22:  MOVLW  14
08E24:  MOVLB  4
08E26:  MOVWF  x62
08E28:  MOVLB  0
08E2A:  CALL   1A6C
08E2E:  CLRF   FAA
08E30:  MOVLW  0D
08E32:  MOVWF  FA9
08E34:  CLRF   FA8
08E36:  BCF    FA6.6
08E38:  BCF    FA6.7
08E3A:  BSF    FA6.2
08E3C:  MOVF   FF2,W
08E3E:  MOVWF  00
08E40:  BCF    FF2.6
08E42:  BCF    FF2.7
08E44:  MOVLB  F
08E46:  MOVLW  55
08E48:  MOVWF  FA7
08E4A:  MOVLW  AA
08E4C:  MOVWF  FA7
08E4E:  BSF    FA6.1
08E50:  BTFSC  FA6.1
08E52:  BRA    8E50
08E54:  BCF    FA6.2
08E56:  MOVF   00,W
08E58:  IORWF  FF2,F
08E5A:  MOVLW  14
08E5C:  MOVLB  4
08E5E:  MOVWF  x62
08E60:  MOVLB  0
08E62:  CALL   1A6C
....................                reset_cpu(); 
08E66:  RESET
08E68:  MOVLB  2
....................             } 
....................             if(RX_Buffer[4]>=0x30 && RX_Buffer[5]>=0x30 && RX_Buffer[6]>=0x30 && RX_Buffer[7]>=0x30 
....................             && RX_Buffer[4]<=0x39 && RX_Buffer[5]<=0x39 && RX_Buffer[6]<=0x39 && RX_Buffer[7]<=0x39){ 
08E6A:  MOVF   34,W
08E6C:  SUBLW  2F
08E6E:  BC    8EF6
08E70:  MOVF   35,W
08E72:  SUBLW  2F
08E74:  BC    8EF6
08E76:  MOVF   36,W
08E78:  SUBLW  2F
08E7A:  BC    8EF6
08E7C:  MOVF   37,W
08E7E:  SUBLW  2F
08E80:  BC    8EF6
08E82:  MOVF   34,W
08E84:  SUBLW  39
08E86:  BNC   8EF6
08E88:  MOVF   35,W
08E8A:  SUBLW  39
08E8C:  BNC   8EF6
08E8E:  MOVF   36,W
08E90:  SUBLW  39
08E92:  BNC   8EF6
08E94:  MOVF   37,W
08E96:  SUBLW  39
08E98:  BNC   8EF6
....................             if((RX_Buffer[4]==Password[0]+0x30)&&(RX_Buffer[5]==Password[1]+0x30)&&(RX_Buffer[6]==Password[2]+0x30)&&(RX_Buffer[7]==Password[3]+0x30)){ 
08E9A:  MOVLW  30
08E9C:  MOVLB  3
08E9E:  ADDWF  x87,W
08EA0:  SUBWF  34,W
08EA2:  BNZ   8EDA
08EA4:  MOVLW  30
08EA6:  ADDWF  x88,W
08EA8:  SUBWF  35,W
08EAA:  BNZ   8EDA
08EAC:  MOVLW  30
08EAE:  ADDWF  x89,W
08EB0:  SUBWF  36,W
08EB2:  BNZ   8EDA
08EB4:  MOVLW  30
08EB6:  ADDWF  x8A,W
08EB8:  SUBWF  37,W
08EBA:  BNZ   8EDA
....................                   printf("page ClaveCorrecta"); 
08EBC:  MOVLW  28
08EBE:  MOVWF  FF6
08EC0:  MOVLW  08
08EC2:  MOVWF  FF7
08EC4:  MOVLW  00
08EC6:  MOVWF  FF8
08EC8:  MOVLB  0
08ECA:  CALL   3BB2
....................                   //printf("page MenuPrincipal"); 
....................                   SendDataDisplay(); 
08ECE:  CALL   3BE4
....................                   RX_Buffer[3]=0x00;RX_Buffer2[3]=0x00;   
08ED2:  CLRF   33
08ED4:  CLRF   3E
....................                }else{ 
08ED6:  BRA    8EF4
08ED8:  MOVLB  3
....................                   printf("page ClaveBad"); 
08EDA:  MOVLW  3C
08EDC:  MOVWF  FF6
08EDE:  MOVLW  08
08EE0:  MOVWF  FF7
08EE2:  MOVLW  00
08EE4:  MOVWF  FF8
08EE6:  MOVLB  0
08EE8:  CALL   3BB2
....................                   SendDataDisplay(); 
08EEC:  CALL   3BE4
....................                   RX_Buffer[3]=0x00;RX_Buffer2[3]=0x00;   
08EF0:  CLRF   33
08EF2:  CLRF   3E
08EF4:  MOVLB  2
....................                }  
....................             } 
....................          }else if(TipoClave==1){ 
08EF6:  BRA    913C
08EF8:  DECFSZ xDE,W
08EFA:  BRA    8F48
....................             if(RX_Buffer[4]==0x34&&RX_Buffer[5]==0x34&&RX_Buffer[6]==0x34&&RX_Buffer[7]==0x34){ // Si Ingresa clave de Servicio Tecnico 
08EFC:  MOVF   34,W
08EFE:  SUBLW  34
08F00:  BNZ   8F2E
08F02:  MOVF   35,W
08F04:  SUBLW  34
08F06:  BNZ   8F2E
08F08:  MOVF   36,W
08F0A:  SUBLW  34
08F0C:  BNZ   8F2E
08F0E:  MOVF   37,W
08F10:  SUBLW  34
08F12:  BNZ   8F2E
....................                printf("page Config"); 
08F14:  MOVLW  4A
08F16:  MOVWF  FF6
08F18:  MOVLW  08
08F1A:  MOVWF  FF7
08F1C:  MOVLW  00
08F1E:  MOVWF  FF8
08F20:  MOVLB  0
08F22:  CALL   3BB2
....................                SendDataDisplay(); 
08F26:  CALL   3BE4
....................             }else{ 
08F2A:  BRA    8F44
08F2C:  MOVLB  2
....................                printf("page MenuPrincipal"); 
08F2E:  MOVLW  56
08F30:  MOVWF  FF6
08F32:  MOVLW  08
08F34:  MOVWF  FF7
08F36:  MOVLW  00
08F38:  MOVWF  FF8
08F3A:  MOVLB  0
08F3C:  CALL   3BB2
....................                SendDataDisplay(); 
08F40:  CALL   3BE4
....................             } 
....................          }else if(TipoClave==2){ 
08F44:  BRA    913A
08F46:  MOVLB  2
08F48:  MOVF   xDE,W
08F4A:  SUBLW  02
08F4C:  BNZ   8FF6
....................             if(RX_Buffer[4]>=0x30 && RX_Buffer[5]>=0x30 && RX_Buffer[6]>=0x30 && RX_Buffer[7]>=0x30 
....................             && RX_Buffer[4]<=0x39 && RX_Buffer[5]<=0x39 && RX_Buffer[6]<=0x39 && RX_Buffer[7]<=0x39){ 
08F4E:  MOVF   34,W
08F50:  SUBLW  2F
08F52:  BC    8FF4
08F54:  MOVF   35,W
08F56:  SUBLW  2F
08F58:  BC    8FF4
08F5A:  MOVF   36,W
08F5C:  SUBLW  2F
08F5E:  BC    8FF4
08F60:  MOVF   37,W
08F62:  SUBLW  2F
08F64:  BC    8FF4
08F66:  MOVF   34,W
08F68:  SUBLW  39
08F6A:  BNC   8FF4
08F6C:  MOVF   35,W
08F6E:  SUBLW  39
08F70:  BNC   8FF4
08F72:  MOVF   36,W
08F74:  SUBLW  39
08F76:  BNC   8FF4
08F78:  MOVF   37,W
08F7A:  SUBLW  39
08F7C:  BNC   8FF4
....................             if((RX_Buffer[4]==Password[0]+0x30)&&(RX_Buffer[5]==Password[1]+0x30)&&(RX_Buffer[6]==Password[2]+0x30)&&(RX_Buffer[7]==Password[3]+0x30)){ 
08F7E:  MOVLW  30
08F80:  MOVLB  3
08F82:  ADDWF  x87,W
08F84:  SUBWF  34,W
08F86:  BNZ   8FD8
08F88:  MOVLW  30
08F8A:  ADDWF  x88,W
08F8C:  SUBWF  35,W
08F8E:  BNZ   8FD8
08F90:  MOVLW  30
08F92:  ADDWF  x89,W
08F94:  SUBWF  36,W
08F96:  BNZ   8FD8
08F98:  MOVLW  30
08F9A:  ADDWF  x8A,W
08F9C:  SUBWF  37,W
08F9E:  BNZ   8FD8
....................                printf("page Clave"); 
08FA0:  MOVLW  6A
08FA2:  MOVWF  FF6
08FA4:  MOVLW  08
08FA6:  MOVWF  FF7
08FA8:  MOVLW  00
08FAA:  MOVWF  FF8
08FAC:  MOVLB  0
08FAE:  CALL   3BB2
....................                SendDataDisplay(); 
08FB2:  CALL   3BE4
....................                printf("titulo.txt=\"Clave Nueva\""); 
08FB6:  MOVLW  76
08FB8:  MOVWF  FF6
08FBA:  MOVLW  08
08FBC:  MOVWF  FF7
08FBE:  MOVLW  00
08FC0:  MOVWF  FF8
08FC2:  CALL   3BB2
....................                SendDataDisplay(); 
08FC6:  CALL   3BE4
....................                TipoClave=3; 
08FCA:  MOVLW  03
08FCC:  MOVLB  2
08FCE:  MOVWF  xDE
....................                RX_Buffer[3]=0x00; 
08FD0:  CLRF   33
....................                RX_Buffer2[3]=0x00; 
08FD2:  CLRF   3E
....................             }else{ 
08FD4:  BRA    8FF4
08FD6:  MOVLB  3
....................                printf("page MenuPrincipal"); 
08FD8:  MOVLW  90
08FDA:  MOVWF  FF6
08FDC:  MOVLW  08
08FDE:  MOVWF  FF7
08FE0:  MOVLW  00
08FE2:  MOVWF  FF8
08FE4:  MOVLB  0
08FE6:  CALL   3BB2
....................                SendDataDisplay(); 
08FEA:  CALL   3BE4
....................                RX_Buffer[3]=0x00; 
08FEE:  CLRF   33
....................                RX_Buffer2[3]=0x00; 
08FF0:  CLRF   3E
08FF2:  MOVLB  2
....................             }  
....................             } 
....................          }else if(TipoClave==3){ 
08FF4:  BRA    913C
08FF6:  MOVF   xDE,W
08FF8:  SUBLW  03
08FFA:  BTFSS  FD8.2
08FFC:  BRA    913C
....................             printf("titulo.txt=\"Clave Nueva\""); 
08FFE:  MOVLW  A4
09000:  MOVWF  FF6
09002:  MOVLW  08
09004:  MOVWF  FF7
09006:  MOVLW  00
09008:  MOVWF  FF8
0900A:  MOVLB  0
0900C:  CALL   3BB2
....................             SendDataDisplay(); 
09010:  CALL   3BE4
....................             printf("page MenuPrincipal"); 
09014:  MOVLW  BE
09016:  MOVWF  FF6
09018:  MOVLW  08
0901A:  MOVWF  FF7
0901C:  MOVLW  00
0901E:  MOVWF  FF8
09020:  CALL   3BB2
....................             SendDataDisplay(); 
09024:  CALL   3BE4
....................             if(!GuardaEEPROM){ 
09028:  BTFSC  xA2.6
0902A:  BRA    9136
....................                write_eeprom(10,RX_Buffer[4]-0x30);delay_ms(20);write_eeprom(11,RX_Buffer[5]-0x30);delay_ms(20); 
0902C:  MOVLW  30
0902E:  SUBWF  34,W
09030:  MOVLB  4
09032:  MOVWF  x49
09034:  CLRF   FAA
09036:  MOVLW  0A
09038:  MOVWF  FA9
0903A:  MOVFF  449,FA8
0903E:  BCF    FA6.6
09040:  BCF    FA6.7
09042:  BSF    FA6.2
09044:  MOVF   FF2,W
09046:  MOVWF  00
09048:  BCF    FF2.6
0904A:  BCF    FF2.7
0904C:  MOVLB  F
0904E:  MOVLW  55
09050:  MOVWF  FA7
09052:  MOVLW  AA
09054:  MOVWF  FA7
09056:  BSF    FA6.1
09058:  BTFSC  FA6.1
0905A:  BRA    9058
0905C:  BCF    FA6.2
0905E:  MOVF   00,W
09060:  IORWF  FF2,F
09062:  MOVLW  14
09064:  MOVLB  4
09066:  MOVWF  x62
09068:  MOVLB  0
0906A:  CALL   1A6C
0906E:  MOVLW  30
09070:  SUBWF  35,W
09072:  MOVLB  4
09074:  MOVWF  x49
09076:  CLRF   FAA
09078:  MOVLW  0B
0907A:  MOVWF  FA9
0907C:  MOVFF  449,FA8
09080:  BCF    FA6.6
09082:  BCF    FA6.7
09084:  BSF    FA6.2
09086:  MOVF   FF2,W
09088:  MOVWF  00
0908A:  BCF    FF2.6
0908C:  BCF    FF2.7
0908E:  MOVLB  F
09090:  MOVLW  55
09092:  MOVWF  FA7
09094:  MOVLW  AA
09096:  MOVWF  FA7
09098:  BSF    FA6.1
0909A:  BTFSC  FA6.1
0909C:  BRA    909A
0909E:  BCF    FA6.2
090A0:  MOVF   00,W
090A2:  IORWF  FF2,F
090A4:  MOVLW  14
090A6:  MOVLB  4
090A8:  MOVWF  x62
090AA:  MOVLB  0
090AC:  CALL   1A6C
....................                write_eeprom(12,RX_Buffer[6]-0x30);delay_ms(20);write_eeprom(13,RX_Buffer[7]-0x30);delay_ms(20); 
090B0:  MOVLW  30
090B2:  SUBWF  36,W
090B4:  MOVLB  4
090B6:  MOVWF  x49
090B8:  CLRF   FAA
090BA:  MOVLW  0C
090BC:  MOVWF  FA9
090BE:  MOVFF  449,FA8
090C2:  BCF    FA6.6
090C4:  BCF    FA6.7
090C6:  BSF    FA6.2
090C8:  MOVF   FF2,W
090CA:  MOVWF  00
090CC:  BCF    FF2.6
090CE:  BCF    FF2.7
090D0:  MOVLB  F
090D2:  MOVLW  55
090D4:  MOVWF  FA7
090D6:  MOVLW  AA
090D8:  MOVWF  FA7
090DA:  BSF    FA6.1
090DC:  BTFSC  FA6.1
090DE:  BRA    90DC
090E0:  BCF    FA6.2
090E2:  MOVF   00,W
090E4:  IORWF  FF2,F
090E6:  MOVLW  14
090E8:  MOVLB  4
090EA:  MOVWF  x62
090EC:  MOVLB  0
090EE:  CALL   1A6C
090F2:  MOVLW  30
090F4:  SUBWF  37,W
090F6:  MOVLB  4
090F8:  MOVWF  x49
090FA:  CLRF   FAA
090FC:  MOVLW  0D
090FE:  MOVWF  FA9
09100:  MOVFF  449,FA8
09104:  BCF    FA6.6
09106:  BCF    FA6.7
09108:  BSF    FA6.2
0910A:  MOVF   FF2,W
0910C:  MOVWF  00
0910E:  BCF    FF2.6
09110:  BCF    FF2.7
09112:  MOVLB  F
09114:  MOVLW  55
09116:  MOVWF  FA7
09118:  MOVLW  AA
0911A:  MOVWF  FA7
0911C:  BSF    FA6.1
0911E:  BTFSC  FA6.1
09120:  BRA    911E
09122:  BCF    FA6.2
09124:  MOVF   00,W
09126:  IORWF  FF2,F
09128:  MOVLW  14
0912A:  MOVLB  4
0912C:  MOVWF  x62
0912E:  MOVLB  0
09130:  CALL   1A6C
....................                GuardaEEPROM=ON; 
09134:  BSF    xA2.6
....................             } 
....................             RX_Buffer[3]=0x00; 
09136:  CLRF   33
....................             RX_Buffer2[3]=0x00; 
09138:  CLRF   3E
0913A:  MOVLB  2
0913C:  MOVLB  3
....................          } 
....................       } 
....................     } 
.................... //_--------------------------------------------------------------------------------------------------------------------------------------------------------        
....................  
.................... //_-------------------------------------------------------------------------------------------------------------------------------------------------------- 
....................    if(Menu==1){ //Menu Principal. 
0913E:  DECFSZ x5D,W
09140:  GOTO   9B24
....................       printf("fecha.txt=\"T:%3.1fC Fecha:%02u/%02u/20%02u Hora: %02u:%02u:%02u\"",Temperatura,Dia,Mes,Year,Hora,Minuto,Segundo); 
09144:  MOVLW  D2
09146:  MOVWF  FF6
09148:  MOVLW  08
0914A:  MOVWF  FF7
0914C:  MOVLW  00
0914E:  MOVWF  FF8
09150:  MOVLW  0D
09152:  MOVLB  4
09154:  MOVWF  x4F
09156:  MOVLB  0
09158:  CALL   4B26
0915C:  MOVLW  02
0915E:  MOVWF  FE9
09160:  MOVFF  328,452
09164:  MOVFF  327,451
09168:  MOVFF  326,450
0916C:  MOVFF  325,44F
09170:  MOVLW  01
09172:  MOVLB  4
09174:  MOVWF  x53
09176:  MOVLB  0
09178:  CALL   4CC6
0917C:  MOVLW  E4
0917E:  MOVWF  FF6
09180:  MOVLW  08
09182:  MOVWF  FF7
09184:  MOVLW  00
09186:  MOVWF  FF8
09188:  MOVLW  09
0918A:  MOVLB  4
0918C:  MOVWF  x4F
0918E:  MOVLB  0
09190:  CALL   4B26
09194:  MOVFF  3AA,44F
09198:  MOVLW  01
0919A:  MOVLB  4
0919C:  MOVWF  x50
0919E:  MOVLB  0
091A0:  CALL   4B84
091A4:  MOVLW  2F
091A6:  BTFSS  F9E.4
091A8:  BRA    91A6
091AA:  MOVWF  FAD
091AC:  MOVFF  3A9,44F
091B0:  MOVLW  01
091B2:  MOVLB  4
091B4:  MOVWF  x50
091B6:  MOVLB  0
091B8:  CALL   4B84
091BC:  MOVLW  2F
091BE:  BTFSS  F9E.4
091C0:  BRA    91BE
091C2:  MOVWF  FAD
091C4:  MOVLW  32
091C6:  BTFSS  F9E.4
091C8:  BRA    91C6
091CA:  MOVWF  FAD
091CC:  MOVLW  30
091CE:  BTFSS  F9E.4
091D0:  BRA    91CE
091D2:  MOVWF  FAD
091D4:  MOVFF  3A8,44F
091D8:  MOVLW  01
091DA:  MOVLB  4
091DC:  MOVWF  x50
091DE:  MOVLB  0
091E0:  CALL   4B84
091E4:  MOVLW  FD
091E6:  MOVWF  FF6
091E8:  MOVLW  08
091EA:  MOVWF  FF7
091EC:  MOVLW  00
091EE:  MOVWF  FF8
091F0:  MOVLW  07
091F2:  MOVLB  4
091F4:  MOVWF  x4F
091F6:  MOVLB  0
091F8:  CALL   4B26
091FC:  MOVFF  3AB,44F
09200:  MOVLW  01
09202:  MOVLB  4
09204:  MOVWF  x50
09206:  MOVLB  0
09208:  CALL   4B84
0920C:  MOVLW  3A
0920E:  BTFSS  F9E.4
09210:  BRA    920E
09212:  MOVWF  FAD
09214:  MOVFF  3AC,44F
09218:  MOVLW  01
0921A:  MOVLB  4
0921C:  MOVWF  x50
0921E:  MOVLB  0
09220:  CALL   4B84
09224:  MOVLW  3A
09226:  BTFSS  F9E.4
09228:  BRA    9226
0922A:  MOVWF  FAD
0922C:  MOVFF  3AD,44F
09230:  MOVLW  01
09232:  MOVLB  4
09234:  MOVWF  x50
09236:  MOVLB  0
09238:  CALL   4B84
0923C:  MOVLW  22
0923E:  BTFSS  F9E.4
09240:  BRA    923E
09242:  MOVWF  FAD
....................       SendDataDisplay(); 
09244:  CALL   3BE4
....................       PruebaEstados=OFF; 
09248:  BCF    xA1.4
....................       GuardaEEPROM=OFF; 
0924A:  BCF    xA2.6
....................       if(RX_Buffer[3]==0x0f || UP){//0f, recibe caracteres ingresados desde el Display 
0924C:  MOVF   33,W
0924E:  SUBLW  0F
09250:  BZ    9258
09252:  BSF    F93.0
09254:  BTFSC  F81.0
09256:  BRA    94DC
....................          delay_ms(5); 
09258:  MOVLW  05
0925A:  MOVLB  4
0925C:  MOVWF  x62
0925E:  MOVLB  0
09260:  CALL   1A6C
....................          if(RX_Buffer[3]==0x0f || UP){ 
09264:  MOVF   33,W
09266:  SUBLW  0F
09268:  BZ    9270
0926A:  BSF    F93.0
0926C:  BTFSC  F81.0
0926E:  BRA    94D6
....................          if(PantallaPrincipal==0){//Si esta en menu principal 
09270:  MOVLB  2
09272:  MOVF   xDD,F
09274:  BTFSS  FD8.2
09276:  BRA    94DA
....................             if(RX_Buffer[4]==0x37){//Ajustes y pasa a solicitud de password de tecnico 
09278:  MOVF   34,W
0927A:  SUBLW  37
0927C:  BNZ   92AA
....................                printf("page Clave"); 
0927E:  MOVLW  14
09280:  MOVWF  FF6
09282:  MOVLW  09
09284:  MOVWF  FF7
09286:  MOVLW  00
09288:  MOVWF  FF8
0928A:  MOVLB  0
0928C:  CALL   3BB2
....................                SendDataDisplay();  
09290:  CALL   3BE4
....................                Op=OFF; 
09294:  BCF    xA2.2
....................                Op2=OFF; 
09296:  BCF    xA2.3
....................                MenuAnt=Menu; 
09298:  MOVFF  35D,35E
....................                TipoClave=1; 
0929C:  MOVLW  01
0929E:  MOVLB  2
092A0:  MOVWF  xDE
....................                RX_Buffer[3]=0x00; 
092A2:  CLRF   33
....................                RX_Buffer2[3]=0x00; 
092A4:  CLRF   3E
....................                Opcion=0; 
092A6:  MOVLB  3
092A8:  CLRF   x64
....................             }if(Opcion==9){// Datos Ciclo 
092AA:  MOVLB  3
092AC:  MOVF   x64,W
092AE:  SUBLW  09
092B0:  BNZ   92DC
....................                printf("page Ciclos"); 
092B2:  MOVLW  20
092B4:  MOVWF  FF6
092B6:  MOVLW  09
092B8:  MOVWF  FF7
092BA:  MOVLW  00
092BC:  MOVWF  FF8
092BE:  MOVLB  0
092C0:  CALL   3BB2
....................                SendDataDisplay();  
092C4:  CALL   3BE4
....................                Op=OFF; 
092C8:  BCF    xA2.2
....................                Op2=OFF; 
092CA:  BCF    xA2.3
....................                MenuAnt=Menu; 
092CC:  MOVFF  35D,35E
....................                RX_Buffer[3]=0x00; 
092D0:  CLRF   33
....................                RX_Buffer2[3]=0x00; 
092D2:  CLRF   3E
....................                Opcion=1; 
092D4:  MOVLW  01
092D6:  MOVLB  3
092D8:  MOVWF  x64
....................             }else if(Opcion==8){// Cambio de Clave 
092DA:  BRA    94D8
092DC:  MOVF   x64,W
092DE:  SUBLW  08
092E0:  BNZ   9310
....................                printf("page Clave"); 
092E2:  MOVLW  2C
092E4:  MOVWF  FF6
092E6:  MOVLW  09
092E8:  MOVWF  FF7
092EA:  MOVLW  00
092EC:  MOVWF  FF8
092EE:  MOVLB  0
092F0:  CALL   3BB2
....................                SendDataDisplay();  
092F4:  CALL   3BE4
....................                Op=OFF; 
092F8:  BCF    xA2.2
....................                Op2=OFF; 
092FA:  BCF    xA2.3
....................                MenuAnt=Menu; 
092FC:  MOVFF  35D,35E
....................                TipoClave=2; 
09300:  MOVLW  02
09302:  MOVLB  2
09304:  MOVWF  xDE
....................                RX_Buffer[3]=0x00; 
09306:  CLRF   33
....................                RX_Buffer2[3]=0x00; 
09308:  CLRF   3E
....................                Opcion=0; 
0930A:  MOVLB  3
0930C:  CLRF   x64
....................             }else if(Opcion==7){//Hora y Fecha 
0930E:  BRA    94D8
09310:  MOVF   x64,W
09312:  SUBLW  07
09314:  BNZ   9352
....................                printf("page Fecha"); 
09316:  MOVLW  38
09318:  MOVWF  FF6
0931A:  MOVLW  09
0931C:  MOVWF  FF7
0931E:  MOVLW  00
09320:  MOVWF  FF8
09322:  MOVLB  0
09324:  CALL   3BB2
....................                SendDataDisplay();      
09328:  CALL   3BE4
....................                PantallaPrincipal=0; 
0932C:  MOVLB  2
0932E:  CLRF   xDD
....................                MenuAnt=Menu; 
09330:  MOVFF  35D,35E
....................                Op=OFF; 
09334:  MOVLB  0
09336:  BCF    xA2.2
....................                Op2=OFF; 
09338:  BCF    xA2.3
....................                DiaTx=Dia; 
0933A:  MOVFF  3AA,3B1
....................                MesTx=Mes; 
0933E:  MOVFF  3A9,3B0
....................                YearTx=Year; 
09342:  MOVFF  3A8,3AF
....................                HoraTx=Hora; 
09346:  MOVFF  3AB,3B2
....................                MinutoTx=Minuto; 
0934A:  MOVFF  3AC,3B3
....................             }else if(Opcion==6){//Test 
0934E:  BRA    94D6
09350:  MOVLB  3
09352:  MOVF   x64,W
09354:  SUBLW  06
09356:  BNZ   9380
....................                printf("page Test"); 
09358:  MOVLW  44
0935A:  MOVWF  FF6
0935C:  MOVLW  09
0935E:  MOVWF  FF7
09360:  MOVLW  00
09362:  MOVWF  FF8
09364:  MOVLB  0
09366:  CALL   3BB2
....................                SendDataDisplay();      
0936A:  CALL   3BE4
....................                PantallaPrincipal=0; 
0936E:  MOVLB  2
09370:  CLRF   xDD
....................                MenuAnt=Menu; 
09372:  MOVFF  35D,35E
....................                Op=OFF; 
09376:  MOVLB  0
09378:  BCF    xA2.2
....................                Op2=OFF; 
0937A:  BCF    xA2.3
....................             }else if(Opcion==5){//Ciclo Personalizado 
0937C:  BRA    94D6
0937E:  MOVLB  3
09380:  MOVF   x64,W
09382:  SUBLW  05
09384:  BNZ   93A8
....................                printf("page CicloPersona"); 
09386:  MOVLW  4E
09388:  MOVWF  FF6
0938A:  MOVLW  09
0938C:  MOVWF  FF7
0938E:  MOVLW  00
09390:  MOVWF  FF8
09392:  MOVLB  0
09394:  CALL   3BB2
....................                SendDataDisplay();  
09398:  CALL   3BE4
....................                MenuAnt=Menu; 
0939C:  MOVFF  35D,35E
....................                Op=OFF; 
093A0:  BCF    xA2.2
....................                Op2=OFF; 
093A2:  BCF    xA2.3
....................             }else if(Opcion==4){//LiquidosB 
093A4:  BRA    94D6
093A6:  MOVLB  3
093A8:  MOVF   x64,W
093AA:  SUBLW  04
093AC:  BNZ   93F6
....................                printf("page Nivel"); 
093AE:  MOVLW  60
093B0:  MOVWF  FF6
093B2:  MOVLW  09
093B4:  MOVWF  FF7
093B6:  MOVLW  00
093B8:  MOVWF  FF8
093BA:  MOVLB  0
093BC:  CALL   3BB2
....................                SendDataDisplay();        
093C0:  CALL   3BE4
....................                ConfiguraCiclo(0,0,0,3,0,0,0,0,1,4,121); 
093C4:  MOVLB  4
093C6:  CLRF   x53
093C8:  CLRF   x54
093CA:  CLRF   x55
093CC:  MOVLW  03
093CE:  MOVWF  x56
093D0:  CLRF   x57
093D2:  CLRF   x58
093D4:  CLRF   x59
093D6:  CLRF   x5A
093D8:  MOVLW  01
093DA:  MOVWF  x5B
093DC:  MOVLW  04
093DE:  MOVWF  x5C
093E0:  MOVLW  79
093E2:  MOVWF  x5D
093E4:  MOVLB  0
093E6:  CALL   5450
....................                Op=OFF; 
093EA:  BCF    xA2.2
....................                Op2=OFF; 
093EC:  BCF    xA2.3
....................                MenuAnt=2; 
093EE:  MOVLW  02
093F0:  MOVLB  3
093F2:  MOVWF  x5E
....................             }else if(Opcion==1){//LiquidosA 
093F4:  BRA    94D8
093F6:  DECFSZ x64,W
093F8:  BRA    9440
....................                printf("page Nivel"); 
093FA:  MOVLW  6C
093FC:  MOVWF  FF6
093FE:  MOVLW  09
09400:  MOVWF  FF7
09402:  MOVLW  00
09404:  MOVWF  FF8
09406:  MOVLB  0
09408:  CALL   3BB2
....................                SendDataDisplay();        
0940C:  CALL   3BE4
....................                ConfiguraCiclo(0,0,5,1,0,0,0,0,1,1,121); 
09410:  MOVLB  4
09412:  CLRF   x53
09414:  CLRF   x54
09416:  MOVLW  05
09418:  MOVWF  x55
0941A:  MOVLW  01
0941C:  MOVWF  x56
0941E:  CLRF   x57
09420:  CLRF   x58
09422:  CLRF   x59
09424:  CLRF   x5A
09426:  MOVWF  x5B
09428:  MOVWF  x5C
0942A:  MOVLW  79
0942C:  MOVWF  x5D
0942E:  MOVLB  0
09430:  CALL   5450
....................                Op=OFF; 
09434:  BCF    xA2.2
....................                Op2=OFF; 
09436:  BCF    xA2.3
....................                MenuAnt=2; 
09438:  MOVLW  02
0943A:  MOVLB  3
0943C:  MOVWF  x5E
....................             }else if(Opcion==3){//Instrumental 
0943E:  BRA    94D8
09440:  MOVF   x64,W
09442:  SUBLW  03
09444:  BNZ   948A
....................                printf("page Funcionamiento"); 
09446:  MOVLW  78
09448:  MOVWF  FF6
0944A:  MOVLW  09
0944C:  MOVWF  FF7
0944E:  MOVLW  00
09450:  MOVWF  FF8
09452:  MOVLB  0
09454:  CALL   3BB2
....................                SendDataDisplay();        
09458:  CALL   3BE4
....................                ConfiguraCiclo(0,0,0,3,0,0,0,3,0,3,121); 
0945C:  MOVLB  4
0945E:  CLRF   x53
09460:  CLRF   x54
09462:  CLRF   x55
09464:  MOVLW  03
09466:  MOVWF  x56
09468:  CLRF   x57
0946A:  CLRF   x58
0946C:  CLRF   x59
0946E:  MOVWF  x5A
09470:  CLRF   x5B
09472:  MOVWF  x5C
09474:  MOVLW  79
09476:  MOVWF  x5D
09478:  MOVLB  0
0947A:  CALL   5450
....................                Op=OFF; 
0947E:  BCF    xA2.2
....................                Op2=OFF; 
09480:  BCF    xA2.3
....................                MenuAnt=Menu; 
09482:  MOVFF  35D,35E
....................                //if(Temperatura>60)TTrampa=TTrampa+5; 
....................             }else if(Opcion==2){//Caucho 
09486:  BRA    94D6
09488:  MOVLB  3
0948A:  MOVF   x64,W
0948C:  SUBLW  02
0948E:  BNZ   94D8
....................                printf("page Funcionamiento"); 
09490:  MOVLW  8C
09492:  MOVWF  FF6
09494:  MOVLW  09
09496:  MOVWF  FF7
09498:  MOVLW  00
0949A:  MOVWF  FF8
0949C:  MOVLB  0
0949E:  CALL   3BB2
....................                SendDataDisplay();        
094A2:  CALL   3BE4
....................                ConfiguraCiclo(0,0,5,1,0,0,3,0,0,2,121); 
094A6:  MOVLB  4
094A8:  CLRF   x53
094AA:  CLRF   x54
094AC:  MOVLW  05
094AE:  MOVWF  x55
094B0:  MOVLW  01
094B2:  MOVWF  x56
094B4:  CLRF   x57
094B6:  CLRF   x58
094B8:  MOVLW  03
094BA:  MOVWF  x59
094BC:  CLRF   x5A
094BE:  CLRF   x5B
094C0:  MOVLW  02
094C2:  MOVWF  x5C
094C4:  MOVLW  79
094C6:  MOVWF  x5D
094C8:  MOVLB  0
094CA:  CALL   5450
....................                Op=OFF; 
094CE:  BCF    xA2.2
....................                Op2=OFF; 
094D0:  BCF    xA2.3
....................                MenuAnt=Menu; 
094D2:  MOVFF  35D,35E
094D6:  MOVLB  3
094D8:  MOVLB  2
....................                //if(Temperatura>60)TTrampa=TTrampa+5; 
....................             } 
....................          } 
....................          } 
....................       }else if(PantallaPrincipal==0){ 
094DA:  BRA    9AD6
094DC:  MOVLB  2
094DE:  MOVF   xDD,F
094E0:  BTFSS  FD8.2
094E2:  BRA    9AD6
....................          if(Opcion>sizeof(iconoGrande)) 
094E4:  MOVLB  3
094E6:  MOVF   x64,W
094E8:  SUBLW  09
094EA:  BC    94F0
....................             Opcion=1; 
094EC:  MOVLW  01
094EE:  MOVWF  x64
....................              
....................          if(Opcion<1) 
094F0:  MOVF   x64,F
094F2:  BNZ   94F8
....................             Opcion=sizeof(iconoGrande); 
094F4:  MOVLW  09
094F6:  MOVWF  x64
....................           
....................          if(Opcion==1){ 
094F8:  DECFSZ x64,W
094FA:  BRA    96A8
....................             printf("bc.pic=%u",iconoGrande[Opcion-1]); 
094FC:  MOVLW  01
094FE:  SUBWF  x64,W
09500:  CLRF   03
09502:  ADDLW  BD
09504:  MOVWF  FE9
09506:  MOVLW  03
09508:  ADDWFC 03,W
0950A:  MOVWF  FEA
0950C:  MOVFF  FEF,449
09510:  MOVLW  A0
09512:  MOVWF  FF6
09514:  MOVLW  09
09516:  MOVWF  FF7
09518:  MOVLW  00
0951A:  MOVWF  FF8
0951C:  MOVLW  07
0951E:  MOVLB  4
09520:  MOVWF  x4F
09522:  MOVLB  0
09524:  CALL   4B26
09528:  MOVFF  449,44F
0952C:  MOVLW  1B
0952E:  MOVLB  4
09530:  MOVWF  x50
09532:  MOVLB  0
09534:  CALL   4B84
....................             SendDataDisplay(); 
09538:  CALL   3BE4
....................             printf("bd.pic=%u",iconoPeque[Opcion]); 
0953C:  CLRF   03
0953E:  MOVLB  3
09540:  MOVF   x64,W
09542:  ADDLW  C6
09544:  MOVWF  FE9
09546:  MOVLW  03
09548:  ADDWFC 03,W
0954A:  MOVWF  FEA
0954C:  MOVFF  FEF,449
09550:  MOVLW  AA
09552:  MOVWF  FF6
09554:  MOVLW  09
09556:  MOVWF  FF7
09558:  MOVLW  00
0955A:  MOVWF  FF8
0955C:  MOVLW  07
0955E:  MOVLB  4
09560:  MOVWF  x4F
09562:  MOVLB  0
09564:  CALL   4B26
09568:  MOVFF  449,44F
0956C:  MOVLW  1B
0956E:  MOVLB  4
09570:  MOVWF  x50
09572:  MOVLB  0
09574:  CALL   4B84
....................             SendDataDisplay(); 
09578:  CALL   3BE4
....................             printf("bi.pic=%u",iconoPeque[sizeof(iconoGrande)-1]); 
0957C:  MOVLW  B4
0957E:  MOVWF  FF6
09580:  MOVLW  09
09582:  MOVWF  FF7
09584:  MOVLW  00
09586:  MOVWF  FF8
09588:  MOVLW  07
0958A:  MOVLB  4
0958C:  MOVWF  x4F
0958E:  MOVLB  0
09590:  CALL   4B26
09594:  MOVFF  3CE,44F
09598:  MOVLW  1B
0959A:  MOVLB  4
0959C:  MOVWF  x50
0959E:  MOVLB  0
095A0:  CALL   4B84
....................             SendDataDisplay(); 
095A4:  CALL   3BE4
....................             printf("bc.pic2=%u",iconoGrande[Opcion-1]); 
095A8:  MOVLW  01
095AA:  MOVLB  3
095AC:  SUBWF  x64,W
095AE:  CLRF   03
095B0:  ADDLW  BD
095B2:  MOVWF  FE9
095B4:  MOVLW  03
095B6:  ADDWFC 03,W
095B8:  MOVWF  FEA
095BA:  MOVFF  FEF,449
095BE:  MOVLW  BE
095C0:  MOVWF  FF6
095C2:  MOVLW  09
095C4:  MOVWF  FF7
095C6:  MOVLW  00
095C8:  MOVWF  FF8
095CA:  MOVLW  08
095CC:  MOVLB  4
095CE:  MOVWF  x4F
095D0:  MOVLB  0
095D2:  CALL   4B26
095D6:  MOVFF  449,44F
095DA:  MOVLW  1B
095DC:  MOVLB  4
095DE:  MOVWF  x50
095E0:  MOVLB  0
095E2:  CALL   4B84
....................             SendDataDisplay(); 
095E6:  CALL   3BE4
....................             printf("bd.pic2=%u",iconoPeque[Opcion]); 
095EA:  CLRF   03
095EC:  MOVLB  3
095EE:  MOVF   x64,W
095F0:  ADDLW  C6
095F2:  MOVWF  FE9
095F4:  MOVLW  03
095F6:  ADDWFC 03,W
095F8:  MOVWF  FEA
095FA:  MOVFF  FEF,449
095FE:  MOVLW  CA
09600:  MOVWF  FF6
09602:  MOVLW  09
09604:  MOVWF  FF7
09606:  MOVLW  00
09608:  MOVWF  FF8
0960A:  MOVLW  08
0960C:  MOVLB  4
0960E:  MOVWF  x4F
09610:  MOVLB  0
09612:  CALL   4B26
09616:  MOVFF  449,44F
0961A:  MOVLW  1B
0961C:  MOVLB  4
0961E:  MOVWF  x50
09620:  MOVLB  0
09622:  CALL   4B84
....................             SendDataDisplay(); 
09626:  CALL   3BE4
....................             printf("bi.pic2=%u",iconoPeque[sizeof(iconoGrande)-1]); 
0962A:  MOVLW  D6
0962C:  MOVWF  FF6
0962E:  MOVLW  09
09630:  MOVWF  FF7
09632:  MOVLW  00
09634:  MOVWF  FF8
09636:  MOVLW  08
09638:  MOVLB  4
0963A:  MOVWF  x4F
0963C:  MOVLB  0
0963E:  CALL   4B26
09642:  MOVFF  3CE,44F
09646:  MOVLW  1B
09648:  MOVLB  4
0964A:  MOVWF  x50
0964C:  MOVLB  0
0964E:  CALL   4B84
....................             SendDataDisplay(); 
09652:  CALL   3BE4
....................             printf("textop.txt=\"%s\"",texto[Opcion-1]); 
09656:  MOVLW  01
09658:  MOVLB  3
0965A:  SUBWF  x64,W
0965C:  MULLW  14
0965E:  MOVF   FF3,W
09660:  CLRF   03
09662:  MOVLB  4
09664:  MOVWF  x49
09666:  MOVLW  E2
09668:  MOVWF  FF6
0966A:  MOVLW  09
0966C:  MOVWF  FF7
0966E:  MOVLW  00
09670:  MOVWF  FF8
09672:  MOVLW  0C
09674:  MOVWF  x4F
09676:  MOVLB  0
09678:  CALL   4B26
0967C:  MOVLW  50
0967E:  MOVWF  FF6
09680:  MOVLW  01
09682:  MOVWF  FF7
09684:  MOVLW  00
09686:  MOVWF  FF8
09688:  MOVLB  4
0968A:  MOVF   x49,W
0968C:  ADDWF  FF6,F
0968E:  MOVLW  00
09690:  ADDWFC FF7,F
09692:  MOVLB  0
09694:  CALL   3BB2
09698:  MOVLW  22
0969A:  BTFSS  F9E.4
0969C:  BRA    969A
0969E:  MOVWF  FAD
....................             SendDataDisplay(); 
096A0:  CALL   3BE4
....................          }else if(Opcion==sizeof(iconoGrande)){ 
096A4:  BRA    9A34
096A6:  MOVLB  3
096A8:  MOVF   x64,W
096AA:  SUBLW  09
096AC:  BTFSS  FD8.2
096AE:  BRA    9860
....................             printf("bc.pic=%u",iconoGrande[Opcion-1]); 
096B0:  MOVLW  01
096B2:  SUBWF  x64,W
096B4:  CLRF   03
096B6:  ADDLW  BD
096B8:  MOVWF  FE9
096BA:  MOVLW  03
096BC:  ADDWFC 03,W
096BE:  MOVWF  FEA
096C0:  MOVFF  FEF,449
096C4:  MOVLW  F2
096C6:  MOVWF  FF6
096C8:  MOVLW  09
096CA:  MOVWF  FF7
096CC:  MOVLW  00
096CE:  MOVWF  FF8
096D0:  MOVLW  07
096D2:  MOVLB  4
096D4:  MOVWF  x4F
096D6:  MOVLB  0
096D8:  CALL   4B26
096DC:  MOVFF  449,44F
096E0:  MOVLW  1B
096E2:  MOVLB  4
096E4:  MOVWF  x50
096E6:  MOVLB  0
096E8:  CALL   4B84
....................             SendDataDisplay(); 
096EC:  CALL   3BE4
....................             printf("bd.pic=%u",iconoPeque[0]); 
096F0:  MOVLW  FC
096F2:  MOVWF  FF6
096F4:  MOVLW  09
096F6:  MOVWF  FF7
096F8:  MOVLW  00
096FA:  MOVWF  FF8
096FC:  MOVLW  07
096FE:  MOVLB  4
09700:  MOVWF  x4F
09702:  MOVLB  0
09704:  CALL   4B26
09708:  MOVFF  3C6,44F
0970C:  MOVLW  1B
0970E:  MOVLB  4
09710:  MOVWF  x50
09712:  MOVLB  0
09714:  CALL   4B84
....................             SendDataDisplay(); 
09718:  CALL   3BE4
....................             printf("bi.pic=%u",iconoPeque[Opcion-2]); 
0971C:  MOVLW  02
0971E:  MOVLB  3
09720:  SUBWF  x64,W
09722:  CLRF   03
09724:  ADDLW  C6
09726:  MOVWF  FE9
09728:  MOVLW  03
0972A:  ADDWFC 03,W
0972C:  MOVWF  FEA
0972E:  MOVFF  FEF,449
09732:  MOVLW  06
09734:  MOVWF  FF6
09736:  MOVLW  0A
09738:  MOVWF  FF7
0973A:  MOVLW  00
0973C:  MOVWF  FF8
0973E:  MOVLW  07
09740:  MOVLB  4
09742:  MOVWF  x4F
09744:  MOVLB  0
09746:  CALL   4B26
0974A:  MOVFF  449,44F
0974E:  MOVLW  1B
09750:  MOVLB  4
09752:  MOVWF  x50
09754:  MOVLB  0
09756:  CALL   4B84
....................             SendDataDisplay(); 
0975A:  CALL   3BE4
....................             printf("bc.pic2=%u",iconoGrande[Opcion-1]); 
0975E:  MOVLW  01
09760:  MOVLB  3
09762:  SUBWF  x64,W
09764:  CLRF   03
09766:  ADDLW  BD
09768:  MOVWF  FE9
0976A:  MOVLW  03
0976C:  ADDWFC 03,W
0976E:  MOVWF  FEA
09770:  MOVFF  FEF,449
09774:  MOVLW  10
09776:  MOVWF  FF6
09778:  MOVLW  0A
0977A:  MOVWF  FF7
0977C:  MOVLW  00
0977E:  MOVWF  FF8
09780:  MOVLW  08
09782:  MOVLB  4
09784:  MOVWF  x4F
09786:  MOVLB  0
09788:  CALL   4B26
0978C:  MOVFF  449,44F
09790:  MOVLW  1B
09792:  MOVLB  4
09794:  MOVWF  x50
09796:  MOVLB  0
09798:  CALL   4B84
....................             SendDataDisplay(); 
0979C:  CALL   3BE4
....................             printf("bd.pic2=%u",iconoPeque[0]); 
097A0:  MOVLW  1C
097A2:  MOVWF  FF6
097A4:  MOVLW  0A
097A6:  MOVWF  FF7
097A8:  MOVLW  00
097AA:  MOVWF  FF8
097AC:  MOVLW  08
097AE:  MOVLB  4
097B0:  MOVWF  x4F
097B2:  MOVLB  0
097B4:  CALL   4B26
097B8:  MOVFF  3C6,44F
097BC:  MOVLW  1B
097BE:  MOVLB  4
097C0:  MOVWF  x50
097C2:  MOVLB  0
097C4:  CALL   4B84
....................             SendDataDisplay(); 
097C8:  CALL   3BE4
....................             printf("bi.pic2=%u",iconoPeque[Opcion-2]); 
097CC:  MOVLW  02
097CE:  MOVLB  3
097D0:  SUBWF  x64,W
097D2:  CLRF   03
097D4:  ADDLW  C6
097D6:  MOVWF  FE9
097D8:  MOVLW  03
097DA:  ADDWFC 03,W
097DC:  MOVWF  FEA
097DE:  MOVFF  FEF,449
097E2:  MOVLW  28
097E4:  MOVWF  FF6
097E6:  MOVLW  0A
097E8:  MOVWF  FF7
097EA:  MOVLW  00
097EC:  MOVWF  FF8
097EE:  MOVLW  08
097F0:  MOVLB  4
097F2:  MOVWF  x4F
097F4:  MOVLB  0
097F6:  CALL   4B26
097FA:  MOVFF  449,44F
097FE:  MOVLW  1B
09800:  MOVLB  4
09802:  MOVWF  x50
09804:  MOVLB  0
09806:  CALL   4B84
....................             SendDataDisplay(); 
0980A:  CALL   3BE4
....................             printf("textop.txt=\"%s\"",texto[Opcion-1]); 
0980E:  MOVLW  01
09810:  MOVLB  3
09812:  SUBWF  x64,W
09814:  MULLW  14
09816:  MOVF   FF3,W
09818:  CLRF   03
0981A:  MOVLB  4
0981C:  MOVWF  x49
0981E:  MOVLW  34
09820:  MOVWF  FF6
09822:  MOVLW  0A
09824:  MOVWF  FF7
09826:  MOVLW  00
09828:  MOVWF  FF8
0982A:  MOVLW  0C
0982C:  MOVWF  x4F
0982E:  MOVLB  0
09830:  CALL   4B26
09834:  MOVLW  50
09836:  MOVWF  FF6
09838:  MOVLW  01
0983A:  MOVWF  FF7
0983C:  MOVLW  00
0983E:  MOVWF  FF8
09840:  MOVLB  4
09842:  MOVF   x49,W
09844:  ADDWF  FF6,F
09846:  MOVLW  00
09848:  ADDWFC FF7,F
0984A:  MOVLB  0
0984C:  CALL   3BB2
09850:  MOVLW  22
09852:  BTFSS  F9E.4
09854:  BRA    9852
09856:  MOVWF  FAD
....................             SendDataDisplay(); 
09858:  CALL   3BE4
....................          }else{ 
0985C:  BRA    9A34
0985E:  MOVLB  3
....................             printf("bc.pic=%u",iconoGrande[Opcion-1]); 
09860:  MOVLW  01
09862:  SUBWF  x64,W
09864:  CLRF   03
09866:  ADDLW  BD
09868:  MOVWF  FE9
0986A:  MOVLW  03
0986C:  ADDWFC 03,W
0986E:  MOVWF  FEA
09870:  MOVFF  FEF,449
09874:  MOVLW  44
09876:  MOVWF  FF6
09878:  MOVLW  0A
0987A:  MOVWF  FF7
0987C:  MOVLW  00
0987E:  MOVWF  FF8
09880:  MOVLW  07
09882:  MOVLB  4
09884:  MOVWF  x4F
09886:  MOVLB  0
09888:  CALL   4B26
0988C:  MOVFF  449,44F
09890:  MOVLW  1B
09892:  MOVLB  4
09894:  MOVWF  x50
09896:  MOVLB  0
09898:  CALL   4B84
....................             SendDataDisplay(); 
0989C:  CALL   3BE4
....................             printf("bd.pic=%u",iconoPeque[Opcion]); 
098A0:  CLRF   03
098A2:  MOVLB  3
098A4:  MOVF   x64,W
098A6:  ADDLW  C6
098A8:  MOVWF  FE9
098AA:  MOVLW  03
098AC:  ADDWFC 03,W
098AE:  MOVWF  FEA
098B0:  MOVFF  FEF,449
098B4:  MOVLW  4E
098B6:  MOVWF  FF6
098B8:  MOVLW  0A
098BA:  MOVWF  FF7
098BC:  MOVLW  00
098BE:  MOVWF  FF8
098C0:  MOVLW  07
098C2:  MOVLB  4
098C4:  MOVWF  x4F
098C6:  MOVLB  0
098C8:  CALL   4B26
098CC:  MOVFF  449,44F
098D0:  MOVLW  1B
098D2:  MOVLB  4
098D4:  MOVWF  x50
098D6:  MOVLB  0
098D8:  CALL   4B84
....................             SendDataDisplay(); 
098DC:  CALL   3BE4
....................             printf("bi.pic=%u",iconoPeque[Opcion-2]); 
098E0:  MOVLW  02
098E2:  MOVLB  3
098E4:  SUBWF  x64,W
098E6:  CLRF   03
098E8:  ADDLW  C6
098EA:  MOVWF  FE9
098EC:  MOVLW  03
098EE:  ADDWFC 03,W
098F0:  MOVWF  FEA
098F2:  MOVFF  FEF,449
098F6:  MOVLW  58
098F8:  MOVWF  FF6
098FA:  MOVLW  0A
098FC:  MOVWF  FF7
098FE:  MOVLW  00
09900:  MOVWF  FF8
09902:  MOVLW  07
09904:  MOVLB  4
09906:  MOVWF  x4F
09908:  MOVLB  0
0990A:  CALL   4B26
0990E:  MOVFF  449,44F
09912:  MOVLW  1B
09914:  MOVLB  4
09916:  MOVWF  x50
09918:  MOVLB  0
0991A:  CALL   4B84
....................             SendDataDisplay(); 
0991E:  CALL   3BE4
....................             printf("bc.pic2=%u",iconoGrande[Opcion-1]); 
09922:  MOVLW  01
09924:  MOVLB  3
09926:  SUBWF  x64,W
09928:  CLRF   03
0992A:  ADDLW  BD
0992C:  MOVWF  FE9
0992E:  MOVLW  03
09930:  ADDWFC 03,W
09932:  MOVWF  FEA
09934:  MOVFF  FEF,449
09938:  MOVLW  62
0993A:  MOVWF  FF6
0993C:  MOVLW  0A
0993E:  MOVWF  FF7
09940:  MOVLW  00
09942:  MOVWF  FF8
09944:  MOVLW  08
09946:  MOVLB  4
09948:  MOVWF  x4F
0994A:  MOVLB  0
0994C:  CALL   4B26
09950:  MOVFF  449,44F
09954:  MOVLW  1B
09956:  MOVLB  4
09958:  MOVWF  x50
0995A:  MOVLB  0
0995C:  CALL   4B84
....................             SendDataDisplay(); 
09960:  CALL   3BE4
....................             printf("bd.pic2=%u",iconoPeque[Opcion]); 
09964:  CLRF   03
09966:  MOVLB  3
09968:  MOVF   x64,W
0996A:  ADDLW  C6
0996C:  MOVWF  FE9
0996E:  MOVLW  03
09970:  ADDWFC 03,W
09972:  MOVWF  FEA
09974:  MOVFF  FEF,449
09978:  MOVLW  6E
0997A:  MOVWF  FF6
0997C:  MOVLW  0A
0997E:  MOVWF  FF7
09980:  MOVLW  00
09982:  MOVWF  FF8
09984:  MOVLW  08
09986:  MOVLB  4
09988:  MOVWF  x4F
0998A:  MOVLB  0
0998C:  CALL   4B26
09990:  MOVFF  449,44F
09994:  MOVLW  1B
09996:  MOVLB  4
09998:  MOVWF  x50
0999A:  MOVLB  0
0999C:  CALL   4B84
....................             SendDataDisplay(); 
099A0:  CALL   3BE4
....................             printf("bi.pic2=%u",iconoPeque[Opcion-2]); 
099A4:  MOVLW  02
099A6:  MOVLB  3
099A8:  SUBWF  x64,W
099AA:  CLRF   03
099AC:  ADDLW  C6
099AE:  MOVWF  FE9
099B0:  MOVLW  03
099B2:  ADDWFC 03,W
099B4:  MOVWF  FEA
099B6:  MOVFF  FEF,449
099BA:  MOVLW  7A
099BC:  MOVWF  FF6
099BE:  MOVLW  0A
099C0:  MOVWF  FF7
099C2:  MOVLW  00
099C4:  MOVWF  FF8
099C6:  MOVLW  08
099C8:  MOVLB  4
099CA:  MOVWF  x4F
099CC:  MOVLB  0
099CE:  CALL   4B26
099D2:  MOVFF  449,44F
099D6:  MOVLW  1B
099D8:  MOVLB  4
099DA:  MOVWF  x50
099DC:  MOVLB  0
099DE:  CALL   4B84
....................             SendDataDisplay(); 
099E2:  CALL   3BE4
....................             printf("textop.txt=\"%s\"",texto[Opcion-1]); 
099E6:  MOVLW  01
099E8:  MOVLB  3
099EA:  SUBWF  x64,W
099EC:  MULLW  14
099EE:  MOVF   FF3,W
099F0:  CLRF   03
099F2:  MOVLB  4
099F4:  MOVWF  x49
099F6:  MOVLW  86
099F8:  MOVWF  FF6
099FA:  MOVLW  0A
099FC:  MOVWF  FF7
099FE:  MOVLW  00
09A00:  MOVWF  FF8
09A02:  MOVLW  0C
09A04:  MOVWF  x4F
09A06:  MOVLB  0
09A08:  CALL   4B26
09A0C:  MOVLW  50
09A0E:  MOVWF  FF6
09A10:  MOVLW  01
09A12:  MOVWF  FF7
09A14:  MOVLW  00
09A16:  MOVWF  FF8
09A18:  MOVLB  4
09A1A:  MOVF   x49,W
09A1C:  ADDWF  FF6,F
09A1E:  MOVLW  00
09A20:  ADDWFC FF7,F
09A22:  MOVLB  0
09A24:  CALL   3BB2
09A28:  MOVLW  22
09A2A:  BTFSS  F9E.4
09A2C:  BRA    9A2A
09A2E:  MOVWF  FAD
....................             SendDataDisplay(); 
09A30:  CALL   3BE4
....................          } 
....................           
....................          printf("ttitulo.txt=\"SELECCIONE SU CICLO\""); 
09A34:  MOVLW  96
09A36:  MOVWF  FF6
09A38:  MOVLW  0A
09A3A:  MOVWF  FF7
09A3C:  MOVLW  00
09A3E:  MOVWF  FF8
09A40:  CALL   3BB2
....................          SendDataDisplay(); 
09A44:  CALL   3BE4
....................           
....................          if(RIGHT){ 
09A48:  BSF    F93.2
09A4A:  BTFSC  F81.2
09A4C:  BRA    9A66
....................             delay_ms(20); 
09A4E:  MOVLW  14
09A50:  MOVLB  4
09A52:  MOVWF  x62
09A54:  MOVLB  0
09A56:  CALL   1A6C
....................             if(RIGHT){ 
09A5A:  BSF    F93.2
09A5C:  BTFSC  F81.2
09A5E:  BRA    9A66
....................                Opcion++; 
09A60:  MOVLB  3
09A62:  INCF   x64,F
09A64:  MOVLB  0
....................             } 
....................          } 
....................           
....................          if(LEFT){ 
09A66:  BSF    F93.3
09A68:  BTFSC  F81.3
09A6A:  BRA    9A84
....................             delay_ms(20); 
09A6C:  MOVLW  14
09A6E:  MOVLB  4
09A70:  MOVWF  x62
09A72:  MOVLB  0
09A74:  CALL   1A6C
....................             if(LEFT){ 
09A78:  BSF    F93.3
09A7A:  BTFSC  F81.3
09A7C:  BRA    9A84
....................                Opcion--; 
09A7E:  MOVLB  3
09A80:  DECF   x64,F
09A82:  MOVLB  0
....................             } 
....................          } 
....................           
....................          if(RX_Buffer[4]==0x0d && !Op){//Tecla Derecha Oprimida 
09A84:  MOVF   34,W
09A86:  SUBLW  0D
09A88:  BNZ   9A98
09A8A:  BTFSC  xA2.2
09A8C:  BRA    9A98
....................             Opcion++; 
09A8E:  MOVLB  3
09A90:  INCF   x64,F
....................             RX_Buffer[4]=0x00; 
09A92:  CLRF   34
....................             Op=ON; 
09A94:  MOVLB  0
09A96:  BSF    xA2.2
....................             //BorraBuffer(); 
....................          } 
....................           
....................          if(RX_Buffer[4]==0x0c && Op){//Tecla Derecha Oprimida 
09A98:  MOVF   34,W
09A9A:  SUBLW  0C
09A9C:  BNZ   9AAC
09A9E:  BTFSS  xA2.2
09AA0:  BRA    9AAC
....................             Opcion++; 
09AA2:  MOVLB  3
09AA4:  INCF   x64,F
....................             RX_Buffer[4]=0x00; 
09AA6:  CLRF   34
....................             Op=OFF; 
09AA8:  MOVLB  0
09AAA:  BCF    xA2.2
....................             //BorraBuffer(); 
....................          } 
....................           
....................          if(RX_Buffer[4]==0x0e && !Op2){//Tecla Izquierda Oprimida 
09AAC:  MOVF   34,W
09AAE:  SUBLW  0E
09AB0:  BNZ   9AC0
09AB2:  BTFSC  xA2.3
09AB4:  BRA    9AC0
....................             Opcion--; 
09AB6:  MOVLB  3
09AB8:  DECF   x64,F
....................             RX_Buffer[4]=0x00; 
09ABA:  CLRF   34
....................             Op2=ON; 
09ABC:  MOVLB  0
09ABE:  BSF    xA2.3
....................             //BorraBuffer(); 
....................          } 
....................           
....................          if(RX_Buffer[4]==0x0f && Op2){//Tecla Izquierda Oprimida 
09AC0:  MOVF   34,W
09AC2:  SUBLW  0F
09AC4:  BNZ   9AD4
09AC6:  BTFSS  xA2.3
09AC8:  BRA    9AD4
....................             Opcion--; 
09ACA:  MOVLB  3
09ACC:  DECF   x64,F
....................             RX_Buffer[4]=0x00; 
09ACE:  CLRF   34
....................             Op2=OFF; 
09AD0:  MOVLB  0
09AD2:  BCF    xA2.3
09AD4:  MOVLB  2
....................             //BorraBuffer(); 
....................          } 
....................           
....................       } 
....................          if(RIGHT && LEFT){ 
09AD6:  BSF    F93.2
09AD8:  BTFSC  F81.2
09ADA:  BRA    9B28
09ADC:  BSF    F93.3
09ADE:  BTFSC  F81.3
09AE0:  BRA    9B28
....................             delay_ms(20); 
09AE2:  MOVLW  14
09AE4:  MOVLB  4
09AE6:  MOVWF  x62
09AE8:  MOVLB  0
09AEA:  CALL   1A6C
....................             if(RIGHT && LEFT){ 
09AEE:  BSF    F93.2
09AF0:  BTFSC  F81.2
09AF2:  BRA    9B26
09AF4:  BSF    F93.3
09AF6:  BTFSC  F81.3
09AF8:  BRA    9B26
....................                printf("page Clave"); 
09AFA:  MOVLW  B8
09AFC:  MOVWF  FF6
09AFE:  MOVLW  0A
09B00:  MOVWF  FF7
09B02:  MOVLW  00
09B04:  MOVWF  FF8
09B06:  CALL   3BB2
....................                SendDataDisplay();  
09B0A:  CALL   3BE4
....................                Op=OFF; 
09B0E:  BCF    xA2.2
....................                Op2=OFF; 
09B10:  BCF    xA2.3
....................                MenuAnt=Menu; 
09B12:  MOVFF  35D,35E
....................                TipoClave=1; 
09B16:  MOVLW  01
09B18:  MOVLB  2
09B1A:  MOVWF  xDE
....................                RX_Buffer[3]=0x00; 
09B1C:  CLRF   33
....................                RX_Buffer2[3]=0x00; 
09B1E:  CLRF   3E
....................                Opcion=0; 
09B20:  MOVLB  3
09B22:  CLRF   x64
09B24:  MOVLB  0
09B26:  MOVLB  2
....................             } 
....................          } 
....................    } 
.................... //_--------------------------------------------------------------------------------------------------------------------------------------------------------        
....................  
.................... //_-------------------------------------------------------------------------------------------------------------------------------------------------------- 
....................     if(Menu==2){ //Menu de Tiempo Esterilizacion      
09B28:  MOVLB  3
09B2A:  MOVF   x5D,W
09B2C:  SUBLW  02
09B2E:  BTFSS  FD8.2
09B30:  BRA    A05C
....................       printf("fecha.txt=\"T:%3.1fC Fecha:%02u/%02u/20%02u Hora: %02u:%02u:%02u\"",Temperatura,Dia,Mes,Year,Hora,Minuto,Segundo); 
09B32:  MOVLW  C4
09B34:  MOVWF  FF6
09B36:  MOVLW  0A
09B38:  MOVWF  FF7
09B3A:  MOVLW  00
09B3C:  MOVWF  FF8
09B3E:  MOVLW  0D
09B40:  MOVLB  4
09B42:  MOVWF  x4F
09B44:  MOVLB  0
09B46:  CALL   4B26
09B4A:  MOVLW  02
09B4C:  MOVWF  FE9
09B4E:  MOVFF  328,452
09B52:  MOVFF  327,451
09B56:  MOVFF  326,450
09B5A:  MOVFF  325,44F
09B5E:  MOVLW  01
09B60:  MOVLB  4
09B62:  MOVWF  x53
09B64:  MOVLB  0
09B66:  CALL   4CC6
09B6A:  MOVLW  D6
09B6C:  MOVWF  FF6
09B6E:  MOVLW  0A
09B70:  MOVWF  FF7
09B72:  MOVLW  00
09B74:  MOVWF  FF8
09B76:  MOVLW  09
09B78:  MOVLB  4
09B7A:  MOVWF  x4F
09B7C:  MOVLB  0
09B7E:  CALL   4B26
09B82:  MOVFF  3AA,44F
09B86:  MOVLW  01
09B88:  MOVLB  4
09B8A:  MOVWF  x50
09B8C:  MOVLB  0
09B8E:  CALL   4B84
09B92:  MOVLW  2F
09B94:  BTFSS  F9E.4
09B96:  BRA    9B94
09B98:  MOVWF  FAD
09B9A:  MOVFF  3A9,44F
09B9E:  MOVLW  01
09BA0:  MOVLB  4
09BA2:  MOVWF  x50
09BA4:  MOVLB  0
09BA6:  CALL   4B84
09BAA:  MOVLW  2F
09BAC:  BTFSS  F9E.4
09BAE:  BRA    9BAC
09BB0:  MOVWF  FAD
09BB2:  MOVLW  32
09BB4:  BTFSS  F9E.4
09BB6:  BRA    9BB4
09BB8:  MOVWF  FAD
09BBA:  MOVLW  30
09BBC:  BTFSS  F9E.4
09BBE:  BRA    9BBC
09BC0:  MOVWF  FAD
09BC2:  MOVFF  3A8,44F
09BC6:  MOVLW  01
09BC8:  MOVLB  4
09BCA:  MOVWF  x50
09BCC:  MOVLB  0
09BCE:  CALL   4B84
09BD2:  MOVLW  EF
09BD4:  MOVWF  FF6
09BD6:  MOVLW  0A
09BD8:  MOVWF  FF7
09BDA:  MOVLW  00
09BDC:  MOVWF  FF8
09BDE:  MOVLW  07
09BE0:  MOVLB  4
09BE2:  MOVWF  x4F
09BE4:  MOVLB  0
09BE6:  CALL   4B26
09BEA:  MOVFF  3AB,44F
09BEE:  MOVLW  01
09BF0:  MOVLB  4
09BF2:  MOVWF  x50
09BF4:  MOVLB  0
09BF6:  CALL   4B84
09BFA:  MOVLW  3A
09BFC:  BTFSS  F9E.4
09BFE:  BRA    9BFC
09C00:  MOVWF  FAD
09C02:  MOVFF  3AC,44F
09C06:  MOVLW  01
09C08:  MOVLB  4
09C0A:  MOVWF  x50
09C0C:  MOVLB  0
09C0E:  CALL   4B84
09C12:  MOVLW  3A
09C14:  BTFSS  F9E.4
09C16:  BRA    9C14
09C18:  MOVWF  FAD
09C1A:  MOVFF  3AD,44F
09C1E:  MOVLW  01
09C20:  MOVLB  4
09C22:  MOVWF  x50
09C24:  MOVLB  0
09C26:  CALL   4B84
09C2A:  MOVLW  22
09C2C:  BTFSS  F9E.4
09C2E:  BRA    9C2C
09C30:  MOVWF  FAD
....................       SendDataDisplay(); 
09C32:  CALL   3BE4
....................          if(RX_Buffer[4]==0x0a){//Selecciono Minutos 
09C36:  MOVF   34,W
09C38:  SUBLW  0A
09C3A:  BNZ   9C40
....................             Minutos=ON; 
09C3C:  BSF    xA2.4
....................             Segundos=OFF; 
09C3E:  BCF    xA2.5
....................          } 
....................           
....................          if(RX_Buffer[4]==0x0b){//Selecciono Segundos 
09C40:  MOVF   34,W
09C42:  SUBLW  0B
09C44:  BNZ   9C4A
....................             Segundos=ON; 
09C46:  BSF    xA2.5
....................             Minutos=OFF; 
09C48:  BCF    xA2.4
....................          }            
....................           
....................          if(RX_Buffer[4]==0x11 || LEFT){//Selecciono Regresar 
09C4A:  MOVF   34,W
09C4C:  SUBLW  11
09C4E:  BZ    9C56
09C50:  BSF    F93.3
09C52:  BTFSC  F81.3
09C54:  BRA    9DE0
....................             delay_ms(100); 
09C56:  MOVLW  64
09C58:  MOVLB  4
09C5A:  MOVWF  x62
09C5C:  MOVLB  0
09C5E:  CALL   1A6C
....................             if(RX_Buffer[4]==0x11 || LEFT){ 
09C62:  MOVF   34,W
09C64:  SUBLW  11
09C66:  BZ    9C6E
09C68:  BSF    F93.3
09C6A:  BTFSC  F81.3
09C6C:  BRA    9DE0
....................                Segundos=OFF; 
09C6E:  BCF    xA2.5
....................                Minutos=OFF; 
09C70:  BCF    xA2.4
....................                printf("page CicloPersona"); 
09C72:  MOVLW  06
09C74:  MOVWF  FF6
09C76:  MOVLW  0B
09C78:  MOVWF  FF7
09C7A:  MOVLW  00
09C7C:  MOVWF  FF8
09C7E:  CALL   3BB2
....................                SendDataDisplay();   
09C82:  CALL   3BE4
....................                PantallaPrincipal=1; 
09C86:  MOVLW  01
09C88:  MOVLB  2
09C8A:  MOVWF  xDD
....................                Op=OFF; 
09C8C:  MOVLB  0
09C8E:  BCF    xA2.2
....................                Op2=OFF; 
09C90:  BCF    xA2.3
....................                if(!GuardaEEPROM){ 
09C92:  BTFSC  xA2.6
09C94:  BRA    9DE0
....................                   CiclosPersonalizados[CicloLibre-1].Minutoest=Testerilizacionp[2]+(Testerilizacionp[3]*10); 
09C96:  MOVLW  01
09C98:  MOVLB  3
09C9A:  SUBWF  x3B,W
09C9C:  MULLW  0A
09C9E:  MOVF   FF3,W
09CA0:  MOVLB  4
09CA2:  CLRF   x4A
09CA4:  MOVWF  x49
09CA6:  MOVLW  09
09CA8:  ADDWF  x49,W
09CAA:  MOVWF  01
09CAC:  MOVLW  00
09CAE:  ADDWFC x4A,W
09CB0:  MOVWF  03
09CB2:  MOVF   01,W
09CB4:  ADDLW  21
09CB6:  MOVWF  FE9
09CB8:  MOVLW  04
09CBA:  ADDWFC 03,W
09CBC:  MOVWF  FEA
09CBE:  MOVFF  B9,44B
09CC2:  MOVLW  0A
09CC4:  MOVWF  x4C
09CC6:  MOVLB  0
09CC8:  CALL   30AC
09CCC:  MOVF   01,W
09CCE:  ADDWF  xB8,W
09CD0:  MOVWF  FEF
....................                   CiclosPersonalizados[CicloLibre-1].Segundoest=Testerilizacionp[0]+(Testerilizacionp[1]*10); 
09CD2:  MOVLW  01
09CD4:  MOVLB  3
09CD6:  SUBWF  x3B,W
09CD8:  MULLW  0A
09CDA:  MOVF   FF3,W
09CDC:  MOVLB  4
09CDE:  CLRF   x4A
09CE0:  MOVWF  x49
09CE2:  MOVLW  03
09CE4:  ADDWF  x49,W
09CE6:  MOVWF  01
09CE8:  MOVLW  00
09CEA:  ADDWFC x4A,W
09CEC:  MOVWF  03
09CEE:  MOVF   01,W
09CF0:  ADDLW  21
09CF2:  MOVWF  FE9
09CF4:  MOVLW  04
09CF6:  ADDWFC 03,W
09CF8:  MOVWF  FEA
09CFA:  MOVFF  B7,44B
09CFE:  MOVLW  0A
09D00:  MOVWF  x4C
09D02:  MOVLB  0
09D04:  CALL   30AC
09D08:  MOVF   01,W
09D0A:  ADDWF  xB6,W
09D0C:  MOVWF  FEF
....................                   write_eeprom(102+((CicloLibre-1)*8),Testerilizacionp[2]+(Testerilizacionp[3]*10)); 
09D0E:  MOVLW  01
09D10:  MOVLB  3
09D12:  SUBWF  x3B,W
09D14:  MULLW  08
09D16:  MOVF   FF3,W
09D18:  ADDLW  66
09D1A:  MOVLB  4
09D1C:  MOVWF  x49
09D1E:  MOVFF  B9,44B
09D22:  MOVLW  0A
09D24:  MOVWF  x4C
09D26:  MOVLB  0
09D28:  CALL   30AC
09D2C:  MOVF   01,W
09D2E:  ADDWF  xB8,W
09D30:  MOVLB  4
09D32:  MOVWF  x4A
09D34:  CLRF   FAA
09D36:  MOVFF  449,FA9
09D3A:  MOVFF  44A,FA8
09D3E:  BCF    FA6.6
09D40:  BCF    FA6.7
09D42:  BSF    FA6.2
09D44:  MOVF   FF2,W
09D46:  MOVWF  00
09D48:  BCF    FF2.6
09D4A:  BCF    FF2.7
09D4C:  MOVLB  F
09D4E:  MOVLW  55
09D50:  MOVWF  FA7
09D52:  MOVLW  AA
09D54:  MOVWF  FA7
09D56:  BSF    FA6.1
09D58:  BTFSC  FA6.1
09D5A:  BRA    9D58
09D5C:  BCF    FA6.2
09D5E:  MOVF   00,W
09D60:  IORWF  FF2,F
....................                   delay_ms(10); 
09D62:  MOVLW  0A
09D64:  MOVLB  4
09D66:  MOVWF  x62
09D68:  MOVLB  0
09D6A:  CALL   1A6C
....................                   write_eeprom(103+((CicloLibre-1)*8),Testerilizacionp[0]+(Testerilizacionp[1]*10)); 
09D6E:  MOVLW  01
09D70:  MOVLB  3
09D72:  SUBWF  x3B,W
09D74:  MULLW  08
09D76:  MOVF   FF3,W
09D78:  ADDLW  67
09D7A:  MOVLB  4
09D7C:  MOVWF  x49
09D7E:  MOVFF  B7,44B
09D82:  MOVLW  0A
09D84:  MOVWF  x4C
09D86:  MOVLB  0
09D88:  CALL   30AC
09D8C:  MOVF   01,W
09D8E:  ADDWF  xB6,W
09D90:  MOVLB  4
09D92:  MOVWF  x4A
09D94:  CLRF   FAA
09D96:  MOVFF  449,FA9
09D9A:  MOVFF  44A,FA8
09D9E:  BCF    FA6.6
09DA0:  BCF    FA6.7
09DA2:  BSF    FA6.2
09DA4:  MOVF   FF2,W
09DA6:  MOVWF  00
09DA8:  BCF    FF2.6
09DAA:  BCF    FF2.7
09DAC:  MOVLB  F
09DAE:  MOVLW  55
09DB0:  MOVWF  FA7
09DB2:  MOVLW  AA
09DB4:  MOVWF  FA7
09DB6:  BSF    FA6.1
09DB8:  BTFSC  FA6.1
09DBA:  BRA    9DB8
09DBC:  BCF    FA6.2
09DBE:  MOVF   00,W
09DC0:  IORWF  FF2,F
....................                   delay_ms(10); 
09DC2:  MOVLW  0A
09DC4:  MOVLB  4
09DC6:  MOVWF  x62
09DC8:  MOVLB  0
09DCA:  CALL   1A6C
....................                   Testerilizacion[0]=Testerilizacionp[0]; 
09DCE:  MOVFF  B6,B1
....................                   Testerilizacion[1]=Testerilizacionp[1]; 
09DD2:  MOVFF  B7,B2
....................                   Testerilizacion[2]=Testerilizacionp[2]; 
09DD6:  MOVFF  B8,B3
....................                   Testerilizacion[3]=Testerilizacionp[3];                   
09DDA:  MOVFF  B9,B4
....................                   GuardaEEPROM=ON; 
09DDE:  BSF    xA2.6
....................                } 
....................             } 
....................          } 
....................           
....................          if(RIGHT){ 
09DE0:  BSF    F93.2
09DE2:  BTFSC  F81.2
09DE4:  BRA    9E5A
....................             delay_ms(100); 
09DE6:  MOVLW  64
09DE8:  MOVLB  4
09DEA:  MOVWF  x62
09DEC:  MOVLB  0
09DEE:  CALL   1A6C
....................             if(RIGHT){ 
09DF2:  BSF    F93.2
09DF4:  BTFSC  F81.2
09DF6:  BRA    9E5A
....................                if(!Segundos){ 
09DF8:  BTFSC  xA2.5
09DFA:  BRA    9E2A
....................                   Segundos=ON; 
09DFC:  BSF    xA2.5
....................                   Minutos=OFF; 
09DFE:  BCF    xA2.4
....................                   printf("tsecest.pco=65535"); 
09E00:  MOVLW  18
09E02:  MOVWF  FF6
09E04:  MOVLW  0B
09E06:  MOVWF  FF7
09E08:  MOVLW  00
09E0A:  MOVWF  FF8
09E0C:  CALL   3BB2
....................                   SendDataDisplay();   
09E10:  CALL   3BE4
....................                   printf("tminest.pco=0"); 
09E14:  MOVLW  2A
09E16:  MOVWF  FF6
09E18:  MOVLW  0B
09E1A:  MOVWF  FF7
09E1C:  MOVLW  00
09E1E:  MOVWF  FF8
09E20:  CALL   3BB2
....................                   SendDataDisplay();   
09E24:  CALL   3BE4
....................                }else if(!Minutos){ 
09E28:  BRA    9E5A
09E2A:  BTFSC  xA2.4
09E2C:  BRA    9E5A
....................                   Segundos=OFF; 
09E2E:  BCF    xA2.5
....................                   Minutos=ON; 
09E30:  BSF    xA2.4
....................                   printf("tsecest.pco=0"); 
09E32:  MOVLW  38
09E34:  MOVWF  FF6
09E36:  MOVLW  0B
09E38:  MOVWF  FF7
09E3A:  MOVLW  00
09E3C:  MOVWF  FF8
09E3E:  CALL   3BB2
....................                   SendDataDisplay();   
09E42:  CALL   3BE4
....................                   printf("tminest.pco=65535"); 
09E46:  MOVLW  46
09E48:  MOVWF  FF6
09E4A:  MOVLW  0B
09E4C:  MOVWF  FF7
09E4E:  MOVLW  00
09E50:  MOVWF  FF8
09E52:  CALL   3BB2
....................                   SendDataDisplay();   
09E56:  CALL   3BE4
....................                } 
....................             } 
....................          } 
....................           
....................          if(UP){ 
09E5A:  BSF    F93.0
09E5C:  BTFSC  F81.0
09E5E:  BRA    9EA6
....................             delay_ms(100); 
09E60:  MOVLW  64
09E62:  MOVLB  4
09E64:  MOVWF  x62
09E66:  MOVLB  0
09E68:  CALL   1A6C
....................             if(UP){ 
09E6C:  BSF    F93.0
09E6E:  BTFSC  F81.0
09E70:  BRA    9EA6
....................                if(Segundos){ 
09E72:  BTFSS  xA2.5
09E74:  BRA    9E86
....................                   Testerilizacionp[0]++; 
09E76:  INCF   xB6,F
....................                   if(Testerilizacionp[0]>9){ 
09E78:  BTFSC  xB6.7
09E7A:  BRA    9E86
09E7C:  MOVF   xB6,W
09E7E:  SUBLW  09
09E80:  BC    9E86
....................                      Testerilizacionp[1]++; 
09E82:  INCF   xB7,F
....................                      Testerilizacionp[0]=0; 
09E84:  CLRF   xB6
....................                   } 
....................                } 
....................                if(Minutos){ 
09E86:  BTFSS  xA2.4
09E88:  BRA    9EA6
....................                   Testerilizacionp[2]++; 
09E8A:  INCF   xB8,F
....................                   if(Testerilizacionp[2]>9){ 
09E8C:  BTFSC  xB8.7
09E8E:  BRA    9E9A
09E90:  MOVF   xB8,W
09E92:  SUBLW  09
09E94:  BC    9E9A
....................                      Testerilizacionp[3]++; 
09E96:  INCF   xB9,F
....................                      Testerilizacionp[2]=0; 
09E98:  CLRF   xB8
....................                   } 
....................                   if(Testerilizacionp[3]>9){                      
09E9A:  BTFSC  xB9.7
09E9C:  BRA    9EA6
09E9E:  MOVF   xB9,W
09EA0:  SUBLW  09
09EA2:  BC    9EA6
....................                      Testerilizacionp[3]=0; 
09EA4:  CLRF   xB9
....................                   } 
....................                }     
....................             } 
....................          } 
....................           
....................          if(DOWN){ 
09EA6:  BSF    F93.1
09EA8:  BTFSC  F81.1
09EAA:  BRA    9EEC
....................             delay_ms(100); 
09EAC:  MOVLW  64
09EAE:  MOVLB  4
09EB0:  MOVWF  x62
09EB2:  MOVLB  0
09EB4:  CALL   1A6C
....................             if(DOWN){ 
09EB8:  BSF    F93.1
09EBA:  BTFSC  F81.1
09EBC:  BRA    9EEC
....................                if(Segundos){ 
09EBE:  BTFSS  xA2.5
09EC0:  BRA    9ED0
....................                   Testerilizacionp[0]--; 
09EC2:  DECF   xB6,F
....................                   if(Testerilizacionp[0]<0){ 
09EC4:  BTFSC  xB6.7
09EC6:  BRA    9ECA
09EC8:  BRA    9ED0
....................                      Testerilizacionp[1]--; 
09ECA:  DECF   xB7,F
....................                      Testerilizacionp[0]=9; 
09ECC:  MOVLW  09
09ECE:  MOVWF  xB6
....................                   } 
....................                } 
....................                if(Minutos){ 
09ED0:  BTFSS  xA2.4
09ED2:  BRA    9EEC
....................                   Testerilizacionp[2]--; 
09ED4:  DECF   xB8,F
....................                   if(Testerilizacionp[2]<0){ 
09ED6:  BTFSC  xB8.7
09ED8:  BRA    9EDC
09EDA:  BRA    9EE2
....................                      Testerilizacionp[3]--; 
09EDC:  DECF   xB9,F
....................                      Testerilizacionp[2]=9; 
09EDE:  MOVLW  09
09EE0:  MOVWF  xB8
....................                   } 
....................                   if(Testerilizacionp[3]<0){ 
09EE2:  BTFSC  xB9.7
09EE4:  BRA    9EE8
09EE6:  BRA    9EEC
....................                      Testerilizacionp[3]=9; 
09EE8:  MOVLW  09
09EEA:  MOVWF  xB9
....................                   } 
....................                }     
....................             } 
....................          } 
....................           
....................          if(RX_Buffer[4]==0x0c || RX_Buffer[4]==0x0d){//Tecla Derecha Oprimida 
09EEC:  MOVF   34,W
09EEE:  SUBLW  0C
09EF0:  BZ    9EF8
09EF2:  MOVF   34,W
09EF4:  SUBLW  0D
09EF6:  BNZ   9F30
....................             if(Segundos){ 
09EF8:  BTFSS  xA2.5
09EFA:  BRA    9F0C
....................                Testerilizacionp[0]++; 
09EFC:  INCF   xB6,F
....................                if(Testerilizacionp[0]>9){ 
09EFE:  BTFSC  xB6.7
09F00:  BRA    9F0C
09F02:  MOVF   xB6,W
09F04:  SUBLW  09
09F06:  BC    9F0C
....................                   Testerilizacionp[1]++; 
09F08:  INCF   xB7,F
....................                   Testerilizacionp[0]=0; 
09F0A:  CLRF   xB6
....................                } 
....................             } 
....................             if(Minutos){ 
09F0C:  BTFSS  xA2.4
09F0E:  BRA    9F2C
....................                Testerilizacionp[2]++; 
09F10:  INCF   xB8,F
....................                if(Testerilizacionp[2]>9){ 
09F12:  BTFSC  xB8.7
09F14:  BRA    9F20
09F16:  MOVF   xB8,W
09F18:  SUBLW  09
09F1A:  BC    9F20
....................                   Testerilizacionp[3]++; 
09F1C:  INCF   xB9,F
....................                   Testerilizacionp[2]=0; 
09F1E:  CLRF   xB8
....................                } 
....................                if(Testerilizacionp[3]>9){                   
09F20:  BTFSC  xB9.7
09F22:  BRA    9F2C
09F24:  MOVF   xB9,W
09F26:  SUBLW  09
09F28:  BC    9F2C
....................                   Testerilizacionp[3]=0; 
09F2A:  CLRF   xB9
....................                } 
....................             } 
....................             RX_Buffer[4]=0x00;   
09F2C:  CLRF   34
....................             RX_Buffer2[4]=0x00; 
09F2E:  CLRF   3F
....................          } 
....................           
....................          if(RX_Buffer[4]==0x0f || RX_Buffer[4]==0x0e){//Tecla Izquierda Oprimida 
09F30:  MOVF   34,W
09F32:  SUBLW  0F
09F34:  BZ    9F3C
09F36:  MOVF   34,W
09F38:  SUBLW  0E
09F3A:  BNZ   9F6E
....................              
....................             if(Segundos){ 
09F3C:  BTFSS  xA2.5
09F3E:  BRA    9F4E
....................                Testerilizacionp[0]--; 
09F40:  DECF   xB6,F
....................                if(Testerilizacionp[0]<0){ 
09F42:  BTFSC  xB6.7
09F44:  BRA    9F48
09F46:  BRA    9F4E
....................                   Testerilizacionp[1]--; 
09F48:  DECF   xB7,F
....................                   Testerilizacionp[0]=9; 
09F4A:  MOVLW  09
09F4C:  MOVWF  xB6
....................                } 
....................             } 
....................             if(Minutos){ 
09F4E:  BTFSS  xA2.4
09F50:  BRA    9F6A
....................                Testerilizacionp[2]--; 
09F52:  DECF   xB8,F
....................                if(Testerilizacionp[2]<0){ 
09F54:  BTFSC  xB8.7
09F56:  BRA    9F5A
09F58:  BRA    9F60
....................                   Testerilizacionp[3]--; 
09F5A:  DECF   xB9,F
....................                   Testerilizacionp[2]=9; 
09F5C:  MOVLW  09
09F5E:  MOVWF  xB8
....................                } 
....................                if(Testerilizacionp[3]<0){ 
09F60:  BTFSC  xB9.7
09F62:  BRA    9F66
09F64:  BRA    9F6A
....................                   Testerilizacionp[3]=9; 
09F66:  MOVLW  09
09F68:  MOVWF  xB9
....................                } 
....................             } 
....................             RX_Buffer[4]=0x00;   
09F6A:  CLRF   34
....................             RX_Buffer2[4]=0x00; 
09F6C:  CLRF   3F
....................          } 
....................           
....................          if(Testerilizacionp[0]<0) 
09F6E:  BTFSC  xB6.7
09F70:  BRA    9F74
09F72:  BRA    9F78
....................             Testerilizacionp[0]=9;             
09F74:  MOVLW  09
09F76:  MOVWF  xB6
....................          if(Testerilizacionp[1]<0) 
09F78:  BTFSC  xB7.7
09F7A:  BRA    9F7E
09F7C:  BRA    9F82
....................             Testerilizacionp[1]=5;             
09F7E:  MOVLW  05
09F80:  MOVWF  xB7
....................          if(Testerilizacionp[2]<0) 
09F82:  BTFSC  xB8.7
09F84:  BRA    9F88
09F86:  BRA    9F8C
....................             Testerilizacionp[2]=9;             
09F88:  MOVLW  09
09F8A:  MOVWF  xB8
....................          if(Testerilizacionp[3]<0) 
09F8C:  BTFSC  xB9.7
09F8E:  BRA    9F92
09F90:  BRA    9F96
....................             Testerilizacionp[3]=9;             
09F92:  MOVLW  09
09F94:  MOVWF  xB9
....................           
....................          if(Testerilizacionp[0]>9) 
09F96:  BTFSC  xB6.7
09F98:  BRA    9FA2
09F9A:  MOVF   xB6,W
09F9C:  SUBLW  09
09F9E:  BC    9FA2
....................             Testerilizacionp[0]=0;             
09FA0:  CLRF   xB6
....................          if(Testerilizacionp[1]>5) 
09FA2:  BTFSC  xB7.7
09FA4:  BRA    9FAE
09FA6:  MOVF   xB7,W
09FA8:  SUBLW  05
09FAA:  BC    9FAE
....................             Testerilizacionp[1]=0;             
09FAC:  CLRF   xB7
....................          if(Testerilizacionp[2]>9) 
09FAE:  BTFSC  xB8.7
09FB0:  BRA    9FBA
09FB2:  MOVF   xB8,W
09FB4:  SUBLW  09
09FB6:  BC    9FBA
....................             Testerilizacionp[2]=0;             
09FB8:  CLRF   xB8
....................          if(Testerilizacionp[3]>9) 
09FBA:  BTFSC  xB9.7
09FBC:  BRA    9FC6
09FBE:  MOVF   xB9,W
09FC0:  SUBLW  09
09FC2:  BC    9FC6
....................             Testerilizacionp[3]=0;  
09FC4:  CLRF   xB9
....................              
....................          printf("tminest.txt=\"%02u\"",((Testerilizacionp[3]*10)+Testerilizacionp[2])); 
09FC6:  MOVFF  B9,44B
09FCA:  MOVLW  0A
09FCC:  MOVLB  4
09FCE:  MOVWF  x4C
09FD0:  MOVLB  0
09FD2:  CALL   30AC
09FD6:  MOVF   xB8,W
09FD8:  ADDWF  01,W
09FDA:  MOVLB  4
09FDC:  MOVWF  x49
09FDE:  MOVLW  58
09FE0:  MOVWF  FF6
09FE2:  MOVLW  0B
09FE4:  MOVWF  FF7
09FE6:  MOVLW  00
09FE8:  MOVWF  FF8
09FEA:  MOVLW  0D
09FEC:  MOVWF  x4F
09FEE:  MOVLB  0
09FF0:  CALL   4B26
09FF4:  MOVFF  449,44F
09FF8:  MOVLW  01
09FFA:  MOVLB  4
09FFC:  MOVWF  x50
09FFE:  MOVLB  0
0A000:  CALL   4B84
0A004:  MOVLW  22
0A006:  BTFSS  F9E.4
0A008:  BRA    A006
0A00A:  MOVWF  FAD
....................          SendDataDisplay(); 
0A00C:  CALL   3BE4
....................          printf("tsecest.txt=\"%02u\"",((Testerilizacionp[1]*10)+Testerilizacionp[0])); 
0A010:  MOVFF  B7,44B
0A014:  MOVLW  0A
0A016:  MOVLB  4
0A018:  MOVWF  x4C
0A01A:  MOVLB  0
0A01C:  CALL   30AC
0A020:  MOVF   xB6,W
0A022:  ADDWF  01,W
0A024:  MOVLB  4
0A026:  MOVWF  x49
0A028:  MOVLW  6C
0A02A:  MOVWF  FF6
0A02C:  MOVLW  0B
0A02E:  MOVWF  FF7
0A030:  MOVLW  00
0A032:  MOVWF  FF8
0A034:  MOVLW  0D
0A036:  MOVWF  x4F
0A038:  MOVLB  0
0A03A:  CALL   4B26
0A03E:  MOVFF  449,44F
0A042:  MOVLW  01
0A044:  MOVLB  4
0A046:  MOVWF  x50
0A048:  MOVLB  0
0A04A:  CALL   4B84
0A04E:  MOVLW  22
0A050:  BTFSS  F9E.4
0A052:  BRA    A050
0A054:  MOVWF  FAD
....................          SendDataDisplay(); 
0A056:  CALL   3BE4
0A05A:  MOVLB  3
....................     } 
.................... //_--------------------------------------------------------------------------------------------------------------------------------------------------------        
....................  
.................... //_-------------------------------------------------------------------------------------------------------------------------------------------------------- 
....................     if(Menu==3){ //Menu de Tiempo de Secado 
0A05C:  MOVF   x5D,W
0A05E:  SUBLW  03
0A060:  BTFSS  FD8.2
0A062:  BRA    A55E
....................       printf("fecha.txt=\"T:%3.1fC Fecha:%02u/%02u/20%02u Hora: %02u:%02u:%02u\"",Temperatura,Dia,Mes,Year,Hora,Minuto,Segundo); 
0A064:  MOVLW  80
0A066:  MOVWF  FF6
0A068:  MOVLW  0B
0A06A:  MOVWF  FF7
0A06C:  MOVLW  00
0A06E:  MOVWF  FF8
0A070:  MOVLW  0D
0A072:  MOVLB  4
0A074:  MOVWF  x4F
0A076:  MOVLB  0
0A078:  CALL   4B26
0A07C:  MOVLW  02
0A07E:  MOVWF  FE9
0A080:  MOVFF  328,452
0A084:  MOVFF  327,451
0A088:  MOVFF  326,450
0A08C:  MOVFF  325,44F
0A090:  MOVLW  01
0A092:  MOVLB  4
0A094:  MOVWF  x53
0A096:  MOVLB  0
0A098:  CALL   4CC6
0A09C:  MOVLW  92
0A09E:  MOVWF  FF6
0A0A0:  MOVLW  0B
0A0A2:  MOVWF  FF7
0A0A4:  MOVLW  00
0A0A6:  MOVWF  FF8
0A0A8:  MOVLW  09
0A0AA:  MOVLB  4
0A0AC:  MOVWF  x4F
0A0AE:  MOVLB  0
0A0B0:  CALL   4B26
0A0B4:  MOVFF  3AA,44F
0A0B8:  MOVLW  01
0A0BA:  MOVLB  4
0A0BC:  MOVWF  x50
0A0BE:  MOVLB  0
0A0C0:  CALL   4B84
0A0C4:  MOVLW  2F
0A0C6:  BTFSS  F9E.4
0A0C8:  BRA    A0C6
0A0CA:  MOVWF  FAD
0A0CC:  MOVFF  3A9,44F
0A0D0:  MOVLW  01
0A0D2:  MOVLB  4
0A0D4:  MOVWF  x50
0A0D6:  MOVLB  0
0A0D8:  CALL   4B84
0A0DC:  MOVLW  2F
0A0DE:  BTFSS  F9E.4
0A0E0:  BRA    A0DE
0A0E2:  MOVWF  FAD
0A0E4:  MOVLW  32
0A0E6:  BTFSS  F9E.4
0A0E8:  BRA    A0E6
0A0EA:  MOVWF  FAD
0A0EC:  MOVLW  30
0A0EE:  BTFSS  F9E.4
0A0F0:  BRA    A0EE
0A0F2:  MOVWF  FAD
0A0F4:  MOVFF  3A8,44F
0A0F8:  MOVLW  01
0A0FA:  MOVLB  4
0A0FC:  MOVWF  x50
0A0FE:  MOVLB  0
0A100:  CALL   4B84
0A104:  MOVLW  AB
0A106:  MOVWF  FF6
0A108:  MOVLW  0B
0A10A:  MOVWF  FF7
0A10C:  MOVLW  00
0A10E:  MOVWF  FF8
0A110:  MOVLW  07
0A112:  MOVLB  4
0A114:  MOVWF  x4F
0A116:  MOVLB  0
0A118:  CALL   4B26
0A11C:  MOVFF  3AB,44F
0A120:  MOVLW  01
0A122:  MOVLB  4
0A124:  MOVWF  x50
0A126:  MOVLB  0
0A128:  CALL   4B84
0A12C:  MOVLW  3A
0A12E:  BTFSS  F9E.4
0A130:  BRA    A12E
0A132:  MOVWF  FAD
0A134:  MOVFF  3AC,44F
0A138:  MOVLW  01
0A13A:  MOVLB  4
0A13C:  MOVWF  x50
0A13E:  MOVLB  0
0A140:  CALL   4B84
0A144:  MOVLW  3A
0A146:  BTFSS  F9E.4
0A148:  BRA    A146
0A14A:  MOVWF  FAD
0A14C:  MOVFF  3AD,44F
0A150:  MOVLW  01
0A152:  MOVLB  4
0A154:  MOVWF  x50
0A156:  MOVLB  0
0A158:  CALL   4B84
0A15C:  MOVLW  22
0A15E:  BTFSS  F9E.4
0A160:  BRA    A15E
0A162:  MOVWF  FAD
....................       SendDataDisplay();             
0A164:  CALL   3BE4
....................              
....................          if(RX_Buffer[4]==0x0a){//Selecciono Minutos 
0A168:  MOVF   34,W
0A16A:  SUBLW  0A
0A16C:  BNZ   A172
....................             Minutos=ON; 
0A16E:  BSF    xA2.4
....................             Segundos=OFF; 
0A170:  BCF    xA2.5
....................          } 
....................           
....................          if(RX_Buffer[4]==0x0b){//Selecciono Segundos 
0A172:  MOVF   34,W
0A174:  SUBLW  0B
0A176:  BNZ   A17C
....................             Segundos=ON; 
0A178:  BSF    xA2.5
....................             Minutos=OFF; 
0A17A:  BCF    xA2.4
....................          } 
....................           
....................          if(RX_Buffer[4]==0x11 || LEFT){//Selecciono Regresar 
0A17C:  MOVF   34,W
0A17E:  SUBLW  11
0A180:  BZ    A188
0A182:  BSF    F93.3
0A184:  BTFSC  F81.3
0A186:  BRA    A2F2
....................             Segundos=OFF; 
0A188:  BCF    xA2.5
....................             Minutos=OFF; 
0A18A:  BCF    xA2.4
....................             printf("page CicloPersona"); 
0A18C:  MOVLW  C2
0A18E:  MOVWF  FF6
0A190:  MOVLW  0B
0A192:  MOVWF  FF7
0A194:  MOVLW  00
0A196:  MOVWF  FF8
0A198:  CALL   3BB2
....................             SendDataDisplay();   
0A19C:  CALL   3BE4
....................             //PantallaPrincipal=1; 
....................             Op=OFF; 
0A1A0:  BCF    xA2.2
....................             Op2=OFF; 
0A1A2:  BCF    xA2.3
....................             if(!GuardaEEPROM){ 
0A1A4:  BTFSC  xA2.6
0A1A6:  BRA    A2F2
....................                CiclosPersonalizados[CicloLibre-1].Minutosec=Tsecadop[2]+(Tsecadop[3]*10); 
0A1A8:  MOVLW  01
0A1AA:  MOVLB  3
0A1AC:  SUBWF  x3B,W
0A1AE:  MULLW  0A
0A1B0:  MOVF   FF3,W
0A1B2:  MOVLB  4
0A1B4:  CLRF   x4A
0A1B6:  MOVWF  x49
0A1B8:  MOVLW  04
0A1BA:  ADDWF  x49,W
0A1BC:  MOVWF  01
0A1BE:  MOVLW  00
0A1C0:  ADDWFC x4A,W
0A1C2:  MOVWF  03
0A1C4:  MOVF   01,W
0A1C6:  ADDLW  21
0A1C8:  MOVWF  FE9
0A1CA:  MOVLW  04
0A1CC:  ADDWFC 03,W
0A1CE:  MOVWF  FEA
0A1D0:  MOVFF  C2,44B
0A1D4:  MOVLW  0A
0A1D6:  MOVWF  x4C
0A1D8:  MOVLB  0
0A1DA:  CALL   30AC
0A1DE:  MOVF   01,W
0A1E0:  ADDWF  xC1,W
0A1E2:  MOVWF  FEF
....................                CiclosPersonalizados[CicloLibre-1].Segundosec=Tsecadop[0]+(Tsecadop[1]*10); 
0A1E4:  MOVLW  01
0A1E6:  MOVLB  3
0A1E8:  SUBWF  x3B,W
0A1EA:  MULLW  0A
0A1EC:  MOVF   FF3,W
0A1EE:  MOVLB  4
0A1F0:  CLRF   x4A
0A1F2:  MOVWF  x49
0A1F4:  MOVLW  05
0A1F6:  ADDWF  x49,W
0A1F8:  MOVWF  01
0A1FA:  MOVLW  00
0A1FC:  ADDWFC x4A,W
0A1FE:  MOVWF  03
0A200:  MOVF   01,W
0A202:  ADDLW  21
0A204:  MOVWF  FE9
0A206:  MOVLW  04
0A208:  ADDWFC 03,W
0A20A:  MOVWF  FEA
0A20C:  MOVFF  C0,44B
0A210:  MOVLW  0A
0A212:  MOVWF  x4C
0A214:  MOVLB  0
0A216:  CALL   30AC
0A21A:  MOVF   01,W
0A21C:  ADDWF  xBF,W
0A21E:  MOVWF  FEF
....................                write_eeprom(104+((CicloLibre-1)*8),Tsecadop[2]+(Tsecadop[3]*10)); 
0A220:  MOVLW  01
0A222:  MOVLB  3
0A224:  SUBWF  x3B,W
0A226:  MULLW  08
0A228:  MOVF   FF3,W
0A22A:  ADDLW  68
0A22C:  MOVLB  4
0A22E:  MOVWF  x49
0A230:  MOVFF  C2,44B
0A234:  MOVLW  0A
0A236:  MOVWF  x4C
0A238:  MOVLB  0
0A23A:  CALL   30AC
0A23E:  MOVF   01,W
0A240:  ADDWF  xC1,W
0A242:  MOVLB  4
0A244:  MOVWF  x4A
0A246:  CLRF   FAA
0A248:  MOVFF  449,FA9
0A24C:  MOVFF  44A,FA8
0A250:  BCF    FA6.6
0A252:  BCF    FA6.7
0A254:  BSF    FA6.2
0A256:  MOVF   FF2,W
0A258:  MOVWF  00
0A25A:  BCF    FF2.6
0A25C:  BCF    FF2.7
0A25E:  MOVLB  F
0A260:  MOVLW  55
0A262:  MOVWF  FA7
0A264:  MOVLW  AA
0A266:  MOVWF  FA7
0A268:  BSF    FA6.1
0A26A:  BTFSC  FA6.1
0A26C:  BRA    A26A
0A26E:  BCF    FA6.2
0A270:  MOVF   00,W
0A272:  IORWF  FF2,F
....................                delay_ms(10); 
0A274:  MOVLW  0A
0A276:  MOVLB  4
0A278:  MOVWF  x62
0A27A:  MOVLB  0
0A27C:  CALL   1A6C
....................                write_eeprom(105+((CicloLibre-1)*8),Tsecadop[0]+(Tsecadop[1]*10)); 
0A280:  MOVLW  01
0A282:  MOVLB  3
0A284:  SUBWF  x3B,W
0A286:  MULLW  08
0A288:  MOVF   FF3,W
0A28A:  ADDLW  69
0A28C:  MOVLB  4
0A28E:  MOVWF  x49
0A290:  MOVFF  C0,44B
0A294:  MOVLW  0A
0A296:  MOVWF  x4C
0A298:  MOVLB  0
0A29A:  CALL   30AC
0A29E:  MOVF   01,W
0A2A0:  ADDWF  xBF,W
0A2A2:  MOVLB  4
0A2A4:  MOVWF  x4A
0A2A6:  CLRF   FAA
0A2A8:  MOVFF  449,FA9
0A2AC:  MOVFF  44A,FA8
0A2B0:  BCF    FA6.6
0A2B2:  BCF    FA6.7
0A2B4:  BSF    FA6.2
0A2B6:  MOVF   FF2,W
0A2B8:  MOVWF  00
0A2BA:  BCF    FF2.6
0A2BC:  BCF    FF2.7
0A2BE:  MOVLB  F
0A2C0:  MOVLW  55
0A2C2:  MOVWF  FA7
0A2C4:  MOVLW  AA
0A2C6:  MOVWF  FA7
0A2C8:  BSF    FA6.1
0A2CA:  BTFSC  FA6.1
0A2CC:  BRA    A2CA
0A2CE:  BCF    FA6.2
0A2D0:  MOVF   00,W
0A2D2:  IORWF  FF2,F
....................                delay_ms(10); 
0A2D4:  MOVLW  0A
0A2D6:  MOVLB  4
0A2D8:  MOVWF  x62
0A2DA:  MOVLB  0
0A2DC:  CALL   1A6C
....................                Tsecado[0]=Tsecadop[0]; 
0A2E0:  MOVFF  BF,BB
....................                Tsecado[1]=Tsecadop[1]; 
0A2E4:  MOVFF  C0,BC
....................                Tsecado[2]=Tsecadop[2]; 
0A2E8:  MOVFF  C1,BD
....................                Tsecado[3]=Tsecadop[3]; 
0A2EC:  MOVFF  C2,BE
....................                GuardaEEPROM=ON; 
0A2F0:  BSF    xA2.6
....................             } 
....................          } 
....................           
....................          if(RIGHT){ 
0A2F2:  BSF    F93.2
0A2F4:  BTFSC  F81.2
0A2F6:  BRA    A36C
....................             delay_ms(100); 
0A2F8:  MOVLW  64
0A2FA:  MOVLB  4
0A2FC:  MOVWF  x62
0A2FE:  MOVLB  0
0A300:  CALL   1A6C
....................             if(RIGHT){ 
0A304:  BSF    F93.2
0A306:  BTFSC  F81.2
0A308:  BRA    A36C
....................                if(!Segundos){ 
0A30A:  BTFSC  xA2.5
0A30C:  BRA    A33C
....................                   Segundos=ON; 
0A30E:  BSF    xA2.5
....................                   Minutos=OFF; 
0A310:  BCF    xA2.4
....................                   printf("tminsec.pco=0"); 
0A312:  MOVLW  D4
0A314:  MOVWF  FF6
0A316:  MOVLW  0B
0A318:  MOVWF  FF7
0A31A:  MOVLW  00
0A31C:  MOVWF  FF8
0A31E:  CALL   3BB2
....................                   SendDataDisplay();                    
0A322:  CALL   3BE4
....................                   printf("tsecsec.pco=65535"); 
0A326:  MOVLW  E2
0A328:  MOVWF  FF6
0A32A:  MOVLW  0B
0A32C:  MOVWF  FF7
0A32E:  MOVLW  00
0A330:  MOVWF  FF8
0A332:  CALL   3BB2
....................                   SendDataDisplay();   
0A336:  CALL   3BE4
....................                }else if(!Minutos){ 
0A33A:  BRA    A36C
0A33C:  BTFSC  xA2.4
0A33E:  BRA    A36C
....................                   Segundos=OFF; 
0A340:  BCF    xA2.5
....................                   Minutos=ON; 
0A342:  BSF    xA2.4
....................                   printf("tminsec.pco=65535"); 
0A344:  MOVLW  F4
0A346:  MOVWF  FF6
0A348:  MOVLW  0B
0A34A:  MOVWF  FF7
0A34C:  MOVLW  00
0A34E:  MOVWF  FF8
0A350:  CALL   3BB2
....................                   SendDataDisplay();   
0A354:  CALL   3BE4
....................                   printf("tsecsec.pco=0"); 
0A358:  MOVLW  06
0A35A:  MOVWF  FF6
0A35C:  MOVLW  0C
0A35E:  MOVWF  FF7
0A360:  MOVLW  00
0A362:  MOVWF  FF8
0A364:  CALL   3BB2
....................                   SendDataDisplay();   
0A368:  CALL   3BE4
....................                } 
....................             } 
....................          } 
....................           
....................          if(UP){ 
0A36C:  BSF    F93.0
0A36E:  BTFSC  F81.0
0A370:  BRA    A3AC
....................             delay_ms(100); 
0A372:  MOVLW  64
0A374:  MOVLB  4
0A376:  MOVWF  x62
0A378:  MOVLB  0
0A37A:  CALL   1A6C
....................             if(UP){ 
0A37E:  BSF    F93.0
0A380:  BTFSC  F81.0
0A382:  BRA    A3AC
....................                if(Segundos){ 
0A384:  BTFSS  xA2.5
0A386:  BRA    A398
....................                   Tsecadop[0]++; 
0A388:  INCF   xBF,F
....................                   if(Tsecadop[0]>9){ 
0A38A:  BTFSC  xBF.7
0A38C:  BRA    A398
0A38E:  MOVF   xBF,W
0A390:  SUBLW  09
0A392:  BC    A398
....................                      Tsecadop[1]++; 
0A394:  INCF   xC0,F
....................                      Tsecadop[0]=0; 
0A396:  CLRF   xBF
....................                   } 
....................                } 
....................                if(Minutos){ 
0A398:  BTFSS  xA2.4
0A39A:  BRA    A3AC
....................                   Tsecado[2]++; 
0A39C:  INCF   xBD,F
....................                   if(Tsecadop[2]>9){ 
0A39E:  BTFSC  xC1.7
0A3A0:  BRA    A3AC
0A3A2:  MOVF   xC1,W
0A3A4:  SUBLW  09
0A3A6:  BC    A3AC
....................                      Tsecadop[3]++; 
0A3A8:  INCF   xC2,F
....................                      Tsecadop[2]=0; 
0A3AA:  CLRF   xC1
....................                   } 
....................                }   
....................             } 
....................          } 
....................           
....................          if(DOWN){ 
0A3AC:  BSF    F93.1
0A3AE:  BTFSC  F81.1
0A3B0:  BRA    A3F6
....................             delay_ms(100); 
0A3B2:  MOVLW  64
0A3B4:  MOVLB  4
0A3B6:  MOVWF  x62
0A3B8:  MOVLB  0
0A3BA:  CALL   1A6C
....................             if(DOWN){ 
0A3BE:  BSF    F93.1
0A3C0:  BTFSC  F81.1
0A3C2:  BRA    A3F6
....................                if(Segundos){ 
0A3C4:  BTFSS  xA2.5
0A3C6:  BRA    A3E4
....................                   Tsecadop[0]--; 
0A3C8:  DECF   xBF,F
....................                   if(Tsecadop[0]<0){ 
0A3CA:  BTFSC  xBF.7
0A3CC:  BRA    A3D0
0A3CE:  BRA    A3D6
....................                      Tsecadop[1]--; 
0A3D0:  DECF   xC0,F
....................                      Tsecadop[0]=9; 
0A3D2:  MOVLW  09
0A3D4:  MOVWF  xBF
....................                   } 
....................                   if(Tsecadop[1]<0){ 
0A3D6:  BTFSC  xC0.7
0A3D8:  BRA    A3DC
0A3DA:  BRA    A3E4
....................                      Tsecadop[1]=5; 
0A3DC:  MOVLW  05
0A3DE:  MOVWF  xC0
....................                      Tsecadop[0]=9; 
0A3E0:  MOVLW  09
0A3E2:  MOVWF  xBF
....................                   } 
....................                } 
....................                if(Minutos){ 
0A3E4:  BTFSS  xA2.4
0A3E6:  BRA    A3F6
....................                   Tsecadop[2]--; 
0A3E8:  DECF   xC1,F
....................                   if(Tsecadop[2]<0){ 
0A3EA:  BTFSC  xC1.7
0A3EC:  BRA    A3F0
0A3EE:  BRA    A3F6
....................                      Tsecadop[3]--; 
0A3F0:  DECF   xC2,F
....................                      Tsecadop[2]=9; 
0A3F2:  MOVLW  09
0A3F4:  MOVWF  xC1
....................                   } 
....................                }   
....................             } 
....................          } 
....................           
....................          if(RX_Buffer[4]==0x0c || RX_Buffer[4]==0x0d){//Tecla Derecha Oprimida 
0A3F6:  MOVF   34,W
0A3F8:  SUBLW  0C
0A3FA:  BZ    A402
0A3FC:  MOVF   34,W
0A3FE:  SUBLW  0D
0A400:  BNZ   A42E
....................             if(Segundos){ 
0A402:  BTFSS  xA2.5
0A404:  BRA    A416
....................                Tsecadop[0]++; 
0A406:  INCF   xBF,F
....................                if(Tsecadop[0]>9){ 
0A408:  BTFSC  xBF.7
0A40A:  BRA    A416
0A40C:  MOVF   xBF,W
0A40E:  SUBLW  09
0A410:  BC    A416
....................                   Tsecadop[1]++; 
0A412:  INCF   xC0,F
....................                   Tsecadop[0]=0; 
0A414:  CLRF   xBF
....................                } 
....................             } 
....................             if(Minutos){ 
0A416:  BTFSS  xA2.4
0A418:  BRA    A42A
....................                Tsecadop[2]++; 
0A41A:  INCF   xC1,F
....................                if(Tsecadop[2]>9){ 
0A41C:  BTFSC  xC1.7
0A41E:  BRA    A42A
0A420:  MOVF   xC1,W
0A422:  SUBLW  09
0A424:  BC    A42A
....................                   Tsecadop[3]++; 
0A426:  INCF   xC2,F
....................                   Tsecadop[2]=0; 
0A428:  CLRF   xC1
....................                } 
....................             } 
....................             RX_Buffer[4]=0x00;   
0A42A:  CLRF   34
....................             RX_Buffer2[4]=0x00;  
0A42C:  CLRF   3F
....................          } 
....................           
....................          if(RX_Buffer[4]==0x0f || RX_Buffer[4]==0x0e){//Tecla Izquierda Oprimida 
0A42E:  MOVF   34,W
0A430:  SUBLW  0F
0A432:  BZ    A43A
0A434:  MOVF   34,W
0A436:  SUBLW  0E
0A438:  BNZ   A470
....................             if(Segundos){ 
0A43A:  BTFSS  xA2.5
0A43C:  BRA    A45A
....................                Tsecadop[0]--; 
0A43E:  DECF   xBF,F
....................                if(Tsecadop[0]<0){ 
0A440:  BTFSC  xBF.7
0A442:  BRA    A446
0A444:  BRA    A44C
....................                   Tsecadop[1]--; 
0A446:  DECF   xC0,F
....................                   Tsecadop[0]=9; 
0A448:  MOVLW  09
0A44A:  MOVWF  xBF
....................                } 
....................                if(Tsecadop[1]<0){ 
0A44C:  BTFSC  xC0.7
0A44E:  BRA    A452
0A450:  BRA    A45A
....................                   Tsecadop[1]=5; 
0A452:  MOVLW  05
0A454:  MOVWF  xC0
....................                   Tsecadop[0]=9; 
0A456:  MOVLW  09
0A458:  MOVWF  xBF
....................                } 
....................             } 
....................             if(Minutos){ 
0A45A:  BTFSS  xA2.4
0A45C:  BRA    A46C
....................                Tsecadop[2]--; 
0A45E:  DECF   xC1,F
....................                if(Tsecadop[2]<0){ 
0A460:  BTFSC  xC1.7
0A462:  BRA    A466
0A464:  BRA    A46C
....................                   Tsecadop[3]--; 
0A466:  DECF   xC2,F
....................                   Tsecadop[2]=9; 
0A468:  MOVLW  09
0A46A:  MOVWF  xC1
....................                } 
....................             } 
....................             RX_Buffer[4]=0x00;   
0A46C:  CLRF   34
....................             RX_Buffer2[4]=0x00;             
0A46E:  CLRF   3F
....................          } 
....................        
....................          if(Tsecadop[0]<0) 
0A470:  BTFSC  xBF.7
0A472:  BRA    A476
0A474:  BRA    A47A
....................             Tsecadop[0]=9;             
0A476:  MOVLW  09
0A478:  MOVWF  xBF
....................          if(Tsecadop[1]<0) 
0A47A:  BTFSC  xC0.7
0A47C:  BRA    A480
0A47E:  BRA    A484
....................             Tsecadop[1]=5;             
0A480:  MOVLW  05
0A482:  MOVWF  xC0
....................          if(Tsecadop[2]<0) 
0A484:  BTFSC  xC1.7
0A486:  BRA    A48A
0A488:  BRA    A48E
....................             Tsecadop[2]=9;             
0A48A:  MOVLW  09
0A48C:  MOVWF  xC1
....................          if(Tsecadop[3]<0) 
0A48E:  BTFSC  xC2.7
0A490:  BRA    A494
0A492:  BRA    A498
....................             Tsecadop[3]=9;             
0A494:  MOVLW  09
0A496:  MOVWF  xC2
....................           
....................          if(Tsecadop[0]>9) 
0A498:  BTFSC  xBF.7
0A49A:  BRA    A4A4
0A49C:  MOVF   xBF,W
0A49E:  SUBLW  09
0A4A0:  BC    A4A4
....................             Tsecadop[0]=0;             
0A4A2:  CLRF   xBF
....................          if(Tsecadop[1]>5) 
0A4A4:  BTFSC  xC0.7
0A4A6:  BRA    A4B0
0A4A8:  MOVF   xC0,W
0A4AA:  SUBLW  05
0A4AC:  BC    A4B0
....................             Tsecadop[1]=0;             
0A4AE:  CLRF   xC0
....................          if(Tsecadop[2]>9) 
0A4B0:  BTFSC  xC1.7
0A4B2:  BRA    A4BC
0A4B4:  MOVF   xC1,W
0A4B6:  SUBLW  09
0A4B8:  BC    A4BC
....................             Tsecadop[2]=0;             
0A4BA:  CLRF   xC1
....................          if(Tsecadop[3]>9) 
0A4BC:  BTFSC  xC2.7
0A4BE:  BRA    A4C8
0A4C0:  MOVF   xC2,W
0A4C2:  SUBLW  09
0A4C4:  BC    A4C8
....................             Tsecadop[3]=0; 
0A4C6:  CLRF   xC2
....................              
....................       printf("tminsec.txt=\"%02u\"",((Tsecadop[3]*10)+Tsecadop[2])); 
0A4C8:  MOVFF  C2,44B
0A4CC:  MOVLW  0A
0A4CE:  MOVLB  4
0A4D0:  MOVWF  x4C
0A4D2:  MOVLB  0
0A4D4:  CALL   30AC
0A4D8:  MOVF   xC1,W
0A4DA:  ADDWF  01,W
0A4DC:  MOVLB  4
0A4DE:  MOVWF  x49
0A4E0:  MOVLW  14
0A4E2:  MOVWF  FF6
0A4E4:  MOVLW  0C
0A4E6:  MOVWF  FF7
0A4E8:  MOVLW  00
0A4EA:  MOVWF  FF8
0A4EC:  MOVLW  0D
0A4EE:  MOVWF  x4F
0A4F0:  MOVLB  0
0A4F2:  CALL   4B26
0A4F6:  MOVFF  449,44F
0A4FA:  MOVLW  01
0A4FC:  MOVLB  4
0A4FE:  MOVWF  x50
0A500:  MOVLB  0
0A502:  CALL   4B84
0A506:  MOVLW  22
0A508:  BTFSS  F9E.4
0A50A:  BRA    A508
0A50C:  MOVWF  FAD
....................       SendDataDisplay(); 
0A50E:  CALL   3BE4
....................       printf("tsecsec.txt=\"%02u\"",((Tsecadop[1]*10)+Tsecadop[0])); 
0A512:  MOVFF  C0,44B
0A516:  MOVLW  0A
0A518:  MOVLB  4
0A51A:  MOVWF  x4C
0A51C:  MOVLB  0
0A51E:  CALL   30AC
0A522:  MOVF   xBF,W
0A524:  ADDWF  01,W
0A526:  MOVLB  4
0A528:  MOVWF  x49
0A52A:  MOVLW  28
0A52C:  MOVWF  FF6
0A52E:  MOVLW  0C
0A530:  MOVWF  FF7
0A532:  MOVLW  00
0A534:  MOVWF  FF8
0A536:  MOVLW  0D
0A538:  MOVWF  x4F
0A53A:  MOVLB  0
0A53C:  CALL   4B26
0A540:  MOVFF  449,44F
0A544:  MOVLW  01
0A546:  MOVLB  4
0A548:  MOVWF  x50
0A54A:  MOVLB  0
0A54C:  CALL   4B84
0A550:  MOVLW  22
0A552:  BTFSS  F9E.4
0A554:  BRA    A552
0A556:  MOVWF  FAD
....................       SendDataDisplay(); 
0A558:  CALL   3BE4
0A55C:  MOVLB  3
....................     } 
.................... //_--------------------------------------------------------------------------------------------------------------------------------------------------------        
....................  
.................... //_-------------------------------------------------------------------------------------------------------------------------------------------------------- 
....................     if(Menu==4){ //Menu de Temperatura 
0A55E:  MOVF   x5D,W
0A560:  SUBLW  04
0A562:  BTFSS  FD8.2
0A564:  BRA    A766
....................       printf("fecha.txt=\"Fecha:%02u/%02u/20%02u    Hora: %02u:%02u\"",Dia,Mes,Year,Hora,Minuto); 
0A566:  MOVLW  3C
0A568:  MOVWF  FF6
0A56A:  MOVLW  0C
0A56C:  MOVWF  FF7
0A56E:  MOVLW  00
0A570:  MOVWF  FF8
0A572:  MOVLW  11
0A574:  MOVLB  4
0A576:  MOVWF  x4F
0A578:  MOVLB  0
0A57A:  CALL   4B26
0A57E:  MOVFF  3AA,44F
0A582:  MOVLW  01
0A584:  MOVLB  4
0A586:  MOVWF  x50
0A588:  MOVLB  0
0A58A:  CALL   4B84
0A58E:  MOVLW  2F
0A590:  BTFSS  F9E.4
0A592:  BRA    A590
0A594:  MOVWF  FAD
0A596:  MOVFF  3A9,44F
0A59A:  MOVLW  01
0A59C:  MOVLB  4
0A59E:  MOVWF  x50
0A5A0:  MOVLB  0
0A5A2:  CALL   4B84
0A5A6:  MOVLW  2F
0A5A8:  BTFSS  F9E.4
0A5AA:  BRA    A5A8
0A5AC:  MOVWF  FAD
0A5AE:  MOVLW  32
0A5B0:  BTFSS  F9E.4
0A5B2:  BRA    A5B0
0A5B4:  MOVWF  FAD
0A5B6:  MOVLW  30
0A5B8:  BTFSS  F9E.4
0A5BA:  BRA    A5B8
0A5BC:  MOVWF  FAD
0A5BE:  MOVFF  3A8,44F
0A5C2:  MOVLW  01
0A5C4:  MOVLB  4
0A5C6:  MOVWF  x50
0A5C8:  MOVLB  0
0A5CA:  CALL   4B84
0A5CE:  MOVLW  5D
0A5D0:  MOVWF  FF6
0A5D2:  MOVLW  0C
0A5D4:  MOVWF  FF7
0A5D6:  MOVLW  00
0A5D8:  MOVWF  FF8
0A5DA:  MOVLW  0A
0A5DC:  MOVLB  4
0A5DE:  MOVWF  x4F
0A5E0:  MOVLB  0
0A5E2:  CALL   4B26
0A5E6:  MOVFF  3AB,44F
0A5EA:  MOVLW  01
0A5EC:  MOVLB  4
0A5EE:  MOVWF  x50
0A5F0:  MOVLB  0
0A5F2:  CALL   4B84
0A5F6:  MOVLW  3A
0A5F8:  BTFSS  F9E.4
0A5FA:  BRA    A5F8
0A5FC:  MOVWF  FAD
0A5FE:  MOVFF  3AC,44F
0A602:  MOVLW  01
0A604:  MOVLB  4
0A606:  MOVWF  x50
0A608:  MOVLB  0
0A60A:  CALL   4B84
0A60E:  MOVLW  22
0A610:  BTFSS  F9E.4
0A612:  BRA    A610
0A614:  MOVWF  FAD
....................       SendDataDisplay(); 
0A616:  CALL   3BE4
....................          if(Setpoint<Tmin) 
0A61A:  MOVLB  3
0A61C:  MOVF   x63,W
0A61E:  SUBLW  6D
0A620:  BNC   A626
....................             Setpoint=Tmax; 
0A622:  MOVLW  86
0A624:  MOVWF  x63
....................          if(Setpoint>Tmax) 
0A626:  MOVF   x63,W
0A628:  SUBLW  86
0A62A:  BC    A630
....................             Setpoint=Tmin; 
0A62C:  MOVLW  6E
0A62E:  MOVWF  x63
....................           
....................          if(RX_Buffer[4]==0x11 || LEFT){//Selecciono Regresar 
0A630:  MOVF   34,W
0A632:  SUBLW  11
0A634:  BZ    A63C
0A636:  BSF    F93.3
0A638:  BTFSC  F81.3
0A63A:  BRA    A6D4
....................             Segundos=OFF; 
0A63C:  MOVLB  0
0A63E:  BCF    xA2.5
....................             Minutos=OFF; 
0A640:  BCF    xA2.4
....................             printf("page CicloPersona"); 
0A642:  MOVLW  72
0A644:  MOVWF  FF6
0A646:  MOVLW  0C
0A648:  MOVWF  FF7
0A64A:  MOVLW  00
0A64C:  MOVWF  FF8
0A64E:  CALL   3BB2
....................             SendDataDisplay();   
0A652:  CALL   3BE4
....................             PantallaPrincipal=1; 
0A656:  MOVLW  01
0A658:  MOVLB  2
0A65A:  MOVWF  xDD
....................             Op=OFF; 
0A65C:  MOVLB  0
0A65E:  BCF    xA2.2
....................             Op2=OFF; 
0A660:  BCF    xA2.3
....................             if(!GuardaEEPROM){ 
0A662:  BTFSC  xA2.6
0A664:  BRA    A6D2
....................                CiclosPersonalizados[CicloLibre-1].Temperatura=Setpoint; 
0A666:  MOVLW  01
0A668:  MOVLB  3
0A66A:  SUBWF  x3B,W
0A66C:  MULLW  0A
0A66E:  MOVF   FF3,W
0A670:  MOVLB  4
0A672:  CLRF   x4A
0A674:  MOVWF  x49
0A676:  MOVLW  21
0A678:  ADDWF  x49,W
0A67A:  MOVWF  FE9
0A67C:  MOVLW  04
0A67E:  ADDWFC x4A,W
0A680:  MOVWF  FEA
0A682:  MOVFF  363,FEF
....................                write_eeprom(100+((CicloLibre-1)*8),Setpoint); 
0A686:  MOVLW  01
0A688:  MOVLB  3
0A68A:  SUBWF  x3B,W
0A68C:  MULLW  08
0A68E:  MOVF   FF3,W
0A690:  ADDLW  64
0A692:  MOVLB  4
0A694:  MOVWF  x49
0A696:  CLRF   FAA
0A698:  MOVFF  449,FA9
0A69C:  MOVFF  363,FA8
0A6A0:  BCF    FA6.6
0A6A2:  BCF    FA6.7
0A6A4:  BSF    FA6.2
0A6A6:  MOVF   FF2,W
0A6A8:  MOVWF  00
0A6AA:  BCF    FF2.6
0A6AC:  BCF    FF2.7
0A6AE:  MOVLB  F
0A6B0:  MOVLW  55
0A6B2:  MOVWF  FA7
0A6B4:  MOVLW  AA
0A6B6:  MOVWF  FA7
0A6B8:  BSF    FA6.1
0A6BA:  BTFSC  FA6.1
0A6BC:  BRA    A6BA
0A6BE:  BCF    FA6.2
0A6C0:  MOVF   00,W
0A6C2:  IORWF  FF2,F
....................                delay_ms(10); 
0A6C4:  MOVLW  0A
0A6C6:  MOVLB  4
0A6C8:  MOVWF  x62
0A6CA:  MOVLB  0
0A6CC:  CALL   1A6C
....................                GuardaEEPROM=ON; 
0A6D0:  BSF    xA2.6
0A6D2:  MOVLB  3
....................             } 
....................          } 
....................           
....................          if(UP){ 
0A6D4:  BSF    F93.0
0A6D6:  BTFSC  F81.0
0A6D8:  BRA    A6F0
....................             delay_ms(100); 
0A6DA:  MOVLW  64
0A6DC:  MOVLB  4
0A6DE:  MOVWF  x62
0A6E0:  MOVLB  0
0A6E2:  CALL   1A6C
....................             if(UP){ 
0A6E6:  BSF    F93.0
0A6E8:  BTFSC  F81.0
0A6EA:  BRA    A6F2
....................                Setpoint++; 
0A6EC:  MOVLB  3
0A6EE:  INCF   x63,F
0A6F0:  MOVLB  0
....................             } 
....................          } 
....................           
....................          if(DOWN){ 
0A6F2:  BSF    F93.1
0A6F4:  BTFSC  F81.1
0A6F6:  BRA    A710
....................             delay_ms(100); 
0A6F8:  MOVLW  64
0A6FA:  MOVLB  4
0A6FC:  MOVWF  x62
0A6FE:  MOVLB  0
0A700:  CALL   1A6C
....................             if(DOWN){ 
0A704:  BSF    F93.1
0A706:  BTFSC  F81.1
0A708:  BRA    A710
....................                Setpoint--; 
0A70A:  MOVLB  3
0A70C:  DECF   x63,F
0A70E:  MOVLB  0
....................             } 
....................          } 
....................           
....................          if(RX_Buffer[4]==0x0d){//Tecla Arriba Oprimida 
0A710:  MOVF   34,W
0A712:  SUBLW  0D
0A714:  BNZ   A720
....................             Setpoint++; 
0A716:  MOVLB  3
0A718:  INCF   x63,F
....................             RX_Buffer[4]=0x00;   
0A71A:  CLRF   34
....................             RX_Buffer2[4]=0x00;             
0A71C:  CLRF   3F
0A71E:  MOVLB  0
....................             //BorraBuffer(); 
....................          } 
....................           
....................          if(RX_Buffer[4]==0x0c){//Tecla Abajo Oprimida 
0A720:  MOVF   34,W
0A722:  SUBLW  0C
0A724:  BNZ   A730
....................             Setpoint--; 
0A726:  MOVLB  3
0A728:  DECF   x63,F
....................             RX_Buffer[4]=0x00; 
0A72A:  CLRF   34
....................             RX_Buffer2[4]=0x00;             
0A72C:  CLRF   3F
0A72E:  MOVLB  0
....................             //BorraBuffer(); 
....................          } 
....................           
....................       printf("tsettem.txt=\"%03u\"",Setpoint); 
0A730:  MOVLW  84
0A732:  MOVWF  FF6
0A734:  MOVLW  0C
0A736:  MOVWF  FF7
0A738:  MOVLW  00
0A73A:  MOVWF  FF8
0A73C:  MOVLW  0D
0A73E:  MOVLB  4
0A740:  MOVWF  x4F
0A742:  MOVLB  0
0A744:  CALL   4B26
0A748:  MOVFF  363,44F
0A74C:  MOVLW  03
0A74E:  MOVLB  4
0A750:  MOVWF  x50
0A752:  MOVLB  0
0A754:  CALL   4B84
0A758:  MOVLW  22
0A75A:  BTFSS  F9E.4
0A75C:  BRA    A75A
0A75E:  MOVWF  FAD
....................       SendDataDisplay(); 
0A760:  CALL   3BE4
0A764:  MOVLB  3
....................     } 
.................... //_--------------------------------------------------------------------------------------------------------------------------------------------------------        
....................  
.................... //_--------------------------------------------------------------------------------------------------------------------------------------------------------       
....................    if(Menu==5){//Menu de Nivel 
0A766:  MOVF   x5D,W
0A768:  SUBLW  05
0A76A:  BTFSS  FD8.2
0A76C:  BRA    AA40
....................       printf("fecha.txt=\"T:%3.1fC Fecha:%02u/%02u/20%02u Hora: %02u:%02u:%02u\"",Temperatura,Dia,Mes,Year,Hora,Minuto,Segundo); 
0A76E:  MOVLW  98
0A770:  MOVWF  FF6
0A772:  MOVLW  0C
0A774:  MOVWF  FF7
0A776:  MOVLW  00
0A778:  MOVWF  FF8
0A77A:  MOVLW  0D
0A77C:  MOVLB  4
0A77E:  MOVWF  x4F
0A780:  MOVLB  0
0A782:  CALL   4B26
0A786:  MOVLW  02
0A788:  MOVWF  FE9
0A78A:  MOVFF  328,452
0A78E:  MOVFF  327,451
0A792:  MOVFF  326,450
0A796:  MOVFF  325,44F
0A79A:  MOVLW  01
0A79C:  MOVLB  4
0A79E:  MOVWF  x53
0A7A0:  MOVLB  0
0A7A2:  CALL   4CC6
0A7A6:  MOVLW  AA
0A7A8:  MOVWF  FF6
0A7AA:  MOVLW  0C
0A7AC:  MOVWF  FF7
0A7AE:  MOVLW  00
0A7B0:  MOVWF  FF8
0A7B2:  MOVLW  09
0A7B4:  MOVLB  4
0A7B6:  MOVWF  x4F
0A7B8:  MOVLB  0
0A7BA:  CALL   4B26
0A7BE:  MOVFF  3AA,44F
0A7C2:  MOVLW  01
0A7C4:  MOVLB  4
0A7C6:  MOVWF  x50
0A7C8:  MOVLB  0
0A7CA:  CALL   4B84
0A7CE:  MOVLW  2F
0A7D0:  BTFSS  F9E.4
0A7D2:  BRA    A7D0
0A7D4:  MOVWF  FAD
0A7D6:  MOVFF  3A9,44F
0A7DA:  MOVLW  01
0A7DC:  MOVLB  4
0A7DE:  MOVWF  x50
0A7E0:  MOVLB  0
0A7E2:  CALL   4B84
0A7E6:  MOVLW  2F
0A7E8:  BTFSS  F9E.4
0A7EA:  BRA    A7E8
0A7EC:  MOVWF  FAD
0A7EE:  MOVLW  32
0A7F0:  BTFSS  F9E.4
0A7F2:  BRA    A7F0
0A7F4:  MOVWF  FAD
0A7F6:  MOVLW  30
0A7F8:  BTFSS  F9E.4
0A7FA:  BRA    A7F8
0A7FC:  MOVWF  FAD
0A7FE:  MOVFF  3A8,44F
0A802:  MOVLW  01
0A804:  MOVLB  4
0A806:  MOVWF  x50
0A808:  MOVLB  0
0A80A:  CALL   4B84
0A80E:  MOVLW  C3
0A810:  MOVWF  FF6
0A812:  MOVLW  0C
0A814:  MOVWF  FF7
0A816:  MOVLW  00
0A818:  MOVWF  FF8
0A81A:  MOVLW  07
0A81C:  MOVLB  4
0A81E:  MOVWF  x4F
0A820:  MOVLB  0
0A822:  CALL   4B26
0A826:  MOVFF  3AB,44F
0A82A:  MOVLW  01
0A82C:  MOVLB  4
0A82E:  MOVWF  x50
0A830:  MOVLB  0
0A832:  CALL   4B84
0A836:  MOVLW  3A
0A838:  BTFSS  F9E.4
0A83A:  BRA    A838
0A83C:  MOVWF  FAD
0A83E:  MOVFF  3AC,44F
0A842:  MOVLW  01
0A844:  MOVLB  4
0A846:  MOVWF  x50
0A848:  MOVLB  0
0A84A:  CALL   4B84
0A84E:  MOVLW  3A
0A850:  BTFSS  F9E.4
0A852:  BRA    A850
0A854:  MOVWF  FAD
0A856:  MOVFF  3AD,44F
0A85A:  MOVLW  01
0A85C:  MOVLB  4
0A85E:  MOVWF  x50
0A860:  MOVLB  0
0A862:  CALL   4B84
0A866:  MOVLW  22
0A868:  BTFSS  F9E.4
0A86A:  BRA    A868
0A86C:  MOVWF  FAD
....................       SendDataDisplay(); 
0A86E:  CALL   3BE4
....................          if(Nivel<1) 
0A872:  MOVLB  3
0A874:  MOVF   x71,F
0A876:  BNZ   A882
0A878:  MOVF   x72,F
0A87A:  BNZ   A882
....................             Nivel=6; 
0A87C:  CLRF   x72
0A87E:  MOVLW  06
0A880:  MOVWF  x71
....................          if(Nivel>6) 
0A882:  MOVF   x72,F
0A884:  BNZ   A88C
0A886:  MOVF   x71,W
0A888:  SUBLW  06
0A88A:  BC    A892
....................             Nivel=1; 
0A88C:  CLRF   x72
0A88E:  MOVLW  01
0A890:  MOVWF  x71
....................           
....................          if(RX_Buffer[4]==0x11 || LEFT){//Selecciono Regresar 
0A892:  MOVF   34,W
0A894:  SUBLW  11
0A896:  BZ    A89E
0A898:  BSF    F93.3
0A89A:  BTFSC  F81.3
0A89C:  BRA    A99A
....................             Segundos=OFF; 
0A89E:  MOVLB  0
0A8A0:  BCF    xA2.5
....................             Minutos=OFF;             
0A8A2:  BCF    xA2.4
....................             tiempo_secado=0; 
0A8A4:  MOVLB  3
0A8A6:  CLRF   x67
....................              
....................             if(!GuardaEEPROM){     
0A8A8:  MOVLB  0
0A8AA:  BTFSC  xA2.6
0A8AC:  BRA    A946
....................                CiclosPersonalizados[CicloLibre-1].NivelDesfogue=Nivel; 
0A8AE:  MOVLW  01
0A8B0:  MOVLB  3
0A8B2:  SUBWF  x3B,W
0A8B4:  MULLW  0A
0A8B6:  MOVF   FF3,W
0A8B8:  MOVLB  4
0A8BA:  CLRF   x4A
0A8BC:  MOVWF  x49
0A8BE:  MOVLW  08
0A8C0:  ADDWF  x49,W
0A8C2:  MOVWF  01
0A8C4:  MOVLW  00
0A8C6:  ADDWFC x4A,W
0A8C8:  MOVWF  03
0A8CA:  MOVF   01,W
0A8CC:  ADDLW  21
0A8CE:  MOVWF  FE9
0A8D0:  MOVLW  04
0A8D2:  ADDWFC 03,W
0A8D4:  MOVWF  FEA
0A8D6:  MOVFF  371,FEF
....................                write_eeprom(107+((CicloLibre-1)*8),Nivel); 
0A8DA:  MOVLW  01
0A8DC:  MOVLB  3
0A8DE:  SUBWF  x3B,W
0A8E0:  MULLW  08
0A8E2:  MOVF   FF3,W
0A8E4:  ADDLW  6B
0A8E6:  MOVLB  4
0A8E8:  MOVWF  x49
0A8EA:  CLRF   FAA
0A8EC:  MOVFF  449,FA9
0A8F0:  MOVFF  371,FA8
0A8F4:  BCF    FA6.6
0A8F6:  BCF    FA6.7
0A8F8:  BSF    FA6.2
0A8FA:  MOVF   FF2,W
0A8FC:  MOVWF  00
0A8FE:  BCF    FF2.6
0A900:  BCF    FF2.7
0A902:  MOVLB  F
0A904:  MOVLW  55
0A906:  MOVWF  FA7
0A908:  MOVLW  AA
0A90A:  MOVWF  FA7
0A90C:  BSF    FA6.1
0A90E:  BTFSC  FA6.1
0A910:  BRA    A90E
0A912:  BCF    FA6.2
0A914:  MOVF   00,W
0A916:  IORWF  FF2,F
....................                delay_ms(20);             
0A918:  MOVLW  14
0A91A:  MOVLB  4
0A91C:  MOVWF  x62
0A91E:  MOVLB  0
0A920:  CALL   1A6C
....................                NivelSeleccionado=4995*Nivel; 
0A924:  MOVLW  13
0A926:  MOVLB  4
0A928:  MOVWF  x63
0A92A:  MOVLW  83
0A92C:  MOVWF  x62
0A92E:  MOVFF  372,465
0A932:  MOVFF  371,464
0A936:  MOVLB  0
0A938:  CALL   1EA0
0A93C:  MOVFF  02,37C
0A940:  MOVFF  01,37B
....................                GuardaEEPROM=ON; 
0A944:  BSF    xA2.6
....................             } 
....................              
....................             if(Nivel<6) 
0A946:  MOVLB  3
0A948:  MOVF   x72,F
0A94A:  BNZ   A958
0A94C:  MOVF   x71,W
0A94E:  SUBLW  05
0A950:  BNC   A958
....................                desfoguelento=1; 
0A952:  MOVLB  0
0A954:  BSF    xA4.7
....................             else             
0A956:  BRA    A95C
....................                desfoguelento=0; 
0A958:  MOVLB  0
0A95A:  BCF    xA4.7
....................  
....................             if(MenuAnt==1){ 
0A95C:  MOVLB  3
0A95E:  DECFSZ x5E,W
0A960:  BRA    A97C
....................                //Buzzer_on; 
....................                printf("page CicloPersona"); 
0A962:  MOVLW  DA
0A964:  MOVWF  FF6
0A966:  MOVLW  0C
0A968:  MOVWF  FF7
0A96A:  MOVLW  00
0A96C:  MOVWF  FF8
0A96E:  MOVLB  0
0A970:  CALL   3BB2
....................                SendDataDisplay();  
0A974:  CALL   3BE4
....................                //PantallaPrincipal=1; 
....................             }else if(MenuAnt==2){ 
0A978:  BRA    A998
0A97A:  MOVLB  3
0A97C:  MOVF   x5E,W
0A97E:  SUBLW  02
0A980:  BNZ   A99A
....................                printf("page Funcionamiento"); 
0A982:  MOVLW  EC
0A984:  MOVWF  FF6
0A986:  MOVLW  0C
0A988:  MOVWF  FF7
0A98A:  MOVLW  00
0A98C:  MOVWF  FF8
0A98E:  MOVLB  0
0A990:  CALL   3BB2
....................                SendDataDisplay();  
0A994:  CALL   3BE4
0A998:  MOVLB  3
....................                //if(Temperatura>60)TTrampa=TTrampa+5; 
....................             } 
....................          } 
....................           
....................          if(UP){ 
0A99A:  BSF    F93.0
0A99C:  BTFSC  F81.0
0A99E:  BRA    A9BA
....................             delay_ms(100); 
0A9A0:  MOVLW  64
0A9A2:  MOVLB  4
0A9A4:  MOVWF  x62
0A9A6:  MOVLB  0
0A9A8:  CALL   1A6C
....................             if(UP){ 
0A9AC:  BSF    F93.0
0A9AE:  BTFSC  F81.0
0A9B0:  BRA    A9BC
....................                Nivel++; 
0A9B2:  MOVLB  3
0A9B4:  INCF   x71,F
0A9B6:  BTFSC  FD8.2
0A9B8:  INCF   x72,F
0A9BA:  MOVLB  0
....................             } 
....................          } 
....................           
....................          if(DOWN){ 
0A9BC:  BSF    F93.1
0A9BE:  BTFSC  F81.1
0A9C0:  BRA    A9E0
....................             delay_ms(100); 
0A9C2:  MOVLW  64
0A9C4:  MOVLB  4
0A9C6:  MOVWF  x62
0A9C8:  MOVLB  0
0A9CA:  CALL   1A6C
....................             if(DOWN){ 
0A9CE:  BSF    F93.1
0A9D0:  BTFSC  F81.1
0A9D2:  BRA    A9E0
....................                Nivel--; 
0A9D4:  MOVLB  3
0A9D6:  MOVF   x71,W
0A9D8:  BTFSC  FD8.2
0A9DA:  DECF   x72,F
0A9DC:  DECF   x71,F
0A9DE:  MOVLB  0
....................             } 
....................          } 
....................           
....................          if(RX_Buffer[4]==0x0d){//Tecla Arriba Oprimida 
0A9E0:  MOVF   34,W
0A9E2:  SUBLW  0D
0A9E4:  BNZ   A9F4
....................             Nivel++; 
0A9E6:  MOVLB  3
0A9E8:  INCF   x71,F
0A9EA:  BTFSC  FD8.2
0A9EC:  INCF   x72,F
....................             RX_Buffer[4]=0x00;             
0A9EE:  CLRF   34
....................             RX_Buffer2[4]=0x00;             
0A9F0:  CLRF   3F
0A9F2:  MOVLB  0
....................             //BorraBuffer(); 
....................          } 
....................           
....................          if(RX_Buffer[4]==0x0c){//Tecla Abajo Oprimida 
0A9F4:  MOVF   34,W
0A9F6:  SUBLW  0C
0A9F8:  BNZ   AA0A
....................             Nivel--; 
0A9FA:  MOVLB  3
0A9FC:  MOVF   x71,W
0A9FE:  BTFSC  FD8.2
0AA00:  DECF   x72,F
0AA02:  DECF   x71,F
....................             RX_Buffer[4]=0x00; 
0AA04:  CLRF   34
....................             RX_Buffer2[4]=0x00;             
0AA06:  CLRF   3F
0AA08:  MOVLB  0
....................             //BorraBuffer(); 
....................          } 
....................           
....................       printf("tnivel.txt=\"%Lu\"",Nivel); 
0AA0A:  MOVLW  00
0AA0C:  MOVWF  FF6
0AA0E:  MOVLW  0D
0AA10:  MOVWF  FF7
0AA12:  MOVLW  00
0AA14:  MOVWF  FF8
0AA16:  MOVLW  0C
0AA18:  MOVLB  4
0AA1A:  MOVWF  x4F
0AA1C:  MOVLB  0
0AA1E:  CALL   4B26
0AA22:  MOVLW  10
0AA24:  MOVWF  FE9
0AA26:  MOVFF  372,450
0AA2A:  MOVFF  371,44F
0AA2E:  CALL   54DC
0AA32:  MOVLW  22
0AA34:  BTFSS  F9E.4
0AA36:  BRA    AA34
0AA38:  MOVWF  FAD
....................       SendDataDisplay(); 
0AA3A:  CALL   3BE4
0AA3E:  MOVLB  3
....................    } 
.................... //_--------------------------------------------------------------------------------------------------------------------------------------------------------       
....................  
.................... //_--------------------------------------------------------------------------------------------------------------------------------------------------------       
....................       if(Menu==6){ // Menu de Prueba de Componentes 
0AA40:  MOVF   x5D,W
0AA42:  SUBLW  06
0AA44:  BTFSS  FD8.2
0AA46:  BRA    B192
....................          PruebaEstados=ON; 
0AA48:  MOVLB  0
0AA4A:  BSF    xA1.4
....................           
....................          if(RX_Buffer[4]==0x02)//Oprimio EV Desfogue 
0AA4C:  MOVF   34,W
0AA4E:  SUBLW  02
0AA50:  BNZ   AA58
....................          { 
....................             EstadoDesfogue=!EstadoDesfogue; 
0AA52:  BTG    xA1.1
....................             RX_Buffer[4]=0x00; 
0AA54:  CLRF   34
....................             RX_Buffer2[4]=0x00; 
0AA56:  CLRF   3F
....................          } 
....................           
....................          if(EstadoDesfogue){ 
0AA58:  BTFSS  xA1.1
0AA5A:  BRA    AA76
....................             printf("b1.bco=2016"); 
0AA5C:  MOVLW  12
0AA5E:  MOVWF  FF6
0AA60:  MOVLW  0D
0AA62:  MOVWF  FF7
0AA64:  MOVLW  00
0AA66:  MOVWF  FF8
0AA68:  CALL   3BB2
....................             SendDataDisplay();  
0AA6C:  CALL   3BE4
....................             Desfogue_on; 
0AA70:  BSF    F8C.4
0AA72:  BCF    F95.4
....................          } 
....................          else{ 
0AA74:  BRA    AA8E
....................             printf("b1.bco=63488"); 
0AA76:  MOVLW  1E
0AA78:  MOVWF  FF6
0AA7A:  MOVLW  0D
0AA7C:  MOVWF  FF7
0AA7E:  MOVLW  00
0AA80:  MOVWF  FF8
0AA82:  CALL   3BB2
....................             SendDataDisplay();  
0AA86:  CALL   3BE4
....................             Desfogue_off; 
0AA8A:  BCF    F8C.4
0AA8C:  BCF    F95.4
....................          } 
....................           
....................          if(RX_Buffer[4]==0x01)//Oprimio EV Agua 
0AA8E:  DECFSZ 34,W
0AA90:  BRA    AA98
....................          { 
....................             EstadoAgua=!EstadoAgua; 
0AA92:  BTG    xA1.2
....................             RX_Buffer[4]=0x00; 
0AA94:  CLRF   34
....................             RX_Buffer2[4]=0x00; 
0AA96:  CLRF   3F
....................          } 
....................           
....................          if(EstadoAgua){ 
0AA98:  BTFSS  xA1.2
0AA9A:  BRA    AAB6
....................             printf("b0.bco=2016"); 
0AA9C:  MOVLW  2C
0AA9E:  MOVWF  FF6
0AAA0:  MOVLW  0D
0AAA2:  MOVWF  FF7
0AAA4:  MOVLW  00
0AAA6:  MOVWF  FF8
0AAA8:  CALL   3BB2
....................             SendDataDisplay();  
0AAAC:  CALL   3BE4
....................             Agua_on; 
0AAB0:  BSF    F8C.5
0AAB2:  BCF    F95.5
....................          } 
....................          else{ 
0AAB4:  BRA    AACE
....................             printf("b0.bco=63488"); 
0AAB6:  MOVLW  38
0AAB8:  MOVWF  FF6
0AABA:  MOVLW  0D
0AABC:  MOVWF  FF7
0AABE:  MOVLW  00
0AAC0:  MOVWF  FF8
0AAC2:  CALL   3BB2
....................             SendDataDisplay();  
0AAC6:  CALL   3BE4
....................             Agua_off; 
0AACA:  BCF    F8C.5
0AACC:  BCF    F95.5
....................          } 
....................           
....................          if(RX_Buffer[4]==0x03)//Oprimio EV Paso 
0AACE:  MOVF   34,W
0AAD0:  SUBLW  03
0AAD2:  BNZ   AADA
....................          { 
....................             EstadoPaso=!EstadoPaso; 
0AAD4:  BTG    xA2.7
....................             RX_Buffer[4]=0x00; 
0AAD6:  CLRF   34
....................             RX_Buffer2[4]=0x00; 
0AAD8:  CLRF   3F
....................          } 
....................           
....................          if(EstadoPaso){ 
0AADA:  BTFSS  xA2.7
0AADC:  BRA    AAF8
....................             printf("b2.bco=2016"); 
0AADE:  MOVLW  46
0AAE0:  MOVWF  FF6
0AAE2:  MOVLW  0D
0AAE4:  MOVWF  FF7
0AAE6:  MOVLW  00
0AAE8:  MOVWF  FF8
0AAEA:  CALL   3BB2
....................             SendDataDisplay();  
0AAEE:  CALL   3BE4
....................             #ifdef Enfriador 
....................             Enfr_on; 
0AAF2:  BSF    F8C.6
0AAF4:  BCF    F95.6
....................             #else 
....................             Bomba_on; 
....................             #endif 
....................          } 
....................          else{ 
0AAF6:  BRA    AB10
....................             printf("b2.bco=63488"); 
0AAF8:  MOVLW  52
0AAFA:  MOVWF  FF6
0AAFC:  MOVLW  0D
0AAFE:  MOVWF  FF7
0AB00:  MOVLW  00
0AB02:  MOVWF  FF8
0AB04:  CALL   3BB2
....................             SendDataDisplay();  
0AB08:  CALL   3BE4
....................             #ifdef Enfriador 
....................             Enfr_off; 
0AB0C:  BCF    F8C.6
0AB0E:  BCF    F95.6
....................             #else 
....................             Bomba_off; 
....................             #endif 
....................          } 
....................          
....................           
....................          if(RX_Buffer[4]==0x05)//Oprimio Bloqueo 
0AB10:  MOVF   34,W
0AB12:  SUBLW  05
0AB14:  BNZ   AB1C
....................          { 
....................             EstadoAire=!EstadoAire; 
0AB16:  BTG    xA2.0
....................             RX_Buffer[4]=0x00; 
0AB18:  CLRF   34
....................             RX_Buffer2[4]=0x00; 
0AB1A:  CLRF   3F
....................          } 
....................           
....................          if(EstadoAire){ 
0AB1C:  BTFSS  xA2.0
0AB1E:  BRA    AB38
....................             printf("b4.bco=2016"); 
0AB20:  MOVLW  60
0AB22:  MOVWF  FF6
0AB24:  MOVLW  0D
0AB26:  MOVWF  FF7
0AB28:  MOVLW  00
0AB2A:  MOVWF  FF8
0AB2C:  CALL   3BB2
....................             SendDataDisplay();  
0AB30:  CALL   3BE4
....................             Aire=ON;    
0AB34:  BSF    xA4.2
....................          }else{ 
0AB36:  BRA    AB4E
....................             printf("b4.bco=63488"); 
0AB38:  MOVLW  6C
0AB3A:  MOVWF  FF6
0AB3C:  MOVLW  0D
0AB3E:  MOVWF  FF7
0AB40:  MOVLW  00
0AB42:  MOVWF  FF8
0AB44:  CALL   3BB2
....................             SendDataDisplay();  
0AB48:  CALL   3BE4
....................             Aire=OFF; 
0AB4C:  BCF    xA4.2
....................          } 
....................           
....................           
....................          if(RX_Buffer[4]==0x04)//Oprimio SSR1 
0AB4E:  MOVF   34,W
0AB50:  SUBLW  04
0AB52:  BNZ   AB5A
....................          { 
....................             EstadoSSR=!EstadoSSR; 
0AB54:  BTG    xA1.3
....................             RX_Buffer[4]=0x00; 
0AB56:  CLRF   34
....................             RX_Buffer2[4]=0x00; 
0AB58:  CLRF   3F
....................          } 
....................           
....................          if(EstadoSSR){ 
0AB5A:  BTFSS  xA1.3
0AB5C:  BRA    AB78
....................             printf("b3.bco=2016"); 
0AB5E:  MOVLW  7A
0AB60:  MOVWF  FF6
0AB62:  MOVLW  0D
0AB64:  MOVWF  FF7
0AB66:  MOVLW  00
0AB68:  MOVWF  FF8
0AB6A:  CALL   3BB2
....................             SendDataDisplay();  
0AB6E:  CALL   3BE4
....................             SSR_on; 
0AB72:  BCF    F8B.2
0AB74:  BCF    F94.2
....................          } 
....................          else{ 
0AB76:  BRA    AB90
....................             printf("b3.bco=63488"); 
0AB78:  MOVLW  86
0AB7A:  MOVWF  FF6
0AB7C:  MOVLW  0D
0AB7E:  MOVWF  FF7
0AB80:  MOVLW  00
0AB82:  MOVWF  FF8
0AB84:  CALL   3BB2
....................             SendDataDisplay();  
0AB88:  CALL   3BE4
....................             SSR_off; 
0AB8C:  BSF    F8B.2
0AB8E:  BCF    F94.2
....................          } 
....................           
....................          if(DOOR){ 
0AB90:  BSF    F93.6
0AB92:  BTFSC  F81.6
0AB94:  BRA    ABAC
....................             printf("b8.bco=2016"); 
0AB96:  MOVLW  94
0AB98:  MOVWF  FF6
0AB9A:  MOVLW  0D
0AB9C:  MOVWF  FF7
0AB9E:  MOVLW  00
0ABA0:  MOVWF  FF8
0ABA2:  CALL   3BB2
....................             SendDataDisplay();  
0ABA6:  CALL   3BE4
....................          }else{ 
0ABAA:  BRA    ABC0
....................             printf("b8.bco=63488"); 
0ABAC:  MOVLW  A0
0ABAE:  MOVWF  FF6
0ABB0:  MOVLW  0D
0ABB2:  MOVWF  FF7
0ABB4:  MOVLW  00
0ABB6:  MOVWF  FF8
0ABB8:  CALL   3BB2
....................             SendDataDisplay();  
0ABBC:  CALL   3BE4
....................          } 
....................           
....................          if(TERM){ 
0ABC0:  BSF    F93.5
0ABC2:  BTFSC  F81.5
0ABC4:  BRA    ABDC
....................             printf("b9.bco=2016"); 
0ABC6:  MOVLW  AE
0ABC8:  MOVWF  FF6
0ABCA:  MOVLW  0D
0ABCC:  MOVWF  FF7
0ABCE:  MOVLW  00
0ABD0:  MOVWF  FF8
0ABD2:  CALL   3BB2
....................             SendDataDisplay();  
0ABD6:  CALL   3BE4
....................          }else{ 
0ABDA:  BRA    ABF0
....................             printf("b9.bco=63488"); 
0ABDC:  MOVLW  BA
0ABDE:  MOVWF  FF6
0ABE0:  MOVLW  0D
0ABE2:  MOVWF  FF7
0ABE4:  MOVLW  00
0ABE6:  MOVWF  FF8
0ABE8:  CALL   3BB2
....................             SendDataDisplay();  
0ABEC:  CALL   3BE4
....................          } 
....................           
....................          if(STOP){ 
0ABF0:  BSF    F93.7
0ABF2:  BTFSC  F81.7
0ABF4:  BRA    AC0C
....................             printf("b10.bco=2016"); 
0ABF6:  MOVLW  C8
0ABF8:  MOVWF  FF6
0ABFA:  MOVLW  0D
0ABFC:  MOVWF  FF7
0ABFE:  MOVLW  00
0AC00:  MOVWF  FF8
0AC02:  CALL   3BB2
....................             SendDataDisplay();  
0AC06:  CALL   3BE4
....................          }else{ 
0AC0A:  BRA    AC20
....................             printf("b10.bco=63488"); 
0AC0C:  MOVLW  D6
0AC0E:  MOVWF  FF6
0AC10:  MOVLW  0D
0AC12:  MOVWF  FF7
0AC14:  MOVLW  00
0AC16:  MOVWF  FF8
0AC18:  CALL   3BB2
....................             SendDataDisplay();  
0AC1C:  CALL   3BE4
....................          } 
....................           
....................          /*if(PRES){ 
....................             printf("b11.bco=2016"); 
....................             SendDataDisplay();  
....................          }else{ 
....................             printf("b11.bco=63488"); 
....................             SendDataDisplay();  
....................          }*/ 
....................           
....................          if(RX_Buffer[4]==0x13)//Oprimio Buzzer 
0AC20:  MOVF   34,W
0AC22:  SUBLW  13
0AC24:  BNZ   AC2C
....................          { 
....................             EstadoBuzzer=!EstadoBuzzer; 
0AC26:  BTG    xA3.0
....................             RX_Buffer[4]=0x00; 
0AC28:  CLRF   34
....................             RX_Buffer2[4]=0x00; 
0AC2A:  CLRF   3F
....................          } 
....................           
....................          if(EstadoBuzzer){ 
0AC2C:  BTFSS  xA3.0
0AC2E:  BRA    AC4A
....................             printf("b12.bco=2016"); 
0AC30:  MOVLW  E4
0AC32:  MOVWF  FF6
0AC34:  MOVLW  0D
0AC36:  MOVWF  FF7
0AC38:  MOVLW  00
0AC3A:  MOVWF  FF8
0AC3C:  CALL   3BB2
....................             SendDataDisplay();  
0AC40:  CALL   3BE4
....................             Buzzer_on; 
0AC44:  BSF    F8C.0
0AC46:  BCF    F95.0
....................          } 
....................          else{ 
0AC48:  BRA    AC62
....................             printf("b12.bco=63488"); 
0AC4A:  MOVLW  F2
0AC4C:  MOVWF  FF6
0AC4E:  MOVLW  0D
0AC50:  MOVWF  FF7
0AC52:  MOVLW  00
0AC54:  MOVWF  FF8
0AC56:  CALL   3BB2
....................             SendDataDisplay();  
0AC5A:  CALL   3BE4
....................             Buzzer_off; 
0AC5E:  BCF    F8C.0
0AC60:  BCF    F95.0
....................          } 
....................           
....................          if(HIG){ 
0AC62:  BSF    F94.0
0AC64:  BTFSS  F82.0
0AC66:  BRA    AC7E
....................             printf("b16.bco=2016"); 
0AC68:  MOVLW  00
0AC6A:  MOVWF  FF6
0AC6C:  MOVLW  0E
0AC6E:  MOVWF  FF7
0AC70:  MOVLW  00
0AC72:  MOVWF  FF8
0AC74:  CALL   3BB2
....................             SendDataDisplay();  
0AC78:  CALL   3BE4
....................          }else{ 
0AC7C:  BRA    AC92
....................             printf("b16.bco=63488"); 
0AC7E:  MOVLW  0E
0AC80:  MOVWF  FF6
0AC82:  MOVLW  0E
0AC84:  MOVWF  FF7
0AC86:  MOVLW  00
0AC88:  MOVWF  FF8
0AC8A:  CALL   3BB2
....................             SendDataDisplay();  
0AC8E:  CALL   3BE4
....................          } 
....................           
....................          if(LOW){ 
0AC92:  BSF    F94.1
0AC94:  BTFSS  F82.1
0AC96:  BRA    ACAE
....................             printf("b17.bco=2016"); 
0AC98:  MOVLW  1C
0AC9A:  MOVWF  FF6
0AC9C:  MOVLW  0E
0AC9E:  MOVWF  FF7
0ACA0:  MOVLW  00
0ACA2:  MOVWF  FF8
0ACA4:  CALL   3BB2
....................             SendDataDisplay();  
0ACA8:  CALL   3BE4
....................          }else{ 
0ACAC:  BRA    ACC2
....................             printf("b17.bco=63488"); 
0ACAE:  MOVLW  2A
0ACB0:  MOVWF  FF6
0ACB2:  MOVLW  0E
0ACB4:  MOVWF  FF7
0ACB6:  MOVLW  00
0ACB8:  MOVWF  FF8
0ACBA:  CALL   3BB2
....................             SendDataDisplay();  
0ACBE:  CALL   3BE4
....................          } 
....................           
....................          printf("b13.txt=\"ADC0:%3.0f\"",sensores(0));          
0ACC2:  MOVLB  4
0ACC4:  CLRF   x52
0ACC6:  MOVLB  0
0ACC8:  CALL   3C38
0ACCC:  MOVFF  00,449
0ACD0:  MOVFF  01,44A
0ACD4:  MOVFF  02,44B
0ACD8:  MOVFF  03,44C
0ACDC:  MOVLW  38
0ACDE:  MOVWF  FF6
0ACE0:  MOVLW  0E
0ACE2:  MOVWF  FF7
0ACE4:  MOVLW  00
0ACE6:  MOVWF  FF8
0ACE8:  MOVLW  0E
0ACEA:  MOVLB  4
0ACEC:  MOVWF  x4F
0ACEE:  MOVLB  0
0ACF0:  CALL   4B26
0ACF4:  MOVLW  02
0ACF6:  MOVWF  FE9
0ACF8:  MOVFF  44C,452
0ACFC:  MOVFF  44B,451
0AD00:  MOVFF  44A,450
0AD04:  MOVFF  449,44F
0AD08:  MOVLB  4
0AD0A:  CLRF   x53
0AD0C:  MOVLB  0
0AD0E:  CALL   4CC6
0AD12:  MOVLW  22
0AD14:  BTFSS  F9E.4
0AD16:  BRA    AD14
0AD18:  MOVWF  FAD
....................          SendDataDisplay(); 
0AD1A:  CALL   3BE4
....................          printf("b14.txt=\"ADC1:%3.0f\"",sensores(1));          
0AD1E:  MOVLW  01
0AD20:  MOVLB  4
0AD22:  MOVWF  x52
0AD24:  MOVLB  0
0AD26:  CALL   3C38
0AD2A:  MOVFF  00,449
0AD2E:  MOVFF  01,44A
0AD32:  MOVFF  02,44B
0AD36:  MOVFF  03,44C
0AD3A:  MOVLW  4E
0AD3C:  MOVWF  FF6
0AD3E:  MOVLW  0E
0AD40:  MOVWF  FF7
0AD42:  MOVLW  00
0AD44:  MOVWF  FF8
0AD46:  MOVLW  0E
0AD48:  MOVLB  4
0AD4A:  MOVWF  x4F
0AD4C:  MOVLB  0
0AD4E:  CALL   4B26
0AD52:  MOVLW  02
0AD54:  MOVWF  FE9
0AD56:  MOVFF  44C,452
0AD5A:  MOVFF  44B,451
0AD5E:  MOVFF  44A,450
0AD62:  MOVFF  449,44F
0AD66:  MOVLB  4
0AD68:  CLRF   x53
0AD6A:  MOVLB  0
0AD6C:  CALL   4CC6
0AD70:  MOVLW  22
0AD72:  BTFSS  F9E.4
0AD74:  BRA    AD72
0AD76:  MOVWF  FAD
....................          SendDataDisplay(); 
0AD78:  CALL   3BE4
....................          printf("b15.txt=\"A2:%3.0f %03Lu\"",sensores(2),PresionCamara); 
0AD7C:  MOVLW  02
0AD7E:  MOVLB  4
0AD80:  MOVWF  x52
0AD82:  MOVLB  0
0AD84:  CALL   3C38
0AD88:  MOVFF  00,449
0AD8C:  MOVFF  01,44A
0AD90:  MOVFF  02,44B
0AD94:  MOVFF  03,44C
0AD98:  MOVLW  64
0AD9A:  MOVWF  FF6
0AD9C:  MOVLW  0E
0AD9E:  MOVWF  FF7
0ADA0:  MOVLW  00
0ADA2:  MOVWF  FF8
0ADA4:  MOVLW  0C
0ADA6:  MOVLB  4
0ADA8:  MOVWF  x4F
0ADAA:  MOVLB  0
0ADAC:  CALL   4B26
0ADB0:  MOVLW  02
0ADB2:  MOVWF  FE9
0ADB4:  MOVFF  44C,452
0ADB8:  MOVFF  44B,451
0ADBC:  MOVFF  44A,450
0ADC0:  MOVFF  449,44F
0ADC4:  MOVLB  4
0ADC6:  CLRF   x53
0ADC8:  MOVLB  0
0ADCA:  CALL   4CC6
0ADCE:  MOVLW  20
0ADD0:  BTFSS  F9E.4
0ADD2:  BRA    ADD0
0ADD4:  MOVWF  FAD
0ADD6:  MOVLW  0A
0ADD8:  MOVWF  FE9
0ADDA:  MOVFF  376,450
0ADDE:  MOVFF  375,44F
0ADE2:  CALL   54DC
0ADE6:  MOVLW  22
0ADE8:  BTFSS  F9E.4
0ADEA:  BRA    ADE8
0ADEC:  MOVWF  FAD
....................          SendDataDisplay(); 
0ADEE:  CALL   3BE4
....................          printf("b18.txt=\"A3:%3.0f %03Lu\"",sensores(3),PresionPreCamara); 
0ADF2:  MOVLW  03
0ADF4:  MOVLB  4
0ADF6:  MOVWF  x52
0ADF8:  MOVLB  0
0ADFA:  CALL   3C38
0ADFE:  MOVFF  00,449
0AE02:  MOVFF  01,44A
0AE06:  MOVFF  02,44B
0AE0A:  MOVFF  03,44C
0AE0E:  MOVLW  7E
0AE10:  MOVWF  FF6
0AE12:  MOVLW  0E
0AE14:  MOVWF  FF7
0AE16:  MOVLW  00
0AE18:  MOVWF  FF8
0AE1A:  MOVLW  0C
0AE1C:  MOVLB  4
0AE1E:  MOVWF  x4F
0AE20:  MOVLB  0
0AE22:  CALL   4B26
0AE26:  MOVLW  02
0AE28:  MOVWF  FE9
0AE2A:  MOVFF  44C,452
0AE2E:  MOVFF  44B,451
0AE32:  MOVFF  44A,450
0AE36:  MOVFF  449,44F
0AE3A:  MOVLB  4
0AE3C:  CLRF   x53
0AE3E:  MOVLB  0
0AE40:  CALL   4CC6
0AE44:  MOVLW  20
0AE46:  BTFSS  F9E.4
0AE48:  BRA    AE46
0AE4A:  MOVWF  FAD
0AE4C:  MOVLW  0A
0AE4E:  MOVWF  FE9
0AE50:  MOVFF  378,450
0AE54:  MOVFF  377,44F
0AE58:  CALL   54DC
0AE5C:  MOVLW  22
0AE5E:  BTFSS  F9E.4
0AE60:  BRA    AE5E
0AE62:  MOVWF  FAD
....................          SendDataDisplay(); 
0AE64:  CALL   3BE4
....................          printf("b20.txt=\"T1:%3.1f\"",Temperatura); 
0AE68:  MOVLW  98
0AE6A:  MOVWF  FF6
0AE6C:  MOVLW  0E
0AE6E:  MOVWF  FF7
0AE70:  MOVLW  00
0AE72:  MOVWF  FF8
0AE74:  MOVLW  0C
0AE76:  MOVLB  4
0AE78:  MOVWF  x4F
0AE7A:  MOVLB  0
0AE7C:  CALL   4B26
0AE80:  MOVLW  02
0AE82:  MOVWF  FE9
0AE84:  MOVFF  328,452
0AE88:  MOVFF  327,451
0AE8C:  MOVFF  326,450
0AE90:  MOVFF  325,44F
0AE94:  MOVLW  01
0AE96:  MOVLB  4
0AE98:  MOVWF  x53
0AE9A:  MOVLB  0
0AE9C:  CALL   4CC6
0AEA0:  MOVLW  22
0AEA2:  BTFSS  F9E.4
0AEA4:  BRA    AEA2
0AEA6:  MOVWF  FAD
....................          SendDataDisplay(); 
0AEA8:  CALL   3BE4
....................           
....................          if(RX_Buffer[4]==0x21 || LEFT){//Oprimio salir 
0AEAC:  MOVF   34,W
0AEAE:  SUBLW  21
0AEB0:  BZ    AEB8
0AEB2:  BSF    F93.3
0AEB4:  BTFSC  F81.3
0AEB6:  BRA    AF00
....................             delay_ms(100); 
0AEB8:  MOVLW  64
0AEBA:  MOVLB  4
0AEBC:  MOVWF  x62
0AEBE:  MOVLB  0
0AEC0:  CALL   1A6C
....................             if(RX_Buffer[4]==0x21 || LEFT){ 
0AEC4:  MOVF   34,W
0AEC6:  SUBLW  21
0AEC8:  BZ    AED0
0AECA:  BSF    F93.3
0AECC:  BTFSC  F81.3
0AECE:  BRA    AF00
....................                printf("page MenuPrincipal"); 
0AED0:  MOVLW  AC
0AED2:  MOVWF  FF6
0AED4:  MOVLW  0E
0AED6:  MOVWF  FF7
0AED8:  MOVLW  00
0AEDA:  MOVWF  FF8
0AEDC:  CALL   3BB2
....................                SendDataDisplay(); 
0AEE0:  CALL   3BE4
....................                PantallaPrincipal=0; 
0AEE4:  MOVLB  2
0AEE6:  CLRF   xDD
....................                PruebaEstados=OFF;Desfogue_off;Agua_off; 
0AEE8:  MOVLB  0
0AEEA:  BCF    xA1.4
0AEEC:  BCF    F8C.4
0AEEE:  BCF    F95.4
0AEF0:  BCF    F8C.5
0AEF2:  BCF    F95.5
....................                #ifdef Enfriador 
....................                Enfr_off; 
0AEF4:  BCF    F8C.6
0AEF6:  BCF    F95.6
....................                #else 
....................                Bomba_off; 
....................                #endif 
....................                SSR_off; 
0AEF8:  BSF    F8B.2
0AEFA:  BCF    F94.2
....................                ApagaSalidas(); 
0AEFC:  CALL   3C1A
....................                // Falta apagar Todo 
....................             } 
....................          } 
....................           
....................          if(UP){ 
0AF00:  BSF    F93.0
0AF02:  BTFSC  F81.0
0AF04:  BRA    B048
....................             delay_ms(100); 
0AF06:  MOVLW  64
0AF08:  MOVLB  4
0AF0A:  MOVWF  x62
0AF0C:  MOVLB  0
0AF0E:  CALL   1A6C
....................             if(UP){ 
0AF12:  BSF    F93.0
0AF14:  BTFSC  F81.0
0AF16:  BRA    B048
....................                G1=41-sensores(2); 
0AF18:  MOVLW  02
0AF1A:  MOVLB  4
0AF1C:  MOVWF  x52
0AF1E:  MOVLB  0
0AF20:  CALL   3C38
0AF24:  MOVFF  FEA,44A
0AF28:  MOVFF  FE9,449
0AF2C:  BSF    FD8.1
0AF2E:  MOVLB  4
0AF30:  CLRF   x61
0AF32:  CLRF   x60
0AF34:  MOVLW  24
0AF36:  MOVWF  x5F
0AF38:  MOVLW  84
0AF3A:  MOVWF  x5E
0AF3C:  MOVFF  03,465
0AF40:  MOVFF  02,464
0AF44:  MOVFF  01,463
0AF48:  MOVFF  00,462
0AF4C:  MOVLB  0
0AF4E:  CALL   1C28
0AF52:  MOVFF  44A,FEA
0AF56:  MOVFF  449,FE9
0AF5A:  MOVFF  03,461
0AF5E:  MOVFF  02,460
0AF62:  MOVFF  01,45F
0AF66:  MOVFF  00,45E
0AF6A:  CALL   43CC
0AF6E:  MOVFF  01,3B9
....................                if(G1<0) 
0AF72:  MOVLB  3
0AF74:  BTFSC  xB9.7
0AF76:  BRA    AF7A
0AF78:  BRA    AF80
....................                   sg1=10; 
0AF7A:  MOVLW  0A
0AF7C:  MOVWF  xBB
....................                else 
0AF7E:  BRA    AF84
....................                   sg1=5; 
0AF80:  MOVLW  05
0AF82:  MOVWF  xBB
....................                    
....................                write_eeprom(42,(int8)G1); 
0AF84:  CLRF   FAA
0AF86:  MOVLW  2A
0AF88:  MOVWF  FA9
0AF8A:  MOVFF  3B9,FA8
0AF8E:  BCF    FA6.6
0AF90:  BCF    FA6.7
0AF92:  BSF    FA6.2
0AF94:  MOVF   FF2,W
0AF96:  MOVWF  00
0AF98:  BCF    FF2.6
0AF9A:  BCF    FF2.7
0AF9C:  MOVLB  F
0AF9E:  MOVLW  55
0AFA0:  MOVWF  FA7
0AFA2:  MOVLW  AA
0AFA4:  MOVWF  FA7
0AFA6:  BSF    FA6.1
0AFA8:  BTFSC  FA6.1
0AFAA:  BRA    AFA8
0AFAC:  BCF    FA6.2
0AFAE:  MOVF   00,W
0AFB0:  IORWF  FF2,F
....................                delay_ms(10); 
0AFB2:  MOVLW  0A
0AFB4:  MOVLB  4
0AFB6:  MOVWF  x62
0AFB8:  MOVLB  0
0AFBA:  CALL   1A6C
....................                write_eeprom(44,(int8)sg1); 
0AFBE:  CLRF   FAA
0AFC0:  MOVLW  2C
0AFC2:  MOVWF  FA9
0AFC4:  MOVFF  3BB,FA8
0AFC8:  BCF    FA6.6
0AFCA:  BCF    FA6.7
0AFCC:  BSF    FA6.2
0AFCE:  MOVF   FF2,W
0AFD0:  MOVWF  00
0AFD2:  BCF    FF2.6
0AFD4:  BCF    FF2.7
0AFD6:  MOVLB  F
0AFD8:  MOVLW  55
0AFDA:  MOVWF  FA7
0AFDC:  MOVLW  AA
0AFDE:  MOVWF  FA7
0AFE0:  BSF    FA6.1
0AFE2:  BTFSC  FA6.1
0AFE4:  BRA    AFE2
0AFE6:  BCF    FA6.2
0AFE8:  MOVF   00,W
0AFEA:  IORWF  FF2,F
....................                delay_ms(10); 
0AFEC:  MOVLW  0A
0AFEE:  MOVLB  4
0AFF0:  MOVWF  x62
0AFF2:  MOVLB  0
0AFF4:  CALL   1A6C
....................                Buzzer_on; 
0AFF8:  BSF    F8C.0
0AFFA:  BCF    F95.0
....................                delay_ms(1000); 
0AFFC:  MOVLW  04
0AFFE:  MOVLB  4
0B000:  MOVWF  x49
0B002:  MOVLW  FA
0B004:  MOVWF  x62
0B006:  MOVLB  0
0B008:  CALL   1A6C
0B00C:  MOVLB  4
0B00E:  DECFSZ x49,F
0B010:  BRA    B002
....................                Buzzer_off; 
0B012:  BCF    F8C.0
0B014:  BCF    F95.0
....................                delay_ms(1000); 
0B016:  MOVLW  04
0B018:  MOVWF  x49
0B01A:  MOVLW  FA
0B01C:  MOVWF  x62
0B01E:  MOVLB  0
0B020:  CALL   1A6C
0B024:  MOVLB  4
0B026:  DECFSZ x49,F
0B028:  BRA    B01A
....................                Buzzer_on; 
0B02A:  BSF    F8C.0
0B02C:  BCF    F95.0
....................                delay_ms(1000); 
0B02E:  MOVLW  04
0B030:  MOVWF  x49
0B032:  MOVLW  FA
0B034:  MOVWF  x62
0B036:  MOVLB  0
0B038:  CALL   1A6C
0B03C:  MOVLB  4
0B03E:  DECFSZ x49,F
0B040:  BRA    B032
....................                Buzzer_off; 
0B042:  BCF    F8C.0
0B044:  BCF    F95.0
0B046:  MOVLB  0
....................             } 
....................          } 
....................           
....................          if(DOWN){ 
0B048:  BSF    F93.1
0B04A:  BTFSC  F81.1
0B04C:  BRA    B190
....................             delay_ms(100); 
0B04E:  MOVLW  64
0B050:  MOVLB  4
0B052:  MOVWF  x62
0B054:  MOVLB  0
0B056:  CALL   1A6C
....................             if(DOWN){ 
0B05A:  BSF    F93.1
0B05C:  BTFSC  F81.1
0B05E:  BRA    B190
....................                G2=41-sensores(3); 
0B060:  MOVLW  03
0B062:  MOVLB  4
0B064:  MOVWF  x52
0B066:  MOVLB  0
0B068:  CALL   3C38
0B06C:  MOVFF  FEA,44A
0B070:  MOVFF  FE9,449
0B074:  BSF    FD8.1
0B076:  MOVLB  4
0B078:  CLRF   x61
0B07A:  CLRF   x60
0B07C:  MOVLW  24
0B07E:  MOVWF  x5F
0B080:  MOVLW  84
0B082:  MOVWF  x5E
0B084:  MOVFF  03,465
0B088:  MOVFF  02,464
0B08C:  MOVFF  01,463
0B090:  MOVFF  00,462
0B094:  MOVLB  0
0B096:  CALL   1C28
0B09A:  MOVFF  44A,FEA
0B09E:  MOVFF  449,FE9
0B0A2:  MOVFF  03,461
0B0A6:  MOVFF  02,460
0B0AA:  MOVFF  01,45F
0B0AE:  MOVFF  00,45E
0B0B2:  CALL   43CC
0B0B6:  MOVFF  01,3BA
....................                if(G2<0) 
0B0BA:  MOVLB  3
0B0BC:  BTFSC  xBA.7
0B0BE:  BRA    B0C2
0B0C0:  BRA    B0C8
....................                   sg2=10; 
0B0C2:  MOVLW  0A
0B0C4:  MOVWF  xBC
....................                else 
0B0C6:  BRA    B0CC
....................                   sg2=5; 
0B0C8:  MOVLW  05
0B0CA:  MOVWF  xBC
....................                    
....................                write_eeprom(43,(int8)G2); 
0B0CC:  CLRF   FAA
0B0CE:  MOVLW  2B
0B0D0:  MOVWF  FA9
0B0D2:  MOVFF  3BA,FA8
0B0D6:  BCF    FA6.6
0B0D8:  BCF    FA6.7
0B0DA:  BSF    FA6.2
0B0DC:  MOVF   FF2,W
0B0DE:  MOVWF  00
0B0E0:  BCF    FF2.6
0B0E2:  BCF    FF2.7
0B0E4:  MOVLB  F
0B0E6:  MOVLW  55
0B0E8:  MOVWF  FA7
0B0EA:  MOVLW  AA
0B0EC:  MOVWF  FA7
0B0EE:  BSF    FA6.1
0B0F0:  BTFSC  FA6.1
0B0F2:  BRA    B0F0
0B0F4:  BCF    FA6.2
0B0F6:  MOVF   00,W
0B0F8:  IORWF  FF2,F
....................                delay_ms(10); 
0B0FA:  MOVLW  0A
0B0FC:  MOVLB  4
0B0FE:  MOVWF  x62
0B100:  MOVLB  0
0B102:  CALL   1A6C
....................                write_eeprom(45,(int8)sg2); 
0B106:  CLRF   FAA
0B108:  MOVLW  2D
0B10A:  MOVWF  FA9
0B10C:  MOVFF  3BC,FA8
0B110:  BCF    FA6.6
0B112:  BCF    FA6.7
0B114:  BSF    FA6.2
0B116:  MOVF   FF2,W
0B118:  MOVWF  00
0B11A:  BCF    FF2.6
0B11C:  BCF    FF2.7
0B11E:  MOVLB  F
0B120:  MOVLW  55
0B122:  MOVWF  FA7
0B124:  MOVLW  AA
0B126:  MOVWF  FA7
0B128:  BSF    FA6.1
0B12A:  BTFSC  FA6.1
0B12C:  BRA    B12A
0B12E:  BCF    FA6.2
0B130:  MOVF   00,W
0B132:  IORWF  FF2,F
....................                delay_ms(10); 
0B134:  MOVLW  0A
0B136:  MOVLB  4
0B138:  MOVWF  x62
0B13A:  MOVLB  0
0B13C:  CALL   1A6C
....................                Buzzer_on; 
0B140:  BSF    F8C.0
0B142:  BCF    F95.0
....................                delay_ms(1000); 
0B144:  MOVLW  04
0B146:  MOVLB  4
0B148:  MOVWF  x49
0B14A:  MOVLW  FA
0B14C:  MOVWF  x62
0B14E:  MOVLB  0
0B150:  CALL   1A6C
0B154:  MOVLB  4
0B156:  DECFSZ x49,F
0B158:  BRA    B14A
....................                Buzzer_off; 
0B15A:  BCF    F8C.0
0B15C:  BCF    F95.0
....................                delay_ms(1000); 
0B15E:  MOVLW  04
0B160:  MOVWF  x49
0B162:  MOVLW  FA
0B164:  MOVWF  x62
0B166:  MOVLB  0
0B168:  CALL   1A6C
0B16C:  MOVLB  4
0B16E:  DECFSZ x49,F
0B170:  BRA    B162
....................                Buzzer_on; 
0B172:  BSF    F8C.0
0B174:  BCF    F95.0
....................                delay_ms(1000); 
0B176:  MOVLW  04
0B178:  MOVWF  x49
0B17A:  MOVLW  FA
0B17C:  MOVWF  x62
0B17E:  MOVLB  0
0B180:  CALL   1A6C
0B184:  MOVLB  4
0B186:  DECFSZ x49,F
0B188:  BRA    B17A
....................                Buzzer_off; 
0B18A:  BCF    F8C.0
0B18C:  BCF    F95.0
0B18E:  MOVLB  0
0B190:  MOVLB  3
....................             } 
....................          } 
....................      } 
.................... //_--------------------------------------------------------------------------------------------------------------------------------------------------------     
....................  
.................... //_--------------------------------------------------------------------------------------------------------------------------------------------------------       
....................       if(Menu==7){ //Menu de Configuracin de Fecha y Hora 
0B192:  MOVF   x5D,W
0B194:  SUBLW  07
0B196:  BTFSS  FD8.2
0B198:  BRA    B5C0
....................        
....................          if(RX_Buffer[4]==0x0a){//Selecciono Hora 
0B19A:  MOVF   34,W
0B19C:  SUBLW  0A
0B19E:  BNZ   B1A4
....................             Opcion=4; 
0B1A0:  MOVLW  04
0B1A2:  MOVWF  x64
....................          } 
....................           
....................          if(RX_Buffer[4]==0x0b){//Selecciono Minuto 
0B1A4:  MOVF   34,W
0B1A6:  SUBLW  0B
0B1A8:  BNZ   B1AE
....................             Opcion=5; 
0B1AA:  MOVLW  05
0B1AC:  MOVWF  x64
....................          } 
....................           
....................          if(RX_Buffer[4]==0x0c){//Selecciono Dia 
0B1AE:  MOVF   34,W
0B1B0:  SUBLW  0C
0B1B2:  BNZ   B1B8
....................             Opcion=1; 
0B1B4:  MOVLW  01
0B1B6:  MOVWF  x64
....................          } 
....................           
....................          if(RX_Buffer[4]==0x0d){//Selecciono Hora 
0B1B8:  MOVF   34,W
0B1BA:  SUBLW  0D
0B1BC:  BNZ   B1C2
....................             Opcion=2; 
0B1BE:  MOVLW  02
0B1C0:  MOVWF  x64
....................          } 
....................           
....................          if(RX_Buffer[4]==0x0e){//Selecciono Year 
0B1C2:  MOVF   34,W
0B1C4:  SUBLW  0E
0B1C6:  BNZ   B1CC
....................             Opcion=3; 
0B1C8:  MOVLW  03
0B1CA:  MOVWF  x64
....................          } 
....................           
....................          if(RIGHT){ 
0B1CC:  BSF    F93.2
0B1CE:  BTFSC  F81.2
0B1D0:  BRA    B1E8
....................             delay_ms(200); 
0B1D2:  MOVLW  C8
0B1D4:  MOVLB  4
0B1D6:  MOVWF  x62
0B1D8:  MOVLB  0
0B1DA:  CALL   1A6C
....................             if(RIGHT){ 
0B1DE:  BSF    F93.2
0B1E0:  BTFSC  F81.2
0B1E2:  BRA    B1EA
....................                Opcion++; 
0B1E4:  MOVLB  3
0B1E6:  INCF   x64,F
0B1E8:  MOVLB  0
....................             } 
....................          } 
....................          if(Opcion>5) 
0B1EA:  MOVLB  3
0B1EC:  MOVF   x64,W
0B1EE:  SUBLW  05
0B1F0:  BC    B1F6
....................             Opcion=1; 
0B1F2:  MOVLW  01
0B1F4:  MOVWF  x64
....................          if(Opcion<1) 
0B1F6:  MOVF   x64,F
0B1F8:  BNZ   B1FE
....................             Opcion=5; 
0B1FA:  MOVLW  05
0B1FC:  MOVWF  x64
....................              
....................          if(RX_Buffer[4]==0x11 || LEFT){//Selecciono Regresar 
0B1FE:  MOVF   34,W
0B200:  SUBLW  11
0B202:  BZ    B20A
0B204:  BSF    F93.3
0B206:  BTFSC  F81.3
0B208:  BRA    B322
....................             printf("page MenuPrincipal"); 
0B20A:  MOVLW  C0
0B20C:  MOVWF  FF6
0B20E:  MOVLW  0E
0B210:  MOVWF  FF7
0B212:  MOVLW  00
0B214:  MOVWF  FF8
0B216:  MOVLB  0
0B218:  CALL   3BB2
....................             SendDataDisplay();   
0B21C:  CALL   3BE4
....................             PantallaPrincipal=0; 
0B220:  MOVLB  2
0B222:  CLRF   xDD
....................             Op=OFF; 
0B224:  MOVLB  0
0B226:  BCF    xA2.2
....................             Op2=OFF; 
0B228:  BCF    xA2.3
....................              
....................             if(esBisiesto(YearTx)) 
0B22A:  MOVFF  3AF,449
0B22E:  CALL   5586
0B232:  MOVF   01,F
0B234:  BZ    B250
....................                Modulo=Bisiesto[MesTx]; 
0B236:  CLRF   03
0B238:  MOVLB  3
0B23A:  MOVF   xB0,W
0B23C:  ADDLW  93
0B23E:  MOVWF  FE9
0B240:  MOVLW  00
0B242:  ADDWFC 03,W
0B244:  MOVWF  FEA
0B246:  MOVFF  FEF,2DF
0B24A:  MOVLB  2
....................             else 
0B24C:  BRA    B266
0B24E:  MOVLB  0
....................                Modulo=Regular[MesTx]; 
0B250:  CLRF   03
0B252:  MOVLB  3
0B254:  MOVF   xB0,W
0B256:  ADDLW  87
0B258:  MOVWF  FE9
0B25A:  MOVLW  00
0B25C:  ADDWFC 03,W
0B25E:  MOVWF  FEA
0B260:  MOVFF  FEF,2DF
0B264:  MOVLB  2
....................           
....................             dowTx=((YearTx-1)%7+((YearTx-1)/4-3*((YearTx-1)/100+1)/4)%7+Modulo+DiaTx%7)%7; 
0B266:  MOVLW  01
0B268:  MOVLB  3
0B26A:  SUBWF  xAF,W
0B26C:  MOVLB  4
0B26E:  MOVWF  x4A
0B270:  MOVWF  x53
0B272:  MOVLW  07
0B274:  MOVWF  x54
0B276:  MOVLB  0
0B278:  CALL   4B58
0B27C:  MOVFF  00,449
0B280:  MOVLW  01
0B282:  MOVLB  3
0B284:  SUBWF  xAF,W
0B286:  MOVWF  00
0B288:  RRCF   00,W
0B28A:  MOVLB  4
0B28C:  MOVWF  x4A
0B28E:  RRCF   x4A,F
0B290:  MOVLW  3F
0B292:  ANDWF  x4A,F
0B294:  MOVLW  01
0B296:  MOVLB  3
0B298:  SUBWF  xAF,W
0B29A:  MOVLB  4
0B29C:  MOVWF  x4C
0B29E:  MOVWF  x53
0B2A0:  MOVLW  64
0B2A2:  MOVWF  x54
0B2A4:  MOVLB  0
0B2A6:  CALL   4B58
0B2AA:  MOVLW  01
0B2AC:  ADDWF  01,W
0B2AE:  MULLW  03
0B2B0:  MOVFF  FF3,00
0B2B4:  RRCF   00,F
0B2B6:  RRCF   00,F
0B2B8:  MOVLW  3F
0B2BA:  ANDWF  00,F
0B2BC:  MOVF   00,W
0B2BE:  MOVLB  4
0B2C0:  SUBWF  x4A,W
0B2C2:  MOVWF  x4B
0B2C4:  MOVWF  x53
0B2C6:  MOVLW  07
0B2C8:  MOVWF  x54
0B2CA:  MOVLB  0
0B2CC:  CALL   4B58
0B2D0:  MOVF   00,W
0B2D2:  MOVLB  4
0B2D4:  ADDWF  x49,W
0B2D6:  MOVLB  2
0B2D8:  ADDWF  xDF,W
0B2DA:  MOVLB  4
0B2DC:  MOVWF  x49
0B2DE:  MOVFF  3B1,453
0B2E2:  MOVLW  07
0B2E4:  MOVWF  x54
0B2E6:  MOVLB  0
0B2E8:  CALL   4B58
0B2EC:  MOVF   00,W
0B2EE:  MOVLB  4
0B2F0:  ADDWF  x49,W
0B2F2:  MOVWF  x4A
0B2F4:  MOVWF  x53
0B2F6:  MOVLW  07
0B2F8:  MOVWF  x54
0B2FA:  MOVLB  0
0B2FC:  CALL   4B58
0B300:  MOVFF  00,3B5
....................             rtc_set_datetime(DiaTx,MesTx,YearTx,dowTx,HoraTx,MinutoTx); 
0B304:  MOVFF  3B1,449
0B308:  MOVFF  3B0,44A
0B30C:  MOVFF  3AF,44B
0B310:  MOVFF  3B5,44C
0B314:  MOVFF  3B2,44D
0B318:  MOVFF  3B3,44E
0B31C:  GOTO   560C
0B320:  MOVLB  3
....................          } 
....................           
....................          if((RX_Buffer[4]==0x2a)|| UP){//Tecla Arriba Oprimida 
0B322:  MOVF   34,W
0B324:  SUBLW  2A
0B326:  BZ    B32E
0B328:  BSF    F93.0
0B32A:  BTFSC  F81.0
0B32C:  BRA    B42C
....................             delay_ms(200); 
0B32E:  MOVLW  C8
0B330:  MOVLB  4
0B332:  MOVWF  x62
0B334:  MOVLB  0
0B336:  CALL   1A6C
....................             if((RX_Buffer[4]==0x2a)|| UP){    
0B33A:  MOVF   34,W
0B33C:  SUBLW  2A
0B33E:  BZ    B346
0B340:  BSF    F93.0
0B342:  BTFSC  F81.0
0B344:  BRA    B42E
....................                if(Opcion==1){ 
0B346:  MOVLB  3
0B348:  DECFSZ x64,W
0B34A:  BRA    B3D8
....................                   if(MesTx==2){ 
0B34C:  MOVF   xB0,W
0B34E:  SUBLW  02
0B350:  BNZ   B386
....................                      if(esBisiesto(YearTx)){ 
0B352:  MOVFF  3AF,449
0B356:  MOVLB  0
0B358:  CALL   5586
0B35C:  MOVF   01,F
0B35E:  BZ    B374
....................                         if(DiaTx<29) 
0B360:  MOVLB  3
0B362:  MOVF   xB1,W
0B364:  SUBLW  1C
0B366:  BNC   B36C
....................                            DiaTx++; 
0B368:  INCF   xB1,F
....................                         else 
0B36A:  BRA    B370
....................                            DiaTx=1;    
0B36C:  MOVLW  01
0B36E:  MOVWF  xB1
....................                      }else{ 
0B370:  BRA    B384
0B372:  MOVLB  0
....................                         if(DiaTx<28) 
0B374:  MOVLB  3
0B376:  MOVF   xB1,W
0B378:  SUBLW  1B
0B37A:  BNC   B380
....................                            DiaTx++; 
0B37C:  INCF   xB1,F
....................                         else 
0B37E:  BRA    B384
....................                            DiaTx=1;    
0B380:  MOVLW  01
0B382:  MOVWF  xB1
....................                      } 
....................                   }else{ 
0B384:  BRA    B3D6
....................                      if(MesTx<=7){ 
0B386:  MOVF   xB0,W
0B388:  SUBLW  07
0B38A:  BNC   B3B2
....................                         if(MesTx % 2 ==0){ 
0B38C:  MOVF   xB0,W
0B38E:  ANDLW  01
0B390:  BNZ   B3A2
....................                            if(DiaTx<30) 
0B392:  MOVF   xB1,W
0B394:  SUBLW  1D
0B396:  BNC   B39C
....................                               DiaTx++;     
0B398:  INCF   xB1,F
....................                            else 
0B39A:  BRA    B3A0
....................                               DiaTx=1;    
0B39C:  MOVLW  01
0B39E:  MOVWF  xB1
....................                         }else{ 
0B3A0:  BRA    B3B0
....................                            if(DiaTx<31) 
0B3A2:  MOVF   xB1,W
0B3A4:  SUBLW  1E
0B3A6:  BNC   B3AC
....................                               DiaTx++;     
0B3A8:  INCF   xB1,F
....................                            else 
0B3AA:  BRA    B3B0
....................                               DiaTx=1;    
0B3AC:  MOVLW  01
0B3AE:  MOVWF  xB1
....................                         }     
....................                      }else{ 
0B3B0:  BRA    B3D6
....................                         if(MesTx % 2 ==0){ 
0B3B2:  MOVF   xB0,W
0B3B4:  ANDLW  01
0B3B6:  BNZ   B3C8
....................                            if(DiaTx<31) 
0B3B8:  MOVF   xB1,W
0B3BA:  SUBLW  1E
0B3BC:  BNC   B3C2
....................                               DiaTx++;   
0B3BE:  INCF   xB1,F
....................                            else 
0B3C0:  BRA    B3C6
....................                               DiaTx=1; 
0B3C2:  MOVLW  01
0B3C4:  MOVWF  xB1
....................                         }else{ 
0B3C6:  BRA    B3D6
....................                            if(DiaTx<30) 
0B3C8:  MOVF   xB1,W
0B3CA:  SUBLW  1D
0B3CC:  BNC   B3D2
....................                               DiaTx++;     
0B3CE:  INCF   xB1,F
....................                            else 
0B3D0:  BRA    B3D6
....................                               DiaTx=1; 
0B3D2:  MOVLW  01
0B3D4:  MOVWF  xB1
....................                         }     
....................                      } 
....................                   } 
....................                }else if(Opcion==2){ 
0B3D6:  BRA    B428
0B3D8:  MOVF   x64,W
0B3DA:  SUBLW  02
0B3DC:  BNZ   B3EE
....................                   if(MesTx<12) 
0B3DE:  MOVF   xB0,W
0B3E0:  SUBLW  0B
0B3E2:  BNC   B3E8
....................                      MesTx++; 
0B3E4:  INCF   xB0,F
....................                   else 
0B3E6:  BRA    B3EC
....................                      MesTx=1; 
0B3E8:  MOVLW  01
0B3EA:  MOVWF  xB0
....................                }else if(Opcion==3){ 
0B3EC:  BRA    B428
0B3EE:  MOVF   x64,W
0B3F0:  SUBLW  03
0B3F2:  BNZ   B402
....................                   if(YearTx<99) 
0B3F4:  MOVF   xAF,W
0B3F6:  SUBLW  62
0B3F8:  BNC   B3FE
....................                      YearTx++; 
0B3FA:  INCF   xAF,F
....................                   else  
0B3FC:  BRA    B400
....................                      YearTx=0; 
0B3FE:  CLRF   xAF
....................                }else if(Opcion==4){ 
0B400:  BRA    B428
0B402:  MOVF   x64,W
0B404:  SUBLW  04
0B406:  BNZ   B416
....................                   if(HoraTx<24) 
0B408:  MOVF   xB2,W
0B40A:  SUBLW  17
0B40C:  BNC   B412
....................                      HoraTx++; 
0B40E:  INCF   xB2,F
....................                   else 
0B410:  BRA    B414
....................                      HoraTx=0; 
0B412:  CLRF   xB2
....................                }else if(Opcion==5){ 
0B414:  BRA    B428
0B416:  MOVF   x64,W
0B418:  SUBLW  05
0B41A:  BNZ   B428
....................                   if(MinutoTx<59) 
0B41C:  MOVF   xB3,W
0B41E:  SUBLW  3A
0B420:  BNC   B426
....................                      MinutoTx++; 
0B422:  INCF   xB3,F
....................                   else 
0B424:  BRA    B428
....................                      MinutoTx=0; 
0B426:  CLRF   xB3
....................                } 
....................                RX_Buffer[4]=0x00; 
0B428:  CLRF   34
....................                RX_Buffer2[4]=0x00; 
0B42A:  CLRF   3F
0B42C:  MOVLB  0
....................             } 
....................          } 
....................           
....................          if(RX_Buffer[4]==0x2b || DOWN){//Tecla Abajo Oprimida 
0B42E:  MOVF   34,W
0B430:  SUBLW  2B
0B432:  BZ    B43A
0B434:  BSF    F93.1
0B436:  BTFSC  F81.1
0B438:  BRA    B4B6
....................             delay_ms(200); 
0B43A:  MOVLW  C8
0B43C:  MOVLB  4
0B43E:  MOVWF  x62
0B440:  MOVLB  0
0B442:  CALL   1A6C
....................             if(RX_Buffer[4]==0x2b || DOWN){    
0B446:  MOVF   34,W
0B448:  SUBLW  2B
0B44A:  BZ    B452
0B44C:  BSF    F93.1
0B44E:  BTFSC  F81.1
0B450:  BRA    B4B6
....................                if(Opcion==1){ 
0B452:  MOVLB  3
0B454:  DECFSZ x64,W
0B456:  BRA    B460
....................                   if(DiaTx>0) 
0B458:  MOVF   xB1,F
0B45A:  BZ    B45E
....................                      DiaTx--; 
0B45C:  DECF   xB1,F
....................                }else if(Opcion==2){ 
0B45E:  BRA    B4B0
0B460:  MOVF   x64,W
0B462:  SUBLW  02
0B464:  BNZ   B476
....................                   if(MesTx>1) 
0B466:  MOVF   xB0,W
0B468:  SUBLW  01
0B46A:  BC    B470
....................                      MesTx--; 
0B46C:  DECF   xB0,F
....................                   else 
0B46E:  BRA    B474
....................                      MesTx=12; 
0B470:  MOVLW  0C
0B472:  MOVWF  xB0
....................                }else if(Opcion==3){ 
0B474:  BRA    B4B0
0B476:  MOVF   x64,W
0B478:  SUBLW  03
0B47A:  BNZ   B48A
....................                   if(YearTx>0) 
0B47C:  MOVF   xAF,F
0B47E:  BZ    B484
....................                      YearTx--; 
0B480:  DECF   xAF,F
....................                   else 
0B482:  BRA    B488
....................                      YearTx=99; 
0B484:  MOVLW  63
0B486:  MOVWF  xAF
....................                }else if(Opcion==4){ 
0B488:  BRA    B4B0
0B48A:  MOVF   x64,W
0B48C:  SUBLW  04
0B48E:  BNZ   B49E
....................                   if(HoraTx>0) 
0B490:  MOVF   xB2,F
0B492:  BZ    B498
....................                      HoraTx--; 
0B494:  DECF   xB2,F
....................                   else 
0B496:  BRA    B49C
....................                      HoraTx=23; 
0B498:  MOVLW  17
0B49A:  MOVWF  xB2
....................                }else if(Opcion==5){ 
0B49C:  BRA    B4B0
0B49E:  MOVF   x64,W
0B4A0:  SUBLW  05
0B4A2:  BNZ   B4B0
....................                   if(MinutoTx>0) 
0B4A4:  MOVF   xB3,F
0B4A6:  BZ    B4AC
....................                      MinutoTx--; 
0B4A8:  DECF   xB3,F
....................                   else 
0B4AA:  BRA    B4B0
....................                      MinutoTx=59; 
0B4AC:  MOVLW  3B
0B4AE:  MOVWF  xB3
....................                } 
....................                RX_Buffer[4]=0x00; 
0B4B0:  CLRF   34
....................                RX_Buffer2[4]=0x00; 
0B4B2:  CLRF   3F
0B4B4:  MOVLB  0
....................             } 
....................          } 
....................        
....................       printf("thora.txt=\"%02u\"",HoraTx); 
0B4B6:  MOVLW  D4
0B4B8:  MOVWF  FF6
0B4BA:  MOVLW  0E
0B4BC:  MOVWF  FF7
0B4BE:  MOVLW  00
0B4C0:  MOVWF  FF8
0B4C2:  MOVLW  0B
0B4C4:  MOVLB  4
0B4C6:  MOVWF  x4F
0B4C8:  MOVLB  0
0B4CA:  CALL   4B26
0B4CE:  MOVFF  3B2,44F
0B4D2:  MOVLW  01
0B4D4:  MOVLB  4
0B4D6:  MOVWF  x50
0B4D8:  MOVLB  0
0B4DA:  CALL   4B84
0B4DE:  MOVLW  22
0B4E0:  BTFSS  F9E.4
0B4E2:  BRA    B4E0
0B4E4:  MOVWF  FAD
....................       SendDataDisplay(); 
0B4E6:  CALL   3BE4
....................       printf("tminutos.txt=\"%02u\"",MinutoTx); 
0B4EA:  MOVLW  E6
0B4EC:  MOVWF  FF6
0B4EE:  MOVLW  0E
0B4F0:  MOVWF  FF7
0B4F2:  MOVLW  00
0B4F4:  MOVWF  FF8
0B4F6:  MOVLW  0E
0B4F8:  MOVLB  4
0B4FA:  MOVWF  x4F
0B4FC:  MOVLB  0
0B4FE:  CALL   4B26
0B502:  MOVFF  3B3,44F
0B506:  MOVLW  01
0B508:  MOVLB  4
0B50A:  MOVWF  x50
0B50C:  MOVLB  0
0B50E:  CALL   4B84
0B512:  MOVLW  22
0B514:  BTFSS  F9E.4
0B516:  BRA    B514
0B518:  MOVWF  FAD
....................       SendDataDisplay(); 
0B51A:  CALL   3BE4
....................       printf("tdia.txt=\"%02u\"",DiaTx); 
0B51E:  MOVLW  FA
0B520:  MOVWF  FF6
0B522:  MOVLW  0E
0B524:  MOVWF  FF7
0B526:  MOVLW  00
0B528:  MOVWF  FF8
0B52A:  MOVLW  0A
0B52C:  MOVLB  4
0B52E:  MOVWF  x4F
0B530:  MOVLB  0
0B532:  CALL   4B26
0B536:  MOVFF  3B1,44F
0B53A:  MOVLW  01
0B53C:  MOVLB  4
0B53E:  MOVWF  x50
0B540:  MOVLB  0
0B542:  CALL   4B84
0B546:  MOVLW  22
0B548:  BTFSS  F9E.4
0B54A:  BRA    B548
0B54C:  MOVWF  FAD
....................       SendDataDisplay(); 
0B54E:  CALL   3BE4
....................       printf("tmes.txt=\"%02u\"",MesTx); 
0B552:  MOVLW  0A
0B554:  MOVWF  FF6
0B556:  MOVLW  0F
0B558:  MOVWF  FF7
0B55A:  MOVLW  00
0B55C:  MOVWF  FF8
0B55E:  MOVLW  0A
0B560:  MOVLB  4
0B562:  MOVWF  x4F
0B564:  MOVLB  0
0B566:  CALL   4B26
0B56A:  MOVFF  3B0,44F
0B56E:  MOVLW  01
0B570:  MOVLB  4
0B572:  MOVWF  x50
0B574:  MOVLB  0
0B576:  CALL   4B84
0B57A:  MOVLW  22
0B57C:  BTFSS  F9E.4
0B57E:  BRA    B57C
0B580:  MOVWF  FAD
....................       SendDataDisplay(); 
0B582:  CALL   3BE4
....................       printf("tyear.txt=\"%02u\"",YearTx); 
0B586:  MOVLW  1A
0B588:  MOVWF  FF6
0B58A:  MOVLW  0F
0B58C:  MOVWF  FF7
0B58E:  MOVLW  00
0B590:  MOVWF  FF8
0B592:  MOVLW  0B
0B594:  MOVLB  4
0B596:  MOVWF  x4F
0B598:  MOVLB  0
0B59A:  CALL   4B26
0B59E:  MOVFF  3AF,44F
0B5A2:  MOVLW  01
0B5A4:  MOVLB  4
0B5A6:  MOVWF  x50
0B5A8:  MOVLB  0
0B5AA:  CALL   4B84
0B5AE:  MOVLW  22
0B5B0:  BTFSS  F9E.4
0B5B2:  BRA    B5B0
0B5B4:  MOVWF  FAD
....................       SendDataDisplay(); 
0B5B6:  CALL   3BE4
....................       LimitaDia();   
0B5BA:  GOTO   56C8
0B5BE:  MOVLB  3
....................     } 
.................... //_--------------------------------------------------------------------------------------------------------------------------------------------------------        
....................  
.................... //_-------------------------------------------------------------------------------------------------------------------------------------------------------- 
....................    if(Menu==8){ //Menu Ciclos Personalizados 
0B5C0:  MOVF   x5D,W
0B5C2:  SUBLW  08
0B5C4:  BTFSS  FD8.2
0B5C6:  GOTO   C422
....................       printf("fecha.txt=\"T:%3.1fC Fecha:%02u/%02u/20%02u Hora: %02u:%02u:%02u\"",Temperatura,Dia,Mes,Year,Hora,Minuto,Segundo); 
0B5CA:  MOVLW  2C
0B5CC:  MOVWF  FF6
0B5CE:  MOVLW  0F
0B5D0:  MOVWF  FF7
0B5D2:  MOVLW  00
0B5D4:  MOVWF  FF8
0B5D6:  MOVLW  0D
0B5D8:  MOVLB  4
0B5DA:  MOVWF  x4F
0B5DC:  MOVLB  0
0B5DE:  CALL   4B26
0B5E2:  MOVLW  02
0B5E4:  MOVWF  FE9
0B5E6:  MOVFF  328,452
0B5EA:  MOVFF  327,451
0B5EE:  MOVFF  326,450
0B5F2:  MOVFF  325,44F
0B5F6:  MOVLW  01
0B5F8:  MOVLB  4
0B5FA:  MOVWF  x53
0B5FC:  MOVLB  0
0B5FE:  CALL   4CC6
0B602:  MOVLW  3E
0B604:  MOVWF  FF6
0B606:  MOVLW  0F
0B608:  MOVWF  FF7
0B60A:  MOVLW  00
0B60C:  MOVWF  FF8
0B60E:  MOVLW  09
0B610:  MOVLB  4
0B612:  MOVWF  x4F
0B614:  MOVLB  0
0B616:  CALL   4B26
0B61A:  MOVFF  3AA,44F
0B61E:  MOVLW  01
0B620:  MOVLB  4
0B622:  MOVWF  x50
0B624:  MOVLB  0
0B626:  CALL   4B84
0B62A:  MOVLW  2F
0B62C:  BTFSS  F9E.4
0B62E:  BRA    B62C
0B630:  MOVWF  FAD
0B632:  MOVFF  3A9,44F
0B636:  MOVLW  01
0B638:  MOVLB  4
0B63A:  MOVWF  x50
0B63C:  MOVLB  0
0B63E:  CALL   4B84
0B642:  MOVLW  2F
0B644:  BTFSS  F9E.4
0B646:  BRA    B644
0B648:  MOVWF  FAD
0B64A:  MOVLW  32
0B64C:  BTFSS  F9E.4
0B64E:  BRA    B64C
0B650:  MOVWF  FAD
0B652:  MOVLW  30
0B654:  BTFSS  F9E.4
0B656:  BRA    B654
0B658:  MOVWF  FAD
0B65A:  MOVFF  3A8,44F
0B65E:  MOVLW  01
0B660:  MOVLB  4
0B662:  MOVWF  x50
0B664:  MOVLB  0
0B666:  CALL   4B84
0B66A:  MOVLW  57
0B66C:  MOVWF  FF6
0B66E:  MOVLW  0F
0B670:  MOVWF  FF7
0B672:  MOVLW  00
0B674:  MOVWF  FF8
0B676:  MOVLW  07
0B678:  MOVLB  4
0B67A:  MOVWF  x4F
0B67C:  MOVLB  0
0B67E:  CALL   4B26
0B682:  MOVFF  3AB,44F
0B686:  MOVLW  01
0B688:  MOVLB  4
0B68A:  MOVWF  x50
0B68C:  MOVLB  0
0B68E:  CALL   4B84
0B692:  MOVLW  3A
0B694:  BTFSS  F9E.4
0B696:  BRA    B694
0B698:  MOVWF  FAD
0B69A:  MOVFF  3AC,44F
0B69E:  MOVLW  01
0B6A0:  MOVLB  4
0B6A2:  MOVWF  x50
0B6A4:  MOVLB  0
0B6A6:  CALL   4B84
0B6AA:  MOVLW  3A
0B6AC:  BTFSS  F9E.4
0B6AE:  BRA    B6AC
0B6B0:  MOVWF  FAD
0B6B2:  MOVFF  3AD,44F
0B6B6:  MOVLW  01
0B6B8:  MOVLB  4
0B6BA:  MOVWF  x50
0B6BC:  MOVLB  0
0B6BE:  CALL   4B84
0B6C2:  MOVLW  22
0B6C4:  BTFSS  F9E.4
0B6C6:  BRA    B6C4
0B6C8:  MOVWF  FAD
....................       SendDataDisplay(); 
0B6CA:  CALL   3BE4
....................       GuardaEEPROM=OFF; 
0B6CE:  BCF    xA2.6
....................        
....................       if(RX_Buffer[4]>0x00 && RX_Buffer[4]<0x04){//Personalizados 
0B6D0:  MOVF   34,F
0B6D2:  BTFSC  FD8.2
0B6D4:  BRA    B902
0B6D6:  MOVF   34,W
0B6D8:  SUBLW  03
0B6DA:  BTFSS  FD8.0
0B6DC:  BRA    B902
....................          printf("ciclo.txt=\"CICLO P%02u\"",RX_Buffer[4]+0x04); 
0B6DE:  MOVLW  04
0B6E0:  ADDWF  34,W
0B6E2:  MOVLB  4
0B6E4:  MOVWF  x49
0B6E6:  MOVLW  6E
0B6E8:  MOVWF  FF6
0B6EA:  MOVLW  0F
0B6EC:  MOVWF  FF7
0B6EE:  MOVLW  00
0B6F0:  MOVWF  FF8
0B6F2:  MOVLW  12
0B6F4:  MOVWF  x4F
0B6F6:  MOVLB  0
0B6F8:  CALL   4B26
0B6FC:  MOVFF  449,44F
0B700:  MOVLW  01
0B702:  MOVLB  4
0B704:  MOVWF  x50
0B706:  MOVLB  0
0B708:  CALL   4B84
0B70C:  MOVLW  22
0B70E:  BTFSS  F9E.4
0B710:  BRA    B70E
0B712:  MOVWF  FAD
....................          SendDataDisplay();           
0B714:  CALL   3BE4
....................          printf("temp.txt=\"%u\"",CiclosPersonalizados[RX_Buffer[4]-1].Temperatura); 
0B718:  MOVLW  01
0B71A:  SUBWF  34,W
0B71C:  MULLW  0A
0B71E:  MOVF   FF3,W
0B720:  MOVLB  4
0B722:  CLRF   x4A
0B724:  MOVWF  x49
0B726:  MOVLW  21
0B728:  ADDWF  x49,W
0B72A:  MOVWF  FE9
0B72C:  MOVLW  04
0B72E:  ADDWFC x4A,W
0B730:  MOVWF  FEA
0B732:  MOVFF  FEF,449
0B736:  MOVLW  86
0B738:  MOVWF  FF6
0B73A:  MOVLW  0F
0B73C:  MOVWF  FF7
0B73E:  MOVLW  00
0B740:  MOVWF  FF8
0B742:  MOVLW  0A
0B744:  MOVWF  x4F
0B746:  MOVLB  0
0B748:  CALL   4B26
0B74C:  MOVFF  449,44F
0B750:  MOVLW  1B
0B752:  MOVLB  4
0B754:  MOVWF  x50
0B756:  MOVLB  0
0B758:  CALL   4B84
0B75C:  MOVLW  22
0B75E:  BTFSS  F9E.4
0B760:  BRA    B75E
0B762:  MOVWF  FAD
....................          SendDataDisplay(); 
0B764:  CALL   3BE4
....................          printf("test.txt=\"%02u:%02u\"",CiclosPersonalizados[RX_Buffer[4]-1].Minutoest,CiclosPersonalizados[RX_Buffer[4]-1].Segundoest); 
0B768:  MOVLW  01
0B76A:  SUBWF  34,W
0B76C:  MULLW  0A
0B76E:  MOVF   FF3,W
0B770:  MOVLB  4
0B772:  CLRF   x4A
0B774:  MOVWF  x49
0B776:  MOVLW  09
0B778:  ADDWF  x49,W
0B77A:  MOVWF  01
0B77C:  MOVLW  00
0B77E:  ADDWFC x4A,W
0B780:  MOVWF  03
0B782:  MOVF   01,W
0B784:  ADDLW  21
0B786:  MOVWF  FE9
0B788:  MOVLW  04
0B78A:  ADDWFC 03,W
0B78C:  MOVWF  FEA
0B78E:  MOVFF  FEF,449
0B792:  MOVLW  01
0B794:  SUBWF  34,W
0B796:  MULLW  0A
0B798:  MOVF   FF3,W
0B79A:  CLRF   x4B
0B79C:  MOVWF  x4A
0B79E:  MOVLW  03
0B7A0:  ADDWF  x4A,W
0B7A2:  MOVWF  01
0B7A4:  MOVLW  00
0B7A6:  ADDWFC x4B,W
0B7A8:  MOVWF  03
0B7AA:  MOVF   01,W
0B7AC:  ADDLW  21
0B7AE:  MOVWF  FE9
0B7B0:  MOVLW  04
0B7B2:  ADDWFC 03,W
0B7B4:  MOVWF  FEA
0B7B6:  MOVFF  FEF,44A
0B7BA:  MOVLW  94
0B7BC:  MOVWF  FF6
0B7BE:  MOVLW  0F
0B7C0:  MOVWF  FF7
0B7C2:  MOVLW  00
0B7C4:  MOVWF  FF8
0B7C6:  MOVLW  0A
0B7C8:  MOVWF  x4F
0B7CA:  MOVLB  0
0B7CC:  CALL   4B26
0B7D0:  MOVFF  449,44F
0B7D4:  MOVLW  01
0B7D6:  MOVLB  4
0B7D8:  MOVWF  x50
0B7DA:  MOVLB  0
0B7DC:  CALL   4B84
0B7E0:  MOVLW  3A
0B7E2:  BTFSS  F9E.4
0B7E4:  BRA    B7E2
0B7E6:  MOVWF  FAD
0B7E8:  MOVFF  44A,44F
0B7EC:  MOVLW  01
0B7EE:  MOVLB  4
0B7F0:  MOVWF  x50
0B7F2:  MOVLB  0
0B7F4:  CALL   4B84
0B7F8:  MOVLW  22
0B7FA:  BTFSS  F9E.4
0B7FC:  BRA    B7FA
0B7FE:  MOVWF  FAD
....................          SendDataDisplay(); 
0B800:  CALL   3BE4
....................          printf("tsec.txt=\"%02u:%02u\"",CiclosPersonalizados[RX_Buffer[4]-1].Minutosec,CiclosPersonalizados[RX_Buffer[4]-1].Segundosec); 
0B804:  MOVLW  01
0B806:  SUBWF  34,W
0B808:  MULLW  0A
0B80A:  MOVF   FF3,W
0B80C:  MOVLB  4
0B80E:  CLRF   x4A
0B810:  MOVWF  x49
0B812:  MOVLW  04
0B814:  ADDWF  x49,W
0B816:  MOVWF  01
0B818:  MOVLW  00
0B81A:  ADDWFC x4A,W
0B81C:  MOVWF  03
0B81E:  MOVF   01,W
0B820:  ADDLW  21
0B822:  MOVWF  FE9
0B824:  MOVLW  04
0B826:  ADDWFC 03,W
0B828:  MOVWF  FEA
0B82A:  MOVFF  FEF,449
0B82E:  MOVLW  01
0B830:  SUBWF  34,W
0B832:  MULLW  0A
0B834:  MOVF   FF3,W
0B836:  CLRF   x4B
0B838:  MOVWF  x4A
0B83A:  MOVLW  05
0B83C:  ADDWF  x4A,W
0B83E:  MOVWF  01
0B840:  MOVLW  00
0B842:  ADDWFC x4B,W
0B844:  MOVWF  03
0B846:  MOVF   01,W
0B848:  ADDLW  21
0B84A:  MOVWF  FE9
0B84C:  MOVLW  04
0B84E:  ADDWFC 03,W
0B850:  MOVWF  FEA
0B852:  MOVFF  FEF,44A
0B856:  MOVLW  AA
0B858:  MOVWF  FF6
0B85A:  MOVLW  0F
0B85C:  MOVWF  FF7
0B85E:  MOVLW  00
0B860:  MOVWF  FF8
0B862:  MOVLW  0A
0B864:  MOVWF  x4F
0B866:  MOVLB  0
0B868:  CALL   4B26
0B86C:  MOVFF  449,44F
0B870:  MOVLW  01
0B872:  MOVLB  4
0B874:  MOVWF  x50
0B876:  MOVLB  0
0B878:  CALL   4B84
0B87C:  MOVLW  3A
0B87E:  BTFSS  F9E.4
0B880:  BRA    B87E
0B882:  MOVWF  FAD
0B884:  MOVFF  44A,44F
0B888:  MOVLW  01
0B88A:  MOVLB  4
0B88C:  MOVWF  x50
0B88E:  MOVLB  0
0B890:  CALL   4B84
0B894:  MOVLW  22
0B896:  BTFSS  F9E.4
0B898:  BRA    B896
0B89A:  MOVWF  FAD
....................          SendDataDisplay(); 
0B89C:  CALL   3BE4
....................          printf("desfogue.txt=\"%u\"",CiclosPersonalizados[RX_Buffer[4]-1].NivelDesfogue); 
0B8A0:  MOVLW  01
0B8A2:  SUBWF  34,W
0B8A4:  MULLW  0A
0B8A6:  MOVF   FF3,W
0B8A8:  MOVLB  4
0B8AA:  CLRF   x4A
0B8AC:  MOVWF  x49
0B8AE:  MOVLW  08
0B8B0:  ADDWF  x49,W
0B8B2:  MOVWF  01
0B8B4:  MOVLW  00
0B8B6:  ADDWFC x4A,W
0B8B8:  MOVWF  03
0B8BA:  MOVF   01,W
0B8BC:  ADDLW  21
0B8BE:  MOVWF  FE9
0B8C0:  MOVLW  04
0B8C2:  ADDWFC 03,W
0B8C4:  MOVWF  FEA
0B8C6:  MOVFF  FEF,449
0B8CA:  MOVLW  C0
0B8CC:  MOVWF  FF6
0B8CE:  MOVLW  0F
0B8D0:  MOVWF  FF7
0B8D2:  MOVLW  00
0B8D4:  MOVWF  FF8
0B8D6:  MOVLW  0E
0B8D8:  MOVWF  x4F
0B8DA:  MOVLB  0
0B8DC:  CALL   4B26
0B8E0:  MOVFF  449,44F
0B8E4:  MOVLW  1B
0B8E6:  MOVLB  4
0B8E8:  MOVWF  x50
0B8EA:  MOVLB  0
0B8EC:  CALL   4B84
0B8F0:  MOVLW  22
0B8F2:  BTFSS  F9E.4
0B8F4:  BRA    B8F2
0B8F6:  MOVWF  FAD
....................          SendDataDisplay(); 
0B8F8:  CALL   3BE4
....................          CicloLibre=RX_Buffer[4]; 
0B8FC:  MOVFF  34,33B
....................       }else if(CicloLibre==0x00){ 
0B900:  BRA    BBAE
0B902:  MOVLB  3
0B904:  MOVF   x3B,F
0B906:  BNZ   B972
....................          printf("ciclo.txt=\"CICLO P--\""); 
0B908:  MOVLW  D2
0B90A:  MOVWF  FF6
0B90C:  MOVLW  0F
0B90E:  MOVWF  FF7
0B910:  MOVLW  00
0B912:  MOVWF  FF8
0B914:  MOVLB  0
0B916:  CALL   3BB2
....................          SendDataDisplay();           
0B91A:  CALL   3BE4
....................          printf("temp.txt=\"--\""); 
0B91E:  MOVLW  E8
0B920:  MOVWF  FF6
0B922:  MOVLW  0F
0B924:  MOVWF  FF7
0B926:  MOVLW  00
0B928:  MOVWF  FF8
0B92A:  CALL   3BB2
....................          SendDataDisplay(); 
0B92E:  CALL   3BE4
....................          printf("test.txt=\"--:--\""); 
0B932:  MOVLW  F6
0B934:  MOVWF  FF6
0B936:  MOVLW  0F
0B938:  MOVWF  FF7
0B93A:  MOVLW  00
0B93C:  MOVWF  FF8
0B93E:  CALL   3BB2
....................          SendDataDisplay(); 
0B942:  CALL   3BE4
....................          printf("tsec.txt=\"--:--\""); 
0B946:  MOVLW  08
0B948:  MOVWF  FF6
0B94A:  MOVLW  10
0B94C:  MOVWF  FF7
0B94E:  MOVLW  00
0B950:  MOVWF  FF8
0B952:  CALL   3BB2
....................          SendDataDisplay(); 
0B956:  CALL   3BE4
....................          printf("desfogue.txt=\"--\""); 
0B95A:  MOVLW  1A
0B95C:  MOVWF  FF6
0B95E:  MOVLW  10
0B960:  MOVWF  FF7
0B962:  MOVLW  00
0B964:  MOVWF  FF8
0B966:  CALL   3BB2
....................          SendDataDisplay(); 
0B96A:  CALL   3BE4
....................       }else if(CicloLibre>0 && CicloLibre<4){ 
0B96E:  BRA    BBAE
0B970:  MOVLB  3
0B972:  MOVF   x3B,F
0B974:  BTFSC  FD8.2
0B976:  BRA    BBB0
0B978:  MOVF   x3B,W
0B97A:  SUBLW  03
0B97C:  BTFSS  FD8.0
0B97E:  BRA    BBB0
....................          printf("ciclo.txt=\"CICLO P%02u\"",CicloLibre+0x04); 
0B980:  MOVLW  04
0B982:  ADDWF  x3B,W
0B984:  MOVLB  4
0B986:  MOVWF  x49
0B988:  MOVLW  2C
0B98A:  MOVWF  FF6
0B98C:  MOVLW  10
0B98E:  MOVWF  FF7
0B990:  MOVLW  00
0B992:  MOVWF  FF8
0B994:  MOVLW  12
0B996:  MOVWF  x4F
0B998:  MOVLB  0
0B99A:  CALL   4B26
0B99E:  MOVFF  449,44F
0B9A2:  MOVLW  01
0B9A4:  MOVLB  4
0B9A6:  MOVWF  x50
0B9A8:  MOVLB  0
0B9AA:  CALL   4B84
0B9AE:  MOVLW  22
0B9B0:  BTFSS  F9E.4
0B9B2:  BRA    B9B0
0B9B4:  MOVWF  FAD
....................          SendDataDisplay();           
0B9B6:  CALL   3BE4
....................          printf("temp.txt=\"%u\"",CiclosPersonalizados[CicloLibre-1].Temperatura); 
0B9BA:  MOVLW  01
0B9BC:  MOVLB  3
0B9BE:  SUBWF  x3B,W
0B9C0:  MULLW  0A
0B9C2:  MOVF   FF3,W
0B9C4:  MOVLB  4
0B9C6:  CLRF   x4A
0B9C8:  MOVWF  x49
0B9CA:  MOVLW  21
0B9CC:  ADDWF  x49,W
0B9CE:  MOVWF  FE9
0B9D0:  MOVLW  04
0B9D2:  ADDWFC x4A,W
0B9D4:  MOVWF  FEA
0B9D6:  MOVFF  FEF,449
0B9DA:  MOVLW  44
0B9DC:  MOVWF  FF6
0B9DE:  MOVLW  10
0B9E0:  MOVWF  FF7
0B9E2:  MOVLW  00
0B9E4:  MOVWF  FF8
0B9E6:  MOVLW  0A
0B9E8:  MOVWF  x4F
0B9EA:  MOVLB  0
0B9EC:  CALL   4B26
0B9F0:  MOVFF  449,44F
0B9F4:  MOVLW  1B
0B9F6:  MOVLB  4
0B9F8:  MOVWF  x50
0B9FA:  MOVLB  0
0B9FC:  CALL   4B84
0BA00:  MOVLW  22
0BA02:  BTFSS  F9E.4
0BA04:  BRA    BA02
0BA06:  MOVWF  FAD
....................          SendDataDisplay(); 
0BA08:  CALL   3BE4
....................          printf("test.txt=\"%02u:%02u\"",CiclosPersonalizados[CicloLibre-1].Minutoest,CiclosPersonalizados[CicloLibre-1].Segundoest); 
0BA0C:  MOVLW  01
0BA0E:  MOVLB  3
0BA10:  SUBWF  x3B,W
0BA12:  MULLW  0A
0BA14:  MOVF   FF3,W
0BA16:  MOVLB  4
0BA18:  CLRF   x4A
0BA1A:  MOVWF  x49
0BA1C:  MOVLW  09
0BA1E:  ADDWF  x49,W
0BA20:  MOVWF  01
0BA22:  MOVLW  00
0BA24:  ADDWFC x4A,W
0BA26:  MOVWF  03
0BA28:  MOVF   01,W
0BA2A:  ADDLW  21
0BA2C:  MOVWF  FE9
0BA2E:  MOVLW  04
0BA30:  ADDWFC 03,W
0BA32:  MOVWF  FEA
0BA34:  MOVFF  FEF,449
0BA38:  MOVLW  01
0BA3A:  MOVLB  3
0BA3C:  SUBWF  x3B,W
0BA3E:  MULLW  0A
0BA40:  MOVF   FF3,W
0BA42:  MOVLB  4
0BA44:  CLRF   x4B
0BA46:  MOVWF  x4A
0BA48:  MOVLW  03
0BA4A:  ADDWF  x4A,W
0BA4C:  MOVWF  01
0BA4E:  MOVLW  00
0BA50:  ADDWFC x4B,W
0BA52:  MOVWF  03
0BA54:  MOVF   01,W
0BA56:  ADDLW  21
0BA58:  MOVWF  FE9
0BA5A:  MOVLW  04
0BA5C:  ADDWFC 03,W
0BA5E:  MOVWF  FEA
0BA60:  MOVFF  FEF,44A
0BA64:  MOVLW  52
0BA66:  MOVWF  FF6
0BA68:  MOVLW  10
0BA6A:  MOVWF  FF7
0BA6C:  MOVLW  00
0BA6E:  MOVWF  FF8
0BA70:  MOVLW  0A
0BA72:  MOVWF  x4F
0BA74:  MOVLB  0
0BA76:  CALL   4B26
0BA7A:  MOVFF  449,44F
0BA7E:  MOVLW  01
0BA80:  MOVLB  4
0BA82:  MOVWF  x50
0BA84:  MOVLB  0
0BA86:  CALL   4B84
0BA8A:  MOVLW  3A
0BA8C:  BTFSS  F9E.4
0BA8E:  BRA    BA8C
0BA90:  MOVWF  FAD
0BA92:  MOVFF  44A,44F
0BA96:  MOVLW  01
0BA98:  MOVLB  4
0BA9A:  MOVWF  x50
0BA9C:  MOVLB  0
0BA9E:  CALL   4B84
0BAA2:  MOVLW  22
0BAA4:  BTFSS  F9E.4
0BAA6:  BRA    BAA4
0BAA8:  MOVWF  FAD
....................          SendDataDisplay(); 
0BAAA:  CALL   3BE4
....................          printf("tsec.txt=\"%02u:%02u\"",CiclosPersonalizados[CicloLibre-1].Minutosec,CiclosPersonalizados[CicloLibre-1].Segundosec); 
0BAAE:  MOVLW  01
0BAB0:  MOVLB  3
0BAB2:  SUBWF  x3B,W
0BAB4:  MULLW  0A
0BAB6:  MOVF   FF3,W
0BAB8:  MOVLB  4
0BABA:  CLRF   x4A
0BABC:  MOVWF  x49
0BABE:  MOVLW  04
0BAC0:  ADDWF  x49,W
0BAC2:  MOVWF  01
0BAC4:  MOVLW  00
0BAC6:  ADDWFC x4A,W
0BAC8:  MOVWF  03
0BACA:  MOVF   01,W
0BACC:  ADDLW  21
0BACE:  MOVWF  FE9
0BAD0:  MOVLW  04
0BAD2:  ADDWFC 03,W
0BAD4:  MOVWF  FEA
0BAD6:  MOVFF  FEF,449
0BADA:  MOVLW  01
0BADC:  MOVLB  3
0BADE:  SUBWF  x3B,W
0BAE0:  MULLW  0A
0BAE2:  MOVF   FF3,W
0BAE4:  MOVLB  4
0BAE6:  CLRF   x4B
0BAE8:  MOVWF  x4A
0BAEA:  MOVLW  05
0BAEC:  ADDWF  x4A,W
0BAEE:  MOVWF  01
0BAF0:  MOVLW  00
0BAF2:  ADDWFC x4B,W
0BAF4:  MOVWF  03
0BAF6:  MOVF   01,W
0BAF8:  ADDLW  21
0BAFA:  MOVWF  FE9
0BAFC:  MOVLW  04
0BAFE:  ADDWFC 03,W
0BB00:  MOVWF  FEA
0BB02:  MOVFF  FEF,44A
0BB06:  MOVLW  68
0BB08:  MOVWF  FF6
0BB0A:  MOVLW  10
0BB0C:  MOVWF  FF7
0BB0E:  MOVLW  00
0BB10:  MOVWF  FF8
0BB12:  MOVLW  0A
0BB14:  MOVWF  x4F
0BB16:  MOVLB  0
0BB18:  CALL   4B26
0BB1C:  MOVFF  449,44F
0BB20:  MOVLW  01
0BB22:  MOVLB  4
0BB24:  MOVWF  x50
0BB26:  MOVLB  0
0BB28:  CALL   4B84
0BB2C:  MOVLW  3A
0BB2E:  BTFSS  F9E.4
0BB30:  BRA    BB2E
0BB32:  MOVWF  FAD
0BB34:  MOVFF  44A,44F
0BB38:  MOVLW  01
0BB3A:  MOVLB  4
0BB3C:  MOVWF  x50
0BB3E:  MOVLB  0
0BB40:  CALL   4B84
0BB44:  MOVLW  22
0BB46:  BTFSS  F9E.4
0BB48:  BRA    BB46
0BB4A:  MOVWF  FAD
....................          SendDataDisplay(); 
0BB4C:  CALL   3BE4
....................          printf("desfogue.txt=\"%u\"",CiclosPersonalizados[CicloLibre-1].NivelDesfogue); 
0BB50:  MOVLW  01
0BB52:  MOVLB  3
0BB54:  SUBWF  x3B,W
0BB56:  MULLW  0A
0BB58:  MOVF   FF3,W
0BB5A:  MOVLB  4
0BB5C:  CLRF   x4A
0BB5E:  MOVWF  x49
0BB60:  MOVLW  08
0BB62:  ADDWF  x49,W
0BB64:  MOVWF  01
0BB66:  MOVLW  00
0BB68:  ADDWFC x4A,W
0BB6A:  MOVWF  03
0BB6C:  MOVF   01,W
0BB6E:  ADDLW  21
0BB70:  MOVWF  FE9
0BB72:  MOVLW  04
0BB74:  ADDWFC 03,W
0BB76:  MOVWF  FEA
0BB78:  MOVFF  FEF,449
0BB7C:  MOVLW  7E
0BB7E:  MOVWF  FF6
0BB80:  MOVLW  10
0BB82:  MOVWF  FF7
0BB84:  MOVLW  00
0BB86:  MOVWF  FF8
0BB88:  MOVLW  0E
0BB8A:  MOVWF  x4F
0BB8C:  MOVLB  0
0BB8E:  CALL   4B26
0BB92:  MOVFF  449,44F
0BB96:  MOVLW  1B
0BB98:  MOVLB  4
0BB9A:  MOVWF  x50
0BB9C:  MOVLB  0
0BB9E:  CALL   4B84
0BBA2:  MOVLW  22
0BBA4:  BTFSS  F9E.4
0BBA6:  BRA    BBA4
0BBA8:  MOVWF  FAD
....................          SendDataDisplay(); 
0BBAA:  CALL   3BE4
0BBAE:  MOVLB  3
....................       } 
....................        
....................       if(RIGHT){ 
0BBB0:  BSF    F93.2
0BBB2:  BTFSC  F81.2
0BBB4:  BRA    BBCC
....................          delay_ms(100); 
0BBB6:  MOVLW  64
0BBB8:  MOVLB  4
0BBBA:  MOVWF  x62
0BBBC:  MOVLB  0
0BBBE:  CALL   1A6C
....................          if(RIGHT){ 
0BBC2:  BSF    F93.2
0BBC4:  BTFSC  F81.2
0BBC6:  BRA    BBCE
....................             CicloLibre++; 
0BBC8:  MOVLB  3
0BBCA:  INCF   x3B,F
0BBCC:  MOVLB  0
....................          } 
....................       }       
....................        
....................       if(CicloLibre<1) 
0BBCE:  MOVLB  3
0BBD0:  MOVF   x3B,F
0BBD2:  BNZ   BBD8
....................          CicloLibre=1; 
0BBD4:  MOVLW  01
0BBD6:  MOVWF  x3B
....................       if(CicloLibre>4) 
0BBD8:  MOVF   x3B,W
0BBDA:  SUBLW  04
0BBDC:  BC    BBE2
....................          CicloLibre=4; 
0BBDE:  MOVLW  04
0BBE0:  MOVWF  x3B
....................        
....................       if(RX_Buffer[4]==0xa0 || LEFT){//a0, Menu Principal 
0BBE2:  MOVF   34,W
0BBE4:  SUBLW  A0
0BBE6:  BZ    BBEE
0BBE8:  BSF    F93.3
0BBEA:  BTFSC  F81.3
0BBEC:  BRA    BC26
....................          delay_ms(100); 
0BBEE:  MOVLW  64
0BBF0:  MOVLB  4
0BBF2:  MOVWF  x62
0BBF4:  MOVLB  0
0BBF6:  CALL   1A6C
....................          if(RX_Buffer[4]==0xa0 || LEFT){ 
0BBFA:  MOVF   34,W
0BBFC:  SUBLW  A0
0BBFE:  BZ    BC06
0BC00:  BSF    F93.3
0BC02:  BTFSC  F81.3
0BC04:  BRA    BC24
....................             printf("page MenuPrincipal"); 
0BC06:  MOVLW  90
0BC08:  MOVWF  FF6
0BC0A:  MOVLW  10
0BC0C:  MOVWF  FF7
0BC0E:  MOVLW  00
0BC10:  MOVWF  FF8
0BC12:  CALL   3BB2
....................             SendDataDisplay();      
0BC16:  CALL   3BE4
....................             PantallaPrincipal=0; 
0BC1A:  MOVLB  2
0BC1C:  CLRF   xDD
....................             Op=OFF; 
0BC1E:  MOVLB  0
0BC20:  BCF    xA2.2
....................             Op2=OFF; 
0BC22:  BCF    xA2.3
0BC24:  MOVLB  3
....................          } 
....................       } 
....................        
....................       if(RX_Buffer[4]==0x20 && CicloLibre>0){//20, Temperatura 
0BC26:  MOVF   34,W
0BC28:  SUBLW  20
0BC2A:  BNZ   BC68
0BC2C:  MOVF   x3B,F
0BC2E:  BZ    BC68
....................             printf("page Temperatura"); 
0BC30:  MOVLW  A4
0BC32:  MOVWF  FF6
0BC34:  MOVLW  10
0BC36:  MOVWF  FF7
0BC38:  MOVLW  00
0BC3A:  MOVWF  FF8
0BC3C:  MOVLB  0
0BC3E:  CALL   3BB2
....................             SendDataDisplay();      
0BC42:  CALL   3BE4
....................             Setpoint=CiclosPersonalizados[CicloLibre-1].Temperatura; 
0BC46:  MOVLW  01
0BC48:  MOVLB  3
0BC4A:  SUBWF  x3B,W
0BC4C:  MULLW  0A
0BC4E:  MOVF   FF3,W
0BC50:  MOVLB  4
0BC52:  CLRF   x4A
0BC54:  MOVWF  x49
0BC56:  MOVLW  21
0BC58:  ADDWF  x49,W
0BC5A:  MOVWF  FE9
0BC5C:  MOVLW  04
0BC5E:  ADDWFC x4A,W
0BC60:  MOVWF  FEA
0BC62:  MOVFF  FEF,363
0BC66:  MOVLB  3
....................       } 
....................        
....................       if(RX_Buffer[4]==0x30 && CicloLibre>0){//30, Test 
0BC68:  MOVF   34,W
0BC6A:  SUBLW  30
0BC6C:  BTFSS  FD8.2
0BC6E:  BRA    BD8A
0BC70:  MOVF   x3B,F
0BC72:  BTFSC  FD8.2
0BC74:  BRA    BD8A
....................             printf("page TiempoEst"); 
0BC76:  MOVLW  B6
0BC78:  MOVWF  FF6
0BC7A:  MOVLW  10
0BC7C:  MOVWF  FF7
0BC7E:  MOVLW  00
0BC80:  MOVWF  FF8
0BC82:  MOVLB  0
0BC84:  CALL   3BB2
....................             SendDataDisplay();      
0BC88:  CALL   3BE4
....................             Testerilizacionp[3]=CiclosPersonalizados[CicloLibre-1].Minutoest/10; 
0BC8C:  MOVLW  01
0BC8E:  MOVLB  3
0BC90:  SUBWF  x3B,W
0BC92:  MULLW  0A
0BC94:  MOVF   FF3,W
0BC96:  MOVLB  4
0BC98:  CLRF   x4A
0BC9A:  MOVWF  x49
0BC9C:  MOVLW  09
0BC9E:  ADDWF  x49,W
0BCA0:  MOVWF  01
0BCA2:  MOVLW  00
0BCA4:  ADDWFC x4A,W
0BCA6:  MOVWF  03
0BCA8:  MOVF   01,W
0BCAA:  ADDLW  21
0BCAC:  MOVWF  FE9
0BCAE:  MOVLW  04
0BCB0:  ADDWFC 03,W
0BCB2:  MOVWF  FEA
0BCB4:  MOVFF  FEF,453
0BCB8:  MOVLW  0A
0BCBA:  MOVWF  x54
0BCBC:  MOVLB  0
0BCBE:  CALL   4B58
0BCC2:  MOVFF  01,B9
....................             Testerilizacionp[2]=CiclosPersonalizados[CicloLibre-1].Minutoest-(Testerilizacionp[3]*10); 
0BCC6:  MOVLW  01
0BCC8:  MOVLB  3
0BCCA:  SUBWF  x3B,W
0BCCC:  MULLW  0A
0BCCE:  MOVF   FF3,W
0BCD0:  MOVLB  4
0BCD2:  CLRF   x4A
0BCD4:  MOVWF  x49
0BCD6:  MOVLW  09
0BCD8:  ADDWF  x49,W
0BCDA:  MOVWF  01
0BCDC:  MOVLW  00
0BCDE:  ADDWFC x4A,W
0BCE0:  MOVWF  03
0BCE2:  MOVF   01,W
0BCE4:  ADDLW  21
0BCE6:  MOVWF  FE9
0BCE8:  MOVLW  04
0BCEA:  ADDWFC 03,W
0BCEC:  MOVWF  FEA
0BCEE:  MOVFF  FEF,449
0BCF2:  MOVFF  B9,44B
0BCF6:  MOVLW  0A
0BCF8:  MOVWF  x4C
0BCFA:  MOVLB  0
0BCFC:  CALL   30AC
0BD00:  MOVF   01,W
0BD02:  MOVLB  4
0BD04:  SUBWF  x49,W
0BD06:  MOVLB  0
0BD08:  MOVWF  xB8
....................             Testerilizacionp[1]=CiclosPersonalizados[CicloLibre-1].Segundoest/10; 
0BD0A:  MOVLW  01
0BD0C:  MOVLB  3
0BD0E:  SUBWF  x3B,W
0BD10:  MULLW  0A
0BD12:  MOVF   FF3,W
0BD14:  MOVLB  4
0BD16:  CLRF   x4A
0BD18:  MOVWF  x49
0BD1A:  MOVLW  03
0BD1C:  ADDWF  x49,W
0BD1E:  MOVWF  01
0BD20:  MOVLW  00
0BD22:  ADDWFC x4A,W
0BD24:  MOVWF  03
0BD26:  MOVF   01,W
0BD28:  ADDLW  21
0BD2A:  MOVWF  FE9
0BD2C:  MOVLW  04
0BD2E:  ADDWFC 03,W
0BD30:  MOVWF  FEA
0BD32:  MOVFF  FEF,453
0BD36:  MOVLW  0A
0BD38:  MOVWF  x54
0BD3A:  MOVLB  0
0BD3C:  CALL   4B58
0BD40:  MOVFF  01,B7
....................             Testerilizacionp[0]=CiclosPersonalizados[CicloLibre-1].Segundoest-(Testerilizacionp[1]*10); 
0BD44:  MOVLW  01
0BD46:  MOVLB  3
0BD48:  SUBWF  x3B,W
0BD4A:  MULLW  0A
0BD4C:  MOVF   FF3,W
0BD4E:  MOVLB  4
0BD50:  CLRF   x4A
0BD52:  MOVWF  x49
0BD54:  MOVLW  03
0BD56:  ADDWF  x49,W
0BD58:  MOVWF  01
0BD5A:  MOVLW  00
0BD5C:  ADDWFC x4A,W
0BD5E:  MOVWF  03
0BD60:  MOVF   01,W
0BD62:  ADDLW  21
0BD64:  MOVWF  FE9
0BD66:  MOVLW  04
0BD68:  ADDWFC 03,W
0BD6A:  MOVWF  FEA
0BD6C:  MOVFF  FEF,449
0BD70:  MOVFF  B7,44B
0BD74:  MOVLW  0A
0BD76:  MOVWF  x4C
0BD78:  MOVLB  0
0BD7A:  CALL   30AC
0BD7E:  MOVF   01,W
0BD80:  MOVLB  4
0BD82:  SUBWF  x49,W
0BD84:  MOVLB  0
0BD86:  MOVWF  xB6
0BD88:  MOVLB  3
....................       } 
....................        
....................       if(RX_Buffer[4]==0x40 && CicloLibre>0){//30, Test 
0BD8A:  MOVF   34,W
0BD8C:  SUBLW  40
0BD8E:  BTFSS  FD8.2
0BD90:  BRA    BEAC
0BD92:  MOVF   x3B,F
0BD94:  BTFSC  FD8.2
0BD96:  BRA    BEAC
....................             printf("page TiempoSec"); 
0BD98:  MOVLW  C6
0BD9A:  MOVWF  FF6
0BD9C:  MOVLW  10
0BD9E:  MOVWF  FF7
0BDA0:  MOVLW  00
0BDA2:  MOVWF  FF8
0BDA4:  MOVLB  0
0BDA6:  CALL   3BB2
....................             SendDataDisplay();      
0BDAA:  CALL   3BE4
....................             Tsecadop[3]=CiclosPersonalizados[CicloLibre-1].Minutosec/10; 
0BDAE:  MOVLW  01
0BDB0:  MOVLB  3
0BDB2:  SUBWF  x3B,W
0BDB4:  MULLW  0A
0BDB6:  MOVF   FF3,W
0BDB8:  MOVLB  4
0BDBA:  CLRF   x4A
0BDBC:  MOVWF  x49
0BDBE:  MOVLW  04
0BDC0:  ADDWF  x49,W
0BDC2:  MOVWF  01
0BDC4:  MOVLW  00
0BDC6:  ADDWFC x4A,W
0BDC8:  MOVWF  03
0BDCA:  MOVF   01,W
0BDCC:  ADDLW  21
0BDCE:  MOVWF  FE9
0BDD0:  MOVLW  04
0BDD2:  ADDWFC 03,W
0BDD4:  MOVWF  FEA
0BDD6:  MOVFF  FEF,453
0BDDA:  MOVLW  0A
0BDDC:  MOVWF  x54
0BDDE:  MOVLB  0
0BDE0:  CALL   4B58
0BDE4:  MOVFF  01,C2
....................             Tsecadop[2]=CiclosPersonalizados[CicloLibre-1].Minutosec-(Tsecadop[3]*10); 
0BDE8:  MOVLW  01
0BDEA:  MOVLB  3
0BDEC:  SUBWF  x3B,W
0BDEE:  MULLW  0A
0BDF0:  MOVF   FF3,W
0BDF2:  MOVLB  4
0BDF4:  CLRF   x4A
0BDF6:  MOVWF  x49
0BDF8:  MOVLW  04
0BDFA:  ADDWF  x49,W
0BDFC:  MOVWF  01
0BDFE:  MOVLW  00
0BE00:  ADDWFC x4A,W
0BE02:  MOVWF  03
0BE04:  MOVF   01,W
0BE06:  ADDLW  21
0BE08:  MOVWF  FE9
0BE0A:  MOVLW  04
0BE0C:  ADDWFC 03,W
0BE0E:  MOVWF  FEA
0BE10:  MOVFF  FEF,449
0BE14:  MOVFF  C2,44B
0BE18:  MOVLW  0A
0BE1A:  MOVWF  x4C
0BE1C:  MOVLB  0
0BE1E:  CALL   30AC
0BE22:  MOVF   01,W
0BE24:  MOVLB  4
0BE26:  SUBWF  x49,W
0BE28:  MOVLB  0
0BE2A:  MOVWF  xC1
....................             Tsecadop[1]=CiclosPersonalizados[CicloLibre-1].Segundosec/10; 
0BE2C:  MOVLW  01
0BE2E:  MOVLB  3
0BE30:  SUBWF  x3B,W
0BE32:  MULLW  0A
0BE34:  MOVF   FF3,W
0BE36:  MOVLB  4
0BE38:  CLRF   x4A
0BE3A:  MOVWF  x49
0BE3C:  MOVLW  05
0BE3E:  ADDWF  x49,W
0BE40:  MOVWF  01
0BE42:  MOVLW  00
0BE44:  ADDWFC x4A,W
0BE46:  MOVWF  03
0BE48:  MOVF   01,W
0BE4A:  ADDLW  21
0BE4C:  MOVWF  FE9
0BE4E:  MOVLW  04
0BE50:  ADDWFC 03,W
0BE52:  MOVWF  FEA
0BE54:  MOVFF  FEF,453
0BE58:  MOVLW  0A
0BE5A:  MOVWF  x54
0BE5C:  MOVLB  0
0BE5E:  CALL   4B58
0BE62:  MOVFF  01,C0
....................             Tsecadop[0]=CiclosPersonalizados[CicloLibre-1].Segundosec-(Tsecadop[1]*10); 
0BE66:  MOVLW  01
0BE68:  MOVLB  3
0BE6A:  SUBWF  x3B,W
0BE6C:  MULLW  0A
0BE6E:  MOVF   FF3,W
0BE70:  MOVLB  4
0BE72:  CLRF   x4A
0BE74:  MOVWF  x49
0BE76:  MOVLW  05
0BE78:  ADDWF  x49,W
0BE7A:  MOVWF  01
0BE7C:  MOVLW  00
0BE7E:  ADDWFC x4A,W
0BE80:  MOVWF  03
0BE82:  MOVF   01,W
0BE84:  ADDLW  21
0BE86:  MOVWF  FE9
0BE88:  MOVLW  04
0BE8A:  ADDWFC 03,W
0BE8C:  MOVWF  FEA
0BE8E:  MOVFF  FEF,449
0BE92:  MOVFF  C0,44B
0BE96:  MOVLW  0A
0BE98:  MOVWF  x4C
0BE9A:  MOVLB  0
0BE9C:  CALL   30AC
0BEA0:  MOVF   01,W
0BEA2:  MOVLB  4
0BEA4:  SUBWF  x49,W
0BEA6:  MOVLB  0
0BEA8:  MOVWF  xBF
0BEAA:  MOVLB  3
....................       } 
....................        
....................       if(RX_Buffer[4]==0x80 && CicloLibre>0){//80, NivelDesfogue          
0BEAC:  MOVF   34,W
0BEAE:  SUBLW  80
0BEB0:  BNZ   BF00
0BEB2:  MOVF   x3B,F
0BEB4:  BZ    BF00
....................             printf("page Nivel"); 
0BEB6:  MOVLW  D6
0BEB8:  MOVWF  FF6
0BEBA:  MOVLW  10
0BEBC:  MOVWF  FF7
0BEBE:  MOVLW  00
0BEC0:  MOVWF  FF8
0BEC2:  MOVLB  0
0BEC4:  CALL   3BB2
....................             SendDataDisplay();      
0BEC8:  CALL   3BE4
....................             Nivel=CiclosPersonalizados[CicloLibre-1].NivelDesfogue;          
0BECC:  MOVLW  01
0BECE:  MOVLB  3
0BED0:  SUBWF  x3B,W
0BED2:  MULLW  0A
0BED4:  MOVF   FF3,W
0BED6:  MOVLB  4
0BED8:  CLRF   x4A
0BEDA:  MOVWF  x49
0BEDC:  MOVLW  08
0BEDE:  ADDWF  x49,W
0BEE0:  MOVWF  01
0BEE2:  MOVLW  00
0BEE4:  ADDWFC x4A,W
0BEE6:  MOVWF  03
0BEE8:  MOVF   01,W
0BEEA:  ADDLW  21
0BEEC:  MOVWF  FE9
0BEEE:  MOVLW  04
0BEF0:  ADDWFC 03,W
0BEF2:  MOVWF  FEA
0BEF4:  MOVF   FEF,W
0BEF6:  CLRF   03
0BEF8:  MOVLB  3
0BEFA:  MOVWF  x71
0BEFC:  MOVFF  03,372
....................       } 
....................        
....................       if((RX_Buffer[4]==0x70 || UP)&& CicloLibre>0){//70, Iniciar Ciclo 
0BF00:  MOVF   34,W
0BF02:  SUBLW  70
0BF04:  BZ    BF0C
0BF06:  BSF    F93.0
0BF08:  BTFSC  F81.0
0BF0A:  BRA    C422
0BF0C:  MOVF   x3B,F
0BF0E:  BTFSC  FD8.2
0BF10:  BRA    C422
....................          delay_ms(100); 
0BF12:  MOVLW  64
0BF14:  MOVLB  4
0BF16:  MOVWF  x62
0BF18:  MOVLB  0
0BF1A:  CALL   1A6C
....................          if((RX_Buffer[4]==0x70 || UP)&& CicloLibre>0){ 
0BF1E:  MOVF   34,W
0BF20:  SUBLW  70
0BF22:  BZ    BF2A
0BF24:  BSF    F93.0
0BF26:  BTFSC  F81.0
0BF28:  BRA    C420
0BF2A:  MOVLB  3
0BF2C:  MOVF   x3B,F
0BF2E:  BTFSS  FD8.2
0BF30:  BRA    BF36
0BF32:  MOVLB  0
0BF34:  BRA    C420
....................             printf("page Funcionamiento"); 
0BF36:  MOVLW  E2
0BF38:  MOVWF  FF6
0BF3A:  MOVLW  10
0BF3C:  MOVWF  FF7
0BF3E:  MOVLW  00
0BF40:  MOVWF  FF8
0BF42:  MOVLB  0
0BF44:  CALL   3BB2
....................             SendDataDisplay();        
0BF48:  CALL   3BE4
....................             Libre=ON; 
0BF4C:  BSF    xA3.7
....................             if(CiclosPersonalizados[CicloLibre-1].NivelDesfogue>5){ 
0BF4E:  MOVLW  01
0BF50:  MOVLB  3
0BF52:  SUBWF  x3B,W
0BF54:  MULLW  0A
0BF56:  MOVF   FF3,W
0BF58:  MOVLB  4
0BF5A:  CLRF   x4A
0BF5C:  MOVWF  x49
0BF5E:  MOVLW  08
0BF60:  ADDWF  x49,W
0BF62:  MOVWF  01
0BF64:  MOVLW  00
0BF66:  ADDWFC x4A,W
0BF68:  MOVWF  03
0BF6A:  MOVF   01,W
0BF6C:  ADDLW  21
0BF6E:  MOVWF  FE9
0BF70:  MOVLW  04
0BF72:  ADDWFC 03,W
0BF74:  MOVWF  FEA
0BF76:  MOVF   FEF,W
0BF78:  SUBLW  05
0BF7A:  BTFSC  FD8.0
0BF7C:  BRA    C1AC
....................                ConfiguraCiclo(extraeDecima(CiclosPersonalizados[CicloLibre-1].Segundoest), 
....................                            CiclosPersonalizados[CicloLibre-1].Segundoest/10, 
....................                            extraeDecima(CiclosPersonalizados[CicloLibre-1].Minutoest), 
....................                            CiclosPersonalizados[CicloLibre-1].Minutoest/10, 
....................                            extraeDecima(CiclosPersonalizados[CicloLibre-1].Segundosec), 
....................                            CiclosPersonalizados[CicloLibre-1].Segundosec/10, 
....................                            extraeDecima(CiclosPersonalizados[CicloLibre-1].Minutosec), 
....................                            CiclosPersonalizados[CicloLibre-1].Minutosec/10,0,CicloLibre+4,CiclosPersonalizados[CicloLibre-1].Temperatura);             
0BF7E:  MOVLW  01
0BF80:  MOVLB  3
0BF82:  SUBWF  x3B,W
0BF84:  MULLW  0A
0BF86:  MOVF   FF3,W
0BF88:  MOVLB  4
0BF8A:  CLRF   x4A
0BF8C:  MOVWF  x49
0BF8E:  MOVLW  03
0BF90:  ADDWF  x49,W
0BF92:  MOVWF  01
0BF94:  MOVLW  00
0BF96:  ADDWFC x4A,W
0BF98:  MOVWF  03
0BF9A:  MOVF   01,W
0BF9C:  ADDLW  21
0BF9E:  MOVWF  FE9
0BFA0:  MOVLW  04
0BFA2:  ADDWFC 03,W
0BFA4:  MOVWF  FEA
0BFA6:  MOVFF  FEF,449
0BFAA:  MOVFF  449,450
0BFAE:  MOVLB  0
0BFB0:  CALL   575C
0BFB4:  MOVFF  01,449
0BFB8:  MOVLW  01
0BFBA:  MOVLB  3
0BFBC:  SUBWF  x3B,W
0BFBE:  MULLW  0A
0BFC0:  MOVF   FF3,W
0BFC2:  MOVLB  4
0BFC4:  CLRF   x4B
0BFC6:  MOVWF  x4A
0BFC8:  MOVLW  03
0BFCA:  ADDWF  x4A,W
0BFCC:  MOVWF  01
0BFCE:  MOVLW  00
0BFD0:  ADDWFC x4B,W
0BFD2:  MOVWF  03
0BFD4:  MOVF   01,W
0BFD6:  ADDLW  21
0BFD8:  MOVWF  FE9
0BFDA:  MOVLW  04
0BFDC:  ADDWFC 03,W
0BFDE:  MOVWF  FEA
0BFE0:  MOVFF  FEF,453
0BFE4:  MOVLW  0A
0BFE6:  MOVWF  x54
0BFE8:  MOVLB  0
0BFEA:  CALL   4B58
0BFEE:  MOVFF  01,44A
0BFF2:  MOVLW  01
0BFF4:  MOVLB  3
0BFF6:  SUBWF  x3B,W
0BFF8:  MULLW  0A
0BFFA:  MOVF   FF3,W
0BFFC:  MOVLB  4
0BFFE:  CLRF   x4C
0C000:  MOVWF  x4B
0C002:  MOVLW  09
0C004:  ADDWF  x4B,W
0C006:  MOVWF  01
0C008:  MOVLW  00
0C00A:  ADDWFC x4C,W
0C00C:  MOVWF  03
0C00E:  MOVF   01,W
0C010:  ADDLW  21
0C012:  MOVWF  FE9
0C014:  MOVLW  04
0C016:  ADDWFC 03,W
0C018:  MOVWF  FEA
0C01A:  MOVFF  FEF,44B
0C01E:  MOVFF  44B,450
0C022:  MOVLB  0
0C024:  CALL   575C
0C028:  MOVFF  01,44B
0C02C:  MOVLW  01
0C02E:  MOVLB  3
0C030:  SUBWF  x3B,W
0C032:  MULLW  0A
0C034:  MOVF   FF3,W
0C036:  MOVLB  4
0C038:  CLRF   x4D
0C03A:  MOVWF  x4C
0C03C:  MOVLW  09
0C03E:  ADDWF  x4C,W
0C040:  MOVWF  01
0C042:  MOVLW  00
0C044:  ADDWFC x4D,W
0C046:  MOVWF  03
0C048:  MOVF   01,W
0C04A:  ADDLW  21
0C04C:  MOVWF  FE9
0C04E:  MOVLW  04
0C050:  ADDWFC 03,W
0C052:  MOVWF  FEA
0C054:  MOVFF  FEF,453
0C058:  MOVLW  0A
0C05A:  MOVWF  x54
0C05C:  MOVLB  0
0C05E:  CALL   4B58
0C062:  MOVFF  01,44C
0C066:  MOVLW  01
0C068:  MOVLB  3
0C06A:  SUBWF  x3B,W
0C06C:  MULLW  0A
0C06E:  MOVF   FF3,W
0C070:  MOVLB  4
0C072:  CLRF   x4E
0C074:  MOVWF  x4D
0C076:  MOVLW  05
0C078:  ADDWF  x4D,W
0C07A:  MOVWF  01
0C07C:  MOVLW  00
0C07E:  ADDWFC x4E,W
0C080:  MOVWF  03
0C082:  MOVF   01,W
0C084:  ADDLW  21
0C086:  MOVWF  FE9
0C088:  MOVLW  04
0C08A:  ADDWFC 03,W
0C08C:  MOVWF  FEA
0C08E:  MOVFF  FEF,44D
0C092:  MOVFF  44D,450
0C096:  MOVLB  0
0C098:  CALL   575C
0C09C:  MOVFF  01,44D
0C0A0:  MOVLW  01
0C0A2:  MOVLB  3
0C0A4:  SUBWF  x3B,W
0C0A6:  MULLW  0A
0C0A8:  MOVF   FF3,W
0C0AA:  MOVLB  4
0C0AC:  CLRF   x4F
0C0AE:  MOVWF  x4E
0C0B0:  MOVLW  05
0C0B2:  ADDWF  x4E,W
0C0B4:  MOVWF  01
0C0B6:  MOVLW  00
0C0B8:  ADDWFC x4F,W
0C0BA:  MOVWF  03
0C0BC:  MOVF   01,W
0C0BE:  ADDLW  21
0C0C0:  MOVWF  FE9
0C0C2:  MOVLW  04
0C0C4:  ADDWFC 03,W
0C0C6:  MOVWF  FEA
0C0C8:  MOVFF  FEF,453
0C0CC:  MOVLW  0A
0C0CE:  MOVWF  x54
0C0D0:  MOVLB  0
0C0D2:  CALL   4B58
0C0D6:  MOVFF  01,44E
0C0DA:  MOVLW  01
0C0DC:  MOVLB  3
0C0DE:  SUBWF  x3B,W
0C0E0:  MULLW  0A
0C0E2:  MOVF   FF3,W
0C0E4:  MOVLB  4
0C0E6:  CLRF   x50
0C0E8:  MOVWF  x4F
0C0EA:  MOVLW  04
0C0EC:  ADDWF  x4F,W
0C0EE:  MOVWF  01
0C0F0:  MOVLW  00
0C0F2:  ADDWFC x50,W
0C0F4:  MOVWF  03
0C0F6:  MOVF   01,W
0C0F8:  ADDLW  21
0C0FA:  MOVWF  FE9
0C0FC:  MOVLW  04
0C0FE:  ADDWFC 03,W
0C100:  MOVWF  FEA
0C102:  MOVFF  FEF,44F
0C106:  MOVFF  44F,450
0C10A:  MOVLB  0
0C10C:  CALL   575C
0C110:  MOVFF  01,44F
0C114:  MOVLW  01
0C116:  MOVLB  3
0C118:  SUBWF  x3B,W
0C11A:  MULLW  0A
0C11C:  MOVF   FF3,W
0C11E:  MOVLB  4
0C120:  CLRF   x51
0C122:  MOVWF  x50
0C124:  MOVLW  04
0C126:  ADDWF  x50,W
0C128:  MOVWF  01
0C12A:  MOVLW  00
0C12C:  ADDWFC x51,W
0C12E:  MOVWF  03
0C130:  MOVF   01,W
0C132:  ADDLW  21
0C134:  MOVWF  FE9
0C136:  MOVLW  04
0C138:  ADDWFC 03,W
0C13A:  MOVWF  FEA
0C13C:  MOVFF  FEF,453
0C140:  MOVLW  0A
0C142:  MOVWF  x54
0C144:  MOVLB  0
0C146:  CALL   4B58
0C14A:  MOVFF  01,450
0C14E:  MOVLW  04
0C150:  MOVLB  3
0C152:  ADDWF  x3B,W
0C154:  MOVLB  4
0C156:  MOVWF  x51
0C158:  MOVLW  01
0C15A:  MOVLB  3
0C15C:  SUBWF  x3B,W
0C15E:  MULLW  0A
0C160:  MOVF   FF3,W
0C162:  MOVLB  4
0C164:  CLRF   x53
0C166:  MOVWF  x52
0C168:  MOVLW  21
0C16A:  ADDWF  x52,W
0C16C:  MOVWF  FE9
0C16E:  MOVLW  04
0C170:  ADDWFC x53,W
0C172:  MOVWF  FEA
0C174:  MOVFF  FEF,452
0C178:  MOVFF  449,453
0C17C:  MOVFF  44A,454
0C180:  MOVFF  44B,455
0C184:  MOVFF  44C,456
0C188:  MOVFF  44D,457
0C18C:  MOVFF  44E,458
0C190:  MOVFF  44F,459
0C194:  MOVFF  01,45A
0C198:  CLRF   x5B
0C19A:  MOVFF  451,45C
0C19E:  MOVFF  452,45D
0C1A2:  MOVLB  0
0C1A4:  CALL   5450
....................             }else{ 
0C1A8:  BRA    C420
0C1AA:  MOVLB  4
....................                ConfiguraCiclo(extraeDecima(CiclosPersonalizados[CicloLibre-1].Segundoest), 
....................                            CiclosPersonalizados[CicloLibre-1].Segundoest/10, 
....................                            extraeDecima(CiclosPersonalizados[CicloLibre-1].Minutoest), 
....................                            CiclosPersonalizados[CicloLibre-1].Minutoest/10, 
....................                            extraeDecima(CiclosPersonalizados[CicloLibre-1].Segundosec), 
....................                            CiclosPersonalizados[CicloLibre-1].Segundosec/10, 
....................                            extraeDecima(CiclosPersonalizados[CicloLibre-1].Minutosec), 
....................                            CiclosPersonalizados[CicloLibre-1].Minutosec/10,1,CicloLibre+4,CiclosPersonalizados[CicloLibre-1].Temperatura);             
0C1AC:  MOVLW  01
0C1AE:  MOVLB  3
0C1B0:  SUBWF  x3B,W
0C1B2:  MULLW  0A
0C1B4:  MOVF   FF3,W
0C1B6:  MOVLB  4
0C1B8:  CLRF   x4A
0C1BA:  MOVWF  x49
0C1BC:  MOVLW  03
0C1BE:  ADDWF  x49,W
0C1C0:  MOVWF  01
0C1C2:  MOVLW  00
0C1C4:  ADDWFC x4A,W
0C1C6:  MOVWF  03
0C1C8:  MOVF   01,W
0C1CA:  ADDLW  21
0C1CC:  MOVWF  FE9
0C1CE:  MOVLW  04
0C1D0:  ADDWFC 03,W
0C1D2:  MOVWF  FEA
0C1D4:  MOVFF  FEF,449
0C1D8:  MOVFF  449,450
0C1DC:  MOVLB  0
0C1DE:  CALL   575C
0C1E2:  MOVFF  01,449
0C1E6:  MOVLW  01
0C1E8:  MOVLB  3
0C1EA:  SUBWF  x3B,W
0C1EC:  MULLW  0A
0C1EE:  MOVF   FF3,W
0C1F0:  MOVLB  4
0C1F2:  CLRF   x4B
0C1F4:  MOVWF  x4A
0C1F6:  MOVLW  03
0C1F8:  ADDWF  x4A,W
0C1FA:  MOVWF  01
0C1FC:  MOVLW  00
0C1FE:  ADDWFC x4B,W
0C200:  MOVWF  03
0C202:  MOVF   01,W
0C204:  ADDLW  21
0C206:  MOVWF  FE9
0C208:  MOVLW  04
0C20A:  ADDWFC 03,W
0C20C:  MOVWF  FEA
0C20E:  MOVFF  FEF,453
0C212:  MOVLW  0A
0C214:  MOVWF  x54
0C216:  MOVLB  0
0C218:  CALL   4B58
0C21C:  MOVFF  01,44A
0C220:  MOVLW  01
0C222:  MOVLB  3
0C224:  SUBWF  x3B,W
0C226:  MULLW  0A
0C228:  MOVF   FF3,W
0C22A:  MOVLB  4
0C22C:  CLRF   x4C
0C22E:  MOVWF  x4B
0C230:  MOVLW  09
0C232:  ADDWF  x4B,W
0C234:  MOVWF  01
0C236:  MOVLW  00
0C238:  ADDWFC x4C,W
0C23A:  MOVWF  03
0C23C:  MOVF   01,W
0C23E:  ADDLW  21
0C240:  MOVWF  FE9
0C242:  MOVLW  04
0C244:  ADDWFC 03,W
0C246:  MOVWF  FEA
0C248:  MOVFF  FEF,44B
0C24C:  MOVFF  44B,450
0C250:  MOVLB  0
0C252:  CALL   575C
0C256:  MOVFF  01,44B
0C25A:  MOVLW  01
0C25C:  MOVLB  3
0C25E:  SUBWF  x3B,W
0C260:  MULLW  0A
0C262:  MOVF   FF3,W
0C264:  MOVLB  4
0C266:  CLRF   x4D
0C268:  MOVWF  x4C
0C26A:  MOVLW  09
0C26C:  ADDWF  x4C,W
0C26E:  MOVWF  01
0C270:  MOVLW  00
0C272:  ADDWFC x4D,W
0C274:  MOVWF  03
0C276:  MOVF   01,W
0C278:  ADDLW  21
0C27A:  MOVWF  FE9
0C27C:  MOVLW  04
0C27E:  ADDWFC 03,W
0C280:  MOVWF  FEA
0C282:  MOVFF  FEF,453
0C286:  MOVLW  0A
0C288:  MOVWF  x54
0C28A:  MOVLB  0
0C28C:  CALL   4B58
0C290:  MOVFF  01,44C
0C294:  MOVLW  01
0C296:  MOVLB  3
0C298:  SUBWF  x3B,W
0C29A:  MULLW  0A
0C29C:  MOVF   FF3,W
0C29E:  MOVLB  4
0C2A0:  CLRF   x4E
0C2A2:  MOVWF  x4D
0C2A4:  MOVLW  05
0C2A6:  ADDWF  x4D,W
0C2A8:  MOVWF  01
0C2AA:  MOVLW  00
0C2AC:  ADDWFC x4E,W
0C2AE:  MOVWF  03
0C2B0:  MOVF   01,W
0C2B2:  ADDLW  21
0C2B4:  MOVWF  FE9
0C2B6:  MOVLW  04
0C2B8:  ADDWFC 03,W
0C2BA:  MOVWF  FEA
0C2BC:  MOVFF  FEF,44D
0C2C0:  MOVFF  44D,450
0C2C4:  MOVLB  0
0C2C6:  CALL   575C
0C2CA:  MOVFF  01,44D
0C2CE:  MOVLW  01
0C2D0:  MOVLB  3
0C2D2:  SUBWF  x3B,W
0C2D4:  MULLW  0A
0C2D6:  MOVF   FF3,W
0C2D8:  MOVLB  4
0C2DA:  CLRF   x4F
0C2DC:  MOVWF  x4E
0C2DE:  MOVLW  05
0C2E0:  ADDWF  x4E,W
0C2E2:  MOVWF  01
0C2E4:  MOVLW  00
0C2E6:  ADDWFC x4F,W
0C2E8:  MOVWF  03
0C2EA:  MOVF   01,W
0C2EC:  ADDLW  21
0C2EE:  MOVWF  FE9
0C2F0:  MOVLW  04
0C2F2:  ADDWFC 03,W
0C2F4:  MOVWF  FEA
0C2F6:  MOVFF  FEF,453
0C2FA:  MOVLW  0A
0C2FC:  MOVWF  x54
0C2FE:  MOVLB  0
0C300:  CALL   4B58
0C304:  MOVFF  01,44E
0C308:  MOVLW  01
0C30A:  MOVLB  3
0C30C:  SUBWF  x3B,W
0C30E:  MULLW  0A
0C310:  MOVF   FF3,W
0C312:  MOVLB  4
0C314:  CLRF   x50
0C316:  MOVWF  x4F
0C318:  MOVLW  04
0C31A:  ADDWF  x4F,W
0C31C:  MOVWF  01
0C31E:  MOVLW  00
0C320:  ADDWFC x50,W
0C322:  MOVWF  03
0C324:  MOVF   01,W
0C326:  ADDLW  21
0C328:  MOVWF  FE9
0C32A:  MOVLW  04
0C32C:  ADDWFC 03,W
0C32E:  MOVWF  FEA
0C330:  MOVFF  FEF,44F
0C334:  MOVFF  44F,450
0C338:  MOVLB  0
0C33A:  CALL   575C
0C33E:  MOVFF  01,44F
0C342:  MOVLW  01
0C344:  MOVLB  3
0C346:  SUBWF  x3B,W
0C348:  MULLW  0A
0C34A:  MOVF   FF3,W
0C34C:  MOVLB  4
0C34E:  CLRF   x51
0C350:  MOVWF  x50
0C352:  MOVLW  04
0C354:  ADDWF  x50,W
0C356:  MOVWF  01
0C358:  MOVLW  00
0C35A:  ADDWFC x51,W
0C35C:  MOVWF  03
0C35E:  MOVF   01,W
0C360:  ADDLW  21
0C362:  MOVWF  FE9
0C364:  MOVLW  04
0C366:  ADDWFC 03,W
0C368:  MOVWF  FEA
0C36A:  MOVFF  FEF,453
0C36E:  MOVLW  0A
0C370:  MOVWF  x54
0C372:  MOVLB  0
0C374:  CALL   4B58
0C378:  MOVFF  01,450
0C37C:  MOVLW  04
0C37E:  MOVLB  3
0C380:  ADDWF  x3B,W
0C382:  MOVLB  4
0C384:  MOVWF  x51
0C386:  MOVLW  01
0C388:  MOVLB  3
0C38A:  SUBWF  x3B,W
0C38C:  MULLW  0A
0C38E:  MOVF   FF3,W
0C390:  MOVLB  4
0C392:  CLRF   x53
0C394:  MOVWF  x52
0C396:  MOVLW  21
0C398:  ADDWF  x52,W
0C39A:  MOVWF  FE9
0C39C:  MOVLW  04
0C39E:  ADDWFC x53,W
0C3A0:  MOVWF  FEA
0C3A2:  MOVFF  FEF,452
0C3A6:  MOVFF  449,453
0C3AA:  MOVFF  44A,454
0C3AE:  MOVFF  44B,455
0C3B2:  MOVFF  44C,456
0C3B6:  MOVFF  44D,457
0C3BA:  MOVFF  44E,458
0C3BE:  MOVFF  44F,459
0C3C2:  MOVFF  01,45A
0C3C6:  MOVLW  01
0C3C8:  MOVWF  x5B
0C3CA:  MOVFF  451,45C
0C3CE:  MOVFF  452,45D
0C3D2:  MOVLB  0
0C3D4:  CALL   5450
....................                NivelSeleccionado=4995*CiclosPersonalizados[CicloLibre-1].NivelDesfogue; 
0C3D8:  MOVLW  01
0C3DA:  MOVLB  3
0C3DC:  SUBWF  x3B,W
0C3DE:  MULLW  0A
0C3E0:  MOVF   FF3,W
0C3E2:  MOVLB  4
0C3E4:  CLRF   x4A
0C3E6:  MOVWF  x49
0C3E8:  MOVLW  08
0C3EA:  ADDWF  x49,W
0C3EC:  MOVWF  01
0C3EE:  MOVLW  00
0C3F0:  ADDWFC x4A,W
0C3F2:  MOVWF  03
0C3F4:  MOVF   01,W
0C3F6:  ADDLW  21
0C3F8:  MOVWF  FE9
0C3FA:  MOVLW  04
0C3FC:  ADDWFC 03,W
0C3FE:  MOVWF  FEA
0C400:  MOVFF  FEF,449
0C404:  MOVLW  13
0C406:  MOVWF  x63
0C408:  MOVLW  83
0C40A:  MOVWF  x62
0C40C:  CLRF   x65
0C40E:  MOVFF  449,464
0C412:  MOVLB  0
0C414:  CALL   1EA0
0C418:  MOVFF  02,37C
0C41C:  MOVFF  01,37B
0C420:  MOVLB  3
....................             } 
....................          } 
....................       } 
....................    } 
.................... //_--------------------------------------------------------------------------------------------------------------------------------------------------------        
....................  
.................... //_--------------------------------------------------------------------------------------------------------------------------------------------------------       
....................    if(Menu==12){//Menu de Visualizacion de Ciclos Realizados 
0C422:  MOVF   x5D,W
0C424:  SUBLW  0C
0C426:  BTFSS  FD8.2
0C428:  BRA    CA26
....................       //printf("fecha.txt=\"Fecha:%02u/%02u/20%02u    Hora: %02u:%02u\"",Dia,Mes,Year,Hora,Minuto); 
....................       //SendDataDisplay(); 
....................       GuardaEEPROM=OFF; 
0C42A:  MOVLB  0
0C42C:  BCF    xA2.6
....................       /*  
....................       i2c_start();            // Comienzo de la comunicacin 
....................       i2c_write(0xA0);   // Direccin del esclavo en el bus I2C 
....................       i2c_write(9);    // Posicin de donde se leer el dato en el esclavo 
....................       i2c_write(0);    // Posicin de donde se leer el dato en el esclavo 
....................       i2c_start();            // Reinicio 
....................       i2c_write(direccion+1); // Direccin del esclavo en modo lectura 
....................       dato=i2c_read(0);       // Lectura del dato 
....................       i2c_stop(); 
....................       */       
....................        
....................       if(RX_Buffer[6]==0x01){//01, Ciclos 
0C42E:  DECFSZ 36,W
0C430:  BRA    C446
....................          printf("page MenuPrincipal"); 
0C432:  MOVLW  F6
0C434:  MOVWF  FF6
0C436:  MOVLW  10
0C438:  MOVWF  FF7
0C43A:  MOVLW  00
0C43C:  MOVWF  FF8
0C43E:  CALL   3BB2
....................          SendDataDisplay();      
0C442:  CALL   3BE4
....................       } 
....................        
....................       if(RX_Buffer[6]==0x02 || LEFT){//02, Izquierda 
0C446:  MOVF   36,W
0C448:  SUBLW  02
0C44A:  BZ    C452
0C44C:  BSF    F93.3
0C44E:  BTFSC  F81.3
0C450:  BRA    C4B4
....................          RX_Buffer[6]=0x00;   
0C452:  CLRF   36
....................          RX_Buffer2[6]=0x00; 
0C454:  CLRF   41
....................          if(cicloVisto>0) 
0C456:  MOVLB  3
0C458:  MOVF   x9E,F
0C45A:  BNZ   C460
0C45C:  MOVF   x9F,F
0C45E:  BZ    C468
....................             cicloVisto--; 
0C460:  MOVF   x9E,W
0C462:  BTFSC  FD8.2
0C464:  DECF   x9F,F
0C466:  DECF   x9E,F
....................          printf("h0.val=%Lu",cicloVisto+1); 
0C468:  MOVLW  01
0C46A:  ADDWF  x9E,W
0C46C:  MOVLB  4
0C46E:  MOVWF  x49
0C470:  MOVLW  00
0C472:  MOVLB  3
0C474:  ADDWFC x9F,W
0C476:  MOVLB  4
0C478:  MOVWF  x4A
0C47A:  MOVLW  0A
0C47C:  MOVWF  FF6
0C47E:  MOVLW  11
0C480:  MOVWF  FF7
0C482:  MOVLW  00
0C484:  MOVWF  FF8
0C486:  MOVLW  07
0C488:  MOVWF  x4F
0C48A:  MOVLB  0
0C48C:  CALL   4B26
0C490:  MOVLW  10
0C492:  MOVWF  FE9
0C494:  MOVFF  44A,450
0C498:  MOVFF  449,44F
0C49C:  CALL   54DC
....................          SendDataDisplay();      
0C4A0:  CALL   3BE4
....................          actualizaTabla(); 
0C4A4:  CALL   58EE
....................          delay_ms(100); 
0C4A8:  MOVLW  64
0C4AA:  MOVLB  4
0C4AC:  MOVWF  x62
0C4AE:  MOVLB  0
0C4B0:  CALL   1A6C
....................       } 
....................        
....................       if(RX_Buffer[6]==0x03 || UP){//03, Arriba 
0C4B4:  MOVF   36,W
0C4B6:  SUBLW  03
0C4B8:  BZ    C4C0
0C4BA:  BSF    F93.0
0C4BC:  BTFSC  F81.0
0C4BE:  BRA    C522
....................          RX_Buffer[6]=0x00;   
0C4C0:  CLRF   36
....................          RX_Buffer2[6]=0x00; 
0C4C2:  CLRF   41
....................          if(cicloVisualizado<28) 
0C4C4:  MOVLB  3
0C4C6:  MOVF   xA1,F
0C4C8:  BNZ   C4D6
0C4CA:  MOVF   xA0,W
0C4CC:  SUBLW  1B
0C4CE:  BNC   C4D6
....................             cicloVisualizado++; 
0C4D0:  INCF   xA0,F
0C4D2:  BTFSC  FD8.2
0C4D4:  INCF   xA1,F
....................          printf("h1.val=%Lu",cicloVisualizado+1); 
0C4D6:  MOVLW  01
0C4D8:  ADDWF  xA0,W
0C4DA:  MOVLB  4
0C4DC:  MOVWF  x49
0C4DE:  MOVLW  00
0C4E0:  MOVLB  3
0C4E2:  ADDWFC xA1,W
0C4E4:  MOVLB  4
0C4E6:  MOVWF  x4A
0C4E8:  MOVLW  16
0C4EA:  MOVWF  FF6
0C4EC:  MOVLW  11
0C4EE:  MOVWF  FF7
0C4F0:  MOVLW  00
0C4F2:  MOVWF  FF8
0C4F4:  MOVLW  07
0C4F6:  MOVWF  x4F
0C4F8:  MOVLB  0
0C4FA:  CALL   4B26
0C4FE:  MOVLW  10
0C500:  MOVWF  FE9
0C502:  MOVFF  44A,450
0C506:  MOVFF  449,44F
0C50A:  CALL   54DC
....................          SendDataDisplay();     
0C50E:  CALL   3BE4
....................          actualizaTabla(); 
0C512:  CALL   58EE
....................          delay_ms(100); 
0C516:  MOVLW  64
0C518:  MOVLB  4
0C51A:  MOVWF  x62
0C51C:  MOVLB  0
0C51E:  CALL   1A6C
....................          //exportarData(); 
....................       } 
....................        
....................       if(RX_Buffer[6]==0x04 || DOWN){//04, Abajo 
0C522:  MOVF   36,W
0C524:  SUBLW  04
0C526:  BZ    C52E
0C528:  BSF    F93.1
0C52A:  BTFSC  F81.1
0C52C:  BRA    C590
....................          RX_Buffer[6]=0x00;   
0C52E:  CLRF   36
....................          RX_Buffer2[6]=0x00; 
0C530:  CLRF   41
....................          if(cicloVisualizado>0) 
0C532:  MOVLB  3
0C534:  MOVF   xA0,F
0C536:  BNZ   C53C
0C538:  MOVF   xA1,F
0C53A:  BZ    C544
....................             cicloVisualizado--; 
0C53C:  MOVF   xA0,W
0C53E:  BTFSC  FD8.2
0C540:  DECF   xA1,F
0C542:  DECF   xA0,F
....................          printf("h1.val=%Lu",cicloVisualizado+1); 
0C544:  MOVLW  01
0C546:  ADDWF  xA0,W
0C548:  MOVLB  4
0C54A:  MOVWF  x49
0C54C:  MOVLW  00
0C54E:  MOVLB  3
0C550:  ADDWFC xA1,W
0C552:  MOVLB  4
0C554:  MOVWF  x4A
0C556:  MOVLW  22
0C558:  MOVWF  FF6
0C55A:  MOVLW  11
0C55C:  MOVWF  FF7
0C55E:  MOVLW  00
0C560:  MOVWF  FF8
0C562:  MOVLW  07
0C564:  MOVWF  x4F
0C566:  MOVLB  0
0C568:  CALL   4B26
0C56C:  MOVLW  10
0C56E:  MOVWF  FE9
0C570:  MOVFF  44A,450
0C574:  MOVFF  449,44F
0C578:  CALL   54DC
....................          SendDataDisplay();   
0C57C:  CALL   3BE4
....................          actualizaTabla(); 
0C580:  CALL   58EE
....................          delay_ms(100); 
0C584:  MOVLW  64
0C586:  MOVLB  4
0C588:  MOVWF  x62
0C58A:  MOVLB  0
0C58C:  CALL   1A6C
....................          //exportarData(); 
....................       } 
....................        
....................       if(RX_Buffer[6]==0x05 || RIGHT){//05, Derecha 
0C590:  MOVF   36,W
0C592:  SUBLW  05
0C594:  BZ    C59C
0C596:  BSF    F93.2
0C598:  BTFSC  F81.2
0C59A:  BRA    C5FE
....................          RX_Buffer[6]=0x00;   
0C59C:  CLRF   36
....................          RX_Buffer2[6]=0x00; 
0C59E:  CLRF   41
....................          if(cicloVisto<200) 
0C5A0:  MOVLB  3
0C5A2:  MOVF   x9F,F
0C5A4:  BNZ   C5B2
0C5A6:  MOVF   x9E,W
0C5A8:  SUBLW  C7
0C5AA:  BNC   C5B2
....................             cicloVisto++; 
0C5AC:  INCF   x9E,F
0C5AE:  BTFSC  FD8.2
0C5B0:  INCF   x9F,F
....................          printf("h0.val=%Lu",cicloVisto+1); 
0C5B2:  MOVLW  01
0C5B4:  ADDWF  x9E,W
0C5B6:  MOVLB  4
0C5B8:  MOVWF  x49
0C5BA:  MOVLW  00
0C5BC:  MOVLB  3
0C5BE:  ADDWFC x9F,W
0C5C0:  MOVLB  4
0C5C2:  MOVWF  x4A
0C5C4:  MOVLW  2E
0C5C6:  MOVWF  FF6
0C5C8:  MOVLW  11
0C5CA:  MOVWF  FF7
0C5CC:  MOVLW  00
0C5CE:  MOVWF  FF8
0C5D0:  MOVLW  07
0C5D2:  MOVWF  x4F
0C5D4:  MOVLB  0
0C5D6:  CALL   4B26
0C5DA:  MOVLW  10
0C5DC:  MOVWF  FE9
0C5DE:  MOVFF  44A,450
0C5E2:  MOVFF  449,44F
0C5E6:  CALL   54DC
....................          SendDataDisplay();   
0C5EA:  CALL   3BE4
....................          actualizaTabla(); 
0C5EE:  CALL   58EE
....................          delay_ms(100); 
0C5F2:  MOVLW  64
0C5F4:  MOVLB  4
0C5F6:  MOVWF  x62
0C5F8:  MOVLB  0
0C5FA:  CALL   1A6C
....................          //exportarData(); 
....................       } 
....................        
....................       if(RX_Buffer[6]==0x06){//06, Imprime 
0C5FE:  MOVF   36,W
0C600:  SUBLW  06
0C602:  BNZ   C620
....................          RX_Buffer[6]=0x00;   
0C604:  CLRF   36
....................          RX_Buffer2[6]=0x00; 
0C606:  CLRF   41
....................          printf("t0.txt=\"!IMPRIMIENDO!\""); 
0C608:  MOVLW  3A
0C60A:  MOVWF  FF6
0C60C:  MOVLW  11
0C60E:  MOVWF  FF7
0C610:  MOVLW  00
0C612:  MOVWF  FF8
0C614:  CALL   3BB2
....................          SendDataDisplay();  
0C618:  CALL   3BE4
....................          exportarData(); 
0C61C:  GOTO   60FA
....................       } 
....................        
....................       if(RX_Buffer[4]>0x00 || RX_Buffer[5]>0x00){ 
0C620:  MOVF   34,F
0C622:  BNZ   C628
0C624:  MOVF   35,F
0C626:  BZ    C648
....................          cicloVisualizado=RX_Buffer[4]-1; 
0C628:  MOVLW  01
0C62A:  SUBWF  34,W
0C62C:  MOVLB  3
0C62E:  MOVWF  xA0
0C630:  CLRF   xA1
....................          cicloVisto=RX_Buffer[5]-1; 
0C632:  MOVLW  01
0C634:  SUBWF  35,W
0C636:  MOVWF  x9E
0C638:  CLRF   x9F
....................          RX_Buffer[4]=0x00; 
0C63A:  CLRF   34
....................          RX_Buffer[5]=0x00; 
0C63C:  CLRF   35
....................          RX_Buffer2[4]=0x00; 
0C63E:  CLRF   3F
....................          RX_Buffer2[5]=0x00; 
0C640:  CLRF   40
....................          actualizaTabla(); 
0C642:  MOVLB  0
0C644:  CALL   58EE
....................       } 
....................        
....................       //Imprime Valores Estaticos 
....................       printf("fecha.txt=\"%02u/%02u/%02u\"",diaCiclos,mesCiclos,yearCiclos); 
0C648:  MOVLW  52
0C64A:  MOVWF  FF6
0C64C:  MOVLW  11
0C64E:  MOVWF  FF7
0C650:  MOVLW  00
0C652:  MOVWF  FF8
0C654:  MOVLW  0B
0C656:  MOVLB  4
0C658:  MOVWF  x4F
0C65A:  MOVLB  0
0C65C:  CALL   4B26
0C660:  MOVFF  3CF,44F
0C664:  MOVLW  01
0C666:  MOVLB  4
0C668:  MOVWF  x50
0C66A:  MOVLB  0
0C66C:  CALL   4B84
0C670:  MOVLW  2F
0C672:  BTFSS  F9E.4
0C674:  BRA    C672
0C676:  MOVWF  FAD
0C678:  MOVFF  3D0,44F
0C67C:  MOVLW  01
0C67E:  MOVLB  4
0C680:  MOVWF  x50
0C682:  MOVLB  0
0C684:  CALL   4B84
0C688:  MOVLW  2F
0C68A:  BTFSS  F9E.4
0C68C:  BRA    C68A
0C68E:  MOVWF  FAD
0C690:  MOVFF  3D1,44F
0C694:  MOVLW  01
0C696:  MOVLB  4
0C698:  MOVWF  x50
0C69A:  MOVLB  0
0C69C:  CALL   4B84
0C6A0:  MOVLW  22
0C6A2:  BTFSS  F9E.4
0C6A4:  BRA    C6A2
0C6A6:  MOVWF  FAD
....................       SendDataDisplay(); 
0C6A8:  CALL   3BE4
....................        
....................       printf("ciclo.txt=\"%02u\"",cicloCiclos); 
0C6AC:  MOVLW  6E
0C6AE:  MOVWF  FF6
0C6B0:  MOVLW  11
0C6B2:  MOVWF  FF7
0C6B4:  MOVLW  00
0C6B6:  MOVWF  FF8
0C6B8:  MOVLW  0B
0C6BA:  MOVLB  4
0C6BC:  MOVWF  x4F
0C6BE:  MOVLB  0
0C6C0:  CALL   4B26
0C6C4:  MOVFF  3D3,44F
0C6C8:  MOVLW  01
0C6CA:  MOVLB  4
0C6CC:  MOVWF  x50
0C6CE:  MOVLB  0
0C6D0:  CALL   4B84
0C6D4:  MOVLW  22
0C6D6:  BTFSS  F9E.4
0C6D8:  BRA    C6D6
0C6DA:  MOVWF  FAD
....................       SendDataDisplay(); 
0C6DC:  CALL   3BE4
....................        
....................       printf("t0.txt=\"Ciclo %Lu\"",cicloVisto); 
0C6E0:  MOVLW  80
0C6E2:  MOVWF  FF6
0C6E4:  MOVLW  11
0C6E6:  MOVWF  FF7
0C6E8:  MOVLW  00
0C6EA:  MOVWF  FF8
0C6EC:  MOVLW  0E
0C6EE:  MOVLB  4
0C6F0:  MOVWF  x4F
0C6F2:  MOVLB  0
0C6F4:  CALL   4B26
0C6F8:  MOVLW  10
0C6FA:  MOVWF  FE9
0C6FC:  MOVFF  39F,450
0C700:  MOVFF  39E,44F
0C704:  CALL   54DC
0C708:  MOVLW  22
0C70A:  BTFSS  F9E.4
0C70C:  BRA    C70A
0C70E:  MOVWF  FAD
....................       SendDataDisplay(); 
0C710:  CALL   3BE4
....................        
....................       printf("usuario.txt=\"---\""); 
0C714:  MOVLW  94
0C716:  MOVWF  FF6
0C718:  MOVLW  11
0C71A:  MOVWF  FF7
0C71C:  MOVLW  00
0C71E:  MOVWF  FF8
0C720:  CALL   3BB2
....................       SendDataDisplay(); 
0C724:  CALL   3BE4
....................        
....................       //Imprime Valores Dinamicos 
....................       for(i=0;i<7;i++){ 
0C728:  MOVLB  3
0C72A:  CLRF   xA3
0C72C:  CLRF   xA2
0C72E:  MOVF   xA3,F
0C730:  BTFSS  FD8.2
0C732:  BRA    CA26
0C734:  MOVF   xA2,W
0C736:  SUBLW  06
0C738:  BTFSS  FD8.0
0C73A:  BRA    CA26
....................          printf("hora%Lu.txt=\"%02Lu.  %02u:%02u\"",i+1,cicloVisualizado+i+1,horaCiclos[i],minutoCiclos[i]); 
0C73C:  MOVLW  01
0C73E:  ADDWF  xA2,W
0C740:  MOVLB  4
0C742:  MOVWF  x49
0C744:  MOVLW  00
0C746:  MOVLB  3
0C748:  ADDWFC xA3,W
0C74A:  MOVLB  4
0C74C:  MOVWF  x4A
0C74E:  MOVLB  3
0C750:  MOVF   xA2,W
0C752:  ADDWF  xA0,W
0C754:  MOVLB  4
0C756:  MOVWF  x4B
0C758:  MOVLB  3
0C75A:  MOVF   xA3,W
0C75C:  ADDWFC xA1,W
0C75E:  MOVLB  4
0C760:  MOVWF  x4C
0C762:  MOVLW  01
0C764:  ADDWF  x4B,F
0C766:  MOVLW  00
0C768:  ADDWFC x4C,F
0C76A:  MOVLW  0C
0C76C:  MOVLB  3
0C76E:  ADDWF  xA2,W
0C770:  MOVWF  FE9
0C772:  MOVLW  04
0C774:  ADDWFC xA3,W
0C776:  MOVWF  FEA
0C778:  MOVFF  FEF,44D
0C77C:  MOVLW  13
0C77E:  ADDWF  xA2,W
0C780:  MOVWF  FE9
0C782:  MOVLW  04
0C784:  ADDWFC xA3,W
0C786:  MOVWF  FEA
0C788:  MOVFF  FEF,44E
0C78C:  MOVLW  A6
0C78E:  MOVWF  FF6
0C790:  MOVLW  11
0C792:  MOVWF  FF7
0C794:  MOVLW  00
0C796:  MOVWF  FF8
0C798:  MOVLW  04
0C79A:  MOVLB  4
0C79C:  MOVWF  x4F
0C79E:  MOVLB  0
0C7A0:  CALL   4B26
0C7A4:  MOVLW  10
0C7A6:  MOVWF  FE9
0C7A8:  MOVFF  44A,450
0C7AC:  MOVFF  449,44F
0C7B0:  CALL   54DC
0C7B4:  MOVLW  AD
0C7B6:  MOVWF  FF6
0C7B8:  MOVLW  11
0C7BA:  MOVWF  FF7
0C7BC:  MOVLW  00
0C7BE:  MOVWF  FF8
0C7C0:  MOVLW  06
0C7C2:  MOVLB  4
0C7C4:  MOVWF  x4F
0C7C6:  MOVLB  0
0C7C8:  CALL   4B26
0C7CC:  MOVLW  0B
0C7CE:  MOVWF  FE9
0C7D0:  MOVFF  44C,450
0C7D4:  MOVFF  44B,44F
0C7D8:  CALL   54DC
0C7DC:  MOVLW  2E
0C7DE:  BTFSS  F9E.4
0C7E0:  BRA    C7DE
0C7E2:  MOVWF  FAD
0C7E4:  MOVLW  20
0C7E6:  BTFSS  F9E.4
0C7E8:  BRA    C7E6
0C7EA:  MOVWF  FAD
0C7EC:  MOVLW  20
0C7EE:  BTFSS  F9E.4
0C7F0:  BRA    C7EE
0C7F2:  MOVWF  FAD
0C7F4:  MOVFF  44D,44F
0C7F8:  MOVLW  01
0C7FA:  MOVLB  4
0C7FC:  MOVWF  x50
0C7FE:  MOVLB  0
0C800:  CALL   4B84
0C804:  MOVLW  3A
0C806:  BTFSS  F9E.4
0C808:  BRA    C806
0C80A:  MOVWF  FAD
0C80C:  MOVFF  44E,44F
0C810:  MOVLW  01
0C812:  MOVLB  4
0C814:  MOVWF  x50
0C816:  MOVLB  0
0C818:  CALL   4B84
0C81C:  MOVLW  22
0C81E:  BTFSS  F9E.4
0C820:  BRA    C81E
0C822:  MOVWF  FAD
....................          SendDataDisplay(); 
0C824:  CALL   3BE4
....................          printf("T%Lu.txt=\"%3.1fC\"",i+1,TCiclos[i]); 
0C828:  MOVLW  01
0C82A:  MOVLB  3
0C82C:  ADDWF  xA2,W
0C82E:  MOVLB  4
0C830:  MOVWF  x49
0C832:  MOVLW  00
0C834:  MOVLB  3
0C836:  ADDWFC xA3,W
0C838:  MOVLB  4
0C83A:  MOVWF  x4A
0C83C:  MOVLB  3
0C83E:  RLCF   xA2,W
0C840:  MOVWF  02
0C842:  RLCF   xA3,W
0C844:  MOVWF  03
0C846:  RLCF   02,F
0C848:  RLCF   03,F
0C84A:  MOVLW  FC
0C84C:  ANDWF  02,F
0C84E:  MOVF   02,W
0C850:  ADDLW  D4
0C852:  MOVWF  FE9
0C854:  MOVLW  03
0C856:  ADDWFC 03,W
0C858:  MOVWF  FEA
0C85A:  MOVFF  FEF,44B
0C85E:  MOVFF  FEC,44C
0C862:  MOVFF  FEC,44D
0C866:  MOVFF  FEC,44E
0C86A:  MOVLW  54
0C86C:  BTFSS  F9E.4
0C86E:  BRA    C86C
0C870:  MOVWF  FAD
0C872:  MOVLW  10
0C874:  MOVWF  FE9
0C876:  MOVFF  44A,450
0C87A:  MOVFF  449,44F
0C87E:  MOVLB  0
0C880:  CALL   54DC
0C884:  MOVLW  CA
0C886:  MOVWF  FF6
0C888:  MOVLW  11
0C88A:  MOVWF  FF7
0C88C:  MOVLW  00
0C88E:  MOVWF  FF8
0C890:  MOVLW  06
0C892:  MOVLB  4
0C894:  MOVWF  x4F
0C896:  MOVLB  0
0C898:  CALL   4B26
0C89C:  MOVLW  02
0C89E:  MOVWF  FE9
0C8A0:  MOVFF  44E,452
0C8A4:  MOVFF  44D,451
0C8A8:  MOVFF  44C,450
0C8AC:  MOVFF  44B,44F
0C8B0:  MOVLW  01
0C8B2:  MOVLB  4
0C8B4:  MOVWF  x53
0C8B6:  MOVLB  0
0C8B8:  CALL   4CC6
0C8BC:  MOVLW  B0
0C8BE:  BTFSS  F9E.4
0C8C0:  BRA    C8BE
0C8C2:  MOVWF  FAD
0C8C4:  MOVLW  43
0C8C6:  BTFSS  F9E.4
0C8C8:  BRA    C8C6
0C8CA:  MOVWF  FAD
0C8CC:  MOVLW  22
0C8CE:  BTFSS  F9E.4
0C8D0:  BRA    C8CE
0C8D2:  MOVWF  FAD
....................          SendDataDisplay(); 
0C8D4:  CALL   3BE4
....................          printf("Pc%Lu.txt=\"%03LukPa\"",i+1,PcCiclos[i]); 
0C8D8:  MOVLW  01
0C8DA:  MOVLB  3
0C8DC:  ADDWF  xA2,W
0C8DE:  MOVLB  4
0C8E0:  MOVWF  x49
0C8E2:  MOVLW  00
0C8E4:  MOVLB  3
0C8E6:  ADDWFC xA3,W
0C8E8:  MOVLB  4
0C8EA:  MOVWF  x4A
0C8EC:  BCF    FD8.0
0C8EE:  MOVLB  3
0C8F0:  RLCF   xA2,W
0C8F2:  MOVWF  02
0C8F4:  RLCF   xA3,W
0C8F6:  MOVWF  03
0C8F8:  MOVF   02,W
0C8FA:  ADDLW  F0
0C8FC:  MOVWF  FE9
0C8FE:  MOVLW  03
0C900:  ADDWFC 03,W
0C902:  MOVWF  FEA
0C904:  MOVFF  FEC,44C
0C908:  MOVF   FED,F
0C90A:  MOVFF  FEF,44B
0C90E:  MOVLW  50
0C910:  BTFSS  F9E.4
0C912:  BRA    C910
0C914:  MOVWF  FAD
0C916:  MOVLW  63
0C918:  BTFSS  F9E.4
0C91A:  BRA    C918
0C91C:  MOVWF  FAD
0C91E:  MOVLW  10
0C920:  MOVWF  FE9
0C922:  MOVFF  44A,450
0C926:  MOVFF  449,44F
0C92A:  MOVLB  0
0C92C:  CALL   54DC
0C930:  MOVLW  DF
0C932:  MOVWF  FF6
0C934:  MOVLW  11
0C936:  MOVWF  FF7
0C938:  MOVLW  00
0C93A:  MOVWF  FF8
0C93C:  MOVLW  06
0C93E:  MOVLB  4
0C940:  MOVWF  x4F
0C942:  MOVLB  0
0C944:  CALL   4B26
0C948:  MOVLW  0A
0C94A:  MOVWF  FE9
0C94C:  MOVFF  44C,450
0C950:  MOVFF  44B,44F
0C954:  CALL   54DC
0C958:  MOVLW  EA
0C95A:  MOVWF  FF6
0C95C:  MOVLW  11
0C95E:  MOVWF  FF7
0C960:  MOVLW  00
0C962:  MOVWF  FF8
0C964:  MOVLW  04
0C966:  MOVLB  4
0C968:  MOVWF  x4F
0C96A:  MOVLB  0
0C96C:  CALL   4B26
....................          SendDataDisplay(); 
0C970:  CALL   3BE4
....................          printf("Ppc%Lu.txt=\"%03LukPa\"",i+1,PpcCiclos[i]); 
0C974:  MOVLW  01
0C976:  MOVLB  3
0C978:  ADDWF  xA2,W
0C97A:  MOVLB  4
0C97C:  MOVWF  x49
0C97E:  MOVLW  00
0C980:  MOVLB  3
0C982:  ADDWFC xA3,W
0C984:  MOVLB  4
0C986:  MOVWF  x4A
0C988:  BCF    FD8.0
0C98A:  MOVLB  3
0C98C:  RLCF   xA2,W
0C98E:  MOVWF  02
0C990:  RLCF   xA3,W
0C992:  MOVWF  03
0C994:  MOVF   02,W
0C996:  ADDLW  FE
0C998:  MOVWF  FE9
0C99A:  MOVLW  03
0C99C:  ADDWFC 03,W
0C99E:  MOVWF  FEA
0C9A0:  MOVFF  FEC,44C
0C9A4:  MOVF   FED,F
0C9A6:  MOVFF  FEF,44B
0C9AA:  MOVLW  50
0C9AC:  BTFSS  F9E.4
0C9AE:  BRA    C9AC
0C9B0:  MOVWF  FAD
0C9B2:  MOVLW  70
0C9B4:  BTFSS  F9E.4
0C9B6:  BRA    C9B4
0C9B8:  MOVWF  FAD
0C9BA:  MOVLW  63
0C9BC:  BTFSS  F9E.4
0C9BE:  BRA    C9BC
0C9C0:  MOVWF  FAD
0C9C2:  MOVLW  10
0C9C4:  MOVWF  FE9
0C9C6:  MOVFF  44A,450
0C9CA:  MOVFF  449,44F
0C9CE:  MOVLB  0
0C9D0:  CALL   54DC
0C9D4:  MOVLW  F6
0C9D6:  MOVWF  FF6
0C9D8:  MOVLW  11
0C9DA:  MOVWF  FF7
0C9DC:  MOVLW  00
0C9DE:  MOVWF  FF8
0C9E0:  MOVLW  06
0C9E2:  MOVLB  4
0C9E4:  MOVWF  x4F
0C9E6:  MOVLB  0
0C9E8:  CALL   4B26
0C9EC:  MOVLW  0A
0C9EE:  MOVWF  FE9
0C9F0:  MOVFF  44C,450
0C9F4:  MOVFF  44B,44F
0C9F8:  CALL   54DC
0C9FC:  MOVLW  01
0C9FE:  MOVWF  FF6
0CA00:  MOVLW  12
0CA02:  MOVWF  FF7
0CA04:  MOVLW  00
0CA06:  MOVWF  FF8
0CA08:  MOVLW  04
0CA0A:  MOVLB  4
0CA0C:  MOVWF  x4F
0CA0E:  MOVLB  0
0CA10:  CALL   4B26
....................          SendDataDisplay();          
0CA14:  CALL   3BE4
....................          codificaAlarma(); 
0CA18:  GOTO   64DE
....................       }   
0CA1C:  MOVLB  3
0CA1E:  INCF   xA2,F
0CA20:  BTFSC  FD8.2
0CA22:  INCF   xA3,F
0CA24:  BRA    C72E
....................    } 
.................... //_--------------------------------------------------------------------------------------------------------------------------------------------------------       
....................  
.................... //_--------------------------------------------------------------------------------------------------------------------------------------------------------       
....................     if(Menu==15){//Menu de Clave Correcta 
0CA26:  MOVF   x5D,W
0CA28:  SUBLW  0F
0CA2A:  BNZ   CA62
....................       if(!entro){ 
0CA2C:  MOVLB  0
0CA2E:  BTFSC  xA4.1
0CA30:  BRA    CA4C
....................          delay_ms(2000); 
0CA32:  MOVLW  08
0CA34:  MOVLB  4
0CA36:  MOVWF  x49
0CA38:  MOVLW  FA
0CA3A:  MOVWF  x62
0CA3C:  MOVLB  0
0CA3E:  CALL   1A6C
0CA42:  MOVLB  4
0CA44:  DECFSZ x49,F
0CA46:  BRA    CA38
....................          entro=ON; 
0CA48:  MOVLB  0
0CA4A:  BSF    xA4.1
....................       } 
....................       printf("page MenuPrincipal"); 
0CA4C:  MOVLW  06
0CA4E:  MOVWF  FF6
0CA50:  MOVLW  12
0CA52:  MOVWF  FF7
0CA54:  MOVLW  00
0CA56:  MOVWF  FF8
0CA58:  CALL   3BB2
....................       SendDataDisplay(); 
0CA5C:  CALL   3BE4
0CA60:  MOVLB  3
....................    } 
.................... //_--------------------------------------------------------------------------------------------------------------------------------------------------------       
....................  
.................... //_--------------------------------------------------------------------------------------------------------------------------------------------------------       
....................     if(Menu==16){//Menu de Clave InCorrecta 
0CA62:  MOVF   x5D,W
0CA64:  SUBLW  10
0CA66:  BNZ   CA9E
....................       if(!entro){ 
0CA68:  MOVLB  0
0CA6A:  BTFSC  xA4.1
0CA6C:  BRA    CA88
....................          delay_ms(2000); 
0CA6E:  MOVLW  08
0CA70:  MOVLB  4
0CA72:  MOVWF  x49
0CA74:  MOVLW  FA
0CA76:  MOVWF  x62
0CA78:  MOVLB  0
0CA7A:  CALL   1A6C
0CA7E:  MOVLB  4
0CA80:  DECFSZ x49,F
0CA82:  BRA    CA74
....................          entro=ON; 
0CA84:  MOVLB  0
0CA86:  BSF    xA4.1
....................       } 
....................       printf("page Clave"); 
0CA88:  MOVLW  1A
0CA8A:  MOVWF  FF6
0CA8C:  MOVLW  12
0CA8E:  MOVWF  FF7
0CA90:  MOVLW  00
0CA92:  MOVWF  FF8
0CA94:  CALL   3BB2
....................       SendDataDisplay(); 
0CA98:  CALL   3BE4
0CA9C:  MOVLB  3
....................    } 
.................... //_--------------------------------------------------------------------------------------------------------------------------------------------------------       
....................  
.................... //_--------------------------------------------------------------------------------------------------------------------------------------------------------     
....................    if(Menu==20){ // Este es el menu de cuando el proceso se inicio. 
0CA9E:  MOVF   x5D,W
0CAA0:  SUBLW  14
0CAA2:  BTFSS  FD8.2
0CAA4:  GOTO   DB44
....................    //Lectura_Esclavos(); 
....................    GuardaDatoEstatico(); 
0CAA8:  MOVLB  0
0CAAA:  GOTO   6B1E
....................    guardaCiclo=ON; 
0CAAE:  BSF    xA4.4
....................    if(!Libre){ 
0CAB0:  BTFSC  xA3.7
0CAB2:  BRA    CB38
....................       printf("t2f.txt=\"%u\"",CicloSeleccionado); 
0CAB4:  MOVLW  26
0CAB6:  MOVWF  FF6
0CAB8:  MOVLW  12
0CABA:  MOVWF  FF7
0CABC:  MOVLW  00
0CABE:  MOVWF  FF8
0CAC0:  MOVLW  09
0CAC2:  MOVLB  4
0CAC4:  MOVWF  x4F
0CAC6:  MOVLB  0
0CAC8:  CALL   4B26
0CACC:  MOVFF  362,44F
0CAD0:  MOVLW  1B
0CAD2:  MOVLB  4
0CAD4:  MOVWF  x50
0CAD6:  MOVLB  0
0CAD8:  CALL   4B84
0CADC:  MOVLW  22
0CADE:  BTFSS  F9E.4
0CAE0:  BRA    CADE
0CAE2:  MOVWF  FAD
....................       SendDataDisplay(); 
0CAE4:  CALL   3BE4
....................       printf("t3f.txt=\"%s\"",texto[CicloSeleccionado-1]); 
0CAE8:  MOVLW  01
0CAEA:  MOVLB  3
0CAEC:  SUBWF  x62,W
0CAEE:  MULLW  14
0CAF0:  MOVF   FF3,W
0CAF2:  CLRF   03
0CAF4:  MOVLB  4
0CAF6:  MOVWF  x49
0CAF8:  MOVLW  34
0CAFA:  MOVWF  FF6
0CAFC:  MOVLW  12
0CAFE:  MOVWF  FF7
0CB00:  MOVLW  00
0CB02:  MOVWF  FF8
0CB04:  MOVLW  09
0CB06:  MOVWF  x4F
0CB08:  MOVLB  0
0CB0A:  CALL   4B26
0CB0E:  MOVLW  50
0CB10:  MOVWF  FF6
0CB12:  MOVLW  01
0CB14:  MOVWF  FF7
0CB16:  MOVLW  00
0CB18:  MOVWF  FF8
0CB1A:  MOVLB  4
0CB1C:  MOVF   x49,W
0CB1E:  ADDWF  FF6,F
0CB20:  MOVLW  00
0CB22:  ADDWFC FF7,F
0CB24:  MOVLB  0
0CB26:  CALL   3BB2
0CB2A:  MOVLW  22
0CB2C:  BTFSS  F9E.4
0CB2E:  BRA    CB2C
0CB30:  MOVWF  FAD
....................       SendDataDisplay(); 
0CB32:  CALL   3BE4
....................    }else{ 
0CB36:  BRA    CB88
....................       printf("t2f.txt=\"%u\"",CicloLibre+4); 
0CB38:  MOVLW  04
0CB3A:  MOVLB  3
0CB3C:  ADDWF  x3B,W
0CB3E:  MOVLB  4
0CB40:  MOVWF  x49
0CB42:  MOVLW  42
0CB44:  MOVWF  FF6
0CB46:  MOVLW  12
0CB48:  MOVWF  FF7
0CB4A:  MOVLW  00
0CB4C:  MOVWF  FF8
0CB4E:  MOVLW  09
0CB50:  MOVWF  x4F
0CB52:  MOVLB  0
0CB54:  CALL   4B26
0CB58:  MOVFF  449,44F
0CB5C:  MOVLW  1B
0CB5E:  MOVLB  4
0CB60:  MOVWF  x50
0CB62:  MOVLB  0
0CB64:  CALL   4B84
0CB68:  MOVLW  22
0CB6A:  BTFSS  F9E.4
0CB6C:  BRA    CB6A
0CB6E:  MOVWF  FAD
....................       SendDataDisplay(); 
0CB70:  CALL   3BE4
....................       printf("t3f.txt=\"Personalizado\""); 
0CB74:  MOVLW  50
0CB76:  MOVWF  FF6
0CB78:  MOVLW  12
0CB7A:  MOVWF  FF7
0CB7C:  MOVLW  00
0CB7E:  MOVWF  FF8
0CB80:  CALL   3BB2
....................       SendDataDisplay(); 
0CB84:  CALL   3BE4
....................    } 
....................     
....................    if(RIGHT){ 
0CB88:  BSF    F93.2
0CB8A:  BTFSC  F81.2
0CB8C:  BRA    CBA4
....................       //glcd_init(ON); 
....................       delay_ms(1000); 
0CB8E:  MOVLW  04
0CB90:  MOVLB  4
0CB92:  MOVWF  x49
0CB94:  MOVLW  FA
0CB96:  MOVWF  x62
0CB98:  MOVLB  0
0CB9A:  CALL   1A6C
0CB9E:  MOVLB  4
0CBA0:  DECFSZ x49,F
0CBA2:  BRA    CB94
....................       /*flagCalentando=OFF; 
....................       flagDesfogando=OFF; 
....................       flagEsterilizando=OFF;*/ 
....................    } 
....................     
....................    if(PresionCamara>Atmosferica+275){ 
0CBA4:  MOVLW  13
0CBA6:  MOVLB  3
0CBA8:  ADDWF  xB8,W
0CBAA:  MOVWF  01
0CBAC:  MOVLW  01
0CBAE:  MOVWF  03
0CBB0:  BTFSC  FD8.0
0CBB2:  INCF   03,F
0CBB4:  MOVF   03,W
0CBB6:  SUBWF  x76,W
0CBB8:  BNC   CBC6
0CBBA:  BNZ   CBC2
0CBBC:  MOVF   x75,W
0CBBE:  SUBWF  01,W
0CBC0:  BC    CBC6
....................       AlarmaPresion=ON; 
0CBC2:  MOVLB  0
0CBC4:  BSF    xA3.6
....................    } 
....................     
....................    if(Temperatura>105 && PresionCamara<Atmosferica+10 && !Desfogando){ 
0CBC6:  MOVLB  4
0CBC8:  CLRF   x50
0CBCA:  CLRF   x4F
0CBCC:  MOVLW  52
0CBCE:  MOVWF  x4E
0CBD0:  MOVLW  85
0CBD2:  MOVWF  x4D
0CBD4:  MOVFF  328,454
0CBD8:  MOVFF  327,453
0CBDC:  MOVFF  326,452
0CBE0:  MOVFF  325,451
0CBE4:  MOVLB  0
0CBE6:  CALL   3032
0CBEA:  BNC   CC0E
0CBEC:  MOVLW  0A
0CBEE:  MOVLB  3
0CBF0:  ADDWF  xB8,W
0CBF2:  MOVF   x76,F
0CBF4:  BTFSC  FD8.2
0CBF6:  BRA    CBFC
0CBF8:  MOVLB  0
0CBFA:  BRA    CC0E
0CBFC:  SUBWF  x75,W
0CBFE:  BTFSS  FD8.0
0CC00:  BRA    CC06
0CC02:  MOVLB  0
0CC04:  BRA    CC0E
0CC06:  MOVLB  0
0CC08:  BTFSC  xA0.5
0CC0A:  BRA    CC0E
....................       AlarmaCiclo=ON; 
0CC0C:  BSF    x9F.6
....................    } 
....................     
....................    if(TiempoCiclo>3000){ 
0CC0E:  MOVF   xA6,W
0CC10:  SUBLW  0A
0CC12:  BC    CC48
0CC14:  XORLW  FF
0CC16:  BNZ   CC1E
0CC18:  MOVF   xA5,W
0CC1A:  SUBLW  B8
0CC1C:  BC    CC48
....................       if(TiempoCiclo>5000) 
0CC1E:  MOVF   xA6,W
0CC20:  SUBLW  12
0CC22:  BC    CC30
0CC24:  XORLW  FF
0CC26:  BNZ   CC2E
0CC28:  MOVF   xA5,W
0CC2A:  SUBLW  88
0CC2C:  BC    CC30
....................          AlarmaTiempoProlongado=ON; 
0CC2E:  BSF    x9F.0
....................       if(PresionCamara<Atmosferica+10){ 
0CC30:  MOVLW  0A
0CC32:  MOVLB  3
0CC34:  ADDWF  xB8,W
0CC36:  MOVF   x76,F
0CC38:  BNZ   CC44
0CC3A:  SUBWF  x75,W
0CC3C:  BC    CC44
....................          AlarmaTiempoProlongado=ON; 
0CC3E:  MOVLB  0
0CC40:  BSF    x9F.0
0CC42:  MOVLB  3
....................       } 
....................    }else{ 
0CC44:  BRA    CC4A
0CC46:  MOVLB  0
....................       AlarmaTiempoProlongado=OFF; 
0CC48:  BCF    x9F.0
....................    } 
....................     
....................    if(Temperatura>Setpoint+3.0){ 
0CC4A:  MOVLB  4
0CC4C:  CLRF   x5F
0CC4E:  MOVFF  363,45E
0CC52:  MOVLB  0
0CC54:  CALL   1A94
0CC58:  BCF    FD8.1
0CC5A:  MOVFF  03,461
0CC5E:  MOVFF  02,460
0CC62:  MOVFF  01,45F
0CC66:  MOVFF  00,45E
0CC6A:  MOVLB  4
0CC6C:  CLRF   x65
0CC6E:  CLRF   x64
0CC70:  MOVLW  40
0CC72:  MOVWF  x63
0CC74:  MOVLW  80
0CC76:  MOVWF  x62
0CC78:  MOVLB  0
0CC7A:  CALL   1C28
0CC7E:  MOVFF  03,450
0CC82:  MOVFF  02,44F
0CC86:  MOVFF  01,44E
0CC8A:  MOVFF  00,44D
0CC8E:  MOVFF  328,454
0CC92:  MOVFF  327,453
0CC96:  MOVFF  326,452
0CC9A:  MOVFF  325,451
0CC9E:  CALL   3032
0CCA2:  BNC   CCA6
....................       AlarmaSobreTemperatura=ON; 
0CCA4:  BSF    x9F.1
....................    } 
....................     
....................    if(TiempoLlenado>1800){ 
0CCA6:  MOVF   xA8,W
0CCA8:  SUBLW  06
0CCAA:  BC    CCBA
0CCAC:  XORLW  FF
0CCAE:  BNZ   CCB6
0CCB0:  MOVF   xA7,W
0CCB2:  SUBLW  08
0CCB4:  BC    CCBA
....................       AlarmaLlenado=ON; 
0CCB6:  BSF    x9F.2
....................    }else{ 
0CCB8:  BRA    CCBC
....................       AlarmaLlenado=OFF; 
0CCBA:  BCF    x9F.2
....................    } 
....................     
....................    if(tTermostato>=2000){ 
0CCBC:  MOVLB  3
0CCBE:  MOVF   x9D,W
0CCC0:  SUBLW  06
0CCC2:  BC    CCD4
0CCC4:  XORLW  FF
0CCC6:  BNZ   CCCE
0CCC8:  MOVF   x9C,W
0CCCA:  SUBLW  CF
0CCCC:  BC    CCD4
....................       AlarmaTermostato=ON; 
0CCCE:  MOVLB  0
0CCD0:  BSF    x9F.3
0CCD2:  MOVLB  3
....................    } 
....................     
....................    if(!DOOR){ 
0CCD4:  BSF    F93.6
0CCD6:  BTFSS  F81.6
0CCD8:  BRA    CCF2
....................       #ifdef Reservorio 
....................          if(!Secando && !Finalizo && !Desfogando){ 
....................             AlarmaPuerta=ON; 
....................          } 
....................       #else 
....................          if(!Secando && !Finalizo && !Desfogando && CalderinLleno){ 
0CCDA:  MOVLB  0
0CCDC:  BTFSC  xA0.3
0CCDE:  BRA    CCEE
0CCE0:  BTFSC  xA3.5
0CCE2:  BRA    CCEE
0CCE4:  BTFSC  xA0.5
0CCE6:  BRA    CCEE
0CCE8:  BTFSS  xA0.0
0CCEA:  BRA    CCEE
....................             AlarmaPuerta=ON; 
0CCEC:  BSF    x9F.4
....................          } 
....................       #endif 
....................    }else{ 
0CCEE:  BRA    CCF6
0CCF0:  MOVLB  3
....................       AlarmaPuerta=OFF; 
0CCF2:  MOVLB  0
0CCF4:  BCF    x9F.4
....................    } 
....................  
....................    if(tStop>=300){ 
0CCF6:  MOVLB  3
0CCF8:  MOVF   x9B,W
0CCFA:  SUBLW  00
0CCFC:  BC    CD0E
0CCFE:  XORLW  FF
0CD00:  BNZ   CD08
0CD02:  MOVF   x9A,W
0CD04:  SUBLW  2B
0CD06:  BC    CD0E
....................       AlarmaEmergencia=ON; 
0CD08:  MOVLB  0
0CD0A:  BSF    x9F.5
0CD0C:  MOVLB  3
....................    } 
....................     
....................    if(AlarmaPuerta || AlarmaTermostato || AlarmaLlenado || AlarmaSobreTemperatura || AlarmaTiempoProlongado || AlarmaEmergencia || AlarmaPresion 
....................    || AlarmaCiclo){ 
0CD0E:  MOVLB  0
0CD10:  BTFSC  x9F.4
0CD12:  BRA    CD30
0CD14:  BTFSC  x9F.3
0CD16:  BRA    CD30
0CD18:  BTFSC  x9F.2
0CD1A:  BRA    CD30
0CD1C:  BTFSC  x9F.1
0CD1E:  BRA    CD30
0CD20:  BTFSC  x9F.0
0CD22:  BRA    CD30
0CD24:  BTFSC  x9F.5
0CD26:  BRA    CD30
0CD28:  BTFSC  xA3.6
0CD2A:  BRA    CD30
0CD2C:  BTFSS  x9F.6
0CD2E:  BRA    D18C
....................       ActivaAlarma(1); 
0CD30:  MOVLW  01
0CD32:  MOVLB  4
0CD34:  MOVWF  x49
0CD36:  MOVLB  0
0CD38:  CALL   4A24
....................       if(AlarmaEmergencia){ 
0CD3C:  BTFSS  x9F.5
0CD3E:  BRA    CDC8
....................          printf("Funcionamiento.t4f.txt=\" Parada de Emergencia\""); 
0CD40:  MOVLW  68
0CD42:  MOVWF  FF6
0CD44:  MOVLW  12
0CD46:  MOVWF  FF7
0CD48:  MOVLW  00
0CD4A:  MOVWF  FF8
0CD4C:  CALL   3BB2
....................          SendDataDisplay(); 
0CD50:  CALL   3BE4
....................          printf("Funcionamiento.t5f.txt=\" Cancelado\""); 
0CD54:  MOVLW  98
0CD56:  MOVWF  FF6
0CD58:  MOVLW  12
0CD5A:  MOVWF  FF7
0CD5C:  MOVLW  00
0CD5E:  MOVWF  FF8
0CD60:  CALL   3BB2
....................          SendDataDisplay(); 
0CD64:  CALL   3BE4
....................          Desfogue_on; 
0CD68:  BSF    F8C.4
0CD6A:  BCF    F95.4
....................          SSR_off; 
0CD6C:  BSF    F8B.2
0CD6E:  BCF    F94.2
....................          Agua_off; 
0CD70:  BCF    F8C.5
0CD72:  BCF    F95.5
....................          #ifdef Enfriador 
....................          Enfr_on; 
0CD74:  BSF    F8C.6
0CD76:  BCF    F95.6
....................          #else 
....................          Bomba_off; 
....................          #endif 
....................          Aire=OFF; 
0CD78:  BCF    xA4.2
....................          Esterilizando=OFF; 
0CD7A:  BCF    xA0.2
....................          Desfogando=OFF; 
0CD7C:  BCF    xA0.5
....................          DesfogueSuave=OFF; 
0CD7E:  BCF    xA0.6
....................          Esterilizando=OFF; 
0CD80:  BCF    xA0.2
....................          //IniciaCiclo=OFF; 
....................          Controlando=0; 
0CD82:  MOVLB  3
0CD84:  CLRF   x55
....................          codigoAlarma=1; 
0CD86:  MOVLW  01
0CD88:  MOVLB  2
0CD8A:  MOVWF  xE3
....................          if(codigoAnt!=codigoAlarma){ 
0CD8C:  MOVF   xE3,W
0CD8E:  SUBWF  xE4,W
0CD90:  BZ    CDA0
....................             codigoAnt=codigoAlarma; 
0CD92:  MOVFF  2E3,2E4
....................             GuardaDatoCiclo(); 
0CD96:  MOVLB  0
0CD98:  CALL   6DE6
....................             incrementaCiclos(); 
0CD9C:  CALL   719C
....................          } 
....................          if(!flagImprimir){ 
0CDA0:  MOVLB  3
0CDA2:  BTFSC  x52.5
0CDA4:  BRA    CDC4
....................             Imprime=20; 
0CDA6:  MOVLW  14
0CDA8:  MOVWF  xB7
....................             Envio_Esclavos(); 
0CDAA:  MOVLB  0
0CDAC:  CALL   495A
....................             delay_ms(100); 
0CDB0:  MOVLW  64
0CDB2:  MOVLB  4
0CDB4:  MOVWF  x62
0CDB6:  MOVLB  0
0CDB8:  CALL   1A6C
....................             Imprime=10; 
0CDBC:  MOVLW  0A
0CDBE:  MOVLB  3
0CDC0:  MOVWF  xB7
....................             flagImprimir=1; 
0CDC2:  BSF    x52.5
....................          } 
....................       }else if(AlarmaPuerta){ 
0CDC4:  BRA    D186
0CDC6:  MOVLB  0
0CDC8:  BTFSS  x9F.4
0CDCA:  BRA    CE2C
....................             codigoAlarma=2; 
0CDCC:  MOVLW  02
0CDCE:  MOVLB  2
0CDD0:  MOVWF  xE3
....................             printf("Funcionamiento.t4f.txt=\" Puerta Abierta\""); 
0CDD2:  MOVLW  BC
0CDD4:  MOVWF  FF6
0CDD6:  MOVLW  12
0CDD8:  MOVWF  FF7
0CDDA:  MOVLW  00
0CDDC:  MOVWF  FF8
0CDDE:  MOVLB  0
0CDE0:  CALL   3BB2
....................             SendDataDisplay(); 
0CDE4:  CALL   3BE4
....................             printf("Funcionamiento.t5f.txt=\" Pausado\""); 
0CDE8:  MOVLW  E6
0CDEA:  MOVWF  FF6
0CDEC:  MOVLW  12
0CDEE:  MOVWF  FF7
0CDF0:  MOVLW  00
0CDF2:  MOVWF  FF8
0CDF4:  CALL   3BB2
....................             SendDataDisplay(); 
0CDF8:  CALL   3BE4
....................             SSR_off; 
0CDFC:  BSF    F8B.2
0CDFE:  BCF    F94.2
....................             Agua_off; 
0CE00:  BCF    F8C.5
0CE02:  BCF    F95.5
....................             #ifdef Enfriador 
....................             Enfr_off; 
0CE04:  BCF    F8C.6
0CE06:  BCF    F95.6
....................             #else 
....................             Bomba_off; 
....................             #endif 
....................             Aire=OFF; 
0CE08:  BCF    xA4.2
....................             IniciaLlenado=OFF; 
0CE0A:  BCF    x9F.7
....................             IniciaCiclo=OFF; 
0CE0C:  BCF    xA0.1
....................             Esterilizando=OFF; 
0CE0E:  BCF    xA0.2
....................             Controlando=0; 
0CE10:  MOVLB  3
0CE12:  CLRF   x55
....................             if(codigoAnt!=codigoAlarma){ 
0CE14:  MOVLB  2
0CE16:  MOVF   xE3,W
0CE18:  SUBWF  xE4,W
0CE1A:  BZ    CE28
....................                codigoAnt=codigoAlarma; 
0CE1C:  MOVFF  2E3,2E4
....................                GuardaDatoCiclo(); 
0CE20:  MOVLB  0
0CE22:  CALL   6DE6
0CE26:  MOVLB  2
....................                //incrementaCiclos(); 
....................             } 
....................       }else if(AlarmaLlenado){ 
0CE28:  BRA    D188
0CE2A:  MOVLB  0
0CE2C:  BTFSS  x9F.2
0CE2E:  BRA    CEBA
....................             codigoAlarma=8; 
0CE30:  MOVLW  08
0CE32:  MOVLB  2
0CE34:  MOVWF  xE3
....................             printf("Funcionamiento.t4f.txt=\" Tiempo Llenado\""); 
0CE36:  MOVLW  08
0CE38:  MOVWF  FF6
0CE3A:  MOVLW  13
0CE3C:  MOVWF  FF7
0CE3E:  MOVLW  00
0CE40:  MOVWF  FF8
0CE42:  MOVLB  0
0CE44:  CALL   3BB2
....................             SendDataDisplay(); 
0CE48:  CALL   3BE4
....................             printf("Funcionamiento.t5f.txt=\" Cancelado\""); 
0CE4C:  MOVLW  32
0CE4E:  MOVWF  FF6
0CE50:  MOVLW  13
0CE52:  MOVWF  FF7
0CE54:  MOVLW  00
0CE56:  MOVWF  FF8
0CE58:  CALL   3BB2
....................             SendDataDisplay(); 
0CE5C:  CALL   3BE4
....................             Desfogue_off; 
0CE60:  BCF    F8C.4
0CE62:  BCF    F95.4
....................             SSR_off; 
0CE64:  BSF    F8B.2
0CE66:  BCF    F94.2
....................             Agua_off; 
0CE68:  BCF    F8C.5
0CE6A:  BCF    F95.5
....................             #ifdef Enfriador 
....................             Enfr_on; 
0CE6C:  BSF    F8C.6
0CE6E:  BCF    F95.6
....................             #else 
....................             Bomba_off; 
....................             #endif 
....................             Aire=OFF; 
0CE70:  BCF    xA4.2
....................             IniciaLlenado=OFF; 
0CE72:  BCF    x9F.7
....................             IniciaCiclo=OFF; 
0CE74:  BCF    xA0.1
....................             Esterilizando=OFF; 
0CE76:  BCF    xA0.2
....................             Controlando=0; 
0CE78:  MOVLB  3
0CE7A:  CLRF   x55
....................             if(codigoAnt!=codigoAlarma){ 
0CE7C:  MOVLB  2
0CE7E:  MOVF   xE3,W
0CE80:  SUBWF  xE4,W
0CE82:  BZ    CE92
....................                codigoAnt=codigoAlarma; 
0CE84:  MOVFF  2E3,2E4
....................                GuardaDatoCiclo(); 
0CE88:  MOVLB  0
0CE8A:  CALL   6DE6
....................                incrementaCiclos(); 
0CE8E:  CALL   719C
....................             } 
....................             if(!flagImprimir){ 
0CE92:  MOVLB  3
0CE94:  BTFSC  x52.5
0CE96:  BRA    CEB6
....................                Imprime=21; 
0CE98:  MOVLW  15
0CE9A:  MOVWF  xB7
....................                Envio_Esclavos(); 
0CE9C:  MOVLB  0
0CE9E:  CALL   495A
....................                delay_ms(100); 
0CEA2:  MOVLW  64
0CEA4:  MOVLB  4
0CEA6:  MOVWF  x62
0CEA8:  MOVLB  0
0CEAA:  CALL   1A6C
....................                Imprime=10; 
0CEAE:  MOVLW  0A
0CEB0:  MOVLB  3
0CEB2:  MOVWF  xB7
....................                flagImprimir=1; 
0CEB4:  BSF    x52.5
....................             } 
....................       }else if(AlarmaTermostato){ // Alarma de Termostato 
0CEB6:  BRA    D186
0CEB8:  MOVLB  0
0CEBA:  BTFSS  x9F.3
0CEBC:  BRA    CF4E
....................             codigoAlarma=3; 
0CEBE:  MOVLW  03
0CEC0:  MOVLB  2
0CEC2:  MOVWF  xE3
....................             tiempo_esterilizacion=0;tiempo_secado=0; 
0CEC4:  MOVLB  3
0CEC6:  CLRF   x66
0CEC8:  CLRF   x67
....................             printf("Funcionamiento.t4f.txt=\" Termostato\""); 
0CECA:  MOVLW  56
0CECC:  MOVWF  FF6
0CECE:  MOVLW  13
0CED0:  MOVWF  FF7
0CED2:  MOVLW  00
0CED4:  MOVWF  FF8
0CED6:  MOVLB  0
0CED8:  CALL   3BB2
....................             SendDataDisplay(); 
0CEDC:  CALL   3BE4
....................             printf("Funcionamiento.t5f.txt=\" Cancelado\""); 
0CEE0:  MOVLW  7C
0CEE2:  MOVWF  FF6
0CEE4:  MOVLW  13
0CEE6:  MOVWF  FF7
0CEE8:  MOVLW  00
0CEEA:  MOVWF  FF8
0CEEC:  CALL   3BB2
....................             SendDataDisplay(); 
0CEF0:  CALL   3BE4
....................             Desfogue_on;             
0CEF4:  BSF    F8C.4
0CEF6:  BCF    F95.4
....................             SSR_off; 
0CEF8:  BSF    F8B.2
0CEFA:  BCF    F94.2
....................             Agua_off; 
0CEFC:  BCF    F8C.5
0CEFE:  BCF    F95.5
....................             #ifdef Enfriador 
....................             Enfr_on; 
0CF00:  BSF    F8C.6
0CF02:  BCF    F95.6
....................             #else 
....................             Bomba_off; 
....................             #endif 
....................             Aire=OFF; 
0CF04:  BCF    xA4.2
....................             Esterilizando=OFF; 
0CF06:  BCF    xA0.2
....................             Desfogando=OFF; 
0CF08:  BCF    xA0.5
....................             IniciaCiclo=OFF; 
0CF0A:  BCF    xA0.1
....................             Controlando=0; 
0CF0C:  MOVLB  3
0CF0E:  CLRF   x55
....................             if(codigoAnt!=codigoAlarma){ 
0CF10:  MOVLB  2
0CF12:  MOVF   xE3,W
0CF14:  SUBWF  xE4,W
0CF16:  BZ    CF26
....................                codigoAnt=codigoAlarma; 
0CF18:  MOVFF  2E3,2E4
....................                GuardaDatoCiclo(); 
0CF1C:  MOVLB  0
0CF1E:  CALL   6DE6
....................                incrementaCiclos(); 
0CF22:  CALL   719C
....................             } 
....................             if(!flagImprimir){ 
0CF26:  MOVLB  3
0CF28:  BTFSC  x52.5
0CF2A:  BRA    CF4A
....................                Imprime=22; 
0CF2C:  MOVLW  16
0CF2E:  MOVWF  xB7
....................                Envio_Esclavos(); 
0CF30:  MOVLB  0
0CF32:  CALL   495A
....................                delay_ms(100); 
0CF36:  MOVLW  64
0CF38:  MOVLB  4
0CF3A:  MOVWF  x62
0CF3C:  MOVLB  0
0CF3E:  CALL   1A6C
....................                Imprime=10; 
0CF42:  MOVLW  0A
0CF44:  MOVLB  3
0CF46:  MOVWF  xB7
....................                flagImprimir=1; 
0CF48:  BSF    x52.5
....................             } 
....................       }else if(AlarmaSobreTemperatura){ // Alarma de Sobre Temperatura 
0CF4A:  BRA    D186
0CF4C:  MOVLB  0
0CF4E:  BTFSS  x9F.1
0CF50:  BRA    CFE4
....................          codigoAlarma=4; 
0CF52:  MOVLW  04
0CF54:  MOVLB  2
0CF56:  MOVWF  xE3
....................          tiempo_esterilizacion=0;tiempo_secado=0; 
0CF58:  MOVLB  3
0CF5A:  CLRF   x66
0CF5C:  CLRF   x67
....................          printf("Funcionamiento.t4f.txt=\" Sobretemperatura\""); 
0CF5E:  MOVLW  A0
0CF60:  MOVWF  FF6
0CF62:  MOVLW  13
0CF64:  MOVWF  FF7
0CF66:  MOVLW  00
0CF68:  MOVWF  FF8
0CF6A:  MOVLB  0
0CF6C:  CALL   3BB2
....................          SendDataDisplay(); 
0CF70:  CALL   3BE4
....................          printf("Funcionamiento.t5f.txt=\" Cancelado\""); 
0CF74:  MOVLW  CC
0CF76:  MOVWF  FF6
0CF78:  MOVLW  13
0CF7A:  MOVWF  FF7
0CF7C:  MOVLW  00
0CF7E:  MOVWF  FF8
0CF80:  CALL   3BB2
....................          SendDataDisplay();   
0CF84:  CALL   3BE4
....................          Desfogue_on; 
0CF88:  BSF    F8C.4
0CF8A:  BCF    F95.4
....................          SSR_off; 
0CF8C:  BSF    F8B.2
0CF8E:  BCF    F94.2
....................          Agua_off; 
0CF90:  BCF    F8C.5
0CF92:  BCF    F95.5
....................          #ifdef Enfriador 
....................          Enfr_on; 
0CF94:  BSF    F8C.6
0CF96:  BCF    F95.6
....................          #else 
....................          Bomba_off; 
....................          #endif 
....................          Aire=OFF; 
0CF98:  BCF    xA4.2
....................          Controlando=0; 
0CF9A:  MOVLB  3
0CF9C:  CLRF   x55
....................          IniciaLlenado=OFF; 
0CF9E:  MOVLB  0
0CFA0:  BCF    x9F.7
....................          IniciaCiclo=OFF; 
0CFA2:  BCF    xA0.1
....................          Esterilizando=OFF; 
0CFA4:  BCF    xA0.2
....................          if(codigoAnt!=codigoAlarma){ 
0CFA6:  MOVLB  2
0CFA8:  MOVF   xE3,W
0CFAA:  SUBWF  xE4,W
0CFAC:  BZ    CFBC
....................             codigoAnt=codigoAlarma; 
0CFAE:  MOVFF  2E3,2E4
....................             GuardaDatoCiclo(); 
0CFB2:  MOVLB  0
0CFB4:  CALL   6DE6
....................             incrementaCiclos(); 
0CFB8:  CALL   719C
....................          } 
....................          if(!flagImprimir){ 
0CFBC:  MOVLB  3
0CFBE:  BTFSC  x52.5
0CFC0:  BRA    CFE0
....................             Imprime=23; 
0CFC2:  MOVLW  17
0CFC4:  MOVWF  xB7
....................             Envio_Esclavos(); 
0CFC6:  MOVLB  0
0CFC8:  CALL   495A
....................             delay_ms(100); 
0CFCC:  MOVLW  64
0CFCE:  MOVLB  4
0CFD0:  MOVWF  x62
0CFD2:  MOVLB  0
0CFD4:  CALL   1A6C
....................             Imprime=10; 
0CFD8:  MOVLW  0A
0CFDA:  MOVLB  3
0CFDC:  MOVWF  xB7
....................             flagImprimir=1; 
0CFDE:  BSF    x52.5
....................          } 
....................       }else if(AlarmaTiempoProlongado){ // Alarma de Error de Tiempo: Error por exceso de tiempo de calentamiento. 
0CFE0:  BRA    D186
0CFE2:  MOVLB  0
0CFE4:  BTFSS  x9F.0
0CFE6:  BRA    D074
....................          codigoAlarma=5; 
0CFE8:  MOVLW  05
0CFEA:  MOVLB  2
0CFEC:  MOVWF  xE3
....................          printf("Funcionamiento.t4f.txt=\" Tiempo Prolongado\""); 
0CFEE:  MOVLW  F0
0CFF0:  MOVWF  FF6
0CFF2:  MOVLW  13
0CFF4:  MOVWF  FF7
0CFF6:  MOVLW  00
0CFF8:  MOVWF  FF8
0CFFA:  MOVLB  0
0CFFC:  CALL   3BB2
....................          SendDataDisplay(); 
0D000:  CALL   3BE4
....................          printf("Funcionamiento.t5f.txt=\" Cancelado\""); 
0D004:  MOVLW  1C
0D006:  MOVWF  FF6
0D008:  MOVLW  14
0D00A:  MOVWF  FF7
0D00C:  MOVLW  00
0D00E:  MOVWF  FF8
0D010:  CALL   3BB2
....................          SendDataDisplay(); 
0D014:  CALL   3BE4
....................          Desfogue_on; 
0D018:  BSF    F8C.4
0D01A:  BCF    F95.4
....................          SSR_off; 
0D01C:  BSF    F8B.2
0D01E:  BCF    F94.2
....................          Agua_off; 
0D020:  BCF    F8C.5
0D022:  BCF    F95.5
....................          #ifdef Enfriador 
....................          Enfr_on; 
0D024:  BSF    F8C.6
0D026:  BCF    F95.6
....................          #else 
....................          Bomba_off; 
....................          #endif 
....................          Aire=OFF; 
0D028:  BCF    xA4.2
....................          Controlando=0; 
0D02A:  MOVLB  3
0D02C:  CLRF   x55
....................          IniciaLlenado=OFF; 
0D02E:  MOVLB  0
0D030:  BCF    x9F.7
....................          IniciaCiclo=OFF; 
0D032:  BCF    xA0.1
....................          Esterilizando=OFF; 
0D034:  BCF    xA0.2
....................          if(codigoAnt!=codigoAlarma){ 
0D036:  MOVLB  2
0D038:  MOVF   xE3,W
0D03A:  SUBWF  xE4,W
0D03C:  BZ    D04C
....................             codigoAnt=codigoAlarma; 
0D03E:  MOVFF  2E3,2E4
....................             GuardaDatoCiclo(); 
0D042:  MOVLB  0
0D044:  CALL   6DE6
....................             incrementaCiclos(); 
0D048:  CALL   719C
....................          } 
....................          if(!flagImprimir){ 
0D04C:  MOVLB  3
0D04E:  BTFSC  x52.5
0D050:  BRA    D070
....................             Imprime=24; 
0D052:  MOVLW  18
0D054:  MOVWF  xB7
....................             Envio_Esclavos(); 
0D056:  MOVLB  0
0D058:  CALL   495A
....................             delay_ms(100); 
0D05C:  MOVLW  64
0D05E:  MOVLB  4
0D060:  MOVWF  x62
0D062:  MOVLB  0
0D064:  CALL   1A6C
....................             Imprime=10; 
0D068:  MOVLW  0A
0D06A:  MOVLB  3
0D06C:  MOVWF  xB7
....................             flagImprimir=1; 
0D06E:  BSF    x52.5
....................          } 
....................       }else if(AlarmaPresion){ // Alarma de Error de SobrePresion: Error por exceso de Presion. 
0D070:  BRA    D186
0D072:  MOVLB  0
0D074:  BTFSS  xA3.6
0D076:  BRA    D102
....................          codigoAlarma=6; 
0D078:  MOVLW  06
0D07A:  MOVLB  2
0D07C:  MOVWF  xE3
....................          printf("Funcionamiento.t4f.txt=\" SobrePresin\""); 
0D07E:  MOVLW  40
0D080:  MOVWF  FF6
0D082:  MOVLW  14
0D084:  MOVWF  FF7
0D086:  MOVLW  00
0D088:  MOVWF  FF8
0D08A:  MOVLB  0
0D08C:  CALL   3BB2
....................          SendDataDisplay(); 
0D090:  CALL   3BE4
....................          printf("Funcionamiento.t5f.txt=\" Cancelado\""); 
0D094:  MOVLW  68
0D096:  MOVWF  FF6
0D098:  MOVLW  14
0D09A:  MOVWF  FF7
0D09C:  MOVLW  00
0D09E:  MOVWF  FF8
0D0A0:  CALL   3BB2
....................          SendDataDisplay(); 
0D0A4:  CALL   3BE4
....................          Desfogue_on; 
0D0A8:  BSF    F8C.4
0D0AA:  BCF    F95.4
....................          SSR_off; 
0D0AC:  BSF    F8B.2
0D0AE:  BCF    F94.2
....................          IniciaLlenado=OFF; 
0D0B0:  BCF    x9F.7
....................          IniciaCiclo=OFF; 
0D0B2:  BCF    xA0.1
....................          Esterilizando=OFF; 
0D0B4:  BCF    xA0.2
....................          Agua_off; 
0D0B6:  BCF    F8C.5
0D0B8:  BCF    F95.5
....................          #ifdef Enfriador 
....................          Enfr_on; 
0D0BA:  BSF    F8C.6
0D0BC:  BCF    F95.6
....................          #else 
....................          Bomba_off; 
....................          #endif 
....................          Aire=OFF; 
0D0BE:  BCF    xA4.2
....................          Controlando=0; 
0D0C0:  MOVLB  3
0D0C2:  CLRF   x55
....................          if(codigoAnt!=codigoAlarma){ 
0D0C4:  MOVLB  2
0D0C6:  MOVF   xE3,W
0D0C8:  SUBWF  xE4,W
0D0CA:  BZ    D0DA
....................             codigoAnt=codigoAlarma; 
0D0CC:  MOVFF  2E3,2E4
....................             GuardaDatoCiclo(); 
0D0D0:  MOVLB  0
0D0D2:  CALL   6DE6
....................             incrementaCiclos(); 
0D0D6:  CALL   719C
....................          } 
....................          if(!flagImprimir){ 
0D0DA:  MOVLB  3
0D0DC:  BTFSC  x52.5
0D0DE:  BRA    D0FE
....................             Imprime=25; 
0D0E0:  MOVLW  19
0D0E2:  MOVWF  xB7
....................             Envio_Esclavos(); 
0D0E4:  MOVLB  0
0D0E6:  CALL   495A
....................             delay_ms(100); 
0D0EA:  MOVLW  64
0D0EC:  MOVLB  4
0D0EE:  MOVWF  x62
0D0F0:  MOVLB  0
0D0F2:  CALL   1A6C
....................             Imprime=10; 
0D0F6:  MOVLW  0A
0D0F8:  MOVLB  3
0D0FA:  MOVWF  xB7
....................             flagImprimir=1; 
0D0FC:  BSF    x52.5
....................          } 
....................       }else if(AlarmaCiclo){ // Alarma de Error de SobrePresion: Error por exceso de Presion. 
0D0FE:  BRA    D186
0D100:  MOVLB  0
0D102:  BTFSS  x9F.6
0D104:  BRA    D186
....................          codigoAlarma=7; 
0D106:  MOVLW  07
0D108:  MOVLB  2
0D10A:  MOVWF  xE3
....................          printf("Funcionamiento.t4f.txt=\" Error Ciclo\""); 
0D10C:  MOVLW  8C
0D10E:  MOVWF  FF6
0D110:  MOVLW  14
0D112:  MOVWF  FF7
0D114:  MOVLW  00
0D116:  MOVWF  FF8
0D118:  MOVLB  0
0D11A:  CALL   3BB2
....................          SendDataDisplay(); 
0D11E:  CALL   3BE4
....................          printf("Funcionamiento.t5f.txt=\" Cancelado\""); 
0D122:  MOVLW  B2
0D124:  MOVWF  FF6
0D126:  MOVLW  14
0D128:  MOVWF  FF7
0D12A:  MOVLW  00
0D12C:  MOVWF  FF8
0D12E:  CALL   3BB2
....................          SendDataDisplay(); 
0D132:  CALL   3BE4
....................          Desfogue_on; 
0D136:  BSF    F8C.4
0D138:  BCF    F95.4
....................          SSR_off; 
0D13A:  BSF    F8B.2
0D13C:  BCF    F94.2
....................          #ifdef Enfriador 
....................          Enfr_off; 
0D13E:  BCF    F8C.6
0D140:  BCF    F95.6
....................          #else 
....................          Bomba_off; 
....................          #endif 
....................          IniciaLlenado=OFF; 
0D142:  BCF    x9F.7
....................          IniciaCiclo=OFF; 
0D144:  BCF    xA0.1
....................          Esterilizando=OFF; 
0D146:  BCF    xA0.2
....................          Controlando=0; 
0D148:  MOVLB  3
0D14A:  CLRF   x55
....................          if(codigoAnt!=codigoAlarma){ 
0D14C:  MOVLB  2
0D14E:  MOVF   xE3,W
0D150:  SUBWF  xE4,W
0D152:  BZ    D162
....................             codigoAnt=codigoAlarma; 
0D154:  MOVFF  2E3,2E4
....................             GuardaDatoCiclo(); 
0D158:  MOVLB  0
0D15A:  CALL   6DE6
....................             incrementaCiclos(); 
0D15E:  CALL   719C
....................          } 
....................          if(!flagImprimir){ 
0D162:  MOVLB  3
0D164:  BTFSC  x52.5
0D166:  BRA    D186
....................             Imprime=26; 
0D168:  MOVLW  1A
0D16A:  MOVWF  xB7
....................             Envio_Esclavos(); 
0D16C:  MOVLB  0
0D16E:  CALL   495A
....................             delay_ms(100); 
0D172:  MOVLW  64
0D174:  MOVLB  4
0D176:  MOVWF  x62
0D178:  MOVLB  0
0D17A:  CALL   1A6C
....................             Imprime=10; 
0D17E:  MOVLW  0A
0D180:  MOVLB  3
0D182:  MOVWF  xB7
....................             flagImprimir=1; 
0D184:  BSF    x52.5
0D186:  MOVLB  2
....................          } 
....................       } 
....................    } 
....................    else{   
0D188:  BRA    D824
0D18A:  MOVLB  0
....................       Buzzer_off; 
0D18C:  BCF    F8C.0
0D18E:  BCF    F95.0
....................       IniciaCiclo=ON; 
0D190:  BSF    xA0.1
....................       if(flagImprime){ 
0D192:  MOVLB  3
0D194:  BTFSS  x52.4
0D196:  BRA    D1B6
....................          Imprime=5; 
0D198:  MOVLW  05
0D19A:  MOVWF  xB7
....................          Envio_Esclavos(); 
0D19C:  MOVLB  0
0D19E:  CALL   495A
....................          delay_ms(100); 
0D1A2:  MOVLW  64
0D1A4:  MOVLB  4
0D1A6:  MOVWF  x62
0D1A8:  MOVLB  0
0D1AA:  CALL   1A6C
....................          Imprime=10; 
0D1AE:  MOVLW  0A
0D1B0:  MOVLB  3
0D1B2:  MOVWF  xB7
....................          flagImprime=0; 
0D1B4:  BCF    x52.4
....................       } 
....................          if(!CalderinLleno){ 
0D1B6:  MOVLB  0
0D1B8:  BTFSC  xA0.0
0D1BA:  BRA    D240
....................             //Agua_on; 
....................             #ifdef Reservorio 
....................                if(!HIG){ 
....................                   printf("Funcionamiento.t4f.txt=\" Reservorio Bajo \""); 
....................                   SendDataDisplay(); 
....................                   printf("Funcionamiento.t5f.txt=\" Llenando Camara\""); 
....................                   SendDataDisplay(); 
....................                   #ifdef ULKA               
....................                      apagaBombaAgua(); 
....................                   #else 
....................                      Bomba_off; 
....................                      Agua_off; 
....................                   #endif 
....................                }else{ 
....................                   printf("Funcionamiento.t4f.txt=\" Ninguna\""); 
....................                   SendDataDisplay(); 
....................                   printf("Funcionamiento.t5f.txt=\" Llenando Camara\""); 
....................                   SendDataDisplay(); 
....................                   #ifdef ULKA               
....................                      enciendeBombaAgua(); 
....................                   #else 
....................                      Bomba_on; 
....................                      Agua_on; 
....................                   #endif 
....................                }  
....................             #else 
....................                printf("Funcionamiento.t4f.txt=\" Ninguna\""); 
0D1BC:  MOVLW  D6
0D1BE:  MOVWF  FF6
0D1C0:  MOVLW  14
0D1C2:  MOVWF  FF7
0D1C4:  MOVLW  00
0D1C6:  MOVWF  FF8
0D1C8:  CALL   3BB2
....................                SendDataDisplay(); 
0D1CC:  CALL   3BE4
....................                printf("Funcionamiento.t5f.txt=\" Nivel Bajo\""); 
0D1D0:  MOVLW  F8
0D1D2:  MOVWF  FF6
0D1D4:  MOVLW  14
0D1D6:  MOVWF  FF7
0D1D8:  MOVLW  00
0D1DA:  MOVWF  FF8
0D1DC:  CALL   3BB2
....................                SendDataDisplay(); 
0D1E0:  CALL   3BE4
....................                Agua_on; 
0D1E4:  BSF    F8C.5
0D1E6:  BCF    F95.5
....................                #ifdef Enfriador 
....................                Enfr_off; 
0D1E8:  BCF    F8C.6
0D1EA:  BCF    F95.6
....................                #else 
....................                Bomba_off; 
....................                #endif 
....................                if(tright>800){ 
0D1EC:  MOVLB  3
0D1EE:  MOVF   xA7,W
0D1F0:  SUBLW  02
0D1F2:  BC    D20C
0D1F4:  XORLW  FF
0D1F6:  BNZ   D1FE
0D1F8:  MOVF   xA6,W
0D1FA:  SUBLW  20
0D1FC:  BC    D20C
....................                   CalderinLleno=ON; 
0D1FE:  MOVLB  0
0D200:  BSF    xA0.0
....................                   tiempoAgua=700; 
0D202:  MOVLW  02
0D204:  MOVLB  3
0D206:  MOVWF  x99
0D208:  MOVLW  BC
0D20A:  MOVWF  x98
....................                } 
....................             #endif 
....................             SSR_off; 
0D20C:  BSF    F8B.2
0D20E:  BCF    F94.2
....................             Controlando=0; 
0D210:  CLRF   x55
....................             Control=0; 
0D212:  CLRF   x53
....................             IniciaLlenado=ON; 
0D214:  MOVLB  0
0D216:  BSF    x9F.7
....................             Controlando=0; 
0D218:  MOVLB  3
0D21A:  CLRF   x55
....................             Desfogue_off; 
0D21C:  BCF    F8C.4
0D21E:  BCF    F95.4
....................             Aire=ON; 
0D220:  MOVLB  0
0D222:  BSF    xA4.2
....................             codigoAlarma=10; 
0D224:  MOVLW  0A
0D226:  MOVLB  2
0D228:  MOVWF  xE3
....................             if(codigoAnt!=codigoAlarma){ 
0D22A:  MOVF   xE3,W
0D22C:  SUBWF  xE4,W
0D22E:  BZ    D23C
....................                codigoAnt=codigoAlarma; 
0D230:  MOVFF  2E3,2E4
....................                GuardaDatoCiclo(); 
0D234:  MOVLB  0
0D236:  CALL   6DE6
0D23A:  MOVLB  2
....................             } 
....................          } 
....................          else{ 
0D23C:  BRA    D824
0D23E:  MOVLB  0
....................             Agua_off; 
0D240:  BCF    F8C.5
0D242:  BCF    F95.5
....................             if(Temperatura>=((float)Setpoint)){ 
0D244:  MOVLB  4
0D246:  CLRF   x5F
0D248:  MOVFF  363,45E
0D24C:  MOVLB  0
0D24E:  CALL   1A94
0D252:  MOVFF  03,450
0D256:  MOVFF  02,44F
0D25A:  MOVFF  01,44E
0D25E:  MOVFF  00,44D
0D262:  MOVFF  328,454
0D266:  MOVFF  327,453
0D26A:  MOVFF  326,452
0D26E:  MOVFF  325,451
0D272:  CALL   3032
0D276:  BC    D27A
0D278:  BNZ   D27C
....................                Esterilizando=ON; 
0D27A:  BSF    xA0.2
....................             } 
....................              
....................             if(Temperatura<((float)Setpoint-0.9) && !Desfogando){ 
0D27C:  MOVLB  4
0D27E:  CLRF   x5F
0D280:  MOVFF  363,45E
0D284:  MOVLB  0
0D286:  CALL   1A94
0D28A:  MOVFF  00,449
0D28E:  MOVFF  01,44A
0D292:  MOVFF  02,44B
0D296:  MOVFF  03,44C
0D29A:  BSF    FD8.1
0D29C:  MOVFF  03,461
0D2A0:  MOVFF  02,460
0D2A4:  MOVFF  01,45F
0D2A8:  MOVFF  00,45E
0D2AC:  MOVLW  66
0D2AE:  MOVLB  4
0D2B0:  MOVWF  x65
0D2B2:  MOVWF  x64
0D2B4:  MOVWF  x63
0D2B6:  MOVLW  7E
0D2B8:  MOVWF  x62
0D2BA:  MOVLB  0
0D2BC:  CALL   1C28
0D2C0:  MOVFF  328,450
0D2C4:  MOVFF  327,44F
0D2C8:  MOVFF  326,44E
0D2CC:  MOVFF  325,44D
0D2D0:  MOVFF  03,454
0D2D4:  MOVFF  02,453
0D2D8:  MOVFF  01,452
0D2DC:  MOVFF  00,451
0D2E0:  CALL   3032
0D2E4:  BNC   D2EC
0D2E6:  BTFSC  xA0.5
0D2E8:  BRA    D2EC
....................                Esterilizando=OFF; 
0D2EA:  BCF    xA0.2
....................             } 
....................              
....................             if(!Esterilizando){ 
0D2EC:  BTFSC  xA0.2
0D2EE:  BRA    D386
....................                codigoAlarma=12; 
0D2F0:  MOVLW  0C
0D2F2:  MOVLB  2
0D2F4:  MOVWF  xE3
....................                if(codigoAnt!=codigoAlarma){ 
0D2F6:  MOVF   xE3,W
0D2F8:  SUBWF  xE4,W
0D2FA:  BZ    D308
....................                   codigoAnt=codigoAlarma; 
0D2FC:  MOVFF  2E3,2E4
....................                   GuardaDatoCiclo();                   
0D300:  MOVLB  0
0D302:  CALL   6DE6
0D306:  MOVLB  2
....................                } 
....................                printf("Funcionamiento.t4f.txt=\" Ninguna\""); 
0D308:  MOVLW  1E
0D30A:  MOVWF  FF6
0D30C:  MOVLW  15
0D30E:  MOVWF  FF7
0D310:  MOVLW  00
0D312:  MOVWF  FF8
0D314:  MOVLB  0
0D316:  CALL   3BB2
....................                SendDataDisplay(); 
0D31A:  CALL   3BE4
....................                printf("Funcionamiento.t5f.txt=\" Calentando\""); 
0D31E:  MOVLW  40
0D320:  MOVWF  FF6
0D322:  MOVLW  15
0D324:  MOVWF  FF7
0D326:  MOVLW  00
0D328:  MOVWF  FF8
0D32A:  CALL   3BB2
....................                SendDataDisplay(); 
0D32E:  CALL   3BE4
....................                Control=1; 
0D332:  MOVLW  01
0D334:  MOVLB  3
0D336:  MOVWF  x53
....................                #ifndef Enfriador 
....................                Bomba_off; 
....................                #endif 
....................                if(Temperatura<=TTrampa){ 
0D338:  MOVLB  4
0D33A:  CLRF   x5F
0D33C:  MOVFF  2DC,45E
0D340:  MOVLB  0
0D342:  CALL   1A94
0D346:  MOVFF  328,450
0D34A:  MOVFF  327,44F
0D34E:  MOVFF  326,44E
0D352:  MOVFF  325,44D
0D356:  MOVFF  03,454
0D35A:  MOVFF  02,453
0D35E:  MOVFF  01,452
0D362:  MOVFF  00,451
0D366:  CALL   3032
0D36A:  BC    D36E
0D36C:  BNZ   D37A
....................                   Aire=ON; 
0D36E:  BSF    xA4.2
....................                   Controla(); 
0D370:  CALL   7296
....................                   #ifdef Reservorio 
....................                      Desfogue_off; 
....................                   #else 
....................                      Desfogue_on; 
0D374:  BSF    F8C.4
0D376:  BCF    F95.4
....................                   #endif 
....................                }else{ 
0D378:  BRA    D384
....................                   Aire=OFF; 
0D37A:  BCF    xA4.2
....................                   //Desfogue_off; 
....................                   purgaAire(); 
0D37C:  GOTO   782C
....................                   #ifdef PT100Fija 
....................                      Controla(); 
0D380:  CALL   7296
....................                   #else 
....................                      ControlaPresion(); 
....................                   #endif 
....................                } 
....................             }else{ 
0D384:  BRA    D820
....................                TiempoCiclo=0; 
0D386:  CLRF   xA6
0D388:  CLRF   xA5
....................                if((Testerilizacion[0]==0)&&(Testerilizacion[1]==0)&& 
....................                (Testerilizacion[2]==0)&&(Testerilizacion[3]==0)){  
0D38A:  MOVF   xB1,F
0D38C:  BTFSS  FD8.2
0D38E:  BRA    D7CC
0D390:  MOVF   xB2,F
0D392:  BTFSS  FD8.2
0D394:  BRA    D7CC
0D396:  MOVF   xB3,F
0D398:  BTFSS  FD8.2
0D39A:  BRA    D7CC
0D39C:  MOVF   xB4,F
0D39E:  BTFSS  FD8.2
0D3A0:  BRA    D7CC
....................                   if(desfoguelento){ 
0D3A2:  BTFSS  xA4.7
0D3A4:  BRA    D57C
....................                      Controlando=0; 
0D3A6:  MOVLB  3
0D3A8:  CLRF   x55
....................                      if(PresionCamara<=Atmosferica+25){ 
0D3AA:  MOVLW  19
0D3AC:  ADDWF  xB8,W
0D3AE:  MOVF   x76,F
0D3B0:  BTFSS  FD8.2
0D3B2:  BRA    D524
0D3B4:  SUBWF  x75,W
0D3B6:  BZ    D3BC
0D3B8:  BTFSC  FD8.0
0D3BA:  BRA    D524
....................                         Secando=OFF; 
0D3BC:  MOVLB  0
0D3BE:  BCF    xA0.3
....................                         DesfogueSuave=OFF; 
0D3C0:  BCF    xA0.6
....................                         #ifdef Enfriador 
....................                         Enfr_on; 
0D3C2:  BSF    F8C.6
0D3C4:  BCF    F95.6
....................                         #else 
....................                         Bomba_off; 
....................                         #endif 
....................                         Aire=OFF; 
0D3C6:  BCF    xA4.2
....................                         if(PresionCamara<Atmosferica+2){ 
0D3C8:  MOVLW  02
0D3CA:  MOVLB  3
0D3CC:  ADDWF  xB8,W
0D3CE:  MOVF   x76,F
0D3D0:  BTFSS  FD8.2
0D3D2:  BRA    D50E
0D3D4:  SUBWF  x75,W
0D3D6:  BTFSC  FD8.0
0D3D8:  BRA    D50E
....................                            if(!DOOR){ 
0D3DA:  BSF    F93.6
0D3DC:  BTFSS  F81.6
0D3DE:  BRA    D3E6
....................                               Desfogue_off; 
0D3E0:  BCF    F8C.4
0D3E2:  BCF    F95.4
....................                            }else{ 
0D3E4:  BRA    D3EA
....................                               Desfogue_on; 
0D3E6:  BSF    F8C.4
0D3E8:  BCF    F95.4
....................                            } 
....................                            if(Temperatura<=90){ 
0D3EA:  MOVFF  328,450
0D3EE:  MOVFF  327,44F
0D3F2:  MOVFF  326,44E
0D3F6:  MOVFF  325,44D
0D3FA:  MOVLB  4
0D3FC:  CLRF   x54
0D3FE:  CLRF   x53
0D400:  MOVLW  34
0D402:  MOVWF  x52
0D404:  MOVLW  85
0D406:  MOVWF  x51
0D408:  MOVLB  0
0D40A:  CALL   3032
0D40E:  BC    D412
0D410:  BNZ   D448
....................                               ActivaAlarma(2); 
0D412:  MOVLW  02
0D414:  MOVLB  4
0D416:  MOVWF  x49
0D418:  MOVLB  0
0D41A:  CALL   4A24
....................                               printf("Funcionamiento.t4f.txt=\" Ninguna\""); 
0D41E:  MOVLW  66
0D420:  MOVWF  FF6
0D422:  MOVLW  15
0D424:  MOVWF  FF7
0D426:  MOVLW  00
0D428:  MOVWF  FF8
0D42A:  CALL   3BB2
....................                               SendDataDisplay(); 
0D42E:  CALL   3BE4
....................                               printf("Funcionamiento.t5f.txt=\" Finalizado\""); 
0D432:  MOVLW  88
0D434:  MOVWF  FF6
0D436:  MOVLW  15
0D438:  MOVWF  FF7
0D43A:  MOVLW  00
0D43C:  MOVWF  FF8
0D43E:  CALL   3BB2
....................                               SendDataDisplay(); 
0D442:  CALL   3BE4
....................                               Finalizo=ON; 
0D446:  BSF    xA3.5
....................                            } 
....................                            codigoAlarma=14; 
0D448:  MOVLW  0E
0D44A:  MOVLB  2
0D44C:  MOVWF  xE3
....................                            if(codigoAnt!=codigoAlarma){ 
0D44E:  MOVF   xE3,W
0D450:  SUBWF  xE4,W
0D452:  BZ    D45E
....................                               codigoAnt=codigoAlarma; 
0D454:  MOVFF  2E3,2E4
....................                               GuardaDatoCiclo();                   
0D458:  MOVLB  0
0D45A:  CALL   6DE6
....................                            } 
....................                            if(!Ciclo){ 
0D45E:  MOVLB  0
0D460:  BTFSC  xA1.5
0D462:  BRA    D50A
....................                               Ciclo=ON; 
0D464:  BSF    xA1.5
....................                               Ciclos++; 
0D466:  MOVLB  3
0D468:  INCF   x79,F
0D46A:  BTFSC  FD8.2
0D46C:  INCF   x7A,F
....................                               CiclosL=make8(Ciclos,0); 
0D46E:  MOVFF  379,360
....................                               CiclosH=make8(Ciclos,1); 
0D472:  MOVFF  37A,361
....................                               write_eeprom(37,CiclosL); 
0D476:  CLRF   FAA
0D478:  MOVLW  25
0D47A:  MOVWF  FA9
0D47C:  MOVFF  360,FA8
0D480:  BCF    FA6.6
0D482:  BCF    FA6.7
0D484:  BSF    FA6.2
0D486:  MOVF   FF2,W
0D488:  MOVWF  00
0D48A:  BCF    FF2.6
0D48C:  BCF    FF2.7
0D48E:  MOVLB  F
0D490:  MOVLW  55
0D492:  MOVWF  FA7
0D494:  MOVLW  AA
0D496:  MOVWF  FA7
0D498:  BSF    FA6.1
0D49A:  BTFSC  FA6.1
0D49C:  BRA    D49A
0D49E:  BCF    FA6.2
0D4A0:  MOVF   00,W
0D4A2:  IORWF  FF2,F
....................                               delay_ms(20); 
0D4A4:  MOVLW  14
0D4A6:  MOVLB  4
0D4A8:  MOVWF  x62
0D4AA:  MOVLB  0
0D4AC:  CALL   1A6C
....................                               write_eeprom(38,CiclosH); 
0D4B0:  CLRF   FAA
0D4B2:  MOVLW  26
0D4B4:  MOVWF  FA9
0D4B6:  MOVFF  361,FA8
0D4BA:  BCF    FA6.6
0D4BC:  BCF    FA6.7
0D4BE:  BSF    FA6.2
0D4C0:  MOVF   FF2,W
0D4C2:  MOVWF  00
0D4C4:  BCF    FF2.6
0D4C6:  BCF    FF2.7
0D4C8:  MOVLB  F
0D4CA:  MOVLW  55
0D4CC:  MOVWF  FA7
0D4CE:  MOVLW  AA
0D4D0:  MOVWF  FA7
0D4D2:  BSF    FA6.1
0D4D4:  BTFSC  FA6.1
0D4D6:  BRA    D4D4
0D4D8:  BCF    FA6.2
0D4DA:  MOVF   00,W
0D4DC:  IORWF  FF2,F
....................                               delay_ms(20);                               
0D4DE:  MOVLW  14
0D4E0:  MOVLB  4
0D4E2:  MOVWF  x62
0D4E4:  MOVLB  0
0D4E6:  CALL   1A6C
....................                               Imprime=28; 
0D4EA:  MOVLW  1C
0D4EC:  MOVLB  3
0D4EE:  MOVWF  xB7
....................                               Envio_Esclavos(); 
0D4F0:  MOVLB  0
0D4F2:  CALL   495A
....................                               delay_ms(100); 
0D4F6:  MOVLW  64
0D4F8:  MOVLB  4
0D4FA:  MOVWF  x62
0D4FC:  MOVLB  0
0D4FE:  CALL   1A6C
....................                               Imprime=10;                               
0D502:  MOVLW  0A
0D504:  MOVLB  3
0D506:  MOVWF  xB7
0D508:  MOVLB  0
....................                            } 
....................                         }else if(PresionCamara>=Atmosferica+7){ 
0D50A:  BRA    D520
0D50C:  MOVLB  3
0D50E:  MOVLW  07
0D510:  ADDWF  xB8,W
0D512:  MOVF   x76,F
0D514:  BNZ   D51A
0D516:  SUBWF  x75,W
0D518:  BNC   D51E
....................                            Desfogue_on; 
0D51A:  BSF    F8C.4
0D51C:  BCF    F95.4
0D51E:  MOVLB  0
....................                         } 
....................                      }else{ 
0D520:  BRA    D57A
0D522:  MOVLB  3
....................                         codigoAlarma=13; 
0D524:  MOVLW  0D
0D526:  MOVLB  2
0D528:  MOVWF  xE3
....................                         if(codigoAnt!=codigoAlarma){ 
0D52A:  MOVF   xE3,W
0D52C:  SUBWF  xE4,W
0D52E:  BZ    D53A
....................                            codigoAnt=codigoAlarma; 
0D530:  MOVFF  2E3,2E4
....................                            GuardaDatoCiclo();                   
0D534:  MOVLB  0
0D536:  CALL   6DE6
....................                         } 
....................                         Desfogando=ON; 
0D53A:  MOVLB  0
0D53C:  BSF    xA0.5
....................                         DesfogueSuave=ON; 
0D53E:  BSF    xA0.6
....................                         printf("Funcionamiento.t4f.txt=\" Ninguna\""); 
0D540:  MOVLW  AE
0D542:  MOVWF  FF6
0D544:  MOVLW  15
0D546:  MOVWF  FF7
0D548:  MOVLW  00
0D54A:  MOVWF  FF8
0D54C:  CALL   3BB2
....................                         SendDataDisplay(); 
0D550:  CALL   3BE4
....................                         printf("Funcionamiento.t5f.txt=\" Despresurizando\""); 
0D554:  MOVLW  D0
0D556:  MOVWF  FF6
0D558:  MOVLW  15
0D55A:  MOVWF  FF7
0D55C:  MOVLW  00
0D55E:  MOVWF  FF8
0D560:  CALL   3BB2
....................                         SendDataDisplay(); 
0D564:  CALL   3BE4
....................                         Control=0; 
0D568:  MOVLB  3
0D56A:  CLRF   x53
....................                         Controlando=0; 
0D56C:  CLRF   x55
....................                         SSR_off; 
0D56E:  BSF    F8B.2
0D570:  BCF    F94.2
....................                         #ifdef Enfriador 
....................                         Enfr_on; 
0D572:  BSF    F8C.6
0D574:  BCF    F95.6
....................                         #else 
....................                         Bomba_off; 
....................                         #endif 
....................                         Aire=OFF; 
0D576:  MOVLB  0
0D578:  BCF    xA4.2
....................                      } 
....................                   }else{ 
0D57A:  BRA    D7C6
....................                      //SSR_off; 
....................                      Controlando=0; 
0D57C:  MOVLB  3
0D57E:  CLRF   x55
....................                      Control=0; 
0D580:  CLRF   x53
....................                      if(PresionCamara<=Atmosferica+5){ 
0D582:  MOVLW  05
0D584:  ADDWF  xB8,W
0D586:  MOVF   x76,F
0D588:  BTFSS  FD8.2
0D58A:  BRA    D762
0D58C:  SUBWF  x75,W
0D58E:  BZ    D594
0D590:  BTFSC  FD8.0
0D592:  BRA    D762
....................                         if((Tsecado[0]==0)&&(Tsecado[1]==0)&&(Tsecado[2]==0)&&(Tsecado[3]==0)){ 
0D594:  MOVLB  0
0D596:  MOVF   xBB,F
0D598:  BTFSS  FD8.2
0D59A:  BRA    D700
0D59C:  MOVF   xBC,F
0D59E:  BTFSS  FD8.2
0D5A0:  BRA    D700
0D5A2:  MOVF   xBD,F
0D5A4:  BTFSS  FD8.2
0D5A6:  BRA    D700
0D5A8:  MOVF   xBE,F
0D5AA:  BTFSS  FD8.2
0D5AC:  BRA    D700
....................                            SSR_off; 
0D5AE:  BSF    F8B.2
0D5B0:  BCF    F94.2
....................                            Secando=OFF; 
0D5B2:  BCF    xA0.3
....................                            if(!DOOR){ 
0D5B4:  BSF    F93.6
0D5B6:  BTFSS  F81.6
0D5B8:  BRA    D5C0
....................                               Aire=OFF; 
0D5BA:  BCF    xA4.2
....................                               Desfogue_off; 
0D5BC:  BCF    F8C.4
0D5BE:  BCF    F95.4
....................                            } 
....................                            if(Temperatura<=90){ 
0D5C0:  MOVFF  328,450
0D5C4:  MOVFF  327,44F
0D5C8:  MOVFF  326,44E
0D5CC:  MOVFF  325,44D
0D5D0:  MOVLB  4
0D5D2:  CLRF   x54
0D5D4:  CLRF   x53
0D5D6:  MOVLW  34
0D5D8:  MOVWF  x52
0D5DA:  MOVLW  85
0D5DC:  MOVWF  x51
0D5DE:  MOVLB  0
0D5E0:  CALL   3032
0D5E4:  BC    D5E8
0D5E6:  BNZ   D626
....................                               ActivaAlarma(2); 
0D5E8:  MOVLW  02
0D5EA:  MOVLB  4
0D5EC:  MOVWF  x49
0D5EE:  MOVLB  0
0D5F0:  CALL   4A24
....................                               printf("Funcionamiento.t4f.txt=\" Ninguna\""); 
0D5F4:  MOVLW  FA
0D5F6:  MOVWF  FF6
0D5F8:  MOVLW  15
0D5FA:  MOVWF  FF7
0D5FC:  MOVLW  00
0D5FE:  MOVWF  FF8
0D600:  CALL   3BB2
....................                               SendDataDisplay(); 
0D604:  CALL   3BE4
....................                               printf("Funcionamiento.t5f.txt=\" Finalizado\""); 
0D608:  MOVLW  1C
0D60A:  MOVWF  FF6
0D60C:  MOVLW  16
0D60E:  MOVWF  FF7
0D610:  MOVLW  00
0D612:  MOVWF  FF8
0D614:  CALL   3BB2
....................                               SendDataDisplay(); 
0D618:  CALL   3BE4
....................                               Finalizo=ON; 
0D61C:  BSF    xA3.5
....................                               Aire=OFF; 
0D61E:  BCF    xA4.2
....................                               #ifdef Enfriador 
....................                               Enfr_off; 
0D620:  BCF    F8C.6
0D622:  BCF    F95.6
....................                               #else 
....................                               Bomba_off; 
....................                               #endif 
....................                            }else{ 
0D624:  BRA    D636
....................                               if(DOOR){ 
0D626:  BSF    F93.6
0D628:  BTFSC  F81.6
0D62A:  BRA    D632
....................                                  Aire=ON; 
0D62C:  BSF    xA4.2
....................                                  Desfogue_on; 
0D62E:  BSF    F8C.4
0D630:  BCF    F95.4
....................                               } 
....................                               #ifdef Enfriador 
....................                               Enfr_on; 
0D632:  BSF    F8C.6
0D634:  BCF    F95.6
....................                               #else 
....................                               Bomba_off; 
....................                               #endif 
....................                            } 
....................                            codigoAlarma=14; 
0D636:  MOVLW  0E
0D638:  MOVLB  2
0D63A:  MOVWF  xE3
....................                            if(codigoAnt!=codigoAlarma){ 
0D63C:  MOVF   xE3,W
0D63E:  SUBWF  xE4,W
0D640:  BZ    D64C
....................                               codigoAnt=codigoAlarma; 
0D642:  MOVFF  2E3,2E4
....................                               GuardaDatoCiclo();                   
0D646:  MOVLB  0
0D648:  CALL   6DE6
....................                            } 
....................                            if(!Ciclo){ 
0D64C:  MOVLB  0
0D64E:  BTFSC  xA1.5
0D650:  BRA    D6FC
....................                               Ciclo=ON; 
0D652:  BSF    xA1.5
....................                               Ciclos++; 
0D654:  MOVLB  3
0D656:  INCF   x79,F
0D658:  BTFSC  FD8.2
0D65A:  INCF   x7A,F
....................                               CiclosL=make8(Ciclos,0); 
0D65C:  MOVFF  379,360
....................                               CiclosH=make8(Ciclos,1); 
0D660:  MOVFF  37A,361
....................                               write_eeprom(37,CiclosL); 
0D664:  CLRF   FAA
0D666:  MOVLW  25
0D668:  MOVWF  FA9
0D66A:  MOVFF  360,FA8
0D66E:  BCF    FA6.6
0D670:  BCF    FA6.7
0D672:  BSF    FA6.2
0D674:  MOVF   FF2,W
0D676:  MOVWF  00
0D678:  BCF    FF2.6
0D67A:  BCF    FF2.7
0D67C:  MOVLB  F
0D67E:  MOVLW  55
0D680:  MOVWF  FA7
0D682:  MOVLW  AA
0D684:  MOVWF  FA7
0D686:  BSF    FA6.1
0D688:  BTFSC  FA6.1
0D68A:  BRA    D688
0D68C:  BCF    FA6.2
0D68E:  MOVF   00,W
0D690:  IORWF  FF2,F
....................                               delay_ms(20); 
0D692:  MOVLW  14
0D694:  MOVLB  4
0D696:  MOVWF  x62
0D698:  MOVLB  0
0D69A:  CALL   1A6C
....................                               write_eeprom(38,CiclosH); 
0D69E:  CLRF   FAA
0D6A0:  MOVLW  26
0D6A2:  MOVWF  FA9
0D6A4:  MOVFF  361,FA8
0D6A8:  BCF    FA6.6
0D6AA:  BCF    FA6.7
0D6AC:  BSF    FA6.2
0D6AE:  MOVF   FF2,W
0D6B0:  MOVWF  00
0D6B2:  BCF    FF2.6
0D6B4:  BCF    FF2.7
0D6B6:  MOVLB  F
0D6B8:  MOVLW  55
0D6BA:  MOVWF  FA7
0D6BC:  MOVLW  AA
0D6BE:  MOVWF  FA7
0D6C0:  BSF    FA6.1
0D6C2:  BTFSC  FA6.1
0D6C4:  BRA    D6C2
0D6C6:  BCF    FA6.2
0D6C8:  MOVF   00,W
0D6CA:  IORWF  FF2,F
....................                               delay_ms(20); 
0D6CC:  MOVLW  14
0D6CE:  MOVLB  4
0D6D0:  MOVWF  x62
0D6D2:  MOVLB  0
0D6D4:  CALL   1A6C
....................                               if(ActivaImpresion==1){ 
0D6D8:  MOVLB  3
0D6DA:  DECFSZ x56,W
0D6DC:  BRA    D6FA
....................                                  Imprime=28; 
0D6DE:  MOVLW  1C
0D6E0:  MOVWF  xB7
....................                                  Envio_Esclavos(); 
0D6E2:  MOVLB  0
0D6E4:  CALL   495A
....................                                  delay_ms(100); 
0D6E8:  MOVLW  64
0D6EA:  MOVLB  4
0D6EC:  MOVWF  x62
0D6EE:  MOVLB  0
0D6F0:  CALL   1A6C
....................                                  Imprime=10; 
0D6F4:  MOVLW  0A
0D6F6:  MOVLB  3
0D6F8:  MOVWF  xB7
0D6FA:  MOVLB  0
....................                               } 
....................                            } 
....................                            Secando=OFF; 
0D6FC:  BCF    xA0.3
....................                         }else{ 
0D6FE:  BRA    D75E
....................                            codigoAlarma=15; 
0D700:  MOVLW  0F
0D702:  MOVLB  2
0D704:  MOVWF  xE3
....................                            if(codigoAnt!=codigoAlarma){ 
0D706:  MOVF   xE3,W
0D708:  SUBWF  xE4,W
0D70A:  BZ    D716
....................                               codigoAnt=codigoAlarma; 
0D70C:  MOVFF  2E3,2E4
....................                               GuardaDatoCiclo();                   
0D710:  MOVLB  0
0D712:  CALL   6DE6
....................                            } 
....................                            Secando=ON; 
0D716:  MOVLB  0
0D718:  BSF    xA0.3
....................                            printf("Funcionamiento.t4f.txt=\" Ninguna\""); 
0D71A:  MOVLW  42
0D71C:  MOVWF  FF6
0D71E:  MOVLW  16
0D720:  MOVWF  FF7
0D722:  MOVLW  00
0D724:  MOVWF  FF8
0D726:  CALL   3BB2
....................                            SendDataDisplay(); 
0D72A:  CALL   3BE4
....................                            printf("Funcionamiento.t5f.txt=\" Secando\""); 
0D72E:  MOVLW  64
0D730:  MOVWF  FF6
0D732:  MOVLW  16
0D734:  MOVWF  FF7
0D736:  MOVLW  00
0D738:  MOVWF  FF8
0D73A:  CALL   3BB2
....................                            SendDataDisplay();                            
0D73E:  CALL   3BE4
....................                            if(DOOR){ 
0D742:  BSF    F93.6
0D744:  BTFSC  F81.6
0D746:  BRA    D750
....................                               Aire=ON; 
0D748:  BSF    xA4.2
....................                               Desfogue_on; 
0D74A:  BSF    F8C.4
0D74C:  BCF    F95.4
....................                            }else{ 
0D74E:  BRA    D75E
....................                               CalientaChaqueta(); 
0D750:  GOTO   78DC
....................                               #ifdef Enfriador 
....................                               Enfr_off; 
0D754:  BCF    F8C.6
0D756:  BCF    F95.6
....................                               #else 
....................                               Bomba_off; 
....................                               #endif 
....................                               Aire=OFF; 
0D758:  BCF    xA4.2
....................                               Desfogue_off; 
0D75A:  BCF    F8C.4
0D75C:  BCF    F95.4
....................                            } 
....................                         } 
....................                      }else if(PresionCamara>Atmosferica+6){ 
0D75E:  BRA    D7C6
0D760:  MOVLB  3
0D762:  MOVLW  06
0D764:  ADDWF  xB8,W
0D766:  MOVF   x76,F
0D768:  BNZ   D770
0D76A:  SUBWF  x75,W
0D76C:  BZ    D7C8
0D76E:  BNC   D7C8
....................                         codigoAlarma=13; 
0D770:  MOVLW  0D
0D772:  MOVLB  2
0D774:  MOVWF  xE3
....................                         if(codigoAnt!=codigoAlarma){ 
0D776:  MOVF   xE3,W
0D778:  SUBWF  xE4,W
0D77A:  BZ    D786
....................                            codigoAnt=codigoAlarma; 
0D77C:  MOVFF  2E3,2E4
....................                            GuardaDatoCiclo();                   
0D780:  MOVLB  0
0D782:  CALL   6DE6
....................                         } 
....................                         Desfogando=ON; 
0D786:  MOVLB  0
0D788:  BSF    xA0.5
....................                         printf("Funcionamiento.t4f.txt=\" Ninguna\""); 
0D78A:  MOVLW  86
0D78C:  MOVWF  FF6
0D78E:  MOVLW  16
0D790:  MOVWF  FF7
0D792:  MOVLW  00
0D794:  MOVWF  FF8
0D796:  CALL   3BB2
....................                         SendDataDisplay(); 
0D79A:  CALL   3BE4
....................                         printf("Funcionamiento.t5f.txt=\" Despresurizando\""); 
0D79E:  MOVLW  A8
0D7A0:  MOVWF  FF6
0D7A2:  MOVLW  16
0D7A4:  MOVWF  FF7
0D7A6:  MOVLW  00
0D7A8:  MOVWF  FF8
0D7AA:  CALL   3BB2
....................                         SendDataDisplay();                         
0D7AE:  CALL   3BE4
....................                         Controlando=0; 
0D7B2:  MOVLB  3
0D7B4:  CLRF   x55
....................                         SSR_off; 
0D7B6:  BSF    F8B.2
0D7B8:  BCF    F94.2
....................                         #ifdef Enfriador 
....................                         Enfr_on; 
0D7BA:  BSF    F8C.6
0D7BC:  BCF    F95.6
....................                         #else 
....................                         Bomba_off; 
....................                         #endif 
....................                         Aire=OFF; 
0D7BE:  MOVLB  0
0D7C0:  BCF    xA4.2
....................                         Desfogue_on; 
0D7C2:  BSF    F8C.4
0D7C4:  BCF    F95.4
0D7C6:  MOVLB  3
....................                      } 
....................                   } 
....................                    
....................                }else{ 
0D7C8:  BRA    D822
0D7CA:  MOVLB  0
....................                   printf("Funcionamiento.t4f.txt=\" Ninguna\""); 
0D7CC:  MOVLW  D2
0D7CE:  MOVWF  FF6
0D7D0:  MOVLW  16
0D7D2:  MOVWF  FF7
0D7D4:  MOVLW  00
0D7D6:  MOVWF  FF8
0D7D8:  CALL   3BB2
....................                   SendDataDisplay(); 
0D7DC:  CALL   3BE4
....................                   printf("Funcionamiento.t5f.txt=\" Esterilizando\""); 
0D7E0:  MOVLW  F4
0D7E2:  MOVWF  FF6
0D7E4:  MOVLW  16
0D7E6:  MOVWF  FF7
0D7E8:  MOVLW  00
0D7EA:  MOVWF  FF8
0D7EC:  CALL   3BB2
....................                   SendDataDisplay(); 
0D7F0:  CALL   3BE4
....................                   #ifdef Enfriador 
....................                   Enfr_off; 
0D7F4:  BCF    F8C.6
0D7F6:  BCF    F95.6
....................                   #else 
....................                   Bomba_off; 
....................                   #endif 
....................                   Aire=OFF; 
0D7F8:  BCF    xA4.2
....................                   Desfogue_off; 
0D7FA:  BCF    F8C.4
0D7FC:  BCF    F95.4
....................                   Control=1; 
0D7FE:  MOVLW  01
0D800:  MOVLB  3
0D802:  MOVWF  x53
....................                   codigoAlarma=16; 
0D804:  MOVLW  10
0D806:  MOVLB  2
0D808:  MOVWF  xE3
....................                   if(codigoAnt!=codigoAlarma){ 
0D80A:  MOVF   xE3,W
0D80C:  SUBWF  xE4,W
0D80E:  BZ    D81A
....................                      codigoAnt=codigoAlarma; 
0D810:  MOVFF  2E3,2E4
....................                      GuardaDatoCiclo();                   
0D814:  MOVLB  0
0D816:  CALL   6DE6
....................                   } 
....................                   #ifdef PT100Fija 
....................                      Controla(); 
0D81A:  MOVLB  0
0D81C:  CALL   7296
0D820:  MOVLB  3
0D822:  MOVLB  2
....................                   #else 
....................                      ControlaPresion(); 
....................                   #endif 
....................                } 
....................             } 
....................          } 
....................    } 
....................  
....................    if(tguarda>=180){ 
0D824:  MOVLB  0
0D826:  MOVF   xB0,F
0D828:  BNZ   D830
0D82A:  MOVF   xAF,W
0D82C:  SUBLW  B3
0D82E:  BC    D83C
....................       if(!Ciclo){ 
0D830:  BTFSC  xA1.5
0D832:  BRA    D83C
....................          GuardaDatoCiclo(); 
0D834:  CALL   6DE6
....................          tguarda=0; 
0D838:  CLRF   xB0
0D83A:  CLRF   xAF
....................       } 
....................    } 
....................     
....................    if(Grafica==1){ 
0D83C:  MOVLB  3
0D83E:  BTFSS  x52.1
0D840:  BRA    D880
....................       printf("add 14,0,%1.0f",Temperatura); 
0D842:  MOVLW  1C
0D844:  MOVWF  FF6
0D846:  MOVLW  17
0D848:  MOVWF  FF7
0D84A:  MOVLW  00
0D84C:  MOVWF  FF8
0D84E:  MOVLW  09
0D850:  MOVLB  4
0D852:  MOVWF  x4F
0D854:  MOVLB  0
0D856:  CALL   4B26
0D85A:  MOVLW  00
0D85C:  MOVWF  FE9
0D85E:  MOVFF  328,452
0D862:  MOVFF  327,451
0D866:  MOVFF  326,450
0D86A:  MOVFF  325,44F
0D86E:  MOVLB  4
0D870:  CLRF   x53
0D872:  MOVLB  0
0D874:  CALL   4CC6
....................       SendDataDisplay(); 
0D878:  CALL   3BE4
....................       //printf("add 14,1,%1.0f",PresionCamara/1.667); 
....................       //SendDataDisplay(); 
....................       //printf("add 14,0,%1.0f",Temperatura); 
....................       //SendDataDisplay(); 
....................       Grafica=0; 
0D87C:  MOVLB  3
0D87E:  BCF    x52.1
....................    } 
....................    if(Lectura==1)// Utilizado para visualizar la lectura de la temperatura 
0D880:  BTFSS  x52.0
0D882:  BRA    DB44
....................    {                             
....................       Lectura=0; 
0D884:  BCF    x52.0
....................       printf("t6f.txt=\"%3.1fC\"",Temperatura); 
0D886:  MOVLW  2C
0D888:  MOVWF  FF6
0D88A:  MOVLW  17
0D88C:  MOVWF  FF7
0D88E:  MOVLW  00
0D890:  MOVWF  FF8
0D892:  MOVLW  09
0D894:  MOVLB  4
0D896:  MOVWF  x4F
0D898:  MOVLB  0
0D89A:  CALL   4B26
0D89E:  MOVLW  02
0D8A0:  MOVWF  FE9
0D8A2:  MOVFF  328,452
0D8A6:  MOVFF  327,451
0D8AA:  MOVFF  326,450
0D8AE:  MOVFF  325,44F
0D8B2:  MOVLW  01
0D8B4:  MOVLB  4
0D8B6:  MOVWF  x53
0D8B8:  MOVLB  0
0D8BA:  CALL   4CC6
0D8BE:  MOVLW  B0
0D8C0:  BTFSS  F9E.4
0D8C2:  BRA    D8C0
0D8C4:  MOVWF  FAD
0D8C6:  MOVLW  43
0D8C8:  BTFSS  F9E.4
0D8CA:  BRA    D8C8
0D8CC:  MOVWF  FAD
0D8CE:  MOVLW  22
0D8D0:  BTFSS  F9E.4
0D8D2:  BRA    D8D0
0D8D4:  MOVWF  FAD
....................       SendDataDisplay(); 
0D8D6:  CALL   3BE4
....................       printf("Funcionamiento.t7f.txt=\"%03LukPa\"",PresionCamara); 
0D8DA:  MOVLW  3E
0D8DC:  MOVWF  FF6
0D8DE:  MOVLW  17
0D8E0:  MOVWF  FF7
0D8E2:  MOVLW  00
0D8E4:  MOVWF  FF8
0D8E6:  MOVLW  18
0D8E8:  MOVLB  4
0D8EA:  MOVWF  x4F
0D8EC:  MOVLB  0
0D8EE:  CALL   4B26
0D8F2:  MOVLW  0A
0D8F4:  MOVWF  FE9
0D8F6:  MOVFF  376,450
0D8FA:  MOVFF  375,44F
0D8FE:  CALL   54DC
0D902:  MOVLW  5B
0D904:  MOVWF  FF6
0D906:  MOVLW  17
0D908:  MOVWF  FF7
0D90A:  MOVLW  00
0D90C:  MOVWF  FF8
0D90E:  MOVLW  04
0D910:  MOVLB  4
0D912:  MOVWF  x4F
0D914:  MOVLB  0
0D916:  CALL   4B26
....................       SendDataDisplay(); 
0D91A:  CALL   3BE4
....................       //printf("Funcionamiento.t12f.txt=\"%03LukPa\"",PresionPreCamara); 
....................       printf("Funcionamiento.t12f.txt=\"000kPa\""); 
0D91E:  MOVLW  60
0D920:  MOVWF  FF6
0D922:  MOVLW  17
0D924:  MOVWF  FF7
0D926:  MOVLW  00
0D928:  MOVWF  FF8
0D92A:  CALL   3BB2
....................       SendDataDisplay(); 
0D92E:  CALL   3BE4
....................       printf("Funcionamiento.t9f.txt=\"%03u\"",Setpoint); 
0D932:  MOVLW  82
0D934:  MOVWF  FF6
0D936:  MOVLW  17
0D938:  MOVWF  FF7
0D93A:  MOVLW  00
0D93C:  MOVWF  FF8
0D93E:  MOVLW  18
0D940:  MOVLB  4
0D942:  MOVWF  x4F
0D944:  MOVLB  0
0D946:  CALL   4B26
0D94A:  MOVFF  363,44F
0D94E:  MOVLW  03
0D950:  MOVLB  4
0D952:  MOVWF  x50
0D954:  MOVLB  0
0D956:  CALL   4B84
0D95A:  MOVLW  22
0D95C:  BTFSS  F9E.4
0D95E:  BRA    D95C
0D960:  MOVWF  FAD
....................       SendDataDisplay();       
0D962:  CALL   3BE4
....................       printf("Funcionamiento.t10f.txt=\"%02u\"",((Testerilizacion[3]*10)+Testerilizacion[2])); 
0D966:  MOVFF  B4,44B
0D96A:  MOVLW  0A
0D96C:  MOVLB  4
0D96E:  MOVWF  x4C
0D970:  MOVLB  0
0D972:  CALL   30AC
0D976:  MOVF   xB3,W
0D978:  ADDWF  01,W
0D97A:  MOVLB  4
0D97C:  MOVWF  x49
0D97E:  MOVLW  A0
0D980:  MOVWF  FF6
0D982:  MOVLW  17
0D984:  MOVWF  FF7
0D986:  MOVLW  00
0D988:  MOVWF  FF8
0D98A:  MOVLW  19
0D98C:  MOVWF  x4F
0D98E:  MOVLB  0
0D990:  CALL   4B26
0D994:  MOVFF  449,44F
0D998:  MOVLW  01
0D99A:  MOVLB  4
0D99C:  MOVWF  x50
0D99E:  MOVLB  0
0D9A0:  CALL   4B84
0D9A4:  MOVLW  22
0D9A6:  BTFSS  F9E.4
0D9A8:  BRA    D9A6
0D9AA:  MOVWF  FAD
....................       SendDataDisplay();       
0D9AC:  CALL   3BE4
....................       printf("Funcionamiento.t13f.txt=\"%02u\"",((Testerilizacion[1]*10)+Testerilizacion[0])); 
0D9B0:  MOVFF  B2,44B
0D9B4:  MOVLW  0A
0D9B6:  MOVLB  4
0D9B8:  MOVWF  x4C
0D9BA:  MOVLB  0
0D9BC:  CALL   30AC
0D9C0:  MOVF   xB1,W
0D9C2:  ADDWF  01,W
0D9C4:  MOVLB  4
0D9C6:  MOVWF  x49
0D9C8:  MOVLW  C0
0D9CA:  MOVWF  FF6
0D9CC:  MOVLW  17
0D9CE:  MOVWF  FF7
0D9D0:  MOVLW  00
0D9D2:  MOVWF  FF8
0D9D4:  MOVLW  19
0D9D6:  MOVWF  x4F
0D9D8:  MOVLB  0
0D9DA:  CALL   4B26
0D9DE:  MOVFF  449,44F
0D9E2:  MOVLW  01
0D9E4:  MOVLB  4
0D9E6:  MOVWF  x50
0D9E8:  MOVLB  0
0D9EA:  CALL   4B84
0D9EE:  MOVLW  22
0D9F0:  BTFSS  F9E.4
0D9F2:  BRA    D9F0
0D9F4:  MOVWF  FAD
....................       SendDataDisplay();       
0D9F6:  CALL   3BE4
....................       printf("Funcionamiento.t11f.txt=\"%02u\"",((Tsecado[3]*10)+Tsecado[2])); 
0D9FA:  MOVFF  BE,44B
0D9FE:  MOVLW  0A
0DA00:  MOVLB  4
0DA02:  MOVWF  x4C
0DA04:  MOVLB  0
0DA06:  CALL   30AC
0DA0A:  MOVF   xBD,W
0DA0C:  ADDWF  01,W
0DA0E:  MOVLB  4
0DA10:  MOVWF  x49
0DA12:  MOVLW  E0
0DA14:  MOVWF  FF6
0DA16:  MOVLW  17
0DA18:  MOVWF  FF7
0DA1A:  MOVLW  00
0DA1C:  MOVWF  FF8
0DA1E:  MOVLW  19
0DA20:  MOVWF  x4F
0DA22:  MOVLB  0
0DA24:  CALL   4B26
0DA28:  MOVFF  449,44F
0DA2C:  MOVLW  01
0DA2E:  MOVLB  4
0DA30:  MOVWF  x50
0DA32:  MOVLB  0
0DA34:  CALL   4B84
0DA38:  MOVLW  22
0DA3A:  BTFSS  F9E.4
0DA3C:  BRA    DA3A
0DA3E:  MOVWF  FAD
....................       SendDataDisplay();       
0DA40:  CALL   3BE4
....................       printf("Funcionamiento.t16f.txt=\"%02u\"",((Tsecado[1]*10)+Tsecado[0])); 
0DA44:  MOVFF  BC,44B
0DA48:  MOVLW  0A
0DA4A:  MOVLB  4
0DA4C:  MOVWF  x4C
0DA4E:  MOVLB  0
0DA50:  CALL   30AC
0DA54:  MOVF   xBB,W
0DA56:  ADDWF  01,W
0DA58:  MOVLB  4
0DA5A:  MOVWF  x49
0DA5C:  MOVLW  00
0DA5E:  MOVWF  FF6
0DA60:  MOVLW  18
0DA62:  MOVWF  FF7
0DA64:  MOVLW  00
0DA66:  MOVWF  FF8
0DA68:  MOVLW  19
0DA6A:  MOVWF  x4F
0DA6C:  MOVLB  0
0DA6E:  CALL   4B26
0DA72:  MOVFF  449,44F
0DA76:  MOVLW  01
0DA78:  MOVLB  4
0DA7A:  MOVWF  x50
0DA7C:  MOVLB  0
0DA7E:  CALL   4B84
0DA82:  MOVLW  22
0DA84:  BTFSS  F9E.4
0DA86:  BRA    DA84
0DA88:  MOVWF  FAD
....................       SendDataDisplay();       
0DA8A:  CALL   3BE4
....................        
....................       printf("fecha.txt=\"Fecha:%02u/%02u/20%02u    Hora: %02u:%02u\"",Dia,Mes,Year,Hora,Minuto); 
0DA8E:  MOVLW  20
0DA90:  MOVWF  FF6
0DA92:  MOVLW  18
0DA94:  MOVWF  FF7
0DA96:  MOVLW  00
0DA98:  MOVWF  FF8
0DA9A:  MOVLW  11
0DA9C:  MOVLB  4
0DA9E:  MOVWF  x4F
0DAA0:  MOVLB  0
0DAA2:  CALL   4B26
0DAA6:  MOVFF  3AA,44F
0DAAA:  MOVLW  01
0DAAC:  MOVLB  4
0DAAE:  MOVWF  x50
0DAB0:  MOVLB  0
0DAB2:  CALL   4B84
0DAB6:  MOVLW  2F
0DAB8:  BTFSS  F9E.4
0DABA:  BRA    DAB8
0DABC:  MOVWF  FAD
0DABE:  MOVFF  3A9,44F
0DAC2:  MOVLW  01
0DAC4:  MOVLB  4
0DAC6:  MOVWF  x50
0DAC8:  MOVLB  0
0DACA:  CALL   4B84
0DACE:  MOVLW  2F
0DAD0:  BTFSS  F9E.4
0DAD2:  BRA    DAD0
0DAD4:  MOVWF  FAD
0DAD6:  MOVLW  32
0DAD8:  BTFSS  F9E.4
0DADA:  BRA    DAD8
0DADC:  MOVWF  FAD
0DADE:  MOVLW  30
0DAE0:  BTFSS  F9E.4
0DAE2:  BRA    DAE0
0DAE4:  MOVWF  FAD
0DAE6:  MOVFF  3A8,44F
0DAEA:  MOVLW  01
0DAEC:  MOVLB  4
0DAEE:  MOVWF  x50
0DAF0:  MOVLB  0
0DAF2:  CALL   4B84
0DAF6:  MOVLW  41
0DAF8:  MOVWF  FF6
0DAFA:  MOVLW  18
0DAFC:  MOVWF  FF7
0DAFE:  MOVLW  00
0DB00:  MOVWF  FF8
0DB02:  MOVLW  0A
0DB04:  MOVLB  4
0DB06:  MOVWF  x4F
0DB08:  MOVLB  0
0DB0A:  CALL   4B26
0DB0E:  MOVFF  3AB,44F
0DB12:  MOVLW  01
0DB14:  MOVLB  4
0DB16:  MOVWF  x50
0DB18:  MOVLB  0
0DB1A:  CALL   4B84
0DB1E:  MOVLW  3A
0DB20:  BTFSS  F9E.4
0DB22:  BRA    DB20
0DB24:  MOVWF  FAD
0DB26:  MOVFF  3AC,44F
0DB2A:  MOVLW  01
0DB2C:  MOVLB  4
0DB2E:  MOVWF  x50
0DB30:  MOVLB  0
0DB32:  CALL   4B84
0DB36:  MOVLW  22
0DB38:  BTFSS  F9E.4
0DB3A:  BRA    DB38
0DB3C:  MOVWF  FAD
....................       SendDataDisplay(); 
0DB3E:  CALL   3BE4
0DB42:  MOVLB  3
....................    } 
....................  
....................  
.................... } 
.................... //_-------------------------------------------------------------------------------------------------------------------------------------------------------- 
....................  
.................... //_-------------------------------------------------------------------------------------------------------------------------------------------------------- 
....................       if(Menu==100){ //Menu de Configuracin de Parametros de Control 
0DB44:  MOVF   x5D,W
0DB46:  SUBLW  64
0DB48:  BTFSS  FD8.2
0DB4A:  GOTO   E9A2
....................       
....................       if(Opcion2>11) 
0DB4E:  MOVF   x65,W
0DB50:  SUBLW  0B
0DB52:  BC    DB58
....................          Opcion2=1; 
0DB54:  MOVLW  01
0DB56:  MOVWF  x65
....................       if(Opcion2<1) 
0DB58:  MOVF   x65,F
0DB5A:  BNZ   DB60
....................          Opcion2=11; 
0DB5C:  MOVLW  0B
0DB5E:  MOVWF  x65
....................        
....................       if(Opcion2==1){ 
0DB60:  DECFSZ x65,W
0DB62:  BRA    DCE0
....................          printf("Config.t2c.txt=\"Proporcional\""); 
0DB64:  MOVLW  56
0DB66:  MOVWF  FF6
0DB68:  MOVLW  18
0DB6A:  MOVWF  FF7
0DB6C:  MOVLW  00
0DB6E:  MOVWF  FF8
0DB70:  MOVLB  0
0DB72:  CALL   3BB2
....................          SendDataDisplay();       
0DB76:  CALL   3BE4
....................          printf("t3c.txt=\"%2.0f\"",Ganancia); 
0DB7A:  MOVLW  74
0DB7C:  MOVWF  FF6
0DB7E:  MOVLW  18
0DB80:  MOVWF  FF7
0DB82:  MOVLW  00
0DB84:  MOVWF  FF8
0DB86:  MOVLW  09
0DB88:  MOVLB  4
0DB8A:  MOVWF  x4F
0DB8C:  MOVLB  0
0DB8E:  CALL   4B26
0DB92:  MOVLW  01
0DB94:  MOVWF  FE9
0DB96:  MOVFF  308,452
0DB9A:  MOVFF  307,451
0DB9E:  MOVFF  306,450
0DBA2:  MOVFF  305,44F
0DBA6:  MOVLB  4
0DBA8:  CLRF   x53
0DBAA:  MOVLB  0
0DBAC:  CALL   4CC6
0DBB0:  MOVLW  22
0DBB2:  BTFSS  F9E.4
0DBB4:  BRA    DBB2
0DBB6:  MOVWF  FAD
....................          SendDataDisplay(); 
0DBB8:  CALL   3BE4
....................          if(RX_Buffer[4]==0x0a || UP){//Tecla Arriba Oprimida 
0DBBC:  MOVF   34,W
0DBBE:  SUBLW  0A
0DBC0:  BZ    DBC8
0DBC2:  BSF    F93.0
0DBC4:  BTFSC  F81.0
0DBC6:  BRA    DC18
....................             delay_ms(20); 
0DBC8:  MOVLW  14
0DBCA:  MOVLB  4
0DBCC:  MOVWF  x62
0DBCE:  MOVLB  0
0DBD0:  CALL   1A6C
....................             if(RX_Buffer[4]==0x0a || UP){ 
0DBD4:  MOVF   34,W
0DBD6:  SUBLW  0A
0DBD8:  BZ    DBE0
0DBDA:  BSF    F93.0
0DBDC:  BTFSC  F81.0
0DBDE:  BRA    DC18
....................                Ganancia+=1.0; 
0DBE0:  BCF    FD8.1
0DBE2:  MOVFF  308,461
0DBE6:  MOVFF  307,460
0DBEA:  MOVFF  306,45F
0DBEE:  MOVFF  305,45E
0DBF2:  MOVLB  4
0DBF4:  CLRF   x65
0DBF6:  CLRF   x64
0DBF8:  CLRF   x63
0DBFA:  MOVLW  7F
0DBFC:  MOVWF  x62
0DBFE:  MOVLB  0
0DC00:  CALL   1C28
0DC04:  MOVFF  03,308
0DC08:  MOVFF  02,307
0DC0C:  MOVFF  01,306
0DC10:  MOVFF  00,305
....................                RX_Buffer[4]=0x00;   
0DC14:  CLRF   34
....................                RX_Buffer2[4]=0x00;             
0DC16:  CLRF   3F
....................                //BorraBuffer(); 
....................             } 
....................          } 
....................              
....................          if(RX_Buffer[4]==0x0b || DOWN){//Tecla Abajo Oprimida 
0DC18:  MOVF   34,W
0DC1A:  SUBLW  0B
0DC1C:  BZ    DC24
0DC1E:  BSF    F93.1
0DC20:  BTFSC  F81.1
0DC22:  BRA    DC74
....................             delay_ms(20); 
0DC24:  MOVLW  14
0DC26:  MOVLB  4
0DC28:  MOVWF  x62
0DC2A:  MOVLB  0
0DC2C:  CALL   1A6C
....................             if(RX_Buffer[4]==0x0b || DOWN){ 
0DC30:  MOVF   34,W
0DC32:  SUBLW  0B
0DC34:  BZ    DC3C
0DC36:  BSF    F93.1
0DC38:  BTFSC  F81.1
0DC3A:  BRA    DC74
....................                Ganancia-=1.0; 
0DC3C:  BSF    FD8.1
0DC3E:  MOVFF  308,461
0DC42:  MOVFF  307,460
0DC46:  MOVFF  306,45F
0DC4A:  MOVFF  305,45E
0DC4E:  MOVLB  4
0DC50:  CLRF   x65
0DC52:  CLRF   x64
0DC54:  CLRF   x63
0DC56:  MOVLW  7F
0DC58:  MOVWF  x62
0DC5A:  MOVLB  0
0DC5C:  CALL   1C28
0DC60:  MOVFF  03,308
0DC64:  MOVFF  02,307
0DC68:  MOVFF  01,306
0DC6C:  MOVFF  00,305
....................                RX_Buffer[4]=0x00; 
0DC70:  CLRF   34
....................                RX_Buffer2[4]=0x00;             
0DC72:  CLRF   3F
....................                //BorraBuffer(); 
....................             } 
....................          } 
....................           
....................          if(Ganancia>40) 
0DC74:  MOVLB  4
0DC76:  CLRF   x50
0DC78:  CLRF   x4F
0DC7A:  MOVLW  20
0DC7C:  MOVWF  x4E
0DC7E:  MOVLW  84
0DC80:  MOVWF  x4D
0DC82:  MOVFF  308,454
0DC86:  MOVFF  307,453
0DC8A:  MOVFF  306,452
0DC8E:  MOVFF  305,451
0DC92:  MOVLB  0
0DC94:  CALL   3032
0DC98:  BNC   DCA6
....................             Ganancia=1; 
0DC9A:  MOVLB  3
0DC9C:  CLRF   x08
0DC9E:  CLRF   x07
0DCA0:  CLRF   x06
0DCA2:  MOVLW  7F
0DCA4:  MOVWF  x05
....................          if(Ganancia<1) 
0DCA6:  MOVFF  308,450
0DCAA:  MOVFF  307,44F
0DCAE:  MOVFF  306,44E
0DCB2:  MOVFF  305,44D
0DCB6:  MOVLB  4
0DCB8:  CLRF   x54
0DCBA:  CLRF   x53
0DCBC:  CLRF   x52
0DCBE:  MOVLW  7F
0DCC0:  MOVWF  x51
0DCC2:  MOVLB  0
0DCC4:  CALL   3032
0DCC8:  BNC   DCDA
....................             Ganancia=40; 
0DCCA:  MOVLB  3
0DCCC:  CLRF   x08
0DCCE:  CLRF   x07
0DCD0:  MOVLW  20
0DCD2:  MOVWF  x06
0DCD4:  MOVLW  84
0DCD6:  MOVWF  x05
0DCD8:  MOVLB  0
....................       }else if(Opcion2==2){ 
0DCDA:  GOTO   E4A2
0DCDE:  MOVLB  3
0DCE0:  MOVF   x65,W
0DCE2:  SUBLW  02
0DCE4:  BNZ   DDA4
....................          printf("Config.t2c.txt=\"Derivativo\""); 
0DCE6:  MOVLW  84
0DCE8:  MOVWF  FF6
0DCEA:  MOVLW  18
0DCEC:  MOVWF  FF7
0DCEE:  MOVLW  00
0DCF0:  MOVWF  FF8
0DCF2:  MOVLB  0
0DCF4:  CALL   3BB2
....................          SendDataDisplay();       
0DCF8:  CALL   3BE4
....................          printf("t3c.txt=\"%u\"",Derivativo); 
0DCFC:  MOVLW  A0
0DCFE:  MOVWF  FF6
0DD00:  MOVLW  18
0DD02:  MOVWF  FF7
0DD04:  MOVLW  00
0DD06:  MOVWF  FF8
0DD08:  MOVLW  09
0DD0A:  MOVLB  4
0DD0C:  MOVWF  x4F
0DD0E:  MOVLB  0
0DD10:  CALL   4B26
0DD14:  MOVFF  33A,44F
0DD18:  MOVLW  1B
0DD1A:  MOVLB  4
0DD1C:  MOVWF  x50
0DD1E:  MOVLB  0
0DD20:  CALL   4B84
0DD24:  MOVLW  22
0DD26:  BTFSS  F9E.4
0DD28:  BRA    DD26
0DD2A:  MOVWF  FAD
....................          SendDataDisplay(); 
0DD2C:  CALL   3BE4
....................          if(RX_Buffer[4]==0x0a || UP){//Tecla Arriba Oprimida 
0DD30:  MOVF   34,W
0DD32:  SUBLW  0A
0DD34:  BZ    DD3C
0DD36:  BSF    F93.0
0DD38:  BTFSC  F81.0
0DD3A:  BRA    DD5E
....................             delay_ms(20); 
0DD3C:  MOVLW  14
0DD3E:  MOVLB  4
0DD40:  MOVWF  x62
0DD42:  MOVLB  0
0DD44:  CALL   1A6C
....................             if(RX_Buffer[4]==0x0a || UP){ 
0DD48:  MOVF   34,W
0DD4A:  SUBLW  0A
0DD4C:  BZ    DD54
0DD4E:  BSF    F93.0
0DD50:  BTFSC  F81.0
0DD52:  BRA    DD5E
....................                Derivativo++; 
0DD54:  MOVLB  3
0DD56:  INCF   x3A,F
....................                RX_Buffer[4]=0x00;   
0DD58:  CLRF   34
....................                RX_Buffer2[4]=0x00;             
0DD5A:  CLRF   3F
0DD5C:  MOVLB  0
....................                //BorraBuffer(); 
....................             } 
....................          } 
....................              
....................          if(RX_Buffer[4]==0x0b || DOWN){//Tecla Abajo Oprimida 
0DD5E:  MOVF   34,W
0DD60:  SUBLW  0B
0DD62:  BZ    DD6A
0DD64:  BSF    F93.1
0DD66:  BTFSC  F81.1
0DD68:  BRA    DD8C
....................             delay_ms(20); 
0DD6A:  MOVLW  14
0DD6C:  MOVLB  4
0DD6E:  MOVWF  x62
0DD70:  MOVLB  0
0DD72:  CALL   1A6C
....................             if(RX_Buffer[4]==0x0b || DOWN){ 
0DD76:  MOVF   34,W
0DD78:  SUBLW  0B
0DD7A:  BZ    DD82
0DD7C:  BSF    F93.1
0DD7E:  BTFSC  F81.1
0DD80:  BRA    DD8C
....................                Derivativo--; 
0DD82:  MOVLB  3
0DD84:  DECF   x3A,F
....................                RX_Buffer[4]=0x00; 
0DD86:  CLRF   34
....................                RX_Buffer2[4]=0x00;             
0DD88:  CLRF   3F
0DD8A:  MOVLB  0
....................                //BorraBuffer(); 
....................             } 
....................          } 
....................           
....................           
....................          if(Derivativo>40) 
0DD8C:  MOVLB  3
0DD8E:  MOVF   x3A,W
0DD90:  SUBLW  28
0DD92:  BC    DD98
....................             Derivativo=1; 
0DD94:  MOVLW  01
0DD96:  MOVWF  x3A
....................          if(Derivativo<1) 
0DD98:  MOVF   x3A,F
0DD9A:  BNZ   DDA0
....................             Derivativo=40; 
0DD9C:  MOVLW  28
0DD9E:  MOVWF  x3A
....................       }else if(Opcion2==3){ 
0DDA0:  GOTO   E4A0
0DDA4:  MOVF   x65,W
0DDA6:  SUBLW  03
0DDA8:  BNZ   DE66
....................          printf("Config.t2c.txt=\"Integral\""); 
0DDAA:  MOVLW  AE
0DDAC:  MOVWF  FF6
0DDAE:  MOVLW  18
0DDB0:  MOVWF  FF7
0DDB2:  MOVLW  00
0DDB4:  MOVWF  FF8
0DDB6:  MOVLB  0
0DDB8:  CALL   3BB2
....................          SendDataDisplay();       
0DDBC:  CALL   3BE4
....................          printf("t3c.txt=\"%u\"",Integral); 
0DDC0:  MOVLW  C8
0DDC2:  MOVWF  FF6
0DDC4:  MOVLW  18
0DDC6:  MOVWF  FF7
0DDC8:  MOVLW  00
0DDCA:  MOVWF  FF8
0DDCC:  MOVLW  09
0DDCE:  MOVLB  4
0DDD0:  MOVWF  x4F
0DDD2:  MOVLB  0
0DDD4:  CALL   4B26
0DDD8:  MOVFF  339,44F
0DDDC:  MOVLW  1B
0DDDE:  MOVLB  4
0DDE0:  MOVWF  x50
0DDE2:  MOVLB  0
0DDE4:  CALL   4B84
0DDE8:  MOVLW  22
0DDEA:  BTFSS  F9E.4
0DDEC:  BRA    DDEA
0DDEE:  MOVWF  FAD
....................          SendDataDisplay(); 
0DDF0:  CALL   3BE4
....................          if(RX_Buffer[4]==0x0a || UP){//Tecla Arriba Oprimida 
0DDF4:  MOVF   34,W
0DDF6:  SUBLW  0A
0DDF8:  BZ    DE00
0DDFA:  BSF    F93.0
0DDFC:  BTFSC  F81.0
0DDFE:  BRA    DE22
....................             delay_ms(20); 
0DE00:  MOVLW  14
0DE02:  MOVLB  4
0DE04:  MOVWF  x62
0DE06:  MOVLB  0
0DE08:  CALL   1A6C
....................             if(RX_Buffer[4]==0x0a || UP){ 
0DE0C:  MOVF   34,W
0DE0E:  SUBLW  0A
0DE10:  BZ    DE18
0DE12:  BSF    F93.0
0DE14:  BTFSC  F81.0
0DE16:  BRA    DE22
....................                Integral++; 
0DE18:  MOVLB  3
0DE1A:  INCF   x39,F
....................                RX_Buffer[4]=0x00;   
0DE1C:  CLRF   34
....................                RX_Buffer2[4]=0x00;             
0DE1E:  CLRF   3F
0DE20:  MOVLB  0
....................                //BorraBuffer(); 
....................             } 
....................          } 
....................              
....................          if(RX_Buffer[4]==0x0b || DOWN){//Tecla Abajo Oprimida 
0DE22:  MOVF   34,W
0DE24:  SUBLW  0B
0DE26:  BZ    DE2E
0DE28:  BSF    F93.1
0DE2A:  BTFSC  F81.1
0DE2C:  BRA    DE50
....................             delay_ms(20); 
0DE2E:  MOVLW  14
0DE30:  MOVLB  4
0DE32:  MOVWF  x62
0DE34:  MOVLB  0
0DE36:  CALL   1A6C
....................             if(RX_Buffer[4]==0x0b || DOWN){ 
0DE3A:  MOVF   34,W
0DE3C:  SUBLW  0B
0DE3E:  BZ    DE46
0DE40:  BSF    F93.1
0DE42:  BTFSC  F81.1
0DE44:  BRA    DE50
....................                Integral--; 
0DE46:  MOVLB  3
0DE48:  DECF   x39,F
....................                RX_Buffer[4]=0x00; 
0DE4A:  CLRF   34
....................                RX_Buffer2[4]=0x00;             
0DE4C:  CLRF   3F
0DE4E:  MOVLB  0
....................                //BorraBuffer(); 
....................             } 
....................          } 
....................           
....................          if(Integral>40) 
0DE50:  MOVLB  3
0DE52:  MOVF   x39,W
0DE54:  SUBLW  28
0DE56:  BC    DE5C
....................             Integral=1; 
0DE58:  MOVLW  01
0DE5A:  MOVWF  x39
....................          if(Integral<1) 
0DE5C:  MOVF   x39,F
0DE5E:  BNZ   DE64
....................             Integral=40; 
0DE60:  MOVLW  28
0DE62:  MOVWF  x39
....................       }else if(Opcion2==4){ 
0DE64:  BRA    E4A0
0DE66:  MOVF   x65,W
0DE68:  SUBLW  04
0DE6A:  BTFSS  FD8.2
0DE6C:  BRA    DFEC
....................          printf("Config.t2c.txt=\"Tciclo\""); 
0DE6E:  MOVLW  D6
0DE70:  MOVWF  FF6
0DE72:  MOVLW  18
0DE74:  MOVWF  FF7
0DE76:  MOVLW  00
0DE78:  MOVWF  FF8
0DE7A:  MOVLB  0
0DE7C:  CALL   3BB2
....................          SendDataDisplay();       
0DE80:  CALL   3BE4
....................          printf("t3c.txt=\"%2.0f\"",Tciclo); 
0DE84:  MOVLW  EE
0DE86:  MOVWF  FF6
0DE88:  MOVLW  18
0DE8A:  MOVWF  FF7
0DE8C:  MOVLW  00
0DE8E:  MOVWF  FF8
0DE90:  MOVLW  09
0DE92:  MOVLB  4
0DE94:  MOVWF  x4F
0DE96:  MOVLB  0
0DE98:  CALL   4B26
0DE9C:  MOVLW  01
0DE9E:  MOVWF  FE9
0DEA0:  MOVFF  2F0,452
0DEA4:  MOVFF  2EF,451
0DEA8:  MOVFF  2EE,450
0DEAC:  MOVFF  2ED,44F
0DEB0:  MOVLB  4
0DEB2:  CLRF   x53
0DEB4:  MOVLB  0
0DEB6:  CALL   4CC6
0DEBA:  MOVLW  22
0DEBC:  BTFSS  F9E.4
0DEBE:  BRA    DEBC
0DEC0:  MOVWF  FAD
....................          SendDataDisplay(); 
0DEC2:  CALL   3BE4
....................          if(RX_Buffer[4]==0x0a || UP){//Tecla Arriba Oprimida 
0DEC6:  MOVF   34,W
0DEC8:  SUBLW  0A
0DECA:  BZ    DED2
0DECC:  BSF    F93.0
0DECE:  BTFSC  F81.0
0DED0:  BRA    DF22
....................             delay_ms(20); 
0DED2:  MOVLW  14
0DED4:  MOVLB  4
0DED6:  MOVWF  x62
0DED8:  MOVLB  0
0DEDA:  CALL   1A6C
....................             if(RX_Buffer[4]==0x0a || UP){ 
0DEDE:  MOVF   34,W
0DEE0:  SUBLW  0A
0DEE2:  BZ    DEEA
0DEE4:  BSF    F93.0
0DEE6:  BTFSC  F81.0
0DEE8:  BRA    DF22
....................                Tciclo+=1.0; 
0DEEA:  BCF    FD8.1
0DEEC:  MOVFF  2F0,461
0DEF0:  MOVFF  2EF,460
0DEF4:  MOVFF  2EE,45F
0DEF8:  MOVFF  2ED,45E
0DEFC:  MOVLB  4
0DEFE:  CLRF   x65
0DF00:  CLRF   x64
0DF02:  CLRF   x63
0DF04:  MOVLW  7F
0DF06:  MOVWF  x62
0DF08:  MOVLB  0
0DF0A:  CALL   1C28
0DF0E:  MOVFF  03,2F0
0DF12:  MOVFF  02,2EF
0DF16:  MOVFF  01,2EE
0DF1A:  MOVFF  00,2ED
....................                RX_Buffer[4]=0x00;   
0DF1E:  CLRF   34
....................                RX_Buffer2[4]=0x00;             
0DF20:  CLRF   3F
....................                //BorraBuffer(); 
....................             } 
....................          } 
....................              
....................          if(RX_Buffer[4]==0x0b || DOWN){//Tecla Abajo Oprimida 
0DF22:  MOVF   34,W
0DF24:  SUBLW  0B
0DF26:  BZ    DF2E
0DF28:  BSF    F93.1
0DF2A:  BTFSC  F81.1
0DF2C:  BRA    DF7E
....................             delay_ms(20); 
0DF2E:  MOVLW  14
0DF30:  MOVLB  4
0DF32:  MOVWF  x62
0DF34:  MOVLB  0
0DF36:  CALL   1A6C
....................             if(RX_Buffer[4]==0x0b || DOWN){ 
0DF3A:  MOVF   34,W
0DF3C:  SUBLW  0B
0DF3E:  BZ    DF46
0DF40:  BSF    F93.1
0DF42:  BTFSC  F81.1
0DF44:  BRA    DF7E
....................                Tciclo-=1.0; 
0DF46:  BSF    FD8.1
0DF48:  MOVFF  2F0,461
0DF4C:  MOVFF  2EF,460
0DF50:  MOVFF  2EE,45F
0DF54:  MOVFF  2ED,45E
0DF58:  MOVLB  4
0DF5A:  CLRF   x65
0DF5C:  CLRF   x64
0DF5E:  CLRF   x63
0DF60:  MOVLW  7F
0DF62:  MOVWF  x62
0DF64:  MOVLB  0
0DF66:  CALL   1C28
0DF6A:  MOVFF  03,2F0
0DF6E:  MOVFF  02,2EF
0DF72:  MOVFF  01,2EE
0DF76:  MOVFF  00,2ED
....................                RX_Buffer[4]=0x00; 
0DF7A:  CLRF   34
....................                RX_Buffer2[4]=0x00;             
0DF7C:  CLRF   3F
....................                //BorraBuffer(); 
....................             } 
....................          } 
....................           
....................          if(Tciclo>20) 
0DF7E:  MOVLB  4
0DF80:  CLRF   x50
0DF82:  CLRF   x4F
0DF84:  MOVLW  20
0DF86:  MOVWF  x4E
0DF88:  MOVLW  83
0DF8A:  MOVWF  x4D
0DF8C:  MOVFF  2F0,454
0DF90:  MOVFF  2EF,453
0DF94:  MOVFF  2EE,452
0DF98:  MOVFF  2ED,451
0DF9C:  MOVLB  0
0DF9E:  CALL   3032
0DFA2:  BNC   DFB2
....................             Tciclo=5; 
0DFA4:  MOVLB  2
0DFA6:  CLRF   xF0
0DFA8:  CLRF   xEF
0DFAA:  MOVLW  20
0DFAC:  MOVWF  xEE
0DFAE:  MOVLW  81
0DFB0:  MOVWF  xED
....................          if(Tciclo<5) 
0DFB2:  MOVFF  2F0,450
0DFB6:  MOVFF  2EF,44F
0DFBA:  MOVFF  2EE,44E
0DFBE:  MOVFF  2ED,44D
0DFC2:  MOVLB  4
0DFC4:  CLRF   x54
0DFC6:  CLRF   x53
0DFC8:  MOVLW  20
0DFCA:  MOVWF  x52
0DFCC:  MOVLW  81
0DFCE:  MOVWF  x51
0DFD0:  MOVLB  0
0DFD2:  CALL   3032
0DFD6:  BNC   DFE8
....................             Tciclo=20; 
0DFD8:  MOVLB  2
0DFDA:  CLRF   xF0
0DFDC:  CLRF   xEF
0DFDE:  MOVLW  20
0DFE0:  MOVWF  xEE
0DFE2:  MOVLW  83
0DFE4:  MOVWF  xED
0DFE6:  MOVLB  0
....................       }else if(Opcion2==5){ 
0DFE8:  BRA    E4A2
0DFEA:  MOVLB  3
0DFEC:  MOVF   x65,W
0DFEE:  SUBLW  05
0DFF0:  BNZ   E0A6
....................          printf("Config.t2c.txt=\"Ajuste +\""); 
0DFF2:  MOVLW  FE
0DFF4:  MOVWF  FF6
0DFF6:  MOVLW  18
0DFF8:  MOVWF  FF7
0DFFA:  MOVLW  00
0DFFC:  MOVWF  FF8
0DFFE:  MOVLB  0
0E000:  CALL   3BB2
....................          SendDataDisplay();       
0E004:  CALL   3BE4
....................          printf("t3c.txt=\"%u\"",Ajuste); 
0E008:  MOVLW  18
0E00A:  MOVWF  FF6
0E00C:  MOVLW  19
0E00E:  MOVWF  FF7
0E010:  MOVLW  00
0E012:  MOVWF  FF8
0E014:  MOVLW  09
0E016:  MOVLB  4
0E018:  MOVWF  x4F
0E01A:  MOVLB  0
0E01C:  CALL   4B26
0E020:  MOVFF  2D9,44F
0E024:  MOVLW  1B
0E026:  MOVLB  4
0E028:  MOVWF  x50
0E02A:  MOVLB  0
0E02C:  CALL   4B84
0E030:  MOVLW  22
0E032:  BTFSS  F9E.4
0E034:  BRA    E032
0E036:  MOVWF  FAD
....................          SendDataDisplay(); 
0E038:  CALL   3BE4
....................          if(RX_Buffer[4]==0x0a || UP){//Tecla Arriba Oprimida 
0E03C:  MOVF   34,W
0E03E:  SUBLW  0A
0E040:  BZ    E048
0E042:  BSF    F93.0
0E044:  BTFSC  F81.0
0E046:  BRA    E070
....................             delay_ms(20); 
0E048:  MOVLW  14
0E04A:  MOVLB  4
0E04C:  MOVWF  x62
0E04E:  MOVLB  0
0E050:  CALL   1A6C
....................             if(RX_Buffer[4]==0x0a || UP){ 
0E054:  MOVF   34,W
0E056:  SUBLW  0A
0E058:  BZ    E060
0E05A:  BSF    F93.0
0E05C:  BTFSC  F81.0
0E05E:  BRA    E070
....................                if(Ajuste<100) 
0E060:  MOVLB  2
0E062:  MOVF   xD9,W
0E064:  SUBLW  63
0E066:  BNC   E06A
....................                   Ajuste++; 
0E068:  INCF   xD9,F
....................                RX_Buffer[4]=0x00;   
0E06A:  CLRF   34
....................                RX_Buffer2[4]=0x00;             
0E06C:  CLRF   3F
0E06E:  MOVLB  0
....................                //BorraBuffer(); 
....................             } 
....................          } 
....................              
....................          if(RX_Buffer[4]==0x0b || DOWN){//Tecla Abajo Oprimida 
0E070:  MOVF   34,W
0E072:  SUBLW  0B
0E074:  BZ    E07C
0E076:  BSF    F93.1
0E078:  BTFSC  F81.1
0E07A:  BRA    E0A2
....................             delay_ms(20); 
0E07C:  MOVLW  14
0E07E:  MOVLB  4
0E080:  MOVWF  x62
0E082:  MOVLB  0
0E084:  CALL   1A6C
....................             if(RX_Buffer[4]==0x0b || DOWN){ 
0E088:  MOVF   34,W
0E08A:  SUBLW  0B
0E08C:  BZ    E094
0E08E:  BSF    F93.1
0E090:  BTFSC  F81.1
0E092:  BRA    E0A2
....................                if(Ajuste>0) 
0E094:  MOVLB  2
0E096:  MOVF   xD9,F
0E098:  BZ    E09C
....................                   Ajuste--; 
0E09A:  DECF   xD9,F
....................                RX_Buffer[4]=0x00; 
0E09C:  CLRF   34
....................                RX_Buffer2[4]=0x00;             
0E09E:  CLRF   3F
0E0A0:  MOVLB  0
....................                //BorraBuffer(); 
....................             } 
....................          } 
....................       }else if(Opcion2==6){ 
0E0A2:  BRA    E4A2
0E0A4:  MOVLB  3
0E0A6:  MOVF   x65,W
0E0A8:  SUBLW  06
0E0AA:  BNZ   E160
....................          printf("Config.t2c.txt=\"Ajuste -\""); 
0E0AC:  MOVLW  26
0E0AE:  MOVWF  FF6
0E0B0:  MOVLW  19
0E0B2:  MOVWF  FF7
0E0B4:  MOVLW  00
0E0B6:  MOVWF  FF8
0E0B8:  MOVLB  0
0E0BA:  CALL   3BB2
....................          SendDataDisplay();       
0E0BE:  CALL   3BE4
....................          printf("t3c.txt=\"%u\"",Ajusten); 
0E0C2:  MOVLW  40
0E0C4:  MOVWF  FF6
0E0C6:  MOVLW  19
0E0C8:  MOVWF  FF7
0E0CA:  MOVLW  00
0E0CC:  MOVWF  FF8
0E0CE:  MOVLW  09
0E0D0:  MOVLB  4
0E0D2:  MOVWF  x4F
0E0D4:  MOVLB  0
0E0D6:  CALL   4B26
0E0DA:  MOVFF  2DA,44F
0E0DE:  MOVLW  1B
0E0E0:  MOVLB  4
0E0E2:  MOVWF  x50
0E0E4:  MOVLB  0
0E0E6:  CALL   4B84
0E0EA:  MOVLW  22
0E0EC:  BTFSS  F9E.4
0E0EE:  BRA    E0EC
0E0F0:  MOVWF  FAD
....................          SendDataDisplay(); 
0E0F2:  CALL   3BE4
....................          if(RX_Buffer[4]==0x0a || UP){//Tecla Arriba Oprimida 
0E0F6:  MOVF   34,W
0E0F8:  SUBLW  0A
0E0FA:  BZ    E102
0E0FC:  BSF    F93.0
0E0FE:  BTFSC  F81.0
0E100:  BRA    E12A
....................             delay_ms(20); 
0E102:  MOVLW  14
0E104:  MOVLB  4
0E106:  MOVWF  x62
0E108:  MOVLB  0
0E10A:  CALL   1A6C
....................             if(RX_Buffer[4]==0x0a || UP){ 
0E10E:  MOVF   34,W
0E110:  SUBLW  0A
0E112:  BZ    E11A
0E114:  BSF    F93.0
0E116:  BTFSC  F81.0
0E118:  BRA    E12A
....................                if(Ajusten<100) 
0E11A:  MOVLB  2
0E11C:  MOVF   xDA,W
0E11E:  SUBLW  63
0E120:  BNC   E124
....................                   Ajusten++; 
0E122:  INCF   xDA,F
....................                RX_Buffer[4]=0x00;   
0E124:  CLRF   34
....................                RX_Buffer2[4]=0x00;             
0E126:  CLRF   3F
0E128:  MOVLB  0
....................                //BorraBuffer(); 
....................             } 
....................          } 
....................              
....................          if(RX_Buffer[4]==0x0b || DOWN){//Tecla Abajo Oprimida 
0E12A:  MOVF   34,W
0E12C:  SUBLW  0B
0E12E:  BZ    E136
0E130:  BSF    F93.1
0E132:  BTFSC  F81.1
0E134:  BRA    E15C
....................             delay_ms(20); 
0E136:  MOVLW  14
0E138:  MOVLB  4
0E13A:  MOVWF  x62
0E13C:  MOVLB  0
0E13E:  CALL   1A6C
....................             if(RX_Buffer[4]==0x0b || DOWN){ 
0E142:  MOVF   34,W
0E144:  SUBLW  0B
0E146:  BZ    E14E
0E148:  BSF    F93.1
0E14A:  BTFSC  F81.1
0E14C:  BRA    E15C
....................                if(Ajusten>0) 
0E14E:  MOVLB  2
0E150:  MOVF   xDA,F
0E152:  BZ    E156
....................                   Ajusten--; 
0E154:  DECF   xDA,F
....................                RX_Buffer[4]=0x00; 
0E156:  CLRF   34
....................                RX_Buffer2[4]=0x00;             
0E158:  CLRF   3F
0E15A:  MOVLB  0
....................                //BorraBuffer(); 
....................             } 
....................          } 
....................       }else if(Opcion2==7){ 
0E15C:  BRA    E4A2
0E15E:  MOVLB  3
0E160:  MOVF   x65,W
0E162:  SUBLW  07
0E164:  BNZ   E21C
....................          printf("Config.t2c.txt=\"Media\""); 
0E166:  MOVLW  4E
0E168:  MOVWF  FF6
0E16A:  MOVLW  19
0E16C:  MOVWF  FF7
0E16E:  MOVLW  00
0E170:  MOVWF  FF8
0E172:  MOVLB  0
0E174:  CALL   3BB2
....................          SendDataDisplay();       
0E178:  CALL   3BE4
....................          printf("t3c.txt=\"%u\"",MediaMovil); 
0E17C:  MOVLW  66
0E17E:  MOVWF  FF6
0E180:  MOVLW  19
0E182:  MOVWF  FF7
0E184:  MOVLW  00
0E186:  MOVWF  FF8
0E188:  MOVLW  09
0E18A:  MOVLB  4
0E18C:  MOVWF  x4F
0E18E:  MOVLB  0
0E190:  CALL   4B26
0E194:  MOVFF  2DB,44F
0E198:  MOVLW  1B
0E19A:  MOVLB  4
0E19C:  MOVWF  x50
0E19E:  MOVLB  0
0E1A0:  CALL   4B84
0E1A4:  MOVLW  22
0E1A6:  BTFSS  F9E.4
0E1A8:  BRA    E1A6
0E1AA:  MOVWF  FAD
....................          SendDataDisplay(); 
0E1AC:  CALL   3BE4
....................          if(RX_Buffer[4]==0x0a || UP){//Tecla Arriba Oprimida 
0E1B0:  MOVF   34,W
0E1B2:  SUBLW  0A
0E1B4:  BZ    E1BC
0E1B6:  BSF    F93.0
0E1B8:  BTFSC  F81.0
0E1BA:  BRA    E1E4
....................             delay_ms(20); 
0E1BC:  MOVLW  14
0E1BE:  MOVLB  4
0E1C0:  MOVWF  x62
0E1C2:  MOVLB  0
0E1C4:  CALL   1A6C
....................             if(RX_Buffer[4]==0x0a || UP){ 
0E1C8:  MOVF   34,W
0E1CA:  SUBLW  0A
0E1CC:  BZ    E1D4
0E1CE:  BSF    F93.0
0E1D0:  BTFSC  F81.0
0E1D2:  BRA    E1E4
....................                if(MediaMovil<80) 
0E1D4:  MOVLB  2
0E1D6:  MOVF   xDB,W
0E1D8:  SUBLW  4F
0E1DA:  BNC   E1DE
....................                   MediaMovil++; 
0E1DC:  INCF   xDB,F
....................                RX_Buffer[4]=0x00;   
0E1DE:  CLRF   34
....................                RX_Buffer2[4]=0x00;             
0E1E0:  CLRF   3F
0E1E2:  MOVLB  0
....................                //BorraBuffer(); 
....................             } 
....................          } 
....................              
....................          if(RX_Buffer[4]==0x0b || DOWN){//Tecla Abajo Oprimida 
0E1E4:  MOVF   34,W
0E1E6:  SUBLW  0B
0E1E8:  BZ    E1F0
0E1EA:  BSF    F93.1
0E1EC:  BTFSC  F81.1
0E1EE:  BRA    E218
....................             delay_ms(20); 
0E1F0:  MOVLW  14
0E1F2:  MOVLB  4
0E1F4:  MOVWF  x62
0E1F6:  MOVLB  0
0E1F8:  CALL   1A6C
....................             if(RX_Buffer[4]==0x0b || DOWN){ 
0E1FC:  MOVF   34,W
0E1FE:  SUBLW  0B
0E200:  BZ    E208
0E202:  BSF    F93.1
0E204:  BTFSC  F81.1
0E206:  BRA    E218
....................                if(MediaMovil>10) 
0E208:  MOVLB  2
0E20A:  MOVF   xDB,W
0E20C:  SUBLW  0A
0E20E:  BC    E212
....................                   MediaMovil--; 
0E210:  DECF   xDB,F
....................                RX_Buffer[4]=0x00; 
0E212:  CLRF   34
....................                RX_Buffer2[4]=0x00;             
0E214:  CLRF   3F
0E216:  MOVLB  0
....................                //BorraBuffer(); 
....................             } 
....................          } 
....................       }else if(Opcion2==8){ 
0E218:  BRA    E4A2
0E21A:  MOVLB  3
0E21C:  MOVF   x65,W
0E21E:  SUBLW  08
0E220:  BNZ   E2DA
....................          printf("Config.t2c.txt=\"Pulsos Purga\""); 
0E222:  MOVLW  74
0E224:  MOVWF  FF6
0E226:  MOVLW  19
0E228:  MOVWF  FF7
0E22A:  MOVLW  00
0E22C:  MOVWF  FF8
0E22E:  MOVLB  0
0E230:  CALL   3BB2
....................          SendDataDisplay();       
0E234:  CALL   3BE4
....................          printf("t3c.txt=\"%02u\"",pulsosPurgaProgramados); 
0E238:  MOVLW  92
0E23A:  MOVWF  FF6
0E23C:  MOVLW  19
0E23E:  MOVWF  FF7
0E240:  MOVLW  00
0E242:  MOVWF  FF8
0E244:  MOVLW  09
0E246:  MOVLB  4
0E248:  MOVWF  x4F
0E24A:  MOVLB  0
0E24C:  CALL   4B26
0E250:  MOVFF  33D,44F
0E254:  MOVLW  01
0E256:  MOVLB  4
0E258:  MOVWF  x50
0E25A:  MOVLB  0
0E25C:  CALL   4B84
0E260:  MOVLW  22
0E262:  BTFSS  F9E.4
0E264:  BRA    E262
0E266:  MOVWF  FAD
....................          SendDataDisplay(); 
0E268:  CALL   3BE4
....................          if(RX_Buffer[4]==0x0a || UP){//Tecla Arriba Oprimida 
0E26C:  MOVF   34,W
0E26E:  SUBLW  0A
0E270:  BZ    E278
0E272:  BSF    F93.0
0E274:  BTFSC  F81.0
0E276:  BRA    E2A2
....................             delay_ms(20); 
0E278:  MOVLW  14
0E27A:  MOVLB  4
0E27C:  MOVWF  x62
0E27E:  MOVLB  0
0E280:  CALL   1A6C
....................             if(RX_Buffer[4]==0x0a || UP){ 
0E284:  MOVF   34,W
0E286:  SUBLW  0A
0E288:  BZ    E290
0E28A:  BSF    F93.0
0E28C:  BTFSC  F81.0
0E28E:  BRA    E2A2
....................                if(pulsosPurgaProgramados<30) 
0E290:  MOVLB  3
0E292:  MOVF   x3D,W
0E294:  SUBLW  1D
0E296:  BNC   E29C
....................                   pulsosPurgaProgramados+=1; 
0E298:  MOVLW  01
0E29A:  ADDWF  x3D,F
....................                RX_Buffer[4]=0x00;   
0E29C:  CLRF   34
....................                RX_Buffer2[4]=0x00;             
0E29E:  CLRF   3F
0E2A0:  MOVLB  0
....................                //BorraBuffer(); 
....................             } 
....................          } 
....................              
....................          if(RX_Buffer[4]==0x0b || DOWN){//Tecla Abajo Oprimida 
0E2A2:  MOVF   34,W
0E2A4:  SUBLW  0B
0E2A6:  BZ    E2AE
0E2A8:  BSF    F93.1
0E2AA:  BTFSC  F81.1
0E2AC:  BRA    E2D6
....................             delay_ms(20); 
0E2AE:  MOVLW  14
0E2B0:  MOVLB  4
0E2B2:  MOVWF  x62
0E2B4:  MOVLB  0
0E2B6:  CALL   1A6C
....................             if(RX_Buffer[4]==0x0b || DOWN){ 
0E2BA:  MOVF   34,W
0E2BC:  SUBLW  0B
0E2BE:  BZ    E2C6
0E2C0:  BSF    F93.1
0E2C2:  BTFSC  F81.1
0E2C4:  BRA    E2D6
....................                if(pulsosPurgaProgramados>0) 
0E2C6:  MOVLB  3
0E2C8:  MOVF   x3D,F
0E2CA:  BZ    E2D0
....................                   pulsosPurgaProgramados-=1; 
0E2CC:  MOVLW  01
0E2CE:  SUBWF  x3D,F
....................                RX_Buffer[4]=0x00; 
0E2D0:  CLRF   34
....................                RX_Buffer2[4]=0x00;             
0E2D2:  CLRF   3F
0E2D4:  MOVLB  0
....................                //BorraBuffer(); 
....................             } 
....................          } 
....................       }else if(Opcion2==9){ 
0E2D6:  BRA    E4A2
0E2D8:  MOVLB  3
0E2DA:  MOVF   x65,W
0E2DC:  SUBLW  09
0E2DE:  BNZ   E396
....................          printf("Config.t2c.txt=\"TTrampa\""); 
0E2E0:  MOVLW  A2
0E2E2:  MOVWF  FF6
0E2E4:  MOVLW  19
0E2E6:  MOVWF  FF7
0E2E8:  MOVLW  00
0E2EA:  MOVWF  FF8
0E2EC:  MOVLB  0
0E2EE:  CALL   3BB2
....................          SendDataDisplay();       
0E2F2:  CALL   3BE4
....................          printf("t3c.txt=\"%02u\"",TTrampa); 
0E2F6:  MOVLW  BC
0E2F8:  MOVWF  FF6
0E2FA:  MOVLW  19
0E2FC:  MOVWF  FF7
0E2FE:  MOVLW  00
0E300:  MOVWF  FF8
0E302:  MOVLW  09
0E304:  MOVLB  4
0E306:  MOVWF  x4F
0E308:  MOVLB  0
0E30A:  CALL   4B26
0E30E:  MOVFF  2DC,44F
0E312:  MOVLW  01
0E314:  MOVLB  4
0E316:  MOVWF  x50
0E318:  MOVLB  0
0E31A:  CALL   4B84
0E31E:  MOVLW  22
0E320:  BTFSS  F9E.4
0E322:  BRA    E320
0E324:  MOVWF  FAD
....................          SendDataDisplay(); 
0E326:  CALL   3BE4
....................          if(RX_Buffer[4]==0x0a || UP){//Tecla Arriba Oprimida 
0E32A:  MOVF   34,W
0E32C:  SUBLW  0A
0E32E:  BZ    E336
0E330:  BSF    F93.0
0E332:  BTFSC  F81.0
0E334:  BRA    E35E
....................             delay_ms(20); 
0E336:  MOVLW  14
0E338:  MOVLB  4
0E33A:  MOVWF  x62
0E33C:  MOVLB  0
0E33E:  CALL   1A6C
....................             if(RX_Buffer[4]==0x0a || UP){ 
0E342:  MOVF   34,W
0E344:  SUBLW  0A
0E346:  BZ    E34E
0E348:  BSF    F93.0
0E34A:  BTFSC  F81.0
0E34C:  BRA    E35E
....................                if(TTrampa<100) 
0E34E:  MOVLB  2
0E350:  MOVF   xDC,W
0E352:  SUBLW  63
0E354:  BNC   E358
....................                   TTrampa++; 
0E356:  INCF   xDC,F
....................                RX_Buffer[4]=0x00;   
0E358:  CLRF   34
....................                RX_Buffer2[4]=0x00;             
0E35A:  CLRF   3F
0E35C:  MOVLB  0
....................                //BorraBuffer(); 
....................             } 
....................          } 
....................              
....................          if(RX_Buffer[4]==0x0b || DOWN){//Tecla Abajo Oprimida 
0E35E:  MOVF   34,W
0E360:  SUBLW  0B
0E362:  BZ    E36A
0E364:  BSF    F93.1
0E366:  BTFSC  F81.1
0E368:  BRA    E392
....................             delay_ms(20); 
0E36A:  MOVLW  14
0E36C:  MOVLB  4
0E36E:  MOVWF  x62
0E370:  MOVLB  0
0E372:  CALL   1A6C
....................             if(RX_Buffer[4]==0x0b || DOWN){ 
0E376:  MOVF   34,W
0E378:  SUBLW  0B
0E37A:  BZ    E382
0E37C:  BSF    F93.1
0E37E:  BTFSC  F81.1
0E380:  BRA    E392
....................                if(TTrampa>50) 
0E382:  MOVLB  2
0E384:  MOVF   xDC,W
0E386:  SUBLW  32
0E388:  BC    E38C
....................                   TTrampa--; 
0E38A:  DECF   xDC,F
....................                RX_Buffer[4]=0x00; 
0E38C:  CLRF   34
....................                RX_Buffer2[4]=0x00;             
0E38E:  CLRF   3F
0E390:  MOVLB  0
....................                //BorraBuffer(); 
....................             } 
....................          } 
....................       }else if(Opcion2==10){ 
0E392:  BRA    E4A2
0E394:  MOVLB  3
0E396:  MOVF   x65,W
0E398:  SUBLW  0A
0E39A:  BNZ   E3EA
....................          printf("Config.t2c.txt=\"Ciclos\""); 
0E39C:  MOVLW  CC
0E39E:  MOVWF  FF6
0E3A0:  MOVLW  19
0E3A2:  MOVWF  FF7
0E3A4:  MOVLW  00
0E3A6:  MOVWF  FF8
0E3A8:  MOVLB  0
0E3AA:  CALL   3BB2
....................          SendDataDisplay();       
0E3AE:  CALL   3BE4
....................          printf("t3c.txt=\"%05Lu\"",Ciclos); 
0E3B2:  MOVLW  E4
0E3B4:  MOVWF  FF6
0E3B6:  MOVLW  19
0E3B8:  MOVWF  FF7
0E3BA:  MOVLW  00
0E3BC:  MOVWF  FF8
0E3BE:  MOVLW  09
0E3C0:  MOVLB  4
0E3C2:  MOVWF  x4F
0E3C4:  MOVLB  0
0E3C6:  CALL   4B26
0E3CA:  MOVLW  08
0E3CC:  MOVWF  FE9
0E3CE:  MOVFF  37A,450
0E3D2:  MOVFF  379,44F
0E3D6:  CALL   54DC
0E3DA:  MOVLW  22
0E3DC:  BTFSS  F9E.4
0E3DE:  BRA    E3DC
0E3E0:  MOVWF  FAD
....................          SendDataDisplay(); 
0E3E2:  CALL   3BE4
....................       }else if(Opcion2==11){ 
0E3E6:  BRA    E4A2
0E3E8:  MOVLB  3
0E3EA:  MOVF   x65,W
0E3EC:  SUBLW  0B
0E3EE:  BNZ   E4A0
....................          printf("Config.t2c.txt=\"Atmosferica\""); 
0E3F0:  MOVLW  F4
0E3F2:  MOVWF  FF6
0E3F4:  MOVLW  19
0E3F6:  MOVWF  FF7
0E3F8:  MOVLW  00
0E3FA:  MOVWF  FF8
0E3FC:  MOVLB  0
0E3FE:  CALL   3BB2
....................          SendDataDisplay();    
0E402:  CALL   3BE4
....................          printf("t3c.txt=\"%02u\"",Atmosferica); 
0E406:  MOVLW  12
0E408:  MOVWF  FF6
0E40A:  MOVLW  1A
0E40C:  MOVWF  FF7
0E40E:  MOVLW  00
0E410:  MOVWF  FF8
0E412:  MOVLW  09
0E414:  MOVLB  4
0E416:  MOVWF  x4F
0E418:  MOVLB  0
0E41A:  CALL   4B26
0E41E:  MOVFF  3B8,44F
0E422:  MOVLW  01
0E424:  MOVLB  4
0E426:  MOVWF  x50
0E428:  MOVLB  0
0E42A:  CALL   4B84
0E42E:  MOVLW  22
0E430:  BTFSS  F9E.4
0E432:  BRA    E430
0E434:  MOVWF  FAD
....................          SendDataDisplay(); 
0E436:  CALL   3BE4
....................           
....................          #if defined(PT100Fija) && !defined(Absoluta) 
....................             Atmosferica=0; 
....................          #else 
....................             if(RX_Buffer[4]==0x0a || UP){//Tecla Arriba Oprimida 
0E43A:  MOVF   34,W
0E43C:  SUBLW  0A
0E43E:  BZ    E446
0E440:  BSF    F93.0
0E442:  BTFSC  F81.0
0E444:  BRA    E46E
....................                delay_ms(20); 
0E446:  MOVLW  14
0E448:  MOVLB  4
0E44A:  MOVWF  x62
0E44C:  MOVLB  0
0E44E:  CALL   1A6C
....................                if(RX_Buffer[4]==0x0a || UP){ 
0E452:  MOVF   34,W
0E454:  SUBLW  0A
0E456:  BZ    E45E
0E458:  BSF    F93.0
0E45A:  BTFSC  F81.0
0E45C:  BRA    E46E
....................                   if(Atmosferica<100) 
0E45E:  MOVLB  3
0E460:  MOVF   xB8,W
0E462:  SUBLW  63
0E464:  BNC   E468
....................                      Atmosferica++; 
0E466:  INCF   xB8,F
....................                   RX_Buffer[4]=0x00;   
0E468:  CLRF   34
....................                   RX_Buffer2[4]=0x00;             
0E46A:  CLRF   3F
0E46C:  MOVLB  0
....................                   //BorraBuffer(); 
....................                } 
....................             } 
....................                 
....................             if(RX_Buffer[4]==0x0b || DOWN){//Tecla Abajo Oprimida 
0E46E:  MOVF   34,W
0E470:  SUBLW  0B
0E472:  BZ    E47A
0E474:  BSF    F93.1
0E476:  BTFSC  F81.1
0E478:  BRA    E4A2
....................                delay_ms(20); 
0E47A:  MOVLW  14
0E47C:  MOVLB  4
0E47E:  MOVWF  x62
0E480:  MOVLB  0
0E482:  CALL   1A6C
....................                if(RX_Buffer[4]==0x0b || DOWN){ 
0E486:  MOVF   34,W
0E488:  SUBLW  0B
0E48A:  BZ    E492
0E48C:  BSF    F93.1
0E48E:  BTFSC  F81.1
0E490:  BRA    E4A2
....................                   if(Atmosferica>50) 
0E492:  MOVLB  3
0E494:  MOVF   xB8,W
0E496:  SUBLW  32
0E498:  BC    E49C
....................                      Atmosferica--; 
0E49A:  DECF   xB8,F
....................                   RX_Buffer[4]=0x00; 
0E49C:  CLRF   34
....................                   RX_Buffer2[4]=0x00;             
0E49E:  CLRF   3F
0E4A0:  MOVLB  0
....................                   //BorraBuffer(); 
....................                } 
....................             }  
....................          #endif 
....................       } 
....................        
....................       if(RX_Buffer[4]==0x0c || LEFT){//Tecla Izquierda Oprimida 
0E4A2:  MOVF   34,W
0E4A4:  SUBLW  0C
0E4A6:  BZ    E4AE
0E4A8:  BSF    F93.3
0E4AA:  BTFSC  F81.3
0E4AC:  BRA    E4D0
....................          delay_ms(20); 
0E4AE:  MOVLW  14
0E4B0:  MOVLB  4
0E4B2:  MOVWF  x62
0E4B4:  MOVLB  0
0E4B6:  CALL   1A6C
....................          if(RX_Buffer[4]==0x0c || LEFT){ 
0E4BA:  MOVF   34,W
0E4BC:  SUBLW  0C
0E4BE:  BZ    E4C6
0E4C0:  BSF    F93.3
0E4C2:  BTFSC  F81.3
0E4C4:  BRA    E4D0
....................             Opcion2++; 
0E4C6:  MOVLB  3
0E4C8:  INCF   x65,F
....................             RX_Buffer[4]=0x00;   
0E4CA:  CLRF   34
....................             RX_Buffer2[4]=0x00;             
0E4CC:  CLRF   3F
0E4CE:  MOVLB  0
....................             //BorraBuffer(); 
....................          } 
....................       } 
....................           
....................       if(RX_Buffer[4]==0x0d || RIGHT){//Tecla Derecha Oprimida 
0E4D0:  MOVF   34,W
0E4D2:  SUBLW  0D
0E4D4:  BZ    E4DC
0E4D6:  BSF    F93.2
0E4D8:  BTFSC  F81.2
0E4DA:  BRA    E4FE
....................          delay_ms(20); 
0E4DC:  MOVLW  14
0E4DE:  MOVLB  4
0E4E0:  MOVWF  x62
0E4E2:  MOVLB  0
0E4E4:  CALL   1A6C
....................          if(RX_Buffer[4]==0x0d || RIGHT){ 
0E4E8:  MOVF   34,W
0E4EA:  SUBLW  0D
0E4EC:  BZ    E4F4
0E4EE:  BSF    F93.2
0E4F0:  BTFSC  F81.2
0E4F2:  BRA    E4FE
....................             Opcion2--; 
0E4F4:  MOVLB  3
0E4F6:  DECF   x65,F
....................             RX_Buffer[4]=0x00; 
0E4F8:  CLRF   34
....................             RX_Buffer2[4]=0x00;             
0E4FA:  CLRF   3F
0E4FC:  MOVLB  0
....................             //BorraBuffer(); 
....................          } 
....................       } 
....................        
....................       if(RX_Buffer[4]==0x11 || (RIGHT && LEFT)){//Tecla Regresar 
0E4FE:  MOVF   34,W
0E500:  SUBLW  11
0E502:  BZ    E510
0E504:  BSF    F93.2
0E506:  BTFSC  F81.2
0E508:  BRA    E8EC
0E50A:  BSF    F93.3
0E50C:  BTFSC  F81.3
0E50E:  BRA    E8EC
....................          delay_ms(20); 
0E510:  MOVLW  14
0E512:  MOVLB  4
0E514:  MOVWF  x62
0E516:  MOVLB  0
0E518:  CALL   1A6C
....................          if(RX_Buffer[4]==0x11 || (RIGHT && LEFT)){ 
0E51C:  MOVF   34,W
0E51E:  SUBLW  11
0E520:  BZ    E52E
0E522:  BSF    F93.2
0E524:  BTFSC  F81.2
0E526:  BRA    E8EC
0E528:  BSF    F93.3
0E52A:  BTFSC  F81.3
0E52C:  BRA    E8EC
....................             if(!GuardaEEPROM){ 
0E52E:  BTFSC  xA2.6
0E530:  BRA    E8D8
....................                write_eeprom(20,(int8)Ganancia); 
0E532:  MOVFF  308,461
0E536:  MOVFF  307,460
0E53A:  MOVFF  306,45F
0E53E:  MOVFF  305,45E
0E542:  CALL   43CC
0E546:  MOVFF  01,449
0E54A:  CLRF   FAA
0E54C:  MOVLW  14
0E54E:  MOVWF  FA9
0E550:  MOVFF  449,FA8
0E554:  BCF    FA6.6
0E556:  BCF    FA6.7
0E558:  BSF    FA6.2
0E55A:  MOVF   FF2,W
0E55C:  MOVWF  00
0E55E:  BCF    FF2.6
0E560:  BCF    FF2.7
0E562:  MOVLB  F
0E564:  MOVLW  55
0E566:  MOVWF  FA7
0E568:  MOVLW  AA
0E56A:  MOVWF  FA7
0E56C:  BSF    FA6.1
0E56E:  BTFSC  FA6.1
0E570:  BRA    E56E
0E572:  BCF    FA6.2
0E574:  MOVF   00,W
0E576:  IORWF  FF2,F
....................                delay_ms(10); 
0E578:  MOVLW  0A
0E57A:  MOVLB  4
0E57C:  MOVWF  x62
0E57E:  MOVLB  0
0E580:  CALL   1A6C
....................                write_eeprom(26,(int8)Integral); 
0E584:  CLRF   FAA
0E586:  MOVLW  1A
0E588:  MOVWF  FA9
0E58A:  MOVFF  339,FA8
0E58E:  BCF    FA6.6
0E590:  BCF    FA6.7
0E592:  BSF    FA6.2
0E594:  MOVF   FF2,W
0E596:  MOVWF  00
0E598:  BCF    FF2.6
0E59A:  BCF    FF2.7
0E59C:  MOVLB  F
0E59E:  MOVLW  55
0E5A0:  MOVWF  FA7
0E5A2:  MOVLW  AA
0E5A4:  MOVWF  FA7
0E5A6:  BSF    FA6.1
0E5A8:  BTFSC  FA6.1
0E5AA:  BRA    E5A8
0E5AC:  BCF    FA6.2
0E5AE:  MOVF   00,W
0E5B0:  IORWF  FF2,F
....................                delay_ms(10); 
0E5B2:  MOVLW  0A
0E5B4:  MOVLB  4
0E5B6:  MOVWF  x62
0E5B8:  MOVLB  0
0E5BA:  CALL   1A6C
....................                write_eeprom(27,(int8)Derivativo); 
0E5BE:  CLRF   FAA
0E5C0:  MOVLW  1B
0E5C2:  MOVWF  FA9
0E5C4:  MOVFF  33A,FA8
0E5C8:  BCF    FA6.6
0E5CA:  BCF    FA6.7
0E5CC:  BSF    FA6.2
0E5CE:  MOVF   FF2,W
0E5D0:  MOVWF  00
0E5D2:  BCF    FF2.6
0E5D4:  BCF    FF2.7
0E5D6:  MOVLB  F
0E5D8:  MOVLW  55
0E5DA:  MOVWF  FA7
0E5DC:  MOVLW  AA
0E5DE:  MOVWF  FA7
0E5E0:  BSF    FA6.1
0E5E2:  BTFSC  FA6.1
0E5E4:  BRA    E5E2
0E5E6:  BCF    FA6.2
0E5E8:  MOVF   00,W
0E5EA:  IORWF  FF2,F
....................                delay_ms(10); 
0E5EC:  MOVLW  0A
0E5EE:  MOVLB  4
0E5F0:  MOVWF  x62
0E5F2:  MOVLB  0
0E5F4:  CALL   1A6C
....................                write_eeprom(25,(int8)Tciclo); 
0E5F8:  MOVFF  2F0,461
0E5FC:  MOVFF  2EF,460
0E600:  MOVFF  2EE,45F
0E604:  MOVFF  2ED,45E
0E608:  CALL   43CC
0E60C:  MOVFF  01,449
0E610:  CLRF   FAA
0E612:  MOVLW  19
0E614:  MOVWF  FA9
0E616:  MOVFF  449,FA8
0E61A:  BCF    FA6.6
0E61C:  BCF    FA6.7
0E61E:  BSF    FA6.2
0E620:  MOVF   FF2,W
0E622:  MOVWF  00
0E624:  BCF    FF2.6
0E626:  BCF    FF2.7
0E628:  MOVLB  F
0E62A:  MOVLW  55
0E62C:  MOVWF  FA7
0E62E:  MOVLW  AA
0E630:  MOVWF  FA7
0E632:  BSF    FA6.1
0E634:  BTFSC  FA6.1
0E636:  BRA    E634
0E638:  BCF    FA6.2
0E63A:  MOVF   00,W
0E63C:  IORWF  FF2,F
....................                delay_ms(10); 
0E63E:  MOVLW  0A
0E640:  MOVLB  4
0E642:  MOVWF  x62
0E644:  MOVLB  0
0E646:  CALL   1A6C
....................                write_eeprom(21,Ajuste); 
0E64A:  CLRF   FAA
0E64C:  MOVLW  15
0E64E:  MOVWF  FA9
0E650:  MOVFF  2D9,FA8
0E654:  BCF    FA6.6
0E656:  BCF    FA6.7
0E658:  BSF    FA6.2
0E65A:  MOVF   FF2,W
0E65C:  MOVWF  00
0E65E:  BCF    FF2.6
0E660:  BCF    FF2.7
0E662:  MOVLB  F
0E664:  MOVLW  55
0E666:  MOVWF  FA7
0E668:  MOVLW  AA
0E66A:  MOVWF  FA7
0E66C:  BSF    FA6.1
0E66E:  BTFSC  FA6.1
0E670:  BRA    E66E
0E672:  BCF    FA6.2
0E674:  MOVF   00,W
0E676:  IORWF  FF2,F
....................                delay_ms(10); 
0E678:  MOVLW  0A
0E67A:  MOVLB  4
0E67C:  MOVWF  x62
0E67E:  MOVLB  0
0E680:  CALL   1A6C
....................                write_eeprom(22,Ajusten); 
0E684:  CLRF   FAA
0E686:  MOVLW  16
0E688:  MOVWF  FA9
0E68A:  MOVFF  2DA,FA8
0E68E:  BCF    FA6.6
0E690:  BCF    FA6.7
0E692:  BSF    FA6.2
0E694:  MOVF   FF2,W
0E696:  MOVWF  00
0E698:  BCF    FF2.6
0E69A:  BCF    FF2.7
0E69C:  MOVLB  F
0E69E:  MOVLW  55
0E6A0:  MOVWF  FA7
0E6A2:  MOVLW  AA
0E6A4:  MOVWF  FA7
0E6A6:  BSF    FA6.1
0E6A8:  BTFSC  FA6.1
0E6AA:  BRA    E6A8
0E6AC:  BCF    FA6.2
0E6AE:  MOVF   00,W
0E6B0:  IORWF  FF2,F
....................                delay_ms(10); 
0E6B2:  MOVLW  0A
0E6B4:  MOVLB  4
0E6B6:  MOVWF  x62
0E6B8:  MOVLB  0
0E6BA:  CALL   1A6C
....................                write_eeprom(24,(int8)MediaMovil); 
0E6BE:  CLRF   FAA
0E6C0:  MOVLW  18
0E6C2:  MOVWF  FA9
0E6C4:  MOVFF  2DB,FA8
0E6C8:  BCF    FA6.6
0E6CA:  BCF    FA6.7
0E6CC:  BSF    FA6.2
0E6CE:  MOVF   FF2,W
0E6D0:  MOVWF  00
0E6D2:  BCF    FF2.6
0E6D4:  BCF    FF2.7
0E6D6:  MOVLB  F
0E6D8:  MOVLW  55
0E6DA:  MOVWF  FA7
0E6DC:  MOVLW  AA
0E6DE:  MOVWF  FA7
0E6E0:  BSF    FA6.1
0E6E2:  BTFSC  FA6.1
0E6E4:  BRA    E6E2
0E6E6:  BCF    FA6.2
0E6E8:  MOVF   00,W
0E6EA:  IORWF  FF2,F
....................                delay_ms(10); 
0E6EC:  MOVLW  0A
0E6EE:  MOVLB  4
0E6F0:  MOVWF  x62
0E6F2:  MOVLB  0
0E6F4:  CALL   1A6C
....................                write_eeprom(32,(int8)RPT100); 
0E6F8:  MOVFF  2AA,461
0E6FC:  MOVFF  2A9,460
0E700:  MOVFF  2A8,45F
0E704:  MOVFF  2A7,45E
0E708:  CALL   43CC
0E70C:  MOVFF  01,449
0E710:  CLRF   FAA
0E712:  MOVLW  20
0E714:  MOVWF  FA9
0E716:  MOVFF  449,FA8
0E71A:  BCF    FA6.6
0E71C:  BCF    FA6.7
0E71E:  BSF    FA6.2
0E720:  MOVF   FF2,W
0E722:  MOVWF  00
0E724:  BCF    FF2.6
0E726:  BCF    FF2.7
0E728:  MOVLB  F
0E72A:  MOVLW  55
0E72C:  MOVWF  FA7
0E72E:  MOVLW  AA
0E730:  MOVWF  FA7
0E732:  BSF    FA6.1
0E734:  BTFSC  FA6.1
0E736:  BRA    E734
0E738:  BCF    FA6.2
0E73A:  MOVF   00,W
0E73C:  IORWF  FF2,F
....................                delay_ms(10); 
0E73E:  MOVLW  0A
0E740:  MOVLB  4
0E742:  MOVWF  x62
0E744:  MOVLB  0
0E746:  CALL   1A6C
....................                Temporal=RPT100-((int8)RPT100); 
0E74A:  MOVFF  2AA,461
0E74E:  MOVFF  2A9,460
0E752:  MOVFF  2A8,45F
0E756:  MOVFF  2A7,45E
0E75A:  CALL   43CC
0E75E:  MOVLB  4
0E760:  CLRF   x5F
0E762:  MOVFF  01,45E
0E766:  MOVLB  0
0E768:  CALL   1A94
0E76C:  BSF    FD8.1
0E76E:  MOVFF  2AA,461
0E772:  MOVFF  2A9,460
0E776:  MOVFF  2A8,45F
0E77A:  MOVFF  2A7,45E
0E77E:  MOVFF  03,465
0E782:  MOVFF  02,464
0E786:  MOVFF  01,463
0E78A:  MOVFF  00,462
0E78E:  CALL   1C28
0E792:  MOVFF  03,2AE
0E796:  MOVFF  02,2AD
0E79A:  MOVFF  01,2AC
0E79E:  MOVFF  00,2AB
....................                Temporal=Temporal*10; 
0E7A2:  MOVFF  2AE,465
0E7A6:  MOVFF  2AD,464
0E7AA:  MOVFF  2AC,463
0E7AE:  MOVFF  2AB,462
0E7B2:  MOVLB  4
0E7B4:  CLRF   x69
0E7B6:  CLRF   x68
0E7B8:  MOVLW  20
0E7BA:  MOVWF  x67
0E7BC:  MOVLW  82
0E7BE:  MOVWF  x66
0E7C0:  MOVLB  0
0E7C2:  CALL   3C90
0E7C6:  MOVFF  03,2AE
0E7CA:  MOVFF  02,2AD
0E7CE:  MOVFF  01,2AC
0E7D2:  MOVFF  00,2AB
....................                write_eeprom(33,(int8)Temporal); 
0E7D6:  MOVFF  2AE,461
0E7DA:  MOVFF  2AD,460
0E7DE:  MOVFF  2AC,45F
0E7E2:  MOVFF  2AB,45E
0E7E6:  CALL   43CC
0E7EA:  MOVFF  01,449
0E7EE:  CLRF   FAA
0E7F0:  MOVLW  21
0E7F2:  MOVWF  FA9
0E7F4:  MOVFF  449,FA8
0E7F8:  BCF    FA6.6
0E7FA:  BCF    FA6.7
0E7FC:  BSF    FA6.2
0E7FE:  MOVF   FF2,W
0E800:  MOVWF  00
0E802:  BCF    FF2.6
0E804:  BCF    FF2.7
0E806:  MOVLB  F
0E808:  MOVLW  55
0E80A:  MOVWF  FA7
0E80C:  MOVLW  AA
0E80E:  MOVWF  FA7
0E810:  BSF    FA6.1
0E812:  BTFSC  FA6.1
0E814:  BRA    E812
0E816:  BCF    FA6.2
0E818:  MOVF   00,W
0E81A:  IORWF  FF2,F
....................                delay_ms(10); 
0E81C:  MOVLW  0A
0E81E:  MOVLB  4
0E820:  MOVWF  x62
0E822:  MOVLB  0
0E824:  CALL   1A6C
....................                write_eeprom(39,TTrampa); 
0E828:  CLRF   FAA
0E82A:  MOVLW  27
0E82C:  MOVWF  FA9
0E82E:  MOVFF  2DC,FA8
0E832:  BCF    FA6.6
0E834:  BCF    FA6.7
0E836:  BSF    FA6.2
0E838:  MOVF   FF2,W
0E83A:  MOVWF  00
0E83C:  BCF    FF2.6
0E83E:  BCF    FF2.7
0E840:  MOVLB  F
0E842:  MOVLW  55
0E844:  MOVWF  FA7
0E846:  MOVLW  AA
0E848:  MOVWF  FA7
0E84A:  BSF    FA6.1
0E84C:  BTFSC  FA6.1
0E84E:  BRA    E84C
0E850:  BCF    FA6.2
0E852:  MOVF   00,W
0E854:  IORWF  FF2,F
....................                delay_ms(10); 
0E856:  MOVLW  0A
0E858:  MOVLB  4
0E85A:  MOVWF  x62
0E85C:  MOVLB  0
0E85E:  CALL   1A6C
....................                write_eeprom(46,Atmosferica); 
0E862:  CLRF   FAA
0E864:  MOVLW  2E
0E866:  MOVWF  FA9
0E868:  MOVFF  3B8,FA8
0E86C:  BCF    FA6.6
0E86E:  BCF    FA6.7
0E870:  BSF    FA6.2
0E872:  MOVF   FF2,W
0E874:  MOVWF  00
0E876:  BCF    FF2.6
0E878:  BCF    FF2.7
0E87A:  MOVLB  F
0E87C:  MOVLW  55
0E87E:  MOVWF  FA7
0E880:  MOVLW  AA
0E882:  MOVWF  FA7
0E884:  BSF    FA6.1
0E886:  BTFSC  FA6.1
0E888:  BRA    E886
0E88A:  BCF    FA6.2
0E88C:  MOVF   00,W
0E88E:  IORWF  FF2,F
....................                delay_ms(10); 
0E890:  MOVLW  0A
0E892:  MOVLB  4
0E894:  MOVWF  x62
0E896:  MOVLB  0
0E898:  CALL   1A6C
....................                write_eeprom(47,pulsosPurgaProgramados); 
0E89C:  CLRF   FAA
0E89E:  MOVLW  2F
0E8A0:  MOVWF  FA9
0E8A2:  MOVFF  33D,FA8
0E8A6:  BCF    FA6.6
0E8A8:  BCF    FA6.7
0E8AA:  BSF    FA6.2
0E8AC:  MOVF   FF2,W
0E8AE:  MOVWF  00
0E8B0:  BCF    FF2.6
0E8B2:  BCF    FF2.7
0E8B4:  MOVLB  F
0E8B6:  MOVLW  55
0E8B8:  MOVWF  FA7
0E8BA:  MOVLW  AA
0E8BC:  MOVWF  FA7
0E8BE:  BSF    FA6.1
0E8C0:  BTFSC  FA6.1
0E8C2:  BRA    E8C0
0E8C4:  BCF    FA6.2
0E8C6:  MOVF   00,W
0E8C8:  IORWF  FF2,F
....................                delay_ms(10); 
0E8CA:  MOVLW  0A
0E8CC:  MOVLB  4
0E8CE:  MOVWF  x62
0E8D0:  MOVLB  0
0E8D2:  CALL   1A6C
....................                GuardaEEPROM=ON; 
0E8D6:  BSF    xA2.6
....................             } 
....................             printf("page MenuPrincipal"); 
0E8D8:  MOVLW  22
0E8DA:  MOVWF  FF6
0E8DC:  MOVLW  1A
0E8DE:  MOVWF  FF7
0E8E0:  MOVLW  00
0E8E2:  MOVWF  FF8
0E8E4:  CALL   3BB2
....................             SendDataDisplay(); 
0E8E8:  CALL   3BE4
....................             //BorraBuffer(); 
....................          } 
....................       } 
....................       printf("fecha.txt=\"Fecha:%02u/%02u/20%02u    Hora: %02u:%02u\"",Dia,Mes,Year,Hora,Minuto); 
0E8EC:  MOVLW  36
0E8EE:  MOVWF  FF6
0E8F0:  MOVLW  1A
0E8F2:  MOVWF  FF7
0E8F4:  MOVLW  00
0E8F6:  MOVWF  FF8
0E8F8:  MOVLW  11
0E8FA:  MOVLB  4
0E8FC:  MOVWF  x4F
0E8FE:  MOVLB  0
0E900:  CALL   4B26
0E904:  MOVFF  3AA,44F
0E908:  MOVLW  01
0E90A:  MOVLB  4
0E90C:  MOVWF  x50
0E90E:  MOVLB  0
0E910:  CALL   4B84
0E914:  MOVLW  2F
0E916:  BTFSS  F9E.4
0E918:  BRA    E916
0E91A:  MOVWF  FAD
0E91C:  MOVFF  3A9,44F
0E920:  MOVLW  01
0E922:  MOVLB  4
0E924:  MOVWF  x50
0E926:  MOVLB  0
0E928:  CALL   4B84
0E92C:  MOVLW  2F
0E92E:  BTFSS  F9E.4
0E930:  BRA    E92E
0E932:  MOVWF  FAD
0E934:  MOVLW  32
0E936:  BTFSS  F9E.4
0E938:  BRA    E936
0E93A:  MOVWF  FAD
0E93C:  MOVLW  30
0E93E:  BTFSS  F9E.4
0E940:  BRA    E93E
0E942:  MOVWF  FAD
0E944:  MOVFF  3A8,44F
0E948:  MOVLW  01
0E94A:  MOVLB  4
0E94C:  MOVWF  x50
0E94E:  MOVLB  0
0E950:  CALL   4B84
0E954:  MOVLW  57
0E956:  MOVWF  FF6
0E958:  MOVLW  1A
0E95A:  MOVWF  FF7
0E95C:  MOVLW  00
0E95E:  MOVWF  FF8
0E960:  MOVLW  0A
0E962:  MOVLB  4
0E964:  MOVWF  x4F
0E966:  MOVLB  0
0E968:  CALL   4B26
0E96C:  MOVFF  3AB,44F
0E970:  MOVLW  01
0E972:  MOVLB  4
0E974:  MOVWF  x50
0E976:  MOVLB  0
0E978:  CALL   4B84
0E97C:  MOVLW  3A
0E97E:  BTFSS  F9E.4
0E980:  BRA    E97E
0E982:  MOVWF  FAD
0E984:  MOVFF  3AC,44F
0E988:  MOVLW  01
0E98A:  MOVLB  4
0E98C:  MOVWF  x50
0E98E:  MOVLB  0
0E990:  CALL   4B84
0E994:  MOVLW  22
0E996:  BTFSS  F9E.4
0E998:  BRA    E996
0E99A:  MOVWF  FAD
....................       SendDataDisplay();  
0E99C:  CALL   3BE4
0E9A0:  MOVLB  3
....................     } 
.................... //_--------------------------------------------------------------------------------------------------------------------------------------------------------        
....................  
....................    } 
0E9A2:  GOTO   843E
.................... } 
0E9A6:  SLEEP 

Configuration Fuses:
   Word  1: 0200   HS NOIESO NOFCMEN
   Word  2: 1B1F   BROWNOUT WDT BORV20 NOPUT WDT8192
   Word  3: 0000   NOPBADEN NOLPT1OSC NOMCLR
   Word  4: 00B0   NOSTVREN NODEBUG NOLVP NOXINST BBSIZ4K
   Word  5: C03F   NOPROTECT NOCPD NOCPB
   Word  6: E03F   NOWRT NOWRTD NOWRTC NOWRTB
   Word  7: 403F   NOEBTR NOEBTRB
