CCS PCH C Compiler, Version 4.104, 5967               14-sept.-20 08:53

               Filename: D:\Laboratorio\Autoclave\Autoclave Horizontal\Con Precamara\2020\Autoclave 85L Neumatica Sinergia Pharma OP2020176 #0045882XX\FirmwareV3.0.0\NextionController\GLCD_Controller.lst

               ROM used: 62692 bytes (64%)
                         Largest free fragment is 32768
               RAM used: 1747 (52%) at main() level
                         1774 (53%) worst case
               Stack:    5 worst case (4 in main + 1 for interrupts)

*
00000:  GOTO   7886
*
00008:  GOTO   00AE
0000C:  NOP   
0000E:  NOP   
00010:  NOP   
00012:  NOP   
00014:  NOP   
00016:  NOP   
00018:  MOVWF  04
0001A:  MOVFF  FD8,05
0001E:  MOVFF  FE0,06
00022:  MOVLB  0
00024:  MOVFF  FE9,0C
00028:  MOVFF  FEA,07
0002C:  MOVFF  FE1,08
00030:  MOVFF  FE2,09
00034:  MOVFF  FD9,0A
00038:  MOVFF  FDA,0B
0003C:  MOVFF  FF3,12
00040:  MOVFF  FF4,13
00044:  MOVFF  FFA,14
00048:  MOVFF  FFB,15
0004C:  MOVFF  00,0E
00050:  MOVFF  01,0F
00054:  MOVFF  02,10
00058:  MOVFF  03,11
0005C:  BTFSS  F9D.0
0005E:  GOTO   0068
00062:  BTFSC  F9E.0
00064:  GOTO   05CC
00068:  MOVFF  0E,00
0006C:  MOVFF  0F,01
00070:  MOVFF  10,02
00074:  MOVFF  11,03
00078:  MOVFF  0C,FE9
0007C:  MOVFF  07,FEA
00080:  BSF    07.7
00082:  MOVFF  08,FE1
00086:  MOVFF  09,FE2
0008A:  MOVFF  0A,FD9
0008E:  MOVFF  0B,FDA
00092:  MOVFF  12,FF3
00096:  MOVFF  13,FF4
0009A:  MOVFF  14,FFA
0009E:  MOVFF  15,FFB
000A2:  MOVF   04,W
000A4:  MOVFF  06,FE0
000A8:  MOVFF  05,FD8
000AC:  RETFIE 0
000AE:  MOVWF  17
000B0:  MOVFF  FD8,18
000B4:  MOVFF  FE0,19
000B8:  MOVLB  0
000BA:  MOVFF  FE9,1F
000BE:  MOVFF  FEA,1A
000C2:  MOVFF  FE1,1B
000C6:  MOVFF  FE2,1C
000CA:  MOVFF  FD9,1D
000CE:  MOVFF  FDA,1E
000D2:  MOVFF  FF3,25
000D6:  MOVFF  FF4,26
000DA:  MOVFF  FFA,27
000DE:  MOVFF  FFB,28
000E2:  MOVFF  00,21
000E6:  MOVFF  01,22
000EA:  MOVFF  02,23
000EE:  MOVFF  03,24
000F2:  BTFSS  F9D.5
000F4:  GOTO   00FE
000F8:  BTFSC  F9E.5
000FA:  GOTO   0568
000FE:  MOVFF  21,00
00102:  MOVFF  22,01
00106:  MOVFF  23,02
0010A:  MOVFF  24,03
0010E:  MOVFF  1F,FE9
00112:  MOVFF  1A,FEA
00116:  BSF    1A.7
00118:  MOVFF  1B,FE1
0011C:  MOVFF  1C,FE2
00120:  MOVFF  1D,FD9
00124:  MOVFF  1E,FDA
00128:  MOVFF  25,FF3
0012C:  MOVFF  26,FF4
00130:  MOVFF  27,FFA
00134:  MOVFF  28,FFB
00138:  MOVF   17,W
0013A:  MOVFF  19,FE0
0013E:  MOVFF  18,FD8
00142:  RETFIE 0
.................... //Falta crear menu de ajuste de variables y de norma CFR21 
.................... //Falta revisar niveles de agua con variable calderin lleno de bomba de agua 
....................  
.................... #include <18F4685.h> 
.................... //////// Standard Header file for the PIC18F4685 device //////////////// 
.................... #device PIC18F4685 
.................... #list 
....................  
.................... #device adc=10 
.................... #device HIGH_INTS=TRUE //Activamos niveles de prioridad 
.................... #fuses HS,WDT8192,NOPROTECT,NOLVP,NODEBUG,NOSTVREN,NOPUT,NOCPD,NOWRT,NOIESO,NOFCMEN,NOPBADEN,NOWRTC,NOWRTB,NOEBTR,NOEBTRB,NOCPB,NOXINST,NOLPT1OSC,NOMCLR 
.................... #use delay(clock=20000000) 
*
02142:  MOVLW  06
02144:  MOVWF  FEA
02146:  MOVLW  DC
02148:  MOVWF  FE9
0214A:  MOVF   FEF,W
0214C:  BZ    2168
0214E:  MOVLW  06
02150:  MOVWF  01
02152:  CLRF   00
02154:  DECFSZ 00,F
02156:  BRA    2154
02158:  DECFSZ 01,F
0215A:  BRA    2152
0215C:  MOVLW  7B
0215E:  MOVWF  00
02160:  DECFSZ 00,F
02162:  BRA    2160
02164:  DECFSZ FEF,F
02166:  BRA    214E
02168:  RETLW  00
.................... #use i2c(Master,slow,sda=PIN_C4,scl=PIN_C3) 
.................... #use rs232(baud=9600, xmit=PIN_C6, rcv=PIN_C7, bits=8, parity=N) 
*
041E6:  BTFSS  F9E.4
041E8:  BRA    41E6
041EA:  MOVWF  FAD
041EC:  RETLW  00
.................... #include <stdio.h> 
.................... /////////////////////////////////////////////////////////////////////////// 
.................... ////        (C) Copyright 1996,2003 Custom Computer Services           //// 
.................... //// This source code may only be used by licensed users of the CCS C  //// 
.................... //// compiler.  This source code may only be distributed to other      //// 
.................... //// licensed users of the CCS C compiler.  No other use, reproduction //// 
.................... //// or distribution is permitted without written permission.          //// 
.................... //// Derivative programs created using this software in object code    //// 
.................... //// form are not restricted in any way.                               //// 
.................... /////////////////////////////////////////////////////////////////////////// 
....................  
.................... #ifndef _STDIO 
.................... #define _STDIO 
.................... #include <string.h> 
.................... //////////////////////////////////////////////////////////////////////////// 
.................... ////        (C) Copyright 1996,2008 Custom Computer Services            //// 
.................... //// This source code may only be used by licensed users of the CCS C   //// 
.................... //// compiler.  This source code may only be distributed to other       //// 
.................... //// licensed users of the CCS C compiler.  No other use, reproduction  //// 
.................... //// or distribution is permitted without written permission.           //// 
.................... //// Derivative programs created using this software in object code     //// 
.................... //// form are not restricted in any way.                                //// 
.................... //////////////////////////////////////////////////////////////////////////// 
....................  
.................... #ifndef _STRING 
.................... #define _STRING 
.................... #include <stddef.h> 
.................... /////////////////////////////////////////////////////////////////////////// 
.................... ////        (C) Copyright 1996,2003 Custom Computer Services           //// 
.................... //// This source code may only be used by licensed users of the CCS C  //// 
.................... //// compiler.  This source code may only be distributed to other      //// 
.................... //// licensed users of the CCS C compiler.  No other use, reproduction //// 
.................... //// or distribution is permitted without written permission.          //// 
.................... //// Derivative programs created using this software in object code    //// 
.................... //// form are not restricted in any way.                               //// 
.................... /////////////////////////////////////////////////////////////////////////// 
....................  
.................... #ifndef _STDDEF 
....................  
.................... #define _STDDEF 
....................  
.................... #if sizeof(unsigned int8 *)==1 
.................... #define ptrdiff_t unsigned int8 
.................... #else 
.................... #define ptrdiff_t unsigned int16 
.................... #endif 
....................  
.................... #define size_t unsigned int8 
.................... #define wchar_t char 
.................... #define NULL 0 
....................  
.................... #define offsetof(s,f) (offsetofbit(s,f)/8) 
....................  
.................... #endif 
....................  
.................... #include <ctype.h> 
.................... //////////////////////////////////////////////////////////////////////////// 
.................... ////        (C) Copyright 1996,2003 Custom Computer Services            //// 
.................... //// This source code may only be used by licensed users of the CCS C   //// 
.................... //// compiler.  This source code may only be distributed to other       //// 
.................... //// licensed users of the CCS C compiler.  No other use, reproduction  //// 
.................... //// or distribution is permitted without written permission.           //// 
.................... //// Derivative programs created using this software in object code     //// 
.................... //// form are not restricted in any way.                                //// 
.................... //////////////////////////////////////////////////////////////////////////// 
....................  
.................... #ifndef _CTYPE 
.................... #define _CTYPE 
....................  
.................... #define islower(x)  isamong(x,"abcdefghijklmnopqrstuvwxyz") 
.................... #define isupper(x)  isamong(x,"ABCDEFGHIJKLMNOPQRSTUVWXYZ") 
.................... #define isalnum(x)  isamong(x,"0123456789ABCDEFGHIJKLMNOPQRSTUVWXYZabcdefghijklmnopqrstuvwxyz") 
.................... #define isalpha(x)  isamong(x,"ABCDEFGHIJKLMNOPQRSTUVWXYZabcdefghijklmnopqrstuvwxyz") 
.................... #define isdigit(x)  isamong(x,"0123456789") 
.................... #define isspace(x)  ((x)==' ') 
.................... #define isxdigit(x) isamong(x,"0123456789ABCDEFabcdef") 
.................... #define iscntrl(x)  ((x)<' ') 
.................... #define isprint(x)  ((x)>=' ') 
.................... #define isgraph(x)  ((x)>' ') 
.................... #define ispunct(x)  (((x)>' ')&&!isalnum(x)) 
....................  
.................... #endif 
....................  
....................  
....................  
....................  
....................  
.................... ////////////////////////////////////////////// 
.................... //// Uncomment the following define to    //// 
.................... //// allow some functions to use a        //// 
.................... //// quicker algorithm, but use more ROM  //// 
.................... ////                                      //// 
.................... //// #define FASTER_BUT_MORE_ROM          //// 
.................... ////////////////////////////////////////////// 
....................  
....................  
....................  
.................... /*Copying functions*/ 
.................... /* standard template: 
....................    void *memmove(void *s1, void *s2, size_t n). 
....................    Copies max of n characters safely (not following ending '\0') 
....................    from s2 in s1; if s2 has less than n characters, appends 0 */ 
....................  
.................... char *memmove(void *s1,char *s2,size_t n) 
.................... { 
....................    char *sc1; 
....................    char *sc2; 
....................    sc1=s1; 
....................    sc2=s2; 
....................    if(sc2<sc1 && sc1 <sc2 +n) 
....................       for(sc1+=n,sc2+=n;0<n;--n) 
....................          *--sc1=*--sc2; 
....................    else 
....................       for(;0<n;--n) 
....................          *sc1++=*sc2++; 
....................   return s1; 
....................   } 
....................  
.................... /* Standard template: char *strcpy(char *s1, const char *s2) 
....................    copies the string s2 including the null character to s1. 
....................    This is a compiler built in to handle the different address 
....................    spaces */ 
....................  
.................... #define strcopy strcpy 
....................  
.................... /* standard template: 
....................    char *strncpy(char *s1, const char *s2, size_t n). 
....................    Copies max of n characters (not following ending '\0') 
....................    from s2 in s1; if s2 has less than n characters, appends 0 */ 
....................  
.................... char *strncpy(char *s1, char *s2, size_t n) 
.................... { 
....................   char *s; 
....................  
....................   for (s = s1; n > 0 && *s2 != '\0'; n--) 
....................      *s++ = *s2++; 
....................   for (; n > 0; n--) 
....................      *s++ = '\0'; 
....................  
....................   return(s1); 
.................... } 
.................... /***********************************************************/ 
....................  
.................... /*concatenation functions*/ 
.................... /* standard template: char *strcat(char *s1, const char *s2) 
.................... appends s2 to s1*/ 
....................  
.................... char *strcat(char *s1, char *s2) 
.................... { 
....................    char *s; 
....................  
....................    for (s = s1; *s != '\0'; ++s); 
....................    while(*s2 != '\0') 
....................    { 
....................       *s = *s2; 
....................       ++s; 
....................       ++s2; 
....................    } 
....................  
....................    *s = '\0'; 
....................    return(s1); 
.................... } 
.................... /* standard template: char *strncat(char *s1, char *s2,size_t n) 
.................... appends not more than n characters from s2 to s1*/ 
....................  
.................... char *strncat(char *s1, char *s2, size_t n) 
.................... { 
....................    char *s; 
....................  
....................    for (s = s1; *s != '\0'; ++s); 
....................    while(*s2 != '\0' && 0<n) 
....................    { 
....................       *s = *s2; 
....................       ++s; 
....................       ++s2; 
....................       --n; 
....................    } 
....................  
....................    *s = '\0'; 
....................    return(s1); 
.................... } 
....................  
.................... /***********************************************************/ 
....................  
....................  
.................... /*comparison functions*/ 
.................... /* standard template: signed int memcmp(void *s1, void *s2). 
....................    Compares s1 & s2; returns -1 if s1<s2, 0 if s1=s2, 1 if s1>s2 */ 
....................  
.................... signed int8 memcmp(void * s1,char *s2,size_t n) 
.................... { 
.................... char *su1, *su2; 
.................... for(su1=s1, su2=s2; 0<n; ++su1, ++su2, --n) 
.................... { 
....................    if(*su1!=*su2) 
....................       return ((*su1<*su2)?-1:+1); 
.................... } 
.................... return 0; 
.................... } 
....................  
.................... /* standard template: int strcmp(const char *s1, const char *s2). 
....................    Compares s1 & s2; returns -1 if s1<s2, 0 if s1=s2, 1 if s1>s2 */ 
....................  
.................... signed int8 strcmp(char *s1, char *s2) 
.................... { 
....................    for (; *s1 == *s2; s1++, s2++) 
....................       if (*s1 == '\0') 
....................          return(0); 
....................    return((*s1 < *s2) ? -1: 1); 
.................... } 
.................... /* standard template: int strcoll(const char *s1, const char *s2). 
....................    Compares s1 & s2; returns -1 if s1<s2, 0 if s1=s2, 1 if s1>s2 */ 
....................  
.................... signed int8 strcoll(char *s1, char *s2) 
.................... { 
....................    for (; *s1 == *s2; s1++, s2++) 
....................       if (*s1 == '\0') 
....................          return(0); 
....................    return((*s1 < *s2) ? -1: 1); 
.................... } 
....................  
.................... /* standard template: 
....................    int strncmp(const char *s1, const char *s2, size_t n). 
....................    Compares max of n characters (not following 0) from s1 to s2; 
....................    returns same as strcmp */ 
....................  
.................... signed int8 strncmp(char *s1, char *s2, size_t n) 
.................... { 
....................    for (; n > 0; s1++, s2++, n--) 
....................       if (*s1 != *s2) 
....................          return((*s1 <*s2) ? -1: 1); 
....................       else if (*s1 == '\0') 
....................          return(0); 
....................    return(0); 
.................... } 
.................... /* standard template: 
....................    int strxfrm(const char *s1, const char *s2, size_t n). 
....................    transforms maximum of n characters from s2 and places them into s1*/ 
.................... size_t strxfrm(char *s1, char *s2, size_t n) 
.................... { 
....................   char *s; 
....................   unsigned int8 n1; 
....................   n1=n; 
....................   for (s = s1; n > 0 && *s2 != '\0'; n--) 
....................      *s++ = *s2++; 
....................   for (; n > 0; n--) 
....................      *s++ = '\0'; 
....................  
....................   return(n1); 
.................... } 
....................  
....................  
....................  
....................  
....................  
.................... /***********************************************************/ 
.................... /*Search functions*/ 
.................... /* standard template: void *memchr(const char *s, int c). 
....................    Finds first occurrence of c in n characters of s */ 
....................  
.................... char *memchr(void *s,unsigned int8 c,size_t n) 
.................... { 
....................    char uc; 
....................    char *su; 
....................    uc=c; 
....................    for(su=s;0<n;++su,--n) 
....................       if(*su==uc) 
....................       return su; 
....................    return NULL; 
.................... } 
....................  
.................... /* standard template: char *strchr(const char *s, int c). 
....................    Finds first occurrence of c in s */ 
....................  
.................... char *strchr(char *s, unsigned int8 c) 
.................... { 
....................    for (; *s != c; s++) 
....................       if (*s == '\0') 
....................          return(0); 
....................    return(s); 
.................... } 
.................... /* standard template: 
....................    size_t strcspn(const char *s1, const char *s2). 
....................    Computes length of max initial segment of s1 that 
....................    consists entirely of characters NOT from s2*/ 
....................  
.................... unsigned int8  strcspn(char *s1, char *s2) 
.................... { 
....................    char *sc1, *sc2; 
....................  
....................    for (sc1 = s1; *sc1 != 0; sc1++) 
....................       for (sc2 = s2; *sc2 != 0; sc2++) 
....................          if (*sc1 == *sc2) 
....................             return(sc1 - s1); 
....................    return(sc1 - s1); 
.................... } 
.................... /* standard template: 
....................    char *strpbrk(const char *s1, const char *s2). 
....................    Locates first occurence of any character from s2 in s1; 
....................    returns s1 if s2 is empty string */ 
....................  
.................... char *strpbrk(char *s1, char *s2) 
.................... { 
....................    char *sc1, *sc2; 
....................  
....................    for (sc1 = s1; *sc1 != 0; sc1++) 
....................       for (sc2 = s2; *sc2 != 0; sc2++) 
....................          if (*sc1 == *sc2) 
....................             return(sc1); 
....................    return(0); 
.................... } 
....................  
....................  
.................... /* standard template: char *strrchr(const char *s, int c). 
....................    Finds last occurrence of c in s */ 
....................  
.................... char *strrchr(char *s, unsigned int8 c) 
.................... { 
....................    char *p; 
....................  
....................    for (p = 0; ; s++) 
....................    { 
....................       if (*s == c) 
....................          p = s; 
....................       if (*s == '\0') 
....................          return(p); 
....................    } 
.................... } 
.................... /* computes length of max initial segment of s1 consisting 
....................    entirely of characters from s2 */ 
....................  
.................... unsigned int8  strspn(char *s1, char *s2) 
.................... { 
....................    char *sc1, *sc2; 
....................  
....................    for (sc1 = s1; *sc1 != 0; sc1++) 
....................       for (sc2 = s2; ; sc2++) 
....................     if (*sc2 == '\0') 
....................        return(sc1 - s1); 
....................          else if (*sc1 == *sc2) 
....................             break; 
....................    return(sc1 - s1); 
.................... } 
.................... /* standard template: 
....................    char *strstr(const char *s1, const char *s2); 
....................    Locates first occurence of character sequence s2 in s1; 
....................    returns 0 if s2 is empty string 
....................  
....................    Uncomment #define FASTER_BUT_MORE_ROM at the top of the 
....................    file to use the faster algorithm */ 
.................... char *strstr(char *s1, char *s2) 
.................... { 
....................    char *s, *t; 
....................  
....................    #ifdef FASTER_BUT_MORE_ROM 
....................    if (*s2 == '\0') 
....................          return(s1); 
....................    #endif 
....................  
....................    while (*s1) 
....................    { 
....................       for(s = s1, t = s2; *t && (*s == *t); ++s, ++t); 
....................  
....................       if (*t == '\0') 
....................          return s1; 
....................       ++s1; 
....................       #ifdef FASTER_BUT_MORE_ROM 
....................          while(*s1 != '\0' && *s1 != *s2) 
....................             ++s1; 
....................       #endif 
....................    } 
....................    return 0; 
.................... } 
....................  
.................... /* standard template: char *strtok(char *s1, const char *s2). 
....................  
....................    Finds next token in s1 delimited by a character from separator 
....................    string s2 (which can be different from call to call).  First call 
....................    starts at beginning of s1 searching for first character NOT 
....................    contained in s2; returns 0 if none is found. 
....................    If one is found, it is the start of first token (return value). 
....................    Function then searches from there for a character contained in s2. 
....................    If none is found, current token extends to end of s1, and subsequent 
....................    searches for a token will return 0.  If one is found, it is 
....................    overwritten by '\0', which terminates current token.  Function saves 
....................    pointer to following character from which next search will start. 
....................    Each subsequent call, with 0 as first argument, starts searching 
....................    from saved pointer */ 
....................  
.................... char *strtok(char *s1, char *s2) 
.................... { 
....................    char *beg, *end; 
....................    static char *save; 
....................  
....................    beg = (s1)? s1: save; 
....................    beg += strspn(beg, s2); 
....................    if (*beg == '\0') 
....................    { 
....................       *save = ' '; 
....................       return(0); 
....................    } 
....................    end = strpbrk(beg, s2); 
....................    if (*end != '\0') 
....................    { 
....................       *end = '\0'; 
....................       end++; 
....................    } 
....................    save = end; 
....................    return(beg); 
.................... } 
....................  
.................... /*****************************************************************/ 
.................... /*Miscellaneous functions*/ 
.................... /* standard template 
.................... maps error number in errnum to an error message string 
.................... Returns: Pointer to string 
.................... */ 
.................... #ifdef _ERRNO 
.................... char * strerror(unsigned int8 errnum) 
.................... { 
.................... char s[15]; 
.................... switch( errnum) 
.................... { 
.................... case 0: 
....................    strcpy(s,"no errors"); 
....................    return s; 
.................... case EDOM : 
....................    strcpy(s,"domain error"); 
....................    return s; 
.................... case ERANGE: 
....................    strcpy(s,"range error"); 
....................    return s; 
.................... } 
.................... } 
.................... #ENDIF 
.................... /* standard template: size_t strlen(const char *s). 
....................    Computes length of s1 (preceding terminating 0) */ 
....................  
.................... unsigned int8 strlen(char *s) 
.................... { 
....................    char *sc; 
....................  
....................    for (sc = s; *sc != 0; sc++); 
....................    return(sc - s); 
.................... } 
....................  
.................... /* standard template: size_t stricmp(const char *s1, const char *s2). 
....................    Compares s1 to s2 ignoring case (upper vs. lower) */ 
....................  
.................... signed int8 stricmp(char *s1, char *s2) 
.................... { 
....................  for(; *s1==*s2||(isalpha(*s1)&&isalpha(*s2)&&(*s1==*s2+32||*s2==*s1+32)); 
....................     s1++, s2++) 
....................     if (*s1 == '\0') 
....................        return(0); 
....................  return((*s1 < *s2) ? -1: 1); 
.................... } 
....................  
....................  
.................... /* standard template: char *strlwr(char *s). 
....................    Replaces uppercase letters by lowercase; 
....................    returns pointer to new string s */ 
....................  
.................... char *strlwr(char *s) 
.................... { 
....................    char *p; 
....................  
....................    for (p = s; *p != '\0'; p++) 
....................       if (*p >= 'A' && *p <='Z') 
....................          *p += 'a' - 'A'; 
....................    return(s); 
.................... } 
....................  
....................  
.................... /************************************************************/ 
....................  
....................  
.................... #endif 
....................  
.................... #ifndef getc 
.................... #define getc getch 
.................... #define getchar getch 
.................... #define puts(s) {printf(s); putchar(13); putchar(10);} 
.................... #define putc putchar 
.................... #endif 
.................... /* maps error number to an error message. Writes a sequence of characters to 
.................... stderr stream thus: if s is not null then string pointed to by s follwed by 
.................... a colon (:) and a space and the appropriate error message returned by strerror 
.................... function with argument errno 
....................  
.................... Returns: no value 
.................... */ 
....................  
.................... #ifdef _ERRNO 
.................... void perror(char *s) 
.................... { 
....................   if(s) 
....................   fprintf(STDERR,"%s: ",s); 
....................   fprintf(STDERR,"%s\r\n",strerror(errno)); 
.................... } 
.................... #endif 
.................... #endif 
....................  
.................... #include <string.h> 
.................... //////////////////////////////////////////////////////////////////////////// 
.................... ////        (C) Copyright 1996,2008 Custom Computer Services            //// 
.................... //// This source code may only be used by licensed users of the CCS C   //// 
.................... //// compiler.  This source code may only be distributed to other       //// 
.................... //// licensed users of the CCS C compiler.  No other use, reproduction  //// 
.................... //// or distribution is permitted without written permission.           //// 
.................... //// Derivative programs created using this software in object code     //// 
.................... //// form are not restricted in any way.                                //// 
.................... //////////////////////////////////////////////////////////////////////////// 
....................  
.................... #ifndef _STRING 
.................... #define _STRING 
.................... #include <stddef.h> 
.................... #include <ctype.h> 
....................  
....................  
....................  
.................... ////////////////////////////////////////////// 
.................... //// Uncomment the following define to    //// 
.................... //// allow some functions to use a        //// 
.................... //// quicker algorithm, but use more ROM  //// 
.................... ////                                      //// 
.................... //// #define FASTER_BUT_MORE_ROM          //// 
.................... ////////////////////////////////////////////// 
....................  
....................  
....................  
.................... /*Copying functions*/ 
.................... /* standard template: 
....................    void *memmove(void *s1, void *s2, size_t n). 
....................    Copies max of n characters safely (not following ending '\0') 
....................    from s2 in s1; if s2 has less than n characters, appends 0 */ 
....................  
.................... char *memmove(void *s1,char *s2,size_t n) 
.................... { 
....................    char *sc1; 
....................    char *sc2; 
....................    sc1=s1; 
....................    sc2=s2; 
....................    if(sc2<sc1 && sc1 <sc2 +n) 
....................       for(sc1+=n,sc2+=n;0<n;--n) 
....................          *--sc1=*--sc2; 
....................    else 
....................       for(;0<n;--n) 
....................          *sc1++=*sc2++; 
....................   return s1; 
....................   } 
....................  
.................... /* Standard template: char *strcpy(char *s1, const char *s2) 
....................    copies the string s2 including the null character to s1. 
....................    This is a compiler built in to handle the different address 
....................    spaces */ 
....................  
.................... #define strcopy strcpy 
....................  
.................... /* standard template: 
....................    char *strncpy(char *s1, const char *s2, size_t n). 
....................    Copies max of n characters (not following ending '\0') 
....................    from s2 in s1; if s2 has less than n characters, appends 0 */ 
....................  
.................... char *strncpy(char *s1, char *s2, size_t n) 
.................... { 
....................   char *s; 
....................  
....................   for (s = s1; n > 0 && *s2 != '\0'; n--) 
....................      *s++ = *s2++; 
....................   for (; n > 0; n--) 
....................      *s++ = '\0'; 
....................  
....................   return(s1); 
.................... } 
.................... /***********************************************************/ 
....................  
.................... /*concatenation functions*/ 
.................... /* standard template: char *strcat(char *s1, const char *s2) 
.................... appends s2 to s1*/ 
....................  
.................... char *strcat(char *s1, char *s2) 
.................... { 
....................    char *s; 
....................  
....................    for (s = s1; *s != '\0'; ++s); 
....................    while(*s2 != '\0') 
....................    { 
....................       *s = *s2; 
....................       ++s; 
....................       ++s2; 
....................    } 
....................  
....................    *s = '\0'; 
....................    return(s1); 
.................... } 
.................... /* standard template: char *strncat(char *s1, char *s2,size_t n) 
.................... appends not more than n characters from s2 to s1*/ 
....................  
.................... char *strncat(char *s1, char *s2, size_t n) 
.................... { 
....................    char *s; 
....................  
....................    for (s = s1; *s != '\0'; ++s); 
....................    while(*s2 != '\0' && 0<n) 
....................    { 
....................       *s = *s2; 
....................       ++s; 
....................       ++s2; 
....................       --n; 
....................    } 
....................  
....................    *s = '\0'; 
....................    return(s1); 
.................... } 
....................  
.................... /***********************************************************/ 
....................  
....................  
.................... /*comparison functions*/ 
.................... /* standard template: signed int memcmp(void *s1, void *s2). 
....................    Compares s1 & s2; returns -1 if s1<s2, 0 if s1=s2, 1 if s1>s2 */ 
....................  
.................... signed int8 memcmp(void * s1,char *s2,size_t n) 
.................... { 
.................... char *su1, *su2; 
.................... for(su1=s1, su2=s2; 0<n; ++su1, ++su2, --n) 
.................... { 
....................    if(*su1!=*su2) 
....................       return ((*su1<*su2)?-1:+1); 
.................... } 
.................... return 0; 
.................... } 
....................  
.................... /* standard template: int strcmp(const char *s1, const char *s2). 
....................    Compares s1 & s2; returns -1 if s1<s2, 0 if s1=s2, 1 if s1>s2 */ 
....................  
.................... signed int8 strcmp(char *s1, char *s2) 
.................... { 
....................    for (; *s1 == *s2; s1++, s2++) 
....................       if (*s1 == '\0') 
....................          return(0); 
....................    return((*s1 < *s2) ? -1: 1); 
.................... } 
.................... /* standard template: int strcoll(const char *s1, const char *s2). 
....................    Compares s1 & s2; returns -1 if s1<s2, 0 if s1=s2, 1 if s1>s2 */ 
....................  
.................... signed int8 strcoll(char *s1, char *s2) 
.................... { 
....................    for (; *s1 == *s2; s1++, s2++) 
....................       if (*s1 == '\0') 
....................          return(0); 
....................    return((*s1 < *s2) ? -1: 1); 
.................... } 
....................  
.................... /* standard template: 
....................    int strncmp(const char *s1, const char *s2, size_t n). 
....................    Compares max of n characters (not following 0) from s1 to s2; 
....................    returns same as strcmp */ 
....................  
.................... signed int8 strncmp(char *s1, char *s2, size_t n) 
.................... { 
....................    for (; n > 0; s1++, s2++, n--) 
....................       if (*s1 != *s2) 
....................          return((*s1 <*s2) ? -1: 1); 
....................       else if (*s1 == '\0') 
....................          return(0); 
....................    return(0); 
.................... } 
.................... /* standard template: 
....................    int strxfrm(const char *s1, const char *s2, size_t n). 
....................    transforms maximum of n characters from s2 and places them into s1*/ 
.................... size_t strxfrm(char *s1, char *s2, size_t n) 
.................... { 
....................   char *s; 
....................   unsigned int8 n1; 
....................   n1=n; 
....................   for (s = s1; n > 0 && *s2 != '\0'; n--) 
....................      *s++ = *s2++; 
....................   for (; n > 0; n--) 
....................      *s++ = '\0'; 
....................  
....................   return(n1); 
.................... } 
....................  
....................  
....................  
....................  
....................  
.................... /***********************************************************/ 
.................... /*Search functions*/ 
.................... /* standard template: void *memchr(const char *s, int c). 
....................    Finds first occurrence of c in n characters of s */ 
....................  
.................... char *memchr(void *s,unsigned int8 c,size_t n) 
.................... { 
....................    char uc; 
....................    char *su; 
....................    uc=c; 
....................    for(su=s;0<n;++su,--n) 
....................       if(*su==uc) 
....................       return su; 
....................    return NULL; 
.................... } 
....................  
.................... /* standard template: char *strchr(const char *s, int c). 
....................    Finds first occurrence of c in s */ 
....................  
.................... char *strchr(char *s, unsigned int8 c) 
.................... { 
....................    for (; *s != c; s++) 
....................       if (*s == '\0') 
....................          return(0); 
....................    return(s); 
.................... } 
.................... /* standard template: 
....................    size_t strcspn(const char *s1, const char *s2). 
....................    Computes length of max initial segment of s1 that 
....................    consists entirely of characters NOT from s2*/ 
....................  
.................... unsigned int8  strcspn(char *s1, char *s2) 
.................... { 
....................    char *sc1, *sc2; 
....................  
....................    for (sc1 = s1; *sc1 != 0; sc1++) 
....................       for (sc2 = s2; *sc2 != 0; sc2++) 
....................          if (*sc1 == *sc2) 
....................             return(sc1 - s1); 
....................    return(sc1 - s1); 
.................... } 
.................... /* standard template: 
....................    char *strpbrk(const char *s1, const char *s2). 
....................    Locates first occurence of any character from s2 in s1; 
....................    returns s1 if s2 is empty string */ 
....................  
.................... char *strpbrk(char *s1, char *s2) 
.................... { 
....................    char *sc1, *sc2; 
....................  
....................    for (sc1 = s1; *sc1 != 0; sc1++) 
....................       for (sc2 = s2; *sc2 != 0; sc2++) 
....................          if (*sc1 == *sc2) 
....................             return(sc1); 
....................    return(0); 
.................... } 
....................  
....................  
.................... /* standard template: char *strrchr(const char *s, int c). 
....................    Finds last occurrence of c in s */ 
....................  
.................... char *strrchr(char *s, unsigned int8 c) 
.................... { 
....................    char *p; 
....................  
....................    for (p = 0; ; s++) 
....................    { 
....................       if (*s == c) 
....................          p = s; 
....................       if (*s == '\0') 
....................          return(p); 
....................    } 
.................... } 
.................... /* computes length of max initial segment of s1 consisting 
....................    entirely of characters from s2 */ 
....................  
.................... unsigned int8  strspn(char *s1, char *s2) 
.................... { 
....................    char *sc1, *sc2; 
....................  
....................    for (sc1 = s1; *sc1 != 0; sc1++) 
....................       for (sc2 = s2; ; sc2++) 
....................     if (*sc2 == '\0') 
....................        return(sc1 - s1); 
....................          else if (*sc1 == *sc2) 
....................             break; 
....................    return(sc1 - s1); 
.................... } 
.................... /* standard template: 
....................    char *strstr(const char *s1, const char *s2); 
....................    Locates first occurence of character sequence s2 in s1; 
....................    returns 0 if s2 is empty string 
....................  
....................    Uncomment #define FASTER_BUT_MORE_ROM at the top of the 
....................    file to use the faster algorithm */ 
.................... char *strstr(char *s1, char *s2) 
.................... { 
....................    char *s, *t; 
....................  
....................    #ifdef FASTER_BUT_MORE_ROM 
....................    if (*s2 == '\0') 
....................          return(s1); 
....................    #endif 
....................  
....................    while (*s1) 
....................    { 
....................       for(s = s1, t = s2; *t && (*s == *t); ++s, ++t); 
....................  
....................       if (*t == '\0') 
....................          return s1; 
....................       ++s1; 
....................       #ifdef FASTER_BUT_MORE_ROM 
....................          while(*s1 != '\0' && *s1 != *s2) 
....................             ++s1; 
....................       #endif 
....................    } 
....................    return 0; 
.................... } 
....................  
.................... /* standard template: char *strtok(char *s1, const char *s2). 
....................  
....................    Finds next token in s1 delimited by a character from separator 
....................    string s2 (which can be different from call to call).  First call 
....................    starts at beginning of s1 searching for first character NOT 
....................    contained in s2; returns 0 if none is found. 
....................    If one is found, it is the start of first token (return value). 
....................    Function then searches from there for a character contained in s2. 
....................    If none is found, current token extends to end of s1, and subsequent 
....................    searches for a token will return 0.  If one is found, it is 
....................    overwritten by '\0', which terminates current token.  Function saves 
....................    pointer to following character from which next search will start. 
....................    Each subsequent call, with 0 as first argument, starts searching 
....................    from saved pointer */ 
....................  
.................... char *strtok(char *s1, char *s2) 
.................... { 
....................    char *beg, *end; 
....................    static char *save; 
....................  
....................    beg = (s1)? s1: save; 
....................    beg += strspn(beg, s2); 
....................    if (*beg == '\0') 
....................    { 
....................       *save = ' '; 
....................       return(0); 
....................    } 
....................    end = strpbrk(beg, s2); 
....................    if (*end != '\0') 
....................    { 
....................       *end = '\0'; 
....................       end++; 
....................    } 
....................    save = end; 
....................    return(beg); 
.................... } 
....................  
.................... /*****************************************************************/ 
.................... /*Miscellaneous functions*/ 
.................... /* standard template 
.................... maps error number in errnum to an error message string 
.................... Returns: Pointer to string 
.................... */ 
.................... #ifdef _ERRNO 
.................... char * strerror(unsigned int8 errnum) 
.................... { 
.................... char s[15]; 
.................... switch( errnum) 
.................... { 
.................... case 0: 
....................    strcpy(s,"no errors"); 
....................    return s; 
.................... case EDOM : 
....................    strcpy(s,"domain error"); 
....................    return s; 
.................... case ERANGE: 
....................    strcpy(s,"range error"); 
....................    return s; 
.................... } 
.................... } 
.................... #ENDIF 
.................... /* standard template: size_t strlen(const char *s). 
....................    Computes length of s1 (preceding terminating 0) */ 
....................  
.................... unsigned int8 strlen(char *s) 
.................... { 
....................    char *sc; 
....................  
....................    for (sc = s; *sc != 0; sc++); 
....................    return(sc - s); 
.................... } 
....................  
.................... /* standard template: size_t stricmp(const char *s1, const char *s2). 
....................    Compares s1 to s2 ignoring case (upper vs. lower) */ 
....................  
.................... signed int8 stricmp(char *s1, char *s2) 
.................... { 
....................  for(; *s1==*s2||(isalpha(*s1)&&isalpha(*s2)&&(*s1==*s2+32||*s2==*s1+32)); 
....................     s1++, s2++) 
....................     if (*s1 == '\0') 
....................        return(0); 
....................  return((*s1 < *s2) ? -1: 1); 
.................... } 
....................  
....................  
.................... /* standard template: char *strlwr(char *s). 
....................    Replaces uppercase letters by lowercase; 
....................    returns pointer to new string s */ 
....................  
.................... char *strlwr(char *s) 
.................... { 
....................    char *p; 
....................  
....................    for (p = s; *p != '\0'; p++) 
....................       if (*p >= 'A' && *p <='Z') 
....................          *p += 'a' - 'A'; 
....................    return(s); 
.................... } 
....................  
....................  
.................... /************************************************************/ 
....................  
....................  
.................... #endif 
....................  
.................... #include <stdlib.h> 
.................... /////////////////////////////////////////////////////////////////////////// 
.................... ////        (C) Copyright 1996,2007 Custom Computer Services           //// 
.................... //// This source code may only be used by licensed users of the CCS C  //// 
.................... //// compiler.  This source code may only be distributed to other      //// 
.................... //// licensed users of the CCS C compiler.  No other use, reproduction //// 
.................... //// or distribution is permitted without written permission.          //// 
.................... //// Derivative programs created using this software in object code    //// 
.................... //// form are not restricted in any way.                               //// 
.................... /////////////////////////////////////////////////////////////////////////// 
....................  
.................... #ifndef _STDLIB 
.................... #define _STDLIB 
....................  
.................... //--------------------------------------------------------------------------- 
.................... // Definitions and types 
.................... //--------------------------------------------------------------------------- 
....................  
.................... #ifndef RAND_MAX 
.................... #define RAND_MAX  32767    // The value of which is the maximum value 
....................                            // ... returned by the rand function 
.................... #endif 
....................  
....................  
.................... #IF (sizeof(int16*)>1) 
.................... #DEFINE LONG_POINTERS 1 
.................... #ELSE  
.................... #DEFINE LONG_POINTERS 0 
.................... #ENDIF 
....................  
.................... typedef struct { 
....................    signed int quot; 
....................    signed int rem; 
.................... } div_t; 
....................  
.................... typedef struct { 
....................    signed long quot; 
....................    signed long rem; 
.................... } ldiv_t; 
....................  
.................... #include <stddef.h> 
.................... /////////////////////////////////////////////////////////////////////////// 
.................... ////        (C) Copyright 1996,2003 Custom Computer Services           //// 
.................... //// This source code may only be used by licensed users of the CCS C  //// 
.................... //// compiler.  This source code may only be distributed to other      //// 
.................... //// licensed users of the CCS C compiler.  No other use, reproduction //// 
.................... //// or distribution is permitted without written permission.          //// 
.................... //// Derivative programs created using this software in object code    //// 
.................... //// form are not restricted in any way.                               //// 
.................... /////////////////////////////////////////////////////////////////////////// 
....................  
.................... #ifndef _STDDEF 
....................  
.................... #define _STDDEF 
....................  
.................... #if sizeof(unsigned int8 *)==1 
.................... #define ptrdiff_t unsigned int8 
.................... #else 
.................... #define ptrdiff_t unsigned int16 
.................... #endif 
....................  
.................... #define size_t unsigned int8 
.................... #define wchar_t char 
.................... #define NULL 0 
....................  
.................... #define offsetof(s,f) (offsetofbit(s,f)/8) 
....................  
.................... #endif 
....................  
....................  
.................... //--------------------------------------------------------------------------- 
.................... // String conversion functions 
.................... //--------------------------------------------------------------------------- 
....................  
.................... /* Standard template: signed int  atoi(char * s) 
....................  * converts the initial portion of the string s to a signed int 
....................  * returns the converted value if any, 0 otherwise 
....................  */ 
.................... signed int atoi(char *s); 
....................  
.................... /* Syntax: signed int32  atoi32(char * s) 
....................    converts the initial portion of the string s to a signed int32 
....................    returns the converted value if any, 0 otherwise*/ 
.................... #if (sizeof(long)==4) 
....................  #define atoi32(s) atol(s) 
.................... #else  
....................  signed int32 atoi32(char *s); 
.................... #endif 
....................  
.................... #if defined(__PCD__) 
.................... // The following functions only work on the 24 bit compiler 
.................... // for the 30F, 33F, 24F and 24H parts 
.................... /* Syntax: signed int48  atoi48(char * s) 
....................    converts the initial portion of the string s to a signed int48 
....................    returns the converted value if any, 0 otherwise*/ 
....................     
.................... signed int48 atoi48(char *s); 
....................  
.................... /* Syntax: signed int64  atoi64(char * s) 
....................    converts the initial portion of the string s to a signed int64 
....................    returns the converted value if any, 0 otherwise*/ 
.................... signed int64 atoi64(char *s); 
.................... #endif 
....................  
.................... /* Syntax: char *  itoa(signed int32 num, int8 base, char * s) 
....................    converts the signed int32 to a string and 
....................    returns the converted value if any, 0 otherwise*/ 
.................... char * itoa(signed int32 num, unsigned int base, char * s); 
....................  
.................... /* Standard template: signed int16  atol(char * s) 
....................  * converts the initial portion of the string s to a signed int16 
....................  * returns the converted value if any, 0 otherwise 
....................  */ 
.................... signed long atol(char *s); 
....................  
.................... /* Standard template: int16 strtoul(char * s,char *endptr,signed int base) 
....................  * converts the initial portion of the string s, represented as an 
....................  * integral value of radix base  to a signed long. 
....................  * Returns the converted value if any, 0 otherwise 
....................  * the final string is returned in the endptr, if endptr is not null 
....................  */ 
.................... signed long strtol(char *s,char *endptr, signed int base); 
....................  
.................... /* Standard template: int16 strtoul(char * s,char *endptr,signed int base) 
....................  * converts the initial portion of the string s, represented as an 
....................  * integral value of radix base to a unsigned long. 
....................  * returns the converted value if any, 0 otherwise 
....................  * the final string is returned in the endptr, if endptr is not null 
....................  */ 
.................... unsigned long strtoul(char *s,char *endptr, signed int base); 
....................  
.................... /* Standart template: float strtof(char * s,char *endptr) 
....................                       float48 strtof48(char *s,char *endptr); 
....................                       float64 strtod(char *s,char *endptr); 
....................  * converts the initial portion of the string s to a float32, float48 or float64, 
....................  * returns the converted value if any, 0 otherwise 
....................  * the final string is returned in the endptr, if endptr is not null                    
.................... */ 
.................... float strtof(char *s,char *endptr); 
.................... #if defined(__PCD__) 
.................... float48 strtof48(char *s,char *endptr); 
.................... float64 strtod(char *s,char *endptr); 
.................... #else 
.................... //provided for compatibility 
.................... #define strtof48(s, e) strtof(s, e) 
.................... #define strtod(s, e) strtof(s, e) 
.................... #endif 
....................  
.................... /* Standard template: float32 atof(char * s) 
....................  * converts the initial portion of the string s to a float. 
....................  * returns the converted value if any, 0 otherwise 
....................  */ 
.................... #define atof(s)   strtof(s, 0) 
....................  
.................... #if defined(__PCD__) 
.................... // The following functions only work on the 24 bit compiler 
.................... // for the 30F, 33F, 24F and 24H parts 
....................  
.................... /* Standard template: float48 atof48(char * s) 
....................  * converts the initial portion of the string s to a float. 
....................  * returns the converted value if any, 0 otherwise 
....................  */ 
.................... #define atof48(s) strtof48(s, 0) 
....................  
.................... /* Standard template: float64 atof64(char * s) 
....................  * converts the initial portion of the string s to a float. 
....................  * returns the converted value if any, 0 otherwise 
....................  */ 
.................... #define atof64(s) strtod(s, 0) 
.................... #endif 
....................  
.................... /* Standard template: float32 atoe(char * s) 
....................  * converts the initial portion of the string s to a float. 
....................  * returns the converted value if any, 0 otherwise 
....................  * also handles E format numbers 
....................  */ 
.................... #if !defined(__PCD__) 
.................... float atoe(char * s); 
.................... #endif 
....................  
.................... #if defined(__PCD__) 
.................... float32 atoe(char * s); 
.................... #endif 
....................  
.................... //--------------------------------------------------------------------------- 
.................... // Pseudo-random sequence generation functions 
.................... //--------------------------------------------------------------------------- 
....................  
.................... /* The rand function computes a sequence of pseudo-random integers in 
....................  * the range 0 to RAND_MAX 
....................  * 
....................  * Parameters: 
....................  *       (none) 
....................  * 
....................  * Returns: 
....................  *       The pseudo-random integer 
....................  */ 
.................... unsigned int16 rand(void); 
....................  
.................... /* The srand function uses the argument as a seed for a new sequence of 
....................  * pseudo-random numbers to be returned by subsequent calls to rand. 
....................  * 
....................  * Parameters: 
....................  *       [in] seed: The seed value to start from. You might need to pass 
....................  * 
....................  * Returns: 
....................  *       (none) 
....................  * 
....................  * Remarks 
....................  *          The srand function sets the starting point for generating 
....................  *       a series of pseudorandom integers. To reinitialize the 
....................  *       generator, use 1 as the seed argument. Any other value for 
....................  *       seed sets the generator to a random starting point. rand 
....................  *       retrieves the pseudorandom numbers that are generated. 
....................  *       Calling rand before any call to srand generates the same 
....................  *       sequence as calling srand with seed passed as 1. 
....................  *          Usually, you need to pass a time here from outer source 
....................  *       so that the numbers will be different every time you run. 
....................  */ 
.................... void srand(unsigned int32 seed); 
....................  
.................... //--------------------------------------------------------------------------- 
.................... // Memory management functions 
.................... //--------------------------------------------------------------------------- 
....................  
.................... // Comming soon 
....................  
.................... //--------------------------------------------------------------------------- 
.................... // Communication with the environment 
.................... //--------------------------------------------------------------------------- 
....................  
.................... /* The function returns 0 always 
....................  */ 
.................... signed int8 system(char *string); 
....................  
.................... //--------------------------------------------------------------------------- 
.................... // Searching and sorting utilities 
.................... //--------------------------------------------------------------------------- 
....................  
.................... /* Performs a binary search of a sorted array.. 
....................  * 
....................  * Parameters: 
....................  *       [in] key: Object to search for 
....................  *       [in] base: Pointer to base of search data 
....................  *       [in] num: Number of elements 
....................  *       [in] width: Width of elements 
....................  *       [in] compare: Function that compares two elements 
....................  * 
....................  * Returns: 
....................  *       bsearch returns a pointer to an occurrence of key in the array pointed 
....................  *       to by base. If key is not found, the function returns NULL. If the 
....................  *       array is not in order or contains duplicate records with identical keys, 
....................  *       the result is unpredictable. 
....................  */ 
.................... //void *bsearch(const void *key, const void *base, size_t num, size_t width, 
.................... //              int (*compare)(const void *, const void *)); 
....................  
.................... /* Performs the shell-metzner sort (not the quick sort algorithm). The contents 
....................  * of the array are sorted into ascending order according to a comparison 
....................  * function pointed to by compar. 
....................  * 
....................  * Parameters: 
....................  *       [in] base: Pointer to base of search data 
....................  *       [in] num: Number of elements 
....................  *       [in] width: Width of elements 
....................  *       [in] compare: Function that compares two elements 
....................  * 
....................  * Returns: 
....................  *       (none) 
....................  */ 
.................... //void *qsort(const void *base, size_t num, size_t width, 
.................... //              int (*compare)(const void *, const void *)); 
....................  
.................... //--------------------------------------------------------------------------- 
.................... // Integer arithmetic functions 
.................... //--------------------------------------------------------------------------- 
....................  
.................... #define labs abs 
....................  
.................... div_t div(signed int numer, signed int denom); 
.................... ldiv_t ldiv(signed long numer, signed long denom); 
....................  
.................... //--------------------------------------------------------------------------- 
.................... // Multibyte character functions 
.................... //--------------------------------------------------------------------------- 
....................  
.................... // Not supported 
....................  
.................... //--------------------------------------------------------------------------- 
.................... // Multibyte string functions 
.................... //--------------------------------------------------------------------------- 
....................  
.................... // Not supported 
....................  
....................  
.................... //--------------------------------------------------------------------------- 
.................... // Internal implementation 
.................... //--------------------------------------------------------------------------- 
....................  
.................... #include <stddef.h> 
.................... /////////////////////////////////////////////////////////////////////////// 
.................... ////        (C) Copyright 1996,2003 Custom Computer Services           //// 
.................... //// This source code may only be used by licensed users of the CCS C  //// 
.................... //// compiler.  This source code may only be distributed to other      //// 
.................... //// licensed users of the CCS C compiler.  No other use, reproduction //// 
.................... //// or distribution is permitted without written permission.          //// 
.................... //// Derivative programs created using this software in object code    //// 
.................... //// form are not restricted in any way.                               //// 
.................... /////////////////////////////////////////////////////////////////////////// 
....................  
.................... #ifndef _STDDEF 
....................  
.................... #define _STDDEF 
....................  
.................... #if sizeof(unsigned int8 *)==1 
.................... #define ptrdiff_t unsigned int8 
.................... #else 
.................... #define ptrdiff_t unsigned int16 
.................... #endif 
....................  
.................... #define size_t unsigned int8 
.................... #define wchar_t char 
.................... #define NULL 0 
....................  
.................... #define offsetof(s,f) (offsetofbit(s,f)/8) 
....................  
.................... #endif 
....................  
.................... #include <string.h> 
.................... //////////////////////////////////////////////////////////////////////////// 
.................... ////        (C) Copyright 1996,2008 Custom Computer Services            //// 
.................... //// This source code may only be used by licensed users of the CCS C   //// 
.................... //// compiler.  This source code may only be distributed to other       //// 
.................... //// licensed users of the CCS C compiler.  No other use, reproduction  //// 
.................... //// or distribution is permitted without written permission.           //// 
.................... //// Derivative programs created using this software in object code     //// 
.................... //// form are not restricted in any way.                                //// 
.................... //////////////////////////////////////////////////////////////////////////// 
....................  
.................... #ifndef _STRING 
.................... #define _STRING 
.................... #include <stddef.h> 
.................... #include <ctype.h> 
....................  
....................  
....................  
.................... ////////////////////////////////////////////// 
.................... //// Uncomment the following define to    //// 
.................... //// allow some functions to use a        //// 
.................... //// quicker algorithm, but use more ROM  //// 
.................... ////                                      //// 
.................... //// #define FASTER_BUT_MORE_ROM          //// 
.................... ////////////////////////////////////////////// 
....................  
....................  
....................  
.................... /*Copying functions*/ 
.................... /* standard template: 
....................    void *memmove(void *s1, void *s2, size_t n). 
....................    Copies max of n characters safely (not following ending '\0') 
....................    from s2 in s1; if s2 has less than n characters, appends 0 */ 
....................  
.................... char *memmove(void *s1,char *s2,size_t n) 
.................... { 
....................    char *sc1; 
....................    char *sc2; 
....................    sc1=s1; 
....................    sc2=s2; 
....................    if(sc2<sc1 && sc1 <sc2 +n) 
....................       for(sc1+=n,sc2+=n;0<n;--n) 
....................          *--sc1=*--sc2; 
....................    else 
....................       for(;0<n;--n) 
....................          *sc1++=*sc2++; 
....................   return s1; 
....................   } 
....................  
.................... /* Standard template: char *strcpy(char *s1, const char *s2) 
....................    copies the string s2 including the null character to s1. 
....................    This is a compiler built in to handle the different address 
....................    spaces */ 
....................  
.................... #define strcopy strcpy 
....................  
.................... /* standard template: 
....................    char *strncpy(char *s1, const char *s2, size_t n). 
....................    Copies max of n characters (not following ending '\0') 
....................    from s2 in s1; if s2 has less than n characters, appends 0 */ 
....................  
.................... char *strncpy(char *s1, char *s2, size_t n) 
.................... { 
....................   char *s; 
....................  
....................   for (s = s1; n > 0 && *s2 != '\0'; n--) 
....................      *s++ = *s2++; 
....................   for (; n > 0; n--) 
....................      *s++ = '\0'; 
....................  
....................   return(s1); 
.................... } 
.................... /***********************************************************/ 
....................  
.................... /*concatenation functions*/ 
.................... /* standard template: char *strcat(char *s1, const char *s2) 
.................... appends s2 to s1*/ 
....................  
.................... char *strcat(char *s1, char *s2) 
.................... { 
....................    char *s; 
....................  
....................    for (s = s1; *s != '\0'; ++s); 
....................    while(*s2 != '\0') 
....................    { 
....................       *s = *s2; 
....................       ++s; 
....................       ++s2; 
....................    } 
....................  
....................    *s = '\0'; 
....................    return(s1); 
.................... } 
.................... /* standard template: char *strncat(char *s1, char *s2,size_t n) 
.................... appends not more than n characters from s2 to s1*/ 
....................  
.................... char *strncat(char *s1, char *s2, size_t n) 
.................... { 
....................    char *s; 
....................  
....................    for (s = s1; *s != '\0'; ++s); 
....................    while(*s2 != '\0' && 0<n) 
....................    { 
....................       *s = *s2; 
....................       ++s; 
....................       ++s2; 
....................       --n; 
....................    } 
....................  
....................    *s = '\0'; 
....................    return(s1); 
.................... } 
....................  
.................... /***********************************************************/ 
....................  
....................  
.................... /*comparison functions*/ 
.................... /* standard template: signed int memcmp(void *s1, void *s2). 
....................    Compares s1 & s2; returns -1 if s1<s2, 0 if s1=s2, 1 if s1>s2 */ 
....................  
.................... signed int8 memcmp(void * s1,char *s2,size_t n) 
.................... { 
.................... char *su1, *su2; 
.................... for(su1=s1, su2=s2; 0<n; ++su1, ++su2, --n) 
.................... { 
....................    if(*su1!=*su2) 
....................       return ((*su1<*su2)?-1:+1); 
.................... } 
.................... return 0; 
.................... } 
....................  
.................... /* standard template: int strcmp(const char *s1, const char *s2). 
....................    Compares s1 & s2; returns -1 if s1<s2, 0 if s1=s2, 1 if s1>s2 */ 
....................  
.................... signed int8 strcmp(char *s1, char *s2) 
.................... { 
....................    for (; *s1 == *s2; s1++, s2++) 
....................       if (*s1 == '\0') 
....................          return(0); 
....................    return((*s1 < *s2) ? -1: 1); 
.................... } 
.................... /* standard template: int strcoll(const char *s1, const char *s2). 
....................    Compares s1 & s2; returns -1 if s1<s2, 0 if s1=s2, 1 if s1>s2 */ 
....................  
.................... signed int8 strcoll(char *s1, char *s2) 
.................... { 
....................    for (; *s1 == *s2; s1++, s2++) 
....................       if (*s1 == '\0') 
....................          return(0); 
....................    return((*s1 < *s2) ? -1: 1); 
.................... } 
....................  
.................... /* standard template: 
....................    int strncmp(const char *s1, const char *s2, size_t n). 
....................    Compares max of n characters (not following 0) from s1 to s2; 
....................    returns same as strcmp */ 
....................  
.................... signed int8 strncmp(char *s1, char *s2, size_t n) 
.................... { 
....................    for (; n > 0; s1++, s2++, n--) 
....................       if (*s1 != *s2) 
....................          return((*s1 <*s2) ? -1: 1); 
....................       else if (*s1 == '\0') 
....................          return(0); 
....................    return(0); 
.................... } 
.................... /* standard template: 
....................    int strxfrm(const char *s1, const char *s2, size_t n). 
....................    transforms maximum of n characters from s2 and places them into s1*/ 
.................... size_t strxfrm(char *s1, char *s2, size_t n) 
.................... { 
....................   char *s; 
....................   unsigned int8 n1; 
....................   n1=n; 
....................   for (s = s1; n > 0 && *s2 != '\0'; n--) 
....................      *s++ = *s2++; 
....................   for (; n > 0; n--) 
....................      *s++ = '\0'; 
....................  
....................   return(n1); 
.................... } 
....................  
....................  
....................  
....................  
....................  
.................... /***********************************************************/ 
.................... /*Search functions*/ 
.................... /* standard template: void *memchr(const char *s, int c). 
....................    Finds first occurrence of c in n characters of s */ 
....................  
.................... char *memchr(void *s,unsigned int8 c,size_t n) 
.................... { 
....................    char uc; 
....................    char *su; 
....................    uc=c; 
....................    for(su=s;0<n;++su,--n) 
....................       if(*su==uc) 
....................       return su; 
....................    return NULL; 
.................... } 
....................  
.................... /* standard template: char *strchr(const char *s, int c). 
....................    Finds first occurrence of c in s */ 
....................  
.................... char *strchr(char *s, unsigned int8 c) 
.................... { 
....................    for (; *s != c; s++) 
....................       if (*s == '\0') 
....................          return(0); 
....................    return(s); 
.................... } 
.................... /* standard template: 
....................    size_t strcspn(const char *s1, const char *s2). 
....................    Computes length of max initial segment of s1 that 
....................    consists entirely of characters NOT from s2*/ 
....................  
.................... unsigned int8  strcspn(char *s1, char *s2) 
.................... { 
....................    char *sc1, *sc2; 
....................  
....................    for (sc1 = s1; *sc1 != 0; sc1++) 
....................       for (sc2 = s2; *sc2 != 0; sc2++) 
....................          if (*sc1 == *sc2) 
....................             return(sc1 - s1); 
....................    return(sc1 - s1); 
.................... } 
.................... /* standard template: 
....................    char *strpbrk(const char *s1, const char *s2). 
....................    Locates first occurence of any character from s2 in s1; 
....................    returns s1 if s2 is empty string */ 
....................  
.................... char *strpbrk(char *s1, char *s2) 
.................... { 
....................    char *sc1, *sc2; 
....................  
....................    for (sc1 = s1; *sc1 != 0; sc1++) 
....................       for (sc2 = s2; *sc2 != 0; sc2++) 
....................          if (*sc1 == *sc2) 
....................             return(sc1); 
....................    return(0); 
.................... } 
....................  
....................  
.................... /* standard template: char *strrchr(const char *s, int c). 
....................    Finds last occurrence of c in s */ 
....................  
.................... char *strrchr(char *s, unsigned int8 c) 
.................... { 
....................    char *p; 
....................  
....................    for (p = 0; ; s++) 
....................    { 
....................       if (*s == c) 
....................          p = s; 
....................       if (*s == '\0') 
....................          return(p); 
....................    } 
.................... } 
.................... /* computes length of max initial segment of s1 consisting 
....................    entirely of characters from s2 */ 
....................  
.................... unsigned int8  strspn(char *s1, char *s2) 
.................... { 
....................    char *sc1, *sc2; 
....................  
....................    for (sc1 = s1; *sc1 != 0; sc1++) 
....................       for (sc2 = s2; ; sc2++) 
....................     if (*sc2 == '\0') 
....................        return(sc1 - s1); 
....................          else if (*sc1 == *sc2) 
....................             break; 
....................    return(sc1 - s1); 
.................... } 
.................... /* standard template: 
....................    char *strstr(const char *s1, const char *s2); 
....................    Locates first occurence of character sequence s2 in s1; 
....................    returns 0 if s2 is empty string 
....................  
....................    Uncomment #define FASTER_BUT_MORE_ROM at the top of the 
....................    file to use the faster algorithm */ 
.................... char *strstr(char *s1, char *s2) 
.................... { 
....................    char *s, *t; 
....................  
....................    #ifdef FASTER_BUT_MORE_ROM 
....................    if (*s2 == '\0') 
....................          return(s1); 
....................    #endif 
....................  
....................    while (*s1) 
....................    { 
....................       for(s = s1, t = s2; *t && (*s == *t); ++s, ++t); 
....................  
....................       if (*t == '\0') 
....................          return s1; 
....................       ++s1; 
....................       #ifdef FASTER_BUT_MORE_ROM 
....................          while(*s1 != '\0' && *s1 != *s2) 
....................             ++s1; 
....................       #endif 
....................    } 
....................    return 0; 
.................... } 
....................  
.................... /* standard template: char *strtok(char *s1, const char *s2). 
....................  
....................    Finds next token in s1 delimited by a character from separator 
....................    string s2 (which can be different from call to call).  First call 
....................    starts at beginning of s1 searching for first character NOT 
....................    contained in s2; returns 0 if none is found. 
....................    If one is found, it is the start of first token (return value). 
....................    Function then searches from there for a character contained in s2. 
....................    If none is found, current token extends to end of s1, and subsequent 
....................    searches for a token will return 0.  If one is found, it is 
....................    overwritten by '\0', which terminates current token.  Function saves 
....................    pointer to following character from which next search will start. 
....................    Each subsequent call, with 0 as first argument, starts searching 
....................    from saved pointer */ 
....................  
.................... char *strtok(char *s1, char *s2) 
.................... { 
....................    char *beg, *end; 
....................    static char *save; 
....................  
....................    beg = (s1)? s1: save; 
....................    beg += strspn(beg, s2); 
....................    if (*beg == '\0') 
....................    { 
....................       *save = ' '; 
....................       return(0); 
....................    } 
....................    end = strpbrk(beg, s2); 
....................    if (*end != '\0') 
....................    { 
....................       *end = '\0'; 
....................       end++; 
....................    } 
....................    save = end; 
....................    return(beg); 
.................... } 
....................  
.................... /*****************************************************************/ 
.................... /*Miscellaneous functions*/ 
.................... /* standard template 
.................... maps error number in errnum to an error message string 
.................... Returns: Pointer to string 
.................... */ 
.................... #ifdef _ERRNO 
.................... char * strerror(unsigned int8 errnum) 
.................... { 
.................... char s[15]; 
.................... switch( errnum) 
.................... { 
.................... case 0: 
....................    strcpy(s,"no errors"); 
....................    return s; 
.................... case EDOM : 
....................    strcpy(s,"domain error"); 
....................    return s; 
.................... case ERANGE: 
....................    strcpy(s,"range error"); 
....................    return s; 
.................... } 
.................... } 
.................... #ENDIF 
.................... /* standard template: size_t strlen(const char *s). 
....................    Computes length of s1 (preceding terminating 0) */ 
....................  
.................... unsigned int8 strlen(char *s) 
.................... { 
....................    char *sc; 
....................  
....................    for (sc = s; *sc != 0; sc++); 
....................    return(sc - s); 
.................... } 
....................  
.................... /* standard template: size_t stricmp(const char *s1, const char *s2). 
....................    Compares s1 to s2 ignoring case (upper vs. lower) */ 
....................  
.................... signed int8 stricmp(char *s1, char *s2) 
.................... { 
....................  for(; *s1==*s2||(isalpha(*s1)&&isalpha(*s2)&&(*s1==*s2+32||*s2==*s1+32)); 
....................     s1++, s2++) 
....................     if (*s1 == '\0') 
....................        return(0); 
....................  return((*s1 < *s2) ? -1: 1); 
.................... } 
....................  
....................  
.................... /* standard template: char *strlwr(char *s). 
....................    Replaces uppercase letters by lowercase; 
....................    returns pointer to new string s */ 
....................  
.................... char *strlwr(char *s) 
.................... { 
....................    char *p; 
....................  
....................    for (p = s; *p != '\0'; p++) 
....................       if (*p >= 'A' && *p <='Z') 
....................          *p += 'a' - 'A'; 
....................    return(s); 
.................... } 
....................  
....................  
.................... /************************************************************/ 
....................  
....................  
.................... #endif 
....................  
....................  
.................... div_t div(signed int numer, signed int denom) 
.................... { 
....................    div_t val; 
....................    val.quot = numer / denom; 
....................    val.rem = numer - (denom * val.quot); 
....................    return (val); 
.................... } 
....................  
.................... ldiv_t ldiv(signed long numer, signed long denom) 
.................... { 
....................    ldiv_t val; 
....................  
....................    val.quot = numer / denom; 
....................    val.rem = numer - (denom * val.quot); 
....................    return (val); 
.................... } 
....................  
.................... #if defined(__PCD__) 
.................... float32 atoe(char * s) 
.................... { 
....................    float32 pow10 = 1.0; 
....................    float32 result = 0.0; 
....................    unsigned int8 sign = 0; 
....................    unsigned int8 expsign = 0; 
....................    char c; 
....................    unsigned int8 ptr = 0; 
....................    unsigned int8 i; 
....................    float32 exp = 1.0; 
....................    unsigned int8 expcnt = 0; 
....................  
....................    c = s[ptr++]; 
....................  
....................    if ((c>='0' && c<='9') || c=='+' || c=='-' || c=='.' || c=='E' || c=='e') { 
....................       if(c == '-') { 
....................          sign = 1; 
....................          c = s[ptr++]; 
....................       } 
....................       if(c == '+') 
....................          c = s[ptr++]; 
....................  
....................       while((c >= '0' && c <= '9')) { 
....................          result = 10*result + c - '0'; 
....................          c = s[ptr++]; 
....................       } 
....................  
....................       if (c == '.') { 
....................          c = s[ptr++]; 
....................          while((c >= '0' && c <= '9')) { 
....................              pow10 = pow10*10; 
....................              result += (c - '0')/pow10; 
....................              c = s[ptr++]; 
....................          } 
....................       } 
....................  
....................       // Handling the exponent 
....................       if (c=='e' || c=='E') { 
....................          c = s[ptr++]; 
....................  
....................          if(c == '-') { 
....................             expsign = 1; 
....................             c = s[ptr++]; 
....................          } 
....................          if(c == '+') 
....................             c = s[ptr++]; 
....................  
....................          while((c >= '0' && c <= '9')) { 
....................             expcnt = 10*expcnt + c - '0'; 
....................             c = s[ptr++]; 
....................          } 
....................  
....................          for(i=0;i<expcnt;i++) 
....................             exp*=10; 
....................  
....................          if(expsign==1) 
....................             result/=exp; 
....................          else 
....................             result*=exp; 
....................       } 
....................    } 
....................  
....................    if (sign == 1) 
....................       result = -1*result; 
....................    return(result); 
.................... } 
.................... #endif 
....................  
.................... #if !defined(__PCD__) 
.................... float atoe(char * s) 
.................... { 
....................    float pow10 = 1.0; 
....................    float result = 0.0; 
....................    unsigned int8 sign = 0; 
....................    unsigned int8 expsign = 0; 
....................    char c; 
....................    unsigned int8 ptr = 0; 
....................    unsigned int8 i; 
....................    float exp = 1.0; 
....................    unsigned int8 expcnt = 0; 
....................  
....................    c = s[ptr++]; 
....................  
....................    if ((c>='0' && c<='9') || c=='+' || c=='-' || c=='.' || c=='E' || c=='e') { 
....................       if(c == '-') { 
....................          sign = 1; 
....................          c = s[ptr++]; 
....................       } 
....................       if(c == '+') 
....................          c = s[ptr++]; 
....................  
....................       while((c >= '0' && c <= '9')) { 
....................          result = 10*result + c - '0'; 
....................          c = s[ptr++]; 
....................       } 
....................  
....................       if (c == '.') { 
....................          c = s[ptr++]; 
....................          while((c >= '0' && c <= '9')) { 
....................              pow10 = pow10*10; 
....................              result += (c - '0')/pow10; 
....................              c = s[ptr++]; 
....................          } 
....................       } 
....................  
....................       // Handling the exponent 
....................       if (c=='e' || c=='E') { 
....................          c = s[ptr++]; 
....................  
....................          if(c == '-') { 
....................             expsign = 1; 
....................             c = s[ptr++]; 
....................          } 
....................          if(c == '+') 
....................             c = s[ptr++]; 
....................  
....................          while((c >= '0' && c <= '9')) { 
....................             expcnt = 10*expcnt + c - '0'; 
....................             c = s[ptr++]; 
....................          } 
....................  
....................          for(i=0;i<expcnt;i++) 
....................             exp*=10; 
....................  
....................          if(expsign==1) 
....................             result/=exp; 
....................          else 
....................             result*=exp; 
....................       } 
....................    } 
....................  
....................    if (sign == 1) 
....................       result = -1*result; 
....................    return(result); 
.................... } 
.................... #endif 
....................  
.................... signed int atoi(char *s) 
.................... { 
....................    signed int result; 
....................    unsigned int sign, base, index; 
....................    char c; 
....................  
....................    index = 0; 
....................    sign = 0; 
....................    base = 10; 
....................    result = 0; 
....................  
....................    if (!s) 
....................       return 0; 
....................    // Omit all preceeding alpha characters 
....................    c = s[index++]; 
....................  
....................    // increase index if either positive or negative sign is detected 
....................    if (c == '-') 
....................    { 
....................       sign = 1;         // Set the sign to negative 
....................       c = s[index++]; 
....................    } 
....................    else if (c == '+') 
....................    { 
....................       c = s[index++]; 
....................    } 
....................  
....................    if (c >= '0' && c <= '9') 
....................    { 
....................  
....................       // Check for hexa number 
....................       if (c == '0' && (s[index] == 'x' || s[index] == 'X')) 
....................       { 
....................          base = 16; 
....................          index++; 
....................          c = s[index++]; 
....................       } 
....................  
....................       // The number is a decimal number 
....................       if (base == 10) 
....................       { 
....................          while (c >= '0' && c <= '9') 
....................          { 
....................             result = 10*result + (c - '0'); 
....................             c = s[index++]; 
....................          } 
....................       } 
....................       else if (base == 16)    // The number is a hexa number 
....................       { 
....................          c = toupper(c); 
....................          while ( (c >= '0' && c <= '9') || (c >= 'A' && c<='F')) 
....................          { 
....................             if (c >= '0' && c <= '9') 
....................                result = (result << 4) + (c - '0'); 
....................             else 
....................                result = (result << 4) + (c - 'A' + 10); 
....................  
....................             c = s[index++]; 
....................             c = toupper(c); 
....................          } 
....................       } 
....................    } 
....................  
....................    if (sign == 1 && base == 10) 
....................        result = -result; 
....................  
....................    return(result); 
.................... } 
....................  
.................... signed long atol(char *s) 
.................... { 
....................    signed long result; 
....................    unsigned int sign, base, index; 
....................    char c; 
....................  
....................    index = 0; 
....................    sign = 0; 
....................    base = 10; 
....................    result = 0; 
....................  
....................    if (!s) 
....................       return 0; 
....................    c = s[index++]; 
....................  
....................    // increase index if either positive or negative sign is detected 
....................    if (c == '-') 
....................    { 
....................       sign = 1;         // Set the sign to negative 
....................       c = s[index++]; 
....................    } 
....................    else if (c == '+') 
....................    { 
....................       c = s[index++]; 
....................    } 
....................  
....................    if (c >= '0' && c <= '9') 
....................    { 
....................       if (c == '0' && (s[index] == 'x' || s[index] == 'X')) 
....................       { 
....................          base = 16; 
....................          index++; 
....................          c = s[index++]; 
....................       } 
....................  
....................       // The number is a decimal number 
....................       if (base == 10) 
....................       { 
....................          while (c >= '0' && c <= '9') 
....................          { 
....................             result = 10*result + (c - '0'); 
....................             c = s[index++]; 
....................          } 
....................       } 
....................       else if (base == 16)    // The number is a hexa number 
....................       { 
....................          c = toupper(c); 
....................          while ( (c >= '0' && c <= '9') || (c >= 'A' && c <='F')) 
....................          { 
....................             if (c >= '0' && c <= '9') 
....................                result = (result << 4) + (c - '0'); 
....................             else 
....................                result = (result << 4) + (c - 'A' + 10); 
....................  
....................             c = s[index++];c = toupper(c); 
....................          } 
....................       } 
....................    } 
....................  
....................    if (base == 10 && sign == 1) 
....................       result = -result; 
....................  
....................    return(result); 
.................... } 
....................  
.................... /* A fast routine to multiply by 10 
....................  */ 
.................... signed int32 mult_with10(int32 num) 
.................... { 
....................    return ( (num << 1) + (num << 3) ); 
.................... } 
....................  
.................... #if sizeof(long)==2 
.................... signed int32 atoi32(char *s) 
.................... { 
....................    signed int32 result; 
....................    int8 sign, base, index; 
....................    char c; 
....................  
....................    index = 0; 
....................    sign = 0; 
....................    base = 10; 
....................    result = 0; 
....................  
....................    if (!s) 
....................       return 0; 
....................    c = s[index++]; 
....................  
....................    // increase index if either positive or negative sign is detected 
....................    if (c == '-') 
....................    { 
....................       sign = 1;         // Set the sign to negative 
....................       c = s[index++]; 
....................    } 
....................    else if (c == '+') 
....................    { 
....................       c = s[index++]; 
....................    } 
....................  
....................    if (c >= '0' && c <= '9') 
....................    { 
....................       if (c == '0' && (s[index] == 'x' || s[index] == 'X')) 
....................       { 
....................          base = 16; 
....................          index++; 
....................          c = s[index++]; 
....................       } 
....................  
....................       // The number is a decimal number 
....................       if (base == 10) 
....................       { 
....................          while (c >= '0' && c <= '9') { 
....................             result = (result << 1) + (result << 3);  // result *= 10; 
....................             result += (c - '0'); 
....................             c = s[index++]; 
....................          } 
....................       } 
....................       else if (base == 16)    // The number is a hexa number 
....................       { 
....................          c = toupper(c); 
....................          while ((c >= '0' && c <= '9') || (c >= 'A' && c <='F')) 
....................          { 
....................             if (c >= '0' && c <= '9') 
....................                result = (result << 4) + (c - '0'); 
....................             else 
....................                result = (result << 4) + (c - 'A' + 10); 
....................  
....................             c = s[index++];c = toupper(c); 
....................          } 
....................       } 
....................    } 
....................  
....................    if (base == 10 && sign == 1) 
....................       result = -result; 
....................  
....................    return(result); 
.................... } 
.................... #endif 
....................  
.................... #if defined(__PCD__) 
....................  
.................... signed int48 atoi48(char *s) 
.................... { 
....................    signed int48 result; 
....................    int8 sign, base, index; 
....................    char c; 
....................  
....................    index = 0; 
....................    sign = 0; 
....................    base = 10; 
....................    result = 0; 
....................  
....................    if (!s) 
....................       return 0; 
....................    c = s[index++]; 
....................  
....................    // increase index if either positive or negative sign is detected 
....................    if (c == '-') 
....................    { 
....................       sign = 1;         // Set the sign to negative 
....................       c = s[index++]; 
....................    } 
....................    else if (c == '+') 
....................    { 
....................       c = s[index++]; 
....................    } 
....................  
....................    if (c >= '0' && c <= '9') 
....................    { 
....................       if (c == '0' && (s[index] == 'x' || s[index] == 'X')) 
....................       { 
....................          base = 16; 
....................          index++; 
....................          c = s[index++]; 
....................       } 
....................  
....................       // The number is a decimal number 
....................       if (base == 10) 
....................       { 
....................          while (c >= '0' && c <= '9') { 
....................             result = (result << 1) + (result << 3);  // result *= 10; 
....................             result += (c - '0'); 
....................             c = s[index++]; 
....................          } 
....................       } 
....................       else if (base == 16)    // The number is a hexa number 
....................       { 
....................          c = toupper(c); 
....................          while ((c >= '0' && c <= '9') || (c >= 'A' && c <='F')) 
....................          { 
....................             if (c >= '0' && c <= '9') 
....................                result = (result << 4) + (c - '0'); 
....................             else 
....................                result = (result << 4) + (c - 'A' + 10); 
....................  
....................             c = s[index++];c = toupper(c); 
....................          } 
....................       } 
....................    } 
....................  
....................    if (base == 10 && sign == 1) 
....................       result = -result; 
....................  
....................    return(result); 
.................... } 
....................  
.................... signed int64 atoi64(char *s) 
.................... { 
....................    signed int64 result; 
....................    int8 sign, base, index; 
....................    char c; 
....................  
....................    index = 0; 
....................    sign = 0; 
....................    base = 10; 
....................    result = 0; 
....................  
....................    if (!s) 
....................       return 0; 
....................    c = s[index++]; 
....................  
....................    // increase index if either positive or negative sign is detected 
....................    if (c == '-') 
....................    { 
....................       sign = 1;         // Set the sign to negative 
....................       c = s[index++]; 
....................    } 
....................    else if (c == '+') 
....................    { 
....................       c = s[index++]; 
....................    } 
....................  
....................    if (c >= '0' && c <= '9') 
....................    { 
....................       if (c == '0' && (s[index] == 'x' || s[index] == 'X')) 
....................       { 
....................          base = 16; 
....................          index++; 
....................          c = s[index++]; 
....................       } 
....................  
....................       // The number is a decimal number 
....................       if (base == 10) 
....................       { 
....................          while (c >= '0' && c <= '9') { 
....................             result = (result << 1) + (result << 3);  // result *= 10; 
....................             result += (c - '0'); 
....................             c = s[index++]; 
....................          } 
....................       } 
....................       else if (base == 16)    // The number is a hexa number 
....................       { 
....................          c = toupper(c); 
....................          while ((c >= '0' && c <= '9') || (c >= 'A' && c <='F')) 
....................          { 
....................             if (c >= '0' && c <= '9') 
....................                result = (result << 4) + (c - '0'); 
....................             else 
....................                result = (result << 4) + (c - 'A' + 10); 
....................  
....................             c = s[index++];c = toupper(c); 
....................          } 
....................       } 
....................    } 
....................  
....................    if (base == 10 && sign == 1) 
....................       result = -result; 
....................  
....................    return(result); 
.................... } 
.................... #endif 
....................  
.................... char * itoa(signed int32 num, unsigned int base, char * s) 
.................... { 
....................      unsigned int32 temp=1; 
....................      unsigned int8 i,sign=0,cnt=0; 
....................      char c; 
....................  
....................      if(num<0) { 
....................          sign=1;        // Check for negative number 
....................          num*=-1; 
....................      } 
....................  
....................      while(temp>0) { 
....................          temp=(num/base); 
....................          s[cnt]=(num%base)+'0';    // Conversion 
....................  
....................          if(s[cnt]>0x39) 
....................             s[cnt]+=0x7; 
....................  
....................          cnt++; 
....................          num=temp; 
....................      } 
....................  
....................      if(sign==1) { 
....................          s[cnt]=0x2D;      // Negative sign 
....................          cnt++; 
....................      } 
....................  
....................      for(i = 0;i<(int8)(cnt/2);i++) { 
....................  
....................          c=s[i]; 
....................          s[i]=s[cnt-i-1];        // Reverse the number 
....................          s[cnt-i-1]=c; 
....................      } 
....................      s[cnt]='\0';     // End the string 
....................      return s; 
.................... } 
....................  
.................... float strtof(char *s, char *endptr) 
.................... { 
....................    float pow10 = 1.0; 
....................    float result = 0.0; 
....................    int1 skip = 1, sign = 0, point = 0; 
....................    char c; 
....................    unsigned int8 ptr = 0; 
....................  
....................    if (!s) 
....................       return 0; 
....................  
....................    for(c=s[ptr++]; c!=0; c=s[ptr++]) 
....................    { 
....................       if (skip && !isspace(c)) 
....................       { 
....................          skip = 0; 
....................          if (c == '+') 
....................          { 
....................             sign = 0; 
....................             continue; 
....................          }             
....................          else if (c == '-') 
....................          { 
....................             sign = 1; 
....................             continue; 
....................          } 
....................       } 
....................       if (!skip && (c == '.') && !point) 
....................          point = 1; 
....................       else if (!skip && isdigit(c)) 
....................       { 
....................          c -= '0'; 
....................          if (point) 
....................          { 
....................             pow10 = pow10 * 10.0; 
....................             result += (float)c / pow10;    
....................          } 
....................          else 
....................          { 
....................             result = 10.0 * result + (float)c; 
....................          } 
....................       } 
....................       else if (!skip) 
....................          break; 
....................    } 
....................  
....................    if (sign) 
....................       result = -1*result; 
....................        
....................    if(endptr) 
....................    { 
....................       if (ptr) { 
....................          ptr--; 
....................        #IF LONG_POINTERS  
....................          *((long *)endptr)= s+ptr;  
....................        #ELSE 
....................          *((char *)endptr)=s+ptr; 
....................        #ENDIF 
....................       } 
....................       else 
....................       { 
....................       #IF LONG_POINTERS 
....................       *((long *)endptr)= s;  
....................       #ELSE 
....................       *((char *)endptr)=s; 
....................       #ENDIF 
....................       } 
....................    } 
....................  
....................    return(result); 
.................... } 
....................  
.................... #if defined(__PCD__) 
.................... float48 strtof48(char *s, char *endptr) 
.................... { 
....................    float48 pow10 = 1.0; 
....................    float48 result = 0.0; 
....................    int1 skip = 1, sign = 0, point = 0; 
....................    char c; 
....................    unsigned int8 ptr = 0; 
....................  
....................    if (!s) 
....................       return 0; 
....................  
....................    for(c=s[ptr++]; c!=0; c=s[ptr++]) 
....................    { 
....................       if (skip && !isspace(c)) 
....................       { 
....................          skip = 0; 
....................          if (c == '+') 
....................          { 
....................             sign = 0; 
....................             continue; 
....................          }             
....................          else if (c == '-') 
....................          { 
....................             sign = 1; 
....................             continue; 
....................          } 
....................       } 
....................       if (!skip && (c == '.') && !point) 
....................          point = 1; 
....................       else if (!skip && isdigit(c)) 
....................       { 
....................          c -= '0'; 
....................          if (point) 
....................          { 
....................             pow10 = pow10 * 10.0; 
....................             result += (float48)c / pow10;    
....................          } 
....................          else 
....................          { 
....................             result = 10.0 * result + (float48)c; 
....................          } 
....................       } 
....................       else if (!skip) 
....................          break; 
....................    } 
....................  
....................    if (sign) 
....................       result = -1*result; 
....................        
....................    if(endptr) 
....................    { 
....................       if (ptr) { 
....................          ptr--; 
....................        #IF LONG_POINTERS  
....................          *((long *)endptr)= s+ptr;  
....................        #ELSE 
....................          *((char *)endptr)=s+ptr; 
....................        #ENDIF 
....................       } 
....................       else 
....................       { 
....................       #IF LONG_POINTERS 
....................       *((long *)endptr)= s;  
....................       #ELSE 
....................       *((char *)endptr)=s; 
....................       #ENDIF 
....................       } 
....................    } 
....................  
....................    return(result); 
.................... } 
....................  
.................... float64 strtod(char *s, char *endptr) 
.................... { 
....................    float64 pow10 = 1.0; 
....................    float64 result = 0.0; 
....................    int1 skip = 1, sign = 0, point = 0; 
....................    char c; 
....................    unsigned int8 ptr = 0; 
....................  
....................    if (!s) 
....................       return 0; 
....................  
....................    for(c=s[ptr++]; c!=0; c=s[ptr++]) 
....................    { 
....................       if (skip && !isspace(c)) 
....................       { 
....................          skip = 0; 
....................          if (c == '+') 
....................          { 
....................             sign = 0; 
....................             continue; 
....................          }             
....................          else if (c == '-') 
....................          { 
....................             sign = 1; 
....................             continue; 
....................          } 
....................       } 
....................       if (!skip && (c == '.') && !point) 
....................          point = 1; 
....................       else if (!skip && isdigit(c)) 
....................       { 
....................          c -= '0'; 
....................          if (point) 
....................          { 
....................             pow10 = pow10 * 10.0; 
....................             result += (float64)c / pow10;    
....................          } 
....................          else 
....................          { 
....................             result = 10.0 * result + (float64)c; 
....................          } 
....................       } 
....................       else if (!skip) 
....................          break; 
....................    } 
....................  
....................    if (sign) 
....................       result = -1*result; 
....................        
....................    if(endptr) 
....................    { 
....................       if (ptr) { 
....................          ptr--; 
....................        #IF LONG_POINTERS  
....................          *((long *)endptr)= s+ptr;  
....................        #ELSE 
....................          *((char *)endptr)=s+ptr; 
....................        #ENDIF 
....................       } 
....................       else 
....................       { 
....................       #IF LONG_POINTERS 
....................       *((long *)endptr)= s;  
....................       #ELSE 
....................       *((char *)endptr)=s; 
....................       #ENDIF 
....................       } 
....................    } 
....................  
....................    return(result); 
.................... } 
.................... #endif 
....................  
.................... unsigned long strtoul(char *s, char *endptr, signed int base) 
.................... { 
....................    char *sc,*s1,*sd; 
....................    unsigned long x=0; 
....................    char sign; 
....................    char digits[]="0123456789abcdefghijklmnopqstuvwxyz"; 
....................    for(sc=s;isspace(*sc);++sc); 
....................    sign=*sc=='-'||*sc=='+'?*sc++:'+'; 
....................    if(sign=='-' || base <0 || base ==1|| base >36) // invalid base 
....................    goto StrtoulGO; 
....................  
....................    else if (base) 
....................    { 
....................       if(base==16 && *sc =='0'&&(sc[1]=='x' || sc[1]=='X')) 
....................          sc+=2; 
....................       if(base==8 && *sc =='0') 
....................          sc+=1; 
....................       if(base==2 && *sc =='0'&&sc[1]=='b') 
....................          sc+=2; 
....................  
....................    } 
....................    else if(*sc!='0') // base is 0, find base 
....................       base=10; 
....................    else if (sc[1]=='x' || sc[1]=='X') 
....................       base =16,sc+=2; 
....................    else if(sc[1]=='b') 
....................       base=2,sc+=2; 
....................    else 
....................       base=8; 
....................    for (s1=sc;*sc=='0';++sc);// skip leading zeroes 
....................    sd=memchr(digits,tolower(*sc),base); 
....................    for(; sd!=0; ) 
....................    { 
....................       x=x*base+(int16)(sd-digits); 
....................       ++sc; 
....................       sd=memchr(digits,tolower(*sc),base); 
....................    } 
....................    if(s1==sc) 
....................    { 
....................    StrtoulGO: 
....................       if (endptr) 
....................       { 
....................          #IF LONG_POINTERS 
....................          *((long *)endptr)= s;  
....................          #ELSE 
....................          *((char *)endptr)=s; 
....................          #ENDIF 
....................          } 
....................    return 0; 
....................    } 
....................    if (endptr) 
....................    { 
....................          #IF LONG_POINTERS 
....................          *((long *)endptr)= sc;  
....................          #ELSE 
....................          *((char *)endptr)=sc;  
....................          #ENDIF 
....................    } 
....................    return x; 
.................... } 
....................  
....................  
.................... signed long strtol(char *s,char *endptr, signed int base) 
.................... { 
....................    char *sc,*s1,*sd; 
....................    signed long x=0; 
....................    char sign; 
....................    char digits[]="0123456789abcdefghijklmnopqstuvwxyz"; 
....................    for(sc=s;isspace(*sc);++sc); 
....................    sign=*sc=='-'||*sc=='+'?*sc++:'+'; 
....................    if (base <0 || base ==1|| base >36) // invalid base 
....................    goto StrtolGO; 
....................    else if (base) 
....................    { 
....................       if(base==16 && *sc =='0'&&(sc[1]=='x' || sc[1]=='X')) 
....................          sc+=2; 
....................       if(base==8 && *sc =='0') 
....................          sc+=1; 
....................       if(base==2 && *sc =='0'&&sc[1]=='b') 
....................          sc+=2; 
....................  
....................    } 
....................    else if(*sc!='0') // base is 0, find base 
....................       base=10; 
....................    else if (sc[1]=='x' || sc[1]=='X') 
....................       base =16,sc+=2; 
....................    else if(sc[1]=='b') 
....................       base=2,sc+=2; 
....................    else 
....................       base=8; 
....................    for (s1=sc;*sc=='0';++sc);// skip leading zeroes 
....................  
....................    sd=memchr(digits,tolower(*sc),base); 
....................    for(;sd!=0;) 
....................    { 
....................       x=x*base+(int16)(sd-digits); 
....................       ++sc; 
....................       sd=memchr(digits,tolower(*sc),base); 
....................    } 
....................    if(s1==sc) 
....................    { 
....................    StrtolGO: 
....................       if (endptr) 
....................       { 
....................          #IF LONG_POINTERS 
....................          *((long *)endptr)= s;  
....................          #ELSE 
....................          *((char *)endptr)=s; 
....................          #ENDIF 
....................       } 
....................    return 0; 
....................    } 
....................    if(sign=='-') 
....................       x  =-x; 
....................    if (endptr) 
....................    { 
....................         #IF LONG_POINTERS 
....................          *((long *)endptr)= sc;  
....................         #ELSE 
....................         *((char *)endptr)=sc; 
....................         #ENDIF 
....................    } 
....................    return x; 
.................... } 
....................  
.................... signed int8 system(char *string) 
.................... { 
....................    return 0; 
.................... } 
....................  
.................... int8 mblen(char *s,size_t n) 
.................... { 
....................    return strlen(s); 
.................... } 
....................  
.................... int8 mbtowc(wchar_t *pwc,char *s,size_t n) 
.................... { 
....................    *pwc=*s; 
....................    return 1; 
.................... } 
....................  
.................... int8 wctomb(char *s,wchar_t wchar) 
.................... { 
....................    *s=wchar; 
....................    return 1; 
.................... } 
....................  
.................... size_t mbstowcs(wchar_t *pwcs,char *s,size_t n) 
.................... { 
....................    strncpy(pwcs,s,n); 
....................    return strlen(pwcs); 
.................... } 
....................  
.................... size_t wcstombs(char *s,wchar_t *pwcs,size_t n) 
.................... { 
....................    strncpy(s,pwcs,n); 
....................    return strlen(s); 
.................... } 
....................  
.................... //--------------------------------------------------------------------------- 
.................... // The random number implementation 
.................... //--------------------------------------------------------------------------- 
....................  
.................... unsigned int32 _Randseed; 
....................  
.................... unsigned int16 rand(void) 
.................... { 
....................    _Randseed = _Randseed * 1103515245 + 12345; 
....................    return ((unsigned int16)(_Randseed >> 16) % RAND_MAX); 
.................... } 
....................  
.................... void srand(unsigned int32 seed) 
.................... { 
....................    _Randseed = seed; 
.................... } 
....................  
.................... //--------------------------------------------------------------------------- 
.................... // Searching and sorting utilities implementation 
.................... //--------------------------------------------------------------------------- 
....................  
.................... #if !defined(__PCD__) 
.................... typedef signed int8 (*_Cmpfun)(char * p1,char * p2);  
.................... #else  
.................... typedef signed int16 (*_Cmpfun)(char * p1,char * p2);  
.................... #endif 
....................  
....................  
....................  
.................... void qsort(char * qdata, unsigned int qitems, unsigned int qsize, _Cmpfun cmp) { 
....................    unsigned int m,j,i,l; 
....................    int1 done; 
....................    unsigned int8 t[16]; 
....................  
....................    m = qitems/2; 
....................    while( m > 0 ) { 
....................      for(j=0; j<(qitems-m); ++j) { 
....................         i = j; 
....................         do 
....................         { 
....................            done=1; 
....................            l = i+m; 
....................            if( (*cmp)(qdata+i*qsize, qdata+l*qsize) > 0 ) { 
....................               memcpy(t, qdata+i*qsize, qsize); 
....................               memcpy(qdata+i*qsize, qdata+l*qsize, qsize); 
....................               memcpy(qdata+l*qsize, t, qsize); 
....................               if(m <= i) 
....................                 i -= m; 
....................                 done = 0; 
....................            } 
....................         } while(!done); 
....................      } 
....................      m = m/2; 
....................    } 
.................... } 
....................  
....................  
.................... char *bsearch(char *key, char *base, size_t num, size_t width,_Cmpfun cmp) 
.................... { 
....................    char *p, *q; 
....................    size_t n; 
....................    size_t pivot; 
....................    signed int val; 
....................  
....................    p = base; 
....................    n = num; 
....................  
....................    while (n > 0) 
....................    { 
....................       pivot = n >> 1; 
....................       q = p + width * pivot; 
....................  
....................       val = (*cmp)(key, q); 
....................  
....................       if (val < 0) 
....................          n = pivot; 
....................       else if (val == 0) 
....................          return ((char *)q); 
....................       else { 
....................          p = q + width; 
....................          n -= pivot + 1; 
....................       } 
....................    } 
....................  
....................    return NULL;      // There's no match 
.................... } 
....................  
....................  
.................... #endif 
....................  
.................... #include <DS1302.c> 
.................... ////////////////////////////////////////////////////////////////////////// 
.................... ////                               DS1302.C                           //// 
.................... ////                     Driver for Real Time Clock                   //// 
.................... ////                                                                  //// 
.................... ////  rtc_init()                                   Call after power up//// 
.................... ////                                                                  //// 
.................... ////  rtc_set_datetime(day,mth,year,dow,hour,min)  Set the date/time  //// 
.................... ////                                                                  //// 
.................... ////  rtc_get_date(day,mth,year,dow)               Get the date       //// 
.................... ////                                                                  //// 
.................... ////  rtc_get_time(hr,min,sec)                     Get the time       //// 
.................... ////                                                                  //// 
.................... ////  rtc_write_nvr(address,data)                  Write to NVR       //// 
.................... ////                                                                  //// 
.................... ////  data = rtc_read_nvr(address)                 Read from NVR      //// 
.................... ////                                                                  //// 
.................... ////  get_bcd(data)                              Convert data to BCD  //// 
.................... ////                                                                  //// 
.................... ////  rm_bcd(data)                               Convert data to int  //// 
.................... ////                                                                  //// 
.................... ////////////////////////////////////////////////////////////////////////// 
.................... ////        (C) Copyright 1996,2003 Custom Computer Services          //// 
.................... //// This source code may only be used by licensed users of the CCS C //// 
.................... //// compiler.  This source code may only be distributed to other     //// 
.................... //// licensed users of the CCS C compiler.  No other use, reproduction//// 
.................... //// or distribution is permitted without written permission.         //// 
.................... //// Derivative programs created using this software in object code   //// 
.................... //// form are not restricted in any way.                              //// 
.................... ////////////////////////////////////////////////////////////////////////// 
....................  
.................... //#ifndef RTC_SCLK 
....................  
.................... #define RTC_SCLK PIN_C0 
.................... #define RTC_IO   PIN_C1 
.................... #define RTC_RST  PIN_C2 
....................  
.................... //#endif 
....................  
.................... void write_ds1302_byte(BYTE cmd) { 
....................    BYTE i; 
....................  
....................    for(i=0;i<=7;++i) { 
*
03B1C:  MOVLB  6
03B1E:  CLRF   xD4
03B20:  MOVF   xD4,W
03B22:  SUBLW  07
03B24:  BNC   3B40
....................       output_bit(RTC_IO, shift_right(&cmd,1,0) ); 
03B26:  BCF    FD8.0
03B28:  RRCF   xD3,F
03B2A:  BC    3B30
03B2C:  BCF    F8B.1
03B2E:  BRA    3B32
03B30:  BSF    F8B.1
03B32:  BCF    F94.1
....................       output_high(RTC_SCLK); 
03B34:  BCF    F94.0
03B36:  BSF    F8B.0
....................       output_low(RTC_SCLK); 
03B38:  BCF    F94.0
03B3A:  BCF    F8B.0
....................    } 
03B3C:  INCF   xD4,F
03B3E:  BRA    3B20
.................... } 
03B40:  MOVLB  0
03B42:  RETLW  00
....................  
.................... void write_ds1302(BYTE cmd, BYTE data) { 
....................  
....................    output_high(RTC_RST); 
03B44:  BCF    F94.2
03B46:  BSF    F8B.2
....................    write_ds1302_byte(cmd); 
03B48:  MOVFF  6D1,6D3
03B4C:  RCALL  3B1C
....................    write_ds1302_byte(data); 
03B4E:  MOVFF  6D2,6D3
03B52:  RCALL  3B1C
....................    output_low(RTC_RST); 
03B54:  BCF    F94.2
03B56:  BCF    F8B.2
.................... } 
03B58:  RETLW  00
....................  
.................... BYTE read_ds1302(BYTE cmd) { 
....................    BYTE i,data; 
....................  
....................    output_high(RTC_RST); 
03B5A:  BCF    F94.2
03B5C:  BSF    F8B.2
....................    write_ds1302_byte(cmd); 
03B5E:  MOVFF  6CE,6D3
03B62:  RCALL  3B1C
....................     
....................    input(RTC_IO); 
03B64:  BSF    F94.1
....................    delay_us(10); 
03B66:  MOVLW  10
03B68:  MOVWF  00
03B6A:  DECFSZ 00,F
03B6C:  BRA    3B6A
03B6E:  NOP   
....................           
....................    for(i=0;i<=7;++i) { 
03B70:  MOVLB  6
03B72:  CLRF   xCF
03B74:  MOVF   xCF,W
03B76:  SUBLW  07
03B78:  BNC   3BA4
....................       shift_right(&data,1,input(RTC_IO)); 
03B7A:  BSF    F94.1
03B7C:  BTFSC  F82.1
03B7E:  BRA    3B84
03B80:  BCF    FD8.0
03B82:  BRA    3B86
03B84:  BSF    FD8.0
03B86:  RRCF   xD0,F
....................       output_high(RTC_SCLK); 
03B88:  BCF    F94.0
03B8A:  BSF    F8B.0
....................       delay_us(20); 
03B8C:  MOVLW  21
03B8E:  MOVWF  00
03B90:  DECFSZ 00,F
03B92:  BRA    3B90
....................       output_low(RTC_SCLK); 
03B94:  BCF    F94.0
03B96:  BCF    F8B.0
....................       delay_us(20); 
03B98:  MOVLW  21
03B9A:  MOVWF  00
03B9C:  DECFSZ 00,F
03B9E:  BRA    3B9C
....................    } 
03BA0:  INCF   xCF,F
03BA2:  BRA    3B74
....................    output_low(RTC_RST); 
03BA4:  BCF    F94.2
03BA6:  BCF    F8B.2
....................  
....................    return(data); 
03BA8:  MOVFF  6D0,01
.................... } 
03BAC:  MOVLB  0
03BAE:  RETLW  00
....................  
.................... void rtc_init() { 
....................    BYTE x; 
....................    output_low(RTC_RST); 
03BB0:  BCF    F94.2
03BB2:  BCF    F8B.2
....................    delay_us(20); 
03BB4:  MOVLW  21
03BB6:  MOVWF  00
03BB8:  DECFSZ 00,F
03BBA:  BRA    3BB8
....................    output_low(RTC_SCLK); 
03BBC:  BCF    F94.0
03BBE:  BCF    F8B.0
....................    write_ds1302(0x8e,0); 
03BC0:  MOVLW  8E
03BC2:  MOVLB  6
03BC4:  MOVWF  xD1
03BC6:  CLRF   xD2
03BC8:  MOVLB  0
03BCA:  RCALL  3B44
....................    write_ds1302(0x90,0xa4); 
03BCC:  MOVLW  90
03BCE:  MOVLB  6
03BD0:  MOVWF  xD1
03BD2:  MOVLW  A4
03BD4:  MOVWF  xD2
03BD6:  MOVLB  0
03BD8:  RCALL  3B44
....................    x=read_ds1302(0x81); 
03BDA:  MOVLW  81
03BDC:  MOVLB  6
03BDE:  MOVWF  xCE
03BE0:  MOVLB  0
03BE2:  RCALL  3B5A
03BE4:  MOVFF  01,6CA
....................    if((x & 0x80)!=0) 
03BE8:  MOVLB  6
03BEA:  MOVF   xCA,W
03BEC:  ANDLW  80
03BEE:  BZ    3BFC
....................      write_ds1302(0x80,0); 
03BF0:  MOVLW  80
03BF2:  MOVWF  xD1
03BF4:  CLRF   xD2
03BF6:  MOVLB  0
03BF8:  RCALL  3B44
03BFA:  MOVLB  6
.................... } 
03BFC:  MOVLB  0
03BFE:  GOTO   7E46 (RETURN)
....................  
.................... byte get_bcd(BYTE data) 
.................... { 
....................    byte nibh; 
....................    byte nibl; 
....................  
....................    nibh=data/10; 
*
0617A:  MOVFF  6D0,6D3
0617E:  MOVLW  0A
06180:  MOVLB  6
06182:  MOVWF  xD4
06184:  MOVLB  0
06186:  RCALL  5CAE
06188:  MOVFF  01,6D1
....................    nibl=data-(nibh*10); 
0618C:  MOVLB  6
0618E:  MOVF   xD1,W
06190:  MULLW  0A
06192:  MOVF   FF3,W
06194:  SUBWF  xD0,W
06196:  MOVWF  xD2
....................  
....................    return((nibh<<4)|nibl); 
06198:  SWAPF  xD1,W
0619A:  MOVWF  00
0619C:  MOVLW  F0
0619E:  ANDWF  00,F
061A0:  MOVF   00,W
061A2:  IORWF  xD2,W
061A4:  MOVWF  01
.................... } 
061A6:  MOVLB  0
061A8:  RETLW  00
....................  
.................... byte rm_bcd(BYTE data) 
.................... { 
....................    byte i; 
....................  
....................    i=data; 
*
059E4:  MOVFF  6CF,6D0
....................    data=(i>>4)*10; 
059E8:  MOVLB  6
059EA:  SWAPF  xD0,W
059EC:  MOVWF  00
059EE:  MOVLW  0F
059F0:  ANDWF  00,F
059F2:  MOVF   00,W
059F4:  MULLW  0A
059F6:  MOVFF  FF3,6CF
....................    data=data+(i<<4>>4); 
059FA:  SWAPF  xD0,W
059FC:  MOVWF  00
059FE:  MOVLW  F0
05A00:  ANDWF  00,F
05A02:  MOVF   00,W
05A04:  SWAPF  00,F
05A06:  MOVLW  0F
05A08:  ANDWF  00,F
05A0A:  MOVF   00,W
05A0C:  ADDWF  xCF,F
....................  
....................    return data; 
05A0E:  MOVFF  6CF,01
.................... } 
05A12:  MOVLB  0
05A14:  RETLW  00
....................  
.................... void rtc_set_datetime(BYTE day, BYTE mth, BYTE year, BYTE dow, BYTE hr, BYTE min) { 
....................  
....................    write_ds1302(0x86,get_bcd(day)); 
*
061AA:  MOVFF  6CA,6D0
061AE:  RCALL  617A
061B0:  MOVFF  01,6D0
061B4:  MOVLW  86
061B6:  MOVLB  6
061B8:  MOVWF  xD1
061BA:  MOVFF  01,6D2
061BE:  MOVLB  0
061C0:  CALL   3B44
....................    write_ds1302(0x88,get_bcd(mth)); 
061C4:  MOVFF  6CB,6D0
061C8:  RCALL  617A
061CA:  MOVFF  01,6D0
061CE:  MOVLW  88
061D0:  MOVLB  6
061D2:  MOVWF  xD1
061D4:  MOVFF  01,6D2
061D8:  MOVLB  0
061DA:  CALL   3B44
....................    write_ds1302(0x8c,get_bcd(year)); 
061DE:  MOVFF  6CC,6D0
061E2:  RCALL  617A
061E4:  MOVFF  01,6D0
061E8:  MOVLW  8C
061EA:  MOVLB  6
061EC:  MOVWF  xD1
061EE:  MOVFF  01,6D2
061F2:  MOVLB  0
061F4:  CALL   3B44
....................    write_ds1302(0x8a,get_bcd(dow)); 
061F8:  MOVFF  6CD,6D0
061FC:  RCALL  617A
061FE:  MOVFF  01,6D0
06202:  MOVLW  8A
06204:  MOVLB  6
06206:  MOVWF  xD1
06208:  MOVFF  01,6D2
0620C:  MOVLB  0
0620E:  CALL   3B44
....................    write_ds1302(0x84,get_bcd(hr)); 
06212:  MOVFF  6CE,6D0
06216:  RCALL  617A
06218:  MOVFF  01,6D0
0621C:  MOVLW  84
0621E:  MOVLB  6
06220:  MOVWF  xD1
06222:  MOVFF  01,6D2
06226:  MOVLB  0
06228:  CALL   3B44
....................    write_ds1302(0x82,get_bcd(min)); 
0622C:  MOVFF  6CF,6D0
06230:  RCALL  617A
06232:  MOVFF  01,6D0
06236:  MOVLW  82
06238:  MOVLB  6
0623A:  MOVWF  xD1
0623C:  MOVFF  01,6D2
06240:  MOVLB  0
06242:  CALL   3B44
....................    write_ds1302(0x80,get_bcd(0)); 
06246:  MOVLB  6
06248:  CLRF   xD0
0624A:  MOVLB  0
0624C:  RCALL  617A
0624E:  MOVFF  01,6D0
06252:  MOVLW  80
06254:  MOVLB  6
06256:  MOVWF  xD1
06258:  MOVFF  01,6D2
0625C:  MOVLB  0
0625E:  CALL   3B44
.................... } 
06262:  GOTO   A24A (RETURN)
....................  
.................... void rtc_get_date(BYTE& day, BYTE& mth, BYTE& year, BYTE& dow) { 
....................    day = rm_bcd(read_ds1302(0x87)); 
*
07FC6:  MOVLW  87
07FC8:  MOVLB  6
07FCA:  MOVWF  xCE
07FCC:  MOVLB  0
07FCE:  CALL   3B5A
07FD2:  MOVFF  01,6CA
07FD6:  MOVFF  01,6CF
07FDA:  CALL   59E4
07FDE:  MOVFF  01,2B5
....................    mth = rm_bcd(read_ds1302(0x89)); 
07FE2:  MOVLW  89
07FE4:  MOVLB  6
07FE6:  MOVWF  xCE
07FE8:  MOVLB  0
07FEA:  CALL   3B5A
07FEE:  MOVFF  01,6CA
07FF2:  MOVFF  01,6CF
07FF6:  CALL   59E4
07FFA:  MOVFF  01,2B4
....................    year = rm_bcd(read_ds1302(0x8d)); 
07FFE:  MOVLW  8D
08000:  MOVLB  6
08002:  MOVWF  xCE
08004:  MOVLB  0
08006:  CALL   3B5A
0800A:  MOVFF  01,6CA
0800E:  MOVFF  01,6CF
08012:  CALL   59E4
08016:  MOVFF  01,2B3
....................    dow = rm_bcd(read_ds1302(0x8b)); 
0801A:  MOVLW  8B
0801C:  MOVLB  6
0801E:  MOVWF  xCE
08020:  MOVLB  0
08022:  CALL   3B5A
08026:  MOVFF  01,6CA
0802A:  MOVFF  01,6CF
0802E:  CALL   59E4
08032:  MOVFF  01,2B9
.................... } 
....................  
.................... void rtc_get_time(BYTE& hr, BYTE& min, BYTE& sec) { 
....................    hr = rm_bcd(read_ds1302(0x85)); 
08036:  MOVLW  85
08038:  MOVLB  6
0803A:  MOVWF  xCE
0803C:  MOVLB  0
0803E:  CALL   3B5A
08042:  MOVFF  01,6CA
08046:  MOVFF  01,6CF
0804A:  CALL   59E4
0804E:  MOVFF  01,2B6
....................    min = rm_bcd(read_ds1302(0x83)); 
08052:  MOVLW  83
08054:  MOVLB  6
08056:  MOVWF  xCE
08058:  MOVLB  0
0805A:  CALL   3B5A
0805E:  MOVFF  01,6CA
08062:  MOVFF  01,6CF
08066:  CALL   59E4
0806A:  MOVFF  01,2B7
....................    sec = rm_bcd(read_ds1302(0x81)); 
0806E:  MOVLW  81
08070:  MOVLB  6
08072:  MOVWF  xCE
08074:  MOVLB  0
08076:  CALL   3B5A
0807A:  MOVFF  01,6CA
0807E:  MOVFF  01,6CF
08082:  CALL   59E4
08086:  MOVFF  01,2B8
.................... } 
....................  
.................... void rtc_write_nvr(BYTE address, BYTE data) { 
....................    write_ds1302(address|0xc0,data); 
.................... } 
....................  
.................... BYTE rtc_read_nvr(BYTE address) { 
....................     return(read_ds1302(address|0xc1)); 
.................... } 
....................  
.................... #include <24512.c> 
.................... /////////////////////////////////////////////////////////////////////////// 
.................... ////   Library for a 24LC512 serial EEPROM                             //// 
.................... ////                                                                   //// 
.................... ////   init_ext_eeprom();    Call before the other functions are used  //// 
.................... ////                                                                   //// 
.................... ////   write_ext_eeprom(a, d);  Write the byte d to the address a      //// 
.................... ////                                                                   //// 
.................... ////   d = read_ext_eeprom(a);   Read the byte d from the address a    //// 
.................... ////                                                                   //// 
.................... ////   The main program may define eeprom_sda                          //// 
.................... ////   and eeprom_scl to override the defaults below.                  //// 
.................... ////                                                                   //// 
.................... /////////////////////////////////////////////////////////////////////////// 
.................... ////        (C) Copyright 1996,2003 Custom Computer Services           //// 
.................... //// This source code may only be used by licensed users of the CCS C  //// 
.................... //// compiler.  This source code may only be distributed to other      //// 
.................... //// licensed users of the CCS C compiler.  No other use, reproduction //// 
.................... //// or distribution is permitted without written permission.          //// 
.................... //// Derivative programs created using this software in object code    //// 
.................... //// form are not restricted in any way.                               //// 
.................... /////////////////////////////////////////////////////////////////////////// 
....................  
.................... #ifndef EEPROM_SDA 
....................  
.................... #define EEPROM_SDA  PIN_C4 
.................... #define EEPROM_SCL  PIN_C3 
....................  
.................... #endif 
....................  
.................... #use i2c(master, sda=EEPROM_SDA, scl=EEPROM_SCL) 
*
025D6:  MOVLW  08
025D8:  MOVWF  01
025DA:  MOVLW  05
025DC:  MOVWF  00
025DE:  DECFSZ 00,F
025E0:  BRA    25DE
025E2:  BCF    F8B.3
025E4:  BCF    F94.3
025E6:  MOVLW  06
025E8:  MOVWF  00
025EA:  DECFSZ 00,F
025EC:  BRA    25EA
025EE:  MOVLB  6
025F0:  RLCF   xE0,F
025F2:  BCF    F8B.4
025F4:  BTFSC  FD8.0
025F6:  BSF    F94.4
025F8:  BTFSS  FD8.0
025FA:  BCF    F94.4
025FC:  BSF    F94.3
025FE:  BTFSS  F82.3
02600:  BRA    25FE
02602:  DECFSZ 01,F
02604:  BRA    2608
02606:  BRA    260C
02608:  MOVLB  0
0260A:  BRA    25DA
0260C:  MOVLW  05
0260E:  MOVWF  00
02610:  DECFSZ 00,F
02612:  BRA    2610
02614:  BCF    F8B.3
02616:  BCF    F94.3
02618:  NOP   
0261A:  BSF    F94.4
0261C:  MOVLW  06
0261E:  MOVWF  00
02620:  DECFSZ 00,F
02622:  BRA    2620
02624:  MOVLW  06
02626:  MOVWF  00
02628:  DECFSZ 00,F
0262A:  BRA    2628
0262C:  BSF    F94.3
0262E:  BTFSS  F82.3
02630:  BRA    262E
02632:  CLRF   01
02634:  MOVLW  06
02636:  MOVWF  00
02638:  DECFSZ 00,F
0263A:  BRA    2638
0263C:  BTFSC  F82.4
0263E:  BSF    01.0
02640:  BCF    F8B.3
02642:  BCF    F94.3
02644:  BCF    F8B.4
02646:  BCF    F94.4
02648:  MOVLB  0
0264A:  RETLW  00
0264C:  MOVLW  08
0264E:  MOVLB  6
02650:  MOVWF  xD3
02652:  MOVFF  00,6D4
02656:  BSF    F94.4
02658:  MOVLW  06
0265A:  MOVWF  00
0265C:  DECFSZ 00,F
0265E:  BRA    265C
02660:  BSF    F94.3
02662:  BTFSS  F82.3
02664:  BRA    2662
02666:  BTFSC  F82.4
02668:  BSF    FD8.0
0266A:  BTFSS  F82.4
0266C:  BCF    FD8.0
0266E:  RLCF   01,F
02670:  MOVLW  05
02672:  MOVWF  00
02674:  DECFSZ 00,F
02676:  BRA    2674
02678:  BCF    F94.3
0267A:  BCF    F8B.3
0267C:  DECFSZ xD3,F
0267E:  BRA    2656
02680:  BSF    F94.4
02682:  MOVLW  06
02684:  MOVWF  00
02686:  DECFSZ 00,F
02688:  BRA    2686
0268A:  BCF    F8B.4
0268C:  MOVF   xD4,W
0268E:  BTFSS  FD8.2
02690:  BCF    F94.4
02692:  NOP   
02694:  BSF    F94.3
02696:  BTFSS  F82.3
02698:  BRA    2696
0269A:  MOVLW  05
0269C:  MOVWF  00
0269E:  DECFSZ 00,F
026A0:  BRA    269E
026A2:  BCF    F8B.3
026A4:  BCF    F94.3
026A6:  MOVLW  06
026A8:  MOVWF  00
026AA:  DECFSZ 00,F
026AC:  BRA    26AA
026AE:  BCF    F8B.4
026B0:  BCF    F94.4
026B2:  MOVLB  0
026B4:  RETLW  00
....................  
.................... #define EEPROM_ADDRESS long int 
.................... #define EEPROM_SIZE   65535 
....................  
.................... void init_ext_eeprom() 
.................... { 
....................    output_float(EEPROM_SCL); 
....................    output_float(EEPROM_SDA); 
....................  
.................... } 
....................  
.................... void write_ext_eeprom(long int address, BYTE data) 
.................... { 
....................    short int status; 
....................    i2c_start(); 
*
06BC0:  BSF    F94.4
06BC2:  MOVLW  05
06BC4:  MOVWF  00
06BC6:  DECFSZ 00,F
06BC8:  BRA    6BC6
06BCA:  BSF    F94.3
06BCC:  MOVLW  06
06BCE:  MOVWF  00
06BD0:  DECFSZ 00,F
06BD2:  BRA    6BD0
06BD4:  BCF    F8B.4
06BD6:  BCF    F94.4
06BD8:  MOVLW  05
06BDA:  MOVWF  00
06BDC:  DECFSZ 00,F
06BDE:  BRA    6BDC
06BE0:  BCF    F8B.3
06BE2:  BCF    F94.3
....................    i2c_write(0xa0); 
06BE4:  MOVLW  A0
06BE6:  MOVLB  6
06BE8:  MOVWF  xE0
06BEA:  MOVLB  0
06BEC:  CALL   25D6
....................    i2c_write(address>>8); 
06BF0:  MOVFF  6D2,6D5
06BF4:  MOVLB  6
06BF6:  CLRF   xD6
06BF8:  MOVFF  6D2,6E0
06BFC:  MOVLB  0
06BFE:  CALL   25D6
....................    i2c_write(address); 
06C02:  MOVFF  6D1,6E0
06C06:  CALL   25D6
....................    i2c_write(data); 
06C0A:  MOVFF  6D3,6E0
06C0E:  CALL   25D6
....................    i2c_stop(); 
06C12:  BCF    F94.4
06C14:  NOP   
06C16:  BSF    F94.3
06C18:  BTFSS  F82.3
06C1A:  BRA    6C18
06C1C:  MOVLW  05
06C1E:  MOVWF  00
06C20:  DECFSZ 00,F
06C22:  BRA    6C20
06C24:  BRA    6C26
06C26:  NOP   
06C28:  BSF    F94.4
06C2A:  MOVLW  05
06C2C:  MOVWF  00
06C2E:  DECFSZ 00,F
06C30:  BRA    6C2E
....................    i2c_start(); 
06C32:  BSF    F94.4
06C34:  MOVLW  05
06C36:  MOVWF  00
06C38:  DECFSZ 00,F
06C3A:  BRA    6C38
06C3C:  BSF    F94.3
06C3E:  MOVLW  06
06C40:  MOVWF  00
06C42:  DECFSZ 00,F
06C44:  BRA    6C42
06C46:  BCF    F8B.4
06C48:  BCF    F94.4
06C4A:  MOVLW  05
06C4C:  MOVWF  00
06C4E:  DECFSZ 00,F
06C50:  BRA    6C4E
06C52:  BCF    F8B.3
06C54:  BCF    F94.3
....................    status=i2c_write(0xa0); 
06C56:  MOVLW  A0
06C58:  MOVLB  6
06C5A:  MOVWF  xE0
06C5C:  MOVLB  0
06C5E:  CALL   25D6
06C62:  MOVF   01,W
06C64:  MOVLB  6
06C66:  BCF    xD4.0
06C68:  BTFSC  01.0
06C6A:  BSF    xD4.0
....................    while(status==1) 
....................    { 
06C6C:  BTFSS  xD4.0
06C6E:  BRA    6CAE
....................       i2c_start(); 
06C70:  BSF    F94.4
06C72:  MOVLW  05
06C74:  MOVWF  00
06C76:  DECFSZ 00,F
06C78:  BRA    6C76
06C7A:  BSF    F94.3
06C7C:  MOVLW  06
06C7E:  MOVWF  00
06C80:  DECFSZ 00,F
06C82:  BRA    6C80
06C84:  BTFSS  F82.3
06C86:  BRA    6C84
06C88:  BCF    F8B.4
06C8A:  BCF    F94.4
06C8C:  MOVLW  05
06C8E:  MOVWF  00
06C90:  DECFSZ 00,F
06C92:  BRA    6C90
06C94:  BCF    F8B.3
06C96:  BCF    F94.3
....................       status=i2c_write(0xa0); 
06C98:  MOVLW  A0
06C9A:  MOVWF  xE0
06C9C:  MOVLB  0
06C9E:  CALL   25D6
06CA2:  MOVF   01,W
06CA4:  MOVLB  6
06CA6:  BCF    xD4.0
06CA8:  BTFSC  01.0
06CAA:  BSF    xD4.0
....................    } 
06CAC:  BRA    6C6C
....................    i2c_stop(); 
06CAE:  BCF    F94.4
06CB0:  NOP   
06CB2:  BSF    F94.3
06CB4:  BTFSS  F82.3
06CB6:  BRA    6CB4
06CB8:  MOVLW  05
06CBA:  MOVWF  00
06CBC:  DECFSZ 00,F
06CBE:  BRA    6CBC
06CC0:  BRA    6CC2
06CC2:  NOP   
06CC4:  BSF    F94.4
06CC6:  MOVLW  05
06CC8:  MOVWF  00
06CCA:  DECFSZ 00,F
06CCC:  BRA    6CCA
.................... } 
06CCE:  MOVLB  0
06CD0:  RETLW  00
....................  
.................... BYTE read_ext_eeprom(long int address) { 
....................    BYTE data; 
....................    i2c_start(); 
*
026B6:  BSF    F94.4
026B8:  MOVLW  05
026BA:  MOVWF  00
026BC:  DECFSZ 00,F
026BE:  BRA    26BC
026C0:  BSF    F94.3
026C2:  MOVLW  06
026C4:  MOVWF  00
026C6:  DECFSZ 00,F
026C8:  BRA    26C6
026CA:  BCF    F8B.4
026CC:  BCF    F94.4
026CE:  MOVLW  05
026D0:  MOVWF  00
026D2:  DECFSZ 00,F
026D4:  BRA    26D2
026D6:  BCF    F8B.3
026D8:  BCF    F94.3
....................    i2c_write(0xa0); 
026DA:  MOVLW  A0
026DC:  MOVLB  6
026DE:  MOVWF  xE0
026E0:  MOVLB  0
026E2:  RCALL  25D6
....................    i2c_write(address>>8); 
026E4:  MOVFF  6D0,6D2
026E8:  MOVLB  6
026EA:  CLRF   xD3
026EC:  MOVFF  6D0,6E0
026F0:  MOVLB  0
026F2:  RCALL  25D6
....................    i2c_write(address); 
026F4:  MOVFF  6CF,6E0
026F8:  RCALL  25D6
....................    i2c_start(); 
026FA:  BSF    F94.4
026FC:  MOVLW  05
026FE:  MOVWF  00
02700:  DECFSZ 00,F
02702:  BRA    2700
02704:  BSF    F94.3
02706:  MOVLW  06
02708:  MOVWF  00
0270A:  DECFSZ 00,F
0270C:  BRA    270A
0270E:  BTFSS  F82.3
02710:  BRA    270E
02712:  BCF    F8B.4
02714:  BCF    F94.4
02716:  MOVLW  05
02718:  MOVWF  00
0271A:  DECFSZ 00,F
0271C:  BRA    271A
0271E:  BCF    F8B.3
02720:  BCF    F94.3
....................    i2c_write(0xa1); 
02722:  MOVLW  A1
02724:  MOVLB  6
02726:  MOVWF  xE0
02728:  MOVLB  0
0272A:  RCALL  25D6
....................    data=i2c_read(0); 
0272C:  CLRF   00
0272E:  RCALL  264C
02730:  MOVFF  01,6D1
....................    i2c_stop(); 
02734:  BCF    F94.4
02736:  NOP   
02738:  BSF    F94.3
0273A:  BTFSS  F82.3
0273C:  BRA    273A
0273E:  MOVLW  05
02740:  MOVWF  00
02742:  DECFSZ 00,F
02744:  BRA    2742
02746:  BRA    2748
02748:  NOP   
0274A:  BSF    F94.4
0274C:  MOVLW  05
0274E:  MOVWF  00
02750:  DECFSZ 00,F
02752:  BRA    2750
....................    return(data); 
02754:  MOVLB  6
02756:  MOVFF  6D1,01
.................... } 
0275A:  MOVLB  0
0275C:  RETLW  00
....................  
....................  
.................... #define   STOP          !input(PIN_B0) 
.................... #define   DOORS         !input(PIN_B1) 
.................... #define   LOWB          !input(PIN_B2) 
.................... #define   EMPAQUES      !input(PIN_B3) 
....................  
.................... #define   UP            !input(PIN_B4) 
.................... #define   DOWN          !input(PIN_B5) 
.................... #define   RIGHT         !input(PIN_B6) 
.................... #define   LEFT          !input(PIN_B7) 
....................  
.................... //#define   EMPAQUEL      !input(PIN_B4) 
.................... //#define   DOORL         !input(PIN_B5) 
.................... //#define   BLOQUEOS      !input(PIN_B6) 
.................... //#define   BLOQUEOL      !input(PIN_B7) 
....................  
.................... // Variables creada para no eliminar entradas creadas del programa anterior 
.................... short EMPAQUEL,DOORL,BLOQUEOS,BLOQUEOL; 
.................... #define OFF 0 
.................... #define ON  1 
.................... #define RX_BUFFER_SIZE  10 
.................... char Rx_Buffer[RX_BUFFER_SIZE+1]; 
.................... char Rx_Buffer2[RX_BUFFER_SIZE+1]; 
.................... char RX_Wr_Index=0; 
....................  
.................... //Comunicacion//------------------------ 
.................... byte txbuf[0X25]; 
.................... byte SlaveB0Tx[0X26]; 
.................... byte SlaveC0Tx[0X25]; 
.................... byte SlaveC0Rx[0X25]; 
.................... byte dato=0;            //Contendr la informacin a enviar o recibir 
.................... byte direccion=0;       //Contendr la direccin del esclavo en el bus I2C 
.................... byte posicion=0;        //Contendr la posicin en el buffer de memoria del esclavo donde se almacenar o de donde se recuperar el dato 
.................... //byte ByteConfig1=0,ByteConfig2=0,ByteConfig3=0; 
....................  
.................... /* Tabla de Modulos, Primera Fila Ao Regular y el siguiente ao Bisiesto 
.................... E   F   M   A   M   J   J   A   S   O   N   D 
.................... 0   3   3   6   1   4   6   2   5   0   3   5 
.................... 0   3   4   0   2   5   0   3   6   1   4   6 
.................... */ 
.................... int8 Regular[12]={0,3,3,6,1,4,6,2,5,0,3,5}; 
.................... int8 Bisiesto[12]={0,3,4,0,2,5,0,3,6,1,4,6}; 
....................  
.................... //Salidas//------------------------ 
.................... short suministroAire=OFF,aguaEnfriador=OFF,bombaVacio=OFF,empaqueLimpio=OFF,empaqueSucio=OFF,suministroVapor=OFF,Paso=OFF,outVacio=OFF,Desfogue=OFF,Aire=OFF,cilindroSucio=OFF,cilindroLimpio=OFF,Aux=OFF; 
.................... short seguroValvula=OFF,seguroValvula2=OFF,EstadoAux1=OFF,EstadoAux2=OFF; 
....................  
.................... //Alarmas//--------------------- 
.................... short AlarmaTiempoProlongado=OFF,AlarmaSobreTemperatura=OFF,AlarmaTermostato=OFF,AlarmaPuertaS=OFF,AlarmaPuertaL=OFF,AlarmaEmergencia=OFF,AlarmaVacio=OFF,AlarmaEmpaqueL=OFF,AlarmaEmpaqueS=OFF; 
.................... short AlarmaBomba=OFF,guardaCiclo=OFF,Cilindro=OFF,AlarmaLlenado=OFF,cerroSucio=OFF,cerroLimpio=OFF,pulsoSubirS=OFF,pulsoSubirL=OFF,vacioEmpaqueL=OFF,vacioEmpaqueS=OFF,abrirPuertaL=OFF,abrirPuertaS=OFF,pulsoBajarS=OFF; 
.................... int16 TiempoVacio=600,tVacioEmpaqueS=0,tVacioEmpaqueL=0; 
....................  
.................... //Banderas//-------------------- 
.................... short EstadoAguaEnfriador=OFF,EstadoSuministroV=OFF,EstadoCilindrosL=OFF,EstadoCilindrosS=OFF,EstadoEmpaqueL=OFF,EstadoEmpaqueS=OFF,oprimioIniciar=OFF,oprimioCiclo=OFF,oprimioCicloP=OFF,oprimioConfig=OFF; 
.................... short IniciaLlenado=OFF,IniciaCiclo=OFF,Esterilizando=OFF,Secando=OFF,SensadoNivel=OFF,Desfogando=OFF,DesfogueSuave=OFF,CalderinLleno=OFF,Start=OFF; 
.................... short EstadoDesfogue=OFF,EstadoSuministro=OFF,EstadoAire=OFF,PruebaEstados=OFF,disp_Guarda=OFF,Ciclo=OFF,EstadoAgua2=OFF; 
.................... short Op=OFF,Op2=OFF,Minutos=OFF,Segundos=OFF,GuardaEEPROM=OFF,EstadoPaso=OFF,EstadoVacio=OFF,EstadoBuzzer=OFF,flagAlarma=OFF; 
.................... short flagBuzzer=OFF,flagSilencio=OFF,Finalizo=OFF,AlarmaPresion=OFF,EstadoACierre=OFF,EstadoBomba=OFF,Libre=OFF,ingreso=OFF,Fugas=OFF; 
.................... short PreCalentamiento=OFF,IniciaVacio=OFF,IniciaVacio2=OFF,Vacio=OFF,flag_vac=OFF,flag_vacio=OFF,flag_pulso=OFF,EstadoAireBomba=OFF; 
.................... short SensadoNivelL=OFF,NivelBajo=OFF,onBomba=OFF,flagBombaAgua=OFF,flagBombaAguaOff=OFF,flagImprimir=OFF,entro=OFF; 
.................... short EstadoEmpaque=OFF,EstadoSSR1=OFF,EstadoSSR2=OFF,ReservorioLleno=OFF,SensadoNivelR=OFF; 
....................  
.................... //Tiempos//--------------------- 
.................... int16 TiempoCiclo=0,TiempoSensadoNivel=0,Tp=0,Tc=0,tguarda=0,tNivelBajo=0,tIniciar=0,tCiclof=0,tCicloP=0,tConfig=0,TiempoLlenado=OFF; 
.................... int8 sEst=0,mEst=0,sSec=0,mSec=0,sEstp=0,mEstp=0,sSecp=0,mSecp=0;// Tiempo transcurrido 
....................  
.................... //Control//------------------------ 
.................... float PromPresion[20]={0.0,0.0,0.0,0.0,0.0,0.0,0.0,0.0,0.0,0.0,0.0,0.0,0.0,0.0,0.0,0.0,0.0,0.0,0.0,0.0}; 
.................... float PromPresionp[20]={0.0,0.0,0.0,0.0,0.0,0.0,0.0,0.0,0.0,0.0,0.0,0.0,0.0,0.0,0.0,0.0,0.0,0.0,0.0,0.0}; 
.................... float Temporal=0.0,Aumento=0.0,tmp2=0.0; 
.................... float K=0.0012858; 
.................... float R10=6800,AN=0,BN=0; 
.................... float X[2]={0.0,0.0}; 
.................... float promediopresion=0.0,promediopresionp=0.0; 
.................... int8 h=0,l=0,MediaMovil=20,PantallaPrincipal=0,TipoClave=0,Modulo=0,TiempoSensadoNivelR=0,subirPuertaLimpio=0,cerroSucioInt=0,cerroLimpioInt=0; 
.................... float V0=0.0,Pt,Tciclo=10.0,Tpulso=0.0,error=0.0,Prom=0.0,Temperature=0.0,tmp=0.0,Ganancia=25.0,Ganancia2=20.0,desvio=1.0; 
.................... float V1=0.0,Presion=0.0,V2=0.0,Presionp=0.0; 
.................... float Temperatura=0.0,Temperatura2=0.0; 
.................... float a=0.0011,b=2.3302,c=-244.0723; 
.................... int8 Integral=0,Derivativo=0,CicloLibre=0; 
.................... float p1=0.0000011617,p2=-0.0010575,p3=0.44114,p4=65.043,Tactual=0.0; 
.................... //float p1=-0.00036062,p2=0.30947,p3=72.816,Tactual=0.0; 
....................  
.................... //Varios//-------------------------------- 
.................... short desfoguelento=0,Lectura=0,Grafica=0; 
.................... short disp_Stop=0,flagTC=0,flagImprime=0; 
.................... int8 Control=0,tiemporecta=0,Controlando=0,timpresion=2,CalculoImpresion=0,Inicio=1,Dato_Exitoso=0,Dato2=0,Codigo=0; 
.................... int8 Menu=0, MenuAnt=0,MenuAntt=240,i=0,CiclosL=0,CiclosH=0,CicloSeleccionado=0,Tapertura=0; 
.................... int16 CantidadPulsos=4,tEmpaqueS=0,tEmpaqueL=0,tEnfriador=0; 
.................... int8 Setpoint=0,Opcion=1,Opcion2=1,tiempo_esterilizacion=0,tiempo_secado=0; 
.................... int16 tiempos=0,tiempos2=0,tiempos3=0,tiempoctrl=0,Nivel=0,tinicio=0,PresionCamara=0,PresionPreCamara=0,Ciclos=0,tbomba=0,tvacio=0,tiempoImpresion=0,PresionFinal=0; 
.................... signed int  Password[4]={0,0,0,0};        // Contrasena Almacenada de 4 digitos 
.................... int8 r=0,t=0,r22=0,t2=0,TiempoControl=0,NivelDes=0; 
.................... int8 y=0,ConteoBuzzer=0,posicionDato=0,codigoAlarma=0,codigoAnt=0,codigoUsuario2=0; 
.................... int16 tbuzzer=0,tsilencio=0; 
.................... int8 Year=18,Mes=9,Dia=13,Hora=0,Minuto=0,Segundo=0,dow=0,cicloVisualizado=0,cicloVisto=0,NivelVacio=25,Atmosferica=75,PulsoPositivo=10,PulsosVacio=0; 
.................... int8 YearTx=0,MesTx=0,DiaTx=0,HoraTx=0,MinutoTx=0,dowTx=0,SetTime=0,Imprime=0,Pulsos=0,j=0,codigoUsuario=0,codigoUsuarioant=0; 
.................... signed int8 G1=0,G2=0,sg1=0,sg2=0; 
.................... const char Texto[12][20]={"CALENTAMIENTO","NO ENVUELTOS 134","NO ENVUELTOS 121","ENVUELTOS 134","ENVUELTOS 121","ENVUELTO DOBLE 1", 
.................... "ENVUELTO DOBLE 2","PRION","BOWIE & DICK","TEST DE FUGAS","TEST DE COMPONENTES","HORA Y FECHA"}; 
....................  
.................... //Textil & Instrumental 134C, 5m,15m 
.................... //Prion 134C, 20m,15m 
.................... //Caucho 121C, 25m,15m 
.................... //Contenedores 134C, 5m,25m 
.................... //Rapid 134C, 5m,8m 
....................  
.................... char usuario[20]; 
.................... float TCiclos[7]; 
.................... int16 PcCiclos[7]; 
.................... int16 PpcCiclos[7]; 
.................... int8 horaCiclos[7]; 
.................... int8 minutoCiclos[7]; 
.................... int8 ACiclos[7]; 
.................... int8 diaCiclos=0,mesCiclos=0,yearCiclos=0,usuarioCiclos=0,cicloCiclos=0; 
.................... short estados[30]={0,0,0,0,0,0,0,0,0,0,0,0,0,0,0,0,0,0,0,0,0,0,0,0,0,0,0,0,0,0}; 
....................  
.................... typedef struct{ 
....................    int8 Password[4]; 
.................... }Claves; 
....................  
.................... typedef struct{ 
....................    int8 Temperatura; 
....................    int8 Minutoest; 
....................    int8 Segundoest; 
....................    int8 Minutosec; 
....................    int8 Segundosec; 
....................    int8 PulsosVacio; 
....................    int8 NivelVacio; 
....................    int8 NivelDesfogue; 
.................... }Personalizado; 
....................  
.................... typedef struct{ 
....................    float BN; 
....................    float AN; 
....................    float V0; 
....................    float Pt; 
....................    float RPT100; 
....................    int8 l; 
....................    int8 h; 
....................    float Prom; 
....................    float Temperature; 
....................    int8 Ajuste; 
....................    int8 Ajusten; 
....................    float promedio[80]; 
....................    float Gain; 
.................... }SensorPT100; 
....................  
.................... SensorPT100 Sensor[2]; 
.................... Personalizado CiclosPersonalizados[20]; 
.................... Claves Clave[10]; 
....................  
.................... #include "Funciones.h" 
....................  
.................... void BorraBuffer(void){ 
.................... RX_Buffer[0]=0; 
*
05BA6:  CLRF   31
.................... RX_Buffer[1]=0; 
05BA8:  CLRF   32
.................... RX_Buffer[2]=0; 
05BAA:  CLRF   33
.................... RX_Buffer[3]=0; 
05BAC:  CLRF   34
.................... RX_Buffer[4]=0; 
05BAE:  CLRF   35
.................... RX_Buffer[5]=0; 
05BB0:  CLRF   36
.................... RX_Buffer[6]=0; 
05BB2:  CLRF   37
.................... RX_Buffer[7]=0; 
05BB4:  CLRF   38
.................... RX_Buffer[8]=0; 
05BB6:  CLRF   39
.................... RX_Buffer[9]=0; 
05BB8:  CLRF   3A
....................  
.................... RX_Buffer2[0]=0; 
05BBA:  CLRF   3C
.................... RX_Buffer2[1]=0; 
05BBC:  CLRF   3D
.................... RX_Buffer2[2]=0; 
05BBE:  CLRF   3E
.................... RX_Buffer2[3]=0; 
05BC0:  CLRF   3F
.................... RX_Buffer2[4]=0; 
05BC2:  CLRF   40
.................... RX_Buffer2[5]=0; 
05BC4:  CLRF   41
.................... RX_Buffer2[6]=0; 
05BC6:  CLRF   42
.................... RX_Buffer2[7]=0; 
05BC8:  CLRF   43
.................... RX_Buffer2[8]=0; 
05BCA:  CLRF   44
.................... RX_Buffer2[9]=0; 
05BCC:  CLRF   45
.................... } 
05BCE:  GOTO   5C46 (RETURN)
....................  
.................... void SendDataDisplay(void){ 
.................... delay_us(10); 
*
041EE:  MOVLW  10
041F0:  MOVWF  00
041F2:  DECFSZ 00,F
041F4:  BRA    41F2
041F6:  NOP   
.................... putc(0xFF); 
041F8:  MOVLW  FF
041FA:  RCALL  41E6
.................... delay_us(10); 
041FC:  MOVLW  10
041FE:  MOVWF  00
04200:  DECFSZ 00,F
04202:  BRA    4200
04204:  NOP   
.................... putc(0xFF); 
04206:  MOVLW  FF
04208:  RCALL  41E6
.................... delay_us(10); 
0420A:  MOVLW  10
0420C:  MOVWF  00
0420E:  DECFSZ 00,F
04210:  BRA    420E
04212:  NOP   
.................... putc(0xFF); 
04214:  MOVLW  FF
04216:  RCALL  41E6
.................... delay_us(10); 
04218:  MOVLW  10
0421A:  MOVWF  00
0421C:  DECFSZ 00,F
0421E:  BRA    421C
04220:  NOP   
.................... } 
04222:  RETLW  00
....................  
.................... short esBisiesto(int8 year) { 
....................      return ((year % 4 == 0 && year % 100 != 0) || year % 400 == 0); 
*
06128:  MOVLB  6
0612A:  MOVF   xCA,W
0612C:  ANDLW  03
0612E:  BNZ   6142
06130:  MOVFF  6CA,6D3
06134:  MOVLW  64
06136:  MOVWF  xD4
06138:  MOVLB  0
0613A:  RCALL  5CAE
0613C:  MOVF   00,F
0613E:  BNZ   6170
06140:  MOVLB  6
06142:  CLRF   xCF
06144:  MOVFF  6CA,6CE
06148:  MOVLW  01
0614A:  MOVWF  xD1
0614C:  MOVLW  90
0614E:  MOVWF  xD0
06150:  MOVLB  0
06152:  RCALL  60E2
06154:  MOVFF  00,6CB
06158:  MOVLB  6
0615A:  MOVFF  03,6CC
0615E:  MOVF   xCB,F
06160:  BNZ   616C
06162:  MOVF   xCC,F
06164:  BTFSS  FD8.2
06166:  BRA    616C
06168:  MOVLB  0
0616A:  BRA    6170
0616C:  MOVLW  00
0616E:  BRA    6174
06170:  MOVLW  01
06172:  MOVLB  6
06174:  MOVWF  01
.................... } 
06176:  MOVLB  0
06178:  RETLW  00
....................  
.................... void LimitaDia(){ 
....................    if(MesTx>12) 
*
06266:  MOVLB  2
06268:  MOVF   xC1,W
0626A:  SUBLW  0C
0626C:  BC    6272
....................       MesTx=10; 
0626E:  MOVLW  0A
06270:  MOVWF  xC1
....................    if(DiaTx>31) 
06272:  MOVF   xC2,W
06274:  SUBLW  1F
06276:  BC    627C
....................       DiaTx=16; 
06278:  MOVLW  10
0627A:  MOVWF  xC2
....................    if(YearTx>99) 
0627C:  MOVF   xC0,W
0627E:  SUBLW  63
06280:  BC    6286
....................       YearTx=18;    
06282:  MOVLW  12
06284:  MOVWF  xC0
....................    if(HoraTx>24) 
06286:  MOVF   xC3,W
06288:  SUBLW  18
0628A:  BC    6290
....................       HoraTx=11;       
0628C:  MOVLW  0B
0628E:  MOVWF  xC3
....................    if(MinutoTx>59) 
06290:  MOVF   xC4,W
06292:  SUBLW  3B
06294:  BC    629A
....................       MinutoTx=30;       
06296:  MOVLW  1E
06298:  MOVWF  xC4
....................     
....................       if(MesTx==2){ 
0629A:  MOVF   xC1,W
0629C:  SUBLW  02
0629E:  BNZ   62CA
....................          if(esBisiesto(YearTx)){ 
062A0:  MOVFF  2C0,6CA
062A4:  MOVLB  0
062A6:  RCALL  6128
062A8:  MOVF   01,F
062AA:  BZ    62BC
....................             if(DiaTx>29){ 
062AC:  MOVLB  2
062AE:  MOVF   xC2,W
062B0:  SUBLW  1D
062B2:  BC    62B8
....................                DiaTx=29; 
062B4:  MOVLW  1D
062B6:  MOVWF  xC2
....................                //glcd_fillScreen(OFF); 
....................             } 
....................          }else{ 
062B8:  BRA    62C8
062BA:  MOVLB  0
....................             if(DiaTx>28){ 
062BC:  MOVLB  2
062BE:  MOVF   xC2,W
062C0:  SUBLW  1C
062C2:  BC    62C8
....................                DiaTx=28; 
062C4:  MOVLW  1C
062C6:  MOVWF  xC2
....................                //glcd_fillScreen(OFF); 
....................             } 
....................          } 
....................       }else{ 
062C8:  BRA    62F4
....................          if(MesTx<=7){ 
062CA:  MOVF   xC1,W
062CC:  SUBLW  07
062CE:  BNC   62E2
....................             if(MesTx % 2 ==0){ 
062D0:  MOVF   xC1,W
062D2:  ANDLW  01
062D4:  BNZ   62E0
....................                if(DiaTx>30){ 
062D6:  MOVF   xC2,W
062D8:  SUBLW  1E
062DA:  BC    62E0
....................                   DiaTx=30;  
062DC:  MOVLW  1E
062DE:  MOVWF  xC2
....................                   //glcd_fillScreen(OFF); 
....................                } 
....................             } 
....................          }else{ 
062E0:  BRA    62F4
....................             if(MesTx % 2 ==1){ 
062E2:  MOVF   xC1,W
062E4:  ANDLW  01
062E6:  SUBLW  01
062E8:  BNZ   62F4
....................                if(DiaTx>30){ 
062EA:  MOVF   xC2,W
062EC:  SUBLW  1E
062EE:  BC    62F4
....................                   DiaTx=30;  
062F0:  MOVLW  1E
062F2:  MOVWF  xC2
....................                   //glcd_fillScreen(OFF); 
....................                } 
....................             } 
....................          } 
....................       } 
.................... } 
062F4:  MOVLB  0
062F6:  GOTO   A4A6 (RETURN)
....................  
.................... void ActualizaRecta(){ 
....................    X[y]=Temperature; 
....................    y++; 
....................    if(y>=2){ 
....................       y=0; 
....................       Aumento=X[1]-X[0]; 
....................    } 
.................... } 
....................  
.................... // Funcion para conversor analogo-digital 
.................... float sensores(int x){ 
.................... float y;set_adc_channel(x);delay_ms(1);y=read_adc();return (y); 
*
0422C:  MOVLB  6
0422E:  RLCF   xD0,W
04230:  MOVWF  00
04232:  RLCF   00,F
04234:  MOVLW  FC
04236:  ANDWF  00,F
04238:  MOVFF  00,01
0423C:  MOVF   FC2,W
0423E:  ANDLW  C3
04240:  IORWF  00,W
04242:  MOVWF  FC2
04244:  MOVLW  01
04246:  MOVWF  xDC
04248:  MOVLB  0
0424A:  CALL   2142
0424E:  BSF    FC2.1
04250:  BTFSC  FC2.1
04252:  BRA    4250
04254:  MOVFF  FC4,6DD
04258:  MOVFF  FC3,6DC
0425C:  MOVLB  0
0425E:  CALL   210C
04262:  MOVFF  03,6D4
04266:  MOVFF  02,6D3
0426A:  MOVFF  01,6D2
0426E:  MOVFF  00,6D1
04272:  MOVFF  6D1,00
04276:  MOVFF  6D2,01
0427A:  MOVFF  6D3,02
0427E:  MOVFF  6D4,03
.................... } 
04282:  RETLW  00
....................  
.................... float LeerPT100(int8 canal,int media) 
.................... { 
....................    Prom=0.0;  
*
0437A:  MOVLB  2
0437C:  CLRF   x16
0437E:  CLRF   x15
04380:  CLRF   x14
04382:  CLRF   x13
....................    Sensor[canal].V0 = sensores(canal);   //Lectura de Divisor de Voltaje de PT100 con resistencia de 6.18k (+-2%) 
04384:  MOVLB  6
04386:  CLRF   xD5
04388:  MOVFF  6CC,6D4
0438C:  MOVLW  01
0438E:  MOVWF  xD7
04390:  MOVLW  64
04392:  MOVWF  xD6
04394:  MOVLB  0
04396:  CALL   25B4
0439A:  MOVFF  01,6CE
0439E:  MOVLW  08
043A0:  MOVLB  6
043A2:  ADDWF  01,W
043A4:  MOVWF  01
043A6:  MOVLW  00
043A8:  ADDWFC 02,W
043AA:  MOVWF  03
043AC:  MOVF   01,W
043AE:  ADDLW  3A
043B0:  MOVWF  01
043B2:  MOVLW  03
043B4:  ADDWFC 03,F
043B6:  MOVFF  01,6CE
043BA:  MOVFF  03,6CF
043BE:  MOVFF  6CC,6D0
043C2:  MOVLB  0
043C4:  RCALL  422C
043C6:  MOVFF  6CF,FEA
043CA:  MOVFF  6CE,FE9
043CE:  MOVFF  00,FEF
043D2:  MOVFF  01,FEC
043D6:  MOVFF  02,FEC
043DA:  MOVFF  03,FEC
....................    Sensor[canal].V0 = Sensor[canal].V0/Sensor[canal].Gain; // Se elimina la ganancia 
043DE:  MOVLB  6
043E0:  CLRF   xD5
043E2:  MOVFF  6CC,6D4
043E6:  MOVLW  01
043E8:  MOVWF  xD7
043EA:  MOVLW  64
043EC:  MOVWF  xD6
043EE:  MOVLB  0
043F0:  CALL   25B4
043F4:  MOVFF  01,6CE
043F8:  MOVLW  08
043FA:  MOVLB  6
043FC:  ADDWF  01,W
043FE:  MOVWF  01
04400:  MOVLW  00
04402:  ADDWFC 02,W
04404:  MOVWF  03
04406:  MOVF   01,W
04408:  ADDLW  3A
0440A:  MOVWF  01
0440C:  MOVLW  03
0440E:  ADDWFC 03,F
04410:  MOVFF  01,6CE
04414:  MOVFF  03,6CF
04418:  CLRF   xD5
0441A:  MOVFF  6CC,6D4
0441E:  MOVLW  01
04420:  MOVWF  xD7
04422:  MOVLW  64
04424:  MOVWF  xD6
04426:  MOVLB  0
04428:  CALL   25B4
0442C:  MOVFF  01,6D0
04430:  MOVLW  08
04432:  MOVLB  6
04434:  ADDWF  01,W
04436:  MOVWF  01
04438:  MOVLW  00
0443A:  ADDWFC 02,W
0443C:  MOVWF  03
0443E:  MOVF   01,W
04440:  ADDLW  3A
04442:  MOVWF  FE9
04444:  MOVLW  03
04446:  ADDWFC 03,W
04448:  MOVWF  FEA
0444A:  MOVFF  FEF,6D0
0444E:  MOVFF  FEC,6D1
04452:  MOVFF  FEC,6D2
04456:  MOVFF  FEC,6D3
0445A:  CLRF   xD5
0445C:  MOVFF  6CC,6D4
04460:  MOVLW  01
04462:  MOVWF  xD7
04464:  MOVLW  64
04466:  MOVWF  xD6
04468:  MOVLB  0
0446A:  CALL   25B4
0446E:  MOVFF  02,6D5
04472:  MOVFF  01,6D4
04476:  MOVLW  60
04478:  MOVLB  6
0447A:  ADDWF  01,W
0447C:  MOVWF  01
0447E:  MOVLW  01
04480:  ADDWFC 02,W
04482:  MOVWF  03
04484:  MOVF   01,W
04486:  ADDLW  3A
04488:  MOVWF  FE9
0448A:  MOVLW  03
0448C:  ADDWFC 03,W
0448E:  MOVWF  FEA
04490:  MOVFF  FEF,00
04494:  MOVFF  FEC,01
04498:  MOVFF  FEC,02
0449C:  MOVFF  FEC,03
044A0:  MOVFF  6D3,6D9
044A4:  MOVFF  6D2,6D8
044A8:  MOVFF  6D1,6D7
044AC:  MOVFF  6D0,6D6
044B0:  MOVFF  03,6DD
044B4:  MOVFF  02,6DC
044B8:  MOVFF  01,6DB
044BC:  MOVFF  00,6DA
044C0:  MOVLB  0
044C2:  CALL   216A
044C6:  MOVFF  6CF,FEA
044CA:  MOVFF  6CE,FE9
044CE:  MOVFF  00,FEF
044D2:  MOVFF  01,FEC
044D6:  MOVFF  02,FEC
044DA:  MOVFF  03,FEC
....................    Sensor[canal].V0 = Sensor[canal].V0+14.83; // Se suma voltaje de divisor fijo 
044DE:  MOVLB  6
044E0:  CLRF   xD5
044E2:  MOVFF  6CC,6D4
044E6:  MOVLW  01
044E8:  MOVWF  xD7
044EA:  MOVLW  64
044EC:  MOVWF  xD6
044EE:  MOVLB  0
044F0:  CALL   25B4
044F4:  MOVFF  01,6CE
044F8:  MOVLW  08
044FA:  MOVLB  6
044FC:  ADDWF  01,W
044FE:  MOVWF  01
04500:  MOVLW  00
04502:  ADDWFC 02,W
04504:  MOVWF  03
04506:  MOVF   01,W
04508:  ADDLW  3A
0450A:  MOVWF  01
0450C:  MOVLW  03
0450E:  ADDWFC 03,F
04510:  MOVFF  01,6CE
04514:  MOVFF  03,6CF
04518:  CLRF   xD5
0451A:  MOVFF  6CC,6D4
0451E:  MOVLW  01
04520:  MOVWF  xD7
04522:  MOVLW  64
04524:  MOVWF  xD6
04526:  MOVLB  0
04528:  CALL   25B4
0452C:  MOVFF  01,6D0
04530:  MOVLW  08
04532:  MOVLB  6
04534:  ADDWF  01,W
04536:  MOVWF  01
04538:  MOVLW  00
0453A:  ADDWFC 02,W
0453C:  MOVWF  03
0453E:  MOVF   01,W
04540:  ADDLW  3A
04542:  MOVWF  FE9
04544:  MOVLW  03
04546:  ADDWFC 03,W
04548:  MOVWF  FEA
0454A:  MOVFF  FEF,6D0
0454E:  MOVFF  FEC,6D1
04552:  MOVFF  FEC,6D2
04556:  MOVFF  FEC,6D3
0455A:  MOVFF  FEA,6D5
0455E:  MOVFF  FE9,6D4
04562:  BCF    FD8.1
04564:  MOVFF  6D3,6DF
04568:  MOVFF  6D2,6DE
0456C:  MOVFF  6D1,6DD
04570:  MOVFF  6D0,6DC
04574:  MOVLW  AE
04576:  MOVWF  xE3
04578:  MOVLW  47
0457A:  MOVWF  xE2
0457C:  MOVLW  6D
0457E:  MOVWF  xE1
04580:  MOVLW  82
04582:  MOVWF  xE0
04584:  MOVLB  0
04586:  CALL   22C8
0458A:  MOVFF  6D5,FEA
0458E:  MOVFF  6D4,FE9
04592:  MOVFF  6CF,FEA
04596:  MOVFF  6CE,FE9
0459A:  MOVFF  00,FEF
0459E:  MOVFF  01,FEC
045A2:  MOVFF  02,FEC
045A6:  MOVFF  03,FEC
....................    //Sensor[canal].BN=(Sensor[canal].V0*(R8+R9))+(1023*R9); 
....................    Sensor[canal].Pt = R10/((1023/Sensor[canal].V0)-1); 
045AA:  MOVLB  6
045AC:  CLRF   xD5
045AE:  MOVFF  6CC,6D4
045B2:  MOVLW  01
045B4:  MOVWF  xD7
045B6:  MOVLW  64
045B8:  MOVWF  xD6
045BA:  MOVLB  0
045BC:  CALL   25B4
045C0:  MOVFF  01,6CE
045C4:  MOVLW  0C
045C6:  MOVLB  6
045C8:  ADDWF  01,W
045CA:  MOVWF  01
045CC:  MOVLW  00
045CE:  ADDWFC 02,W
045D0:  MOVWF  03
045D2:  MOVF   01,W
045D4:  ADDLW  3A
045D6:  MOVWF  01
045D8:  MOVLW  03
045DA:  ADDWFC 03,F
045DC:  MOVFF  01,6CE
045E0:  MOVFF  03,6CF
045E4:  CLRF   xD5
045E6:  MOVFF  6CC,6D4
045EA:  MOVLW  01
045EC:  MOVWF  xD7
045EE:  MOVLW  64
045F0:  MOVWF  xD6
045F2:  MOVLB  0
045F4:  CALL   25B4
045F8:  MOVFF  02,6D1
045FC:  MOVFF  01,6D0
04600:  MOVLW  08
04602:  MOVLB  6
04604:  ADDWF  01,W
04606:  MOVWF  01
04608:  MOVLW  00
0460A:  ADDWFC 02,W
0460C:  MOVWF  03
0460E:  MOVF   01,W
04610:  ADDLW  3A
04612:  MOVWF  FE9
04614:  MOVLW  03
04616:  ADDWFC 03,W
04618:  MOVWF  FEA
0461A:  MOVFF  FEF,00
0461E:  MOVFF  FEC,01
04622:  MOVFF  FEC,02
04626:  MOVFF  FEC,03
0462A:  CLRF   xD9
0462C:  MOVLW  C0
0462E:  MOVWF  xD8
04630:  MOVLW  7F
04632:  MOVWF  xD7
04634:  MOVLW  88
04636:  MOVWF  xD6
04638:  MOVFF  03,6DD
0463C:  MOVFF  02,6DC
04640:  MOVFF  01,6DB
04644:  MOVFF  00,6DA
04648:  MOVLB  0
0464A:  CALL   216A
0464E:  MOVFF  00,6D0
04652:  MOVFF  01,6D1
04656:  MOVFF  02,6D2
0465A:  MOVFF  03,6D3
0465E:  MOVFF  FEA,6D5
04662:  MOVFF  FE9,6D4
04666:  BSF    FD8.1
04668:  MOVFF  03,6DF
0466C:  MOVFF  02,6DE
04670:  MOVFF  01,6DD
04674:  MOVFF  00,6DC
04678:  MOVLB  6
0467A:  CLRF   xE3
0467C:  CLRF   xE2
0467E:  CLRF   xE1
04680:  MOVLW  7F
04682:  MOVWF  xE0
04684:  MOVLB  0
04686:  CALL   22C8
0468A:  MOVFF  6D5,FEA
0468E:  MOVFF  6D4,FE9
04692:  MOVFF  1DC,6D9
04696:  MOVFF  1DB,6D8
0469A:  MOVFF  1DA,6D7
0469E:  MOVFF  1D9,6D6
046A2:  MOVFF  03,6DD
046A6:  MOVFF  02,6DC
046AA:  MOVFF  01,6DB
046AE:  MOVFF  00,6DA
046B2:  CALL   216A
046B6:  MOVFF  6CF,FEA
046BA:  MOVFF  6CE,FE9
046BE:  MOVFF  00,FEF
046C2:  MOVFF  01,FEC
046C6:  MOVFF  02,FEC
046CA:  MOVFF  03,FEC
....................    //Sensor[canal].Pt=Sensor[canal].Pt-Sensor[canal].RPT100; //Ajuste de impedancia de cableado de PT100    
....................              
....................    if(Sensor[canal].l>(media-1)) 
046CE:  MOVLB  6
046D0:  CLRF   xD5
046D2:  MOVFF  6CC,6D4
046D6:  MOVLW  01
046D8:  MOVWF  xD7
046DA:  MOVLW  64
046DC:  MOVWF  xD6
046DE:  MOVLB  0
046E0:  CALL   25B4
046E4:  MOVFF  02,6CF
046E8:  MOVFF  01,6CE
046EC:  MOVLW  14
046EE:  MOVLB  6
046F0:  ADDWF  01,W
046F2:  MOVWF  01
046F4:  MOVLW  00
046F6:  ADDWFC 02,W
046F8:  MOVWF  03
046FA:  MOVF   01,W
046FC:  ADDLW  3A
046FE:  MOVWF  FE9
04700:  MOVLW  03
04702:  ADDWFC 03,W
04704:  MOVWF  FEA
04706:  MOVFF  FEF,6CE
0470A:  MOVLW  01
0470C:  SUBWF  xCD,W
0470E:  SUBWF  xCE,W
04710:  BZ    4748
04712:  BNC   4748
....................    {Sensor[canal].l=0;} 
04714:  CLRF   xD5
04716:  MOVFF  6CC,6D4
0471A:  MOVLW  01
0471C:  MOVWF  xD7
0471E:  MOVLW  64
04720:  MOVWF  xD6
04722:  MOVLB  0
04724:  CALL   25B4
04728:  MOVFF  01,6CE
0472C:  MOVLW  14
0472E:  MOVLB  6
04730:  ADDWF  01,W
04732:  MOVWF  01
04734:  MOVLW  00
04736:  ADDWFC 02,W
04738:  MOVWF  03
0473A:  MOVF   01,W
0473C:  ADDLW  3A
0473E:  MOVWF  FE9
04740:  MOVLW  03
04742:  ADDWFC 03,W
04744:  MOVWF  FEA
04746:  CLRF   FEF
....................     
....................    Sensor[canal].promedio[Sensor[canal].l]=Sensor[canal].Pt;Sensor[canal].l++; 
04748:  CLRF   xD5
0474A:  MOVFF  6CC,6D4
0474E:  MOVLW  01
04750:  MOVWF  xD7
04752:  MOVLW  64
04754:  MOVWF  xD6
04756:  MOVLB  0
04758:  CALL   25B4
0475C:  MOVFF  02,6CF
04760:  MOVFF  01,6CE
04764:  MOVLW  20
04766:  MOVLB  6
04768:  ADDWF  xCE,F
0476A:  MOVLW  00
0476C:  ADDWFC xCF,F
0476E:  CLRF   xD5
04770:  MOVFF  6CC,6D4
04774:  MOVLW  01
04776:  MOVWF  xD7
04778:  MOVLW  64
0477A:  MOVWF  xD6
0477C:  MOVLB  0
0477E:  CALL   25B4
04782:  MOVFF  02,6D1
04786:  MOVFF  01,6D0
0478A:  MOVLW  14
0478C:  MOVLB  6
0478E:  ADDWF  01,W
04790:  MOVWF  01
04792:  MOVLW  00
04794:  ADDWFC 02,W
04796:  MOVWF  03
04798:  MOVF   01,W
0479A:  ADDLW  3A
0479C:  MOVWF  FE9
0479E:  MOVLW  03
047A0:  ADDWFC 03,W
047A2:  MOVWF  FEA
047A4:  CLRF   xD5
047A6:  MOVFF  FEF,6D4
047AA:  CLRF   xD7
047AC:  MOVLW  04
047AE:  MOVWF  xD6
047B0:  MOVLB  0
047B2:  CALL   25B4
047B6:  MOVFF  02,03
047BA:  MOVF   01,W
047BC:  MOVLB  6
047BE:  ADDWF  xCE,W
047C0:  MOVWF  01
047C2:  MOVF   xCF,W
047C4:  ADDWFC 03,F
047C6:  MOVF   01,W
047C8:  ADDLW  3A
047CA:  MOVWF  01
047CC:  MOVLW  03
047CE:  ADDWFC 03,F
047D0:  MOVFF  01,6CE
047D4:  MOVFF  03,6CF
047D8:  CLRF   xD5
047DA:  MOVFF  6CC,6D4
047DE:  MOVLW  01
047E0:  MOVWF  xD7
047E2:  MOVLW  64
047E4:  MOVWF  xD6
047E6:  MOVLB  0
047E8:  CALL   25B4
047EC:  MOVFF  02,6D1
047F0:  MOVFF  01,6D0
047F4:  MOVLW  0C
047F6:  MOVLB  6
047F8:  ADDWF  01,W
047FA:  MOVWF  01
047FC:  MOVLW  00
047FE:  ADDWFC 02,W
04800:  MOVWF  03
04802:  MOVF   01,W
04804:  ADDLW  3A
04806:  MOVWF  FE9
04808:  MOVLW  03
0480A:  ADDWFC 03,W
0480C:  MOVWF  FEA
0480E:  MOVFF  FEF,00
04812:  MOVFF  FEC,01
04816:  MOVFF  FEC,02
0481A:  MOVFF  FEC,03
0481E:  MOVFF  6CF,FEA
04822:  MOVFF  6CE,FE9
04826:  MOVFF  00,FEF
0482A:  MOVFF  01,FEC
0482E:  MOVFF  02,FEC
04832:  MOVFF  03,FEC
04836:  CLRF   xD5
04838:  MOVFF  6CC,6D4
0483C:  MOVLW  01
0483E:  MOVWF  xD7
04840:  MOVLW  64
04842:  MOVWF  xD6
04844:  MOVLB  0
04846:  CALL   25B4
0484A:  MOVFF  01,6CE
0484E:  MOVLW  14
04850:  MOVLB  6
04852:  ADDWF  01,W
04854:  MOVWF  01
04856:  MOVLW  00
04858:  ADDWFC 02,W
0485A:  MOVWF  03
0485C:  MOVF   01,W
0485E:  ADDLW  3A
04860:  MOVWF  FE9
04862:  MOVLW  03
04864:  ADDWFC 03,W
04866:  MOVWF  FEA
04868:  INCF   FEF,F
....................           
....................    for(Sensor[canal].h=0;Sensor[canal].h<media;Sensor[canal].h++) 
0486A:  CLRF   xD5
0486C:  MOVFF  6CC,6D4
04870:  MOVLW  01
04872:  MOVWF  xD7
04874:  MOVLW  64
04876:  MOVWF  xD6
04878:  MOVLB  0
0487A:  CALL   25B4
0487E:  MOVFF  02,6CF
04882:  MOVFF  01,6CE
04886:  MOVLW  15
04888:  MOVLB  6
0488A:  ADDWF  01,W
0488C:  MOVWF  01
0488E:  MOVLW  00
04890:  ADDWFC 02,W
04892:  MOVWF  03
04894:  MOVF   01,W
04896:  ADDLW  3A
04898:  MOVWF  FE9
0489A:  MOVLW  03
0489C:  ADDWFC 03,W
0489E:  MOVWF  FEA
048A0:  CLRF   FEF
048A2:  CLRF   xD5
048A4:  MOVFF  6CC,6D4
048A8:  MOVLW  01
048AA:  MOVWF  xD7
048AC:  MOVLW  64
048AE:  MOVWF  xD6
048B0:  MOVLB  0
048B2:  CALL   25B4
048B6:  MOVFF  02,6CF
048BA:  MOVFF  01,6CE
048BE:  MOVLW  15
048C0:  MOVLB  6
048C2:  ADDWF  01,W
048C4:  MOVWF  01
048C6:  MOVLW  00
048C8:  ADDWFC 02,W
048CA:  MOVWF  03
048CC:  MOVF   01,W
048CE:  ADDLW  3A
048D0:  MOVWF  FE9
048D2:  MOVLW  03
048D4:  ADDWFC 03,W
048D6:  MOVWF  FEA
048D8:  MOVF   xCD,W
048DA:  SUBWF  FEF,W
048DC:  BTFSC  FD8.0
048DE:  BRA    49FE
....................    { 
....................       Prom+=Sensor[canal].promedio[Sensor[canal].h]; 
048E0:  CLRF   xD5
048E2:  MOVFF  6CC,6D4
048E6:  MOVLW  01
048E8:  MOVWF  xD7
048EA:  MOVLW  64
048EC:  MOVWF  xD6
048EE:  MOVLB  0
048F0:  CALL   25B4
048F4:  MOVFF  02,6CF
048F8:  MOVFF  01,6CE
048FC:  MOVLW  20
048FE:  MOVLB  6
04900:  ADDWF  xCE,F
04902:  MOVLW  00
04904:  ADDWFC xCF,F
04906:  CLRF   xD5
04908:  MOVFF  6CC,6D4
0490C:  MOVLW  01
0490E:  MOVWF  xD7
04910:  MOVLW  64
04912:  MOVWF  xD6
04914:  MOVLB  0
04916:  CALL   25B4
0491A:  MOVFF  02,6D1
0491E:  MOVFF  01,6D0
04922:  MOVLW  15
04924:  MOVLB  6
04926:  ADDWF  01,W
04928:  MOVWF  01
0492A:  MOVLW  00
0492C:  ADDWFC 02,W
0492E:  MOVWF  03
04930:  MOVF   01,W
04932:  ADDLW  3A
04934:  MOVWF  FE9
04936:  MOVLW  03
04938:  ADDWFC 03,W
0493A:  MOVWF  FEA
0493C:  CLRF   xD5
0493E:  MOVFF  FEF,6D4
04942:  CLRF   xD7
04944:  MOVLW  04
04946:  MOVWF  xD6
04948:  MOVLB  0
0494A:  CALL   25B4
0494E:  MOVFF  02,03
04952:  MOVF   01,W
04954:  MOVLB  6
04956:  ADDWF  xCE,W
04958:  MOVWF  01
0495A:  MOVF   xCF,W
0495C:  ADDWFC 03,F
0495E:  MOVF   01,W
04960:  ADDLW  3A
04962:  MOVWF  FE9
04964:  MOVLW  03
04966:  ADDWFC 03,W
04968:  MOVWF  FEA
0496A:  MOVFF  FEF,00
0496E:  MOVFF  FEC,01
04972:  MOVFF  FEC,02
04976:  MOVFF  FEC,03
0497A:  MOVFF  FEA,6CF
0497E:  MOVFF  FE9,6CE
04982:  BCF    FD8.1
04984:  MOVFF  216,6DF
04988:  MOVFF  215,6DE
0498C:  MOVFF  214,6DD
04990:  MOVFF  213,6DC
04994:  MOVFF  03,6E3
04998:  MOVFF  02,6E2
0499C:  MOVFF  01,6E1
049A0:  MOVFF  00,6E0
049A4:  MOVLB  0
049A6:  CALL   22C8
049AA:  MOVFF  6CF,FEA
049AE:  MOVFF  6CE,FE9
049B2:  MOVFF  03,216
049B6:  MOVFF  02,215
049BA:  MOVFF  01,214
049BE:  MOVFF  00,213
....................    }  
049C2:  MOVLB  6
049C4:  CLRF   xD5
049C6:  MOVFF  6CC,6D4
049CA:  MOVLW  01
049CC:  MOVWF  xD7
049CE:  MOVLW  64
049D0:  MOVWF  xD6
049D2:  MOVLB  0
049D4:  CALL   25B4
049D8:  MOVFF  02,6CF
049DC:  MOVFF  01,6CE
049E0:  MOVLW  15
049E2:  MOVLB  6
049E4:  ADDWF  01,W
049E6:  MOVWF  01
049E8:  MOVLW  00
049EA:  ADDWFC 02,W
049EC:  MOVWF  03
049EE:  MOVF   01,W
049F0:  ADDLW  3A
049F2:  MOVWF  FE9
049F4:  MOVLW  03
049F6:  ADDWFC 03,W
049F8:  MOVWF  FEA
049FA:  INCF   FEF,F
049FC:  BRA    48A2
....................    Prom=Prom/media;    
049FE:  CLRF   xDD
04A00:  MOVFF  6CD,6DC
04A04:  MOVLB  0
04A06:  CALL   210C
04A0A:  MOVFF  216,6D9
04A0E:  MOVFF  215,6D8
04A12:  MOVFF  214,6D7
04A16:  MOVFF  213,6D6
04A1A:  MOVFF  03,6DD
04A1E:  MOVFF  02,6DC
04A22:  MOVFF  01,6DB
04A26:  MOVFF  00,6DA
04A2A:  CALL   216A
04A2E:  MOVFF  03,216
04A32:  MOVFF  02,215
04A36:  MOVFF  01,214
04A3A:  MOVFF  00,213
....................    //Temperature=(Prom-100.0)/(0.385);  // Ecuacin determinada por linealizacin en Matlab. Revisar este polinomio.   
....................    Temperature=((Prom*Prom)*a)+(Prom*b)+c;  // Ecuacin determinada por linealizacin en Matlab. Revisar este polinomio. 
04A3E:  MOVFF  216,6E3
04A42:  MOVFF  215,6E2
04A46:  MOVFF  214,6E1
04A4A:  MOVFF  213,6E0
04A4E:  MOVFF  216,6E7
04A52:  MOVFF  215,6E6
04A56:  MOVFF  214,6E5
04A5A:  MOVFF  213,6E4
04A5E:  RCALL  4284
04A60:  MOVFF  00,6CE
04A64:  MOVFF  01,6CF
04A68:  MOVFF  02,6D0
04A6C:  MOVFF  03,6D1
04A70:  MOVFF  03,6E3
04A74:  MOVFF  02,6E2
04A78:  MOVFF  01,6E1
04A7C:  MOVFF  00,6E0
04A80:  MOVFF  246,6E7
04A84:  MOVFF  245,6E6
04A88:  MOVFF  244,6E5
04A8C:  MOVFF  243,6E4
04A90:  CALL   4284
04A94:  MOVFF  00,6CE
04A98:  MOVFF  01,6CF
04A9C:  MOVFF  02,6D0
04AA0:  MOVFF  03,6D1
04AA4:  MOVFF  216,6E3
04AA8:  MOVFF  215,6E2
04AAC:  MOVFF  214,6E1
04AB0:  MOVFF  213,6E0
04AB4:  MOVFF  24A,6E7
04AB8:  MOVFF  249,6E6
04ABC:  MOVFF  248,6E5
04AC0:  MOVFF  247,6E4
04AC4:  CALL   4284
04AC8:  BCF    FD8.1
04ACA:  MOVFF  6D1,6DF
04ACE:  MOVFF  6D0,6DE
04AD2:  MOVFF  6CF,6DD
04AD6:  MOVFF  6CE,6DC
04ADA:  MOVFF  03,6E3
04ADE:  MOVFF  02,6E2
04AE2:  MOVFF  01,6E1
04AE6:  MOVFF  00,6E0
04AEA:  CALL   22C8
04AEE:  MOVFF  00,6CE
04AF2:  MOVFF  01,6CF
04AF6:  MOVFF  02,6D0
04AFA:  MOVFF  03,6D1
04AFE:  BCF    FD8.1
04B00:  MOVFF  03,6DF
04B04:  MOVFF  02,6DE
04B08:  MOVFF  01,6DD
04B0C:  MOVFF  00,6DC
04B10:  MOVFF  24E,6E3
04B14:  MOVFF  24D,6E2
04B18:  MOVFF  24C,6E1
04B1C:  MOVFF  24B,6E0
04B20:  CALL   22C8
04B24:  MOVFF  03,21A
04B28:  MOVFF  02,219
04B2C:  MOVFF  01,218
04B30:  MOVFF  00,217
....................    Temperature+=((float)Sensor[canal].Ajuste-(float)Sensor[canal].Ajusten); 
04B34:  MOVLB  6
04B36:  CLRF   xD5
04B38:  MOVFF  6CC,6D4
04B3C:  MOVLW  01
04B3E:  MOVWF  xD7
04B40:  MOVLW  64
04B42:  MOVWF  xD6
04B44:  MOVLB  0
04B46:  CALL   25B4
04B4A:  MOVFF  02,6CF
04B4E:  MOVFF  01,6CE
04B52:  MOVLW  1E
04B54:  MOVLB  6
04B56:  ADDWF  01,W
04B58:  MOVWF  01
04B5A:  MOVLW  00
04B5C:  ADDWFC 02,W
04B5E:  MOVWF  03
04B60:  MOVF   01,W
04B62:  ADDLW  3A
04B64:  MOVWF  FE9
04B66:  MOVLW  03
04B68:  ADDWFC 03,W
04B6A:  MOVWF  FEA
04B6C:  MOVF   FEF,W
04B6E:  CLRF   xDD
04B70:  MOVWF  xDC
04B72:  MOVLB  0
04B74:  CALL   210C
04B78:  MOVFF  00,6CE
04B7C:  MOVFF  01,6CF
04B80:  MOVFF  02,6D0
04B84:  MOVFF  03,6D1
04B88:  MOVLB  6
04B8A:  CLRF   xD5
04B8C:  MOVFF  6CC,6D4
04B90:  MOVLW  01
04B92:  MOVWF  xD7
04B94:  MOVLW  64
04B96:  MOVWF  xD6
04B98:  MOVLB  0
04B9A:  CALL   25B4
04B9E:  MOVFF  02,6D3
04BA2:  MOVFF  01,6D2
04BA6:  MOVLW  1F
04BA8:  MOVLB  6
04BAA:  ADDWF  01,W
04BAC:  MOVWF  01
04BAE:  MOVLW  00
04BB0:  ADDWFC 02,W
04BB2:  MOVWF  03
04BB4:  MOVF   01,W
04BB6:  ADDLW  3A
04BB8:  MOVWF  FE9
04BBA:  MOVLW  03
04BBC:  ADDWFC 03,W
04BBE:  MOVWF  FEA
04BC0:  MOVF   FEF,W
04BC2:  CLRF   xDD
04BC4:  MOVWF  xDC
04BC6:  MOVLB  0
04BC8:  CALL   210C
04BCC:  MOVFF  FEA,6D3
04BD0:  MOVFF  FE9,6D2
04BD4:  BSF    FD8.1
04BD6:  MOVFF  6D1,6DF
04BDA:  MOVFF  6D0,6DE
04BDE:  MOVFF  6CF,6DD
04BE2:  MOVFF  6CE,6DC
04BE6:  MOVFF  03,6E3
04BEA:  MOVFF  02,6E2
04BEE:  MOVFF  01,6E1
04BF2:  MOVFF  00,6E0
04BF6:  CALL   22C8
04BFA:  MOVFF  6D3,FEA
04BFE:  MOVFF  6D2,FE9
04C02:  MOVFF  FEA,6CF
04C06:  MOVFF  FE9,6CE
04C0A:  BCF    FD8.1
04C0C:  MOVFF  21A,6DF
04C10:  MOVFF  219,6DE
04C14:  MOVFF  218,6DD
04C18:  MOVFF  217,6DC
04C1C:  MOVFF  03,6E3
04C20:  MOVFF  02,6E2
04C24:  MOVFF  01,6E1
04C28:  MOVFF  00,6E0
04C2C:  CALL   22C8
04C30:  MOVFF  6CF,FEA
04C34:  MOVFF  6CE,FE9
04C38:  MOVFF  03,21A
04C3C:  MOVFF  02,219
04C40:  MOVFF  01,218
04C44:  MOVFF  00,217
....................     
....................    return Temperature; 
04C48:  MOVFF  217,00
04C4C:  MOVFF  218,01
04C50:  MOVFF  219,02
04C54:  MOVFF  21A,03
.................... } 
04C58:  RETLW  00
....................  
.................... float Leer_Sensor_Presion_Camara(int8 media){ 
....................    promediopresion=0.0; 
04C5A:  MOVLB  1
04C5C:  CLRF   xF0
04C5E:  CLRF   xEF
04C60:  CLRF   xEE
04C62:  CLRF   xED
....................    V1 = sensores(5);   //Lectura de Divisor de Voltaje de PT100 con resistencia de 1k (+-10%) 
04C64:  MOVLW  05
04C66:  MOVLB  6
04C68:  MOVWF  xD0
04C6A:  MOVLB  0
04C6C:  CALL   422C
04C70:  MOVFF  03,22E
04C74:  MOVFF  02,22D
04C78:  MOVFF  01,22C
04C7C:  MOVFF  00,22B
....................    //V1 = V1*(5.0/1024.0); 
....................    //Presion=(V1-0.2)/(K); 
....................    Presion=(((V1)/1023)-0.04)/K; 
04C80:  MOVFF  22E,6D9
04C84:  MOVFF  22D,6D8
04C88:  MOVFF  22C,6D7
04C8C:  MOVFF  22B,6D6
04C90:  MOVLB  6
04C92:  CLRF   xDD
04C94:  MOVLW  C0
04C96:  MOVWF  xDC
04C98:  MOVLW  7F
04C9A:  MOVWF  xDB
04C9C:  MOVLW  88
04C9E:  MOVWF  xDA
04CA0:  MOVLB  0
04CA2:  CALL   216A
04CA6:  MOVFF  00,6CD
04CAA:  MOVFF  01,6CE
04CAE:  MOVFF  02,6CF
04CB2:  MOVFF  03,6D0
04CB6:  BSF    FD8.1
04CB8:  MOVFF  03,6DF
04CBC:  MOVFF  02,6DE
04CC0:  MOVFF  01,6DD
04CC4:  MOVFF  00,6DC
04CC8:  MOVLW  0A
04CCA:  MOVLB  6
04CCC:  MOVWF  xE3
04CCE:  MOVLW  D7
04CD0:  MOVWF  xE2
04CD2:  MOVLW  23
04CD4:  MOVWF  xE1
04CD6:  MOVLW  7A
04CD8:  MOVWF  xE0
04CDA:  MOVLB  0
04CDC:  CALL   22C8
04CE0:  MOVFF  00,6CD
04CE4:  MOVFF  01,6CE
04CE8:  MOVFF  02,6CF
04CEC:  MOVFF  03,6D0
04CF0:  MOVFF  03,6D9
04CF4:  MOVFF  02,6D8
04CF8:  MOVFF  01,6D7
04CFC:  MOVFF  00,6D6
04D00:  MOVFF  1D8,6DD
04D04:  MOVFF  1D7,6DC
04D08:  MOVFF  1D6,6DB
04D0C:  MOVFF  1D5,6DA
04D10:  CALL   216A
04D14:  MOVFF  03,232
04D18:  MOVFF  02,231
04D1C:  MOVFF  01,230
04D20:  MOVFF  00,22F
....................     
....................    if(Presion<0.0) 
04D24:  MOVFF  232,6D1
04D28:  MOVFF  231,6D0
04D2C:  MOVFF  230,6CF
04D30:  MOVFF  22F,6CE
04D34:  MOVLB  6
04D36:  CLRF   xD5
04D38:  CLRF   xD4
04D3A:  CLRF   xD3
04D3C:  CLRF   xD2
04D3E:  MOVLB  0
04D40:  CALL   279E
04D44:  BNC   4D50
....................       Presion=0.0; 
04D46:  MOVLB  2
04D48:  CLRF   x32
04D4A:  CLRF   x31
04D4C:  CLRF   x30
04D4E:  CLRF   x2F
....................     
....................    if(r>media-1) 
04D50:  MOVLW  01
04D52:  MOVLB  6
04D54:  SUBWF  xCC,W
04D56:  MOVLB  2
04D58:  SUBWF  xA3,W
04D5A:  BZ    4D60
04D5C:  BNC   4D60
....................       r=0; 
04D5E:  CLRF   xA3
....................    PromPresion[r]=Presion;r++; 
04D60:  MOVF   xA3,W
04D62:  MULLW  04
04D64:  MOVF   FF3,W
04D66:  CLRF   03
04D68:  ADDLW  29
04D6A:  MOVWF  FE9
04D6C:  MOVLW  01
04D6E:  ADDWFC 03,W
04D70:  MOVWF  FEA
04D72:  MOVFF  22F,FEF
04D76:  MOVFF  230,FEC
04D7A:  MOVFF  231,FEC
04D7E:  MOVFF  232,FEC
04D82:  INCF   xA3,F
....................           
....................    for(t=0;t<=(media-1);t++) 
04D84:  CLRF   xA4
04D86:  MOVLW  01
04D88:  MOVLB  6
04D8A:  SUBWF  xCC,W
04D8C:  MOVLB  2
04D8E:  SUBWF  xA4,W
04D90:  BZ    4D94
04D92:  BC    4E04
....................       promediopresion+=PromPresion[t]; 
04D94:  MOVF   xA4,W
04D96:  MULLW  04
04D98:  MOVF   FF3,W
04D9A:  CLRF   03
04D9C:  ADDLW  29
04D9E:  MOVWF  FE9
04DA0:  MOVLW  01
04DA2:  ADDWFC 03,W
04DA4:  MOVWF  FEA
04DA6:  MOVFF  FEF,00
04DAA:  MOVFF  FEC,01
04DAE:  MOVFF  FEC,02
04DB2:  MOVFF  FEC,03
04DB6:  MOVFF  FEA,6CE
04DBA:  MOVFF  FE9,6CD
04DBE:  BCF    FD8.1
04DC0:  MOVFF  1F0,6DF
04DC4:  MOVFF  1EF,6DE
04DC8:  MOVFF  1EE,6DD
04DCC:  MOVFF  1ED,6DC
04DD0:  MOVFF  03,6E3
04DD4:  MOVFF  02,6E2
04DD8:  MOVFF  01,6E1
04DDC:  MOVFF  00,6E0
04DE0:  MOVLB  0
04DE2:  CALL   22C8
04DE6:  MOVFF  6CE,FEA
04DEA:  MOVFF  6CD,FE9
04DEE:  MOVFF  03,1F0
04DF2:  MOVFF  02,1EF
04DF6:  MOVFF  01,1EE
04DFA:  MOVFF  00,1ED
04DFE:  MOVLB  2
04E00:  INCF   xA4,F
04E02:  BRA    4D86
....................      
....................    promediopresion=promediopresion/media;    
04E04:  MOVLB  6
04E06:  CLRF   xDD
04E08:  MOVFF  6CC,6DC
04E0C:  MOVLB  0
04E0E:  CALL   210C
04E12:  MOVFF  1F0,6D9
04E16:  MOVFF  1EF,6D8
04E1A:  MOVFF  1EE,6D7
04E1E:  MOVFF  1ED,6D6
04E22:  MOVFF  03,6DD
04E26:  MOVFF  02,6DC
04E2A:  MOVFF  01,6DB
04E2E:  MOVFF  00,6DA
04E32:  CALL   216A
04E36:  MOVFF  03,1F0
04E3A:  MOVFF  02,1EF
04E3E:  MOVFF  01,1EE
04E42:  MOVFF  00,1ED
....................     
....................    return promediopresion; 
04E46:  MOVFF  1ED,00
04E4A:  MOVFF  1EE,01
04E4E:  MOVFF  1EF,02
04E52:  MOVFF  1F0,03
.................... } 
04E56:  RETLW  00
....................  
.................... float Leer_Sensor_Presion_PreCamara(int8 media){ 
....................    promediopresionp=0.0; 
*
04E94:  MOVLB  1
04E96:  CLRF   xF4
04E98:  CLRF   xF3
04E9A:  CLRF   xF2
04E9C:  CLRF   xF1
....................    V2 = sensores(4);   //Lectura de Divisor de Voltaje de PT100 con resistencia de 1k (+-10%) 
04E9E:  MOVLW  04
04EA0:  MOVLB  6
04EA2:  MOVWF  xD0
04EA4:  MOVLB  0
04EA6:  CALL   422C
04EAA:  MOVFF  03,236
04EAE:  MOVFF  02,235
04EB2:  MOVFF  01,234
04EB6:  MOVFF  00,233
....................    //V2 = V2*(5.0/1024.0); 
....................    //Presionp=(V2-0.2)/(K); 
....................    Presionp=(((V2)/1023)-0.04)/K; 
04EBA:  MOVFF  236,6D9
04EBE:  MOVFF  235,6D8
04EC2:  MOVFF  234,6D7
04EC6:  MOVFF  233,6D6
04ECA:  MOVLB  6
04ECC:  CLRF   xDD
04ECE:  MOVLW  C0
04ED0:  MOVWF  xDC
04ED2:  MOVLW  7F
04ED4:  MOVWF  xDB
04ED6:  MOVLW  88
04ED8:  MOVWF  xDA
04EDA:  MOVLB  0
04EDC:  CALL   216A
04EE0:  MOVFF  00,6CD
04EE4:  MOVFF  01,6CE
04EE8:  MOVFF  02,6CF
04EEC:  MOVFF  03,6D0
04EF0:  BSF    FD8.1
04EF2:  MOVFF  03,6DF
04EF6:  MOVFF  02,6DE
04EFA:  MOVFF  01,6DD
04EFE:  MOVFF  00,6DC
04F02:  MOVLW  0A
04F04:  MOVLB  6
04F06:  MOVWF  xE3
04F08:  MOVLW  D7
04F0A:  MOVWF  xE2
04F0C:  MOVLW  23
04F0E:  MOVWF  xE1
04F10:  MOVLW  7A
04F12:  MOVWF  xE0
04F14:  MOVLB  0
04F16:  CALL   22C8
04F1A:  MOVFF  00,6CD
04F1E:  MOVFF  01,6CE
04F22:  MOVFF  02,6CF
04F26:  MOVFF  03,6D0
04F2A:  MOVFF  03,6D9
04F2E:  MOVFF  02,6D8
04F32:  MOVFF  01,6D7
04F36:  MOVFF  00,6D6
04F3A:  MOVFF  1D8,6DD
04F3E:  MOVFF  1D7,6DC
04F42:  MOVFF  1D6,6DB
04F46:  MOVFF  1D5,6DA
04F4A:  CALL   216A
04F4E:  MOVFF  03,23A
04F52:  MOVFF  02,239
04F56:  MOVFF  01,238
04F5A:  MOVFF  00,237
....................     
....................    if(Presionp<0.0) 
04F5E:  MOVFF  23A,6D1
04F62:  MOVFF  239,6D0
04F66:  MOVFF  238,6CF
04F6A:  MOVFF  237,6CE
04F6E:  MOVLB  6
04F70:  CLRF   xD5
04F72:  CLRF   xD4
04F74:  CLRF   xD3
04F76:  CLRF   xD2
04F78:  MOVLB  0
04F7A:  CALL   279E
04F7E:  BNC   4F8A
....................       Presionp=0.0; 
04F80:  MOVLB  2
04F82:  CLRF   x3A
04F84:  CLRF   x39
04F86:  CLRF   x38
04F88:  CLRF   x37
....................     
....................    if(r22>media-1) 
04F8A:  MOVLW  01
04F8C:  MOVLB  6
04F8E:  SUBWF  xCC,W
04F90:  MOVLB  2
04F92:  SUBWF  xA5,W
04F94:  BZ    4F9A
04F96:  BNC   4F9A
....................       r22=0; 
04F98:  CLRF   xA5
....................    PromPresionp[r22]=Presionp;r22++; 
04F9A:  MOVF   xA5,W
04F9C:  MULLW  04
04F9E:  MOVF   FF3,W
04FA0:  CLRF   03
04FA2:  ADDLW  79
04FA4:  MOVWF  FE9
04FA6:  MOVLW  01
04FA8:  ADDWFC 03,W
04FAA:  MOVWF  FEA
04FAC:  MOVFF  237,FEF
04FB0:  MOVFF  238,FEC
04FB4:  MOVFF  239,FEC
04FB8:  MOVFF  23A,FEC
04FBC:  INCF   xA5,F
....................           
....................    for(t2=0;t2<=(media-1);t2++) 
04FBE:  CLRF   xA6
04FC0:  MOVLW  01
04FC2:  MOVLB  6
04FC4:  SUBWF  xCC,W
04FC6:  MOVLB  2
04FC8:  SUBWF  xA6,W
04FCA:  BZ    4FCE
04FCC:  BC    503E
....................       promediopresionp+=PromPresionp[t2];  
04FCE:  MOVF   xA6,W
04FD0:  MULLW  04
04FD2:  MOVF   FF3,W
04FD4:  CLRF   03
04FD6:  ADDLW  79
04FD8:  MOVWF  FE9
04FDA:  MOVLW  01
04FDC:  ADDWFC 03,W
04FDE:  MOVWF  FEA
04FE0:  MOVFF  FEF,00
04FE4:  MOVFF  FEC,01
04FE8:  MOVFF  FEC,02
04FEC:  MOVFF  FEC,03
04FF0:  MOVFF  FEA,6CE
04FF4:  MOVFF  FE9,6CD
04FF8:  BCF    FD8.1
04FFA:  MOVFF  1F4,6DF
04FFE:  MOVFF  1F3,6DE
05002:  MOVFF  1F2,6DD
05006:  MOVFF  1F1,6DC
0500A:  MOVFF  03,6E3
0500E:  MOVFF  02,6E2
05012:  MOVFF  01,6E1
05016:  MOVFF  00,6E0
0501A:  MOVLB  0
0501C:  CALL   22C8
05020:  MOVFF  6CE,FEA
05024:  MOVFF  6CD,FE9
05028:  MOVFF  03,1F4
0502C:  MOVFF  02,1F3
05030:  MOVFF  01,1F2
05034:  MOVFF  00,1F1
05038:  MOVLB  2
0503A:  INCF   xA6,F
0503C:  BRA    4FC0
....................        
....................    promediopresionp=promediopresionp/media;    
0503E:  MOVLB  6
05040:  CLRF   xDD
05042:  MOVFF  6CC,6DC
05046:  MOVLB  0
05048:  CALL   210C
0504C:  MOVFF  1F4,6D9
05050:  MOVFF  1F3,6D8
05054:  MOVFF  1F2,6D7
05058:  MOVFF  1F1,6D6
0505C:  MOVFF  03,6DD
05060:  MOVFF  02,6DC
05064:  MOVFF  01,6DB
05068:  MOVFF  00,6DA
0506C:  CALL   216A
05070:  MOVFF  03,1F4
05074:  MOVFF  02,1F3
05078:  MOVFF  01,1F2
0507C:  MOVFF  00,1F1
....................     
....................    return promediopresionp; 
05080:  MOVFF  1F1,00
05084:  MOVFF  1F2,01
05088:  MOVFF  1F3,02
0508C:  MOVFF  1F4,03
.................... } 
05090:  RETLW  00
....................  
.................... void Controla(){ 
*
075DA:  MOVLB  6
075DC:  CLRF   xCD
075DE:  CLRF   xCC
075E0:  CLRF   xCB
075E2:  CLRF   xCA
....................    float prc=0.0;    
....................    /* 
....................    // Control por temperatura 
....................    if(Temperatura>Setpoint+0.3){ 
....................       suministroVapor=OFF; 
....................       Paso=ON; 
....................    }else if(Temperatura<=Setpoint+0.2){ 
....................       suministroVapor=ON; 
....................       Paso=ON; 
....................    } 
....................    //////////////////////////// 
....................    */ 
....................    //Control por presin 
....................    prc=(float)PresionCamara; 
075E4:  MOVFF  292,6DD
075E8:  MOVFF  291,6DC
075EC:  MOVLB  0
075EE:  CALL   210C
075F2:  MOVFF  03,6CD
075F6:  MOVFF  02,6CC
075FA:  MOVFF  01,6CB
075FE:  MOVFF  00,6CA
....................    Tactual=((prc)*(prc)*(prc)*p1)+((prc)*(prc)*p2)+(p3*prc)+p4; 
07602:  MOVFF  6CD,6E3
07606:  MOVFF  6CC,6E2
0760A:  MOVFF  6CB,6E1
0760E:  MOVFF  6CA,6E0
07612:  MOVFF  6CD,6E7
07616:  MOVFF  6CC,6E6
0761A:  MOVFF  6CB,6E5
0761E:  MOVFF  6CA,6E4
07622:  CALL   4284
07626:  MOVFF  00,6CE
0762A:  MOVFF  01,6CF
0762E:  MOVFF  02,6D0
07632:  MOVFF  03,6D1
07636:  MOVFF  03,6E3
0763A:  MOVFF  02,6E2
0763E:  MOVFF  01,6E1
07642:  MOVFF  00,6E0
07646:  MOVFF  6CD,6E7
0764A:  MOVFF  6CC,6E6
0764E:  MOVFF  6CB,6E5
07652:  MOVFF  6CA,6E4
07656:  CALL   4284
0765A:  MOVFF  00,6CE
0765E:  MOVFF  01,6CF
07662:  MOVFF  02,6D0
07666:  MOVFF  03,6D1
0766A:  MOVFF  03,6E3
0766E:  MOVFF  02,6E2
07672:  MOVFF  01,6E1
07676:  MOVFF  00,6E0
0767A:  MOVFF  255,6E7
0767E:  MOVFF  254,6E6
07682:  MOVFF  253,6E5
07686:  MOVFF  252,6E4
0768A:  CALL   4284
0768E:  MOVFF  00,6CE
07692:  MOVFF  01,6CF
07696:  MOVFF  02,6D0
0769A:  MOVFF  03,6D1
0769E:  MOVFF  6CD,6E3
076A2:  MOVFF  6CC,6E2
076A6:  MOVFF  6CB,6E1
076AA:  MOVFF  6CA,6E0
076AE:  MOVFF  6CD,6E7
076B2:  MOVFF  6CC,6E6
076B6:  MOVFF  6CB,6E5
076BA:  MOVFF  6CA,6E4
076BE:  CALL   4284
076C2:  MOVFF  00,6D2
076C6:  MOVFF  01,6D3
076CA:  MOVFF  02,6D4
076CE:  MOVFF  03,6D5
076D2:  MOVFF  03,6E3
076D6:  MOVFF  02,6E2
076DA:  MOVFF  01,6E1
076DE:  MOVFF  00,6E0
076E2:  MOVFF  259,6E7
076E6:  MOVFF  258,6E6
076EA:  MOVFF  257,6E5
076EE:  MOVFF  256,6E4
076F2:  CALL   4284
076F6:  BCF    FD8.1
076F8:  MOVFF  6D1,6DF
076FC:  MOVFF  6D0,6DE
07700:  MOVFF  6CF,6DD
07704:  MOVFF  6CE,6DC
07708:  MOVFF  03,6E3
0770C:  MOVFF  02,6E2
07710:  MOVFF  01,6E1
07714:  MOVFF  00,6E0
07718:  CALL   22C8
0771C:  MOVFF  00,6CE
07720:  MOVFF  01,6CF
07724:  MOVFF  02,6D0
07728:  MOVFF  03,6D1
0772C:  MOVFF  25D,6E3
07730:  MOVFF  25C,6E2
07734:  MOVFF  25B,6E1
07738:  MOVFF  25A,6E0
0773C:  MOVFF  6CD,6E7
07740:  MOVFF  6CC,6E6
07744:  MOVFF  6CB,6E5
07748:  MOVFF  6CA,6E4
0774C:  CALL   4284
07750:  BCF    FD8.1
07752:  MOVFF  6D1,6DF
07756:  MOVFF  6D0,6DE
0775A:  MOVFF  6CF,6DD
0775E:  MOVFF  6CE,6DC
07762:  MOVFF  03,6E3
07766:  MOVFF  02,6E2
0776A:  MOVFF  01,6E1
0776E:  MOVFF  00,6E0
07772:  CALL   22C8
07776:  MOVFF  00,6CE
0777A:  MOVFF  01,6CF
0777E:  MOVFF  02,6D0
07782:  MOVFF  03,6D1
07786:  BCF    FD8.1
07788:  MOVFF  03,6DF
0778C:  MOVFF  02,6DE
07790:  MOVFF  01,6DD
07794:  MOVFF  00,6DC
07798:  MOVFF  261,6E3
0779C:  MOVFF  260,6E2
077A0:  MOVFF  25F,6E1
077A4:  MOVFF  25E,6E0
077A8:  CALL   22C8
077AC:  MOVFF  03,265
077B0:  MOVFF  02,264
077B4:  MOVFF  01,263
077B8:  MOVFF  00,262
....................    if(Tactual>Setpoint+0.3){ 
077BC:  MOVLB  6
077BE:  CLRF   xDD
077C0:  MOVFF  280,6DC
077C4:  MOVLB  0
077C6:  CALL   210C
077CA:  BCF    FD8.1
077CC:  MOVFF  03,6DF
077D0:  MOVFF  02,6DE
077D4:  MOVFF  01,6DD
077D8:  MOVFF  00,6DC
077DC:  MOVLW  9A
077DE:  MOVLB  6
077E0:  MOVWF  xE3
077E2:  MOVLW  99
077E4:  MOVWF  xE2
077E6:  MOVLW  19
077E8:  MOVWF  xE1
077EA:  MOVLW  7D
077EC:  MOVWF  xE0
077EE:  MOVLB  0
077F0:  CALL   22C8
077F4:  MOVFF  03,6D1
077F8:  MOVFF  02,6D0
077FC:  MOVFF  01,6CF
07800:  MOVFF  00,6CE
07804:  MOVFF  265,6D5
07808:  MOVFF  264,6D4
0780C:  MOVFF  263,6D3
07810:  MOVFF  262,6D2
07814:  CALL   279E
07818:  BNC   7820
....................       suministroVapor=OFF; 
0781A:  BCF    xF8.1
....................       Paso=ON; 
0781C:  BSF    xF8.2
....................    }else if(Tactual<=Setpoint+0.2){ 
0781E:  BRA    7884
07820:  MOVLB  6
07822:  CLRF   xDD
07824:  MOVFF  280,6DC
07828:  MOVLB  0
0782A:  CALL   210C
0782E:  BCF    FD8.1
07830:  MOVFF  03,6DF
07834:  MOVFF  02,6DE
07838:  MOVFF  01,6DD
0783C:  MOVFF  00,6DC
07840:  MOVLW  CD
07842:  MOVLB  6
07844:  MOVWF  xE3
07846:  MOVLW  CC
07848:  MOVWF  xE2
0784A:  MOVLW  4C
0784C:  MOVWF  xE1
0784E:  MOVLW  7C
07850:  MOVWF  xE0
07852:  MOVLB  0
07854:  CALL   22C8
07858:  MOVFF  265,6D1
0785C:  MOVFF  264,6D0
07860:  MOVFF  263,6CF
07864:  MOVFF  262,6CE
07868:  MOVFF  03,6D5
0786C:  MOVFF  02,6D4
07870:  MOVFF  01,6D3
07874:  MOVFF  00,6D2
07878:  CALL   279E
0787C:  BC    7880
0787E:  BNZ   7884
....................       suministroVapor=ON; 
07880:  BSF    xF8.1
....................       Paso=ON; 
07882:  BSF    xF8.2
....................    } 
....................    //////////////////////////////////// 
.................... //--------------------------------------------------------------------------------------------------------------------//    
.................... } 
07884:  RETLW  00
....................  
.................... void Envio_I2C(direccion, posicion, dato){ 
....................    i2c_start();            // Comienzo comunicacin 
*
0573A:  BSF    F94.4
0573C:  MOVLW  05
0573E:  MOVWF  00
05740:  DECFSZ 00,F
05742:  BRA    5740
05744:  BSF    F94.3
05746:  MOVLW  06
05748:  MOVWF  00
0574A:  DECFSZ 00,F
0574C:  BRA    574A
0574E:  BCF    F8B.4
05750:  BCF    F94.4
05752:  MOVLW  05
05754:  MOVWF  00
05756:  DECFSZ 00,F
05758:  BRA    5756
0575A:  BCF    F8B.3
0575C:  BCF    F94.3
....................    i2c_write(direccion);   // Direccin del esclavo en el bus I2C 
0575E:  MOVFF  6DD,6E0
05762:  CALL   25D6
....................    i2c_write(posicion);    // Posicin donde se guardara el dato transmitido 
05766:  MOVFF  6DE,6E0
0576A:  CALL   25D6
....................    i2c_write(dato);        // Dato a transmitir 
0576E:  MOVFF  6DF,6E0
05772:  CALL   25D6
....................    i2c_stop();             // Fin comunicacin 
05776:  BCF    F94.4
05778:  NOP   
0577A:  BSF    F94.3
0577C:  BTFSS  F82.3
0577E:  BRA    577C
05780:  MOVLW  05
05782:  MOVWF  00
05784:  DECFSZ 00,F
05786:  BRA    5784
05788:  BRA    578A
0578A:  NOP   
0578C:  BSF    F94.4
0578E:  MOVLW  05
05790:  MOVWF  00
05792:  DECFSZ 00,F
05794:  BRA    5792
....................  } 
05796:  GOTO   5860 (RETURN)
....................  
.................... void Lectura_I2C (byte direccion, byte posicion, byte &dato) { 
....................  
....................    i2c_start();            // Comienzo de la comunicacin 
*
05886:  BSF    F94.4
05888:  MOVLW  05
0588A:  MOVWF  00
0588C:  DECFSZ 00,F
0588E:  BRA    588C
05890:  BSF    F94.3
05892:  MOVLW  06
05894:  MOVWF  00
05896:  DECFSZ 00,F
05898:  BRA    5896
0589A:  BCF    F8B.4
0589C:  BCF    F94.4
0589E:  MOVLW  05
058A0:  MOVWF  00
058A2:  DECFSZ 00,F
058A4:  BRA    58A2
058A6:  BCF    F8B.3
058A8:  BCF    F94.3
*
0593C:  BSF    F94.4
0593E:  MOVLW  05
05940:  MOVWF  00
05942:  DECFSZ 00,F
05944:  BRA    5942
05946:  BSF    F94.3
05948:  MOVLW  06
0594A:  MOVWF  00
0594C:  DECFSZ 00,F
0594E:  BRA    594C
05950:  BCF    F8B.4
05952:  BCF    F94.4
05954:  MOVLW  05
05956:  MOVWF  00
05958:  DECFSZ 00,F
0595A:  BRA    5958
0595C:  BCF    F8B.3
0595E:  BCF    F94.3
....................    i2c_write(direccion);   // Direccin del esclavo en el bus I2C 
*
058AA:  MOVFF  6CA,6E0
058AE:  CALL   25D6
*
05960:  MOVFF  6CA,6E0
05964:  MOVLB  0
05966:  CALL   25D6
....................    i2c_write(posicion);    // Posicin de donde se leer el dato en el esclavo 
*
058B2:  MOVFF  6CB,6E0
058B6:  CALL   25D6
*
0596A:  MOVFF  6CB,6E0
0596E:  CALL   25D6
....................    i2c_start();            // Reinicio 
*
058BA:  BSF    F94.4
058BC:  MOVLW  05
058BE:  MOVWF  00
058C0:  DECFSZ 00,F
058C2:  BRA    58C0
058C4:  BSF    F94.3
058C6:  MOVLW  06
058C8:  MOVWF  00
058CA:  DECFSZ 00,F
058CC:  BRA    58CA
058CE:  BTFSS  F82.3
058D0:  BRA    58CE
058D2:  BCF    F8B.4
058D4:  BCF    F94.4
058D6:  MOVLW  05
058D8:  MOVWF  00
058DA:  DECFSZ 00,F
058DC:  BRA    58DA
058DE:  BCF    F8B.3
058E0:  BCF    F94.3
*
05972:  BSF    F94.4
05974:  MOVLW  05
05976:  MOVWF  00
05978:  DECFSZ 00,F
0597A:  BRA    5978
0597C:  BSF    F94.3
0597E:  MOVLW  06
05980:  MOVWF  00
05982:  DECFSZ 00,F
05984:  BRA    5982
05986:  BTFSS  F82.3
05988:  BRA    5986
0598A:  BCF    F8B.4
0598C:  BCF    F94.4
0598E:  MOVLW  05
05990:  MOVWF  00
05992:  DECFSZ 00,F
05994:  BRA    5992
05996:  BCF    F8B.3
05998:  BCF    F94.3
....................    i2c_write(direccion+1); // Direccin del esclavo en modo lectura 
*
058E2:  MOVLW  01
058E4:  MOVLB  6
058E6:  ADDWF  xCA,W
058E8:  MOVWF  xCC
058EA:  MOVWF  xE0
058EC:  MOVLB  0
058EE:  CALL   25D6
*
0599A:  MOVLW  01
0599C:  MOVLB  6
0599E:  ADDWF  xCA,W
059A0:  MOVWF  xCC
059A2:  MOVWF  xE0
059A4:  MOVLB  0
059A6:  CALL   25D6
....................    dato=i2c_read(0);       // Lectura del dato 
*
058F2:  CLRF   00
058F4:  CALL   264C
058F8:  MOVFF  01,DD
*
059AA:  CLRF   00
059AC:  CALL   264C
059B0:  MOVFF  01,DD
....................    i2c_stop();             // Fin comunicacin 
*
058FC:  BCF    F94.4
058FE:  NOP   
05900:  BSF    F94.3
05902:  BTFSS  F82.3
05904:  BRA    5902
05906:  MOVLW  05
05908:  MOVWF  00
0590A:  DECFSZ 00,F
0590C:  BRA    590A
0590E:  BRA    5910
05910:  NOP   
05912:  BSF    F94.4
05914:  MOVLW  05
05916:  MOVWF  00
05918:  DECFSZ 00,F
0591A:  BRA    5918
*
059B4:  BCF    F94.4
059B6:  NOP   
059B8:  BSF    F94.3
059BA:  BTFSS  F82.3
059BC:  BRA    59BA
059BE:  MOVLW  05
059C0:  MOVWF  00
059C2:  DECFSZ 00,F
059C4:  BRA    59C2
059C6:  BRA    59C8
059C8:  NOP   
059CA:  BSF    F94.4
059CC:  MOVLW  05
059CE:  MOVWF  00
059D0:  DECFSZ 00,F
059D2:  BRA    59D0
.................... } 
....................  
.................... void Carga_Vector(void){ 
....................    SlaveB0Tx[0]=(int8)Temperatura; 
*
05462:  MOVFF  23E,6DF
05466:  MOVFF  23D,6DE
0546A:  MOVFF  23C,6DD
0546E:  MOVFF  23B,6DC
05472:  RCALL  4E58
05474:  MOVFF  01,6D
....................    SlaveB0Tx[1]=(Temperatura-((int8)Temperatura))*10; 
05478:  MOVFF  23E,6DF
0547C:  MOVFF  23D,6DE
05480:  MOVFF  23C,6DD
05484:  MOVFF  23B,6DC
05488:  RCALL  4E58
0548A:  MOVLB  6
0548C:  CLRF   xDD
0548E:  MOVFF  01,6DC
05492:  MOVLB  0
05494:  CALL   210C
05498:  BSF    FD8.1
0549A:  MOVFF  23E,6DF
0549E:  MOVFF  23D,6DE
054A2:  MOVFF  23C,6DD
054A6:  MOVFF  23B,6DC
054AA:  MOVFF  03,6E3
054AE:  MOVFF  02,6E2
054B2:  MOVFF  01,6E1
054B6:  MOVFF  00,6E0
054BA:  CALL   22C8
054BE:  MOVFF  00,6DC
054C2:  MOVFF  01,6DD
054C6:  MOVFF  02,6DE
054CA:  MOVFF  03,6DF
054CE:  MOVFF  03,6E3
054D2:  MOVFF  02,6E2
054D6:  MOVFF  01,6E1
054DA:  MOVFF  00,6E0
054DE:  MOVLB  6
054E0:  CLRF   xE7
054E2:  CLRF   xE6
054E4:  MOVLW  20
054E6:  MOVWF  xE5
054E8:  MOVLW  82
054EA:  MOVWF  xE4
054EC:  MOVLB  0
054EE:  CALL   4284
054F2:  MOVFF  03,6DF
054F6:  MOVFF  02,6DE
054FA:  MOVFF  01,6DD
054FE:  MOVFF  00,6DC
05502:  RCALL  4E58
05504:  MOVFF  01,6E
....................    SlaveB0Tx[2]=make8((int16)PresionCamara,0); 
05508:  MOVFF  291,6F
0550C:  MOVLB  0
....................    SlaveB0Tx[3]=make8((int16)PresionCamara,1); 
0550E:  MOVFF  292,70
05512:  MOVLB  0
....................    SlaveB0Tx[4]=make8((int16)PresionPreCamara,0); 
05514:  MOVFF  293,71
05518:  MOVLB  0
....................    SlaveB0Tx[5]=make8((int16)PresionPreCamara,1); 
0551A:  MOVFF  294,72
0551E:  MOVLB  0
....................    SlaveB0Tx[6]=(int8)Tpulso*10; 
05520:  MOVFF  20E,6DF
05524:  MOVFF  20D,6DE
05528:  MOVFF  20C,6DD
0552C:  MOVFF  20B,6DC
05530:  RCALL  4E58
05532:  MOVF   01,W
05534:  MULLW  0A
05536:  MOVFF  FF3,73
....................    SlaveB0Tx[7]=seguroValvula; 
0553A:  CLRF   x74
0553C:  BTFSC  xF9.1
0553E:  INCF   x74,F
....................    SlaveB0Tx[8]=seguroValvula2; 
05540:  CLRF   x75
05542:  BTFSC  xF9.2
05544:  INCF   x75,F
....................    //SlaveB0Tx[9]=TERM; 
....................    //SlaveB0Tx[10]=DOOR; 
....................    SlaveB0Tx[11]=STOP; 
05546:  BSF    F93.0
05548:  CLRF   x78
0554A:  BTFSS  F81.0
0554C:  INCF   x78,F
....................    SlaveB0Tx[12]=(int8)error; 
0554E:  MOVFF  212,6DF
05552:  MOVFF  211,6DE
05556:  MOVFF  210,6DD
0555A:  MOVFF  20F,6DC
0555E:  RCALL  4E58
05560:  MOVFF  01,79
....................    SlaveB0Tx[13]=CicloSeleccionado; 
05564:  MOVFF  276,7A
....................    SlaveB0Tx[14]=SetTime; 
05568:  MOVFF  2C6,7B
....................    SlaveB0Tx[15]=Dia; 
0556C:  MOVFF  2B5,7C
....................    SlaveB0Tx[16]=Mes; 
05570:  MOVFF  2B4,7D
....................    SlaveB0Tx[17]=Year; 
05574:  MOVFF  2B3,7E
....................    SlaveB0Tx[18]=Hora; 
05578:  MOVFF  2B6,7F
....................    SlaveB0Tx[19]=Minuto; 
0557C:  MOVFF  2B7,80
....................    SlaveB0Tx[20]=Segundo; 
05580:  MOVFF  2B8,81
....................    SlaveB0Tx[21]=Imprime; 
05584:  MOVFF  2C7,82
....................    SlaveB0Tx[22]=make8(Ciclos,0); 
05588:  MOVFF  295,83
0558C:  MOVLB  0
....................    SlaveB0Tx[23]=make8(Ciclos,1); 
0558E:  MOVFF  296,84
05592:  MOVLB  0
....................    SlaveB0Tx[24]=EstadoBuzzer; 
05594:  CLRF   x85
05596:  MOVLB  1
05598:  BTFSS  x06.4
0559A:  BRA    55A2
0559C:  MOVLB  0
0559E:  INCF   x85,F
055A0:  MOVLB  1
....................    SlaveB0Tx[25]=suministroAire; 
055A2:  MOVLB  0
055A4:  CLRF   x86
055A6:  BTFSC  30.4
055A8:  INCF   x86,F
....................    SlaveB0Tx[26]=AguaEnfriador; 
055AA:  CLRF   x87
055AC:  BTFSC  30.5
055AE:  INCF   x87,F
....................    SlaveB0Tx[27]=BombaVacio; 
055B0:  CLRF   x88
055B2:  BTFSC  30.6
055B4:  INCF   x88,F
....................    SlaveB0Tx[28]=empaqueLimpio; 
055B6:  CLRF   x89
055B8:  BTFSC  30.7
055BA:  INCF   x89,F
....................    SlaveB0Tx[29]=empaqueSucio; 
055BC:  CLRF   x8A
055BE:  BTFSC  xF8.0
055C0:  INCF   x8A,F
....................    SlaveB0Tx[30]=cilindroSucio; 
055C2:  CLRF   x8B
055C4:  BTFSC  xF8.6
055C6:  INCF   x8B,F
....................    SlaveB0Tx[31]=cilindroLimpio; 
055C8:  CLRF   x8C
055CA:  BTFSC  xF8.7
055CC:  INCF   x8C,F
....................    SlaveB0Tx[32]=suministroVapor; 
055CE:  CLRF   x8D
055D0:  BTFSC  xF8.1
055D2:  INCF   x8D,F
....................    SlaveB0Tx[33]=Paso; 
055D4:  CLRF   x8E
055D6:  BTFSC  xF8.2
055D8:  INCF   x8E,F
....................    SlaveB0Tx[34]=outVacio; 
055DA:  CLRF   x8F
055DC:  BTFSC  xF8.3
055DE:  INCF   x8F,F
....................    SlaveB0Tx[35]=Desfogue; 
055E0:  CLRF   x90
055E2:  BTFSC  xF8.4
055E4:  INCF   x90,F
....................    SlaveB0Tx[36]=Aire; 
055E6:  CLRF   x91
055E8:  BTFSC  xF8.5
055EA:  INCF   x91,F
....................    SlaveB0Tx[37]=Aux; 
055EC:  CLRF   x92
055EE:  BTFSC  xF9.0
055F0:  INCF   x92,F
....................     
....................    SlaveC0Tx[0]=(int8)Temperatura; 
055F2:  MOVFF  23E,6DF
055F6:  MOVFF  23D,6DE
055FA:  MOVFF  23C,6DD
055FE:  MOVFF  23B,6DC
05602:  RCALL  4E58
05604:  MOVFF  01,93
....................    SlaveC0Tx[1]=(Temperatura-((int8)Temperatura))*10; 
05608:  MOVFF  23E,6DF
0560C:  MOVFF  23D,6DE
05610:  MOVFF  23C,6DD
05614:  MOVFF  23B,6DC
05618:  RCALL  4E58
0561A:  MOVLB  6
0561C:  CLRF   xDD
0561E:  MOVFF  01,6DC
05622:  MOVLB  0
05624:  CALL   210C
05628:  BSF    FD8.1
0562A:  MOVFF  23E,6DF
0562E:  MOVFF  23D,6DE
05632:  MOVFF  23C,6DD
05636:  MOVFF  23B,6DC
0563A:  MOVFF  03,6E3
0563E:  MOVFF  02,6E2
05642:  MOVFF  01,6E1
05646:  MOVFF  00,6E0
0564A:  CALL   22C8
0564E:  MOVFF  00,6DC
05652:  MOVFF  01,6DD
05656:  MOVFF  02,6DE
0565A:  MOVFF  03,6DF
0565E:  MOVFF  03,6E3
05662:  MOVFF  02,6E2
05666:  MOVFF  01,6E1
0566A:  MOVFF  00,6E0
0566E:  MOVLB  6
05670:  CLRF   xE7
05672:  CLRF   xE6
05674:  MOVLW  20
05676:  MOVWF  xE5
05678:  MOVLW  82
0567A:  MOVWF  xE4
0567C:  MOVLB  0
0567E:  CALL   4284
05682:  MOVFF  03,6DF
05686:  MOVFF  02,6DE
0568A:  MOVFF  01,6DD
0568E:  MOVFF  00,6DC
05692:  CALL   4E58
05696:  MOVFF  01,94
....................    SlaveC0Tx[2]=make8((int16)PresionCamara,0); 
0569A:  MOVFF  291,95
0569E:  MOVLB  0
....................    SlaveC0Tx[3]=make8((int16)PresionCamara,1); 
056A0:  MOVFF  292,96
056A4:  MOVLB  0
....................    SlaveC0Tx[4]=make8((int16)PresionPreCamara,0); 
056A6:  MOVFF  293,97
056AA:  MOVLB  0
....................    SlaveC0Tx[5]=make8((int16)PresionPreCamara,1); 
056AC:  MOVFF  294,98
056B0:  MOVLB  0
....................    SlaveC0Tx[6]=(int8)Tpulso*10; 
056B2:  MOVFF  20E,6DF
056B6:  MOVFF  20D,6DE
056BA:  MOVFF  20C,6DD
056BE:  MOVFF  20B,6DC
056C2:  CALL   4E58
056C6:  MOVF   01,W
056C8:  MULLW  0A
056CA:  MOVFF  FF3,99
....................    //SlaveC0Tx[7]=HIG; 
....................    //SlaveC0Tx[8]=LOW; 
....................    //SlaveC0Tx[9]=TERM; 
....................    //SlaveC0Tx[10]=DOOR; 
....................    SlaveC0Tx[11]=STOP; 
056CE:  BSF    F93.0
056D0:  CLRF   x9E
056D2:  BTFSS  F81.0
056D4:  INCF   x9E,F
....................    SlaveC0Tx[12]=(int8)error; 
056D6:  MOVFF  212,6DF
056DA:  MOVFF  211,6DE
056DE:  MOVFF  210,6DD
056E2:  MOVFF  20F,6DC
056E6:  CALL   4E58
056EA:  MOVFF  01,9F
....................    SlaveC0Tx[13]=CicloSeleccionado; 
056EE:  MOVFF  276,A0
....................    SlaveC0Tx[14]=SetTime; 
056F2:  MOVFF  2C6,A1
....................    SlaveC0Tx[15]=Dia; 
056F6:  MOVFF  2B5,A2
....................    SlaveC0Tx[16]=Mes; 
056FA:  MOVFF  2B4,A3
....................    SlaveC0Tx[17]=Year; 
056FE:  MOVFF  2B3,A4
....................    SlaveC0Tx[18]=Hora; 
05702:  MOVFF  2B6,A5
....................    SlaveC0Tx[19]=Minuto; 
05706:  MOVFF  2B7,A6
....................    SlaveC0Tx[20]=Segundo; 
0570A:  MOVFF  2B8,A7
....................    SlaveC0Tx[21]=mEst; 
0570E:  MOVFF  122,A8
....................    SlaveC0Tx[22]=sEst; 
05712:  MOVFF  121,A9
....................    SlaveC0Tx[23]=mSec; 
05716:  MOVFF  124,AA
....................    SlaveC0Tx[24]=sSec; 
0571A:  MOVFF  123,AB
....................    SlaveC0Tx[25]=Menu; 
0571E:  MOVFF  270,AC
....................    SlaveC0Tx[26]=Setpoint; 
05722:  MOVFF  280,AD
....................    SlaveC0Tx[27]=codigoAlarma; 
05726:  MOVFF  2AC,AE
....................    SlaveC0Tx[28]=255; 
0572A:  MOVLW  FF
0572C:  MOVWF  xAF
....................    SlaveC0Tx[29]=128; 
0572E:  MOVLW  80
05730:  MOVWF  xB0
....................    SlaveC0Tx[30]=50; 
05732:  MOVLW  32
05734:  MOVWF  xB1
.................... } 
05736:  GOTO   579C (RETURN)
....................  
.................... void Lee_Vector(void){ 
....................    //Dia=txbuf[0];    
.................... } 
*
00004:  GOTO   59E0 (RETURN)
....................  
.................... void Envio_Esclavos(void){ 
....................    Carga_Vector(); 
*
0579A:  BRA    5462
....................    for(i=0;i<38;i++){ 
0579C:  MOVLB  2
0579E:  CLRF   x73
057A0:  MOVF   x73,W
057A2:  SUBLW  25
057A4:  BNC   582E
....................       direccion=0xB0; 
057A6:  MOVLW  B0
057A8:  MOVLB  0
057AA:  MOVWF  xDE
....................       i2c_start();            // Comienzo comunicacin 
057AC:  BSF    F94.4
057AE:  MOVLW  05
057B0:  MOVWF  00
057B2:  DECFSZ 00,F
057B4:  BRA    57B2
057B6:  BSF    F94.3
057B8:  MOVLW  06
057BA:  MOVWF  00
057BC:  DECFSZ 00,F
057BE:  BRA    57BC
057C0:  BCF    F8B.4
057C2:  BCF    F94.4
057C4:  MOVLW  05
057C6:  MOVWF  00
057C8:  DECFSZ 00,F
057CA:  BRA    57C8
057CC:  BCF    F8B.3
057CE:  BCF    F94.3
....................       i2c_write(direccion);   // Direccin del esclavo en el bus I2C 
057D0:  MOVFF  DE,6E0
057D4:  CALL   25D6
....................       i2c_write(i);   // Direccin del esclavo en el bus I2C 
057D8:  MOVFF  273,6E0
057DC:  CALL   25D6
....................       i2c_write(0);    // Posicin donde se guardara el dato transmitido 
057E0:  MOVLB  6
057E2:  CLRF   xE0
057E4:  MOVLB  0
057E6:  CALL   25D6
....................       i2c_write(SlaveB0Tx[i]); // Dato a transmitir 
057EA:  CLRF   03
057EC:  MOVLB  2
057EE:  MOVF   x73,W
057F0:  ADDLW  6D
057F2:  MOVWF  FE9
057F4:  MOVLW  00
057F6:  ADDWFC 03,W
057F8:  MOVWF  FEA
057FA:  MOVFF  FEF,6DC
057FE:  MOVFF  6DC,6E0
05802:  MOVLB  0
05804:  CALL   25D6
....................       i2c_stop();  
05808:  BCF    F94.4
0580A:  NOP   
0580C:  BSF    F94.3
0580E:  BTFSS  F82.3
05810:  BRA    580E
05812:  MOVLW  05
05814:  MOVWF  00
05816:  DECFSZ 00,F
05818:  BRA    5816
0581A:  BRA    581C
0581C:  NOP   
0581E:  BSF    F94.4
05820:  MOVLW  05
05822:  MOVWF  00
05824:  DECFSZ 00,F
05826:  BRA    5824
....................       //Envio_I2C(direccion,i,SlaveB0Tx[i]); 
....................    }  
05828:  MOVLB  2
0582A:  INCF   x73,F
0582C:  BRA    57A0
....................     
....................    for(i=0;i<31;i++){ 
0582E:  CLRF   x73
05830:  MOVF   x73,W
05832:  SUBLW  1E
05834:  BNC   5866
....................       direccion=0xC0; 
05836:  MOVLW  C0
05838:  MOVLB  0
0583A:  MOVWF  xDE
....................       Envio_I2C(direccion,i,SlaveC0Tx[i]); 
0583C:  CLRF   03
0583E:  MOVLB  2
05840:  MOVF   x73,W
05842:  ADDLW  93
05844:  MOVWF  FE9
05846:  MOVLW  00
05848:  ADDWFC 03,W
0584A:  MOVWF  FEA
0584C:  MOVFF  FEF,6DC
05850:  MOVFF  DE,6DD
05854:  MOVFF  273,6DE
05858:  MOVFF  6DC,6DF
0585C:  MOVLB  0
0585E:  BRA    573A
....................    } 
05860:  MOVLB  2
05862:  INCF   x73,F
05864:  BRA    5830
.................... } 
05866:  MOVLB  0
05868:  RETLW  00
.................... void Lectura_Esclavos(void){ 
....................    for(i=0;i<9;i++){ 
0586A:  MOVLB  2
0586C:  CLRF   x73
0586E:  MOVF   x73,W
05870:  SUBLW  08
05872:  BNC   5934
....................       direccion=0xB0;                        //Direccin en el bus I2c 
05874:  MOVLW  B0
05876:  MOVLB  0
05878:  MOVWF  xDE
....................       posicion=i;                         //Posicin de memoria a leer 
0587A:  MOVFF  273,DF
....................       Lectura_I2C(direccion, posicion, dato);    //Lectura por I2C 
0587E:  MOVFF  DE,6CA
05882:  MOVFF  DF,6CB
....................       txbuf[i]=(int8)dato; 
*
0591C:  CLRF   03
0591E:  MOVLB  2
05920:  MOVF   x73,W
05922:  ADDLW  48
05924:  MOVWF  FE9
05926:  MOVLW  00
05928:  ADDWFC 03,W
0592A:  MOVWF  FEA
0592C:  MOVFF  DD,FEF
....................    } 
05930:  INCF   x73,F
05932:  BRA    586E
....................    Lectura_I2C(0XC0, 0, dato);    //Lectura por I2C 
05934:  MOVLW  C0
05936:  MOVLB  6
05938:  MOVWF  xCA
0593A:  CLRF   xCB
....................    SlaveC0Rx[0]=(int8)dato; 
*
059D4:  MOVFF  DD,B8
....................    subirPuertaLimpio=SlaveC0Rx[0]; 
059D8:  MOVFF  B8,1FC
....................    Lee_Vector(); 
059DC:  GOTO   0004
.................... } 
059E0:  GOTO   7FC6 (RETURN)
....................  
.................... int8 extraeDecimal(float data){ 
*
07042:  MOVLB  6
07044:  CLRF   xD7
07046:  CLRF   xD6
07048:  CLRF   xD5
0704A:  CLRF   xD4
0704C:  CLRF   xDB
0704E:  CLRF   xDA
07050:  CLRF   xD9
07052:  CLRF   xD8
....................    float entero=0; 
....................    float tmp=0.0; 
....................     
....................    entero=(int8)data; 
07054:  MOVFF  6D3,6DF
07058:  MOVFF  6D2,6DE
0705C:  MOVFF  6D1,6DD
07060:  MOVFF  6D0,6DC
07064:  MOVLB  0
07066:  CALL   4E58
0706A:  MOVLB  6
0706C:  CLRF   xDD
0706E:  MOVFF  01,6DC
07072:  MOVLB  0
07074:  CALL   210C
07078:  MOVFF  03,6D7
0707C:  MOVFF  02,6D6
07080:  MOVFF  01,6D5
07084:  MOVFF  00,6D4
....................    tmp=(data-entero)*10; 
07088:  BSF    FD8.1
0708A:  MOVFF  6D3,6DF
0708E:  MOVFF  6D2,6DE
07092:  MOVFF  6D1,6DD
07096:  MOVFF  6D0,6DC
0709A:  MOVFF  6D7,6E3
0709E:  MOVFF  6D6,6E2
070A2:  MOVFF  6D5,6E1
070A6:  MOVFF  6D4,6E0
070AA:  CALL   22C8
070AE:  MOVFF  00,6DC
070B2:  MOVFF  01,6DD
070B6:  MOVFF  02,6DE
070BA:  MOVFF  03,6DF
070BE:  MOVFF  03,6E3
070C2:  MOVFF  02,6E2
070C6:  MOVFF  01,6E1
070CA:  MOVFF  00,6E0
070CE:  MOVLB  6
070D0:  CLRF   xE7
070D2:  CLRF   xE6
070D4:  MOVLW  20
070D6:  MOVWF  xE5
070D8:  MOVLW  82
070DA:  MOVWF  xE4
070DC:  MOVLB  0
070DE:  CALL   4284
070E2:  MOVFF  03,6DB
070E6:  MOVFF  02,6DA
070EA:  MOVFF  01,6D9
070EE:  MOVFF  00,6D8
....................    return (int8)tmp; 
070F2:  MOVFF  6DB,6DF
070F6:  MOVFF  6DA,6DE
070FA:  MOVFF  6D9,6DD
070FE:  MOVFF  6D8,6DC
07102:  CALL   4E58
07106:  MOVF   01,W
.................... } 
07108:  GOTO   721C (RETURN)
....................  
.................... float inttofloat(int8 decimal){ 
....................    float tmp; 
....................    tmp=decimal; 
*
0275E:  MOVLB  6
02760:  CLRF   xDD
02762:  MOVFF  6CE,6DC
02766:  MOVLB  0
02768:  RCALL  210C
0276A:  MOVFF  03,6D2
0276E:  MOVFF  02,6D1
02772:  MOVFF  01,6D0
02776:  MOVFF  00,6CF
....................    return tmp/10; 
0277A:  MOVFF  6D2,6D9
0277E:  MOVFF  6D1,6D8
02782:  MOVFF  6D0,6D7
02786:  MOVFF  6CF,6D6
0278A:  MOVLB  6
0278C:  CLRF   xDD
0278E:  CLRF   xDC
02790:  MOVLW  20
02792:  MOVWF  xDB
02794:  MOVLW  82
02796:  MOVWF  xDA
02798:  MOVLB  0
0279A:  RCALL  216A
.................... } 
0279C:  RETLW  00
....................  
.................... void LeeEEPROM(){ 
.................... //Lectura EEPROM//-------------------------- 
....................    Ganancia=read_eeprom(20); 
*
02818:  MOVFF  FF2,6CA
0281C:  BCF    FF2.6
0281E:  BCF    FF2.7
02820:  CLRF   FAA
02822:  MOVLW  14
02824:  MOVWF  FA9
02826:  BCF    FA6.6
02828:  BCF    FA6.7
0282A:  BSF    FA6.0
0282C:  MOVF   FA8,W
0282E:  MOVLB  6
02830:  BTFSC  xCA.6
02832:  BSF    FF2.6
02834:  BTFSC  xCA.7
02836:  BSF    FF2.7
02838:  CLRF   xDD
0283A:  MOVWF  xDC
0283C:  MOVLB  0
0283E:  RCALL  210C
02840:  MOVFF  03,222
02844:  MOVFF  02,221
02848:  MOVFF  01,220
0284C:  MOVFF  00,21F
....................    delay_ms(10); 
02850:  MOVLW  0A
02852:  MOVLB  6
02854:  MOVWF  xDC
02856:  MOVLB  0
02858:  RCALL  2142
....................    Sensor[0].Ajuste=read_eeprom(21); 
0285A:  MOVFF  FF2,6CA
0285E:  BCF    FF2.6
02860:  BCF    FF2.7
02862:  CLRF   FAA
02864:  MOVLW  15
02866:  MOVWF  FA9
02868:  BCF    FA6.6
0286A:  BCF    FA6.7
0286C:  BSF    FA6.0
0286E:  MOVF   FA8,W
02870:  MOVLB  6
02872:  BTFSC  xCA.6
02874:  BSF    FF2.6
02876:  BTFSC  xCA.7
02878:  BSF    FF2.7
0287A:  MOVLB  3
0287C:  MOVWF  x58
....................    delay_ms(10); 
0287E:  MOVLW  0A
02880:  MOVLB  6
02882:  MOVWF  xDC
02884:  MOVLB  0
02886:  RCALL  2142
....................    Sensor[0].Ajusten=read_eeprom(22); 
02888:  MOVFF  FF2,6CA
0288C:  BCF    FF2.6
0288E:  BCF    FF2.7
02890:  CLRF   FAA
02892:  MOVLW  16
02894:  MOVWF  FA9
02896:  BCF    FA6.6
02898:  BCF    FA6.7
0289A:  BSF    FA6.0
0289C:  MOVF   FA8,W
0289E:  MOVLB  6
028A0:  BTFSC  xCA.6
028A2:  BSF    FF2.6
028A4:  BTFSC  xCA.7
028A6:  BSF    FF2.7
028A8:  MOVLB  3
028AA:  MOVWF  x59
....................    delay_ms(10); 
028AC:  MOVLW  0A
028AE:  MOVLB  6
028B0:  MOVWF  xDC
028B2:  MOVLB  0
028B4:  RCALL  2142
....................    Sensor[1].Ajuste=read_eeprom(23); 
028B6:  MOVFF  FF2,6CA
028BA:  BCF    FF2.6
028BC:  BCF    FF2.7
028BE:  CLRF   FAA
028C0:  MOVLW  17
028C2:  MOVWF  FA9
028C4:  BCF    FA6.6
028C6:  BCF    FA6.7
028C8:  BSF    FA6.0
028CA:  MOVF   FA8,W
028CC:  MOVLB  6
028CE:  BTFSC  xCA.6
028D0:  BSF    FF2.6
028D2:  BTFSC  xCA.7
028D4:  BSF    FF2.7
028D6:  MOVLB  4
028D8:  MOVWF  xBC
....................    delay_ms(10); 
028DA:  MOVLW  0A
028DC:  MOVLB  6
028DE:  MOVWF  xDC
028E0:  MOVLB  0
028E2:  RCALL  2142
....................    Sensor[1].Ajusten=read_eeprom(24); 
028E4:  MOVFF  FF2,6CA
028E8:  BCF    FF2.6
028EA:  BCF    FF2.7
028EC:  CLRF   FAA
028EE:  MOVLW  18
028F0:  MOVWF  FA9
028F2:  BCF    FA6.6
028F4:  BCF    FA6.7
028F6:  BSF    FA6.0
028F8:  MOVF   FA8,W
028FA:  MOVLB  6
028FC:  BTFSC  xCA.6
028FE:  BSF    FF2.6
02900:  BTFSC  xCA.7
02902:  BSF    FF2.7
02904:  MOVLB  4
02906:  MOVWF  xBD
....................    delay_ms(10);    
02908:  MOVLW  0A
0290A:  MOVLB  6
0290C:  MOVWF  xDC
0290E:  MOVLB  0
02910:  RCALL  2142
....................    MediaMovil=read_eeprom(25); 
02912:  MOVFF  FF2,6CA
02916:  BCF    FF2.6
02918:  BCF    FF2.7
0291A:  CLRF   FAA
0291C:  MOVLW  19
0291E:  MOVWF  FA9
02920:  BCF    FA6.6
02922:  BCF    FA6.7
02924:  BSF    FA6.0
02926:  MOVF   FA8,W
02928:  MOVLB  6
0292A:  BTFSC  xCA.6
0292C:  BSF    FF2.6
0292E:  BTFSC  xCA.7
02930:  BSF    FF2.7
02932:  MOVLB  1
02934:  MOVWF  xF7
....................    delay_ms(10); 
02936:  MOVLW  0A
02938:  MOVLB  6
0293A:  MOVWF  xDC
0293C:  MOVLB  0
0293E:  RCALL  2142
....................    Tciclo=read_eeprom(26); 
02940:  MOVFF  FF2,6CA
02944:  BCF    FF2.6
02946:  BCF    FF2.7
02948:  CLRF   FAA
0294A:  MOVLW  1A
0294C:  MOVWF  FA9
0294E:  BCF    FA6.6
02950:  BCF    FA6.7
02952:  BSF    FA6.0
02954:  MOVF   FA8,W
02956:  MOVLB  6
02958:  BTFSC  xCA.6
0295A:  BSF    FF2.6
0295C:  BTFSC  xCA.7
0295E:  BSF    FF2.7
02960:  CLRF   xDD
02962:  MOVWF  xDC
02964:  MOVLB  0
02966:  CALL   210C
0296A:  MOVFF  03,20A
0296E:  MOVFF  02,209
02972:  MOVFF  01,208
02976:  MOVFF  00,207
....................    delay_ms(10); 
0297A:  MOVLW  0A
0297C:  MOVLB  6
0297E:  MOVWF  xDC
02980:  MOVLB  0
02982:  CALL   2142
....................    Temporal=read_eeprom(27); 
02986:  MOVFF  FF2,6CA
0298A:  BCF    FF2.6
0298C:  BCF    FF2.7
0298E:  CLRF   FAA
02990:  MOVLW  1B
02992:  MOVWF  FA9
02994:  BCF    FA6.6
02996:  BCF    FA6.7
02998:  BSF    FA6.0
0299A:  MOVF   FA8,W
0299C:  MOVLB  6
0299E:  BTFSC  xCA.6
029A0:  BSF    FF2.6
029A2:  BTFSC  xCA.7
029A4:  BSF    FF2.7
029A6:  CLRF   xDD
029A8:  MOVWF  xDC
029AA:  MOVLB  0
029AC:  CALL   210C
029B0:  MOVFF  03,1CC
029B4:  MOVFF  02,1CB
029B8:  MOVFF  01,1CA
029BC:  MOVFF  00,1C9
....................    Temporal=Temporal/10.0; 
029C0:  MOVFF  1CC,6D9
029C4:  MOVFF  1CB,6D8
029C8:  MOVFF  1CA,6D7
029CC:  MOVFF  1C9,6D6
029D0:  MOVLB  6
029D2:  CLRF   xDD
029D4:  CLRF   xDC
029D6:  MOVLW  20
029D8:  MOVWF  xDB
029DA:  MOVLW  82
029DC:  MOVWF  xDA
029DE:  MOVLB  0
029E0:  CALL   216A
029E4:  MOVFF  03,1CC
029E8:  MOVFF  02,1CB
029EC:  MOVFF  01,1CA
029F0:  MOVFF  00,1C9
....................    delay_ms(10); 
029F4:  MOVLW  0A
029F6:  MOVLB  6
029F8:  MOVWF  xDC
029FA:  MOVLB  0
029FC:  CALL   2142
....................    Sensor[0].RPT100=read_eeprom(28)+Temporal; 
02A00:  MOVFF  FF2,6CA
02A04:  BCF    FF2.6
02A06:  BCF    FF2.7
02A08:  CLRF   FAA
02A0A:  MOVLW  1C
02A0C:  MOVWF  FA9
02A0E:  BCF    FA6.6
02A10:  BCF    FA6.7
02A12:  BSF    FA6.0
02A14:  MOVF   FA8,W
02A16:  MOVLB  6
02A18:  BTFSC  xCA.6
02A1A:  BSF    FF2.6
02A1C:  BTFSC  xCA.7
02A1E:  BSF    FF2.7
02A20:  CLRF   xDD
02A22:  MOVWF  xDC
02A24:  MOVLB  0
02A26:  CALL   210C
02A2A:  BCF    FD8.1
02A2C:  MOVFF  03,6DF
02A30:  MOVFF  02,6DE
02A34:  MOVFF  01,6DD
02A38:  MOVFF  00,6DC
02A3C:  MOVFF  1CC,6E3
02A40:  MOVFF  1CB,6E2
02A44:  MOVFF  1CA,6E1
02A48:  MOVFF  1C9,6E0
02A4C:  RCALL  22C8
02A4E:  MOVFF  03,34D
02A52:  MOVFF  02,34C
02A56:  MOVFF  01,34B
02A5A:  MOVFF  00,34A
....................    delay_ms(10); 
02A5E:  MOVLW  0A
02A60:  MOVLB  6
02A62:  MOVWF  xDC
02A64:  MOVLB  0
02A66:  CALL   2142
....................    Temporal=read_eeprom(29); 
02A6A:  MOVFF  FF2,6CA
02A6E:  BCF    FF2.6
02A70:  BCF    FF2.7
02A72:  CLRF   FAA
02A74:  MOVLW  1D
02A76:  MOVWF  FA9
02A78:  BCF    FA6.6
02A7A:  BCF    FA6.7
02A7C:  BSF    FA6.0
02A7E:  MOVF   FA8,W
02A80:  MOVLB  6
02A82:  BTFSC  xCA.6
02A84:  BSF    FF2.6
02A86:  BTFSC  xCA.7
02A88:  BSF    FF2.7
02A8A:  CLRF   xDD
02A8C:  MOVWF  xDC
02A8E:  MOVLB  0
02A90:  CALL   210C
02A94:  MOVFF  03,1CC
02A98:  MOVFF  02,1CB
02A9C:  MOVFF  01,1CA
02AA0:  MOVFF  00,1C9
....................    Temporal=Temporal/10.0; 
02AA4:  MOVFF  1CC,6D9
02AA8:  MOVFF  1CB,6D8
02AAC:  MOVFF  1CA,6D7
02AB0:  MOVFF  1C9,6D6
02AB4:  MOVLB  6
02AB6:  CLRF   xDD
02AB8:  CLRF   xDC
02ABA:  MOVLW  20
02ABC:  MOVWF  xDB
02ABE:  MOVLW  82
02AC0:  MOVWF  xDA
02AC2:  MOVLB  0
02AC4:  CALL   216A
02AC8:  MOVFF  03,1CC
02ACC:  MOVFF  02,1CB
02AD0:  MOVFF  01,1CA
02AD4:  MOVFF  00,1C9
....................    delay_ms(10); 
02AD8:  MOVLW  0A
02ADA:  MOVLB  6
02ADC:  MOVWF  xDC
02ADE:  MOVLB  0
02AE0:  CALL   2142
....................    Sensor[1].RPT100=read_eeprom(30)+Temporal; 
02AE4:  MOVFF  FF2,6CA
02AE8:  BCF    FF2.6
02AEA:  BCF    FF2.7
02AEC:  CLRF   FAA
02AEE:  MOVLW  1E
02AF0:  MOVWF  FA9
02AF2:  BCF    FA6.6
02AF4:  BCF    FA6.7
02AF6:  BSF    FA6.0
02AF8:  MOVF   FA8,W
02AFA:  MOVLB  6
02AFC:  BTFSC  xCA.6
02AFE:  BSF    FF2.6
02B00:  BTFSC  xCA.7
02B02:  BSF    FF2.7
02B04:  CLRF   xDD
02B06:  MOVWF  xDC
02B08:  MOVLB  0
02B0A:  CALL   210C
02B0E:  BCF    FD8.1
02B10:  MOVFF  03,6DF
02B14:  MOVFF  02,6DE
02B18:  MOVFF  01,6DD
02B1C:  MOVFF  00,6DC
02B20:  MOVFF  1CC,6E3
02B24:  MOVFF  1CB,6E2
02B28:  MOVFF  1CA,6E1
02B2C:  MOVFF  1C9,6E0
02B30:  CALL   22C8
02B34:  MOVFF  03,4B1
02B38:  MOVFF  02,4B0
02B3C:  MOVFF  01,4AF
02B40:  MOVFF  00,4AE
....................    delay_ms(10); 
02B44:  MOVLW  0A
02B46:  MOVLB  6
02B48:  MOVWF  xDC
02B4A:  MOVLB  0
02B4C:  CALL   2142
....................    Atmosferica=read_eeprom(31); 
02B50:  MOVFF  FF2,6CA
02B54:  BCF    FF2.6
02B56:  BCF    FF2.7
02B58:  CLRF   FAA
02B5A:  MOVLW  1F
02B5C:  MOVWF  FA9
02B5E:  BCF    FA6.6
02B60:  BCF    FA6.7
02B62:  BSF    FA6.0
02B64:  MOVF   FA8,W
02B66:  MOVLB  6
02B68:  BTFSC  xCA.6
02B6A:  BSF    FF2.6
02B6C:  BTFSC  xCA.7
02B6E:  BSF    FF2.7
02B70:  MOVLB  2
02B72:  MOVWF  xBD
....................    delay_ms(10); 
02B74:  MOVLW  0A
02B76:  MOVLB  6
02B78:  MOVWF  xDC
02B7A:  MOVLB  0
02B7C:  CALL   2142
....................    Tapertura=read_eeprom(32); 
02B80:  MOVFF  FF2,6CA
02B84:  BCF    FF2.6
02B86:  BCF    FF2.7
02B88:  CLRF   FAA
02B8A:  MOVLW  20
02B8C:  MOVWF  FA9
02B8E:  BCF    FA6.6
02B90:  BCF    FA6.7
02B92:  BSF    FA6.0
02B94:  MOVF   FA8,W
02B96:  MOVLB  6
02B98:  BTFSC  xCA.6
02B9A:  BSF    FF2.6
02B9C:  BTFSC  xCA.7
02B9E:  BSF    FF2.7
02BA0:  MOVLB  2
02BA2:  MOVWF  x77
....................    delay_ms(10); 
02BA4:  MOVLW  0A
02BA6:  MOVLB  6
02BA8:  MOVWF  xDC
02BAA:  MOVLB  0
02BAC:  CALL   2142
....................    CiclosL=read_eeprom(37); 
02BB0:  MOVFF  FF2,6CA
02BB4:  BCF    FF2.6
02BB6:  BCF    FF2.7
02BB8:  CLRF   FAA
02BBA:  MOVLW  25
02BBC:  MOVWF  FA9
02BBE:  BCF    FA6.6
02BC0:  BCF    FA6.7
02BC2:  BSF    FA6.0
02BC4:  MOVF   FA8,W
02BC6:  MOVLB  6
02BC8:  BTFSC  xCA.6
02BCA:  BSF    FF2.6
02BCC:  BTFSC  xCA.7
02BCE:  BSF    FF2.7
02BD0:  MOVLB  2
02BD2:  MOVWF  x74
....................    delay_ms(10); 
02BD4:  MOVLW  0A
02BD6:  MOVLB  6
02BD8:  MOVWF  xDC
02BDA:  MOVLB  0
02BDC:  CALL   2142
....................    CiclosH=read_eeprom(38); 
02BE0:  MOVFF  FF2,6CA
02BE4:  BCF    FF2.6
02BE6:  BCF    FF2.7
02BE8:  CLRF   FAA
02BEA:  MOVLW  26
02BEC:  MOVWF  FA9
02BEE:  BCF    FA6.6
02BF0:  BCF    FA6.7
02BF2:  BSF    FA6.0
02BF4:  MOVF   FA8,W
02BF6:  MOVLB  6
02BF8:  BTFSC  xCA.6
02BFA:  BSF    FF2.6
02BFC:  BTFSC  xCA.7
02BFE:  BSF    FF2.7
02C00:  MOVLB  2
02C02:  MOVWF  x75
....................    delay_ms(10); 
02C04:  MOVLW  0A
02C06:  MOVLB  6
02C08:  MOVWF  xDC
02C0A:  MOVLB  0
02C0C:  CALL   2142
....................    Ciclos=make16(CiclosH,CiclosL); 
02C10:  MOVFF  275,296
02C14:  MOVFF  274,295
....................    delay_ms(10); 
02C18:  MOVLW  0A
02C1A:  MOVLB  6
02C1C:  MOVWF  xDC
02C1E:  MOVLB  0
02C20:  CALL   2142
....................    G1=read_eeprom(42); 
02C24:  MOVFF  FF2,6CA
02C28:  BCF    FF2.6
02C2A:  BCF    FF2.7
02C2C:  CLRF   FAA
02C2E:  MOVLW  2A
02C30:  MOVWF  FA9
02C32:  BCF    FA6.6
02C34:  BCF    FA6.7
02C36:  BSF    FA6.0
02C38:  MOVF   FA8,W
02C3A:  MOVLB  6
02C3C:  BTFSC  xCA.6
02C3E:  BSF    FF2.6
02C40:  BTFSC  xCA.7
02C42:  BSF    FF2.7
02C44:  MOVLB  2
02C46:  MOVWF  xCC
....................    delay_ms(10); 
02C48:  MOVLW  0A
02C4A:  MOVLB  6
02C4C:  MOVWF  xDC
02C4E:  MOVLB  0
02C50:  CALL   2142
....................    G2=read_eeprom(43); 
02C54:  MOVFF  FF2,6CA
02C58:  BCF    FF2.6
02C5A:  BCF    FF2.7
02C5C:  CLRF   FAA
02C5E:  MOVLW  2B
02C60:  MOVWF  FA9
02C62:  BCF    FA6.6
02C64:  BCF    FA6.7
02C66:  BSF    FA6.0
02C68:  MOVF   FA8,W
02C6A:  MOVLB  6
02C6C:  BTFSC  xCA.6
02C6E:  BSF    FF2.6
02C70:  BTFSC  xCA.7
02C72:  BSF    FF2.7
02C74:  MOVLB  2
02C76:  MOVWF  xCD
....................    delay_ms(10); 
02C78:  MOVLW  0A
02C7A:  MOVLB  6
02C7C:  MOVWF  xDC
02C7E:  MOVLB  0
02C80:  CALL   2142
....................    sg1=read_eeprom(44); 
02C84:  MOVFF  FF2,6CA
02C88:  BCF    FF2.6
02C8A:  BCF    FF2.7
02C8C:  CLRF   FAA
02C8E:  MOVLW  2C
02C90:  MOVWF  FA9
02C92:  BCF    FA6.6
02C94:  BCF    FA6.7
02C96:  BSF    FA6.0
02C98:  MOVF   FA8,W
02C9A:  MOVLB  6
02C9C:  BTFSC  xCA.6
02C9E:  BSF    FF2.6
02CA0:  BTFSC  xCA.7
02CA2:  BSF    FF2.7
02CA4:  MOVLB  2
02CA6:  MOVWF  xCE
....................    delay_ms(10); 
02CA8:  MOVLW  0A
02CAA:  MOVLB  6
02CAC:  MOVWF  xDC
02CAE:  MOVLB  0
02CB0:  CALL   2142
....................    sg2=read_eeprom(45); 
02CB4:  MOVFF  FF2,6CA
02CB8:  BCF    FF2.6
02CBA:  BCF    FF2.7
02CBC:  CLRF   FAA
02CBE:  MOVLW  2D
02CC0:  MOVWF  FA9
02CC2:  BCF    FA6.6
02CC4:  BCF    FA6.7
02CC6:  BSF    FA6.0
02CC8:  MOVF   FA8,W
02CCA:  MOVLB  6
02CCC:  BTFSC  xCA.6
02CCE:  BSF    FF2.6
02CD0:  BTFSC  xCA.7
02CD2:  BSF    FF2.7
02CD4:  MOVLB  2
02CD6:  MOVWF  xCF
....................    delay_ms(10); 
02CD8:  MOVLW  0A
02CDA:  MOVLB  6
02CDC:  MOVWF  xDC
02CDE:  MOVLB  0
02CE0:  CALL   2142
....................    cerroSucioInt=read_eeprom(46); 
02CE4:  MOVFF  FF2,6CA
02CE8:  BCF    FF2.6
02CEA:  BCF    FF2.7
02CEC:  CLRF   FAA
02CEE:  MOVLW  2E
02CF0:  MOVWF  FA9
02CF2:  BCF    FA6.6
02CF4:  BCF    FA6.7
02CF6:  BSF    FA6.0
02CF8:  MOVF   FA8,W
02CFA:  MOVLB  6
02CFC:  BTFSC  xCA.6
02CFE:  BSF    FF2.6
02D00:  BTFSC  xCA.7
02D02:  BSF    FF2.7
02D04:  MOVLB  1
02D06:  MOVWF  xFD
....................    delay_ms(10); 
02D08:  MOVLW  0A
02D0A:  MOVLB  6
02D0C:  MOVWF  xDC
02D0E:  MOVLB  0
02D10:  CALL   2142
....................    cerroLimpioInt=read_eeprom(47); 
02D14:  MOVFF  FF2,6CA
02D18:  BCF    FF2.6
02D1A:  BCF    FF2.7
02D1C:  CLRF   FAA
02D1E:  MOVLW  2F
02D20:  MOVWF  FA9
02D22:  BCF    FA6.6
02D24:  BCF    FA6.7
02D26:  BSF    FA6.0
02D28:  MOVF   FA8,W
02D2A:  MOVLB  6
02D2C:  BTFSC  xCA.6
02D2E:  BSF    FF2.6
02D30:  BTFSC  xCA.7
02D32:  BSF    FF2.7
02D34:  MOVLB  1
02D36:  MOVWF  xFE
....................    delay_ms(10); 
02D38:  MOVLW  0A
02D3A:  MOVLB  6
02D3C:  MOVWF  xDC
02D3E:  MOVLB  0
02D40:  CALL   2142
....................     
....................    for(i=0;i<30;i++){ 
02D44:  MOVLB  2
02D46:  CLRF   x73
02D48:  MOVF   x73,W
02D4A:  SUBLW  1D
02D4C:  BNC   2DC6
....................       estados[i]=read_eeprom(i+50); 
02D4E:  MOVLW  32
02D50:  ADDWF  x73,W
02D52:  MOVLB  6
02D54:  MOVWF  xCA
02D56:  MOVFF  FF2,6CB
02D5A:  BCF    FF2.6
02D5C:  BCF    FF2.7
02D5E:  CLRF   FAA
02D60:  MOVFF  6CA,FA9
02D64:  BCF    FA6.6
02D66:  BCF    FA6.7
02D68:  BSF    FA6.0
02D6A:  MOVF   FA8,W
02D6C:  BTFSC  xCB.6
02D6E:  BSF    FF2.6
02D70:  BTFSC  xCB.7
02D72:  BSF    FF2.7
02D74:  MOVFF  273,6CC
02D78:  MOVWF  xCD
02D7A:  MOVLW  03
02D7C:  MOVWF  xCF
02D7E:  MOVLW  36
02D80:  MOVWF  xCE
02D82:  MOVLB  0
02D84:  CALL   2540
....................       if(estados[i]>1) 
02D88:  MOVFF  273,6CB
02D8C:  MOVLW  03
02D8E:  MOVLB  6
02D90:  MOVWF  xCD
02D92:  MOVLW  36
02D94:  MOVWF  xCC
02D96:  MOVLB  0
02D98:  CALL   2582
02D9C:  MOVLW  00
02D9E:  BTFSC  01.0
02DA0:  MOVLW  01
02DA2:  ANDLW  01
02DA4:  SUBLW  01
02DA6:  BC    2DC0
....................          estados[i]=1; 
02DA8:  MOVFF  273,6CC
02DAC:  MOVLW  01
02DAE:  MOVLB  6
02DB0:  MOVWF  xCD
02DB2:  MOVLW  03
02DB4:  MOVWF  xCF
02DB6:  MOVLW  36
02DB8:  MOVWF  xCE
02DBA:  MOVLB  0
02DBC:  CALL   2540
....................    } 
02DC0:  MOVLB  2
02DC2:  INCF   x73,F
02DC4:  BRA    2D48
....................     
....................    for(i=0;i<20;i++){//Lee valores almacenados de ciclos personalizados 
02DC6:  CLRF   x73
02DC8:  MOVF   x73,W
02DCA:  SUBLW  13
02DCC:  BTFSS  FD8.0
02DCE:  BRA    339C
....................       CiclosPersonalizados[i].Temperatura=read_eeprom(100+(i*8));  
02DD0:  MOVF   x73,W
02DD2:  MULLW  08
02DD4:  MOVF   FF3,W
02DD6:  MOVLB  6
02DD8:  CLRF   xCB
02DDA:  MOVWF  xCA
02DDC:  MOVLW  02
02DDE:  ADDWF  xCA,W
02DE0:  MOVWF  FE9
02DE2:  MOVLW  06
02DE4:  ADDWFC xCB,W
02DE6:  MOVWF  FEA
02DE8:  MOVLB  2
02DEA:  MOVF   x73,W
02DEC:  MULLW  08
02DEE:  MOVF   FF3,W
02DF0:  ADDLW  64
02DF2:  MOVLB  6
02DF4:  MOVWF  xCC
02DF6:  MOVFF  FF2,6CD
02DFA:  BCF    FF2.6
02DFC:  BCF    FF2.7
02DFE:  CLRF   FAA
02E00:  MOVFF  6CC,FA9
02E04:  BCF    FA6.6
02E06:  BCF    FA6.7
02E08:  BSF    FA6.0
02E0A:  MOVF   FA8,W
02E0C:  BTFSC  xCD.6
02E0E:  BSF    FF2.6
02E10:  BTFSC  xCD.7
02E12:  BSF    FF2.7
02E14:  MOVWF  FEF
....................       CiclosPersonalizados[i].Minutoest=read_eeprom(101+(i*8));  
02E16:  MOVLB  2
02E18:  MOVF   x73,W
02E1A:  MULLW  08
02E1C:  MOVF   FF3,W
02E1E:  MOVLB  6
02E20:  CLRF   xCB
02E22:  MOVWF  xCA
02E24:  MOVLW  01
02E26:  ADDWF  xCA,W
02E28:  MOVWF  01
02E2A:  MOVLW  00
02E2C:  ADDWFC xCB,W
02E2E:  MOVWF  03
02E30:  MOVF   01,W
02E32:  ADDLW  02
02E34:  MOVWF  FE9
02E36:  MOVLW  06
02E38:  ADDWFC 03,W
02E3A:  MOVWF  FEA
02E3C:  MOVLB  2
02E3E:  MOVF   x73,W
02E40:  MULLW  08
02E42:  MOVF   FF3,W
02E44:  ADDLW  65
02E46:  MOVLB  6
02E48:  MOVWF  xCC
02E4A:  MOVFF  FF2,6CD
02E4E:  BCF    FF2.6
02E50:  BCF    FF2.7
02E52:  CLRF   FAA
02E54:  MOVFF  6CC,FA9
02E58:  BCF    FA6.6
02E5A:  BCF    FA6.7
02E5C:  BSF    FA6.0
02E5E:  MOVF   FA8,W
02E60:  BTFSC  xCD.6
02E62:  BSF    FF2.6
02E64:  BTFSC  xCD.7
02E66:  BSF    FF2.7
02E68:  MOVWF  FEF
....................       CiclosPersonalizados[i].Segundoest=read_eeprom(102+(i*8));  
02E6A:  MOVLB  2
02E6C:  MOVF   x73,W
02E6E:  MULLW  08
02E70:  MOVF   FF3,W
02E72:  MOVLB  6
02E74:  CLRF   xCB
02E76:  MOVWF  xCA
02E78:  MOVLW  02
02E7A:  ADDWF  xCA,W
02E7C:  MOVWF  01
02E7E:  MOVLW  00
02E80:  ADDWFC xCB,W
02E82:  MOVWF  03
02E84:  MOVF   01,W
02E86:  ADDLW  02
02E88:  MOVWF  FE9
02E8A:  MOVLW  06
02E8C:  ADDWFC 03,W
02E8E:  MOVWF  FEA
02E90:  MOVLB  2
02E92:  MOVF   x73,W
02E94:  MULLW  08
02E96:  MOVF   FF3,W
02E98:  ADDLW  66
02E9A:  MOVLB  6
02E9C:  MOVWF  xCC
02E9E:  MOVFF  FF2,6CD
02EA2:  BCF    FF2.6
02EA4:  BCF    FF2.7
02EA6:  CLRF   FAA
02EA8:  MOVFF  6CC,FA9
02EAC:  BCF    FA6.6
02EAE:  BCF    FA6.7
02EB0:  BSF    FA6.0
02EB2:  MOVF   FA8,W
02EB4:  BTFSC  xCD.6
02EB6:  BSF    FF2.6
02EB8:  BTFSC  xCD.7
02EBA:  BSF    FF2.7
02EBC:  MOVWF  FEF
....................       CiclosPersonalizados[i].Minutosec=read_eeprom(103+(i*8));  
02EBE:  MOVLB  2
02EC0:  MOVF   x73,W
02EC2:  MULLW  08
02EC4:  MOVF   FF3,W
02EC6:  MOVLB  6
02EC8:  CLRF   xCB
02ECA:  MOVWF  xCA
02ECC:  MOVLW  03
02ECE:  ADDWF  xCA,W
02ED0:  MOVWF  01
02ED2:  MOVLW  00
02ED4:  ADDWFC xCB,W
02ED6:  MOVWF  03
02ED8:  MOVF   01,W
02EDA:  ADDLW  02
02EDC:  MOVWF  FE9
02EDE:  MOVLW  06
02EE0:  ADDWFC 03,W
02EE2:  MOVWF  FEA
02EE4:  MOVLB  2
02EE6:  MOVF   x73,W
02EE8:  MULLW  08
02EEA:  MOVF   FF3,W
02EEC:  ADDLW  67
02EEE:  MOVLB  6
02EF0:  MOVWF  xCC
02EF2:  MOVFF  FF2,6CD
02EF6:  BCF    FF2.6
02EF8:  BCF    FF2.7
02EFA:  CLRF   FAA
02EFC:  MOVFF  6CC,FA9
02F00:  BCF    FA6.6
02F02:  BCF    FA6.7
02F04:  BSF    FA6.0
02F06:  MOVF   FA8,W
02F08:  BTFSC  xCD.6
02F0A:  BSF    FF2.6
02F0C:  BTFSC  xCD.7
02F0E:  BSF    FF2.7
02F10:  MOVWF  FEF
....................       CiclosPersonalizados[i].Segundosec=read_eeprom(104+(i*8));  
02F12:  MOVLB  2
02F14:  MOVF   x73,W
02F16:  MULLW  08
02F18:  MOVF   FF3,W
02F1A:  MOVLB  6
02F1C:  CLRF   xCB
02F1E:  MOVWF  xCA
02F20:  MOVLW  04
02F22:  ADDWF  xCA,W
02F24:  MOVWF  01
02F26:  MOVLW  00
02F28:  ADDWFC xCB,W
02F2A:  MOVWF  03
02F2C:  MOVF   01,W
02F2E:  ADDLW  02
02F30:  MOVWF  FE9
02F32:  MOVLW  06
02F34:  ADDWFC 03,W
02F36:  MOVWF  FEA
02F38:  MOVLB  2
02F3A:  MOVF   x73,W
02F3C:  MULLW  08
02F3E:  MOVF   FF3,W
02F40:  ADDLW  68
02F42:  MOVLB  6
02F44:  MOVWF  xCC
02F46:  MOVFF  FF2,6CD
02F4A:  BCF    FF2.6
02F4C:  BCF    FF2.7
02F4E:  CLRF   FAA
02F50:  MOVFF  6CC,FA9
02F54:  BCF    FA6.6
02F56:  BCF    FA6.7
02F58:  BSF    FA6.0
02F5A:  MOVF   FA8,W
02F5C:  BTFSC  xCD.6
02F5E:  BSF    FF2.6
02F60:  BTFSC  xCD.7
02F62:  BSF    FF2.7
02F64:  MOVWF  FEF
....................       CiclosPersonalizados[i].PulsosVacio=read_eeprom(105+(i*8));  
02F66:  MOVLB  2
02F68:  MOVF   x73,W
02F6A:  MULLW  08
02F6C:  MOVF   FF3,W
02F6E:  MOVLB  6
02F70:  CLRF   xCB
02F72:  MOVWF  xCA
02F74:  MOVLW  05
02F76:  ADDWF  xCA,W
02F78:  MOVWF  01
02F7A:  MOVLW  00
02F7C:  ADDWFC xCB,W
02F7E:  MOVWF  03
02F80:  MOVF   01,W
02F82:  ADDLW  02
02F84:  MOVWF  FE9
02F86:  MOVLW  06
02F88:  ADDWFC 03,W
02F8A:  MOVWF  FEA
02F8C:  MOVLB  2
02F8E:  MOVF   x73,W
02F90:  MULLW  08
02F92:  MOVF   FF3,W
02F94:  ADDLW  69
02F96:  MOVLB  6
02F98:  MOVWF  xCC
02F9A:  MOVFF  FF2,6CD
02F9E:  BCF    FF2.6
02FA0:  BCF    FF2.7
02FA2:  CLRF   FAA
02FA4:  MOVFF  6CC,FA9
02FA8:  BCF    FA6.6
02FAA:  BCF    FA6.7
02FAC:  BSF    FA6.0
02FAE:  MOVF   FA8,W
02FB0:  BTFSC  xCD.6
02FB2:  BSF    FF2.6
02FB4:  BTFSC  xCD.7
02FB6:  BSF    FF2.7
02FB8:  MOVWF  FEF
....................       CiclosPersonalizados[i].NivelVacio=read_eeprom(106+(i*8));  
02FBA:  MOVLB  2
02FBC:  MOVF   x73,W
02FBE:  MULLW  08
02FC0:  MOVF   FF3,W
02FC2:  MOVLB  6
02FC4:  CLRF   xCB
02FC6:  MOVWF  xCA
02FC8:  MOVLW  06
02FCA:  ADDWF  xCA,W
02FCC:  MOVWF  01
02FCE:  MOVLW  00
02FD0:  ADDWFC xCB,W
02FD2:  MOVWF  03
02FD4:  MOVF   01,W
02FD6:  ADDLW  02
02FD8:  MOVWF  FE9
02FDA:  MOVLW  06
02FDC:  ADDWFC 03,W
02FDE:  MOVWF  FEA
02FE0:  MOVLB  2
02FE2:  MOVF   x73,W
02FE4:  MULLW  08
02FE6:  MOVF   FF3,W
02FE8:  ADDLW  6A
02FEA:  MOVLB  6
02FEC:  MOVWF  xCC
02FEE:  MOVFF  FF2,6CD
02FF2:  BCF    FF2.6
02FF4:  BCF    FF2.7
02FF6:  CLRF   FAA
02FF8:  MOVFF  6CC,FA9
02FFC:  BCF    FA6.6
02FFE:  BCF    FA6.7
03000:  BSF    FA6.0
03002:  MOVF   FA8,W
03004:  BTFSC  xCD.6
03006:  BSF    FF2.6
03008:  BTFSC  xCD.7
0300A:  BSF    FF2.7
0300C:  MOVWF  FEF
....................       CiclosPersonalizados[i].NivelDesfogue=read_eeprom(107+(i*8));  
0300E:  MOVLB  2
03010:  MOVF   x73,W
03012:  MULLW  08
03014:  MOVF   FF3,W
03016:  MOVLB  6
03018:  CLRF   xCB
0301A:  MOVWF  xCA
0301C:  MOVLW  07
0301E:  ADDWF  xCA,W
03020:  MOVWF  01
03022:  MOVLW  00
03024:  ADDWFC xCB,W
03026:  MOVWF  03
03028:  MOVF   01,W
0302A:  ADDLW  02
0302C:  MOVWF  FE9
0302E:  MOVLW  06
03030:  ADDWFC 03,W
03032:  MOVWF  FEA
03034:  MOVLB  2
03036:  MOVF   x73,W
03038:  MULLW  08
0303A:  MOVF   FF3,W
0303C:  ADDLW  6B
0303E:  MOVLB  6
03040:  MOVWF  xCC
03042:  MOVFF  FF2,6CD
03046:  BCF    FF2.6
03048:  BCF    FF2.7
0304A:  CLRF   FAA
0304C:  MOVFF  6CC,FA9
03050:  BCF    FA6.6
03052:  BCF    FA6.7
03054:  BSF    FA6.0
03056:  MOVF   FA8,W
03058:  BTFSC  xCD.6
0305A:  BSF    FF2.6
0305C:  BTFSC  xCD.7
0305E:  BSF    FF2.7
03060:  MOVWF  FEF
....................        
....................       if(CiclosPersonalizados[i].Temperatura>138 || CiclosPersonalizados[i].Temperatura<110) 
03062:  MOVLB  2
03064:  MOVF   x73,W
03066:  MULLW  08
03068:  MOVF   FF3,W
0306A:  MOVLB  6
0306C:  CLRF   xCB
0306E:  MOVWF  xCA
03070:  MOVLW  02
03072:  ADDWF  xCA,W
03074:  MOVWF  FE9
03076:  MOVLW  06
03078:  ADDWFC xCB,W
0307A:  MOVWF  FEA
0307C:  MOVF   FEF,W
0307E:  SUBLW  8A
03080:  BNC   30A2
03082:  MOVLB  2
03084:  MOVF   x73,W
03086:  MULLW  08
03088:  MOVF   FF3,W
0308A:  MOVLB  6
0308C:  CLRF   xCB
0308E:  MOVWF  xCA
03090:  MOVLW  02
03092:  ADDWF  xCA,W
03094:  MOVWF  FE9
03096:  MOVLW  06
03098:  ADDWFC xCB,W
0309A:  MOVWF  FEA
0309C:  MOVF   FEF,W
0309E:  SUBLW  6D
030A0:  BNC   30C0
....................          CiclosPersonalizados[i].Temperatura=121; 
030A2:  MOVLB  2
030A4:  MOVF   x73,W
030A6:  MULLW  08
030A8:  MOVF   FF3,W
030AA:  MOVLB  6
030AC:  CLRF   xCB
030AE:  MOVWF  xCA
030B0:  MOVLW  02
030B2:  ADDWF  xCA,W
030B4:  MOVWF  FE9
030B6:  MOVLW  06
030B8:  ADDWFC xCB,W
030BA:  MOVWF  FEA
030BC:  MOVLW  79
030BE:  MOVWF  FEF
....................       if(CiclosPersonalizados[i].Minutoest>99 || CiclosPersonalizados[i].Minutoest<1) 
030C0:  MOVLB  2
030C2:  MOVF   x73,W
030C4:  MULLW  08
030C6:  MOVF   FF3,W
030C8:  MOVLB  6
030CA:  CLRF   xCB
030CC:  MOVWF  xCA
030CE:  MOVLW  01
030D0:  ADDWF  xCA,W
030D2:  MOVWF  01
030D4:  MOVLW  00
030D6:  ADDWFC xCB,W
030D8:  MOVWF  03
030DA:  MOVF   01,W
030DC:  ADDLW  02
030DE:  MOVWF  FE9
030E0:  MOVLW  06
030E2:  ADDWFC 03,W
030E4:  MOVWF  FEA
030E6:  MOVF   FEF,W
030E8:  SUBLW  63
030EA:  BNC   3116
030EC:  MOVLB  2
030EE:  MOVF   x73,W
030F0:  MULLW  08
030F2:  MOVF   FF3,W
030F4:  MOVLB  6
030F6:  CLRF   xCB
030F8:  MOVWF  xCA
030FA:  MOVLW  01
030FC:  ADDWF  xCA,W
030FE:  MOVWF  01
03100:  MOVLW  00
03102:  ADDWFC xCB,W
03104:  MOVWF  03
03106:  MOVF   01,W
03108:  ADDLW  02
0310A:  MOVWF  FE9
0310C:  MOVLW  06
0310E:  ADDWFC 03,W
03110:  MOVWF  FEA
03112:  MOVF   FEF,F
03114:  BNZ   3140
....................          CiclosPersonalizados[i].Minutoest=3; 
03116:  MOVLB  2
03118:  MOVF   x73,W
0311A:  MULLW  08
0311C:  MOVF   FF3,W
0311E:  MOVLB  6
03120:  CLRF   xCB
03122:  MOVWF  xCA
03124:  MOVLW  01
03126:  ADDWF  xCA,W
03128:  MOVWF  01
0312A:  MOVLW  00
0312C:  ADDWFC xCB,W
0312E:  MOVWF  03
03130:  MOVF   01,W
03132:  ADDLW  02
03134:  MOVWF  FE9
03136:  MOVLW  06
03138:  ADDWFC 03,W
0313A:  MOVWF  FEA
0313C:  MOVLW  03
0313E:  MOVWF  FEF
....................       if(CiclosPersonalizados[i].Minutosec>99 || CiclosPersonalizados[i].Minutosec<1) 
03140:  MOVLB  2
03142:  MOVF   x73,W
03144:  MULLW  08
03146:  MOVF   FF3,W
03148:  MOVLB  6
0314A:  CLRF   xCB
0314C:  MOVWF  xCA
0314E:  MOVLW  03
03150:  ADDWF  xCA,W
03152:  MOVWF  01
03154:  MOVLW  00
03156:  ADDWFC xCB,W
03158:  MOVWF  03
0315A:  MOVF   01,W
0315C:  ADDLW  02
0315E:  MOVWF  FE9
03160:  MOVLW  06
03162:  ADDWFC 03,W
03164:  MOVWF  FEA
03166:  MOVF   FEF,W
03168:  SUBLW  63
0316A:  BNC   3196
0316C:  MOVLB  2
0316E:  MOVF   x73,W
03170:  MULLW  08
03172:  MOVF   FF3,W
03174:  MOVLB  6
03176:  CLRF   xCB
03178:  MOVWF  xCA
0317A:  MOVLW  03
0317C:  ADDWF  xCA,W
0317E:  MOVWF  01
03180:  MOVLW  00
03182:  ADDWFC xCB,W
03184:  MOVWF  03
03186:  MOVF   01,W
03188:  ADDLW  02
0318A:  MOVWF  FE9
0318C:  MOVLW  06
0318E:  ADDWFC 03,W
03190:  MOVWF  FEA
03192:  MOVF   FEF,F
03194:  BNZ   31C0
....................          CiclosPersonalizados[i].Minutosec=1;    
03196:  MOVLB  2
03198:  MOVF   x73,W
0319A:  MULLW  08
0319C:  MOVF   FF3,W
0319E:  MOVLB  6
031A0:  CLRF   xCB
031A2:  MOVWF  xCA
031A4:  MOVLW  03
031A6:  ADDWF  xCA,W
031A8:  MOVWF  01
031AA:  MOVLW  00
031AC:  ADDWFC xCB,W
031AE:  MOVWF  03
031B0:  MOVF   01,W
031B2:  ADDLW  02
031B4:  MOVWF  FE9
031B6:  MOVLW  06
031B8:  ADDWFC 03,W
031BA:  MOVWF  FEA
031BC:  MOVLW  01
031BE:  MOVWF  FEF
....................       if(CiclosPersonalizados[i].Segundoest>59) 
031C0:  MOVLB  2
031C2:  MOVF   x73,W
031C4:  MULLW  08
031C6:  MOVF   FF3,W
031C8:  MOVLB  6
031CA:  CLRF   xCB
031CC:  MOVWF  xCA
031CE:  MOVLW  02
031D0:  ADDWF  xCA,W
031D2:  MOVWF  01
031D4:  MOVLW  00
031D6:  ADDWFC xCB,W
031D8:  MOVWF  03
031DA:  MOVF   01,W
031DC:  ADDLW  02
031DE:  MOVWF  FE9
031E0:  MOVLW  06
031E2:  ADDWFC 03,W
031E4:  MOVWF  FEA
031E6:  MOVF   FEF,W
031E8:  SUBLW  3B
031EA:  BC    3214
....................          CiclosPersonalizados[i].Segundoest=0; 
031EC:  MOVLB  2
031EE:  MOVF   x73,W
031F0:  MULLW  08
031F2:  MOVF   FF3,W
031F4:  MOVLB  6
031F6:  CLRF   xCB
031F8:  MOVWF  xCA
031FA:  MOVLW  02
031FC:  ADDWF  xCA,W
031FE:  MOVWF  01
03200:  MOVLW  00
03202:  ADDWFC xCB,W
03204:  MOVWF  03
03206:  MOVF   01,W
03208:  ADDLW  02
0320A:  MOVWF  FE9
0320C:  MOVLW  06
0320E:  ADDWFC 03,W
03210:  MOVWF  FEA
03212:  CLRF   FEF
....................       if(CiclosPersonalizados[i].Segundosec>59) 
03214:  MOVLB  2
03216:  MOVF   x73,W
03218:  MULLW  08
0321A:  MOVF   FF3,W
0321C:  MOVLB  6
0321E:  CLRF   xCB
03220:  MOVWF  xCA
03222:  MOVLW  04
03224:  ADDWF  xCA,W
03226:  MOVWF  01
03228:  MOVLW  00
0322A:  ADDWFC xCB,W
0322C:  MOVWF  03
0322E:  MOVF   01,W
03230:  ADDLW  02
03232:  MOVWF  FE9
03234:  MOVLW  06
03236:  ADDWFC 03,W
03238:  MOVWF  FEA
0323A:  MOVF   FEF,W
0323C:  SUBLW  3B
0323E:  BC    3268
....................          CiclosPersonalizados[i].Segundosec=0;       
03240:  MOVLB  2
03242:  MOVF   x73,W
03244:  MULLW  08
03246:  MOVF   FF3,W
03248:  MOVLB  6
0324A:  CLRF   xCB
0324C:  MOVWF  xCA
0324E:  MOVLW  04
03250:  ADDWF  xCA,W
03252:  MOVWF  01
03254:  MOVLW  00
03256:  ADDWFC xCB,W
03258:  MOVWF  03
0325A:  MOVF   01,W
0325C:  ADDLW  02
0325E:  MOVWF  FE9
03260:  MOVLW  06
03262:  ADDWFC 03,W
03264:  MOVWF  FEA
03266:  CLRF   FEF
....................       if(CiclosPersonalizados[i].PulsosVacio>15) 
03268:  MOVLB  2
0326A:  MOVF   x73,W
0326C:  MULLW  08
0326E:  MOVF   FF3,W
03270:  MOVLB  6
03272:  CLRF   xCB
03274:  MOVWF  xCA
03276:  MOVLW  05
03278:  ADDWF  xCA,W
0327A:  MOVWF  01
0327C:  MOVLW  00
0327E:  ADDWFC xCB,W
03280:  MOVWF  03
03282:  MOVF   01,W
03284:  ADDLW  02
03286:  MOVWF  FE9
03288:  MOVLW  06
0328A:  ADDWFC 03,W
0328C:  MOVWF  FEA
0328E:  MOVF   FEF,W
03290:  SUBLW  0F
03292:  BC    32BE
....................          CiclosPersonalizados[i].PulsosVacio=4; 
03294:  MOVLB  2
03296:  MOVF   x73,W
03298:  MULLW  08
0329A:  MOVF   FF3,W
0329C:  MOVLB  6
0329E:  CLRF   xCB
032A0:  MOVWF  xCA
032A2:  MOVLW  05
032A4:  ADDWF  xCA,W
032A6:  MOVWF  01
032A8:  MOVLW  00
032AA:  ADDWFC xCB,W
032AC:  MOVWF  03
032AE:  MOVF   01,W
032B0:  ADDLW  02
032B2:  MOVWF  FE9
032B4:  MOVLW  06
032B6:  ADDWFC 03,W
032B8:  MOVWF  FEA
032BA:  MOVLW  04
032BC:  MOVWF  FEF
....................       if(CiclosPersonalizados[i].NivelVacio>100 || CiclosPersonalizados[i].NivelVacio<10) 
032BE:  MOVLB  2
032C0:  MOVF   x73,W
032C2:  MULLW  08
032C4:  MOVF   FF3,W
032C6:  MOVLB  6
032C8:  CLRF   xCB
032CA:  MOVWF  xCA
032CC:  MOVLW  06
032CE:  ADDWF  xCA,W
032D0:  MOVWF  01
032D2:  MOVLW  00
032D4:  ADDWFC xCB,W
032D6:  MOVWF  03
032D8:  MOVF   01,W
032DA:  ADDLW  02
032DC:  MOVWF  FE9
032DE:  MOVLW  06
032E0:  ADDWFC 03,W
032E2:  MOVWF  FEA
032E4:  MOVF   FEF,W
032E6:  SUBLW  64
032E8:  BNC   3316
032EA:  MOVLB  2
032EC:  MOVF   x73,W
032EE:  MULLW  08
032F0:  MOVF   FF3,W
032F2:  MOVLB  6
032F4:  CLRF   xCB
032F6:  MOVWF  xCA
032F8:  MOVLW  06
032FA:  ADDWF  xCA,W
032FC:  MOVWF  01
032FE:  MOVLW  00
03300:  ADDWFC xCB,W
03302:  MOVWF  03
03304:  MOVF   01,W
03306:  ADDLW  02
03308:  MOVWF  FE9
0330A:  MOVLW  06
0330C:  ADDWFC 03,W
0330E:  MOVWF  FEA
03310:  MOVF   FEF,W
03312:  SUBLW  09
03314:  BNC   3340
....................          CiclosPersonalizados[i].NivelVacio=25;    
03316:  MOVLB  2
03318:  MOVF   x73,W
0331A:  MULLW  08
0331C:  MOVF   FF3,W
0331E:  MOVLB  6
03320:  CLRF   xCB
03322:  MOVWF  xCA
03324:  MOVLW  06
03326:  ADDWF  xCA,W
03328:  MOVWF  01
0332A:  MOVLW  00
0332C:  ADDWFC xCB,W
0332E:  MOVWF  03
03330:  MOVF   01,W
03332:  ADDLW  02
03334:  MOVWF  FE9
03336:  MOVLW  06
03338:  ADDWFC 03,W
0333A:  MOVWF  FEA
0333C:  MOVLW  19
0333E:  MOVWF  FEF
....................       if(CiclosPersonalizados[i].NivelDesfogue>6) 
03340:  MOVLB  2
03342:  MOVF   x73,W
03344:  MULLW  08
03346:  MOVF   FF3,W
03348:  MOVLB  6
0334A:  CLRF   xCB
0334C:  MOVWF  xCA
0334E:  MOVLW  07
03350:  ADDWF  xCA,W
03352:  MOVWF  01
03354:  MOVLW  00
03356:  ADDWFC xCB,W
03358:  MOVWF  03
0335A:  MOVF   01,W
0335C:  ADDLW  02
0335E:  MOVWF  FE9
03360:  MOVLW  06
03362:  ADDWFC 03,W
03364:  MOVWF  FEA
03366:  MOVF   FEF,W
03368:  SUBLW  06
0336A:  BC    3396
....................          CiclosPersonalizados[i].NivelDesfogue=6; 
0336C:  MOVLB  2
0336E:  MOVF   x73,W
03370:  MULLW  08
03372:  MOVF   FF3,W
03374:  MOVLB  6
03376:  CLRF   xCB
03378:  MOVWF  xCA
0337A:  MOVLW  07
0337C:  ADDWF  xCA,W
0337E:  MOVWF  01
03380:  MOVLW  00
03382:  ADDWFC xCB,W
03384:  MOVWF  03
03386:  MOVF   01,W
03388:  ADDLW  02
0338A:  MOVWF  FE9
0338C:  MOVLW  06
0338E:  ADDWFC 03,W
03390:  MOVWF  FEA
03392:  MOVLW  06
03394:  MOVWF  FEF
....................    } 
03396:  MOVLB  2
03398:  INCF   x73,F
0339A:  BRA    2DC8
....................     
....................    for(i=0;i<10;i++){//Lee contraseas de usuarios 
0339C:  CLRF   x73
0339E:  MOVF   x73,W
033A0:  SUBLW  09
033A2:  BNC   347E
....................       for(j=0;j<4;j++){ 
033A4:  CLRF   xC9
033A6:  MOVF   xC9,W
033A8:  SUBLW  03
033AA:  BNC   347A
....................          Clave[i].Password[j]=read_eeprom((300+j)+(i*4)); 
033AC:  MOVF   x73,W
033AE:  MULLW  04
033B0:  MOVF   FF3,W
033B2:  MOVLB  6
033B4:  CLRF   xCB
033B6:  MOVWF  xCA
033B8:  CLRF   03
033BA:  MOVLB  2
033BC:  MOVF   xC9,W
033BE:  MOVLB  6
033C0:  ADDWF  xCA,W
033C2:  MOVWF  01
033C4:  MOVF   xCB,W
033C6:  ADDWFC 03,F
033C8:  MOVF   01,W
033CA:  ADDLW  A2
033CC:  MOVWF  FE9
033CE:  MOVLW  06
033D0:  ADDWFC 03,W
033D2:  MOVWF  FEA
033D4:  MOVLW  2C
033D6:  MOVLB  2
033D8:  ADDWF  xC9,W
033DA:  MOVLB  6
033DC:  MOVWF  xCC
033DE:  MOVLW  01
033E0:  MOVWF  xCD
033E2:  BTFSC  FD8.0
033E4:  INCF   xCD,F
033E6:  MOVLB  2
033E8:  MOVF   x73,W
033EA:  MULLW  04
033EC:  MOVF   FF3,W
033EE:  MOVLB  6
033F0:  ADDWF  xCC,F
033F2:  MOVLW  00
033F4:  ADDWFC xCD,F
033F6:  MOVFF  FF2,6CE
033FA:  BCF    FF2.6
033FC:  BCF    FF2.7
033FE:  MOVFF  6CD,FAA
03402:  MOVFF  6CC,FA9
03406:  BCF    FA6.6
03408:  BCF    FA6.7
0340A:  BSF    FA6.0
0340C:  MOVF   FA8,W
0340E:  BTFSC  xCE.6
03410:  BSF    FF2.6
03412:  BTFSC  xCE.7
03414:  BSF    FF2.7
03416:  MOVWF  FEF
....................          if(Clave[i].Password[j]>9) 
03418:  MOVLB  2
0341A:  MOVF   x73,W
0341C:  MULLW  04
0341E:  MOVF   FF3,W
03420:  MOVLB  6
03422:  CLRF   xCB
03424:  MOVWF  xCA
03426:  CLRF   03
03428:  MOVLB  2
0342A:  MOVF   xC9,W
0342C:  MOVLB  6
0342E:  ADDWF  xCA,W
03430:  MOVWF  01
03432:  MOVF   xCB,W
03434:  ADDWFC 03,F
03436:  MOVF   01,W
03438:  ADDLW  A2
0343A:  MOVWF  FE9
0343C:  MOVLW  06
0343E:  ADDWFC 03,W
03440:  MOVWF  FEA
03442:  MOVF   FEF,W
03444:  SUBLW  09
03446:  BC    3474
....................             Clave[i].Password[j]=0; 
03448:  MOVLB  2
0344A:  MOVF   x73,W
0344C:  MULLW  04
0344E:  MOVF   FF3,W
03450:  MOVLB  6
03452:  CLRF   xCB
03454:  MOVWF  xCA
03456:  CLRF   03
03458:  MOVLB  2
0345A:  MOVF   xC9,W
0345C:  MOVLB  6
0345E:  ADDWF  xCA,W
03460:  MOVWF  01
03462:  MOVF   xCB,W
03464:  ADDWFC 03,F
03466:  MOVF   01,W
03468:  ADDLW  A2
0346A:  MOVWF  FE9
0346C:  MOVLW  06
0346E:  ADDWFC 03,W
03470:  MOVWF  FEA
03472:  CLRF   FEF
....................       } 
03474:  MOVLB  2
03476:  INCF   xC9,F
03478:  BRA    33A6
....................    } 
0347A:  INCF   x73,F
0347C:  BRA    339E
....................     
....................    diaCiclos=read_ext_eeprom(2+(cicloVisto*320)); 
0347E:  MOVLB  6
03480:  CLRF   xD5
03482:  MOVFF  2BB,6D4
03486:  MOVLW  01
03488:  MOVWF  xD7
0348A:  MOVLW  40
0348C:  MOVWF  xD6
0348E:  MOVLB  0
03490:  CALL   25B4
03494:  MOVFF  02,03
03498:  MOVF   01,W
0349A:  ADDLW  02
0349C:  MOVLB  6
0349E:  MOVWF  xCA
034A0:  MOVLW  00
034A2:  ADDWFC 02,W
034A4:  MOVWF  xCB
034A6:  MOVWF  xD0
034A8:  MOVFF  6CA,6CF
034AC:  MOVLB  0
034AE:  CALL   26B6
034B2:  MOVFF  01,331
....................    if(diaCiclos>31) 
034B6:  MOVLB  3
034B8:  MOVF   x31,W
034BA:  SUBLW  1F
034BC:  BC    34C2
....................       diaCiclos=1; 
034BE:  MOVLW  01
034C0:  MOVWF  x31
....................    mesCiclos=read_ext_eeprom(3+(cicloVisto*320)); 
034C2:  MOVLB  6
034C4:  CLRF   xD5
034C6:  MOVFF  2BB,6D4
034CA:  MOVLW  01
034CC:  MOVWF  xD7
034CE:  MOVLW  40
034D0:  MOVWF  xD6
034D2:  MOVLB  0
034D4:  CALL   25B4
034D8:  MOVFF  02,03
034DC:  MOVF   01,W
034DE:  ADDLW  03
034E0:  MOVLB  6
034E2:  MOVWF  xCA
034E4:  MOVLW  00
034E6:  ADDWFC 02,W
034E8:  MOVWF  xCB
034EA:  MOVWF  xD0
034EC:  MOVFF  6CA,6CF
034F0:  MOVLB  0
034F2:  CALL   26B6
034F6:  MOVFF  01,332
....................    if(mesCiclos>12) 
034FA:  MOVLB  3
034FC:  MOVF   x32,W
034FE:  SUBLW  0C
03500:  BC    3506
....................       mesCiclos=1; 
03502:  MOVLW  01
03504:  MOVWF  x32
....................    yearCiclos=read_ext_eeprom(4+(cicloVisto*320)); 
03506:  MOVLB  6
03508:  CLRF   xD5
0350A:  MOVFF  2BB,6D4
0350E:  MOVLW  01
03510:  MOVWF  xD7
03512:  MOVLW  40
03514:  MOVWF  xD6
03516:  MOVLB  0
03518:  CALL   25B4
0351C:  MOVFF  02,03
03520:  MOVF   01,W
03522:  ADDLW  04
03524:  MOVLB  6
03526:  MOVWF  xCA
03528:  MOVLW  00
0352A:  ADDWFC 02,W
0352C:  MOVWF  xCB
0352E:  MOVWF  xD0
03530:  MOVFF  6CA,6CF
03534:  MOVLB  0
03536:  CALL   26B6
0353A:  MOVFF  01,333
....................    if(yearCiclos>99) 
0353E:  MOVLB  3
03540:  MOVF   x33,W
03542:  SUBLW  63
03544:  BC    354A
....................       yearCiclos=19; 
03546:  MOVLW  13
03548:  MOVWF  x33
....................    cicloCiclos=read_ext_eeprom(1+(cicloVisto*320)); 
0354A:  MOVLB  6
0354C:  CLRF   xD5
0354E:  MOVFF  2BB,6D4
03552:  MOVLW  01
03554:  MOVWF  xD7
03556:  MOVLW  40
03558:  MOVWF  xD6
0355A:  MOVLB  0
0355C:  CALL   25B4
03560:  MOVFF  02,03
03564:  MOVF   01,W
03566:  ADDLW  01
03568:  MOVLB  6
0356A:  MOVWF  xCA
0356C:  MOVLW  00
0356E:  ADDWFC 02,W
03570:  MOVWF  xCB
03572:  MOVWF  xD0
03574:  MOVFF  6CA,6CF
03578:  MOVLB  0
0357A:  CALL   26B6
0357E:  MOVFF  01,335
....................    if(cicloCiclos>20) 
03582:  MOVLB  3
03584:  MOVF   x35,W
03586:  SUBLW  14
03588:  BC    358E
....................       cicloCiclos=1; 
0358A:  MOVLW  01
0358C:  MOVWF  x35
....................    usuarioCiclos=read_ext_eeprom((cicloVisto*320)); 
0358E:  MOVLB  6
03590:  CLRF   xD5
03592:  MOVFF  2BB,6D4
03596:  MOVLW  01
03598:  MOVWF  xD7
0359A:  MOVLW  40
0359C:  MOVWF  xD6
0359E:  MOVLB  0
035A0:  CALL   25B4
035A4:  MOVFF  02,6CB
035A8:  MOVFF  01,6CA
035AC:  MOVFF  02,6D0
035B0:  MOVFF  01,6CF
035B4:  CALL   26B6
035B8:  MOVFF  01,334
....................    if(usuarioCiclos>10) 
035BC:  MOVLB  3
035BE:  MOVF   x34,W
035C0:  SUBLW  0A
035C2:  BC    35C8
....................       usuarioCiclos=1; 
035C4:  MOVLW  01
035C6:  MOVWF  x34
....................    for(i=0;i<7;i++){//Lee Valores para completar la Tabla 
035C8:  MOVLB  2
035CA:  CLRF   x73
035CC:  MOVF   x73,W
035CE:  SUBLW  06
035D0:  BTFSS  FD8.0
035D2:  BRA    3B16
....................       horaCiclos[i]=read_ext_eeprom((cicloVisto*320)+11+((cicloVisualizado+i)*9)); 
035D4:  CLRF   03
035D6:  MOVF   x73,W
035D8:  ADDLW  1C
035DA:  MOVWF  01
035DC:  MOVLW  03
035DE:  ADDWFC 03,F
035E0:  MOVFF  01,6CA
035E4:  MOVLB  6
035E6:  MOVFF  03,6CB
035EA:  CLRF   xD5
035EC:  MOVFF  2BB,6D4
035F0:  MOVLW  01
035F2:  MOVWF  xD7
035F4:  MOVLW  40
035F6:  MOVWF  xD6
035F8:  MOVLB  0
035FA:  CALL   25B4
035FE:  MOVFF  02,6CD
03602:  MOVFF  01,6CC
03606:  MOVLW  0B
03608:  MOVLB  6
0360A:  ADDWF  xCC,F
0360C:  MOVLW  00
0360E:  ADDWFC xCD,F
03610:  MOVLB  2
03612:  MOVF   x73,W
03614:  ADDWF  xBA,W
03616:  MULLW  09
03618:  MOVF   FF3,W
0361A:  MOVLB  6
0361C:  ADDWF  xCC,F
0361E:  MOVLW  00
03620:  ADDWFC xCD,F
03622:  MOVFF  6CD,6D0
03626:  MOVFF  6CC,6CF
0362A:  MOVLB  0
0362C:  CALL   26B6
03630:  MOVFF  6CB,FEA
03634:  MOVFF  6CA,FE9
03638:  MOVFF  01,FEF
....................       if(horaCiclos[i]>24) 
0363C:  CLRF   03
0363E:  MOVLB  2
03640:  MOVF   x73,W
03642:  ADDLW  1C
03644:  MOVWF  FE9
03646:  MOVLW  03
03648:  ADDWFC 03,W
0364A:  MOVWF  FEA
0364C:  MOVF   FEF,W
0364E:  SUBLW  18
03650:  BC    3662
....................          horaCiclos[i]=0; 
03652:  CLRF   03
03654:  MOVF   x73,W
03656:  ADDLW  1C
03658:  MOVWF  FE9
0365A:  MOVLW  03
0365C:  ADDWFC 03,W
0365E:  MOVWF  FEA
03660:  CLRF   FEF
....................       minutoCiclos[i]=read_ext_eeprom((cicloVisto*320)+12+((cicloVisualizado+i)*9)); 
03662:  CLRF   03
03664:  MOVF   x73,W
03666:  ADDLW  23
03668:  MOVWF  01
0366A:  MOVLW  03
0366C:  ADDWFC 03,F
0366E:  MOVFF  01,6CA
03672:  MOVLB  6
03674:  MOVFF  03,6CB
03678:  CLRF   xD5
0367A:  MOVFF  2BB,6D4
0367E:  MOVLW  01
03680:  MOVWF  xD7
03682:  MOVLW  40
03684:  MOVWF  xD6
03686:  MOVLB  0
03688:  CALL   25B4
0368C:  MOVFF  02,6CD
03690:  MOVFF  01,6CC
03694:  MOVLW  0C
03696:  MOVLB  6
03698:  ADDWF  xCC,F
0369A:  MOVLW  00
0369C:  ADDWFC xCD,F
0369E:  MOVLB  2
036A0:  MOVF   x73,W
036A2:  ADDWF  xBA,W
036A4:  MULLW  09
036A6:  MOVF   FF3,W
036A8:  MOVLB  6
036AA:  ADDWF  xCC,F
036AC:  MOVLW  00
036AE:  ADDWFC xCD,F
036B0:  MOVFF  6CD,6D0
036B4:  MOVFF  6CC,6CF
036B8:  MOVLB  0
036BA:  CALL   26B6
036BE:  MOVFF  6CB,FEA
036C2:  MOVFF  6CA,FE9
036C6:  MOVFF  01,FEF
....................       if(minutoCiclos[i]>59) 
036CA:  CLRF   03
036CC:  MOVLB  2
036CE:  MOVF   x73,W
036D0:  ADDLW  23
036D2:  MOVWF  FE9
036D4:  MOVLW  03
036D6:  ADDWFC 03,W
036D8:  MOVWF  FEA
036DA:  MOVF   FEF,W
036DC:  SUBLW  3B
036DE:  BC    36F0
....................          minutoCiclos[i]=0; 
036E0:  CLRF   03
036E2:  MOVF   x73,W
036E4:  ADDLW  23
036E6:  MOVWF  FE9
036E8:  MOVLW  03
036EA:  ADDWFC 03,W
036EC:  MOVWF  FEA
036EE:  CLRF   FEF
....................       TCiclos[i]=read_ext_eeprom((cicloVisto*320)+5+((cicloVisualizado+i)*9))+inttofloat(read_ext_eeprom((cicloVisto*320)+6+((cicloVisualizado+i)*9))); 
036F0:  MOVF   x73,W
036F2:  MULLW  04
036F4:  MOVF   FF3,W
036F6:  CLRF   03
036F8:  ADDLW  E4
036FA:  MOVWF  01
036FC:  MOVLW  02
036FE:  ADDWFC 03,F
03700:  MOVFF  01,6CA
03704:  MOVLB  6
03706:  MOVFF  03,6CB
0370A:  CLRF   xD5
0370C:  MOVFF  2BB,6D4
03710:  MOVLW  01
03712:  MOVWF  xD7
03714:  MOVLW  40
03716:  MOVWF  xD6
03718:  MOVLB  0
0371A:  CALL   25B4
0371E:  MOVFF  02,6CD
03722:  MOVFF  01,6CC
03726:  MOVLW  05
03728:  MOVLB  6
0372A:  ADDWF  xCC,F
0372C:  MOVLW  00
0372E:  ADDWFC xCD,F
03730:  MOVLB  2
03732:  MOVF   x73,W
03734:  ADDWF  xBA,W
03736:  MULLW  09
03738:  MOVF   FF3,W
0373A:  MOVLB  6
0373C:  ADDWF  xCC,F
0373E:  MOVLW  00
03740:  ADDWFC xCD,F
03742:  MOVFF  6CD,6D0
03746:  MOVFF  6CC,6CF
0374A:  MOVLB  0
0374C:  CALL   26B6
03750:  MOVFF  01,6CC
03754:  MOVLB  6
03756:  CLRF   xD5
03758:  MOVFF  2BB,6D4
0375C:  MOVLW  01
0375E:  MOVWF  xD7
03760:  MOVLW  40
03762:  MOVWF  xD6
03764:  MOVLB  0
03766:  CALL   25B4
0376A:  MOVFF  02,6CE
0376E:  MOVFF  01,6CD
03772:  MOVLW  06
03774:  MOVLB  6
03776:  ADDWF  xCD,F
03778:  MOVLW  00
0377A:  ADDWFC xCE,F
0377C:  MOVLB  2
0377E:  MOVF   x73,W
03780:  ADDWF  xBA,W
03782:  MULLW  09
03784:  MOVF   FF3,W
03786:  MOVLB  6
03788:  ADDWF  xCD,F
0378A:  MOVLW  00
0378C:  ADDWFC xCE,F
0378E:  MOVFF  6CE,6D0
03792:  MOVFF  6CD,6CF
03796:  MOVLB  0
03798:  CALL   26B6
0379C:  MOVFF  01,6CD
037A0:  MOVFF  01,6CE
037A4:  CALL   275E
037A8:  MOVFF  00,6CD
037AC:  MOVFF  01,6CE
037B0:  MOVFF  02,6CF
037B4:  MOVFF  03,6D0
037B8:  MOVLB  6
037BA:  CLRF   xDD
037BC:  MOVFF  6CC,6DC
037C0:  MOVLB  0
037C2:  CALL   210C
037C6:  MOVFF  FEA,6D2
037CA:  MOVFF  FE9,6D1
037CE:  BCF    FD8.1
037D0:  MOVFF  03,6DF
037D4:  MOVFF  02,6DE
037D8:  MOVFF  01,6DD
037DC:  MOVFF  00,6DC
037E0:  MOVFF  6D0,6E3
037E4:  MOVFF  6CF,6E2
037E8:  MOVFF  6CE,6E1
037EC:  MOVFF  6CD,6E0
037F0:  CALL   22C8
037F4:  MOVFF  6D2,FEA
037F8:  MOVFF  6D1,FE9
037FC:  MOVFF  6CB,FEA
03800:  MOVFF  6CA,FE9
03804:  MOVFF  00,FEF
03808:  MOVFF  01,FEC
0380C:  MOVFF  02,FEC
03810:  MOVFF  03,FEC
....................       if(TCiclos[i]>200) 
03814:  MOVLB  2
03816:  MOVF   x73,W
03818:  MULLW  04
0381A:  MOVF   FF3,W
0381C:  CLRF   03
0381E:  ADDLW  E4
03820:  MOVWF  FE9
03822:  MOVLW  02
03824:  ADDWFC 03,W
03826:  MOVWF  FEA
03828:  MOVFF  FEF,6CA
0382C:  MOVFF  FEC,6CB
03830:  MOVFF  FEC,6CC
03834:  MOVFF  FEC,6CD
03838:  MOVLB  6
0383A:  CLRF   xD1
0383C:  CLRF   xD0
0383E:  MOVLW  48
03840:  MOVWF  xCF
03842:  MOVLW  86
03844:  MOVWF  xCE
03846:  MOVFF  6CD,6D5
0384A:  MOVFF  6CC,6D4
0384E:  MOVFF  6CB,6D3
03852:  MOVFF  6CA,6D2
03856:  MOVLB  0
03858:  CALL   279E
0385C:  BNC   387C
....................          TCiclos[i]=0; 
0385E:  MOVLB  2
03860:  MOVF   x73,W
03862:  MULLW  04
03864:  MOVF   FF3,W
03866:  CLRF   03
03868:  ADDLW  E4
0386A:  MOVWF  FE9
0386C:  MOVLW  02
0386E:  ADDWFC 03,W
03870:  MOVWF  FEA
03872:  CLRF   FEF
03874:  CLRF   FEC
03876:  CLRF   FEC
03878:  CLRF   FEC
0387A:  MOVLB  0
....................       PcCiclos[i]=make16(read_ext_eeprom((cicloVisto*320)+7+((cicloVisualizado+i)*9)),read_ext_eeprom((cicloVisto*320)+8+((cicloVisualizado+i)*9))); 
0387C:  BCF    FD8.0
0387E:  MOVLB  2
03880:  RLCF   x73,W
03882:  CLRF   03
03884:  MOVWF  01
03886:  MOVLW  03
03888:  ADDWF  03,F
0388A:  MOVFF  01,6CA
0388E:  MOVLB  6
03890:  MOVFF  03,6CB
03894:  CLRF   xD5
03896:  MOVFF  2BB,6D4
0389A:  MOVLW  01
0389C:  MOVWF  xD7
0389E:  MOVLW  40
038A0:  MOVWF  xD6
038A2:  MOVLB  0
038A4:  CALL   25B4
038A8:  MOVFF  02,6CD
038AC:  MOVFF  01,6CC
038B0:  MOVLW  07
038B2:  MOVLB  6
038B4:  ADDWF  xCC,F
038B6:  MOVLW  00
038B8:  ADDWFC xCD,F
038BA:  MOVLB  2
038BC:  MOVF   x73,W
038BE:  ADDWF  xBA,W
038C0:  MULLW  09
038C2:  MOVF   FF3,W
038C4:  MOVLB  6
038C6:  ADDWF  xCC,F
038C8:  MOVLW  00
038CA:  ADDWFC xCD,F
038CC:  MOVFF  6CD,6D0
038D0:  MOVFF  6CC,6CF
038D4:  MOVLB  0
038D6:  CALL   26B6
038DA:  MOVFF  01,6CC
038DE:  MOVLB  6
038E0:  CLRF   xD5
038E2:  MOVFF  2BB,6D4
038E6:  MOVLW  01
038E8:  MOVWF  xD7
038EA:  MOVLW  40
038EC:  MOVWF  xD6
038EE:  MOVLB  0
038F0:  CALL   25B4
038F4:  MOVFF  02,6CE
038F8:  MOVFF  01,6CD
038FC:  MOVLW  08
038FE:  MOVLB  6
03900:  ADDWF  xCD,F
03902:  MOVLW  00
03904:  ADDWFC xCE,F
03906:  MOVLB  2
03908:  MOVF   x73,W
0390A:  ADDWF  xBA,W
0390C:  MULLW  09
0390E:  MOVF   FF3,W
03910:  MOVLB  6
03912:  ADDWF  xCD,F
03914:  MOVLW  00
03916:  ADDWFC xCE,F
03918:  MOVFF  6CE,6D0
0391C:  MOVFF  6CD,6CF
03920:  MOVLB  0
03922:  CALL   26B6
03926:  MOVFF  6CB,FEA
0392A:  MOVFF  6CA,FE9
0392E:  MOVFF  6CC,FEC
03932:  MOVF   FED,F
03934:  MOVFF  01,FEF
....................       if(PcCiclos[i]>500) 
03938:  BCF    FD8.0
0393A:  MOVLB  2
0393C:  RLCF   x73,W
0393E:  CLRF   03
03940:  MOVWF  FE9
03942:  MOVLW  03
03944:  ADDWF  03,W
03946:  MOVWF  FEA
03948:  MOVFF  FEC,6CB
0394C:  MOVF   FED,F
0394E:  MOVFF  FEF,6CA
03952:  MOVLB  6
03954:  MOVF   xCB,W
03956:  SUBLW  00
03958:  BC    397C
0395A:  XORLW  FF
0395C:  BNZ   3964
0395E:  MOVF   xCA,W
03960:  SUBLW  F4
03962:  BC    397C
....................          PcCiclos[i]=0; 
03964:  BCF    FD8.0
03966:  MOVLB  2
03968:  RLCF   x73,W
0396A:  CLRF   03
0396C:  MOVWF  FE9
0396E:  MOVLW  03
03970:  ADDWF  03,W
03972:  MOVWF  FEA
03974:  CLRF   FEC
03976:  MOVF   FED,F
03978:  CLRF   FEF
0397A:  MOVLB  6
....................       PpcCiclos[i]=make16(read_ext_eeprom((cicloVisto*320)+9+((cicloVisualizado+i)*9)),read_ext_eeprom((cicloVisto*320)+10+((cicloVisualizado+i)*9))); 
0397C:  BCF    FD8.0
0397E:  MOVLB  2
03980:  RLCF   x73,W
03982:  CLRF   03
03984:  ADDLW  0E
03986:  MOVWF  01
03988:  MOVLW  03
0398A:  ADDWFC 03,F
0398C:  MOVFF  01,6CA
03990:  MOVLB  6
03992:  MOVFF  03,6CB
03996:  CLRF   xD5
03998:  MOVFF  2BB,6D4
0399C:  MOVLW  01
0399E:  MOVWF  xD7
039A0:  MOVLW  40
039A2:  MOVWF  xD6
039A4:  MOVLB  0
039A6:  CALL   25B4
039AA:  MOVFF  02,6CD
039AE:  MOVFF  01,6CC
039B2:  MOVLW  09
039B4:  MOVLB  6
039B6:  ADDWF  xCC,F
039B8:  MOVLW  00
039BA:  ADDWFC xCD,F
039BC:  MOVLB  2
039BE:  MOVF   x73,W
039C0:  ADDWF  xBA,W
039C2:  MULLW  09
039C4:  MOVF   FF3,W
039C6:  MOVLB  6
039C8:  ADDWF  xCC,F
039CA:  MOVLW  00
039CC:  ADDWFC xCD,F
039CE:  MOVFF  6CD,6D0
039D2:  MOVFF  6CC,6CF
039D6:  MOVLB  0
039D8:  CALL   26B6
039DC:  MOVFF  01,6CC
039E0:  MOVLB  6
039E2:  CLRF   xD5
039E4:  MOVFF  2BB,6D4
039E8:  MOVLW  01
039EA:  MOVWF  xD7
039EC:  MOVLW  40
039EE:  MOVWF  xD6
039F0:  MOVLB  0
039F2:  CALL   25B4
039F6:  MOVFF  02,6CE
039FA:  MOVFF  01,6CD
039FE:  MOVLW  0A
03A00:  MOVLB  6
03A02:  ADDWF  xCD,F
03A04:  MOVLW  00
03A06:  ADDWFC xCE,F
03A08:  MOVLB  2
03A0A:  MOVF   x73,W
03A0C:  ADDWF  xBA,W
03A0E:  MULLW  09
03A10:  MOVF   FF3,W
03A12:  MOVLB  6
03A14:  ADDWF  xCD,F
03A16:  MOVLW  00
03A18:  ADDWFC xCE,F
03A1A:  MOVFF  6CE,6D0
03A1E:  MOVFF  6CD,6CF
03A22:  MOVLB  0
03A24:  CALL   26B6
03A28:  MOVFF  6CB,FEA
03A2C:  MOVFF  6CA,FE9
03A30:  MOVFF  6CC,FEC
03A34:  MOVF   FED,F
03A36:  MOVFF  01,FEF
....................       if(PpcCiclos[i]>500) 
03A3A:  BCF    FD8.0
03A3C:  MOVLB  2
03A3E:  RLCF   x73,W
03A40:  CLRF   03
03A42:  ADDLW  0E
03A44:  MOVWF  FE9
03A46:  MOVLW  03
03A48:  ADDWFC 03,W
03A4A:  MOVWF  FEA
03A4C:  MOVFF  FEC,6CB
03A50:  MOVF   FED,F
03A52:  MOVFF  FEF,6CA
03A56:  MOVLB  6
03A58:  MOVF   xCB,W
03A5A:  SUBLW  00
03A5C:  BC    3A82
03A5E:  XORLW  FF
03A60:  BNZ   3A68
03A62:  MOVF   xCA,W
03A64:  SUBLW  F4
03A66:  BC    3A82
....................          PpcCiclos[i]=0; 
03A68:  BCF    FD8.0
03A6A:  MOVLB  2
03A6C:  RLCF   x73,W
03A6E:  CLRF   03
03A70:  ADDLW  0E
03A72:  MOVWF  FE9
03A74:  MOVLW  03
03A76:  ADDWFC 03,W
03A78:  MOVWF  FEA
03A7A:  CLRF   FEC
03A7C:  MOVF   FED,F
03A7E:  CLRF   FEF
03A80:  MOVLB  6
....................       ACiclos[i]=read_ext_eeprom((cicloVisto*320)+13+((cicloVisualizado+i)*9)); 
03A82:  CLRF   03
03A84:  MOVLB  2
03A86:  MOVF   x73,W
03A88:  ADDLW  2A
03A8A:  MOVWF  01
03A8C:  MOVLW  03
03A8E:  ADDWFC 03,F
03A90:  MOVFF  01,6CA
03A94:  MOVLB  6
03A96:  MOVFF  03,6CB
03A9A:  CLRF   xD5
03A9C:  MOVFF  2BB,6D4
03AA0:  MOVLW  01
03AA2:  MOVWF  xD7
03AA4:  MOVLW  40
03AA6:  MOVWF  xD6
03AA8:  MOVLB  0
03AAA:  CALL   25B4
03AAE:  MOVFF  02,6CD
03AB2:  MOVFF  01,6CC
03AB6:  MOVLW  0D
03AB8:  MOVLB  6
03ABA:  ADDWF  xCC,F
03ABC:  MOVLW  00
03ABE:  ADDWFC xCD,F
03AC0:  MOVLB  2
03AC2:  MOVF   x73,W
03AC4:  ADDWF  xBA,W
03AC6:  MULLW  09
03AC8:  MOVF   FF3,W
03ACA:  MOVLB  6
03ACC:  ADDWF  xCC,F
03ACE:  MOVLW  00
03AD0:  ADDWFC xCD,F
03AD2:  MOVFF  6CD,6D0
03AD6:  MOVFF  6CC,6CF
03ADA:  MOVLB  0
03ADC:  CALL   26B6
03AE0:  MOVFF  6CB,FEA
03AE4:  MOVFF  6CA,FE9
03AE8:  MOVFF  01,FEF
....................       if(ACiclos[i]>10) 
03AEC:  CLRF   03
03AEE:  MOVLB  2
03AF0:  MOVF   x73,W
03AF2:  ADDLW  2A
03AF4:  MOVWF  FE9
03AF6:  MOVLW  03
03AF8:  ADDWFC 03,W
03AFA:  MOVWF  FEA
03AFC:  MOVF   FEF,W
03AFE:  SUBLW  0A
03B00:  BC    3B12
....................          ACiclos[i]=0; 
03B02:  CLRF   03
03B04:  MOVF   x73,W
03B06:  ADDLW  2A
03B08:  MOVWF  FE9
03B0A:  MOVLW  03
03B0C:  ADDWFC 03,W
03B0E:  MOVWF  FEA
03B10:  CLRF   FEF
....................    } 
03B12:  INCF   x73,F
03B14:  BRA    35CC
.................... } 
03B16:  MOVLB  0
03B18:  GOTO   7E42 (RETURN)
....................  
.................... void LimitaValores(){ 
....................    if(Ganancia>20.0){ 
*
03C50:  MOVLB  6
03C52:  CLRF   xD1
03C54:  CLRF   xD0
03C56:  MOVLW  20
03C58:  MOVWF  xCF
03C5A:  MOVLW  83
03C5C:  MOVWF  xCE
03C5E:  MOVFF  222,6D5
03C62:  MOVFF  221,6D4
03C66:  MOVFF  220,6D3
03C6A:  MOVFF  21F,6D2
03C6E:  MOVLB  0
03C70:  CALL   279E
03C74:  BNC   3CBE
....................       Ganancia=15.0; 
03C76:  MOVLB  2
03C78:  CLRF   x22
03C7A:  CLRF   x21
03C7C:  MOVLW  70
03C7E:  MOVWF  x20
03C80:  MOVLW  82
03C82:  MOVWF  x1F
....................       write_eeprom(20,15); 
03C84:  CLRF   FAA
03C86:  MOVLW  14
03C88:  MOVWF  FA9
03C8A:  MOVLW  0F
03C8C:  MOVWF  FA8
03C8E:  BCF    FA6.6
03C90:  BCF    FA6.7
03C92:  BSF    FA6.2
03C94:  MOVF   FF2,W
03C96:  MOVWF  00
03C98:  BCF    FF2.6
03C9A:  BCF    FF2.7
03C9C:  MOVLB  F
03C9E:  MOVLW  55
03CA0:  MOVWF  FA7
03CA2:  MOVLW  AA
03CA4:  MOVWF  FA7
03CA6:  BSF    FA6.1
03CA8:  BTFSC  FA6.1
03CAA:  BRA    3CA8
03CAC:  BCF    FA6.2
03CAE:  MOVF   00,W
03CB0:  IORWF  FF2,F
....................       delay_ms(10); 
03CB2:  MOVLW  0A
03CB4:  MOVLB  6
03CB6:  MOVWF  xDC
03CB8:  MOVLB  0
03CBA:  CALL   2142
....................    } 
....................    if(Sensor[0].Ajuste>20){ 
03CBE:  MOVLB  3
03CC0:  MOVF   x58,W
03CC2:  SUBLW  14
03CC4:  BC    3D02
....................       Sensor[0].Ajuste=0; 
03CC6:  CLRF   x58
....................       write_eeprom(21,0); 
03CC8:  CLRF   FAA
03CCA:  MOVLW  15
03CCC:  MOVWF  FA9
03CCE:  CLRF   FA8
03CD0:  BCF    FA6.6
03CD2:  BCF    FA6.7
03CD4:  BSF    FA6.2
03CD6:  MOVF   FF2,W
03CD8:  MOVWF  00
03CDA:  BCF    FF2.6
03CDC:  BCF    FF2.7
03CDE:  MOVLB  F
03CE0:  MOVLW  55
03CE2:  MOVWF  FA7
03CE4:  MOVLW  AA
03CE6:  MOVWF  FA7
03CE8:  BSF    FA6.1
03CEA:  BTFSC  FA6.1
03CEC:  BRA    3CEA
03CEE:  BCF    FA6.2
03CF0:  MOVF   00,W
03CF2:  IORWF  FF2,F
....................       delay_ms(10); 
03CF4:  MOVLW  0A
03CF6:  MOVLB  6
03CF8:  MOVWF  xDC
03CFA:  MOVLB  0
03CFC:  CALL   2142
03D00:  MOVLB  3
....................    } 
....................    if(Sensor[0].Ajusten>20){ 
03D02:  MOVF   x59,W
03D04:  SUBLW  14
03D06:  BC    3D42
....................       Sensor[0].Ajusten=0; 
03D08:  CLRF   x59
....................       write_eeprom(22,0); 
03D0A:  CLRF   FAA
03D0C:  MOVLW  16
03D0E:  MOVWF  FA9
03D10:  CLRF   FA8
03D12:  BCF    FA6.6
03D14:  BCF    FA6.7
03D16:  BSF    FA6.2
03D18:  MOVF   FF2,W
03D1A:  MOVWF  00
03D1C:  BCF    FF2.6
03D1E:  BCF    FF2.7
03D20:  MOVLB  F
03D22:  MOVLW  55
03D24:  MOVWF  FA7
03D26:  MOVLW  AA
03D28:  MOVWF  FA7
03D2A:  BSF    FA6.1
03D2C:  BTFSC  FA6.1
03D2E:  BRA    3D2C
03D30:  BCF    FA6.2
03D32:  MOVF   00,W
03D34:  IORWF  FF2,F
....................       delay_ms(10); 
03D36:  MOVLW  0A
03D38:  MOVLB  6
03D3A:  MOVWF  xDC
03D3C:  MOVLB  0
03D3E:  CALL   2142
....................    } 
....................    if(Sensor[1].Ajuste>20){ 
03D42:  MOVLB  4
03D44:  MOVF   xBC,W
03D46:  SUBLW  14
03D48:  BC    3D86
....................       Sensor[1].Ajuste=0; 
03D4A:  CLRF   xBC
....................       write_eeprom(23,0); 
03D4C:  CLRF   FAA
03D4E:  MOVLW  17
03D50:  MOVWF  FA9
03D52:  CLRF   FA8
03D54:  BCF    FA6.6
03D56:  BCF    FA6.7
03D58:  BSF    FA6.2
03D5A:  MOVF   FF2,W
03D5C:  MOVWF  00
03D5E:  BCF    FF2.6
03D60:  BCF    FF2.7
03D62:  MOVLB  F
03D64:  MOVLW  55
03D66:  MOVWF  FA7
03D68:  MOVLW  AA
03D6A:  MOVWF  FA7
03D6C:  BSF    FA6.1
03D6E:  BTFSC  FA6.1
03D70:  BRA    3D6E
03D72:  BCF    FA6.2
03D74:  MOVF   00,W
03D76:  IORWF  FF2,F
....................       delay_ms(10); 
03D78:  MOVLW  0A
03D7A:  MOVLB  6
03D7C:  MOVWF  xDC
03D7E:  MOVLB  0
03D80:  CALL   2142
03D84:  MOVLB  4
....................    } 
....................    if(Sensor[1].Ajusten>20){ 
03D86:  MOVF   xBD,W
03D88:  SUBLW  14
03D8A:  BC    3DC6
....................       Sensor[1].Ajusten=0; 
03D8C:  CLRF   xBD
....................       write_eeprom(24,0); 
03D8E:  CLRF   FAA
03D90:  MOVLW  18
03D92:  MOVWF  FA9
03D94:  CLRF   FA8
03D96:  BCF    FA6.6
03D98:  BCF    FA6.7
03D9A:  BSF    FA6.2
03D9C:  MOVF   FF2,W
03D9E:  MOVWF  00
03DA0:  BCF    FF2.6
03DA2:  BCF    FF2.7
03DA4:  MOVLB  F
03DA6:  MOVLW  55
03DA8:  MOVWF  FA7
03DAA:  MOVLW  AA
03DAC:  MOVWF  FA7
03DAE:  BSF    FA6.1
03DB0:  BTFSC  FA6.1
03DB2:  BRA    3DB0
03DB4:  BCF    FA6.2
03DB6:  MOVF   00,W
03DB8:  IORWF  FF2,F
....................       delay_ms(10); 
03DBA:  MOVLW  0A
03DBC:  MOVLB  6
03DBE:  MOVWF  xDC
03DC0:  MOVLB  0
03DC2:  CALL   2142
....................    } 
....................    if(MediaMovil>80){ 
03DC6:  MOVLB  1
03DC8:  MOVF   xF7,W
03DCA:  SUBLW  50
03DCC:  BC    3E0C
....................       MediaMovil=40; 
03DCE:  MOVLW  28
03DD0:  MOVWF  xF7
....................       write_eeprom(25,40); 
03DD2:  CLRF   FAA
03DD4:  MOVLW  19
03DD6:  MOVWF  FA9
03DD8:  MOVLW  28
03DDA:  MOVWF  FA8
03DDC:  BCF    FA6.6
03DDE:  BCF    FA6.7
03DE0:  BSF    FA6.2
03DE2:  MOVF   FF2,W
03DE4:  MOVWF  00
03DE6:  BCF    FF2.6
03DE8:  BCF    FF2.7
03DEA:  MOVLB  F
03DEC:  MOVLW  55
03DEE:  MOVWF  FA7
03DF0:  MOVLW  AA
03DF2:  MOVWF  FA7
03DF4:  BSF    FA6.1
03DF6:  BTFSC  FA6.1
03DF8:  BRA    3DF6
03DFA:  BCF    FA6.2
03DFC:  MOVF   00,W
03DFE:  IORWF  FF2,F
....................       delay_ms(10); 
03E00:  MOVLW  0A
03E02:  MOVLB  6
03E04:  MOVWF  xDC
03E06:  MOVLB  0
03E08:  CALL   2142
....................    } 
....................    if(Tciclo>10){ 
03E0C:  MOVLB  6
03E0E:  CLRF   xD1
03E10:  CLRF   xD0
03E12:  MOVLW  20
03E14:  MOVWF  xCF
03E16:  MOVLW  82
03E18:  MOVWF  xCE
03E1A:  MOVFF  20A,6D5
03E1E:  MOVFF  209,6D4
03E22:  MOVFF  208,6D3
03E26:  MOVFF  207,6D2
03E2A:  MOVLB  0
03E2C:  CALL   279E
03E30:  BNC   3E7A
....................       Tciclo=10; 
03E32:  MOVLB  2
03E34:  CLRF   x0A
03E36:  CLRF   x09
03E38:  MOVLW  20
03E3A:  MOVWF  x08
03E3C:  MOVLW  82
03E3E:  MOVWF  x07
....................       write_eeprom(26,10); 
03E40:  CLRF   FAA
03E42:  MOVLW  1A
03E44:  MOVWF  FA9
03E46:  MOVLW  0A
03E48:  MOVWF  FA8
03E4A:  BCF    FA6.6
03E4C:  BCF    FA6.7
03E4E:  BSF    FA6.2
03E50:  MOVF   FF2,W
03E52:  MOVWF  00
03E54:  BCF    FF2.6
03E56:  BCF    FF2.7
03E58:  MOVLB  F
03E5A:  MOVLW  55
03E5C:  MOVWF  FA7
03E5E:  MOVLW  AA
03E60:  MOVWF  FA7
03E62:  BSF    FA6.1
03E64:  BTFSC  FA6.1
03E66:  BRA    3E64
03E68:  BCF    FA6.2
03E6A:  MOVF   00,W
03E6C:  IORWF  FF2,F
....................       delay_ms(10); 
03E6E:  MOVLW  0A
03E70:  MOVLB  6
03E72:  MOVWF  xDC
03E74:  MOVLB  0
03E76:  CALL   2142
....................    } 
....................    if(Sensor[0].RPT100>2.0){ 
03E7A:  MOVLB  6
03E7C:  CLRF   xD1
03E7E:  CLRF   xD0
03E80:  CLRF   xCF
03E82:  MOVLW  80
03E84:  MOVWF  xCE
03E86:  MOVFF  34D,6D5
03E8A:  MOVFF  34C,6D4
03E8E:  MOVFF  34B,6D3
03E92:  MOVFF  34A,6D2
03E96:  MOVLB  0
03E98:  CALL   279E
03E9C:  BNC   3F1C
....................       Sensor[0].RPT100=0.5; 
03E9E:  MOVLB  3
03EA0:  CLRF   x4D
03EA2:  CLRF   x4C
03EA4:  CLRF   x4B
03EA6:  MOVLW  7E
03EA8:  MOVWF  x4A
....................       write_eeprom(28,0); 
03EAA:  CLRF   FAA
03EAC:  MOVLW  1C
03EAE:  MOVWF  FA9
03EB0:  CLRF   FA8
03EB2:  BCF    FA6.6
03EB4:  BCF    FA6.7
03EB6:  BSF    FA6.2
03EB8:  MOVF   FF2,W
03EBA:  MOVWF  00
03EBC:  BCF    FF2.6
03EBE:  BCF    FF2.7
03EC0:  MOVLB  F
03EC2:  MOVLW  55
03EC4:  MOVWF  FA7
03EC6:  MOVLW  AA
03EC8:  MOVWF  FA7
03ECA:  BSF    FA6.1
03ECC:  BTFSC  FA6.1
03ECE:  BRA    3ECC
03ED0:  BCF    FA6.2
03ED2:  MOVF   00,W
03ED4:  IORWF  FF2,F
....................       delay_ms(10); 
03ED6:  MOVLW  0A
03ED8:  MOVLB  6
03EDA:  MOVWF  xDC
03EDC:  MOVLB  0
03EDE:  CALL   2142
....................       write_eeprom(27,5); 
03EE2:  CLRF   FAA
03EE4:  MOVLW  1B
03EE6:  MOVWF  FA9
03EE8:  MOVLW  05
03EEA:  MOVWF  FA8
03EEC:  BCF    FA6.6
03EEE:  BCF    FA6.7
03EF0:  BSF    FA6.2
03EF2:  MOVF   FF2,W
03EF4:  MOVWF  00
03EF6:  BCF    FF2.6
03EF8:  BCF    FF2.7
03EFA:  MOVLB  F
03EFC:  MOVLW  55
03EFE:  MOVWF  FA7
03F00:  MOVLW  AA
03F02:  MOVWF  FA7
03F04:  BSF    FA6.1
03F06:  BTFSC  FA6.1
03F08:  BRA    3F06
03F0A:  BCF    FA6.2
03F0C:  MOVF   00,W
03F0E:  IORWF  FF2,F
....................       delay_ms(10); 
03F10:  MOVLW  0A
03F12:  MOVLB  6
03F14:  MOVWF  xDC
03F16:  MOVLB  0
03F18:  CALL   2142
....................    } 
....................    if(Sensor[1].RPT100>2.0){ 
03F1C:  MOVLB  6
03F1E:  CLRF   xD1
03F20:  CLRF   xD0
03F22:  CLRF   xCF
03F24:  MOVLW  80
03F26:  MOVWF  xCE
03F28:  MOVFF  4B1,6D5
03F2C:  MOVFF  4B0,6D4
03F30:  MOVFF  4AF,6D3
03F34:  MOVFF  4AE,6D2
03F38:  MOVLB  0
03F3A:  CALL   279E
03F3E:  BNC   3FBE
....................       Sensor[1].RPT100=0.5; 
03F40:  MOVLB  4
03F42:  CLRF   xB1
03F44:  CLRF   xB0
03F46:  CLRF   xAF
03F48:  MOVLW  7E
03F4A:  MOVWF  xAE
....................       write_eeprom(30,0); 
03F4C:  CLRF   FAA
03F4E:  MOVLW  1E
03F50:  MOVWF  FA9
03F52:  CLRF   FA8
03F54:  BCF    FA6.6
03F56:  BCF    FA6.7
03F58:  BSF    FA6.2
03F5A:  MOVF   FF2,W
03F5C:  MOVWF  00
03F5E:  BCF    FF2.6
03F60:  BCF    FF2.7
03F62:  MOVLB  F
03F64:  MOVLW  55
03F66:  MOVWF  FA7
03F68:  MOVLW  AA
03F6A:  MOVWF  FA7
03F6C:  BSF    FA6.1
03F6E:  BTFSC  FA6.1
03F70:  BRA    3F6E
03F72:  BCF    FA6.2
03F74:  MOVF   00,W
03F76:  IORWF  FF2,F
....................       delay_ms(10); 
03F78:  MOVLW  0A
03F7A:  MOVLB  6
03F7C:  MOVWF  xDC
03F7E:  MOVLB  0
03F80:  CALL   2142
....................       write_eeprom(29,5); 
03F84:  CLRF   FAA
03F86:  MOVLW  1D
03F88:  MOVWF  FA9
03F8A:  MOVLW  05
03F8C:  MOVWF  FA8
03F8E:  BCF    FA6.6
03F90:  BCF    FA6.7
03F92:  BSF    FA6.2
03F94:  MOVF   FF2,W
03F96:  MOVWF  00
03F98:  BCF    FF2.6
03F9A:  BCF    FF2.7
03F9C:  MOVLB  F
03F9E:  MOVLW  55
03FA0:  MOVWF  FA7
03FA2:  MOVLW  AA
03FA4:  MOVWF  FA7
03FA6:  BSF    FA6.1
03FA8:  BTFSC  FA6.1
03FAA:  BRA    3FA8
03FAC:  BCF    FA6.2
03FAE:  MOVF   00,W
03FB0:  IORWF  FF2,F
....................       delay_ms(10); 
03FB2:  MOVLW  0A
03FB4:  MOVLB  6
03FB6:  MOVWF  xDC
03FB8:  MOVLB  0
03FBA:  CALL   2142
....................    } 
....................    if(Atmosferica>100){ 
03FBE:  MOVLB  2
03FC0:  MOVF   xBD,W
03FC2:  SUBLW  64
03FC4:  BC    4006
....................       Atmosferica=69; 
03FC6:  MOVLW  45
03FC8:  MOVWF  xBD
....................       write_eeprom(31,69); 
03FCA:  CLRF   FAA
03FCC:  MOVLW  1F
03FCE:  MOVWF  FA9
03FD0:  MOVLW  45
03FD2:  MOVWF  FA8
03FD4:  BCF    FA6.6
03FD6:  BCF    FA6.7
03FD8:  BSF    FA6.2
03FDA:  MOVF   FF2,W
03FDC:  MOVWF  00
03FDE:  BCF    FF2.6
03FE0:  BCF    FF2.7
03FE2:  MOVLB  F
03FE4:  MOVLW  55
03FE6:  MOVWF  FA7
03FE8:  MOVLW  AA
03FEA:  MOVWF  FA7
03FEC:  BSF    FA6.1
03FEE:  BTFSC  FA6.1
03FF0:  BRA    3FEE
03FF2:  BCF    FA6.2
03FF4:  MOVF   00,W
03FF6:  IORWF  FF2,F
....................       delay_ms(10); 
03FF8:  MOVLW  0A
03FFA:  MOVLB  6
03FFC:  MOVWF  xDC
03FFE:  MOVLB  0
04000:  CALL   2142
04004:  MOVLB  2
....................    } 
....................    if(Tapertura>100){ 
04006:  MOVF   x77,W
04008:  SUBLW  64
0400A:  BC    404C
....................       Tapertura=85; 
0400C:  MOVLW  55
0400E:  MOVWF  x77
....................       write_eeprom(32,85); 
04010:  CLRF   FAA
04012:  MOVLW  20
04014:  MOVWF  FA9
04016:  MOVLW  55
04018:  MOVWF  FA8
0401A:  BCF    FA6.6
0401C:  BCF    FA6.7
0401E:  BSF    FA6.2
04020:  MOVF   FF2,W
04022:  MOVWF  00
04024:  BCF    FF2.6
04026:  BCF    FF2.7
04028:  MOVLB  F
0402A:  MOVLW  55
0402C:  MOVWF  FA7
0402E:  MOVLW  AA
04030:  MOVWF  FA7
04032:  BSF    FA6.1
04034:  BTFSC  FA6.1
04036:  BRA    4034
04038:  BCF    FA6.2
0403A:  MOVF   00,W
0403C:  IORWF  FF2,F
....................       delay_ms(10); 
0403E:  MOVLW  0A
04040:  MOVLB  6
04042:  MOVWF  xDC
04044:  MOVLB  0
04046:  CALL   2142
0404A:  MOVLB  2
....................    } 
....................    if(Ciclos>60000){ 
0404C:  MOVF   x96,W
0404E:  SUBLW  E9
04050:  BC    40D2
04052:  XORLW  FF
04054:  BNZ   405C
04056:  MOVF   x95,W
04058:  SUBLW  60
0405A:  BC    40D2
....................       Ciclos=0; 
0405C:  CLRF   x96
0405E:  CLRF   x95
....................       write_eeprom(37,0); 
04060:  CLRF   FAA
04062:  MOVLW  25
04064:  MOVWF  FA9
04066:  CLRF   FA8
04068:  BCF    FA6.6
0406A:  BCF    FA6.7
0406C:  BSF    FA6.2
0406E:  MOVF   FF2,W
04070:  MOVWF  00
04072:  BCF    FF2.6
04074:  BCF    FF2.7
04076:  MOVLB  F
04078:  MOVLW  55
0407A:  MOVWF  FA7
0407C:  MOVLW  AA
0407E:  MOVWF  FA7
04080:  BSF    FA6.1
04082:  BTFSC  FA6.1
04084:  BRA    4082
04086:  BCF    FA6.2
04088:  MOVF   00,W
0408A:  IORWF  FF2,F
....................       delay_ms(10); 
0408C:  MOVLW  0A
0408E:  MOVLB  6
04090:  MOVWF  xDC
04092:  MOVLB  0
04094:  CALL   2142
....................       write_eeprom(38,0); 
04098:  CLRF   FAA
0409A:  MOVLW  26
0409C:  MOVWF  FA9
0409E:  CLRF   FA8
040A0:  BCF    FA6.6
040A2:  BCF    FA6.7
040A4:  BSF    FA6.2
040A6:  MOVF   FF2,W
040A8:  MOVWF  00
040AA:  BCF    FF2.6
040AC:  BCF    FF2.7
040AE:  MOVLB  F
040B0:  MOVLW  55
040B2:  MOVWF  FA7
040B4:  MOVLW  AA
040B6:  MOVWF  FA7
040B8:  BSF    FA6.1
040BA:  BTFSC  FA6.1
040BC:  BRA    40BA
040BE:  BCF    FA6.2
040C0:  MOVF   00,W
040C2:  IORWF  FF2,F
....................       delay_ms(10); 
040C4:  MOVLW  0A
040C6:  MOVLB  6
040C8:  MOVWF  xDC
040CA:  MOVLB  0
040CC:  CALL   2142
040D0:  MOVLB  2
....................    } 
....................    if(sg1==10){ 
040D2:  MOVF   xCE,W
040D4:  SUBLW  0A
040D6:  BNZ   40EC
....................       G1=G1*(-1); 
040D8:  MOVFF  2CC,6CA
040DC:  MOVLW  FF
040DE:  MOVLB  6
040E0:  MOVWF  xCB
040E2:  MOVLB  0
040E4:  RCALL  3C02
040E6:  MOVFF  01,2CC
040EA:  MOVLB  2
....................    } 
....................    if(sg2==10){ 
040EC:  MOVF   xCF,W
040EE:  SUBLW  0A
040F0:  BNZ   4104
....................       G2=G2*(-1); 
040F2:  MOVFF  2CD,6CA
040F6:  MOVLW  FF
040F8:  MOVLB  6
040FA:  MOVWF  xCB
040FC:  MOVLB  0
040FE:  RCALL  3C02
04100:  MOVFF  01,2CD
....................    } 
....................    if(cerroSucioInt>1){ 
04104:  MOVLB  1
04106:  MOVF   xFD,W
04108:  SUBLW  01
0410A:  BC    414A
....................       cerroSucioInt=0; 
0410C:  CLRF   xFD
....................       write_eeprom(46,0); 
0410E:  CLRF   FAA
04110:  MOVLW  2E
04112:  MOVWF  FA9
04114:  CLRF   FA8
04116:  BCF    FA6.6
04118:  BCF    FA6.7
0411A:  BSF    FA6.2
0411C:  MOVF   FF2,W
0411E:  MOVWF  00
04120:  BCF    FF2.6
04122:  BCF    FF2.7
04124:  MOVLB  F
04126:  MOVLW  55
04128:  MOVWF  FA7
0412A:  MOVLW  AA
0412C:  MOVWF  FA7
0412E:  BSF    FA6.1
04130:  BTFSC  FA6.1
04132:  BRA    4130
04134:  BCF    FA6.2
04136:  MOVF   00,W
04138:  IORWF  FF2,F
....................       delay_ms(10); 
0413A:  MOVLW  0A
0413C:  MOVLB  6
0413E:  MOVWF  xDC
04140:  MOVLB  0
04142:  CALL   2142
....................       cerroSucio=OFF; 
04146:  BCF    xFB.2
04148:  MOVLB  1
....................    } 
....................    if(cerroLimpioInt>1){ 
0414A:  MOVF   xFE,W
0414C:  SUBLW  01
0414E:  BC    418E
....................       cerroLimpioInt=0; 
04150:  CLRF   xFE
....................       write_eeprom(47,0); 
04152:  CLRF   FAA
04154:  MOVLW  2F
04156:  MOVWF  FA9
04158:  CLRF   FA8
0415A:  BCF    FA6.6
0415C:  BCF    FA6.7
0415E:  BSF    FA6.2
04160:  MOVF   FF2,W
04162:  MOVWF  00
04164:  BCF    FF2.6
04166:  BCF    FF2.7
04168:  MOVLB  F
0416A:  MOVLW  55
0416C:  MOVWF  FA7
0416E:  MOVLW  AA
04170:  MOVWF  FA7
04172:  BSF    FA6.1
04174:  BTFSC  FA6.1
04176:  BRA    4174
04178:  BCF    FA6.2
0417A:  MOVF   00,W
0417C:  IORWF  FF2,F
....................       delay_ms(10); 
0417E:  MOVLW  0A
04180:  MOVLB  6
04182:  MOVWF  xDC
04184:  MOVLB  0
04186:  CALL   2142
....................       cerroLimpio=OFF; 
0418A:  BCF    xFB.3
0418C:  MOVLB  1
....................    } 
....................    if(cerroSucioInt==1) 
0418E:  DECFSZ xFD,W
04190:  BRA    4198
....................       cerroSucio=ON; 
04192:  MOVLB  0
04194:  BSF    xFB.2
04196:  MOVLB  1
....................    if(cerroSucioInt==0) 
04198:  MOVF   xFD,F
0419A:  BNZ   41A2
....................       cerroSucio=OFF;    
0419C:  MOVLB  0
0419E:  BCF    xFB.2
041A0:  MOVLB  1
....................    if(cerroLimpioInt==1) 
041A2:  DECFSZ xFE,W
041A4:  BRA    41AC
....................       cerroLimpio=ON; 
041A6:  MOVLB  0
041A8:  BSF    xFB.3
041AA:  MOVLB  1
....................    if(cerroLimpioInt==0) 
041AC:  MOVF   xFE,F
041AE:  BNZ   41B6
....................       cerroLimpio=OFF;       
041B0:  MOVLB  0
041B2:  BCF    xFB.3
041B4:  MOVLB  1
.................... } 
041B6:  MOVLB  0
041B8:  GOTO   7E56 (RETURN)
....................  
.................... void LeeDisplay(void){ 
....................    if(Dato_Exitoso==5){ 
*
05272:  MOVLB  2
05274:  MOVF   x6D,W
05276:  SUBLW  05
05278:  BTFSS  FD8.2
0527A:  BRA    545C
....................          RX_Buffer[0]=RX_Buffer2[0]; 
0527C:  MOVFF  3C,31
....................          RX_Buffer[1]=RX_Buffer2[1]; 
05280:  MOVFF  3D,32
....................          RX_Buffer[2]=RX_Buffer2[2]; 
05284:  MOVFF  3E,33
....................          RX_Buffer[3]=RX_Buffer2[3]; 
05288:  MOVFF  3F,34
....................          RX_Buffer[4]=RX_Buffer2[4]; 
0528C:  MOVFF  40,35
....................          RX_Buffer[5]=RX_Buffer2[5]; 
05290:  MOVFF  41,36
....................          RX_Buffer[6]=RX_Buffer2[6]; 
05294:  MOVFF  42,37
....................          RX_Buffer[7]=RX_Buffer2[7]; 
05298:  MOVFF  43,38
....................          RX_Buffer[8]=RX_Buffer2[8]; 
0529C:  MOVFF  44,39
....................          RX_Buffer[9]=RX_Buffer2[9]; 
052A0:  MOVFF  45,3A
....................           
....................       if(RX_Buffer[3]==0x01){// Pregunta por la pagina en la que esta el display,01 es Contrasea de Acceso 
052A4:  DECFSZ 34,W
052A6:  BRA    52B6
....................          Menu=0; 
052A8:  CLRF   x70
....................          if(MenuAntt!=Menu) 
052AA:  MOVF   x70,W
052AC:  SUBWF  x72,W
052AE:  BZ    52B4
....................             MenuAntt=Menu; 
052B0:  MOVFF  270,272
....................       }else if(RX_Buffer[3]==0x02){//02 es Ciclos Fijos 
052B4:  BRA    545C
052B6:  MOVF   34,W
052B8:  SUBLW  02
052BA:  BNZ   52CC
....................          Menu=1; 
052BC:  MOVLW  01
052BE:  MOVWF  x70
....................          if(MenuAntt!=Menu) 
052C0:  MOVF   x70,W
052C2:  SUBWF  x72,W
052C4:  BZ    52CA
....................             MenuAntt=Menu; 
052C6:  MOVFF  270,272
....................       }else if(RX_Buffer[3]==0x03){//03 es Tiempo Esterilizacion 
052CA:  BRA    545C
052CC:  MOVF   34,W
052CE:  SUBLW  03
052D0:  BNZ   52E2
....................          Menu=2; 
052D2:  MOVLW  02
052D4:  MOVWF  x70
....................          if(MenuAntt!=Menu) 
052D6:  MOVF   x70,W
052D8:  SUBWF  x72,W
052DA:  BZ    52E0
....................             MenuAntt=Menu; 
052DC:  MOVFF  270,272
....................       }else if(RX_Buffer[3]==0x04){//04 es Tiempo de Secado 
052E0:  BRA    545C
052E2:  MOVF   34,W
052E4:  SUBLW  04
052E6:  BNZ   52F8
....................          Menu=3; 
052E8:  MOVLW  03
052EA:  MOVWF  x70
....................          if(MenuAntt!=Menu) 
052EC:  MOVF   x70,W
052EE:  SUBWF  x72,W
052F0:  BZ    52F6
....................             MenuAntt=Menu; 
052F2:  MOVFF  270,272
....................       }else if(RX_Buffer[3]==0x05){//05 es Temperatura 
052F6:  BRA    545C
052F8:  MOVF   34,W
052FA:  SUBLW  05
052FC:  BNZ   530E
....................          Menu=4; 
052FE:  MOVLW  04
05300:  MOVWF  x70
....................          if(MenuAntt!=Menu) 
05302:  MOVF   x70,W
05304:  SUBWF  x72,W
05306:  BZ    530C
....................             MenuAntt=Menu; 
05308:  MOVFF  270,272
....................       }else if(RX_Buffer[3]==0x06){//06 es Nivel de Vacio 
0530C:  BRA    545C
0530E:  MOVF   34,W
05310:  SUBLW  06
05312:  BNZ   5324
....................          Menu=5; 
05314:  MOVLW  05
05316:  MOVWF  x70
....................          if(MenuAntt!=Menu) 
05318:  MOVF   x70,W
0531A:  SUBWF  x72,W
0531C:  BZ    5322
....................             MenuAntt=Menu; 
0531E:  MOVFF  270,272
....................       }else if(RX_Buffer[3]==0x07){//07 es Test de Componentes 
05322:  BRA    545C
05324:  MOVF   34,W
05326:  SUBLW  07
05328:  BNZ   533A
....................          Menu=6; 
0532A:  MOVLW  06
0532C:  MOVWF  x70
....................          if(MenuAntt!=Menu) 
0532E:  MOVF   x70,W
05330:  SUBWF  x72,W
05332:  BZ    5338
....................             MenuAntt=Menu; 
05334:  MOVFF  270,272
....................       }else if(RX_Buffer[3]==0x08){//08 es Fecha y hora 
05338:  BRA    545C
0533A:  MOVF   34,W
0533C:  SUBLW  08
0533E:  BNZ   5350
....................          Menu=7; 
05340:  MOVLW  07
05342:  MOVWF  x70
....................          if(MenuAntt!=Menu) 
05344:  MOVF   x70,W
05346:  SUBWF  x72,W
05348:  BZ    534E
....................             MenuAntt=Menu; 
0534A:  MOVFF  270,272
....................       }else if(RX_Buffer[3]==0x09){//09 es Ciclos Personalizados 
0534E:  BRA    545C
05350:  MOVF   34,W
05352:  SUBLW  09
05354:  BNZ   5366
....................          Menu=8; 
05356:  MOVLW  08
05358:  MOVWF  x70
....................          if(MenuAntt!=Menu) 
0535A:  MOVF   x70,W
0535C:  SUBWF  x72,W
0535E:  BZ    5364
....................             MenuAntt=Menu; 
05360:  MOVFF  270,272
....................       }else if(RX_Buffer[3]==0x0a){//0a es Pulsos de Vacio 
05364:  BRA    545C
05366:  MOVF   34,W
05368:  SUBLW  0A
0536A:  BNZ   537C
....................          Menu=9; 
0536C:  MOVLW  09
0536E:  MOVWF  x70
....................          if(MenuAntt!=Menu) 
05370:  MOVF   x70,W
05372:  SUBWF  x72,W
05374:  BZ    537A
....................             MenuAntt=Menu; 
05376:  MOVFF  270,272
....................       }else if(RX_Buffer[3]==0x0b){//0b es Usuarios 
0537A:  BRA    545C
0537C:  MOVF   34,W
0537E:  SUBLW  0B
05380:  BNZ   5392
....................          Menu=10; 
05382:  MOVLW  0A
05384:  MOVWF  x70
....................          if(MenuAntt!=Menu) 
05386:  MOVF   x70,W
05388:  SUBWF  x72,W
0538A:  BZ    5390
....................             MenuAntt=Menu; 
0538C:  MOVFF  270,272
....................       }else if(RX_Buffer[3]==0x0c){//0c es Configuraciones 
05390:  BRA    545C
05392:  MOVF   34,W
05394:  SUBLW  0C
05396:  BNZ   53A8
....................          Menu=11; 
05398:  MOVLW  0B
0539A:  MOVWF  x70
....................          if(MenuAntt!=Menu) 
0539C:  MOVF   x70,W
0539E:  SUBWF  x72,W
053A0:  BZ    53A6
....................             MenuAntt=Menu; 
053A2:  MOVFF  270,272
....................       }else if(RX_Buffer[3]==0x0d){//0d es Ciclos 
053A6:  BRA    545C
053A8:  MOVF   34,W
053AA:  SUBLW  0D
053AC:  BNZ   53BE
....................          Menu=12; 
053AE:  MOVLW  0C
053B0:  MOVWF  x70
....................          if(MenuAntt!=Menu) 
053B2:  MOVF   x70,W
053B4:  SUBWF  x72,W
053B6:  BZ    53BC
....................             MenuAntt=Menu; 
053B8:  MOVFF  270,272
....................       }else if(RX_Buffer[3]==0x0e){//0d es Activacion de Ciclos 
053BC:  BRA    545C
053BE:  MOVF   34,W
053C0:  SUBLW  0E
053C2:  BNZ   53D4
....................          Menu=14; 
053C4:  MOVLW  0E
053C6:  MOVWF  x70
....................          if(MenuAntt!=Menu) 
053C8:  MOVF   x70,W
053CA:  SUBWF  x72,W
053CC:  BZ    53D2
....................             MenuAntt=Menu; 
053CE:  MOVFF  270,272
....................       }else if(RX_Buffer[3]==0x10){//10 es Nivel de Desfogue 
053D2:  BRA    545C
053D4:  MOVF   34,W
053D6:  SUBLW  10
053D8:  BNZ   53EA
....................          Menu=13; 
053DA:  MOVLW  0D
053DC:  MOVWF  x70
....................          if(MenuAntt!=Menu) 
053DE:  MOVF   x70,W
053E0:  SUBWF  x72,W
053E2:  BZ    53E8
....................             MenuAntt=Menu; 
053E4:  MOVFF  270,272
....................       }else if(RX_Buffer[3]==0x0f){//0f es Recibe caracteres de contrasea desde display 
053E8:  BRA    545C
053EA:  MOVF   34,W
053EC:  SUBLW  0F
053EE:  BNZ   53F2
....................           
....................       }else if(RX_Buffer[3]==0x1a){//1a es Menu de Funcionamiento 
053F0:  BRA    545C
053F2:  MOVF   34,W
053F4:  SUBLW  1A
053F6:  BNZ   5408
....................          Menu=20; 
053F8:  MOVLW  14
053FA:  MOVWF  x70
....................          if(MenuAntt!=Menu) 
053FC:  MOVF   x70,W
053FE:  SUBWF  x72,W
05400:  BZ    5406
....................             MenuAntt=Menu; 
05402:  MOVFF  270,272
....................       }else if(RX_Buffer[3]==0x1b){//1b es Menu de clave correcta 
05406:  BRA    545C
05408:  MOVF   34,W
0540A:  SUBLW  1B
0540C:  BNZ   541E
....................          Menu=15; 
0540E:  MOVLW  0F
05410:  MOVWF  x70
....................          if(MenuAntt!=Menu) 
05412:  MOVF   x70,W
05414:  SUBWF  x72,W
05416:  BZ    541C
....................             MenuAntt=Menu; 
05418:  MOVFF  270,272
....................       }else if(RX_Buffer[3]==0x1c){//1c es Menu de clave incorrecta 
0541C:  BRA    545C
0541E:  MOVF   34,W
05420:  SUBLW  1C
05422:  BNZ   5434
....................          Menu=16; 
05424:  MOVLW  10
05426:  MOVWF  x70
....................          if(MenuAntt!=Menu) 
05428:  MOVF   x70,W
0542A:  SUBWF  x72,W
0542C:  BZ    5432
....................             MenuAntt=Menu; 
0542E:  MOVFF  270,272
....................       }else if(RX_Buffer[3]==0x2c){//2c es Menu de Configuracion de Parametros 
05432:  BRA    545C
05434:  MOVF   34,W
05436:  SUBLW  2C
05438:  BNZ   544A
....................          Menu=100; 
0543A:  MOVLW  64
0543C:  MOVWF  x70
....................          if(MenuAntt!=Menu) 
0543E:  MOVF   x70,W
05440:  SUBWF  x72,W
05442:  BZ    5448
....................             MenuAntt=Menu; 
05444:  MOVFF  270,272
....................       }else if(RX_Buffer[3]==0xcc){//cc es Menu de Bienvenida 
05448:  BRA    545C
0544A:  MOVF   34,W
0544C:  SUBLW  CC
0544E:  BNZ   545C
....................          Menu=240; 
05450:  MOVLW  F0
05452:  MOVWF  x70
....................          if(MenuAntt!=240) 
05454:  MOVF   x72,W
05456:  SUBLW  F0
05458:  BZ    545C
....................             reset_cpu(); 
0545A:  RESET
....................       } 
....................    } 
.................... } 
0545C:  MOVLB  0
0545E:  GOTO   7FB2 (RETURN)
....................  
.................... void ConfiguraCiclo(int8 segest,minest,segsec,minsec,liquidos,ciclo,temperatura,pulsos,nvacio,fug){ 
....................    sEstp=segest; 
*
05D58:  MOVFF  6D2,125
....................    mEstp=minest; 
05D5C:  MOVFF  6D3,126
....................    sSecp=segsec; 
05D60:  MOVFF  6D4,127
....................    mSecp=minsec; 
05D64:  MOVFF  6D5,128
....................    Setpoint=temperatura;                
05D68:  MOVFF  6D8,280
....................    tiempo_secado=0; 
05D6C:  MOVLB  2
05D6E:  CLRF   x84
....................    desfoguelento=liquidos; 
05D70:  MOVLB  1
05D72:  BCF    x0A.3
05D74:  MOVLB  6
05D76:  BTFSS  xD6.0
05D78:  BRA    5D80
05D7A:  MOVLB  1
05D7C:  BSF    x0A.3
05D7E:  MOVLB  6
....................    CicloSeleccionado=ciclo; 
05D80:  MOVFF  6D7,276
....................    sEst=sEstp; 
05D84:  MOVFF  125,121
....................    mEst=mEstp; 
05D88:  MOVFF  126,122
....................    sSec=sSecp; 
05D8C:  MOVFF  127,123
....................    mSec=mSecp; 
05D90:  MOVFF  128,124
....................    CantidadPulsos=pulsos; 
05D94:  MOVLB  2
05D96:  CLRF   x79
05D98:  MOVFF  6D9,278
....................    NivelVacio=nvacio; 
05D9C:  MOVFF  6DA,2BC
....................    Fugas=fug; 
05DA0:  MOVLB  1
05DA2:  BCF    x07.6
05DA4:  MOVLB  6
05DA6:  BTFSS  xDB.0
05DA8:  BRA    5DB0
05DAA:  MOVLB  1
05DAC:  BSF    x07.6
05DAE:  MOVLB  6
....................    //TiempoVacio=CantidadPulsos*180; 
....................    Imprime=15; 
05DB0:  MOVLW  0F
05DB2:  MOVLB  2
05DB4:  MOVWF  xC7
....................    Envio_Esclavos(); 
05DB6:  MOVLB  0
05DB8:  RCALL  579A
....................    delay_ms(10); 
05DBA:  MOVLW  0A
05DBC:  MOVLB  6
05DBE:  MOVWF  xDC
05DC0:  MOVLB  0
05DC2:  CALL   2142
....................    Imprime=10; 
05DC6:  MOVLW  0A
05DC8:  MOVLB  2
05DCA:  MOVWF  xC7
.................... } 
05DCC:  MOVLB  0
05DCE:  RETLW  00
....................  
.................... void ActivaAlarma(int8 Tipo){ 
....................     
....................    if(tsilencio>12000){ 
*
05B12:  MOVLB  2
05B14:  MOVF   xB2,W
05B16:  SUBLW  2D
05B18:  BC    5B2C
05B1A:  XORLW  FF
05B1C:  BNZ   5B24
05B1E:  MOVF   xB1,W
05B20:  SUBLW  E0
05B22:  BC    5B2C
....................       tsilencio=0; 
05B24:  CLRF   xB2
05B26:  CLRF   xB1
....................       flagSilencio=OFF; 
05B28:  MOVLB  1
05B2A:  BCF    x06.7
....................    } 
....................     
....................    if(Tipo==1){ // Alarma por Error 
05B2C:  MOVLB  6
05B2E:  DECFSZ xCA,W
05B30:  BRA    5B66
....................        
....................       if(!flagSilencio){ 
05B32:  MOVLB  1
05B34:  BTFSC  x06.7
05B36:  BRA    5B5E
....................          flagAlarma=1; 
05B38:  BSF    x06.5
....................          if(tbuzzer>200){ 
05B3A:  MOVLB  2
05B3C:  MOVF   xB0,F
05B3E:  BNZ   5B46
05B40:  MOVF   xAF,W
05B42:  SUBLW  C8
05B44:  BC    5B5A
....................             tbuzzer=0; 
05B46:  CLRF   xB0
05B48:  CLRF   xAF
....................             flagBuzzer=!flagBuzzer; 
05B4A:  MOVLB  1
05B4C:  BTG    x06.6
....................             if(flagBuzzer) 
05B4E:  BTFSS  x06.6
05B50:  BRA    5B56
....................                EstadoBuzzer=ON; 
05B52:  BSF    x06.4
....................             else 
05B54:  BRA    5B58
....................                EstadoBuzzer=OFF; 
05B56:  BCF    x06.4
05B58:  MOVLB  2
....................          } 
....................       }else{ 
05B5A:  BRA    5B62
05B5C:  MOVLB  1
....................          EstadoBuzzer=OFF; 
05B5E:  BCF    x06.4
05B60:  MOVLB  2
....................       } 
....................    }else if(Tipo==2){  
05B62:  BRA    5BA0
05B64:  MOVLB  6
05B66:  MOVF   xCA,W
05B68:  SUBLW  02
05B6A:  BNZ   5BA2
....................       flagAlarma=1; 
05B6C:  MOVLB  1
05B6E:  BSF    x06.5
....................       if(ConteoBuzzer<20){    
05B70:  MOVLB  2
05B72:  MOVF   xAA,W
05B74:  SUBLW  13
05B76:  BNC   5B9A
....................          if(tbuzzer>100){ 
05B78:  MOVF   xB0,F
05B7A:  BNZ   5B82
05B7C:  MOVF   xAF,W
05B7E:  SUBLW  64
05B80:  BC    5B98
....................             tbuzzer=0; 
05B82:  CLRF   xB0
05B84:  CLRF   xAF
....................             flagBuzzer=!flagBuzzer; 
05B86:  MOVLB  1
05B88:  BTG    x06.6
....................             if(flagBuzzer) 
05B8A:  BTFSS  x06.6
05B8C:  BRA    5B92
....................                EstadoBuzzer=ON; 
05B8E:  BSF    x06.4
....................             else 
05B90:  BRA    5B94
....................                EstadoBuzzer=OFF; 
05B92:  BCF    x06.4
....................                 
....................             ConteoBuzzer++;    
05B94:  MOVLB  2
05B96:  INCF   xAA,F
....................          } 
....................       }else{ 
05B98:  BRA    5BA0
....................          EstadoBuzzer=OFF; 
05B9A:  MOVLB  1
05B9C:  BCF    x06.4
05B9E:  MOVLB  2
05BA0:  MOVLB  6
....................       } 
....................    } 
.................... } 
05BA2:  MOVLB  0
05BA4:  RETLW  00
....................  
.................... void ControlaPresion(){ 
....................    if(Setpoint>125){ 
*
0754C:  MOVLB  2
0754E:  MOVF   x80,W
07550:  SUBLW  7D
07552:  BC    75AA
....................       if(PresionPrecamara>=(300-Atmosferica)){ 
07554:  MOVLW  2C
07556:  BSF    FD8.0
07558:  SUBFWB xBD,W
0755A:  MOVWF  00
0755C:  MOVLW  01
0755E:  BTFSS  FD8.0
07560:  DECF   FE8,F
07562:  MOVWF  03
07564:  MOVFF  00,01
07568:  MOVF   03,W
0756A:  SUBWF  x94,W
0756C:  BNC   7580
0756E:  BNZ   7576
07570:  MOVF   01,W
07572:  SUBWF  x93,W
07574:  BNC   7580
....................          suministroVapor=OFF; 
07576:  MOVLB  0
07578:  BCF    xF8.1
....................          Precalentamiento=ON; 
0757A:  MOVLB  1
0757C:  BSF    x07.7
0757E:  MOVLB  2
....................       } 
....................       if(PresionPrecamara<(290-Atmosferica)) 
07580:  MOVLW  22
07582:  BSF    FD8.0
07584:  SUBFWB xBD,W
07586:  MOVWF  00
07588:  MOVLW  01
0758A:  BTFSS  FD8.0
0758C:  DECF   FE8,F
0758E:  MOVWF  03
07590:  MOVFF  00,01
07594:  MOVF   x94,W
07596:  SUBWF  03,W
07598:  BNC   75A8
0759A:  BNZ   75A2
0759C:  MOVF   01,W
0759E:  SUBWF  x93,W
075A0:  BC    75A8
....................          suministroVapor=ON; 
075A2:  MOVLB  0
075A4:  BSF    xF8.1
075A6:  MOVLB  2
....................    }else{ 
075A8:  BRA    75D6
....................       if(PresionPrecamara>=(230-Atmosferica)){ 
075AA:  MOVLW  E6
075AC:  BSF    FD8.0
075AE:  SUBFWB xBD,W
075B0:  MOVF   x94,F
075B2:  BNZ   75B8
075B4:  SUBWF  x93,W
075B6:  BNC   75C2
....................          suministroVapor=OFF; 
075B8:  MOVLB  0
075BA:  BCF    xF8.1
....................          Precalentamiento=ON; 
075BC:  MOVLB  1
075BE:  BSF    x07.7
075C0:  MOVLB  2
....................       } 
....................       if(PresionPrecamara<(220-Atmosferica)) 
075C2:  MOVLW  DC
075C4:  BSF    FD8.0
075C6:  SUBFWB xBD,W
075C8:  MOVF   x94,F
075CA:  BNZ   75D6
075CC:  SUBWF  x93,W
075CE:  BC    75D6
....................          suministroVapor=ON; 
075D0:  MOVLB  0
075D2:  BSF    xF8.1
075D4:  MOVLB  2
....................    } 
.................... } 
075D6:  MOVLB  0
075D8:  RETLW  00
....................  
.................... void GuardaDatoEstatico(){ 
*
06CD2:  MOVLB  6
06CD4:  CLRF   xCB
06CD6:  CLRF   xCA
06CD8:  CLRF   xCD
06CDA:  CLRF   xCC
....................    int16 posCiclo=0,cicloMemoria=0; 
....................    posCiclo=Ciclos/200; 
06CDC:  MOVFF  296,6CF
06CE0:  MOVFF  295,6CE
06CE4:  CLRF   xD1
06CE6:  MOVLW  C8
06CE8:  MOVWF  xD0
06CEA:  MOVLB  0
06CEC:  CALL   60E2
06CF0:  MOVFF  02,6CB
06CF4:  MOVFF  01,6CA
....................    cicloMemoria=Ciclos-(posCiclo*200); 
06CF8:  MOVFF  6CB,6D5
06CFC:  MOVFF  6CA,6D4
06D00:  MOVLB  6
06D02:  CLRF   xD7
06D04:  MOVLW  C8
06D06:  MOVWF  xD6
06D08:  MOVLB  0
06D0A:  CALL   25B4
06D0E:  MOVF   01,W
06D10:  MOVLB  2
06D12:  SUBWF  x95,W
06D14:  MOVLB  6
06D16:  MOVWF  xCC
06D18:  MOVF   02,W
06D1A:  MOVLB  2
06D1C:  SUBWFB x96,W
06D1E:  MOVLB  6
06D20:  MOVWF  xCD
....................    if(!disp_Guarda){ 
06D22:  MOVLB  1
06D24:  BTFSC  x05.2
06D26:  BRA    6EC0
....................       write_ext_eeprom(cicloMemoria*320,codigoUsuario); 
06D28:  MOVFF  6CD,6D5
06D2C:  MOVFF  6CC,6D4
06D30:  MOVLW  01
06D32:  MOVLB  6
06D34:  MOVWF  xD7
06D36:  MOVLW  40
06D38:  MOVWF  xD6
06D3A:  MOVLB  0
06D3C:  CALL   25B4
06D40:  MOVFF  02,6CF
06D44:  MOVFF  01,6CE
06D48:  MOVFF  02,6D2
06D4C:  MOVFF  01,6D1
06D50:  MOVFF  2CA,6D3
06D54:  RCALL  6BC0
....................       delay_ms(10); 
06D56:  MOVLW  0A
06D58:  MOVLB  6
06D5A:  MOVWF  xDC
06D5C:  MOVLB  0
06D5E:  CALL   2142
....................       if(!Libre) 
06D62:  MOVLB  1
06D64:  BTFSC  x07.4
06D66:  BRA    6DA2
....................          write_ext_eeprom(1+(cicloMemoria*320),CicloSeleccionado); 
06D68:  MOVFF  6CD,6D5
06D6C:  MOVFF  6CC,6D4
06D70:  MOVLW  01
06D72:  MOVLB  6
06D74:  MOVWF  xD7
06D76:  MOVLW  40
06D78:  MOVWF  xD6
06D7A:  MOVLB  0
06D7C:  CALL   25B4
06D80:  MOVFF  02,03
06D84:  MOVF   01,W
06D86:  ADDLW  01
06D88:  MOVLB  6
06D8A:  MOVWF  xCE
06D8C:  MOVLW  00
06D8E:  ADDWFC 02,W
06D90:  MOVWF  xCF
06D92:  MOVWF  xD2
06D94:  MOVFF  6CE,6D1
06D98:  MOVFF  276,6D3
06D9C:  MOVLB  0
06D9E:  RCALL  6BC0
....................       else 
06DA0:  BRA    6DE4
....................          write_ext_eeprom(1+(cicloMemoria*320),CicloLibre+10); 
06DA2:  MOVFF  6CD,6D5
06DA6:  MOVFF  6CC,6D4
06DAA:  MOVLW  01
06DAC:  MOVLB  6
06DAE:  MOVWF  xD7
06DB0:  MOVLW  40
06DB2:  MOVWF  xD6
06DB4:  MOVLB  0
06DB6:  CALL   25B4
06DBA:  MOVFF  02,03
06DBE:  MOVF   01,W
06DC0:  ADDLW  01
06DC2:  MOVLB  6
06DC4:  MOVWF  xCE
06DC6:  MOVLW  00
06DC8:  ADDWFC 02,W
06DCA:  MOVWF  xCF
06DCC:  MOVLW  0A
06DCE:  MOVLB  2
06DD0:  ADDWF  x51,W
06DD2:  MOVLB  6
06DD4:  MOVWF  xD0
06DD6:  MOVFF  6CF,6D2
06DDA:  MOVFF  6CE,6D1
06DDE:  MOVWF  xD3
06DE0:  MOVLB  0
06DE2:  RCALL  6BC0
....................       delay_ms(10); 
06DE4:  MOVLW  0A
06DE6:  MOVLB  6
06DE8:  MOVWF  xDC
06DEA:  MOVLB  0
06DEC:  CALL   2142
....................       write_ext_eeprom(2+(cicloMemoria*320),Dia); 
06DF0:  MOVFF  6CD,6D5
06DF4:  MOVFF  6CC,6D4
06DF8:  MOVLW  01
06DFA:  MOVLB  6
06DFC:  MOVWF  xD7
06DFE:  MOVLW  40
06E00:  MOVWF  xD6
06E02:  MOVLB  0
06E04:  CALL   25B4
06E08:  MOVFF  02,03
06E0C:  MOVF   01,W
06E0E:  ADDLW  02
06E10:  MOVLB  6
06E12:  MOVWF  xCE
06E14:  MOVLW  00
06E16:  ADDWFC 02,W
06E18:  MOVWF  xCF
06E1A:  MOVWF  xD2
06E1C:  MOVFF  6CE,6D1
06E20:  MOVFF  2B5,6D3
06E24:  MOVLB  0
06E26:  RCALL  6BC0
....................       delay_ms(10); 
06E28:  MOVLW  0A
06E2A:  MOVLB  6
06E2C:  MOVWF  xDC
06E2E:  MOVLB  0
06E30:  CALL   2142
....................       write_ext_eeprom(3+(cicloMemoria*320),Mes); 
06E34:  MOVFF  6CD,6D5
06E38:  MOVFF  6CC,6D4
06E3C:  MOVLW  01
06E3E:  MOVLB  6
06E40:  MOVWF  xD7
06E42:  MOVLW  40
06E44:  MOVWF  xD6
06E46:  MOVLB  0
06E48:  CALL   25B4
06E4C:  MOVFF  02,03
06E50:  MOVF   01,W
06E52:  ADDLW  03
06E54:  MOVLB  6
06E56:  MOVWF  xCE
06E58:  MOVLW  00
06E5A:  ADDWFC 02,W
06E5C:  MOVWF  xCF
06E5E:  MOVWF  xD2
06E60:  MOVFF  6CE,6D1
06E64:  MOVFF  2B4,6D3
06E68:  MOVLB  0
06E6A:  RCALL  6BC0
....................       delay_ms(10); 
06E6C:  MOVLW  0A
06E6E:  MOVLB  6
06E70:  MOVWF  xDC
06E72:  MOVLB  0
06E74:  CALL   2142
....................       write_ext_eeprom(4+(cicloMemoria*320),Year); 
06E78:  MOVFF  6CD,6D5
06E7C:  MOVFF  6CC,6D4
06E80:  MOVLW  01
06E82:  MOVLB  6
06E84:  MOVWF  xD7
06E86:  MOVLW  40
06E88:  MOVWF  xD6
06E8A:  MOVLB  0
06E8C:  CALL   25B4
06E90:  MOVFF  02,03
06E94:  MOVF   01,W
06E96:  ADDLW  04
06E98:  MOVLB  6
06E9A:  MOVWF  xCE
06E9C:  MOVLW  00
06E9E:  ADDWFC 02,W
06EA0:  MOVWF  xCF
06EA2:  MOVWF  xD2
06EA4:  MOVFF  6CE,6D1
06EA8:  MOVFF  2B3,6D3
06EAC:  MOVLB  0
06EAE:  RCALL  6BC0
....................       delay_ms(10);  
06EB0:  MOVLW  0A
06EB2:  MOVLB  6
06EB4:  MOVWF  xDC
06EB6:  MOVLB  0
06EB8:  CALL   2142
....................       disp_Guarda=1; 
06EBC:  MOVLB  1
06EBE:  BSF    x05.2
....................    }    
.................... } 
06EC0:  MOVLB  0
06EC2:  GOTO   CAAE (RETURN)
....................  
.................... void GuardaDatoCiclo(){ 
*
0710C:  MOVLB  6
0710E:  CLRF   xCB
07110:  CLRF   xCA
07112:  CLRF   xCD
07114:  CLRF   xCC
....................    int16 posCiclo=0,cicloMemoria=0; 
....................    posCiclo=Ciclos/200; 
07116:  MOVFF  296,6CF
0711A:  MOVFF  295,6CE
0711E:  CLRF   xD1
07120:  MOVLW  C8
07122:  MOVWF  xD0
07124:  MOVLB  0
07126:  CALL   60E2
0712A:  MOVFF  02,6CB
0712E:  MOVFF  01,6CA
....................    if(!Ciclo){ 
07132:  MOVLB  1
07134:  BTFSC  x05.3
07136:  BRA    74B6
....................       cicloMemoria=Ciclos-(posCiclo*200); 
07138:  MOVFF  6CB,6D5
0713C:  MOVFF  6CA,6D4
07140:  MOVLB  6
07142:  CLRF   xD7
07144:  MOVLW  C8
07146:  MOVWF  xD6
07148:  MOVLB  0
0714A:  CALL   25B4
0714E:  MOVF   01,W
07150:  MOVLB  2
07152:  SUBWF  x95,W
07154:  MOVLB  6
07156:  MOVWF  xCC
07158:  MOVF   02,W
0715A:  MOVLB  2
0715C:  SUBWFB x96,W
0715E:  MOVLB  6
07160:  MOVWF  xCD
....................       write_ext_eeprom(5+(cicloMemoria*320)+(posicionDato*9),(int8)Temperatura); 
07162:  MOVFF  6CD,6D5
07166:  MOVFF  6CC,6D4
0716A:  MOVLW  01
0716C:  MOVWF  xD7
0716E:  MOVLW  40
07170:  MOVWF  xD6
07172:  MOVLB  0
07174:  CALL   25B4
07178:  MOVFF  02,03
0717C:  MOVF   01,W
0717E:  ADDLW  05
07180:  MOVLB  6
07182:  MOVWF  xCE
07184:  MOVLW  00
07186:  ADDWFC 02,W
07188:  MOVWF  xCF
0718A:  MOVLB  2
0718C:  MOVF   xAB,W
0718E:  MULLW  09
07190:  MOVF   FF3,W
07192:  MOVLB  6
07194:  ADDWF  xCE,F
07196:  MOVLW  00
07198:  ADDWFC xCF,F
0719A:  MOVFF  23E,6DF
0719E:  MOVFF  23D,6DE
071A2:  MOVFF  23C,6DD
071A6:  MOVFF  23B,6DC
071AA:  MOVLB  0
071AC:  CALL   4E58
071B0:  MOVFF  01,6D0
071B4:  MOVFF  6CF,6D2
071B8:  MOVFF  6CE,6D1
071BC:  MOVFF  01,6D3
071C0:  RCALL  6BC0
....................       delay_ms(10); 
071C2:  MOVLW  0A
071C4:  MOVLB  6
071C6:  MOVWF  xDC
071C8:  MOVLB  0
071CA:  CALL   2142
....................       write_ext_eeprom(6+(cicloMemoria*320)+(posicionDato*9),extraeDecimal(Temperatura)); 
071CE:  MOVFF  6CD,6D5
071D2:  MOVFF  6CC,6D4
071D6:  MOVLW  01
071D8:  MOVLB  6
071DA:  MOVWF  xD7
071DC:  MOVLW  40
071DE:  MOVWF  xD6
071E0:  MOVLB  0
071E2:  CALL   25B4
071E6:  MOVFF  02,03
071EA:  MOVF   01,W
071EC:  ADDLW  06
071EE:  MOVLB  6
071F0:  MOVWF  xCE
071F2:  MOVLW  00
071F4:  ADDWFC 02,W
071F6:  MOVWF  xCF
071F8:  MOVLB  2
071FA:  MOVF   xAB,W
071FC:  MULLW  09
071FE:  MOVF   FF3,W
07200:  MOVLB  6
07202:  ADDWF  xCE,F
07204:  MOVLW  00
07206:  ADDWFC xCF,F
07208:  MOVFF  23E,6D3
0720C:  MOVFF  23D,6D2
07210:  MOVFF  23C,6D1
07214:  MOVFF  23B,6D0
07218:  MOVLB  0
0721A:  BRA    7042
0721C:  MOVFF  01,6D0
07220:  MOVFF  6CF,6D2
07224:  MOVFF  6CE,6D1
07228:  MOVFF  01,6D3
0722C:  RCALL  6BC0
....................       delay_ms(10); 
0722E:  MOVLW  0A
07230:  MOVLB  6
07232:  MOVWF  xDC
07234:  MOVLB  0
07236:  CALL   2142
....................       write_ext_eeprom(7+(cicloMemoria*320)+(posicionDato*9),make8(PresionCamara,1)); 
0723A:  MOVFF  6CD,6D5
0723E:  MOVFF  6CC,6D4
07242:  MOVLW  01
07244:  MOVLB  6
07246:  MOVWF  xD7
07248:  MOVLW  40
0724A:  MOVWF  xD6
0724C:  MOVLB  0
0724E:  CALL   25B4
07252:  MOVFF  02,03
07256:  MOVF   01,W
07258:  ADDLW  07
0725A:  MOVLB  6
0725C:  MOVWF  xCE
0725E:  MOVLW  00
07260:  ADDWFC 02,W
07262:  MOVWF  xCF
07264:  MOVLB  2
07266:  MOVF   xAB,W
07268:  MULLW  09
0726A:  MOVF   FF3,W
0726C:  MOVLB  6
0726E:  ADDWF  xCE,F
07270:  MOVLW  00
07272:  ADDWFC xCF,F
07274:  MOVFF  292,6D0
07278:  MOVFF  6CF,6D2
0727C:  MOVFF  6CE,6D1
07280:  MOVFF  292,6D3
07284:  MOVLB  0
07286:  RCALL  6BC0
....................       delay_ms(10); 
07288:  MOVLW  0A
0728A:  MOVLB  6
0728C:  MOVWF  xDC
0728E:  MOVLB  0
07290:  CALL   2142
....................       write_ext_eeprom(8+(cicloMemoria*320)+(posicionDato*9),make8(PresionCamara,0)); 
07294:  MOVFF  6CD,6D5
07298:  MOVFF  6CC,6D4
0729C:  MOVLW  01
0729E:  MOVLB  6
072A0:  MOVWF  xD7
072A2:  MOVLW  40
072A4:  MOVWF  xD6
072A6:  MOVLB  0
072A8:  CALL   25B4
072AC:  MOVFF  02,03
072B0:  MOVF   01,W
072B2:  ADDLW  08
072B4:  MOVLB  6
072B6:  MOVWF  xCE
072B8:  MOVLW  00
072BA:  ADDWFC 02,W
072BC:  MOVWF  xCF
072BE:  MOVLB  2
072C0:  MOVF   xAB,W
072C2:  MULLW  09
072C4:  MOVF   FF3,W
072C6:  MOVLB  6
072C8:  ADDWF  xCE,F
072CA:  MOVLW  00
072CC:  ADDWFC xCF,F
072CE:  MOVFF  291,6D0
072D2:  MOVFF  6CF,6D2
072D6:  MOVFF  6CE,6D1
072DA:  MOVFF  291,6D3
072DE:  MOVLB  0
072E0:  RCALL  6BC0
....................       delay_ms(10); 
072E2:  MOVLW  0A
072E4:  MOVLB  6
072E6:  MOVWF  xDC
072E8:  MOVLB  0
072EA:  CALL   2142
....................       write_ext_eeprom(9+(cicloMemoria*320)+(posicionDato*9),make8(PresionPreCamara,1)); 
072EE:  MOVFF  6CD,6D5
072F2:  MOVFF  6CC,6D4
072F6:  MOVLW  01
072F8:  MOVLB  6
072FA:  MOVWF  xD7
072FC:  MOVLW  40
072FE:  MOVWF  xD6
07300:  MOVLB  0
07302:  CALL   25B4
07306:  MOVFF  02,03
0730A:  MOVF   01,W
0730C:  ADDLW  09
0730E:  MOVLB  6
07310:  MOVWF  xCE
07312:  MOVLW  00
07314:  ADDWFC 02,W
07316:  MOVWF  xCF
07318:  MOVLB  2
0731A:  MOVF   xAB,W
0731C:  MULLW  09
0731E:  MOVF   FF3,W
07320:  MOVLB  6
07322:  ADDWF  xCE,F
07324:  MOVLW  00
07326:  ADDWFC xCF,F
07328:  MOVFF  294,6D0
0732C:  MOVFF  6CF,6D2
07330:  MOVFF  6CE,6D1
07334:  MOVFF  294,6D3
07338:  MOVLB  0
0733A:  RCALL  6BC0
....................       delay_ms(10); 
0733C:  MOVLW  0A
0733E:  MOVLB  6
07340:  MOVWF  xDC
07342:  MOVLB  0
07344:  CALL   2142
....................       write_ext_eeprom(10+(cicloMemoria*320)+(posicionDato*9),make8(PresionPreCamara,0)); 
07348:  MOVFF  6CD,6D5
0734C:  MOVFF  6CC,6D4
07350:  MOVLW  01
07352:  MOVLB  6
07354:  MOVWF  xD7
07356:  MOVLW  40
07358:  MOVWF  xD6
0735A:  MOVLB  0
0735C:  CALL   25B4
07360:  MOVFF  02,03
07364:  MOVF   01,W
07366:  ADDLW  0A
07368:  MOVLB  6
0736A:  MOVWF  xCE
0736C:  MOVLW  00
0736E:  ADDWFC 02,W
07370:  MOVWF  xCF
07372:  MOVLB  2
07374:  MOVF   xAB,W
07376:  MULLW  09
07378:  MOVF   FF3,W
0737A:  MOVLB  6
0737C:  ADDWF  xCE,F
0737E:  MOVLW  00
07380:  ADDWFC xCF,F
07382:  MOVFF  293,6D0
07386:  MOVFF  6CF,6D2
0738A:  MOVFF  6CE,6D1
0738E:  MOVFF  293,6D3
07392:  MOVLB  0
07394:  RCALL  6BC0
....................       delay_ms(10); 
07396:  MOVLW  0A
07398:  MOVLB  6
0739A:  MOVWF  xDC
0739C:  MOVLB  0
0739E:  CALL   2142
....................       write_ext_eeprom(11+(cicloMemoria*320)+(posicionDato*9),Hora); 
073A2:  MOVFF  6CD,6D5
073A6:  MOVFF  6CC,6D4
073AA:  MOVLW  01
073AC:  MOVLB  6
073AE:  MOVWF  xD7
073B0:  MOVLW  40
073B2:  MOVWF  xD6
073B4:  MOVLB  0
073B6:  CALL   25B4
073BA:  MOVFF  02,03
073BE:  MOVF   01,W
073C0:  ADDLW  0B
073C2:  MOVLB  6
073C4:  MOVWF  xCE
073C6:  MOVLW  00
073C8:  ADDWFC 02,W
073CA:  MOVWF  xCF
073CC:  MOVLB  2
073CE:  MOVF   xAB,W
073D0:  MULLW  09
073D2:  MOVF   FF3,W
073D4:  MOVLB  6
073D6:  ADDWF  xCE,F
073D8:  MOVLW  00
073DA:  ADDWFC xCF,F
073DC:  MOVFF  6CF,6D2
073E0:  MOVFF  6CE,6D1
073E4:  MOVFF  2B6,6D3
073E8:  MOVLB  0
073EA:  CALL   6BC0
....................       delay_ms(10); 
073EE:  MOVLW  0A
073F0:  MOVLB  6
073F2:  MOVWF  xDC
073F4:  MOVLB  0
073F6:  CALL   2142
....................       write_ext_eeprom(12+(cicloMemoria*320)+(posicionDato*9),Minuto); 
073FA:  MOVFF  6CD,6D5
073FE:  MOVFF  6CC,6D4
07402:  MOVLW  01
07404:  MOVLB  6
07406:  MOVWF  xD7
07408:  MOVLW  40
0740A:  MOVWF  xD6
0740C:  MOVLB  0
0740E:  CALL   25B4
07412:  MOVFF  02,03
07416:  MOVF   01,W
07418:  ADDLW  0C
0741A:  MOVLB  6
0741C:  MOVWF  xCE
0741E:  MOVLW  00
07420:  ADDWFC 02,W
07422:  MOVWF  xCF
07424:  MOVLB  2
07426:  MOVF   xAB,W
07428:  MULLW  09
0742A:  MOVF   FF3,W
0742C:  MOVLB  6
0742E:  ADDWF  xCE,F
07430:  MOVLW  00
07432:  ADDWFC xCF,F
07434:  MOVFF  6CF,6D2
07438:  MOVFF  6CE,6D1
0743C:  MOVFF  2B7,6D3
07440:  MOVLB  0
07442:  CALL   6BC0
....................       delay_ms(10); 
07446:  MOVLW  0A
07448:  MOVLB  6
0744A:  MOVWF  xDC
0744C:  MOVLB  0
0744E:  CALL   2142
....................       write_ext_eeprom(13+(cicloMemoria*320)+(posicionDato*9),codigoAlarma); 
07452:  MOVFF  6CD,6D5
07456:  MOVFF  6CC,6D4
0745A:  MOVLW  01
0745C:  MOVLB  6
0745E:  MOVWF  xD7
07460:  MOVLW  40
07462:  MOVWF  xD6
07464:  MOVLB  0
07466:  CALL   25B4
0746A:  MOVFF  02,03
0746E:  MOVF   01,W
07470:  ADDLW  0D
07472:  MOVLB  6
07474:  MOVWF  xCE
07476:  MOVLW  00
07478:  ADDWFC 02,W
0747A:  MOVWF  xCF
0747C:  MOVLB  2
0747E:  MOVF   xAB,W
07480:  MULLW  09
07482:  MOVF   FF3,W
07484:  MOVLB  6
07486:  ADDWF  xCE,F
07488:  MOVLW  00
0748A:  ADDWFC xCF,F
0748C:  MOVFF  6CF,6D2
07490:  MOVFF  6CE,6D1
07494:  MOVFF  2AC,6D3
07498:  MOVLB  0
0749A:  CALL   6BC0
....................       delay_ms(10); 
0749E:  MOVLW  0A
074A0:  MOVLB  6
074A2:  MOVWF  xDC
074A4:  MOVLB  0
074A6:  CALL   2142
....................     
....................       if(posicionDato<35) 
074AA:  MOVLB  2
074AC:  MOVF   xAB,W
074AE:  SUBLW  22
074B0:  BNC   74B4
....................          ++posicionDato; 
074B2:  INCF   xAB,F
074B4:  MOVLB  1
....................    } 
.................... } 
074B6:  MOVLB  0
074B8:  RETLW  00
....................  
.................... void incrementaCiclos(){ 
....................    if(!Ciclo){ 
074BA:  MOVLB  1
074BC:  BTFSC  x05.3
074BE:  BRA    7548
....................       Ciclo=ON; 
074C0:  BSF    x05.3
....................       Ciclos++; 
074C2:  MOVLB  2
074C4:  INCF   x95,F
074C6:  BTFSC  FD8.2
074C8:  INCF   x96,F
....................       CiclosL=make8(Ciclos,0); 
074CA:  MOVFF  295,274
....................       CiclosH=make8(Ciclos,1); 
074CE:  MOVFF  296,275
....................       write_eeprom(37,CiclosL); 
074D2:  CLRF   FAA
074D4:  MOVLW  25
074D6:  MOVWF  FA9
074D8:  MOVFF  274,FA8
074DC:  BCF    FA6.6
074DE:  BCF    FA6.7
074E0:  BSF    FA6.2
074E2:  MOVF   FF2,W
074E4:  MOVWF  00
074E6:  BCF    FF2.6
074E8:  BCF    FF2.7
074EA:  MOVLB  F
074EC:  MOVLW  55
074EE:  MOVWF  FA7
074F0:  MOVLW  AA
074F2:  MOVWF  FA7
074F4:  BSF    FA6.1
074F6:  BTFSC  FA6.1
074F8:  BRA    74F6
074FA:  BCF    FA6.2
074FC:  MOVF   00,W
074FE:  IORWF  FF2,F
....................       delay_ms(20); 
07500:  MOVLW  14
07502:  MOVLB  6
07504:  MOVWF  xDC
07506:  MOVLB  0
07508:  CALL   2142
....................       write_eeprom(38,CiclosH); 
0750C:  CLRF   FAA
0750E:  MOVLW  26
07510:  MOVWF  FA9
07512:  MOVFF  275,FA8
07516:  BCF    FA6.6
07518:  BCF    FA6.7
0751A:  BSF    FA6.2
0751C:  MOVF   FF2,W
0751E:  MOVWF  00
07520:  BCF    FF2.6
07522:  BCF    FF2.7
07524:  MOVLB  F
07526:  MOVLW  55
07528:  MOVWF  FA7
0752A:  MOVLW  AA
0752C:  MOVWF  FA7
0752E:  BSF    FA6.1
07530:  BTFSC  FA6.1
07532:  BRA    7530
07534:  BCF    FA6.2
07536:  MOVF   00,W
07538:  IORWF  FF2,F
....................       delay_ms(20); 
0753A:  MOVLW  14
0753C:  MOVLB  6
0753E:  MOVWF  xDC
07540:  MOVLB  0
07542:  CALL   2142
07546:  MOVLB  1
....................    } 
.................... } 
07548:  MOVLB  0
0754A:  RETLW  00
....................  
.................... void exportarData(){ 
*
062FA:  MOVLB  6
062FC:  CLRF   xCB
062FE:  CLRF   xCA
06300:  CLRF   xCC
.................... int16 posicion=0; 
.................... int8 tmp=0; 
.................... posicion=40; 
06302:  CLRF   xCB
06304:  MOVLW  28
06306:  MOVWF  xCA
.................... direccion=0xB0; 
06308:  MOVLW  B0
0630A:  MOVLB  0
0630C:  MOVWF  xDE
.................... //Buzzer_on; 
.................... //Inicio de Transmision 
.................... i2c_start();            // Comienzo comunicacin 
0630E:  BSF    F94.4
06310:  MOVLW  05
06312:  MOVWF  00
06314:  DECFSZ 00,F
06316:  BRA    6314
06318:  BSF    F94.3
0631A:  MOVLW  06
0631C:  MOVWF  00
0631E:  DECFSZ 00,F
06320:  BRA    631E
06322:  BCF    F8B.4
06324:  BCF    F94.4
06326:  MOVLW  05
06328:  MOVWF  00
0632A:  DECFSZ 00,F
0632C:  BRA    632A
0632E:  BCF    F8B.3
06330:  BCF    F94.3
.................... i2c_write(direccion);   // Direccin del esclavo en el bus I2C 
06332:  MOVFF  DE,6E0
06336:  CALL   25D6
.................... i2c_write(make8(posicion,0));    // Posicin donde se guardara el dato transmitido 
0633A:  MOVFF  6CA,6CD
0633E:  MOVFF  6CA,6E0
06342:  CALL   25D6
.................... i2c_write(make8(posicion,1));    // Posicin donde se guardara el dato transmitido 
06346:  MOVFF  6CB,6CD
0634A:  MOVFF  6CB,6E0
0634E:  CALL   25D6
.................... i2c_write(0xff);        // Dato a transmitir 
06352:  MOVLW  FF
06354:  MOVLB  6
06356:  MOVWF  xE0
06358:  MOVLB  0
0635A:  CALL   25D6
.................... i2c_stop(); 
0635E:  BCF    F94.4
06360:  NOP   
06362:  BSF    F94.3
06364:  BTFSS  F82.3
06366:  BRA    6364
06368:  MOVLW  05
0636A:  MOVWF  00
0636C:  DECFSZ 00,F
0636E:  BRA    636C
06370:  BRA    6372
06372:  NOP   
06374:  BSF    F94.4
06376:  MOVLW  05
06378:  MOVWF  00
0637A:  DECFSZ 00,F
0637C:  BRA    637A
.................... ++posicion; 
0637E:  MOVLB  6
06380:  INCF   xCA,F
06382:  BTFSC  FD8.2
06384:  INCF   xCB,F
.................... i2c_start();            // Comienzo comunicacin 
06386:  BSF    F94.4
06388:  MOVLW  05
0638A:  MOVWF  00
0638C:  DECFSZ 00,F
0638E:  BRA    638C
06390:  BSF    F94.3
06392:  MOVLW  06
06394:  MOVWF  00
06396:  DECFSZ 00,F
06398:  BRA    6396
0639A:  BCF    F8B.4
0639C:  BCF    F94.4
0639E:  MOVLW  05
063A0:  MOVWF  00
063A2:  DECFSZ 00,F
063A4:  BRA    63A2
063A6:  BCF    F8B.3
063A8:  BCF    F94.3
.................... i2c_write(direccion);   // Direccin del esclavo en el bus I2C 
063AA:  MOVFF  DE,6E0
063AE:  MOVLB  0
063B0:  CALL   25D6
.................... i2c_write(make8(posicion,0));    // Posicin donde se guardara el dato transmitido 
063B4:  MOVFF  6CA,6CD
063B8:  MOVFF  6CA,6E0
063BC:  CALL   25D6
.................... i2c_write(make8(posicion,1));    // Posicin donde se guardara el dato transmitido 
063C0:  MOVFF  6CB,6CD
063C4:  MOVFF  6CB,6E0
063C8:  CALL   25D6
.................... i2c_write(0xff);        // Dato a transmitir 
063CC:  MOVLW  FF
063CE:  MOVLB  6
063D0:  MOVWF  xE0
063D2:  MOVLB  0
063D4:  CALL   25D6
.................... i2c_stop(); 
063D8:  BCF    F94.4
063DA:  NOP   
063DC:  BSF    F94.3
063DE:  BTFSS  F82.3
063E0:  BRA    63DE
063E2:  MOVLW  05
063E4:  MOVWF  00
063E6:  DECFSZ 00,F
063E8:  BRA    63E6
063EA:  BRA    63EC
063EC:  NOP   
063EE:  BSF    F94.4
063F0:  MOVLW  05
063F2:  MOVWF  00
063F4:  DECFSZ 00,F
063F6:  BRA    63F4
.................... ++posicion; 
063F8:  MOVLB  6
063FA:  INCF   xCA,F
063FC:  BTFSC  FD8.2
063FE:  INCF   xCB,F
.................... //Se envian 2 veces ff para indicar que se inicia la transmision. 
....................  
....................    for(i=0;i<5;i++){ 
06400:  MOVLB  2
06402:  CLRF   x73
06404:  MOVF   x73,W
06406:  SUBLW  04
06408:  BNC   64C0
....................       tmp=read_ext_eeprom((cicloVisto*320)+i); 
0640A:  MOVLB  6
0640C:  CLRF   xD5
0640E:  MOVFF  2BB,6D4
06412:  MOVLW  01
06414:  MOVWF  xD7
06416:  MOVLW  40
06418:  MOVWF  xD6
0641A:  MOVLB  0
0641C:  CALL   25B4
06420:  MOVFF  02,6CE
06424:  MOVFF  01,6CD
06428:  MOVLB  2
0642A:  MOVF   x73,W
0642C:  MOVLB  6
0642E:  ADDWF  xCD,F
06430:  MOVLW  00
06432:  ADDWFC xCE,F
06434:  MOVFF  6CE,6D0
06438:  MOVFF  6CD,6CF
0643C:  MOVLB  0
0643E:  CALL   26B6
06442:  MOVFF  01,6CC
....................       //if(tmp>250) 
....................       //   tmp=20; 
....................       i2c_start();            // Comienzo comunicacin 
06446:  BSF    F94.4
06448:  MOVLW  05
0644A:  MOVWF  00
0644C:  DECFSZ 00,F
0644E:  BRA    644C
06450:  BSF    F94.3
06452:  MOVLW  06
06454:  MOVWF  00
06456:  DECFSZ 00,F
06458:  BRA    6456
0645A:  BCF    F8B.4
0645C:  BCF    F94.4
0645E:  MOVLW  05
06460:  MOVWF  00
06462:  DECFSZ 00,F
06464:  BRA    6462
06466:  BCF    F8B.3
06468:  BCF    F94.3
....................       i2c_write(direccion);   // Direccin del esclavo en el bus I2C 
0646A:  MOVFF  DE,6E0
0646E:  CALL   25D6
....................       i2c_write(make8(posicion,0));    // Posicin donde se guardara el dato transmitido 
06472:  MOVFF  6CA,6CD
06476:  MOVFF  6CA,6E0
0647A:  CALL   25D6
....................       i2c_write(make8(posicion,1));    // Posicin donde se guardara el dato transmitido 
0647E:  MOVFF  6CB,6CD
06482:  MOVFF  6CB,6E0
06486:  CALL   25D6
....................       i2c_write(tmp);        // Dato a transmitir 
0648A:  MOVFF  6CC,6E0
0648E:  CALL   25D6
....................       i2c_stop();  
06492:  BCF    F94.4
06494:  NOP   
06496:  BSF    F94.3
06498:  BTFSS  F82.3
0649A:  BRA    6498
0649C:  MOVLW  05
0649E:  MOVWF  00
064A0:  DECFSZ 00,F
064A2:  BRA    64A0
064A4:  BRA    64A6
064A6:  NOP   
064A8:  BSF    F94.4
064AA:  MOVLW  05
064AC:  MOVWF  00
064AE:  DECFSZ 00,F
064B0:  BRA    64AE
....................       ++posicion; 
064B2:  MOVLB  6
064B4:  INCF   xCA,F
064B6:  BTFSC  FD8.2
064B8:  INCF   xCB,F
....................    } 
064BA:  MOVLB  2
064BC:  INCF   x73,F
064BE:  BRA    6404
....................    for(i=0;i<35;i++){//Lee Valores para completar la Tabla 
064C0:  CLRF   x73
064C2:  MOVF   x73,W
064C4:  SUBLW  22
064C6:  BNC   659C
....................       for(j=5;j<14;j++){//Lee Valores para completar la Tabla 
064C8:  MOVLW  05
064CA:  MOVWF  xC9
064CC:  MOVF   xC9,W
064CE:  SUBLW  0D
064D0:  BNC   6598
....................          tmp=read_ext_eeprom((cicloVisto*320)+j+(i*9)); 
064D2:  MOVLB  6
064D4:  CLRF   xD5
064D6:  MOVFF  2BB,6D4
064DA:  MOVLW  01
064DC:  MOVWF  xD7
064DE:  MOVLW  40
064E0:  MOVWF  xD6
064E2:  MOVLB  0
064E4:  CALL   25B4
064E8:  MOVFF  02,6CE
064EC:  MOVFF  01,6CD
064F0:  MOVLB  2
064F2:  MOVF   xC9,W
064F4:  MOVLB  6
064F6:  ADDWF  xCD,F
064F8:  MOVLW  00
064FA:  ADDWFC xCE,F
064FC:  MOVLB  2
064FE:  MOVF   x73,W
06500:  MULLW  09
06502:  MOVF   FF3,W
06504:  MOVLB  6
06506:  ADDWF  xCD,F
06508:  MOVLW  00
0650A:  ADDWFC xCE,F
0650C:  MOVFF  6CE,6D0
06510:  MOVFF  6CD,6CF
06514:  MOVLB  0
06516:  CALL   26B6
0651A:  MOVFF  01,6CC
....................          //if(tmp>250) 
....................          //   tmp=20; 
....................          i2c_start();            // Comienzo comunicacin 
0651E:  BSF    F94.4
06520:  MOVLW  05
06522:  MOVWF  00
06524:  DECFSZ 00,F
06526:  BRA    6524
06528:  BSF    F94.3
0652A:  MOVLW  06
0652C:  MOVWF  00
0652E:  DECFSZ 00,F
06530:  BRA    652E
06532:  BCF    F8B.4
06534:  BCF    F94.4
06536:  MOVLW  05
06538:  MOVWF  00
0653A:  DECFSZ 00,F
0653C:  BRA    653A
0653E:  BCF    F8B.3
06540:  BCF    F94.3
....................          i2c_write(direccion);   // Direccin del esclavo en el bus I2C 
06542:  MOVFF  DE,6E0
06546:  CALL   25D6
....................          i2c_write(make8(posicion,0));    // Posicin donde se guardara el dato transmitido 
0654A:  MOVFF  6CA,6CD
0654E:  MOVFF  6CA,6E0
06552:  CALL   25D6
....................          i2c_write(make8(posicion,1));    // Posicin donde se guardara el dato transmitido 
06556:  MOVFF  6CB,6CD
0655A:  MOVFF  6CB,6E0
0655E:  CALL   25D6
....................          i2c_write(tmp);        // Dato a transmitir 
06562:  MOVFF  6CC,6E0
06566:  CALL   25D6
....................          i2c_stop();  
0656A:  BCF    F94.4
0656C:  NOP   
0656E:  BSF    F94.3
06570:  BTFSS  F82.3
06572:  BRA    6570
06574:  MOVLW  05
06576:  MOVWF  00
06578:  DECFSZ 00,F
0657A:  BRA    6578
0657C:  BRA    657E
0657E:  NOP   
06580:  BSF    F94.4
06582:  MOVLW  05
06584:  MOVWF  00
06586:  DECFSZ 00,F
06588:  BRA    6586
....................          ++posicion; 
0658A:  MOVLB  6
0658C:  INCF   xCA,F
0658E:  BTFSC  FD8.2
06590:  INCF   xCB,F
....................       } 
06592:  MOVLB  2
06594:  INCF   xC9,F
06596:  BRA    64CC
....................    } 
06598:  INCF   x73,F
0659A:  BRA    64C2
....................  
.................... //Fin de Transmision 
.................... i2c_start();            // Comienzo comunicacin 
0659C:  BSF    F94.4
0659E:  MOVLW  05
065A0:  MOVWF  00
065A2:  DECFSZ 00,F
065A4:  BRA    65A2
065A6:  BSF    F94.3
065A8:  MOVLW  06
065AA:  MOVWF  00
065AC:  DECFSZ 00,F
065AE:  BRA    65AC
065B0:  BCF    F8B.4
065B2:  BCF    F94.4
065B4:  MOVLW  05
065B6:  MOVWF  00
065B8:  DECFSZ 00,F
065BA:  BRA    65B8
065BC:  BCF    F8B.3
065BE:  BCF    F94.3
.................... i2c_write(direccion);   // Direccin del esclavo en el bus I2C 
065C0:  MOVFF  DE,6E0
065C4:  MOVLB  0
065C6:  CALL   25D6
.................... i2c_write(make8(posicion,0));    // Posicin donde se guardara el dato transmitido 
065CA:  MOVFF  6CA,6CD
065CE:  MOVFF  6CA,6E0
065D2:  CALL   25D6
.................... i2c_write(make8(posicion,1));    // Posicin donde se guardara el dato transmitido 
065D6:  MOVFF  6CB,6CD
065DA:  MOVFF  6CB,6E0
065DE:  CALL   25D6
.................... i2c_write(0x1f);        // Dato a transmitir 
065E2:  MOVLW  1F
065E4:  MOVLB  6
065E6:  MOVWF  xE0
065E8:  MOVLB  0
065EA:  CALL   25D6
.................... i2c_stop(); 
065EE:  BCF    F94.4
065F0:  NOP   
065F2:  BSF    F94.3
065F4:  BTFSS  F82.3
065F6:  BRA    65F4
065F8:  MOVLW  05
065FA:  MOVWF  00
065FC:  DECFSZ 00,F
065FE:  BRA    65FC
06600:  BRA    6602
06602:  NOP   
06604:  BSF    F94.4
06606:  MOVLW  05
06608:  MOVWF  00
0660A:  DECFSZ 00,F
0660C:  BRA    660A
.................... ++posicion; 
0660E:  MOVLB  6
06610:  INCF   xCA,F
06612:  BTFSC  FD8.2
06614:  INCF   xCB,F
.................... i2c_start();            // Comienzo comunicacin 
06616:  BSF    F94.4
06618:  MOVLW  05
0661A:  MOVWF  00
0661C:  DECFSZ 00,F
0661E:  BRA    661C
06620:  BSF    F94.3
06622:  MOVLW  06
06624:  MOVWF  00
06626:  DECFSZ 00,F
06628:  BRA    6626
0662A:  BCF    F8B.4
0662C:  BCF    F94.4
0662E:  MOVLW  05
06630:  MOVWF  00
06632:  DECFSZ 00,F
06634:  BRA    6632
06636:  BCF    F8B.3
06638:  BCF    F94.3
.................... i2c_write(direccion);   // Direccin del esclavo en el bus I2C 
0663A:  MOVFF  DE,6E0
0663E:  MOVLB  0
06640:  CALL   25D6
.................... i2c_write(make8(posicion,0));    // Posicin donde se guardara el dato transmitido 
06644:  MOVFF  6CA,6CD
06648:  MOVFF  6CA,6E0
0664C:  CALL   25D6
.................... i2c_write(make8(posicion,1));    // Posicin donde se guardara el dato transmitido 
06650:  MOVFF  6CB,6CD
06654:  MOVFF  6CB,6E0
06658:  CALL   25D6
.................... i2c_write(0x1f);        // Dato a transmitir 
0665C:  MOVLW  1F
0665E:  MOVLB  6
06660:  MOVWF  xE0
06662:  MOVLB  0
06664:  CALL   25D6
.................... i2c_stop(); 
06668:  BCF    F94.4
0666A:  NOP   
0666C:  BSF    F94.3
0666E:  BTFSS  F82.3
06670:  BRA    666E
06672:  MOVLW  05
06674:  MOVWF  00
06676:  DECFSZ 00,F
06678:  BRA    6676
0667A:  BRA    667C
0667C:  NOP   
0667E:  BSF    F94.4
06680:  MOVLW  05
06682:  MOVWF  00
06684:  DECFSZ 00,F
06686:  BRA    6684
.................... ++posicion; 
06688:  MOVLB  6
0668A:  INCF   xCA,F
0668C:  BTFSC  FD8.2
0668E:  INCF   xCB,F
.................... //Se envian 2 veces 1f para indicar que se inicia la transmision. 
.................... delay_ms(200); 
06690:  MOVLW  C8
06692:  MOVWF  xDC
06694:  MOVLB  0
06696:  CALL   2142
.................... //Buzzer_off; 
.................... } 
0669A:  GOTO   BA6A (RETURN)
....................  
.................... void codificaAlarma(){ 
....................    if(ACiclos[i]==0){ 
0669E:  CLRF   03
066A0:  MOVLB  2
066A2:  MOVF   x73,W
066A4:  ADDLW  2A
066A6:  MOVWF  FE9
066A8:  MOVLW  03
066AA:  ADDWFC 03,W
066AC:  MOVWF  FEA
066AE:  MOVF   FEF,F
066B0:  BNZ   66F0
....................       printf("A%u.txt=\"----\"",i+1); 
066B2:  MOVLW  01
066B4:  ADDWF  x73,W
066B6:  MOVLB  6
066B8:  MOVWF  xCA
066BA:  MOVLW  41
066BC:  BTFSS  F9E.4
066BE:  BRA    66BC
066C0:  MOVWF  FAD
066C2:  MOVFF  6CA,6CF
066C6:  MOVLW  1B
066C8:  MOVWF  xD0
066CA:  MOVLB  0
066CC:  CALL   5CDA
066D0:  MOVLW  07
066D2:  MOVWF  FF6
066D4:  MOVLW  04
066D6:  MOVWF  FF7
066D8:  MOVLW  00
066DA:  MOVWF  FF8
066DC:  MOVLW  0B
066DE:  MOVLB  6
066E0:  MOVWF  xCF
066E2:  MOVLB  0
066E4:  CALL   5C56
....................       SendDataDisplay(); 
066E8:  CALL   41EE
....................    }else if(ACiclos[i]==1){ 
066EC:  BRA    6BB8
066EE:  MOVLB  2
066F0:  CLRF   03
066F2:  MOVF   x73,W
066F4:  ADDLW  2A
066F6:  MOVWF  FE9
066F8:  MOVLW  03
066FA:  ADDWFC 03,W
066FC:  MOVWF  FEA
066FE:  DECFSZ FEF,W
06700:  BRA    6740
....................       printf("A%u.txt=\"Parada\"",i+1); 
06702:  MOVLW  01
06704:  ADDWF  x73,W
06706:  MOVLB  6
06708:  MOVWF  xCA
0670A:  MOVLW  41
0670C:  BTFSS  F9E.4
0670E:  BRA    670C
06710:  MOVWF  FAD
06712:  MOVFF  6CA,6CF
06716:  MOVLW  1B
06718:  MOVWF  xD0
0671A:  MOVLB  0
0671C:  CALL   5CDA
06720:  MOVLW  17
06722:  MOVWF  FF6
06724:  MOVLW  04
06726:  MOVWF  FF7
06728:  MOVLW  00
0672A:  MOVWF  FF8
0672C:  MOVLW  0D
0672E:  MOVLB  6
06730:  MOVWF  xCF
06732:  MOVLB  0
06734:  CALL   5C56
....................       SendDataDisplay(); 
06738:  CALL   41EE
....................    }else if(ACiclos[i]==2){ 
0673C:  BRA    6BB8
0673E:  MOVLB  2
06740:  CLRF   03
06742:  MOVF   x73,W
06744:  ADDLW  2A
06746:  MOVWF  FE9
06748:  MOVLW  03
0674A:  ADDWFC 03,W
0674C:  MOVWF  FEA
0674E:  MOVF   FEF,W
06750:  SUBLW  02
06752:  BNZ   6792
....................       printf("A%u.txt=\"Puerta\"",i+1); 
06754:  MOVLW  01
06756:  ADDWF  x73,W
06758:  MOVLB  6
0675A:  MOVWF  xCA
0675C:  MOVLW  41
0675E:  BTFSS  F9E.4
06760:  BRA    675E
06762:  MOVWF  FAD
06764:  MOVFF  6CA,6CF
06768:  MOVLW  1B
0676A:  MOVWF  xD0
0676C:  MOVLB  0
0676E:  CALL   5CDA
06772:  MOVLW  29
06774:  MOVWF  FF6
06776:  MOVLW  04
06778:  MOVWF  FF7
0677A:  MOVLW  00
0677C:  MOVWF  FF8
0677E:  MOVLW  0D
06780:  MOVLB  6
06782:  MOVWF  xCF
06784:  MOVLB  0
06786:  CALL   5C56
....................       SendDataDisplay(); 
0678A:  CALL   41EE
....................    }else if(ACiclos[i]==3){ 
0678E:  BRA    6BB8
06790:  MOVLB  2
06792:  CLRF   03
06794:  MOVF   x73,W
06796:  ADDLW  2A
06798:  MOVWF  FE9
0679A:  MOVLW  03
0679C:  ADDWFC 03,W
0679E:  MOVWF  FEA
067A0:  MOVF   FEF,W
067A2:  SUBLW  03
067A4:  BNZ   67E4
....................       printf("A%u.txt=\"Termostato\"",i+1); 
067A6:  MOVLW  01
067A8:  ADDWF  x73,W
067AA:  MOVLB  6
067AC:  MOVWF  xCA
067AE:  MOVLW  41
067B0:  BTFSS  F9E.4
067B2:  BRA    67B0
067B4:  MOVWF  FAD
067B6:  MOVFF  6CA,6CF
067BA:  MOVLW  1B
067BC:  MOVWF  xD0
067BE:  MOVLB  0
067C0:  CALL   5CDA
067C4:  MOVLW  3B
067C6:  MOVWF  FF6
067C8:  MOVLW  04
067CA:  MOVWF  FF7
067CC:  MOVLW  00
067CE:  MOVWF  FF8
067D0:  MOVLW  11
067D2:  MOVLB  6
067D4:  MOVWF  xCF
067D6:  MOVLB  0
067D8:  CALL   5C56
....................       SendDataDisplay(); 
067DC:  CALL   41EE
....................    }else if(ACiclos[i]==4){ 
067E0:  BRA    6BB8
067E2:  MOVLB  2
067E4:  CLRF   03
067E6:  MOVF   x73,W
067E8:  ADDLW  2A
067EA:  MOVWF  FE9
067EC:  MOVLW  03
067EE:  ADDWFC 03,W
067F0:  MOVWF  FEA
067F2:  MOVF   FEF,W
067F4:  SUBLW  04
067F6:  BNZ   6836
....................       printf("A%u.txt=\"SobreT\"",i+1); 
067F8:  MOVLW  01
067FA:  ADDWF  x73,W
067FC:  MOVLB  6
067FE:  MOVWF  xCA
06800:  MOVLW  41
06802:  BTFSS  F9E.4
06804:  BRA    6802
06806:  MOVWF  FAD
06808:  MOVFF  6CA,6CF
0680C:  MOVLW  1B
0680E:  MOVWF  xD0
06810:  MOVLB  0
06812:  CALL   5CDA
06816:  MOVLW  51
06818:  MOVWF  FF6
0681A:  MOVLW  04
0681C:  MOVWF  FF7
0681E:  MOVLW  00
06820:  MOVWF  FF8
06822:  MOVLW  0D
06824:  MOVLB  6
06826:  MOVWF  xCF
06828:  MOVLB  0
0682A:  CALL   5C56
....................       SendDataDisplay(); 
0682E:  CALL   41EE
....................    }else if(ACiclos[i]==5){ 
06832:  BRA    6BB8
06834:  MOVLB  2
06836:  CLRF   03
06838:  MOVF   x73,W
0683A:  ADDLW  2A
0683C:  MOVWF  FE9
0683E:  MOVLW  03
06840:  ADDWFC 03,W
06842:  MOVWF  FEA
06844:  MOVF   FEF,W
06846:  SUBLW  05
06848:  BNZ   6888
....................       printf("A%u.txt=\"Tiempo\"",i+1); 
0684A:  MOVLW  01
0684C:  ADDWF  x73,W
0684E:  MOVLB  6
06850:  MOVWF  xCA
06852:  MOVLW  41
06854:  BTFSS  F9E.4
06856:  BRA    6854
06858:  MOVWF  FAD
0685A:  MOVFF  6CA,6CF
0685E:  MOVLW  1B
06860:  MOVWF  xD0
06862:  MOVLB  0
06864:  CALL   5CDA
06868:  MOVLW  63
0686A:  MOVWF  FF6
0686C:  MOVLW  04
0686E:  MOVWF  FF7
06870:  MOVLW  00
06872:  MOVWF  FF8
06874:  MOVLW  0D
06876:  MOVLB  6
06878:  MOVWF  xCF
0687A:  MOVLB  0
0687C:  CALL   5C56
....................       SendDataDisplay(); 
06880:  CALL   41EE
....................    }else if(ACiclos[i]==6){ 
06884:  BRA    6BB8
06886:  MOVLB  2
06888:  CLRF   03
0688A:  MOVF   x73,W
0688C:  ADDLW  2A
0688E:  MOVWF  FE9
06890:  MOVLW  03
06892:  ADDWFC 03,W
06894:  MOVWF  FEA
06896:  MOVF   FEF,W
06898:  SUBLW  06
0689A:  BNZ   68DA
....................       printf("A%u.txt=\"Presion\"",i+1); 
0689C:  MOVLW  01
0689E:  ADDWF  x73,W
068A0:  MOVLB  6
068A2:  MOVWF  xCA
068A4:  MOVLW  41
068A6:  BTFSS  F9E.4
068A8:  BRA    68A6
068AA:  MOVWF  FAD
068AC:  MOVFF  6CA,6CF
068B0:  MOVLW  1B
068B2:  MOVWF  xD0
068B4:  MOVLB  0
068B6:  CALL   5CDA
068BA:  MOVLW  75
068BC:  MOVWF  FF6
068BE:  MOVLW  04
068C0:  MOVWF  FF7
068C2:  MOVLW  00
068C4:  MOVWF  FF8
068C6:  MOVLW  0E
068C8:  MOVLB  6
068CA:  MOVWF  xCF
068CC:  MOVLB  0
068CE:  CALL   5C56
....................       SendDataDisplay(); 
068D2:  CALL   41EE
....................    }else if(ACiclos[i]==7){ 
068D6:  BRA    6BB8
068D8:  MOVLB  2
068DA:  CLRF   03
068DC:  MOVF   x73,W
068DE:  ADDLW  2A
068E0:  MOVWF  FE9
068E2:  MOVLW  03
068E4:  ADDWFC 03,W
068E6:  MOVWF  FEA
068E8:  MOVF   FEF,W
068EA:  SUBLW  07
068EC:  BNZ   692C
....................       printf("A%u.txt=\"Bomba\"",i+1); 
068EE:  MOVLW  01
068F0:  ADDWF  x73,W
068F2:  MOVLB  6
068F4:  MOVWF  xCA
068F6:  MOVLW  41
068F8:  BTFSS  F9E.4
068FA:  BRA    68F8
068FC:  MOVWF  FAD
068FE:  MOVFF  6CA,6CF
06902:  MOVLW  1B
06904:  MOVWF  xD0
06906:  MOVLB  0
06908:  CALL   5CDA
0690C:  MOVLW  87
0690E:  MOVWF  FF6
06910:  MOVLW  04
06912:  MOVWF  FF7
06914:  MOVLW  00
06916:  MOVWF  FF8
06918:  MOVLW  0C
0691A:  MOVLB  6
0691C:  MOVWF  xCF
0691E:  MOVLB  0
06920:  CALL   5C56
....................       SendDataDisplay(); 
06924:  CALL   41EE
....................    }else if(ACiclos[i]==8){ 
06928:  BRA    6BB8
0692A:  MOVLB  2
0692C:  CLRF   03
0692E:  MOVF   x73,W
06930:  ADDLW  2A
06932:  MOVWF  FE9
06934:  MOVLW  03
06936:  ADDWFC 03,W
06938:  MOVWF  FEA
0693A:  MOVF   FEF,W
0693C:  SUBLW  08
0693E:  BNZ   697E
....................       printf("A%u.txt=\"ErrorVacio\"",i+1); 
06940:  MOVLW  01
06942:  ADDWF  x73,W
06944:  MOVLB  6
06946:  MOVWF  xCA
06948:  MOVLW  41
0694A:  BTFSS  F9E.4
0694C:  BRA    694A
0694E:  MOVWF  FAD
06950:  MOVFF  6CA,6CF
06954:  MOVLW  1B
06956:  MOVWF  xD0
06958:  MOVLB  0
0695A:  CALL   5CDA
0695E:  MOVLW  97
06960:  MOVWF  FF6
06962:  MOVLW  04
06964:  MOVWF  FF7
06966:  MOVLW  00
06968:  MOVWF  FF8
0696A:  MOVLW  11
0696C:  MOVLB  6
0696E:  MOVWF  xCF
06970:  MOVLB  0
06972:  CALL   5C56
....................       SendDataDisplay(); 
06976:  CALL   41EE
....................    }else if(ACiclos[i]==10){ 
0697A:  BRA    6BB8
0697C:  MOVLB  2
0697E:  CLRF   03
06980:  MOVF   x73,W
06982:  ADDLW  2A
06984:  MOVWF  FE9
06986:  MOVLW  03
06988:  ADDWFC 03,W
0698A:  MOVWF  FEA
0698C:  MOVF   FEF,W
0698E:  SUBLW  0A
06990:  BNZ   69D0
....................       printf("A%u.txt=\"PreCale\"",i+1); 
06992:  MOVLW  01
06994:  ADDWF  x73,W
06996:  MOVLB  6
06998:  MOVWF  xCA
0699A:  MOVLW  41
0699C:  BTFSS  F9E.4
0699E:  BRA    699C
069A0:  MOVWF  FAD
069A2:  MOVFF  6CA,6CF
069A6:  MOVLW  1B
069A8:  MOVWF  xD0
069AA:  MOVLB  0
069AC:  CALL   5CDA
069B0:  MOVLW  AD
069B2:  MOVWF  FF6
069B4:  MOVLW  04
069B6:  MOVWF  FF7
069B8:  MOVLW  00
069BA:  MOVWF  FF8
069BC:  MOVLW  0E
069BE:  MOVLB  6
069C0:  MOVWF  xCF
069C2:  MOVLB  0
069C4:  CALL   5C56
....................       SendDataDisplay(); 
069C8:  CALL   41EE
....................    }else if(ACiclos[i]==11){ 
069CC:  BRA    6BB8
069CE:  MOVLB  2
069D0:  CLRF   03
069D2:  MOVF   x73,W
069D4:  ADDLW  2A
069D6:  MOVWF  FE9
069D8:  MOVLW  03
069DA:  ADDWFC 03,W
069DC:  MOVWF  FEA
069DE:  MOVF   FEF,W
069E0:  SUBLW  0B
069E2:  BNZ   6A22
....................       printf("A%u.txt=\"Vacio\"",i+1); 
069E4:  MOVLW  01
069E6:  ADDWF  x73,W
069E8:  MOVLB  6
069EA:  MOVWF  xCA
069EC:  MOVLW  41
069EE:  BTFSS  F9E.4
069F0:  BRA    69EE
069F2:  MOVWF  FAD
069F4:  MOVFF  6CA,6CF
069F8:  MOVLW  1B
069FA:  MOVWF  xD0
069FC:  MOVLB  0
069FE:  CALL   5CDA
06A02:  MOVLW  BF
06A04:  MOVWF  FF6
06A06:  MOVLW  04
06A08:  MOVWF  FF7
06A0A:  MOVLW  00
06A0C:  MOVWF  FF8
06A0E:  MOVLW  0C
06A10:  MOVLB  6
06A12:  MOVWF  xCF
06A14:  MOVLB  0
06A16:  CALL   5C56
....................       SendDataDisplay(); 
06A1A:  CALL   41EE
....................    }else if(ACiclos[i]==12){ 
06A1E:  BRA    6BB8
06A20:  MOVLB  2
06A22:  CLRF   03
06A24:  MOVF   x73,W
06A26:  ADDLW  2A
06A28:  MOVWF  FE9
06A2A:  MOVLW  03
06A2C:  ADDWFC 03,W
06A2E:  MOVWF  FEA
06A30:  MOVF   FEF,W
06A32:  SUBLW  0C
06A34:  BNZ   6A74
....................       printf("A%u.txt=\"Calen\"",i+1); 
06A36:  MOVLW  01
06A38:  ADDWF  x73,W
06A3A:  MOVLB  6
06A3C:  MOVWF  xCA
06A3E:  MOVLW  41
06A40:  BTFSS  F9E.4
06A42:  BRA    6A40
06A44:  MOVWF  FAD
06A46:  MOVFF  6CA,6CF
06A4A:  MOVLW  1B
06A4C:  MOVWF  xD0
06A4E:  MOVLB  0
06A50:  CALL   5CDA
06A54:  MOVLW  CF
06A56:  MOVWF  FF6
06A58:  MOVLW  04
06A5A:  MOVWF  FF7
06A5C:  MOVLW  00
06A5E:  MOVWF  FF8
06A60:  MOVLW  0C
06A62:  MOVLB  6
06A64:  MOVWF  xCF
06A66:  MOVLB  0
06A68:  CALL   5C56
....................       SendDataDisplay(); 
06A6C:  CALL   41EE
....................    }else if(ACiclos[i]==13){ 
06A70:  BRA    6BB8
06A72:  MOVLB  2
06A74:  CLRF   03
06A76:  MOVF   x73,W
06A78:  ADDLW  2A
06A7A:  MOVWF  FE9
06A7C:  MOVLW  03
06A7E:  ADDWFC 03,W
06A80:  MOVWF  FEA
06A82:  MOVF   FEF,W
06A84:  SUBLW  0D
06A86:  BNZ   6AC6
....................       printf("A%u.txt=\"Desfoga\"",i+1); 
06A88:  MOVLW  01
06A8A:  ADDWF  x73,W
06A8C:  MOVLB  6
06A8E:  MOVWF  xCA
06A90:  MOVLW  41
06A92:  BTFSS  F9E.4
06A94:  BRA    6A92
06A96:  MOVWF  FAD
06A98:  MOVFF  6CA,6CF
06A9C:  MOVLW  1B
06A9E:  MOVWF  xD0
06AA0:  MOVLB  0
06AA2:  CALL   5CDA
06AA6:  MOVLW  DF
06AA8:  MOVWF  FF6
06AAA:  MOVLW  04
06AAC:  MOVWF  FF7
06AAE:  MOVLW  00
06AB0:  MOVWF  FF8
06AB2:  MOVLW  0E
06AB4:  MOVLB  6
06AB6:  MOVWF  xCF
06AB8:  MOVLB  0
06ABA:  CALL   5C56
....................       SendDataDisplay(); 
06ABE:  CALL   41EE
....................    }else if(ACiclos[i]==14){ 
06AC2:  BRA    6BB8
06AC4:  MOVLB  2
06AC6:  CLRF   03
06AC8:  MOVF   x73,W
06ACA:  ADDLW  2A
06ACC:  MOVWF  FE9
06ACE:  MOVLW  03
06AD0:  ADDWFC 03,W
06AD2:  MOVWF  FEA
06AD4:  MOVF   FEF,W
06AD6:  SUBLW  0E
06AD8:  BNZ   6B18
....................       printf("A%u.txt=\"Finalizado\"",i+1); 
06ADA:  MOVLW  01
06ADC:  ADDWF  x73,W
06ADE:  MOVLB  6
06AE0:  MOVWF  xCA
06AE2:  MOVLW  41
06AE4:  BTFSS  F9E.4
06AE6:  BRA    6AE4
06AE8:  MOVWF  FAD
06AEA:  MOVFF  6CA,6CF
06AEE:  MOVLW  1B
06AF0:  MOVWF  xD0
06AF2:  MOVLB  0
06AF4:  CALL   5CDA
06AF8:  MOVLW  F1
06AFA:  MOVWF  FF6
06AFC:  MOVLW  04
06AFE:  MOVWF  FF7
06B00:  MOVLW  00
06B02:  MOVWF  FF8
06B04:  MOVLW  11
06B06:  MOVLB  6
06B08:  MOVWF  xCF
06B0A:  MOVLB  0
06B0C:  CALL   5C56
....................       SendDataDisplay(); 
06B10:  CALL   41EE
....................    }else if(ACiclos[i]==15){ 
06B14:  BRA    6BB8
06B16:  MOVLB  2
06B18:  CLRF   03
06B1A:  MOVF   x73,W
06B1C:  ADDLW  2A
06B1E:  MOVWF  FE9
06B20:  MOVLW  03
06B22:  ADDWFC 03,W
06B24:  MOVWF  FEA
06B26:  MOVF   FEF,W
06B28:  SUBLW  0F
06B2A:  BNZ   6B6A
....................       printf("A%u.txt=\"Secando\"",i+1); 
06B2C:  MOVLW  01
06B2E:  ADDWF  x73,W
06B30:  MOVLB  6
06B32:  MOVWF  xCA
06B34:  MOVLW  41
06B36:  BTFSS  F9E.4
06B38:  BRA    6B36
06B3A:  MOVWF  FAD
06B3C:  MOVFF  6CA,6CF
06B40:  MOVLW  1B
06B42:  MOVWF  xD0
06B44:  MOVLB  0
06B46:  CALL   5CDA
06B4A:  MOVLW  07
06B4C:  MOVWF  FF6
06B4E:  MOVLW  05
06B50:  MOVWF  FF7
06B52:  MOVLW  00
06B54:  MOVWF  FF8
06B56:  MOVLW  0E
06B58:  MOVLB  6
06B5A:  MOVWF  xCF
06B5C:  MOVLB  0
06B5E:  CALL   5C56
....................       SendDataDisplay(); 
06B62:  CALL   41EE
....................    }else if(ACiclos[i]==16){ 
06B66:  BRA    6BB8
06B68:  MOVLB  2
06B6A:  CLRF   03
06B6C:  MOVF   x73,W
06B6E:  ADDLW  2A
06B70:  MOVWF  FE9
06B72:  MOVLW  03
06B74:  ADDWFC 03,W
06B76:  MOVWF  FEA
06B78:  MOVF   FEF,W
06B7A:  SUBLW  10
06B7C:  BNZ   6BBA
....................       printf("A%u.txt=\"Esterilizando\"",i+1); 
06B7E:  MOVLW  01
06B80:  ADDWF  x73,W
06B82:  MOVLB  6
06B84:  MOVWF  xCA
06B86:  MOVLW  41
06B88:  BTFSS  F9E.4
06B8A:  BRA    6B88
06B8C:  MOVWF  FAD
06B8E:  MOVFF  6CA,6CF
06B92:  MOVLW  1B
06B94:  MOVWF  xD0
06B96:  MOVLB  0
06B98:  CALL   5CDA
06B9C:  MOVLW  19
06B9E:  MOVWF  FF6
06BA0:  MOVLW  05
06BA2:  MOVWF  FF7
06BA4:  MOVLW  00
06BA6:  MOVWF  FF8
06BA8:  MOVLW  14
06BAA:  MOVLB  6
06BAC:  MOVWF  xCF
06BAE:  MOVLB  0
06BB0:  CALL   5C56
....................       SendDataDisplay(); 
06BB4:  CALL   41EE
06BB8:  MOVLB  2
....................    } 
.................... } 
06BBA:  MOVLB  0
06BBC:  GOTO   C5FA (RETURN)
....................  
.................... void graficaCurva(int16 tGrafica){ 
....................    if(tiempos2>=tGrafica){ 
*
05A16:  MOVLB  6
05A18:  MOVF   xCB,W
05A1A:  MOVLB  2
05A1C:  SUBWF  x88,W
05A1E:  BNC   5A36
05A20:  BNZ   5A2C
05A22:  MOVLB  6
05A24:  MOVF   xCA,W
05A26:  MOVLB  2
05A28:  SUBWF  x87,W
05A2A:  BNC   5A36
....................       Grafica=1; 
05A2C:  MOVLB  1
05A2E:  BSF    x0A.5
....................       tiempos2=0; 
05A30:  MOVLB  2
05A32:  CLRF   x88
05A34:  CLRF   x87
....................    } 
.................... } 
05A36:  MOVLB  0
05A38:  GOTO   80B6 (RETURN)
....................  
.................... void muestreo(int16 tmuestreo){ 
....................    if(tiempos3>=tmuestreo){ 
05A3C:  MOVLB  6
05A3E:  MOVF   xCB,W
05A40:  MOVLB  2
05A42:  SUBWF  x8A,W
05A44:  BNC   5AE6
05A46:  BNZ   5A52
05A48:  MOVLB  6
05A4A:  MOVF   xCA,W
05A4C:  MOVLB  2
05A4E:  SUBWF  x89,W
05A50:  BNC   5AE6
....................       Temperatura=LeerPt100(0,MediaMovil); 
05A52:  MOVLB  6
05A54:  CLRF   xCC
05A56:  MOVFF  1F7,6CD
05A5A:  MOVLB  0
05A5C:  CALL   437A
05A60:  MOVFF  03,23E
05A64:  MOVFF  02,23D
05A68:  MOVFF  01,23C
05A6C:  MOVFF  00,23B
....................       Temperatura2=LeerPt100(1,MediaMovil); 
05A70:  MOVLW  01
05A72:  MOVLB  6
05A74:  MOVWF  xCC
05A76:  MOVFF  1F7,6CD
05A7A:  MOVLB  0
05A7C:  CALL   437A
05A80:  MOVFF  03,242
05A84:  MOVFF  02,241
05A88:  MOVFF  01,240
05A8C:  MOVFF  00,23F
....................       PresionCamara=Leer_Sensor_Presion_Camara(10); 
05A90:  MOVLW  0A
05A92:  MOVLB  6
05A94:  MOVWF  xCC
05A96:  MOVLB  0
05A98:  CALL   4C5A
05A9C:  MOVFF  03,6DF
05AA0:  MOVFF  02,6DE
05AA4:  MOVFF  01,6DD
05AA8:  MOVFF  00,6DC
05AAC:  CALL   4E58
05AB0:  MOVFF  02,292
05AB4:  MOVFF  01,291
....................       PresionPreCamara=Leer_Sensor_Presion_PreCamara(20); 
05AB8:  MOVLW  14
05ABA:  MOVLB  6
05ABC:  MOVWF  xCC
05ABE:  MOVLB  0
05AC0:  CALL   4E94
05AC4:  MOVFF  03,6DF
05AC8:  MOVFF  02,6DE
05ACC:  MOVFF  01,6DD
05AD0:  MOVFF  00,6DC
05AD4:  CALL   4E58
05AD8:  MOVFF  02,294
05ADC:  MOVFF  01,293
....................       tiempos3=0; 
05AE0:  MOVLB  2
05AE2:  CLRF   x8A
05AE4:  CLRF   x89
....................    } 
.................... } 
05AE6:  MOVLB  0
05AE8:  GOTO   80C4 (RETURN)
....................  
.................... void monitoreaAgua(){ 
....................    if(LOWB){ 
05AEC:  BSF    F93.2
05AEE:  BTFSC  F81.2
05AF0:  BRA    5B04
....................       SensadoNivelR=ON; 
05AF2:  MOVLB  1
05AF4:  BSF    x0A.2
....................       if(TiempoSensadoNivelR>2){ 
05AF6:  MOVF   xFB,W
05AF8:  SUBLW  02
05AFA:  BC    5B00
....................          SensadoNivelR=OFF; 
05AFC:  BCF    x0A.2
....................          ReservorioLleno=ON; 
05AFE:  BSF    x0A.1
....................       } 
....................    }else{ 
05B00:  BRA    5B0C
05B02:  MOVLB  0
....................       SensadoNivelR=OFF; 
05B04:  MOVLB  1
05B06:  BCF    x0A.2
....................       TiempoSensadoNivelR=0; 
05B08:  CLRF   xFB
....................       ReservorioLleno=OFF; 
05B0A:  BCF    x0A.1
....................    }  
.................... } 
05B0C:  MOVLB  0
05B0E:  GOTO   80C8 (RETURN)
....................  
.................... void monitoreaStop(){ 
....................       if(!STOP && !IniciaCiclo && !PruebaEstados){ 
*
05BD2:  BSF    F93.0
05BD4:  BTFSS  F81.0
05BD6:  BRA    5C48
05BD8:  MOVLB  1
05BDA:  BTFSS  x03.6
05BDC:  BRA    5BE2
05BDE:  MOVLB  0
05BE0:  BRA    5C48
05BE2:  BTFSS  x05.1
05BE4:  BRA    5BEA
05BE6:  MOVLB  0
05BE8:  BRA    5C48
....................          if(!disp_Stop){ 
05BEA:  BTFSC  x0A.6
05BEC:  BRA    5BF6
....................             disp_Stop=1;Menu=255; 
05BEE:  BSF    x0A.6
05BF0:  MOVLW  FF
05BF2:  MOVLB  2
05BF4:  MOVWF  x70
....................          } 
....................          codigoAlarma=200; 
05BF6:  MOVLW  C8
05BF8:  MOVLB  2
05BFA:  MOVWF  xAC
....................          Controlando=0; 
05BFC:  CLRF   x69
....................          Desfogue=ON; 
05BFE:  MOVLB  0
05C00:  BSF    xF8.4
....................          Paso=OFF; 
05C02:  BCF    xF8.2
....................          //Suministro_off; 
....................          if(PresionCamara<Atmosferica) 
05C04:  MOVLB  2
05C06:  MOVF   x92,F
05C08:  BNZ   5C16
05C0A:  MOVF   xBD,W
05C0C:  SUBWF  x91,W
05C0E:  BC    5C16
....................             Aire=ON; 
05C10:  MOVLB  0
05C12:  BSF    xF8.5
....................          else 
05C14:  BRA    5C1A
....................             Aire=ON; 
05C16:  MOVLB  0
05C18:  BSF    xF8.5
....................          outVacio=OFF;    
05C1A:  BCF    xF8.3
....................          aguaEnfriador=OFF; 
05C1C:  BCF    30.5
....................          bombaVacio=OFF; 
05C1E:  BCF    30.6
....................          DesfogueSuave=OFF; 
05C20:  MOVLB  1
05C22:  BCF    x04.3
....................          printf("page Emergencia"); 
05C24:  MOVLW  2E
05C26:  MOVWF  FF6
05C28:  MOVLW  05
05C2A:  MOVWF  FF7
05C2C:  MOVLW  00
05C2E:  MOVWF  FF8
05C30:  MOVLB  0
05C32:  CALL   41BC
....................          SendDataDisplay(); 
05C36:  CALL   41EE
....................          ActivaAlarma(1); 
05C3A:  MOVLW  01
05C3C:  MOVLB  6
05C3E:  MOVWF  xCA
05C40:  MOVLB  0
05C42:  RCALL  5B12
....................          BorraBuffer(); 
05C44:  BRA    5BA6
....................       }else{ 
05C46:  BRA    5C50
....................          if(disp_Stop){ 
05C48:  MOVLB  1
05C4A:  BTFSS  x0A.6
05C4C:  BRA    5C50
....................             reset_cpu(); 
05C4E:  RESET
05C50:  MOVLB  0
....................          } 
....................       }           
.................... } 
05C52:  GOTO   80CC (RETURN)
....................  
.................... void cierraPuertaS(){// Aadir logica de puertas 
....................    abrirPuertaS=OFF; 
*
050FC:  BCF    xFC.1
....................    tVacioEmpaqueS=0; 
050FE:  MOVLB  1
05100:  CLRF   x00
05102:  MOVLB  0
05104:  CLRF   xFF
....................    if(!BLOQUEOS){ 
05106:  BTFSC  30.2
05108:  BRA    511C
....................       cilindroSucio=OFF; 
0510A:  BCF    xF8.6
....................       estadoCilindrosS=ON; 
0510C:  BSF    xFC.6
....................       if(DOORS){ 
0510E:  BSF    F93.1
05110:  BTFSC  F81.1
05112:  BRA    5118
....................          empaqueSucio=ON; 
05114:  BSF    xF8.0
....................          //cerroSucio=ON; 
....................       }else{ 
05116:  BRA    511A
....................          empaqueSucio=OFF; 
05118:  BCF    xF8.0
....................       } 
....................    }else{ 
0511A:  BRA    5128
....................       if(!DOORS){ 
0511C:  BSF    F93.1
0511E:  BTFSS  F81.1
05120:  BRA    5128
....................          cilindroSucio=ON; 
05122:  BSF    xF8.6
....................          estadoCilindrosS=OFF; 
05124:  BCF    xFC.6
....................          pulsoSubirS=OFF; 
05126:  BCF    xFB.4
....................       } 
....................    } 
....................    suministroAire=ON; 
05128:  BSF    30.4
....................    seguroValvula=OFF; 
0512A:  BCF    xF9.1
....................    seguroValvula2=OFF; 
0512C:  BCF    xF9.2
....................    estadoSuministro=ON; 
0512E:  MOVLB  1
05130:  BSF    x04.7
.................... } 
05132:  MOVLB  0
05134:  GOTO   7FA0 (RETURN)
....................  
.................... void abrePuertaS(){ 
....................    abrirPuertaS=ON; 
*
05092:  BSF    xFC.1
....................    if(PresionCamara<=Atmosferica+15 && PresionCamara>Atmosferica-10){ 
05094:  MOVLW  0F
05096:  MOVLB  2
05098:  ADDWF  xBD,W
0509A:  MOVF   x92,F
0509C:  BNZ   50F0
0509E:  SUBWF  x91,W
050A0:  BZ    50A4
050A2:  BC    50F0
050A4:  MOVLW  0A
050A6:  SUBWF  xBD,W
050A8:  MOVF   x92,F
050AA:  BNZ   50B2
050AC:  SUBWF  x91,W
050AE:  BZ    50F0
050B0:  BNC   50F0
....................       empaqueSucio=OFF; 
050B2:  MOVLB  0
050B4:  BCF    xF8.0
....................       seguroValvula=ON; 
050B6:  BSF    xF9.1
....................       seguroValvula2=OFF; 
050B8:  BCF    xF9.2
....................       if(DOORS){ 
050BA:  BSF    F93.1
050BC:  BTFSC  F81.1
050BE:  BRA    50E2
....................          if(tVacioEmpaqueS>=10){ 
050C0:  MOVLB  1
050C2:  MOVF   x00,F
050C4:  BNZ   50D0
050C6:  MOVLB  0
050C8:  MOVF   xFF,W
050CA:  SUBLW  09
050CC:  BC    50DC
050CE:  MOVLB  1
....................             cilindroSucio=ON; 
050D0:  MOVLB  0
050D2:  BSF    xF8.6
....................             cerroSucio=OFF; 
050D4:  BCF    xFB.2
....................             vacioEmpaqueS=OFF; 
050D6:  BCF    xFB.7
....................             BombaVacio=OFF; 
050D8:  BCF    30.6
....................          }else{ 
050DA:  BRA    50E0
....................             BombaVacio=ON; 
050DC:  BSF    30.6
....................             vacioEmpaqueS=ON; 
050DE:  BSF    xFB.7
....................          } 
....................       }else{ 
050E0:  BRA    50EE
....................          cilindroSucio=ON; 
050E2:  BSF    xF8.6
....................          estadoCilindrosS=OFF; 
050E4:  BCF    xFC.6
....................          cerroSucio=OFF; 
050E6:  BCF    xFB.2
....................          vacioEmpaqueS=OFF; 
050E8:  BCF    xFB.7
....................          BombaVacio=OFF; 
050EA:  BCF    30.6
....................          pulsoBajarS=OFF; 
050EC:  BCF    xFC.2
050EE:  MOVLB  2
....................       } 
....................    } 
....................    suministroAire=ON; 
050F0:  BSF    30.4
....................    estadoSuministro=ON; 
050F2:  MOVLB  1
050F4:  BSF    x04.7
.................... } 
050F6:  MOVLB  0
050F8:  GOTO   7F9A (RETURN)
....................  
.................... void cierraPuertaL(){// Aadir logica de puertas 
....................    abrirPuertaL=OFF; 
*
05138:  BCF    xFC.0
....................    tVacioEmpaqueL=0; 
0513A:  MOVLB  1
0513C:  CLRF   x02
0513E:  CLRF   x01
....................    if(!BLOQUEOL){ 
05140:  BTFSC  30.3
05142:  BRA    5158
....................       cilindroLimpio=OFF; 
05144:  MOVLB  0
05146:  BCF    xF8.7
....................       estadoCilindrosL=ON; 
05148:  BSF    xFC.5
....................       if(DOORL){ 
0514A:  BTFSS  30.1
0514C:  BRA    5152
....................          empaqueLimpio=ON; 
0514E:  BSF    30.7
....................          //cerroLimpio=ON; 
....................       }else{ 
05150:  BRA    5154
....................          empaqueLimpio=OFF; 
05152:  BCF    30.7
....................       } 
....................    }else{ 
05154:  BRA    5164
05156:  MOVLB  1
....................       if(!DOORL){ 
05158:  BTFSC  30.1
0515A:  BRA    5166
....................          cilindroLimpio=ON; 
0515C:  MOVLB  0
0515E:  BSF    xF8.7
....................          estadoCilindrosL=OFF; 
05160:  BCF    xFC.5
....................          pulsoSubirL=OFF; 
05162:  BCF    xFB.5
05164:  MOVLB  1
....................       } 
....................    } 
....................    seguroValvula2=OFF; 
05166:  MOVLB  0
05168:  BCF    xF9.2
....................    seguroValvula=OFF; 
0516A:  BCF    xF9.1
....................    suministroAire=ON; 
0516C:  BSF    30.4
....................    estadoSuministro=ON; 
0516E:  MOVLB  1
05170:  BSF    x04.7
.................... } 
05172:  MOVLB  0
05174:  RETLW  00
....................  
.................... void abrePuertaL(){ 
....................    abrirPuertaL=ON; 
05176:  BSF    xFC.0
....................    if(PresionCamara<=Atmosferica+15 && PresionCamara>Atmosferica-10){ 
05178:  MOVLW  0F
0517A:  MOVLB  2
0517C:  ADDWF  xBD,W
0517E:  MOVF   x92,F
05180:  BNZ   51D0
05182:  SUBWF  x91,W
05184:  BZ    5188
05186:  BC    51D0
05188:  MOVLW  0A
0518A:  SUBWF  xBD,W
0518C:  MOVF   x92,F
0518E:  BNZ   5196
05190:  SUBWF  x91,W
05192:  BZ    51D0
05194:  BNC   51D0
....................       empaqueLimpio=OFF; 
05196:  BCF    30.7
....................       seguroValvula2=ON; 
05198:  MOVLB  0
0519A:  BSF    xF9.2
....................       seguroValvula=OFF; 
0519C:  BCF    xF9.1
....................       if(DOORL){ 
0519E:  BTFSS  30.1
051A0:  BRA    51C4
....................          if(tVacioEmpaqueL>=10){ 
051A2:  MOVLB  1
051A4:  MOVF   x02,F
051A6:  BNZ   51AE
051A8:  MOVF   x01,W
051AA:  SUBLW  09
051AC:  BC    51BC
....................             cilindroLimpio=ON; 
051AE:  MOVLB  0
051B0:  BSF    xF8.7
....................             cerroLimpio=OFF; 
051B2:  BCF    xFB.3
....................             vacioEmpaqueL=OFF; 
051B4:  BCF    xFB.6
....................             BombaVacio=OFF; 
051B6:  BCF    30.6
....................          }else{ 
051B8:  BRA    51C2
051BA:  MOVLB  1
....................             BombaVacio=ON; 
051BC:  BSF    30.6
....................             vacioEmpaqueL=ON; 
051BE:  MOVLB  0
051C0:  BSF    xFB.6
....................          } 
....................       }else{ 
051C2:  BRA    51CE
....................          cilindroLimpio=ON; 
051C4:  BSF    xF8.7
....................          estadoCilindrosL=OFF; 
051C6:  BCF    xFC.5
....................          cerroLimpio=OFF; 
051C8:  BCF    xFB.3
....................          vacioEmpaqueL=OFF; 
051CA:  BCF    xFB.6
....................          BombaVacio=OFF; 
051CC:  BCF    30.6
051CE:  MOVLB  2
....................          //pulsoBajarL=OFF; 
....................       } 
....................    } 
....................    suministroAire=ON; 
051D0:  BSF    30.4
....................    estadoSuministro=ON; 
051D2:  MOVLB  1
051D4:  BSF    x04.7
.................... } 
051D6:  MOVLB  0
051D8:  RETLW  00
....................  
.................... void monitoreaPuertaLimpio(){ 
....................    if(pulsoSubirL) 
051DA:  BTFSS  xFB.5
051DC:  BRA    51E0
....................       cierraPuertaL(); 
051DE:  RCALL  5138
....................        
....................    if(subirPuertaLimpio==5){//Oprimio Subir Puerta Limpio 
051E0:  MOVLB  1
051E2:  MOVF   xFC,W
051E4:  SUBLW  05
051E6:  BNZ   51F0
....................       //cierraPuertaL(); 
....................       pulsoSubirL=ON; 
051E8:  MOVLB  0
051EA:  BSF    xFB.5
....................    }else if(subirPuertaLimpio==10){//Solto Subir Puerta Limpio 
051EC:  BRA    526E
051EE:  MOVLB  1
051F0:  MOVF   xFC,W
051F2:  SUBLW  0A
051F4:  BNZ   520C
....................       pulsoSubirL=OFF; 
051F6:  MOVLB  0
051F8:  BCF    xFB.5
....................       if(!DOORL && !EMPAQUEL) 
051FA:  BTFSC  30.1
051FC:  BRA    5206
051FE:  BTFSC  30.0
05200:  BRA    5206
....................          abrePuertaL(); 
05202:  RCALL  5176
....................       else 
05204:  BRA    5208
....................          cierraPuertaL(); 
05206:  RCALL  5138
....................    }else if(subirPuertaLimpio==15){//Oprimio Bajar Puerta Limpio 
05208:  BRA    526E
0520A:  MOVLB  1
0520C:  MOVF   xFC,W
0520E:  SUBLW  0F
05210:  BNZ   5260
....................       pulsoSubirL=OFF; 
05212:  MOVLB  0
05214:  BCF    xFB.5
....................       if(Temperatura<Tapertura && Finalizo && cerroSucio) 
05216:  MOVLB  6
05218:  CLRF   xDD
0521A:  MOVFF  277,6DC
0521E:  MOVLB  0
05220:  CALL   210C
05224:  MOVFF  23E,6D1
05228:  MOVFF  23D,6D0
0522C:  MOVFF  23C,6CF
05230:  MOVFF  23B,6CE
05234:  MOVFF  03,6D5
05238:  MOVFF  02,6D4
0523C:  MOVFF  01,6D3
05240:  MOVFF  00,6D2
05244:  CALL   279E
05248:  BNC   525C
0524A:  MOVLB  1
0524C:  BTFSC  x07.0
0524E:  BRA    5254
05250:  MOVLB  0
05252:  BRA    525C
05254:  MOVLB  0
05256:  BTFSS  xFB.2
05258:  BRA    525C
....................       //if(Temperatura<Tapertura && cerroSucio) 
....................          abrePuertaL(); 
0525A:  RCALL  5176
....................    }else{ 
0525C:  BRA    526E
0525E:  MOVLB  1
....................       if(!DOORL) 
05260:  BTFSC  30.1
05262:  BRA    526A
....................          abrePuertaL(); 
05264:  MOVLB  0
05266:  RCALL  5176
....................       else 
05268:  BRA    526E
....................          cierraPuertaL(); 
0526A:  MOVLB  0
0526C:  RCALL  5138
....................    }   
.................... } 
0526E:  GOTO   7FA8 (RETURN)
....................  
.................... void ApagaSalidas(){ 
....................     
....................    Controlando=0; 
*
04224:  MOVLB  2
04226:  CLRF   x69
.................... } 
04228:  MOVLB  0
0422A:  RETLW  00
....................  
.................... void borraVariables(){ 
....................    Ciclo=OFF; 
*
06EC6:  MOVLB  1
06EC8:  BCF    x05.3
....................    flag_pulso=0; 
06ECA:  BCF    x08.5
....................    Start=OFF; 
06ECC:  BCF    x04.5
....................    codigoAlarma=0; 
06ECE:  MOVLB  2
06ED0:  CLRF   xAC
....................    Desfogue=OFF; 
06ED2:  MOVLB  0
06ED4:  BCF    xF8.4
....................    suministroVapor=OFF; 
06ED6:  BCF    xF8.1
....................    BombaVacio=OFF; 
06ED8:  BCF    30.6
....................    Aire=OFF; 
06EDA:  BCF    xF8.5
....................    aguaEnfriador=OFF; 
06EDC:  BCF    30.5
....................    outVacio=OFF; 
06EDE:  BCF    xF8.3
....................    Controlando=0; 
06EE0:  MOVLB  2
06EE2:  CLRF   x69
....................    EstadoBuzzer=OFF; 
06EE4:  MOVLB  1
06EE6:  BCF    x06.4
....................    Precalentamiento=OFF; 
06EE8:  BCF    x07.7
....................    IniciaVacio=OFF; 
06EEA:  BCF    x08.0
....................    IniciaVacio2=OFF; 
06EEC:  BCF    x08.1
....................    Vacio=OFF; 
06EEE:  BCF    x08.2
....................    flag_vac=OFF; 
06EF0:  BCF    x08.3
....................    PulsoPositivo=10; 
06EF2:  MOVLW  0A
06EF4:  MOVLB  2
06EF6:  MOVWF  xBE
....................    PulsosVacio=0; 
06EF8:  CLRF   xBF
....................    tvacio=0; 
06EFA:  CLRF   x9A
06EFC:  CLRF   x99
....................    Esterilizando=OFF; 
06EFE:  MOVLB  1
06F00:  BCF    x03.7
....................    Desfogando=OFF; 
06F02:  BCF    x04.2
....................    mEst=0; 
06F04:  CLRF   x22
....................    sEst=0; 
06F06:  CLRF   x21
....................    Secando=OFF; 
06F08:  BCF    x04.0
....................    DesfogueSuave=OFF; 
06F0A:  BCF    x04.3
....................    Secando=OFF; 
06F0C:  BCF    x04.0
....................    mSec=0; 
06F0E:  CLRF   x24
....................    sSec=0; 
06F10:  CLRF   x23
....................    Control=0; 
06F12:  MOVLB  2
06F14:  CLRF   x67
....................    Finalizo=OFF; 
06F16:  MOVLB  1
06F18:  BCF    x07.0
....................    AlarmaLlenado=OFF; 
06F1A:  MOVLB  0
06F1C:  BCF    xFB.1
....................    AlarmaSobreTemperatura=OFF; 
06F1E:  BCF    xF9.6
....................    AlarmaTiempoProlongado=OFF; 
06F20:  BCF    xF9.5
....................    AlarmaPresion=OFF; 
06F22:  MOVLB  1
06F24:  BCF    x07.1
....................    AlarmaEmergencia=OFF; 
06F26:  MOVLB  0
06F28:  BCF    xFA.2
....................    AlarmaEmpaqueS=OFF; 
06F2A:  BCF    xFA.5
....................    AlarmaEmpaqueL=OFF; 
06F2C:  BCF    xFA.4
....................    AlarmaVacio=OFF; 
06F2E:  BCF    xFA.3
....................    AlarmaBomba=OFF; 
06F30:  BCF    xFA.6
....................    AlarmaTermostato=OFF; 
06F32:  BCF    xF9.7
....................    TiempoLlenado=0; 
06F34:  MOVLB  1
06F36:  CLRF   x20
06F38:  CLRF   x1F
....................    TiempoCiclo=0; 
06F3A:  CLRF   x0C
06F3C:  CLRF   x0B
....................    tEmpaqueS=0; 
06F3E:  MOVLB  2
06F40:  CLRF   x7B
06F42:  CLRF   x7A
....................    tEmpaqueL=0; 
06F44:  CLRF   x7D
06F46:  CLRF   x7C
....................    tBomba=0; 
06F48:  CLRF   x98
06F4A:  CLRF   x97
....................    tvacio=0; 
06F4C:  CLRF   x9A
06F4E:  CLRF   x99
....................    IniciaCiclo=OFF; 
06F50:  MOVLB  1
06F52:  BCF    x03.6
....................    flagImprimir=0; 
06F54:  BCF    x09.4
....................    flagImprime=0; 
06F56:  MOVLB  2
06F58:  BCF    x66.0
....................    tiempoImpresion=0; 
06F5A:  CLRF   x9C
06F5C:  CLRF   x9B
....................    ingreso=OFF; 
06F5E:  MOVLB  1
06F60:  BCF    x07.5
....................    ConteoBuzzer=0; 
06F62:  MOVLB  2
06F64:  CLRF   xAA
....................    tbuzzer=0; 
06F66:  CLRF   xB0
06F68:  CLRF   xAF
....................    tEnfriador=0; 
06F6A:  CLRF   x7F
06F6C:  CLRF   x7E
....................    EstadoAgua2=OFF; 
06F6E:  MOVLB  1
06F70:  BCF    x05.4
.................... } 
06F72:  MOVLB  0
06F74:  RETLW  00
....................  
.................... void leePulsadores(){ 
....................    if(tIniciar>=2){ 
06F76:  MOVLB  1
06F78:  MOVF   x18,F
06F7A:  BNZ   6F82
06F7C:  MOVF   x17,W
06F7E:  SUBLW  01
06F80:  BC    6F8A
....................       Start=!Start; 
06F82:  BTG    x04.5
....................       oprimioIniciar=OFF; 
06F84:  BCF    x03.1
....................       tIniciar=0; 
06F86:  CLRF   x18
06F88:  CLRF   x17
....................    } 
....................     
....................    if(tCiclof>=3){ 
06F8A:  MOVF   x1A,F
06F8C:  BNZ   6F94
06F8E:  MOVF   x19,W
06F90:  SUBLW  02
06F92:  BC    6FB4
....................       //printf("page Menu"); 
....................       printf("page Usuarios"); 
06F94:  MOVLW  3E
06F96:  MOVWF  FF6
06F98:  MOVLW  05
06F9A:  MOVWF  FF7
06F9C:  MOVLW  00
06F9E:  MOVWF  FF8
06FA0:  MOVLB  0
06FA2:  CALL   41BC
....................       SendDataDisplay(); 
06FA6:  CALL   41EE
....................       oprimioCiclo=OFF;       
06FAA:  MOVLB  1
06FAC:  BCF    x03.2
....................       borraVariables(); 
06FAE:  MOVLB  0
06FB0:  RCALL  6EC6
06FB2:  MOVLB  1
....................    } 
....................     
....................    if(tCicloP>=3){ 
06FB4:  MOVF   x1C,F
06FB6:  BNZ   6FBE
06FB8:  MOVF   x1B,W
06FBA:  SUBLW  02
06FBC:  BC    6FDE
....................       //printf("page CicloPersona"); 
....................       printf("page Usuarios"); 
06FBE:  MOVLW  4C
06FC0:  MOVWF  FF6
06FC2:  MOVLW  05
06FC4:  MOVWF  FF7
06FC6:  MOVLW  00
06FC8:  MOVWF  FF8
06FCA:  MOVLB  0
06FCC:  CALL   41BC
....................       SendDataDisplay(); 
06FD0:  CALL   41EE
....................       oprimioCicloP=OFF; 
06FD4:  MOVLB  1
06FD6:  BCF    x03.3
....................       borraVariables(); 
06FD8:  MOVLB  0
06FDA:  RCALL  6EC6
06FDC:  MOVLB  1
....................    } 
....................     
....................    if(tConfig>=3){ 
06FDE:  MOVF   x1E,F
06FE0:  BNZ   6FE8
06FE2:  MOVF   x1D,W
06FE4:  SUBLW  02
06FE6:  BC    7008
....................       //printf("page Ajustes"); 
....................       printf("page Usuarios"); 
06FE8:  MOVLW  5A
06FEA:  MOVWF  FF6
06FEC:  MOVLW  05
06FEE:  MOVWF  FF7
06FF0:  MOVLW  00
06FF2:  MOVWF  FF8
06FF4:  MOVLB  0
06FF6:  CALL   41BC
....................       SendDataDisplay(); 
06FFA:  CALL   41EE
....................       oprimioConfig=OFF; 
06FFE:  MOVLB  1
07000:  BCF    x03.4
....................       borraVariables(); 
07002:  MOVLB  0
07004:  RCALL  6EC6
07006:  MOVLB  1
....................    } 
....................     
....................    if(RX_Buffer[4]==0x10){//Oprimio Iniciar Ciclo 
07008:  MOVF   35,W
0700A:  SUBLW  10
0700C:  BNZ   7012
....................       oprimioIniciar=ON; 
0700E:  BSF    x03.1
....................       RX_Buffer[4]=0x00; 
07010:  CLRF   35
....................       //RX_Buffer2[4]=0x00;                        
....................    } 
....................     
....................    if(RX_Buffer[4]==0x11){//Solto Iniciar Ciclo 
07012:  MOVF   35,W
07014:  SUBLW  11
07016:  BNZ   7020
....................       oprimioIniciar=OFF; 
07018:  BCF    x03.1
....................       tIniciar=0; 
0701A:  CLRF   x18
0701C:  CLRF   x17
....................       RX_Buffer[4]=0x00; 
0701E:  CLRF   35
....................       //RX_Buffer2[4]=0x00;                        
....................    } 
....................     
....................    if(RX_Buffer[4]==0x20){//Oprimio Seleccionar Ciclo 
07020:  MOVF   35,W
07022:  SUBLW  20
07024:  BNZ   7032
....................       if(!Start || Finalizo) 
07026:  BTFSS  x04.5
07028:  BRA    702E
0702A:  BTFSS  x07.0
0702C:  BRA    7030
....................          oprimioCiclo=ON; 
0702E:  BSF    x03.2
....................       RX_Buffer[4]=0x00; 
07030:  CLRF   35
....................       //RX_Buffer2[4]=0x00;                        
....................    } 
....................     
....................    if(RX_Buffer[4]==0x21){//Solto Seleccionar Ciclo 
07032:  MOVF   35,W
07034:  SUBLW  21
07036:  BNZ   703C
....................       oprimioCiclo=OFF; 
07038:  BCF    x03.2
....................       RX_Buffer[4]=0x00; 
0703A:  CLRF   35
....................       //RX_Buffer2[4]=0x00;                        
....................    } 
....................    /* 
....................    if(RX_Buffer[4]==0x30){//Oprimio Ciclos Libres 
....................       if(!Start || Finalizo) 
....................          oprimioCicloP=ON; 
....................       RX_Buffer[4]=0x00; 
....................       //RX_Buffer2[4]=0x00;                        
....................    } 
....................     
....................    if(RX_Buffer[4]==0x31){//Solto Ciclos Libres 
....................       oprimioCicloP=OFF; 
....................       RX_Buffer[4]=0x00; 
....................       //RX_Buffer2[4]=0x00;                        
....................    } 
....................     
....................    if(RX_Buffer[4]==0x40){//Oprimio Configuraciones 
....................       if(!Start || Finalizo) 
....................          oprimioConfig=ON; 
....................       RX_Buffer[4]=0x00; 
....................       //RX_Buffer2[4]=0x00;                        
....................    } 
....................     
....................    if(RX_Buffer[4]==0x41){//Solto Configuraciones 
....................       oprimioConfig=OFF; 
....................       RX_Buffer[4]=0x00; 
....................       //RX_Buffer2[4]=0x00;                        
....................    } 
....................    */ 
.................... } 
0703C:  MOVLB  0
0703E:  GOTO   CB90 (RETURN)
....................  
....................  
.................... #int_rda HIGH 
.................... void serial_rx_isr(){ 
....................    Dato2=fgetc(); 
*
00568:  BTFSS  F9E.5
0056A:  BRA    0568
0056C:  MOVFF  FAE,26E
00570:  MOVLB  2
....................    if(Dato2==0x65){//Inicio Comunicacion 
00572:  MOVF   x6E,W
00574:  SUBLW  65
00576:  BNZ   057E
....................       Inicio=1; 
00578:  MOVLW  01
0057A:  MOVWF  x6C
....................       RX_Wr_Index =0; 
0057C:  CLRF   47
....................    } 
....................     
....................    if(Inicio==1){ 
0057E:  DECFSZ x6C,W
00580:  BRA    0596
....................       Rx_Buffer2[RX_Wr_Index] = Dato2; 
00582:  CLRF   03
00584:  MOVF   47,W
00586:  ADDLW  3C
00588:  MOVWF  FE9
0058A:  MOVLW  00
0058C:  ADDWFC 03,W
0058E:  MOVWF  FEA
00590:  MOVFF  26E,FEF
....................       RX_Wr_Index++; 
00594:  INCF   47,F
....................    } 
....................    if(RX_Wr_Index >= RX_BUFFER_SIZE){ 
00596:  MOVF   47,W
00598:  SUBLW  09
0059A:  BC    05A0
....................       RX_Wr_Index =0; 
0059C:  CLRF   47
....................       Inicio=0; 
0059E:  CLRF   x6C
....................    } 
....................  
....................    if(RX_Wr_Index==0){ 
005A0:  MOVF   47,F
005A2:  BNZ   05C4
....................       if(Rx_Buffer2[0]==0x65 && Rx_Buffer2[1]==0xff && Rx_Buffer2[2]==0xff && Rx_Buffer2[8]==0x00 && Rx_Buffer2[9]==0xff ){ 
005A4:  MOVF   3C,W
005A6:  SUBLW  65
005A8:  BNZ   05C0
005AA:  INCFSZ 3D,W
005AC:  BRA    05C0
005AE:  INCFSZ 3E,W
005B0:  BRA    05C0
005B2:  MOVF   44,F
005B4:  BNZ   05C0
005B6:  INCFSZ 45,W
005B8:  BRA    05C0
....................          Dato_Exitoso=5; 
005BA:  MOVLW  05
005BC:  MOVWF  x6D
....................       }else{ 
005BE:  BRA    05C4
....................          Dato_Exitoso=10; 
005C0:  MOVLW  0A
005C2:  MOVWF  x6D
....................       } 
....................    } 
.................... } 
....................  
005C4:  BCF    F9E.5
005C6:  MOVLB  0
005C8:  GOTO   00FE
.................... #int_TIMER1 
.................... void temp1s(void){ 
....................    set_timer1(40536); // Se repite cada 5ms 
005CC:  MOVLW  9E
005CE:  MOVWF  FCF
005D0:  MOVLW  58
005D2:  MOVWF  FCE
....................    tiempos++; 
005D4:  MOVLB  2
005D6:  INCF   x85,F
005D8:  BTFSC  FD8.2
005DA:  INCF   x86,F
....................    tiempos2++; 
005DC:  INCF   x87,F
005DE:  BTFSC  FD8.2
005E0:  INCF   x88,F
....................    tiempos3++; 
005E2:  INCF   x89,F
005E4:  BTFSC  FD8.2
005E6:  INCF   x8A,F
....................    tiempoctrl++; 
005E8:  INCF   x8B,F
005EA:  BTFSC  FD8.2
005EC:  INCF   x8C,F
....................     
....................    if(flagAlarma) 
005EE:  MOVLB  1
005F0:  BTFSS  x06.5
005F2:  BRA    05FE
....................       tbuzzer++; 
005F4:  MOVLB  2
005F6:  INCF   xAF,F
005F8:  BTFSC  FD8.2
005FA:  INCF   xB0,F
005FC:  MOVLB  1
....................        
....................    if(flagSilencio)    
005FE:  BTFSS  x06.7
00600:  BRA    060A
....................       tsilencio++; 
00602:  MOVLB  2
00604:  INCF   xB1,F
00606:  BTFSC  FD8.2
00608:  INCF   xB2,F
....................  
....................    if(tiempos>=200){  // 12000 para que incremente cada minuto, 200para que incremente cada segundo. 
0060A:  MOVLB  2
0060C:  MOVF   x86,F
0060E:  BNZ   0618
00610:  MOVF   x85,W
00612:  SUBLW  C7
00614:  BTFSC  FD8.0
00616:  BRA    07D0
....................       if(flagTC) 
00618:  MOVLB  1
0061A:  BTFSS  x0A.7
0061C:  BRA    0622
....................          TiempoControl++; 
0061E:  MOVLB  2
00620:  INCF   xA7,F
....................        
....................       tiemporecta++; 
00622:  MOVLB  2
00624:  INCF   x68,F
....................        
....................       if(IniciaCiclo && tiempoImpresion<CalculoImpresion){ 
00626:  MOVLB  1
00628:  BTFSS  x03.6
0062A:  BRA    064C
0062C:  MOVLB  2
0062E:  MOVF   x9C,F
00630:  BTFSC  FD8.2
00632:  BRA    0638
00634:  MOVLB  1
00636:  BRA    064C
00638:  MOVF   x6B,W
0063A:  SUBWF  x9B,W
0063C:  BTFSS  FD8.0
0063E:  BRA    0644
00640:  MOVLB  1
00642:  BRA    064C
....................          tiempoImpresion++; 
00644:  INCF   x9B,F
00646:  BTFSC  FD8.2
00648:  INCF   x9C,F
....................       }else if(tiempoImpresion>=CalculoImpresion){ 
0064A:  BRA    065E
0064C:  MOVLB  2
0064E:  MOVF   x9C,F
00650:  BNZ   0658
00652:  MOVF   x6B,W
00654:  SUBWF  x9B,W
00656:  BNC   065E
....................          flagImprime=1; 
00658:  BSF    x66.0
....................          tiempoImpresion=0; 
0065A:  CLRF   x9C
0065C:  CLRF   x9B
....................       } 
....................        
....................       if(oprimioIniciar) 
0065E:  MOVLB  1
00660:  BTFSS  x03.1
00662:  BRA    066C
....................          tIniciar++; 
00664:  INCF   x17,F
00666:  BTFSC  FD8.2
00668:  INCF   x18,F
....................       else 
0066A:  BRA    0670
....................          tIniciar=0; 
0066C:  CLRF   x18
0066E:  CLRF   x17
....................           
....................       if(oprimioCiclo) 
00670:  BTFSS  x03.2
00672:  BRA    067C
....................          tCiclof++; 
00674:  INCF   x19,F
00676:  BTFSC  FD8.2
00678:  INCF   x1A,F
....................       else 
0067A:  BRA    0680
....................          tCiclof=0; 
0067C:  CLRF   x1A
0067E:  CLRF   x19
....................        
....................       if(oprimioCicloP) 
00680:  BTFSS  x03.3
00682:  BRA    068C
....................          tCicloP++; 
00684:  INCF   x1B,F
00686:  BTFSC  FD8.2
00688:  INCF   x1C,F
....................       else 
0068A:  BRA    0690
....................          tCicloP=0; 
0068C:  CLRF   x1C
0068E:  CLRF   x1B
....................           
....................       if(oprimioConfig) 
00690:  BTFSS  x03.4
00692:  BRA    069C
....................          tConfig++; 
00694:  INCF   x1D,F
00696:  BTFSC  FD8.2
00698:  INCF   x1E,F
....................       else 
0069A:  BRA    06A0
....................          tConfig=0; 
0069C:  CLRF   x1E
0069E:  CLRF   x1D
....................        
....................       if(vacioEmpaqueL) 
006A0:  MOVLB  0
006A2:  BTFSS  xFB.6
006A4:  BRA    06B0
....................          tVacioEmpaqueL++; 
006A6:  MOVLB  1
006A8:  INCF   x01,F
006AA:  BTFSC  FD8.2
006AC:  INCF   x02,F
....................       else 
006AE:  BRA    06B6
....................          tVacioEmpaqueL=0; 
006B0:  MOVLB  1
006B2:  CLRF   x02
006B4:  CLRF   x01
....................        
....................       if(vacioEmpaqueS) 
006B6:  MOVLB  0
006B8:  BTFSS  xFB.7
006BA:  BRA    06CA
....................          tVacioEmpaqueS++; 
006BC:  INCF   xFF,F
006BE:  BTFSS  FD8.2
006C0:  BRA    06C8
006C2:  MOVLB  1
006C4:  INCF   x00,F
006C6:  MOVLB  0
....................       else 
006C8:  BRA    06D2
....................          tVacioEmpaqueS=0; 
006CA:  MOVLB  1
006CC:  CLRF   x00
006CE:  MOVLB  0
006D0:  CLRF   xFF
....................           
....................       if(empaqueLimpio && !EMPAQUEL) 
006D2:  BTFSS  30.7
006D4:  BRA    06E4
006D6:  BTFSC  30.0
006D8:  BRA    06E4
....................          tEmpaqueL++; 
006DA:  MOVLB  2
006DC:  INCF   x7C,F
006DE:  BTFSC  FD8.2
006E0:  INCF   x7D,F
....................       else 
006E2:  BRA    06EA
....................          tEmpaqueL=0; 
006E4:  MOVLB  2
006E6:  CLRF   x7D
006E8:  CLRF   x7C
....................        
....................       if(empaqueSucio && !EMPAQUES) 
006EA:  MOVLB  0
006EC:  BTFSS  xF8.0
006EE:  BRA    0700
006F0:  BSF    F93.3
006F2:  BTFSS  F81.3
006F4:  BRA    0700
....................          tEmpaqueS++; 
006F6:  MOVLB  2
006F8:  INCF   x7A,F
006FA:  BTFSC  FD8.2
006FC:  INCF   x7B,F
....................       else 
006FE:  BRA    0706
....................          tEmpaqueS=0; 
00700:  MOVLB  2
00702:  CLRF   x7B
00704:  CLRF   x7A
....................        
....................       if(IniciaLlenado && !CalderinLleno) 
00706:  MOVLB  1
00708:  BTFSS  x03.5
0070A:  BRA    0716
0070C:  BTFSC  x04.4
0070E:  BRA    0716
....................          TiempoLlenado++; 
00710:  INCF   x1F,F
00712:  BTFSC  FD8.2
00714:  INCF   x20,F
....................        
....................       if(SensadoNivel) 
00716:  BTFSS  x04.1
00718:  BRA    0720
....................          TiempoSensadoNivel++; 
0071A:  INCF   x0D,F
0071C:  BTFSC  FD8.2
0071E:  INCF   x0E,F
....................           
....................       if(SensadoNivelR) 
00720:  BTFSS  x0A.2
00722:  BRA    0726
....................          TiempoSensadoNivelR++;    
00724:  INCF   xFB,F
....................        
....................       if(guardaCiclo) 
00726:  MOVLB  0
00728:  BTFSS  xFA.7
0072A:  BRA    0734
....................          tguarda++; 
0072C:  MOVLB  1
0072E:  INCF   x13,F
00730:  BTFSC  FD8.2
00732:  INCF   x14,F
....................        
....................       if(IniciaCiclo && !Esterilizando && DOORS && DOORL) 
00734:  MOVLB  1
00736:  BTFSS  x03.6
00738:  BRA    074E
0073A:  BTFSC  x03.7
0073C:  BRA    074E
0073E:  BSF    F93.1
00740:  BTFSC  F81.1
00742:  BRA    074E
00744:  BTFSS  30.1
00746:  BRA    074E
....................          TiempoCiclo++; 
00748:  INCF   x0B,F
0074A:  BTFSC  FD8.2
0074C:  INCF   x0C,F
....................        
....................       if(SensadoNivel) 
0074E:  BTFSS  x04.1
00750:  BRA    0758
....................          TiempoSensadoNivel++; 
00752:  INCF   x0D,F
00754:  BTFSC  FD8.2
00756:  INCF   x0E,F
....................           
....................       if(SensadoNivelL) 
00758:  BTFSS  x08.7
0075A:  BRA    0762
....................          tNivelBajo++; 
0075C:  INCF   x15,F
0075E:  BTFSC  FD8.2
00760:  INCF   x16,F
....................        
....................       if(IniciaVacio) 
00762:  BTFSS  x08.0
00764:  BRA    0770
....................          tvacio++;          
00766:  MOVLB  2
00768:  INCF   x99,F
0076A:  BTFSC  FD8.2
0076C:  INCF   x9A,F
0076E:  MOVLB  1
....................        
....................       if(IniciaVacio2) 
00770:  BTFSS  x08.1
00772:  BRA    077E
....................          tbomba++; 
00774:  MOVLB  2
00776:  INCF   x97,F
00778:  BTFSC  FD8.2
0077A:  INCF   x98,F
0077C:  MOVLB  1
....................           
....................       if(EstadoAgua2)    
0077E:  BTFSS  x05.4
00780:  BRA    078A
....................          tEnfriador++; 
00782:  MOVLB  2
00784:  INCF   x7E,F
00786:  BTFSC  FD8.2
00788:  INCF   x7F,F
....................        
....................       tiempos=0;Lectura=1;tinicio++; 
0078A:  MOVLB  2
0078C:  CLRF   x86
0078E:  CLRF   x85
00790:  MOVLB  1
00792:  BSF    x0A.4
00794:  MOVLB  2
00796:  INCF   x8F,F
00798:  BTFSC  FD8.2
0079A:  INCF   x90,F
....................     
....................       if(Esterilizando && !Desfogando){                
0079C:  MOVLB  1
0079E:  BTFSS  x03.7
007A0:  BRA    07B8
007A2:  BTFSC  x04.2
007A4:  BRA    07B8
....................          if(sEst>0){ 
007A6:  MOVF   x21,F
007A8:  BZ    07AE
....................             sEst--; 
007AA:  DECF   x21,F
....................          }else if(mEst>0){ 
007AC:  BRA    07B8
007AE:  MOVF   x22,F
007B0:  BZ    07B8
....................             mEst--; 
007B2:  DECF   x22,F
....................             sEst=59; 
007B4:  MOVLW  3B
007B6:  MOVWF  x21
....................          } 
....................       } 
....................       if(Secando){ 
007B8:  BTFSS  x04.0
007BA:  BRA    07CE
....................          if(sSec>0){ 
007BC:  MOVF   x23,F
007BE:  BZ    07C4
....................             sSec--; 
007C0:  DECF   x23,F
....................          }else if(mSec>0){ 
007C2:  BRA    07CE
007C4:  MOVF   x24,F
007C6:  BZ    07CE
....................             mSec--; 
007C8:  DECF   x24,F
....................             sSec=59; 
007CA:  MOVLW  3B
007CC:  MOVWF  x23
007CE:  MOVLB  2
....................          } 
....................       } 
....................    } 
.................... } 
....................  
007D0:  BCF    F9E.0
007D2:  MOVLB  0
007D4:  GOTO   0068
.................... void main() 
.................... { 
*
07886:  CLRF   FF8
07888:  BCF    F9F.0
0788A:  BSF    F9F.5
0788C:  BSF    FD0.7
0788E:  BSF    07.7
07890:  CLRF   FEA
07892:  CLRF   FE9
07894:  BSF    FB8.3
07896:  MOVLW  08
07898:  MOVWF  FAF
0789A:  MOVLW  02
0789C:  MOVWF  FB0
0789E:  MOVLW  A6
078A0:  MOVWF  FAC
078A2:  MOVLW  90
078A4:  MOVWF  FAB
078A6:  CLRF   47
078A8:  CLRF   xDD
078AA:  CLRF   xDE
078AC:  CLRF   xDF
078AE:  BCF    30.4
078B0:  BCF    30.5
078B2:  BCF    30.6
078B4:  BCF    30.7
078B6:  BCF    xF8.0
078B8:  BCF    xF8.1
078BA:  BCF    xF8.2
078BC:  BCF    xF8.3
078BE:  BCF    xF8.4
078C0:  BCF    xF8.5
078C2:  BCF    xF8.6
078C4:  BCF    xF8.7
078C6:  BCF    xF9.0
078C8:  BCF    xF9.1
078CA:  BCF    xF9.2
078CC:  BCF    xF9.3
078CE:  BCF    xF9.4
078D0:  BCF    xF9.5
078D2:  BCF    xF9.6
078D4:  BCF    xF9.7
078D6:  BCF    xFA.0
078D8:  BCF    xFA.1
078DA:  BCF    xFA.2
078DC:  BCF    xFA.3
078DE:  BCF    xFA.4
078E0:  BCF    xFA.5
078E2:  BCF    xFA.6
078E4:  BCF    xFA.7
078E6:  BCF    xFB.0
078E8:  BCF    xFB.1
078EA:  BCF    xFB.2
078EC:  BCF    xFB.3
078EE:  BCF    xFB.4
078F0:  BCF    xFB.5
078F2:  BCF    xFB.6
078F4:  BCF    xFB.7
078F6:  BCF    xFC.0
078F8:  BCF    xFC.1
078FA:  BCF    xFC.2
078FC:  MOVLW  02
078FE:  MOVWF  xFE
07900:  MOVLW  58
07902:  MOVWF  xFD
07904:  MOVLB  1
07906:  CLRF   x00
07908:  MOVLB  0
0790A:  CLRF   xFF
0790C:  MOVLB  1
0790E:  CLRF   x02
07910:  CLRF   x01
07912:  MOVLB  0
07914:  BCF    xFC.3
07916:  BCF    xFC.4
07918:  BCF    xFC.5
0791A:  BCF    xFC.6
0791C:  BCF    xFC.7
0791E:  MOVLB  1
07920:  BCF    x03.0
07922:  BCF    x03.1
07924:  BCF    x03.2
07926:  BCF    x03.3
07928:  BCF    x03.4
0792A:  BCF    x03.5
0792C:  BCF    x03.6
0792E:  BCF    x03.7
07930:  BCF    x04.0
07932:  BCF    x04.1
07934:  BCF    x04.2
07936:  BCF    x04.3
07938:  BCF    x04.4
0793A:  BCF    x04.5
0793C:  BCF    x04.6
0793E:  BCF    x04.7
07940:  BCF    x05.0
07942:  BCF    x05.1
07944:  BCF    x05.2
07946:  BCF    x05.3
07948:  BCF    x05.4
0794A:  BCF    x05.5
0794C:  BCF    x05.6
0794E:  BCF    x05.7
07950:  BCF    x06.0
07952:  BCF    x06.1
07954:  BCF    x06.2
07956:  BCF    x06.3
07958:  BCF    x06.4
0795A:  BCF    x06.5
0795C:  BCF    x06.6
0795E:  BCF    x06.7
07960:  BCF    x07.0
07962:  BCF    x07.1
07964:  BCF    x07.2
07966:  BCF    x07.3
07968:  BCF    x07.4
0796A:  BCF    x07.5
0796C:  BCF    x07.6
0796E:  BCF    x07.7
07970:  BCF    x08.0
07972:  BCF    x08.1
07974:  BCF    x08.2
07976:  BCF    x08.3
07978:  BCF    x08.4
0797A:  BCF    x08.5
0797C:  BCF    x08.6
0797E:  BCF    x08.7
07980:  BCF    x09.0
07982:  BCF    x09.1
07984:  BCF    x09.2
07986:  BCF    x09.3
07988:  BCF    x09.4
0798A:  BCF    x09.5
0798C:  BCF    x09.6
0798E:  BCF    x09.7
07990:  BCF    x0A.0
07992:  BCF    x0A.1
07994:  BCF    x0A.2
07996:  CLRF   x0C
07998:  CLRF   x0B
0799A:  CLRF   x0E
0799C:  CLRF   x0D
0799E:  CLRF   x10
079A0:  CLRF   x0F
079A2:  CLRF   x12
079A4:  CLRF   x11
079A6:  CLRF   x14
079A8:  CLRF   x13
079AA:  CLRF   x16
079AC:  CLRF   x15
079AE:  CLRF   x18
079B0:  CLRF   x17
079B2:  CLRF   x1A
079B4:  CLRF   x19
079B6:  CLRF   x1C
079B8:  CLRF   x1B
079BA:  CLRF   x1E
079BC:  CLRF   x1D
079BE:  CLRF   x20
079C0:  CLRF   x1F
079C2:  CLRF   x21
079C4:  CLRF   x22
079C6:  CLRF   x23
079C8:  CLRF   x24
079CA:  CLRF   x25
079CC:  CLRF   x26
079CE:  CLRF   x27
079D0:  CLRF   x28
079D2:  CLRF   xCC
079D4:  CLRF   xCB
079D6:  CLRF   xCA
079D8:  CLRF   xC9
079DA:  CLRF   xD0
079DC:  CLRF   xCF
079DE:  CLRF   xCE
079E0:  CLRF   xCD
079E2:  CLRF   xD4
079E4:  CLRF   xD3
079E6:  CLRF   xD2
079E8:  CLRF   xD1
079EA:  MOVLW  4A
079EC:  MOVWF  xD8
079EE:  MOVLW  88
079F0:  MOVWF  xD7
079F2:  MOVLW  28
079F4:  MOVWF  xD6
079F6:  MOVLW  75
079F8:  MOVWF  xD5
079FA:  CLRF   xDC
079FC:  MOVLW  80
079FE:  MOVWF  xDB
07A00:  MOVLW  54
07A02:  MOVWF  xDA
07A04:  MOVLW  8B
07A06:  MOVWF  xD9
07A08:  CLRF   xE0
07A0A:  CLRF   xDF
07A0C:  CLRF   xDE
07A0E:  CLRF   xDD
07A10:  CLRF   xE4
07A12:  CLRF   xE3
07A14:  CLRF   xE2
07A16:  CLRF   xE1
07A18:  CLRF   xF0
07A1A:  CLRF   xEF
07A1C:  CLRF   xEE
07A1E:  CLRF   xED
07A20:  CLRF   xF4
07A22:  CLRF   xF3
07A24:  CLRF   xF2
07A26:  CLRF   xF1
07A28:  CLRF   xF5
07A2A:  CLRF   xF6
07A2C:  MOVLW  14
07A2E:  MOVWF  xF7
07A30:  CLRF   xF8
07A32:  CLRF   xF9
07A34:  CLRF   xFA
07A36:  CLRF   xFB
07A38:  CLRF   xFC
07A3A:  CLRF   xFD
07A3C:  CLRF   xFE
07A3E:  MOVLB  2
07A40:  CLRF   x02
07A42:  CLRF   x01
07A44:  CLRF   x00
07A46:  MOVLB  1
07A48:  CLRF   xFF
07A4A:  MOVLB  2
07A4C:  CLRF   x0A
07A4E:  CLRF   x09
07A50:  MOVLW  20
07A52:  MOVWF  x08
07A54:  MOVLW  82
07A56:  MOVWF  x07
07A58:  CLRF   x0E
07A5A:  CLRF   x0D
07A5C:  CLRF   x0C
07A5E:  CLRF   x0B
07A60:  CLRF   x12
07A62:  CLRF   x11
07A64:  CLRF   x10
07A66:  CLRF   x0F
07A68:  CLRF   x16
07A6A:  CLRF   x15
07A6C:  CLRF   x14
07A6E:  CLRF   x13
07A70:  CLRF   x1A
07A72:  CLRF   x19
07A74:  CLRF   x18
07A76:  CLRF   x17
07A78:  CLRF   x1E
07A7A:  CLRF   x1D
07A7C:  CLRF   x1C
07A7E:  CLRF   x1B
07A80:  CLRF   x22
07A82:  CLRF   x21
07A84:  MOVLW  48
07A86:  MOVWF  x20
07A88:  MOVLW  83
07A8A:  MOVWF  x1F
07A8C:  CLRF   x26
07A8E:  CLRF   x25
07A90:  MOVLW  20
07A92:  MOVWF  x24
07A94:  MOVLW  83
07A96:  MOVWF  x23
07A98:  CLRF   x2A
07A9A:  CLRF   x29
07A9C:  CLRF   x28
07A9E:  MOVLW  7F
07AA0:  MOVWF  x27
07AA2:  CLRF   x2E
07AA4:  CLRF   x2D
07AA6:  CLRF   x2C
07AA8:  CLRF   x2B
07AAA:  CLRF   x32
07AAC:  CLRF   x31
07AAE:  CLRF   x30
07AB0:  CLRF   x2F
07AB2:  CLRF   x36
07AB4:  CLRF   x35
07AB6:  CLRF   x34
07AB8:  CLRF   x33
07ABA:  CLRF   x3A
07ABC:  CLRF   x39
07ABE:  CLRF   x38
07AC0:  CLRF   x37
07AC2:  CLRF   x3E
07AC4:  CLRF   x3D
07AC6:  CLRF   x3C
07AC8:  CLRF   x3B
07ACA:  CLRF   x42
07ACC:  CLRF   x41
07ACE:  CLRF   x40
07AD0:  CLRF   x3F
07AD2:  MOVLW  E0
07AD4:  MOVWF  x46
07AD6:  MOVLW  2D
07AD8:  MOVWF  x45
07ADA:  MOVLW  10
07ADC:  MOVWF  x44
07ADE:  MOVLW  75
07AE0:  MOVWF  x43
07AE2:  MOVLW  FF
07AE4:  MOVWF  x4A
07AE6:  MOVLW  21
07AE8:  MOVWF  x49
07AEA:  MOVLW  15
07AEC:  MOVWF  x48
07AEE:  MOVLW  80
07AF0:  MOVWF  x47
07AF2:  MOVLW  82
07AF4:  MOVWF  x4E
07AF6:  MOVLW  12
07AF8:  MOVWF  x4D
07AFA:  MOVLW  F4
07AFC:  MOVWF  x4C
07AFE:  MOVLW  86
07B00:  MOVWF  x4B
07B02:  CLRF   x4F
07B04:  CLRF   x50
07B06:  CLRF   x51
07B08:  MOVLW  B5
07B0A:  MOVWF  x55
07B0C:  MOVLW  EB
07B0E:  MOVWF  x54
07B10:  MOVLW  1B
07B12:  MOVWF  x53
07B14:  MOVLW  6B
07B16:  MOVWF  x52
07B18:  MOVLW  D0
07B1A:  MOVWF  x59
07B1C:  MOVLW  9B
07B1E:  MOVWF  x58
07B20:  MOVLW  8A
07B22:  MOVWF  x57
07B24:  MOVLW  75
07B26:  MOVWF  x56
07B28:  MOVLW  1A
07B2A:  MOVWF  x5D
07B2C:  MOVLW  DD
07B2E:  MOVWF  x5C
07B30:  MOVLW  61
07B32:  MOVWF  x5B
07B34:  MOVLW  7D
07B36:  MOVWF  x5A
07B38:  MOVLW  04
07B3A:  MOVWF  x61
07B3C:  MOVLW  16
07B3E:  MOVWF  x60
07B40:  MOVLW  02
07B42:  MOVWF  x5F
07B44:  MOVLW  85
07B46:  MOVWF  x5E
07B48:  CLRF   x65
07B4A:  CLRF   x64
07B4C:  CLRF   x63
07B4E:  CLRF   x62
07B50:  MOVLB  1
07B52:  BCF    x0A.3
07B54:  BCF    x0A.4
07B56:  BCF    x0A.5
07B58:  BCF    x0A.6
07B5A:  BCF    x0A.7
07B5C:  MOVLB  2
07B5E:  BCF    x66.0
07B60:  CLRF   x67
07B62:  CLRF   x68
07B64:  CLRF   x69
07B66:  MOVLW  02
07B68:  MOVWF  x6A
07B6A:  CLRF   x6B
07B6C:  MOVLW  01
07B6E:  MOVWF  x6C
07B70:  CLRF   x6D
07B72:  CLRF   x6E
07B74:  CLRF   x6F
07B76:  CLRF   x70
07B78:  CLRF   x71
07B7A:  MOVLW  F0
07B7C:  MOVWF  x72
07B7E:  CLRF   x73
07B80:  CLRF   x74
07B82:  CLRF   x75
07B84:  CLRF   x76
07B86:  CLRF   x77
07B88:  CLRF   x79
07B8A:  MOVLW  04
07B8C:  MOVWF  x78
07B8E:  CLRF   x7B
07B90:  CLRF   x7A
07B92:  CLRF   x7D
07B94:  CLRF   x7C
07B96:  CLRF   x7F
07B98:  CLRF   x7E
07B9A:  CLRF   x80
07B9C:  MOVLW  01
07B9E:  MOVWF  x81
07BA0:  MOVWF  x82
07BA2:  CLRF   x83
07BA4:  CLRF   x84
07BA6:  CLRF   x86
07BA8:  CLRF   x85
07BAA:  CLRF   x88
07BAC:  CLRF   x87
07BAE:  CLRF   x8A
07BB0:  CLRF   x89
07BB2:  CLRF   x8C
07BB4:  CLRF   x8B
07BB6:  CLRF   x8E
07BB8:  CLRF   x8D
07BBA:  CLRF   x90
07BBC:  CLRF   x8F
07BBE:  CLRF   x92
07BC0:  CLRF   x91
07BC2:  CLRF   x94
07BC4:  CLRF   x93
07BC6:  CLRF   x96
07BC8:  CLRF   x95
07BCA:  CLRF   x98
07BCC:  CLRF   x97
07BCE:  CLRF   x9A
07BD0:  CLRF   x99
07BD2:  CLRF   x9C
07BD4:  CLRF   x9B
07BD6:  CLRF   x9E
07BD8:  CLRF   x9D
07BDA:  CLRF   xA3
07BDC:  CLRF   xA4
07BDE:  CLRF   xA5
07BE0:  CLRF   xA6
07BE2:  CLRF   xA7
07BE4:  CLRF   xA8
07BE6:  CLRF   xA9
07BE8:  CLRF   xAA
07BEA:  CLRF   xAB
07BEC:  CLRF   xAC
07BEE:  CLRF   xAD
07BF0:  CLRF   xAE
07BF2:  CLRF   xB0
07BF4:  CLRF   xAF
07BF6:  CLRF   xB2
07BF8:  CLRF   xB1
07BFA:  MOVLW  12
07BFC:  MOVWF  xB3
07BFE:  MOVLW  09
07C00:  MOVWF  xB4
07C02:  MOVLW  0D
07C04:  MOVWF  xB5
07C06:  CLRF   xB6
07C08:  CLRF   xB7
07C0A:  CLRF   xB8
07C0C:  CLRF   xB9
07C0E:  CLRF   xBA
07C10:  CLRF   xBB
07C12:  MOVLW  19
07C14:  MOVWF  xBC
07C16:  MOVLW  4B
07C18:  MOVWF  xBD
07C1A:  MOVLW  0A
07C1C:  MOVWF  xBE
07C1E:  CLRF   xBF
07C20:  CLRF   xC0
07C22:  CLRF   xC1
07C24:  CLRF   xC2
07C26:  CLRF   xC3
07C28:  CLRF   xC4
07C2A:  CLRF   xC5
07C2C:  CLRF   xC6
07C2E:  CLRF   xC7
07C30:  CLRF   xC8
07C32:  CLRF   xC9
07C34:  CLRF   xCA
07C36:  CLRF   xCB
07C38:  CLRF   xCC
07C3A:  CLRF   xCD
07C3C:  CLRF   xCE
07C3E:  CLRF   xCF
07C40:  MOVLB  3
07C42:  CLRF   x31
07C44:  CLRF   x32
07C46:  CLRF   x33
07C48:  CLRF   x34
07C4A:  CLRF   x35
07C4C:  MOVF   FC1,W
07C4E:  ANDLW  C0
07C50:  IORLW  0F
07C52:  MOVWF  FC1
07C54:  MOVLW  07
07C56:  MOVWF  FB4
07C58:  CLRF   2A
07C5A:  CLRF   2B
07C5C:  MOVLB  0
07C5E:  CLRF   xE0
07C60:  MOVLW  03
07C62:  MOVWF  xE1
07C64:  MOVWF  xE2
07C66:  MOVLW  06
07C68:  MOVWF  xE3
07C6A:  MOVLW  01
07C6C:  MOVWF  xE4
07C6E:  MOVLW  04
07C70:  MOVWF  xE5
07C72:  MOVLW  06
07C74:  MOVWF  xE6
07C76:  MOVLW  02
07C78:  MOVWF  xE7
07C7A:  MOVLW  05
07C7C:  MOVWF  xE8
07C7E:  CLRF   xE9
07C80:  MOVLW  03
07C82:  MOVWF  xEA
07C84:  MOVLW  05
07C86:  MOVWF  xEB
07C88:  CLRF   xEC
07C8A:  MOVLW  03
07C8C:  MOVWF  xED
07C8E:  MOVLW  04
07C90:  MOVWF  xEE
07C92:  CLRF   xEF
07C94:  MOVLW  02
07C96:  MOVWF  xF0
07C98:  MOVLW  05
07C9A:  MOVWF  xF1
07C9C:  CLRF   xF2
07C9E:  MOVLW  03
07CA0:  MOVWF  xF3
07CA2:  MOVLW  06
07CA4:  MOVWF  xF4
07CA6:  MOVLW  01
07CA8:  MOVWF  xF5
07CAA:  MOVLW  04
07CAC:  MOVWF  xF6
07CAE:  MOVLW  06
07CB0:  MOVWF  xF7
07CB2:  MOVLB  1
07CB4:  CLRF   x29
07CB6:  CLRF   x2A
07CB8:  CLRF   x2B
07CBA:  CLRF   x2C
07CBC:  CLRF   x2D
07CBE:  CLRF   x2E
07CC0:  CLRF   x2F
07CC2:  CLRF   x30
07CC4:  CLRF   x31
07CC6:  CLRF   x32
07CC8:  CLRF   x33
07CCA:  CLRF   x34
07CCC:  CLRF   x35
07CCE:  CLRF   x36
07CD0:  CLRF   x37
07CD2:  CLRF   x38
07CD4:  CLRF   x39
07CD6:  CLRF   x3A
07CD8:  CLRF   x3B
07CDA:  CLRF   x3C
07CDC:  CLRF   x3D
07CDE:  CLRF   x3E
07CE0:  CLRF   x3F
07CE2:  CLRF   x40
07CE4:  CLRF   x41
07CE6:  CLRF   x42
07CE8:  CLRF   x43
07CEA:  CLRF   x44
07CEC:  CLRF   x45
07CEE:  CLRF   x46
07CF0:  CLRF   x47
07CF2:  CLRF   x48
07CF4:  CLRF   x49
07CF6:  CLRF   x4A
07CF8:  CLRF   x4B
07CFA:  CLRF   x4C
07CFC:  CLRF   x4D
07CFE:  CLRF   x4E
07D00:  CLRF   x4F
07D02:  CLRF   x50
07D04:  CLRF   x51
07D06:  CLRF   x52
07D08:  CLRF   x53
07D0A:  CLRF   x54
07D0C:  CLRF   x55
07D0E:  CLRF   x56
07D10:  CLRF   x57
07D12:  CLRF   x58
07D14:  CLRF   x59
07D16:  CLRF   x5A
07D18:  CLRF   x5B
07D1A:  CLRF   x5C
07D1C:  CLRF   x5D
07D1E:  CLRF   x5E
07D20:  CLRF   x5F
07D22:  CLRF   x60
07D24:  CLRF   x61
07D26:  CLRF   x62
07D28:  CLRF   x63
07D2A:  CLRF   x64
07D2C:  CLRF   x65
07D2E:  CLRF   x66
07D30:  CLRF   x67
07D32:  CLRF   x68
07D34:  CLRF   x69
07D36:  CLRF   x6A
07D38:  CLRF   x6B
07D3A:  CLRF   x6C
07D3C:  CLRF   x6D
07D3E:  CLRF   x6E
07D40:  CLRF   x6F
07D42:  CLRF   x70
07D44:  CLRF   x71
07D46:  CLRF   x72
07D48:  CLRF   x73
07D4A:  CLRF   x74
07D4C:  CLRF   x75
07D4E:  CLRF   x76
07D50:  CLRF   x77
07D52:  CLRF   x78
07D54:  CLRF   x79
07D56:  CLRF   x7A
07D58:  CLRF   x7B
07D5A:  CLRF   x7C
07D5C:  CLRF   x7D
07D5E:  CLRF   x7E
07D60:  CLRF   x7F
07D62:  CLRF   x80
07D64:  CLRF   x81
07D66:  CLRF   x82
07D68:  CLRF   x83
07D6A:  CLRF   x84
07D6C:  CLRF   x85
07D6E:  CLRF   x86
07D70:  CLRF   x87
07D72:  CLRF   x88
07D74:  CLRF   x89
07D76:  CLRF   x8A
07D78:  CLRF   x8B
07D7A:  CLRF   x8C
07D7C:  CLRF   x8D
07D7E:  CLRF   x8E
07D80:  CLRF   x8F
07D82:  CLRF   x90
07D84:  CLRF   x91
07D86:  CLRF   x92
07D88:  CLRF   x93
07D8A:  CLRF   x94
07D8C:  CLRF   x95
07D8E:  CLRF   x96
07D90:  CLRF   x97
07D92:  CLRF   x98
07D94:  CLRF   x99
07D96:  CLRF   x9A
07D98:  CLRF   x9B
07D9A:  CLRF   x9C
07D9C:  CLRF   x9D
07D9E:  CLRF   x9E
07DA0:  CLRF   x9F
07DA2:  CLRF   xA0
07DA4:  CLRF   xA1
07DA6:  CLRF   xA2
07DA8:  CLRF   xA3
07DAA:  CLRF   xA4
07DAC:  CLRF   xA5
07DAE:  CLRF   xA6
07DB0:  CLRF   xA7
07DB2:  CLRF   xA8
07DB4:  CLRF   xA9
07DB6:  CLRF   xAA
07DB8:  CLRF   xAB
07DBA:  CLRF   xAC
07DBC:  CLRF   xAD
07DBE:  CLRF   xAE
07DC0:  CLRF   xAF
07DC2:  CLRF   xB0
07DC4:  CLRF   xB1
07DC6:  CLRF   xB2
07DC8:  CLRF   xB3
07DCA:  CLRF   xB4
07DCC:  CLRF   xB5
07DCE:  CLRF   xB6
07DD0:  CLRF   xB7
07DD2:  CLRF   xB8
07DD4:  CLRF   xB9
07DD6:  CLRF   xBA
07DD8:  CLRF   xBB
07DDA:  CLRF   xBC
07DDC:  CLRF   xBD
07DDE:  CLRF   xBE
07DE0:  CLRF   xBF
07DE2:  CLRF   xC0
07DE4:  CLRF   xC1
07DE6:  CLRF   xC2
07DE8:  CLRF   xC3
07DEA:  CLRF   xC4
07DEC:  CLRF   xC5
07DEE:  CLRF   xC6
07DF0:  CLRF   xC7
07DF2:  CLRF   xC8
07DF4:  CLRF   xE5
07DF6:  CLRF   xE6
07DF8:  CLRF   xE7
07DFA:  CLRF   xE8
07DFC:  CLRF   xE9
07DFE:  CLRF   xEA
07E00:  CLRF   xEB
07E02:  CLRF   xEC
07E04:  MOVLB  2
07E06:  CLRF   x9F
07E08:  CLRF   xA0
07E0A:  CLRF   xA1
07E0C:  CLRF   xA2
07E0E:  MOVLB  3
07E10:  CLRF   x36
07E12:  CLRF   x37
07E14:  CLRF   x38
07E16:  CLRF   x39
....................    setup_timer_1(T1_INTERNAL|T1_DIV_BY_1); 
07E18:  MOVLW  85
07E1A:  MOVWF  FCD
....................    enable_interrupts(INT_TIMER1); 
07E1C:  BSF    F9D.0
....................    setup_adc(ADC_CLOCK_DIV_64); 
07E1E:  MOVF   FC0,W
07E20:  ANDLW  C0
07E22:  IORLW  06
07E24:  MOVWF  FC0
07E26:  BSF    FC0.7
07E28:  BSF    FC2.0
....................    setup_adc_ports(AN0_TO_AN5); 
07E2A:  MOVF   FC1,W
07E2C:  ANDLW  C0
07E2E:  IORLW  09
07E30:  MOVWF  FC1
....................    port_b_pullups(true); 
07E32:  BCF    FF1.7
....................    enable_interrupts(int_rda); 
07E34:  BSF    F9D.5
....................    setup_wdt(WDT_ON); 
07E36:  BSF    FD1.0
....................    enable_interrupts(global); 
07E38:  MOVLW  C0
07E3A:  IORWF  FF2,F
....................    LeeEEPROM(); 
07E3C:  MOVLB  0
07E3E:  GOTO   2818
....................    rtc_init(); 
07E42:  GOTO   3BB0
....................    delay_ms(1); 
07E46:  MOVLW  01
07E48:  MOVLB  6
07E4A:  MOVWF  xDC
07E4C:  MOVLB  0
07E4E:  CALL   2142
....................    LimitaValores(); 
07E52:  GOTO   3C50
....................    printf("page Bienvenida"); 
07E56:  MOVLW  D8
07E58:  MOVWF  FF6
07E5A:  MOVLW  07
07E5C:  MOVWF  FF7
07E5E:  MOVLW  00
07E60:  MOVWF  FF8
07E62:  CALL   41BC
....................    SendDataDisplay(); 
07E66:  CALL   41EE
....................    printf("bkcmd=0"); 
07E6A:  MOVLW  E8
07E6C:  MOVWF  FF6
07E6E:  MOVLW  07
07E70:  MOVWF  FF7
07E72:  MOVLW  00
07E74:  MOVWF  FF8
07E76:  CALL   41BC
....................    SendDataDisplay(); 
07E7A:  CALL   41EE
....................    delay_ms(3500);  
07E7E:  MOVLW  0E
07E80:  MOVLB  6
07E82:  MOVWF  xCA
07E84:  MOVLW  FA
07E86:  MOVWF  xDC
07E88:  MOVLB  0
07E8A:  CALL   2142
07E8E:  MOVLB  6
07E90:  DECFSZ xCA,F
07E92:  BRA    7E84
....................    printf("page Usuarios"); 
07E94:  MOVLW  F0
07E96:  MOVWF  FF6
07E98:  MOVLW  07
07E9A:  MOVWF  FF7
07E9C:  MOVLW  00
07E9E:  MOVWF  FF8
07EA0:  MOVLB  0
07EA2:  CALL   41BC
....................    SendDataDisplay(); 
07EA6:  CALL   41EE
....................    ApagaSalidas();    
07EAA:  CALL   4224
....................    TiempoVacio=360;  
07EAE:  MOVLW  01
07EB0:  MOVWF  xFE
07EB2:  MOVLW  68
07EB4:  MOVWF  xFD
....................    Sensor[0].Gain=106.07; 
07EB6:  MOVLW  D7
07EB8:  MOVLB  4
07EBA:  MOVWF  x9D
07EBC:  MOVLW  23
07EBE:  MOVWF  x9C
07EC0:  MOVLW  54
07EC2:  MOVWF  x9B
07EC4:  MOVLW  85
07EC6:  MOVWF  x9A
....................    Sensor[1].Gain=106.07; 
07EC8:  MOVLW  D7
07ECA:  MOVLB  6
07ECC:  MOVWF  x01
07ECE:  MOVLW  23
07ED0:  MOVWF  x00
07ED2:  MOVLW  54
07ED4:  MOVLB  5
07ED6:  MOVWF  xFF
07ED8:  MOVLW  85
07EDA:  MOVWF  xFE
....................    Imprime=10; 
07EDC:  MOVLW  0A
07EDE:  MOVLB  2
07EE0:  MOVWF  xC7
....................    CalculoImpresion=timpresion*60; 
07EE2:  MOVF   x6A,W
07EE4:  MULLW  3C
07EE6:  MOVFF  FF3,26B
....................     
....................    for(i=0;i<MediaMovil;i++){ 
07EEA:  CLRF   x73
07EEC:  MOVLB  1
07EEE:  MOVF   xF7,W
07EF0:  MOVLB  2
07EF2:  SUBWF  x73,W
07EF4:  BC    7F8A
....................       Temperatura=LeerPT100(0,MediaMovil); 
07EF6:  MOVLB  6
07EF8:  CLRF   xCC
07EFA:  MOVFF  1F7,6CD
07EFE:  MOVLB  0
07F00:  CALL   437A
07F04:  MOVFF  03,23E
07F08:  MOVFF  02,23D
07F0C:  MOVFF  01,23C
07F10:  MOVFF  00,23B
....................       Temperatura2=LeerPT100(1,MediaMovil); 
07F14:  MOVLW  01
07F16:  MOVLB  6
07F18:  MOVWF  xCC
07F1A:  MOVFF  1F7,6CD
07F1E:  MOVLB  0
07F20:  CALL   437A
07F24:  MOVFF  03,242
07F28:  MOVFF  02,241
07F2C:  MOVFF  01,240
07F30:  MOVFF  00,23F
....................       PresionCamara=Leer_Sensor_Presion_Camara(20); 
07F34:  MOVLW  14
07F36:  MOVLB  6
07F38:  MOVWF  xCC
07F3A:  MOVLB  0
07F3C:  CALL   4C5A
07F40:  MOVFF  03,6DF
07F44:  MOVFF  02,6DE
07F48:  MOVFF  01,6DD
07F4C:  MOVFF  00,6DC
07F50:  CALL   4E58
07F54:  MOVFF  02,292
07F58:  MOVFF  01,291
....................       PresionPreCamara=Leer_Sensor_Presion_PreCamara(20); 
07F5C:  MOVLW  14
07F5E:  MOVLB  6
07F60:  MOVWF  xCC
07F62:  MOVLB  0
07F64:  CALL   4E94
07F68:  MOVFF  03,6DF
07F6C:  MOVFF  02,6DE
07F70:  MOVFF  01,6DD
07F74:  MOVFF  00,6DC
07F78:  CALL   4E58
07F7C:  MOVFF  02,294
07F80:  MOVFF  01,293
....................    } 
07F84:  MOVLB  2
07F86:  INCF   x73,F
07F88:  BRA    7EEC
....................    seguroValvula=OFF; 
07F8A:  MOVLB  0
07F8C:  BCF    xF9.1
....................    seguroValvula2=OFF; 
07F8E:  BCF    xF9.2
....................    if(!DOORS){ 
07F90:  BSF    F93.1
07F92:  BTFSS  F81.1
07F94:  BRA    7F9C
....................       abrePuertaS(); 
07F96:  GOTO   5092
....................    }else{ 
07F9A:  BRA    7FA0
....................       cierraPuertaS(); 
07F9C:  GOTO   50FC
....................    } 
....................           
....................    //if(ingreso){ 
....................    if(!DOORL){ 
07FA0:  BTFSC  30.1
07FA2:  BRA    7FAA
....................       //abrePuertaL(); 
....................       monitoreaPuertaLimpio(); 
07FA4:  GOTO   51DA
....................    }else{ 
07FA8:  BRA    7FAE
....................       cierraPuertaL(); 
07FAA:  CALL   5138
....................    } 
....................     
....................    while(true){ 
....................        
....................       LeeDisplay(); 
07FAE:  GOTO   5272
....................       Envio_Esclavos(); 
07FB2:  CALL   579A
....................       delay_ms(10); 
07FB6:  MOVLW  0A
07FB8:  MOVLB  6
07FBA:  MOVWF  xDC
07FBC:  MOVLB  0
07FBE:  CALL   2142
....................       Lectura_Esclavos(); 
07FC2:  GOTO   586A
....................       rtc_get_date(Dia,Mes,Year,dow); 
....................       rtc_get_time(Hora,Minuto,Segundo); 
....................       restart_wdt(); 
*
0808A:  CLRWDT
....................       if(!Esterilizando || Desfogando){ 
0808C:  MOVLB  1
0808E:  BTFSS  x03.7
08090:  BRA    8096
08092:  BTFSS  x04.2
08094:  BRA    80A0
....................          CalculoImpresion=180; 
08096:  MOVLW  B4
08098:  MOVLB  2
0809A:  MOVWF  x6B
....................       }else{ 
0809C:  BRA    80A6
0809E:  MOVLB  1
....................          CalculoImpresion=60; 
080A0:  MOVLW  3C
080A2:  MOVLB  2
080A4:  MOVWF  x6B
....................       } 
....................        
....................       graficaCurva(2000); 
080A6:  MOVLW  07
080A8:  MOVLB  6
080AA:  MOVWF  xCB
080AC:  MOVLW  D0
080AE:  MOVWF  xCA
080B0:  MOVLB  0
080B2:  GOTO   5A16
....................       muestreo(20); 
080B6:  MOVLB  6
080B8:  CLRF   xCB
080BA:  MOVLW  14
080BC:  MOVWF  xCA
080BE:  MOVLB  0
080C0:  GOTO   5A3C
....................       monitoreaAgua(); 
080C4:  GOTO   5AEC
....................       monitoreaStop(); 
080C8:  GOTO   5BD2
....................        
....................       /* 
....................       if(Menu!=20 && !PruebaEstados){ 
....................          if(!DOORS){ 
....................             abrePuertaS(); 
....................          }else{ 
....................             cierraPuertaS(); 
....................          } 
....................           
....................          //if(ingreso){ 
....................             if(!DOORL){ 
....................                //abrePuertaL(); 
....................                monitoreaPuertaLimpio(); 
....................             }else{ 
....................                cierraPuertaL(); 
....................             } 
....................          //} 
....................       } 
....................        
....................       if(ingreso && !PruebaEstados) 
....................          monitoreaPuertaLimpio(); 
....................           
....................       if(PresionCamara>Atmosferica+15){ 
....................          cierraPuertaS(); 
....................          cierraPuertaL(); 
....................       } 
....................       */ 
....................  
....................  
.................... //_-------------------------------------------------------------------------------------------------------------------------------------------------------- 
....................    if(Menu==240){ //Menu de Bienvenida. 
080CC:  MOVLB  2
080CE:  MOVF   x70,W
080D0:  SUBLW  F0
080D2:  BNZ   8120
....................       printf("bkcmd=0"); 
080D4:  MOVLW  FE
080D6:  MOVWF  FF6
080D8:  MOVLW  07
080DA:  MOVWF  FF7
080DC:  MOVLW  00
080DE:  MOVWF  FF8
080E0:  MOVLB  0
080E2:  CALL   41BC
....................       SendDataDisplay(); 
080E6:  CALL   41EE
....................       delay_ms(1500); 
080EA:  MOVLW  06
080EC:  MOVLB  6
080EE:  MOVWF  xCA
080F0:  MOVLW  FA
080F2:  MOVWF  xDC
080F4:  MOVLB  0
080F6:  CALL   2142
080FA:  MOVLB  6
080FC:  DECFSZ xCA,F
080FE:  BRA    80F0
....................       printf("page Usuarios"); 
08100:  MOVLW  06
08102:  MOVWF  FF6
08104:  MOVLW  08
08106:  MOVWF  FF7
08108:  MOVLW  00
0810A:  MOVWF  FF8
0810C:  MOVLB  0
0810E:  CALL   41BC
....................       SendDataDisplay(); 
08112:  CALL   41EE
....................       ApagaSalidas(); 
08116:  CALL   4224
....................    }else if(Menu==0){ //Menu de Contrasea de acceso. 
0811A:  GOTO   F4DC
0811E:  MOVLB  2
08120:  MOVF   x70,F
08122:  BTFSS  FD8.2
08124:  BRA    875C
....................       entro=OFF; 
08126:  MOVLB  1
08128:  BCF    x09.5
....................       ApagaSalidas(); 
0812A:  MOVLB  0
0812C:  CALL   4224
....................       //printf("bkcmd=0"); 
....................       //SendDataDisplay(); 
....................       if(RX_Buffer[4]==0x11){//11 
08130:  MOVF   35,W
08132:  SUBLW  11
08134:  BNZ   8156
....................          if(TipoClave!=0){ 
08136:  MOVLB  1
08138:  MOVF   xF9,F
0813A:  BZ    8156
....................             printf("page Menu"); 
0813C:  MOVLW  14
0813E:  MOVWF  FF6
08140:  MOVLW  08
08142:  MOVWF  FF7
08144:  MOVLW  00
08146:  MOVWF  FF8
08148:  MOVLB  0
0814A:  CALL   41BC
....................             SendDataDisplay(); 
0814E:  CALL   41EE
....................             PantallaPrincipal=0; 
08152:  MOVLB  1
08154:  CLRF   xF8
....................          } 
....................       } 
....................        
....................       if(TipoClave==3){ 
08156:  MOVLB  1
08158:  MOVF   xF9,W
0815A:  SUBLW  03
0815C:  BNZ   8176
....................          printf("titulo.txt=\"Clave Nueva\""); 
0815E:  MOVLW  1E
08160:  MOVWF  FF6
08162:  MOVLW  08
08164:  MOVWF  FF7
08166:  MOVLW  00
08168:  MOVWF  FF8
0816A:  MOVLB  0
0816C:  CALL   41BC
....................          SendDataDisplay(); 
08170:  CALL   41EE
08174:  MOVLB  1
....................       } 
....................        
....................       if(TipoClave==2){ 
08176:  MOVF   xF9,W
08178:  SUBLW  02
0817A:  BNZ   8194
....................          printf("titulo.txt=\"Clave Actual\""); 
0817C:  MOVLW  38
0817E:  MOVWF  FF6
08180:  MOVLW  08
08182:  MOVWF  FF7
08184:  MOVLW  00
08186:  MOVWF  FF8
08188:  MOVLB  0
0818A:  CALL   41BC
....................          SendDataDisplay();         
0818E:  CALL   41EE
08192:  MOVLB  1
....................       } 
....................        
....................       if(TipoClave==1){ 
08194:  DECFSZ xF9,W
08196:  BRA    81B0
....................          printf("titulo.txt=\"Clave Tecnico\""); 
08198:  MOVLW  52
0819A:  MOVWF  FF6
0819C:  MOVLW  08
0819E:  MOVWF  FF7
081A0:  MOVLW  00
081A2:  MOVWF  FF8
081A4:  MOVLB  0
081A6:  CALL   41BC
....................          SendDataDisplay(); 
081AA:  CALL   41EE
081AE:  MOVLB  1
....................       } 
....................        
....................       if(TipoClave==0){ 
081B0:  MOVF   xF9,F
081B2:  BNZ   81E6
....................          printf("titulo.txt=\"%s\"",usuario); 
081B4:  MOVLW  6E
081B6:  MOVWF  FF6
081B8:  MOVLW  08
081BA:  MOVWF  FF7
081BC:  MOVLW  00
081BE:  MOVWF  FF8
081C0:  MOVLW  0C
081C2:  MOVLB  6
081C4:  MOVWF  xCF
081C6:  MOVLB  0
081C8:  CALL   5C56
081CC:  MOVLW  02
081CE:  MOVWF  FEA
081D0:  MOVLW  D0
081D2:  MOVWF  FE9
081D4:  CALL   5C88
081D8:  MOVLW  22
081DA:  BTFSS  F9E.4
081DC:  BRA    81DA
081DE:  MOVWF  FAD
....................          SendDataDisplay(); 
081E0:  CALL   41EE
081E4:  MOVLB  1
....................       } 
....................        
....................       if(RX_Buffer[4]==0x11){//11, Regresar 
081E6:  MOVF   35,W
081E8:  SUBLW  11
081EA:  BNZ   8222
....................          if(TipoClave==1){ 
081EC:  DECFSZ xF9,W
081EE:  BRA    820A
....................             printf("page Ajustes"); 
081F0:  MOVLW  7E
081F2:  MOVWF  FF6
081F4:  MOVLW  08
081F6:  MOVWF  FF7
081F8:  MOVLW  00
081FA:  MOVWF  FF8
081FC:  MOVLB  0
081FE:  CALL   41BC
....................             SendDataDisplay();        
08202:  CALL   41EE
....................          }else{ 
08206:  BRA    8220
08208:  MOVLB  1
....................             printf("page Usuarios"); 
0820A:  MOVLW  8C
0820C:  MOVWF  FF6
0820E:  MOVLW  08
08210:  MOVWF  FF7
08212:  MOVLW  00
08214:  MOVWF  FF8
08216:  MOVLB  0
08218:  CALL   41BC
....................             SendDataDisplay();        
0821C:  CALL   41EE
08220:  MOVLB  1
....................          } 
....................       } 
....................        
....................       if(RX_Buffer[3]==0x0f){//0f, recibe caracteres ingresados desde el Display 
08222:  MOVF   34,W
08224:  SUBLW  0F
08226:  BTFSS  FD8.2
08228:  BRA    8754
....................          delay_ms(800); 
0822A:  MOVLW  04
0822C:  MOVLB  6
0822E:  MOVWF  xCA
08230:  MOVLW  C8
08232:  MOVWF  xDC
08234:  MOVLB  0
08236:  CALL   2142
0823A:  MOVLB  6
0823C:  DECFSZ xCA,F
0823E:  BRA    8230
....................          if(TipoClave==0){ 
08240:  MOVLB  1
08242:  MOVF   xF9,F
08244:  BTFSS  FD8.2
08246:  BRA    83FA
....................             if(RX_Buffer[4]==0x33&&RX_Buffer[5]==0x38&&RX_Buffer[6]==0x39&&RX_Buffer[7]==0x32 &&RX_Buffer[8]==0x00 &&RX_Buffer[9]==0xff){ // Si Ingresa clave para reset general del sistema. 
08248:  MOVF   35,W
0824A:  SUBLW  33
0824C:  BNZ   82C6
0824E:  MOVF   36,W
08250:  SUBLW  38
08252:  BNZ   82C6
08254:  MOVF   37,W
08256:  SUBLW  39
08258:  BNZ   82C6
0825A:  MOVF   38,W
0825C:  SUBLW  32
0825E:  BNZ   82C6
08260:  MOVF   39,F
08262:  BNZ   82C6
08264:  INCFSZ 3A,W
08266:  BRA    82C6
....................                for(i=0;i<40;i++){//Lee contraseas de usuarios 
08268:  MOVLB  2
0826A:  CLRF   x73
0826C:  MOVF   x73,W
0826E:  SUBLW  27
08270:  BNC   82C2
....................                   write_eeprom(300+i,0);delay_ms(20); 
08272:  MOVLW  2C
08274:  ADDWF  x73,W
08276:  MOVLB  6
08278:  MOVWF  xCA
0827A:  MOVLW  01
0827C:  MOVWF  xCB
0827E:  BTFSC  FD8.0
08280:  INCF   xCB,F
08282:  MOVFF  6CB,FAA
08286:  MOVFF  6CA,FA9
0828A:  CLRF   FA8
0828C:  BCF    FA6.6
0828E:  BCF    FA6.7
08290:  BSF    FA6.2
08292:  MOVF   FF2,W
08294:  MOVWF  00
08296:  BCF    FF2.6
08298:  BCF    FF2.7
0829A:  MOVLB  F
0829C:  MOVLW  55
0829E:  MOVWF  FA7
082A0:  MOVLW  AA
082A2:  MOVWF  FA7
082A4:  BSF    FA6.1
082A6:  BTFSC  FA6.1
082A8:  BRA    82A6
082AA:  BCF    FA6.2
082AC:  MOVF   00,W
082AE:  IORWF  FF2,F
082B0:  MOVLW  14
082B2:  MOVLB  6
082B4:  MOVWF  xDC
082B6:  MOVLB  0
082B8:  CALL   2142
....................                } 
082BC:  MOVLB  2
082BE:  INCF   x73,F
082C0:  BRA    826C
....................                reset_cpu(); 
082C2:  RESET
082C4:  MOVLB  1
....................             } 
....................              
....................             if(RX_Buffer[4]>=0x30 && RX_Buffer[5]>=0x30 && RX_Buffer[6]>=0x30 && RX_Buffer[7]>=0x30 
....................             && RX_Buffer[4]<=0x39 && RX_Buffer[5]<=0x39 && RX_Buffer[6]<=0x39 && RX_Buffer[7]<=0x39){ 
082C6:  MOVF   35,W
082C8:  SUBLW  2F
082CA:  BTFSC  FD8.0
082CC:  BRA    83F8
082CE:  MOVF   36,W
082D0:  SUBLW  2F
082D2:  BTFSC  FD8.0
082D4:  BRA    83F8
082D6:  MOVF   37,W
082D8:  SUBLW  2F
082DA:  BTFSC  FD8.0
082DC:  BRA    83F8
082DE:  MOVF   38,W
082E0:  SUBLW  2F
082E2:  BTFSC  FD8.0
082E4:  BRA    83F8
082E6:  MOVF   35,W
082E8:  SUBLW  39
082EA:  BTFSS  FD8.0
082EC:  BRA    83F8
082EE:  MOVF   36,W
082F0:  SUBLW  39
082F2:  BTFSS  FD8.0
082F4:  BRA    83F8
082F6:  MOVF   37,W
082F8:  SUBLW  39
082FA:  BTFSS  FD8.0
082FC:  BRA    83F8
082FE:  MOVF   38,W
08300:  SUBLW  39
08302:  BTFSS  FD8.0
08304:  BRA    83F8
....................                if((RX_Buffer[4]==Clave[codigoUsuario].Password[0]+0x30)&&(RX_Buffer[5]==Clave[codigoUsuario].Password[1]+0x30)&& 
....................                (RX_Buffer[6]==Clave[codigoUsuario].Password[2]+0x30)&&(RX_Buffer[7]==Clave[codigoUsuario].Password[3]+0x30) 
....................                &&RX_Buffer[8]==0x00 &&RX_Buffer[9]==0xff){ 
08306:  MOVLB  2
08308:  MOVF   xCA,W
0830A:  MULLW  04
0830C:  MOVF   FF3,W
0830E:  MOVLB  6
08310:  CLRF   xCB
08312:  MOVWF  xCA
08314:  MOVLW  A2
08316:  ADDWF  xCA,W
08318:  MOVWF  FE9
0831A:  MOVLW  06
0831C:  ADDWFC xCB,W
0831E:  MOVWF  FEA
08320:  MOVLW  30
08322:  ADDWF  FEF,W
08324:  SUBWF  35,W
08326:  BNZ   83DC
08328:  MOVLB  2
0832A:  MOVF   xCA,W
0832C:  MULLW  04
0832E:  MOVF   FF3,W
08330:  MOVLB  6
08332:  CLRF   xCB
08334:  MOVWF  xCA
08336:  MOVLW  01
08338:  ADDWF  xCA,W
0833A:  MOVWF  01
0833C:  MOVLW  00
0833E:  ADDWFC xCB,W
08340:  MOVWF  03
08342:  MOVF   01,W
08344:  ADDLW  A2
08346:  MOVWF  FE9
08348:  MOVLW  06
0834A:  ADDWFC 03,W
0834C:  MOVWF  FEA
0834E:  MOVLW  30
08350:  ADDWF  FEF,W
08352:  SUBWF  36,W
08354:  BNZ   83DC
08356:  MOVLB  2
08358:  MOVF   xCA,W
0835A:  MULLW  04
0835C:  MOVF   FF3,W
0835E:  MOVLB  6
08360:  CLRF   xCB
08362:  MOVWF  xCA
08364:  MOVLW  02
08366:  ADDWF  xCA,W
08368:  MOVWF  01
0836A:  MOVLW  00
0836C:  ADDWFC xCB,W
0836E:  MOVWF  03
08370:  MOVF   01,W
08372:  ADDLW  A2
08374:  MOVWF  FE9
08376:  MOVLW  06
08378:  ADDWFC 03,W
0837A:  MOVWF  FEA
0837C:  MOVLW  30
0837E:  ADDWF  FEF,W
08380:  SUBWF  37,W
08382:  BNZ   83DC
08384:  MOVLB  2
08386:  MOVF   xCA,W
08388:  MULLW  04
0838A:  MOVF   FF3,W
0838C:  MOVLB  6
0838E:  CLRF   xCB
08390:  MOVWF  xCA
08392:  MOVLW  03
08394:  ADDWF  xCA,W
08396:  MOVWF  01
08398:  MOVLW  00
0839A:  ADDWFC xCB,W
0839C:  MOVWF  03
0839E:  MOVF   01,W
083A0:  ADDLW  A2
083A2:  MOVWF  FE9
083A4:  MOVLW  06
083A6:  ADDWFC 03,W
083A8:  MOVWF  FEA
083AA:  MOVLW  30
083AC:  ADDWF  FEF,W
083AE:  SUBWF  38,W
083B0:  BNZ   83DC
083B2:  MOVF   39,F
083B4:  BNZ   83DC
083B6:  INCFSZ 3A,W
083B8:  BRA    83DC
....................                   printf("page ClaveCorrecta"); 
083BA:  MOVLW  9A
083BC:  MOVWF  FF6
083BE:  MOVLW  08
083C0:  MOVWF  FF7
083C2:  MOVLW  00
083C4:  MOVWF  FF8
083C6:  MOVLB  0
083C8:  CALL   41BC
....................                   SendDataDisplay(); 
083CC:  CALL   41EE
....................                   ingreso=ON; 
083D0:  MOVLB  1
083D2:  BSF    x07.5
....................                   RX_Buffer[3]=0x00;RX_Buffer2[3]=0x00;   
083D4:  CLRF   34
083D6:  CLRF   3F
....................                }else{ 
083D8:  BRA    83F8
083DA:  MOVLB  6
....................                   printf("page ClaveBad"); 
083DC:  MOVLW  AE
083DE:  MOVWF  FF6
083E0:  MOVLW  08
083E2:  MOVWF  FF7
083E4:  MOVLW  00
083E6:  MOVWF  FF8
083E8:  MOVLB  0
083EA:  CALL   41BC
....................                   SendDataDisplay(); 
083EE:  CALL   41EE
....................                   RX_Buffer[3]=0x00;RX_Buffer2[3]=0x00;   
083F2:  CLRF   34
083F4:  CLRF   3F
083F6:  MOVLB  1
....................                }  
....................             } 
....................          }else if(TipoClave==1){ 
083F8:  BRA    8754
083FA:  DECFSZ xF9,W
083FC:  BRA    845A
....................             if(RX_Buffer[4]==0x34&&RX_Buffer[5]==0x34&&RX_Buffer[6]==0x34&&RX_Buffer[7]==0x34&&RX_Buffer[8]==0x00 &&RX_Buffer[9]==0xff){ // Si Ingresa clave de Servicio Tecnico 
083FE:  MOVF   35,W
08400:  SUBLW  34
08402:  BNZ   843C
08404:  MOVF   36,W
08406:  SUBLW  34
08408:  BNZ   843C
0840A:  MOVF   37,W
0840C:  SUBLW  34
0840E:  BNZ   843C
08410:  MOVF   38,W
08412:  SUBLW  34
08414:  BNZ   843C
08416:  MOVF   39,F
08418:  BNZ   843C
0841A:  INCFSZ 3A,W
0841C:  BRA    843C
....................                printf("page Config"); 
0841E:  MOVLW  BC
08420:  MOVWF  FF6
08422:  MOVLW  08
08424:  MOVWF  FF7
08426:  MOVLW  00
08428:  MOVWF  FF8
0842A:  MOVLB  0
0842C:  CALL   41BC
....................                SendDataDisplay(); 
08430:  CALL   41EE
....................                RX_Buffer[3]=0x00;RX_Buffer2[3]=0x00;   
08434:  CLRF   34
08436:  CLRF   3F
....................             }else{ 
08438:  BRA    8456
0843A:  MOVLB  1
....................                printf("page Menu"); 
0843C:  MOVLW  C8
0843E:  MOVWF  FF6
08440:  MOVLW  08
08442:  MOVWF  FF7
08444:  MOVLW  00
08446:  MOVWF  FF8
08448:  MOVLB  0
0844A:  CALL   41BC
....................                SendDataDisplay(); 
0844E:  CALL   41EE
....................                RX_Buffer[3]=0x00;RX_Buffer2[3]=0x00;   
08452:  CLRF   34
08454:  CLRF   3F
....................             } 
....................          }else if(TipoClave==2){ 
08456:  BRA    8756
08458:  MOVLB  1
0845A:  MOVF   xF9,W
0845C:  SUBLW  02
0845E:  BTFSS  FD8.2
08460:  BRA    85B0
....................             if(RX_Buffer[4]>=0x30 && RX_Buffer[5]>=0x30 && RX_Buffer[6]>=0x30 && RX_Buffer[7]>=0x30 
....................             && RX_Buffer[4]<=0x39 && RX_Buffer[5]<=0x39 && RX_Buffer[6]<=0x39 && RX_Buffer[7]<=0x39){ 
08462:  MOVF   35,W
08464:  SUBLW  2F
08466:  BTFSC  FD8.0
08468:  BRA    85AE
0846A:  MOVF   36,W
0846C:  SUBLW  2F
0846E:  BTFSC  FD8.0
08470:  BRA    85AE
08472:  MOVF   37,W
08474:  SUBLW  2F
08476:  BTFSC  FD8.0
08478:  BRA    85AE
0847A:  MOVF   38,W
0847C:  SUBLW  2F
0847E:  BTFSC  FD8.0
08480:  BRA    85AE
08482:  MOVF   35,W
08484:  SUBLW  39
08486:  BTFSS  FD8.0
08488:  BRA    85AE
0848A:  MOVF   36,W
0848C:  SUBLW  39
0848E:  BTFSS  FD8.0
08490:  BRA    85AE
08492:  MOVF   37,W
08494:  SUBLW  39
08496:  BTFSS  FD8.0
08498:  BRA    85AE
0849A:  MOVF   38,W
0849C:  SUBLW  39
0849E:  BTFSS  FD8.0
084A0:  BRA    85AE
....................                if((RX_Buffer[4]==Clave[codigoUsuario2].Password[0]+0x30)&&(RX_Buffer[5]==Clave[codigoUsuario2].Password[1]+0x30)&& 
....................                (RX_Buffer[6]==Clave[codigoUsuario2].Password[2]+0x30)&&(RX_Buffer[7]==Clave[codigoUsuario2].Password[3]+0x30) 
....................                &&RX_Buffer[8]==0x00 &&RX_Buffer[9]==0xff){ 
084A2:  MOVLB  2
084A4:  MOVF   xAE,W
084A6:  MULLW  04
084A8:  MOVF   FF3,W
084AA:  MOVLB  6
084AC:  CLRF   xCB
084AE:  MOVWF  xCA
084B0:  MOVLW  A2
084B2:  ADDWF  xCA,W
084B4:  MOVWF  FE9
084B6:  MOVLW  06
084B8:  ADDWFC xCB,W
084BA:  MOVWF  FEA
084BC:  MOVLW  30
084BE:  ADDWF  FEF,W
084C0:  SUBWF  35,W
084C2:  BNZ   858E
084C4:  MOVLB  2
084C6:  MOVF   xAE,W
084C8:  MULLW  04
084CA:  MOVF   FF3,W
084CC:  MOVLB  6
084CE:  CLRF   xCB
084D0:  MOVWF  xCA
084D2:  MOVLW  01
084D4:  ADDWF  xCA,W
084D6:  MOVWF  01
084D8:  MOVLW  00
084DA:  ADDWFC xCB,W
084DC:  MOVWF  03
084DE:  MOVF   01,W
084E0:  ADDLW  A2
084E2:  MOVWF  FE9
084E4:  MOVLW  06
084E6:  ADDWFC 03,W
084E8:  MOVWF  FEA
084EA:  MOVLW  30
084EC:  ADDWF  FEF,W
084EE:  SUBWF  36,W
084F0:  BNZ   858E
084F2:  MOVLB  2
084F4:  MOVF   xAE,W
084F6:  MULLW  04
084F8:  MOVF   FF3,W
084FA:  MOVLB  6
084FC:  CLRF   xCB
084FE:  MOVWF  xCA
08500:  MOVLW  02
08502:  ADDWF  xCA,W
08504:  MOVWF  01
08506:  MOVLW  00
08508:  ADDWFC xCB,W
0850A:  MOVWF  03
0850C:  MOVF   01,W
0850E:  ADDLW  A2
08510:  MOVWF  FE9
08512:  MOVLW  06
08514:  ADDWFC 03,W
08516:  MOVWF  FEA
08518:  MOVLW  30
0851A:  ADDWF  FEF,W
0851C:  SUBWF  37,W
0851E:  BNZ   858E
08520:  MOVLB  2
08522:  MOVF   xAE,W
08524:  MULLW  04
08526:  MOVF   FF3,W
08528:  MOVLB  6
0852A:  CLRF   xCB
0852C:  MOVWF  xCA
0852E:  MOVLW  03
08530:  ADDWF  xCA,W
08532:  MOVWF  01
08534:  MOVLW  00
08536:  ADDWFC xCB,W
08538:  MOVWF  03
0853A:  MOVF   01,W
0853C:  ADDLW  A2
0853E:  MOVWF  FE9
08540:  MOVLW  06
08542:  ADDWFC 03,W
08544:  MOVWF  FEA
08546:  MOVLW  30
08548:  ADDWF  FEF,W
0854A:  SUBWF  38,W
0854C:  BNZ   858E
0854E:  MOVF   39,F
08550:  BNZ   858E
08552:  INCFSZ 3A,W
08554:  BRA    858E
....................                   printf("page Clave"); 
08556:  MOVLW  D2
08558:  MOVWF  FF6
0855A:  MOVLW  08
0855C:  MOVWF  FF7
0855E:  MOVLW  00
08560:  MOVWF  FF8
08562:  MOVLB  0
08564:  CALL   41BC
....................                   SendDataDisplay(); 
08568:  CALL   41EE
....................                   printf("titulo.txt=\"Clave Nueva\""); 
0856C:  MOVLW  DE
0856E:  MOVWF  FF6
08570:  MOVLW  08
08572:  MOVWF  FF7
08574:  MOVLW  00
08576:  MOVWF  FF8
08578:  CALL   41BC
....................                   SendDataDisplay(); 
0857C:  CALL   41EE
....................                   TipoClave=3; 
08580:  MOVLW  03
08582:  MOVLB  1
08584:  MOVWF  xF9
....................                   RX_Buffer[3]=0x00; 
08586:  CLRF   34
....................                   RX_Buffer2[3]=0x00; 
08588:  CLRF   3F
....................                }else{ 
0858A:  BRA    85AE
0858C:  MOVLB  6
....................                   printf("page Menu"); 
0858E:  MOVLW  F8
08590:  MOVWF  FF6
08592:  MOVLW  08
08594:  MOVWF  FF7
08596:  MOVLW  00
08598:  MOVWF  FF8
0859A:  MOVLB  0
0859C:  CALL   41BC
....................                   SendDataDisplay(); 
085A0:  CALL   41EE
....................                   RX_Buffer[3]=0x00; 
085A4:  CLRF   34
....................                   RX_Buffer2[3]=0x00; 
085A6:  CLRF   3F
....................                   codigoUsuario=codigoUsuarioant; 
085A8:  MOVFF  2CB,2CA
085AC:  MOVLB  1
....................                }  
....................             } 
....................          }else if(TipoClave==3){ 
085AE:  BRA    8754
085B0:  MOVF   xF9,W
085B2:  SUBLW  03
085B4:  BTFSS  FD8.2
085B6:  BRA    8754
....................             printf("titulo.txt=\"Clave Nueva\""); 
085B8:  MOVLW  02
085BA:  MOVWF  FF6
085BC:  MOVLW  09
085BE:  MOVWF  FF7
085C0:  MOVLW  00
085C2:  MOVWF  FF8
085C4:  MOVLB  0
085C6:  CALL   41BC
....................             SendDataDisplay(); 
085CA:  CALL   41EE
....................             printf("page Menu"); 
085CE:  MOVLW  1C
085D0:  MOVWF  FF6
085D2:  MOVLW  09
085D4:  MOVWF  FF7
085D6:  MOVLW  00
085D8:  MOVWF  FF8
085DA:  CALL   41BC
....................             SendDataDisplay(); 
085DE:  CALL   41EE
....................             if(!GuardaEEPROM){ 
085E2:  MOVLB  1
085E4:  BTFSC  x06.1
085E6:  BRA    8750
....................                write_eeprom(300+(codigoUsuario2*4),RX_Buffer[4]-0x30);delay_ms(20); 
085E8:  MOVLB  2
085EA:  MOVF   xAE,W
085EC:  MULLW  04
085EE:  MOVF   FF3,W
085F0:  ADDLW  2C
085F2:  MOVLB  6
085F4:  MOVWF  xCA
085F6:  MOVLW  01
085F8:  MOVWF  xCB
085FA:  BTFSC  FD8.0
085FC:  INCF   xCB,F
085FE:  MOVLW  30
08600:  SUBWF  35,W
08602:  MOVWF  xCC
08604:  MOVFF  6CB,FAA
08608:  MOVFF  6CA,FA9
0860C:  MOVFF  6CC,FA8
08610:  BCF    FA6.6
08612:  BCF    FA6.7
08614:  BSF    FA6.2
08616:  MOVF   FF2,W
08618:  MOVWF  00
0861A:  BCF    FF2.6
0861C:  BCF    FF2.7
0861E:  MOVLB  F
08620:  MOVLW  55
08622:  MOVWF  FA7
08624:  MOVLW  AA
08626:  MOVWF  FA7
08628:  BSF    FA6.1
0862A:  BTFSC  FA6.1
0862C:  BRA    862A
0862E:  BCF    FA6.2
08630:  MOVF   00,W
08632:  IORWF  FF2,F
08634:  MOVLW  14
08636:  MOVLB  6
08638:  MOVWF  xDC
0863A:  MOVLB  0
0863C:  CALL   2142
....................                write_eeprom(301+(codigoUsuario2*4),RX_Buffer[5]-0x30);delay_ms(20); 
08640:  MOVLB  2
08642:  MOVF   xAE,W
08644:  MULLW  04
08646:  MOVF   FF3,W
08648:  ADDLW  2D
0864A:  MOVLB  6
0864C:  MOVWF  xCA
0864E:  MOVLW  01
08650:  MOVWF  xCB
08652:  BTFSC  FD8.0
08654:  INCF   xCB,F
08656:  MOVLW  30
08658:  SUBWF  36,W
0865A:  MOVWF  xCC
0865C:  MOVFF  6CB,FAA
08660:  MOVFF  6CA,FA9
08664:  MOVFF  6CC,FA8
08668:  BCF    FA6.6
0866A:  BCF    FA6.7
0866C:  BSF    FA6.2
0866E:  MOVF   FF2,W
08670:  MOVWF  00
08672:  BCF    FF2.6
08674:  BCF    FF2.7
08676:  MOVLB  F
08678:  MOVLW  55
0867A:  MOVWF  FA7
0867C:  MOVLW  AA
0867E:  MOVWF  FA7
08680:  BSF    FA6.1
08682:  BTFSC  FA6.1
08684:  BRA    8682
08686:  BCF    FA6.2
08688:  MOVF   00,W
0868A:  IORWF  FF2,F
0868C:  MOVLW  14
0868E:  MOVLB  6
08690:  MOVWF  xDC
08692:  MOVLB  0
08694:  CALL   2142
....................                write_eeprom(302+(codigoUsuario2*4),RX_Buffer[6]-0x30);delay_ms(20); 
08698:  MOVLB  2
0869A:  MOVF   xAE,W
0869C:  MULLW  04
0869E:  MOVF   FF3,W
086A0:  ADDLW  2E
086A2:  MOVLB  6
086A4:  MOVWF  xCA
086A6:  MOVLW  01
086A8:  MOVWF  xCB
086AA:  BTFSC  FD8.0
086AC:  INCF   xCB,F
086AE:  MOVLW  30
086B0:  SUBWF  37,W
086B2:  MOVWF  xCC
086B4:  MOVFF  6CB,FAA
086B8:  MOVFF  6CA,FA9
086BC:  MOVFF  6CC,FA8
086C0:  BCF    FA6.6
086C2:  BCF    FA6.7
086C4:  BSF    FA6.2
086C6:  MOVF   FF2,W
086C8:  MOVWF  00
086CA:  BCF    FF2.6
086CC:  BCF    FF2.7
086CE:  MOVLB  F
086D0:  MOVLW  55
086D2:  MOVWF  FA7
086D4:  MOVLW  AA
086D6:  MOVWF  FA7
086D8:  BSF    FA6.1
086DA:  BTFSC  FA6.1
086DC:  BRA    86DA
086DE:  BCF    FA6.2
086E0:  MOVF   00,W
086E2:  IORWF  FF2,F
086E4:  MOVLW  14
086E6:  MOVLB  6
086E8:  MOVWF  xDC
086EA:  MOVLB  0
086EC:  CALL   2142
....................                write_eeprom(303+(codigoUsuario2*4),RX_Buffer[7]-0x30);delay_ms(20); 
086F0:  MOVLB  2
086F2:  MOVF   xAE,W
086F4:  MULLW  04
086F6:  MOVF   FF3,W
086F8:  ADDLW  2F
086FA:  MOVLB  6
086FC:  MOVWF  xCA
086FE:  MOVLW  01
08700:  MOVWF  xCB
08702:  BTFSC  FD8.0
08704:  INCF   xCB,F
08706:  MOVLW  30
08708:  SUBWF  38,W
0870A:  MOVWF  xCC
0870C:  MOVFF  6CB,FAA
08710:  MOVFF  6CA,FA9
08714:  MOVFF  6CC,FA8
08718:  BCF    FA6.6
0871A:  BCF    FA6.7
0871C:  BSF    FA6.2
0871E:  MOVF   FF2,W
08720:  MOVWF  00
08722:  BCF    FF2.6
08724:  BCF    FF2.7
08726:  MOVLB  F
08728:  MOVLW  55
0872A:  MOVWF  FA7
0872C:  MOVLW  AA
0872E:  MOVWF  FA7
08730:  BSF    FA6.1
08732:  BTFSC  FA6.1
08734:  BRA    8732
08736:  BCF    FA6.2
08738:  MOVF   00,W
0873A:  IORWF  FF2,F
0873C:  MOVLW  14
0873E:  MOVLB  6
08740:  MOVWF  xDC
08742:  MOVLB  0
08744:  CALL   2142
....................                GuardaEEPROM=ON; 
08748:  MOVLB  1
0874A:  BSF    x06.1
....................                codigoUsuario=codigoUsuarioant; 
0874C:  MOVFF  2CB,2CA
....................             } 
....................             RX_Buffer[3]=0x00; 
08750:  CLRF   34
....................             RX_Buffer2[3]=0x00; 
08752:  CLRF   3F
08754:  MOVLB  0
....................          } 
....................       } 
....................     }else if(Menu==1){ //Menu Principal. 
08756:  GOTO   F4DC
0875A:  MOVLB  2
0875C:  DECFSZ x70,W
0875E:  GOTO   8F12
....................       tCiclof=0; 
08762:  MOVLB  1
08764:  CLRF   x1A
08766:  CLRF   x19
....................       oprimioCiclo=OFF; 
08768:  BCF    x03.2
....................       printf("fecha.txt=\"Fecha:%02u/%02u/20%02u Hora: %02u:%02u:%02u\"",Dia,Mes,Year,Hora,Minuto,Segundo); 
0876A:  MOVLW  26
0876C:  MOVWF  FF6
0876E:  MOVLW  09
08770:  MOVWF  FF7
08772:  MOVLW  00
08774:  MOVWF  FF8
08776:  MOVLW  11
08778:  MOVLB  6
0877A:  MOVWF  xCF
0877C:  MOVLB  0
0877E:  CALL   5C56
08782:  MOVFF  2B5,6CF
08786:  MOVLW  01
08788:  MOVLB  6
0878A:  MOVWF  xD0
0878C:  MOVLB  0
0878E:  CALL   5CDA
08792:  MOVLW  2F
08794:  BTFSS  F9E.4
08796:  BRA    8794
08798:  MOVWF  FAD
0879A:  MOVFF  2B4,6CF
0879E:  MOVLW  01
087A0:  MOVLB  6
087A2:  MOVWF  xD0
087A4:  MOVLB  0
087A6:  CALL   5CDA
087AA:  MOVLW  2F
087AC:  BTFSS  F9E.4
087AE:  BRA    87AC
087B0:  MOVWF  FAD
087B2:  MOVLW  32
087B4:  BTFSS  F9E.4
087B6:  BRA    87B4
087B8:  MOVWF  FAD
087BA:  MOVLW  30
087BC:  BTFSS  F9E.4
087BE:  BRA    87BC
087C0:  MOVWF  FAD
087C2:  MOVFF  2B3,6CF
087C6:  MOVLW  01
087C8:  MOVLB  6
087CA:  MOVWF  xD0
087CC:  MOVLB  0
087CE:  CALL   5CDA
087D2:  MOVLW  47
087D4:  MOVWF  FF6
087D6:  MOVLW  09
087D8:  MOVWF  FF7
087DA:  MOVLW  00
087DC:  MOVWF  FF8
087DE:  MOVLW  07
087E0:  MOVLB  6
087E2:  MOVWF  xCF
087E4:  MOVLB  0
087E6:  CALL   5C56
087EA:  MOVFF  2B6,6CF
087EE:  MOVLW  01
087F0:  MOVLB  6
087F2:  MOVWF  xD0
087F4:  MOVLB  0
087F6:  CALL   5CDA
087FA:  MOVLW  3A
087FC:  BTFSS  F9E.4
087FE:  BRA    87FC
08800:  MOVWF  FAD
08802:  MOVFF  2B7,6CF
08806:  MOVLW  01
08808:  MOVLB  6
0880A:  MOVWF  xD0
0880C:  MOVLB  0
0880E:  CALL   5CDA
08812:  MOVLW  3A
08814:  BTFSS  F9E.4
08816:  BRA    8814
08818:  MOVWF  FAD
0881A:  MOVFF  2B8,6CF
0881E:  MOVLW  01
08820:  MOVLB  6
08822:  MOVWF  xD0
08824:  MOVLB  0
08826:  CALL   5CDA
0882A:  MOVLW  22
0882C:  BTFSS  F9E.4
0882E:  BRA    882C
08830:  MOVWF  FAD
....................       SendDataDisplay(); 
08832:  CALL   41EE
....................       GuardaEEPROM=OFF; 
08836:  MOVLB  1
08838:  BCF    x06.1
....................       printf("tuser.txt=\"%s\"",usuario); 
0883A:  MOVLW  5E
0883C:  MOVWF  FF6
0883E:  MOVLW  09
08840:  MOVWF  FF7
08842:  MOVLW  00
08844:  MOVWF  FF8
08846:  MOVLW  0B
08848:  MOVLB  6
0884A:  MOVWF  xCF
0884C:  MOVLB  0
0884E:  CALL   5C56
08852:  MOVLW  02
08854:  MOVWF  FEA
08856:  MOVLW  D0
08858:  MOVWF  FE9
0885A:  CALL   5C88
0885E:  MOVLW  22
08860:  BTFSS  F9E.4
08862:  BRA    8860
08864:  MOVWF  FAD
....................       SendDataDisplay(); 
08866:  CALL   41EE
....................       codigoUsuarioant=codigoUsuario; 
0886A:  MOVFF  2CA,2CB
....................        
....................       if(RX_Buffer[4]==0x01 && RX_Buffer[5]==0x0f && estados[19+RX_Buffer[4]]){//01, Calentamiento 
0886E:  DECFSZ 35,W
08870:  BRA    8908
08872:  MOVF   36,W
08874:  SUBLW  0F
08876:  BNZ   8908
08878:  MOVLW  13
0887A:  ADDWF  35,W
0887C:  MOVLB  6
0887E:  MOVWF  xCB
08880:  MOVLW  03
08882:  MOVWF  xCD
08884:  MOVLW  36
08886:  MOVWF  xCC
08888:  MOVLB  0
0888A:  CALL   2582
0888E:  BTFSS  01.0
08890:  BRA    8908
....................          delay_ms(5); 
08892:  MOVLW  05
08894:  MOVLB  6
08896:  MOVWF  xDC
08898:  MOVLB  0
0889A:  CALL   2142
....................          if(RX_Buffer[4]==0x01 && RX_Buffer[5]==0x0f && estados[19+RX_Buffer[4]]){//01, Calentamiento 
0889E:  DECFSZ 35,W
088A0:  BRA    8908
088A2:  MOVF   36,W
088A4:  SUBLW  0F
088A6:  BNZ   8908
088A8:  MOVLW  13
088AA:  ADDWF  35,W
088AC:  MOVLB  6
088AE:  MOVWF  xCB
088B0:  MOVLW  03
088B2:  MOVWF  xCD
088B4:  MOVLW  36
088B6:  MOVWF  xCC
088B8:  MOVLB  0
088BA:  CALL   2582
088BE:  BTFSS  01.0
088C0:  BRA    8908
....................             printf("page Funcionamiento"); 
088C2:  MOVLW  6E
088C4:  MOVWF  FF6
088C6:  MOVLW  09
088C8:  MOVWF  FF7
088CA:  MOVLW  00
088CC:  MOVWF  FF8
088CE:  CALL   41BC
....................             SendDataDisplay(); 
088D2:  CALL   41EE
....................             ConfiguraCiclo(0,15,0,1,0,1,121,6,25,0); 
088D6:  MOVLB  6
088D8:  CLRF   xD2
088DA:  MOVLW  0F
088DC:  MOVWF  xD3
088DE:  CLRF   xD4
088E0:  MOVLW  01
088E2:  MOVWF  xD5
088E4:  CLRF   xD6
088E6:  MOVWF  xD7
088E8:  MOVLW  79
088EA:  MOVWF  xD8
088EC:  MOVLW  06
088EE:  MOVWF  xD9
088F0:  MOVLW  19
088F2:  MOVWF  xDA
088F4:  CLRF   xDB
088F6:  MOVLB  0
088F8:  CALL   5D58
....................             Op=OFF; 
088FC:  MOVLB  1
088FE:  BCF    x05.5
....................             Op2=OFF; 
08900:  BCF    x05.6
....................             MenuAnt=Menu; 
08902:  MOVFF  270,271
08906:  MOVLB  0
....................             //TiempoVacio=CantidadPulsos*180; 
....................          } 
....................       } 
....................        
....................       if(RX_Buffer[4]==0x02 && RX_Buffer[5]==0x0f && estados[19+RX_Buffer[4]]){//02, No Envueltos 134 
08908:  MOVF   35,W
0890A:  SUBLW  02
0890C:  BNZ   89A8
0890E:  MOVF   36,W
08910:  SUBLW  0F
08912:  BNZ   89A8
08914:  MOVLW  13
08916:  ADDWF  35,W
08918:  MOVLB  6
0891A:  MOVWF  xCB
0891C:  MOVLW  03
0891E:  MOVWF  xCD
08920:  MOVLW  36
08922:  MOVWF  xCC
08924:  MOVLB  0
08926:  CALL   2582
0892A:  BTFSS  01.0
0892C:  BRA    89A8
....................          delay_ms(5); 
0892E:  MOVLW  05
08930:  MOVLB  6
08932:  MOVWF  xDC
08934:  MOVLB  0
08936:  CALL   2142
....................          if(RX_Buffer[4]==0x02 && RX_Buffer[5]==0x0f && estados[19+RX_Buffer[4]]){ 
0893A:  MOVF   35,W
0893C:  SUBLW  02
0893E:  BNZ   89A8
08940:  MOVF   36,W
08942:  SUBLW  0F
08944:  BNZ   89A8
08946:  MOVLW  13
08948:  ADDWF  35,W
0894A:  MOVLB  6
0894C:  MOVWF  xCB
0894E:  MOVLW  03
08950:  MOVWF  xCD
08952:  MOVLW  36
08954:  MOVWF  xCC
08956:  MOVLB  0
08958:  CALL   2582
0895C:  BTFSS  01.0
0895E:  BRA    89A8
....................             printf("page Funcionamiento"); 
08960:  MOVLW  82
08962:  MOVWF  FF6
08964:  MOVLW  09
08966:  MOVWF  FF7
08968:  MOVLW  00
0896A:  MOVWF  FF8
0896C:  CALL   41BC
....................             SendDataDisplay();        
08970:  CALL   41EE
....................             ConfiguraCiclo(0,3,0,1,0,2,134,6,25,0);             
08974:  MOVLB  6
08976:  CLRF   xD2
08978:  MOVLW  03
0897A:  MOVWF  xD3
0897C:  CLRF   xD4
0897E:  MOVLW  01
08980:  MOVWF  xD5
08982:  CLRF   xD6
08984:  MOVLW  02
08986:  MOVWF  xD7
08988:  MOVLW  86
0898A:  MOVWF  xD8
0898C:  MOVLW  06
0898E:  MOVWF  xD9
08990:  MOVLW  19
08992:  MOVWF  xDA
08994:  CLRF   xDB
08996:  MOVLB  0
08998:  CALL   5D58
....................             Op=OFF; 
0899C:  MOVLB  1
0899E:  BCF    x05.5
....................             Op2=OFF; 
089A0:  BCF    x05.6
....................             MenuAnt=Menu; 
089A2:  MOVFF  270,271
089A6:  MOVLB  0
....................             //TiempoVacio=CantidadPulsos*180; 
....................          } 
....................       } 
....................        
....................       if(RX_Buffer[4]==0x03  && RX_Buffer[5]==0x0f && estados[19+RX_Buffer[4]]){//03, No Envueltos 121 
089A8:  MOVF   35,W
089AA:  SUBLW  03
089AC:  BNZ   8A48
089AE:  MOVF   36,W
089B0:  SUBLW  0F
089B2:  BNZ   8A48
089B4:  MOVLW  13
089B6:  ADDWF  35,W
089B8:  MOVLB  6
089BA:  MOVWF  xCB
089BC:  MOVLW  03
089BE:  MOVWF  xCD
089C0:  MOVLW  36
089C2:  MOVWF  xCC
089C4:  MOVLB  0
089C6:  CALL   2582
089CA:  BTFSS  01.0
089CC:  BRA    8A48
....................          delay_ms(5); 
089CE:  MOVLW  05
089D0:  MOVLB  6
089D2:  MOVWF  xDC
089D4:  MOVLB  0
089D6:  CALL   2142
....................          if(RX_Buffer[4]==0x03 && RX_Buffer[5]==0x0f && estados[19+RX_Buffer[4]]){ 
089DA:  MOVF   35,W
089DC:  SUBLW  03
089DE:  BNZ   8A48
089E0:  MOVF   36,W
089E2:  SUBLW  0F
089E4:  BNZ   8A48
089E6:  MOVLW  13
089E8:  ADDWF  35,W
089EA:  MOVLB  6
089EC:  MOVWF  xCB
089EE:  MOVLW  03
089F0:  MOVWF  xCD
089F2:  MOVLW  36
089F4:  MOVWF  xCC
089F6:  MOVLB  0
089F8:  CALL   2582
089FC:  BTFSS  01.0
089FE:  BRA    8A48
....................             printf("page Funcionamiento"); 
08A00:  MOVLW  96
08A02:  MOVWF  FF6
08A04:  MOVLW  09
08A06:  MOVWF  FF7
08A08:  MOVLW  00
08A0A:  MOVWF  FF8
08A0C:  CALL   41BC
....................             SendDataDisplay();      
08A10:  CALL   41EE
....................             ConfiguraCiclo(0,15,0,1,0,3,121,6,25,0);   
08A14:  MOVLB  6
08A16:  CLRF   xD2
08A18:  MOVLW  0F
08A1A:  MOVWF  xD3
08A1C:  CLRF   xD4
08A1E:  MOVLW  01
08A20:  MOVWF  xD5
08A22:  CLRF   xD6
08A24:  MOVLW  03
08A26:  MOVWF  xD7
08A28:  MOVLW  79
08A2A:  MOVWF  xD8
08A2C:  MOVLW  06
08A2E:  MOVWF  xD9
08A30:  MOVLW  19
08A32:  MOVWF  xDA
08A34:  CLRF   xDB
08A36:  MOVLB  0
08A38:  CALL   5D58
....................             Op=OFF; 
08A3C:  MOVLB  1
08A3E:  BCF    x05.5
....................             Op2=OFF; 
08A40:  BCF    x05.6
....................             MenuAnt=Menu; 
08A42:  MOVFF  270,271
08A46:  MOVLB  0
....................             //TiempoVacio=CantidadPulsos*180; 
....................          } 
....................       } 
....................        
....................       if(RX_Buffer[4]==0x04 && RX_Buffer[5]==0x0f && estados[19+RX_Buffer[4]]){//04, Envueltos 134 
08A48:  MOVF   35,W
08A4A:  SUBLW  04
08A4C:  BNZ   8AE8
08A4E:  MOVF   36,W
08A50:  SUBLW  0F
08A52:  BNZ   8AE8
08A54:  MOVLW  13
08A56:  ADDWF  35,W
08A58:  MOVLB  6
08A5A:  MOVWF  xCB
08A5C:  MOVLW  03
08A5E:  MOVWF  xCD
08A60:  MOVLW  36
08A62:  MOVWF  xCC
08A64:  MOVLB  0
08A66:  CALL   2582
08A6A:  BTFSS  01.0
08A6C:  BRA    8AE8
....................          delay_ms(5); 
08A6E:  MOVLW  05
08A70:  MOVLB  6
08A72:  MOVWF  xDC
08A74:  MOVLB  0
08A76:  CALL   2142
....................          if(RX_Buffer[4]==0x04 && RX_Buffer[5]==0x0f && estados[19+RX_Buffer[4]]){ 
08A7A:  MOVF   35,W
08A7C:  SUBLW  04
08A7E:  BNZ   8AE8
08A80:  MOVF   36,W
08A82:  SUBLW  0F
08A84:  BNZ   8AE8
08A86:  MOVLW  13
08A88:  ADDWF  35,W
08A8A:  MOVLB  6
08A8C:  MOVWF  xCB
08A8E:  MOVLW  03
08A90:  MOVWF  xCD
08A92:  MOVLW  36
08A94:  MOVWF  xCC
08A96:  MOVLB  0
08A98:  CALL   2582
08A9C:  BTFSS  01.0
08A9E:  BRA    8AE8
....................             printf("page Funcionamiento"); 
08AA0:  MOVLW  AA
08AA2:  MOVWF  FF6
08AA4:  MOVLW  09
08AA6:  MOVWF  FF7
08AA8:  MOVLW  00
08AAA:  MOVWF  FF8
08AAC:  CALL   41BC
....................             SendDataDisplay();        
08AB0:  CALL   41EE
....................             ConfiguraCiclo(0,4,0,15,0,4,134,6,25,0);   
08AB4:  MOVLB  6
08AB6:  CLRF   xD2
08AB8:  MOVLW  04
08ABA:  MOVWF  xD3
08ABC:  CLRF   xD4
08ABE:  MOVLW  0F
08AC0:  MOVWF  xD5
08AC2:  CLRF   xD6
08AC4:  MOVLW  04
08AC6:  MOVWF  xD7
08AC8:  MOVLW  86
08ACA:  MOVWF  xD8
08ACC:  MOVLW  06
08ACE:  MOVWF  xD9
08AD0:  MOVLW  19
08AD2:  MOVWF  xDA
08AD4:  CLRF   xDB
08AD6:  MOVLB  0
08AD8:  CALL   5D58
....................             Op=OFF; 
08ADC:  MOVLB  1
08ADE:  BCF    x05.5
....................             Op2=OFF; 
08AE0:  BCF    x05.6
....................             MenuAnt=Menu; 
08AE2:  MOVFF  270,271
08AE6:  MOVLB  0
....................             //TiempoVacio=CantidadPulsos*180; 
....................          } 
....................       } 
....................        
....................       if(RX_Buffer[4]==0x05 && RX_Buffer[5]==0x0f && estados[19+RX_Buffer[4]]){//05, Envueltos 121 
08AE8:  MOVF   35,W
08AEA:  SUBLW  05
08AEC:  BNZ   8B96
08AEE:  MOVF   36,W
08AF0:  SUBLW  0F
08AF2:  BNZ   8B96
08AF4:  MOVLW  13
08AF6:  ADDWF  35,W
08AF8:  MOVLB  6
08AFA:  MOVWF  xCB
08AFC:  MOVLW  03
08AFE:  MOVWF  xCD
08B00:  MOVLW  36
08B02:  MOVWF  xCC
08B04:  MOVLB  0
08B06:  CALL   2582
08B0A:  BTFSS  01.0
08B0C:  BRA    8B96
....................          delay_ms(5); 
08B0E:  MOVLW  05
08B10:  MOVLB  6
08B12:  MOVWF  xDC
08B14:  MOVLB  0
08B16:  CALL   2142
....................          if(RX_Buffer[4]==0x05 && RX_Buffer[5]==0x0f && estados[19+RX_Buffer[4]]){ 
08B1A:  MOVF   35,W
08B1C:  SUBLW  05
08B1E:  BNZ   8B96
08B20:  MOVF   36,W
08B22:  SUBLW  0F
08B24:  BNZ   8B96
08B26:  MOVLW  13
08B28:  ADDWF  35,W
08B2A:  MOVLB  6
08B2C:  MOVWF  xCB
08B2E:  MOVLW  03
08B30:  MOVWF  xCD
08B32:  MOVLW  36
08B34:  MOVWF  xCC
08B36:  MOVLB  0
08B38:  CALL   2582
08B3C:  BTFSS  01.0
08B3E:  BRA    8B96
....................             printf("page Funcionamiento"); 
08B40:  MOVLW  BE
08B42:  MOVWF  FF6
08B44:  MOVLW  09
08B46:  MOVWF  FF7
08B48:  MOVLW  00
08B4A:  MOVWF  FF8
08B4C:  CALL   41BC
....................             SendDataDisplay();        
08B50:  CALL   41EE
....................             ConfiguraCiclo(0,15,0,15,0,5,121,6,25,0);   
08B54:  MOVLB  6
08B56:  CLRF   xD2
08B58:  MOVLW  0F
08B5A:  MOVWF  xD3
08B5C:  CLRF   xD4
08B5E:  MOVWF  xD5
08B60:  CLRF   xD6
08B62:  MOVLW  05
08B64:  MOVWF  xD7
08B66:  MOVLW  79
08B68:  MOVWF  xD8
08B6A:  MOVLW  06
08B6C:  MOVWF  xD9
08B6E:  MOVLW  19
08B70:  MOVWF  xDA
08B72:  CLRF   xDB
08B74:  MOVLB  0
08B76:  CALL   5D58
....................             Op=OFF; 
08B7A:  MOVLB  1
08B7C:  BCF    x05.5
....................             Op2=OFF; 
08B7E:  BCF    x05.6
....................             MenuAnt=Menu; 
08B80:  MOVFF  270,271
....................             CantidadPulsos=7; 
08B84:  MOVLB  2
08B86:  CLRF   x79
08B88:  MOVLW  07
08B8A:  MOVWF  x78
....................             NivelVacio=32; 
08B8C:  MOVLW  20
08B8E:  MOVWF  xBC
....................             Fugas=OFF; 
08B90:  MOVLB  1
08B92:  BCF    x07.6
08B94:  MOVLB  0
....................             //TiempoVacio=CantidadPulsos*180; 
....................          } 
....................       } 
....................        
....................       if(RX_Buffer[4]==0x06 && RX_Buffer[5]==0x0f && estados[19+RX_Buffer[4]]){//06, Envuelto Doble 1 
08B96:  MOVF   35,W
08B98:  SUBLW  06
08B9A:  BNZ   8C36
08B9C:  MOVF   36,W
08B9E:  SUBLW  0F
08BA0:  BNZ   8C36
08BA2:  MOVLW  13
08BA4:  ADDWF  35,W
08BA6:  MOVLB  6
08BA8:  MOVWF  xCB
08BAA:  MOVLW  03
08BAC:  MOVWF  xCD
08BAE:  MOVLW  36
08BB0:  MOVWF  xCC
08BB2:  MOVLB  0
08BB4:  CALL   2582
08BB8:  BTFSS  01.0
08BBA:  BRA    8C36
....................          delay_ms(5); 
08BBC:  MOVLW  05
08BBE:  MOVLB  6
08BC0:  MOVWF  xDC
08BC2:  MOVLB  0
08BC4:  CALL   2142
....................          if(RX_Buffer[4]==0x06 && RX_Buffer[5]==0x0f && estados[19+RX_Buffer[4]]){ 
08BC8:  MOVF   35,W
08BCA:  SUBLW  06
08BCC:  BNZ   8C36
08BCE:  MOVF   36,W
08BD0:  SUBLW  0F
08BD2:  BNZ   8C36
08BD4:  MOVLW  13
08BD6:  ADDWF  35,W
08BD8:  MOVLB  6
08BDA:  MOVWF  xCB
08BDC:  MOVLW  03
08BDE:  MOVWF  xCD
08BE0:  MOVLW  36
08BE2:  MOVWF  xCC
08BE4:  MOVLB  0
08BE6:  CALL   2582
08BEA:  BTFSS  01.0
08BEC:  BRA    8C36
....................             printf("page Funcionamiento"); 
08BEE:  MOVLW  D2
08BF0:  MOVWF  FF6
08BF2:  MOVLW  09
08BF4:  MOVWF  FF7
08BF6:  MOVLW  00
08BF8:  MOVWF  FF8
08BFA:  CALL   41BC
....................             SendDataDisplay();        
08BFE:  CALL   41EE
....................             ConfiguraCiclo(0,7,0,20,0,6,134,6,25,0);   
08C02:  MOVLB  6
08C04:  CLRF   xD2
08C06:  MOVLW  07
08C08:  MOVWF  xD3
08C0A:  CLRF   xD4
08C0C:  MOVLW  14
08C0E:  MOVWF  xD5
08C10:  CLRF   xD6
08C12:  MOVLW  06
08C14:  MOVWF  xD7
08C16:  MOVLW  86
08C18:  MOVWF  xD8
08C1A:  MOVLW  06
08C1C:  MOVWF  xD9
08C1E:  MOVLW  19
08C20:  MOVWF  xDA
08C22:  CLRF   xDB
08C24:  MOVLB  0
08C26:  CALL   5D58
....................             Op=OFF; 
08C2A:  MOVLB  1
08C2C:  BCF    x05.5
....................             Op2=OFF; 
08C2E:  BCF    x05.6
....................             MenuAnt=Menu; 
08C30:  MOVFF  270,271
08C34:  MOVLB  0
....................             //TiempoVacio=CantidadPulsos*180; 
....................          } 
....................       } 
....................        
....................       if(RX_Buffer[4]==0x07 && RX_Buffer[5]==0x0f && estados[19+RX_Buffer[4]]){//07, Envuelto Doble 2 
08C36:  MOVF   35,W
08C38:  SUBLW  07
08C3A:  BNZ   8CD6
08C3C:  MOVF   36,W
08C3E:  SUBLW  0F
08C40:  BNZ   8CD6
08C42:  MOVLW  13
08C44:  ADDWF  35,W
08C46:  MOVLB  6
08C48:  MOVWF  xCB
08C4A:  MOVLW  03
08C4C:  MOVWF  xCD
08C4E:  MOVLW  36
08C50:  MOVWF  xCC
08C52:  MOVLB  0
08C54:  CALL   2582
08C58:  BTFSS  01.0
08C5A:  BRA    8CD6
....................          delay_ms(5); 
08C5C:  MOVLW  05
08C5E:  MOVLB  6
08C60:  MOVWF  xDC
08C62:  MOVLB  0
08C64:  CALL   2142
....................          if(RX_Buffer[4]==0x07 && RX_Buffer[5]==0x0f && estados[19+RX_Buffer[4]]){ 
08C68:  MOVF   35,W
08C6A:  SUBLW  07
08C6C:  BNZ   8CD6
08C6E:  MOVF   36,W
08C70:  SUBLW  0F
08C72:  BNZ   8CD6
08C74:  MOVLW  13
08C76:  ADDWF  35,W
08C78:  MOVLB  6
08C7A:  MOVWF  xCB
08C7C:  MOVLW  03
08C7E:  MOVWF  xCD
08C80:  MOVLW  36
08C82:  MOVWF  xCC
08C84:  MOVLB  0
08C86:  CALL   2582
08C8A:  BTFSS  01.0
08C8C:  BRA    8CD6
....................             printf("page Funcionamiento"); 
08C8E:  MOVLW  E6
08C90:  MOVWF  FF6
08C92:  MOVLW  09
08C94:  MOVWF  FF7
08C96:  MOVLW  00
08C98:  MOVWF  FF8
08C9A:  CALL   41BC
....................             SendDataDisplay();        
08C9E:  CALL   41EE
....................             ConfiguraCiclo(0,7,0,30,0,7,134,6,25,0);   
08CA2:  MOVLB  6
08CA4:  CLRF   xD2
08CA6:  MOVLW  07
08CA8:  MOVWF  xD3
08CAA:  CLRF   xD4
08CAC:  MOVLW  1E
08CAE:  MOVWF  xD5
08CB0:  CLRF   xD6
08CB2:  MOVLW  07
08CB4:  MOVWF  xD7
08CB6:  MOVLW  86
08CB8:  MOVWF  xD8
08CBA:  MOVLW  06
08CBC:  MOVWF  xD9
08CBE:  MOVLW  19
08CC0:  MOVWF  xDA
08CC2:  CLRF   xDB
08CC4:  MOVLB  0
08CC6:  CALL   5D58
....................             Op=OFF; 
08CCA:  MOVLB  1
08CCC:  BCF    x05.5
....................             Op2=OFF; 
08CCE:  BCF    x05.6
....................             MenuAnt=Menu; 
08CD0:  MOVFF  270,271
08CD4:  MOVLB  0
....................             //TiempoVacio=CantidadPulsos*180; 
....................          } 
....................       } 
....................        
....................       if(RX_Buffer[4]==0x08 && RX_Buffer[5]==0x0f && estados[19+RX_Buffer[4]]){//08, Prion 
08CD6:  MOVF   35,W
08CD8:  SUBLW  08
08CDA:  BNZ   8D76
08CDC:  MOVF   36,W
08CDE:  SUBLW  0F
08CE0:  BNZ   8D76
08CE2:  MOVLW  13
08CE4:  ADDWF  35,W
08CE6:  MOVLB  6
08CE8:  MOVWF  xCB
08CEA:  MOVLW  03
08CEC:  MOVWF  xCD
08CEE:  MOVLW  36
08CF0:  MOVWF  xCC
08CF2:  MOVLB  0
08CF4:  CALL   2582
08CF8:  BTFSS  01.0
08CFA:  BRA    8D76
....................          delay_ms(5); 
08CFC:  MOVLW  05
08CFE:  MOVLB  6
08D00:  MOVWF  xDC
08D02:  MOVLB  0
08D04:  CALL   2142
....................          if(RX_Buffer[4]==0x08 && RX_Buffer[5]==0x0f && estados[19+RX_Buffer[4]]){ 
08D08:  MOVF   35,W
08D0A:  SUBLW  08
08D0C:  BNZ   8D76
08D0E:  MOVF   36,W
08D10:  SUBLW  0F
08D12:  BNZ   8D76
08D14:  MOVLW  13
08D16:  ADDWF  35,W
08D18:  MOVLB  6
08D1A:  MOVWF  xCB
08D1C:  MOVLW  03
08D1E:  MOVWF  xCD
08D20:  MOVLW  36
08D22:  MOVWF  xCC
08D24:  MOVLB  0
08D26:  CALL   2582
08D2A:  BTFSS  01.0
08D2C:  BRA    8D76
....................             printf("page Funcionamiento"); 
08D2E:  MOVLW  FA
08D30:  MOVWF  FF6
08D32:  MOVLW  09
08D34:  MOVWF  FF7
08D36:  MOVLW  00
08D38:  MOVWF  FF8
08D3A:  CALL   41BC
....................             SendDataDisplay();        
08D3E:  CALL   41EE
....................             ConfiguraCiclo(0,20,0,15,0,8,134,6,25,0);   
08D42:  MOVLB  6
08D44:  CLRF   xD2
08D46:  MOVLW  14
08D48:  MOVWF  xD3
08D4A:  CLRF   xD4
08D4C:  MOVLW  0F
08D4E:  MOVWF  xD5
08D50:  CLRF   xD6
08D52:  MOVLW  08
08D54:  MOVWF  xD7
08D56:  MOVLW  86
08D58:  MOVWF  xD8
08D5A:  MOVLW  06
08D5C:  MOVWF  xD9
08D5E:  MOVLW  19
08D60:  MOVWF  xDA
08D62:  CLRF   xDB
08D64:  MOVLB  0
08D66:  CALL   5D58
....................             Op=OFF; 
08D6A:  MOVLB  1
08D6C:  BCF    x05.5
....................             Op2=OFF; 
08D6E:  BCF    x05.6
....................             MenuAnt=Menu; 
08D70:  MOVFF  270,271
08D74:  MOVLB  0
....................             //TiempoVacio=CantidadPulsos*180; 
....................          } 
....................       } 
....................        
....................       if(RX_Buffer[4]==0x09 && RX_Buffer[5]==0x0f && estados[19+RX_Buffer[4]]){//09, Bowie & Dick 
08D76:  MOVF   35,W
08D78:  SUBLW  09
08D7A:  BNZ   8E18
08D7C:  MOVF   36,W
08D7E:  SUBLW  0F
08D80:  BNZ   8E18
08D82:  MOVLW  13
08D84:  ADDWF  35,W
08D86:  MOVLB  6
08D88:  MOVWF  xCB
08D8A:  MOVLW  03
08D8C:  MOVWF  xCD
08D8E:  MOVLW  36
08D90:  MOVWF  xCC
08D92:  MOVLB  0
08D94:  CALL   2582
08D98:  BTFSS  01.0
08D9A:  BRA    8E18
....................          delay_ms(5); 
08D9C:  MOVLW  05
08D9E:  MOVLB  6
08DA0:  MOVWF  xDC
08DA2:  MOVLB  0
08DA4:  CALL   2142
....................          if(RX_Buffer[4]==0x09 && RX_Buffer[5]==0x0f && estados[19+RX_Buffer[4]]){ 
08DA8:  MOVF   35,W
08DAA:  SUBLW  09
08DAC:  BNZ   8E18
08DAE:  MOVF   36,W
08DB0:  SUBLW  0F
08DB2:  BNZ   8E18
08DB4:  MOVLW  13
08DB6:  ADDWF  35,W
08DB8:  MOVLB  6
08DBA:  MOVWF  xCB
08DBC:  MOVLW  03
08DBE:  MOVWF  xCD
08DC0:  MOVLW  36
08DC2:  MOVWF  xCC
08DC4:  MOVLB  0
08DC6:  CALL   2582
08DCA:  BTFSS  01.0
08DCC:  BRA    8E18
....................             printf("page Funcionamiento"); 
08DCE:  MOVLW  0E
08DD0:  MOVWF  FF6
08DD2:  MOVLW  0A
08DD4:  MOVWF  FF7
08DD6:  MOVLW  00
08DD8:  MOVWF  FF8
08DDA:  CALL   41BC
....................             SendDataDisplay();        
08DDE:  CALL   41EE
....................             ConfiguraCiclo(30,3,0,1,0,9,134,6,25,0);   
08DE2:  MOVLW  1E
08DE4:  MOVLB  6
08DE6:  MOVWF  xD2
08DE8:  MOVLW  03
08DEA:  MOVWF  xD3
08DEC:  CLRF   xD4
08DEE:  MOVLW  01
08DF0:  MOVWF  xD5
08DF2:  CLRF   xD6
08DF4:  MOVLW  09
08DF6:  MOVWF  xD7
08DF8:  MOVLW  86
08DFA:  MOVWF  xD8
08DFC:  MOVLW  06
08DFE:  MOVWF  xD9
08E00:  MOVLW  19
08E02:  MOVWF  xDA
08E04:  CLRF   xDB
08E06:  MOVLB  0
08E08:  CALL   5D58
....................             Op=OFF; 
08E0C:  MOVLB  1
08E0E:  BCF    x05.5
....................             Op2=OFF; 
08E10:  BCF    x05.6
....................             MenuAnt=Menu; 
08E12:  MOVFF  270,271
08E16:  MOVLB  0
....................             //TiempoVacio=CantidadPulsos*180; 
....................          } 
....................       } 
....................        
....................       if(RX_Buffer[4]==0x0a && RX_Buffer[5]==0x0f && estados[19+RX_Buffer[4]]){//0a, Test de Fugas 
08E18:  MOVF   35,W
08E1A:  SUBLW  0A
08E1C:  BNZ   8EB0
08E1E:  MOVF   36,W
08E20:  SUBLW  0F
08E22:  BNZ   8EB0
08E24:  MOVLW  13
08E26:  ADDWF  35,W
08E28:  MOVLB  6
08E2A:  MOVWF  xCB
08E2C:  MOVLW  03
08E2E:  MOVWF  xCD
08E30:  MOVLW  36
08E32:  MOVWF  xCC
08E34:  MOVLB  0
08E36:  CALL   2582
08E3A:  BTFSS  01.0
08E3C:  BRA    8EB0
....................          delay_ms(5); 
08E3E:  MOVLW  05
08E40:  MOVLB  6
08E42:  MOVWF  xDC
08E44:  MOVLB  0
08E46:  CALL   2142
....................          if(RX_Buffer[4]==0x0a && RX_Buffer[5]==0x0f && estados[19+RX_Buffer[4]]){ 
08E4A:  MOVF   35,W
08E4C:  SUBLW  0A
08E4E:  BNZ   8EB0
08E50:  MOVF   36,W
08E52:  SUBLW  0F
08E54:  BNZ   8EB0
08E56:  MOVLW  13
08E58:  ADDWF  35,W
08E5A:  MOVLB  6
08E5C:  MOVWF  xCB
08E5E:  MOVLW  03
08E60:  MOVWF  xCD
08E62:  MOVLW  36
08E64:  MOVWF  xCC
08E66:  MOVLB  0
08E68:  CALL   2582
08E6C:  BTFSS  01.0
08E6E:  BRA    8EB0
....................             printf("page Funcionamiento"); 
08E70:  MOVLW  22
08E72:  MOVWF  FF6
08E74:  MOVLW  0A
08E76:  MOVWF  FF7
08E78:  MOVLW  00
08E7A:  MOVWF  FF8
08E7C:  CALL   41BC
....................             SendDataDisplay();        
08E80:  CALL   41EE
....................             ConfiguraCiclo(0,15,0,0,0,10,30,1,17,1); 
08E84:  MOVLB  6
08E86:  CLRF   xD2
08E88:  MOVLW  0F
08E8A:  MOVWF  xD3
08E8C:  CLRF   xD4
08E8E:  CLRF   xD5
08E90:  CLRF   xD6
08E92:  MOVLW  0A
08E94:  MOVWF  xD7
08E96:  MOVLW  1E
08E98:  MOVWF  xD8
08E9A:  MOVLW  01
08E9C:  MOVWF  xD9
08E9E:  MOVLW  11
08EA0:  MOVWF  xDA
08EA2:  MOVLW  01
08EA4:  MOVWF  xDB
08EA6:  MOVLB  0
08EA8:  CALL   5D58
....................             MenuAnt=Menu; 
08EAC:  MOVFF  270,271
....................             //TiempoVacio=CantidadPulsos*180; 
....................          } 
....................       } 
....................        
....................       if(RX_Buffer[4]==0xa0){//a0, Ciclos Fijos 
08EB0:  MOVF   35,W
08EB2:  SUBLW  A0
08EB4:  BNZ   8ECA
....................          printf("page Menu"); 
08EB6:  MOVLW  36
08EB8:  MOVWF  FF6
08EBA:  MOVLW  0A
08EBC:  MOVWF  FF7
08EBE:  MOVLW  00
08EC0:  MOVWF  FF8
08EC2:  CALL   41BC
....................          SendDataDisplay();      
08EC6:  CALL   41EE
....................       } 
....................        
....................       if(RX_Buffer[4]==0xb0){//b0, Personalizados 
08ECA:  MOVF   35,W
08ECC:  SUBLW  B0
08ECE:  BNZ   8EE4
....................          printf("page CicloPersona"); 
08ED0:  MOVLW  40
08ED2:  MOVWF  FF6
08ED4:  MOVLW  0A
08ED6:  MOVWF  FF7
08ED8:  MOVLW  00
08EDA:  MOVWF  FF8
08EDC:  CALL   41BC
....................          SendDataDisplay();      
08EE0:  CALL   41EE
....................       } 
....................        
....................       if(RX_Buffer[4]==0xc0){//c0, Configuraciones 
08EE4:  MOVF   35,W
08EE6:  SUBLW  C0
08EE8:  BNZ   8F0C
....................          if(codigoUsuario==0 || codigoUsuario==9){        
08EEA:  MOVLB  2
08EEC:  MOVF   xCA,F
08EEE:  BZ    8EF6
08EF0:  MOVF   xCA,W
08EF2:  SUBLW  09
08EF4:  BNZ   8F0E
....................             printf("page Ajustes"); 
08EF6:  MOVLW  52
08EF8:  MOVWF  FF6
08EFA:  MOVLW  0A
08EFC:  MOVWF  FF7
08EFE:  MOVLW  00
08F00:  MOVWF  FF8
08F02:  MOVLB  0
08F04:  CALL   41BC
....................             SendDataDisplay();      
08F08:  CALL   41EE
08F0C:  MOVLB  2
....................          } 
....................       } 
....................    }else if(Menu==2){ //Menu de Tiempo Esterilizacion      
08F0E:  GOTO   F4DC
08F12:  MOVF   x70,W
08F14:  SUBLW  02
08F16:  BTFSS  FD8.2
08F18:  BRA    91F2
....................          printf("fecha.txt=\"Fecha:%02u/%02u/20%02u Hora: %02u:%02u:%02u\"",Dia,Mes,Year,Hora,Minuto,Segundo); 
08F1A:  MOVLW  60
08F1C:  MOVWF  FF6
08F1E:  MOVLW  0A
08F20:  MOVWF  FF7
08F22:  MOVLW  00
08F24:  MOVWF  FF8
08F26:  MOVLW  11
08F28:  MOVLB  6
08F2A:  MOVWF  xCF
08F2C:  MOVLB  0
08F2E:  CALL   5C56
08F32:  MOVFF  2B5,6CF
08F36:  MOVLW  01
08F38:  MOVLB  6
08F3A:  MOVWF  xD0
08F3C:  MOVLB  0
08F3E:  CALL   5CDA
08F42:  MOVLW  2F
08F44:  BTFSS  F9E.4
08F46:  BRA    8F44
08F48:  MOVWF  FAD
08F4A:  MOVFF  2B4,6CF
08F4E:  MOVLW  01
08F50:  MOVLB  6
08F52:  MOVWF  xD0
08F54:  MOVLB  0
08F56:  CALL   5CDA
08F5A:  MOVLW  2F
08F5C:  BTFSS  F9E.4
08F5E:  BRA    8F5C
08F60:  MOVWF  FAD
08F62:  MOVLW  32
08F64:  BTFSS  F9E.4
08F66:  BRA    8F64
08F68:  MOVWF  FAD
08F6A:  MOVLW  30
08F6C:  BTFSS  F9E.4
08F6E:  BRA    8F6C
08F70:  MOVWF  FAD
08F72:  MOVFF  2B3,6CF
08F76:  MOVLW  01
08F78:  MOVLB  6
08F7A:  MOVWF  xD0
08F7C:  MOVLB  0
08F7E:  CALL   5CDA
08F82:  MOVLW  81
08F84:  MOVWF  FF6
08F86:  MOVLW  0A
08F88:  MOVWF  FF7
08F8A:  MOVLW  00
08F8C:  MOVWF  FF8
08F8E:  MOVLW  07
08F90:  MOVLB  6
08F92:  MOVWF  xCF
08F94:  MOVLB  0
08F96:  CALL   5C56
08F9A:  MOVFF  2B6,6CF
08F9E:  MOVLW  01
08FA0:  MOVLB  6
08FA2:  MOVWF  xD0
08FA4:  MOVLB  0
08FA6:  CALL   5CDA
08FAA:  MOVLW  3A
08FAC:  BTFSS  F9E.4
08FAE:  BRA    8FAC
08FB0:  MOVWF  FAD
08FB2:  MOVFF  2B7,6CF
08FB6:  MOVLW  01
08FB8:  MOVLB  6
08FBA:  MOVWF  xD0
08FBC:  MOVLB  0
08FBE:  CALL   5CDA
08FC2:  MOVLW  3A
08FC4:  BTFSS  F9E.4
08FC6:  BRA    8FC4
08FC8:  MOVWF  FAD
08FCA:  MOVFF  2B8,6CF
08FCE:  MOVLW  01
08FD0:  MOVLB  6
08FD2:  MOVWF  xD0
08FD4:  MOVLB  0
08FD6:  CALL   5CDA
08FDA:  MOVLW  22
08FDC:  BTFSS  F9E.4
08FDE:  BRA    8FDC
08FE0:  MOVWF  FAD
....................          SendDataDisplay(); 
08FE2:  CALL   41EE
....................          if(RX_Buffer[4]==0x0a){//Selecciono Minutos 
08FE6:  MOVF   35,W
08FE8:  SUBLW  0A
08FEA:  BNZ   8FF4
....................             Minutos=ON; 
08FEC:  MOVLB  1
08FEE:  BSF    x05.7
....................             Segundos=OFF; 
08FF0:  BCF    x06.0
08FF2:  MOVLB  0
....................          } 
....................           
....................          if(RX_Buffer[4]==0x0b){//Selecciono Segundos 
08FF4:  MOVF   35,W
08FF6:  SUBLW  0B
08FF8:  BNZ   9002
....................             Segundos=ON; 
08FFA:  MOVLB  1
08FFC:  BSF    x06.0
....................             Minutos=OFF; 
08FFE:  BCF    x05.7
09000:  MOVLB  0
....................          }            
....................           
....................          if(RX_Buffer[4]==0x11){//Selecciono Regresar             
09002:  MOVF   35,W
09004:  SUBLW  11
09006:  BTFSS  FD8.2
09008:  BRA    9126
....................                Segundos=OFF; 
0900A:  MOVLB  1
0900C:  BCF    x06.0
....................                Minutos=OFF; 
0900E:  BCF    x05.7
....................                printf("page CicloPersona"); 
09010:  MOVLW  98
09012:  MOVWF  FF6
09014:  MOVLW  0A
09016:  MOVWF  FF7
09018:  MOVLW  00
0901A:  MOVWF  FF8
0901C:  MOVLB  0
0901E:  CALL   41BC
....................                SendDataDisplay();   
09022:  CALL   41EE
....................                if(!GuardaEEPROM){ 
09026:  MOVLB  1
09028:  BTFSC  x06.1
0902A:  BRA    9124
....................                   CiclosPersonalizados[CicloLibre-1].Minutoest=mEstp; 
0902C:  MOVLW  01
0902E:  MOVLB  2
09030:  SUBWF  x51,W
09032:  MULLW  08
09034:  MOVF   FF3,W
09036:  MOVLB  6
09038:  CLRF   xCB
0903A:  MOVWF  xCA
0903C:  MOVLW  01
0903E:  ADDWF  xCA,W
09040:  MOVWF  01
09042:  MOVLW  00
09044:  ADDWFC xCB,W
09046:  MOVWF  03
09048:  MOVF   01,W
0904A:  ADDLW  02
0904C:  MOVWF  FE9
0904E:  MOVLW  06
09050:  ADDWFC 03,W
09052:  MOVWF  FEA
09054:  MOVFF  126,FEF
....................                   CiclosPersonalizados[CicloLibre-1].Segundoest=sEstp; 
09058:  MOVLW  01
0905A:  MOVLB  2
0905C:  SUBWF  x51,W
0905E:  MULLW  08
09060:  MOVF   FF3,W
09062:  MOVLB  6
09064:  CLRF   xCB
09066:  MOVWF  xCA
09068:  MOVLW  02
0906A:  ADDWF  xCA,W
0906C:  MOVWF  01
0906E:  MOVLW  00
09070:  ADDWFC xCB,W
09072:  MOVWF  03
09074:  MOVF   01,W
09076:  ADDLW  02
09078:  MOVWF  FE9
0907A:  MOVLW  06
0907C:  ADDWFC 03,W
0907E:  MOVWF  FEA
09080:  MOVFF  125,FEF
....................                   write_eeprom(101+((CicloLibre-1)*8),mEstp); 
09084:  MOVLW  01
09086:  MOVLB  2
09088:  SUBWF  x51,W
0908A:  MULLW  08
0908C:  MOVF   FF3,W
0908E:  ADDLW  65
09090:  MOVLB  6
09092:  MOVWF  xCA
09094:  CLRF   FAA
09096:  MOVFF  6CA,FA9
0909A:  MOVFF  126,FA8
0909E:  BCF    FA6.6
090A0:  BCF    FA6.7
090A2:  BSF    FA6.2
090A4:  MOVF   FF2,W
090A6:  MOVWF  00
090A8:  BCF    FF2.6
090AA:  BCF    FF2.7
090AC:  MOVLB  F
090AE:  MOVLW  55
090B0:  MOVWF  FA7
090B2:  MOVLW  AA
090B4:  MOVWF  FA7
090B6:  BSF    FA6.1
090B8:  BTFSC  FA6.1
090BA:  BRA    90B8
090BC:  BCF    FA6.2
090BE:  MOVF   00,W
090C0:  IORWF  FF2,F
....................                   delay_ms(10); 
090C2:  MOVLW  0A
090C4:  MOVLB  6
090C6:  MOVWF  xDC
090C8:  MOVLB  0
090CA:  CALL   2142
....................                   write_eeprom(102+((CicloLibre-1)*8),sEstp); 
090CE:  MOVLW  01
090D0:  MOVLB  2
090D2:  SUBWF  x51,W
090D4:  MULLW  08
090D6:  MOVF   FF3,W
090D8:  ADDLW  66
090DA:  MOVLB  6
090DC:  MOVWF  xCA
090DE:  CLRF   FAA
090E0:  MOVFF  6CA,FA9
090E4:  MOVFF  125,FA8
090E8:  BCF    FA6.6
090EA:  BCF    FA6.7
090EC:  BSF    FA6.2
090EE:  MOVF   FF2,W
090F0:  MOVWF  00
090F2:  BCF    FF2.6
090F4:  BCF    FF2.7
090F6:  MOVLB  F
090F8:  MOVLW  55
090FA:  MOVWF  FA7
090FC:  MOVLW  AA
090FE:  MOVWF  FA7
09100:  BSF    FA6.1
09102:  BTFSC  FA6.1
09104:  BRA    9102
09106:  BCF    FA6.2
09108:  MOVF   00,W
0910A:  IORWF  FF2,F
....................                   delay_ms(10); 
0910C:  MOVLW  0A
0910E:  MOVLB  6
09110:  MOVWF  xDC
09112:  MOVLB  0
09114:  CALL   2142
....................                   mEst=mEstp; 
09118:  MOVFF  126,122
....................                   sEst=sEstp; 
0911C:  MOVFF  125,121
....................                   GuardaEEPROM=ON; 
09120:  MOVLB  1
09122:  BSF    x06.1
09124:  MOVLB  0
....................                } 
....................          } 
....................           
....................          if(RX_Buffer[4]==0x0c || RX_Buffer[4]==0x0d){//Tecla arriba Oprimida 
09126:  MOVF   35,W
09128:  SUBLW  0C
0912A:  BZ    9132
0912C:  MOVF   35,W
0912E:  SUBLW  0D
09130:  BNZ   9146
....................             if(Segundos){ 
09132:  MOVLB  1
09134:  BTFSS  x06.0
09136:  BRA    913A
....................                sEstp++; 
09138:  INCF   x25,F
....................             } 
....................             if(Minutos){ 
0913A:  BTFSS  x05.7
0913C:  BRA    9140
....................                mEstp++; 
0913E:  INCF   x26,F
....................             }   
....................             RX_Buffer[4]=0x00;   
09140:  CLRF   35
....................             RX_Buffer2[4]=0x00; 
09142:  CLRF   40
09144:  MOVLB  0
....................          } 
....................           
....................          if(RX_Buffer[4]==0x0f || RX_Buffer[4]==0x0e){//Tecla abajo oprimida 
09146:  MOVF   35,W
09148:  SUBLW  0F
0914A:  BZ    9152
0914C:  MOVF   35,W
0914E:  SUBLW  0E
09150:  BNZ   9168
....................             if(Segundos && sEstp>0){ 
09152:  MOVLB  1
09154:  BTFSS  x06.0
09156:  BRA    915E
09158:  MOVF   x25,F
0915A:  BZ    915E
....................                sEstp--; 
0915C:  DECF   x25,F
....................             } 
....................             if(Minutos){ 
0915E:  BTFSS  x05.7
09160:  BRA    9164
....................                mEstp--; 
09162:  DECF   x26,F
....................             } 
....................             RX_Buffer[4]=0x00;   
09164:  CLRF   35
....................             RX_Buffer2[4]=0x00; 
09166:  CLRF   40
....................          } 
....................           
....................          if(mEstp<1)mEstp=99; 
09168:  MOVLB  1
0916A:  MOVF   x26,F
0916C:  BNZ   9172
0916E:  MOVLW  63
09170:  MOVWF  x26
....................          if(mEstp>99)mEstp=1; 
09172:  MOVF   x26,W
09174:  SUBLW  63
09176:  BC    917C
09178:  MOVLW  01
0917A:  MOVWF  x26
....................          if(sEstp>59)sEstp=0; 
0917C:  MOVF   x25,W
0917E:  SUBLW  3B
09180:  BTFSS  FD8.0
09182:  CLRF   x25
....................              
....................          printf("tminest.txt=\"%02u\"",mEstp); 
09184:  MOVLW  AA
09186:  MOVWF  FF6
09188:  MOVLW  0A
0918A:  MOVWF  FF7
0918C:  MOVLW  00
0918E:  MOVWF  FF8
09190:  MOVLW  0D
09192:  MOVLB  6
09194:  MOVWF  xCF
09196:  MOVLB  0
09198:  CALL   5C56
0919C:  MOVFF  126,6CF
091A0:  MOVLW  01
091A2:  MOVLB  6
091A4:  MOVWF  xD0
091A6:  MOVLB  0
091A8:  CALL   5CDA
091AC:  MOVLW  22
091AE:  BTFSS  F9E.4
091B0:  BRA    91AE
091B2:  MOVWF  FAD
....................          SendDataDisplay(); 
091B4:  CALL   41EE
....................          printf("tsecest.txt=\"%02u\"",sEstp); 
091B8:  MOVLW  BE
091BA:  MOVWF  FF6
091BC:  MOVLW  0A
091BE:  MOVWF  FF7
091C0:  MOVLW  00
091C2:  MOVWF  FF8
091C4:  MOVLW  0D
091C6:  MOVLB  6
091C8:  MOVWF  xCF
091CA:  MOVLB  0
091CC:  CALL   5C56
091D0:  MOVFF  125,6CF
091D4:  MOVLW  01
091D6:  MOVLB  6
091D8:  MOVWF  xD0
091DA:  MOVLB  0
091DC:  CALL   5CDA
091E0:  MOVLW  22
091E2:  BTFSS  F9E.4
091E4:  BRA    91E2
091E6:  MOVWF  FAD
....................          SendDataDisplay(); 
091E8:  CALL   41EE
....................     }else if(Menu==3){ //Menu de Tiempo de Secado 
091EC:  GOTO   F4DC
091F0:  MOVLB  2
091F2:  MOVF   x70,W
091F4:  SUBLW  03
091F6:  BTFSS  FD8.2
091F8:  BRA    94D2
....................       printf("fecha.txt=\"Fecha:%02u/%02u/20%02u Hora: %02u:%02u:%02u\"",Dia,Mes,Year,Hora,Minuto,Segundo); 
091FA:  MOVLW  D2
091FC:  MOVWF  FF6
091FE:  MOVLW  0A
09200:  MOVWF  FF7
09202:  MOVLW  00
09204:  MOVWF  FF8
09206:  MOVLW  11
09208:  MOVLB  6
0920A:  MOVWF  xCF
0920C:  MOVLB  0
0920E:  CALL   5C56
09212:  MOVFF  2B5,6CF
09216:  MOVLW  01
09218:  MOVLB  6
0921A:  MOVWF  xD0
0921C:  MOVLB  0
0921E:  CALL   5CDA
09222:  MOVLW  2F
09224:  BTFSS  F9E.4
09226:  BRA    9224
09228:  MOVWF  FAD
0922A:  MOVFF  2B4,6CF
0922E:  MOVLW  01
09230:  MOVLB  6
09232:  MOVWF  xD0
09234:  MOVLB  0
09236:  CALL   5CDA
0923A:  MOVLW  2F
0923C:  BTFSS  F9E.4
0923E:  BRA    923C
09240:  MOVWF  FAD
09242:  MOVLW  32
09244:  BTFSS  F9E.4
09246:  BRA    9244
09248:  MOVWF  FAD
0924A:  MOVLW  30
0924C:  BTFSS  F9E.4
0924E:  BRA    924C
09250:  MOVWF  FAD
09252:  MOVFF  2B3,6CF
09256:  MOVLW  01
09258:  MOVLB  6
0925A:  MOVWF  xD0
0925C:  MOVLB  0
0925E:  CALL   5CDA
09262:  MOVLW  F3
09264:  MOVWF  FF6
09266:  MOVLW  0A
09268:  MOVWF  FF7
0926A:  MOVLW  00
0926C:  MOVWF  FF8
0926E:  MOVLW  07
09270:  MOVLB  6
09272:  MOVWF  xCF
09274:  MOVLB  0
09276:  CALL   5C56
0927A:  MOVFF  2B6,6CF
0927E:  MOVLW  01
09280:  MOVLB  6
09282:  MOVWF  xD0
09284:  MOVLB  0
09286:  CALL   5CDA
0928A:  MOVLW  3A
0928C:  BTFSS  F9E.4
0928E:  BRA    928C
09290:  MOVWF  FAD
09292:  MOVFF  2B7,6CF
09296:  MOVLW  01
09298:  MOVLB  6
0929A:  MOVWF  xD0
0929C:  MOVLB  0
0929E:  CALL   5CDA
092A2:  MOVLW  3A
092A4:  BTFSS  F9E.4
092A6:  BRA    92A4
092A8:  MOVWF  FAD
092AA:  MOVFF  2B8,6CF
092AE:  MOVLW  01
092B0:  MOVLB  6
092B2:  MOVWF  xD0
092B4:  MOVLB  0
092B6:  CALL   5CDA
092BA:  MOVLW  22
092BC:  BTFSS  F9E.4
092BE:  BRA    92BC
092C0:  MOVWF  FAD
....................       SendDataDisplay();             
092C2:  CALL   41EE
....................              
....................          if(RX_Buffer[4]==0x0a){//Selecciono Minutos 
092C6:  MOVF   35,W
092C8:  SUBLW  0A
092CA:  BNZ   92D4
....................             Minutos=ON; 
092CC:  MOVLB  1
092CE:  BSF    x05.7
....................             Segundos=OFF; 
092D0:  BCF    x06.0
092D2:  MOVLB  0
....................          } 
....................           
....................          if(RX_Buffer[4]==0x0b){//Selecciono Segundos 
092D4:  MOVF   35,W
092D6:  SUBLW  0B
092D8:  BNZ   92E2
....................             Segundos=ON; 
092DA:  MOVLB  1
092DC:  BSF    x06.0
....................             Minutos=OFF; 
092DE:  BCF    x05.7
092E0:  MOVLB  0
....................          } 
....................           
....................          if(RX_Buffer[4]==0x11){//Selecciono Regresar 
092E2:  MOVF   35,W
092E4:  SUBLW  11
092E6:  BTFSS  FD8.2
092E8:  BRA    9406
....................             Segundos=OFF; 
092EA:  MOVLB  1
092EC:  BCF    x06.0
....................             Minutos=OFF; 
092EE:  BCF    x05.7
....................             printf("page CicloPersona"); 
092F0:  MOVLW  0A
092F2:  MOVWF  FF6
092F4:  MOVLW  0B
092F6:  MOVWF  FF7
092F8:  MOVLW  00
092FA:  MOVWF  FF8
092FC:  MOVLB  0
092FE:  CALL   41BC
....................             SendDataDisplay();   
09302:  CALL   41EE
....................             if(!GuardaEEPROM){ 
09306:  MOVLB  1
09308:  BTFSC  x06.1
0930A:  BRA    9404
....................                CiclosPersonalizados[CicloLibre-1].Minutosec=mSecp; 
0930C:  MOVLW  01
0930E:  MOVLB  2
09310:  SUBWF  x51,W
09312:  MULLW  08
09314:  MOVF   FF3,W
09316:  MOVLB  6
09318:  CLRF   xCB
0931A:  MOVWF  xCA
0931C:  MOVLW  03
0931E:  ADDWF  xCA,W
09320:  MOVWF  01
09322:  MOVLW  00
09324:  ADDWFC xCB,W
09326:  MOVWF  03
09328:  MOVF   01,W
0932A:  ADDLW  02
0932C:  MOVWF  FE9
0932E:  MOVLW  06
09330:  ADDWFC 03,W
09332:  MOVWF  FEA
09334:  MOVFF  128,FEF
....................                CiclosPersonalizados[CicloLibre-1].Segundosec=sSecp; 
09338:  MOVLW  01
0933A:  MOVLB  2
0933C:  SUBWF  x51,W
0933E:  MULLW  08
09340:  MOVF   FF3,W
09342:  MOVLB  6
09344:  CLRF   xCB
09346:  MOVWF  xCA
09348:  MOVLW  04
0934A:  ADDWF  xCA,W
0934C:  MOVWF  01
0934E:  MOVLW  00
09350:  ADDWFC xCB,W
09352:  MOVWF  03
09354:  MOVF   01,W
09356:  ADDLW  02
09358:  MOVWF  FE9
0935A:  MOVLW  06
0935C:  ADDWFC 03,W
0935E:  MOVWF  FEA
09360:  MOVFF  127,FEF
....................                write_eeprom(103+((CicloLibre-1)*8),mSecp); 
09364:  MOVLW  01
09366:  MOVLB  2
09368:  SUBWF  x51,W
0936A:  MULLW  08
0936C:  MOVF   FF3,W
0936E:  ADDLW  67
09370:  MOVLB  6
09372:  MOVWF  xCA
09374:  CLRF   FAA
09376:  MOVFF  6CA,FA9
0937A:  MOVFF  128,FA8
0937E:  BCF    FA6.6
09380:  BCF    FA6.7
09382:  BSF    FA6.2
09384:  MOVF   FF2,W
09386:  MOVWF  00
09388:  BCF    FF2.6
0938A:  BCF    FF2.7
0938C:  MOVLB  F
0938E:  MOVLW  55
09390:  MOVWF  FA7
09392:  MOVLW  AA
09394:  MOVWF  FA7
09396:  BSF    FA6.1
09398:  BTFSC  FA6.1
0939A:  BRA    9398
0939C:  BCF    FA6.2
0939E:  MOVF   00,W
093A0:  IORWF  FF2,F
....................                delay_ms(10); 
093A2:  MOVLW  0A
093A4:  MOVLB  6
093A6:  MOVWF  xDC
093A8:  MOVLB  0
093AA:  CALL   2142
....................                write_eeprom(104+((CicloLibre-1)*8),sSecp); 
093AE:  MOVLW  01
093B0:  MOVLB  2
093B2:  SUBWF  x51,W
093B4:  MULLW  08
093B6:  MOVF   FF3,W
093B8:  ADDLW  68
093BA:  MOVLB  6
093BC:  MOVWF  xCA
093BE:  CLRF   FAA
093C0:  MOVFF  6CA,FA9
093C4:  MOVFF  127,FA8
093C8:  BCF    FA6.6
093CA:  BCF    FA6.7
093CC:  BSF    FA6.2
093CE:  MOVF   FF2,W
093D0:  MOVWF  00
093D2:  BCF    FF2.6
093D4:  BCF    FF2.7
093D6:  MOVLB  F
093D8:  MOVLW  55
093DA:  MOVWF  FA7
093DC:  MOVLW  AA
093DE:  MOVWF  FA7
093E0:  BSF    FA6.1
093E2:  BTFSC  FA6.1
093E4:  BRA    93E2
093E6:  BCF    FA6.2
093E8:  MOVF   00,W
093EA:  IORWF  FF2,F
....................                delay_ms(10); 
093EC:  MOVLW  0A
093EE:  MOVLB  6
093F0:  MOVWF  xDC
093F2:  MOVLB  0
093F4:  CALL   2142
....................                mSec=mSecp; 
093F8:  MOVFF  128,124
....................                sSec=sSecp; 
093FC:  MOVFF  127,123
....................                GuardaEEPROM=ON; 
09400:  MOVLB  1
09402:  BSF    x06.1
09404:  MOVLB  0
....................             } 
....................          } 
....................           
....................          if(RX_Buffer[4]==0x0c || RX_Buffer[4]==0x0d){//Tecla Derecha Oprimida 
09406:  MOVF   35,W
09408:  SUBLW  0C
0940A:  BZ    9412
0940C:  MOVF   35,W
0940E:  SUBLW  0D
09410:  BNZ   9426
....................             if(Segundos){ 
09412:  MOVLB  1
09414:  BTFSS  x06.0
09416:  BRA    941A
....................                sSecp++; 
09418:  INCF   x27,F
....................             } 
....................             if(Minutos){ 
0941A:  BTFSS  x05.7
0941C:  BRA    9420
....................                mSecp++; 
0941E:  INCF   x28,F
....................             }   
....................             RX_Buffer[4]=0x00;   
09420:  CLRF   35
....................             RX_Buffer2[4]=0x00;  
09422:  CLRF   40
09424:  MOVLB  0
....................          } 
....................           
....................          if(RX_Buffer[4]==0x0f || RX_Buffer[4]==0x0e){//Tecla Izquierda Oprimida 
09426:  MOVF   35,W
09428:  SUBLW  0F
0942A:  BZ    9432
0942C:  MOVF   35,W
0942E:  SUBLW  0E
09430:  BNZ   9448
....................             if(Segundos && sSecp>0){ 
09432:  MOVLB  1
09434:  BTFSS  x06.0
09436:  BRA    943E
09438:  MOVF   x27,F
0943A:  BZ    943E
....................                sSecp--; 
0943C:  DECF   x27,F
....................             } 
....................             if(Minutos){ 
0943E:  BTFSS  x05.7
09440:  BRA    9444
....................                mSecp--; 
09442:  DECF   x28,F
....................             }  
....................             RX_Buffer[4]=0x00;   
09444:  CLRF   35
....................             RX_Buffer2[4]=0x00;             
09446:  CLRF   40
....................          } 
....................          if(mSecp<1)mSecp=99; 
09448:  MOVLB  1
0944A:  MOVF   x28,F
0944C:  BNZ   9452
0944E:  MOVLW  63
09450:  MOVWF  x28
....................          if(mSecp>99)mSecp=1; 
09452:  MOVF   x28,W
09454:  SUBLW  63
09456:  BC    945C
09458:  MOVLW  01
0945A:  MOVWF  x28
....................          if(sSecp>59)mSecp=0; 
0945C:  MOVF   x27,W
0945E:  SUBLW  3B
09460:  BTFSS  FD8.0
09462:  CLRF   x28
....................              
....................       printf("tminsec.txt=\"%02u\"",mSecp); 
09464:  MOVLW  1C
09466:  MOVWF  FF6
09468:  MOVLW  0B
0946A:  MOVWF  FF7
0946C:  MOVLW  00
0946E:  MOVWF  FF8
09470:  MOVLW  0D
09472:  MOVLB  6
09474:  MOVWF  xCF
09476:  MOVLB  0
09478:  CALL   5C56
0947C:  MOVFF  128,6CF
09480:  MOVLW  01
09482:  MOVLB  6
09484:  MOVWF  xD0
09486:  MOVLB  0
09488:  CALL   5CDA
0948C:  MOVLW  22
0948E:  BTFSS  F9E.4
09490:  BRA    948E
09492:  MOVWF  FAD
....................       SendDataDisplay(); 
09494:  CALL   41EE
....................       printf("tsecsec.txt=\"%02u\"",sSecp); 
09498:  MOVLW  30
0949A:  MOVWF  FF6
0949C:  MOVLW  0B
0949E:  MOVWF  FF7
094A0:  MOVLW  00
094A2:  MOVWF  FF8
094A4:  MOVLW  0D
094A6:  MOVLB  6
094A8:  MOVWF  xCF
094AA:  MOVLB  0
094AC:  CALL   5C56
094B0:  MOVFF  127,6CF
094B4:  MOVLW  01
094B6:  MOVLB  6
094B8:  MOVWF  xD0
094BA:  MOVLB  0
094BC:  CALL   5CDA
094C0:  MOVLW  22
094C2:  BTFSS  F9E.4
094C4:  BRA    94C2
094C6:  MOVWF  FAD
....................       SendDataDisplay(); 
094C8:  CALL   41EE
....................     }else if(Menu==4){ //Menu de Temperatura 
094CC:  GOTO   F4DC
094D0:  MOVLB  2
094D2:  MOVF   x70,W
094D4:  SUBLW  04
094D6:  BTFSS  FD8.2
094D8:  BRA    96AE
....................       printf("fecha.txt=\"Fecha:%02u/%02u/20%02u Hora: %02u:%02u:%02u\"",Dia,Mes,Year,Hora,Minuto,Segundo); 
094DA:  MOVLW  44
094DC:  MOVWF  FF6
094DE:  MOVLW  0B
094E0:  MOVWF  FF7
094E2:  MOVLW  00
094E4:  MOVWF  FF8
094E6:  MOVLW  11
094E8:  MOVLB  6
094EA:  MOVWF  xCF
094EC:  MOVLB  0
094EE:  CALL   5C56
094F2:  MOVFF  2B5,6CF
094F6:  MOVLW  01
094F8:  MOVLB  6
094FA:  MOVWF  xD0
094FC:  MOVLB  0
094FE:  CALL   5CDA
09502:  MOVLW  2F
09504:  BTFSS  F9E.4
09506:  BRA    9504
09508:  MOVWF  FAD
0950A:  MOVFF  2B4,6CF
0950E:  MOVLW  01
09510:  MOVLB  6
09512:  MOVWF  xD0
09514:  MOVLB  0
09516:  CALL   5CDA
0951A:  MOVLW  2F
0951C:  BTFSS  F9E.4
0951E:  BRA    951C
09520:  MOVWF  FAD
09522:  MOVLW  32
09524:  BTFSS  F9E.4
09526:  BRA    9524
09528:  MOVWF  FAD
0952A:  MOVLW  30
0952C:  BTFSS  F9E.4
0952E:  BRA    952C
09530:  MOVWF  FAD
09532:  MOVFF  2B3,6CF
09536:  MOVLW  01
09538:  MOVLB  6
0953A:  MOVWF  xD0
0953C:  MOVLB  0
0953E:  CALL   5CDA
09542:  MOVLW  65
09544:  MOVWF  FF6
09546:  MOVLW  0B
09548:  MOVWF  FF7
0954A:  MOVLW  00
0954C:  MOVWF  FF8
0954E:  MOVLW  07
09550:  MOVLB  6
09552:  MOVWF  xCF
09554:  MOVLB  0
09556:  CALL   5C56
0955A:  MOVFF  2B6,6CF
0955E:  MOVLW  01
09560:  MOVLB  6
09562:  MOVWF  xD0
09564:  MOVLB  0
09566:  CALL   5CDA
0956A:  MOVLW  3A
0956C:  BTFSS  F9E.4
0956E:  BRA    956C
09570:  MOVWF  FAD
09572:  MOVFF  2B7,6CF
09576:  MOVLW  01
09578:  MOVLB  6
0957A:  MOVWF  xD0
0957C:  MOVLB  0
0957E:  CALL   5CDA
09582:  MOVLW  3A
09584:  BTFSS  F9E.4
09586:  BRA    9584
09588:  MOVWF  FAD
0958A:  MOVFF  2B8,6CF
0958E:  MOVLW  01
09590:  MOVLB  6
09592:  MOVWF  xD0
09594:  MOVLB  0
09596:  CALL   5CDA
0959A:  MOVLW  22
0959C:  BTFSS  F9E.4
0959E:  BRA    959C
095A0:  MOVWF  FAD
....................       SendDataDisplay(); 
095A2:  CALL   41EE
....................          if(Setpoint<110) 
095A6:  MOVLB  2
095A8:  MOVF   x80,W
095AA:  SUBLW  6D
095AC:  BNC   95B2
....................             Setpoint=138; 
095AE:  MOVLW  8A
095B0:  MOVWF  x80
....................          if(Setpoint>138) 
095B2:  MOVF   x80,W
095B4:  SUBLW  8A
095B6:  BC    95BC
....................             Setpoint=110; 
095B8:  MOVLW  6E
095BA:  MOVWF  x80
....................           
....................          if(RX_Buffer[4]==0x11){//Selecciono Regresar 
095BC:  MOVF   35,W
095BE:  SUBLW  11
095C0:  BNZ   965C
....................             Segundos=OFF; 
095C2:  MOVLB  1
095C4:  BCF    x06.0
....................             Minutos=OFF; 
095C6:  BCF    x05.7
....................             printf("page CicloPersona"); 
095C8:  MOVLW  7C
095CA:  MOVWF  FF6
095CC:  MOVLW  0B
095CE:  MOVWF  FF7
095D0:  MOVLW  00
095D2:  MOVWF  FF8
095D4:  MOVLB  0
095D6:  CALL   41BC
....................             SendDataDisplay();   
095DA:  CALL   41EE
....................             PantallaPrincipal=1; 
095DE:  MOVLW  01
095E0:  MOVLB  1
095E2:  MOVWF  xF8
....................             Op=OFF; 
095E4:  BCF    x05.5
....................             Op2=OFF; 
095E6:  BCF    x05.6
....................             if(!GuardaEEPROM){ 
095E8:  BTFSC  x06.1
095EA:  BRA    965A
....................                CiclosPersonalizados[CicloLibre-1].Temperatura=Setpoint; 
095EC:  MOVLW  01
095EE:  MOVLB  2
095F0:  SUBWF  x51,W
095F2:  MULLW  08
095F4:  MOVF   FF3,W
095F6:  MOVLB  6
095F8:  CLRF   xCB
095FA:  MOVWF  xCA
095FC:  MOVLW  02
095FE:  ADDWF  xCA,W
09600:  MOVWF  FE9
09602:  MOVLW  06
09604:  ADDWFC xCB,W
09606:  MOVWF  FEA
09608:  MOVFF  280,FEF
....................                write_eeprom(100+((CicloLibre-1)*8),Setpoint); 
0960C:  MOVLW  01
0960E:  MOVLB  2
09610:  SUBWF  x51,W
09612:  MULLW  08
09614:  MOVF   FF3,W
09616:  ADDLW  64
09618:  MOVLB  6
0961A:  MOVWF  xCA
0961C:  CLRF   FAA
0961E:  MOVFF  6CA,FA9
09622:  MOVFF  280,FA8
09626:  BCF    FA6.6
09628:  BCF    FA6.7
0962A:  BSF    FA6.2
0962C:  MOVF   FF2,W
0962E:  MOVWF  00
09630:  BCF    FF2.6
09632:  BCF    FF2.7
09634:  MOVLB  F
09636:  MOVLW  55
09638:  MOVWF  FA7
0963A:  MOVLW  AA
0963C:  MOVWF  FA7
0963E:  BSF    FA6.1
09640:  BTFSC  FA6.1
09642:  BRA    9640
09644:  BCF    FA6.2
09646:  MOVF   00,W
09648:  IORWF  FF2,F
....................                delay_ms(10); 
0964A:  MOVLW  0A
0964C:  MOVLB  6
0964E:  MOVWF  xDC
09650:  MOVLB  0
09652:  CALL   2142
....................                GuardaEEPROM=ON; 
09656:  MOVLB  1
09658:  BSF    x06.1
0965A:  MOVLB  2
....................             } 
....................          } 
....................           
....................          if(RX_Buffer[4]==0x0d){//Tecla Arriba Oprimida 
0965C:  MOVF   35,W
0965E:  SUBLW  0D
09660:  BNZ   9668
....................             Setpoint++; 
09662:  INCF   x80,F
....................             RX_Buffer[4]=0x00;   
09664:  CLRF   35
....................             RX_Buffer2[4]=0x00;             
09666:  CLRF   40
....................             //BorraBuffer(); 
....................          } 
....................           
....................          if(RX_Buffer[4]==0x0c){//Tecla Abajo Oprimida 
09668:  MOVF   35,W
0966A:  SUBLW  0C
0966C:  BNZ   9674
....................             Setpoint--; 
0966E:  DECF   x80,F
....................             RX_Buffer[4]=0x00; 
09670:  CLRF   35
....................             RX_Buffer2[4]=0x00;             
09672:  CLRF   40
....................             //BorraBuffer(); 
....................          } 
....................           
....................       printf("tsettem.txt=\"%03u\"",Setpoint); 
09674:  MOVLW  8E
09676:  MOVWF  FF6
09678:  MOVLW  0B
0967A:  MOVWF  FF7
0967C:  MOVLW  00
0967E:  MOVWF  FF8
09680:  MOVLW  0D
09682:  MOVLB  6
09684:  MOVWF  xCF
09686:  MOVLB  0
09688:  CALL   5C56
0968C:  MOVFF  280,6CF
09690:  MOVLW  03
09692:  MOVLB  6
09694:  MOVWF  xD0
09696:  MOVLB  0
09698:  CALL   5CDA
0969C:  MOVLW  22
0969E:  BTFSS  F9E.4
096A0:  BRA    969E
096A2:  MOVWF  FAD
....................       SendDataDisplay(); 
096A4:  CALL   41EE
....................     }else if(Menu==5){//Menu de Nivel de Vacio 
096A8:  GOTO   F4DC
096AC:  MOVLB  2
096AE:  MOVF   x70,W
096B0:  SUBLW  05
096B2:  BTFSS  FD8.2
096B4:  BRA    98A8
....................       printf("fecha.txt=\"Fecha:%02u/%02u/20%02u Hora: %02u:%02u:%02u\"",Dia,Mes,Year,Hora,Minuto,Segundo); 
096B6:  MOVLW  A2
096B8:  MOVWF  FF6
096BA:  MOVLW  0B
096BC:  MOVWF  FF7
096BE:  MOVLW  00
096C0:  MOVWF  FF8
096C2:  MOVLW  11
096C4:  MOVLB  6
096C6:  MOVWF  xCF
096C8:  MOVLB  0
096CA:  CALL   5C56
096CE:  MOVFF  2B5,6CF
096D2:  MOVLW  01
096D4:  MOVLB  6
096D6:  MOVWF  xD0
096D8:  MOVLB  0
096DA:  CALL   5CDA
096DE:  MOVLW  2F
096E0:  BTFSS  F9E.4
096E2:  BRA    96E0
096E4:  MOVWF  FAD
096E6:  MOVFF  2B4,6CF
096EA:  MOVLW  01
096EC:  MOVLB  6
096EE:  MOVWF  xD0
096F0:  MOVLB  0
096F2:  CALL   5CDA
096F6:  MOVLW  2F
096F8:  BTFSS  F9E.4
096FA:  BRA    96F8
096FC:  MOVWF  FAD
096FE:  MOVLW  32
09700:  BTFSS  F9E.4
09702:  BRA    9700
09704:  MOVWF  FAD
09706:  MOVLW  30
09708:  BTFSS  F9E.4
0970A:  BRA    9708
0970C:  MOVWF  FAD
0970E:  MOVFF  2B3,6CF
09712:  MOVLW  01
09714:  MOVLB  6
09716:  MOVWF  xD0
09718:  MOVLB  0
0971A:  CALL   5CDA
0971E:  MOVLW  C3
09720:  MOVWF  FF6
09722:  MOVLW  0B
09724:  MOVWF  FF7
09726:  MOVLW  00
09728:  MOVWF  FF8
0972A:  MOVLW  07
0972C:  MOVLB  6
0972E:  MOVWF  xCF
09730:  MOVLB  0
09732:  CALL   5C56
09736:  MOVFF  2B6,6CF
0973A:  MOVLW  01
0973C:  MOVLB  6
0973E:  MOVWF  xD0
09740:  MOVLB  0
09742:  CALL   5CDA
09746:  MOVLW  3A
09748:  BTFSS  F9E.4
0974A:  BRA    9748
0974C:  MOVWF  FAD
0974E:  MOVFF  2B7,6CF
09752:  MOVLW  01
09754:  MOVLB  6
09756:  MOVWF  xD0
09758:  MOVLB  0
0975A:  CALL   5CDA
0975E:  MOVLW  3A
09760:  BTFSS  F9E.4
09762:  BRA    9760
09764:  MOVWF  FAD
09766:  MOVFF  2B8,6CF
0976A:  MOVLW  01
0976C:  MOVLB  6
0976E:  MOVWF  xD0
09770:  MOVLB  0
09772:  CALL   5CDA
09776:  MOVLW  22
09778:  BTFSS  F9E.4
0977A:  BRA    9778
0977C:  MOVWF  FAD
....................       SendDataDisplay(); 
0977E:  CALL   41EE
....................          if(Nivel<25) 
09782:  MOVLB  2
09784:  MOVF   x8E,F
09786:  BNZ   9794
09788:  MOVF   x8D,W
0978A:  SUBLW  18
0978C:  BNC   9794
....................             Nivel=100; 
0978E:  CLRF   x8E
09790:  MOVLW  64
09792:  MOVWF  x8D
....................          if(Nivel>100) 
09794:  MOVF   x8E,F
09796:  BNZ   979E
09798:  MOVF   x8D,W
0979A:  SUBLW  64
0979C:  BC    97A4
....................             Nivel=25; 
0979E:  CLRF   x8E
097A0:  MOVLW  19
097A2:  MOVWF  x8D
....................           
....................          if(RX_Buffer[4]==0x11){//Selecciono Regresar 
097A4:  MOVF   35,W
097A6:  SUBLW  11
097A8:  BNZ   984C
....................             Segundos=OFF; 
097AA:  MOVLB  1
097AC:  BCF    x06.0
....................             Minutos=OFF;             
097AE:  BCF    x05.7
....................             tiempo_secado=0; 
097B0:  MOVLB  2
097B2:  CLRF   x84
....................             printf("page CicloPersona"); 
097B4:  MOVLW  DA
097B6:  MOVWF  FF6
097B8:  MOVLW  0B
097BA:  MOVWF  FF7
097BC:  MOVLW  00
097BE:  MOVWF  FF8
097C0:  MOVLB  0
097C2:  CALL   41BC
....................             SendDataDisplay();   
097C6:  CALL   41EE
....................             if(!GuardaEEPROM){     
097CA:  MOVLB  1
097CC:  BTFSC  x06.1
097CE:  BRA    984A
....................                CiclosPersonalizados[CicloLibre-1].NivelVacio=Nivel; 
097D0:  MOVLW  01
097D2:  MOVLB  2
097D4:  SUBWF  x51,W
097D6:  MULLW  08
097D8:  MOVF   FF3,W
097DA:  MOVLB  6
097DC:  CLRF   xCB
097DE:  MOVWF  xCA
097E0:  MOVLW  06
097E2:  ADDWF  xCA,W
097E4:  MOVWF  01
097E6:  MOVLW  00
097E8:  ADDWFC xCB,W
097EA:  MOVWF  03
097EC:  MOVF   01,W
097EE:  ADDLW  02
097F0:  MOVWF  FE9
097F2:  MOVLW  06
097F4:  ADDWFC 03,W
097F6:  MOVWF  FEA
097F8:  MOVFF  28D,FEF
....................                write_eeprom(106+((CicloLibre-1)*8),Nivel); 
097FC:  MOVLW  01
097FE:  MOVLB  2
09800:  SUBWF  x51,W
09802:  MULLW  08
09804:  MOVF   FF3,W
09806:  ADDLW  6A
09808:  MOVLB  6
0980A:  MOVWF  xCA
0980C:  CLRF   FAA
0980E:  MOVFF  6CA,FA9
09812:  MOVFF  28D,FA8
09816:  BCF    FA6.6
09818:  BCF    FA6.7
0981A:  BSF    FA6.2
0981C:  MOVF   FF2,W
0981E:  MOVWF  00
09820:  BCF    FF2.6
09822:  BCF    FF2.7
09824:  MOVLB  F
09826:  MOVLW  55
09828:  MOVWF  FA7
0982A:  MOVLW  AA
0982C:  MOVWF  FA7
0982E:  BSF    FA6.1
09830:  BTFSC  FA6.1
09832:  BRA    9830
09834:  BCF    FA6.2
09836:  MOVF   00,W
09838:  IORWF  FF2,F
....................                delay_ms(20);             
0983A:  MOVLW  14
0983C:  MOVLB  6
0983E:  MOVWF  xDC
09840:  MOVLB  0
09842:  CALL   2142
....................                GuardaEEPROM=ON; 
09846:  MOVLB  1
09848:  BSF    x06.1
0984A:  MOVLB  2
....................             } 
....................          } 
....................           
....................          if(RX_Buffer[4]==0x0d){//Tecla Arriba Oprimida 
0984C:  MOVF   35,W
0984E:  SUBLW  0D
09850:  BNZ   985C
....................             Nivel++; 
09852:  INCF   x8D,F
09854:  BTFSC  FD8.2
09856:  INCF   x8E,F
....................             RX_Buffer[4]=0x00;             
09858:  CLRF   35
....................             RX_Buffer2[4]=0x00;             
0985A:  CLRF   40
....................             //BorraBuffer(); 
....................          } 
....................           
....................          if(RX_Buffer[4]==0x0c){//Tecla Abajo Oprimida 
0985C:  MOVF   35,W
0985E:  SUBLW  0C
09860:  BNZ   986E
....................             Nivel--; 
09862:  MOVF   x8D,W
09864:  BTFSC  FD8.2
09866:  DECF   x8E,F
09868:  DECF   x8D,F
....................             RX_Buffer[4]=0x00; 
0986A:  CLRF   35
....................             RX_Buffer2[4]=0x00;             
0986C:  CLRF   40
....................             //BorraBuffer(); 
....................          } 
....................           
....................       printf("tnivel.txt=\"%Lu\"",Nivel); 
0986E:  MOVLW  EC
09870:  MOVWF  FF6
09872:  MOVLW  0B
09874:  MOVWF  FF7
09876:  MOVLW  00
09878:  MOVWF  FF8
0987A:  MOVLW  0C
0987C:  MOVLB  6
0987E:  MOVWF  xCF
09880:  MOVLB  0
09882:  CALL   5C56
09886:  MOVLW  10
09888:  MOVWF  FE9
0988A:  MOVFF  28E,6CF
0988E:  MOVFF  28D,6CE
09892:  CALL   5DD0
09896:  MOVLW  22
09898:  BTFSS  F9E.4
0989A:  BRA    9898
0989C:  MOVWF  FAD
....................       SendDataDisplay(); 
0989E:  CALL   41EE
....................    }else if(Menu==6){ // Menu de Prueba de Componentes 
098A2:  GOTO   F4DC
098A6:  MOVLB  2
098A8:  MOVF   x70,W
098AA:  SUBLW  06
098AC:  BTFSS  FD8.2
098AE:  GOTO   A0C0
....................          PruebaEstados=ON; 
098B2:  MOVLB  1
098B4:  BSF    x05.1
....................           
....................          printf("t0.txt=\"Test %02u\"",Codigo); 
098B6:  MOVLW  FE
098B8:  MOVWF  FF6
098BA:  MOVLW  0B
098BC:  MOVWF  FF7
098BE:  MOVLW  00
098C0:  MOVWF  FF8
098C2:  MOVLW  0D
098C4:  MOVLB  6
098C6:  MOVWF  xCF
098C8:  MOVLB  0
098CA:  CALL   5C56
098CE:  MOVFF  26F,6CF
098D2:  MOVLW  01
098D4:  MOVLB  6
098D6:  MOVWF  xD0
098D8:  MOVLB  0
098DA:  CALL   5CDA
098DE:  MOVLW  22
098E0:  BTFSS  F9E.4
098E2:  BRA    98E0
098E4:  MOVWF  FAD
....................          SendDataDisplay(); 
098E6:  CALL   41EE
....................           
....................          if(RX_Buffer[4]==0x01){//Oprimio EV Suministro 
098EA:  DECFSZ 35,W
098EC:  BRA    98F6
....................             EstadoSuministro=!EstadoSuministro; 
098EE:  MOVLB  1
098F0:  BTG    x04.7
....................             RX_Buffer[4]=0x00; 
098F2:  CLRF   35
....................             RX_Buffer2[4]=0x00; 
098F4:  CLRF   40
....................          } 
....................           
....................          if(EstadoSuministro){ 
098F6:  MOVLB  1
098F8:  BTFSS  x04.7
098FA:  BRA    9918
....................             printf("b0.bco=2016"); 
098FC:  MOVLW  12
098FE:  MOVWF  FF6
09900:  MOVLW  0C
09902:  MOVWF  FF7
09904:  MOVLW  00
09906:  MOVWF  FF8
09908:  MOVLB  0
0990A:  CALL   41BC
....................             SendDataDisplay();  
0990E:  CALL   41EE
....................             suministroAire=ON; 
09912:  BSF    30.4
....................          }else{ 
09914:  BRA    9930
09916:  MOVLB  1
....................             printf("b0.bco=63488"); 
09918:  MOVLW  1E
0991A:  MOVWF  FF6
0991C:  MOVLW  0C
0991E:  MOVWF  FF7
09920:  MOVLW  00
09922:  MOVWF  FF8
09924:  MOVLB  0
09926:  CALL   41BC
....................             SendDataDisplay();  
0992A:  CALL   41EE
....................             suministroAire=OFF; 
0992E:  BCF    30.4
....................          } 
....................           
....................          if(RX_Buffer[4]==0x02){//Oprimio EV Desfogue 
09930:  MOVF   35,W
09932:  SUBLW  02
09934:  BNZ   993E
....................             EstadoDesfogue=!EstadoDesfogue; 
09936:  MOVLB  1
09938:  BTG    x04.6
....................             RX_Buffer[4]=0x00; 
0993A:  CLRF   35
....................             RX_Buffer2[4]=0x00; 
0993C:  CLRF   40
....................          } 
....................           
....................          if(EstadoDesfogue){ 
0993E:  MOVLB  1
09940:  BTFSS  x04.6
09942:  BRA    9960
....................             printf("b1.bco=2016"); 
09944:  MOVLW  2C
09946:  MOVWF  FF6
09948:  MOVLW  0C
0994A:  MOVWF  FF7
0994C:  MOVLW  00
0994E:  MOVWF  FF8
09950:  MOVLB  0
09952:  CALL   41BC
....................             SendDataDisplay();  
09956:  CALL   41EE
....................             Desfogue=ON; 
0995A:  BSF    xF8.4
....................          }else{ 
0995C:  BRA    9978
0995E:  MOVLB  1
....................             printf("b1.bco=63488"); 
09960:  MOVLW  38
09962:  MOVWF  FF6
09964:  MOVLW  0C
09966:  MOVWF  FF7
09968:  MOVLW  00
0996A:  MOVWF  FF8
0996C:  MOVLB  0
0996E:  CALL   41BC
....................             SendDataDisplay();  
09972:  CALL   41EE
....................             Desfogue=OFF; 
09976:  BCF    xF8.4
....................          } 
....................           
....................          if(RX_Buffer[4]==0x03){//Oprimio EV Paso 
09978:  MOVF   35,W
0997A:  SUBLW  03
0997C:  BNZ   9986
....................             EstadoPaso=!EstadoPaso; 
0997E:  MOVLB  1
09980:  BTG    x06.2
....................             RX_Buffer[4]=0x00; 
09982:  CLRF   35
....................             RX_Buffer2[4]=0x00; 
09984:  CLRF   40
....................          } 
....................           
....................          if(EstadoPaso){ 
09986:  MOVLB  1
09988:  BTFSS  x06.2
0998A:  BRA    99A8
....................             printf("b2.bco=2016"); 
0998C:  MOVLW  46
0998E:  MOVWF  FF6
09990:  MOVLW  0C
09992:  MOVWF  FF7
09994:  MOVLW  00
09996:  MOVWF  FF8
09998:  MOVLB  0
0999A:  CALL   41BC
....................             SendDataDisplay();  
0999E:  CALL   41EE
....................             Paso=ON; 
099A2:  BSF    xF8.2
....................          }else{ 
099A4:  BRA    99C0
099A6:  MOVLB  1
....................             printf("b2.bco=63488"); 
099A8:  MOVLW  52
099AA:  MOVWF  FF6
099AC:  MOVLW  0C
099AE:  MOVWF  FF7
099B0:  MOVLW  00
099B2:  MOVWF  FF8
099B4:  MOVLB  0
099B6:  CALL   41BC
....................             SendDataDisplay();  
099BA:  CALL   41EE
....................             Paso=OFF; 
099BE:  BCF    xF8.2
....................          } 
....................          
....................          if(RX_Buffer[4]==0x04){//Oprimio Vacio 
099C0:  MOVF   35,W
099C2:  SUBLW  04
099C4:  BNZ   99CE
....................             EstadoVacio=!EstadoVacio; 
099C6:  MOVLB  1
099C8:  BTG    x06.3
....................             RX_Buffer[4]=0x00; 
099CA:  CLRF   35
....................             RX_Buffer2[4]=0x00; 
099CC:  CLRF   40
....................          } 
....................           
....................          if(EstadoVacio){ 
099CE:  MOVLB  1
099D0:  BTFSS  x06.3
099D2:  BRA    99F0
....................             printf("b3.bco=2016"); 
099D4:  MOVLW  60
099D6:  MOVWF  FF6
099D8:  MOVLW  0C
099DA:  MOVWF  FF7
099DC:  MOVLW  00
099DE:  MOVWF  FF8
099E0:  MOVLB  0
099E2:  CALL   41BC
....................             SendDataDisplay();  
099E6:  CALL   41EE
....................             outVacio=ON; 
099EA:  BSF    xF8.3
....................          }else{ 
099EC:  BRA    9A08
099EE:  MOVLB  1
....................             printf("b3.bco=63488"); 
099F0:  MOVLW  6C
099F2:  MOVWF  FF6
099F4:  MOVLW  0C
099F6:  MOVWF  FF7
099F8:  MOVLW  00
099FA:  MOVWF  FF8
099FC:  MOVLB  0
099FE:  CALL   41BC
....................             SendDataDisplay();  
09A02:  CALL   41EE
....................             outVacio=OFF; 
09A06:  BCF    xF8.3
....................          } 
....................           
....................          if(RX_Buffer[4]==0x05){//Oprimio Aire 
09A08:  MOVF   35,W
09A0A:  SUBLW  05
09A0C:  BNZ   9A16
....................             EstadoAire=!EstadoAire; 
09A0E:  MOVLB  1
09A10:  BTG    x05.0
....................             RX_Buffer[4]=0x00; 
09A12:  CLRF   35
....................             RX_Buffer2[4]=0x00; 
09A14:  CLRF   40
....................          } 
....................           
....................          if(EstadoAire){ 
09A16:  MOVLB  1
09A18:  BTFSS  x05.0
09A1A:  BRA    9A38
....................             printf("b4.bco=2016"); 
09A1C:  MOVLW  7A
09A1E:  MOVWF  FF6
09A20:  MOVLW  0C
09A22:  MOVWF  FF7
09A24:  MOVLW  00
09A26:  MOVWF  FF8
09A28:  MOVLB  0
09A2A:  CALL   41BC
....................             SendDataDisplay();  
09A2E:  CALL   41EE
....................             Aire=ON; 
09A32:  BSF    xF8.5
....................          }else{ 
09A34:  BRA    9A50
09A36:  MOVLB  1
....................             printf("b4.bco=63488"); 
09A38:  MOVLW  86
09A3A:  MOVWF  FF6
09A3C:  MOVLW  0C
09A3E:  MOVWF  FF7
09A40:  MOVLW  00
09A42:  MOVWF  FF8
09A44:  MOVLB  0
09A46:  CALL   41BC
....................             SendDataDisplay();  
09A4A:  CALL   41EE
....................             Aire=OFF; 
09A4E:  BCF    xF8.5
....................          } 
....................           
....................          if(RX_Buffer[4]==0x06){//Oprimio Bomba Vacio 
09A50:  MOVF   35,W
09A52:  SUBLW  06
09A54:  BNZ   9A5E
....................             EstadoBomba=!EstadoBomba; 
09A56:  MOVLB  1
09A58:  BTG    x07.3
....................             RX_Buffer[4]=0x00; 
09A5A:  CLRF   35
....................             RX_Buffer2[4]=0x00; 
09A5C:  CLRF   40
....................          } 
....................           
....................          if(EstadoBomba){ 
09A5E:  MOVLB  1
09A60:  BTFSS  x07.3
09A62:  BRA    9A88
....................             printf("b5.bco=2016"); 
09A64:  MOVLW  94
09A66:  MOVWF  FF6
09A68:  MOVLW  0C
09A6A:  MOVWF  FF7
09A6C:  MOVLW  00
09A6E:  MOVWF  FF8
09A70:  MOVLB  0
09A72:  CALL   41BC
....................             SendDataDisplay();  
09A76:  CALL   41EE
....................             if(ReservorioLleno) 
09A7A:  MOVLB  1
09A7C:  BTFSS  x0A.1
09A7E:  BRA    9A84
....................                bombaVacio=ON; 
09A80:  BSF    30.6
....................             else 
09A82:  BRA    9A86
....................                bombaVacio=OFF; 
09A84:  BCF    30.6
....................          }else{ 
09A86:  BRA    9AA2
....................             printf("b5.bco=63488"); 
09A88:  MOVLW  A0
09A8A:  MOVWF  FF6
09A8C:  MOVLW  0C
09A8E:  MOVWF  FF7
09A90:  MOVLW  00
09A92:  MOVWF  FF8
09A94:  MOVLB  0
09A96:  CALL   41BC
....................             SendDataDisplay();  
09A9A:  CALL   41EE
....................             bombaVacio=OFF; 
09A9E:  BCF    30.6
09AA0:  MOVLB  1
....................          } 
....................           
....................          if(RX_Buffer[4]==0x07){//Oprimio EV Agua 
09AA2:  MOVF   35,W
09AA4:  SUBLW  07
09AA6:  BNZ   9AB0
....................             EstadoAguaEnfriador=!EstadoAguaEnfriador; 
09AA8:  MOVLB  0
09AAA:  BTG    xFC.3
....................             RX_Buffer[4]=0x00; 
09AAC:  CLRF   35
....................             RX_Buffer2[4]=0x00; 
09AAE:  CLRF   40
....................          } 
....................           
....................          if(EstadoAguaEnfriador){ 
09AB0:  MOVLB  0
09AB2:  BTFSS  xFC.3
09AB4:  BRA    9ACE
....................             printf("b7.bco=2016"); 
09AB6:  MOVLW  AE
09AB8:  MOVWF  FF6
09ABA:  MOVLW  0C
09ABC:  MOVWF  FF7
09ABE:  MOVLW  00
09AC0:  MOVWF  FF8
09AC2:  CALL   41BC
....................             SendDataDisplay();  
09AC6:  CALL   41EE
....................             aguaEnfriador=ON; 
09ACA:  BSF    30.5
....................          }else{ 
09ACC:  BRA    9AE4
....................             printf("b7.bco=63488"); 
09ACE:  MOVLW  BA
09AD0:  MOVWF  FF6
09AD2:  MOVLW  0C
09AD4:  MOVWF  FF7
09AD6:  MOVLW  00
09AD8:  MOVWF  FF8
09ADA:  CALL   41BC
....................             SendDataDisplay();  
09ADE:  CALL   41EE
....................             aguaEnfriador=OFF; 
09AE2:  BCF    30.5
....................          } 
....................           
....................          if(RX_Buffer[4]==0x08){//Oprimio EV Suministro Vapor 
09AE4:  MOVF   35,W
09AE6:  SUBLW  08
09AE8:  BNZ   9AF0
....................             EstadoSuministroV=!EstadoSuministroV; 
09AEA:  BTG    xFC.4
....................             RX_Buffer[4]=0x00; 
09AEC:  CLRF   35
....................             RX_Buffer2[4]=0x00; 
09AEE:  CLRF   40
....................          } 
....................           
....................          if(EstadoSuministroV){ 
09AF0:  BTFSS  xFC.4
09AF2:  BRA    9B0C
....................             printf("b6.bco=2016"); 
09AF4:  MOVLW  C8
09AF6:  MOVWF  FF6
09AF8:  MOVLW  0C
09AFA:  MOVWF  FF7
09AFC:  MOVLW  00
09AFE:  MOVWF  FF8
09B00:  CALL   41BC
....................             SendDataDisplay();  
09B04:  CALL   41EE
....................             suministroVapor=ON; 
09B08:  BSF    xF8.1
....................          }else{ 
09B0A:  BRA    9B22
....................             printf("b6.bco=63488"); 
09B0C:  MOVLW  D4
09B0E:  MOVWF  FF6
09B10:  MOVLW  0C
09B12:  MOVWF  FF7
09B14:  MOVLW  00
09B16:  MOVWF  FF8
09B18:  CALL   41BC
....................             SendDataDisplay();  
09B1C:  CALL   41EE
....................             suministroVapor=OFF; 
09B20:  BCF    xF8.1
....................          } 
....................           
....................          if(RX_Buffer[4]==0x09){//Oprimio Abrir Cierre 
09B22:  MOVF   35,W
09B24:  SUBLW  09
09B26:  BNZ   9B2E
....................             EstadoCilindrosL=!EstadoCilindrosL; 
09B28:  BTG    xFC.5
....................             RX_Buffer[4]=0x00; 
09B2A:  CLRF   35
....................             RX_Buffer2[4]=0x00; 
09B2C:  CLRF   40
....................          } 
....................           
....................          if(EstadoCilindrosL){ 
09B2E:  BTFSS  xFC.5
09B30:  BRA    9B4A
....................             printf("b12.bco=2016"); 
09B32:  MOVLW  E2
09B34:  MOVWF  FF6
09B36:  MOVLW  0C
09B38:  MOVWF  FF7
09B3A:  MOVLW  00
09B3C:  MOVWF  FF8
09B3E:  CALL   41BC
....................             SendDataDisplay();  
09B42:  CALL   41EE
....................             cilindroLimpio=OFF; 
09B46:  BCF    xF8.7
....................          }else{ 
09B48:  BRA    9B60
....................             printf("b12.bco=63488"); 
09B4A:  MOVLW  F0
09B4C:  MOVWF  FF6
09B4E:  MOVLW  0C
09B50:  MOVWF  FF7
09B52:  MOVLW  00
09B54:  MOVWF  FF8
09B56:  CALL   41BC
....................             SendDataDisplay();  
09B5A:  CALL   41EE
....................             cilindroLimpio=ON; 
09B5E:  BSF    xF8.7
....................          } 
....................           
....................          if(RX_Buffer[4]==0x0a){//Oprimio Empaque 
09B60:  MOVF   35,W
09B62:  SUBLW  0A
09B64:  BNZ   9B6C
....................             EstadoEmpaqueL=!EstadoEmpaqueL; 
09B66:  BTG    xFC.7
....................             RX_Buffer[4]=0x00; 
09B68:  CLRF   35
....................             RX_Buffer2[4]=0x00; 
09B6A:  CLRF   40
....................          } 
....................           
....................          if(EstadoEmpaqueL && DOORL){ 
09B6C:  BTFSS  xFC.7
09B6E:  BRA    9B8C
09B70:  BTFSS  30.1
09B72:  BRA    9B8C
....................             printf("b16.bco=2016"); 
09B74:  MOVLW  FE
09B76:  MOVWF  FF6
09B78:  MOVLW  0C
09B7A:  MOVWF  FF7
09B7C:  MOVLW  00
09B7E:  MOVWF  FF8
09B80:  CALL   41BC
....................             SendDataDisplay();  
09B84:  CALL   41EE
....................             empaqueLimpio=ON;             
09B88:  BSF    30.7
....................          }else{ 
09B8A:  BRA    9BA2
....................             printf("b16.bco=63488"); 
09B8C:  MOVLW  0C
09B8E:  MOVWF  FF6
09B90:  MOVLW  0D
09B92:  MOVWF  FF7
09B94:  MOVLW  00
09B96:  MOVWF  FF8
09B98:  CALL   41BC
....................             SendDataDisplay();  
09B9C:  CALL   41EE
....................             empaqueLimpio=OFF; 
09BA0:  BCF    30.7
....................          } 
....................           
....................          if(RX_Buffer[4]==0x0b){//Oprimio Abrir Cierre 
09BA2:  MOVF   35,W
09BA4:  SUBLW  0B
09BA6:  BNZ   9BAE
....................             EstadoCilindrosS=!EstadoCilindrosS; 
09BA8:  BTG    xFC.6
....................             RX_Buffer[4]=0x00; 
09BAA:  CLRF   35
....................             RX_Buffer2[4]=0x00; 
09BAC:  CLRF   40
....................          } 
....................           
....................          if(EstadoCilindrosS){ 
09BAE:  BTFSS  xFC.6
09BB0:  BRA    9BCA
....................             printf("b17.bco=2016"); 
09BB2:  MOVLW  1A
09BB4:  MOVWF  FF6
09BB6:  MOVLW  0D
09BB8:  MOVWF  FF7
09BBA:  MOVLW  00
09BBC:  MOVWF  FF8
09BBE:  CALL   41BC
....................             SendDataDisplay();  
09BC2:  CALL   41EE
....................             cilindroSucio=OFF; 
09BC6:  BCF    xF8.6
....................          }else{ 
09BC8:  BRA    9BE0
....................             printf("b17.bco=63488"); 
09BCA:  MOVLW  28
09BCC:  MOVWF  FF6
09BCE:  MOVLW  0D
09BD0:  MOVWF  FF7
09BD2:  MOVLW  00
09BD4:  MOVWF  FF8
09BD6:  CALL   41BC
....................             SendDataDisplay();  
09BDA:  CALL   41EE
....................             cilindroSucio=ON; 
09BDE:  BSF    xF8.6
....................          } 
....................           
....................          if(RX_Buffer[4]==0x0c){//Oprimio Empaque 
09BE0:  MOVF   35,W
09BE2:  SUBLW  0C
09BE4:  BNZ   9BEE
....................             EstadoEmpaqueS=!EstadoEmpaqueS; 
09BE6:  MOVLB  1
09BE8:  BTG    x03.0
....................             RX_Buffer[4]=0x00; 
09BEA:  CLRF   35
....................             RX_Buffer2[4]=0x00; 
09BEC:  CLRF   40
....................          } 
....................           
....................          if(EstadoEmpaqueS && DOORS){ 
09BEE:  MOVLB  1
09BF0:  BTFSS  x03.0
09BF2:  BRA    9C16
09BF4:  BSF    F93.1
09BF6:  BTFSC  F81.1
09BF8:  BRA    9C16
....................             printf("b25.bco=2016"); 
09BFA:  MOVLW  36
09BFC:  MOVWF  FF6
09BFE:  MOVLW  0D
09C00:  MOVWF  FF7
09C02:  MOVLW  00
09C04:  MOVWF  FF8
09C06:  MOVLB  0
09C08:  CALL   41BC
....................             SendDataDisplay();  
09C0C:  CALL   41EE
....................             empaqueSucio=ON;             
09C10:  BSF    xF8.0
....................          }else{ 
09C12:  BRA    9C2E
09C14:  MOVLB  1
....................             printf("b25.bco=63488"); 
09C16:  MOVLW  44
09C18:  MOVWF  FF6
09C1A:  MOVLW  0D
09C1C:  MOVWF  FF7
09C1E:  MOVLW  00
09C20:  MOVWF  FF8
09C22:  MOVLB  0
09C24:  CALL   41BC
....................             SendDataDisplay();  
09C28:  CALL   41EE
....................             empaqueSucio=OFF; 
09C2C:  BCF    xF8.0
....................          } 
....................           
....................          if(RX_Buffer[4]==0x0d){//Oprimio Buzzer 
09C2E:  MOVF   35,W
09C30:  SUBLW  0D
09C32:  BNZ   9C3C
....................             EstadoBuzzer=!EstadoBuzzer; 
09C34:  MOVLB  1
09C36:  BTG    x06.4
....................             RX_Buffer[4]=0x00; 
09C38:  CLRF   35
....................             RX_Buffer2[4]=0x00; 
09C3A:  CLRF   40
....................          } 
....................           
....................          if(EstadoBuzzer){ 
09C3C:  MOVLB  1
09C3E:  BTFSS  x06.4
09C40:  BRA    9C5C
....................             printf("b21.bco=2016"); 
09C42:  MOVLW  52
09C44:  MOVWF  FF6
09C46:  MOVLW  0D
09C48:  MOVWF  FF7
09C4A:  MOVLW  00
09C4C:  MOVWF  FF8
09C4E:  MOVLB  0
09C50:  CALL   41BC
....................             SendDataDisplay();  
09C54:  CALL   41EE
....................          }else{ 
09C58:  BRA    9C72
09C5A:  MOVLB  1
....................             printf("b21.bco=63488"); 
09C5C:  MOVLW  60
09C5E:  MOVWF  FF6
09C60:  MOVLW  0D
09C62:  MOVWF  FF7
09C64:  MOVLW  00
09C66:  MOVWF  FF8
09C68:  MOVLB  0
09C6A:  CALL   41BC
....................             SendDataDisplay();  
09C6E:  CALL   41EE
....................          } 
....................           
....................          if(RX_Buffer[4]==0x0e){//Oprimio Aux1 
09C72:  MOVF   35,W
09C74:  SUBLW  0E
09C76:  BNZ   9C7E
....................             EstadoAux1=!EstadoAux1; 
09C78:  BTG    xF9.3
....................             RX_Buffer[4]=0x00; 
09C7A:  CLRF   35
....................             RX_Buffer2[4]=0x00; 
09C7C:  CLRF   40
....................          } 
....................           
....................          if(EstadoAux1){ 
09C7E:  BTFSS  xF9.3
09C80:  BRA    9C9A
....................             seguroValvula=ON; 
09C82:  BSF    xF9.1
....................             printf("b22.bco=2016"); 
09C84:  MOVLW  6E
09C86:  MOVWF  FF6
09C88:  MOVLW  0D
09C8A:  MOVWF  FF7
09C8C:  MOVLW  00
09C8E:  MOVWF  FF8
09C90:  CALL   41BC
....................             SendDataDisplay();  
09C94:  CALL   41EE
....................          }else{ 
09C98:  BRA    9CB0
....................             seguroValvula=OFF; 
09C9A:  BCF    xF9.1
....................             printf("b22.bco=63488"); 
09C9C:  MOVLW  7C
09C9E:  MOVWF  FF6
09CA0:  MOVLW  0D
09CA2:  MOVWF  FF7
09CA4:  MOVLW  00
09CA6:  MOVWF  FF8
09CA8:  CALL   41BC
....................             SendDataDisplay();  
09CAC:  CALL   41EE
....................          } 
....................           
....................          if(RX_Buffer[4]==0x0f){//Oprimio Aux2 
09CB0:  MOVF   35,W
09CB2:  SUBLW  0F
09CB4:  BNZ   9CBC
....................             EstadoAux2=!EstadoAux2; 
09CB6:  BTG    xF9.4
....................             RX_Buffer[4]=0x00; 
09CB8:  CLRF   35
....................             RX_Buffer2[4]=0x00; 
09CBA:  CLRF   40
....................          } 
....................           
....................          if(EstadoAux2){ 
09CBC:  BTFSS  xF9.4
09CBE:  BRA    9CD8
....................             seguroValvula2=ON; 
09CC0:  BSF    xF9.2
....................             printf("b28.bco=2016"); 
09CC2:  MOVLW  8A
09CC4:  MOVWF  FF6
09CC6:  MOVLW  0D
09CC8:  MOVWF  FF7
09CCA:  MOVLW  00
09CCC:  MOVWF  FF8
09CCE:  CALL   41BC
....................             SendDataDisplay();  
09CD2:  CALL   41EE
....................          }else{ 
09CD6:  BRA    9CEE
....................             seguroValvula2=OFF; 
09CD8:  BCF    xF9.2
....................             printf("b28.bco=63488"); 
09CDA:  MOVLW  98
09CDC:  MOVWF  FF6
09CDE:  MOVLW  0D
09CE0:  MOVWF  FF7
09CE2:  MOVLW  00
09CE4:  MOVWF  FF8
09CE6:  CALL   41BC
....................             SendDataDisplay();  
09CEA:  CALL   41EE
....................          } 
....................           
....................          if(DOORS){ 
09CEE:  BSF    F93.1
09CF0:  BTFSC  F81.1
09CF2:  BRA    9D0A
....................             printf("b8.bco=2016"); 
09CF4:  MOVLW  A6
09CF6:  MOVWF  FF6
09CF8:  MOVLW  0D
09CFA:  MOVWF  FF7
09CFC:  MOVLW  00
09CFE:  MOVWF  FF8
09D00:  CALL   41BC
....................             SendDataDisplay();  
09D04:  CALL   41EE
....................          }else{ 
09D08:  BRA    9D1E
....................             printf("b8.bco=63488"); 
09D0A:  MOVLW  B2
09D0C:  MOVWF  FF6
09D0E:  MOVLW  0D
09D10:  MOVWF  FF7
09D12:  MOVLW  00
09D14:  MOVWF  FF8
09D16:  CALL   41BC
....................             SendDataDisplay();  
09D1A:  CALL   41EE
....................          } 
....................           
....................          if(DOORL){ 
09D1E:  BTFSS  30.1
09D20:  BRA    9D38
....................             printf("b26.bco=2016"); 
09D22:  MOVLW  C0
09D24:  MOVWF  FF6
09D26:  MOVLW  0D
09D28:  MOVWF  FF7
09D2A:  MOVLW  00
09D2C:  MOVWF  FF8
09D2E:  CALL   41BC
....................             SendDataDisplay();  
09D32:  CALL   41EE
....................          }else{ 
09D36:  BRA    9D4C
....................             printf("b26.bco=63488"); 
09D38:  MOVLW  CE
09D3A:  MOVWF  FF6
09D3C:  MOVLW  0D
09D3E:  MOVWF  FF7
09D40:  MOVLW  00
09D42:  MOVWF  FF8
09D44:  CALL   41BC
....................             SendDataDisplay();  
09D48:  CALL   41EE
....................          } 
....................           
....................          if(EMPAQUEL){ 
09D4C:  BTFSS  30.0
09D4E:  BRA    9D66
....................             printf("b9.bco=2016"); 
09D50:  MOVLW  DC
09D52:  MOVWF  FF6
09D54:  MOVLW  0D
09D56:  MOVWF  FF7
09D58:  MOVLW  00
09D5A:  MOVWF  FF8
09D5C:  CALL   41BC
....................             SendDataDisplay();  
09D60:  CALL   41EE
....................          }else{ 
09D64:  BRA    9D7A
....................             printf("b9.bco=63488"); 
09D66:  MOVLW  E8
09D68:  MOVWF  FF6
09D6A:  MOVLW  0D
09D6C:  MOVWF  FF7
09D6E:  MOVLW  00
09D70:  MOVWF  FF8
09D72:  CALL   41BC
....................             SendDataDisplay();  
09D76:  CALL   41EE
....................          } 
....................           
....................          if(EMPAQUES){ 
09D7A:  BSF    F93.3
09D7C:  BTFSC  F81.3
09D7E:  BRA    9D96
....................             printf("b11.bco=2016"); 
09D80:  MOVLW  F6
09D82:  MOVWF  FF6
09D84:  MOVLW  0D
09D86:  MOVWF  FF7
09D88:  MOVLW  00
09D8A:  MOVWF  FF8
09D8C:  CALL   41BC
....................             SendDataDisplay();  
09D90:  CALL   41EE
....................          }else{ 
09D94:  BRA    9DAA
....................             printf("b11.bco=63488"); 
09D96:  MOVLW  04
09D98:  MOVWF  FF6
09D9A:  MOVLW  0E
09D9C:  MOVWF  FF7
09D9E:  MOVLW  00
09DA0:  MOVWF  FF8
09DA2:  CALL   41BC
....................             SendDataDisplay();  
09DA6:  CALL   41EE
....................          } 
....................           
....................          if(STOP){ 
09DAA:  BSF    F93.0
09DAC:  BTFSC  F81.0
09DAE:  BRA    9DC6
....................             printf("b10.bco=2016"); 
09DB0:  MOVLW  12
09DB2:  MOVWF  FF6
09DB4:  MOVLW  0E
09DB6:  MOVWF  FF7
09DB8:  MOVLW  00
09DBA:  MOVWF  FF8
09DBC:  CALL   41BC
....................             SendDataDisplay();  
09DC0:  CALL   41EE
....................          }else{ 
09DC4:  BRA    9DDA
....................             printf("b10.bco=63488"); 
09DC6:  MOVLW  20
09DC8:  MOVWF  FF6
09DCA:  MOVLW  0E
09DCC:  MOVWF  FF7
09DCE:  MOVLW  00
09DD0:  MOVWF  FF8
09DD2:  CALL   41BC
....................             SendDataDisplay();  
09DD6:  CALL   41EE
....................          } 
....................           
....................          if(LOWB){ 
09DDA:  BSF    F93.2
09DDC:  BTFSC  F81.2
09DDE:  BRA    9DF6
....................             printf("b23.bco=2016"); 
09DE0:  MOVLW  2E
09DE2:  MOVWF  FF6
09DE4:  MOVLW  0E
09DE6:  MOVWF  FF7
09DE8:  MOVLW  00
09DEA:  MOVWF  FF8
09DEC:  CALL   41BC
....................             SendDataDisplay();  
09DF0:  CALL   41EE
....................          }else{ 
09DF4:  BRA    9E0A
....................             printf("b23.bco=63488"); 
09DF6:  MOVLW  3C
09DF8:  MOVWF  FF6
09DFA:  MOVLW  0E
09DFC:  MOVWF  FF7
09DFE:  MOVLW  00
09E00:  MOVWF  FF8
09E02:  CALL   41BC
....................             SendDataDisplay();  
09E06:  CALL   41EE
....................          } 
....................           
....................          if(BLOQUEOL){ 
09E0A:  BTFSS  30.3
09E0C:  BRA    9E24
....................             printf("b24.bco=2016"); 
09E0E:  MOVLW  4A
09E10:  MOVWF  FF6
09E12:  MOVLW  0E
09E14:  MOVWF  FF7
09E16:  MOVLW  00
09E18:  MOVWF  FF8
09E1A:  CALL   41BC
....................             SendDataDisplay();  
09E1E:  CALL   41EE
....................          }else{ 
09E22:  BRA    9E38
....................             printf("b24.bco=63488"); 
09E24:  MOVLW  58
09E26:  MOVWF  FF6
09E28:  MOVLW  0E
09E2A:  MOVWF  FF7
09E2C:  MOVLW  00
09E2E:  MOVWF  FF8
09E30:  CALL   41BC
....................             SendDataDisplay();  
09E34:  CALL   41EE
....................          } 
....................           
....................          if(BLOQUEOS){ 
09E38:  BTFSS  30.2
09E3A:  BRA    9E52
....................             printf("b27.bco=2016"); 
09E3C:  MOVLW  66
09E3E:  MOVWF  FF6
09E40:  MOVLW  0E
09E42:  MOVWF  FF7
09E44:  MOVLW  00
09E46:  MOVWF  FF8
09E48:  CALL   41BC
....................             SendDataDisplay();  
09E4C:  CALL   41EE
....................          }else{ 
09E50:  BRA    9E66
....................             printf("b27.bco=63488"); 
09E52:  MOVLW  74
09E54:  MOVWF  FF6
09E56:  MOVLW  0E
09E58:  MOVWF  FF7
09E5A:  MOVLW  00
09E5C:  MOVWF  FF8
09E5E:  CALL   41BC
....................             SendDataDisplay();  
09E62:  CALL   41EE
....................          }          
....................                    
....................          printf("b13.txt=\"ADC0:%3.0f\"",sensores(0));          
09E66:  MOVLB  6
09E68:  CLRF   xD0
09E6A:  MOVLB  0
09E6C:  CALL   422C
09E70:  MOVFF  00,6CA
09E74:  MOVFF  01,6CB
09E78:  MOVFF  02,6CC
09E7C:  MOVFF  03,6CD
09E80:  MOVLW  82
09E82:  MOVWF  FF6
09E84:  MOVLW  0E
09E86:  MOVWF  FF7
09E88:  MOVLW  00
09E8A:  MOVWF  FF8
09E8C:  MOVLW  0E
09E8E:  MOVLB  6
09E90:  MOVWF  xCF
09E92:  MOVLB  0
09E94:  CALL   5C56
09E98:  MOVLW  02
09E9A:  MOVWF  FE9
09E9C:  MOVFF  6CD,6D2
09EA0:  MOVFF  6CC,6D1
09EA4:  MOVFF  6CB,6D0
09EA8:  MOVFF  6CA,6CF
09EAC:  MOVLB  6
09EAE:  CLRF   xD3
09EB0:  MOVLB  0
09EB2:  CALL   5F3E
09EB6:  MOVLW  22
09EB8:  BTFSS  F9E.4
09EBA:  BRA    9EB8
09EBC:  MOVWF  FAD
....................          SendDataDisplay(); 
09EBE:  CALL   41EE
....................          printf("b14.txt=\"ADC1:%3.0f\"",sensores(1));          
09EC2:  MOVLW  01
09EC4:  MOVLB  6
09EC6:  MOVWF  xD0
09EC8:  MOVLB  0
09ECA:  CALL   422C
09ECE:  MOVFF  00,6CA
09ED2:  MOVFF  01,6CB
09ED6:  MOVFF  02,6CC
09EDA:  MOVFF  03,6CD
09EDE:  MOVLW  98
09EE0:  MOVWF  FF6
09EE2:  MOVLW  0E
09EE4:  MOVWF  FF7
09EE6:  MOVLW  00
09EE8:  MOVWF  FF8
09EEA:  MOVLW  0E
09EEC:  MOVLB  6
09EEE:  MOVWF  xCF
09EF0:  MOVLB  0
09EF2:  CALL   5C56
09EF6:  MOVLW  02
09EF8:  MOVWF  FE9
09EFA:  MOVFF  6CD,6D2
09EFE:  MOVFF  6CC,6D1
09F02:  MOVFF  6CB,6D0
09F06:  MOVFF  6CA,6CF
09F0A:  MOVLB  6
09F0C:  CLRF   xD3
09F0E:  MOVLB  0
09F10:  CALL   5F3E
09F14:  MOVLW  22
09F16:  BTFSS  F9E.4
09F18:  BRA    9F16
09F1A:  MOVWF  FAD
....................          SendDataDisplay(); 
09F1C:  CALL   41EE
....................          printf("b15.txt=\"A4:%3.0f %03Lu\"",sensores(4),PresionPreCamara); 
09F20:  MOVLW  04
09F22:  MOVLB  6
09F24:  MOVWF  xD0
09F26:  MOVLB  0
09F28:  CALL   422C
09F2C:  MOVFF  00,6CA
09F30:  MOVFF  01,6CB
09F34:  MOVFF  02,6CC
09F38:  MOVFF  03,6CD
09F3C:  MOVLW  AE
09F3E:  MOVWF  FF6
09F40:  MOVLW  0E
09F42:  MOVWF  FF7
09F44:  MOVLW  00
09F46:  MOVWF  FF8
09F48:  MOVLW  0C
09F4A:  MOVLB  6
09F4C:  MOVWF  xCF
09F4E:  MOVLB  0
09F50:  CALL   5C56
09F54:  MOVLW  02
09F56:  MOVWF  FE9
09F58:  MOVFF  6CD,6D2
09F5C:  MOVFF  6CC,6D1
09F60:  MOVFF  6CB,6D0
09F64:  MOVFF  6CA,6CF
09F68:  MOVLB  6
09F6A:  CLRF   xD3
09F6C:  MOVLB  0
09F6E:  CALL   5F3E
09F72:  MOVLW  20
09F74:  BTFSS  F9E.4
09F76:  BRA    9F74
09F78:  MOVWF  FAD
09F7A:  MOVLW  0A
09F7C:  MOVWF  FE9
09F7E:  MOVFF  294,6CF
09F82:  MOVFF  293,6CE
09F86:  CALL   5DD0
09F8A:  MOVLW  22
09F8C:  BTFSS  F9E.4
09F8E:  BRA    9F8C
09F90:  MOVWF  FAD
....................          SendDataDisplay(); 
09F92:  CALL   41EE
....................          printf("b18.txt=\"A5:%3.0f %03Lu\"",sensores(5),PresionCamara); 
09F96:  MOVLW  05
09F98:  MOVLB  6
09F9A:  MOVWF  xD0
09F9C:  MOVLB  0
09F9E:  CALL   422C
09FA2:  MOVFF  00,6CA
09FA6:  MOVFF  01,6CB
09FAA:  MOVFF  02,6CC
09FAE:  MOVFF  03,6CD
09FB2:  MOVLW  C8
09FB4:  MOVWF  FF6
09FB6:  MOVLW  0E
09FB8:  MOVWF  FF7
09FBA:  MOVLW  00
09FBC:  MOVWF  FF8
09FBE:  MOVLW  0C
09FC0:  MOVLB  6
09FC2:  MOVWF  xCF
09FC4:  MOVLB  0
09FC6:  CALL   5C56
09FCA:  MOVLW  02
09FCC:  MOVWF  FE9
09FCE:  MOVFF  6CD,6D2
09FD2:  MOVFF  6CC,6D1
09FD6:  MOVFF  6CB,6D0
09FDA:  MOVFF  6CA,6CF
09FDE:  MOVLB  6
09FE0:  CLRF   xD3
09FE2:  MOVLB  0
09FE4:  CALL   5F3E
09FE8:  MOVLW  20
09FEA:  BTFSS  F9E.4
09FEC:  BRA    9FEA
09FEE:  MOVWF  FAD
09FF0:  MOVLW  0A
09FF2:  MOVWF  FE9
09FF4:  MOVFF  292,6CF
09FF8:  MOVFF  291,6CE
09FFC:  CALL   5DD0
0A000:  MOVLW  22
0A002:  BTFSS  F9E.4
0A004:  BRA    A002
0A006:  MOVWF  FAD
....................          SendDataDisplay(); 
0A008:  CALL   41EE
....................          printf("b19.txt=\"T2:%3.1f\"",Temperatura2); 
0A00C:  MOVLW  E2
0A00E:  MOVWF  FF6
0A010:  MOVLW  0E
0A012:  MOVWF  FF7
0A014:  MOVLW  00
0A016:  MOVWF  FF8
0A018:  MOVLW  0C
0A01A:  MOVLB  6
0A01C:  MOVWF  xCF
0A01E:  MOVLB  0
0A020:  CALL   5C56
0A024:  MOVLW  02
0A026:  MOVWF  FE9
0A028:  MOVFF  242,6D2
0A02C:  MOVFF  241,6D1
0A030:  MOVFF  240,6D0
0A034:  MOVFF  23F,6CF
0A038:  MOVLW  01
0A03A:  MOVLB  6
0A03C:  MOVWF  xD3
0A03E:  MOVLB  0
0A040:  CALL   5F3E
0A044:  MOVLW  22
0A046:  BTFSS  F9E.4
0A048:  BRA    A046
0A04A:  MOVWF  FAD
....................          SendDataDisplay(); 
0A04C:  CALL   41EE
....................          printf("b20.txt=\"T1:%3.1f\"",Temperatura); 
0A050:  MOVLW  F6
0A052:  MOVWF  FF6
0A054:  MOVLW  0E
0A056:  MOVWF  FF7
0A058:  MOVLW  00
0A05A:  MOVWF  FF8
0A05C:  MOVLW  0C
0A05E:  MOVLB  6
0A060:  MOVWF  xCF
0A062:  MOVLB  0
0A064:  CALL   5C56
0A068:  MOVLW  02
0A06A:  MOVWF  FE9
0A06C:  MOVFF  23E,6D2
0A070:  MOVFF  23D,6D1
0A074:  MOVFF  23C,6D0
0A078:  MOVFF  23B,6CF
0A07C:  MOVLW  01
0A07E:  MOVLB  6
0A080:  MOVWF  xD3
0A082:  MOVLB  0
0A084:  CALL   5F3E
0A088:  MOVLW  22
0A08A:  BTFSS  F9E.4
0A08C:  BRA    A08A
0A08E:  MOVWF  FAD
....................          SendDataDisplay(); 
0A090:  CALL   41EE
....................           
....................          if(RX_Buffer[4]==0x21)//Oprimio salir 
0A094:  MOVF   35,W
0A096:  SUBLW  21
0A098:  BNZ   A0BA
....................          { 
....................             printf("page Menu"); 
0A09A:  MOVLW  0A
0A09C:  MOVWF  FF6
0A09E:  MOVLW  0F
0A0A0:  MOVWF  FF7
0A0A2:  MOVLW  00
0A0A4:  MOVWF  FF8
0A0A6:  CALL   41BC
....................             SendDataDisplay(); 
0A0AA:  CALL   41EE
....................             PantallaPrincipal=0; 
0A0AE:  MOVLB  1
0A0B0:  CLRF   xF8
....................             PruebaEstados=OFF; 
0A0B2:  BCF    x05.1
....................             ApagaSalidas(); 
0A0B4:  MOVLB  0
0A0B6:  CALL   4224
....................             // Falta apagar Todo 
....................          } 
....................      }else if(Menu==7){ //Menu de Configuracin de Fecha y Hora 
0A0BA:  GOTO   F4DC
0A0BE:  MOVLB  2
0A0C0:  MOVF   x70,W
0A0C2:  SUBLW  07
0A0C4:  BTFSS  FD8.2
0A0C6:  BRA    A4AC
....................        
....................          if(RX_Buffer[4]==0x0a)//Selecciono Hora 
0A0C8:  MOVF   35,W
0A0CA:  SUBLW  0A
0A0CC:  BNZ   A0D2
....................             Opcion=4; 
0A0CE:  MOVLW  04
0A0D0:  MOVWF  x81
....................           
....................          if(RX_Buffer[4]==0x0b)//Selecciono Minuto 
0A0D2:  MOVF   35,W
0A0D4:  SUBLW  0B
0A0D6:  BNZ   A0DC
....................             Opcion=5; 
0A0D8:  MOVLW  05
0A0DA:  MOVWF  x81
....................           
....................          if(RX_Buffer[4]==0x0c)//Selecciono Dia 
0A0DC:  MOVF   35,W
0A0DE:  SUBLW  0C
0A0E0:  BNZ   A0E6
....................             Opcion=1; 
0A0E2:  MOVLW  01
0A0E4:  MOVWF  x81
....................           
....................          if(RX_Buffer[4]==0x0d)//Selecciono Hora 
0A0E6:  MOVF   35,W
0A0E8:  SUBLW  0D
0A0EA:  BNZ   A0F0
....................             Opcion=2; 
0A0EC:  MOVLW  02
0A0EE:  MOVWF  x81
....................           
....................          if(RX_Buffer[4]==0x0e)//Selecciono Year 
0A0F0:  MOVF   35,W
0A0F2:  SUBLW  0E
0A0F4:  BNZ   A0FA
....................             Opcion=3; 
0A0F6:  MOVLW  03
0A0F8:  MOVWF  x81
....................           
....................          if(Opcion>5) 
0A0FA:  MOVF   x81,W
0A0FC:  SUBLW  05
0A0FE:  BC    A104
....................             Opcion=1; 
0A100:  MOVLW  01
0A102:  MOVWF  x81
....................          if(Opcion<1) 
0A104:  MOVF   x81,F
0A106:  BNZ   A10C
....................             Opcion=5; 
0A108:  MOVLW  05
0A10A:  MOVWF  x81
....................              
....................          if(RX_Buffer[4]==0x11){//Selecciono Regresar 
0A10C:  MOVF   35,W
0A10E:  SUBLW  11
0A110:  BTFSS  FD8.2
0A112:  BRA    A24C
....................             printf("page Menu"); 
0A114:  MOVLW  14
0A116:  MOVWF  FF6
0A118:  MOVLW  0F
0A11A:  MOVWF  FF7
0A11C:  MOVLW  00
0A11E:  MOVWF  FF8
0A120:  MOVLB  0
0A122:  CALL   41BC
....................             SendDataDisplay();   
0A126:  CALL   41EE
....................             PantallaPrincipal=0; 
0A12A:  MOVLB  1
0A12C:  CLRF   xF8
....................             Op=OFF; 
0A12E:  BCF    x05.5
....................             Op2=OFF; 
0A130:  BCF    x05.6
....................              
....................             if(esBisiesto(YearTx)) 
0A132:  MOVFF  2C0,6CA
0A136:  MOVLB  0
0A138:  CALL   6128
0A13C:  MOVF   01,F
0A13E:  BZ    A15A
....................                Modulo=Bisiesto[MesTx]; 
0A140:  CLRF   03
0A142:  MOVLB  2
0A144:  MOVF   xC1,W
0A146:  ADDLW  EC
0A148:  MOVWF  FE9
0A14A:  MOVLW  00
0A14C:  ADDWFC 03,W
0A14E:  MOVWF  FEA
0A150:  MOVFF  FEF,1FA
0A154:  MOVLB  1
....................             else 
0A156:  BRA    A170
0A158:  MOVLB  0
....................                Modulo=Regular[MesTx]; 
0A15A:  CLRF   03
0A15C:  MOVLB  2
0A15E:  MOVF   xC1,W
0A160:  ADDLW  E0
0A162:  MOVWF  FE9
0A164:  MOVLW  00
0A166:  ADDWFC 03,W
0A168:  MOVWF  FEA
0A16A:  MOVFF  FEF,1FA
0A16E:  MOVLB  1
....................           
....................             dowTx=((YearTx-1)%7+((YearTx-1)/4-3*((YearTx-1)/100+1)/4)%7+Modulo+DiaTx%7)%7; 
0A170:  MOVLW  01
0A172:  MOVLB  2
0A174:  SUBWF  xC0,W
0A176:  MOVLB  6
0A178:  MOVWF  xCB
0A17A:  MOVWF  xD3
0A17C:  MOVLW  07
0A17E:  MOVWF  xD4
0A180:  MOVLB  0
0A182:  CALL   5CAE
0A186:  MOVFF  00,6CA
0A18A:  MOVLW  01
0A18C:  MOVLB  2
0A18E:  SUBWF  xC0,W
0A190:  MOVWF  00
0A192:  RRCF   00,W
0A194:  MOVLB  6
0A196:  MOVWF  xCB
0A198:  RRCF   xCB,F
0A19A:  MOVLW  3F
0A19C:  ANDWF  xCB,F
0A19E:  MOVLW  01
0A1A0:  MOVLB  2
0A1A2:  SUBWF  xC0,W
0A1A4:  MOVLB  6
0A1A6:  MOVWF  xCD
0A1A8:  MOVWF  xD3
0A1AA:  MOVLW  64
0A1AC:  MOVWF  xD4
0A1AE:  MOVLB  0
0A1B0:  CALL   5CAE
0A1B4:  MOVLW  01
0A1B6:  ADDWF  01,W
0A1B8:  MULLW  03
0A1BA:  MOVFF  FF3,00
0A1BE:  RRCF   00,F
0A1C0:  RRCF   00,F
0A1C2:  MOVLW  3F
0A1C4:  ANDWF  00,F
0A1C6:  MOVF   00,W
0A1C8:  MOVLB  6
0A1CA:  SUBWF  xCB,W
0A1CC:  MOVWF  xCC
0A1CE:  MOVWF  xD3
0A1D0:  MOVLW  07
0A1D2:  MOVWF  xD4
0A1D4:  MOVLB  0
0A1D6:  CALL   5CAE
0A1DA:  MOVF   00,W
0A1DC:  MOVLB  6
0A1DE:  ADDWF  xCA,W
0A1E0:  MOVLB  1
0A1E2:  ADDWF  xFA,W
0A1E4:  MOVLB  6
0A1E6:  MOVWF  xCA
0A1E8:  MOVFF  2C2,6D3
0A1EC:  MOVLW  07
0A1EE:  MOVWF  xD4
0A1F0:  MOVLB  0
0A1F2:  CALL   5CAE
0A1F6:  MOVF   00,W
0A1F8:  MOVLB  6
0A1FA:  ADDWF  xCA,W
0A1FC:  MOVWF  xCB
0A1FE:  MOVWF  xD3
0A200:  MOVLW  07
0A202:  MOVWF  xD4
0A204:  MOVLB  0
0A206:  CALL   5CAE
0A20A:  MOVFF  00,2C5
....................             SetTime=5; 
0A20E:  MOVLW  05
0A210:  MOVLB  2
0A212:  MOVWF  xC6
....................             Envio_Esclavos(); 
0A214:  MOVLB  0
0A216:  CALL   579A
....................             delay_ms(100);    
0A21A:  MOVLW  64
0A21C:  MOVLB  6
0A21E:  MOVWF  xDC
0A220:  MOVLB  0
0A222:  CALL   2142
....................             SetTime=10; 
0A226:  MOVLW  0A
0A228:  MOVLB  2
0A22A:  MOVWF  xC6
....................             rtc_set_datetime(DiaTx,MesTx,YearTx,dowTx,HoraTx,MinutoTx); 
0A22C:  MOVFF  2C2,6CA
0A230:  MOVFF  2C1,6CB
0A234:  MOVFF  2C0,6CC
0A238:  MOVFF  2C5,6CD
0A23C:  MOVFF  2C3,6CE
0A240:  MOVFF  2C4,6CF
0A244:  MOVLB  0
0A246:  GOTO   61AA
0A24A:  MOVLB  2
....................          } 
....................           
....................          if(RX_Buffer[4]==0x2a){//Tecla Arriba Oprimida 
0A24C:  MOVF   35,W
0A24E:  SUBLW  2A
0A250:  BTFSS  FD8.2
0A252:  BRA    A338
....................                if(Opcion==1){ 
0A254:  DECFSZ x81,W
0A256:  BRA    A2E4
....................                   if(MesTx==2){ 
0A258:  MOVF   xC1,W
0A25A:  SUBLW  02
0A25C:  BNZ   A292
....................                      if(esBisiesto(YearTx)){ 
0A25E:  MOVFF  2C0,6CA
0A262:  MOVLB  0
0A264:  CALL   6128
0A268:  MOVF   01,F
0A26A:  BZ    A280
....................                         if(DiaTx<29) 
0A26C:  MOVLB  2
0A26E:  MOVF   xC2,W
0A270:  SUBLW  1C
0A272:  BNC   A278
....................                            DiaTx++; 
0A274:  INCF   xC2,F
....................                         else 
0A276:  BRA    A27C
....................                            DiaTx=1;    
0A278:  MOVLW  01
0A27A:  MOVWF  xC2
....................                      }else{ 
0A27C:  BRA    A290
0A27E:  MOVLB  0
....................                         if(DiaTx<28) 
0A280:  MOVLB  2
0A282:  MOVF   xC2,W
0A284:  SUBLW  1B
0A286:  BNC   A28C
....................                            DiaTx++; 
0A288:  INCF   xC2,F
....................                         else 
0A28A:  BRA    A290
....................                            DiaTx=1;    
0A28C:  MOVLW  01
0A28E:  MOVWF  xC2
....................                      } 
....................                   }else{ 
0A290:  BRA    A2E2
....................                      if(MesTx<=7){ 
0A292:  MOVF   xC1,W
0A294:  SUBLW  07
0A296:  BNC   A2BE
....................                         if(MesTx % 2 ==0){ 
0A298:  MOVF   xC1,W
0A29A:  ANDLW  01
0A29C:  BNZ   A2AE
....................                            if(DiaTx<30) 
0A29E:  MOVF   xC2,W
0A2A0:  SUBLW  1D
0A2A2:  BNC   A2A8
....................                               DiaTx++;     
0A2A4:  INCF   xC2,F
....................                            else 
0A2A6:  BRA    A2AC
....................                               DiaTx=1;    
0A2A8:  MOVLW  01
0A2AA:  MOVWF  xC2
....................                         }else{ 
0A2AC:  BRA    A2BC
....................                            if(DiaTx<31) 
0A2AE:  MOVF   xC2,W
0A2B0:  SUBLW  1E
0A2B2:  BNC   A2B8
....................                               DiaTx++;     
0A2B4:  INCF   xC2,F
....................                            else 
0A2B6:  BRA    A2BC
....................                               DiaTx=1;    
0A2B8:  MOVLW  01
0A2BA:  MOVWF  xC2
....................                         }     
....................                      }else{ 
0A2BC:  BRA    A2E2
....................                         if(MesTx % 2 ==0){ 
0A2BE:  MOVF   xC1,W
0A2C0:  ANDLW  01
0A2C2:  BNZ   A2D4
....................                            if(DiaTx<31) 
0A2C4:  MOVF   xC2,W
0A2C6:  SUBLW  1E
0A2C8:  BNC   A2CE
....................                               DiaTx++;   
0A2CA:  INCF   xC2,F
....................                            else 
0A2CC:  BRA    A2D2
....................                               DiaTx=1; 
0A2CE:  MOVLW  01
0A2D0:  MOVWF  xC2
....................                         }else{ 
0A2D2:  BRA    A2E2
....................                            if(DiaTx<30) 
0A2D4:  MOVF   xC2,W
0A2D6:  SUBLW  1D
0A2D8:  BNC   A2DE
....................                               DiaTx++;     
0A2DA:  INCF   xC2,F
....................                            else 
0A2DC:  BRA    A2E2
....................                               DiaTx=1; 
0A2DE:  MOVLW  01
0A2E0:  MOVWF  xC2
....................                         }     
....................                      } 
....................                   } 
....................                }else if(Opcion==2){ 
0A2E2:  BRA    A334
0A2E4:  MOVF   x81,W
0A2E6:  SUBLW  02
0A2E8:  BNZ   A2FA
....................                   if(MesTx<12) 
0A2EA:  MOVF   xC1,W
0A2EC:  SUBLW  0B
0A2EE:  BNC   A2F4
....................                      MesTx++; 
0A2F0:  INCF   xC1,F
....................                   else 
0A2F2:  BRA    A2F8
....................                      MesTx=1; 
0A2F4:  MOVLW  01
0A2F6:  MOVWF  xC1
....................                }else if(Opcion==3){ 
0A2F8:  BRA    A334
0A2FA:  MOVF   x81,W
0A2FC:  SUBLW  03
0A2FE:  BNZ   A30E
....................                   if(YearTx<99) 
0A300:  MOVF   xC0,W
0A302:  SUBLW  62
0A304:  BNC   A30A
....................                      YearTx++; 
0A306:  INCF   xC0,F
....................                   else  
0A308:  BRA    A30C
....................                      YearTx=0; 
0A30A:  CLRF   xC0
....................                }else if(Opcion==4){ 
0A30C:  BRA    A334
0A30E:  MOVF   x81,W
0A310:  SUBLW  04
0A312:  BNZ   A322
....................                   if(HoraTx<24) 
0A314:  MOVF   xC3,W
0A316:  SUBLW  17
0A318:  BNC   A31E
....................                      HoraTx++; 
0A31A:  INCF   xC3,F
....................                   else 
0A31C:  BRA    A320
....................                      HoraTx=0; 
0A31E:  CLRF   xC3
....................                }else if(Opcion==5){ 
0A320:  BRA    A334
0A322:  MOVF   x81,W
0A324:  SUBLW  05
0A326:  BNZ   A334
....................                   if(MinutoTx<59) 
0A328:  MOVF   xC4,W
0A32A:  SUBLW  3A
0A32C:  BNC   A332
....................                      MinutoTx++; 
0A32E:  INCF   xC4,F
....................                   else 
0A330:  BRA    A334
....................                      MinutoTx=0; 
0A332:  CLRF   xC4
....................                } 
....................                RX_Buffer[4]=0x00; 
0A334:  CLRF   35
....................                RX_Buffer2[4]=0x00; 
0A336:  CLRF   40
....................          } 
....................           
....................          if(RX_Buffer[4]==0x2b){//Tecla Abajo Oprimida  
0A338:  MOVF   35,W
0A33A:  SUBLW  2B
0A33C:  BNZ   A39E
....................                if(Opcion==1){ 
0A33E:  DECFSZ x81,W
0A340:  BRA    A34A
....................                   if(DiaTx>0) 
0A342:  MOVF   xC2,F
0A344:  BZ    A348
....................                      DiaTx--; 
0A346:  DECF   xC2,F
....................                }else if(Opcion==2){ 
0A348:  BRA    A39A
0A34A:  MOVF   x81,W
0A34C:  SUBLW  02
0A34E:  BNZ   A360
....................                   if(MesTx>1) 
0A350:  MOVF   xC1,W
0A352:  SUBLW  01
0A354:  BC    A35A
....................                      MesTx--; 
0A356:  DECF   xC1,F
....................                   else 
0A358:  BRA    A35E
....................                      MesTx=12; 
0A35A:  MOVLW  0C
0A35C:  MOVWF  xC1
....................                }else if(Opcion==3){ 
0A35E:  BRA    A39A
0A360:  MOVF   x81,W
0A362:  SUBLW  03
0A364:  BNZ   A374
....................                   if(YearTx>0) 
0A366:  MOVF   xC0,F
0A368:  BZ    A36E
....................                      YearTx--; 
0A36A:  DECF   xC0,F
....................                   else 
0A36C:  BRA    A372
....................                      YearTx=99; 
0A36E:  MOVLW  63
0A370:  MOVWF  xC0
....................                }else if(Opcion==4){ 
0A372:  BRA    A39A
0A374:  MOVF   x81,W
0A376:  SUBLW  04
0A378:  BNZ   A388
....................                   if(HoraTx>0) 
0A37A:  MOVF   xC3,F
0A37C:  BZ    A382
....................                      HoraTx--; 
0A37E:  DECF   xC3,F
....................                   else 
0A380:  BRA    A386
....................                      HoraTx=23; 
0A382:  MOVLW  17
0A384:  MOVWF  xC3
....................                }else if(Opcion==5){ 
0A386:  BRA    A39A
0A388:  MOVF   x81,W
0A38A:  SUBLW  05
0A38C:  BNZ   A39A
....................                   if(MinutoTx>0) 
0A38E:  MOVF   xC4,F
0A390:  BZ    A396
....................                      MinutoTx--; 
0A392:  DECF   xC4,F
....................                   else 
0A394:  BRA    A39A
....................                      MinutoTx=59; 
0A396:  MOVLW  3B
0A398:  MOVWF  xC4
....................                } 
....................                RX_Buffer[4]=0x00; 
0A39A:  CLRF   35
....................                RX_Buffer2[4]=0x00; 
0A39C:  CLRF   40
....................                //BorraBuffer(); 
....................          } 
....................        
....................       printf("thora.txt=\"%02u\"",HoraTx); 
0A39E:  MOVLW  1E
0A3A0:  MOVWF  FF6
0A3A2:  MOVLW  0F
0A3A4:  MOVWF  FF7
0A3A6:  MOVLW  00
0A3A8:  MOVWF  FF8
0A3AA:  MOVLW  0B
0A3AC:  MOVLB  6
0A3AE:  MOVWF  xCF
0A3B0:  MOVLB  0
0A3B2:  CALL   5C56
0A3B6:  MOVFF  2C3,6CF
0A3BA:  MOVLW  01
0A3BC:  MOVLB  6
0A3BE:  MOVWF  xD0
0A3C0:  MOVLB  0
0A3C2:  CALL   5CDA
0A3C6:  MOVLW  22
0A3C8:  BTFSS  F9E.4
0A3CA:  BRA    A3C8
0A3CC:  MOVWF  FAD
....................       SendDataDisplay(); 
0A3CE:  CALL   41EE
....................       printf("tminutos.txt=\"%02u\"",MinutoTx); 
0A3D2:  MOVLW  30
0A3D4:  MOVWF  FF6
0A3D6:  MOVLW  0F
0A3D8:  MOVWF  FF7
0A3DA:  MOVLW  00
0A3DC:  MOVWF  FF8
0A3DE:  MOVLW  0E
0A3E0:  MOVLB  6
0A3E2:  MOVWF  xCF
0A3E4:  MOVLB  0
0A3E6:  CALL   5C56
0A3EA:  MOVFF  2C4,6CF
0A3EE:  MOVLW  01
0A3F0:  MOVLB  6
0A3F2:  MOVWF  xD0
0A3F4:  MOVLB  0
0A3F6:  CALL   5CDA
0A3FA:  MOVLW  22
0A3FC:  BTFSS  F9E.4
0A3FE:  BRA    A3FC
0A400:  MOVWF  FAD
....................       SendDataDisplay(); 
0A402:  CALL   41EE
....................       printf("tdia.txt=\"%02u\"",DiaTx); 
0A406:  MOVLW  44
0A408:  MOVWF  FF6
0A40A:  MOVLW  0F
0A40C:  MOVWF  FF7
0A40E:  MOVLW  00
0A410:  MOVWF  FF8
0A412:  MOVLW  0A
0A414:  MOVLB  6
0A416:  MOVWF  xCF
0A418:  MOVLB  0
0A41A:  CALL   5C56
0A41E:  MOVFF  2C2,6CF
0A422:  MOVLW  01
0A424:  MOVLB  6
0A426:  MOVWF  xD0
0A428:  MOVLB  0
0A42A:  CALL   5CDA
0A42E:  MOVLW  22
0A430:  BTFSS  F9E.4
0A432:  BRA    A430
0A434:  MOVWF  FAD
....................       SendDataDisplay(); 
0A436:  CALL   41EE
....................       printf("tmes.txt=\"%02u\"",MesTx); 
0A43A:  MOVLW  54
0A43C:  MOVWF  FF6
0A43E:  MOVLW  0F
0A440:  MOVWF  FF7
0A442:  MOVLW  00
0A444:  MOVWF  FF8
0A446:  MOVLW  0A
0A448:  MOVLB  6
0A44A:  MOVWF  xCF
0A44C:  MOVLB  0
0A44E:  CALL   5C56
0A452:  MOVFF  2C1,6CF
0A456:  MOVLW  01
0A458:  MOVLB  6
0A45A:  MOVWF  xD0
0A45C:  MOVLB  0
0A45E:  CALL   5CDA
0A462:  MOVLW  22
0A464:  BTFSS  F9E.4
0A466:  BRA    A464
0A468:  MOVWF  FAD
....................       SendDataDisplay(); 
0A46A:  CALL   41EE
....................       printf("tyear.txt=\"%02u\"",YearTx); 
0A46E:  MOVLW  64
0A470:  MOVWF  FF6
0A472:  MOVLW  0F
0A474:  MOVWF  FF7
0A476:  MOVLW  00
0A478:  MOVWF  FF8
0A47A:  MOVLW  0B
0A47C:  MOVLB  6
0A47E:  MOVWF  xCF
0A480:  MOVLB  0
0A482:  CALL   5C56
0A486:  MOVFF  2C0,6CF
0A48A:  MOVLW  01
0A48C:  MOVLB  6
0A48E:  MOVWF  xD0
0A490:  MOVLB  0
0A492:  CALL   5CDA
0A496:  MOVLW  22
0A498:  BTFSS  F9E.4
0A49A:  BRA    A498
0A49C:  MOVWF  FAD
....................       SendDataDisplay(); 
0A49E:  CALL   41EE
....................       LimitaDia();   
0A4A2:  GOTO   6266
....................     }else if(Menu==8){ //Menu Ciclos Personalizados 
0A4A6:  GOTO   F4DC
0A4AA:  MOVLB  2
0A4AC:  MOVF   x70,W
0A4AE:  SUBLW  08
0A4B0:  BTFSS  FD8.2
0A4B2:  GOTO   B070
....................       tCicloP=0; 
0A4B6:  MOVLB  1
0A4B8:  CLRF   x1C
0A4BA:  CLRF   x1B
....................       oprimioCicloP=OFF; 
0A4BC:  BCF    x03.3
....................       printf("fecha.txt=\"Fecha:%02u/%02u/20%02u Hora: %02u:%02u:%02u\"",Dia,Mes,Year,Hora,Minuto,Segundo); 
0A4BE:  MOVLW  76
0A4C0:  MOVWF  FF6
0A4C2:  MOVLW  0F
0A4C4:  MOVWF  FF7
0A4C6:  MOVLW  00
0A4C8:  MOVWF  FF8
0A4CA:  MOVLW  11
0A4CC:  MOVLB  6
0A4CE:  MOVWF  xCF
0A4D0:  MOVLB  0
0A4D2:  CALL   5C56
0A4D6:  MOVFF  2B5,6CF
0A4DA:  MOVLW  01
0A4DC:  MOVLB  6
0A4DE:  MOVWF  xD0
0A4E0:  MOVLB  0
0A4E2:  CALL   5CDA
0A4E6:  MOVLW  2F
0A4E8:  BTFSS  F9E.4
0A4EA:  BRA    A4E8
0A4EC:  MOVWF  FAD
0A4EE:  MOVFF  2B4,6CF
0A4F2:  MOVLW  01
0A4F4:  MOVLB  6
0A4F6:  MOVWF  xD0
0A4F8:  MOVLB  0
0A4FA:  CALL   5CDA
0A4FE:  MOVLW  2F
0A500:  BTFSS  F9E.4
0A502:  BRA    A500
0A504:  MOVWF  FAD
0A506:  MOVLW  32
0A508:  BTFSS  F9E.4
0A50A:  BRA    A508
0A50C:  MOVWF  FAD
0A50E:  MOVLW  30
0A510:  BTFSS  F9E.4
0A512:  BRA    A510
0A514:  MOVWF  FAD
0A516:  MOVFF  2B3,6CF
0A51A:  MOVLW  01
0A51C:  MOVLB  6
0A51E:  MOVWF  xD0
0A520:  MOVLB  0
0A522:  CALL   5CDA
0A526:  MOVLW  97
0A528:  MOVWF  FF6
0A52A:  MOVLW  0F
0A52C:  MOVWF  FF7
0A52E:  MOVLW  00
0A530:  MOVWF  FF8
0A532:  MOVLW  07
0A534:  MOVLB  6
0A536:  MOVWF  xCF
0A538:  MOVLB  0
0A53A:  CALL   5C56
0A53E:  MOVFF  2B6,6CF
0A542:  MOVLW  01
0A544:  MOVLB  6
0A546:  MOVWF  xD0
0A548:  MOVLB  0
0A54A:  CALL   5CDA
0A54E:  MOVLW  3A
0A550:  BTFSS  F9E.4
0A552:  BRA    A550
0A554:  MOVWF  FAD
0A556:  MOVFF  2B7,6CF
0A55A:  MOVLW  01
0A55C:  MOVLB  6
0A55E:  MOVWF  xD0
0A560:  MOVLB  0
0A562:  CALL   5CDA
0A566:  MOVLW  3A
0A568:  BTFSS  F9E.4
0A56A:  BRA    A568
0A56C:  MOVWF  FAD
0A56E:  MOVFF  2B8,6CF
0A572:  MOVLW  01
0A574:  MOVLB  6
0A576:  MOVWF  xD0
0A578:  MOVLB  0
0A57A:  CALL   5CDA
0A57E:  MOVLW  22
0A580:  BTFSS  F9E.4
0A582:  BRA    A580
0A584:  MOVWF  FAD
....................       SendDataDisplay(); 
0A586:  CALL   41EE
....................       GuardaEEPROM=OFF; 
0A58A:  MOVLB  1
0A58C:  BCF    x06.1
....................       printf("tuser.txt=\"%s\"",usuario); 
0A58E:  MOVLW  AE
0A590:  MOVWF  FF6
0A592:  MOVLW  0F
0A594:  MOVWF  FF7
0A596:  MOVLW  00
0A598:  MOVWF  FF8
0A59A:  MOVLW  0B
0A59C:  MOVLB  6
0A59E:  MOVWF  xCF
0A5A0:  MOVLB  0
0A5A2:  CALL   5C56
0A5A6:  MOVLW  02
0A5A8:  MOVWF  FEA
0A5AA:  MOVLW  D0
0A5AC:  MOVWF  FE9
0A5AE:  CALL   5C88
0A5B2:  MOVLW  22
0A5B4:  BTFSS  F9E.4
0A5B6:  BRA    A5B4
0A5B8:  MOVWF  FAD
....................       SendDataDisplay(); 
0A5BA:  CALL   41EE
....................        
....................       if(RX_Buffer[4]>0x00 && RX_Buffer[4]<0x15 && estados[RX_Buffer[4]-1]){//Personalizados 
0A5BE:  MOVF   35,F
0A5C0:  BTFSC  FD8.2
0A5C2:  BRA    A88A
0A5C4:  MOVF   35,W
0A5C6:  SUBLW  14
0A5C8:  BTFSS  FD8.0
0A5CA:  BRA    A88A
0A5CC:  MOVLW  01
0A5CE:  SUBWF  35,W
0A5D0:  MOVLB  6
0A5D2:  MOVWF  xCB
0A5D4:  MOVLW  03
0A5D6:  MOVWF  xCD
0A5D8:  MOVLW  36
0A5DA:  MOVWF  xCC
0A5DC:  MOVLB  0
0A5DE:  CALL   2582
0A5E2:  BTFSS  01.0
0A5E4:  BRA    A88A
....................          printf("ciclo.txt=\"CICLO P%02u\"",RX_Buffer[4]+0x0a); 
0A5E6:  MOVLW  0A
0A5E8:  ADDWF  35,W
0A5EA:  MOVLB  6
0A5EC:  MOVWF  xCA
0A5EE:  MOVLW  BE
0A5F0:  MOVWF  FF6
0A5F2:  MOVLW  0F
0A5F4:  MOVWF  FF7
0A5F6:  MOVLW  00
0A5F8:  MOVWF  FF8
0A5FA:  MOVLW  12
0A5FC:  MOVWF  xCF
0A5FE:  MOVLB  0
0A600:  CALL   5C56
0A604:  MOVFF  6CA,6CF
0A608:  MOVLW  01
0A60A:  MOVLB  6
0A60C:  MOVWF  xD0
0A60E:  MOVLB  0
0A610:  CALL   5CDA
0A614:  MOVLW  22
0A616:  BTFSS  F9E.4
0A618:  BRA    A616
0A61A:  MOVWF  FAD
....................          SendDataDisplay();           
0A61C:  CALL   41EE
....................          printf("temp.txt=\"%u\"",CiclosPersonalizados[RX_Buffer[4]-1].Temperatura); 
0A620:  MOVLW  01
0A622:  SUBWF  35,W
0A624:  MULLW  08
0A626:  MOVF   FF3,W
0A628:  MOVLB  6
0A62A:  CLRF   xCB
0A62C:  MOVWF  xCA
0A62E:  MOVLW  02
0A630:  ADDWF  xCA,W
0A632:  MOVWF  FE9
0A634:  MOVLW  06
0A636:  ADDWFC xCB,W
0A638:  MOVWF  FEA
0A63A:  MOVFF  FEF,6CA
0A63E:  MOVLW  D6
0A640:  MOVWF  FF6
0A642:  MOVLW  0F
0A644:  MOVWF  FF7
0A646:  MOVLW  00
0A648:  MOVWF  FF8
0A64A:  MOVLW  0A
0A64C:  MOVWF  xCF
0A64E:  MOVLB  0
0A650:  CALL   5C56
0A654:  MOVFF  6CA,6CF
0A658:  MOVLW  1B
0A65A:  MOVLB  6
0A65C:  MOVWF  xD0
0A65E:  MOVLB  0
0A660:  CALL   5CDA
0A664:  MOVLW  22
0A666:  BTFSS  F9E.4
0A668:  BRA    A666
0A66A:  MOVWF  FAD
....................          SendDataDisplay(); 
0A66C:  CALL   41EE
....................          printf("test.txt=\"%02u:%02u\"",CiclosPersonalizados[RX_Buffer[4]-1].Minutoest,CiclosPersonalizados[RX_Buffer[4]-1].Segundoest); 
0A670:  MOVLW  01
0A672:  SUBWF  35,W
0A674:  MULLW  08
0A676:  MOVF   FF3,W
0A678:  MOVLB  6
0A67A:  CLRF   xCB
0A67C:  MOVWF  xCA
0A67E:  MOVLW  01
0A680:  ADDWF  xCA,W
0A682:  MOVWF  01
0A684:  MOVLW  00
0A686:  ADDWFC xCB,W
0A688:  MOVWF  03
0A68A:  MOVF   01,W
0A68C:  ADDLW  02
0A68E:  MOVWF  FE9
0A690:  MOVLW  06
0A692:  ADDWFC 03,W
0A694:  MOVWF  FEA
0A696:  MOVFF  FEF,6CA
0A69A:  MOVLW  01
0A69C:  SUBWF  35,W
0A69E:  MULLW  08
0A6A0:  MOVF   FF3,W
0A6A2:  CLRF   xCC
0A6A4:  MOVWF  xCB
0A6A6:  MOVLW  02
0A6A8:  ADDWF  xCB,W
0A6AA:  MOVWF  01
0A6AC:  MOVLW  00
0A6AE:  ADDWFC xCC,W
0A6B0:  MOVWF  03
0A6B2:  MOVF   01,W
0A6B4:  ADDLW  02
0A6B6:  MOVWF  FE9
0A6B8:  MOVLW  06
0A6BA:  ADDWFC 03,W
0A6BC:  MOVWF  FEA
0A6BE:  MOVFF  FEF,6CB
0A6C2:  MOVLW  E4
0A6C4:  MOVWF  FF6
0A6C6:  MOVLW  0F
0A6C8:  MOVWF  FF7
0A6CA:  MOVLW  00
0A6CC:  MOVWF  FF8
0A6CE:  MOVLW  0A
0A6D0:  MOVWF  xCF
0A6D2:  MOVLB  0
0A6D4:  CALL   5C56
0A6D8:  MOVFF  6CA,6CF
0A6DC:  MOVLW  01
0A6DE:  MOVLB  6
0A6E0:  MOVWF  xD0
0A6E2:  MOVLB  0
0A6E4:  CALL   5CDA
0A6E8:  MOVLW  3A
0A6EA:  BTFSS  F9E.4
0A6EC:  BRA    A6EA
0A6EE:  MOVWF  FAD
0A6F0:  MOVFF  6CB,6CF
0A6F4:  MOVLW  01
0A6F6:  MOVLB  6
0A6F8:  MOVWF  xD0
0A6FA:  MOVLB  0
0A6FC:  CALL   5CDA
0A700:  MOVLW  22
0A702:  BTFSS  F9E.4
0A704:  BRA    A702
0A706:  MOVWF  FAD
....................          SendDataDisplay(); 
0A708:  CALL   41EE
....................          printf("tsec.txt=\"%02u:%02u\"",CiclosPersonalizados[RX_Buffer[4]-1].Minutosec,CiclosPersonalizados[RX_Buffer[4]-1].Segundosec); 
0A70C:  MOVLW  01
0A70E:  SUBWF  35,W
0A710:  MULLW  08
0A712:  MOVF   FF3,W
0A714:  MOVLB  6
0A716:  CLRF   xCB
0A718:  MOVWF  xCA
0A71A:  MOVLW  03
0A71C:  ADDWF  xCA,W
0A71E:  MOVWF  01
0A720:  MOVLW  00
0A722:  ADDWFC xCB,W
0A724:  MOVWF  03
0A726:  MOVF   01,W
0A728:  ADDLW  02
0A72A:  MOVWF  FE9
0A72C:  MOVLW  06
0A72E:  ADDWFC 03,W
0A730:  MOVWF  FEA
0A732:  MOVFF  FEF,6CA
0A736:  MOVLW  01
0A738:  SUBWF  35,W
0A73A:  MULLW  08
0A73C:  MOVF   FF3,W
0A73E:  CLRF   xCC
0A740:  MOVWF  xCB
0A742:  MOVLW  04
0A744:  ADDWF  xCB,W
0A746:  MOVWF  01
0A748:  MOVLW  00
0A74A:  ADDWFC xCC,W
0A74C:  MOVWF  03
0A74E:  MOVF   01,W
0A750:  ADDLW  02
0A752:  MOVWF  FE9
0A754:  MOVLW  06
0A756:  ADDWFC 03,W
0A758:  MOVWF  FEA
0A75A:  MOVFF  FEF,6CB
0A75E:  MOVLW  FA
0A760:  MOVWF  FF6
0A762:  MOVLW  0F
0A764:  MOVWF  FF7
0A766:  MOVLW  00
0A768:  MOVWF  FF8
0A76A:  MOVLW  0A
0A76C:  MOVWF  xCF
0A76E:  MOVLB  0
0A770:  CALL   5C56
0A774:  MOVFF  6CA,6CF
0A778:  MOVLW  01
0A77A:  MOVLB  6
0A77C:  MOVWF  xD0
0A77E:  MOVLB  0
0A780:  CALL   5CDA
0A784:  MOVLW  3A
0A786:  BTFSS  F9E.4
0A788:  BRA    A786
0A78A:  MOVWF  FAD
0A78C:  MOVFF  6CB,6CF
0A790:  MOVLW  01
0A792:  MOVLB  6
0A794:  MOVWF  xD0
0A796:  MOVLB  0
0A798:  CALL   5CDA
0A79C:  MOVLW  22
0A79E:  BTFSS  F9E.4
0A7A0:  BRA    A79E
0A7A2:  MOVWF  FAD
....................          SendDataDisplay(); 
0A7A4:  CALL   41EE
....................          printf("pulsos.txt=\"%02u\"",CiclosPersonalizados[RX_Buffer[4]-1].PulsosVacio); 
0A7A8:  MOVLW  01
0A7AA:  SUBWF  35,W
0A7AC:  MULLW  08
0A7AE:  MOVF   FF3,W
0A7B0:  MOVLB  6
0A7B2:  CLRF   xCB
0A7B4:  MOVWF  xCA
0A7B6:  MOVLW  05
0A7B8:  ADDWF  xCA,W
0A7BA:  MOVWF  01
0A7BC:  MOVLW  00
0A7BE:  ADDWFC xCB,W
0A7C0:  MOVWF  03
0A7C2:  MOVF   01,W
0A7C4:  ADDLW  02
0A7C6:  MOVWF  FE9
0A7C8:  MOVLW  06
0A7CA:  ADDWFC 03,W
0A7CC:  MOVWF  FEA
0A7CE:  MOVFF  FEF,6CA
0A7D2:  MOVLW  10
0A7D4:  MOVWF  FF6
0A7D6:  MOVLW  10
0A7D8:  MOVWF  FF7
0A7DA:  MOVLW  00
0A7DC:  MOVWF  FF8
0A7DE:  MOVLW  0C
0A7E0:  MOVWF  xCF
0A7E2:  MOVLB  0
0A7E4:  CALL   5C56
0A7E8:  MOVFF  6CA,6CF
0A7EC:  MOVLW  01
0A7EE:  MOVLB  6
0A7F0:  MOVWF  xD0
0A7F2:  MOVLB  0
0A7F4:  CALL   5CDA
0A7F8:  MOVLW  22
0A7FA:  BTFSS  F9E.4
0A7FC:  BRA    A7FA
0A7FE:  MOVWF  FAD
....................          SendDataDisplay(); 
0A800:  CALL   41EE
....................          printf("vacio.txt=\"%03u kPa\"",CiclosPersonalizados[RX_Buffer[4]-1].NivelVacio); 
0A804:  MOVLW  01
0A806:  SUBWF  35,W
0A808:  MULLW  08
0A80A:  MOVF   FF3,W
0A80C:  MOVLB  6
0A80E:  CLRF   xCB
0A810:  MOVWF  xCA
0A812:  MOVLW  06
0A814:  ADDWF  xCA,W
0A816:  MOVWF  01
0A818:  MOVLW  00
0A81A:  ADDWFC xCB,W
0A81C:  MOVWF  03
0A81E:  MOVF   01,W
0A820:  ADDLW  02
0A822:  MOVWF  FE9
0A824:  MOVLW  06
0A826:  ADDWFC 03,W
0A828:  MOVWF  FEA
0A82A:  MOVFF  FEF,6CA
0A82E:  MOVLW  22
0A830:  MOVWF  FF6
0A832:  MOVLW  10
0A834:  MOVWF  FF7
0A836:  MOVLW  00
0A838:  MOVWF  FF8
0A83A:  MOVLW  0B
0A83C:  MOVWF  xCF
0A83E:  MOVLB  0
0A840:  CALL   5C56
0A844:  MOVFF  6CA,6CF
0A848:  MOVLW  03
0A84A:  MOVLB  6
0A84C:  MOVWF  xD0
0A84E:  MOVLB  0
0A850:  CALL   5CDA
0A854:  MOVLW  31
0A856:  MOVWF  FF6
0A858:  MOVLW  10
0A85A:  MOVWF  FF7
0A85C:  MOVLW  00
0A85E:  MOVWF  FF8
0A860:  MOVLW  05
0A862:  MOVLB  6
0A864:  MOVWF  xCF
0A866:  MOVLB  0
0A868:  CALL   5C56
....................          SendDataDisplay(); 
0A86C:  CALL   41EE
....................          //printf("desfogue.txt=\"%u\"",CiclosPersonalizados[RX_Buffer[4]-1].NivelDesfogue); 
....................          printf("desfogue.txt=\"N/A\""); 
0A870:  MOVLW  38
0A872:  MOVWF  FF6
0A874:  MOVLW  10
0A876:  MOVWF  FF7
0A878:  MOVLW  00
0A87A:  MOVWF  FF8
0A87C:  CALL   41BC
....................          SendDataDisplay(); 
0A880:  CALL   41EE
....................          CicloLibre=RX_Buffer[4]; 
0A884:  MOVFF  35,251
....................       }else if(CicloLibre==0x00){ 
0A888:  BRA    AC00
0A88A:  MOVLB  2
0A88C:  MOVF   x51,F
0A88E:  BNZ   A922
....................          printf("ciclo.txt=\"CICLO P--\""); 
0A890:  MOVLW  4C
0A892:  MOVWF  FF6
0A894:  MOVLW  10
0A896:  MOVWF  FF7
0A898:  MOVLW  00
0A89A:  MOVWF  FF8
0A89C:  MOVLB  0
0A89E:  CALL   41BC
....................          SendDataDisplay();           
0A8A2:  CALL   41EE
....................          printf("temp.txt=\"--\""); 
0A8A6:  MOVLW  62
0A8A8:  MOVWF  FF6
0A8AA:  MOVLW  10
0A8AC:  MOVWF  FF7
0A8AE:  MOVLW  00
0A8B0:  MOVWF  FF8
0A8B2:  CALL   41BC
....................          SendDataDisplay(); 
0A8B6:  CALL   41EE
....................          printf("test.txt=\"--:--\""); 
0A8BA:  MOVLW  70
0A8BC:  MOVWF  FF6
0A8BE:  MOVLW  10
0A8C0:  MOVWF  FF7
0A8C2:  MOVLW  00
0A8C4:  MOVWF  FF8
0A8C6:  CALL   41BC
....................          SendDataDisplay(); 
0A8CA:  CALL   41EE
....................          printf("tsec.txt=\"--:--\""); 
0A8CE:  MOVLW  82
0A8D0:  MOVWF  FF6
0A8D2:  MOVLW  10
0A8D4:  MOVWF  FF7
0A8D6:  MOVLW  00
0A8D8:  MOVWF  FF8
0A8DA:  CALL   41BC
....................          SendDataDisplay(); 
0A8DE:  CALL   41EE
....................          printf("pulsos.txt=\"--\""); 
0A8E2:  MOVLW  94
0A8E4:  MOVWF  FF6
0A8E6:  MOVLW  10
0A8E8:  MOVWF  FF7
0A8EA:  MOVLW  00
0A8EC:  MOVWF  FF8
0A8EE:  CALL   41BC
....................          SendDataDisplay(); 
0A8F2:  CALL   41EE
....................          printf("vacio.txt=\"--\""); 
0A8F6:  MOVLW  A4
0A8F8:  MOVWF  FF6
0A8FA:  MOVLW  10
0A8FC:  MOVWF  FF7
0A8FE:  MOVLW  00
0A900:  MOVWF  FF8
0A902:  CALL   41BC
....................          SendDataDisplay(); 
0A906:  CALL   41EE
....................          printf("desfogue.txt=\"--\""); 
0A90A:  MOVLW  B4
0A90C:  MOVWF  FF6
0A90E:  MOVLW  10
0A910:  MOVWF  FF7
0A912:  MOVLW  00
0A914:  MOVWF  FF8
0A916:  CALL   41BC
....................          SendDataDisplay(); 
0A91A:  CALL   41EE
....................       }else if(CicloLibre>0 && CicloLibre<21 && estados[CicloLibre-1]){ 
0A91E:  BRA    AC00
0A920:  MOVLB  2
0A922:  MOVF   x51,F
0A924:  BTFSC  FD8.2
0A926:  BRA    AC02
0A928:  MOVF   x51,W
0A92A:  SUBLW  14
0A92C:  BTFSS  FD8.0
0A92E:  BRA    AC02
0A930:  MOVLW  01
0A932:  SUBWF  x51,W
0A934:  MOVLB  6
0A936:  MOVWF  xCB
0A938:  MOVLW  03
0A93A:  MOVWF  xCD
0A93C:  MOVLW  36
0A93E:  MOVWF  xCC
0A940:  MOVLB  0
0A942:  CALL   2582
0A946:  BTFSC  01.0
0A948:  BRA    A94E
0A94A:  MOVLB  2
0A94C:  BRA    AC02
....................          printf("ciclo.txt=\"CICLO P%02u\"",CicloLibre+0x0a); 
0A94E:  MOVLW  0A
0A950:  MOVLB  2
0A952:  ADDWF  x51,W
0A954:  MOVLB  6
0A956:  MOVWF  xCA
0A958:  MOVLW  C6
0A95A:  MOVWF  FF6
0A95C:  MOVLW  10
0A95E:  MOVWF  FF7
0A960:  MOVLW  00
0A962:  MOVWF  FF8
0A964:  MOVLW  12
0A966:  MOVWF  xCF
0A968:  MOVLB  0
0A96A:  CALL   5C56
0A96E:  MOVFF  6CA,6CF
0A972:  MOVLW  01
0A974:  MOVLB  6
0A976:  MOVWF  xD0
0A978:  MOVLB  0
0A97A:  CALL   5CDA
0A97E:  MOVLW  22
0A980:  BTFSS  F9E.4
0A982:  BRA    A980
0A984:  MOVWF  FAD
....................          SendDataDisplay();           
0A986:  CALL   41EE
....................          printf("temp.txt=\"%u\"",CiclosPersonalizados[CicloLibre-1].Temperatura); 
0A98A:  MOVLW  01
0A98C:  MOVLB  2
0A98E:  SUBWF  x51,W
0A990:  MULLW  08
0A992:  MOVF   FF3,W
0A994:  MOVLB  6
0A996:  CLRF   xCB
0A998:  MOVWF  xCA
0A99A:  MOVLW  02
0A99C:  ADDWF  xCA,W
0A99E:  MOVWF  FE9
0A9A0:  MOVLW  06
0A9A2:  ADDWFC xCB,W
0A9A4:  MOVWF  FEA
0A9A6:  MOVFF  FEF,6CA
0A9AA:  MOVLW  DE
0A9AC:  MOVWF  FF6
0A9AE:  MOVLW  10
0A9B0:  MOVWF  FF7
0A9B2:  MOVLW  00
0A9B4:  MOVWF  FF8
0A9B6:  MOVLW  0A
0A9B8:  MOVWF  xCF
0A9BA:  MOVLB  0
0A9BC:  CALL   5C56
0A9C0:  MOVFF  6CA,6CF
0A9C4:  MOVLW  1B
0A9C6:  MOVLB  6
0A9C8:  MOVWF  xD0
0A9CA:  MOVLB  0
0A9CC:  CALL   5CDA
0A9D0:  MOVLW  22
0A9D2:  BTFSS  F9E.4
0A9D4:  BRA    A9D2
0A9D6:  MOVWF  FAD
....................          SendDataDisplay(); 
0A9D8:  CALL   41EE
....................          printf("test.txt=\"%02u:%02u\"",CiclosPersonalizados[CicloLibre-1].Minutoest,CiclosPersonalizados[CicloLibre-1].Segundoest); 
0A9DC:  MOVLW  01
0A9DE:  MOVLB  2
0A9E0:  SUBWF  x51,W
0A9E2:  MULLW  08
0A9E4:  MOVF   FF3,W
0A9E6:  MOVLB  6
0A9E8:  CLRF   xCB
0A9EA:  MOVWF  xCA
0A9EC:  MOVLW  01
0A9EE:  ADDWF  xCA,W
0A9F0:  MOVWF  01
0A9F2:  MOVLW  00
0A9F4:  ADDWFC xCB,W
0A9F6:  MOVWF  03
0A9F8:  MOVF   01,W
0A9FA:  ADDLW  02
0A9FC:  MOVWF  FE9
0A9FE:  MOVLW  06
0AA00:  ADDWFC 03,W
0AA02:  MOVWF  FEA
0AA04:  MOVFF  FEF,6CA
0AA08:  MOVLW  01
0AA0A:  MOVLB  2
0AA0C:  SUBWF  x51,W
0AA0E:  MULLW  08
0AA10:  MOVF   FF3,W
0AA12:  MOVLB  6
0AA14:  CLRF   xCC
0AA16:  MOVWF  xCB
0AA18:  MOVLW  02
0AA1A:  ADDWF  xCB,W
0AA1C:  MOVWF  01
0AA1E:  MOVLW  00
0AA20:  ADDWFC xCC,W
0AA22:  MOVWF  03
0AA24:  MOVF   01,W
0AA26:  ADDLW  02
0AA28:  MOVWF  FE9
0AA2A:  MOVLW  06
0AA2C:  ADDWFC 03,W
0AA2E:  MOVWF  FEA
0AA30:  MOVFF  FEF,6CB
0AA34:  MOVLW  EC
0AA36:  MOVWF  FF6
0AA38:  MOVLW  10
0AA3A:  MOVWF  FF7
0AA3C:  MOVLW  00
0AA3E:  MOVWF  FF8
0AA40:  MOVLW  0A
0AA42:  MOVWF  xCF
0AA44:  MOVLB  0
0AA46:  CALL   5C56
0AA4A:  MOVFF  6CA,6CF
0AA4E:  MOVLW  01
0AA50:  MOVLB  6
0AA52:  MOVWF  xD0
0AA54:  MOVLB  0
0AA56:  CALL   5CDA
0AA5A:  MOVLW  3A
0AA5C:  BTFSS  F9E.4
0AA5E:  BRA    AA5C
0AA60:  MOVWF  FAD
0AA62:  MOVFF  6CB,6CF
0AA66:  MOVLW  01
0AA68:  MOVLB  6
0AA6A:  MOVWF  xD0
0AA6C:  MOVLB  0
0AA6E:  CALL   5CDA
0AA72:  MOVLW  22
0AA74:  BTFSS  F9E.4
0AA76:  BRA    AA74
0AA78:  MOVWF  FAD
....................          SendDataDisplay(); 
0AA7A:  CALL   41EE
....................          printf("tsec.txt=\"%02u:%02u\"",CiclosPersonalizados[CicloLibre-1].Minutosec,CiclosPersonalizados[CicloLibre-1].Segundosec); 
0AA7E:  MOVLW  01
0AA80:  MOVLB  2
0AA82:  SUBWF  x51,W
0AA84:  MULLW  08
0AA86:  MOVF   FF3,W
0AA88:  MOVLB  6
0AA8A:  CLRF   xCB
0AA8C:  MOVWF  xCA
0AA8E:  MOVLW  03
0AA90:  ADDWF  xCA,W
0AA92:  MOVWF  01
0AA94:  MOVLW  00
0AA96:  ADDWFC xCB,W
0AA98:  MOVWF  03
0AA9A:  MOVF   01,W
0AA9C:  ADDLW  02
0AA9E:  MOVWF  FE9
0AAA0:  MOVLW  06
0AAA2:  ADDWFC 03,W
0AAA4:  MOVWF  FEA
0AAA6:  MOVFF  FEF,6CA
0AAAA:  MOVLW  01
0AAAC:  MOVLB  2
0AAAE:  SUBWF  x51,W
0AAB0:  MULLW  08
0AAB2:  MOVF   FF3,W
0AAB4:  MOVLB  6
0AAB6:  CLRF   xCC
0AAB8:  MOVWF  xCB
0AABA:  MOVLW  04
0AABC:  ADDWF  xCB,W
0AABE:  MOVWF  01
0AAC0:  MOVLW  00
0AAC2:  ADDWFC xCC,W
0AAC4:  MOVWF  03
0AAC6:  MOVF   01,W
0AAC8:  ADDLW  02
0AACA:  MOVWF  FE9
0AACC:  MOVLW  06
0AACE:  ADDWFC 03,W
0AAD0:  MOVWF  FEA
0AAD2:  MOVFF  FEF,6CB
0AAD6:  MOVLW  02
0AAD8:  MOVWF  FF6
0AADA:  MOVLW  11
0AADC:  MOVWF  FF7
0AADE:  MOVLW  00
0AAE0:  MOVWF  FF8
0AAE2:  MOVLW  0A
0AAE4:  MOVWF  xCF
0AAE6:  MOVLB  0
0AAE8:  CALL   5C56
0AAEC:  MOVFF  6CA,6CF
0AAF0:  MOVLW  01
0AAF2:  MOVLB  6
0AAF4:  MOVWF  xD0
0AAF6:  MOVLB  0
0AAF8:  CALL   5CDA
0AAFC:  MOVLW  3A
0AAFE:  BTFSS  F9E.4
0AB00:  BRA    AAFE
0AB02:  MOVWF  FAD
0AB04:  MOVFF  6CB,6CF
0AB08:  MOVLW  01
0AB0A:  MOVLB  6
0AB0C:  MOVWF  xD0
0AB0E:  MOVLB  0
0AB10:  CALL   5CDA
0AB14:  MOVLW  22
0AB16:  BTFSS  F9E.4
0AB18:  BRA    AB16
0AB1A:  MOVWF  FAD
....................          SendDataDisplay(); 
0AB1C:  CALL   41EE
....................          printf("pulsos.txt=\"%02u\"",CiclosPersonalizados[CicloLibre-1].PulsosVacio); 
0AB20:  MOVLW  01
0AB22:  MOVLB  2
0AB24:  SUBWF  x51,W
0AB26:  MULLW  08
0AB28:  MOVF   FF3,W
0AB2A:  MOVLB  6
0AB2C:  CLRF   xCB
0AB2E:  MOVWF  xCA
0AB30:  MOVLW  05
0AB32:  ADDWF  xCA,W
0AB34:  MOVWF  01
0AB36:  MOVLW  00
0AB38:  ADDWFC xCB,W
0AB3A:  MOVWF  03
0AB3C:  MOVF   01,W
0AB3E:  ADDLW  02
0AB40:  MOVWF  FE9
0AB42:  MOVLW  06
0AB44:  ADDWFC 03,W
0AB46:  MOVWF  FEA
0AB48:  MOVFF  FEF,6CA
0AB4C:  MOVLW  18
0AB4E:  MOVWF  FF6
0AB50:  MOVLW  11
0AB52:  MOVWF  FF7
0AB54:  MOVLW  00
0AB56:  MOVWF  FF8
0AB58:  MOVLW  0C
0AB5A:  MOVWF  xCF
0AB5C:  MOVLB  0
0AB5E:  CALL   5C56
0AB62:  MOVFF  6CA,6CF
0AB66:  MOVLW  01
0AB68:  MOVLB  6
0AB6A:  MOVWF  xD0
0AB6C:  MOVLB  0
0AB6E:  CALL   5CDA
0AB72:  MOVLW  22
0AB74:  BTFSS  F9E.4
0AB76:  BRA    AB74
0AB78:  MOVWF  FAD
....................          SendDataDisplay(); 
0AB7A:  CALL   41EE
....................          printf("vacio.txt=\"%03u kPa\"",CiclosPersonalizados[CicloLibre-1].NivelVacio); 
0AB7E:  MOVLW  01
0AB80:  MOVLB  2
0AB82:  SUBWF  x51,W
0AB84:  MULLW  08
0AB86:  MOVF   FF3,W
0AB88:  MOVLB  6
0AB8A:  CLRF   xCB
0AB8C:  MOVWF  xCA
0AB8E:  MOVLW  06
0AB90:  ADDWF  xCA,W
0AB92:  MOVWF  01
0AB94:  MOVLW  00
0AB96:  ADDWFC xCB,W
0AB98:  MOVWF  03
0AB9A:  MOVF   01,W
0AB9C:  ADDLW  02
0AB9E:  MOVWF  FE9
0ABA0:  MOVLW  06
0ABA2:  ADDWFC 03,W
0ABA4:  MOVWF  FEA
0ABA6:  MOVFF  FEF,6CA
0ABAA:  MOVLW  2A
0ABAC:  MOVWF  FF6
0ABAE:  MOVLW  11
0ABB0:  MOVWF  FF7
0ABB2:  MOVLW  00
0ABB4:  MOVWF  FF8
0ABB6:  MOVLW  0B
0ABB8:  MOVWF  xCF
0ABBA:  MOVLB  0
0ABBC:  CALL   5C56
0ABC0:  MOVFF  6CA,6CF
0ABC4:  MOVLW  03
0ABC6:  MOVLB  6
0ABC8:  MOVWF  xD0
0ABCA:  MOVLB  0
0ABCC:  CALL   5CDA
0ABD0:  MOVLW  39
0ABD2:  MOVWF  FF6
0ABD4:  MOVLW  11
0ABD6:  MOVWF  FF7
0ABD8:  MOVLW  00
0ABDA:  MOVWF  FF8
0ABDC:  MOVLW  05
0ABDE:  MOVLB  6
0ABE0:  MOVWF  xCF
0ABE2:  MOVLB  0
0ABE4:  CALL   5C56
....................          SendDataDisplay(); 
0ABE8:  CALL   41EE
....................          //printf("desfogue.txt=\"%u\"",CiclosPersonalizados[CicloLibre-1].NivelDesfogue); 
....................          printf("desfogue.txt=\"N/A\""); 
0ABEC:  MOVLW  40
0ABEE:  MOVWF  FF6
0ABF0:  MOVLW  11
0ABF2:  MOVWF  FF7
0ABF4:  MOVLW  00
0ABF6:  MOVWF  FF8
0ABF8:  CALL   41BC
....................          SendDataDisplay(); 
0ABFC:  CALL   41EE
0AC00:  MOVLB  2
....................       } 
....................        
....................       if(RX_Buffer[4]==0xa0){//a0, Menu Principal 
0AC02:  MOVF   35,W
0AC04:  SUBLW  A0
0AC06:  BNZ   AC20
....................          printf("page Menu"); 
0AC08:  MOVLW  54
0AC0A:  MOVWF  FF6
0AC0C:  MOVLW  11
0AC0E:  MOVWF  FF7
0AC10:  MOVLW  00
0AC12:  MOVWF  FF8
0AC14:  MOVLB  0
0AC16:  CALL   41BC
....................          SendDataDisplay();      
0AC1A:  CALL   41EE
0AC1E:  MOVLB  2
....................       } 
....................        
....................       if(RX_Buffer[4]==0xb0){//b0, Personalizados 
0AC20:  MOVF   35,W
0AC22:  SUBLW  B0
0AC24:  BNZ   AC3E
....................          printf("page CicloPersona"); 
0AC26:  MOVLW  5E
0AC28:  MOVWF  FF6
0AC2A:  MOVLW  11
0AC2C:  MOVWF  FF7
0AC2E:  MOVLW  00
0AC30:  MOVWF  FF8
0AC32:  MOVLB  0
0AC34:  CALL   41BC
....................          SendDataDisplay();      
0AC38:  CALL   41EE
0AC3C:  MOVLB  2
....................       } 
....................        
....................       if(RX_Buffer[4]==0xc0){//c0, Configuraciones 
0AC3E:  MOVF   35,W
0AC40:  SUBLW  C0
0AC42:  BNZ   AC66
....................          if(codigoUsuario==0 || codigoUsuario==9){   
0AC44:  MOVF   xCA,F
0AC46:  BZ    AC4E
0AC48:  MOVF   xCA,W
0AC4A:  SUBLW  09
0AC4C:  BNZ   AC66
....................             printf("page Ajustes"); 
0AC4E:  MOVLW  70
0AC50:  MOVWF  FF6
0AC52:  MOVLW  11
0AC54:  MOVWF  FF7
0AC56:  MOVLW  00
0AC58:  MOVWF  FF8
0AC5A:  MOVLB  0
0AC5C:  CALL   41BC
....................             SendDataDisplay();      
0AC60:  CALL   41EE
0AC64:  MOVLB  2
....................          } 
....................       } 
....................        
....................       if(RX_Buffer[4]==0x20 && CicloLibre>0){//20, Temperatura 
0AC66:  MOVF   35,W
0AC68:  SUBLW  20
0AC6A:  BNZ   ACB2
0AC6C:  MOVF   x51,F
0AC6E:  BZ    ACB2
....................          if(codigoUsuario==0 || codigoUsuario==9){   
0AC70:  MOVF   xCA,F
0AC72:  BZ    AC7A
0AC74:  MOVF   xCA,W
0AC76:  SUBLW  09
0AC78:  BNZ   ACB2
....................             printf("page Temperatura"); 
0AC7A:  MOVLW  7E
0AC7C:  MOVWF  FF6
0AC7E:  MOVLW  11
0AC80:  MOVWF  FF7
0AC82:  MOVLW  00
0AC84:  MOVWF  FF8
0AC86:  MOVLB  0
0AC88:  CALL   41BC
....................             SendDataDisplay();      
0AC8C:  CALL   41EE
....................             Setpoint=CiclosPersonalizados[CicloLibre-1].Temperatura; 
0AC90:  MOVLW  01
0AC92:  MOVLB  2
0AC94:  SUBWF  x51,W
0AC96:  MULLW  08
0AC98:  MOVF   FF3,W
0AC9A:  MOVLB  6
0AC9C:  CLRF   xCB
0AC9E:  MOVWF  xCA
0ACA0:  MOVLW  02
0ACA2:  ADDWF  xCA,W
0ACA4:  MOVWF  FE9
0ACA6:  MOVLW  06
0ACA8:  ADDWFC xCB,W
0ACAA:  MOVWF  FEA
0ACAC:  MOVFF  FEF,280
0ACB0:  MOVLB  2
....................          } 
....................       } 
....................        
....................       if(RX_Buffer[4]==0x30 && CicloLibre>0){//30, Test 
0ACB2:  MOVF   35,W
0ACB4:  SUBLW  30
0ACB6:  BNZ   AD3A
0ACB8:  MOVF   x51,F
0ACBA:  BZ    AD3A
....................          if(codigoUsuario==0 || codigoUsuario==9){   
0ACBC:  MOVF   xCA,F
0ACBE:  BZ    ACC6
0ACC0:  MOVF   xCA,W
0ACC2:  SUBLW  09
0ACC4:  BNZ   AD3A
....................             printf("page TiempoEst"); 
0ACC6:  MOVLW  90
0ACC8:  MOVWF  FF6
0ACCA:  MOVLW  11
0ACCC:  MOVWF  FF7
0ACCE:  MOVLW  00
0ACD0:  MOVWF  FF8
0ACD2:  MOVLB  0
0ACD4:  CALL   41BC
....................             SendDataDisplay();      
0ACD8:  CALL   41EE
....................             mEstp=CiclosPersonalizados[CicloLibre-1].Minutoest; 
0ACDC:  MOVLW  01
0ACDE:  MOVLB  2
0ACE0:  SUBWF  x51,W
0ACE2:  MULLW  08
0ACE4:  MOVF   FF3,W
0ACE6:  MOVLB  6
0ACE8:  CLRF   xCB
0ACEA:  MOVWF  xCA
0ACEC:  MOVLW  01
0ACEE:  ADDWF  xCA,W
0ACF0:  MOVWF  01
0ACF2:  MOVLW  00
0ACF4:  ADDWFC xCB,W
0ACF6:  MOVWF  03
0ACF8:  MOVF   01,W
0ACFA:  ADDLW  02
0ACFC:  MOVWF  FE9
0ACFE:  MOVLW  06
0AD00:  ADDWFC 03,W
0AD02:  MOVWF  FEA
0AD04:  MOVFF  FEF,126
0AD08:  MOVLB  1
....................             sEstp=CiclosPersonalizados[CicloLibre-1].Segundoest; 
0AD0A:  MOVLW  01
0AD0C:  MOVLB  2
0AD0E:  SUBWF  x51,W
0AD10:  MULLW  08
0AD12:  MOVF   FF3,W
0AD14:  MOVLB  6
0AD16:  CLRF   xCB
0AD18:  MOVWF  xCA
0AD1A:  MOVLW  02
0AD1C:  ADDWF  xCA,W
0AD1E:  MOVWF  01
0AD20:  MOVLW  00
0AD22:  ADDWFC xCB,W
0AD24:  MOVWF  03
0AD26:  MOVF   01,W
0AD28:  ADDLW  02
0AD2A:  MOVWF  FE9
0AD2C:  MOVLW  06
0AD2E:  ADDWFC 03,W
0AD30:  MOVWF  FEA
0AD32:  MOVFF  FEF,125
0AD36:  MOVLB  1
0AD38:  MOVLB  2
....................          } 
....................       } 
....................        
....................       if(RX_Buffer[4]==0x40 && CicloLibre>0){//40, Tsec 
0AD3A:  MOVF   35,W
0AD3C:  SUBLW  40
0AD3E:  BNZ   ADC2
0AD40:  MOVF   x51,F
0AD42:  BZ    ADC2
....................          if(codigoUsuario==0 || codigoUsuario==9){   
0AD44:  MOVF   xCA,F
0AD46:  BZ    AD4E
0AD48:  MOVF   xCA,W
0AD4A:  SUBLW  09
0AD4C:  BNZ   ADC2
....................             printf("page TiempoSec"); 
0AD4E:  MOVLW  A0
0AD50:  MOVWF  FF6
0AD52:  MOVLW  11
0AD54:  MOVWF  FF7
0AD56:  MOVLW  00
0AD58:  MOVWF  FF8
0AD5A:  MOVLB  0
0AD5C:  CALL   41BC
....................             SendDataDisplay();    
0AD60:  CALL   41EE
....................             mSecp=CiclosPersonalizados[CicloLibre-1].Minutosec; 
0AD64:  MOVLW  01
0AD66:  MOVLB  2
0AD68:  SUBWF  x51,W
0AD6A:  MULLW  08
0AD6C:  MOVF   FF3,W
0AD6E:  MOVLB  6
0AD70:  CLRF   xCB
0AD72:  MOVWF  xCA
0AD74:  MOVLW  03
0AD76:  ADDWF  xCA,W
0AD78:  MOVWF  01
0AD7A:  MOVLW  00
0AD7C:  ADDWFC xCB,W
0AD7E:  MOVWF  03
0AD80:  MOVF   01,W
0AD82:  ADDLW  02
0AD84:  MOVWF  FE9
0AD86:  MOVLW  06
0AD88:  ADDWFC 03,W
0AD8A:  MOVWF  FEA
0AD8C:  MOVFF  FEF,128
0AD90:  MOVLB  1
....................             sSecp=CiclosPersonalizados[CicloLibre-1].Segundosec; 
0AD92:  MOVLW  01
0AD94:  MOVLB  2
0AD96:  SUBWF  x51,W
0AD98:  MULLW  08
0AD9A:  MOVF   FF3,W
0AD9C:  MOVLB  6
0AD9E:  CLRF   xCB
0ADA0:  MOVWF  xCA
0ADA2:  MOVLW  04
0ADA4:  ADDWF  xCA,W
0ADA6:  MOVWF  01
0ADA8:  MOVLW  00
0ADAA:  ADDWFC xCB,W
0ADAC:  MOVWF  03
0ADAE:  MOVF   01,W
0ADB0:  ADDLW  02
0ADB2:  MOVWF  FE9
0ADB4:  MOVLW  06
0ADB6:  ADDWFC 03,W
0ADB8:  MOVWF  FEA
0ADBA:  MOVFF  FEF,127
0ADBE:  MOVLB  1
0ADC0:  MOVLB  2
....................          } 
....................       } 
....................        
....................       if(RX_Buffer[4]==0x50 && CicloLibre>0){//50, PulsosVacio 
0ADC2:  MOVF   35,W
0ADC4:  SUBLW  50
0ADC6:  BNZ   AE1A
0ADC8:  MOVF   x51,F
0ADCA:  BZ    AE1A
....................          if(codigoUsuario==0 || codigoUsuario==9){   
0ADCC:  MOVF   xCA,F
0ADCE:  BZ    ADD6
0ADD0:  MOVF   xCA,W
0ADD2:  SUBLW  09
0ADD4:  BNZ   AE1A
....................             printf("page Pulsos"); 
0ADD6:  MOVLW  B0
0ADD8:  MOVWF  FF6
0ADDA:  MOVLW  11
0ADDC:  MOVWF  FF7
0ADDE:  MOVLW  00
0ADE0:  MOVWF  FF8
0ADE2:  MOVLB  0
0ADE4:  CALL   41BC
....................             SendDataDisplay();      
0ADE8:  CALL   41EE
....................             Pulsos=CiclosPersonalizados[CicloLibre-1].PulsosVacio; 
0ADEC:  MOVLW  01
0ADEE:  MOVLB  2
0ADF0:  SUBWF  x51,W
0ADF2:  MULLW  08
0ADF4:  MOVF   FF3,W
0ADF6:  MOVLB  6
0ADF8:  CLRF   xCB
0ADFA:  MOVWF  xCA
0ADFC:  MOVLW  05
0ADFE:  ADDWF  xCA,W
0AE00:  MOVWF  01
0AE02:  MOVLW  00
0AE04:  ADDWFC xCB,W
0AE06:  MOVWF  03
0AE08:  MOVF   01,W
0AE0A:  ADDLW  02
0AE0C:  MOVWF  FE9
0AE0E:  MOVLW  06
0AE10:  ADDWFC 03,W
0AE12:  MOVWF  FEA
0AE14:  MOVFF  FEF,2C8
0AE18:  MOVLB  2
....................          } 
....................       } 
....................        
....................       if(RX_Buffer[4]==0x60 && CicloLibre>0){//60, NivelVacio 
0AE1A:  MOVF   35,W
0AE1C:  SUBLW  60
0AE1E:  BNZ   AE78
0AE20:  MOVF   x51,F
0AE22:  BZ    AE78
....................          if(codigoUsuario==0 || codigoUsuario==9){   
0AE24:  MOVF   xCA,F
0AE26:  BZ    AE2E
0AE28:  MOVF   xCA,W
0AE2A:  SUBLW  09
0AE2C:  BNZ   AE78
....................             printf("page Nivel"); 
0AE2E:  MOVLW  BC
0AE30:  MOVWF  FF6
0AE32:  MOVLW  11
0AE34:  MOVWF  FF7
0AE36:  MOVLW  00
0AE38:  MOVWF  FF8
0AE3A:  MOVLB  0
0AE3C:  CALL   41BC
....................             SendDataDisplay();      
0AE40:  CALL   41EE
....................             Nivel=CiclosPersonalizados[CicloLibre-1].NivelVacio; 
0AE44:  MOVLW  01
0AE46:  MOVLB  2
0AE48:  SUBWF  x51,W
0AE4A:  MULLW  08
0AE4C:  MOVF   FF3,W
0AE4E:  MOVLB  6
0AE50:  CLRF   xCB
0AE52:  MOVWF  xCA
0AE54:  MOVLW  06
0AE56:  ADDWF  xCA,W
0AE58:  MOVWF  01
0AE5A:  MOVLW  00
0AE5C:  ADDWFC xCB,W
0AE5E:  MOVWF  03
0AE60:  MOVF   01,W
0AE62:  ADDLW  02
0AE64:  MOVWF  FE9
0AE66:  MOVLW  06
0AE68:  ADDWFC 03,W
0AE6A:  MOVWF  FEA
0AE6C:  MOVF   FEF,W
0AE6E:  CLRF   03
0AE70:  MOVLB  2
0AE72:  MOVWF  x8D
0AE74:  MOVFF  03,28E
....................          } 
....................       } 
....................        
....................       if(RX_Buffer[4]==0x80 && CicloLibre>0){//80, NivelDesfogue 
0AE78:  MOVF   35,W
0AE7A:  SUBLW  80
0AE7C:  BNZ   AE82
0AE7E:  MOVF   x51,F
0AE80:  BZ    AE82
....................          //printf("page NivelDes"); 
....................          //SendDataDisplay();      
....................          //NivelDes=CiclosPersonalizados[CicloLibre-1].NivelDesfogue; 
....................       } 
....................        
....................       if(RX_Buffer[4]==0x70 && CicloLibre>0){//70, Iniciar Ciclo 
0AE82:  MOVF   35,W
0AE84:  SUBLW  70
0AE86:  BTFSS  FD8.2
0AE88:  BRA    B06C
0AE8A:  MOVF   x51,F
0AE8C:  BTFSC  FD8.2
0AE8E:  BRA    B06C
....................          printf("page Funcionamiento"); 
0AE90:  MOVLW  C8
0AE92:  MOVWF  FF6
0AE94:  MOVLW  11
0AE96:  MOVWF  FF7
0AE98:  MOVLW  00
0AE9A:  MOVWF  FF8
0AE9C:  MOVLB  0
0AE9E:  CALL   41BC
....................          SendDataDisplay();        
0AEA2:  CALL   41EE
....................          Libre=ON; 
0AEA6:  MOVLB  1
0AEA8:  BSF    x07.4
....................          ConfiguraCiclo(CiclosPersonalizados[CicloLibre-1].Segundoest,CiclosPersonalizados[CicloLibre-1].Minutoest, 
....................          CiclosPersonalizados[CicloLibre-1].Segundosec,CiclosPersonalizados[CicloLibre-1].MinutoSec,0,CicloLibre+10, 
....................          CiclosPersonalizados[CicloLibre-1].Temperatura,CiclosPersonalizados[CicloLibre-1].PulsosVacio,CiclosPersonalizados[CicloLibre-1].NivelVacio 
....................          ,0); 
0AEAA:  MOVLW  01
0AEAC:  MOVLB  2
0AEAE:  SUBWF  x51,W
0AEB0:  MULLW  08
0AEB2:  MOVF   FF3,W
0AEB4:  MOVLB  6
0AEB6:  CLRF   xCB
0AEB8:  MOVWF  xCA
0AEBA:  MOVLW  02
0AEBC:  ADDWF  xCA,W
0AEBE:  MOVWF  01
0AEC0:  MOVLW  00
0AEC2:  ADDWFC xCB,W
0AEC4:  MOVWF  03
0AEC6:  MOVF   01,W
0AEC8:  ADDLW  02
0AECA:  MOVWF  FE9
0AECC:  MOVLW  06
0AECE:  ADDWFC 03,W
0AED0:  MOVWF  FEA
0AED2:  MOVFF  FEF,6CA
0AED6:  MOVLW  01
0AED8:  MOVLB  2
0AEDA:  SUBWF  x51,W
0AEDC:  MULLW  08
0AEDE:  MOVF   FF3,W
0AEE0:  MOVLB  6
0AEE2:  CLRF   xCC
0AEE4:  MOVWF  xCB
0AEE6:  MOVLW  01
0AEE8:  ADDWF  xCB,W
0AEEA:  MOVWF  01
0AEEC:  MOVLW  00
0AEEE:  ADDWFC xCC,W
0AEF0:  MOVWF  03
0AEF2:  MOVF   01,W
0AEF4:  ADDLW  02
0AEF6:  MOVWF  FE9
0AEF8:  MOVLW  06
0AEFA:  ADDWFC 03,W
0AEFC:  MOVWF  FEA
0AEFE:  MOVFF  FEF,6CB
0AF02:  MOVLW  01
0AF04:  MOVLB  2
0AF06:  SUBWF  x51,W
0AF08:  MULLW  08
0AF0A:  MOVF   FF3,W
0AF0C:  MOVLB  6
0AF0E:  CLRF   xCD
0AF10:  MOVWF  xCC
0AF12:  MOVLW  04
0AF14:  ADDWF  xCC,W
0AF16:  MOVWF  01
0AF18:  MOVLW  00
0AF1A:  ADDWFC xCD,W
0AF1C:  MOVWF  03
0AF1E:  MOVF   01,W
0AF20:  ADDLW  02
0AF22:  MOVWF  FE9
0AF24:  MOVLW  06
0AF26:  ADDWFC 03,W
0AF28:  MOVWF  FEA
0AF2A:  MOVFF  FEF,6CC
0AF2E:  MOVLW  01
0AF30:  MOVLB  2
0AF32:  SUBWF  x51,W
0AF34:  MULLW  08
0AF36:  MOVF   FF3,W
0AF38:  MOVLB  6
0AF3A:  CLRF   xCE
0AF3C:  MOVWF  xCD
0AF3E:  MOVLW  03
0AF40:  ADDWF  xCD,W
0AF42:  MOVWF  01
0AF44:  MOVLW  00
0AF46:  ADDWFC xCE,W
0AF48:  MOVWF  03
0AF4A:  MOVF   01,W
0AF4C:  ADDLW  02
0AF4E:  MOVWF  FE9
0AF50:  MOVLW  06
0AF52:  ADDWFC 03,W
0AF54:  MOVWF  FEA
0AF56:  MOVFF  FEF,6CD
0AF5A:  MOVLW  0A
0AF5C:  MOVLB  2
0AF5E:  ADDWF  x51,W
0AF60:  MOVLB  6
0AF62:  MOVWF  xCE
0AF64:  MOVLW  01
0AF66:  MOVLB  2
0AF68:  SUBWF  x51,W
0AF6A:  MULLW  08
0AF6C:  MOVF   FF3,W
0AF6E:  MOVLB  6
0AF70:  CLRF   xD0
0AF72:  MOVWF  xCF
0AF74:  MOVLW  02
0AF76:  ADDWF  xCF,W
0AF78:  MOVWF  FE9
0AF7A:  MOVLW  06
0AF7C:  ADDWFC xD0,W
0AF7E:  MOVWF  FEA
0AF80:  MOVFF  FEF,6CF
0AF84:  MOVLW  01
0AF86:  MOVLB  2
0AF88:  SUBWF  x51,W
0AF8A:  MULLW  08
0AF8C:  MOVF   FF3,W
0AF8E:  MOVLB  6
0AF90:  CLRF   xD1
0AF92:  MOVWF  xD0
0AF94:  MOVLW  05
0AF96:  ADDWF  xD0,W
0AF98:  MOVWF  01
0AF9A:  MOVLW  00
0AF9C:  ADDWFC xD1,W
0AF9E:  MOVWF  03
0AFA0:  MOVF   01,W
0AFA2:  ADDLW  02
0AFA4:  MOVWF  FE9
0AFA6:  MOVLW  06
0AFA8:  ADDWFC 03,W
0AFAA:  MOVWF  FEA
0AFAC:  MOVFF  FEF,6D0
0AFB0:  MOVLW  01
0AFB2:  MOVLB  2
0AFB4:  SUBWF  x51,W
0AFB6:  MULLW  08
0AFB8:  MOVF   FF3,W
0AFBA:  MOVLB  6
0AFBC:  CLRF   xD2
0AFBE:  MOVWF  xD1
0AFC0:  MOVLW  06
0AFC2:  ADDWF  xD1,W
0AFC4:  MOVWF  01
0AFC6:  MOVLW  00
0AFC8:  ADDWFC xD2,W
0AFCA:  MOVWF  03
0AFCC:  MOVF   01,W
0AFCE:  ADDLW  02
0AFD0:  MOVWF  FE9
0AFD2:  MOVLW  06
0AFD4:  ADDWFC 03,W
0AFD6:  MOVWF  FEA
0AFD8:  MOVFF  FEF,6D1
0AFDC:  MOVFF  6CA,6D2
0AFE0:  MOVFF  6CB,6D3
0AFE4:  MOVFF  6CC,6D4
0AFE8:  MOVFF  6CD,6D5
0AFEC:  CLRF   xD6
0AFEE:  MOVFF  6CE,6D7
0AFF2:  MOVFF  6CF,6D8
0AFF6:  MOVFF  6D0,6D9
0AFFA:  MOVFF  6D1,6DA
0AFFE:  CLRF   xDB
0B000:  MOVLB  0
0B002:  CALL   5D58
....................          NivelVacio=CiclosPersonalizados[CicloLibre-1].NivelVacio; 
0B006:  MOVLW  01
0B008:  MOVLB  2
0B00A:  SUBWF  x51,W
0B00C:  MULLW  08
0B00E:  MOVF   FF3,W
0B010:  MOVLB  6
0B012:  CLRF   xCB
0B014:  MOVWF  xCA
0B016:  MOVLW  06
0B018:  ADDWF  xCA,W
0B01A:  MOVWF  01
0B01C:  MOVLW  00
0B01E:  ADDWFC xCB,W
0B020:  MOVWF  03
0B022:  MOVF   01,W
0B024:  ADDLW  02
0B026:  MOVWF  FE9
0B028:  MOVLW  06
0B02A:  ADDWFC 03,W
0B02C:  MOVWF  FEA
0B02E:  MOVFF  FEF,2BC
0B032:  MOVLB  2
....................          CantidadPulsos=CiclosPersonalizados[CicloLibre-1].PulsosVacio; 
0B034:  MOVLW  01
0B036:  SUBWF  x51,W
0B038:  MULLW  08
0B03A:  MOVF   FF3,W
0B03C:  MOVLB  6
0B03E:  CLRF   xCB
0B040:  MOVWF  xCA
0B042:  MOVLW  05
0B044:  ADDWF  xCA,W
0B046:  MOVWF  01
0B048:  MOVLW  00
0B04A:  ADDWFC xCB,W
0B04C:  MOVWF  03
0B04E:  MOVF   01,W
0B050:  ADDLW  02
0B052:  MOVWF  FE9
0B054:  MOVLW  06
0B056:  ADDWFC 03,W
0B058:  MOVWF  FEA
0B05A:  MOVF   FEF,W
0B05C:  CLRF   03
0B05E:  MOVLB  2
0B060:  MOVWF  x78
0B062:  MOVFF  03,279
....................          Fugas=OFF; 
0B066:  MOVLB  1
0B068:  BCF    x07.6
0B06A:  MOVLB  2
....................       } 
....................    }else if(Menu==9){//Menu de Pulsos de Vacio 
0B06C:  GOTO   F4DC
0B070:  MOVF   x70,W
0B072:  SUBLW  09
0B074:  BTFSS  FD8.2
0B076:  BRA    B250
....................       printf("fecha.txt=\"Fecha:%02u/%02u/20%02u Hora: %02u:%02u:%02u\"",Dia,Mes,Year,Hora,Minuto,Segundo); 
0B078:  MOVLW  DC
0B07A:  MOVWF  FF6
0B07C:  MOVLW  11
0B07E:  MOVWF  FF7
0B080:  MOVLW  00
0B082:  MOVWF  FF8
0B084:  MOVLW  11
0B086:  MOVLB  6
0B088:  MOVWF  xCF
0B08A:  MOVLB  0
0B08C:  CALL   5C56
0B090:  MOVFF  2B5,6CF
0B094:  MOVLW  01
0B096:  MOVLB  6
0B098:  MOVWF  xD0
0B09A:  MOVLB  0
0B09C:  CALL   5CDA
0B0A0:  MOVLW  2F
0B0A2:  BTFSS  F9E.4
0B0A4:  BRA    B0A2
0B0A6:  MOVWF  FAD
0B0A8:  MOVFF  2B4,6CF
0B0AC:  MOVLW  01
0B0AE:  MOVLB  6
0B0B0:  MOVWF  xD0
0B0B2:  MOVLB  0
0B0B4:  CALL   5CDA
0B0B8:  MOVLW  2F
0B0BA:  BTFSS  F9E.4
0B0BC:  BRA    B0BA
0B0BE:  MOVWF  FAD
0B0C0:  MOVLW  32
0B0C2:  BTFSS  F9E.4
0B0C4:  BRA    B0C2
0B0C6:  MOVWF  FAD
0B0C8:  MOVLW  30
0B0CA:  BTFSS  F9E.4
0B0CC:  BRA    B0CA
0B0CE:  MOVWF  FAD
0B0D0:  MOVFF  2B3,6CF
0B0D4:  MOVLW  01
0B0D6:  MOVLB  6
0B0D8:  MOVWF  xD0
0B0DA:  MOVLB  0
0B0DC:  CALL   5CDA
0B0E0:  MOVLW  FD
0B0E2:  MOVWF  FF6
0B0E4:  MOVLW  11
0B0E6:  MOVWF  FF7
0B0E8:  MOVLW  00
0B0EA:  MOVWF  FF8
0B0EC:  MOVLW  07
0B0EE:  MOVLB  6
0B0F0:  MOVWF  xCF
0B0F2:  MOVLB  0
0B0F4:  CALL   5C56
0B0F8:  MOVFF  2B6,6CF
0B0FC:  MOVLW  01
0B0FE:  MOVLB  6
0B100:  MOVWF  xD0
0B102:  MOVLB  0
0B104:  CALL   5CDA
0B108:  MOVLW  3A
0B10A:  BTFSS  F9E.4
0B10C:  BRA    B10A
0B10E:  MOVWF  FAD
0B110:  MOVFF  2B7,6CF
0B114:  MOVLW  01
0B116:  MOVLB  6
0B118:  MOVWF  xD0
0B11A:  MOVLB  0
0B11C:  CALL   5CDA
0B120:  MOVLW  3A
0B122:  BTFSS  F9E.4
0B124:  BRA    B122
0B126:  MOVWF  FAD
0B128:  MOVFF  2B8,6CF
0B12C:  MOVLW  01
0B12E:  MOVLB  6
0B130:  MOVWF  xD0
0B132:  MOVLB  0
0B134:  CALL   5CDA
0B138:  MOVLW  22
0B13A:  BTFSS  F9E.4
0B13C:  BRA    B13A
0B13E:  MOVWF  FAD
....................       SendDataDisplay(); 
0B140:  CALL   41EE
....................          if(Pulsos<4) 
0B144:  MOVLB  2
0B146:  MOVF   xC8,W
0B148:  SUBLW  03
0B14A:  BNC   B150
....................             Pulsos=15; 
0B14C:  MOVLW  0F
0B14E:  MOVWF  xC8
....................          if(Pulsos>15) 
0B150:  MOVF   xC8,W
0B152:  SUBLW  0F
0B154:  BC    B15A
....................             Pulsos=4; 
0B156:  MOVLW  04
0B158:  MOVWF  xC8
....................           
....................          if(RX_Buffer[4]==0x11){//Selecciono Regresar 
0B15A:  MOVF   35,W
0B15C:  SUBLW  11
0B15E:  BNZ   B1FE
....................             Segundos=OFF; 
0B160:  MOVLB  1
0B162:  BCF    x06.0
....................             Minutos=OFF;             
0B164:  BCF    x05.7
....................             printf("page CicloPersona"); 
0B166:  MOVLW  14
0B168:  MOVWF  FF6
0B16A:  MOVLW  12
0B16C:  MOVWF  FF7
0B16E:  MOVLW  00
0B170:  MOVWF  FF8
0B172:  MOVLB  0
0B174:  CALL   41BC
....................             SendDataDisplay();   
0B178:  CALL   41EE
....................             if(!GuardaEEPROM){     
0B17C:  MOVLB  1
0B17E:  BTFSC  x06.1
0B180:  BRA    B1FC
....................                CiclosPersonalizados[CicloLibre-1].PulsosVacio=Pulsos; 
0B182:  MOVLW  01
0B184:  MOVLB  2
0B186:  SUBWF  x51,W
0B188:  MULLW  08
0B18A:  MOVF   FF3,W
0B18C:  MOVLB  6
0B18E:  CLRF   xCB
0B190:  MOVWF  xCA
0B192:  MOVLW  05
0B194:  ADDWF  xCA,W
0B196:  MOVWF  01
0B198:  MOVLW  00
0B19A:  ADDWFC xCB,W
0B19C:  MOVWF  03
0B19E:  MOVF   01,W
0B1A0:  ADDLW  02
0B1A2:  MOVWF  FE9
0B1A4:  MOVLW  06
0B1A6:  ADDWFC 03,W
0B1A8:  MOVWF  FEA
0B1AA:  MOVFF  2C8,FEF
....................                write_eeprom(105+((CicloLibre-1)*8),Pulsos); 
0B1AE:  MOVLW  01
0B1B0:  MOVLB  2
0B1B2:  SUBWF  x51,W
0B1B4:  MULLW  08
0B1B6:  MOVF   FF3,W
0B1B8:  ADDLW  69
0B1BA:  MOVLB  6
0B1BC:  MOVWF  xCA
0B1BE:  CLRF   FAA
0B1C0:  MOVFF  6CA,FA9
0B1C4:  MOVFF  2C8,FA8
0B1C8:  BCF    FA6.6
0B1CA:  BCF    FA6.7
0B1CC:  BSF    FA6.2
0B1CE:  MOVF   FF2,W
0B1D0:  MOVWF  00
0B1D2:  BCF    FF2.6
0B1D4:  BCF    FF2.7
0B1D6:  MOVLB  F
0B1D8:  MOVLW  55
0B1DA:  MOVWF  FA7
0B1DC:  MOVLW  AA
0B1DE:  MOVWF  FA7
0B1E0:  BSF    FA6.1
0B1E2:  BTFSC  FA6.1
0B1E4:  BRA    B1E2
0B1E6:  BCF    FA6.2
0B1E8:  MOVF   00,W
0B1EA:  IORWF  FF2,F
....................                delay_ms(20);             
0B1EC:  MOVLW  14
0B1EE:  MOVLB  6
0B1F0:  MOVWF  xDC
0B1F2:  MOVLB  0
0B1F4:  CALL   2142
....................                //NivelSeleccionado=9990*Nivel; 
....................                GuardaEEPROM=ON; 
0B1F8:  MOVLB  1
0B1FA:  BSF    x06.1
0B1FC:  MOVLB  2
....................             } 
....................          } 
....................           
....................          if(RX_Buffer[4]==0x0d){//Tecla Arriba Oprimida 
0B1FE:  MOVF   35,W
0B200:  SUBLW  0D
0B202:  BNZ   B20A
....................             Pulsos++; 
0B204:  INCF   xC8,F
....................             RX_Buffer[4]=0x00;             
0B206:  CLRF   35
....................             RX_Buffer2[4]=0x00;             
0B208:  CLRF   40
....................             //BorraBuffer(); 
....................          } 
....................           
....................          if(RX_Buffer[4]==0x0c){//Tecla Abajo Oprimida 
0B20A:  MOVF   35,W
0B20C:  SUBLW  0C
0B20E:  BNZ   B216
....................             Pulsos--; 
0B210:  DECF   xC8,F
....................             RX_Buffer[4]=0x00; 
0B212:  CLRF   35
....................             RX_Buffer2[4]=0x00;             
0B214:  CLRF   40
....................             //BorraBuffer(); 
....................          } 
....................           
....................       printf("tnivel.txt=\"%u\"",Pulsos); 
0B216:  MOVLW  26
0B218:  MOVWF  FF6
0B21A:  MOVLW  12
0B21C:  MOVWF  FF7
0B21E:  MOVLW  00
0B220:  MOVWF  FF8
0B222:  MOVLW  0C
0B224:  MOVLB  6
0B226:  MOVWF  xCF
0B228:  MOVLB  0
0B22A:  CALL   5C56
0B22E:  MOVFF  2C8,6CF
0B232:  MOVLW  1B
0B234:  MOVLB  6
0B236:  MOVWF  xD0
0B238:  MOVLB  0
0B23A:  CALL   5CDA
0B23E:  MOVLW  22
0B240:  BTFSS  F9E.4
0B242:  BRA    B240
0B244:  MOVWF  FAD
....................       SendDataDisplay(); 
0B246:  CALL   41EE
....................    }else if(Menu==10){//Menu de Usuarios 
0B24A:  GOTO   F4DC
0B24E:  MOVLB  2
0B250:  MOVF   x70,W
0B252:  SUBLW  0A
0B254:  BTFSS  FD8.2
0B256:  BRA    B71A
....................       printf("fecha.txt=\"Fecha:%02u/%02u/20%02u Hora: %02u:%02u:%02u\"",Dia,Mes,Year,Hora,Minuto,Segundo); 
0B258:  MOVLW  36
0B25A:  MOVWF  FF6
0B25C:  MOVLW  12
0B25E:  MOVWF  FF7
0B260:  MOVLW  00
0B262:  MOVWF  FF8
0B264:  MOVLW  11
0B266:  MOVLB  6
0B268:  MOVWF  xCF
0B26A:  MOVLB  0
0B26C:  CALL   5C56
0B270:  MOVFF  2B5,6CF
0B274:  MOVLW  01
0B276:  MOVLB  6
0B278:  MOVWF  xD0
0B27A:  MOVLB  0
0B27C:  CALL   5CDA
0B280:  MOVLW  2F
0B282:  BTFSS  F9E.4
0B284:  BRA    B282
0B286:  MOVWF  FAD
0B288:  MOVFF  2B4,6CF
0B28C:  MOVLW  01
0B28E:  MOVLB  6
0B290:  MOVWF  xD0
0B292:  MOVLB  0
0B294:  CALL   5CDA
0B298:  MOVLW  2F
0B29A:  BTFSS  F9E.4
0B29C:  BRA    B29A
0B29E:  MOVWF  FAD
0B2A0:  MOVLW  32
0B2A2:  BTFSS  F9E.4
0B2A4:  BRA    B2A2
0B2A6:  MOVWF  FAD
0B2A8:  MOVLW  30
0B2AA:  BTFSS  F9E.4
0B2AC:  BRA    B2AA
0B2AE:  MOVWF  FAD
0B2B0:  MOVFF  2B3,6CF
0B2B4:  MOVLW  01
0B2B6:  MOVLB  6
0B2B8:  MOVWF  xD0
0B2BA:  MOVLB  0
0B2BC:  CALL   5CDA
0B2C0:  MOVLW  57
0B2C2:  MOVWF  FF6
0B2C4:  MOVLW  12
0B2C6:  MOVWF  FF7
0B2C8:  MOVLW  00
0B2CA:  MOVWF  FF8
0B2CC:  MOVLW  07
0B2CE:  MOVLB  6
0B2D0:  MOVWF  xCF
0B2D2:  MOVLB  0
0B2D4:  CALL   5C56
0B2D8:  MOVFF  2B6,6CF
0B2DC:  MOVLW  01
0B2DE:  MOVLB  6
0B2E0:  MOVWF  xD0
0B2E2:  MOVLB  0
0B2E4:  CALL   5CDA
0B2E8:  MOVLW  3A
0B2EA:  BTFSS  F9E.4
0B2EC:  BRA    B2EA
0B2EE:  MOVWF  FAD
0B2F0:  MOVFF  2B7,6CF
0B2F4:  MOVLW  01
0B2F6:  MOVLB  6
0B2F8:  MOVWF  xD0
0B2FA:  MOVLB  0
0B2FC:  CALL   5CDA
0B300:  MOVLW  3A
0B302:  BTFSS  F9E.4
0B304:  BRA    B302
0B306:  MOVWF  FAD
0B308:  MOVFF  2B8,6CF
0B30C:  MOVLW  01
0B30E:  MOVLB  6
0B310:  MOVWF  xD0
0B312:  MOVLB  0
0B314:  CALL   5CDA
0B318:  MOVLW  22
0B31A:  BTFSS  F9E.4
0B31C:  BRA    B31A
0B31E:  MOVWF  FAD
....................       SendDataDisplay(); 
0B320:  CALL   41EE
....................       GuardaEEPROM=OFF; 
0B324:  MOVLB  1
0B326:  BCF    x06.1
....................       if(ingreso) 
0B328:  BTFSS  x07.5
0B32A:  BRA    B332
....................          TipoClave=2; 
0B32C:  MOVLW  02
0B32E:  MOVWF  xF9
....................       else 
0B330:  BRA    B334
....................          TipoClave=0; 
0B332:  CLRF   xF9
....................        
....................       if(RX_Buffer[4]==0x01){//01, Admin 
0B334:  DECFSZ 35,W
0B336:  BRA    B38E
....................          printf("page Clave"); 
0B338:  MOVLW  6E
0B33A:  MOVWF  FF6
0B33C:  MOVLW  12
0B33E:  MOVWF  FF7
0B340:  MOVLW  00
0B342:  MOVWF  FF8
0B344:  MOVLB  0
0B346:  CALL   41BC
....................          SendDataDisplay();        
0B34A:  CALL   41EE
....................          if(!ingreso){ 
0B34E:  MOVLB  1
0B350:  BTFSC  x07.5
0B352:  BRA    B386
....................             usuario="Admin"; 
0B354:  MOVLW  02
0B356:  MOVWF  FEA
0B358:  MOVLW  D0
0B35A:  MOVWF  FE9
0B35C:  MOVFF  FF2,6CA
0B360:  BCF    FF2.6
0B362:  BCF    FF2.7
0B364:  MOVLW  00
0B366:  MOVLB  0
0B368:  CALL   0144
0B36C:  TBLRD*-
0B36E:  TBLRD*+
0B370:  MOVF   FF5,W
0B372:  MOVWF  FEE
0B374:  IORLW  00
0B376:  BNZ   B36E
0B378:  MOVLB  6
0B37A:  BTFSC  xCA.6
0B37C:  BSF    FF2.6
0B37E:  BTFSC  xCA.7
0B380:  BSF    FF2.7
....................             codigoUsuario=0; 
0B382:  MOVLB  2
0B384:  CLRF   xCA
....................          } 
....................          codigoUsuario2=0; 
0B386:  MOVLB  2
0B388:  CLRF   xAE
....................       }else if(RX_Buffer[4]==0x02){//02, Operador 1 
0B38A:  BRA    B6EA
0B38C:  MOVLB  1
0B38E:  MOVF   35,W
0B390:  SUBLW  02
0B392:  BNZ   B3EE
....................          printf("page Clave"); 
0B394:  MOVLW  7A
0B396:  MOVWF  FF6
0B398:  MOVLW  12
0B39A:  MOVWF  FF7
0B39C:  MOVLW  00
0B39E:  MOVWF  FF8
0B3A0:  MOVLB  0
0B3A2:  CALL   41BC
....................          SendDataDisplay();        
0B3A6:  CALL   41EE
....................          if(!ingreso){ 
0B3AA:  MOVLB  1
0B3AC:  BTFSC  x07.5
0B3AE:  BRA    B3E4
....................             usuario="Operador 1"; 
0B3B0:  MOVLW  02
0B3B2:  MOVWF  FEA
0B3B4:  MOVLW  D0
0B3B6:  MOVWF  FE9
0B3B8:  MOVFF  FF2,6CA
0B3BC:  BCF    FF2.6
0B3BE:  BCF    FF2.7
0B3C0:  MOVLW  00
0B3C2:  MOVLB  0
0B3C4:  CALL   016E
0B3C8:  TBLRD*-
0B3CA:  TBLRD*+
0B3CC:  MOVF   FF5,W
0B3CE:  MOVWF  FEE
0B3D0:  IORLW  00
0B3D2:  BNZ   B3CA
0B3D4:  MOVLB  6
0B3D6:  BTFSC  xCA.6
0B3D8:  BSF    FF2.6
0B3DA:  BTFSC  xCA.7
0B3DC:  BSF    FF2.7
....................             codigoUsuario=1; 
0B3DE:  MOVLW  01
0B3E0:  MOVLB  2
0B3E2:  MOVWF  xCA
....................          } 
....................          codigoUsuario2=1; 
0B3E4:  MOVLW  01
0B3E6:  MOVLB  2
0B3E8:  MOVWF  xAE
....................       }else if(RX_Buffer[4]==0x03){//03, Operador 2 
0B3EA:  BRA    B6EA
0B3EC:  MOVLB  1
0B3EE:  MOVF   35,W
0B3F0:  SUBLW  03
0B3F2:  BNZ   B44E
....................          printf("page Clave"); 
0B3F4:  MOVLW  86
0B3F6:  MOVWF  FF6
0B3F8:  MOVLW  12
0B3FA:  MOVWF  FF7
0B3FC:  MOVLW  00
0B3FE:  MOVWF  FF8
0B400:  MOVLB  0
0B402:  CALL   41BC
....................          SendDataDisplay();        
0B406:  CALL   41EE
....................          if(!ingreso){ 
0B40A:  MOVLB  1
0B40C:  BTFSC  x07.5
0B40E:  BRA    B444
....................             usuario="Operador 2"; 
0B410:  MOVLW  02
0B412:  MOVWF  FEA
0B414:  MOVLW  D0
0B416:  MOVWF  FE9
0B418:  MOVFF  FF2,6CA
0B41C:  BCF    FF2.6
0B41E:  BCF    FF2.7
0B420:  MOVLW  00
0B422:  MOVLB  0
0B424:  CALL   019E
0B428:  TBLRD*-
0B42A:  TBLRD*+
0B42C:  MOVF   FF5,W
0B42E:  MOVWF  FEE
0B430:  IORLW  00
0B432:  BNZ   B42A
0B434:  MOVLB  6
0B436:  BTFSC  xCA.6
0B438:  BSF    FF2.6
0B43A:  BTFSC  xCA.7
0B43C:  BSF    FF2.7
....................             codigoUsuario=2; 
0B43E:  MOVLW  02
0B440:  MOVLB  2
0B442:  MOVWF  xCA
....................          } 
....................          codigoUsuario2=2; 
0B444:  MOVLW  02
0B446:  MOVLB  2
0B448:  MOVWF  xAE
....................       }else if(RX_Buffer[4]==0x04){//04, Operador 3 
0B44A:  BRA    B6EA
0B44C:  MOVLB  1
0B44E:  MOVF   35,W
0B450:  SUBLW  04
0B452:  BNZ   B4AE
....................          printf("page Clave"); 
0B454:  MOVLW  92
0B456:  MOVWF  FF6
0B458:  MOVLW  12
0B45A:  MOVWF  FF7
0B45C:  MOVLW  00
0B45E:  MOVWF  FF8
0B460:  MOVLB  0
0B462:  CALL   41BC
....................          SendDataDisplay();        
0B466:  CALL   41EE
....................          if(!ingreso){ 
0B46A:  MOVLB  1
0B46C:  BTFSC  x07.5
0B46E:  BRA    B4A4
....................             usuario="Operador 3"; 
0B470:  MOVLW  02
0B472:  MOVWF  FEA
0B474:  MOVLW  D0
0B476:  MOVWF  FE9
0B478:  MOVFF  FF2,6CA
0B47C:  BCF    FF2.6
0B47E:  BCF    FF2.7
0B480:  MOVLW  00
0B482:  MOVLB  0
0B484:  CALL   01CE
0B488:  TBLRD*-
0B48A:  TBLRD*+
0B48C:  MOVF   FF5,W
0B48E:  MOVWF  FEE
0B490:  IORLW  00
0B492:  BNZ   B48A
0B494:  MOVLB  6
0B496:  BTFSC  xCA.6
0B498:  BSF    FF2.6
0B49A:  BTFSC  xCA.7
0B49C:  BSF    FF2.7
....................             codigoUsuario=3; 
0B49E:  MOVLW  03
0B4A0:  MOVLB  2
0B4A2:  MOVWF  xCA
....................          } 
....................          codigoUsuario2=3; 
0B4A4:  MOVLW  03
0B4A6:  MOVLB  2
0B4A8:  MOVWF  xAE
....................       }else if(RX_Buffer[4]==0x05){//05, Operador 4 
0B4AA:  BRA    B6EA
0B4AC:  MOVLB  1
0B4AE:  MOVF   35,W
0B4B0:  SUBLW  05
0B4B2:  BNZ   B50E
....................          printf("page Clave"); 
0B4B4:  MOVLW  9E
0B4B6:  MOVWF  FF6
0B4B8:  MOVLW  12
0B4BA:  MOVWF  FF7
0B4BC:  MOVLW  00
0B4BE:  MOVWF  FF8
0B4C0:  MOVLB  0
0B4C2:  CALL   41BC
....................          SendDataDisplay();        
0B4C6:  CALL   41EE
....................          if(!ingreso){ 
0B4CA:  MOVLB  1
0B4CC:  BTFSC  x07.5
0B4CE:  BRA    B504
....................             usuario="Operador 4"; 
0B4D0:  MOVLW  02
0B4D2:  MOVWF  FEA
0B4D4:  MOVLW  D0
0B4D6:  MOVWF  FE9
0B4D8:  MOVFF  FF2,6CA
0B4DC:  BCF    FF2.6
0B4DE:  BCF    FF2.7
0B4E0:  MOVLW  00
0B4E2:  MOVLB  0
0B4E4:  CALL   01FE
0B4E8:  TBLRD*-
0B4EA:  TBLRD*+
0B4EC:  MOVF   FF5,W
0B4EE:  MOVWF  FEE
0B4F0:  IORLW  00
0B4F2:  BNZ   B4EA
0B4F4:  MOVLB  6
0B4F6:  BTFSC  xCA.6
0B4F8:  BSF    FF2.6
0B4FA:  BTFSC  xCA.7
0B4FC:  BSF    FF2.7
....................             codigoUsuario=4; 
0B4FE:  MOVLW  04
0B500:  MOVLB  2
0B502:  MOVWF  xCA
....................          } 
....................          codigoUsuario2=4; 
0B504:  MOVLW  04
0B506:  MOVLB  2
0B508:  MOVWF  xAE
....................       }else if(RX_Buffer[4]==0x06){//06, Operador 5 
0B50A:  BRA    B6EA
0B50C:  MOVLB  1
0B50E:  MOVF   35,W
0B510:  SUBLW  06
0B512:  BNZ   B56E
....................          printf("page Clave"); 
0B514:  MOVLW  AA
0B516:  MOVWF  FF6
0B518:  MOVLW  12
0B51A:  MOVWF  FF7
0B51C:  MOVLW  00
0B51E:  MOVWF  FF8
0B520:  MOVLB  0
0B522:  CALL   41BC
....................          SendDataDisplay();        
0B526:  CALL   41EE
....................          if(!ingreso){ 
0B52A:  MOVLB  1
0B52C:  BTFSC  x07.5
0B52E:  BRA    B564
....................             usuario="Operador 5"; 
0B530:  MOVLW  02
0B532:  MOVWF  FEA
0B534:  MOVLW  D0
0B536:  MOVWF  FE9
0B538:  MOVFF  FF2,6CA
0B53C:  BCF    FF2.6
0B53E:  BCF    FF2.7
0B540:  MOVLW  00
0B542:  MOVLB  0
0B544:  CALL   022E
0B548:  TBLRD*-
0B54A:  TBLRD*+
0B54C:  MOVF   FF5,W
0B54E:  MOVWF  FEE
0B550:  IORLW  00
0B552:  BNZ   B54A
0B554:  MOVLB  6
0B556:  BTFSC  xCA.6
0B558:  BSF    FF2.6
0B55A:  BTFSC  xCA.7
0B55C:  BSF    FF2.7
....................             codigoUsuario=5; 
0B55E:  MOVLW  05
0B560:  MOVLB  2
0B562:  MOVWF  xCA
....................          } 
....................          codigoUsuario2=5; 
0B564:  MOVLW  05
0B566:  MOVLB  2
0B568:  MOVWF  xAE
....................       }else if(RX_Buffer[4]==0x07){//07, Operador 6 
0B56A:  BRA    B6EA
0B56C:  MOVLB  1
0B56E:  MOVF   35,W
0B570:  SUBLW  07
0B572:  BNZ   B5CE
....................          printf("page Clave"); 
0B574:  MOVLW  B6
0B576:  MOVWF  FF6
0B578:  MOVLW  12
0B57A:  MOVWF  FF7
0B57C:  MOVLW  00
0B57E:  MOVWF  FF8
0B580:  MOVLB  0
0B582:  CALL   41BC
....................          SendDataDisplay();        
0B586:  CALL   41EE
....................          if(!ingreso){ 
0B58A:  MOVLB  1
0B58C:  BTFSC  x07.5
0B58E:  BRA    B5C4
....................             usuario="Operador 6"; 
0B590:  MOVLW  02
0B592:  MOVWF  FEA
0B594:  MOVLW  D0
0B596:  MOVWF  FE9
0B598:  MOVFF  FF2,6CA
0B59C:  BCF    FF2.6
0B59E:  BCF    FF2.7
0B5A0:  MOVLW  00
0B5A2:  MOVLB  0
0B5A4:  CALL   025E
0B5A8:  TBLRD*-
0B5AA:  TBLRD*+
0B5AC:  MOVF   FF5,W
0B5AE:  MOVWF  FEE
0B5B0:  IORLW  00
0B5B2:  BNZ   B5AA
0B5B4:  MOVLB  6
0B5B6:  BTFSC  xCA.6
0B5B8:  BSF    FF2.6
0B5BA:  BTFSC  xCA.7
0B5BC:  BSF    FF2.7
....................             codigoUsuario=6; 
0B5BE:  MOVLW  06
0B5C0:  MOVLB  2
0B5C2:  MOVWF  xCA
....................          } 
....................          codigoUsuario2=6; 
0B5C4:  MOVLW  06
0B5C6:  MOVLB  2
0B5C8:  MOVWF  xAE
....................       }else if(RX_Buffer[4]==0x08){//08, Operador 7 
0B5CA:  BRA    B6EA
0B5CC:  MOVLB  1
0B5CE:  MOVF   35,W
0B5D0:  SUBLW  08
0B5D2:  BNZ   B62E
....................          printf("page Clave"); 
0B5D4:  MOVLW  C2
0B5D6:  MOVWF  FF6
0B5D8:  MOVLW  12
0B5DA:  MOVWF  FF7
0B5DC:  MOVLW  00
0B5DE:  MOVWF  FF8
0B5E0:  MOVLB  0
0B5E2:  CALL   41BC
....................          SendDataDisplay();        
0B5E6:  CALL   41EE
....................          if(!ingreso){ 
0B5EA:  MOVLB  1
0B5EC:  BTFSC  x07.5
0B5EE:  BRA    B624
....................             usuario="Operador 7"; 
0B5F0:  MOVLW  02
0B5F2:  MOVWF  FEA
0B5F4:  MOVLW  D0
0B5F6:  MOVWF  FE9
0B5F8:  MOVFF  FF2,6CA
0B5FC:  BCF    FF2.6
0B5FE:  BCF    FF2.7
0B600:  MOVLW  00
0B602:  MOVLB  0
0B604:  CALL   028E
0B608:  TBLRD*-
0B60A:  TBLRD*+
0B60C:  MOVF   FF5,W
0B60E:  MOVWF  FEE
0B610:  IORLW  00
0B612:  BNZ   B60A
0B614:  MOVLB  6
0B616:  BTFSC  xCA.6
0B618:  BSF    FF2.6
0B61A:  BTFSC  xCA.7
0B61C:  BSF    FF2.7
....................             codigoUsuario=7; 
0B61E:  MOVLW  07
0B620:  MOVLB  2
0B622:  MOVWF  xCA
....................          } 
....................          codigoUsuario2=7; 
0B624:  MOVLW  07
0B626:  MOVLB  2
0B628:  MOVWF  xAE
....................       }else if(RX_Buffer[4]==0x09){//09, Operador 8 
0B62A:  BRA    B6EA
0B62C:  MOVLB  1
0B62E:  MOVF   35,W
0B630:  SUBLW  09
0B632:  BNZ   B68E
....................          printf("page Clave"); 
0B634:  MOVLW  CE
0B636:  MOVWF  FF6
0B638:  MOVLW  12
0B63A:  MOVWF  FF7
0B63C:  MOVLW  00
0B63E:  MOVWF  FF8
0B640:  MOVLB  0
0B642:  CALL   41BC
....................          SendDataDisplay();        
0B646:  CALL   41EE
....................          if(!ingreso){ 
0B64A:  MOVLB  1
0B64C:  BTFSC  x07.5
0B64E:  BRA    B684
....................             usuario="Operador 8"; 
0B650:  MOVLW  02
0B652:  MOVWF  FEA
0B654:  MOVLW  D0
0B656:  MOVWF  FE9
0B658:  MOVFF  FF2,6CA
0B65C:  BCF    FF2.6
0B65E:  BCF    FF2.7
0B660:  MOVLW  00
0B662:  MOVLB  0
0B664:  CALL   02BE
0B668:  TBLRD*-
0B66A:  TBLRD*+
0B66C:  MOVF   FF5,W
0B66E:  MOVWF  FEE
0B670:  IORLW  00
0B672:  BNZ   B66A
0B674:  MOVLB  6
0B676:  BTFSC  xCA.6
0B678:  BSF    FF2.6
0B67A:  BTFSC  xCA.7
0B67C:  BSF    FF2.7
....................             codigoUsuario=8; 
0B67E:  MOVLW  08
0B680:  MOVLB  2
0B682:  MOVWF  xCA
....................          } 
....................          codigoUsuario2=8; 
0B684:  MOVLW  08
0B686:  MOVLB  2
0B688:  MOVWF  xAE
....................       }else if(RX_Buffer[4]==0x0a){//0a, Tecnico 
0B68A:  BRA    B6EA
0B68C:  MOVLB  1
0B68E:  MOVF   35,W
0B690:  SUBLW  0A
0B692:  BNZ   B6EC
....................          printf("page Clave"); 
0B694:  MOVLW  DA
0B696:  MOVWF  FF6
0B698:  MOVLW  12
0B69A:  MOVWF  FF7
0B69C:  MOVLW  00
0B69E:  MOVWF  FF8
0B6A0:  MOVLB  0
0B6A2:  CALL   41BC
....................          SendDataDisplay();        
0B6A6:  CALL   41EE
....................          if(!ingreso){ 
0B6AA:  MOVLB  1
0B6AC:  BTFSC  x07.5
0B6AE:  BRA    B6E4
....................             usuario="Tecnico"; 
0B6B0:  MOVLW  02
0B6B2:  MOVWF  FEA
0B6B4:  MOVLW  D0
0B6B6:  MOVWF  FE9
0B6B8:  MOVFF  FF2,6CA
0B6BC:  BCF    FF2.6
0B6BE:  BCF    FF2.7
0B6C0:  MOVLW  00
0B6C2:  MOVLB  0
0B6C4:  CALL   02EE
0B6C8:  TBLRD*-
0B6CA:  TBLRD*+
0B6CC:  MOVF   FF5,W
0B6CE:  MOVWF  FEE
0B6D0:  IORLW  00
0B6D2:  BNZ   B6CA
0B6D4:  MOVLB  6
0B6D6:  BTFSC  xCA.6
0B6D8:  BSF    FF2.6
0B6DA:  BTFSC  xCA.7
0B6DC:  BSF    FF2.7
....................             codigoUsuario=9; 
0B6DE:  MOVLW  09
0B6E0:  MOVLB  2
0B6E2:  MOVWF  xCA
....................          } 
....................          codigoUsuario2=9; 
0B6E4:  MOVLW  09
0B6E6:  MOVLB  2
0B6E8:  MOVWF  xAE
0B6EA:  MOVLB  1
....................       } 
....................        
....................       if(RX_Buffer[4]==0xaa && ingreso){//aa, Regresar 
0B6EC:  MOVF   35,W
0B6EE:  SUBLW  AA
0B6F0:  BNZ   B714
0B6F2:  BTFSS  x07.5
0B6F4:  BRA    B714
....................          printf("page Ajustes"); 
0B6F6:  MOVLW  E6
0B6F8:  MOVWF  FF6
0B6FA:  MOVLW  12
0B6FC:  MOVWF  FF7
0B6FE:  MOVLW  00
0B700:  MOVWF  FF8
0B702:  MOVLB  0
0B704:  CALL   41BC
....................          SendDataDisplay();        
0B708:  CALL   41EE
....................          codigoUsuario2=10; 
0B70C:  MOVLW  0A
0B70E:  MOVLB  2
0B710:  MOVWF  xAE
0B712:  MOVLB  1
....................       } 
....................    }else if(Menu==11){//Menu de Configuraciones 
0B714:  GOTO   F4DC
0B718:  MOVLB  2
0B71A:  MOVF   x70,W
0B71C:  SUBLW  0B
0B71E:  BTFSS  FD8.2
0B720:  BRA    B966
....................       tConfig=0; 
0B722:  MOVLB  1
0B724:  CLRF   x1E
0B726:  CLRF   x1D
....................       oprimioConfig=OFF; 
0B728:  BCF    x03.4
....................       printf("fecha.txt=\"Fecha:%02u/%02u/20%02u Hora: %02u:%02u:%02u\"",Dia,Mes,Year,Hora,Minuto,Segundo); 
0B72A:  MOVLW  F4
0B72C:  MOVWF  FF6
0B72E:  MOVLW  12
0B730:  MOVWF  FF7
0B732:  MOVLW  00
0B734:  MOVWF  FF8
0B736:  MOVLW  11
0B738:  MOVLB  6
0B73A:  MOVWF  xCF
0B73C:  MOVLB  0
0B73E:  CALL   5C56
0B742:  MOVFF  2B5,6CF
0B746:  MOVLW  01
0B748:  MOVLB  6
0B74A:  MOVWF  xD0
0B74C:  MOVLB  0
0B74E:  CALL   5CDA
0B752:  MOVLW  2F
0B754:  BTFSS  F9E.4
0B756:  BRA    B754
0B758:  MOVWF  FAD
0B75A:  MOVFF  2B4,6CF
0B75E:  MOVLW  01
0B760:  MOVLB  6
0B762:  MOVWF  xD0
0B764:  MOVLB  0
0B766:  CALL   5CDA
0B76A:  MOVLW  2F
0B76C:  BTFSS  F9E.4
0B76E:  BRA    B76C
0B770:  MOVWF  FAD
0B772:  MOVLW  32
0B774:  BTFSS  F9E.4
0B776:  BRA    B774
0B778:  MOVWF  FAD
0B77A:  MOVLW  30
0B77C:  BTFSS  F9E.4
0B77E:  BRA    B77C
0B780:  MOVWF  FAD
0B782:  MOVFF  2B3,6CF
0B786:  MOVLW  01
0B788:  MOVLB  6
0B78A:  MOVWF  xD0
0B78C:  MOVLB  0
0B78E:  CALL   5CDA
0B792:  MOVLW  15
0B794:  MOVWF  FF6
0B796:  MOVLW  13
0B798:  MOVWF  FF7
0B79A:  MOVLW  00
0B79C:  MOVWF  FF8
0B79E:  MOVLW  07
0B7A0:  MOVLB  6
0B7A2:  MOVWF  xCF
0B7A4:  MOVLB  0
0B7A6:  CALL   5C56
0B7AA:  MOVFF  2B6,6CF
0B7AE:  MOVLW  01
0B7B0:  MOVLB  6
0B7B2:  MOVWF  xD0
0B7B4:  MOVLB  0
0B7B6:  CALL   5CDA
0B7BA:  MOVLW  3A
0B7BC:  BTFSS  F9E.4
0B7BE:  BRA    B7BC
0B7C0:  MOVWF  FAD
0B7C2:  MOVFF  2B7,6CF
0B7C6:  MOVLW  01
0B7C8:  MOVLB  6
0B7CA:  MOVWF  xD0
0B7CC:  MOVLB  0
0B7CE:  CALL   5CDA
0B7D2:  MOVLW  3A
0B7D4:  BTFSS  F9E.4
0B7D6:  BRA    B7D4
0B7D8:  MOVWF  FAD
0B7DA:  MOVFF  2B8,6CF
0B7DE:  MOVLW  01
0B7E0:  MOVLB  6
0B7E2:  MOVWF  xD0
0B7E4:  MOVLB  0
0B7E6:  CALL   5CDA
0B7EA:  MOVLW  22
0B7EC:  BTFSS  F9E.4
0B7EE:  BRA    B7EC
0B7F0:  MOVWF  FAD
....................       SendDataDisplay(); 
0B7F2:  CALL   41EE
....................       GuardaEEPROM=OFF; 
0B7F6:  MOVLB  1
0B7F8:  BCF    x06.1
....................       printf("tuser.txt=\"%s\"",usuario); 
0B7FA:  MOVLW  2C
0B7FC:  MOVWF  FF6
0B7FE:  MOVLW  13
0B800:  MOVWF  FF7
0B802:  MOVLW  00
0B804:  MOVWF  FF8
0B806:  MOVLW  0B
0B808:  MOVLB  6
0B80A:  MOVWF  xCF
0B80C:  MOVLB  0
0B80E:  CALL   5C56
0B812:  MOVLW  02
0B814:  MOVWF  FEA
0B816:  MOVLW  D0
0B818:  MOVWF  FE9
0B81A:  CALL   5C88
0B81E:  MOVLW  22
0B820:  BTFSS  F9E.4
0B822:  BRA    B820
0B824:  MOVWF  FAD
....................       SendDataDisplay(); 
0B826:  CALL   41EE
....................       TipoClave=0; 
0B82A:  MOVLB  1
0B82C:  CLRF   xF9
....................        
....................       if(RX_Buffer[4]==0x01){//01, Ciclos 
0B82E:  DECFSZ 35,W
0B830:  BRA    B84A
....................          printf("page Ciclos"); 
0B832:  MOVLW  3C
0B834:  MOVWF  FF6
0B836:  MOVLW  13
0B838:  MOVWF  FF7
0B83A:  MOVLW  00
0B83C:  MOVWF  FF8
0B83E:  MOVLB  0
0B840:  CALL   41BC
....................          SendDataDisplay();      
0B844:  CALL   41EE
0B848:  MOVLB  1
....................       } 
....................        
....................       if(RX_Buffer[4]==0x02){//02, Test de Componentes 
0B84A:  MOVF   35,W
0B84C:  SUBLW  02
0B84E:  BNZ   B868
....................          printf("page Test"); 
0B850:  MOVLW  48
0B852:  MOVWF  FF6
0B854:  MOVLW  13
0B856:  MOVWF  FF7
0B858:  MOVLW  00
0B85A:  MOVWF  FF8
0B85C:  MOVLB  0
0B85E:  CALL   41BC
....................          SendDataDisplay();      
0B862:  CALL   41EE
0B866:  MOVLB  1
....................       } 
....................        
....................       if(RX_Buffer[4]==0x03){//03, Modificacin de clave Usuarios 
0B868:  MOVF   35,W
0B86A:  SUBLW  03
0B86C:  BNZ   B886
....................          printf("page Usuarios"); 
0B86E:  MOVLW  52
0B870:  MOVWF  FF6
0B872:  MOVLW  13
0B874:  MOVWF  FF7
0B876:  MOVLW  00
0B878:  MOVWF  FF8
0B87A:  MOVLB  0
0B87C:  CALL   41BC
....................          SendDataDisplay();      
0B880:  CALL   41EE
0B884:  MOVLB  1
....................       } 
....................        
....................       if(RX_Buffer[4]==0x04){//03, Modificacin de clave Usuarios 
0B886:  MOVF   35,W
0B888:  SUBLW  04
0B88A:  BNZ   B8A4
....................          printf("page Activa"); 
0B88C:  MOVLW  60
0B88E:  MOVWF  FF6
0B890:  MOVLW  13
0B892:  MOVWF  FF7
0B894:  MOVLW  00
0B896:  MOVWF  FF8
0B898:  MOVLB  0
0B89A:  CALL   41BC
....................          SendDataDisplay();      
0B89E:  CALL   41EE
0B8A2:  MOVLB  1
....................       } 
....................        
....................       if(RX_Buffer[4]==0x11 && CodigoUsuario==9){//11, Menu Oculto Tecnico 
0B8A4:  MOVF   35,W
0B8A6:  SUBLW  11
0B8A8:  BNZ   B8D4
0B8AA:  MOVLB  2
0B8AC:  MOVF   xCA,W
0B8AE:  SUBLW  09
0B8B0:  BTFSC  FD8.2
0B8B2:  BRA    B8B8
0B8B4:  MOVLB  1
0B8B6:  BRA    B8D4
....................          printf("page Clave"); 
0B8B8:  MOVLW  6C
0B8BA:  MOVWF  FF6
0B8BC:  MOVLW  13
0B8BE:  MOVWF  FF7
0B8C0:  MOVLW  00
0B8C2:  MOVWF  FF8
0B8C4:  MOVLB  0
0B8C6:  CALL   41BC
....................          SendDataDisplay();  
0B8CA:  CALL   41EE
....................          TipoClave=1; 
0B8CE:  MOVLW  01
0B8D0:  MOVLB  1
0B8D2:  MOVWF  xF9
....................       } 
....................        
....................       if(RX_Buffer[4]==0x05){//05, Hora y Fecha 
0B8D4:  MOVF   35,W
0B8D6:  SUBLW  05
0B8D8:  BNZ   B906
....................          printf("page Fecha"); 
0B8DA:  MOVLW  78
0B8DC:  MOVWF  FF6
0B8DE:  MOVLW  13
0B8E0:  MOVWF  FF7
0B8E2:  MOVLW  00
0B8E4:  MOVWF  FF8
0B8E6:  MOVLB  0
0B8E8:  CALL   41BC
....................          SendDataDisplay();      
0B8EC:  CALL   41EE
....................          DiaTx=Dia; 
0B8F0:  MOVFF  2B5,2C2
....................          MesTx=Mes; 
0B8F4:  MOVFF  2B4,2C1
....................          YearTx=Year; 
0B8F8:  MOVFF  2B3,2C0
....................          HoraTx=Hora; 
0B8FC:  MOVFF  2B6,2C3
....................          MinutoTx=Minuto; 
0B900:  MOVFF  2B7,2C4
0B904:  MOVLB  1
....................       } 
....................        
....................       if(RX_Buffer[4]==0xa0){//a0, Menu Principal 
0B906:  MOVF   35,W
0B908:  SUBLW  A0
0B90A:  BNZ   B924
....................          printf("page Menu"); 
0B90C:  MOVLW  84
0B90E:  MOVWF  FF6
0B910:  MOVLW  13
0B912:  MOVWF  FF7
0B914:  MOVLW  00
0B916:  MOVWF  FF8
0B918:  MOVLB  0
0B91A:  CALL   41BC
....................          SendDataDisplay();      
0B91E:  CALL   41EE
0B922:  MOVLB  1
....................       } 
....................        
....................       if(RX_Buffer[4]==0xb0){//b0, Personalizados 
0B924:  MOVF   35,W
0B926:  SUBLW  B0
0B928:  BNZ   B942
....................          printf("page CicloPersona"); 
0B92A:  MOVLW  8E
0B92C:  MOVWF  FF6
0B92E:  MOVLW  13
0B930:  MOVWF  FF7
0B932:  MOVLW  00
0B934:  MOVWF  FF8
0B936:  MOVLB  0
0B938:  CALL   41BC
....................          SendDataDisplay();      
0B93C:  CALL   41EE
0B940:  MOVLB  1
....................       } 
....................        
....................       if(RX_Buffer[4]==0xc0){//c0, Configuraciones 
0B942:  MOVF   35,W
0B944:  SUBLW  C0
0B946:  BNZ   B960
....................          printf("page Ajustes"); 
0B948:  MOVLW  A0
0B94A:  MOVWF  FF6
0B94C:  MOVLW  13
0B94E:  MOVWF  FF7
0B950:  MOVLW  00
0B952:  MOVWF  FF8
0B954:  MOVLB  0
0B956:  CALL   41BC
....................          SendDataDisplay();      
0B95A:  CALL   41EE
0B95E:  MOVLB  1
....................       } 
....................    }else if(Menu==12){//Menu de Visualizacion de Ciclos Realizados 
0B960:  GOTO   F4DC
0B964:  MOVLB  2
0B966:  MOVF   x70,W
0B968:  SUBLW  0C
0B96A:  BTFSS  FD8.2
0B96C:  GOTO   C604
....................       //printf("fecha.txt=\"Fecha:%02u/%02u/20%02u    Hora: %02u:%02u\"",Dia,Mes,Year,Hora,Minuto); 
....................       //SendDataDisplay(); 
....................       GuardaEEPROM=OFF; 
0B970:  MOVLB  1
0B972:  BCF    x06.1
....................        
....................       i2c_start();            // Comienzo de la comunicacin 
0B974:  BSF    F94.4
0B976:  MOVLW  05
0B978:  MOVWF  00
0B97A:  DECFSZ 00,F
0B97C:  BRA    B97A
0B97E:  BSF    F94.3
0B980:  MOVLW  06
0B982:  MOVWF  00
0B984:  DECFSZ 00,F
0B986:  BRA    B984
0B988:  BCF    F8B.4
0B98A:  BCF    F94.4
0B98C:  MOVLW  05
0B98E:  MOVWF  00
0B990:  DECFSZ 00,F
0B992:  BRA    B990
0B994:  BCF    F8B.3
0B996:  BCF    F94.3
....................       i2c_write(0xB0);   // Direccin del esclavo en el bus I2C 
0B998:  MOVLW  B0
0B99A:  MOVLB  6
0B99C:  MOVWF  xE0
0B99E:  MOVLB  0
0B9A0:  CALL   25D6
....................       i2c_write(9);    // Posicin de donde se leer el dato en el esclavo 
0B9A4:  MOVLW  09
0B9A6:  MOVLB  6
0B9A8:  MOVWF  xE0
0B9AA:  MOVLB  0
0B9AC:  CALL   25D6
....................       i2c_write(0);    // Posicin de donde se leer el dato en el esclavo 
0B9B0:  MOVLB  6
0B9B2:  CLRF   xE0
0B9B4:  MOVLB  0
0B9B6:  CALL   25D6
....................       i2c_start();            // Reinicio 
0B9BA:  BSF    F94.4
0B9BC:  MOVLW  05
0B9BE:  MOVWF  00
0B9C0:  DECFSZ 00,F
0B9C2:  BRA    B9C0
0B9C4:  BSF    F94.3
0B9C6:  MOVLW  06
0B9C8:  MOVWF  00
0B9CA:  DECFSZ 00,F
0B9CC:  BRA    B9CA
0B9CE:  BTFSS  F82.3
0B9D0:  BRA    B9CE
0B9D2:  BCF    F8B.4
0B9D4:  BCF    F94.4
0B9D6:  MOVLW  05
0B9D8:  MOVWF  00
0B9DA:  DECFSZ 00,F
0B9DC:  BRA    B9DA
0B9DE:  BCF    F8B.3
0B9E0:  BCF    F94.3
....................       i2c_write(direccion+1); // Direccin del esclavo en modo lectura 
0B9E2:  MOVLW  01
0B9E4:  ADDWF  xDE,W
0B9E6:  MOVLB  6
0B9E8:  MOVWF  xCA
0B9EA:  MOVWF  xE0
0B9EC:  MOVLB  0
0B9EE:  CALL   25D6
....................       dato=i2c_read(0);       // Lectura del dato 
0B9F2:  CLRF   00
0B9F4:  CALL   264C
0B9F8:  MOVFF  01,DD
....................       i2c_stop(); 
0B9FC:  BCF    F94.4
0B9FE:  NOP   
0BA00:  BSF    F94.3
0BA02:  BTFSS  F82.3
0BA04:  BRA    BA02
0BA06:  MOVLW  05
0BA08:  MOVWF  00
0BA0A:  DECFSZ 00,F
0BA0C:  BRA    BA0A
0BA0E:  BRA    BA10
0BA10:  NOP   
0BA12:  BSF    F94.4
0BA14:  MOVLW  05
0BA16:  MOVWF  00
0BA18:  DECFSZ 00,F
0BA1A:  BRA    BA18
....................        
....................       printf("estado.txt=\"Oprima Exportar para imprimir\""); 
0BA1C:  MOVLW  AE
0BA1E:  MOVWF  FF6
0BA20:  MOVLW  13
0BA22:  MOVWF  FF7
0BA24:  MOVLW  00
0BA26:  MOVWF  FF8
0BA28:  CALL   41BC
....................       SendDataDisplay();      
0BA2C:  CALL   41EE
....................        
....................       if(RX_Buffer[6]==0x01){//01, Ciclos 
0BA30:  DECFSZ 37,W
0BA32:  BRA    BA48
....................          printf("page Ajustes"); 
0BA34:  MOVLW  DA
0BA36:  MOVWF  FF6
0BA38:  MOVLW  13
0BA3A:  MOVWF  FF7
0BA3C:  MOVLW  00
0BA3E:  MOVWF  FF8
0BA40:  CALL   41BC
....................          SendDataDisplay();      
0BA44:  CALL   41EE
....................       } 
....................        
....................       if(RX_Buffer[6]==0x02){//02, Exportar 
0BA48:  MOVF   37,W
0BA4A:  SUBLW  02
0BA4C:  BNZ   BA6A
....................          RX_Buffer[6]=0x00;   
0BA4E:  CLRF   37
....................          RX_Buffer2[6]=0x00; 
0BA50:  CLRF   42
....................          printf("estado.txt=\"!Imprimiendo!\""); 
0BA52:  MOVLW  E8
0BA54:  MOVWF  FF6
0BA56:  MOVLW  13
0BA58:  MOVWF  FF7
0BA5A:  MOVLW  00
0BA5C:  MOVWF  FF8
0BA5E:  CALL   41BC
....................          SendDataDisplay(); 
0BA62:  CALL   41EE
....................          exportarData(); 
0BA66:  GOTO   62FA
....................       } 
....................        
....................       if(RX_Buffer[4]>0x00 || RX_Buffer[5]>0x00 || UP || DOWN || RIGHT || LEFT){ 
0BA6A:  MOVF   35,F
0BA6C:  BNZ   BA8A
0BA6E:  MOVF   36,F
0BA70:  BNZ   BA8A
0BA72:  BSF    F93.4
0BA74:  BTFSS  F81.4
0BA76:  BRA    BA8A
0BA78:  BSF    F93.5
0BA7A:  BTFSS  F81.5
0BA7C:  BRA    BA8A
0BA7E:  BSF    F93.6
0BA80:  BTFSS  F81.6
0BA82:  BRA    BA8A
0BA84:  BSF    F93.7
0BA86:  BTFSC  F81.7
0BA88:  BRA    C216
....................          if(UP){ 
0BA8A:  BSF    F93.4
0BA8C:  BTFSC  F81.4
0BA8E:  BRA    BAA8
....................             if(cicloVisualizado<28){ 
0BA90:  MOVLB  2
0BA92:  MOVF   xBA,W
0BA94:  SUBLW  1B
0BA96:  BNC   BA9A
....................                cicloVisualizado++; 
0BA98:  INCF   xBA,F
....................             } 
....................             delay_ms(20); 
0BA9A:  MOVLW  14
0BA9C:  MOVLB  6
0BA9E:  MOVWF  xDC
0BAA0:  MOVLB  0
0BAA2:  CALL   2142
....................          }else if(DOWN){ 
0BAA6:  BRA    BB14
0BAA8:  BSF    F93.5
0BAAA:  BTFSC  F81.5
0BAAC:  BRA    BAC4
....................             if(cicloVisualizado>0){ 
0BAAE:  MOVLB  2
0BAB0:  MOVF   xBA,F
0BAB2:  BZ    BAB6
....................                cicloVisualizado--; 
0BAB4:  DECF   xBA,F
....................             } 
....................             delay_ms(20); 
0BAB6:  MOVLW  14
0BAB8:  MOVLB  6
0BABA:  MOVWF  xDC
0BABC:  MOVLB  0
0BABE:  CALL   2142
....................          }else if(RIGHT){ 
0BAC2:  BRA    BB14
0BAC4:  BSF    F93.6
0BAC6:  BTFSC  F81.6
0BAC8:  BRA    BAE2
....................             if(cicloVisto<200){ 
0BACA:  MOVLB  2
0BACC:  MOVF   xBB,W
0BACE:  SUBLW  C7
0BAD0:  BNC   BAD4
....................                cicloVisto++; 
0BAD2:  INCF   xBB,F
....................             } 
....................             delay_ms(20);             
0BAD4:  MOVLW  14
0BAD6:  MOVLB  6
0BAD8:  MOVWF  xDC
0BADA:  MOVLB  0
0BADC:  CALL   2142
....................          }else if(LEFT){ 
0BAE0:  BRA    BB14
0BAE2:  BSF    F93.7
0BAE4:  BTFSC  F81.7
0BAE6:  BRA    BAFE
....................             if(cicloVisto>0){ 
0BAE8:  MOVLB  2
0BAEA:  MOVF   xBB,F
0BAEC:  BZ    BAF0
....................                cicloVisto--; 
0BAEE:  DECF   xBB,F
....................             } 
....................             delay_ms(20); 
0BAF0:  MOVLW  14
0BAF2:  MOVLB  6
0BAF4:  MOVWF  xDC
0BAF6:  MOVLB  0
0BAF8:  CALL   2142
....................          }else{ 
0BAFC:  BRA    BB14
....................             cicloVisualizado=RX_Buffer[4]-1; 
0BAFE:  MOVLW  01
0BB00:  SUBWF  35,W
0BB02:  MOVLB  2
0BB04:  MOVWF  xBA
....................             cicloVisto=RX_Buffer[5]-1; 
0BB06:  MOVLW  01
0BB08:  SUBWF  36,W
0BB0A:  MOVWF  xBB
....................             RX_Buffer[4]=0x00; 
0BB0C:  CLRF   35
....................             RX_Buffer[5]=0x00; 
0BB0E:  CLRF   36
....................             RX_Buffer2[4]=0x00; 
0BB10:  CLRF   40
....................             RX_Buffer2[5]=0x00; 
0BB12:  CLRF   41
....................          } 
....................          printf("h0.val=%u",cicloVisto+1); 
0BB14:  MOVLW  01
0BB16:  MOVLB  2
0BB18:  ADDWF  xBB,W
0BB1A:  MOVLB  6
0BB1C:  MOVWF  xCA
0BB1E:  MOVLW  04
0BB20:  MOVWF  FF6
0BB22:  MOVLW  14
0BB24:  MOVWF  FF7
0BB26:  MOVLW  00
0BB28:  MOVWF  FF8
0BB2A:  MOVLW  07
0BB2C:  MOVWF  xCF
0BB2E:  MOVLB  0
0BB30:  CALL   5C56
0BB34:  MOVFF  6CA,6CF
0BB38:  MOVLW  1B
0BB3A:  MOVLB  6
0BB3C:  MOVWF  xD0
0BB3E:  MOVLB  0
0BB40:  CALL   5CDA
....................          SendDataDisplay();    
0BB44:  CALL   41EE
....................          printf("h1.val=%u",cicloVisualizado+1); 
0BB48:  MOVLW  01
0BB4A:  MOVLB  2
0BB4C:  ADDWF  xBA,W
0BB4E:  MOVLB  6
0BB50:  MOVWF  xCA
0BB52:  MOVLW  0E
0BB54:  MOVWF  FF6
0BB56:  MOVLW  14
0BB58:  MOVWF  FF7
0BB5A:  MOVLW  00
0BB5C:  MOVWF  FF8
0BB5E:  MOVLW  07
0BB60:  MOVWF  xCF
0BB62:  MOVLB  0
0BB64:  CALL   5C56
0BB68:  MOVFF  6CA,6CF
0BB6C:  MOVLW  1B
0BB6E:  MOVLB  6
0BB70:  MOVWF  xD0
0BB72:  MOVLB  0
0BB74:  CALL   5CDA
....................          SendDataDisplay();    
0BB78:  CALL   41EE
....................          diaCiclos=read_ext_eeprom(2+(cicloVisto*320)); 
0BB7C:  MOVLB  6
0BB7E:  CLRF   xD5
0BB80:  MOVFF  2BB,6D4
0BB84:  MOVLW  01
0BB86:  MOVWF  xD7
0BB88:  MOVLW  40
0BB8A:  MOVWF  xD6
0BB8C:  MOVLB  0
0BB8E:  CALL   25B4
0BB92:  MOVFF  02,03
0BB96:  MOVF   01,W
0BB98:  ADDLW  02
0BB9A:  MOVLB  6
0BB9C:  MOVWF  xCA
0BB9E:  MOVLW  00
0BBA0:  ADDWFC 02,W
0BBA2:  MOVWF  xCB
0BBA4:  MOVWF  xD0
0BBA6:  MOVFF  6CA,6CF
0BBAA:  MOVLB  0
0BBAC:  CALL   26B6
0BBB0:  MOVFF  01,331
....................          if(diaCiclos>31) 
0BBB4:  MOVLB  3
0BBB6:  MOVF   x31,W
0BBB8:  SUBLW  1F
0BBBA:  BC    BBC0
....................             diaCiclos=1; 
0BBBC:  MOVLW  01
0BBBE:  MOVWF  x31
....................          mesCiclos=read_ext_eeprom(3+(cicloVisto*320)); 
0BBC0:  MOVLB  6
0BBC2:  CLRF   xD5
0BBC4:  MOVFF  2BB,6D4
0BBC8:  MOVLW  01
0BBCA:  MOVWF  xD7
0BBCC:  MOVLW  40
0BBCE:  MOVWF  xD6
0BBD0:  MOVLB  0
0BBD2:  CALL   25B4
0BBD6:  MOVFF  02,03
0BBDA:  MOVF   01,W
0BBDC:  ADDLW  03
0BBDE:  MOVLB  6
0BBE0:  MOVWF  xCA
0BBE2:  MOVLW  00
0BBE4:  ADDWFC 02,W
0BBE6:  MOVWF  xCB
0BBE8:  MOVWF  xD0
0BBEA:  MOVFF  6CA,6CF
0BBEE:  MOVLB  0
0BBF0:  CALL   26B6
0BBF4:  MOVFF  01,332
....................          if(mesCiclos>12) 
0BBF8:  MOVLB  3
0BBFA:  MOVF   x32,W
0BBFC:  SUBLW  0C
0BBFE:  BC    BC04
....................             mesCiclos=1; 
0BC00:  MOVLW  01
0BC02:  MOVWF  x32
....................          yearCiclos=read_ext_eeprom(4+(cicloVisto*320)); 
0BC04:  MOVLB  6
0BC06:  CLRF   xD5
0BC08:  MOVFF  2BB,6D4
0BC0C:  MOVLW  01
0BC0E:  MOVWF  xD7
0BC10:  MOVLW  40
0BC12:  MOVWF  xD6
0BC14:  MOVLB  0
0BC16:  CALL   25B4
0BC1A:  MOVFF  02,03
0BC1E:  MOVF   01,W
0BC20:  ADDLW  04
0BC22:  MOVLB  6
0BC24:  MOVWF  xCA
0BC26:  MOVLW  00
0BC28:  ADDWFC 02,W
0BC2A:  MOVWF  xCB
0BC2C:  MOVWF  xD0
0BC2E:  MOVFF  6CA,6CF
0BC32:  MOVLB  0
0BC34:  CALL   26B6
0BC38:  MOVFF  01,333
....................          if(yearCiclos>99) 
0BC3C:  MOVLB  3
0BC3E:  MOVF   x33,W
0BC40:  SUBLW  63
0BC42:  BC    BC48
....................             yearCiclos=19; 
0BC44:  MOVLW  13
0BC46:  MOVWF  x33
....................          cicloCiclos=read_ext_eeprom(1+(cicloVisto*320)); 
0BC48:  MOVLB  6
0BC4A:  CLRF   xD5
0BC4C:  MOVFF  2BB,6D4
0BC50:  MOVLW  01
0BC52:  MOVWF  xD7
0BC54:  MOVLW  40
0BC56:  MOVWF  xD6
0BC58:  MOVLB  0
0BC5A:  CALL   25B4
0BC5E:  MOVFF  02,03
0BC62:  MOVF   01,W
0BC64:  ADDLW  01
0BC66:  MOVLB  6
0BC68:  MOVWF  xCA
0BC6A:  MOVLW  00
0BC6C:  ADDWFC 02,W
0BC6E:  MOVWF  xCB
0BC70:  MOVWF  xD0
0BC72:  MOVFF  6CA,6CF
0BC76:  MOVLB  0
0BC78:  CALL   26B6
0BC7C:  MOVFF  01,335
....................          if(cicloCiclos>20) 
0BC80:  MOVLB  3
0BC82:  MOVF   x35,W
0BC84:  SUBLW  14
0BC86:  BC    BC8C
....................             cicloCiclos=1; 
0BC88:  MOVLW  01
0BC8A:  MOVWF  x35
....................          usuarioCiclos=read_ext_eeprom((cicloVisto*320)); 
0BC8C:  MOVLB  6
0BC8E:  CLRF   xD5
0BC90:  MOVFF  2BB,6D4
0BC94:  MOVLW  01
0BC96:  MOVWF  xD7
0BC98:  MOVLW  40
0BC9A:  MOVWF  xD6
0BC9C:  MOVLB  0
0BC9E:  CALL   25B4
0BCA2:  MOVFF  02,6CB
0BCA6:  MOVFF  01,6CA
0BCAA:  MOVFF  02,6D0
0BCAE:  MOVFF  01,6CF
0BCB2:  CALL   26B6
0BCB6:  MOVFF  01,334
....................          if(usuarioCiclos>10) 
0BCBA:  MOVLB  3
0BCBC:  MOVF   x34,W
0BCBE:  SUBLW  0A
0BCC0:  BC    BCC6
....................             usuarioCiclos=1; 
0BCC2:  MOVLW  01
0BCC4:  MOVWF  x34
....................          for(i=0;i<7;i++){//Lee Valores para completar la Tabla 
0BCC6:  MOVLB  2
0BCC8:  CLRF   x73
0BCCA:  MOVF   x73,W
0BCCC:  SUBLW  06
0BCCE:  BTFSS  FD8.0
0BCD0:  BRA    C214
....................             horaCiclos[i]=read_ext_eeprom((cicloVisto*320)+11+((cicloVisualizado+i)*9)); 
0BCD2:  CLRF   03
0BCD4:  MOVF   x73,W
0BCD6:  ADDLW  1C
0BCD8:  MOVWF  01
0BCDA:  MOVLW  03
0BCDC:  ADDWFC 03,F
0BCDE:  MOVFF  01,6CA
0BCE2:  MOVLB  6
0BCE4:  MOVFF  03,6CB
0BCE8:  CLRF   xD5
0BCEA:  MOVFF  2BB,6D4
0BCEE:  MOVLW  01
0BCF0:  MOVWF  xD7
0BCF2:  MOVLW  40
0BCF4:  MOVWF  xD6
0BCF6:  MOVLB  0
0BCF8:  CALL   25B4
0BCFC:  MOVFF  02,6CD
0BD00:  MOVFF  01,6CC
0BD04:  MOVLW  0B
0BD06:  MOVLB  6
0BD08:  ADDWF  xCC,F
0BD0A:  MOVLW  00
0BD0C:  ADDWFC xCD,F
0BD0E:  MOVLB  2
0BD10:  MOVF   x73,W
0BD12:  ADDWF  xBA,W
0BD14:  MULLW  09
0BD16:  MOVF   FF3,W
0BD18:  MOVLB  6
0BD1A:  ADDWF  xCC,F
0BD1C:  MOVLW  00
0BD1E:  ADDWFC xCD,F
0BD20:  MOVFF  6CD,6D0
0BD24:  MOVFF  6CC,6CF
0BD28:  MOVLB  0
0BD2A:  CALL   26B6
0BD2E:  MOVFF  6CB,FEA
0BD32:  MOVFF  6CA,FE9
0BD36:  MOVFF  01,FEF
....................             if(horaCiclos[i]>24) 
0BD3A:  CLRF   03
0BD3C:  MOVLB  2
0BD3E:  MOVF   x73,W
0BD40:  ADDLW  1C
0BD42:  MOVWF  FE9
0BD44:  MOVLW  03
0BD46:  ADDWFC 03,W
0BD48:  MOVWF  FEA
0BD4A:  MOVF   FEF,W
0BD4C:  SUBLW  18
0BD4E:  BC    BD60
....................                horaCiclos[i]=0; 
0BD50:  CLRF   03
0BD52:  MOVF   x73,W
0BD54:  ADDLW  1C
0BD56:  MOVWF  FE9
0BD58:  MOVLW  03
0BD5A:  ADDWFC 03,W
0BD5C:  MOVWF  FEA
0BD5E:  CLRF   FEF
....................             minutoCiclos[i]=read_ext_eeprom((cicloVisto*320)+12+((cicloVisualizado+i)*9)); 
0BD60:  CLRF   03
0BD62:  MOVF   x73,W
0BD64:  ADDLW  23
0BD66:  MOVWF  01
0BD68:  MOVLW  03
0BD6A:  ADDWFC 03,F
0BD6C:  MOVFF  01,6CA
0BD70:  MOVLB  6
0BD72:  MOVFF  03,6CB
0BD76:  CLRF   xD5
0BD78:  MOVFF  2BB,6D4
0BD7C:  MOVLW  01
0BD7E:  MOVWF  xD7
0BD80:  MOVLW  40
0BD82:  MOVWF  xD6
0BD84:  MOVLB  0
0BD86:  CALL   25B4
0BD8A:  MOVFF  02,6CD
0BD8E:  MOVFF  01,6CC
0BD92:  MOVLW  0C
0BD94:  MOVLB  6
0BD96:  ADDWF  xCC,F
0BD98:  MOVLW  00
0BD9A:  ADDWFC xCD,F
0BD9C:  MOVLB  2
0BD9E:  MOVF   x73,W
0BDA0:  ADDWF  xBA,W
0BDA2:  MULLW  09
0BDA4:  MOVF   FF3,W
0BDA6:  MOVLB  6
0BDA8:  ADDWF  xCC,F
0BDAA:  MOVLW  00
0BDAC:  ADDWFC xCD,F
0BDAE:  MOVFF  6CD,6D0
0BDB2:  MOVFF  6CC,6CF
0BDB6:  MOVLB  0
0BDB8:  CALL   26B6
0BDBC:  MOVFF  6CB,FEA
0BDC0:  MOVFF  6CA,FE9
0BDC4:  MOVFF  01,FEF
....................             if(minutoCiclos[i]>59) 
0BDC8:  CLRF   03
0BDCA:  MOVLB  2
0BDCC:  MOVF   x73,W
0BDCE:  ADDLW  23
0BDD0:  MOVWF  FE9
0BDD2:  MOVLW  03
0BDD4:  ADDWFC 03,W
0BDD6:  MOVWF  FEA
0BDD8:  MOVF   FEF,W
0BDDA:  SUBLW  3B
0BDDC:  BC    BDEE
....................                minutoCiclos[i]=0; 
0BDDE:  CLRF   03
0BDE0:  MOVF   x73,W
0BDE2:  ADDLW  23
0BDE4:  MOVWF  FE9
0BDE6:  MOVLW  03
0BDE8:  ADDWFC 03,W
0BDEA:  MOVWF  FEA
0BDEC:  CLRF   FEF
....................             TCiclos[i]=read_ext_eeprom((cicloVisto*320)+5+((cicloVisualizado+i)*9))+inttofloat(read_ext_eeprom((cicloVisto*320)+6+((cicloVisualizado+i)*9))); 
0BDEE:  MOVF   x73,W
0BDF0:  MULLW  04
0BDF2:  MOVF   FF3,W
0BDF4:  CLRF   03
0BDF6:  ADDLW  E4
0BDF8:  MOVWF  01
0BDFA:  MOVLW  02
0BDFC:  ADDWFC 03,F
0BDFE:  MOVFF  01,6CA
0BE02:  MOVLB  6
0BE04:  MOVFF  03,6CB
0BE08:  CLRF   xD5
0BE0A:  MOVFF  2BB,6D4
0BE0E:  MOVLW  01
0BE10:  MOVWF  xD7
0BE12:  MOVLW  40
0BE14:  MOVWF  xD6
0BE16:  MOVLB  0
0BE18:  CALL   25B4
0BE1C:  MOVFF  02,6CD
0BE20:  MOVFF  01,6CC
0BE24:  MOVLW  05
0BE26:  MOVLB  6
0BE28:  ADDWF  xCC,F
0BE2A:  MOVLW  00
0BE2C:  ADDWFC xCD,F
0BE2E:  MOVLB  2
0BE30:  MOVF   x73,W
0BE32:  ADDWF  xBA,W
0BE34:  MULLW  09
0BE36:  MOVF   FF3,W
0BE38:  MOVLB  6
0BE3A:  ADDWF  xCC,F
0BE3C:  MOVLW  00
0BE3E:  ADDWFC xCD,F
0BE40:  MOVFF  6CD,6D0
0BE44:  MOVFF  6CC,6CF
0BE48:  MOVLB  0
0BE4A:  CALL   26B6
0BE4E:  MOVFF  01,6CC
0BE52:  MOVLB  6
0BE54:  CLRF   xD5
0BE56:  MOVFF  2BB,6D4
0BE5A:  MOVLW  01
0BE5C:  MOVWF  xD7
0BE5E:  MOVLW  40
0BE60:  MOVWF  xD6
0BE62:  MOVLB  0
0BE64:  CALL   25B4
0BE68:  MOVFF  02,6CE
0BE6C:  MOVFF  01,6CD
0BE70:  MOVLW  06
0BE72:  MOVLB  6
0BE74:  ADDWF  xCD,F
0BE76:  MOVLW  00
0BE78:  ADDWFC xCE,F
0BE7A:  MOVLB  2
0BE7C:  MOVF   x73,W
0BE7E:  ADDWF  xBA,W
0BE80:  MULLW  09
0BE82:  MOVF   FF3,W
0BE84:  MOVLB  6
0BE86:  ADDWF  xCD,F
0BE88:  MOVLW  00
0BE8A:  ADDWFC xCE,F
0BE8C:  MOVFF  6CE,6D0
0BE90:  MOVFF  6CD,6CF
0BE94:  MOVLB  0
0BE96:  CALL   26B6
0BE9A:  MOVFF  01,6CD
0BE9E:  MOVFF  01,6CE
0BEA2:  CALL   275E
0BEA6:  MOVFF  00,6CD
0BEAA:  MOVFF  01,6CE
0BEAE:  MOVFF  02,6CF
0BEB2:  MOVFF  03,6D0
0BEB6:  MOVLB  6
0BEB8:  CLRF   xDD
0BEBA:  MOVFF  6CC,6DC
0BEBE:  MOVLB  0
0BEC0:  CALL   210C
0BEC4:  MOVFF  FEA,6D2
0BEC8:  MOVFF  FE9,6D1
0BECC:  BCF    FD8.1
0BECE:  MOVFF  03,6DF
0BED2:  MOVFF  02,6DE
0BED6:  MOVFF  01,6DD
0BEDA:  MOVFF  00,6DC
0BEDE:  MOVFF  6D0,6E3
0BEE2:  MOVFF  6CF,6E2
0BEE6:  MOVFF  6CE,6E1
0BEEA:  MOVFF  6CD,6E0
0BEEE:  CALL   22C8
0BEF2:  MOVFF  6D2,FEA
0BEF6:  MOVFF  6D1,FE9
0BEFA:  MOVFF  6CB,FEA
0BEFE:  MOVFF  6CA,FE9
0BF02:  MOVFF  00,FEF
0BF06:  MOVFF  01,FEC
0BF0A:  MOVFF  02,FEC
0BF0E:  MOVFF  03,FEC
....................             if(TCiclos[i]>150) 
0BF12:  MOVLB  2
0BF14:  MOVF   x73,W
0BF16:  MULLW  04
0BF18:  MOVF   FF3,W
0BF1A:  CLRF   03
0BF1C:  ADDLW  E4
0BF1E:  MOVWF  FE9
0BF20:  MOVLW  02
0BF22:  ADDWFC 03,W
0BF24:  MOVWF  FEA
0BF26:  MOVFF  FEF,6CA
0BF2A:  MOVFF  FEC,6CB
0BF2E:  MOVFF  FEC,6CC
0BF32:  MOVFF  FEC,6CD
0BF36:  MOVLB  6
0BF38:  CLRF   xD1
0BF3A:  CLRF   xD0
0BF3C:  MOVLW  16
0BF3E:  MOVWF  xCF
0BF40:  MOVLW  86
0BF42:  MOVWF  xCE
0BF44:  MOVFF  6CD,6D5
0BF48:  MOVFF  6CC,6D4
0BF4C:  MOVFF  6CB,6D3
0BF50:  MOVFF  6CA,6D2
0BF54:  MOVLB  0
0BF56:  CALL   279E
0BF5A:  BNC   BF7A
....................                TCiclos[i]=0; 
0BF5C:  MOVLB  2
0BF5E:  MOVF   x73,W
0BF60:  MULLW  04
0BF62:  MOVF   FF3,W
0BF64:  CLRF   03
0BF66:  ADDLW  E4
0BF68:  MOVWF  FE9
0BF6A:  MOVLW  02
0BF6C:  ADDWFC 03,W
0BF6E:  MOVWF  FEA
0BF70:  CLRF   FEF
0BF72:  CLRF   FEC
0BF74:  CLRF   FEC
0BF76:  CLRF   FEC
0BF78:  MOVLB  0
....................             PcCiclos[i]=make16(read_ext_eeprom((cicloVisto*320)+7+((cicloVisualizado+i)*9)),read_ext_eeprom((cicloVisto*320)+8+((cicloVisualizado+i)*9))); 
0BF7A:  BCF    FD8.0
0BF7C:  MOVLB  2
0BF7E:  RLCF   x73,W
0BF80:  CLRF   03
0BF82:  MOVWF  01
0BF84:  MOVLW  03
0BF86:  ADDWF  03,F
0BF88:  MOVFF  01,6CA
0BF8C:  MOVLB  6
0BF8E:  MOVFF  03,6CB
0BF92:  CLRF   xD5
0BF94:  MOVFF  2BB,6D4
0BF98:  MOVLW  01
0BF9A:  MOVWF  xD7
0BF9C:  MOVLW  40
0BF9E:  MOVWF  xD6
0BFA0:  MOVLB  0
0BFA2:  CALL   25B4
0BFA6:  MOVFF  02,6CD
0BFAA:  MOVFF  01,6CC
0BFAE:  MOVLW  07
0BFB0:  MOVLB  6
0BFB2:  ADDWF  xCC,F
0BFB4:  MOVLW  00
0BFB6:  ADDWFC xCD,F
0BFB8:  MOVLB  2
0BFBA:  MOVF   x73,W
0BFBC:  ADDWF  xBA,W
0BFBE:  MULLW  09
0BFC0:  MOVF   FF3,W
0BFC2:  MOVLB  6
0BFC4:  ADDWF  xCC,F
0BFC6:  MOVLW  00
0BFC8:  ADDWFC xCD,F
0BFCA:  MOVFF  6CD,6D0
0BFCE:  MOVFF  6CC,6CF
0BFD2:  MOVLB  0
0BFD4:  CALL   26B6
0BFD8:  MOVFF  01,6CC
0BFDC:  MOVLB  6
0BFDE:  CLRF   xD5
0BFE0:  MOVFF  2BB,6D4
0BFE4:  MOVLW  01
0BFE6:  MOVWF  xD7
0BFE8:  MOVLW  40
0BFEA:  MOVWF  xD6
0BFEC:  MOVLB  0
0BFEE:  CALL   25B4
0BFF2:  MOVFF  02,6CE
0BFF6:  MOVFF  01,6CD
0BFFA:  MOVLW  08
0BFFC:  MOVLB  6
0BFFE:  ADDWF  xCD,F
0C000:  MOVLW  00
0C002:  ADDWFC xCE,F
0C004:  MOVLB  2
0C006:  MOVF   x73,W
0C008:  ADDWF  xBA,W
0C00A:  MULLW  09
0C00C:  MOVF   FF3,W
0C00E:  MOVLB  6
0C010:  ADDWF  xCD,F
0C012:  MOVLW  00
0C014:  ADDWFC xCE,F
0C016:  MOVFF  6CE,6D0
0C01A:  MOVFF  6CD,6CF
0C01E:  MOVLB  0
0C020:  CALL   26B6
0C024:  MOVFF  6CB,FEA
0C028:  MOVFF  6CA,FE9
0C02C:  MOVFF  6CC,FEC
0C030:  MOVF   FED,F
0C032:  MOVFF  01,FEF
....................             if(PcCiclos[i]>400) 
0C036:  BCF    FD8.0
0C038:  MOVLB  2
0C03A:  RLCF   x73,W
0C03C:  CLRF   03
0C03E:  MOVWF  FE9
0C040:  MOVLW  03
0C042:  ADDWF  03,W
0C044:  MOVWF  FEA
0C046:  MOVFF  FEC,6CB
0C04A:  MOVF   FED,F
0C04C:  MOVFF  FEF,6CA
0C050:  MOVLB  6
0C052:  MOVF   xCB,W
0C054:  SUBLW  00
0C056:  BC    C07A
0C058:  XORLW  FF
0C05A:  BNZ   C062
0C05C:  MOVF   xCA,W
0C05E:  SUBLW  90
0C060:  BC    C07A
....................                PcCiclos[i]=0; 
0C062:  BCF    FD8.0
0C064:  MOVLB  2
0C066:  RLCF   x73,W
0C068:  CLRF   03
0C06A:  MOVWF  FE9
0C06C:  MOVLW  03
0C06E:  ADDWF  03,W
0C070:  MOVWF  FEA
0C072:  CLRF   FEC
0C074:  MOVF   FED,F
0C076:  CLRF   FEF
0C078:  MOVLB  6
....................             PpcCiclos[i]=make16(read_ext_eeprom((cicloVisto*320)+9+((cicloVisualizado+i)*9)),read_ext_eeprom((cicloVisto*320)+10+((cicloVisualizado+i)*9))); 
0C07A:  BCF    FD8.0
0C07C:  MOVLB  2
0C07E:  RLCF   x73,W
0C080:  CLRF   03
0C082:  ADDLW  0E
0C084:  MOVWF  01
0C086:  MOVLW  03
0C088:  ADDWFC 03,F
0C08A:  MOVFF  01,6CA
0C08E:  MOVLB  6
0C090:  MOVFF  03,6CB
0C094:  CLRF   xD5
0C096:  MOVFF  2BB,6D4
0C09A:  MOVLW  01
0C09C:  MOVWF  xD7
0C09E:  MOVLW  40
0C0A0:  MOVWF  xD6
0C0A2:  MOVLB  0
0C0A4:  CALL   25B4
0C0A8:  MOVFF  02,6CD
0C0AC:  MOVFF  01,6CC
0C0B0:  MOVLW  09
0C0B2:  MOVLB  6
0C0B4:  ADDWF  xCC,F
0C0B6:  MOVLW  00
0C0B8:  ADDWFC xCD,F
0C0BA:  MOVLB  2
0C0BC:  MOVF   x73,W
0C0BE:  ADDWF  xBA,W
0C0C0:  MULLW  09
0C0C2:  MOVF   FF3,W
0C0C4:  MOVLB  6
0C0C6:  ADDWF  xCC,F
0C0C8:  MOVLW  00
0C0CA:  ADDWFC xCD,F
0C0CC:  MOVFF  6CD,6D0
0C0D0:  MOVFF  6CC,6CF
0C0D4:  MOVLB  0
0C0D6:  CALL   26B6
0C0DA:  MOVFF  01,6CC
0C0DE:  MOVLB  6
0C0E0:  CLRF   xD5
0C0E2:  MOVFF  2BB,6D4
0C0E6:  MOVLW  01
0C0E8:  MOVWF  xD7
0C0EA:  MOVLW  40
0C0EC:  MOVWF  xD6
0C0EE:  MOVLB  0
0C0F0:  CALL   25B4
0C0F4:  MOVFF  02,6CE
0C0F8:  MOVFF  01,6CD
0C0FC:  MOVLW  0A
0C0FE:  MOVLB  6
0C100:  ADDWF  xCD,F
0C102:  MOVLW  00
0C104:  ADDWFC xCE,F
0C106:  MOVLB  2
0C108:  MOVF   x73,W
0C10A:  ADDWF  xBA,W
0C10C:  MULLW  09
0C10E:  MOVF   FF3,W
0C110:  MOVLB  6
0C112:  ADDWF  xCD,F
0C114:  MOVLW  00
0C116:  ADDWFC xCE,F
0C118:  MOVFF  6CE,6D0
0C11C:  MOVFF  6CD,6CF
0C120:  MOVLB  0
0C122:  CALL   26B6
0C126:  MOVFF  6CB,FEA
0C12A:  MOVFF  6CA,FE9
0C12E:  MOVFF  6CC,FEC
0C132:  MOVF   FED,F
0C134:  MOVFF  01,FEF
....................             if(PpcCiclos[i]>400) 
0C138:  BCF    FD8.0
0C13A:  MOVLB  2
0C13C:  RLCF   x73,W
0C13E:  CLRF   03
0C140:  ADDLW  0E
0C142:  MOVWF  FE9
0C144:  MOVLW  03
0C146:  ADDWFC 03,W
0C148:  MOVWF  FEA
0C14A:  MOVFF  FEC,6CB
0C14E:  MOVF   FED,F
0C150:  MOVFF  FEF,6CA
0C154:  MOVLB  6
0C156:  MOVF   xCB,W
0C158:  SUBLW  00
0C15A:  BC    C180
0C15C:  XORLW  FF
0C15E:  BNZ   C166
0C160:  MOVF   xCA,W
0C162:  SUBLW  90
0C164:  BC    C180
....................                PpcCiclos[i]=0; 
0C166:  BCF    FD8.0
0C168:  MOVLB  2
0C16A:  RLCF   x73,W
0C16C:  CLRF   03
0C16E:  ADDLW  0E
0C170:  MOVWF  FE9
0C172:  MOVLW  03
0C174:  ADDWFC 03,W
0C176:  MOVWF  FEA
0C178:  CLRF   FEC
0C17A:  MOVF   FED,F
0C17C:  CLRF   FEF
0C17E:  MOVLB  6
....................             ACiclos[i]=read_ext_eeprom((cicloVisto*320)+13+((cicloVisualizado+i)*9)); 
0C180:  CLRF   03
0C182:  MOVLB  2
0C184:  MOVF   x73,W
0C186:  ADDLW  2A
0C188:  MOVWF  01
0C18A:  MOVLW  03
0C18C:  ADDWFC 03,F
0C18E:  MOVFF  01,6CA
0C192:  MOVLB  6
0C194:  MOVFF  03,6CB
0C198:  CLRF   xD5
0C19A:  MOVFF  2BB,6D4
0C19E:  MOVLW  01
0C1A0:  MOVWF  xD7
0C1A2:  MOVLW  40
0C1A4:  MOVWF  xD6
0C1A6:  MOVLB  0
0C1A8:  CALL   25B4
0C1AC:  MOVFF  02,6CD
0C1B0:  MOVFF  01,6CC
0C1B4:  MOVLW  0D
0C1B6:  MOVLB  6
0C1B8:  ADDWF  xCC,F
0C1BA:  MOVLW  00
0C1BC:  ADDWFC xCD,F
0C1BE:  MOVLB  2
0C1C0:  MOVF   x73,W
0C1C2:  ADDWF  xBA,W
0C1C4:  MULLW  09
0C1C6:  MOVF   FF3,W
0C1C8:  MOVLB  6
0C1CA:  ADDWF  xCC,F
0C1CC:  MOVLW  00
0C1CE:  ADDWFC xCD,F
0C1D0:  MOVFF  6CD,6D0
0C1D4:  MOVFF  6CC,6CF
0C1D8:  MOVLB  0
0C1DA:  CALL   26B6
0C1DE:  MOVFF  6CB,FEA
0C1E2:  MOVFF  6CA,FE9
0C1E6:  MOVFF  01,FEF
....................             if(ACiclos[i]>20) 
0C1EA:  CLRF   03
0C1EC:  MOVLB  2
0C1EE:  MOVF   x73,W
0C1F0:  ADDLW  2A
0C1F2:  MOVWF  FE9
0C1F4:  MOVLW  03
0C1F6:  ADDWFC 03,W
0C1F8:  MOVWF  FEA
0C1FA:  MOVF   FEF,W
0C1FC:  SUBLW  14
0C1FE:  BC    C210
....................                ACiclos[i]=0; 
0C200:  CLRF   03
0C202:  MOVF   x73,W
0C204:  ADDLW  2A
0C206:  MOVWF  FE9
0C208:  MOVLW  03
0C20A:  ADDWFC 03,W
0C20C:  MOVWF  FEA
0C20E:  CLRF   FEF
....................          } 
0C210:  INCF   x73,F
0C212:  BRA    BCCA
0C214:  MOVLB  0
....................           
....................       } 
....................        
....................       //Imprime Valores Estaticos 
....................       printf("fecha.txt=\"%02u/%02u/%02u\"",diaCiclos,mesCiclos,yearCiclos); 
0C216:  MOVLW  18
0C218:  MOVWF  FF6
0C21A:  MOVLW  14
0C21C:  MOVWF  FF7
0C21E:  MOVLW  00
0C220:  MOVWF  FF8
0C222:  MOVLW  0B
0C224:  MOVLB  6
0C226:  MOVWF  xCF
0C228:  MOVLB  0
0C22A:  CALL   5C56
0C22E:  MOVFF  331,6CF
0C232:  MOVLW  01
0C234:  MOVLB  6
0C236:  MOVWF  xD0
0C238:  MOVLB  0
0C23A:  CALL   5CDA
0C23E:  MOVLW  2F
0C240:  BTFSS  F9E.4
0C242:  BRA    C240
0C244:  MOVWF  FAD
0C246:  MOVFF  332,6CF
0C24A:  MOVLW  01
0C24C:  MOVLB  6
0C24E:  MOVWF  xD0
0C250:  MOVLB  0
0C252:  CALL   5CDA
0C256:  MOVLW  2F
0C258:  BTFSS  F9E.4
0C25A:  BRA    C258
0C25C:  MOVWF  FAD
0C25E:  MOVFF  333,6CF
0C262:  MOVLW  01
0C264:  MOVLB  6
0C266:  MOVWF  xD0
0C268:  MOVLB  0
0C26A:  CALL   5CDA
0C26E:  MOVLW  22
0C270:  BTFSS  F9E.4
0C272:  BRA    C270
0C274:  MOVWF  FAD
....................       SendDataDisplay(); 
0C276:  CALL   41EE
....................        
....................       printf("ciclo.txt=\"%02u\"",cicloCiclos); 
0C27A:  MOVLW  34
0C27C:  MOVWF  FF6
0C27E:  MOVLW  14
0C280:  MOVWF  FF7
0C282:  MOVLW  00
0C284:  MOVWF  FF8
0C286:  MOVLW  0B
0C288:  MOVLB  6
0C28A:  MOVWF  xCF
0C28C:  MOVLB  0
0C28E:  CALL   5C56
0C292:  MOVFF  335,6CF
0C296:  MOVLW  01
0C298:  MOVLB  6
0C29A:  MOVWF  xD0
0C29C:  MOVLB  0
0C29E:  CALL   5CDA
0C2A2:  MOVLW  22
0C2A4:  BTFSS  F9E.4
0C2A6:  BRA    C2A4
0C2A8:  MOVWF  FAD
....................       SendDataDisplay(); 
0C2AA:  CALL   41EE
....................        
....................       printf("t0.txt=\"Ciclo %02u\"",cicloVisto); 
0C2AE:  MOVLW  46
0C2B0:  MOVWF  FF6
0C2B2:  MOVLW  14
0C2B4:  MOVWF  FF7
0C2B6:  MOVLW  00
0C2B8:  MOVWF  FF8
0C2BA:  MOVLW  0E
0C2BC:  MOVLB  6
0C2BE:  MOVWF  xCF
0C2C0:  MOVLB  0
0C2C2:  CALL   5C56
0C2C6:  MOVFF  2BB,6CF
0C2CA:  MOVLW  01
0C2CC:  MOVLB  6
0C2CE:  MOVWF  xD0
0C2D0:  MOVLB  0
0C2D2:  CALL   5CDA
0C2D6:  MOVLW  22
0C2D8:  BTFSS  F9E.4
0C2DA:  BRA    C2D8
0C2DC:  MOVWF  FAD
....................       SendDataDisplay(); 
0C2DE:  CALL   41EE
....................        
....................       if(usuarioCiclos==0){ 
0C2E2:  MOVLB  3
0C2E4:  MOVF   x34,F
0C2E6:  BNZ   C302
....................          printf("usuario.txt=\"Admin\""); 
0C2E8:  MOVLW  5A
0C2EA:  MOVWF  FF6
0C2EC:  MOVLW  14
0C2EE:  MOVWF  FF7
0C2F0:  MOVLW  00
0C2F2:  MOVWF  FF8
0C2F4:  MOVLB  0
0C2F6:  CALL   41BC
....................          SendDataDisplay(); 
0C2FA:  CALL   41EE
....................       }else if(usuarioCiclos>0 && usuarioCiclos<9){ 
0C2FE:  BRA    C360
0C300:  MOVLB  3
0C302:  MOVF   x34,F
0C304:  BZ    C344
0C306:  MOVF   x34,W
0C308:  SUBLW  08
0C30A:  BNC   C344
....................          printf("usuario.txt=\"Operador%u\"",usuarioCiclos); 
0C30C:  MOVLW  6E
0C30E:  MOVWF  FF6
0C310:  MOVLW  14
0C312:  MOVWF  FF7
0C314:  MOVLW  00
0C316:  MOVWF  FF8
0C318:  MOVLW  15
0C31A:  MOVLB  6
0C31C:  MOVWF  xCF
0C31E:  MOVLB  0
0C320:  CALL   5C56
0C324:  MOVFF  334,6CF
0C328:  MOVLW  1B
0C32A:  MOVLB  6
0C32C:  MOVWF  xD0
0C32E:  MOVLB  0
0C330:  CALL   5CDA
0C334:  MOVLW  22
0C336:  BTFSS  F9E.4
0C338:  BRA    C336
0C33A:  MOVWF  FAD
....................          SendDataDisplay(); 
0C33C:  CALL   41EE
....................       }else if(usuarioCiclos==9){ 
0C340:  BRA    C360
0C342:  MOVLB  3
0C344:  MOVF   x34,W
0C346:  SUBLW  09
0C348:  BNZ   C360
....................          printf("usuario.txt=\"Tecnico\""); 
0C34A:  MOVLW  88
0C34C:  MOVWF  FF6
0C34E:  MOVLW  14
0C350:  MOVWF  FF7
0C352:  MOVLW  00
0C354:  MOVWF  FF8
0C356:  MOVLB  0
0C358:  CALL   41BC
....................          SendDataDisplay(); 
0C35C:  CALL   41EE
....................       } 
....................        
....................       //Imprime Valores Dinamicos 
....................       for(i=0;i<7;i++){ 
0C360:  MOVLB  2
0C362:  CLRF   x73
0C364:  MOVF   x73,W
0C366:  SUBLW  06
0C368:  BTFSS  FD8.0
0C36A:  BRA    C600
....................          printf("hora%u.txt=\"%02u.  %02u:%02u\"",i+1,cicloVisualizado+i+1,horaCiclos[i],minutoCiclos[i]); 
0C36C:  MOVLW  01
0C36E:  ADDWF  x73,W
0C370:  MOVLB  6
0C372:  MOVWF  xCA
0C374:  MOVLB  2
0C376:  MOVF   x73,W
0C378:  ADDWF  xBA,W
0C37A:  ADDLW  01
0C37C:  MOVLB  6
0C37E:  MOVWF  xCB
0C380:  CLRF   03
0C382:  MOVLB  2
0C384:  MOVF   x73,W
0C386:  ADDLW  1C
0C388:  MOVWF  FE9
0C38A:  MOVLW  03
0C38C:  ADDWFC 03,W
0C38E:  MOVWF  FEA
0C390:  MOVFF  FEF,6CC
0C394:  CLRF   03
0C396:  MOVF   x73,W
0C398:  ADDLW  23
0C39A:  MOVWF  FE9
0C39C:  MOVLW  03
0C39E:  ADDWFC 03,W
0C3A0:  MOVWF  FEA
0C3A2:  MOVFF  FEF,6CD
0C3A6:  MOVLW  9E
0C3A8:  MOVWF  FF6
0C3AA:  MOVLW  14
0C3AC:  MOVWF  FF7
0C3AE:  MOVLW  00
0C3B0:  MOVWF  FF8
0C3B2:  MOVLW  04
0C3B4:  MOVLB  6
0C3B6:  MOVWF  xCF
0C3B8:  MOVLB  0
0C3BA:  CALL   5C56
0C3BE:  MOVFF  6CA,6CF
0C3C2:  MOVLW  1B
0C3C4:  MOVLB  6
0C3C6:  MOVWF  xD0
0C3C8:  MOVLB  0
0C3CA:  CALL   5CDA
0C3CE:  MOVLW  A4
0C3D0:  MOVWF  FF6
0C3D2:  MOVLW  14
0C3D4:  MOVWF  FF7
0C3D6:  MOVLW  00
0C3D8:  MOVWF  FF8
0C3DA:  MOVLW  06
0C3DC:  MOVLB  6
0C3DE:  MOVWF  xCF
0C3E0:  MOVLB  0
0C3E2:  CALL   5C56
0C3E6:  MOVFF  6CB,6CF
0C3EA:  MOVLW  01
0C3EC:  MOVLB  6
0C3EE:  MOVWF  xD0
0C3F0:  MOVLB  0
0C3F2:  CALL   5CDA
0C3F6:  MOVLW  2E
0C3F8:  BTFSS  F9E.4
0C3FA:  BRA    C3F8
0C3FC:  MOVWF  FAD
0C3FE:  MOVLW  20
0C400:  BTFSS  F9E.4
0C402:  BRA    C400
0C404:  MOVWF  FAD
0C406:  MOVLW  20
0C408:  BTFSS  F9E.4
0C40A:  BRA    C408
0C40C:  MOVWF  FAD
0C40E:  MOVFF  6CC,6CF
0C412:  MOVLW  01
0C414:  MOVLB  6
0C416:  MOVWF  xD0
0C418:  MOVLB  0
0C41A:  CALL   5CDA
0C41E:  MOVLW  3A
0C420:  BTFSS  F9E.4
0C422:  BRA    C420
0C424:  MOVWF  FAD
0C426:  MOVFF  6CD,6CF
0C42A:  MOVLW  01
0C42C:  MOVLB  6
0C42E:  MOVWF  xD0
0C430:  MOVLB  0
0C432:  CALL   5CDA
0C436:  MOVLW  22
0C438:  BTFSS  F9E.4
0C43A:  BRA    C438
0C43C:  MOVWF  FAD
....................          SendDataDisplay(); 
0C43E:  CALL   41EE
....................          printf("T%u.txt=\"%3.1fC\"",i+1,TCiclos[i]); 
0C442:  MOVLW  01
0C444:  MOVLB  2
0C446:  ADDWF  x73,W
0C448:  MOVLB  6
0C44A:  MOVWF  xCA
0C44C:  MOVLB  2
0C44E:  MOVF   x73,W
0C450:  MULLW  04
0C452:  MOVF   FF3,W
0C454:  CLRF   03
0C456:  ADDLW  E4
0C458:  MOVWF  FE9
0C45A:  MOVLW  02
0C45C:  ADDWFC 03,W
0C45E:  MOVWF  FEA
0C460:  MOVFF  FEF,6CB
0C464:  MOVFF  FEC,6CC
0C468:  MOVFF  FEC,6CD
0C46C:  MOVFF  FEC,6CE
0C470:  MOVLW  54
0C472:  BTFSS  F9E.4
0C474:  BRA    C472
0C476:  MOVWF  FAD
0C478:  MOVFF  6CA,6CF
0C47C:  MOVLW  1B
0C47E:  MOVLB  6
0C480:  MOVWF  xD0
0C482:  MOVLB  0
0C484:  CALL   5CDA
0C488:  MOVLW  BF
0C48A:  MOVWF  FF6
0C48C:  MOVLW  14
0C48E:  MOVWF  FF7
0C490:  MOVLW  00
0C492:  MOVWF  FF8
0C494:  MOVLW  06
0C496:  MOVLB  6
0C498:  MOVWF  xCF
0C49A:  MOVLB  0
0C49C:  CALL   5C56
0C4A0:  MOVLW  02
0C4A2:  MOVWF  FE9
0C4A4:  MOVFF  6CE,6D2
0C4A8:  MOVFF  6CD,6D1
0C4AC:  MOVFF  6CC,6D0
0C4B0:  MOVFF  6CB,6CF
0C4B4:  MOVLW  01
0C4B6:  MOVLB  6
0C4B8:  MOVWF  xD3
0C4BA:  MOVLB  0
0C4BC:  CALL   5F3E
0C4C0:  MOVLW  B0
0C4C2:  BTFSS  F9E.4
0C4C4:  BRA    C4C2
0C4C6:  MOVWF  FAD
0C4C8:  MOVLW  43
0C4CA:  BTFSS  F9E.4
0C4CC:  BRA    C4CA
0C4CE:  MOVWF  FAD
0C4D0:  MOVLW  22
0C4D2:  BTFSS  F9E.4
0C4D4:  BRA    C4D2
0C4D6:  MOVWF  FAD
....................          SendDataDisplay(); 
0C4D8:  CALL   41EE
....................          printf("Pc%u.txt=\"%03LukPa\"",i+1,PcCiclos[i]); 
0C4DC:  MOVLW  01
0C4DE:  MOVLB  2
0C4E0:  ADDWF  x73,W
0C4E2:  MOVLB  6
0C4E4:  MOVWF  xCA
0C4E6:  BCF    FD8.0
0C4E8:  MOVLB  2
0C4EA:  RLCF   x73,W
0C4EC:  CLRF   03
0C4EE:  MOVWF  FE9
0C4F0:  MOVLW  03
0C4F2:  ADDWF  03,W
0C4F4:  MOVWF  FEA
0C4F6:  MOVFF  FEC,6CC
0C4FA:  MOVF   FED,F
0C4FC:  MOVFF  FEF,6CB
0C500:  MOVLW  50
0C502:  BTFSS  F9E.4
0C504:  BRA    C502
0C506:  MOVWF  FAD
0C508:  MOVLW  63
0C50A:  BTFSS  F9E.4
0C50C:  BRA    C50A
0C50E:  MOVWF  FAD
0C510:  MOVFF  6CA,6CF
0C514:  MOVLW  1B
0C516:  MOVLB  6
0C518:  MOVWF  xD0
0C51A:  MOVLB  0
0C51C:  CALL   5CDA
0C520:  MOVLW  D2
0C522:  MOVWF  FF6
0C524:  MOVLW  14
0C526:  MOVWF  FF7
0C528:  MOVLW  00
0C52A:  MOVWF  FF8
0C52C:  MOVLW  06
0C52E:  MOVLB  6
0C530:  MOVWF  xCF
0C532:  MOVLB  0
0C534:  CALL   5C56
0C538:  MOVLW  0A
0C53A:  MOVWF  FE9
0C53C:  MOVFF  6CC,6CF
0C540:  MOVFF  6CB,6CE
0C544:  CALL   5DD0
0C548:  MOVLW  DD
0C54A:  MOVWF  FF6
0C54C:  MOVLW  14
0C54E:  MOVWF  FF7
0C550:  MOVLW  00
0C552:  MOVWF  FF8
0C554:  MOVLW  04
0C556:  MOVLB  6
0C558:  MOVWF  xCF
0C55A:  MOVLB  0
0C55C:  CALL   5C56
....................          SendDataDisplay(); 
0C560:  CALL   41EE
....................          printf("Ppc%u.txt=\"%03LukPa\"",i+1,PpcCiclos[i]); 
0C564:  MOVLW  01
0C566:  MOVLB  2
0C568:  ADDWF  x73,W
0C56A:  MOVLB  6
0C56C:  MOVWF  xCA
0C56E:  BCF    FD8.0
0C570:  MOVLB  2
0C572:  RLCF   x73,W
0C574:  CLRF   03
0C576:  ADDLW  0E
0C578:  MOVWF  FE9
0C57A:  MOVLW  03
0C57C:  ADDWFC 03,W
0C57E:  MOVWF  FEA
0C580:  MOVFF  FEC,6CC
0C584:  MOVF   FED,F
0C586:  MOVFF  FEF,6CB
0C58A:  MOVLW  50
0C58C:  BTFSS  F9E.4
0C58E:  BRA    C58C
0C590:  MOVWF  FAD
0C592:  MOVLW  70
0C594:  BTFSS  F9E.4
0C596:  BRA    C594
0C598:  MOVWF  FAD
0C59A:  MOVLW  63
0C59C:  BTFSS  F9E.4
0C59E:  BRA    C59C
0C5A0:  MOVWF  FAD
0C5A2:  MOVFF  6CA,6CF
0C5A6:  MOVLW  1B
0C5A8:  MOVLB  6
0C5AA:  MOVWF  xD0
0C5AC:  MOVLB  0
0C5AE:  CALL   5CDA
0C5B2:  MOVLW  E7
0C5B4:  MOVWF  FF6
0C5B6:  MOVLW  14
0C5B8:  MOVWF  FF7
0C5BA:  MOVLW  00
0C5BC:  MOVWF  FF8
0C5BE:  MOVLW  06
0C5C0:  MOVLB  6
0C5C2:  MOVWF  xCF
0C5C4:  MOVLB  0
0C5C6:  CALL   5C56
0C5CA:  MOVLW  0A
0C5CC:  MOVWF  FE9
0C5CE:  MOVFF  6CC,6CF
0C5D2:  MOVFF  6CB,6CE
0C5D6:  CALL   5DD0
0C5DA:  MOVLW  F2
0C5DC:  MOVWF  FF6
0C5DE:  MOVLW  14
0C5E0:  MOVWF  FF7
0C5E2:  MOVLW  00
0C5E4:  MOVWF  FF8
0C5E6:  MOVLW  04
0C5E8:  MOVLB  6
0C5EA:  MOVWF  xCF
0C5EC:  MOVLB  0
0C5EE:  CALL   5C56
....................          SendDataDisplay();          
0C5F2:  CALL   41EE
....................          codificaAlarma(); 
0C5F6:  GOTO   669E
....................       }   
0C5FA:  MOVLB  2
0C5FC:  INCF   x73,F
0C5FE:  BRA    C364
....................    }else if(Menu==13){//Menu de Nivel de Desfogue 
0C600:  GOTO   F4DC
0C604:  MOVF   x70,W
0C606:  SUBLW  0D
0C608:  BTFSS  FD8.2
0C60A:  BRA    C7E6
....................       printf("fecha.txt=\"Fecha:%02u/%02u/20%02u Hora: %02u:%02u:%02u\"",Dia,Mes,Year,Hora,Minuto,Segundo); 
0C60C:  MOVLW  F8
0C60E:  MOVWF  FF6
0C610:  MOVLW  14
0C612:  MOVWF  FF7
0C614:  MOVLW  00
0C616:  MOVWF  FF8
0C618:  MOVLW  11
0C61A:  MOVLB  6
0C61C:  MOVWF  xCF
0C61E:  MOVLB  0
0C620:  CALL   5C56
0C624:  MOVFF  2B5,6CF
0C628:  MOVLW  01
0C62A:  MOVLB  6
0C62C:  MOVWF  xD0
0C62E:  MOVLB  0
0C630:  CALL   5CDA
0C634:  MOVLW  2F
0C636:  BTFSS  F9E.4
0C638:  BRA    C636
0C63A:  MOVWF  FAD
0C63C:  MOVFF  2B4,6CF
0C640:  MOVLW  01
0C642:  MOVLB  6
0C644:  MOVWF  xD0
0C646:  MOVLB  0
0C648:  CALL   5CDA
0C64C:  MOVLW  2F
0C64E:  BTFSS  F9E.4
0C650:  BRA    C64E
0C652:  MOVWF  FAD
0C654:  MOVLW  32
0C656:  BTFSS  F9E.4
0C658:  BRA    C656
0C65A:  MOVWF  FAD
0C65C:  MOVLW  30
0C65E:  BTFSS  F9E.4
0C660:  BRA    C65E
0C662:  MOVWF  FAD
0C664:  MOVFF  2B3,6CF
0C668:  MOVLW  01
0C66A:  MOVLB  6
0C66C:  MOVWF  xD0
0C66E:  MOVLB  0
0C670:  CALL   5CDA
0C674:  MOVLW  19
0C676:  MOVWF  FF6
0C678:  MOVLW  15
0C67A:  MOVWF  FF7
0C67C:  MOVLW  00
0C67E:  MOVWF  FF8
0C680:  MOVLW  07
0C682:  MOVLB  6
0C684:  MOVWF  xCF
0C686:  MOVLB  0
0C688:  CALL   5C56
0C68C:  MOVFF  2B6,6CF
0C690:  MOVLW  01
0C692:  MOVLB  6
0C694:  MOVWF  xD0
0C696:  MOVLB  0
0C698:  CALL   5CDA
0C69C:  MOVLW  3A
0C69E:  BTFSS  F9E.4
0C6A0:  BRA    C69E
0C6A2:  MOVWF  FAD
0C6A4:  MOVFF  2B7,6CF
0C6A8:  MOVLW  01
0C6AA:  MOVLB  6
0C6AC:  MOVWF  xD0
0C6AE:  MOVLB  0
0C6B0:  CALL   5CDA
0C6B4:  MOVLW  3A
0C6B6:  BTFSS  F9E.4
0C6B8:  BRA    C6B6
0C6BA:  MOVWF  FAD
0C6BC:  MOVFF  2B8,6CF
0C6C0:  MOVLW  01
0C6C2:  MOVLB  6
0C6C4:  MOVWF  xD0
0C6C6:  MOVLB  0
0C6C8:  CALL   5CDA
0C6CC:  MOVLW  22
0C6CE:  BTFSS  F9E.4
0C6D0:  BRA    C6CE
0C6D2:  MOVWF  FAD
....................       SendDataDisplay(); 
0C6D4:  CALL   41EE
....................          if(NivelDes<1) 
0C6D8:  MOVLB  2
0C6DA:  MOVF   xA8,F
0C6DC:  BNZ   C6E2
....................             NivelDes=6; 
0C6DE:  MOVLW  06
0C6E0:  MOVWF  xA8
....................          if(NivelDes>6) 
0C6E2:  MOVF   xA8,W
0C6E4:  SUBLW  06
0C6E6:  BC    C6EC
....................             NivelDes=1; 
0C6E8:  MOVLW  01
0C6EA:  MOVWF  xA8
....................           
....................          if(RX_Buffer[4]==0x11){//Selecciono Regresar 
0C6EC:  MOVF   35,W
0C6EE:  SUBLW  11
0C6F0:  BNZ   C794
....................             Segundos=OFF; 
0C6F2:  MOVLB  1
0C6F4:  BCF    x06.0
....................             Minutos=OFF;             
0C6F6:  BCF    x05.7
....................             tiempo_secado=0; 
0C6F8:  MOVLB  2
0C6FA:  CLRF   x84
....................             printf("page CicloPersona"); 
0C6FC:  MOVLW  30
0C6FE:  MOVWF  FF6
0C700:  MOVLW  15
0C702:  MOVWF  FF7
0C704:  MOVLW  00
0C706:  MOVWF  FF8
0C708:  MOVLB  0
0C70A:  CALL   41BC
....................             SendDataDisplay();   
0C70E:  CALL   41EE
....................             if(!GuardaEEPROM){     
0C712:  MOVLB  1
0C714:  BTFSC  x06.1
0C716:  BRA    C792
....................                CiclosPersonalizados[CicloLibre-1].NivelDesfogue=NivelDes; 
0C718:  MOVLW  01
0C71A:  MOVLB  2
0C71C:  SUBWF  x51,W
0C71E:  MULLW  08
0C720:  MOVF   FF3,W
0C722:  MOVLB  6
0C724:  CLRF   xCB
0C726:  MOVWF  xCA
0C728:  MOVLW  07
0C72A:  ADDWF  xCA,W
0C72C:  MOVWF  01
0C72E:  MOVLW  00
0C730:  ADDWFC xCB,W
0C732:  MOVWF  03
0C734:  MOVF   01,W
0C736:  ADDLW  02
0C738:  MOVWF  FE9
0C73A:  MOVLW  06
0C73C:  ADDWFC 03,W
0C73E:  MOVWF  FEA
0C740:  MOVFF  2A8,FEF
....................                write_eeprom(107+((CicloLibre-1)*8),NivelDes); 
0C744:  MOVLW  01
0C746:  MOVLB  2
0C748:  SUBWF  x51,W
0C74A:  MULLW  08
0C74C:  MOVF   FF3,W
0C74E:  ADDLW  6B
0C750:  MOVLB  6
0C752:  MOVWF  xCA
0C754:  CLRF   FAA
0C756:  MOVFF  6CA,FA9
0C75A:  MOVFF  2A8,FA8
0C75E:  BCF    FA6.6
0C760:  BCF    FA6.7
0C762:  BSF    FA6.2
0C764:  MOVF   FF2,W
0C766:  MOVWF  00
0C768:  BCF    FF2.6
0C76A:  BCF    FF2.7
0C76C:  MOVLB  F
0C76E:  MOVLW  55
0C770:  MOVWF  FA7
0C772:  MOVLW  AA
0C774:  MOVWF  FA7
0C776:  BSF    FA6.1
0C778:  BTFSC  FA6.1
0C77A:  BRA    C778
0C77C:  BCF    FA6.2
0C77E:  MOVF   00,W
0C780:  IORWF  FF2,F
....................                delay_ms(20);             
0C782:  MOVLW  14
0C784:  MOVLB  6
0C786:  MOVWF  xDC
0C788:  MOVLB  0
0C78A:  CALL   2142
....................                GuardaEEPROM=ON; 
0C78E:  MOVLB  1
0C790:  BSF    x06.1
0C792:  MOVLB  2
....................             } 
....................          } 
....................           
....................          if(RX_Buffer[4]==0x0d){//Tecla Arriba Oprimida 
0C794:  MOVF   35,W
0C796:  SUBLW  0D
0C798:  BNZ   C7A0
....................             NivelDes++; 
0C79A:  INCF   xA8,F
....................             RX_Buffer[4]=0x00;             
0C79C:  CLRF   35
....................             RX_Buffer2[4]=0x00;                        
0C79E:  CLRF   40
....................          } 
....................           
....................          if(RX_Buffer[4]==0x0c){//Tecla Abajo Oprimida 
0C7A0:  MOVF   35,W
0C7A2:  SUBLW  0C
0C7A4:  BNZ   C7AC
....................             NivelDes--; 
0C7A6:  DECF   xA8,F
....................             RX_Buffer[4]=0x00; 
0C7A8:  CLRF   35
....................             RX_Buffer2[4]=0x00;                         
0C7AA:  CLRF   40
....................          } 
....................           
....................       printf("tnivel.txt=\"%u\"",NivelDes); 
0C7AC:  MOVLW  42
0C7AE:  MOVWF  FF6
0C7B0:  MOVLW  15
0C7B2:  MOVWF  FF7
0C7B4:  MOVLW  00
0C7B6:  MOVWF  FF8
0C7B8:  MOVLW  0C
0C7BA:  MOVLB  6
0C7BC:  MOVWF  xCF
0C7BE:  MOVLB  0
0C7C0:  CALL   5C56
0C7C4:  MOVFF  2A8,6CF
0C7C8:  MOVLW  1B
0C7CA:  MOVLB  6
0C7CC:  MOVWF  xD0
0C7CE:  MOVLB  0
0C7D0:  CALL   5CDA
0C7D4:  MOVLW  22
0C7D6:  BTFSS  F9E.4
0C7D8:  BRA    C7D6
0C7DA:  MOVWF  FAD
....................       SendDataDisplay(); 
0C7DC:  CALL   41EE
....................    }else if(Menu==14){//Menu de Activacion de Ciclos 
0C7E0:  GOTO   F4DC
0C7E4:  MOVLB  2
0C7E6:  MOVF   x70,W
0C7E8:  SUBLW  0E
0C7EA:  BTFSS  FD8.2
0C7EC:  BRA    CA1A
....................       printf("fecha.txt=\"Fecha:%02u/%02u/20%02u Hora: %02u:%02u:%02u\"",Dia,Mes,Year,Hora,Minuto,Segundo); 
0C7EE:  MOVLW  52
0C7F0:  MOVWF  FF6
0C7F2:  MOVLW  15
0C7F4:  MOVWF  FF7
0C7F6:  MOVLW  00
0C7F8:  MOVWF  FF8
0C7FA:  MOVLW  11
0C7FC:  MOVLB  6
0C7FE:  MOVWF  xCF
0C800:  MOVLB  0
0C802:  CALL   5C56
0C806:  MOVFF  2B5,6CF
0C80A:  MOVLW  01
0C80C:  MOVLB  6
0C80E:  MOVWF  xD0
0C810:  MOVLB  0
0C812:  CALL   5CDA
0C816:  MOVLW  2F
0C818:  BTFSS  F9E.4
0C81A:  BRA    C818
0C81C:  MOVWF  FAD
0C81E:  MOVFF  2B4,6CF
0C822:  MOVLW  01
0C824:  MOVLB  6
0C826:  MOVWF  xD0
0C828:  MOVLB  0
0C82A:  CALL   5CDA
0C82E:  MOVLW  2F
0C830:  BTFSS  F9E.4
0C832:  BRA    C830
0C834:  MOVWF  FAD
0C836:  MOVLW  32
0C838:  BTFSS  F9E.4
0C83A:  BRA    C838
0C83C:  MOVWF  FAD
0C83E:  MOVLW  30
0C840:  BTFSS  F9E.4
0C842:  BRA    C840
0C844:  MOVWF  FAD
0C846:  MOVFF  2B3,6CF
0C84A:  MOVLW  01
0C84C:  MOVLB  6
0C84E:  MOVWF  xD0
0C850:  MOVLB  0
0C852:  CALL   5CDA
0C856:  MOVLW  73
0C858:  MOVWF  FF6
0C85A:  MOVLW  15
0C85C:  MOVWF  FF7
0C85E:  MOVLW  00
0C860:  MOVWF  FF8
0C862:  MOVLW  07
0C864:  MOVLB  6
0C866:  MOVWF  xCF
0C868:  MOVLB  0
0C86A:  CALL   5C56
0C86E:  MOVFF  2B6,6CF
0C872:  MOVLW  01
0C874:  MOVLB  6
0C876:  MOVWF  xD0
0C878:  MOVLB  0
0C87A:  CALL   5CDA
0C87E:  MOVLW  3A
0C880:  BTFSS  F9E.4
0C882:  BRA    C880
0C884:  MOVWF  FAD
0C886:  MOVFF  2B7,6CF
0C88A:  MOVLW  01
0C88C:  MOVLB  6
0C88E:  MOVWF  xD0
0C890:  MOVLB  0
0C892:  CALL   5CDA
0C896:  MOVLW  3A
0C898:  BTFSS  F9E.4
0C89A:  BRA    C898
0C89C:  MOVWF  FAD
0C89E:  MOVFF  2B8,6CF
0C8A2:  MOVLW  01
0C8A4:  MOVLB  6
0C8A6:  MOVWF  xD0
0C8A8:  MOVLB  0
0C8AA:  CALL   5CDA
0C8AE:  MOVLW  22
0C8B0:  BTFSS  F9E.4
0C8B2:  BRA    C8B0
0C8B4:  MOVWF  FAD
....................       SendDataDisplay(); 
0C8B6:  CALL   41EE
....................        
....................       if(RX_Buffer[4]==0xaa){ 
0C8BA:  MOVF   35,W
0C8BC:  SUBLW  AA
0C8BE:  BNZ   C948
....................          for(i=0;i<30;i++){ 
0C8C0:  MOVLB  2
0C8C2:  CLRF   x73
0C8C4:  MOVF   x73,W
0C8C6:  SUBLW  1D
0C8C8:  BNC   C92E
....................             write_eeprom(50+i,estados[i]); 
0C8CA:  MOVLW  32
0C8CC:  ADDWF  x73,W
0C8CE:  MOVLB  6
0C8D0:  MOVWF  xCA
0C8D2:  MOVFF  273,6CB
0C8D6:  MOVLW  03
0C8D8:  MOVWF  xCD
0C8DA:  MOVLW  36
0C8DC:  MOVWF  xCC
0C8DE:  MOVLB  0
0C8E0:  CALL   2582
0C8E4:  MOVLW  00
0C8E6:  BTFSC  01.0
0C8E8:  MOVLW  01
0C8EA:  MOVLB  6
0C8EC:  MOVWF  xCB
0C8EE:  CLRF   FAA
0C8F0:  MOVFF  6CA,FA9
0C8F4:  MOVFF  6CB,FA8
0C8F8:  BCF    FA6.6
0C8FA:  BCF    FA6.7
0C8FC:  BSF    FA6.2
0C8FE:  MOVF   FF2,W
0C900:  MOVWF  00
0C902:  BCF    FF2.6
0C904:  BCF    FF2.7
0C906:  MOVLB  F
0C908:  MOVLW  55
0C90A:  MOVWF  FA7
0C90C:  MOVLW  AA
0C90E:  MOVWF  FA7
0C910:  BSF    FA6.1
0C912:  BTFSC  FA6.1
0C914:  BRA    C912
0C916:  BCF    FA6.2
0C918:  MOVF   00,W
0C91A:  IORWF  FF2,F
....................             delay_ms(10); 
0C91C:  MOVLW  0A
0C91E:  MOVLB  6
0C920:  MOVWF  xDC
0C922:  MOVLB  0
0C924:  CALL   2142
....................          } 
0C928:  MOVLB  2
0C92A:  INCF   x73,F
0C92C:  BRA    C8C4
....................          printf("page Ajustes"); 
0C92E:  MOVLW  8A
0C930:  MOVWF  FF6
0C932:  MOVLW  15
0C934:  MOVWF  FF7
0C936:  MOVLW  00
0C938:  MOVWF  FF8
0C93A:  MOVLB  0
0C93C:  CALL   41BC
....................          SendDataDisplay();  
0C940:  CALL   41EE
....................          RX_Buffer[4]=0x00; 
0C944:  CLRF   35
....................          RX_Buffer2[4]=0x00; 
0C946:  CLRF   40
....................       } 
....................        
....................       for(i=0;i<30;i++){ 
0C948:  MOVLB  2
0C94A:  CLRF   x73
0C94C:  MOVF   x73,W
0C94E:  SUBLW  1D
0C950:  BNC   CA16
....................          if(RX_Buffer[4]==i+1){ 
0C952:  MOVLW  01
0C954:  ADDWF  x73,W
0C956:  SUBWF  35,W
0C958:  BNZ   C98E
....................             estados[i]=!estados[i]; 
0C95A:  MOVFF  273,6CB
0C95E:  MOVLW  03
0C960:  MOVLB  6
0C962:  MOVWF  xCD
0C964:  MOVLW  36
0C966:  MOVWF  xCC
0C968:  MOVLB  0
0C96A:  CALL   2582
0C96E:  MOVLW  00
0C970:  BTFSS  01.0
0C972:  MOVLW  01
0C974:  MOVFF  273,6CC
0C978:  MOVLB  6
0C97A:  MOVWF  xCD
0C97C:  MOVLW  03
0C97E:  MOVWF  xCF
0C980:  MOVLW  36
0C982:  MOVWF  xCE
0C984:  MOVLB  0
0C986:  CALL   2540
....................             RX_Buffer[4]=0x00; 
0C98A:  CLRF   35
....................             RX_Buffer2[4]=0x00; 
0C98C:  CLRF   40
....................          } 
....................           
....................          if(estados[i]){ 
0C98E:  MOVFF  273,6CB
0C992:  MOVLW  03
0C994:  MOVLB  6
0C996:  MOVWF  xCD
0C998:  MOVLW  36
0C99A:  MOVWF  xCC
0C99C:  MOVLB  0
0C99E:  CALL   2582
0C9A2:  BTFSS  01.0
0C9A4:  BRA    C9DC
....................             printf("b%u.bco=2016",i); 
0C9A6:  MOVLW  62
0C9A8:  BTFSS  F9E.4
0C9AA:  BRA    C9A8
0C9AC:  MOVWF  FAD
0C9AE:  MOVFF  273,6CF
0C9B2:  MOVLW  1B
0C9B4:  MOVLB  6
0C9B6:  MOVWF  xD0
0C9B8:  MOVLB  0
0C9BA:  CALL   5CDA
0C9BE:  MOVLW  9B
0C9C0:  MOVWF  FF6
0C9C2:  MOVLW  15
0C9C4:  MOVWF  FF7
0C9C6:  MOVLW  00
0C9C8:  MOVWF  FF8
0C9CA:  MOVLW  09
0C9CC:  MOVLB  6
0C9CE:  MOVWF  xCF
0C9D0:  MOVLB  0
0C9D2:  CALL   5C56
....................             SendDataDisplay();              
0C9D6:  CALL   41EE
....................          }else{ 
0C9DA:  BRA    CA10
....................             printf("b%u.bco=63488",i); 
0C9DC:  MOVLW  62
0C9DE:  BTFSS  F9E.4
0C9E0:  BRA    C9DE
0C9E2:  MOVWF  FAD
0C9E4:  MOVFF  273,6CF
0C9E8:  MOVLW  1B
0C9EA:  MOVLB  6
0C9EC:  MOVWF  xD0
0C9EE:  MOVLB  0
0C9F0:  CALL   5CDA
0C9F4:  MOVLW  A9
0C9F6:  MOVWF  FF6
0C9F8:  MOVLW  15
0C9FA:  MOVWF  FF7
0C9FC:  MOVLW  00
0C9FE:  MOVWF  FF8
0CA00:  MOVLW  0A
0CA02:  MOVLB  6
0CA04:  MOVWF  xCF
0CA06:  MOVLB  0
0CA08:  CALL   5C56
....................             SendDataDisplay();  
0CA0C:  CALL   41EE
....................          } 
....................       } 
0CA10:  MOVLB  2
0CA12:  INCF   x73,F
0CA14:  BRA    C94C
....................    }else if(Menu==15){//Menu de Clave Correcta 
0CA16:  GOTO   F4DC
0CA1A:  MOVF   x70,W
0CA1C:  SUBLW  0F
0CA1E:  BNZ   CA5C
....................       if(!entro){ 
0CA20:  MOVLB  1
0CA22:  BTFSC  x09.5
0CA24:  BRA    CA40
....................          delay_ms(2000); 
0CA26:  MOVLW  08
0CA28:  MOVLB  6
0CA2A:  MOVWF  xCA
0CA2C:  MOVLW  FA
0CA2E:  MOVWF  xDC
0CA30:  MOVLB  0
0CA32:  CALL   2142
0CA36:  MOVLB  6
0CA38:  DECFSZ xCA,F
0CA3A:  BRA    CA2C
....................          entro=ON; 
0CA3C:  MOVLB  1
0CA3E:  BSF    x09.5
....................       } 
....................       printf("page Menu"); 
0CA40:  MOVLW  B4
0CA42:  MOVWF  FF6
0CA44:  MOVLW  15
0CA46:  MOVWF  FF7
0CA48:  MOVLW  00
0CA4A:  MOVWF  FF8
0CA4C:  MOVLB  0
0CA4E:  CALL   41BC
....................       //printf("page Funcionamiento"); 
....................       SendDataDisplay(); 
0CA52:  CALL   41EE
....................    }else if(Menu==16){//Menu de Clave InCorrecta 
0CA56:  GOTO   F4DC
0CA5A:  MOVLB  2
0CA5C:  MOVF   x70,W
0CA5E:  SUBLW  10
0CA60:  BNZ   CA9E
....................       if(!entro){ 
0CA62:  MOVLB  1
0CA64:  BTFSC  x09.5
0CA66:  BRA    CA82
....................          delay_ms(2000); 
0CA68:  MOVLW  08
0CA6A:  MOVLB  6
0CA6C:  MOVWF  xCA
0CA6E:  MOVLW  FA
0CA70:  MOVWF  xDC
0CA72:  MOVLB  0
0CA74:  CALL   2142
0CA78:  MOVLB  6
0CA7A:  DECFSZ xCA,F
0CA7C:  BRA    CA6E
....................          entro=ON; 
0CA7E:  MOVLB  1
0CA80:  BSF    x09.5
....................       } 
....................       printf("page Clave"); 
0CA82:  MOVLW  BE
0CA84:  MOVWF  FF6
0CA86:  MOVLW  15
0CA88:  MOVWF  FF7
0CA8A:  MOVLW  00
0CA8C:  MOVWF  FF8
0CA8E:  MOVLB  0
0CA90:  CALL   41BC
....................       SendDataDisplay(); 
0CA94:  CALL   41EE
....................    }else if(Menu==20){ // Este es el menu de cuando el proceso se inicio.FUNCIONAMIENTO 
0CA98:  GOTO   F4DC
0CA9C:  MOVLB  2
0CA9E:  MOVF   x70,W
0CAA0:  SUBLW  14
0CAA2:  BTFSS  FD8.2
0CAA4:  GOTO   E65A
....................     
....................    GuardaDatoEstatico(); 
0CAA8:  MOVLB  0
0CAAA:  GOTO   6CD2
....................    guardaCiclo=ON; 
0CAAE:  BSF    xFA.7
....................    if(!Libre){ 
0CAB0:  MOVLB  1
0CAB2:  BTFSC  x07.4
0CAB4:  BRA    CB3C
....................       printf("t2f.txt=\"%u\"",CicloSeleccionado); 
0CAB6:  MOVLW  CA
0CAB8:  MOVWF  FF6
0CABA:  MOVLW  15
0CABC:  MOVWF  FF7
0CABE:  MOVLW  00
0CAC0:  MOVWF  FF8
0CAC2:  MOVLW  09
0CAC4:  MOVLB  6
0CAC6:  MOVWF  xCF
0CAC8:  MOVLB  0
0CACA:  CALL   5C56
0CACE:  MOVFF  276,6CF
0CAD2:  MOVLW  1B
0CAD4:  MOVLB  6
0CAD6:  MOVWF  xD0
0CAD8:  MOVLB  0
0CADA:  CALL   5CDA
0CADE:  MOVLW  22
0CAE0:  BTFSS  F9E.4
0CAE2:  BRA    CAE0
0CAE4:  MOVWF  FAD
....................       SendDataDisplay(); 
0CAE6:  CALL   41EE
....................       printf("t3f.txt=\"%s\"",Texto[CicloSeleccionado-1]); 
0CAEA:  MOVLW  01
0CAEC:  MOVLB  2
0CAEE:  SUBWF  x76,W
0CAF0:  MULLW  14
0CAF2:  MOVF   FF3,W
0CAF4:  CLRF   03
0CAF6:  MOVLB  6
0CAF8:  MOVWF  xCA
0CAFA:  MOVLW  D8
0CAFC:  MOVWF  FF6
0CAFE:  MOVLW  15
0CB00:  MOVWF  FF7
0CB02:  MOVLW  00
0CB04:  MOVWF  FF8
0CB06:  MOVLW  09
0CB08:  MOVWF  xCF
0CB0A:  MOVLB  0
0CB0C:  CALL   5C56
0CB10:  MOVLW  1A
0CB12:  MOVWF  FF6
0CB14:  MOVLW  03
0CB16:  MOVWF  FF7
0CB18:  MOVLW  00
0CB1A:  MOVWF  FF8
0CB1C:  MOVLB  6
0CB1E:  MOVF   xCA,W
0CB20:  ADDWF  FF6,F
0CB22:  MOVLW  00
0CB24:  ADDWFC FF7,F
0CB26:  MOVLB  0
0CB28:  CALL   41BC
0CB2C:  MOVLW  22
0CB2E:  BTFSS  F9E.4
0CB30:  BRA    CB2E
0CB32:  MOVWF  FAD
....................       SendDataDisplay(); 
0CB34:  CALL   41EE
....................    }else{ 
0CB38:  BRA    CB8C
0CB3A:  MOVLB  1
....................       printf("t2f.txt=\"%u\"",CicloLibre+10); 
0CB3C:  MOVLW  0A
0CB3E:  MOVLB  2
0CB40:  ADDWF  x51,W
0CB42:  MOVLB  6
0CB44:  MOVWF  xCA
0CB46:  MOVLW  E6
0CB48:  MOVWF  FF6
0CB4A:  MOVLW  15
0CB4C:  MOVWF  FF7
0CB4E:  MOVLW  00
0CB50:  MOVWF  FF8
0CB52:  MOVLW  09
0CB54:  MOVWF  xCF
0CB56:  MOVLB  0
0CB58:  CALL   5C56
0CB5C:  MOVFF  6CA,6CF
0CB60:  MOVLW  1B
0CB62:  MOVLB  6
0CB64:  MOVWF  xD0
0CB66:  MOVLB  0
0CB68:  CALL   5CDA
0CB6C:  MOVLW  22
0CB6E:  BTFSS  F9E.4
0CB70:  BRA    CB6E
0CB72:  MOVWF  FAD
....................       SendDataDisplay(); 
0CB74:  CALL   41EE
....................       printf("t3f.txt=\"Personalizado\""); 
0CB78:  MOVLW  F4
0CB7A:  MOVWF  FF6
0CB7C:  MOVLW  15
0CB7E:  MOVWF  FF7
0CB80:  MOVLW  00
0CB82:  MOVWF  FF8
0CB84:  CALL   41BC
....................       SendDataDisplay(); 
0CB88:  CALL   41EE
....................    } 
....................     
....................    leePulsadores(); 
0CB8C:  GOTO   6F76
....................    /* 
....................    if(PresionCamara>Atmosferica+15){ 
....................       cierraPuertaS(); 
....................       cierraPuertaL(); 
....................    } 
....................    */ 
....................    if(!Start){ 
0CB90:  MOVLB  1
0CB92:  BTFSC  x04.5
0CB94:  BRA    CB96
....................     
....................       /* 
....................       if(pulsoSubirS) 
....................          cierraPuertaS(); 
....................        
....................       if(pulsoBajarS) 
....................          abrePuertaS(); 
....................           
....................       if(RX_Buffer[4]==0x0a){//Oprimio Subir Puerta 
....................          //cierraPuertaS(); 
....................          pulsoSubirS=ON; 
....................          pulsoBajarS=OFF; 
....................          RX_Buffer[4]=0x00; 
....................          //RX_Buffer2[4]=0x00;                        
....................       } 
....................        
....................       if(RX_Buffer[4]==0x0b){//Solto Subir Puerta 
....................          RX_Buffer[4]=0x00;             
....................          //RX_Buffer2[4]=0x00;            
....................          pulsoSubirS=OFF; 
....................          pulsoBajarS=OFF; 
....................          if(!DOORS && !EMPAQUES) 
....................             abrePuertaS(); 
....................          else 
....................             cierraPuertaS(); 
....................       } 
....................        
....................       if(RX_Buffer[4]==0x0c){//Oprimio Bajar Puerta 
....................          pulsoSubirS=OFF; 
....................          RX_Buffer[4]=0x00; 
....................          //RX_Buffer2[4]=0x00;  
....................          if(Temperatura<Tapertura && cerroLimpio) 
....................             pulsoBajarS=ON; 
....................       }    
....................        
....................       if(RX_Buffer[4]==0x0d){//Solto Bajar Puerta 
....................          RX_Buffer[4]=0x00;             
....................          //RX_Buffer2[4]=0x00;                        
....................       } 
....................       */ 
....................    } 
....................           
....................    if(PresionPreCamara>(350-Atmosferica) || PresionCamara>350){ 
0CB96:  MOVLW  5E
0CB98:  BSF    FD8.0
0CB9A:  MOVLB  2
0CB9C:  SUBFWB xBD,W
0CB9E:  MOVWF  00
0CBA0:  MOVLW  01
0CBA2:  BTFSS  FD8.0
0CBA4:  DECF   FE8,F
0CBA6:  MOVWF  03
0CBA8:  MOVFF  00,01
0CBAC:  MOVF   03,W
0CBAE:  SUBWF  x94,W
0CBB0:  BNC   CBBA
0CBB2:  BNZ   CBCA
0CBB4:  MOVF   x93,W
0CBB6:  SUBWF  01,W
0CBB8:  BNC   CBCA
0CBBA:  MOVF   x92,W
0CBBC:  SUBLW  00
0CBBE:  BC    CBCE
0CBC0:  XORLW  FF
0CBC2:  BNZ   CBCA
0CBC4:  MOVF   x91,W
0CBC6:  SUBLW  5E
0CBC8:  BC    CBCE
....................       AlarmaPresion=ON; 
0CBCA:  MOVLB  1
0CBCC:  BSF    x07.1
....................    } 
....................     
....................    if(TiempoCiclo>1800 && !Fugas){//ANALIZAR BIEN ESTA ALARMA 
0CBCE:  MOVLB  1
0CBD0:  MOVF   x0C,W
0CBD2:  SUBLW  06
0CBD4:  BC    CC0E
0CBD6:  XORLW  FF
0CBD8:  BNZ   CBE0
0CBDA:  MOVF   x0B,W
0CBDC:  SUBLW  08
0CBDE:  BC    CC0E
0CBE0:  BTFSC  x07.6
0CBE2:  BRA    CC0E
....................       if(TiempoCiclo>3600){ 
0CBE4:  MOVF   x0C,W
0CBE6:  SUBLW  0D
0CBE8:  BC    CBF8
0CBEA:  XORLW  FF
0CBEC:  BNZ   CBF4
0CBEE:  MOVF   x0B,W
0CBF0:  SUBLW  10
0CBF2:  BC    CBF8
....................          AlarmaTiempoProlongado=ON; 
0CBF4:  MOVLB  0
0CBF6:  BSF    xF9.5
....................       } 
....................       if(PresionPrecamara<10){ 
0CBF8:  MOVLB  2
0CBFA:  MOVF   x94,F
0CBFC:  BNZ   CC0A
0CBFE:  MOVF   x93,W
0CC00:  SUBLW  09
0CC02:  BNC   CC0A
....................          AlarmaTiempoProlongado=ON; 
0CC04:  MOVLB  0
0CC06:  BSF    xF9.5
0CC08:  MOVLB  2
....................       } 
....................    }else{ 
0CC0A:  BRA    CC12
0CC0C:  MOVLB  1
....................       AlarmaTiempoProlongado=OFF; 
0CC0E:  MOVLB  0
0CC10:  BCF    xF9.5
....................    } 
....................     
....................    if(Temperatura>Setpoint+4.0 && !Fugas){ 
0CC12:  MOVLB  6
0CC14:  CLRF   xDD
0CC16:  MOVFF  280,6DC
0CC1A:  MOVLB  0
0CC1C:  CALL   210C
0CC20:  BCF    FD8.1
0CC22:  MOVFF  03,6DF
0CC26:  MOVFF  02,6DE
0CC2A:  MOVFF  01,6DD
0CC2E:  MOVFF  00,6DC
0CC32:  MOVLB  6
0CC34:  CLRF   xE3
0CC36:  CLRF   xE2
0CC38:  CLRF   xE1
0CC3A:  MOVLW  81
0CC3C:  MOVWF  xE0
0CC3E:  MOVLB  0
0CC40:  CALL   22C8
0CC44:  MOVFF  03,6D1
0CC48:  MOVFF  02,6D0
0CC4C:  MOVFF  01,6CF
0CC50:  MOVFF  00,6CE
0CC54:  MOVFF  23E,6D5
0CC58:  MOVFF  23D,6D4
0CC5C:  MOVFF  23C,6D3
0CC60:  MOVFF  23B,6D2
0CC64:  CALL   279E
0CC68:  BNC   CC78
0CC6A:  MOVLB  1
0CC6C:  BTFSS  x07.6
0CC6E:  BRA    CC74
0CC70:  MOVLB  0
0CC72:  BRA    CC78
....................       AlarmaSobreTemperatura=ON; 
0CC74:  MOVLB  0
0CC76:  BSF    xF9.6
....................    } 
....................     
....................    if(TiempoLlenado>600){ 
0CC78:  MOVLB  1
0CC7A:  MOVF   x20,W
0CC7C:  SUBLW  01
0CC7E:  BC    CC92
0CC80:  XORLW  FF
0CC82:  BNZ   CC8A
0CC84:  MOVF   x1F,W
0CC86:  SUBLW  58
0CC88:  BC    CC92
....................       AlarmaLlenado=ON; 
0CC8A:  MOVLB  0
0CC8C:  BSF    xFB.1
....................    }else{ 
0CC8E:  BRA    CC96
0CC90:  MOVLB  1
....................       AlarmaLlenado=OFF; 
0CC92:  MOVLB  0
0CC94:  BCF    xFB.1
....................    } 
....................     
....................    //if(!DOORS && !EMPAQUES){       
....................    if(!DOORS){       
0CC96:  BSF    F93.1
0CC98:  BTFSS  F81.1
0CC9A:  BRA    CCAE
....................       Paso=OFF; 
0CC9C:  BCF    xF8.2
....................       //if(!Secando && !Finalizo && !Desfogando){ 
....................       if(!Finalizo){ 
0CC9E:  MOVLB  1
0CCA0:  BTFSC  x07.0
0CCA2:  BRA    CCA8
....................          AlarmaPuertaS=ON; 
0CCA4:  MOVLB  0
0CCA6:  BSF    xFA.0
....................       } 
....................       cerroSucio=OFF; 
0CCA8:  MOVLB  0
0CCAA:  BCF    xFB.2
....................    }else{ 
0CCAC:  BRA    CCB2
....................       AlarmaPuertaS=OFF; 
0CCAE:  BCF    xFA.0
....................       cerroSucio=ON; 
0CCB0:  BSF    xFB.2
....................    } 
....................    /* 
....................    if(!DOORL && !EMPAQUEL){       
....................       Paso=OFF; 
....................       //if(!Secando && !Finalizo && !Desfogando){ 
....................       if(!Finalizo){ 
....................          AlarmaPuertaL=ON; 
....................       } 
....................       cerroLimpio=OFF; 
....................    }else{ 
....................       AlarmaPuertaL=OFF; 
....................       cerroLimpio=ON; 
....................    } 
....................    */ 
....................    if(!STOP){ 
0CCB2:  BSF    F93.0
0CCB4:  BTFSS  F81.0
0CCB6:  BRA    CCBA
....................       AlarmaEmergencia=ON; 
0CCB8:  BSF    xFA.2
....................    } 
....................    /* 
....................    if(tEmpaqueS>10) 
....................       AlarmaEmpaqueS=ON; 
....................        
....................    if(tEmpaqueL>10) 
....................       AlarmaEmpaqueL=ON;    
....................    */ 
....................    if(AlarmaPuertaS || AlarmaPuertaL || AlarmaTermostato || AlarmaSobreTemperatura || AlarmaTiempoProlongado || AlarmaEmergencia || AlarmaPresion || AlarmaBomba || AlarmaEmpaqueL || AlarmaEmpaqueS 
....................          || AlarmaVacio || AlarmaLlenado || !Start){ 
0CCBA:  BTFSC  xFA.0
0CCBC:  BRA    CCFC
0CCBE:  BTFSC  xFA.1
0CCC0:  BRA    CCFC
0CCC2:  BTFSC  xF9.7
0CCC4:  BRA    CCFC
0CCC6:  BTFSC  xF9.6
0CCC8:  BRA    CCFC
0CCCA:  BTFSC  xF9.5
0CCCC:  BRA    CCFC
0CCCE:  BTFSC  xFA.2
0CCD0:  BRA    CCFC
0CCD2:  MOVLB  1
0CCD4:  BTFSS  x07.1
0CCD6:  BRA    CCDC
0CCD8:  MOVLB  0
0CCDA:  BRA    CCFC
0CCDC:  MOVLB  0
0CCDE:  BTFSC  xFA.6
0CCE0:  BRA    CCFC
0CCE2:  BTFSC  xFA.4
0CCE4:  BRA    CCFC
0CCE6:  BTFSC  xFA.5
0CCE8:  BRA    CCFC
0CCEA:  BTFSC  xFA.3
0CCEC:  BRA    CCFC
0CCEE:  BTFSC  xFB.1
0CCF0:  BRA    CCFC
0CCF2:  MOVLB  1
0CCF4:  BTFSC  x04.5
0CCF6:  GOTO   D72E
0CCFA:  MOVLB  0
....................       Esterilizando=OFF; 
0CCFC:  MOVLB  1
0CCFE:  BCF    x03.7
....................       Secando=OFF; 
0CD00:  BCF    x04.0
....................       ActivaAlarma(1); 
0CD02:  MOVLW  01
0CD04:  MOVLB  6
0CD06:  MOVWF  xCA
0CD08:  MOVLB  0
0CD0A:  CALL   5B12
....................       printf("b2.pic=86"); 
0CD0E:  MOVLW  0C
0CD10:  MOVWF  FF6
0CD12:  MOVLW  16
0CD14:  MOVWF  FF7
0CD16:  MOVLW  00
0CD18:  MOVWF  FF8
0CD1A:  CALL   41BC
....................       SendDataDisplay(); 
0CD1E:  CALL   41EE
....................       if(AlarmaEmergencia){ 
0CD22:  BTFSS  xFA.2
0CD24:  BRA    CE6A
....................          codigoAlarma=1; 
0CD26:  MOVLW  01
0CD28:  MOVLB  2
0CD2A:  MOVWF  xAC
....................          printf("Funcionamiento.t4f.txt=\" Parada de Emergencia\""); 
0CD2C:  MOVLW  16
0CD2E:  MOVWF  FF6
0CD30:  MOVLW  16
0CD32:  MOVWF  FF7
0CD34:  MOVLW  00
0CD36:  MOVWF  FF8
0CD38:  MOVLB  0
0CD3A:  CALL   41BC
....................          SendDataDisplay(); 
0CD3E:  CALL   41EE
....................          printf("Funcionamiento.t5f.txt=\" Cancelado\""); 
0CD42:  MOVLW  46
0CD44:  MOVWF  FF6
0CD46:  MOVLW  16
0CD48:  MOVWF  FF7
0CD4A:  MOVLW  00
0CD4C:  MOVWF  FF8
0CD4E:  CALL   41BC
....................          SendDataDisplay(); 
0CD52:  CALL   41EE
....................          Desfogue=ON; 
0CD56:  BSF    xF8.4
....................          Paso=OFF; 
0CD58:  BCF    xF8.2
....................          suministroVapor=OFF; 
0CD5A:  BCF    xF8.1
....................          //if(!abrirPuertaL && !abrirPuertaS) 
....................             BombaVacio=OFF; 
0CD5C:  BCF    30.6
....................          aguaEnfriador=OFF; 
0CD5E:  BCF    30.5
....................          outVacio=OFF; 
0CD60:  BCF    xF8.3
....................          if(!EMPAQUES && PresionCamara<Atmosferica+4) 
0CD62:  BSF    F93.3
0CD64:  BTFSS  F81.3
0CD66:  BRA    CD86
0CD68:  MOVLW  04
0CD6A:  MOVLB  2
0CD6C:  ADDWF  xBD,W
0CD6E:  MOVF   x92,F
0CD70:  BTFSC  FD8.2
0CD72:  BRA    CD78
0CD74:  MOVLB  0
0CD76:  BRA    CD86
0CD78:  SUBWF  x91,W
0CD7A:  BTFSS  FD8.0
0CD7C:  BRA    CD82
0CD7E:  MOVLB  0
0CD80:  BRA    CD86
....................             empaqueSucio=OFF; 
0CD82:  MOVLB  0
0CD84:  BCF    xF8.0
....................           
....................          if(!EMPAQUEL && PresionCamara<Atmosferica+4) 
0CD86:  BTFSC  30.0
0CD88:  BRA    CDA6
0CD8A:  MOVLW  04
0CD8C:  MOVLB  2
0CD8E:  ADDWF  xBD,W
0CD90:  MOVF   x92,F
0CD92:  BTFSC  FD8.2
0CD94:  BRA    CD9A
0CD96:  MOVLB  0
0CD98:  BRA    CDA6
0CD9A:  SUBWF  x91,W
0CD9C:  BTFSS  FD8.0
0CD9E:  BRA    CDA4
0CDA0:  MOVLB  0
0CDA2:  BRA    CDA6
....................             empaqueLimpio=OFF; 
0CDA4:  BCF    30.7
....................              
....................          if(PresionCamara<Atmosferica) 
0CDA6:  MOVLB  2
0CDA8:  MOVF   x92,F
0CDAA:  BNZ   CDB8
0CDAC:  MOVF   xBD,W
0CDAE:  SUBWF  x91,W
0CDB0:  BC    CDB8
....................             Aire=ON; 
0CDB2:  MOVLB  0
0CDB4:  BSF    xF8.5
....................          else 
0CDB6:  BRA    CDBC
....................             Aire=OFF; 
0CDB8:  MOVLB  0
0CDBA:  BCF    xF8.5
....................          Esterilizando=OFF; 
0CDBC:  MOVLB  1
0CDBE:  BCF    x03.7
....................          Desfogando=OFF; 
0CDC0:  BCF    x04.2
....................          DesfogueSuave=OFF; 
0CDC2:  BCF    x04.3
....................          //IniciaCiclo=OFF; 
....................          Controlando=0; 
0CDC4:  MOVLB  2
0CDC6:  CLRF   x69
....................          if(codigoAnt!=codigoAlarma){ 
0CDC8:  MOVF   xAC,W
0CDCA:  SUBWF  xAD,W
0CDCC:  BZ    CDDC
....................             codigoAnt=codigoAlarma; 
0CDCE:  MOVFF  2AC,2AD
....................             GuardaDatoCiclo(); 
0CDD2:  MOVLB  0
0CDD4:  CALL   710C
....................             incrementaCiclos(); 
0CDD8:  CALL   74BA
....................          } 
....................          if(!flagImprimir){ 
0CDDC:  MOVLB  1
0CDDE:  BTFSC  x09.4
0CDE0:  BRA    CE04
....................             Imprime=20; 
0CDE2:  MOVLW  14
0CDE4:  MOVLB  2
0CDE6:  MOVWF  xC7
....................             Envio_Esclavos(); 
0CDE8:  MOVLB  0
0CDEA:  CALL   579A
....................             delay_ms(100); 
0CDEE:  MOVLW  64
0CDF0:  MOVLB  6
0CDF2:  MOVWF  xDC
0CDF4:  MOVLB  0
0CDF6:  CALL   2142
....................             Imprime=10; 
0CDFA:  MOVLW  0A
0CDFC:  MOVLB  2
0CDFE:  MOVWF  xC7
....................             flagImprimir=1; 
0CE00:  MOVLB  1
0CE02:  BSF    x09.4
....................          } 
....................          if(PresionCamara<=Atmosferica+15 && PresionCamara>Atmosferica-10 && Temperatura<=Tapertura) 
0CE04:  MOVLW  0F
0CE06:  MOVLB  2
0CE08:  ADDWF  xBD,W
0CE0A:  MOVF   x92,F
0CE0C:  BNZ   CE64
0CE0E:  SUBWF  x91,W
0CE10:  BZ    CE14
0CE12:  BC    CE64
0CE14:  MOVLW  0A
0CE16:  SUBWF  xBD,W
0CE18:  MOVF   x92,F
0CE1A:  BNZ   CE22
0CE1C:  SUBWF  x91,W
0CE1E:  BZ    CE64
0CE20:  BNC   CE64
0CE22:  MOVLB  6
0CE24:  CLRF   xDD
0CE26:  MOVFF  277,6DC
0CE2A:  MOVLB  0
0CE2C:  CALL   210C
0CE30:  MOVFF  23E,6D1
0CE34:  MOVFF  23D,6D0
0CE38:  MOVFF  23C,6CF
0CE3C:  MOVFF  23B,6CE
0CE40:  MOVFF  03,6D5
0CE44:  MOVFF  02,6D4
0CE48:  MOVFF  01,6D3
0CE4C:  MOVFF  00,6D2
0CE50:  CALL   279E
0CE54:  BC    CE5E
0CE56:  BTFSC  FD8.2
0CE58:  BRA    CE5E
0CE5A:  MOVLB  2
0CE5C:  BRA    CE64
....................             Start=OFF; 
0CE5E:  MOVLB  1
0CE60:  BCF    x04.5
0CE62:  MOVLB  2
....................       }else if(AlarmaPuertaS || AlarmaPuertaL){ 
0CE64:  GOTO   D728
0CE68:  MOVLB  0
0CE6A:  BTFSC  xFA.0
0CE6C:  BRA    CE72
0CE6E:  BTFSS  xFA.1
0CE70:  BRA    CF38
....................          codigoAlarma=2; 
0CE72:  MOVLW  02
0CE74:  MOVLB  2
0CE76:  MOVWF  xAC
....................          printf("Funcionamiento.t4f.txt=\" Puerta Abierta\""); 
0CE78:  MOVLW  6A
0CE7A:  MOVWF  FF6
0CE7C:  MOVLW  16
0CE7E:  MOVWF  FF7
0CE80:  MOVLW  00
0CE82:  MOVWF  FF8
0CE84:  MOVLB  0
0CE86:  CALL   41BC
....................          SendDataDisplay(); 
0CE8A:  CALL   41EE
....................          printf("Funcionamiento.t5f.txt=\" Pausado\""); 
0CE8E:  MOVLW  94
0CE90:  MOVWF  FF6
0CE92:  MOVLW  16
0CE94:  MOVWF  FF7
0CE96:  MOVLW  00
0CE98:  MOVWF  FF8
0CE9A:  CALL   41BC
....................          SendDataDisplay(); 
0CE9E:  CALL   41EE
....................          Paso=OFF; 
0CEA2:  BCF    xF8.2
....................          suministroVapor=OFF; 
0CEA4:  BCF    xF8.1
....................          if(AlarmaEmpaqueL) 
0CEA6:  BTFSS  xFA.4
0CEA8:  BRA    CEAC
....................             empaqueLimpio=OFF; 
0CEAA:  BCF    30.7
....................          if(AlarmaEmpaqueS) 
0CEAC:  BTFSS  xFA.5
0CEAE:  BRA    CEB2
....................             empaqueSucio=OFF; 
0CEB0:  BCF    xF8.0
....................          //Suministro_off; 
....................          BombaVacio=OFF; 
0CEB2:  BCF    30.6
....................          Aire=OFF; 
0CEB4:  BCF    xF8.5
....................          aguaEnfriador=OFF; 
0CEB6:  BCF    30.5
....................          outVacio=OFF; 
0CEB8:  BCF    xF8.3
....................          IniciaLlenado=OFF; 
0CEBA:  MOVLB  1
0CEBC:  BCF    x03.5
....................          Controlando=0; 
0CEBE:  MOVLB  2
0CEC0:  CLRF   x69
....................          if(codigoAnt!=codigoAlarma){ 
0CEC2:  MOVF   xAC,W
0CEC4:  SUBWF  xAD,W
0CEC6:  BZ    CED4
....................             codigoAnt=codigoAlarma; 
0CEC8:  MOVFF  2AC,2AD
....................             GuardaDatoCiclo(); 
0CECC:  MOVLB  0
0CECE:  CALL   710C
0CED2:  MOVLB  2
....................          } 
....................          if(PresionCamara<=Atmosferica+15 && PresionCamara>Atmosferica-10 && Temperatura<=Tapertura) 
0CED4:  MOVLW  0F
0CED6:  ADDWF  xBD,W
0CED8:  MOVF   x92,F
0CEDA:  BNZ   CF32
0CEDC:  SUBWF  x91,W
0CEDE:  BZ    CEE2
0CEE0:  BC    CF32
0CEE2:  MOVLW  0A
0CEE4:  SUBWF  xBD,W
0CEE6:  MOVF   x92,F
0CEE8:  BNZ   CEF0
0CEEA:  SUBWF  x91,W
0CEEC:  BZ    CF32
0CEEE:  BNC   CF32
0CEF0:  MOVLB  6
0CEF2:  CLRF   xDD
0CEF4:  MOVFF  277,6DC
0CEF8:  MOVLB  0
0CEFA:  CALL   210C
0CEFE:  MOVFF  23E,6D1
0CF02:  MOVFF  23D,6D0
0CF06:  MOVFF  23C,6CF
0CF0A:  MOVFF  23B,6CE
0CF0E:  MOVFF  03,6D5
0CF12:  MOVFF  02,6D4
0CF16:  MOVFF  01,6D3
0CF1A:  MOVFF  00,6D2
0CF1E:  CALL   279E
0CF22:  BC    CF2C
0CF24:  BTFSC  FD8.2
0CF26:  BRA    CF2C
0CF28:  MOVLB  2
0CF2A:  BRA    CF32
....................             Start=OFF; 
0CF2C:  MOVLB  1
0CF2E:  BCF    x04.5
0CF30:  MOVLB  2
....................       }else if(AlarmaLlenado){ 
0CF32:  GOTO   D728
0CF36:  MOVLB  0
0CF38:  BTFSS  xFB.1
0CF3A:  BRA    D028
....................          codigoAlarma=9; 
0CF3C:  MOVLW  09
0CF3E:  MOVLB  2
0CF40:  MOVWF  xAC
....................          printf("Funcionamiento.t4f.txt=\" Tiempo Llenado\""); 
0CF42:  MOVLW  B6
0CF44:  MOVWF  FF6
0CF46:  MOVLW  16
0CF48:  MOVWF  FF7
0CF4A:  MOVLW  00
0CF4C:  MOVWF  FF8
0CF4E:  MOVLB  0
0CF50:  CALL   41BC
....................          SendDataDisplay(); 
0CF54:  CALL   41EE
....................          printf("Funcionamiento.t5f.txt=\" Cancelado\""); 
0CF58:  MOVLW  E0
0CF5A:  MOVWF  FF6
0CF5C:  MOVLW  16
0CF5E:  MOVWF  FF7
0CF60:  MOVLW  00
0CF62:  MOVWF  FF8
0CF64:  CALL   41BC
....................          SendDataDisplay(); 
0CF68:  CALL   41EE
....................          suministroVapor=OFF; 
0CF6C:  BCF    xF8.1
....................          Aire=OFF; 
0CF6E:  BCF    xF8.5
....................          Desfogue=OFF; 
0CF70:  BCF    xF8.4
....................          Paso=OFF; 
0CF72:  BCF    xF8.2
....................          //if(!abrirPuertaL && !abrirPuertaS) 
....................             BombaVacio=OFF; 
0CF74:  BCF    30.6
....................          aguaEnfriador=OFF; 
0CF76:  BCF    30.5
....................          outVacio=OFF; 
0CF78:  BCF    xF8.3
....................          IniciaLlenado=OFF; 
0CF7A:  MOVLB  1
0CF7C:  BCF    x03.5
....................          IniciaCiclo=OFF; 
0CF7E:  BCF    x03.6
....................          Esterilizando=OFF; 
0CF80:  BCF    x03.7
....................          Controlando=0; 
0CF82:  MOVLB  2
0CF84:  CLRF   x69
....................          if(codigoAnt!=codigoAlarma){ 
0CF86:  MOVF   xAC,W
0CF88:  SUBWF  xAD,W
0CF8A:  BZ    CF9A
....................             codigoAnt=codigoAlarma; 
0CF8C:  MOVFF  2AC,2AD
....................             GuardaDatoCiclo(); 
0CF90:  MOVLB  0
0CF92:  CALL   710C
....................             incrementaCiclos(); 
0CF96:  CALL   74BA
....................          } 
....................          if(!flagImprimir){ 
0CF9A:  MOVLB  1
0CF9C:  BTFSC  x09.4
0CF9E:  BRA    CFC2
....................             Imprime=21; 
0CFA0:  MOVLW  15
0CFA2:  MOVLB  2
0CFA4:  MOVWF  xC7
....................             Envio_Esclavos(); 
0CFA6:  MOVLB  0
0CFA8:  CALL   579A
....................             delay_ms(100); 
0CFAC:  MOVLW  64
0CFAE:  MOVLB  6
0CFB0:  MOVWF  xDC
0CFB2:  MOVLB  0
0CFB4:  CALL   2142
....................             Imprime=10; 
0CFB8:  MOVLW  0A
0CFBA:  MOVLB  2
0CFBC:  MOVWF  xC7
....................             flagImprimir=1; 
0CFBE:  MOVLB  1
0CFC0:  BSF    x09.4
....................          } 
....................          if(PresionCamara<=Atmosferica+15 && PresionCamara>Atmosferica-10 && Temperatura<=Tapertura) 
0CFC2:  MOVLW  0F
0CFC4:  MOVLB  2
0CFC6:  ADDWF  xBD,W
0CFC8:  MOVF   x92,F
0CFCA:  BNZ   D022
0CFCC:  SUBWF  x91,W
0CFCE:  BZ    CFD2
0CFD0:  BC    D022
0CFD2:  MOVLW  0A
0CFD4:  SUBWF  xBD,W
0CFD6:  MOVF   x92,F
0CFD8:  BNZ   CFE0
0CFDA:  SUBWF  x91,W
0CFDC:  BZ    D022
0CFDE:  BNC   D022
0CFE0:  MOVLB  6
0CFE2:  CLRF   xDD
0CFE4:  MOVFF  277,6DC
0CFE8:  MOVLB  0
0CFEA:  CALL   210C
0CFEE:  MOVFF  23E,6D1
0CFF2:  MOVFF  23D,6D0
0CFF6:  MOVFF  23C,6CF
0CFFA:  MOVFF  23B,6CE
0CFFE:  MOVFF  03,6D5
0D002:  MOVFF  02,6D4
0D006:  MOVFF  01,6D3
0D00A:  MOVFF  00,6D2
0D00E:  CALL   279E
0D012:  BC    D01C
0D014:  BTFSC  FD8.2
0D016:  BRA    D01C
0D018:  MOVLB  2
0D01A:  BRA    D022
....................             Start=OFF; 
0D01C:  MOVLB  1
0D01E:  BCF    x04.5
0D020:  MOVLB  2
....................       }else if(AlarmaTermostato){ 
0D022:  GOTO   D728
0D026:  MOVLB  0
0D028:  BTFSS  xF9.7
0D02A:  BRA    D11A
....................          codigoAlarma=3; 
0D02C:  MOVLW  03
0D02E:  MOVLB  2
0D030:  MOVWF  xAC
....................          tiempo_esterilizacion=0;tiempo_secado=0;          
0D032:  CLRF   x83
0D034:  CLRF   x84
....................          printf("Funcionamiento.t4f.txt=\" Termostato\""); 
0D036:  MOVLW  04
0D038:  MOVWF  FF6
0D03A:  MOVLW  17
0D03C:  MOVWF  FF7
0D03E:  MOVLW  00
0D040:  MOVWF  FF8
0D042:  MOVLB  0
0D044:  CALL   41BC
....................          SendDataDisplay(); 
0D048:  CALL   41EE
....................          printf("Funcionamiento.t5f.txt=\" Cancelado\""); 
0D04C:  MOVLW  2A
0D04E:  MOVWF  FF6
0D050:  MOVLW  17
0D052:  MOVWF  FF7
0D054:  MOVLW  00
0D056:  MOVWF  FF8
0D058:  CALL   41BC
....................          SendDataDisplay(); 
0D05C:  CALL   41EE
....................          suministroVapor=OFF; 
0D060:  BCF    xF8.1
....................          Desfogue=ON;                   
0D062:  BSF    xF8.4
....................          Paso=OFF; 
0D064:  BCF    xF8.2
....................          //if(!abrirPuertaL && !abrirPuertaS) 
....................             BombaVacio=OFF; 
0D066:  BCF    30.6
....................          Aire=OFF; 
0D068:  BCF    xF8.5
....................          aguaEnfriador=OFF; 
0D06A:  BCF    30.5
....................          outVacio=OFF; 
0D06C:  BCF    xF8.3
....................          Esterilizando=OFF; 
0D06E:  MOVLB  1
0D070:  BCF    x03.7
....................          Desfogando=OFF; 
0D072:  BCF    x04.2
....................          IniciaCiclo=OFF; 
0D074:  BCF    x03.6
....................          Controlando=0; 
0D076:  MOVLB  2
0D078:  CLRF   x69
....................          if(codigoAnt!=codigoAlarma){ 
0D07A:  MOVF   xAC,W
0D07C:  SUBWF  xAD,W
0D07E:  BZ    D08E
....................             codigoAnt=codigoAlarma; 
0D080:  MOVFF  2AC,2AD
....................             GuardaDatoCiclo(); 
0D084:  MOVLB  0
0D086:  CALL   710C
....................             incrementaCiclos(); 
0D08A:  CALL   74BA
....................          } 
....................          if(!flagImprimir){ 
0D08E:  MOVLB  1
0D090:  BTFSC  x09.4
0D092:  BRA    D0B6
....................             Imprime=22; 
0D094:  MOVLW  16
0D096:  MOVLB  2
0D098:  MOVWF  xC7
....................             Envio_Esclavos(); 
0D09A:  MOVLB  0
0D09C:  CALL   579A
....................             delay_ms(100); 
0D0A0:  MOVLW  64
0D0A2:  MOVLB  6
0D0A4:  MOVWF  xDC
0D0A6:  MOVLB  0
0D0A8:  CALL   2142
....................             Imprime=10; 
0D0AC:  MOVLW  0A
0D0AE:  MOVLB  2
0D0B0:  MOVWF  xC7
....................             flagImprimir=1; 
0D0B2:  MOVLB  1
0D0B4:  BSF    x09.4
....................          } 
....................          if(PresionCamara<=Atmosferica+15 && PresionCamara>Atmosferica-10 && Temperatura<=Tapertura) 
0D0B6:  MOVLW  0F
0D0B8:  MOVLB  2
0D0BA:  ADDWF  xBD,W
0D0BC:  MOVF   x92,F
0D0BE:  BNZ   D116
0D0C0:  SUBWF  x91,W
0D0C2:  BZ    D0C6
0D0C4:  BC    D116
0D0C6:  MOVLW  0A
0D0C8:  SUBWF  xBD,W
0D0CA:  MOVF   x92,F
0D0CC:  BNZ   D0D4
0D0CE:  SUBWF  x91,W
0D0D0:  BZ    D116
0D0D2:  BNC   D116
0D0D4:  MOVLB  6
0D0D6:  CLRF   xDD
0D0D8:  MOVFF  277,6DC
0D0DC:  MOVLB  0
0D0DE:  CALL   210C
0D0E2:  MOVFF  23E,6D1
0D0E6:  MOVFF  23D,6D0
0D0EA:  MOVFF  23C,6CF
0D0EE:  MOVFF  23B,6CE
0D0F2:  MOVFF  03,6D5
0D0F6:  MOVFF  02,6D4
0D0FA:  MOVFF  01,6D3
0D0FE:  MOVFF  00,6D2
0D102:  CALL   279E
0D106:  BC    D110
0D108:  BTFSC  FD8.2
0D10A:  BRA    D110
0D10C:  MOVLB  2
0D10E:  BRA    D116
....................             Start=OFF; 
0D110:  MOVLB  1
0D112:  BCF    x04.5
0D114:  MOVLB  2
....................       }else if(AlarmaSobreTemperatura){                   
0D116:  BRA    D728
0D118:  MOVLB  0
0D11A:  BTFSS  xF9.6
0D11C:  BRA    D204
....................          codigoAlarma=4; 
0D11E:  MOVLW  04
0D120:  MOVLB  2
0D122:  MOVWF  xAC
....................          tiempo_esterilizacion=0;tiempo_secado=0;          
0D124:  CLRF   x83
0D126:  CLRF   x84
....................          printf("Funcionamiento.t4f.txt=\" Sobretemperatura\""); 
0D128:  MOVLW  4E
0D12A:  MOVWF  FF6
0D12C:  MOVLW  17
0D12E:  MOVWF  FF7
0D130:  MOVLW  00
0D132:  MOVWF  FF8
0D134:  MOVLB  0
0D136:  CALL   41BC
....................          SendDataDisplay(); 
0D13A:  CALL   41EE
....................          printf("Funcionamiento.t5f.txt=\" Cancelado\""); 
0D13E:  MOVLW  7A
0D140:  MOVWF  FF6
0D142:  MOVLW  17
0D144:  MOVWF  FF7
0D146:  MOVLW  00
0D148:  MOVWF  FF8
0D14A:  CALL   41BC
....................          SendDataDisplay();   
0D14E:  CALL   41EE
....................          suministroVapor=OFF; 
0D152:  BCF    xF8.1
....................          Desfogue=ON; 
0D154:  BSF    xF8.4
....................          Paso=OFF; 
0D156:  BCF    xF8.2
....................          //if(!abrirPuertaL && !abrirPuertaS) 
....................             BombaVacio=OFF; 
0D158:  BCF    30.6
....................          Aire=OFF; 
0D15A:  BCF    xF8.5
....................          aguaEnfriador=OFF; 
0D15C:  BCF    30.5
....................          outVacio=OFF; 
0D15E:  BCF    xF8.3
....................          Controlando=0; 
0D160:  MOVLB  2
0D162:  CLRF   x69
....................          if(codigoAnt!=codigoAlarma){ 
0D164:  MOVF   xAC,W
0D166:  SUBWF  xAD,W
0D168:  BZ    D178
....................             codigoAnt=codigoAlarma; 
0D16A:  MOVFF  2AC,2AD
....................             GuardaDatoCiclo(); 
0D16E:  MOVLB  0
0D170:  CALL   710C
....................             incrementaCiclos(); 
0D174:  CALL   74BA
....................          } 
....................          if(!flagImprimir){ 
0D178:  MOVLB  1
0D17A:  BTFSC  x09.4
0D17C:  BRA    D1A0
....................             Imprime=23; 
0D17E:  MOVLW  17
0D180:  MOVLB  2
0D182:  MOVWF  xC7
....................             Envio_Esclavos(); 
0D184:  MOVLB  0
0D186:  CALL   579A
....................             delay_ms(100); 
0D18A:  MOVLW  64
0D18C:  MOVLB  6
0D18E:  MOVWF  xDC
0D190:  MOVLB  0
0D192:  CALL   2142
....................             Imprime=10; 
0D196:  MOVLW  0A
0D198:  MOVLB  2
0D19A:  MOVWF  xC7
....................             flagImprimir=1; 
0D19C:  MOVLB  1
0D19E:  BSF    x09.4
....................          } 
....................          if(PresionCamara<=Atmosferica+15 && PresionCamara>Atmosferica-10 && Temperatura<=Tapertura) 
0D1A0:  MOVLW  0F
0D1A2:  MOVLB  2
0D1A4:  ADDWF  xBD,W
0D1A6:  MOVF   x92,F
0D1A8:  BNZ   D200
0D1AA:  SUBWF  x91,W
0D1AC:  BZ    D1B0
0D1AE:  BC    D200
0D1B0:  MOVLW  0A
0D1B2:  SUBWF  xBD,W
0D1B4:  MOVF   x92,F
0D1B6:  BNZ   D1BE
0D1B8:  SUBWF  x91,W
0D1BA:  BZ    D200
0D1BC:  BNC   D200
0D1BE:  MOVLB  6
0D1C0:  CLRF   xDD
0D1C2:  MOVFF  277,6DC
0D1C6:  MOVLB  0
0D1C8:  CALL   210C
0D1CC:  MOVFF  23E,6D1
0D1D0:  MOVFF  23D,6D0
0D1D4:  MOVFF  23C,6CF
0D1D8:  MOVFF  23B,6CE
0D1DC:  MOVFF  03,6D5
0D1E0:  MOVFF  02,6D4
0D1E4:  MOVFF  01,6D3
0D1E8:  MOVFF  00,6D2
0D1EC:  CALL   279E
0D1F0:  BC    D1FA
0D1F2:  BTFSC  FD8.2
0D1F4:  BRA    D1FA
0D1F6:  MOVLB  2
0D1F8:  BRA    D200
....................             Start=OFF; 
0D1FA:  MOVLB  1
0D1FC:  BCF    x04.5
0D1FE:  MOVLB  2
....................       }else if(AlarmaTiempoProlongado){ 
0D200:  BRA    D728
0D202:  MOVLB  0
0D204:  BTFSS  xF9.5
0D206:  BRA    D2E6
....................          codigoAlarma=5; 
0D208:  MOVLW  05
0D20A:  MOVLB  2
0D20C:  MOVWF  xAC
....................          printf("Funcionamiento.t4f.txt=\" Tiempo Prolongado\""); 
0D20E:  MOVLW  9E
0D210:  MOVWF  FF6
0D212:  MOVLW  17
0D214:  MOVWF  FF7
0D216:  MOVLW  00
0D218:  MOVWF  FF8
0D21A:  MOVLB  0
0D21C:  CALL   41BC
....................          SendDataDisplay(); 
0D220:  CALL   41EE
....................          printf("Funcionamiento.t5f.txt=\" Cancelado\""); 
0D224:  MOVLW  CA
0D226:  MOVWF  FF6
0D228:  MOVLW  17
0D22A:  MOVWF  FF7
0D22C:  MOVLW  00
0D22E:  MOVWF  FF8
0D230:  CALL   41BC
....................          SendDataDisplay(); 
0D234:  CALL   41EE
....................          suministroVapor=OFF; 
0D238:  BCF    xF8.1
....................          //if(!abrirPuertaL && !abrirPuertaS) 
....................             BombaVacio=OFF; 
0D23A:  BCF    30.6
....................          Desfogue=ON; 
0D23C:  BSF    xF8.4
....................          Paso=OFF; 
0D23E:  BCF    xF8.2
....................          aguaEnfriador=OFF; 
0D240:  BCF    30.5
....................          outVacio=OFF; 
0D242:  BCF    xF8.3
....................          Controlando=0; 
0D244:  MOVLB  2
0D246:  CLRF   x69
....................          if(codigoAnt!=codigoAlarma){ 
0D248:  MOVF   xAC,W
0D24A:  SUBWF  xAD,W
0D24C:  BZ    D25C
....................             codigoAnt=codigoAlarma; 
0D24E:  MOVFF  2AC,2AD
....................             GuardaDatoCiclo(); 
0D252:  MOVLB  0
0D254:  CALL   710C
....................             incrementaCiclos(); 
0D258:  CALL   74BA
....................          } 
....................          if(!flagImprimir){ 
0D25C:  MOVLB  1
0D25E:  BTFSC  x09.4
0D260:  BRA    D284
....................             Imprime=24; 
0D262:  MOVLW  18
0D264:  MOVLB  2
0D266:  MOVWF  xC7
....................             Envio_Esclavos(); 
0D268:  MOVLB  0
0D26A:  CALL   579A
....................             delay_ms(100); 
0D26E:  MOVLW  64
0D270:  MOVLB  6
0D272:  MOVWF  xDC
0D274:  MOVLB  0
0D276:  CALL   2142
....................             Imprime=10; 
0D27A:  MOVLW  0A
0D27C:  MOVLB  2
0D27E:  MOVWF  xC7
....................             flagImprimir=1; 
0D280:  MOVLB  1
0D282:  BSF    x09.4
....................          } 
....................          if(PresionCamara<=Atmosferica+15 && PresionCamara>Atmosferica-10 && Temperatura<=Tapertura) 
0D284:  MOVLW  0F
0D286:  MOVLB  2
0D288:  ADDWF  xBD,W
0D28A:  MOVF   x92,F
0D28C:  BNZ   D2E4
0D28E:  SUBWF  x91,W
0D290:  BZ    D294
0D292:  BC    D2E4
0D294:  MOVLW  0A
0D296:  SUBWF  xBD,W
0D298:  MOVF   x92,F
0D29A:  BNZ   D2A2
0D29C:  SUBWF  x91,W
0D29E:  BZ    D2E4
0D2A0:  BNC   D2E4
0D2A2:  MOVLB  6
0D2A4:  CLRF   xDD
0D2A6:  MOVFF  277,6DC
0D2AA:  MOVLB  0
0D2AC:  CALL   210C
0D2B0:  MOVFF  23E,6D1
0D2B4:  MOVFF  23D,6D0
0D2B8:  MOVFF  23C,6CF
0D2BC:  MOVFF  23B,6CE
0D2C0:  MOVFF  03,6D5
0D2C4:  MOVFF  02,6D4
0D2C8:  MOVFF  01,6D3
0D2CC:  MOVFF  00,6D2
0D2D0:  CALL   279E
0D2D4:  BC    D2DE
0D2D6:  BTFSC  FD8.2
0D2D8:  BRA    D2DE
0D2DA:  MOVLB  2
0D2DC:  BRA    D2E4
....................             Start=OFF; 
0D2DE:  MOVLB  1
0D2E0:  BCF    x04.5
0D2E2:  MOVLB  2
....................       }else if(AlarmaPresion){ // Alarma de Error de SobrePresion: Error por exceso de Presion. 
0D2E4:  BRA    D728
0D2E6:  MOVLB  1
0D2E8:  BTFSS  x07.1
0D2EA:  BRA    D3EA
....................          codigoAlarma=6; 
0D2EC:  MOVLW  06
0D2EE:  MOVLB  2
0D2F0:  MOVWF  xAC
....................          printf("Funcionamiento.t4f.txt=\" SobrePresion\""); 
0D2F2:  MOVLW  EE
0D2F4:  MOVWF  FF6
0D2F6:  MOVLW  17
0D2F8:  MOVWF  FF7
0D2FA:  MOVLW  00
0D2FC:  MOVWF  FF8
0D2FE:  MOVLB  0
0D300:  CALL   41BC
....................          SendDataDisplay(); 
0D304:  CALL   41EE
....................          printf("Funcionamiento.t5f.txt=\" Cancelado\""); 
0D308:  MOVLW  16
0D30A:  MOVWF  FF6
0D30C:  MOVLW  18
0D30E:  MOVWF  FF7
0D310:  MOVLW  00
0D312:  MOVWF  FF8
0D314:  CALL   41BC
....................          SendDataDisplay(); 
0D318:  CALL   41EE
....................          Desfogue=ON; 
0D31C:  BSF    xF8.4
....................          suministroVapor=OFF; 
0D31E:  BCF    xF8.1
....................          //if(!abrirPuertaL && !abrirPuertaS) 
....................             BombaVacio=OFF; 
0D320:  BCF    30.6
....................          Aire=OFF; 
0D322:  BCF    xF8.5
....................          aguaEnfriador=OFF; 
0D324:  BCF    30.5
....................          outVacio=OFF; 
0D326:  BCF    xF8.3
....................          if(PresionPreCamara>(Atmosferica+4) && DOORS) 
0D328:  MOVLW  04
0D32A:  MOVLB  2
0D32C:  ADDWF  xBD,W
0D32E:  MOVF   x94,F
0D330:  BNZ   D338
0D332:  SUBWF  x93,W
0D334:  BZ    D344
0D336:  BNC   D344
0D338:  BSF    F93.1
0D33A:  BTFSC  F81.1
0D33C:  BRA    D344
....................             Paso=ON; 
0D33E:  MOVLB  0
0D340:  BSF    xF8.2
....................          else 
0D342:  BRA    D348
....................             Paso=OFF; 
0D344:  MOVLB  0
0D346:  BCF    xF8.2
....................          Controlando=0; 
0D348:  MOVLB  2
0D34A:  CLRF   x69
....................          if(codigoAnt!=codigoAlarma){ 
0D34C:  MOVF   xAC,W
0D34E:  SUBWF  xAD,W
0D350:  BZ    D360
....................             codigoAnt=codigoAlarma; 
0D352:  MOVFF  2AC,2AD
....................             GuardaDatoCiclo(); 
0D356:  MOVLB  0
0D358:  CALL   710C
....................             incrementaCiclos(); 
0D35C:  CALL   74BA
....................          } 
....................          if(!flagImprimir){ 
0D360:  MOVLB  1
0D362:  BTFSC  x09.4
0D364:  BRA    D388
....................             Imprime=25; 
0D366:  MOVLW  19
0D368:  MOVLB  2
0D36A:  MOVWF  xC7
....................             Envio_Esclavos(); 
0D36C:  MOVLB  0
0D36E:  CALL   579A
....................             delay_ms(100); 
0D372:  MOVLW  64
0D374:  MOVLB  6
0D376:  MOVWF  xDC
0D378:  MOVLB  0
0D37A:  CALL   2142
....................             Imprime=10; 
0D37E:  MOVLW  0A
0D380:  MOVLB  2
0D382:  MOVWF  xC7
....................             flagImprimir=1; 
0D384:  MOVLB  1
0D386:  BSF    x09.4
....................          } 
....................          if(PresionCamara<=Atmosferica+15 && PresionCamara>Atmosferica-10 && Temperatura<=Tapertura) 
0D388:  MOVLW  0F
0D38A:  MOVLB  2
0D38C:  ADDWF  xBD,W
0D38E:  MOVF   x92,F
0D390:  BNZ   D3E8
0D392:  SUBWF  x91,W
0D394:  BZ    D398
0D396:  BC    D3E8
0D398:  MOVLW  0A
0D39A:  SUBWF  xBD,W
0D39C:  MOVF   x92,F
0D39E:  BNZ   D3A6
0D3A0:  SUBWF  x91,W
0D3A2:  BZ    D3E8
0D3A4:  BNC   D3E8
0D3A6:  MOVLB  6
0D3A8:  CLRF   xDD
0D3AA:  MOVFF  277,6DC
0D3AE:  MOVLB  0
0D3B0:  CALL   210C
0D3B4:  MOVFF  23E,6D1
0D3B8:  MOVFF  23D,6D0
0D3BC:  MOVFF  23C,6CF
0D3C0:  MOVFF  23B,6CE
0D3C4:  MOVFF  03,6D5
0D3C8:  MOVFF  02,6D4
0D3CC:  MOVFF  01,6D3
0D3D0:  MOVFF  00,6D2
0D3D4:  CALL   279E
0D3D8:  BC    D3E2
0D3DA:  BTFSC  FD8.2
0D3DC:  BRA    D3E2
0D3DE:  MOVLB  2
0D3E0:  BRA    D3E8
....................             Start=OFF; 
0D3E2:  MOVLB  1
0D3E4:  BCF    x04.5
0D3E6:  MOVLB  2
....................       }else if(AlarmaBomba){ // Alarma de Error de que bomba no ha arrancado. 
0D3E8:  BRA    D728
0D3EA:  MOVLB  0
0D3EC:  BTFSS  xFA.6
0D3EE:  BRA    D4D0
....................          codigoAlarma=7; 
0D3F0:  MOVLW  07
0D3F2:  MOVLB  2
0D3F4:  MOVWF  xAC
....................          printf("Funcionamiento.t4f.txt=\" Error Bomba\""); 
0D3F6:  MOVLW  3A
0D3F8:  MOVWF  FF6
0D3FA:  MOVLW  18
0D3FC:  MOVWF  FF7
0D3FE:  MOVLW  00
0D400:  MOVWF  FF8
0D402:  MOVLB  0
0D404:  CALL   41BC
....................          SendDataDisplay(); 
0D408:  CALL   41EE
....................          printf("Funcionamiento.t5f.txt=\" Cancelado\""); 
0D40C:  MOVLW  60
0D40E:  MOVWF  FF6
0D410:  MOVLW  18
0D412:  MOVWF  FF7
0D414:  MOVLW  00
0D416:  MOVWF  FF8
0D418:  CALL   41BC
....................          SendDataDisplay(); 
0D41C:  CALL   41EE
....................          Desfogue=ON; 
0D420:  BSF    xF8.4
....................          suministroVapor=OFF; 
0D422:  BCF    xF8.1
....................          //if(!abrirPuertaL && !abrirPuertaS) 
....................             BombaVacio=OFF; 
0D424:  BCF    30.6
....................          Aire=OFF; 
0D426:  BCF    xF8.5
....................          aguaEnfriador=OFF; 
0D428:  BCF    30.5
....................          outVacio=OFF; 
0D42A:  BCF    xF8.3
....................          Controlando=0; 
0D42C:  MOVLB  2
0D42E:  CLRF   x69
....................          if(codigoAnt!=codigoAlarma){ 
0D430:  MOVF   xAC,W
0D432:  SUBWF  xAD,W
0D434:  BZ    D444
....................             codigoAnt=codigoAlarma; 
0D436:  MOVFF  2AC,2AD
....................             GuardaDatoCiclo(); 
0D43A:  MOVLB  0
0D43C:  CALL   710C
....................             incrementaCiclos(); 
0D440:  CALL   74BA
....................          } 
....................          if(!flagImprimir){ 
0D444:  MOVLB  1
0D446:  BTFSC  x09.4
0D448:  BRA    D46C
....................             Imprime=26; 
0D44A:  MOVLW  1A
0D44C:  MOVLB  2
0D44E:  MOVWF  xC7
....................             Envio_Esclavos(); 
0D450:  MOVLB  0
0D452:  CALL   579A
....................             delay_ms(100); 
0D456:  MOVLW  64
0D458:  MOVLB  6
0D45A:  MOVWF  xDC
0D45C:  MOVLB  0
0D45E:  CALL   2142
....................             Imprime=10; 
0D462:  MOVLW  0A
0D464:  MOVLB  2
0D466:  MOVWF  xC7
....................             flagImprimir=1; 
0D468:  MOVLB  1
0D46A:  BSF    x09.4
....................          } 
....................          if(PresionCamara<=Atmosferica+15 && PresionCamara>Atmosferica-10 && Temperatura<=Tapertura) 
0D46C:  MOVLW  0F
0D46E:  MOVLB  2
0D470:  ADDWF  xBD,W
0D472:  MOVF   x92,F
0D474:  BNZ   D4CC
0D476:  SUBWF  x91,W
0D478:  BZ    D47C
0D47A:  BC    D4CC
0D47C:  MOVLW  0A
0D47E:  SUBWF  xBD,W
0D480:  MOVF   x92,F
0D482:  BNZ   D48A
0D484:  SUBWF  x91,W
0D486:  BZ    D4CC
0D488:  BNC   D4CC
0D48A:  MOVLB  6
0D48C:  CLRF   xDD
0D48E:  MOVFF  277,6DC
0D492:  MOVLB  0
0D494:  CALL   210C
0D498:  MOVFF  23E,6D1
0D49C:  MOVFF  23D,6D0
0D4A0:  MOVFF  23C,6CF
0D4A4:  MOVFF  23B,6CE
0D4A8:  MOVFF  03,6D5
0D4AC:  MOVFF  02,6D4
0D4B0:  MOVFF  01,6D3
0D4B4:  MOVFF  00,6D2
0D4B8:  CALL   279E
0D4BC:  BC    D4C6
0D4BE:  BTFSC  FD8.2
0D4C0:  BRA    D4C6
0D4C2:  MOVLB  2
0D4C4:  BRA    D4CC
....................             Start=OFF; 
0D4C6:  MOVLB  1
0D4C8:  BCF    x04.5
0D4CA:  MOVLB  2
....................       }else if(AlarmaVacio){ // Alarma de Error de que genera el Vacio en el tiempo estipulado. 
0D4CC:  BRA    D728
0D4CE:  MOVLB  0
0D4D0:  BTFSS  xFA.3
0D4D2:  BRA    D5B4
....................          codigoAlarma=8; 
0D4D4:  MOVLW  08
0D4D6:  MOVLB  2
0D4D8:  MOVWF  xAC
....................          printf("Funcionamiento.t4f.txt=\" Error Vacio\""); 
0D4DA:  MOVLW  84
0D4DC:  MOVWF  FF6
0D4DE:  MOVLW  18
0D4E0:  MOVWF  FF7
0D4E2:  MOVLW  00
0D4E4:  MOVWF  FF8
0D4E6:  MOVLB  0
0D4E8:  CALL   41BC
....................          SendDataDisplay(); 
0D4EC:  CALL   41EE
....................          printf("Funcionamiento.t5f.txt=\" Cancelado\""); 
0D4F0:  MOVLW  AA
0D4F2:  MOVWF  FF6
0D4F4:  MOVLW  18
0D4F6:  MOVWF  FF7
0D4F8:  MOVLW  00
0D4FA:  MOVWF  FF8
0D4FC:  CALL   41BC
....................          SendDataDisplay(); 
0D500:  CALL   41EE
....................          Desfogue=ON; 
0D504:  BSF    xF8.4
....................          suministroVapor=OFF; 
0D506:  BCF    xF8.1
....................          //if(!abrirPuertaL && !abrirPuertaS) 
....................             BombaVacio=OFF; 
0D508:  BCF    30.6
....................          Aire=OFF; 
0D50A:  BCF    xF8.5
....................          aguaEnfriador=OFF; 
0D50C:  BCF    30.5
....................          outVacio=OFF; 
0D50E:  BCF    xF8.3
....................          Controlando=0; 
0D510:  MOVLB  2
0D512:  CLRF   x69
....................          if(codigoAnt!=codigoAlarma){ 
0D514:  MOVF   xAC,W
0D516:  SUBWF  xAD,W
0D518:  BZ    D528
....................             codigoAnt=codigoAlarma; 
0D51A:  MOVFF  2AC,2AD
....................             GuardaDatoCiclo(); 
0D51E:  MOVLB  0
0D520:  CALL   710C
....................             incrementaCiclos(); 
0D524:  CALL   74BA
....................          } 
....................           
....................          if(!flagImprimir){ 
0D528:  MOVLB  1
0D52A:  BTFSC  x09.4
0D52C:  BRA    D550
....................             Imprime=27; 
0D52E:  MOVLW  1B
0D530:  MOVLB  2
0D532:  MOVWF  xC7
....................             Envio_Esclavos(); 
0D534:  MOVLB  0
0D536:  CALL   579A
....................             delay_ms(100); 
0D53A:  MOVLW  64
0D53C:  MOVLB  6
0D53E:  MOVWF  xDC
0D540:  MOVLB  0
0D542:  CALL   2142
....................             Imprime=10; 
0D546:  MOVLW  0A
0D548:  MOVLB  2
0D54A:  MOVWF  xC7
....................             flagImprimir=1; 
0D54C:  MOVLB  1
0D54E:  BSF    x09.4
....................          } 
....................          if(PresionCamara<=Atmosferica+15 && PresionCamara>Atmosferica-10 && Temperatura<=Tapertura) 
0D550:  MOVLW  0F
0D552:  MOVLB  2
0D554:  ADDWF  xBD,W
0D556:  MOVF   x92,F
0D558:  BNZ   D5B0
0D55A:  SUBWF  x91,W
0D55C:  BZ    D560
0D55E:  BC    D5B0
0D560:  MOVLW  0A
0D562:  SUBWF  xBD,W
0D564:  MOVF   x92,F
0D566:  BNZ   D56E
0D568:  SUBWF  x91,W
0D56A:  BZ    D5B0
0D56C:  BNC   D5B0
0D56E:  MOVLB  6
0D570:  CLRF   xDD
0D572:  MOVFF  277,6DC
0D576:  MOVLB  0
0D578:  CALL   210C
0D57C:  MOVFF  23E,6D1
0D580:  MOVFF  23D,6D0
0D584:  MOVFF  23C,6CF
0D588:  MOVFF  23B,6CE
0D58C:  MOVFF  03,6D5
0D590:  MOVFF  02,6D4
0D594:  MOVFF  01,6D3
0D598:  MOVFF  00,6D2
0D59C:  CALL   279E
0D5A0:  BC    D5AA
0D5A2:  BTFSC  FD8.2
0D5A4:  BRA    D5AA
0D5A6:  MOVLB  2
0D5A8:  BRA    D5B0
....................             Start=OFF; 
0D5AA:  MOVLB  1
0D5AC:  BCF    x04.5
0D5AE:  MOVLB  2
....................       }else if(AlarmaEmpaqueS || AlarmaEmpaqueL){ // Alarma de Error de que el empaque no se presuriza 
0D5B0:  BRA    D728
0D5B2:  MOVLB  0
0D5B4:  BTFSC  xFA.5
0D5B6:  BRA    D5BC
0D5B8:  BTFSS  xFA.4
0D5BA:  BRA    D6DE
....................          codigoAlarma=9; 
0D5BC:  MOVLW  09
0D5BE:  MOVLB  2
0D5C0:  MOVWF  xAC
....................          printf("Funcionamiento.t4f.txt=\" Error Empaque\""); 
0D5C2:  MOVLW  CE
0D5C4:  MOVWF  FF6
0D5C6:  MOVLW  18
0D5C8:  MOVWF  FF7
0D5CA:  MOVLW  00
0D5CC:  MOVWF  FF8
0D5CE:  MOVLB  0
0D5D0:  CALL   41BC
....................          SendDataDisplay(); 
0D5D4:  CALL   41EE
....................          printf("Funcionamiento.t5f.txt=\" Cancelado\""); 
0D5D8:  MOVLW  F6
0D5DA:  MOVWF  FF6
0D5DC:  MOVLW  18
0D5DE:  MOVWF  FF7
0D5E0:  MOVLW  00
0D5E2:  MOVWF  FF8
0D5E4:  CALL   41BC
....................          SendDataDisplay(); 
0D5E8:  CALL   41EE
....................          if(AlarmaEmpaqueL && PresionCamara<Atmosferica+4) 
0D5EC:  BTFSS  xFA.4
0D5EE:  BRA    D60E
0D5F0:  MOVLW  04
0D5F2:  MOVLB  2
0D5F4:  ADDWF  xBD,W
0D5F6:  MOVF   x92,F
0D5F8:  BTFSC  FD8.2
0D5FA:  BRA    D600
0D5FC:  MOVLB  0
0D5FE:  BRA    D60E
0D600:  SUBWF  x91,W
0D602:  BTFSS  FD8.0
0D604:  BRA    D60A
0D606:  MOVLB  0
0D608:  BRA    D60E
....................             empaqueLimpio=OFF; 
0D60A:  BCF    30.7
0D60C:  MOVLB  0
....................          if(AlarmaEmpaqueS && PresionCamara<Atmosferica+4) 
0D60E:  BTFSS  xFA.5
0D610:  BRA    D630
0D612:  MOVLW  04
0D614:  MOVLB  2
0D616:  ADDWF  xBD,W
0D618:  MOVF   x92,F
0D61A:  BTFSC  FD8.2
0D61C:  BRA    D622
0D61E:  MOVLB  0
0D620:  BRA    D630
0D622:  SUBWF  x91,W
0D624:  BTFSS  FD8.0
0D626:  BRA    D62C
0D628:  MOVLB  0
0D62A:  BRA    D630
....................             empaqueSucio=OFF; 
0D62C:  MOVLB  0
0D62E:  BCF    xF8.0
....................          Desfogue=ON; 
0D630:  BSF    xF8.4
....................          suministroVapor=OFF; 
0D632:  BCF    xF8.1
....................          //if(!abrirPuertaL && !abrirPuertaS) 
....................             BombaVacio=OFF; 
0D634:  BCF    30.6
....................          Aire=OFF; 
0D636:  BCF    xF8.5
....................          aguaEnfriador=OFF; 
0D638:  BCF    30.5
....................          outVacio=OFF; 
0D63A:  BCF    xF8.3
....................          Controlando=0; 
0D63C:  MOVLB  2
0D63E:  CLRF   x69
....................          if(codigoAnt!=codigoAlarma){ 
0D640:  MOVF   xAC,W
0D642:  SUBWF  xAD,W
0D644:  BZ    D654
....................             codigoAnt=codigoAlarma; 
0D646:  MOVFF  2AC,2AD
....................             GuardaDatoCiclo(); 
0D64A:  MOVLB  0
0D64C:  CALL   710C
....................             incrementaCiclos(); 
0D650:  CALL   74BA
....................          } 
....................           
....................          if(!flagImprimir){ 
0D654:  MOVLB  1
0D656:  BTFSC  x09.4
0D658:  BRA    D67C
....................             Imprime=29; 
0D65A:  MOVLW  1D
0D65C:  MOVLB  2
0D65E:  MOVWF  xC7
....................             Envio_Esclavos(); 
0D660:  MOVLB  0
0D662:  CALL   579A
....................             delay_ms(100); 
0D666:  MOVLW  64
0D668:  MOVLB  6
0D66A:  MOVWF  xDC
0D66C:  MOVLB  0
0D66E:  CALL   2142
....................             Imprime=10; 
0D672:  MOVLW  0A
0D674:  MOVLB  2
0D676:  MOVWF  xC7
....................             flagImprimir=1; 
0D678:  MOVLB  1
0D67A:  BSF    x09.4
....................          } 
....................          if(PresionCamara<=Atmosferica+15 && PresionCamara>Atmosferica-10 && Temperatura<=Tapertura) 
0D67C:  MOVLW  0F
0D67E:  MOVLB  2
0D680:  ADDWF  xBD,W
0D682:  MOVF   x92,F
0D684:  BNZ   D6DC
0D686:  SUBWF  x91,W
0D688:  BZ    D68C
0D68A:  BC    D6DC
0D68C:  MOVLW  0A
0D68E:  SUBWF  xBD,W
0D690:  MOVF   x92,F
0D692:  BNZ   D69A
0D694:  SUBWF  x91,W
0D696:  BZ    D6DC
0D698:  BNC   D6DC
0D69A:  MOVLB  6
0D69C:  CLRF   xDD
0D69E:  MOVFF  277,6DC
0D6A2:  MOVLB  0
0D6A4:  CALL   210C
0D6A8:  MOVFF  23E,6D1
0D6AC:  MOVFF  23D,6D0
0D6B0:  MOVFF  23C,6CF
0D6B4:  MOVFF  23B,6CE
0D6B8:  MOVFF  03,6D5
0D6BC:  MOVFF  02,6D4
0D6C0:  MOVFF  01,6D3
0D6C4:  MOVFF  00,6D2
0D6C8:  CALL   279E
0D6CC:  BC    D6D6
0D6CE:  BTFSC  FD8.2
0D6D0:  BRA    D6D6
0D6D2:  MOVLB  2
0D6D4:  BRA    D6DC
....................             Start=OFF; 
0D6D6:  MOVLB  1
0D6D8:  BCF    x04.5
0D6DA:  MOVLB  2
....................       }else if(!Start){ // Inicio o pausa de Ciclo 
0D6DC:  BRA    D728
0D6DE:  MOVLB  1
0D6E0:  BTFSC  x04.5
0D6E2:  BRA    D72A
....................          printf("Funcionamiento.t4f.txt=\" Ciclo no Iniciado\""); 
0D6E4:  MOVLW  1A
0D6E6:  MOVWF  FF6
0D6E8:  MOVLW  19
0D6EA:  MOVWF  FF7
0D6EC:  MOVLW  00
0D6EE:  MOVWF  FF8
0D6F0:  MOVLB  0
0D6F2:  CALL   41BC
....................          SendDataDisplay(); 
0D6F6:  CALL   41EE
....................          printf("Funcionamiento.t5f.txt=\" Pausado\""); 
0D6FA:  MOVLW  46
0D6FC:  MOVWF  FF6
0D6FE:  MOVLW  19
0D700:  MOVWF  FF7
0D702:  MOVLW  00
0D704:  MOVWF  FF8
0D706:  CALL   41BC
....................          SendDataDisplay(); 
0D70A:  CALL   41EE
....................          Desfogue=OFF; 
0D70E:  BCF    xF8.4
....................          suministroVapor=OFF; 
0D710:  BCF    xF8.1
....................          //if(!abrirPuertaL && !abrirPuertaS) 
....................             BombaVacio=OFF; 
0D712:  BCF    30.6
....................          Aire=OFF; 
0D714:  BCF    xF8.5
....................          aguaEnfriador=OFF; 
0D716:  BCF    30.5
....................          outVacio=OFF; 
0D718:  BCF    xF8.3
....................          Controlando=0; 
0D71A:  MOVLB  2
0D71C:  CLRF   x69
....................          EstadoBuzzer=OFF; 
0D71E:  MOVLB  1
0D720:  BCF    x06.4
....................          codigoAlarma=19; 
0D722:  MOVLW  13
0D724:  MOVLB  2
0D726:  MOVWF  xAC
0D728:  MOVLB  1
....................       } 
....................    }else if(Start){ 
0D72A:  GOTO   E1F2
0D72E:  BTFSS  x04.5
0D730:  GOTO   E1F2
....................       printf("b2.pic=85"); 
0D734:  MOVLW  68
0D736:  MOVWF  FF6
0D738:  MOVLW  19
0D73A:  MOVWF  FF7
0D73C:  MOVLW  00
0D73E:  MOVWF  FF8
0D740:  MOVLB  0
0D742:  CALL   41BC
....................       SendDataDisplay(); 
0D746:  CALL   41EE
....................       if(flagImprime){ 
0D74A:  MOVLB  2
0D74C:  BTFSS  x66.0
0D74E:  BRA    D76E
....................          Imprime=5; 
0D750:  MOVLW  05
0D752:  MOVWF  xC7
....................          Envio_Esclavos(); 
0D754:  MOVLB  0
0D756:  CALL   579A
....................          delay_ms(100); 
0D75A:  MOVLW  64
0D75C:  MOVLB  6
0D75E:  MOVWF  xDC
0D760:  MOVLB  0
0D762:  CALL   2142
....................          Imprime=10; 
0D766:  MOVLW  0A
0D768:  MOVLB  2
0D76A:  MOVWF  xC7
....................          flagImprime=0; 
0D76C:  BCF    x66.0
....................       } 
....................        
....................       if(!Fugas){//Si selecciono un ciclo diferente al test de fugas 
0D76E:  MOVLB  1
0D770:  BTFSC  x07.6
0D772:  GOTO   DEE6
....................          EstadoBuzzer=OFF; 
0D776:  BCF    x06.4
....................          IniciaCiclo=ON; 
0D778:  BSF    x03.6
....................        
....................       if(!Precalentamiento){  
0D77A:  BTFSC  x07.7
0D77C:  BRA    D7DC
....................          SuministroVapor=ON; 
0D77E:  MOVLB  0
0D780:  BSF    xF8.1
....................          aguaEnfriador=OFF; 
0D782:  BCF    30.5
....................          Paso=OFF; 
0D784:  BCF    xF8.2
....................          Desfogue=OFF; 
0D786:  BCF    xF8.4
....................          printf("Funcionamiento.t4f.txt=\" Ninguna\""); 
0D788:  MOVLW  72
0D78A:  MOVWF  FF6
0D78C:  MOVLW  19
0D78E:  MOVWF  FF7
0D790:  MOVLW  00
0D792:  MOVWF  FF8
0D794:  CALL   41BC
....................          SendDataDisplay(); 
0D798:  CALL   41EE
....................          printf("Funcionamiento.t5f.txt=\" PreCalentando\""); 
0D79C:  MOVLW  94
0D79E:  MOVWF  FF6
0D7A0:  MOVLW  19
0D7A2:  MOVWF  FF7
0D7A4:  MOVLW  00
0D7A6:  MOVWF  FF8
0D7A8:  CALL   41BC
....................          SendDataDisplay(); 
0D7AC:  CALL   41EE
....................          ControlaPresion();  
0D7B0:  CALL   754C
....................          Controlando=0; 
0D7B4:  MOVLB  2
0D7B6:  CLRF   x69
....................          IniciaVacio=OFF; 
0D7B8:  MOVLB  1
0D7BA:  BCF    x08.0
....................          IniciaVacio2=OFF; 
0D7BC:  BCF    x08.1
....................          codigoAlarma=10; 
0D7BE:  MOVLW  0A
0D7C0:  MOVLB  2
0D7C2:  MOVWF  xAC
....................          if(codigoAnt!=codigoAlarma){ 
0D7C4:  MOVF   xAC,W
0D7C6:  SUBWF  xAD,W
0D7C8:  BZ    D7D6
....................             codigoAnt=codigoAlarma; 
0D7CA:  MOVFF  2AC,2AD
....................             GuardaDatoCiclo(); 
0D7CE:  MOVLB  0
0D7D0:  CALL   710C
0D7D4:  MOVLB  2
....................          } 
....................       }else{ 
0D7D6:  GOTO   DEE2
0D7DA:  MOVLB  1
....................          if(!Vacio){ //Si no ha realizado los pulsos de vacio 
0D7DC:  BTFSC  x08.2
0D7DE:  BRA    D9B8
....................             codigoAlarma=11; 
0D7E0:  MOVLW  0B
0D7E2:  MOVLB  2
0D7E4:  MOVWF  xAC
....................             if(codigoAnt!=codigoAlarma){ 
0D7E6:  MOVF   xAC,W
0D7E8:  SUBWF  xAD,W
0D7EA:  BZ    D7F6
....................                codigoAnt=codigoAlarma; 
0D7EC:  MOVFF  2AC,2AD
....................                GuardaDatoCiclo();                
0D7F0:  MOVLB  0
0D7F2:  CALL   710C
....................             } 
....................             if(!flag_vac){//Ciclo inicial para purga de Bomba 
0D7F6:  MOVLB  1
0D7F8:  BTFSC  x08.3
0D7FA:  BRA    D82A
....................                flag_vac=ON; 
0D7FC:  BSF    x08.3
....................                outVacio=OFF; 
0D7FE:  MOVLB  0
0D800:  BCF    xF8.3
....................                Desfogue=OFF; 
0D802:  BCF    xF8.4
....................                Aire=OFF; 
0D804:  BCF    xF8.5
....................                //Paso=OFF; 
....................                aguaEnfriador=ON; 
0D806:  BSF    30.5
....................                delay_ms(70); 
0D808:  MOVLW  46
0D80A:  MOVLB  6
0D80C:  MOVWF  xDC
0D80E:  MOVLB  0
0D810:  CALL   2142
....................                if(ReservorioLleno) 
0D814:  MOVLB  1
0D816:  BTFSS  x0A.1
0D818:  BRA    D81E
....................                   BombaVacio=ON; 
0D81A:  BSF    30.6
....................                else 
0D81C:  BRA    D820
....................                   BombaVacio=OFF; 
0D81E:  BCF    30.6
....................                IniciaVacio2=ON; 
0D820:  BSF    x08.1
....................                PulsoPositivo=10; //Prueba para ver rendimiento de bomba de vacio************ 
0D822:  MOVLW  0A
0D824:  MOVLB  2
0D826:  MOVWF  xBE
0D828:  MOVLB  1
....................             } 
....................             printf("Funcionamiento.t4f.txt=\" Ninguna\""); 
0D82A:  MOVLW  BC
0D82C:  MOVWF  FF6
0D82E:  MOVLW  19
0D830:  MOVWF  FF7
0D832:  MOVLW  00
0D834:  MOVWF  FF8
0D836:  MOVLB  0
0D838:  CALL   41BC
....................             SendDataDisplay(); 
0D83C:  CALL   41EE
....................             ControlaPresion(); 
0D840:  CALL   754C
....................             IniciaVacio=ON; 
0D844:  MOVLB  1
0D846:  BSF    x08.0
....................                 
....................             if(PresionCamara>NivelVacio && PulsoPositivo==10){//Pulso Negativo 
0D848:  MOVLB  2
0D84A:  MOVF   x92,F
0D84C:  BNZ   D854
0D84E:  MOVF   x91,W
0D850:  SUBWF  xBC,W
0D852:  BC    D8C6
0D854:  MOVF   xBE,W
0D856:  SUBLW  0A
0D858:  BNZ   D8C6
....................                flag_vacio=1; 
0D85A:  MOVLB  1
0D85C:  BSF    x08.4
....................                if(ReservorioLleno) 
0D85E:  BTFSS  x0A.1
0D860:  BRA    D866
....................                   BombaVacio=ON; 
0D862:  BSF    30.6
....................                else 
0D864:  BRA    D868
....................                   BombaVacio=OFF; 
0D866:  BCF    30.6
....................                outVacio=ON; 
0D868:  MOVLB  0
0D86A:  BSF    xF8.3
....................                Desfogue=OFF; 
0D86C:  BCF    xF8.4
....................                Aire=OFF;                      
0D86E:  BCF    xF8.5
....................                Paso=OFF; 
0D870:  BCF    xF8.2
....................                if(PulsosVacio>=2) 
0D872:  MOVLB  2
0D874:  MOVF   xBF,W
0D876:  SUBLW  01
0D878:  BC    D87E
....................                   aguaEnfriador=ON; 
0D87A:  BSF    30.5
....................                else 
0D87C:  BRA    D880
....................                   aguaEnfriador=OFF; 
0D87E:  BCF    30.5
....................                if(flag_pulso==0){ 
0D880:  MOVLB  1
0D882:  BTFSC  x08.5
0D884:  BRA    D88E
....................                   PulsosVacio++; 
0D886:  MOVLB  2
0D888:  INCF   xBF,F
....................                   flag_pulso=1; 
0D88A:  MOVLB  1
0D88C:  BSF    x08.5
....................                } 
....................                printf("Funcionamiento.t5f.txt=\" Pulso de Vacio %u\"",PulsosVacio); 
0D88E:  MOVLW  DE
0D890:  MOVWF  FF6
0D892:  MOVLW  19
0D894:  MOVWF  FF7
0D896:  MOVLW  00
0D898:  MOVWF  FF8
0D89A:  MOVLW  28
0D89C:  MOVLB  6
0D89E:  MOVWF  xCF
0D8A0:  MOVLB  0
0D8A2:  CALL   5C56
0D8A6:  MOVFF  2BF,6CF
0D8AA:  MOVLW  1B
0D8AC:  MOVLB  6
0D8AE:  MOVWF  xD0
0D8B0:  MOVLB  0
0D8B2:  CALL   5CDA
0D8B6:  MOVLW  22
0D8B8:  BTFSS  F9E.4
0D8BA:  BRA    D8B8
0D8BC:  MOVWF  FAD
....................                SendDataDisplay(); 
0D8BE:  CALL   41EE
....................             }else{ 
0D8C2:  BRA    D8CA
0D8C4:  MOVLB  2
....................                PulsoPositivo=5; 
0D8C6:  MOVLW  05
0D8C8:  MOVWF  xBE
....................             } 
....................              
....................             if(PulsosVacio>=CantidadPulsos && PulsoPositivo==5){//Si realiza los pulsos de vacio, continua con el proceso de calentamiento 
0D8CA:  MOVLB  2
0D8CC:  MOVF   x79,F
0D8CE:  BNZ   D8FC
0D8D0:  MOVF   x78,W
0D8D2:  SUBWF  xBF,W
0D8D4:  BNC   D8FC
0D8D6:  MOVF   xBE,W
0D8D8:  SUBLW  05
0D8DA:  BNZ   D8FC
....................                Vacio=ON; 
0D8DC:  MOVLB  1
0D8DE:  BSF    x08.2
....................                outVacio=OFF; 
0D8E0:  MOVLB  0
0D8E2:  BCF    xF8.3
....................                BombaVacio=OFF; 
0D8E4:  BCF    30.6
....................                outVacio=OFF; 
0D8E6:  BCF    xF8.3
....................                Desfogue=OFF; 
0D8E8:  BCF    xF8.4
....................                Aire=OFF;                                  
0D8EA:  BCF    xF8.5
....................                IniciaVacio=OFF; 
0D8EC:  MOVLB  1
0D8EE:  BCF    x08.0
....................                Paso=ON; 
0D8F0:  MOVLB  0
0D8F2:  BSF    xF8.2
....................                aguaEnfriador=OFF; 
0D8F4:  BCF    30.5
....................                PulsoPositivo=10; 
0D8F6:  MOVLW  0A
0D8F8:  MOVLB  2
0D8FA:  MOVWF  xBE
....................             } 
....................                
....................             if(PulsoPositivo==5){//Pulso Positivo 
0D8FC:  MOVF   xBE,W
0D8FE:  SUBLW  05
0D900:  BNZ   D96E
....................                tvacio=0; 
0D902:  CLRF   x9A
0D904:  CLRF   x99
....................                flag_pulso=0; 
0D906:  MOVLB  1
0D908:  BCF    x08.5
....................                printf("Funcionamiento.t5f.txt=\" Pulso Positivo %u\"",PulsosVacio); 
0D90A:  MOVLW  0A
0D90C:  MOVWF  FF6
0D90E:  MOVLW  1A
0D910:  MOVWF  FF7
0D912:  MOVLW  00
0D914:  MOVWF  FF8
0D916:  MOVLW  28
0D918:  MOVLB  6
0D91A:  MOVWF  xCF
0D91C:  MOVLB  0
0D91E:  CALL   5C56
0D922:  MOVFF  2BF,6CF
0D926:  MOVLW  1B
0D928:  MOVLB  6
0D92A:  MOVWF  xD0
0D92C:  MOVLB  0
0D92E:  CALL   5CDA
0D932:  MOVLW  22
0D934:  BTFSS  F9E.4
0D936:  BRA    D934
0D938:  MOVWF  FAD
....................                SendDataDisplay(); 
0D93A:  CALL   41EE
....................                if(ReservorioLleno) 
0D93E:  MOVLB  1
0D940:  BTFSS  x0A.1
0D942:  BRA    D948
....................                   BombaVacio=ON; 
0D944:  BSF    30.6
....................                else 
0D946:  BRA    D94A
....................                   BombaVacio=OFF; 
0D948:  BCF    30.6
....................                outVacio=OFF; 
0D94A:  MOVLB  0
0D94C:  BCF    xF8.3
....................                Desfogue=OFF; 
0D94E:  BCF    xF8.4
....................                Aire=OFF;                      
0D950:  BCF    xF8.5
....................                Paso=ON;      
0D952:  BSF    xF8.2
....................                AguaEnfriador=OFF; 
0D954:  BCF    30.5
....................                if(PresionCamara>=Atmosferica+50){ 
0D956:  MOVLW  32
0D958:  MOVLB  2
0D95A:  ADDWF  xBD,W
0D95C:  MOVF   x92,F
0D95E:  BNZ   D964
0D960:  SUBWF  x91,W
0D962:  BNC   D96E
....................                   Paso=OFF; 
0D964:  MOVLB  0
0D966:  BCF    xF8.2
....................                   PulsoPositivo=10; 
0D968:  MOVLW  0A
0D96A:  MOVLB  2
0D96C:  MOVWF  xBE
....................                }   
....................             } 
....................                 
....................             if(tbomba>=120 && PulsosVacio==0){//Si no se ha generado ningun pulso de vacio despues de 120 segundos se genera alarma 
0D96E:  MOVF   x98,F
0D970:  BNZ   D978
0D972:  MOVF   x97,W
0D974:  SUBLW  77
0D976:  BC    D998
0D978:  MOVF   xBF,F
0D97A:  BNZ   D998
....................                if(PresionCamara>Atmosferica){ 
0D97C:  MOVF   x92,F
0D97E:  BNZ   D986
0D980:  MOVF   x91,W
0D982:  SUBWF  xBD,W
0D984:  BC    D98E
....................                   AlarmaBomba=ON; 
0D986:  MOVLB  0
0D988:  BSF    xFA.6
....................                }else{ 
0D98A:  BRA    D998
0D98C:  MOVLB  2
....................                   tbomba=0; 
0D98E:  CLRF   x98
0D990:  CLRF   x97
....................                   IniciaVacio2=OFF; 
0D992:  MOVLB  1
0D994:  BCF    x08.1
0D996:  MOVLB  0
....................                } 
....................              } 
....................                 
....................             if(tvacio>=TiempoVacio){//Si excede el tiempo maximo para generar los pulsos de vacio genera alarma             
0D998:  MOVLB  0
0D99A:  MOVF   xFE,W
0D99C:  MOVLB  2
0D99E:  SUBWF  x9A,W
0D9A0:  BNC   D9B4
0D9A2:  BNZ   D9AE
0D9A4:  MOVLB  0
0D9A6:  MOVF   xFD,W
0D9A8:  MOVLB  2
0D9AA:  SUBWF  x99,W
0D9AC:  BNC   D9B4
....................                AlarmaVacio=ON; 
0D9AE:  MOVLB  0
0D9B0:  BSF    xFA.3
0D9B2:  MOVLB  2
....................             } 
....................          }else{ 
0D9B4:  BRA    DEE2
0D9B6:  MOVLB  1
....................             IniciaVacio=OFF;         
0D9B8:  BCF    x08.0
....................             if(Temperatura>=((float)Setpoint-0.3)){ 
0D9BA:  MOVLB  6
0D9BC:  CLRF   xDD
0D9BE:  MOVFF  280,6DC
0D9C2:  MOVLB  0
0D9C4:  CALL   210C
0D9C8:  MOVFF  00,6CA
0D9CC:  MOVFF  01,6CB
0D9D0:  MOVFF  02,6CC
0D9D4:  MOVFF  03,6CD
0D9D8:  BSF    FD8.1
0D9DA:  MOVFF  03,6DF
0D9DE:  MOVFF  02,6DE
0D9E2:  MOVFF  01,6DD
0D9E6:  MOVFF  00,6DC
0D9EA:  MOVLW  9A
0D9EC:  MOVLB  6
0D9EE:  MOVWF  xE3
0D9F0:  MOVLW  99
0D9F2:  MOVWF  xE2
0D9F4:  MOVLW  19
0D9F6:  MOVWF  xE1
0D9F8:  MOVLW  7D
0D9FA:  MOVWF  xE0
0D9FC:  MOVLB  0
0D9FE:  CALL   22C8
0DA02:  MOVFF  03,6D1
0DA06:  MOVFF  02,6D0
0DA0A:  MOVFF  01,6CF
0DA0E:  MOVFF  00,6CE
0DA12:  MOVFF  23E,6D5
0DA16:  MOVFF  23D,6D4
0DA1A:  MOVFF  23C,6D3
0DA1E:  MOVFF  23B,6D2
0DA22:  CALL   279E
0DA26:  BC    DA2A
0DA28:  BNZ   DA2E
....................                Esterilizando=ON; 
0DA2A:  MOVLB  1
0DA2C:  BSF    x03.7
....................             } 
....................              
....................             if(Temperatura<((float)Setpoint-0.9) && !Desfogando){ 
0DA2E:  MOVLB  6
0DA30:  CLRF   xDD
0DA32:  MOVFF  280,6DC
0DA36:  MOVLB  0
0DA38:  CALL   210C
0DA3C:  MOVFF  00,6CA
0DA40:  MOVFF  01,6CB
0DA44:  MOVFF  02,6CC
0DA48:  MOVFF  03,6CD
0DA4C:  BSF    FD8.1
0DA4E:  MOVFF  03,6DF
0DA52:  MOVFF  02,6DE
0DA56:  MOVFF  01,6DD
0DA5A:  MOVFF  00,6DC
0DA5E:  MOVLW  66
0DA60:  MOVLB  6
0DA62:  MOVWF  xE3
0DA64:  MOVWF  xE2
0DA66:  MOVWF  xE1
0DA68:  MOVLW  7E
0DA6A:  MOVWF  xE0
0DA6C:  MOVLB  0
0DA6E:  CALL   22C8
0DA72:  MOVFF  23E,6D1
0DA76:  MOVFF  23D,6D0
0DA7A:  MOVFF  23C,6CF
0DA7E:  MOVFF  23B,6CE
0DA82:  MOVFF  03,6D5
0DA86:  MOVFF  02,6D4
0DA8A:  MOVFF  01,6D3
0DA8E:  MOVFF  00,6D2
0DA92:  CALL   279E
0DA96:  BNC   DAA4
0DA98:  MOVLB  1
0DA9A:  BTFSS  x04.2
0DA9C:  BRA    DAA2
0DA9E:  MOVLB  0
0DAA0:  BRA    DAA4
....................                Esterilizando=OFF; 
0DAA2:  BCF    x03.7
....................             } 
....................              
....................             if(!Esterilizando){ 
0DAA4:  MOVLB  1
0DAA6:  BTFSC  x03.7
0DAA8:  BRA    DB0A
....................                codigoAlarma=12; 
0DAAA:  MOVLW  0C
0DAAC:  MOVLB  2
0DAAE:  MOVWF  xAC
....................                if(codigoAnt!=codigoAlarma){ 
0DAB0:  MOVF   xAC,W
0DAB2:  SUBWF  xAD,W
0DAB4:  BZ    DAC0
....................                   codigoAnt=codigoAlarma; 
0DAB6:  MOVFF  2AC,2AD
....................                   GuardaDatoCiclo();                   
0DABA:  MOVLB  0
0DABC:  CALL   710C
....................                } 
....................                flag_vac=OFF; 
0DAC0:  MOVLB  1
0DAC2:  BCF    x08.3
....................                printf("Funcionamiento.t4f.txt=\" Ninguna\""); 
0DAC4:  MOVLW  36
0DAC6:  MOVWF  FF6
0DAC8:  MOVLW  1A
0DACA:  MOVWF  FF7
0DACC:  MOVLW  00
0DACE:  MOVWF  FF8
0DAD0:  MOVLB  0
0DAD2:  CALL   41BC
....................                SendDataDisplay(); 
0DAD6:  CALL   41EE
....................                printf("Funcionamiento.t5f.txt=\" Calentando\""); 
0DADA:  MOVLW  58
0DADC:  MOVWF  FF6
0DADE:  MOVLW  1A
0DAE0:  MOVWF  FF7
0DAE2:  MOVLW  00
0DAE4:  MOVWF  FF8
0DAE6:  CALL   41BC
....................                SendDataDisplay(); 
0DAEA:  CALL   41EE
....................                Controlando=1; 
0DAEE:  MOVLW  01
0DAF0:  MOVLB  2
0DAF2:  MOVWF  x69
....................                Controla(); 
0DAF4:  MOVLB  0
0DAF6:  CALL   75DA
....................                Paso=ON; 
0DAFA:  BSF    xF8.2
....................                BombaVacio=OFF; 
0DAFC:  BCF    30.6
....................                outVacio=OFF; 
0DAFE:  BCF    xF8.3
....................                Aire=OFF; 
0DB00:  BCF    xF8.5
....................                Desfogue=OFF; 
0DB02:  BCF    xF8.4
....................                aguaEnfriador=OFF; 
0DB04:  BCF    30.5
....................             }else{ 
0DB06:  BRA    DEE0
0DB08:  MOVLB  1
....................                TiempoCiclo=0; 
0DB0A:  CLRF   x0C
0DB0C:  CLRF   x0B
....................                if(mEst==0 && sEst==0){  
0DB0E:  MOVF   x22,F
0DB10:  BTFSS  FD8.2
0DB12:  BRA    DE92
0DB14:  MOVF   x21,F
0DB16:  BTFSS  FD8.2
0DB18:  BRA    DE92
....................                   if(desfoguelento){ 
0DB1A:  BTFSS  x0A.3
0DB1C:  BRA    DC64
....................                      Controlando=0; 
0DB1E:  MOVLB  2
0DB20:  CLRF   x69
....................                      if(PresionCamara<(Atmosferica+2)){ 
0DB22:  MOVLW  02
0DB24:  ADDWF  xBD,W
0DB26:  MOVF   x92,F
0DB28:  BNZ   DBF8
0DB2A:  SUBWF  x91,W
0DB2C:  BC    DBF8
....................                         Secando=OFF; 
0DB2E:  MOVLB  1
0DB30:  BCF    x04.0
....................                         DesfogueSuave=OFF; 
0DB32:  BCF    x04.3
....................                         //if(!abrirPuertaL){ 
....................                            BombaVacio=OFF; 
0DB34:  BCF    30.6
....................                         //} 
....................                         outVacio=OFF; 
0DB36:  MOVLB  0
0DB38:  BCF    xF8.3
....................                         Aire=OFF; 
0DB3A:  BCF    xF8.5
....................                         Desfogue=ON; 
0DB3C:  BSF    xF8.4
....................                         Paso=OFF; 
0DB3E:  BCF    xF8.2
....................                         //Suministro_off; 
....................                         aguaEnfriador=OFF; 
0DB40:  BCF    30.5
....................                         if(Temperatura<=Tapertura){ 
0DB42:  MOVLB  6
0DB44:  CLRF   xDD
0DB46:  MOVFF  277,6DC
0DB4A:  MOVLB  0
0DB4C:  CALL   210C
0DB50:  MOVFF  23E,6D1
0DB54:  MOVFF  23D,6D0
0DB58:  MOVFF  23C,6CF
0DB5C:  MOVFF  23B,6CE
0DB60:  MOVFF  03,6D5
0DB64:  MOVFF  02,6D4
0DB68:  MOVFF  01,6D3
0DB6C:  MOVFF  00,6D2
0DB70:  CALL   279E
0DB74:  BC    DB78
0DB76:  BNZ   DBF0
....................                            ActivaAlarma(2); 
0DB78:  MOVLW  02
0DB7A:  MOVLB  6
0DB7C:  MOVWF  xCA
0DB7E:  MOVLB  0
0DB80:  CALL   5B12
....................                            printf("Funcionamiento.t4f.txt=\" Ninguna\""); 
0DB84:  MOVLW  7E
0DB86:  MOVWF  FF6
0DB88:  MOVLW  1A
0DB8A:  MOVWF  FF7
0DB8C:  MOVLW  00
0DB8E:  MOVWF  FF8
0DB90:  CALL   41BC
....................                            SendDataDisplay(); 
0DB94:  CALL   41EE
....................                            printf("Funcionamiento.t5f.txt=\" Finalizado\""); 
0DB98:  MOVLW  A0
0DB9A:  MOVWF  FF6
0DB9C:  MOVLW  1A
0DB9E:  MOVWF  FF7
0DBA0:  MOVLW  00
0DBA2:  MOVWF  FF8
0DBA4:  CALL   41BC
....................                            SendDataDisplay(); 
0DBA8:  CALL   41EE
....................                            Finalizo=ON; 
0DBAC:  MOVLB  1
0DBAE:  BSF    x07.0
....................                            codigoAlarma=14; 
0DBB0:  MOVLW  0E
0DBB2:  MOVLB  2
0DBB4:  MOVWF  xAC
....................                            if(codigoAnt!=codigoAlarma){ 
0DBB6:  MOVF   xAC,W
0DBB8:  SUBWF  xAD,W
0DBBA:  BZ    DBC6
....................                               codigoAnt=codigoAlarma; 
0DBBC:  MOVFF  2AC,2AD
....................                               GuardaDatoCiclo();                   
0DBC0:  MOVLB  0
0DBC2:  CALL   710C
....................                            }                           
....................                            if(!flagImprimir){//Imprime Ciclo Finalizado 
0DBC6:  MOVLB  1
0DBC8:  BTFSC  x09.4
0DBCA:  BRA    DBEE
....................                               Imprime=28; 
0DBCC:  MOVLW  1C
0DBCE:  MOVLB  2
0DBD0:  MOVWF  xC7
....................                               Envio_Esclavos(); 
0DBD2:  MOVLB  0
0DBD4:  CALL   579A
....................                               delay_ms(100); 
0DBD8:  MOVLW  64
0DBDA:  MOVLB  6
0DBDC:  MOVWF  xDC
0DBDE:  MOVLB  0
0DBE0:  CALL   2142
....................                               Imprime=10; 
0DBE4:  MOVLW  0A
0DBE6:  MOVLB  2
0DBE8:  MOVWF  xC7
....................                               flagImprimir=1; 
0DBEA:  MOVLB  1
0DBEC:  BSF    x09.4
0DBEE:  MOVLB  0
....................                            } 
....................                         } 
....................                         incrementaCiclos(); 
0DBF0:  CALL   74BA
....................                      }else if(PresionCamara>(Atmosferica+10)){ 
0DBF4:  BRA    DC5E
0DBF6:  MOVLB  2
0DBF8:  MOVLW  0A
0DBFA:  ADDWF  xBD,W
0DBFC:  MOVF   x92,F
0DBFE:  BNZ   DC06
0DC00:  SUBWF  x91,W
0DC02:  BZ    DC60
0DC04:  BNC   DC60
....................                         codigoAlarma=13; 
0DC06:  MOVLW  0D
0DC08:  MOVWF  xAC
....................                         if(codigoAnt!=codigoAlarma){ 
0DC0A:  MOVF   xAC,W
0DC0C:  SUBWF  xAD,W
0DC0E:  BZ    DC1A
....................                            codigoAnt=codigoAlarma; 
0DC10:  MOVFF  2AC,2AD
....................                            GuardaDatoCiclo();                   
0DC14:  MOVLB  0
0DC16:  CALL   710C
....................                         } 
....................                         Desfogando=ON; 
0DC1A:  MOVLB  1
0DC1C:  BSF    x04.2
....................                         DesfogueSuave=ON; 
0DC1E:  BSF    x04.3
....................                         printf("Funcionamiento.t4f.txt=\" Ninguna\""); 
0DC20:  MOVLW  C6
0DC22:  MOVWF  FF6
0DC24:  MOVLW  1A
0DC26:  MOVWF  FF7
0DC28:  MOVLW  00
0DC2A:  MOVWF  FF8
0DC2C:  MOVLB  0
0DC2E:  CALL   41BC
....................                         SendDataDisplay(); 
0DC32:  CALL   41EE
....................                         printf("Funcionamiento.t5f.txt=\" Despresurizando\""); 
0DC36:  MOVLW  E8
0DC38:  MOVWF  FF6
0DC3A:  MOVLW  1A
0DC3C:  MOVWF  FF7
0DC3E:  MOVLW  00
0DC40:  MOVWF  FF8
0DC42:  CALL   41BC
....................                         SendDataDisplay(); 
0DC46:  CALL   41EE
....................                         Controlando=0; 
0DC4A:  MOVLB  2
0DC4C:  CLRF   x69
....................                         Desfogue=ON; 
0DC4E:  MOVLB  0
0DC50:  BSF    xF8.4
....................                         Paso=ON; 
0DC52:  BSF    xF8.2
....................                         BombaVacio=OFF; 
0DC54:  BCF    30.6
....................                         aguaEnfriador=OFF; 
0DC56:  BCF    30.5
....................                         outVacio=OFF; 
0DC58:  BCF    xF8.3
....................                         Aire=OFF;  
0DC5A:  BCF    xF8.5
....................                         suministroVapor=OFF; 
0DC5C:  BCF    xF8.1
0DC5E:  MOVLB  2
....................                      } 
....................                   }else{                      
0DC60:  BRA    DE8E
0DC62:  MOVLB  1
....................                      Paso=OFF; 
0DC64:  MOVLB  0
0DC66:  BCF    xF8.2
....................                      Controlando=0; 
0DC68:  MOVLB  2
0DC6A:  CLRF   x69
....................                      Control=0; 
0DC6C:  CLRF   x67
....................                      if(PresionCamara<(Atmosferica+2)){   
0DC6E:  MOVLW  02
0DC70:  ADDWF  xBD,W
0DC72:  MOVF   x92,F
0DC74:  BTFSS  FD8.2
0DC76:  BRA    DE18
0DC78:  SUBWF  x91,W
0DC7A:  BTFSC  FD8.0
0DC7C:  BRA    DE18
....................                         if(sSec==0 && mSec==0){                           
0DC7E:  MOVLB  1
0DC80:  MOVF   x23,F
0DC82:  BTFSS  FD8.2
0DC84:  BRA    DD64
0DC86:  MOVF   x24,F
0DC88:  BNZ   DD64
....................                            codigoAlarma=15; 
0DC8A:  MOVLW  0F
0DC8C:  MOVLB  2
0DC8E:  MOVWF  xAC
....................                            if(codigoAnt!=codigoAlarma){ 
0DC90:  MOVF   xAC,W
0DC92:  SUBWF  xAD,W
0DC94:  BZ    DCA2
....................                               codigoAnt=codigoAlarma; 
0DC96:  MOVFF  2AC,2AD
....................                               GuardaDatoCiclo();                   
0DC9A:  MOVLB  0
0DC9C:  CALL   710C
0DCA0:  MOVLB  2
....................                            } 
....................                            if(!DOORS){ 
0DCA2:  BSF    F93.1
0DCA4:  BTFSS  F81.1
0DCA6:  BRA    DCB2
....................                               Desfogue=OFF; 
0DCA8:  MOVLB  0
0DCAA:  BCF    xF8.4
....................                               Paso=OFF; 
0DCAC:  BCF    xF8.2
....................                            }else{ 
0DCAE:  BRA    DCB8
0DCB0:  MOVLB  2
....................                               Desfogue=ON;                               
0DCB2:  MOVLB  0
0DCB4:  BSF    xF8.4
....................                               Paso=OFF; 
0DCB6:  BCF    xF8.2
....................                            }     
....................  
....................                            BombaVacio=OFF; 
0DCB8:  BCF    30.6
....................                            aguaEnfriador=OFF; 
0DCBA:  BCF    30.5
....................                            outVacio=OFF; 
0DCBC:  BCF    xF8.3
....................                            if(PresionCamara>=Atmosferica-2){ 
0DCBE:  MOVLW  02
0DCC0:  MOVLB  2
0DCC2:  SUBWF  xBD,W
0DCC4:  MOVF   x92,F
0DCC6:  BNZ   DCCC
0DCC8:  SUBWF  x91,W
0DCCA:  BNC   DCD4
....................                               Aire=ON; 
0DCCC:  MOVLB  0
0DCCE:  BSF    xF8.5
....................                            }else{ 
0DCD0:  BRA    DCD8
0DCD2:  MOVLB  2
....................                               Aire=OFF; 
0DCD4:  MOVLB  0
0DCD6:  BCF    xF8.5
....................                            } 
....................                            Desfogue=ON; 
0DCD8:  BSF    xF8.4
....................                            Paso=OFF; 
0DCDA:  BCF    xF8.2
....................                            suministroVapor=OFF; 
0DCDC:  BCF    xF8.1
....................                            Secando=OFF; 
0DCDE:  MOVLB  1
0DCE0:  BCF    x04.0
....................                            //if(Temperatura<=Tapertura){ 
....................                               ActivaAlarma(2); 
0DCE2:  MOVLW  02
0DCE4:  MOVLB  6
0DCE6:  MOVWF  xCA
0DCE8:  MOVLB  0
0DCEA:  CALL   5B12
....................                               printf("Funcionamiento.t4f.txt=\" Ninguna\""); 
0DCEE:  MOVLW  12
0DCF0:  MOVWF  FF6
0DCF2:  MOVLW  1B
0DCF4:  MOVWF  FF7
0DCF6:  MOVLW  00
0DCF8:  MOVWF  FF8
0DCFA:  CALL   41BC
....................                               SendDataDisplay(); 
0DCFE:  CALL   41EE
....................                               printf("Funcionamiento.t5f.txt=\" Finalizado\""); 
0DD02:  MOVLW  34
0DD04:  MOVWF  FF6
0DD06:  MOVLW  1B
0DD08:  MOVWF  FF7
0DD0A:  MOVLW  00
0DD0C:  MOVWF  FF8
0DD0E:  CALL   41BC
....................                               SendDataDisplay(); 
0DD12:  CALL   41EE
....................                               Finalizo=ON; 
0DD16:  MOVLB  1
0DD18:  BSF    x07.0
....................                               codigoAlarma=14; 
0DD1A:  MOVLW  0E
0DD1C:  MOVLB  2
0DD1E:  MOVWF  xAC
....................                               if(codigoAnt!=codigoAlarma){ 
0DD20:  MOVF   xAC,W
0DD22:  SUBWF  xAD,W
0DD24:  BZ    DD30
....................                                  codigoAnt=codigoAlarma; 
0DD26:  MOVFF  2AC,2AD
....................                                  GuardaDatoCiclo();                   
0DD2A:  MOVLB  0
0DD2C:  CALL   710C
....................                               } 
....................                               if(!flagImprimir){//Imprime Ciclo Finalizado 
0DD30:  MOVLB  1
0DD32:  BTFSC  x09.4
0DD34:  BRA    DD58
....................                                  Imprime=28; 
0DD36:  MOVLW  1C
0DD38:  MOVLB  2
0DD3A:  MOVWF  xC7
....................                                  Envio_Esclavos(); 
0DD3C:  MOVLB  0
0DD3E:  CALL   579A
....................                                  delay_ms(100); 
0DD42:  MOVLW  64
0DD44:  MOVLB  6
0DD46:  MOVWF  xDC
0DD48:  MOVLB  0
0DD4A:  CALL   2142
....................                                  Imprime=10; 
0DD4E:  MOVLW  0A
0DD50:  MOVLB  2
0DD52:  MOVWF  xC7
....................                                  flagImprimir=1; 
0DD54:  MOVLB  1
0DD56:  BSF    x09.4
....................                               } 
....................                            //} 
....................                            incrementaCiclos(); 
0DD58:  MOVLB  0
0DD5A:  CALL   74BA
....................                            Secando=OFF; 
0DD5E:  MOVLB  1
0DD60:  BCF    x04.0
....................                         }else{ 
0DD62:  BRA    DE14
....................                            if(Secando){ 
0DD64:  BTFSS  x04.0
0DD66:  BRA    DD92
....................                               printf("Funcionamiento.t4f.txt=\" Ninguna\""); 
0DD68:  MOVLW  5A
0DD6A:  MOVWF  FF6
0DD6C:  MOVLW  1B
0DD6E:  MOVWF  FF7
0DD70:  MOVLW  00
0DD72:  MOVWF  FF8
0DD74:  MOVLB  0
0DD76:  CALL   41BC
....................                               SendDataDisplay(); 
0DD7A:  CALL   41EE
....................                               printf("Funcionamiento.t5f.txt=\" Secando\""); 
0DD7E:  MOVLW  7C
0DD80:  MOVWF  FF6
0DD82:  MOVLW  1B
0DD84:  MOVWF  FF7
0DD86:  MOVLW  00
0DD88:  MOVWF  FF8
0DD8A:  CALL   41BC
....................                               SendDataDisplay(); 
0DD8E:  CALL   41EE
....................                            } 
....................                            ControlaPresion(); 
0DD92:  MOVLB  0
0DD94:  CALL   754C
....................                            Paso=OFF; 
0DD98:  BCF    xF8.2
....................                             
....................                            if(PresionCamara>NivelVacio+5){//Si la presin de la camara es mayor al nivel de vacio 
0DD9A:  MOVLW  05
0DD9C:  MOVLB  2
0DD9E:  ADDWF  xBC,W
0DDA0:  MOVF   x92,F
0DDA2:  BNZ   DDAA
0DDA4:  SUBWF  x91,W
0DDA6:  BZ    DDC2
0DDA8:  BNC   DDC2
....................                               if(ReservorioLleno) 
0DDAA:  MOVLB  1
0DDAC:  BTFSS  x0A.1
0DDAE:  BRA    DDB4
....................                                  BombaVacio=ON; 
0DDB0:  BSF    30.6
....................                               else 
0DDB2:  BRA    DDB6
....................                                  BombaVacio=ON; 
0DDB4:  BSF    30.6
....................                               outVacio=ON; 
0DDB6:  MOVLB  0
0DDB8:  BSF    xF8.3
....................                               //aguaEnfriador=ON; 
....................                               Desfogue=OFF; 
0DDBA:  BCF    xF8.4
....................                               Aire=OFF; 
0DDBC:  BCF    xF8.5
....................                               Paso=OFF; 
0DDBE:  BCF    xF8.2
0DDC0:  MOVLB  2
....................                            } 
....................        
....................                            if(PresionCamara<=NivelVacio){//Si alcanzo el nivel de vacio requerido 
0DDC2:  MOVF   x92,F
0DDC4:  BNZ   DDFC
0DDC6:  MOVF   x91,W
0DDC8:  SUBWF  xBC,W
0DDCA:  BNC   DDFC
....................                               codigoAlarma=15; 
0DDCC:  MOVLW  0F
0DDCE:  MOVWF  xAC
....................                               if(codigoAnt!=codigoAlarma){ 
0DDD0:  MOVF   xAC,W
0DDD2:  SUBWF  xAD,W
0DDD4:  BZ    DDE0
....................                                  codigoAnt=codigoAlarma; 
0DDD6:  MOVFF  2AC,2AD
....................                                  GuardaDatoCiclo();                   
0DDDA:  MOVLB  0
0DDDC:  CALL   710C
....................                               } 
....................                               Secando=ON; 
0DDE0:  MOVLB  1
0DDE2:  BSF    x04.0
....................                               EstadoAgua2=ON; 
0DDE4:  BSF    x05.4
....................                                
....................                               if(ReservorioLleno) 
0DDE6:  BTFSS  x0A.1
0DDE8:  BRA    DDEE
....................                                  BombaVacio=ON; 
0DDEA:  BSF    30.6
....................                               else 
0DDEC:  BRA    DDF0
....................                                  BombaVacio=OFF; 
0DDEE:  BCF    30.6
....................                               //aguaEnfriador=ON; 
....................                               outVacio=ON; 
0DDF0:  MOVLB  0
0DDF2:  BSF    xF8.3
....................                               Desfogue=OFF; 
0DDF4:  BCF    xF8.4
....................                               Aire=ON;                      
0DDF6:  BSF    xF8.5
....................                               Paso=OFF; 
0DDF8:  BCF    xF8.2
0DDFA:  MOVLB  2
....................                            } 
....................                             
....................                            if(tEnfriador>=100){ 
0DDFC:  MOVF   x7F,F
0DDFE:  BNZ   DE06
0DE00:  MOVF   x7E,W
0DE02:  SUBLW  63
0DE04:  BC    DE10
....................                               aguaEnfriador=OFF; 
0DE06:  BCF    30.5
....................                               estadoAgua2=OFF; 
0DE08:  MOVLB  1
0DE0A:  BCF    x05.4
....................                            }else{ 
0DE0C:  BRA    DE14
0DE0E:  MOVLB  2
....................                               aguaEnfriador=ON; 
0DE10:  BSF    30.5
0DE12:  MOVLB  1
....................                            } 
....................                         } 
....................                      }else if(PresionCamara>(Atmosferica+5)){ 
0DE14:  BRA    DE8C
0DE16:  MOVLB  2
0DE18:  MOVLW  05
0DE1A:  ADDWF  xBD,W
0DE1C:  MOVF   x92,F
0DE1E:  BNZ   DE26
0DE20:  SUBWF  x91,W
0DE22:  BZ    DE8A
0DE24:  BNC   DE8A
....................                         codigoAlarma=13; 
0DE26:  MOVLW  0D
0DE28:  MOVWF  xAC
....................                         if(codigoAnt!=codigoAlarma){ 
0DE2A:  MOVF   xAC,W
0DE2C:  SUBWF  xAD,W
0DE2E:  BZ    DE3A
....................                            codigoAnt=codigoAlarma; 
0DE30:  MOVFF  2AC,2AD
....................                            GuardaDatoCiclo();                   
0DE34:  MOVLB  0
0DE36:  CALL   710C
....................                         } 
....................                         Desfogando=ON; 
0DE3A:  MOVLB  1
0DE3C:  BSF    x04.2
....................                         printf("Funcionamiento.t4f.txt=\" Ninguna\""); 
0DE3E:  MOVLW  9E
0DE40:  MOVWF  FF6
0DE42:  MOVLW  1B
0DE44:  MOVWF  FF7
0DE46:  MOVLW  00
0DE48:  MOVWF  FF8
0DE4A:  MOVLB  0
0DE4C:  CALL   41BC
....................                         SendDataDisplay(); 
0DE50:  CALL   41EE
....................                         printf("Funcionamiento.t5f.txt=\" Despresurizando\""); 
0DE54:  MOVLW  C0
0DE56:  MOVWF  FF6
0DE58:  MOVLW  1B
0DE5A:  MOVWF  FF7
0DE5C:  MOVLW  00
0DE5E:  MOVWF  FF8
0DE60:  CALL   41BC
....................                         SendDataDisplay(); 
0DE64:  CALL   41EE
....................                         Control=0; 
0DE68:  MOVLB  2
0DE6A:  CLRF   x67
....................                         Controlando=0; 
0DE6C:  CLRF   x69
....................                         Paso=OFF; 
0DE6E:  MOVLB  0
0DE70:  BCF    xF8.2
....................                         Desfogue=OFF; 
0DE72:  BCF    xF8.4
....................                         if(ReservorioLleno) 
0DE74:  MOVLB  1
0DE76:  BTFSS  x0A.1
0DE78:  BRA    DE7E
....................                            BombaVacio=ON; 
0DE7A:  BSF    30.6
....................                         else 
0DE7C:  BRA    DE80
....................                            BombaVacio=OFF;    
0DE7E:  BCF    30.6
....................                         aguaEnfriador=ON; 
0DE80:  BSF    30.5
....................                         outVacio=ON; 
0DE82:  MOVLB  0
0DE84:  BSF    xF8.3
....................                         Aire=OFF; 
0DE86:  BCF    xF8.5
....................                         suministroVapor=OFF; 
0DE88:  BCF    xF8.1
0DE8A:  MOVLB  1
0DE8C:  MOVLB  2
....................                      } 
....................                   } 
....................                }else{ 
0DE8E:  BRA    DEE2
0DE90:  MOVLB  1
....................                   codigoAlarma=16; 
0DE92:  MOVLW  10
0DE94:  MOVLB  2
0DE96:  MOVWF  xAC
....................                   if(codigoAnt!=codigoAlarma){ 
0DE98:  MOVF   xAC,W
0DE9A:  SUBWF  xAD,W
0DE9C:  BZ    DEAA
....................                      codigoAnt=codigoAlarma; 
0DE9E:  MOVFF  2AC,2AD
....................                      GuardaDatoCiclo();                   
0DEA2:  MOVLB  0
0DEA4:  CALL   710C
0DEA8:  MOVLB  2
....................                   } 
....................                   printf("Funcionamiento.t4f.txt=\" Ninguna\""); 
0DEAA:  MOVLW  EA
0DEAC:  MOVWF  FF6
0DEAE:  MOVLW  1B
0DEB0:  MOVWF  FF7
0DEB2:  MOVLW  00
0DEB4:  MOVWF  FF8
0DEB6:  MOVLB  0
0DEB8:  CALL   41BC
....................                   SendDataDisplay(); 
0DEBC:  CALL   41EE
....................                   printf("Funcionamiento.t5f.txt=\" Esterilizando\""); 
0DEC0:  MOVLW  0C
0DEC2:  MOVWF  FF6
0DEC4:  MOVLW  1C
0DEC6:  MOVWF  FF7
0DEC8:  MOVLW  00
0DECA:  MOVWF  FF8
0DECC:  CALL   41BC
....................                   SendDataDisplay(); 
0DED0:  CALL   41EE
....................                   //Paso_on; 
....................                   Control=1; 
0DED4:  MOVLW  01
0DED6:  MOVLB  2
0DED8:  MOVWF  x67
....................                   Controla(); 
0DEDA:  MOVLB  0
0DEDC:  CALL   75DA
0DEE0:  MOVLB  2
....................                } 
....................             } 
....................          } 
....................       }  
....................       }else{ 
0DEE2:  BRA    E1F4
0DEE4:  MOVLB  1
....................       EstadoBuzzer=OFF; 
0DEE6:  BCF    x06.4
....................       IniciaCiclo=ON; 
0DEE8:  BSF    x03.6
....................          if(!flag_vac){ 
0DEEA:  BTFSC  x08.3
0DEEC:  BRA    DF32
....................             codigoAlarma=11; 
0DEEE:  MOVLW  0B
0DEF0:  MOVLB  2
0DEF2:  MOVWF  xAC
....................             if(codigoAnt!=codigoAlarma){ 
0DEF4:  MOVF   xAC,W
0DEF6:  SUBWF  xAD,W
0DEF8:  BZ    DF04
....................                codigoAnt=codigoAlarma; 
0DEFA:  MOVFF  2AC,2AD
....................                GuardaDatoCiclo();                
0DEFE:  MOVLB  0
0DF00:  CALL   710C
....................             } 
....................             flag_vac=ON; 
0DF04:  MOVLB  1
0DF06:  BSF    x08.3
....................             if(ReservorioLleno) 
0DF08:  BTFSS  x0A.1
0DF0A:  BRA    DF10
....................                BombaVacio=ON; 
0DF0C:  BSF    30.6
....................             else 
0DF0E:  BRA    DF12
....................                BombaVacio=OFF; 
0DF10:  BCF    30.6
....................             Desfogue=OFF; 
0DF12:  MOVLB  0
0DF14:  BCF    xF8.4
....................             Aire=OFF; 
0DF16:  BCF    xF8.5
....................             aguaEnfriador=OFF; 
0DF18:  BCF    30.5
....................             Paso=OFF; 
0DF1A:  BCF    xF8.2
....................             suministroVapor=OFF; 
0DF1C:  BCF    xF8.1
....................             delay_ms(70); 
0DF1E:  MOVLW  46
0DF20:  MOVLB  6
0DF22:  MOVWF  xDC
0DF24:  MOVLB  0
0DF26:  CALL   2142
....................             IniciaVacio2=ON; 
0DF2A:  MOVLB  1
0DF2C:  BSF    x08.1
....................             outVacio=ON; 
0DF2E:  MOVLB  0
0DF30:  BSF    xF8.3
....................          } 
....................           
....................          if(tbomba>=120){ 
0DF32:  MOVLB  2
0DF34:  MOVF   x98,F
0DF36:  BNZ   DF3E
0DF38:  MOVF   x97,W
0DF3A:  SUBLW  77
0DF3C:  BC    DF5A
....................             if(PresionCamara>Atmosferica){ 
0DF3E:  MOVF   x92,F
0DF40:  BNZ   DF48
0DF42:  MOVF   x91,W
0DF44:  SUBWF  xBD,W
0DF46:  BC    DF50
....................                AlarmaBomba=ON; 
0DF48:  MOVLB  0
0DF4A:  BSF    xFA.6
....................             }else{ 
0DF4C:  BRA    DF5A
0DF4E:  MOVLB  2
....................                tbomba=0; 
0DF50:  CLRF   x98
0DF52:  CLRF   x97
....................                IniciaVacio2=OFF; 
0DF54:  MOVLB  1
0DF56:  BCF    x08.1
0DF58:  MOVLB  0
....................             } 
....................          } 
....................           
....................          if(tvacio>=TiempoVacio){//Si excede el tiempo maximo para generar los pulsos de vacio genera alarma             
0DF5A:  MOVLB  0
0DF5C:  MOVF   xFE,W
0DF5E:  MOVLB  2
0DF60:  SUBWF  x9A,W
0DF62:  BNC   DF76
0DF64:  BNZ   DF70
0DF66:  MOVLB  0
0DF68:  MOVF   xFD,W
0DF6A:  MOVLB  2
0DF6C:  SUBWF  x99,W
0DF6E:  BNC   DF76
....................                AlarmaVacio=ON; 
0DF70:  MOVLB  0
0DF72:  BSF    xFA.3
0DF74:  MOVLB  2
....................          } 
....................           
....................          if(PresionCamara<17){ 
0DF76:  MOVF   x92,F
0DF78:  BNZ   DF9C
0DF7A:  MOVF   x91,W
0DF7C:  SUBLW  10
0DF7E:  BNC   DF9C
....................             BombaVacio=OFF; 
0DF80:  BCF    30.6
....................             outVacio=OFF; 
0DF82:  MOVLB  0
0DF84:  BCF    xF8.3
....................             Desfogue=OFF; 
0DF86:  BCF    xF8.4
....................             Aire=OFF; 
0DF88:  BCF    xF8.5
....................             aguaEnfriador=OFF; 
0DF8A:  BCF    30.5
....................             Paso=OFF; 
0DF8C:  BCF    xF8.2
....................             suministroVapor=OFF; 
0DF8E:  BCF    xF8.1
....................             Esterilizando=ON; 
0DF90:  MOVLB  1
0DF92:  BSF    x03.7
....................             IniciaVacio=OFF; 
0DF94:  BCF    x08.0
....................             tbomba=0; 
0DF96:  MOVLB  2
0DF98:  CLRF   x98
0DF9A:  CLRF   x97
....................          }  
....................           
....................          if(!Finalizo){ 
0DF9C:  MOVLB  1
0DF9E:  BTFSC  x07.0
0DFA0:  BRA    E0C8
....................             if(!Esterilizando){ 
0DFA2:  BTFSC  x03.7
0DFA4:  BRA    DFF8
....................                if(codigoAlarma==8){ 
0DFA6:  MOVLB  2
0DFA8:  MOVF   xAC,W
0DFAA:  SUBLW  08
0DFAC:  BNZ   DFBE
....................                   ActivaAlarma(2); 
0DFAE:  MOVLW  02
0DFB0:  MOVLB  6
0DFB2:  MOVWF  xCA
0DFB4:  MOVLB  0
0DFB6:  CALL   5B12
....................                }else{ 
0DFBA:  BRA    DFF4
0DFBC:  MOVLB  2
....................                   if(ReservorioLleno) 
0DFBE:  MOVLB  1
0DFC0:  BTFSS  x0A.1
0DFC2:  BRA    DFC8
....................                      BombaVacio=ON; 
0DFC4:  BSF    30.6
....................                   else 
0DFC6:  BRA    DFCA
....................                      BombaVacio=OFF; 
0DFC8:  BCF    30.6
....................                    
....................                   printf("Funcionamiento.t4f.txt=\" Ninguna\""); 
0DFCA:  MOVLW  34
0DFCC:  MOVWF  FF6
0DFCE:  MOVLW  1C
0DFD0:  MOVWF  FF7
0DFD2:  MOVLW  00
0DFD4:  MOVWF  FF8
0DFD6:  MOVLB  0
0DFD8:  CALL   41BC
....................                   SendDataDisplay(); 
0DFDC:  CALL   41EE
....................                   printf("Funcionamiento.t5f.txt=\" Vacio\""); 
0DFE0:  MOVLW  56
0DFE2:  MOVWF  FF6
0DFE4:  MOVLW  1C
0DFE6:  MOVWF  FF7
0DFE8:  MOVLW  00
0DFEA:  MOVWF  FF8
0DFEC:  CALL   41BC
....................                   SendDataDisplay(); 
0DFF0:  CALL   41EE
....................                } 
....................             }else{ 
0DFF4:  BRA    E0C6
0DFF6:  MOVLB  1
....................                if(PresionCamara>25){ 
0DFF8:  MOVLB  2
0DFFA:  MOVF   x92,F
0DFFC:  BNZ   E004
0DFFE:  MOVF   x91,W
0E000:  SUBLW  19
0E002:  BC    E09C
....................                   printf("Funcionamiento.t4f.txt=\" Error Ciclo\""); 
0E004:  MOVLW  76
0E006:  MOVWF  FF6
0E008:  MOVLW  1C
0E00A:  MOVWF  FF7
0E00C:  MOVLW  00
0E00E:  MOVWF  FF8
0E010:  MOVLB  0
0E012:  CALL   41BC
....................                   SendDataDisplay(); 
0E016:  CALL   41EE
....................                   printf("Funcionamiento.t5f.txt=\" Finalizado\""); 
0E01A:  MOVLW  9C
0E01C:  MOVWF  FF6
0E01E:  MOVLW  1C
0E020:  MOVWF  FF7
0E022:  MOVLW  00
0E024:  MOVWF  FF8
0E026:  CALL   41BC
....................                   SendDataDisplay(); 
0E02A:  CALL   41EE
....................                   codigoAlarma=8; 
0E02E:  MOVLW  08
0E030:  MOVLB  2
0E032:  MOVWF  xAC
....................                   if(codigoAnt!=codigoAlarma){ 
0E034:  MOVF   xAC,W
0E036:  SUBWF  xAD,W
0E038:  BZ    E044
....................                      codigoAnt=codigoAlarma; 
0E03A:  MOVFF  2AC,2AD
....................                      GuardaDatoCiclo();                   
0E03E:  MOVLB  0
0E040:  CALL   710C
....................                   } 
....................                   if(!flagImprimir){//Imprime Ciclo Finalizado 
0E044:  MOVLB  1
0E046:  BTFSC  x09.4
0E048:  BRA    E06C
....................                      Imprime=26; 
0E04A:  MOVLW  1A
0E04C:  MOVLB  2
0E04E:  MOVWF  xC7
....................                      Envio_Esclavos(); 
0E050:  MOVLB  0
0E052:  CALL   579A
....................                      delay_ms(100); 
0E056:  MOVLW  64
0E058:  MOVLB  6
0E05A:  MOVWF  xDC
0E05C:  MOVLB  0
0E05E:  CALL   2142
....................                      Imprime=10; 
0E062:  MOVLW  0A
0E064:  MOVLB  2
0E066:  MOVWF  xC7
....................                      flagImprimir=1; 
0E068:  MOVLB  1
0E06A:  BSF    x09.4
....................                   } 
....................                   IniciaVacio=OFF; 
0E06C:  BCF    x08.0
....................                   tbomba=0; 
0E06E:  MOVLB  2
0E070:  CLRF   x98
0E072:  CLRF   x97
....................                   BombaVacio=OFF; 
0E074:  BCF    30.6
....................                   outVacio=OFF; 
0E076:  MOVLB  0
0E078:  BCF    xF8.3
....................                   Desfogue=OFF; 
0E07A:  BCF    xF8.4
....................                   Aire=ON; 
0E07C:  BSF    xF8.5
....................                   Paso=OFF; 
0E07E:  BCF    xF8.2
....................                   suministroVapor=OFF; 
0E080:  BCF    xF8.1
....................                   aguaEnfriador=OFF; 
0E082:  BCF    30.5
....................                   ActivaAlarma(2); 
0E084:  MOVLW  02
0E086:  MOVLB  6
0E088:  MOVWF  xCA
0E08A:  MOVLB  0
0E08C:  CALL   5B12
....................                   incrementaCiclos(); 
0E090:  CALL   74BA
....................                   Esterilizando=OFF; 
0E094:  MOVLB  1
0E096:  BCF    x03.7
....................                }else{ 
0E098:  BRA    E0C8
0E09A:  MOVLB  2
....................                   printf("Funcionamiento.t4f.txt=\" Ninguna\""); 
0E09C:  MOVLW  C2
0E09E:  MOVWF  FF6
0E0A0:  MOVLW  1C
0E0A2:  MOVWF  FF7
0E0A4:  MOVLW  00
0E0A6:  MOVWF  FF8
0E0A8:  MOVLB  0
0E0AA:  CALL   41BC
....................                   SendDataDisplay(); 
0E0AE:  CALL   41EE
....................                   printf("Funcionamiento.t5f.txt=\" Manteniendo Vacio\""); 
0E0B2:  MOVLW  E4
0E0B4:  MOVWF  FF6
0E0B6:  MOVLW  1C
0E0B8:  MOVWF  FF7
0E0BA:  MOVLW  00
0E0BC:  MOVWF  FF8
0E0BE:  CALL   41BC
....................                   SendDataDisplay(); 
0E0C2:  CALL   41EE
0E0C6:  MOVLB  1
....................                } 
....................             } 
....................          } 
....................           
....................          if(mEst==0 && sEst==0){   
0E0C8:  MOVF   x22,F
0E0CA:  BTFSS  FD8.2
0E0CC:  BRA    E1F2
0E0CE:  MOVF   x21,F
0E0D0:  BTFSS  FD8.2
0E0D2:  BRA    E1F2
....................             if(PresionFinal<=25){ 
0E0D4:  MOVLB  2
0E0D6:  MOVF   x9E,F
0E0D8:  BNZ   E14C
0E0DA:  MOVF   x9D,W
0E0DC:  SUBLW  19
0E0DE:  BNC   E14C
....................                printf("Funcionamiento.t4f.txt=\" Ninguna\""); 
0E0E0:  MOVLW  10
0E0E2:  MOVWF  FF6
0E0E4:  MOVLW  1D
0E0E6:  MOVWF  FF7
0E0E8:  MOVLW  00
0E0EA:  MOVWF  FF8
0E0EC:  MOVLB  0
0E0EE:  CALL   41BC
....................                SendDataDisplay(); 
0E0F2:  CALL   41EE
....................                printf("Funcionamiento.t5f.txt=\" Finalizado\""); 
0E0F6:  MOVLW  32
0E0F8:  MOVWF  FF6
0E0FA:  MOVLW  1D
0E0FC:  MOVWF  FF7
0E0FE:  MOVLW  00
0E100:  MOVWF  FF8
0E102:  CALL   41BC
....................                SendDataDisplay(); 
0E106:  CALL   41EE
....................                codigoAlarma=14; 
0E10A:  MOVLW  0E
0E10C:  MOVLB  2
0E10E:  MOVWF  xAC
....................                if(codigoAnt!=codigoAlarma){ 
0E110:  MOVF   xAC,W
0E112:  SUBWF  xAD,W
0E114:  BZ    E120
....................                   codigoAnt=codigoAlarma; 
0E116:  MOVFF  2AC,2AD
....................                   GuardaDatoCiclo();                   
0E11A:  MOVLB  0
0E11C:  CALL   710C
....................                } 
....................                if(!flagImprimir){//Imprime Ciclo Finalizado 
0E120:  MOVLB  1
0E122:  BTFSC  x09.4
0E124:  BRA    E148
....................                   Imprime=28; 
0E126:  MOVLW  1C
0E128:  MOVLB  2
0E12A:  MOVWF  xC7
....................                   Envio_Esclavos(); 
0E12C:  MOVLB  0
0E12E:  CALL   579A
....................                   delay_ms(100); 
0E132:  MOVLW  64
0E134:  MOVLB  6
0E136:  MOVWF  xDC
0E138:  MOVLB  0
0E13A:  CALL   2142
....................                   Imprime=10; 
0E13E:  MOVLW  0A
0E140:  MOVLB  2
0E142:  MOVWF  xC7
....................                   flagImprimir=1; 
0E144:  MOVLB  1
0E146:  BSF    x09.4
....................                } 
....................             }else{ 
0E148:  BRA    E1B4
0E14A:  MOVLB  2
....................                printf("Funcionamiento.t4f.txt=\" Error Ciclo\""); 
0E14C:  MOVLW  58
0E14E:  MOVWF  FF6
0E150:  MOVLW  1D
0E152:  MOVWF  FF7
0E154:  MOVLW  00
0E156:  MOVWF  FF8
0E158:  MOVLB  0
0E15A:  CALL   41BC
....................                SendDataDisplay(); 
0E15E:  CALL   41EE
....................                printf("Funcionamiento.t5f.txt=\" Finalizado\""); 
0E162:  MOVLW  7E
0E164:  MOVWF  FF6
0E166:  MOVLW  1D
0E168:  MOVWF  FF7
0E16A:  MOVLW  00
0E16C:  MOVWF  FF8
0E16E:  CALL   41BC
....................                SendDataDisplay(); 
0E172:  CALL   41EE
....................                codigoAlarma=8; 
0E176:  MOVLW  08
0E178:  MOVLB  2
0E17A:  MOVWF  xAC
....................                if(codigoAnt!=codigoAlarma){ 
0E17C:  MOVF   xAC,W
0E17E:  SUBWF  xAD,W
0E180:  BZ    E18C
....................                   codigoAnt=codigoAlarma; 
0E182:  MOVFF  2AC,2AD
....................                   GuardaDatoCiclo();                   
0E186:  MOVLB  0
0E188:  CALL   710C
....................                } 
....................                if(!flagImprimir){//Imprime Ciclo Finalizado 
0E18C:  MOVLB  1
0E18E:  BTFSC  x09.4
0E190:  BRA    E1B4
....................                   Imprime=26; 
0E192:  MOVLW  1A
0E194:  MOVLB  2
0E196:  MOVWF  xC7
....................                   Envio_Esclavos(); 
0E198:  MOVLB  0
0E19A:  CALL   579A
....................                   delay_ms(100); 
0E19E:  MOVLW  64
0E1A0:  MOVLB  6
0E1A2:  MOVWF  xDC
0E1A4:  MOVLB  0
0E1A6:  CALL   2142
....................                   Imprime=10; 
0E1AA:  MOVLW  0A
0E1AC:  MOVLB  2
0E1AE:  MOVWF  xC7
....................                   flagImprimir=1; 
0E1B0:  MOVLB  1
0E1B2:  BSF    x09.4
....................                } 
....................             } 
....................             IniciaVacio=OFF; 
0E1B4:  BCF    x08.0
....................             tbomba=0; 
0E1B6:  MOVLB  2
0E1B8:  CLRF   x98
0E1BA:  CLRF   x97
....................             BombaVacio=OFF; 
0E1BC:  BCF    30.6
....................             outVacio=OFF; 
0E1BE:  MOVLB  0
0E1C0:  BCF    xF8.3
....................             Desfogue=OFF; 
0E1C2:  BCF    xF8.4
....................             Aire=ON; 
0E1C4:  BSF    xF8.5
....................             Paso=OFF; 
0E1C6:  BCF    xF8.2
....................             suministroVapor=OFF; 
0E1C8:  BCF    xF8.1
....................             aguaEnfriador=OFF; 
0E1CA:  BCF    30.5
....................             ActivaAlarma(2); 
0E1CC:  MOVLW  02
0E1CE:  MOVLB  6
0E1D0:  MOVWF  xCA
0E1D2:  MOVLB  0
0E1D4:  CALL   5B12
....................             if(!Finalizo){ 
0E1D8:  MOVLB  1
0E1DA:  BTFSC  x07.0
0E1DC:  BRA    E1E8
....................                Finalizo=ON; 
0E1DE:  BSF    x07.0
....................                PresionFinal=PresionCamara; 
0E1E0:  MOVFF  292,29E
0E1E4:  MOVFF  291,29D
....................             } 
....................             incrementaCiclos(); 
0E1E8:  MOVLB  0
0E1EA:  CALL   74BA
....................             Esterilizando=OFF; 
0E1EE:  MOVLB  1
0E1F0:  BCF    x03.7
0E1F2:  MOVLB  2
....................          } 
....................       } 
....................    } 
....................  
....................    if(tguarda>=180){ 
0E1F4:  MOVLB  1
0E1F6:  MOVF   x14,F
0E1F8:  BNZ   E200
0E1FA:  MOVF   x13,W
0E1FC:  SUBLW  B3
0E1FE:  BC    E210
....................       if(!Ciclo) 
0E200:  BTFSC  x05.3
0E202:  BRA    E20C
....................          GuardaDatoCiclo(); 
0E204:  MOVLB  0
0E206:  CALL   710C
0E20A:  MOVLB  1
....................       tguarda=0; 
0E20C:  CLRF   x14
0E20E:  CLRF   x13
....................    } 
....................  
....................    if(Grafica==1){ 
0E210:  BTFSS  x0A.5
0E212:  BRA    E386
....................       printf("add 12,0,%1.0f",Temperatura*0.66); 
0E214:  MOVFF  23E,6E3
0E218:  MOVFF  23D,6E2
0E21C:  MOVFF  23C,6E1
0E220:  MOVFF  23B,6E0
0E224:  MOVLW  C3
0E226:  MOVLB  6
0E228:  MOVWF  xE7
0E22A:  MOVLW  F5
0E22C:  MOVWF  xE6
0E22E:  MOVLW  28
0E230:  MOVWF  xE5
0E232:  MOVLW  7E
0E234:  MOVWF  xE4
0E236:  MOVLB  0
0E238:  CALL   4284
0E23C:  MOVFF  00,6CA
0E240:  MOVFF  01,6CB
0E244:  MOVFF  02,6CC
0E248:  MOVFF  03,6CD
0E24C:  MOVLW  A4
0E24E:  MOVWF  FF6
0E250:  MOVLW  1D
0E252:  MOVWF  FF7
0E254:  MOVLW  00
0E256:  MOVWF  FF8
0E258:  MOVLW  09
0E25A:  MOVLB  6
0E25C:  MOVWF  xCF
0E25E:  MOVLB  0
0E260:  CALL   5C56
0E264:  MOVLW  00
0E266:  MOVWF  FE9
0E268:  MOVFF  6CD,6D2
0E26C:  MOVFF  6CC,6D1
0E270:  MOVFF  6CB,6D0
0E274:  MOVFF  6CA,6CF
0E278:  MOVLB  6
0E27A:  CLRF   xD3
0E27C:  MOVLB  0
0E27E:  CALL   5F3E
....................       SendDataDisplay(); 
0E282:  CALL   41EE
....................       printf("add 12,1,%1.0f",PresionCamara*0.66); 
0E286:  MOVFF  292,6DD
0E28A:  MOVFF  291,6DC
0E28E:  CALL   210C
0E292:  MOVFF  03,6E3
0E296:  MOVFF  02,6E2
0E29A:  MOVFF  01,6E1
0E29E:  MOVFF  00,6E0
0E2A2:  MOVLW  C3
0E2A4:  MOVLB  6
0E2A6:  MOVWF  xE7
0E2A8:  MOVLW  F5
0E2AA:  MOVWF  xE6
0E2AC:  MOVLW  28
0E2AE:  MOVWF  xE5
0E2B0:  MOVLW  7E
0E2B2:  MOVWF  xE4
0E2B4:  MOVLB  0
0E2B6:  CALL   4284
0E2BA:  MOVFF  00,6CA
0E2BE:  MOVFF  01,6CB
0E2C2:  MOVFF  02,6CC
0E2C6:  MOVFF  03,6CD
0E2CA:  MOVLW  B4
0E2CC:  MOVWF  FF6
0E2CE:  MOVLW  1D
0E2D0:  MOVWF  FF7
0E2D2:  MOVLW  00
0E2D4:  MOVWF  FF8
0E2D6:  MOVLW  09
0E2D8:  MOVLB  6
0E2DA:  MOVWF  xCF
0E2DC:  MOVLB  0
0E2DE:  CALL   5C56
0E2E2:  MOVLW  00
0E2E4:  MOVWF  FE9
0E2E6:  MOVFF  6CD,6D2
0E2EA:  MOVFF  6CC,6D1
0E2EE:  MOVFF  6CB,6D0
0E2F2:  MOVFF  6CA,6CF
0E2F6:  MOVLB  6
0E2F8:  CLRF   xD3
0E2FA:  MOVLB  0
0E2FC:  CALL   5F3E
....................       SendDataDisplay(); 
0E300:  CALL   41EE
....................       printf("add 12,2,%1.0f",PresionPreCamara*0.66); 
0E304:  MOVFF  294,6DD
0E308:  MOVFF  293,6DC
0E30C:  CALL   210C
0E310:  MOVFF  03,6E3
0E314:  MOVFF  02,6E2
0E318:  MOVFF  01,6E1
0E31C:  MOVFF  00,6E0
0E320:  MOVLW  C3
0E322:  MOVLB  6
0E324:  MOVWF  xE7
0E326:  MOVLW  F5
0E328:  MOVWF  xE6
0E32A:  MOVLW  28
0E32C:  MOVWF  xE5
0E32E:  MOVLW  7E
0E330:  MOVWF  xE4
0E332:  MOVLB  0
0E334:  CALL   4284
0E338:  MOVFF  00,6CA
0E33C:  MOVFF  01,6CB
0E340:  MOVFF  02,6CC
0E344:  MOVFF  03,6CD
0E348:  MOVLW  C4
0E34A:  MOVWF  FF6
0E34C:  MOVLW  1D
0E34E:  MOVWF  FF7
0E350:  MOVLW  00
0E352:  MOVWF  FF8
0E354:  MOVLW  09
0E356:  MOVLB  6
0E358:  MOVWF  xCF
0E35A:  MOVLB  0
0E35C:  CALL   5C56
0E360:  MOVLW  00
0E362:  MOVWF  FE9
0E364:  MOVFF  6CD,6D2
0E368:  MOVFF  6CC,6D1
0E36C:  MOVFF  6CB,6D0
0E370:  MOVFF  6CA,6CF
0E374:  MOVLB  6
0E376:  CLRF   xD3
0E378:  MOVLB  0
0E37A:  CALL   5F3E
....................       SendDataDisplay(); 
0E37E:  CALL   41EE
....................       Grafica=0; 
0E382:  MOVLB  1
0E384:  BCF    x0A.5
....................    } 
....................    if(Lectura==1)// Utilizado para visualizar la lectura de la temperatura 
0E386:  BTFSS  x0A.4
0E388:  BRA    E654
....................    {                       
....................       Lectura=0; 
0E38A:  BCF    x0A.4
....................       //printf("tuser.txt=\"%s\"",usuario); 
....................       //SendDataDisplay(); 
....................       printf("t6f.txt=\"%3.1fC\"",Temperatura); 
0E38C:  MOVLW  D4
0E38E:  MOVWF  FF6
0E390:  MOVLW  1D
0E392:  MOVWF  FF7
0E394:  MOVLW  00
0E396:  MOVWF  FF8
0E398:  MOVLW  09
0E39A:  MOVLB  6
0E39C:  MOVWF  xCF
0E39E:  MOVLB  0
0E3A0:  CALL   5C56
0E3A4:  MOVLW  02
0E3A6:  MOVWF  FE9
0E3A8:  MOVFF  23E,6D2
0E3AC:  MOVFF  23D,6D1
0E3B0:  MOVFF  23C,6D0
0E3B4:  MOVFF  23B,6CF
0E3B8:  MOVLW  01
0E3BA:  MOVLB  6
0E3BC:  MOVWF  xD3
0E3BE:  MOVLB  0
0E3C0:  CALL   5F3E
0E3C4:  MOVLW  B0
0E3C6:  BTFSS  F9E.4
0E3C8:  BRA    E3C6
0E3CA:  MOVWF  FAD
0E3CC:  MOVLW  43
0E3CE:  BTFSS  F9E.4
0E3D0:  BRA    E3CE
0E3D2:  MOVWF  FAD
0E3D4:  MOVLW  22
0E3D6:  BTFSS  F9E.4
0E3D8:  BRA    E3D6
0E3DA:  MOVWF  FAD
....................       SendDataDisplay(); 
0E3DC:  CALL   41EE
....................       printf("Funcionamiento.t7f.txt=\"%03LukPa\"",PresionCamara); 
0E3E0:  MOVLW  E6
0E3E2:  MOVWF  FF6
0E3E4:  MOVLW  1D
0E3E6:  MOVWF  FF7
0E3E8:  MOVLW  00
0E3EA:  MOVWF  FF8
0E3EC:  MOVLW  18
0E3EE:  MOVLB  6
0E3F0:  MOVWF  xCF
0E3F2:  MOVLB  0
0E3F4:  CALL   5C56
0E3F8:  MOVLW  0A
0E3FA:  MOVWF  FE9
0E3FC:  MOVFF  292,6CF
0E400:  MOVFF  291,6CE
0E404:  CALL   5DD0
0E408:  MOVLW  03
0E40A:  MOVWF  FF6
0E40C:  MOVLW  1E
0E40E:  MOVWF  FF7
0E410:  MOVLW  00
0E412:  MOVWF  FF8
0E414:  MOVLW  04
0E416:  MOVLB  6
0E418:  MOVWF  xCF
0E41A:  MOVLB  0
0E41C:  CALL   5C56
....................       SendDataDisplay(); 
0E420:  CALL   41EE
....................       printf("Funcionamiento.t12f.txt=\"%03LukPa\"",PresionPreCamara); 
0E424:  MOVLW  08
0E426:  MOVWF  FF6
0E428:  MOVLW  1E
0E42A:  MOVWF  FF7
0E42C:  MOVLW  00
0E42E:  MOVWF  FF8
0E430:  MOVLW  19
0E432:  MOVLB  6
0E434:  MOVWF  xCF
0E436:  MOVLB  0
0E438:  CALL   5C56
0E43C:  MOVLW  0A
0E43E:  MOVWF  FE9
0E440:  MOVFF  294,6CF
0E444:  MOVFF  293,6CE
0E448:  CALL   5DD0
0E44C:  MOVLW  26
0E44E:  MOVWF  FF6
0E450:  MOVLW  1E
0E452:  MOVWF  FF7
0E454:  MOVLW  00
0E456:  MOVWF  FF8
0E458:  MOVLW  04
0E45A:  MOVLB  6
0E45C:  MOVWF  xCF
0E45E:  MOVLB  0
0E460:  CALL   5C56
....................       SendDataDisplay(); 
0E464:  CALL   41EE
....................       printf("Funcionamiento.t9f.txt=\"%03uC\"",Setpoint); 
0E468:  MOVLW  2C
0E46A:  MOVWF  FF6
0E46C:  MOVLW  1E
0E46E:  MOVWF  FF7
0E470:  MOVLW  00
0E472:  MOVWF  FF8
0E474:  MOVLW  18
0E476:  MOVLB  6
0E478:  MOVWF  xCF
0E47A:  MOVLB  0
0E47C:  CALL   5C56
0E480:  MOVFF  280,6CF
0E484:  MOVLW  03
0E486:  MOVLB  6
0E488:  MOVWF  xD0
0E48A:  MOVLB  0
0E48C:  CALL   5CDA
0E490:  MOVLW  B0
0E492:  BTFSS  F9E.4
0E494:  BRA    E492
0E496:  MOVWF  FAD
0E498:  MOVLW  43
0E49A:  BTFSS  F9E.4
0E49C:  BRA    E49A
0E49E:  MOVWF  FAD
0E4A0:  MOVLW  22
0E4A2:  BTFSS  F9E.4
0E4A4:  BRA    E4A2
0E4A6:  MOVWF  FAD
....................       SendDataDisplay();       
0E4A8:  CALL   41EE
....................       printf("Funcionamiento.t10f.txt=\"%02u:%02u\"",mEst,sEst); 
0E4AC:  MOVLW  4C
0E4AE:  MOVWF  FF6
0E4B0:  MOVLW  1E
0E4B2:  MOVWF  FF7
0E4B4:  MOVLW  00
0E4B6:  MOVWF  FF8
0E4B8:  MOVLW  19
0E4BA:  MOVLB  6
0E4BC:  MOVWF  xCF
0E4BE:  MOVLB  0
0E4C0:  CALL   5C56
0E4C4:  MOVFF  122,6CF
0E4C8:  MOVLW  01
0E4CA:  MOVLB  6
0E4CC:  MOVWF  xD0
0E4CE:  MOVLB  0
0E4D0:  CALL   5CDA
0E4D4:  MOVLW  3A
0E4D6:  BTFSS  F9E.4
0E4D8:  BRA    E4D6
0E4DA:  MOVWF  FAD
0E4DC:  MOVFF  121,6CF
0E4E0:  MOVLW  01
0E4E2:  MOVLB  6
0E4E4:  MOVWF  xD0
0E4E6:  MOVLB  0
0E4E8:  CALL   5CDA
0E4EC:  MOVLW  22
0E4EE:  BTFSS  F9E.4
0E4F0:  BRA    E4EE
0E4F2:  MOVWF  FAD
....................       SendDataDisplay();       
0E4F4:  CALL   41EE
....................       printf("Funcionamiento.t11f.txt=\"%02u:%02u\"",mSec,sSec); 
0E4F8:  MOVLW  70
0E4FA:  MOVWF  FF6
0E4FC:  MOVLW  1E
0E4FE:  MOVWF  FF7
0E500:  MOVLW  00
0E502:  MOVWF  FF8
0E504:  MOVLW  19
0E506:  MOVLB  6
0E508:  MOVWF  xCF
0E50A:  MOVLB  0
0E50C:  CALL   5C56
0E510:  MOVFF  124,6CF
0E514:  MOVLW  01
0E516:  MOVLB  6
0E518:  MOVWF  xD0
0E51A:  MOVLB  0
0E51C:  CALL   5CDA
0E520:  MOVLW  3A
0E522:  BTFSS  F9E.4
0E524:  BRA    E522
0E526:  MOVWF  FAD
0E528:  MOVFF  123,6CF
0E52C:  MOVLW  01
0E52E:  MOVLB  6
0E530:  MOVWF  xD0
0E532:  MOVLB  0
0E534:  CALL   5CDA
0E538:  MOVLW  22
0E53A:  BTFSS  F9E.4
0E53C:  BRA    E53A
0E53E:  MOVWF  FAD
....................       SendDataDisplay();       
0E540:  CALL   41EE
....................        
....................       printf("fecha.txt=\"%s Fecha:%02u/%02u/20%02u  Hora:%02u:%02u %2.1fC\"",usuario,Dia,Mes,Year,Hora,Minuto,Tactual); 
0E544:  MOVLW  94
0E546:  MOVWF  FF6
0E548:  MOVLW  1E
0E54A:  MOVWF  FF7
0E54C:  MOVLW  00
0E54E:  MOVWF  FF8
0E550:  MOVLW  0B
0E552:  MOVLB  6
0E554:  MOVWF  xCF
0E556:  MOVLB  0
0E558:  CALL   5C56
0E55C:  MOVLW  02
0E55E:  MOVWF  FEA
0E560:  MOVLW  D0
0E562:  MOVWF  FE9
0E564:  CALL   5C88
0E568:  MOVLW  A1
0E56A:  MOVWF  FF6
0E56C:  MOVLW  1E
0E56E:  MOVWF  FF7
0E570:  MOVLW  00
0E572:  MOVWF  FF8
0E574:  MOVLW  07
0E576:  MOVLB  6
0E578:  MOVWF  xCF
0E57A:  MOVLB  0
0E57C:  CALL   5C56
0E580:  MOVFF  2B5,6CF
0E584:  MOVLW  01
0E586:  MOVLB  6
0E588:  MOVWF  xD0
0E58A:  MOVLB  0
0E58C:  CALL   5CDA
0E590:  MOVLW  2F
0E592:  BTFSS  F9E.4
0E594:  BRA    E592
0E596:  MOVWF  FAD
0E598:  MOVFF  2B4,6CF
0E59C:  MOVLW  01
0E59E:  MOVLB  6
0E5A0:  MOVWF  xD0
0E5A2:  MOVLB  0
0E5A4:  CALL   5CDA
0E5A8:  MOVLW  2F
0E5AA:  BTFSS  F9E.4
0E5AC:  BRA    E5AA
0E5AE:  MOVWF  FAD
0E5B0:  MOVLW  32
0E5B2:  BTFSS  F9E.4
0E5B4:  BRA    E5B2
0E5B6:  MOVWF  FAD
0E5B8:  MOVLW  30
0E5BA:  BTFSS  F9E.4
0E5BC:  BRA    E5BA
0E5BE:  MOVWF  FAD
0E5C0:  MOVFF  2B3,6CF
0E5C4:  MOVLW  01
0E5C6:  MOVLB  6
0E5C8:  MOVWF  xD0
0E5CA:  MOVLB  0
0E5CC:  CALL   5CDA
0E5D0:  MOVLW  B8
0E5D2:  MOVWF  FF6
0E5D4:  MOVLW  1E
0E5D6:  MOVWF  FF7
0E5D8:  MOVLW  00
0E5DA:  MOVWF  FF8
0E5DC:  MOVLW  07
0E5DE:  MOVLB  6
0E5E0:  MOVWF  xCF
0E5E2:  MOVLB  0
0E5E4:  CALL   5C56
0E5E8:  MOVFF  2B6,6CF
0E5EC:  MOVLW  01
0E5EE:  MOVLB  6
0E5F0:  MOVWF  xD0
0E5F2:  MOVLB  0
0E5F4:  CALL   5CDA
0E5F8:  MOVLW  3A
0E5FA:  BTFSS  F9E.4
0E5FC:  BRA    E5FA
0E5FE:  MOVWF  FAD
0E600:  MOVFF  2B7,6CF
0E604:  MOVLW  01
0E606:  MOVLB  6
0E608:  MOVWF  xD0
0E60A:  MOVLB  0
0E60C:  CALL   5CDA
0E610:  MOVLW  20
0E612:  BTFSS  F9E.4
0E614:  BRA    E612
0E616:  MOVWF  FAD
0E618:  MOVLW  01
0E61A:  MOVWF  FE9
0E61C:  MOVFF  265,6D2
0E620:  MOVFF  264,6D1
0E624:  MOVFF  263,6D0
0E628:  MOVFF  262,6CF
0E62C:  MOVLB  6
0E62E:  MOVWF  xD3
0E630:  MOVLB  0
0E632:  CALL   5F3E
0E636:  MOVLW  B0
0E638:  BTFSS  F9E.4
0E63A:  BRA    E638
0E63C:  MOVWF  FAD
0E63E:  MOVLW  43
0E640:  BTFSS  F9E.4
0E642:  BRA    E640
0E644:  MOVWF  FAD
0E646:  MOVLW  22
0E648:  BTFSS  F9E.4
0E64A:  BRA    E648
0E64C:  MOVWF  FAD
....................       SendDataDisplay(); 
0E64E:  CALL   41EE
0E652:  MOVLB  1
....................    } 
....................  
.................... }else if(Menu==100){ //Menu de Configuracin de Parametros de Control 
0E654:  GOTO   F4DC
0E658:  MOVLB  2
0E65A:  MOVF   x70,W
0E65C:  SUBLW  64
0E65E:  BTFSS  FD8.2
0E660:  GOTO   F4DC
....................       
....................       if(Opcion2>12) 
0E664:  MOVF   x82,W
0E666:  SUBLW  0C
0E668:  BC    E66E
....................          Opcion2=1; 
0E66A:  MOVLW  01
0E66C:  MOVWF  x82
....................       if(Opcion2<1) 
0E66E:  MOVF   x82,F
0E670:  BNZ   E676
....................          Opcion2=12; 
0E672:  MOVLW  0C
0E674:  MOVWF  x82
....................        
....................       if(Opcion2==1){ 
0E676:  DECFSZ x82,W
0E678:  BRA    E7BA
....................          printf("Config.t2c.txt=\"Proporcional\""); 
0E67A:  MOVLW  D2
0E67C:  MOVWF  FF6
0E67E:  MOVLW  1E
0E680:  MOVWF  FF7
0E682:  MOVLW  00
0E684:  MOVWF  FF8
0E686:  MOVLB  0
0E688:  CALL   41BC
....................          SendDataDisplay();       
0E68C:  CALL   41EE
....................          printf("t3c.txt=\"%2.0f\"",Ganancia); 
0E690:  MOVLW  F0
0E692:  MOVWF  FF6
0E694:  MOVLW  1E
0E696:  MOVWF  FF7
0E698:  MOVLW  00
0E69A:  MOVWF  FF8
0E69C:  MOVLW  09
0E69E:  MOVLB  6
0E6A0:  MOVWF  xCF
0E6A2:  MOVLB  0
0E6A4:  CALL   5C56
0E6A8:  MOVLW  01
0E6AA:  MOVWF  FE9
0E6AC:  MOVFF  222,6D2
0E6B0:  MOVFF  221,6D1
0E6B4:  MOVFF  220,6D0
0E6B8:  MOVFF  21F,6CF
0E6BC:  MOVLB  6
0E6BE:  CLRF   xD3
0E6C0:  MOVLB  0
0E6C2:  CALL   5F3E
0E6C6:  MOVLW  22
0E6C8:  BTFSS  F9E.4
0E6CA:  BRA    E6C8
0E6CC:  MOVWF  FAD
....................          SendDataDisplay(); 
0E6CE:  CALL   41EE
....................          if(RX_Buffer[4]==0x0a){//Tecla Arriba Oprimida 
0E6D2:  MOVF   35,W
0E6D4:  SUBLW  0A
0E6D6:  BNZ   E710
....................                Ganancia+=1.0; 
0E6D8:  BCF    FD8.1
0E6DA:  MOVFF  222,6DF
0E6DE:  MOVFF  221,6DE
0E6E2:  MOVFF  220,6DD
0E6E6:  MOVFF  21F,6DC
0E6EA:  MOVLB  6
0E6EC:  CLRF   xE3
0E6EE:  CLRF   xE2
0E6F0:  CLRF   xE1
0E6F2:  MOVLW  7F
0E6F4:  MOVWF  xE0
0E6F6:  MOVLB  0
0E6F8:  CALL   22C8
0E6FC:  MOVFF  03,222
0E700:  MOVFF  02,221
0E704:  MOVFF  01,220
0E708:  MOVFF  00,21F
....................                RX_Buffer[4]=0x00;   
0E70C:  CLRF   35
....................                RX_Buffer2[4]=0x00;             
0E70E:  CLRF   40
....................                //BorraBuffer(); 
....................          } 
....................              
....................          if(RX_Buffer[4]==0x0b){//Tecla Abajo Oprimida 
0E710:  MOVF   35,W
0E712:  SUBLW  0B
0E714:  BNZ   E74E
....................                Ganancia-=1.0; 
0E716:  BSF    FD8.1
0E718:  MOVFF  222,6DF
0E71C:  MOVFF  221,6DE
0E720:  MOVFF  220,6DD
0E724:  MOVFF  21F,6DC
0E728:  MOVLB  6
0E72A:  CLRF   xE3
0E72C:  CLRF   xE2
0E72E:  CLRF   xE1
0E730:  MOVLW  7F
0E732:  MOVWF  xE0
0E734:  MOVLB  0
0E736:  CALL   22C8
0E73A:  MOVFF  03,222
0E73E:  MOVFF  02,221
0E742:  MOVFF  01,220
0E746:  MOVFF  00,21F
....................                RX_Buffer[4]=0x00; 
0E74A:  CLRF   35
....................                RX_Buffer2[4]=0x00;             
0E74C:  CLRF   40
....................                //BorraBuffer(); 
....................          } 
....................           
....................          if(Ganancia>40) 
0E74E:  MOVLB  6
0E750:  CLRF   xD1
0E752:  CLRF   xD0
0E754:  MOVLW  20
0E756:  MOVWF  xCF
0E758:  MOVLW  84
0E75A:  MOVWF  xCE
0E75C:  MOVFF  222,6D5
0E760:  MOVFF  221,6D4
0E764:  MOVFF  220,6D3
0E768:  MOVFF  21F,6D2
0E76C:  MOVLB  0
0E76E:  CALL   279E
0E772:  BNC   E780
....................             Ganancia=1; 
0E774:  MOVLB  2
0E776:  CLRF   x22
0E778:  CLRF   x21
0E77A:  CLRF   x20
0E77C:  MOVLW  7F
0E77E:  MOVWF  x1F
....................          if(Ganancia<1) 
0E780:  MOVFF  222,6D1
0E784:  MOVFF  221,6D0
0E788:  MOVFF  220,6CF
0E78C:  MOVFF  21F,6CE
0E790:  MOVLB  6
0E792:  CLRF   xD5
0E794:  CLRF   xD4
0E796:  CLRF   xD3
0E798:  MOVLW  7F
0E79A:  MOVWF  xD2
0E79C:  MOVLB  0
0E79E:  CALL   279E
0E7A2:  BNC   E7B4
....................             Ganancia=40; 
0E7A4:  MOVLB  2
0E7A6:  CLRF   x22
0E7A8:  CLRF   x21
0E7AA:  MOVLW  20
0E7AC:  MOVWF  x20
0E7AE:  MOVLW  84
0E7B0:  MOVWF  x1F
0E7B2:  MOVLB  0
....................       }else if(Opcion2==2){ 
0E7B4:  GOTO   EF30
0E7B8:  MOVLB  2
0E7BA:  MOVF   x82,W
0E7BC:  SUBLW  02
0E7BE:  BTFSS  FD8.2
0E7C0:  BRA    E904
....................          printf("Config.t2c.txt=\"Tciclo\""); 
0E7C2:  MOVLW  00
0E7C4:  MOVWF  FF6
0E7C6:  MOVLW  1F
0E7C8:  MOVWF  FF7
0E7CA:  MOVLW  00
0E7CC:  MOVWF  FF8
0E7CE:  MOVLB  0
0E7D0:  CALL   41BC
....................          SendDataDisplay();       
0E7D4:  CALL   41EE
....................          printf("t3c.txt=\"%2.0f\"",Tciclo); 
0E7D8:  MOVLW  18
0E7DA:  MOVWF  FF6
0E7DC:  MOVLW  1F
0E7DE:  MOVWF  FF7
0E7E0:  MOVLW  00
0E7E2:  MOVWF  FF8
0E7E4:  MOVLW  09
0E7E6:  MOVLB  6
0E7E8:  MOVWF  xCF
0E7EA:  MOVLB  0
0E7EC:  CALL   5C56
0E7F0:  MOVLW  01
0E7F2:  MOVWF  FE9
0E7F4:  MOVFF  20A,6D2
0E7F8:  MOVFF  209,6D1
0E7FC:  MOVFF  208,6D0
0E800:  MOVFF  207,6CF
0E804:  MOVLB  6
0E806:  CLRF   xD3
0E808:  MOVLB  0
0E80A:  CALL   5F3E
0E80E:  MOVLW  22
0E810:  BTFSS  F9E.4
0E812:  BRA    E810
0E814:  MOVWF  FAD
....................          SendDataDisplay(); 
0E816:  CALL   41EE
....................          if(RX_Buffer[4]==0x0a){//Tecla Arriba Oprimida 
0E81A:  MOVF   35,W
0E81C:  SUBLW  0A
0E81E:  BNZ   E858
....................                Tciclo+=1.0; 
0E820:  BCF    FD8.1
0E822:  MOVFF  20A,6DF
0E826:  MOVFF  209,6DE
0E82A:  MOVFF  208,6DD
0E82E:  MOVFF  207,6DC
0E832:  MOVLB  6
0E834:  CLRF   xE3
0E836:  CLRF   xE2
0E838:  CLRF   xE1
0E83A:  MOVLW  7F
0E83C:  MOVWF  xE0
0E83E:  MOVLB  0
0E840:  CALL   22C8
0E844:  MOVFF  03,20A
0E848:  MOVFF  02,209
0E84C:  MOVFF  01,208
0E850:  MOVFF  00,207
....................                RX_Buffer[4]=0x00;   
0E854:  CLRF   35
....................                RX_Buffer2[4]=0x00;             
0E856:  CLRF   40
....................                //BorraBuffer(); 
....................          } 
....................              
....................          if(RX_Buffer[4]==0x0b){//Tecla Abajo Oprimida             
0E858:  MOVF   35,W
0E85A:  SUBLW  0B
0E85C:  BNZ   E896
....................                Tciclo-=1.0; 
0E85E:  BSF    FD8.1
0E860:  MOVFF  20A,6DF
0E864:  MOVFF  209,6DE
0E868:  MOVFF  208,6DD
0E86C:  MOVFF  207,6DC
0E870:  MOVLB  6
0E872:  CLRF   xE3
0E874:  CLRF   xE2
0E876:  CLRF   xE1
0E878:  MOVLW  7F
0E87A:  MOVWF  xE0
0E87C:  MOVLB  0
0E87E:  CALL   22C8
0E882:  MOVFF  03,20A
0E886:  MOVFF  02,209
0E88A:  MOVFF  01,208
0E88E:  MOVFF  00,207
....................                RX_Buffer[4]=0x00; 
0E892:  CLRF   35
....................                RX_Buffer2[4]=0x00;             
0E894:  CLRF   40
....................                //BorraBuffer(); 
....................          } 
....................           
....................          if(Tciclo>20) 
0E896:  MOVLB  6
0E898:  CLRF   xD1
0E89A:  CLRF   xD0
0E89C:  MOVLW  20
0E89E:  MOVWF  xCF
0E8A0:  MOVLW  83
0E8A2:  MOVWF  xCE
0E8A4:  MOVFF  20A,6D5
0E8A8:  MOVFF  209,6D4
0E8AC:  MOVFF  208,6D3
0E8B0:  MOVFF  207,6D2
0E8B4:  MOVLB  0
0E8B6:  CALL   279E
0E8BA:  BNC   E8CA
....................             Tciclo=5; 
0E8BC:  MOVLB  2
0E8BE:  CLRF   x0A
0E8C0:  CLRF   x09
0E8C2:  MOVLW  20
0E8C4:  MOVWF  x08
0E8C6:  MOVLW  81
0E8C8:  MOVWF  x07
....................          if(Tciclo<5) 
0E8CA:  MOVFF  20A,6D1
0E8CE:  MOVFF  209,6D0
0E8D2:  MOVFF  208,6CF
0E8D6:  MOVFF  207,6CE
0E8DA:  MOVLB  6
0E8DC:  CLRF   xD5
0E8DE:  CLRF   xD4
0E8E0:  MOVLW  20
0E8E2:  MOVWF  xD3
0E8E4:  MOVLW  81
0E8E6:  MOVWF  xD2
0E8E8:  MOVLB  0
0E8EA:  CALL   279E
0E8EE:  BNC   E900
....................             Tciclo=20; 
0E8F0:  MOVLB  2
0E8F2:  CLRF   x0A
0E8F4:  CLRF   x09
0E8F6:  MOVLW  20
0E8F8:  MOVWF  x08
0E8FA:  MOVLW  83
0E8FC:  MOVWF  x07
0E8FE:  MOVLB  0
....................       }else if(Opcion2==3){ 
0E900:  BRA    EF30
0E902:  MOVLB  2
0E904:  MOVF   x82,W
0E906:  SUBLW  03
0E908:  BNZ   E982
....................          printf("Config.t2c.txt=\"Ajuste +\""); 
0E90A:  MOVLW  28
0E90C:  MOVWF  FF6
0E90E:  MOVLW  1F
0E910:  MOVWF  FF7
0E912:  MOVLW  00
0E914:  MOVWF  FF8
0E916:  MOVLB  0
0E918:  CALL   41BC
....................          SendDataDisplay();       
0E91C:  CALL   41EE
....................          printf("t3c.txt=\"%u\"",Sensor[0].Ajuste); 
0E920:  MOVLW  42
0E922:  MOVWF  FF6
0E924:  MOVLW  1F
0E926:  MOVWF  FF7
0E928:  MOVLW  00
0E92A:  MOVWF  FF8
0E92C:  MOVLW  09
0E92E:  MOVLB  6
0E930:  MOVWF  xCF
0E932:  MOVLB  0
0E934:  CALL   5C56
0E938:  MOVFF  358,6CF
0E93C:  MOVLW  1B
0E93E:  MOVLB  6
0E940:  MOVWF  xD0
0E942:  MOVLB  0
0E944:  CALL   5CDA
0E948:  MOVLW  22
0E94A:  BTFSS  F9E.4
0E94C:  BRA    E94A
0E94E:  MOVWF  FAD
....................          SendDataDisplay(); 
0E950:  CALL   41EE
....................          if(RX_Buffer[4]==0x0a){//Tecla Arriba Oprimida             
0E954:  MOVF   35,W
0E956:  SUBLW  0A
0E958:  BNZ   E96A
....................                if(Sensor[0].Ajuste<40) 
0E95A:  MOVLB  3
0E95C:  MOVF   x58,W
0E95E:  SUBLW  27
0E960:  BNC   E964
....................                   Sensor[0].Ajuste++; 
0E962:  INCF   x58,F
....................                RX_Buffer[4]=0x00;   
0E964:  CLRF   35
....................                RX_Buffer2[4]=0x00;             
0E966:  CLRF   40
0E968:  MOVLB  0
....................                //BorraBuffer();             
....................          } 
....................              
....................          if(RX_Buffer[4]==0x0b){//Tecla Abajo Oprimida             
0E96A:  MOVF   35,W
0E96C:  SUBLW  0B
0E96E:  BNZ   E97E
....................                if(Sensor[0].Ajuste>0) 
0E970:  MOVLB  3
0E972:  MOVF   x58,F
0E974:  BZ    E978
....................                   Sensor[0].Ajuste--; 
0E976:  DECF   x58,F
....................                RX_Buffer[4]=0x00; 
0E978:  CLRF   35
....................                RX_Buffer2[4]=0x00;             
0E97A:  CLRF   40
0E97C:  MOVLB  0
....................                //BorraBuffer(); 
....................          } 
....................       }else if(Opcion2==4){ 
0E97E:  BRA    EF30
0E980:  MOVLB  2
0E982:  MOVF   x82,W
0E984:  SUBLW  04
0E986:  BNZ   EA00
....................          printf("Config.t2c.txt=\"Ajuste -\""); 
0E988:  MOVLW  50
0E98A:  MOVWF  FF6
0E98C:  MOVLW  1F
0E98E:  MOVWF  FF7
0E990:  MOVLW  00
0E992:  MOVWF  FF8
0E994:  MOVLB  0
0E996:  CALL   41BC
....................          SendDataDisplay();       
0E99A:  CALL   41EE
....................          printf("t3c.txt=\"%u\"",Sensor[0].Ajusten); 
0E99E:  MOVLW  6A
0E9A0:  MOVWF  FF6
0E9A2:  MOVLW  1F
0E9A4:  MOVWF  FF7
0E9A6:  MOVLW  00
0E9A8:  MOVWF  FF8
0E9AA:  MOVLW  09
0E9AC:  MOVLB  6
0E9AE:  MOVWF  xCF
0E9B0:  MOVLB  0
0E9B2:  CALL   5C56
0E9B6:  MOVFF  359,6CF
0E9BA:  MOVLW  1B
0E9BC:  MOVLB  6
0E9BE:  MOVWF  xD0
0E9C0:  MOVLB  0
0E9C2:  CALL   5CDA
0E9C6:  MOVLW  22
0E9C8:  BTFSS  F9E.4
0E9CA:  BRA    E9C8
0E9CC:  MOVWF  FAD
....................          SendDataDisplay(); 
0E9CE:  CALL   41EE
....................          if(RX_Buffer[4]==0x0a){//Tecla Arriba Oprimida             
0E9D2:  MOVF   35,W
0E9D4:  SUBLW  0A
0E9D6:  BNZ   E9E8
....................                if(Sensor[0].Ajusten<40) 
0E9D8:  MOVLB  3
0E9DA:  MOVF   x59,W
0E9DC:  SUBLW  27
0E9DE:  BNC   E9E2
....................                   Sensor[0].Ajusten++; 
0E9E0:  INCF   x59,F
....................                RX_Buffer[4]=0x00;   
0E9E2:  CLRF   35
....................                RX_Buffer2[4]=0x00;             
0E9E4:  CLRF   40
0E9E6:  MOVLB  0
....................                //BorraBuffer();             
....................          } 
....................              
....................          if(RX_Buffer[4]==0x0b){//Tecla Abajo Oprimida             
0E9E8:  MOVF   35,W
0E9EA:  SUBLW  0B
0E9EC:  BNZ   E9FC
....................                if(Sensor[0].Ajusten>0) 
0E9EE:  MOVLB  3
0E9F0:  MOVF   x59,F
0E9F2:  BZ    E9F6
....................                   Sensor[0].Ajusten--; 
0E9F4:  DECF   x59,F
....................                RX_Buffer[4]=0x00; 
0E9F6:  CLRF   35
....................                RX_Buffer2[4]=0x00;             
0E9F8:  CLRF   40
0E9FA:  MOVLB  0
....................                //BorraBuffer(); 
....................          } 
....................       }else if(Opcion2==5){ 
0E9FC:  BRA    EF30
0E9FE:  MOVLB  2
0EA00:  MOVF   x82,W
0EA02:  SUBLW  05
0EA04:  BNZ   EA7E
....................          printf("Config.t2c.txt=\"Ajuste2 +\""); 
0EA06:  MOVLW  78
0EA08:  MOVWF  FF6
0EA0A:  MOVLW  1F
0EA0C:  MOVWF  FF7
0EA0E:  MOVLW  00
0EA10:  MOVWF  FF8
0EA12:  MOVLB  0
0EA14:  CALL   41BC
....................          SendDataDisplay();       
0EA18:  CALL   41EE
....................          printf("t3c.txt=\"%u\"",Sensor[1].Ajuste); 
0EA1C:  MOVLW  94
0EA1E:  MOVWF  FF6
0EA20:  MOVLW  1F
0EA22:  MOVWF  FF7
0EA24:  MOVLW  00
0EA26:  MOVWF  FF8
0EA28:  MOVLW  09
0EA2A:  MOVLB  6
0EA2C:  MOVWF  xCF
0EA2E:  MOVLB  0
0EA30:  CALL   5C56
0EA34:  MOVFF  4BC,6CF
0EA38:  MOVLW  1B
0EA3A:  MOVLB  6
0EA3C:  MOVWF  xD0
0EA3E:  MOVLB  0
0EA40:  CALL   5CDA
0EA44:  MOVLW  22
0EA46:  BTFSS  F9E.4
0EA48:  BRA    EA46
0EA4A:  MOVWF  FAD
....................          SendDataDisplay(); 
0EA4C:  CALL   41EE
....................          if(RX_Buffer[4]==0x0a){//Tecla Arriba Oprimida 
0EA50:  MOVF   35,W
0EA52:  SUBLW  0A
0EA54:  BNZ   EA66
....................                if(Sensor[1].Ajuste<40) 
0EA56:  MOVLB  4
0EA58:  MOVF   xBC,W
0EA5A:  SUBLW  27
0EA5C:  BNC   EA60
....................                   Sensor[1].Ajuste++; 
0EA5E:  INCF   xBC,F
....................                RX_Buffer[4]=0x00;   
0EA60:  CLRF   35
....................                RX_Buffer2[4]=0x00;             
0EA62:  CLRF   40
0EA64:  MOVLB  0
....................                //BorraBuffer(); 
....................          } 
....................              
....................          if(RX_Buffer[4]==0x0b){//Tecla Abajo Oprimida 
0EA66:  MOVF   35,W
0EA68:  SUBLW  0B
0EA6A:  BNZ   EA7A
....................                if(Sensor[1].Ajuste>0) 
0EA6C:  MOVLB  4
0EA6E:  MOVF   xBC,F
0EA70:  BZ    EA74
....................                   Sensor[1].Ajuste--; 
0EA72:  DECF   xBC,F
....................                RX_Buffer[4]=0x00; 
0EA74:  CLRF   35
....................                RX_Buffer2[4]=0x00;             
0EA76:  CLRF   40
0EA78:  MOVLB  0
....................                //BorraBuffer();             
....................          } 
....................       }else if(Opcion2==6){ 
0EA7A:  BRA    EF30
0EA7C:  MOVLB  2
0EA7E:  MOVF   x82,W
0EA80:  SUBLW  06
0EA82:  BNZ   EAFC
....................          printf("Config.t2c.txt=\"Ajuste2 -\""); 
0EA84:  MOVLW  A2
0EA86:  MOVWF  FF6
0EA88:  MOVLW  1F
0EA8A:  MOVWF  FF7
0EA8C:  MOVLW  00
0EA8E:  MOVWF  FF8
0EA90:  MOVLB  0
0EA92:  CALL   41BC
....................          SendDataDisplay();       
0EA96:  CALL   41EE
....................          printf("t3c.txt=\"%u\"",Sensor[1].Ajusten); 
0EA9A:  MOVLW  BE
0EA9C:  MOVWF  FF6
0EA9E:  MOVLW  1F
0EAA0:  MOVWF  FF7
0EAA2:  MOVLW  00
0EAA4:  MOVWF  FF8
0EAA6:  MOVLW  09
0EAA8:  MOVLB  6
0EAAA:  MOVWF  xCF
0EAAC:  MOVLB  0
0EAAE:  CALL   5C56
0EAB2:  MOVFF  4BD,6CF
0EAB6:  MOVLW  1B
0EAB8:  MOVLB  6
0EABA:  MOVWF  xD0
0EABC:  MOVLB  0
0EABE:  CALL   5CDA
0EAC2:  MOVLW  22
0EAC4:  BTFSS  F9E.4
0EAC6:  BRA    EAC4
0EAC8:  MOVWF  FAD
....................          SendDataDisplay(); 
0EACA:  CALL   41EE
....................          if(RX_Buffer[4]==0x0a){//Tecla Arriba Oprimida             
0EACE:  MOVF   35,W
0EAD0:  SUBLW  0A
0EAD2:  BNZ   EAE4
....................                if(Sensor[1].Ajusten<40) 
0EAD4:  MOVLB  4
0EAD6:  MOVF   xBD,W
0EAD8:  SUBLW  27
0EADA:  BNC   EADE
....................                   Sensor[1].Ajusten++; 
0EADC:  INCF   xBD,F
....................                RX_Buffer[4]=0x00;   
0EADE:  CLRF   35
....................                RX_Buffer2[4]=0x00;             
0EAE0:  CLRF   40
0EAE2:  MOVLB  0
....................                //BorraBuffer(); 
....................          } 
....................              
....................          if(RX_Buffer[4]==0x0b){//Tecla Abajo Oprimida             
0EAE4:  MOVF   35,W
0EAE6:  SUBLW  0B
0EAE8:  BNZ   EAF8
....................                if(Sensor[1].Ajusten>0) 
0EAEA:  MOVLB  4
0EAEC:  MOVF   xBD,F
0EAEE:  BZ    EAF2
....................                   Sensor[1].Ajusten--; 
0EAF0:  DECF   xBD,F
....................                RX_Buffer[4]=0x00; 
0EAF2:  CLRF   35
....................                RX_Buffer2[4]=0x00;             
0EAF4:  CLRF   40
0EAF6:  MOVLB  0
....................                //BorraBuffer(); 
....................          } 
....................       }else if(Opcion2==7){ 
0EAF8:  BRA    EF30
0EAFA:  MOVLB  2
0EAFC:  MOVF   x82,W
0EAFE:  SUBLW  07
0EB00:  BNZ   EB7C
....................          printf("Config.t2c.txt=\"Media\""); 
0EB02:  MOVLW  CC
0EB04:  MOVWF  FF6
0EB06:  MOVLW  1F
0EB08:  MOVWF  FF7
0EB0A:  MOVLW  00
0EB0C:  MOVWF  FF8
0EB0E:  MOVLB  0
0EB10:  CALL   41BC
....................          SendDataDisplay();       
0EB14:  CALL   41EE
....................          printf("t3c.txt=\"%u\"",MediaMovil); 
0EB18:  MOVLW  E4
0EB1A:  MOVWF  FF6
0EB1C:  MOVLW  1F
0EB1E:  MOVWF  FF7
0EB20:  MOVLW  00
0EB22:  MOVWF  FF8
0EB24:  MOVLW  09
0EB26:  MOVLB  6
0EB28:  MOVWF  xCF
0EB2A:  MOVLB  0
0EB2C:  CALL   5C56
0EB30:  MOVFF  1F7,6CF
0EB34:  MOVLW  1B
0EB36:  MOVLB  6
0EB38:  MOVWF  xD0
0EB3A:  MOVLB  0
0EB3C:  CALL   5CDA
0EB40:  MOVLW  22
0EB42:  BTFSS  F9E.4
0EB44:  BRA    EB42
0EB46:  MOVWF  FAD
....................          SendDataDisplay(); 
0EB48:  CALL   41EE
....................          if(RX_Buffer[4]==0x0a){//Tecla Arriba Oprimida 
0EB4C:  MOVF   35,W
0EB4E:  SUBLW  0A
0EB50:  BNZ   EB62
....................                if(MediaMovil<80) 
0EB52:  MOVLB  1
0EB54:  MOVF   xF7,W
0EB56:  SUBLW  4F
0EB58:  BNC   EB5C
....................                   MediaMovil++; 
0EB5A:  INCF   xF7,F
....................                RX_Buffer[4]=0x00;   
0EB5C:  CLRF   35
....................                RX_Buffer2[4]=0x00;             
0EB5E:  CLRF   40
0EB60:  MOVLB  0
....................                //BorraBuffer(); 
....................          } 
....................              
....................          if(RX_Buffer[4]==0x0b){//Tecla Abajo Oprimida 
0EB62:  MOVF   35,W
0EB64:  SUBLW  0B
0EB66:  BNZ   EB78
....................                if(MediaMovil>10) 
0EB68:  MOVLB  1
0EB6A:  MOVF   xF7,W
0EB6C:  SUBLW  0A
0EB6E:  BC    EB72
....................                   MediaMovil--; 
0EB70:  DECF   xF7,F
....................                RX_Buffer[4]=0x00; 
0EB72:  CLRF   35
....................                RX_Buffer2[4]=0x00;             
0EB74:  CLRF   40
0EB76:  MOVLB  0
....................                //BorraBuffer();             
....................          } 
....................       }else if(Opcion2==8){ 
0EB78:  BRA    EF30
0EB7A:  MOVLB  2
0EB7C:  MOVF   x82,W
0EB7E:  SUBLW  08
0EB80:  BTFSS  FD8.2
0EB82:  BRA    ECAE
....................          printf("Config.t2c.txt=\"RPT100B\""); 
0EB84:  MOVLW  F2
0EB86:  MOVWF  FF6
0EB88:  MOVLW  1F
0EB8A:  MOVWF  FF7
0EB8C:  MOVLW  00
0EB8E:  MOVWF  FF8
0EB90:  MOVLB  0
0EB92:  CALL   41BC
....................          SendDataDisplay();       
0EB96:  CALL   41EE
....................          printf("t3c.txt=\"%2.1f\"",Sensor[0].RPT100); 
0EB9A:  MOVLW  0C
0EB9C:  MOVWF  FF6
0EB9E:  MOVLW  20
0EBA0:  MOVWF  FF7
0EBA2:  MOVLW  00
0EBA4:  MOVWF  FF8
0EBA6:  MOVLW  09
0EBA8:  MOVLB  6
0EBAA:  MOVWF  xCF
0EBAC:  MOVLB  0
0EBAE:  CALL   5C56
0EBB2:  MOVLW  01
0EBB4:  MOVWF  FE9
0EBB6:  MOVFF  34D,6D2
0EBBA:  MOVFF  34C,6D1
0EBBE:  MOVFF  34B,6D0
0EBC2:  MOVFF  34A,6CF
0EBC6:  MOVLB  6
0EBC8:  MOVWF  xD3
0EBCA:  MOVLB  0
0EBCC:  CALL   5F3E
0EBD0:  MOVLW  22
0EBD2:  BTFSS  F9E.4
0EBD4:  BRA    EBD2
0EBD6:  MOVWF  FAD
....................          SendDataDisplay(); 
0EBD8:  CALL   41EE
....................          if(RX_Buffer[4]==0x0a){//Tecla Arriba Oprimida             
0EBDC:  MOVF   35,W
0EBDE:  SUBLW  0A
0EBE0:  BNZ   EC44
....................                if(Sensor[0].RPT100<2.0) 
0EBE2:  MOVFF  34D,6D1
0EBE6:  MOVFF  34C,6D0
0EBEA:  MOVFF  34B,6CF
0EBEE:  MOVFF  34A,6CE
0EBF2:  MOVLB  6
0EBF4:  CLRF   xD5
0EBF6:  CLRF   xD4
0EBF8:  CLRF   xD3
0EBFA:  MOVLW  80
0EBFC:  MOVWF  xD2
0EBFE:  MOVLB  0
0EC00:  CALL   279E
0EC04:  BNC   EC40
....................                   Sensor[0].RPT100+=0.1; 
0EC06:  BCF    FD8.1
0EC08:  MOVFF  34D,6DF
0EC0C:  MOVFF  34C,6DE
0EC10:  MOVFF  34B,6DD
0EC14:  MOVFF  34A,6DC
0EC18:  MOVLW  CD
0EC1A:  MOVLB  6
0EC1C:  MOVWF  xE3
0EC1E:  MOVLW  CC
0EC20:  MOVWF  xE2
0EC22:  MOVLW  4C
0EC24:  MOVWF  xE1
0EC26:  MOVLW  7B
0EC28:  MOVWF  xE0
0EC2A:  MOVLB  0
0EC2C:  CALL   22C8
0EC30:  MOVFF  03,34D
0EC34:  MOVFF  02,34C
0EC38:  MOVFF  01,34B
0EC3C:  MOVFF  00,34A
....................                RX_Buffer[4]=0x00;   
0EC40:  CLRF   35
....................                RX_Buffer2[4]=0x00;             
0EC42:  CLRF   40
....................                //BorraBuffer(); 
....................          } 
....................              
....................          if(RX_Buffer[4]==0x0b){//Tecla Abajo Oprimida 
0EC44:  MOVF   35,W
0EC46:  SUBLW  0B
0EC48:  BNZ   ECAA
....................                if(Sensor[0].RPT100>0.0) 
0EC4A:  MOVLB  6
0EC4C:  CLRF   xD1
0EC4E:  CLRF   xD0
0EC50:  CLRF   xCF
0EC52:  CLRF   xCE
0EC54:  MOVFF  34D,6D5
0EC58:  MOVFF  34C,6D4
0EC5C:  MOVFF  34B,6D3
0EC60:  MOVFF  34A,6D2
0EC64:  MOVLB  0
0EC66:  CALL   279E
0EC6A:  BNC   ECA6
....................                   Sensor[0].RPT100-=0.1; 
0EC6C:  BSF    FD8.1
0EC6E:  MOVFF  34D,6DF
0EC72:  MOVFF  34C,6DE
0EC76:  MOVFF  34B,6DD
0EC7A:  MOVFF  34A,6DC
0EC7E:  MOVLW  CD
0EC80:  MOVLB  6
0EC82:  MOVWF  xE3
0EC84:  MOVLW  CC
0EC86:  MOVWF  xE2
0EC88:  MOVLW  4C
0EC8A:  MOVWF  xE1
0EC8C:  MOVLW  7B
0EC8E:  MOVWF  xE0
0EC90:  MOVLB  0
0EC92:  CALL   22C8
0EC96:  MOVFF  03,34D
0EC9A:  MOVFF  02,34C
0EC9E:  MOVFF  01,34B
0ECA2:  MOVFF  00,34A
....................                RX_Buffer[4]=0x00; 
0ECA6:  CLRF   35
....................                RX_Buffer2[4]=0x00;             
0ECA8:  CLRF   40
....................                //BorraBuffer(); 
....................          } 
....................       }else if(Opcion2==9){ 
0ECAA:  BRA    EF30
0ECAC:  MOVLB  2
0ECAE:  MOVF   x82,W
0ECB0:  SUBLW  09
0ECB2:  BTFSS  FD8.2
0ECB4:  BRA    EDE0
....................          printf("Config.t2c.txt=\"RPT100B 2\""); 
0ECB6:  MOVLW  1C
0ECB8:  MOVWF  FF6
0ECBA:  MOVLW  20
0ECBC:  MOVWF  FF7
0ECBE:  MOVLW  00
0ECC0:  MOVWF  FF8
0ECC2:  MOVLB  0
0ECC4:  CALL   41BC
....................          SendDataDisplay();       
0ECC8:  CALL   41EE
....................          printf("t3c.txt=\"%2.1f\"",Sensor[1].RPT100); 
0ECCC:  MOVLW  38
0ECCE:  MOVWF  FF6
0ECD0:  MOVLW  20
0ECD2:  MOVWF  FF7
0ECD4:  MOVLW  00
0ECD6:  MOVWF  FF8
0ECD8:  MOVLW  09
0ECDA:  MOVLB  6
0ECDC:  MOVWF  xCF
0ECDE:  MOVLB  0
0ECE0:  CALL   5C56
0ECE4:  MOVLW  01
0ECE6:  MOVWF  FE9
0ECE8:  MOVFF  4B1,6D2
0ECEC:  MOVFF  4B0,6D1
0ECF0:  MOVFF  4AF,6D0
0ECF4:  MOVFF  4AE,6CF
0ECF8:  MOVLB  6
0ECFA:  MOVWF  xD3
0ECFC:  MOVLB  0
0ECFE:  CALL   5F3E
0ED02:  MOVLW  22
0ED04:  BTFSS  F9E.4
0ED06:  BRA    ED04
0ED08:  MOVWF  FAD
....................          SendDataDisplay(); 
0ED0A:  CALL   41EE
....................          if(RX_Buffer[4]==0x0a){//Tecla Arriba Oprimida 
0ED0E:  MOVF   35,W
0ED10:  SUBLW  0A
0ED12:  BNZ   ED76
....................                if(Sensor[1].RPT100<2.0) 
0ED14:  MOVFF  4B1,6D1
0ED18:  MOVFF  4B0,6D0
0ED1C:  MOVFF  4AF,6CF
0ED20:  MOVFF  4AE,6CE
0ED24:  MOVLB  6
0ED26:  CLRF   xD5
0ED28:  CLRF   xD4
0ED2A:  CLRF   xD3
0ED2C:  MOVLW  80
0ED2E:  MOVWF  xD2
0ED30:  MOVLB  0
0ED32:  CALL   279E
0ED36:  BNC   ED72
....................                   Sensor[1].RPT100+=0.1; 
0ED38:  BCF    FD8.1
0ED3A:  MOVFF  4B1,6DF
0ED3E:  MOVFF  4B0,6DE
0ED42:  MOVFF  4AF,6DD
0ED46:  MOVFF  4AE,6DC
0ED4A:  MOVLW  CD
0ED4C:  MOVLB  6
0ED4E:  MOVWF  xE3
0ED50:  MOVLW  CC
0ED52:  MOVWF  xE2
0ED54:  MOVLW  4C
0ED56:  MOVWF  xE1
0ED58:  MOVLW  7B
0ED5A:  MOVWF  xE0
0ED5C:  MOVLB  0
0ED5E:  CALL   22C8
0ED62:  MOVFF  03,4B1
0ED66:  MOVFF  02,4B0
0ED6A:  MOVFF  01,4AF
0ED6E:  MOVFF  00,4AE
....................                RX_Buffer[4]=0x00;   
0ED72:  CLRF   35
....................                RX_Buffer2[4]=0x00;             
0ED74:  CLRF   40
....................                //BorraBuffer(); 
....................          } 
....................              
....................          if(RX_Buffer[4]==0x0b){//Tecla Abajo Oprimida 
0ED76:  MOVF   35,W
0ED78:  SUBLW  0B
0ED7A:  BNZ   EDDC
....................                if(Sensor[1].RPT100>0.0) 
0ED7C:  MOVLB  6
0ED7E:  CLRF   xD1
0ED80:  CLRF   xD0
0ED82:  CLRF   xCF
0ED84:  CLRF   xCE
0ED86:  MOVFF  4B1,6D5
0ED8A:  MOVFF  4B0,6D4
0ED8E:  MOVFF  4AF,6D3
0ED92:  MOVFF  4AE,6D2
0ED96:  MOVLB  0
0ED98:  CALL   279E
0ED9C:  BNC   EDD8
....................                   Sensor[1].RPT100-=0.1; 
0ED9E:  BSF    FD8.1
0EDA0:  MOVFF  4B1,6DF
0EDA4:  MOVFF  4B0,6DE
0EDA8:  MOVFF  4AF,6DD
0EDAC:  MOVFF  4AE,6DC
0EDB0:  MOVLW  CD
0EDB2:  MOVLB  6
0EDB4:  MOVWF  xE3
0EDB6:  MOVLW  CC
0EDB8:  MOVWF  xE2
0EDBA:  MOVLW  4C
0EDBC:  MOVWF  xE1
0EDBE:  MOVLW  7B
0EDC0:  MOVWF  xE0
0EDC2:  MOVLB  0
0EDC4:  CALL   22C8
0EDC8:  MOVFF  03,4B1
0EDCC:  MOVFF  02,4B0
0EDD0:  MOVFF  01,4AF
0EDD4:  MOVFF  00,4AE
....................                RX_Buffer[4]=0x00; 
0EDD8:  CLRF   35
....................                RX_Buffer2[4]=0x00;             
0EDDA:  CLRF   40
....................                //BorraBuffer(); 
....................          } 
....................       }else if(Opcion2==10){ 
0EDDC:  BRA    EF30
0EDDE:  MOVLB  2
0EDE0:  MOVF   x82,W
0EDE2:  SUBLW  0A
0EDE4:  BNZ   EE34
....................          printf("Config.t2c.txt=\"Ciclos\""); 
0EDE6:  MOVLW  48
0EDE8:  MOVWF  FF6
0EDEA:  MOVLW  20
0EDEC:  MOVWF  FF7
0EDEE:  MOVLW  00
0EDF0:  MOVWF  FF8
0EDF2:  MOVLB  0
0EDF4:  CALL   41BC
....................          SendDataDisplay();       
0EDF8:  CALL   41EE
....................          printf("t3c.txt=\"%03Lu\"",Ciclos); 
0EDFC:  MOVLW  60
0EDFE:  MOVWF  FF6
0EE00:  MOVLW  20
0EE02:  MOVWF  FF7
0EE04:  MOVLW  00
0EE06:  MOVWF  FF8
0EE08:  MOVLW  09
0EE0A:  MOVLB  6
0EE0C:  MOVWF  xCF
0EE0E:  MOVLB  0
0EE10:  CALL   5C56
0EE14:  MOVLW  0A
0EE16:  MOVWF  FE9
0EE18:  MOVFF  296,6CF
0EE1C:  MOVFF  295,6CE
0EE20:  CALL   5DD0
0EE24:  MOVLW  22
0EE26:  BTFSS  F9E.4
0EE28:  BRA    EE26
0EE2A:  MOVWF  FAD
....................          SendDataDisplay(); 
0EE2C:  CALL   41EE
....................       }else if(Opcion2==11){ 
0EE30:  BRA    EF30
0EE32:  MOVLB  2
0EE34:  MOVF   x82,W
0EE36:  SUBLW  0B
0EE38:  BNZ   EEB4
....................          printf("Config.t2c.txt=\"Atmosferica\""); 
0EE3A:  MOVLW  70
0EE3C:  MOVWF  FF6
0EE3E:  MOVLW  20
0EE40:  MOVWF  FF7
0EE42:  MOVLW  00
0EE44:  MOVWF  FF8
0EE46:  MOVLB  0
0EE48:  CALL   41BC
....................          SendDataDisplay();       
0EE4C:  CALL   41EE
....................          printf("t3c.txt=\"%03u\"",Atmosferica); 
0EE50:  MOVLW  8E
0EE52:  MOVWF  FF6
0EE54:  MOVLW  20
0EE56:  MOVWF  FF7
0EE58:  MOVLW  00
0EE5A:  MOVWF  FF8
0EE5C:  MOVLW  09
0EE5E:  MOVLB  6
0EE60:  MOVWF  xCF
0EE62:  MOVLB  0
0EE64:  CALL   5C56
0EE68:  MOVFF  2BD,6CF
0EE6C:  MOVLW  03
0EE6E:  MOVLB  6
0EE70:  MOVWF  xD0
0EE72:  MOVLB  0
0EE74:  CALL   5CDA
0EE78:  MOVLW  22
0EE7A:  BTFSS  F9E.4
0EE7C:  BRA    EE7A
0EE7E:  MOVWF  FAD
....................          SendDataDisplay(); 
0EE80:  CALL   41EE
....................          if(RX_Buffer[4]==0x0a){//Tecla Arriba Oprimida 
0EE84:  MOVF   35,W
0EE86:  SUBLW  0A
0EE88:  BNZ   EE9A
....................                if(Atmosferica<100) 
0EE8A:  MOVLB  2
0EE8C:  MOVF   xBD,W
0EE8E:  SUBLW  63
0EE90:  BNC   EE94
....................                   ++Atmosferica; 
0EE92:  INCF   xBD,F
....................                RX_Buffer[4]=0x00;   
0EE94:  CLRF   35
....................                RX_Buffer2[4]=0x00;             
0EE96:  CLRF   40
0EE98:  MOVLB  0
....................                //BorraBuffer(); 
....................          } 
....................              
....................          if(RX_Buffer[4]==0x0b){//Tecla Abajo Oprimida 
0EE9A:  MOVF   35,W
0EE9C:  SUBLW  0B
0EE9E:  BNZ   EEB0
....................                if(Atmosferica>50) 
0EEA0:  MOVLB  2
0EEA2:  MOVF   xBD,W
0EEA4:  SUBLW  32
0EEA6:  BC    EEAA
....................                   --Atmosferica; 
0EEA8:  DECF   xBD,F
....................                RX_Buffer[4]=0x00; 
0EEAA:  CLRF   35
....................                RX_Buffer2[4]=0x00;             
0EEAC:  CLRF   40
0EEAE:  MOVLB  0
....................                //BorraBuffer(); 
....................          } 
....................       }else if(Opcion2==12){ 
0EEB0:  BRA    EF30
0EEB2:  MOVLB  2
0EEB4:  MOVF   x82,W
0EEB6:  SUBLW  0C
0EEB8:  BNZ   EF2E
....................          printf("Config.t2c.txt=\"T. Apertura\""); 
0EEBA:  MOVLW  9E
0EEBC:  MOVWF  FF6
0EEBE:  MOVLW  20
0EEC0:  MOVWF  FF7
0EEC2:  MOVLW  00
0EEC4:  MOVWF  FF8
0EEC6:  MOVLB  0
0EEC8:  CALL   41BC
....................          SendDataDisplay();       
0EECC:  CALL   41EE
....................          printf("t3c.txt=\"%03u\"",Tapertura); 
0EED0:  MOVLW  BC
0EED2:  MOVWF  FF6
0EED4:  MOVLW  20
0EED6:  MOVWF  FF7
0EED8:  MOVLW  00
0EEDA:  MOVWF  FF8
0EEDC:  MOVLW  09
0EEDE:  MOVLB  6
0EEE0:  MOVWF  xCF
0EEE2:  MOVLB  0
0EEE4:  CALL   5C56
0EEE8:  MOVFF  277,6CF
0EEEC:  MOVLW  03
0EEEE:  MOVLB  6
0EEF0:  MOVWF  xD0
0EEF2:  MOVLB  0
0EEF4:  CALL   5CDA
0EEF8:  MOVLW  22
0EEFA:  BTFSS  F9E.4
0EEFC:  BRA    EEFA
0EEFE:  MOVWF  FAD
....................          SendDataDisplay(); 
0EF00:  CALL   41EE
....................          if(RX_Buffer[4]==0x0a){//Tecla Arriba Oprimida 
0EF04:  MOVF   35,W
0EF06:  SUBLW  0A
0EF08:  BNZ   EF1A
....................                if(Tapertura<100) 
0EF0A:  MOVLB  2
0EF0C:  MOVF   x77,W
0EF0E:  SUBLW  63
0EF10:  BNC   EF14
....................                   ++Tapertura; 
0EF12:  INCF   x77,F
....................                RX_Buffer[4]=0x00;   
0EF14:  CLRF   35
....................                RX_Buffer2[4]=0x00;             
0EF16:  CLRF   40
0EF18:  MOVLB  0
....................                //BorraBuffer(); 
....................          } 
....................              
....................          if(RX_Buffer[4]==0x0b){//Tecla Abajo Oprimida 
0EF1A:  MOVF   35,W
0EF1C:  SUBLW  0B
0EF1E:  BNZ   EF30
....................                if(Tapertura>50) 
0EF20:  MOVLB  2
0EF22:  MOVF   x77,W
0EF24:  SUBLW  32
0EF26:  BC    EF2A
....................                   --Tapertura; 
0EF28:  DECF   x77,F
....................                RX_Buffer[4]=0x00; 
0EF2A:  CLRF   35
....................                RX_Buffer2[4]=0x00;             
0EF2C:  CLRF   40
0EF2E:  MOVLB  0
....................                //BorraBuffer();            
....................          } 
....................       } 
....................        
....................       if(RX_Buffer[4]==0x0c){//Tecla Izquierda Oprimida 
0EF30:  MOVF   35,W
0EF32:  SUBLW  0C
0EF34:  BNZ   EF40
....................             Opcion2++; 
0EF36:  MOVLB  2
0EF38:  INCF   x82,F
....................             RX_Buffer[4]=0x00;   
0EF3A:  CLRF   35
....................             RX_Buffer2[4]=0x00;             
0EF3C:  CLRF   40
0EF3E:  MOVLB  0
....................             //BorraBuffer();    
....................       } 
....................           
....................       if(RX_Buffer[4]==0x0d){//Tecla Derecha Oprimida          
0EF40:  MOVF   35,W
0EF42:  SUBLW  0D
0EF44:  BNZ   EF50
....................             Opcion2--; 
0EF46:  MOVLB  2
0EF48:  DECF   x82,F
....................             RX_Buffer[4]=0x00; 
0EF4A:  CLRF   35
....................             RX_Buffer2[4]=0x00;             
0EF4C:  CLRF   40
0EF4E:  MOVLB  0
....................             //BorraBuffer(); 
....................       } 
....................        
....................       if(RX_Buffer[4]==0x11){//Tecla Regresar 
0EF50:  MOVF   35,W
0EF52:  SUBLW  11
0EF54:  BTFSS  FD8.2
0EF56:  BRA    F428
....................          delay_ms(20); 
0EF58:  MOVLW  14
0EF5A:  MOVLB  6
0EF5C:  MOVWF  xDC
0EF5E:  MOVLB  0
0EF60:  CALL   2142
....................          if(RX_Buffer[4]==0x11){ 
0EF64:  MOVF   35,W
0EF66:  SUBLW  11
0EF68:  BTFSS  FD8.2
0EF6A:  BRA    F428
....................             if(!GuardaEEPROM){ 
0EF6C:  MOVLB  1
0EF6E:  BTFSC  x06.1
0EF70:  BRA    F412
....................                write_eeprom(20,(int8)Ganancia); 
0EF72:  MOVFF  222,6DF
0EF76:  MOVFF  221,6DE
0EF7A:  MOVFF  220,6DD
0EF7E:  MOVFF  21F,6DC
0EF82:  MOVLB  0
0EF84:  CALL   4E58
0EF88:  MOVFF  01,6CA
0EF8C:  CLRF   FAA
0EF8E:  MOVLW  14
0EF90:  MOVWF  FA9
0EF92:  MOVFF  6CA,FA8
0EF96:  BCF    FA6.6
0EF98:  BCF    FA6.7
0EF9A:  BSF    FA6.2
0EF9C:  MOVF   FF2,W
0EF9E:  MOVWF  00
0EFA0:  BCF    FF2.6
0EFA2:  BCF    FF2.7
0EFA4:  MOVLB  F
0EFA6:  MOVLW  55
0EFA8:  MOVWF  FA7
0EFAA:  MOVLW  AA
0EFAC:  MOVWF  FA7
0EFAE:  BSF    FA6.1
0EFB0:  BTFSC  FA6.1
0EFB2:  BRA    EFB0
0EFB4:  BCF    FA6.2
0EFB6:  MOVF   00,W
0EFB8:  IORWF  FF2,F
....................                delay_ms(10); 
0EFBA:  MOVLW  0A
0EFBC:  MOVLB  6
0EFBE:  MOVWF  xDC
0EFC0:  MOVLB  0
0EFC2:  CALL   2142
....................                write_eeprom(21,Sensor[0].Ajuste); 
0EFC6:  CLRF   FAA
0EFC8:  MOVLW  15
0EFCA:  MOVWF  FA9
0EFCC:  MOVFF  358,FA8
0EFD0:  BCF    FA6.6
0EFD2:  BCF    FA6.7
0EFD4:  BSF    FA6.2
0EFD6:  MOVF   FF2,W
0EFD8:  MOVWF  00
0EFDA:  BCF    FF2.6
0EFDC:  BCF    FF2.7
0EFDE:  MOVLB  F
0EFE0:  MOVLW  55
0EFE2:  MOVWF  FA7
0EFE4:  MOVLW  AA
0EFE6:  MOVWF  FA7
0EFE8:  BSF    FA6.1
0EFEA:  BTFSC  FA6.1
0EFEC:  BRA    EFEA
0EFEE:  BCF    FA6.2
0EFF0:  MOVF   00,W
0EFF2:  IORWF  FF2,F
....................                delay_ms(10); 
0EFF4:  MOVLW  0A
0EFF6:  MOVLB  6
0EFF8:  MOVWF  xDC
0EFFA:  MOVLB  0
0EFFC:  CALL   2142
....................                write_eeprom(22,Sensor[0].Ajusten); 
0F000:  CLRF   FAA
0F002:  MOVLW  16
0F004:  MOVWF  FA9
0F006:  MOVFF  359,FA8
0F00A:  BCF    FA6.6
0F00C:  BCF    FA6.7
0F00E:  BSF    FA6.2
0F010:  MOVF   FF2,W
0F012:  MOVWF  00
0F014:  BCF    FF2.6
0F016:  BCF    FF2.7
0F018:  MOVLB  F
0F01A:  MOVLW  55
0F01C:  MOVWF  FA7
0F01E:  MOVLW  AA
0F020:  MOVWF  FA7
0F022:  BSF    FA6.1
0F024:  BTFSC  FA6.1
0F026:  BRA    F024
0F028:  BCF    FA6.2
0F02A:  MOVF   00,W
0F02C:  IORWF  FF2,F
....................                delay_ms(10); 
0F02E:  MOVLW  0A
0F030:  MOVLB  6
0F032:  MOVWF  xDC
0F034:  MOVLB  0
0F036:  CALL   2142
....................                write_eeprom(23,Sensor[1].Ajuste); 
0F03A:  CLRF   FAA
0F03C:  MOVLW  17
0F03E:  MOVWF  FA9
0F040:  MOVFF  4BC,FA8
0F044:  BCF    FA6.6
0F046:  BCF    FA6.7
0F048:  BSF    FA6.2
0F04A:  MOVF   FF2,W
0F04C:  MOVWF  00
0F04E:  BCF    FF2.6
0F050:  BCF    FF2.7
0F052:  MOVLB  F
0F054:  MOVLW  55
0F056:  MOVWF  FA7
0F058:  MOVLW  AA
0F05A:  MOVWF  FA7
0F05C:  BSF    FA6.1
0F05E:  BTFSC  FA6.1
0F060:  BRA    F05E
0F062:  BCF    FA6.2
0F064:  MOVF   00,W
0F066:  IORWF  FF2,F
....................                delay_ms(10); 
0F068:  MOVLW  0A
0F06A:  MOVLB  6
0F06C:  MOVWF  xDC
0F06E:  MOVLB  0
0F070:  CALL   2142
....................                write_eeprom(24,Sensor[1].Ajusten); 
0F074:  CLRF   FAA
0F076:  MOVLW  18
0F078:  MOVWF  FA9
0F07A:  MOVFF  4BD,FA8
0F07E:  BCF    FA6.6
0F080:  BCF    FA6.7
0F082:  BSF    FA6.2
0F084:  MOVF   FF2,W
0F086:  MOVWF  00
0F088:  BCF    FF2.6
0F08A:  BCF    FF2.7
0F08C:  MOVLB  F
0F08E:  MOVLW  55
0F090:  MOVWF  FA7
0F092:  MOVLW  AA
0F094:  MOVWF  FA7
0F096:  BSF    FA6.1
0F098:  BTFSC  FA6.1
0F09A:  BRA    F098
0F09C:  BCF    FA6.2
0F09E:  MOVF   00,W
0F0A0:  IORWF  FF2,F
....................                delay_ms(10); 
0F0A2:  MOVLW  0A
0F0A4:  MOVLB  6
0F0A6:  MOVWF  xDC
0F0A8:  MOVLB  0
0F0AA:  CALL   2142
....................                write_eeprom(25,(int8)MediaMovil); 
0F0AE:  CLRF   FAA
0F0B0:  MOVLW  19
0F0B2:  MOVWF  FA9
0F0B4:  MOVFF  1F7,FA8
0F0B8:  BCF    FA6.6
0F0BA:  BCF    FA6.7
0F0BC:  BSF    FA6.2
0F0BE:  MOVF   FF2,W
0F0C0:  MOVWF  00
0F0C2:  BCF    FF2.6
0F0C4:  BCF    FF2.7
0F0C6:  MOVLB  F
0F0C8:  MOVLW  55
0F0CA:  MOVWF  FA7
0F0CC:  MOVLW  AA
0F0CE:  MOVWF  FA7
0F0D0:  BSF    FA6.1
0F0D2:  BTFSC  FA6.1
0F0D4:  BRA    F0D2
0F0D6:  BCF    FA6.2
0F0D8:  MOVF   00,W
0F0DA:  IORWF  FF2,F
....................                delay_ms(10); 
0F0DC:  MOVLW  0A
0F0DE:  MOVLB  6
0F0E0:  MOVWF  xDC
0F0E2:  MOVLB  0
0F0E4:  CALL   2142
....................                write_eeprom(26,(int8)Tciclo); 
0F0E8:  MOVFF  20A,6DF
0F0EC:  MOVFF  209,6DE
0F0F0:  MOVFF  208,6DD
0F0F4:  MOVFF  207,6DC
0F0F8:  CALL   4E58
0F0FC:  MOVFF  01,6CA
0F100:  CLRF   FAA
0F102:  MOVLW  1A
0F104:  MOVWF  FA9
0F106:  MOVFF  6CA,FA8
0F10A:  BCF    FA6.6
0F10C:  BCF    FA6.7
0F10E:  BSF    FA6.2
0F110:  MOVF   FF2,W
0F112:  MOVWF  00
0F114:  BCF    FF2.6
0F116:  BCF    FF2.7
0F118:  MOVLB  F
0F11A:  MOVLW  55
0F11C:  MOVWF  FA7
0F11E:  MOVLW  AA
0F120:  MOVWF  FA7
0F122:  BSF    FA6.1
0F124:  BTFSC  FA6.1
0F126:  BRA    F124
0F128:  BCF    FA6.2
0F12A:  MOVF   00,W
0F12C:  IORWF  FF2,F
....................                delay_ms(10); 
0F12E:  MOVLW  0A
0F130:  MOVLB  6
0F132:  MOVWF  xDC
0F134:  MOVLB  0
0F136:  CALL   2142
....................                write_eeprom(28,(int8)Sensor[0].RPT100); 
0F13A:  MOVFF  34D,6DF
0F13E:  MOVFF  34C,6DE
0F142:  MOVFF  34B,6DD
0F146:  MOVFF  34A,6DC
0F14A:  CALL   4E58
0F14E:  MOVFF  01,6CA
0F152:  CLRF   FAA
0F154:  MOVLW  1C
0F156:  MOVWF  FA9
0F158:  MOVFF  6CA,FA8
0F15C:  BCF    FA6.6
0F15E:  BCF    FA6.7
0F160:  BSF    FA6.2
0F162:  MOVF   FF2,W
0F164:  MOVWF  00
0F166:  BCF    FF2.6
0F168:  BCF    FF2.7
0F16A:  MOVLB  F
0F16C:  MOVLW  55
0F16E:  MOVWF  FA7
0F170:  MOVLW  AA
0F172:  MOVWF  FA7
0F174:  BSF    FA6.1
0F176:  BTFSC  FA6.1
0F178:  BRA    F176
0F17A:  BCF    FA6.2
0F17C:  MOVF   00,W
0F17E:  IORWF  FF2,F
....................                delay_ms(10); 
0F180:  MOVLW  0A
0F182:  MOVLB  6
0F184:  MOVWF  xDC
0F186:  MOVLB  0
0F188:  CALL   2142
....................                Temporal=Sensor[0].RPT100-((int8)Sensor[0].RPT100); 
0F18C:  MOVFF  34D,6DF
0F190:  MOVFF  34C,6DE
0F194:  MOVFF  34B,6DD
0F198:  MOVFF  34A,6DC
0F19C:  CALL   4E58
0F1A0:  MOVLB  6
0F1A2:  CLRF   xDD
0F1A4:  MOVFF  01,6DC
0F1A8:  MOVLB  0
0F1AA:  CALL   210C
0F1AE:  BSF    FD8.1
0F1B0:  MOVFF  34D,6DF
0F1B4:  MOVFF  34C,6DE
0F1B8:  MOVFF  34B,6DD
0F1BC:  MOVFF  34A,6DC
0F1C0:  MOVFF  03,6E3
0F1C4:  MOVFF  02,6E2
0F1C8:  MOVFF  01,6E1
0F1CC:  MOVFF  00,6E0
0F1D0:  CALL   22C8
0F1D4:  MOVFF  03,1CC
0F1D8:  MOVFF  02,1CB
0F1DC:  MOVFF  01,1CA
0F1E0:  MOVFF  00,1C9
....................                Temporal=Temporal*10; 
0F1E4:  MOVFF  1CC,6E3
0F1E8:  MOVFF  1CB,6E2
0F1EC:  MOVFF  1CA,6E1
0F1F0:  MOVFF  1C9,6E0
0F1F4:  MOVLB  6
0F1F6:  CLRF   xE7
0F1F8:  CLRF   xE6
0F1FA:  MOVLW  20
0F1FC:  MOVWF  xE5
0F1FE:  MOVLW  82
0F200:  MOVWF  xE4
0F202:  MOVLB  0
0F204:  CALL   4284
0F208:  MOVFF  03,1CC
0F20C:  MOVFF  02,1CB
0F210:  MOVFF  01,1CA
0F214:  MOVFF  00,1C9
....................                write_eeprom(27,(int8)Temporal); 
0F218:  MOVFF  1CC,6DF
0F21C:  MOVFF  1CB,6DE
0F220:  MOVFF  1CA,6DD
0F224:  MOVFF  1C9,6DC
0F228:  CALL   4E58
0F22C:  MOVFF  01,6CA
0F230:  CLRF   FAA
0F232:  MOVLW  1B
0F234:  MOVWF  FA9
0F236:  MOVFF  6CA,FA8
0F23A:  BCF    FA6.6
0F23C:  BCF    FA6.7
0F23E:  BSF    FA6.2
0F240:  MOVF   FF2,W
0F242:  MOVWF  00
0F244:  BCF    FF2.6
0F246:  BCF    FF2.7
0F248:  MOVLB  F
0F24A:  MOVLW  55
0F24C:  MOVWF  FA7
0F24E:  MOVLW  AA
0F250:  MOVWF  FA7
0F252:  BSF    FA6.1
0F254:  BTFSC  FA6.1
0F256:  BRA    F254
0F258:  BCF    FA6.2
0F25A:  MOVF   00,W
0F25C:  IORWF  FF2,F
....................                delay_ms(10); 
0F25E:  MOVLW  0A
0F260:  MOVLB  6
0F262:  MOVWF  xDC
0F264:  MOVLB  0
0F266:  CALL   2142
....................                write_eeprom(30,(int8)Sensor[1].RPT100); 
0F26A:  MOVFF  4B1,6DF
0F26E:  MOVFF  4B0,6DE
0F272:  MOVFF  4AF,6DD
0F276:  MOVFF  4AE,6DC
0F27A:  CALL   4E58
0F27E:  MOVFF  01,6CA
0F282:  CLRF   FAA
0F284:  MOVLW  1E
0F286:  MOVWF  FA9
0F288:  MOVFF  6CA,FA8
0F28C:  BCF    FA6.6
0F28E:  BCF    FA6.7
0F290:  BSF    FA6.2
0F292:  MOVF   FF2,W
0F294:  MOVWF  00
0F296:  BCF    FF2.6
0F298:  BCF    FF2.7
0F29A:  MOVLB  F
0F29C:  MOVLW  55
0F29E:  MOVWF  FA7
0F2A0:  MOVLW  AA
0F2A2:  MOVWF  FA7
0F2A4:  BSF    FA6.1
0F2A6:  BTFSC  FA6.1
0F2A8:  BRA    F2A6
0F2AA:  BCF    FA6.2
0F2AC:  MOVF   00,W
0F2AE:  IORWF  FF2,F
....................                delay_ms(10); 
0F2B0:  MOVLW  0A
0F2B2:  MOVLB  6
0F2B4:  MOVWF  xDC
0F2B6:  MOVLB  0
0F2B8:  CALL   2142
....................                Temporal=Sensor[1].RPT100-((int8)Sensor[1].RPT100); 
0F2BC:  MOVFF  4B1,6DF
0F2C0:  MOVFF  4B0,6DE
0F2C4:  MOVFF  4AF,6DD
0F2C8:  MOVFF  4AE,6DC
0F2CC:  CALL   4E58
0F2D0:  MOVLB  6
0F2D2:  CLRF   xDD
0F2D4:  MOVFF  01,6DC
0F2D8:  MOVLB  0
0F2DA:  CALL   210C
0F2DE:  BSF    FD8.1
0F2E0:  MOVFF  4B1,6DF
0F2E4:  MOVFF  4B0,6DE
0F2E8:  MOVFF  4AF,6DD
0F2EC:  MOVFF  4AE,6DC
0F2F0:  MOVFF  03,6E3
0F2F4:  MOVFF  02,6E2
0F2F8:  MOVFF  01,6E1
0F2FC:  MOVFF  00,6E0
0F300:  CALL   22C8
0F304:  MOVFF  03,1CC
0F308:  MOVFF  02,1CB
0F30C:  MOVFF  01,1CA
0F310:  MOVFF  00,1C9
....................                Temporal=Temporal*10; 
0F314:  MOVFF  1CC,6E3
0F318:  MOVFF  1CB,6E2
0F31C:  MOVFF  1CA,6E1
0F320:  MOVFF  1C9,6E0
0F324:  MOVLB  6
0F326:  CLRF   xE7
0F328:  CLRF   xE6
0F32A:  MOVLW  20
0F32C:  MOVWF  xE5
0F32E:  MOVLW  82
0F330:  MOVWF  xE4
0F332:  MOVLB  0
0F334:  CALL   4284
0F338:  MOVFF  03,1CC
0F33C:  MOVFF  02,1CB
0F340:  MOVFF  01,1CA
0F344:  MOVFF  00,1C9
....................                write_eeprom(29,(int8)Temporal); 
0F348:  MOVFF  1CC,6DF
0F34C:  MOVFF  1CB,6DE
0F350:  MOVFF  1CA,6DD
0F354:  MOVFF  1C9,6DC
0F358:  CALL   4E58
0F35C:  MOVFF  01,6CA
0F360:  CLRF   FAA
0F362:  MOVLW  1D
0F364:  MOVWF  FA9
0F366:  MOVFF  6CA,FA8
0F36A:  BCF    FA6.6
0F36C:  BCF    FA6.7
0F36E:  BSF    FA6.2
0F370:  MOVF   FF2,W
0F372:  MOVWF  00
0F374:  BCF    FF2.6
0F376:  BCF    FF2.7
0F378:  MOVLB  F
0F37A:  MOVLW  55
0F37C:  MOVWF  FA7
0F37E:  MOVLW  AA
0F380:  MOVWF  FA7
0F382:  BSF    FA6.1
0F384:  BTFSC  FA6.1
0F386:  BRA    F384
0F388:  BCF    FA6.2
0F38A:  MOVF   00,W
0F38C:  IORWF  FF2,F
....................                delay_ms(10); 
0F38E:  MOVLW  0A
0F390:  MOVLB  6
0F392:  MOVWF  xDC
0F394:  MOVLB  0
0F396:  CALL   2142
....................                write_eeprom(31,Atmosferica); 
0F39A:  CLRF   FAA
0F39C:  MOVLW  1F
0F39E:  MOVWF  FA9
0F3A0:  MOVFF  2BD,FA8
0F3A4:  BCF    FA6.6
0F3A6:  BCF    FA6.7
0F3A8:  BSF    FA6.2
0F3AA:  MOVF   FF2,W
0F3AC:  MOVWF  00
0F3AE:  BCF    FF2.6
0F3B0:  BCF    FF2.7
0F3B2:  MOVLB  F
0F3B4:  MOVLW  55
0F3B6:  MOVWF  FA7
0F3B8:  MOVLW  AA
0F3BA:  MOVWF  FA7
0F3BC:  BSF    FA6.1
0F3BE:  BTFSC  FA6.1
0F3C0:  BRA    F3BE
0F3C2:  BCF    FA6.2
0F3C4:  MOVF   00,W
0F3C6:  IORWF  FF2,F
....................                delay_ms(10); 
0F3C8:  MOVLW  0A
0F3CA:  MOVLB  6
0F3CC:  MOVWF  xDC
0F3CE:  MOVLB  0
0F3D0:  CALL   2142
....................                write_eeprom(32,Tapertura); 
0F3D4:  CLRF   FAA
0F3D6:  MOVLW  20
0F3D8:  MOVWF  FA9
0F3DA:  MOVFF  277,FA8
0F3DE:  BCF    FA6.6
0F3E0:  BCF    FA6.7
0F3E2:  BSF    FA6.2
0F3E4:  MOVF   FF2,W
0F3E6:  MOVWF  00
0F3E8:  BCF    FF2.6
0F3EA:  BCF    FF2.7
0F3EC:  MOVLB  F
0F3EE:  MOVLW  55
0F3F0:  MOVWF  FA7
0F3F2:  MOVLW  AA
0F3F4:  MOVWF  FA7
0F3F6:  BSF    FA6.1
0F3F8:  BTFSC  FA6.1
0F3FA:  BRA    F3F8
0F3FC:  BCF    FA6.2
0F3FE:  MOVF   00,W
0F400:  IORWF  FF2,F
....................                delay_ms(10); 
0F402:  MOVLW  0A
0F404:  MOVLB  6
0F406:  MOVWF  xDC
0F408:  MOVLB  0
0F40A:  CALL   2142
....................                GuardaEEPROM=ON; 
0F40E:  MOVLB  1
0F410:  BSF    x06.1
....................             } 
....................             printf("page Menu"); 
0F412:  MOVLW  CC
0F414:  MOVWF  FF6
0F416:  MOVLW  20
0F418:  MOVWF  FF7
0F41A:  MOVLW  00
0F41C:  MOVWF  FF8
0F41E:  MOVLB  0
0F420:  CALL   41BC
....................             SendDataDisplay(); 
0F424:  CALL   41EE
....................             //BorraBuffer(); 
....................          } 
....................       } 
....................       printf("fecha.txt=\"Fecha:%02u/%02u/20%02u    Hora: %02u:%02u\"",Dia,Mes,Year,Hora,Minuto); 
0F428:  MOVLW  D6
0F42A:  MOVWF  FF6
0F42C:  MOVLW  20
0F42E:  MOVWF  FF7
0F430:  MOVLW  00
0F432:  MOVWF  FF8
0F434:  MOVLW  11
0F436:  MOVLB  6
0F438:  MOVWF  xCF
0F43A:  MOVLB  0
0F43C:  CALL   5C56
0F440:  MOVFF  2B5,6CF
0F444:  MOVLW  01
0F446:  MOVLB  6
0F448:  MOVWF  xD0
0F44A:  MOVLB  0
0F44C:  CALL   5CDA
0F450:  MOVLW  2F
0F452:  BTFSS  F9E.4
0F454:  BRA    F452
0F456:  MOVWF  FAD
0F458:  MOVFF  2B4,6CF
0F45C:  MOVLW  01
0F45E:  MOVLB  6
0F460:  MOVWF  xD0
0F462:  MOVLB  0
0F464:  CALL   5CDA
0F468:  MOVLW  2F
0F46A:  BTFSS  F9E.4
0F46C:  BRA    F46A
0F46E:  MOVWF  FAD
0F470:  MOVLW  32
0F472:  BTFSS  F9E.4
0F474:  BRA    F472
0F476:  MOVWF  FAD
0F478:  MOVLW  30
0F47A:  BTFSS  F9E.4
0F47C:  BRA    F47A
0F47E:  MOVWF  FAD
0F480:  MOVFF  2B3,6CF
0F484:  MOVLW  01
0F486:  MOVLB  6
0F488:  MOVWF  xD0
0F48A:  MOVLB  0
0F48C:  CALL   5CDA
0F490:  MOVLW  F7
0F492:  MOVWF  FF6
0F494:  MOVLW  20
0F496:  MOVWF  FF7
0F498:  MOVLW  00
0F49A:  MOVWF  FF8
0F49C:  MOVLW  0A
0F49E:  MOVLB  6
0F4A0:  MOVWF  xCF
0F4A2:  MOVLB  0
0F4A4:  CALL   5C56
0F4A8:  MOVFF  2B6,6CF
0F4AC:  MOVLW  01
0F4AE:  MOVLB  6
0F4B0:  MOVWF  xD0
0F4B2:  MOVLB  0
0F4B4:  CALL   5CDA
0F4B8:  MOVLW  3A
0F4BA:  BTFSS  F9E.4
0F4BC:  BRA    F4BA
0F4BE:  MOVWF  FAD
0F4C0:  MOVFF  2B7,6CF
0F4C4:  MOVLW  01
0F4C6:  MOVLB  6
0F4C8:  MOVWF  xD0
0F4CA:  MOVLB  0
0F4CC:  CALL   5CDA
0F4D0:  MOVLW  22
0F4D2:  BTFSS  F9E.4
0F4D4:  BRA    F4D2
0F4D6:  MOVWF  FAD
....................       SendDataDisplay();  
0F4D8:  CALL   41EE
....................     } 
.................... //_--------------------------------------------------------------------------------------------------------------------------------------------------------        
....................  
....................    } 
0F4DC:  MOVLB  0
0F4DE:  GOTO   7FAE
.................... } 
0F4E2:  SLEEP 

Configuration Fuses:
   Word  1: 0200   HS NOIESO NOFCMEN
   Word  2: 1B1F   BROWNOUT WDT BORV20 NOPUT WDT8192
   Word  3: 0000   NOPBADEN NOLPT1OSC NOMCLR
   Word  4: 00B0   NOSTVREN NODEBUG NOLVP NOXINST BBSIZ4K
   Word  5: C03F   NOPROTECT NOCPD NOCPB
   Word  6: E03F   NOWRT NOWRTD NOWRTC NOWRTB
   Word  7: 403F   NOEBTR NOEBTRB
