CCS PCH C Compiler, Version 4.104, 5967               01-jun.-21 15:19

               Filename: D:\Laboratorio\Autoclave\Autoclave Horizontal\Con Precamara\2019\Autoclave 680L-V3.1 VM #004587960\Firmware V4.0\Actualizacion 2021\GLCD_Controller_VM_V1.1.1\GLCD_Controller.lst

               ROM used: 63826 bytes (65%)
                         Largest free fragment is 32768
               RAM used: 1622 (49%) at main() level
                         1653 (50%) worst case
               Stack:    5 worst case (4 in main + 1 for interrupts)

*
00000:  GOTO   7BF4
*
00008:  GOTO   00AE
0000C:  NOP   
0000E:  NOP   
00010:  NOP   
00012:  NOP   
00014:  NOP   
00016:  NOP   
00018:  MOVWF  04
0001A:  MOVFF  FD8,05
0001E:  MOVFF  FE0,06
00022:  MOVLB  0
00024:  MOVFF  FE9,0C
00028:  MOVFF  FEA,07
0002C:  MOVFF  FE1,08
00030:  MOVFF  FE2,09
00034:  MOVFF  FD9,0A
00038:  MOVFF  FDA,0B
0003C:  MOVFF  FF3,12
00040:  MOVFF  FF4,13
00044:  MOVFF  FFA,14
00048:  MOVFF  FFB,15
0004C:  MOVFF  00,0E
00050:  MOVFF  01,0F
00054:  MOVFF  02,10
00058:  MOVFF  03,11
0005C:  BTFSS  F9D.0
0005E:  GOTO   0068
00062:  BTFSC  F9E.0
00064:  GOTO   05AC
00068:  MOVFF  0E,00
0006C:  MOVFF  0F,01
00070:  MOVFF  10,02
00074:  MOVFF  11,03
00078:  MOVFF  0C,FE9
0007C:  MOVFF  07,FEA
00080:  BSF    07.7
00082:  MOVFF  08,FE1
00086:  MOVFF  09,FE2
0008A:  MOVFF  0A,FD9
0008E:  MOVFF  0B,FDA
00092:  MOVFF  12,FF3
00096:  MOVFF  13,FF4
0009A:  MOVFF  14,FFA
0009E:  MOVFF  15,FFB
000A2:  MOVF   04,W
000A4:  MOVFF  06,FE0
000A8:  MOVFF  05,FD8
000AC:  RETFIE 0
000AE:  MOVWF  17
000B0:  MOVFF  FD8,18
000B4:  MOVFF  FE0,19
000B8:  MOVLB  0
000BA:  MOVFF  FE9,1F
000BE:  MOVFF  FEA,1A
000C2:  MOVFF  FE1,1B
000C6:  MOVFF  FE2,1C
000CA:  MOVFF  FD9,1D
000CE:  MOVFF  FDA,1E
000D2:  MOVFF  FF3,25
000D6:  MOVFF  FF4,26
000DA:  MOVFF  FFA,27
000DE:  MOVFF  FFB,28
000E2:  MOVFF  00,21
000E6:  MOVFF  01,22
000EA:  MOVFF  02,23
000EE:  MOVFF  03,24
000F2:  BTFSS  F9D.5
000F4:  GOTO   00FE
000F8:  BTFSC  F9E.5
000FA:  GOTO   053E
000FE:  MOVFF  21,00
00102:  MOVFF  22,01
00106:  MOVFF  23,02
0010A:  MOVFF  24,03
0010E:  MOVFF  1F,FE9
00112:  MOVFF  1A,FEA
00116:  BSF    1A.7
00118:  MOVFF  1B,FE1
0011C:  MOVFF  1C,FE2
00120:  MOVFF  1D,FD9
00124:  MOVFF  1E,FDA
00128:  MOVFF  25,FF3
0012C:  MOVFF  26,FF4
00130:  MOVFF  27,FFA
00134:  MOVFF  28,FFB
00138:  MOVF   17,W
0013A:  MOVFF  19,FE0
0013E:  MOVFF  18,FD8
00142:  RETFIE 0
.................... //Falta crear menu de ajuste de variables y de norma CFR21 
....................  
.................... #include <18F4685.h> 
.................... //////// Standard Header file for the PIC18F4685 device //////////////// 
.................... #device PIC18F4685 
.................... #list 
....................  
.................... #device adc=10 
.................... #device HIGH_INTS=TRUE //Activamos niveles de prioridad 
.................... #fuses HS,WDT8192,NOPROTECT,NOLVP,NODEBUG,NOSTVREN,NOPUT,NOCPD,NOWRT,NOIESO,NOFCMEN,NOPBADEN,NOWRTC,NOWRTB,NOEBTR,NOEBTRB,NOCPB,NOXINST,NOLPT1OSC,NOMCLR 
.................... #use delay(clock=20000000) 
*
01F6E:  MOVLW  06
01F70:  MOVWF  FEA
01F72:  MOVLW  64
01F74:  MOVWF  FE9
01F76:  MOVF   FEF,W
01F78:  BZ    1F94
01F7A:  MOVLW  06
01F7C:  MOVWF  01
01F7E:  CLRF   00
01F80:  DECFSZ 00,F
01F82:  BRA    1F80
01F84:  DECFSZ 01,F
01F86:  BRA    1F7E
01F88:  MOVLW  7B
01F8A:  MOVWF  00
01F8C:  DECFSZ 00,F
01F8E:  BRA    1F8C
01F90:  DECFSZ FEF,F
01F92:  BRA    1F7A
01F94:  RETLW  00
.................... #use i2c(Master,slow,sda=PIN_C4,scl=PIN_C3) 
.................... #use rs232(baud=9600, xmit=PIN_C6, rcv=PIN_C7, bits=8, parity=N) 
*
04272:  BTFSS  F9E.4
04274:  BRA    4272
04276:  MOVWF  FAD
04278:  RETLW  00
.................... #include <stdio.h> 
.................... /////////////////////////////////////////////////////////////////////////// 
.................... ////        (C) Copyright 1996,2003 Custom Computer Services           //// 
.................... //// This source code may only be used by licensed users of the CCS C  //// 
.................... //// compiler.  This source code may only be distributed to other      //// 
.................... //// licensed users of the CCS C compiler.  No other use, reproduction //// 
.................... //// or distribution is permitted without written permission.          //// 
.................... //// Derivative programs created using this software in object code    //// 
.................... //// form are not restricted in any way.                               //// 
.................... /////////////////////////////////////////////////////////////////////////// 
....................  
.................... #ifndef _STDIO 
.................... #define _STDIO 
.................... #include <string.h> 
.................... //////////////////////////////////////////////////////////////////////////// 
.................... ////        (C) Copyright 1996,2008 Custom Computer Services            //// 
.................... //// This source code may only be used by licensed users of the CCS C   //// 
.................... //// compiler.  This source code may only be distributed to other       //// 
.................... //// licensed users of the CCS C compiler.  No other use, reproduction  //// 
.................... //// or distribution is permitted without written permission.           //// 
.................... //// Derivative programs created using this software in object code     //// 
.................... //// form are not restricted in any way.                                //// 
.................... //////////////////////////////////////////////////////////////////////////// 
....................  
.................... #ifndef _STRING 
.................... #define _STRING 
.................... #include <stddef.h> 
.................... /////////////////////////////////////////////////////////////////////////// 
.................... ////        (C) Copyright 1996,2003 Custom Computer Services           //// 
.................... //// This source code may only be used by licensed users of the CCS C  //// 
.................... //// compiler.  This source code may only be distributed to other      //// 
.................... //// licensed users of the CCS C compiler.  No other use, reproduction //// 
.................... //// or distribution is permitted without written permission.          //// 
.................... //// Derivative programs created using this software in object code    //// 
.................... //// form are not restricted in any way.                               //// 
.................... /////////////////////////////////////////////////////////////////////////// 
....................  
.................... #ifndef _STDDEF 
....................  
.................... #define _STDDEF 
....................  
.................... #if sizeof(unsigned int8 *)==1 
.................... #define ptrdiff_t unsigned int8 
.................... #else 
.................... #define ptrdiff_t unsigned int16 
.................... #endif 
....................  
.................... #define size_t unsigned int8 
.................... #define wchar_t char 
.................... #define NULL 0 
....................  
.................... #define offsetof(s,f) (offsetofbit(s,f)/8) 
....................  
.................... #endif 
....................  
.................... #include <ctype.h> 
.................... //////////////////////////////////////////////////////////////////////////// 
.................... ////        (C) Copyright 1996,2003 Custom Computer Services            //// 
.................... //// This source code may only be used by licensed users of the CCS C   //// 
.................... //// compiler.  This source code may only be distributed to other       //// 
.................... //// licensed users of the CCS C compiler.  No other use, reproduction  //// 
.................... //// or distribution is permitted without written permission.           //// 
.................... //// Derivative programs created using this software in object code     //// 
.................... //// form are not restricted in any way.                                //// 
.................... //////////////////////////////////////////////////////////////////////////// 
....................  
.................... #ifndef _CTYPE 
.................... #define _CTYPE 
....................  
.................... #define islower(x)  isamong(x,"abcdefghijklmnopqrstuvwxyz") 
.................... #define isupper(x)  isamong(x,"ABCDEFGHIJKLMNOPQRSTUVWXYZ") 
.................... #define isalnum(x)  isamong(x,"0123456789ABCDEFGHIJKLMNOPQRSTUVWXYZabcdefghijklmnopqrstuvwxyz") 
.................... #define isalpha(x)  isamong(x,"ABCDEFGHIJKLMNOPQRSTUVWXYZabcdefghijklmnopqrstuvwxyz") 
.................... #define isdigit(x)  isamong(x,"0123456789") 
.................... #define isspace(x)  ((x)==' ') 
.................... #define isxdigit(x) isamong(x,"0123456789ABCDEFabcdef") 
.................... #define iscntrl(x)  ((x)<' ') 
.................... #define isprint(x)  ((x)>=' ') 
.................... #define isgraph(x)  ((x)>' ') 
.................... #define ispunct(x)  (((x)>' ')&&!isalnum(x)) 
....................  
.................... #endif 
....................  
....................  
....................  
....................  
....................  
.................... ////////////////////////////////////////////// 
.................... //// Uncomment the following define to    //// 
.................... //// allow some functions to use a        //// 
.................... //// quicker algorithm, but use more ROM  //// 
.................... ////                                      //// 
.................... //// #define FASTER_BUT_MORE_ROM          //// 
.................... ////////////////////////////////////////////// 
....................  
....................  
....................  
.................... /*Copying functions*/ 
.................... /* standard template: 
....................    void *memmove(void *s1, void *s2, size_t n). 
....................    Copies max of n characters safely (not following ending '\0') 
....................    from s2 in s1; if s2 has less than n characters, appends 0 */ 
....................  
.................... char *memmove(void *s1,char *s2,size_t n) 
.................... { 
....................    char *sc1; 
....................    char *sc2; 
....................    sc1=s1; 
....................    sc2=s2; 
....................    if(sc2<sc1 && sc1 <sc2 +n) 
....................       for(sc1+=n,sc2+=n;0<n;--n) 
....................          *--sc1=*--sc2; 
....................    else 
....................       for(;0<n;--n) 
....................          *sc1++=*sc2++; 
....................   return s1; 
....................   } 
....................  
.................... /* Standard template: char *strcpy(char *s1, const char *s2) 
....................    copies the string s2 including the null character to s1. 
....................    This is a compiler built in to handle the different address 
....................    spaces */ 
....................  
.................... #define strcopy strcpy 
....................  
.................... /* standard template: 
....................    char *strncpy(char *s1, const char *s2, size_t n). 
....................    Copies max of n characters (not following ending '\0') 
....................    from s2 in s1; if s2 has less than n characters, appends 0 */ 
....................  
.................... char *strncpy(char *s1, char *s2, size_t n) 
.................... { 
....................   char *s; 
....................  
....................   for (s = s1; n > 0 && *s2 != '\0'; n--) 
....................      *s++ = *s2++; 
....................   for (; n > 0; n--) 
....................      *s++ = '\0'; 
....................  
....................   return(s1); 
.................... } 
.................... /***********************************************************/ 
....................  
.................... /*concatenation functions*/ 
.................... /* standard template: char *strcat(char *s1, const char *s2) 
.................... appends s2 to s1*/ 
....................  
.................... char *strcat(char *s1, char *s2) 
.................... { 
....................    char *s; 
....................  
....................    for (s = s1; *s != '\0'; ++s); 
....................    while(*s2 != '\0') 
....................    { 
....................       *s = *s2; 
....................       ++s; 
....................       ++s2; 
....................    } 
....................  
....................    *s = '\0'; 
....................    return(s1); 
.................... } 
.................... /* standard template: char *strncat(char *s1, char *s2,size_t n) 
.................... appends not more than n characters from s2 to s1*/ 
....................  
.................... char *strncat(char *s1, char *s2, size_t n) 
.................... { 
....................    char *s; 
....................  
....................    for (s = s1; *s != '\0'; ++s); 
....................    while(*s2 != '\0' && 0<n) 
....................    { 
....................       *s = *s2; 
....................       ++s; 
....................       ++s2; 
....................       --n; 
....................    } 
....................  
....................    *s = '\0'; 
....................    return(s1); 
.................... } 
....................  
.................... /***********************************************************/ 
....................  
....................  
.................... /*comparison functions*/ 
.................... /* standard template: signed int memcmp(void *s1, void *s2). 
....................    Compares s1 & s2; returns -1 if s1<s2, 0 if s1=s2, 1 if s1>s2 */ 
....................  
.................... signed int8 memcmp(void * s1,char *s2,size_t n) 
.................... { 
.................... char *su1, *su2; 
.................... for(su1=s1, su2=s2; 0<n; ++su1, ++su2, --n) 
.................... { 
....................    if(*su1!=*su2) 
....................       return ((*su1<*su2)?-1:+1); 
.................... } 
.................... return 0; 
.................... } 
....................  
.................... /* standard template: int strcmp(const char *s1, const char *s2). 
....................    Compares s1 & s2; returns -1 if s1<s2, 0 if s1=s2, 1 if s1>s2 */ 
....................  
.................... signed int8 strcmp(char *s1, char *s2) 
.................... { 
....................    for (; *s1 == *s2; s1++, s2++) 
....................       if (*s1 == '\0') 
....................          return(0); 
....................    return((*s1 < *s2) ? -1: 1); 
.................... } 
.................... /* standard template: int strcoll(const char *s1, const char *s2). 
....................    Compares s1 & s2; returns -1 if s1<s2, 0 if s1=s2, 1 if s1>s2 */ 
....................  
.................... signed int8 strcoll(char *s1, char *s2) 
.................... { 
....................    for (; *s1 == *s2; s1++, s2++) 
....................       if (*s1 == '\0') 
....................          return(0); 
....................    return((*s1 < *s2) ? -1: 1); 
.................... } 
....................  
.................... /* standard template: 
....................    int strncmp(const char *s1, const char *s2, size_t n). 
....................    Compares max of n characters (not following 0) from s1 to s2; 
....................    returns same as strcmp */ 
....................  
.................... signed int8 strncmp(char *s1, char *s2, size_t n) 
.................... { 
....................    for (; n > 0; s1++, s2++, n--) 
....................       if (*s1 != *s2) 
....................          return((*s1 <*s2) ? -1: 1); 
....................       else if (*s1 == '\0') 
....................          return(0); 
....................    return(0); 
.................... } 
.................... /* standard template: 
....................    int strxfrm(const char *s1, const char *s2, size_t n). 
....................    transforms maximum of n characters from s2 and places them into s1*/ 
.................... size_t strxfrm(char *s1, char *s2, size_t n) 
.................... { 
....................   char *s; 
....................   unsigned int8 n1; 
....................   n1=n; 
....................   for (s = s1; n > 0 && *s2 != '\0'; n--) 
....................      *s++ = *s2++; 
....................   for (; n > 0; n--) 
....................      *s++ = '\0'; 
....................  
....................   return(n1); 
.................... } 
....................  
....................  
....................  
....................  
....................  
.................... /***********************************************************/ 
.................... /*Search functions*/ 
.................... /* standard template: void *memchr(const char *s, int c). 
....................    Finds first occurrence of c in n characters of s */ 
....................  
.................... char *memchr(void *s,unsigned int8 c,size_t n) 
.................... { 
....................    char uc; 
....................    char *su; 
....................    uc=c; 
....................    for(su=s;0<n;++su,--n) 
....................       if(*su==uc) 
....................       return su; 
....................    return NULL; 
.................... } 
....................  
.................... /* standard template: char *strchr(const char *s, int c). 
....................    Finds first occurrence of c in s */ 
....................  
.................... char *strchr(char *s, unsigned int8 c) 
.................... { 
....................    for (; *s != c; s++) 
....................       if (*s == '\0') 
....................          return(0); 
....................    return(s); 
.................... } 
.................... /* standard template: 
....................    size_t strcspn(const char *s1, const char *s2). 
....................    Computes length of max initial segment of s1 that 
....................    consists entirely of characters NOT from s2*/ 
....................  
.................... unsigned int8  strcspn(char *s1, char *s2) 
.................... { 
....................    char *sc1, *sc2; 
....................  
....................    for (sc1 = s1; *sc1 != 0; sc1++) 
....................       for (sc2 = s2; *sc2 != 0; sc2++) 
....................          if (*sc1 == *sc2) 
....................             return(sc1 - s1); 
....................    return(sc1 - s1); 
.................... } 
.................... /* standard template: 
....................    char *strpbrk(const char *s1, const char *s2). 
....................    Locates first occurence of any character from s2 in s1; 
....................    returns s1 if s2 is empty string */ 
....................  
.................... char *strpbrk(char *s1, char *s2) 
.................... { 
....................    char *sc1, *sc2; 
....................  
....................    for (sc1 = s1; *sc1 != 0; sc1++) 
....................       for (sc2 = s2; *sc2 != 0; sc2++) 
....................          if (*sc1 == *sc2) 
....................             return(sc1); 
....................    return(0); 
.................... } 
....................  
....................  
.................... /* standard template: char *strrchr(const char *s, int c). 
....................    Finds last occurrence of c in s */ 
....................  
.................... char *strrchr(char *s, unsigned int8 c) 
.................... { 
....................    char *p; 
....................  
....................    for (p = 0; ; s++) 
....................    { 
....................       if (*s == c) 
....................          p = s; 
....................       if (*s == '\0') 
....................          return(p); 
....................    } 
.................... } 
.................... /* computes length of max initial segment of s1 consisting 
....................    entirely of characters from s2 */ 
....................  
.................... unsigned int8  strspn(char *s1, char *s2) 
.................... { 
....................    char *sc1, *sc2; 
....................  
....................    for (sc1 = s1; *sc1 != 0; sc1++) 
....................       for (sc2 = s2; ; sc2++) 
....................     if (*sc2 == '\0') 
....................        return(sc1 - s1); 
....................          else if (*sc1 == *sc2) 
....................             break; 
....................    return(sc1 - s1); 
.................... } 
.................... /* standard template: 
....................    char *strstr(const char *s1, const char *s2); 
....................    Locates first occurence of character sequence s2 in s1; 
....................    returns 0 if s2 is empty string 
....................  
....................    Uncomment #define FASTER_BUT_MORE_ROM at the top of the 
....................    file to use the faster algorithm */ 
.................... char *strstr(char *s1, char *s2) 
.................... { 
....................    char *s, *t; 
....................  
....................    #ifdef FASTER_BUT_MORE_ROM 
....................    if (*s2 == '\0') 
....................          return(s1); 
....................    #endif 
....................  
....................    while (*s1) 
....................    { 
....................       for(s = s1, t = s2; *t && (*s == *t); ++s, ++t); 
....................  
....................       if (*t == '\0') 
....................          return s1; 
....................       ++s1; 
....................       #ifdef FASTER_BUT_MORE_ROM 
....................          while(*s1 != '\0' && *s1 != *s2) 
....................             ++s1; 
....................       #endif 
....................    } 
....................    return 0; 
.................... } 
....................  
.................... /* standard template: char *strtok(char *s1, const char *s2). 
....................  
....................    Finds next token in s1 delimited by a character from separator 
....................    string s2 (which can be different from call to call).  First call 
....................    starts at beginning of s1 searching for first character NOT 
....................    contained in s2; returns 0 if none is found. 
....................    If one is found, it is the start of first token (return value). 
....................    Function then searches from there for a character contained in s2. 
....................    If none is found, current token extends to end of s1, and subsequent 
....................    searches for a token will return 0.  If one is found, it is 
....................    overwritten by '\0', which terminates current token.  Function saves 
....................    pointer to following character from which next search will start. 
....................    Each subsequent call, with 0 as first argument, starts searching 
....................    from saved pointer */ 
....................  
.................... char *strtok(char *s1, char *s2) 
.................... { 
....................    char *beg, *end; 
....................    static char *save; 
....................  
....................    beg = (s1)? s1: save; 
....................    beg += strspn(beg, s2); 
....................    if (*beg == '\0') 
....................    { 
....................       *save = ' '; 
....................       return(0); 
....................    } 
....................    end = strpbrk(beg, s2); 
....................    if (*end != '\0') 
....................    { 
....................       *end = '\0'; 
....................       end++; 
....................    } 
....................    save = end; 
....................    return(beg); 
.................... } 
....................  
.................... /*****************************************************************/ 
.................... /*Miscellaneous functions*/ 
.................... /* standard template 
.................... maps error number in errnum to an error message string 
.................... Returns: Pointer to string 
.................... */ 
.................... #ifdef _ERRNO 
.................... char * strerror(unsigned int8 errnum) 
.................... { 
.................... char s[15]; 
.................... switch( errnum) 
.................... { 
.................... case 0: 
....................    strcpy(s,"no errors"); 
....................    return s; 
.................... case EDOM : 
....................    strcpy(s,"domain error"); 
....................    return s; 
.................... case ERANGE: 
....................    strcpy(s,"range error"); 
....................    return s; 
.................... } 
.................... } 
.................... #ENDIF 
.................... /* standard template: size_t strlen(const char *s). 
....................    Computes length of s1 (preceding terminating 0) */ 
....................  
.................... unsigned int8 strlen(char *s) 
.................... { 
....................    char *sc; 
....................  
....................    for (sc = s; *sc != 0; sc++); 
....................    return(sc - s); 
.................... } 
....................  
.................... /* standard template: size_t stricmp(const char *s1, const char *s2). 
....................    Compares s1 to s2 ignoring case (upper vs. lower) */ 
....................  
.................... signed int8 stricmp(char *s1, char *s2) 
.................... { 
....................  for(; *s1==*s2||(isalpha(*s1)&&isalpha(*s2)&&(*s1==*s2+32||*s2==*s1+32)); 
....................     s1++, s2++) 
....................     if (*s1 == '\0') 
....................        return(0); 
....................  return((*s1 < *s2) ? -1: 1); 
.................... } 
....................  
....................  
.................... /* standard template: char *strlwr(char *s). 
....................    Replaces uppercase letters by lowercase; 
....................    returns pointer to new string s */ 
....................  
.................... char *strlwr(char *s) 
.................... { 
....................    char *p; 
....................  
....................    for (p = s; *p != '\0'; p++) 
....................       if (*p >= 'A' && *p <='Z') 
....................          *p += 'a' - 'A'; 
....................    return(s); 
.................... } 
....................  
....................  
.................... /************************************************************/ 
....................  
....................  
.................... #endif 
....................  
.................... #ifndef getc 
.................... #define getc getch 
.................... #define getchar getch 
.................... #define puts(s) {printf(s); putchar(13); putchar(10);} 
.................... #define putc putchar 
.................... #endif 
.................... /* maps error number to an error message. Writes a sequence of characters to 
.................... stderr stream thus: if s is not null then string pointed to by s follwed by 
.................... a colon (:) and a space and the appropriate error message returned by strerror 
.................... function with argument errno 
....................  
.................... Returns: no value 
.................... */ 
....................  
.................... #ifdef _ERRNO 
.................... void perror(char *s) 
.................... { 
....................   if(s) 
....................   fprintf(STDERR,"%s: ",s); 
....................   fprintf(STDERR,"%s\r\n",strerror(errno)); 
.................... } 
.................... #endif 
.................... #endif 
....................  
.................... #include <string.h> 
.................... //////////////////////////////////////////////////////////////////////////// 
.................... ////        (C) Copyright 1996,2008 Custom Computer Services            //// 
.................... //// This source code may only be used by licensed users of the CCS C   //// 
.................... //// compiler.  This source code may only be distributed to other       //// 
.................... //// licensed users of the CCS C compiler.  No other use, reproduction  //// 
.................... //// or distribution is permitted without written permission.           //// 
.................... //// Derivative programs created using this software in object code     //// 
.................... //// form are not restricted in any way.                                //// 
.................... //////////////////////////////////////////////////////////////////////////// 
....................  
.................... #ifndef _STRING 
.................... #define _STRING 
.................... #include <stddef.h> 
.................... #include <ctype.h> 
....................  
....................  
....................  
.................... ////////////////////////////////////////////// 
.................... //// Uncomment the following define to    //// 
.................... //// allow some functions to use a        //// 
.................... //// quicker algorithm, but use more ROM  //// 
.................... ////                                      //// 
.................... //// #define FASTER_BUT_MORE_ROM          //// 
.................... ////////////////////////////////////////////// 
....................  
....................  
....................  
.................... /*Copying functions*/ 
.................... /* standard template: 
....................    void *memmove(void *s1, void *s2, size_t n). 
....................    Copies max of n characters safely (not following ending '\0') 
....................    from s2 in s1; if s2 has less than n characters, appends 0 */ 
....................  
.................... char *memmove(void *s1,char *s2,size_t n) 
.................... { 
....................    char *sc1; 
....................    char *sc2; 
....................    sc1=s1; 
....................    sc2=s2; 
....................    if(sc2<sc1 && sc1 <sc2 +n) 
....................       for(sc1+=n,sc2+=n;0<n;--n) 
....................          *--sc1=*--sc2; 
....................    else 
....................       for(;0<n;--n) 
....................          *sc1++=*sc2++; 
....................   return s1; 
....................   } 
....................  
.................... /* Standard template: char *strcpy(char *s1, const char *s2) 
....................    copies the string s2 including the null character to s1. 
....................    This is a compiler built in to handle the different address 
....................    spaces */ 
....................  
.................... #define strcopy strcpy 
....................  
.................... /* standard template: 
....................    char *strncpy(char *s1, const char *s2, size_t n). 
....................    Copies max of n characters (not following ending '\0') 
....................    from s2 in s1; if s2 has less than n characters, appends 0 */ 
....................  
.................... char *strncpy(char *s1, char *s2, size_t n) 
.................... { 
....................   char *s; 
....................  
....................   for (s = s1; n > 0 && *s2 != '\0'; n--) 
....................      *s++ = *s2++; 
....................   for (; n > 0; n--) 
....................      *s++ = '\0'; 
....................  
....................   return(s1); 
.................... } 
.................... /***********************************************************/ 
....................  
.................... /*concatenation functions*/ 
.................... /* standard template: char *strcat(char *s1, const char *s2) 
.................... appends s2 to s1*/ 
....................  
.................... char *strcat(char *s1, char *s2) 
.................... { 
....................    char *s; 
....................  
....................    for (s = s1; *s != '\0'; ++s); 
....................    while(*s2 != '\0') 
....................    { 
....................       *s = *s2; 
....................       ++s; 
....................       ++s2; 
....................    } 
....................  
....................    *s = '\0'; 
....................    return(s1); 
.................... } 
.................... /* standard template: char *strncat(char *s1, char *s2,size_t n) 
.................... appends not more than n characters from s2 to s1*/ 
....................  
.................... char *strncat(char *s1, char *s2, size_t n) 
.................... { 
....................    char *s; 
....................  
....................    for (s = s1; *s != '\0'; ++s); 
....................    while(*s2 != '\0' && 0<n) 
....................    { 
....................       *s = *s2; 
....................       ++s; 
....................       ++s2; 
....................       --n; 
....................    } 
....................  
....................    *s = '\0'; 
....................    return(s1); 
.................... } 
....................  
.................... /***********************************************************/ 
....................  
....................  
.................... /*comparison functions*/ 
.................... /* standard template: signed int memcmp(void *s1, void *s2). 
....................    Compares s1 & s2; returns -1 if s1<s2, 0 if s1=s2, 1 if s1>s2 */ 
....................  
.................... signed int8 memcmp(void * s1,char *s2,size_t n) 
.................... { 
.................... char *su1, *su2; 
.................... for(su1=s1, su2=s2; 0<n; ++su1, ++su2, --n) 
.................... { 
....................    if(*su1!=*su2) 
....................       return ((*su1<*su2)?-1:+1); 
.................... } 
.................... return 0; 
.................... } 
....................  
.................... /* standard template: int strcmp(const char *s1, const char *s2). 
....................    Compares s1 & s2; returns -1 if s1<s2, 0 if s1=s2, 1 if s1>s2 */ 
....................  
.................... signed int8 strcmp(char *s1, char *s2) 
.................... { 
....................    for (; *s1 == *s2; s1++, s2++) 
....................       if (*s1 == '\0') 
....................          return(0); 
....................    return((*s1 < *s2) ? -1: 1); 
.................... } 
.................... /* standard template: int strcoll(const char *s1, const char *s2). 
....................    Compares s1 & s2; returns -1 if s1<s2, 0 if s1=s2, 1 if s1>s2 */ 
....................  
.................... signed int8 strcoll(char *s1, char *s2) 
.................... { 
....................    for (; *s1 == *s2; s1++, s2++) 
....................       if (*s1 == '\0') 
....................          return(0); 
....................    return((*s1 < *s2) ? -1: 1); 
.................... } 
....................  
.................... /* standard template: 
....................    int strncmp(const char *s1, const char *s2, size_t n). 
....................    Compares max of n characters (not following 0) from s1 to s2; 
....................    returns same as strcmp */ 
....................  
.................... signed int8 strncmp(char *s1, char *s2, size_t n) 
.................... { 
....................    for (; n > 0; s1++, s2++, n--) 
....................       if (*s1 != *s2) 
....................          return((*s1 <*s2) ? -1: 1); 
....................       else if (*s1 == '\0') 
....................          return(0); 
....................    return(0); 
.................... } 
.................... /* standard template: 
....................    int strxfrm(const char *s1, const char *s2, size_t n). 
....................    transforms maximum of n characters from s2 and places them into s1*/ 
.................... size_t strxfrm(char *s1, char *s2, size_t n) 
.................... { 
....................   char *s; 
....................   unsigned int8 n1; 
....................   n1=n; 
....................   for (s = s1; n > 0 && *s2 != '\0'; n--) 
....................      *s++ = *s2++; 
....................   for (; n > 0; n--) 
....................      *s++ = '\0'; 
....................  
....................   return(n1); 
.................... } 
....................  
....................  
....................  
....................  
....................  
.................... /***********************************************************/ 
.................... /*Search functions*/ 
.................... /* standard template: void *memchr(const char *s, int c). 
....................    Finds first occurrence of c in n characters of s */ 
....................  
.................... char *memchr(void *s,unsigned int8 c,size_t n) 
.................... { 
....................    char uc; 
....................    char *su; 
....................    uc=c; 
....................    for(su=s;0<n;++su,--n) 
....................       if(*su==uc) 
....................       return su; 
....................    return NULL; 
.................... } 
....................  
.................... /* standard template: char *strchr(const char *s, int c). 
....................    Finds first occurrence of c in s */ 
....................  
.................... char *strchr(char *s, unsigned int8 c) 
.................... { 
....................    for (; *s != c; s++) 
....................       if (*s == '\0') 
....................          return(0); 
....................    return(s); 
.................... } 
.................... /* standard template: 
....................    size_t strcspn(const char *s1, const char *s2). 
....................    Computes length of max initial segment of s1 that 
....................    consists entirely of characters NOT from s2*/ 
....................  
.................... unsigned int8  strcspn(char *s1, char *s2) 
.................... { 
....................    char *sc1, *sc2; 
....................  
....................    for (sc1 = s1; *sc1 != 0; sc1++) 
....................       for (sc2 = s2; *sc2 != 0; sc2++) 
....................          if (*sc1 == *sc2) 
....................             return(sc1 - s1); 
....................    return(sc1 - s1); 
.................... } 
.................... /* standard template: 
....................    char *strpbrk(const char *s1, const char *s2). 
....................    Locates first occurence of any character from s2 in s1; 
....................    returns s1 if s2 is empty string */ 
....................  
.................... char *strpbrk(char *s1, char *s2) 
.................... { 
....................    char *sc1, *sc2; 
....................  
....................    for (sc1 = s1; *sc1 != 0; sc1++) 
....................       for (sc2 = s2; *sc2 != 0; sc2++) 
....................          if (*sc1 == *sc2) 
....................             return(sc1); 
....................    return(0); 
.................... } 
....................  
....................  
.................... /* standard template: char *strrchr(const char *s, int c). 
....................    Finds last occurrence of c in s */ 
....................  
.................... char *strrchr(char *s, unsigned int8 c) 
.................... { 
....................    char *p; 
....................  
....................    for (p = 0; ; s++) 
....................    { 
....................       if (*s == c) 
....................          p = s; 
....................       if (*s == '\0') 
....................          return(p); 
....................    } 
.................... } 
.................... /* computes length of max initial segment of s1 consisting 
....................    entirely of characters from s2 */ 
....................  
.................... unsigned int8  strspn(char *s1, char *s2) 
.................... { 
....................    char *sc1, *sc2; 
....................  
....................    for (sc1 = s1; *sc1 != 0; sc1++) 
....................       for (sc2 = s2; ; sc2++) 
....................     if (*sc2 == '\0') 
....................        return(sc1 - s1); 
....................          else if (*sc1 == *sc2) 
....................             break; 
....................    return(sc1 - s1); 
.................... } 
.................... /* standard template: 
....................    char *strstr(const char *s1, const char *s2); 
....................    Locates first occurence of character sequence s2 in s1; 
....................    returns 0 if s2 is empty string 
....................  
....................    Uncomment #define FASTER_BUT_MORE_ROM at the top of the 
....................    file to use the faster algorithm */ 
.................... char *strstr(char *s1, char *s2) 
.................... { 
....................    char *s, *t; 
....................  
....................    #ifdef FASTER_BUT_MORE_ROM 
....................    if (*s2 == '\0') 
....................          return(s1); 
....................    #endif 
....................  
....................    while (*s1) 
....................    { 
....................       for(s = s1, t = s2; *t && (*s == *t); ++s, ++t); 
....................  
....................       if (*t == '\0') 
....................          return s1; 
....................       ++s1; 
....................       #ifdef FASTER_BUT_MORE_ROM 
....................          while(*s1 != '\0' && *s1 != *s2) 
....................             ++s1; 
....................       #endif 
....................    } 
....................    return 0; 
.................... } 
....................  
.................... /* standard template: char *strtok(char *s1, const char *s2). 
....................  
....................    Finds next token in s1 delimited by a character from separator 
....................    string s2 (which can be different from call to call).  First call 
....................    starts at beginning of s1 searching for first character NOT 
....................    contained in s2; returns 0 if none is found. 
....................    If one is found, it is the start of first token (return value). 
....................    Function then searches from there for a character contained in s2. 
....................    If none is found, current token extends to end of s1, and subsequent 
....................    searches for a token will return 0.  If one is found, it is 
....................    overwritten by '\0', which terminates current token.  Function saves 
....................    pointer to following character from which next search will start. 
....................    Each subsequent call, with 0 as first argument, starts searching 
....................    from saved pointer */ 
....................  
.................... char *strtok(char *s1, char *s2) 
.................... { 
....................    char *beg, *end; 
....................    static char *save; 
....................  
....................    beg = (s1)? s1: save; 
....................    beg += strspn(beg, s2); 
....................    if (*beg == '\0') 
....................    { 
....................       *save = ' '; 
....................       return(0); 
....................    } 
....................    end = strpbrk(beg, s2); 
....................    if (*end != '\0') 
....................    { 
....................       *end = '\0'; 
....................       end++; 
....................    } 
....................    save = end; 
....................    return(beg); 
.................... } 
....................  
.................... /*****************************************************************/ 
.................... /*Miscellaneous functions*/ 
.................... /* standard template 
.................... maps error number in errnum to an error message string 
.................... Returns: Pointer to string 
.................... */ 
.................... #ifdef _ERRNO 
.................... char * strerror(unsigned int8 errnum) 
.................... { 
.................... char s[15]; 
.................... switch( errnum) 
.................... { 
.................... case 0: 
....................    strcpy(s,"no errors"); 
....................    return s; 
.................... case EDOM : 
....................    strcpy(s,"domain error"); 
....................    return s; 
.................... case ERANGE: 
....................    strcpy(s,"range error"); 
....................    return s; 
.................... } 
.................... } 
.................... #ENDIF 
.................... /* standard template: size_t strlen(const char *s). 
....................    Computes length of s1 (preceding terminating 0) */ 
....................  
.................... unsigned int8 strlen(char *s) 
.................... { 
....................    char *sc; 
....................  
....................    for (sc = s; *sc != 0; sc++); 
....................    return(sc - s); 
.................... } 
....................  
.................... /* standard template: size_t stricmp(const char *s1, const char *s2). 
....................    Compares s1 to s2 ignoring case (upper vs. lower) */ 
....................  
.................... signed int8 stricmp(char *s1, char *s2) 
.................... { 
....................  for(; *s1==*s2||(isalpha(*s1)&&isalpha(*s2)&&(*s1==*s2+32||*s2==*s1+32)); 
....................     s1++, s2++) 
....................     if (*s1 == '\0') 
....................        return(0); 
....................  return((*s1 < *s2) ? -1: 1); 
.................... } 
....................  
....................  
.................... /* standard template: char *strlwr(char *s). 
....................    Replaces uppercase letters by lowercase; 
....................    returns pointer to new string s */ 
....................  
.................... char *strlwr(char *s) 
.................... { 
....................    char *p; 
....................  
....................    for (p = s; *p != '\0'; p++) 
....................       if (*p >= 'A' && *p <='Z') 
....................          *p += 'a' - 'A'; 
....................    return(s); 
.................... } 
....................  
....................  
.................... /************************************************************/ 
....................  
....................  
.................... #endif 
....................  
.................... #include <stdlib.h> 
.................... /////////////////////////////////////////////////////////////////////////// 
.................... ////        (C) Copyright 1996,2007 Custom Computer Services           //// 
.................... //// This source code may only be used by licensed users of the CCS C  //// 
.................... //// compiler.  This source code may only be distributed to other      //// 
.................... //// licensed users of the CCS C compiler.  No other use, reproduction //// 
.................... //// or distribution is permitted without written permission.          //// 
.................... //// Derivative programs created using this software in object code    //// 
.................... //// form are not restricted in any way.                               //// 
.................... /////////////////////////////////////////////////////////////////////////// 
....................  
.................... #ifndef _STDLIB 
.................... #define _STDLIB 
....................  
.................... //--------------------------------------------------------------------------- 
.................... // Definitions and types 
.................... //--------------------------------------------------------------------------- 
....................  
.................... #ifndef RAND_MAX 
.................... #define RAND_MAX  32767    // The value of which is the maximum value 
....................                            // ... returned by the rand function 
.................... #endif 
....................  
....................  
.................... #IF (sizeof(int16*)>1) 
.................... #DEFINE LONG_POINTERS 1 
.................... #ELSE  
.................... #DEFINE LONG_POINTERS 0 
.................... #ENDIF 
....................  
.................... typedef struct { 
....................    signed int quot; 
....................    signed int rem; 
.................... } div_t; 
....................  
.................... typedef struct { 
....................    signed long quot; 
....................    signed long rem; 
.................... } ldiv_t; 
....................  
.................... #include <stddef.h> 
.................... /////////////////////////////////////////////////////////////////////////// 
.................... ////        (C) Copyright 1996,2003 Custom Computer Services           //// 
.................... //// This source code may only be used by licensed users of the CCS C  //// 
.................... //// compiler.  This source code may only be distributed to other      //// 
.................... //// licensed users of the CCS C compiler.  No other use, reproduction //// 
.................... //// or distribution is permitted without written permission.          //// 
.................... //// Derivative programs created using this software in object code    //// 
.................... //// form are not restricted in any way.                               //// 
.................... /////////////////////////////////////////////////////////////////////////// 
....................  
.................... #ifndef _STDDEF 
....................  
.................... #define _STDDEF 
....................  
.................... #if sizeof(unsigned int8 *)==1 
.................... #define ptrdiff_t unsigned int8 
.................... #else 
.................... #define ptrdiff_t unsigned int16 
.................... #endif 
....................  
.................... #define size_t unsigned int8 
.................... #define wchar_t char 
.................... #define NULL 0 
....................  
.................... #define offsetof(s,f) (offsetofbit(s,f)/8) 
....................  
.................... #endif 
....................  
....................  
.................... //--------------------------------------------------------------------------- 
.................... // String conversion functions 
.................... //--------------------------------------------------------------------------- 
....................  
.................... /* Standard template: signed int  atoi(char * s) 
....................  * converts the initial portion of the string s to a signed int 
....................  * returns the converted value if any, 0 otherwise 
....................  */ 
.................... signed int atoi(char *s); 
....................  
.................... /* Syntax: signed int32  atoi32(char * s) 
....................    converts the initial portion of the string s to a signed int32 
....................    returns the converted value if any, 0 otherwise*/ 
.................... #if (sizeof(long)==4) 
....................  #define atoi32(s) atol(s) 
.................... #else  
....................  signed int32 atoi32(char *s); 
.................... #endif 
....................  
.................... #if defined(__PCD__) 
.................... // The following functions only work on the 24 bit compiler 
.................... // for the 30F, 33F, 24F and 24H parts 
.................... /* Syntax: signed int48  atoi48(char * s) 
....................    converts the initial portion of the string s to a signed int48 
....................    returns the converted value if any, 0 otherwise*/ 
....................     
.................... signed int48 atoi48(char *s); 
....................  
.................... /* Syntax: signed int64  atoi64(char * s) 
....................    converts the initial portion of the string s to a signed int64 
....................    returns the converted value if any, 0 otherwise*/ 
.................... signed int64 atoi64(char *s); 
.................... #endif 
....................  
.................... /* Syntax: char *  itoa(signed int32 num, int8 base, char * s) 
....................    converts the signed int32 to a string and 
....................    returns the converted value if any, 0 otherwise*/ 
.................... char * itoa(signed int32 num, unsigned int base, char * s); 
....................  
.................... /* Standard template: signed int16  atol(char * s) 
....................  * converts the initial portion of the string s to a signed int16 
....................  * returns the converted value if any, 0 otherwise 
....................  */ 
.................... signed long atol(char *s); 
....................  
.................... /* Standard template: int16 strtoul(char * s,char *endptr,signed int base) 
....................  * converts the initial portion of the string s, represented as an 
....................  * integral value of radix base  to a signed long. 
....................  * Returns the converted value if any, 0 otherwise 
....................  * the final string is returned in the endptr, if endptr is not null 
....................  */ 
.................... signed long strtol(char *s,char *endptr, signed int base); 
....................  
.................... /* Standard template: int16 strtoul(char * s,char *endptr,signed int base) 
....................  * converts the initial portion of the string s, represented as an 
....................  * integral value of radix base to a unsigned long. 
....................  * returns the converted value if any, 0 otherwise 
....................  * the final string is returned in the endptr, if endptr is not null 
....................  */ 
.................... unsigned long strtoul(char *s,char *endptr, signed int base); 
....................  
.................... /* Standart template: float strtof(char * s,char *endptr) 
....................                       float48 strtof48(char *s,char *endptr); 
....................                       float64 strtod(char *s,char *endptr); 
....................  * converts the initial portion of the string s to a float32, float48 or float64, 
....................  * returns the converted value if any, 0 otherwise 
....................  * the final string is returned in the endptr, if endptr is not null                    
.................... */ 
.................... float strtof(char *s,char *endptr); 
.................... #if defined(__PCD__) 
.................... float48 strtof48(char *s,char *endptr); 
.................... float64 strtod(char *s,char *endptr); 
.................... #else 
.................... //provided for compatibility 
.................... #define strtof48(s, e) strtof(s, e) 
.................... #define strtod(s, e) strtof(s, e) 
.................... #endif 
....................  
.................... /* Standard template: float32 atof(char * s) 
....................  * converts the initial portion of the string s to a float. 
....................  * returns the converted value if any, 0 otherwise 
....................  */ 
.................... #define atof(s)   strtof(s, 0) 
....................  
.................... #if defined(__PCD__) 
.................... // The following functions only work on the 24 bit compiler 
.................... // for the 30F, 33F, 24F and 24H parts 
....................  
.................... /* Standard template: float48 atof48(char * s) 
....................  * converts the initial portion of the string s to a float. 
....................  * returns the converted value if any, 0 otherwise 
....................  */ 
.................... #define atof48(s) strtof48(s, 0) 
....................  
.................... /* Standard template: float64 atof64(char * s) 
....................  * converts the initial portion of the string s to a float. 
....................  * returns the converted value if any, 0 otherwise 
....................  */ 
.................... #define atof64(s) strtod(s, 0) 
.................... #endif 
....................  
.................... /* Standard template: float32 atoe(char * s) 
....................  * converts the initial portion of the string s to a float. 
....................  * returns the converted value if any, 0 otherwise 
....................  * also handles E format numbers 
....................  */ 
.................... #if !defined(__PCD__) 
.................... float atoe(char * s); 
.................... #endif 
....................  
.................... #if defined(__PCD__) 
.................... float32 atoe(char * s); 
.................... #endif 
....................  
.................... //--------------------------------------------------------------------------- 
.................... // Pseudo-random sequence generation functions 
.................... //--------------------------------------------------------------------------- 
....................  
.................... /* The rand function computes a sequence of pseudo-random integers in 
....................  * the range 0 to RAND_MAX 
....................  * 
....................  * Parameters: 
....................  *       (none) 
....................  * 
....................  * Returns: 
....................  *       The pseudo-random integer 
....................  */ 
.................... unsigned int16 rand(void); 
....................  
.................... /* The srand function uses the argument as a seed for a new sequence of 
....................  * pseudo-random numbers to be returned by subsequent calls to rand. 
....................  * 
....................  * Parameters: 
....................  *       [in] seed: The seed value to start from. You might need to pass 
....................  * 
....................  * Returns: 
....................  *       (none) 
....................  * 
....................  * Remarks 
....................  *          The srand function sets the starting point for generating 
....................  *       a series of pseudorandom integers. To reinitialize the 
....................  *       generator, use 1 as the seed argument. Any other value for 
....................  *       seed sets the generator to a random starting point. rand 
....................  *       retrieves the pseudorandom numbers that are generated. 
....................  *       Calling rand before any call to srand generates the same 
....................  *       sequence as calling srand with seed passed as 1. 
....................  *          Usually, you need to pass a time here from outer source 
....................  *       so that the numbers will be different every time you run. 
....................  */ 
.................... void srand(unsigned int32 seed); 
....................  
.................... //--------------------------------------------------------------------------- 
.................... // Memory management functions 
.................... //--------------------------------------------------------------------------- 
....................  
.................... // Comming soon 
....................  
.................... //--------------------------------------------------------------------------- 
.................... // Communication with the environment 
.................... //--------------------------------------------------------------------------- 
....................  
.................... /* The function returns 0 always 
....................  */ 
.................... signed int8 system(char *string); 
....................  
.................... //--------------------------------------------------------------------------- 
.................... // Searching and sorting utilities 
.................... //--------------------------------------------------------------------------- 
....................  
.................... /* Performs a binary search of a sorted array.. 
....................  * 
....................  * Parameters: 
....................  *       [in] key: Object to search for 
....................  *       [in] base: Pointer to base of search data 
....................  *       [in] num: Number of elements 
....................  *       [in] width: Width of elements 
....................  *       [in] compare: Function that compares two elements 
....................  * 
....................  * Returns: 
....................  *       bsearch returns a pointer to an occurrence of key in the array pointed 
....................  *       to by base. If key is not found, the function returns NULL. If the 
....................  *       array is not in order or contains duplicate records with identical keys, 
....................  *       the result is unpredictable. 
....................  */ 
.................... //void *bsearch(const void *key, const void *base, size_t num, size_t width, 
.................... //              int (*compare)(const void *, const void *)); 
....................  
.................... /* Performs the shell-metzner sort (not the quick sort algorithm). The contents 
....................  * of the array are sorted into ascending order according to a comparison 
....................  * function pointed to by compar. 
....................  * 
....................  * Parameters: 
....................  *       [in] base: Pointer to base of search data 
....................  *       [in] num: Number of elements 
....................  *       [in] width: Width of elements 
....................  *       [in] compare: Function that compares two elements 
....................  * 
....................  * Returns: 
....................  *       (none) 
....................  */ 
.................... //void *qsort(const void *base, size_t num, size_t width, 
.................... //              int (*compare)(const void *, const void *)); 
....................  
.................... //--------------------------------------------------------------------------- 
.................... // Integer arithmetic functions 
.................... //--------------------------------------------------------------------------- 
....................  
.................... #define labs abs 
....................  
.................... div_t div(signed int numer, signed int denom); 
.................... ldiv_t ldiv(signed long numer, signed long denom); 
....................  
.................... //--------------------------------------------------------------------------- 
.................... // Multibyte character functions 
.................... //--------------------------------------------------------------------------- 
....................  
.................... // Not supported 
....................  
.................... //--------------------------------------------------------------------------- 
.................... // Multibyte string functions 
.................... //--------------------------------------------------------------------------- 
....................  
.................... // Not supported 
....................  
....................  
.................... //--------------------------------------------------------------------------- 
.................... // Internal implementation 
.................... //--------------------------------------------------------------------------- 
....................  
.................... #include <stddef.h> 
.................... /////////////////////////////////////////////////////////////////////////// 
.................... ////        (C) Copyright 1996,2003 Custom Computer Services           //// 
.................... //// This source code may only be used by licensed users of the CCS C  //// 
.................... //// compiler.  This source code may only be distributed to other      //// 
.................... //// licensed users of the CCS C compiler.  No other use, reproduction //// 
.................... //// or distribution is permitted without written permission.          //// 
.................... //// Derivative programs created using this software in object code    //// 
.................... //// form are not restricted in any way.                               //// 
.................... /////////////////////////////////////////////////////////////////////////// 
....................  
.................... #ifndef _STDDEF 
....................  
.................... #define _STDDEF 
....................  
.................... #if sizeof(unsigned int8 *)==1 
.................... #define ptrdiff_t unsigned int8 
.................... #else 
.................... #define ptrdiff_t unsigned int16 
.................... #endif 
....................  
.................... #define size_t unsigned int8 
.................... #define wchar_t char 
.................... #define NULL 0 
....................  
.................... #define offsetof(s,f) (offsetofbit(s,f)/8) 
....................  
.................... #endif 
....................  
.................... #include <string.h> 
.................... //////////////////////////////////////////////////////////////////////////// 
.................... ////        (C) Copyright 1996,2008 Custom Computer Services            //// 
.................... //// This source code may only be used by licensed users of the CCS C   //// 
.................... //// compiler.  This source code may only be distributed to other       //// 
.................... //// licensed users of the CCS C compiler.  No other use, reproduction  //// 
.................... //// or distribution is permitted without written permission.           //// 
.................... //// Derivative programs created using this software in object code     //// 
.................... //// form are not restricted in any way.                                //// 
.................... //////////////////////////////////////////////////////////////////////////// 
....................  
.................... #ifndef _STRING 
.................... #define _STRING 
.................... #include <stddef.h> 
.................... #include <ctype.h> 
....................  
....................  
....................  
.................... ////////////////////////////////////////////// 
.................... //// Uncomment the following define to    //// 
.................... //// allow some functions to use a        //// 
.................... //// quicker algorithm, but use more ROM  //// 
.................... ////                                      //// 
.................... //// #define FASTER_BUT_MORE_ROM          //// 
.................... ////////////////////////////////////////////// 
....................  
....................  
....................  
.................... /*Copying functions*/ 
.................... /* standard template: 
....................    void *memmove(void *s1, void *s2, size_t n). 
....................    Copies max of n characters safely (not following ending '\0') 
....................    from s2 in s1; if s2 has less than n characters, appends 0 */ 
....................  
.................... char *memmove(void *s1,char *s2,size_t n) 
.................... { 
....................    char *sc1; 
....................    char *sc2; 
....................    sc1=s1; 
....................    sc2=s2; 
....................    if(sc2<sc1 && sc1 <sc2 +n) 
....................       for(sc1+=n,sc2+=n;0<n;--n) 
....................          *--sc1=*--sc2; 
....................    else 
....................       for(;0<n;--n) 
....................          *sc1++=*sc2++; 
....................   return s1; 
....................   } 
....................  
.................... /* Standard template: char *strcpy(char *s1, const char *s2) 
....................    copies the string s2 including the null character to s1. 
....................    This is a compiler built in to handle the different address 
....................    spaces */ 
....................  
.................... #define strcopy strcpy 
....................  
.................... /* standard template: 
....................    char *strncpy(char *s1, const char *s2, size_t n). 
....................    Copies max of n characters (not following ending '\0') 
....................    from s2 in s1; if s2 has less than n characters, appends 0 */ 
....................  
.................... char *strncpy(char *s1, char *s2, size_t n) 
.................... { 
....................   char *s; 
....................  
....................   for (s = s1; n > 0 && *s2 != '\0'; n--) 
....................      *s++ = *s2++; 
....................   for (; n > 0; n--) 
....................      *s++ = '\0'; 
....................  
....................   return(s1); 
.................... } 
.................... /***********************************************************/ 
....................  
.................... /*concatenation functions*/ 
.................... /* standard template: char *strcat(char *s1, const char *s2) 
.................... appends s2 to s1*/ 
....................  
.................... char *strcat(char *s1, char *s2) 
.................... { 
....................    char *s; 
....................  
....................    for (s = s1; *s != '\0'; ++s); 
....................    while(*s2 != '\0') 
....................    { 
....................       *s = *s2; 
....................       ++s; 
....................       ++s2; 
....................    } 
....................  
....................    *s = '\0'; 
....................    return(s1); 
.................... } 
.................... /* standard template: char *strncat(char *s1, char *s2,size_t n) 
.................... appends not more than n characters from s2 to s1*/ 
....................  
.................... char *strncat(char *s1, char *s2, size_t n) 
.................... { 
....................    char *s; 
....................  
....................    for (s = s1; *s != '\0'; ++s); 
....................    while(*s2 != '\0' && 0<n) 
....................    { 
....................       *s = *s2; 
....................       ++s; 
....................       ++s2; 
....................       --n; 
....................    } 
....................  
....................    *s = '\0'; 
....................    return(s1); 
.................... } 
....................  
.................... /***********************************************************/ 
....................  
....................  
.................... /*comparison functions*/ 
.................... /* standard template: signed int memcmp(void *s1, void *s2). 
....................    Compares s1 & s2; returns -1 if s1<s2, 0 if s1=s2, 1 if s1>s2 */ 
....................  
.................... signed int8 memcmp(void * s1,char *s2,size_t n) 
.................... { 
.................... char *su1, *su2; 
.................... for(su1=s1, su2=s2; 0<n; ++su1, ++su2, --n) 
.................... { 
....................    if(*su1!=*su2) 
....................       return ((*su1<*su2)?-1:+1); 
.................... } 
.................... return 0; 
.................... } 
....................  
.................... /* standard template: int strcmp(const char *s1, const char *s2). 
....................    Compares s1 & s2; returns -1 if s1<s2, 0 if s1=s2, 1 if s1>s2 */ 
....................  
.................... signed int8 strcmp(char *s1, char *s2) 
.................... { 
....................    for (; *s1 == *s2; s1++, s2++) 
....................       if (*s1 == '\0') 
....................          return(0); 
....................    return((*s1 < *s2) ? -1: 1); 
.................... } 
.................... /* standard template: int strcoll(const char *s1, const char *s2). 
....................    Compares s1 & s2; returns -1 if s1<s2, 0 if s1=s2, 1 if s1>s2 */ 
....................  
.................... signed int8 strcoll(char *s1, char *s2) 
.................... { 
....................    for (; *s1 == *s2; s1++, s2++) 
....................       if (*s1 == '\0') 
....................          return(0); 
....................    return((*s1 < *s2) ? -1: 1); 
.................... } 
....................  
.................... /* standard template: 
....................    int strncmp(const char *s1, const char *s2, size_t n). 
....................    Compares max of n characters (not following 0) from s1 to s2; 
....................    returns same as strcmp */ 
....................  
.................... signed int8 strncmp(char *s1, char *s2, size_t n) 
.................... { 
....................    for (; n > 0; s1++, s2++, n--) 
....................       if (*s1 != *s2) 
....................          return((*s1 <*s2) ? -1: 1); 
....................       else if (*s1 == '\0') 
....................          return(0); 
....................    return(0); 
.................... } 
.................... /* standard template: 
....................    int strxfrm(const char *s1, const char *s2, size_t n). 
....................    transforms maximum of n characters from s2 and places them into s1*/ 
.................... size_t strxfrm(char *s1, char *s2, size_t n) 
.................... { 
....................   char *s; 
....................   unsigned int8 n1; 
....................   n1=n; 
....................   for (s = s1; n > 0 && *s2 != '\0'; n--) 
....................      *s++ = *s2++; 
....................   for (; n > 0; n--) 
....................      *s++ = '\0'; 
....................  
....................   return(n1); 
.................... } 
....................  
....................  
....................  
....................  
....................  
.................... /***********************************************************/ 
.................... /*Search functions*/ 
.................... /* standard template: void *memchr(const char *s, int c). 
....................    Finds first occurrence of c in n characters of s */ 
....................  
.................... char *memchr(void *s,unsigned int8 c,size_t n) 
.................... { 
....................    char uc; 
....................    char *su; 
....................    uc=c; 
....................    for(su=s;0<n;++su,--n) 
....................       if(*su==uc) 
....................       return su; 
....................    return NULL; 
.................... } 
....................  
.................... /* standard template: char *strchr(const char *s, int c). 
....................    Finds first occurrence of c in s */ 
....................  
.................... char *strchr(char *s, unsigned int8 c) 
.................... { 
....................    for (; *s != c; s++) 
....................       if (*s == '\0') 
....................          return(0); 
....................    return(s); 
.................... } 
.................... /* standard template: 
....................    size_t strcspn(const char *s1, const char *s2). 
....................    Computes length of max initial segment of s1 that 
....................    consists entirely of characters NOT from s2*/ 
....................  
.................... unsigned int8  strcspn(char *s1, char *s2) 
.................... { 
....................    char *sc1, *sc2; 
....................  
....................    for (sc1 = s1; *sc1 != 0; sc1++) 
....................       for (sc2 = s2; *sc2 != 0; sc2++) 
....................          if (*sc1 == *sc2) 
....................             return(sc1 - s1); 
....................    return(sc1 - s1); 
.................... } 
.................... /* standard template: 
....................    char *strpbrk(const char *s1, const char *s2). 
....................    Locates first occurence of any character from s2 in s1; 
....................    returns s1 if s2 is empty string */ 
....................  
.................... char *strpbrk(char *s1, char *s2) 
.................... { 
....................    char *sc1, *sc2; 
....................  
....................    for (sc1 = s1; *sc1 != 0; sc1++) 
....................       for (sc2 = s2; *sc2 != 0; sc2++) 
....................          if (*sc1 == *sc2) 
....................             return(sc1); 
....................    return(0); 
.................... } 
....................  
....................  
.................... /* standard template: char *strrchr(const char *s, int c). 
....................    Finds last occurrence of c in s */ 
....................  
.................... char *strrchr(char *s, unsigned int8 c) 
.................... { 
....................    char *p; 
....................  
....................    for (p = 0; ; s++) 
....................    { 
....................       if (*s == c) 
....................          p = s; 
....................       if (*s == '\0') 
....................          return(p); 
....................    } 
.................... } 
.................... /* computes length of max initial segment of s1 consisting 
....................    entirely of characters from s2 */ 
....................  
.................... unsigned int8  strspn(char *s1, char *s2) 
.................... { 
....................    char *sc1, *sc2; 
....................  
....................    for (sc1 = s1; *sc1 != 0; sc1++) 
....................       for (sc2 = s2; ; sc2++) 
....................     if (*sc2 == '\0') 
....................        return(sc1 - s1); 
....................          else if (*sc1 == *sc2) 
....................             break; 
....................    return(sc1 - s1); 
.................... } 
.................... /* standard template: 
....................    char *strstr(const char *s1, const char *s2); 
....................    Locates first occurence of character sequence s2 in s1; 
....................    returns 0 if s2 is empty string 
....................  
....................    Uncomment #define FASTER_BUT_MORE_ROM at the top of the 
....................    file to use the faster algorithm */ 
.................... char *strstr(char *s1, char *s2) 
.................... { 
....................    char *s, *t; 
....................  
....................    #ifdef FASTER_BUT_MORE_ROM 
....................    if (*s2 == '\0') 
....................          return(s1); 
....................    #endif 
....................  
....................    while (*s1) 
....................    { 
....................       for(s = s1, t = s2; *t && (*s == *t); ++s, ++t); 
....................  
....................       if (*t == '\0') 
....................          return s1; 
....................       ++s1; 
....................       #ifdef FASTER_BUT_MORE_ROM 
....................          while(*s1 != '\0' && *s1 != *s2) 
....................             ++s1; 
....................       #endif 
....................    } 
....................    return 0; 
.................... } 
....................  
.................... /* standard template: char *strtok(char *s1, const char *s2). 
....................  
....................    Finds next token in s1 delimited by a character from separator 
....................    string s2 (which can be different from call to call).  First call 
....................    starts at beginning of s1 searching for first character NOT 
....................    contained in s2; returns 0 if none is found. 
....................    If one is found, it is the start of first token (return value). 
....................    Function then searches from there for a character contained in s2. 
....................    If none is found, current token extends to end of s1, and subsequent 
....................    searches for a token will return 0.  If one is found, it is 
....................    overwritten by '\0', which terminates current token.  Function saves 
....................    pointer to following character from which next search will start. 
....................    Each subsequent call, with 0 as first argument, starts searching 
....................    from saved pointer */ 
....................  
.................... char *strtok(char *s1, char *s2) 
.................... { 
....................    char *beg, *end; 
....................    static char *save; 
....................  
....................    beg = (s1)? s1: save; 
....................    beg += strspn(beg, s2); 
....................    if (*beg == '\0') 
....................    { 
....................       *save = ' '; 
....................       return(0); 
....................    } 
....................    end = strpbrk(beg, s2); 
....................    if (*end != '\0') 
....................    { 
....................       *end = '\0'; 
....................       end++; 
....................    } 
....................    save = end; 
....................    return(beg); 
.................... } 
....................  
.................... /*****************************************************************/ 
.................... /*Miscellaneous functions*/ 
.................... /* standard template 
.................... maps error number in errnum to an error message string 
.................... Returns: Pointer to string 
.................... */ 
.................... #ifdef _ERRNO 
.................... char * strerror(unsigned int8 errnum) 
.................... { 
.................... char s[15]; 
.................... switch( errnum) 
.................... { 
.................... case 0: 
....................    strcpy(s,"no errors"); 
....................    return s; 
.................... case EDOM : 
....................    strcpy(s,"domain error"); 
....................    return s; 
.................... case ERANGE: 
....................    strcpy(s,"range error"); 
....................    return s; 
.................... } 
.................... } 
.................... #ENDIF 
.................... /* standard template: size_t strlen(const char *s). 
....................    Computes length of s1 (preceding terminating 0) */ 
....................  
.................... unsigned int8 strlen(char *s) 
.................... { 
....................    char *sc; 
....................  
....................    for (sc = s; *sc != 0; sc++); 
....................    return(sc - s); 
.................... } 
....................  
.................... /* standard template: size_t stricmp(const char *s1, const char *s2). 
....................    Compares s1 to s2 ignoring case (upper vs. lower) */ 
....................  
.................... signed int8 stricmp(char *s1, char *s2) 
.................... { 
....................  for(; *s1==*s2||(isalpha(*s1)&&isalpha(*s2)&&(*s1==*s2+32||*s2==*s1+32)); 
....................     s1++, s2++) 
....................     if (*s1 == '\0') 
....................        return(0); 
....................  return((*s1 < *s2) ? -1: 1); 
.................... } 
....................  
....................  
.................... /* standard template: char *strlwr(char *s). 
....................    Replaces uppercase letters by lowercase; 
....................    returns pointer to new string s */ 
....................  
.................... char *strlwr(char *s) 
.................... { 
....................    char *p; 
....................  
....................    for (p = s; *p != '\0'; p++) 
....................       if (*p >= 'A' && *p <='Z') 
....................          *p += 'a' - 'A'; 
....................    return(s); 
.................... } 
....................  
....................  
.................... /************************************************************/ 
....................  
....................  
.................... #endif 
....................  
....................  
.................... div_t div(signed int numer, signed int denom) 
.................... { 
....................    div_t val; 
....................    val.quot = numer / denom; 
....................    val.rem = numer - (denom * val.quot); 
....................    return (val); 
.................... } 
....................  
.................... ldiv_t ldiv(signed long numer, signed long denom) 
.................... { 
....................    ldiv_t val; 
....................  
....................    val.quot = numer / denom; 
....................    val.rem = numer - (denom * val.quot); 
....................    return (val); 
.................... } 
....................  
.................... #if defined(__PCD__) 
.................... float32 atoe(char * s) 
.................... { 
....................    float32 pow10 = 1.0; 
....................    float32 result = 0.0; 
....................    unsigned int8 sign = 0; 
....................    unsigned int8 expsign = 0; 
....................    char c; 
....................    unsigned int8 ptr = 0; 
....................    unsigned int8 i; 
....................    float32 exp = 1.0; 
....................    unsigned int8 expcnt = 0; 
....................  
....................    c = s[ptr++]; 
....................  
....................    if ((c>='0' && c<='9') || c=='+' || c=='-' || c=='.' || c=='E' || c=='e') { 
....................       if(c == '-') { 
....................          sign = 1; 
....................          c = s[ptr++]; 
....................       } 
....................       if(c == '+') 
....................          c = s[ptr++]; 
....................  
....................       while((c >= '0' && c <= '9')) { 
....................          result = 10*result + c - '0'; 
....................          c = s[ptr++]; 
....................       } 
....................  
....................       if (c == '.') { 
....................          c = s[ptr++]; 
....................          while((c >= '0' && c <= '9')) { 
....................              pow10 = pow10*10; 
....................              result += (c - '0')/pow10; 
....................              c = s[ptr++]; 
....................          } 
....................       } 
....................  
....................       // Handling the exponent 
....................       if (c=='e' || c=='E') { 
....................          c = s[ptr++]; 
....................  
....................          if(c == '-') { 
....................             expsign = 1; 
....................             c = s[ptr++]; 
....................          } 
....................          if(c == '+') 
....................             c = s[ptr++]; 
....................  
....................          while((c >= '0' && c <= '9')) { 
....................             expcnt = 10*expcnt + c - '0'; 
....................             c = s[ptr++]; 
....................          } 
....................  
....................          for(i=0;i<expcnt;i++) 
....................             exp*=10; 
....................  
....................          if(expsign==1) 
....................             result/=exp; 
....................          else 
....................             result*=exp; 
....................       } 
....................    } 
....................  
....................    if (sign == 1) 
....................       result = -1*result; 
....................    return(result); 
.................... } 
.................... #endif 
....................  
.................... #if !defined(__PCD__) 
.................... float atoe(char * s) 
.................... { 
....................    float pow10 = 1.0; 
....................    float result = 0.0; 
....................    unsigned int8 sign = 0; 
....................    unsigned int8 expsign = 0; 
....................    char c; 
....................    unsigned int8 ptr = 0; 
....................    unsigned int8 i; 
....................    float exp = 1.0; 
....................    unsigned int8 expcnt = 0; 
....................  
....................    c = s[ptr++]; 
....................  
....................    if ((c>='0' && c<='9') || c=='+' || c=='-' || c=='.' || c=='E' || c=='e') { 
....................       if(c == '-') { 
....................          sign = 1; 
....................          c = s[ptr++]; 
....................       } 
....................       if(c == '+') 
....................          c = s[ptr++]; 
....................  
....................       while((c >= '0' && c <= '9')) { 
....................          result = 10*result + c - '0'; 
....................          c = s[ptr++]; 
....................       } 
....................  
....................       if (c == '.') { 
....................          c = s[ptr++]; 
....................          while((c >= '0' && c <= '9')) { 
....................              pow10 = pow10*10; 
....................              result += (c - '0')/pow10; 
....................              c = s[ptr++]; 
....................          } 
....................       } 
....................  
....................       // Handling the exponent 
....................       if (c=='e' || c=='E') { 
....................          c = s[ptr++]; 
....................  
....................          if(c == '-') { 
....................             expsign = 1; 
....................             c = s[ptr++]; 
....................          } 
....................          if(c == '+') 
....................             c = s[ptr++]; 
....................  
....................          while((c >= '0' && c <= '9')) { 
....................             expcnt = 10*expcnt + c - '0'; 
....................             c = s[ptr++]; 
....................          } 
....................  
....................          for(i=0;i<expcnt;i++) 
....................             exp*=10; 
....................  
....................          if(expsign==1) 
....................             result/=exp; 
....................          else 
....................             result*=exp; 
....................       } 
....................    } 
....................  
....................    if (sign == 1) 
....................       result = -1*result; 
....................    return(result); 
.................... } 
.................... #endif 
....................  
.................... signed int atoi(char *s) 
.................... { 
....................    signed int result; 
....................    unsigned int sign, base, index; 
....................    char c; 
....................  
....................    index = 0; 
....................    sign = 0; 
....................    base = 10; 
....................    result = 0; 
....................  
....................    if (!s) 
....................       return 0; 
....................    // Omit all preceeding alpha characters 
....................    c = s[index++]; 
....................  
....................    // increase index if either positive or negative sign is detected 
....................    if (c == '-') 
....................    { 
....................       sign = 1;         // Set the sign to negative 
....................       c = s[index++]; 
....................    } 
....................    else if (c == '+') 
....................    { 
....................       c = s[index++]; 
....................    } 
....................  
....................    if (c >= '0' && c <= '9') 
....................    { 
....................  
....................       // Check for hexa number 
....................       if (c == '0' && (s[index] == 'x' || s[index] == 'X')) 
....................       { 
....................          base = 16; 
....................          index++; 
....................          c = s[index++]; 
....................       } 
....................  
....................       // The number is a decimal number 
....................       if (base == 10) 
....................       { 
....................          while (c >= '0' && c <= '9') 
....................          { 
....................             result = 10*result + (c - '0'); 
....................             c = s[index++]; 
....................          } 
....................       } 
....................       else if (base == 16)    // The number is a hexa number 
....................       { 
....................          c = toupper(c); 
....................          while ( (c >= '0' && c <= '9') || (c >= 'A' && c<='F')) 
....................          { 
....................             if (c >= '0' && c <= '9') 
....................                result = (result << 4) + (c - '0'); 
....................             else 
....................                result = (result << 4) + (c - 'A' + 10); 
....................  
....................             c = s[index++]; 
....................             c = toupper(c); 
....................          } 
....................       } 
....................    } 
....................  
....................    if (sign == 1 && base == 10) 
....................        result = -result; 
....................  
....................    return(result); 
.................... } 
....................  
.................... signed long atol(char *s) 
.................... { 
....................    signed long result; 
....................    unsigned int sign, base, index; 
....................    char c; 
....................  
....................    index = 0; 
....................    sign = 0; 
....................    base = 10; 
....................    result = 0; 
....................  
....................    if (!s) 
....................       return 0; 
....................    c = s[index++]; 
....................  
....................    // increase index if either positive or negative sign is detected 
....................    if (c == '-') 
....................    { 
....................       sign = 1;         // Set the sign to negative 
....................       c = s[index++]; 
....................    } 
....................    else if (c == '+') 
....................    { 
....................       c = s[index++]; 
....................    } 
....................  
....................    if (c >= '0' && c <= '9') 
....................    { 
....................       if (c == '0' && (s[index] == 'x' || s[index] == 'X')) 
....................       { 
....................          base = 16; 
....................          index++; 
....................          c = s[index++]; 
....................       } 
....................  
....................       // The number is a decimal number 
....................       if (base == 10) 
....................       { 
....................          while (c >= '0' && c <= '9') 
....................          { 
....................             result = 10*result + (c - '0'); 
....................             c = s[index++]; 
....................          } 
....................       } 
....................       else if (base == 16)    // The number is a hexa number 
....................       { 
....................          c = toupper(c); 
....................          while ( (c >= '0' && c <= '9') || (c >= 'A' && c <='F')) 
....................          { 
....................             if (c >= '0' && c <= '9') 
....................                result = (result << 4) + (c - '0'); 
....................             else 
....................                result = (result << 4) + (c - 'A' + 10); 
....................  
....................             c = s[index++];c = toupper(c); 
....................          } 
....................       } 
....................    } 
....................  
....................    if (base == 10 && sign == 1) 
....................       result = -result; 
....................  
....................    return(result); 
.................... } 
....................  
.................... /* A fast routine to multiply by 10 
....................  */ 
.................... signed int32 mult_with10(int32 num) 
.................... { 
....................    return ( (num << 1) + (num << 3) ); 
.................... } 
....................  
.................... #if sizeof(long)==2 
.................... signed int32 atoi32(char *s) 
.................... { 
....................    signed int32 result; 
....................    int8 sign, base, index; 
....................    char c; 
....................  
....................    index = 0; 
....................    sign = 0; 
....................    base = 10; 
....................    result = 0; 
....................  
....................    if (!s) 
....................       return 0; 
....................    c = s[index++]; 
....................  
....................    // increase index if either positive or negative sign is detected 
....................    if (c == '-') 
....................    { 
....................       sign = 1;         // Set the sign to negative 
....................       c = s[index++]; 
....................    } 
....................    else if (c == '+') 
....................    { 
....................       c = s[index++]; 
....................    } 
....................  
....................    if (c >= '0' && c <= '9') 
....................    { 
....................       if (c == '0' && (s[index] == 'x' || s[index] == 'X')) 
....................       { 
....................          base = 16; 
....................          index++; 
....................          c = s[index++]; 
....................       } 
....................  
....................       // The number is a decimal number 
....................       if (base == 10) 
....................       { 
....................          while (c >= '0' && c <= '9') { 
....................             result = (result << 1) + (result << 3);  // result *= 10; 
....................             result += (c - '0'); 
....................             c = s[index++]; 
....................          } 
....................       } 
....................       else if (base == 16)    // The number is a hexa number 
....................       { 
....................          c = toupper(c); 
....................          while ((c >= '0' && c <= '9') || (c >= 'A' && c <='F')) 
....................          { 
....................             if (c >= '0' && c <= '9') 
....................                result = (result << 4) + (c - '0'); 
....................             else 
....................                result = (result << 4) + (c - 'A' + 10); 
....................  
....................             c = s[index++];c = toupper(c); 
....................          } 
....................       } 
....................    } 
....................  
....................    if (base == 10 && sign == 1) 
....................       result = -result; 
....................  
....................    return(result); 
.................... } 
.................... #endif 
....................  
.................... #if defined(__PCD__) 
....................  
.................... signed int48 atoi48(char *s) 
.................... { 
....................    signed int48 result; 
....................    int8 sign, base, index; 
....................    char c; 
....................  
....................    index = 0; 
....................    sign = 0; 
....................    base = 10; 
....................    result = 0; 
....................  
....................    if (!s) 
....................       return 0; 
....................    c = s[index++]; 
....................  
....................    // increase index if either positive or negative sign is detected 
....................    if (c == '-') 
....................    { 
....................       sign = 1;         // Set the sign to negative 
....................       c = s[index++]; 
....................    } 
....................    else if (c == '+') 
....................    { 
....................       c = s[index++]; 
....................    } 
....................  
....................    if (c >= '0' && c <= '9') 
....................    { 
....................       if (c == '0' && (s[index] == 'x' || s[index] == 'X')) 
....................       { 
....................          base = 16; 
....................          index++; 
....................          c = s[index++]; 
....................       } 
....................  
....................       // The number is a decimal number 
....................       if (base == 10) 
....................       { 
....................          while (c >= '0' && c <= '9') { 
....................             result = (result << 1) + (result << 3);  // result *= 10; 
....................             result += (c - '0'); 
....................             c = s[index++]; 
....................          } 
....................       } 
....................       else if (base == 16)    // The number is a hexa number 
....................       { 
....................          c = toupper(c); 
....................          while ((c >= '0' && c <= '9') || (c >= 'A' && c <='F')) 
....................          { 
....................             if (c >= '0' && c <= '9') 
....................                result = (result << 4) + (c - '0'); 
....................             else 
....................                result = (result << 4) + (c - 'A' + 10); 
....................  
....................             c = s[index++];c = toupper(c); 
....................          } 
....................       } 
....................    } 
....................  
....................    if (base == 10 && sign == 1) 
....................       result = -result; 
....................  
....................    return(result); 
.................... } 
....................  
.................... signed int64 atoi64(char *s) 
.................... { 
....................    signed int64 result; 
....................    int8 sign, base, index; 
....................    char c; 
....................  
....................    index = 0; 
....................    sign = 0; 
....................    base = 10; 
....................    result = 0; 
....................  
....................    if (!s) 
....................       return 0; 
....................    c = s[index++]; 
....................  
....................    // increase index if either positive or negative sign is detected 
....................    if (c == '-') 
....................    { 
....................       sign = 1;         // Set the sign to negative 
....................       c = s[index++]; 
....................    } 
....................    else if (c == '+') 
....................    { 
....................       c = s[index++]; 
....................    } 
....................  
....................    if (c >= '0' && c <= '9') 
....................    { 
....................       if (c == '0' && (s[index] == 'x' || s[index] == 'X')) 
....................       { 
....................          base = 16; 
....................          index++; 
....................          c = s[index++]; 
....................       } 
....................  
....................       // The number is a decimal number 
....................       if (base == 10) 
....................       { 
....................          while (c >= '0' && c <= '9') { 
....................             result = (result << 1) + (result << 3);  // result *= 10; 
....................             result += (c - '0'); 
....................             c = s[index++]; 
....................          } 
....................       } 
....................       else if (base == 16)    // The number is a hexa number 
....................       { 
....................          c = toupper(c); 
....................          while ((c >= '0' && c <= '9') || (c >= 'A' && c <='F')) 
....................          { 
....................             if (c >= '0' && c <= '9') 
....................                result = (result << 4) + (c - '0'); 
....................             else 
....................                result = (result << 4) + (c - 'A' + 10); 
....................  
....................             c = s[index++];c = toupper(c); 
....................          } 
....................       } 
....................    } 
....................  
....................    if (base == 10 && sign == 1) 
....................       result = -result; 
....................  
....................    return(result); 
.................... } 
.................... #endif 
....................  
.................... char * itoa(signed int32 num, unsigned int base, char * s) 
.................... { 
....................      unsigned int32 temp=1; 
....................      unsigned int8 i,sign=0,cnt=0; 
....................      char c; 
....................  
....................      if(num<0) { 
....................          sign=1;        // Check for negative number 
....................          num*=-1; 
....................      } 
....................  
....................      while(temp>0) { 
....................          temp=(num/base); 
....................          s[cnt]=(num%base)+'0';    // Conversion 
....................  
....................          if(s[cnt]>0x39) 
....................             s[cnt]+=0x7; 
....................  
....................          cnt++; 
....................          num=temp; 
....................      } 
....................  
....................      if(sign==1) { 
....................          s[cnt]=0x2D;      // Negative sign 
....................          cnt++; 
....................      } 
....................  
....................      for(i = 0;i<(int8)(cnt/2);i++) { 
....................  
....................          c=s[i]; 
....................          s[i]=s[cnt-i-1];        // Reverse the number 
....................          s[cnt-i-1]=c; 
....................      } 
....................      s[cnt]='\0';     // End the string 
....................      return s; 
.................... } 
....................  
.................... float strtof(char *s, char *endptr) 
.................... { 
....................    float pow10 = 1.0; 
....................    float result = 0.0; 
....................    int1 skip = 1, sign = 0, point = 0; 
....................    char c; 
....................    unsigned int8 ptr = 0; 
....................  
....................    if (!s) 
....................       return 0; 
....................  
....................    for(c=s[ptr++]; c!=0; c=s[ptr++]) 
....................    { 
....................       if (skip && !isspace(c)) 
....................       { 
....................          skip = 0; 
....................          if (c == '+') 
....................          { 
....................             sign = 0; 
....................             continue; 
....................          }             
....................          else if (c == '-') 
....................          { 
....................             sign = 1; 
....................             continue; 
....................          } 
....................       } 
....................       if (!skip && (c == '.') && !point) 
....................          point = 1; 
....................       else if (!skip && isdigit(c)) 
....................       { 
....................          c -= '0'; 
....................          if (point) 
....................          { 
....................             pow10 = pow10 * 10.0; 
....................             result += (float)c / pow10;    
....................          } 
....................          else 
....................          { 
....................             result = 10.0 * result + (float)c; 
....................          } 
....................       } 
....................       else if (!skip) 
....................          break; 
....................    } 
....................  
....................    if (sign) 
....................       result = -1*result; 
....................        
....................    if(endptr) 
....................    { 
....................       if (ptr) { 
....................          ptr--; 
....................        #IF LONG_POINTERS  
....................          *((long *)endptr)= s+ptr;  
....................        #ELSE 
....................          *((char *)endptr)=s+ptr; 
....................        #ENDIF 
....................       } 
....................       else 
....................       { 
....................       #IF LONG_POINTERS 
....................       *((long *)endptr)= s;  
....................       #ELSE 
....................       *((char *)endptr)=s; 
....................       #ENDIF 
....................       } 
....................    } 
....................  
....................    return(result); 
.................... } 
....................  
.................... #if defined(__PCD__) 
.................... float48 strtof48(char *s, char *endptr) 
.................... { 
....................    float48 pow10 = 1.0; 
....................    float48 result = 0.0; 
....................    int1 skip = 1, sign = 0, point = 0; 
....................    char c; 
....................    unsigned int8 ptr = 0; 
....................  
....................    if (!s) 
....................       return 0; 
....................  
....................    for(c=s[ptr++]; c!=0; c=s[ptr++]) 
....................    { 
....................       if (skip && !isspace(c)) 
....................       { 
....................          skip = 0; 
....................          if (c == '+') 
....................          { 
....................             sign = 0; 
....................             continue; 
....................          }             
....................          else if (c == '-') 
....................          { 
....................             sign = 1; 
....................             continue; 
....................          } 
....................       } 
....................       if (!skip && (c == '.') && !point) 
....................          point = 1; 
....................       else if (!skip && isdigit(c)) 
....................       { 
....................          c -= '0'; 
....................          if (point) 
....................          { 
....................             pow10 = pow10 * 10.0; 
....................             result += (float48)c / pow10;    
....................          } 
....................          else 
....................          { 
....................             result = 10.0 * result + (float48)c; 
....................          } 
....................       } 
....................       else if (!skip) 
....................          break; 
....................    } 
....................  
....................    if (sign) 
....................       result = -1*result; 
....................        
....................    if(endptr) 
....................    { 
....................       if (ptr) { 
....................          ptr--; 
....................        #IF LONG_POINTERS  
....................          *((long *)endptr)= s+ptr;  
....................        #ELSE 
....................          *((char *)endptr)=s+ptr; 
....................        #ENDIF 
....................       } 
....................       else 
....................       { 
....................       #IF LONG_POINTERS 
....................       *((long *)endptr)= s;  
....................       #ELSE 
....................       *((char *)endptr)=s; 
....................       #ENDIF 
....................       } 
....................    } 
....................  
....................    return(result); 
.................... } 
....................  
.................... float64 strtod(char *s, char *endptr) 
.................... { 
....................    float64 pow10 = 1.0; 
....................    float64 result = 0.0; 
....................    int1 skip = 1, sign = 0, point = 0; 
....................    char c; 
....................    unsigned int8 ptr = 0; 
....................  
....................    if (!s) 
....................       return 0; 
....................  
....................    for(c=s[ptr++]; c!=0; c=s[ptr++]) 
....................    { 
....................       if (skip && !isspace(c)) 
....................       { 
....................          skip = 0; 
....................          if (c == '+') 
....................          { 
....................             sign = 0; 
....................             continue; 
....................          }             
....................          else if (c == '-') 
....................          { 
....................             sign = 1; 
....................             continue; 
....................          } 
....................       } 
....................       if (!skip && (c == '.') && !point) 
....................          point = 1; 
....................       else if (!skip && isdigit(c)) 
....................       { 
....................          c -= '0'; 
....................          if (point) 
....................          { 
....................             pow10 = pow10 * 10.0; 
....................             result += (float64)c / pow10;    
....................          } 
....................          else 
....................          { 
....................             result = 10.0 * result + (float64)c; 
....................          } 
....................       } 
....................       else if (!skip) 
....................          break; 
....................    } 
....................  
....................    if (sign) 
....................       result = -1*result; 
....................        
....................    if(endptr) 
....................    { 
....................       if (ptr) { 
....................          ptr--; 
....................        #IF LONG_POINTERS  
....................          *((long *)endptr)= s+ptr;  
....................        #ELSE 
....................          *((char *)endptr)=s+ptr; 
....................        #ENDIF 
....................       } 
....................       else 
....................       { 
....................       #IF LONG_POINTERS 
....................       *((long *)endptr)= s;  
....................       #ELSE 
....................       *((char *)endptr)=s; 
....................       #ENDIF 
....................       } 
....................    } 
....................  
....................    return(result); 
.................... } 
.................... #endif 
....................  
.................... unsigned long strtoul(char *s, char *endptr, signed int base) 
.................... { 
....................    char *sc,*s1,*sd; 
....................    unsigned long x=0; 
....................    char sign; 
....................    char digits[]="0123456789abcdefghijklmnopqstuvwxyz"; 
....................    for(sc=s;isspace(*sc);++sc); 
....................    sign=*sc=='-'||*sc=='+'?*sc++:'+'; 
....................    if(sign=='-' || base <0 || base ==1|| base >36) // invalid base 
....................    goto StrtoulGO; 
....................  
....................    else if (base) 
....................    { 
....................       if(base==16 && *sc =='0'&&(sc[1]=='x' || sc[1]=='X')) 
....................          sc+=2; 
....................       if(base==8 && *sc =='0') 
....................          sc+=1; 
....................       if(base==2 && *sc =='0'&&sc[1]=='b') 
....................          sc+=2; 
....................  
....................    } 
....................    else if(*sc!='0') // base is 0, find base 
....................       base=10; 
....................    else if (sc[1]=='x' || sc[1]=='X') 
....................       base =16,sc+=2; 
....................    else if(sc[1]=='b') 
....................       base=2,sc+=2; 
....................    else 
....................       base=8; 
....................    for (s1=sc;*sc=='0';++sc);// skip leading zeroes 
....................    sd=memchr(digits,tolower(*sc),base); 
....................    for(; sd!=0; ) 
....................    { 
....................       x=x*base+(int16)(sd-digits); 
....................       ++sc; 
....................       sd=memchr(digits,tolower(*sc),base); 
....................    } 
....................    if(s1==sc) 
....................    { 
....................    StrtoulGO: 
....................       if (endptr) 
....................       { 
....................          #IF LONG_POINTERS 
....................          *((long *)endptr)= s;  
....................          #ELSE 
....................          *((char *)endptr)=s; 
....................          #ENDIF 
....................          } 
....................    return 0; 
....................    } 
....................    if (endptr) 
....................    { 
....................          #IF LONG_POINTERS 
....................          *((long *)endptr)= sc;  
....................          #ELSE 
....................          *((char *)endptr)=sc;  
....................          #ENDIF 
....................    } 
....................    return x; 
.................... } 
....................  
....................  
.................... signed long strtol(char *s,char *endptr, signed int base) 
.................... { 
....................    char *sc,*s1,*sd; 
....................    signed long x=0; 
....................    char sign; 
....................    char digits[]="0123456789abcdefghijklmnopqstuvwxyz"; 
....................    for(sc=s;isspace(*sc);++sc); 
....................    sign=*sc=='-'||*sc=='+'?*sc++:'+'; 
....................    if (base <0 || base ==1|| base >36) // invalid base 
....................    goto StrtolGO; 
....................    else if (base) 
....................    { 
....................       if(base==16 && *sc =='0'&&(sc[1]=='x' || sc[1]=='X')) 
....................          sc+=2; 
....................       if(base==8 && *sc =='0') 
....................          sc+=1; 
....................       if(base==2 && *sc =='0'&&sc[1]=='b') 
....................          sc+=2; 
....................  
....................    } 
....................    else if(*sc!='0') // base is 0, find base 
....................       base=10; 
....................    else if (sc[1]=='x' || sc[1]=='X') 
....................       base =16,sc+=2; 
....................    else if(sc[1]=='b') 
....................       base=2,sc+=2; 
....................    else 
....................       base=8; 
....................    for (s1=sc;*sc=='0';++sc);// skip leading zeroes 
....................  
....................    sd=memchr(digits,tolower(*sc),base); 
....................    for(;sd!=0;) 
....................    { 
....................       x=x*base+(int16)(sd-digits); 
....................       ++sc; 
....................       sd=memchr(digits,tolower(*sc),base); 
....................    } 
....................    if(s1==sc) 
....................    { 
....................    StrtolGO: 
....................       if (endptr) 
....................       { 
....................          #IF LONG_POINTERS 
....................          *((long *)endptr)= s;  
....................          #ELSE 
....................          *((char *)endptr)=s; 
....................          #ENDIF 
....................       } 
....................    return 0; 
....................    } 
....................    if(sign=='-') 
....................       x  =-x; 
....................    if (endptr) 
....................    { 
....................         #IF LONG_POINTERS 
....................          *((long *)endptr)= sc;  
....................         #ELSE 
....................         *((char *)endptr)=sc; 
....................         #ENDIF 
....................    } 
....................    return x; 
.................... } 
....................  
.................... signed int8 system(char *string) 
.................... { 
....................    return 0; 
.................... } 
....................  
.................... int8 mblen(char *s,size_t n) 
.................... { 
....................    return strlen(s); 
.................... } 
....................  
.................... int8 mbtowc(wchar_t *pwc,char *s,size_t n) 
.................... { 
....................    *pwc=*s; 
....................    return 1; 
.................... } 
....................  
.................... int8 wctomb(char *s,wchar_t wchar) 
.................... { 
....................    *s=wchar; 
....................    return 1; 
.................... } 
....................  
.................... size_t mbstowcs(wchar_t *pwcs,char *s,size_t n) 
.................... { 
....................    strncpy(pwcs,s,n); 
....................    return strlen(pwcs); 
.................... } 
....................  
.................... size_t wcstombs(char *s,wchar_t *pwcs,size_t n) 
.................... { 
....................    strncpy(s,pwcs,n); 
....................    return strlen(s); 
.................... } 
....................  
.................... //--------------------------------------------------------------------------- 
.................... // The random number implementation 
.................... //--------------------------------------------------------------------------- 
....................  
.................... unsigned int32 _Randseed; 
....................  
.................... unsigned int16 rand(void) 
.................... { 
....................    _Randseed = _Randseed * 1103515245 + 12345; 
....................    return ((unsigned int16)(_Randseed >> 16) % RAND_MAX); 
.................... } 
....................  
.................... void srand(unsigned int32 seed) 
.................... { 
....................    _Randseed = seed; 
.................... } 
....................  
.................... //--------------------------------------------------------------------------- 
.................... // Searching and sorting utilities implementation 
.................... //--------------------------------------------------------------------------- 
....................  
.................... #if !defined(__PCD__) 
.................... typedef signed int8 (*_Cmpfun)(char * p1,char * p2);  
.................... #else  
.................... typedef signed int16 (*_Cmpfun)(char * p1,char * p2);  
.................... #endif 
....................  
....................  
....................  
.................... void qsort(char * qdata, unsigned int qitems, unsigned int qsize, _Cmpfun cmp) { 
....................    unsigned int m,j,i,l; 
....................    int1 done; 
....................    unsigned int8 t[16]; 
....................  
....................    m = qitems/2; 
....................    while( m > 0 ) { 
....................      for(j=0; j<(qitems-m); ++j) { 
....................         i = j; 
....................         do 
....................         { 
....................            done=1; 
....................            l = i+m; 
....................            if( (*cmp)(qdata+i*qsize, qdata+l*qsize) > 0 ) { 
....................               memcpy(t, qdata+i*qsize, qsize); 
....................               memcpy(qdata+i*qsize, qdata+l*qsize, qsize); 
....................               memcpy(qdata+l*qsize, t, qsize); 
....................               if(m <= i) 
....................                 i -= m; 
....................                 done = 0; 
....................            } 
....................         } while(!done); 
....................      } 
....................      m = m/2; 
....................    } 
.................... } 
....................  
....................  
.................... char *bsearch(char *key, char *base, size_t num, size_t width,_Cmpfun cmp) 
.................... { 
....................    char *p, *q; 
....................    size_t n; 
....................    size_t pivot; 
....................    signed int val; 
....................  
....................    p = base; 
....................    n = num; 
....................  
....................    while (n > 0) 
....................    { 
....................       pivot = n >> 1; 
....................       q = p + width * pivot; 
....................  
....................       val = (*cmp)(key, q); 
....................  
....................       if (val < 0) 
....................          n = pivot; 
....................       else if (val == 0) 
....................          return ((char *)q); 
....................       else { 
....................          p = q + width; 
....................          n -= pivot + 1; 
....................       } 
....................    } 
....................  
....................    return NULL;      // There's no match 
.................... } 
....................  
....................  
.................... #endif 
....................  
.................... //#include <DS1302.c> 
.................... #include <24512.c> 
.................... /////////////////////////////////////////////////////////////////////////// 
.................... ////   Library for a 24LC512 serial EEPROM                             //// 
.................... ////                                                                   //// 
.................... ////   init_ext_eeprom();    Call before the other functions are used  //// 
.................... ////                                                                   //// 
.................... ////   write_ext_eeprom(a, d);  Write the byte d to the address a      //// 
.................... ////                                                                   //// 
.................... ////   d = read_ext_eeprom(a);   Read the byte d from the address a    //// 
.................... ////                                                                   //// 
.................... ////   The main program may define eeprom_sda                          //// 
.................... ////   and eeprom_scl to override the defaults below.                  //// 
.................... ////                                                                   //// 
.................... /////////////////////////////////////////////////////////////////////////// 
.................... ////        (C) Copyright 1996,2003 Custom Computer Services           //// 
.................... //// This source code may only be used by licensed users of the CCS C  //// 
.................... //// compiler.  This source code may only be distributed to other      //// 
.................... //// licensed users of the CCS C compiler.  No other use, reproduction //// 
.................... //// or distribution is permitted without written permission.          //// 
.................... //// Derivative programs created using this software in object code    //// 
.................... //// form are not restricted in any way.                               //// 
.................... /////////////////////////////////////////////////////////////////////////// 
....................  
.................... #ifndef EEPROM_SDA 
....................  
.................... #define EEPROM_SDA  PIN_C4 
.................... #define EEPROM_SCL  PIN_C3 
....................  
.................... #endif 
....................  
.................... #use i2c(master, sda=EEPROM_SDA, scl=EEPROM_SCL) 
*
02402:  MOVLW  08
02404:  MOVWF  01
02406:  MOVLW  05
02408:  MOVWF  00
0240A:  DECFSZ 00,F
0240C:  BRA    240A
0240E:  BCF    F8B.3
02410:  BCF    F94.3
02412:  MOVLW  06
02414:  MOVWF  00
02416:  DECFSZ 00,F
02418:  BRA    2416
0241A:  MOVLB  6
0241C:  RLCF   x6C,F
0241E:  BCF    F8B.4
02420:  BTFSC  FD8.0
02422:  BSF    F94.4
02424:  BTFSS  FD8.0
02426:  BCF    F94.4
02428:  BSF    F94.3
0242A:  BTFSS  F82.3
0242C:  BRA    242A
0242E:  DECFSZ 01,F
02430:  BRA    2434
02432:  BRA    2438
02434:  MOVLB  0
02436:  BRA    2406
02438:  MOVLW  05
0243A:  MOVWF  00
0243C:  DECFSZ 00,F
0243E:  BRA    243C
02440:  BCF    F8B.3
02442:  BCF    F94.3
02444:  NOP   
02446:  BSF    F94.4
02448:  MOVLW  06
0244A:  MOVWF  00
0244C:  DECFSZ 00,F
0244E:  BRA    244C
02450:  MOVLW  06
02452:  MOVWF  00
02454:  DECFSZ 00,F
02456:  BRA    2454
02458:  BSF    F94.3
0245A:  BTFSS  F82.3
0245C:  BRA    245A
0245E:  CLRF   01
02460:  MOVLW  06
02462:  MOVWF  00
02464:  DECFSZ 00,F
02466:  BRA    2464
02468:  BTFSC  F82.4
0246A:  BSF    01.0
0246C:  BCF    F8B.3
0246E:  BCF    F94.3
02470:  BCF    F8B.4
02472:  BCF    F94.4
02474:  MOVLB  0
02476:  RETLW  00
02478:  MOVLW  08
0247A:  MOVLB  6
0247C:  MOVWF  x54
0247E:  MOVFF  00,655
02482:  BSF    F94.4
02484:  MOVLW  06
02486:  MOVWF  00
02488:  DECFSZ 00,F
0248A:  BRA    2488
0248C:  BSF    F94.3
0248E:  BTFSS  F82.3
02490:  BRA    248E
02492:  BTFSC  F82.4
02494:  BSF    FD8.0
02496:  BTFSS  F82.4
02498:  BCF    FD8.0
0249A:  RLCF   01,F
0249C:  MOVLW  05
0249E:  MOVWF  00
024A0:  DECFSZ 00,F
024A2:  BRA    24A0
024A4:  BCF    F94.3
024A6:  BCF    F8B.3
024A8:  DECFSZ x54,F
024AA:  BRA    2482
024AC:  BSF    F94.4
024AE:  MOVLW  06
024B0:  MOVWF  00
024B2:  DECFSZ 00,F
024B4:  BRA    24B2
024B6:  BCF    F8B.4
024B8:  MOVF   x55,W
024BA:  BTFSS  FD8.2
024BC:  BCF    F94.4
024BE:  NOP   
024C0:  BSF    F94.3
024C2:  BTFSS  F82.3
024C4:  BRA    24C2
024C6:  MOVLW  05
024C8:  MOVWF  00
024CA:  DECFSZ 00,F
024CC:  BRA    24CA
024CE:  BCF    F8B.3
024D0:  BCF    F94.3
024D2:  MOVLW  06
024D4:  MOVWF  00
024D6:  DECFSZ 00,F
024D8:  BRA    24D6
024DA:  BCF    F8B.4
024DC:  BCF    F94.4
024DE:  MOVLB  0
024E0:  RETLW  00
....................  
.................... #define EEPROM_ADDRESS long int 
.................... #define EEPROM_SIZE   65535 
....................  
.................... void init_ext_eeprom() 
.................... { 
....................    output_float(EEPROM_SCL); 
....................    output_float(EEPROM_SDA); 
....................  
.................... } 
....................  
.................... void write_ext_eeprom(long int address, BYTE data) 
.................... { 
....................    short int status; 
....................    i2c_start(); 
*
05BF4:  BSF    F94.4
05BF6:  MOVLW  05
05BF8:  MOVWF  00
05BFA:  DECFSZ 00,F
05BFC:  BRA    5BFA
05BFE:  BSF    F94.3
05C00:  MOVLW  06
05C02:  MOVWF  00
05C04:  DECFSZ 00,F
05C06:  BRA    5C04
05C08:  BCF    F8B.4
05C0A:  BCF    F94.4
05C0C:  MOVLW  05
05C0E:  MOVWF  00
05C10:  DECFSZ 00,F
05C12:  BRA    5C10
05C14:  BCF    F8B.3
05C16:  BCF    F94.3
....................    i2c_write(0xa0); 
05C18:  MOVLW  A0
05C1A:  MOVLB  6
05C1C:  MOVWF  x6C
05C1E:  MOVLB  0
05C20:  CALL   2402
....................    i2c_write(address>>8); 
05C24:  MOVFF  667,66A
05C28:  MOVLB  6
05C2A:  CLRF   x6B
05C2C:  MOVFF  667,66C
05C30:  MOVLB  0
05C32:  CALL   2402
....................    i2c_write(address); 
05C36:  MOVFF  666,66C
05C3A:  CALL   2402
....................    i2c_write(data); 
05C3E:  MOVFF  668,66C
05C42:  CALL   2402
....................    i2c_stop(); 
05C46:  BCF    F94.4
05C48:  NOP   
05C4A:  BSF    F94.3
05C4C:  BTFSS  F82.3
05C4E:  BRA    5C4C
05C50:  MOVLW  05
05C52:  MOVWF  00
05C54:  DECFSZ 00,F
05C56:  BRA    5C54
05C58:  BRA    5C5A
05C5A:  NOP   
05C5C:  BSF    F94.4
05C5E:  MOVLW  05
05C60:  MOVWF  00
05C62:  DECFSZ 00,F
05C64:  BRA    5C62
....................    i2c_start(); 
05C66:  BSF    F94.4
05C68:  MOVLW  05
05C6A:  MOVWF  00
05C6C:  DECFSZ 00,F
05C6E:  BRA    5C6C
05C70:  BSF    F94.3
05C72:  MOVLW  06
05C74:  MOVWF  00
05C76:  DECFSZ 00,F
05C78:  BRA    5C76
05C7A:  BCF    F8B.4
05C7C:  BCF    F94.4
05C7E:  MOVLW  05
05C80:  MOVWF  00
05C82:  DECFSZ 00,F
05C84:  BRA    5C82
05C86:  BCF    F8B.3
05C88:  BCF    F94.3
....................    status=i2c_write(0xa0); 
05C8A:  MOVLW  A0
05C8C:  MOVLB  6
05C8E:  MOVWF  x6C
05C90:  MOVLB  0
05C92:  CALL   2402
05C96:  MOVF   01,W
05C98:  MOVLB  6
05C9A:  BCF    x69.0
05C9C:  BTFSC  01.0
05C9E:  BSF    x69.0
....................    //while(status==1) 
....................    //{ 
....................       i2c_start(); 
05CA0:  BSF    F94.4
05CA2:  MOVLW  05
05CA4:  MOVWF  00
05CA6:  DECFSZ 00,F
05CA8:  BRA    5CA6
05CAA:  BSF    F94.3
05CAC:  MOVLW  06
05CAE:  MOVWF  00
05CB0:  DECFSZ 00,F
05CB2:  BRA    5CB0
05CB4:  BTFSS  F82.3
05CB6:  BRA    5CB4
05CB8:  BCF    F8B.4
05CBA:  BCF    F94.4
05CBC:  MOVLW  05
05CBE:  MOVWF  00
05CC0:  DECFSZ 00,F
05CC2:  BRA    5CC0
05CC4:  BCF    F8B.3
05CC6:  BCF    F94.3
....................       status=i2c_write(0xa0); 
05CC8:  MOVLW  A0
05CCA:  MOVWF  x6C
05CCC:  MOVLB  0
05CCE:  CALL   2402
05CD2:  MOVF   01,W
05CD4:  MOVLB  6
05CD6:  BCF    x69.0
05CD8:  BTFSC  01.0
05CDA:  BSF    x69.0
....................    //} 
....................    i2c_stop(); 
05CDC:  BCF    F94.4
05CDE:  NOP   
05CE0:  BSF    F94.3
05CE2:  BTFSS  F82.3
05CE4:  BRA    5CE2
05CE6:  MOVLW  05
05CE8:  MOVWF  00
05CEA:  DECFSZ 00,F
05CEC:  BRA    5CEA
05CEE:  BRA    5CF0
05CF0:  NOP   
05CF2:  BSF    F94.4
05CF4:  MOVLW  05
05CF6:  MOVWF  00
05CF8:  DECFSZ 00,F
05CFA:  BRA    5CF8
.................... } 
05CFC:  MOVLB  0
05CFE:  RETLW  00
....................  
.................... BYTE read_ext_eeprom(long int address) { 
....................    BYTE data; 
....................    i2c_start(); 
*
024E2:  BSF    F94.4
024E4:  MOVLW  05
024E6:  MOVWF  00
024E8:  DECFSZ 00,F
024EA:  BRA    24E8
024EC:  BSF    F94.3
024EE:  MOVLW  06
024F0:  MOVWF  00
024F2:  DECFSZ 00,F
024F4:  BRA    24F2
024F6:  BCF    F8B.4
024F8:  BCF    F94.4
024FA:  MOVLW  05
024FC:  MOVWF  00
024FE:  DECFSZ 00,F
02500:  BRA    24FE
02502:  BCF    F8B.3
02504:  BCF    F94.3
....................    i2c_write(0xa0); 
02506:  MOVLW  A0
02508:  MOVLB  6
0250A:  MOVWF  x6C
0250C:  MOVLB  0
0250E:  RCALL  2402
....................    i2c_write(address>>8); 
02510:  MOVFF  651,653
02514:  MOVLB  6
02516:  CLRF   x54
02518:  MOVFF  651,66C
0251C:  MOVLB  0
0251E:  RCALL  2402
....................    i2c_write(address); 
02520:  MOVFF  650,66C
02524:  RCALL  2402
....................    i2c_start(); 
02526:  BSF    F94.4
02528:  MOVLW  05
0252A:  MOVWF  00
0252C:  DECFSZ 00,F
0252E:  BRA    252C
02530:  BSF    F94.3
02532:  MOVLW  06
02534:  MOVWF  00
02536:  DECFSZ 00,F
02538:  BRA    2536
0253A:  BTFSS  F82.3
0253C:  BRA    253A
0253E:  BCF    F8B.4
02540:  BCF    F94.4
02542:  MOVLW  05
02544:  MOVWF  00
02546:  DECFSZ 00,F
02548:  BRA    2546
0254A:  BCF    F8B.3
0254C:  BCF    F94.3
....................    i2c_write(0xa1); 
0254E:  MOVLW  A1
02550:  MOVLB  6
02552:  MOVWF  x6C
02554:  MOVLB  0
02556:  RCALL  2402
....................    data=i2c_read(0); 
02558:  CLRF   00
0255A:  RCALL  2478
0255C:  MOVFF  01,652
....................    i2c_stop(); 
02560:  BCF    F94.4
02562:  NOP   
02564:  BSF    F94.3
02566:  BTFSS  F82.3
02568:  BRA    2566
0256A:  MOVLW  05
0256C:  MOVWF  00
0256E:  DECFSZ 00,F
02570:  BRA    256E
02572:  BRA    2574
02574:  NOP   
02576:  BSF    F94.4
02578:  MOVLW  05
0257A:  MOVWF  00
0257C:  DECFSZ 00,F
0257E:  BRA    257C
....................    return(data); 
02580:  MOVLB  6
02582:  MOVFF  652,01
.................... } 
02586:  MOVLB  0
02588:  RETLW  00
....................  
....................  
.................... #define   UP            !input(PIN_B6) 
.................... #define   DOWN          !input(PIN_B5) 
.................... #define   RIGHT         !input(PIN_B4) 
.................... #define   LEFT          !input(PIN_B3) 
....................  
.................... #define   DOOR          !input(PIN_B1) 
.................... #define   STOP          !input(PIN_B2) 
.................... #define   TERM          !input(PIN_B3) 
.................... #define   PRES          !input(PIN_A4) 
....................  
.................... #define   LOW           input(PIN_B0) 
....................  
.................... #define   Buzzer_on        output_bit(PIN_C5,1) 
.................... #define   Buzzer_off       output_bit(PIN_C5,0) 
....................  
.................... #define   Suministro_on    output_bit(PIN_D0,1) 
.................... #define   Suministro_off   output_bit(PIN_D0,0) 
....................  
.................... #define   Paso_on          output_bit(PIN_D1,1) 
.................... #define   Paso_off         output_bit(PIN_D1,0) 
....................  
.................... #define   Vacio_on         output_bit(PIN_D2,1) 
.................... #define   Vacio_off        output_bit(PIN_D2,0) 
....................  
.................... #define   Desfogue_on      output_bit(PIN_D3,1) 
.................... #define   Desfogue_off     output_bit(PIN_D3,0) 
....................  
.................... #define   Aire_on          output_bit(PIN_D4,1) 
.................... #define   Aire_off         output_bit(PIN_D4,0) 
....................  
.................... #define   BombaVacio_on    output_bit(PIN_D5,1) 
.................... #define   BombaVacio_off   output_bit(PIN_D5,0) 
....................  
.................... #define   Agua_on          output_bit(PIN_D6,1) 
.................... #define   Agua_off         output_bit(PIN_D6,0) 
....................  
.................... #define   Agua2_on         output_bit(PIN_D7,1) 
.................... #define   Agua2_off        output_bit(PIN_D7,0) 
....................  
.................... #define OFF 0 
.................... #define ON  1 
.................... #define RX_BUFFER_SIZE  10 
.................... char Rx_Buffer[RX_BUFFER_SIZE+1]; 
.................... char Rx_Buffer2[RX_BUFFER_SIZE+1]; 
.................... char RX_Wr_Index=0; 
....................  
.................... //Comunicacion//------------------------ 
.................... byte txbuf[0X20]; 
.................... byte SlaveA0Tx[0X20]; 
.................... byte dato=0;            //Contendr la informacin a enviar o recibir 
.................... byte direccion=0;       //Contendr la direccin del esclavo en el bus I2C 
.................... byte posicion=0;        //Contendr la posicin en el buffer de memoria del esclavo donde se almacenar o de donde se recuperar el dato 
.................... //byte ByteConfig1=0,ByteConfig2=0,ByteConfig3=0; 
....................  
.................... /* Tabla de Modulos, Primera Fila Ao Regular y el siguiente ao Bisiesto 
.................... E   F   M   A   M   J   J   A   S   O   N   D 
.................... 0   3   3   6   1   4   6   2   5   0   3   5 
.................... 0   3   4   0   2   5   0   3   6   1   4   6 
.................... */ 
.................... int8 Regular[12]={0,3,3,6,1,4,6,2,5,0,3,5}; 
.................... int8 Bisiesto[12]={0,3,4,0,2,5,0,3,6,1,4,6}; 
....................  
.................... //Alarmas//--------------------- 
.................... short AlarmaTiempoProlongado=OFF,AlarmaSobreTemperatura=OFF,AlarmaTermostato=OFF,AlarmaPuerta=OFF,AlarmaEmergencia=OFF,AlarmaVacio=OFF; 
.................... short AlarmaBomba=OFF,guardaCiclo=OFF,Cilindro=OFF; 
.................... int16 TiempoVacio=600; 
....................  
.................... //Banderas//-------------------- 
.................... short IniciaLlenado=OFF,IniciaCiclo=OFF,Esterilizando=OFF,Secando=OFF,SensadoNivel=OFF,Desfogando=OFF,DesfogueSuave=OFF,CalderinLleno=OFF; 
.................... short EstadoDesfogue=OFF,EstadoSuministro=OFF,EstadoAire=OFF,PruebaEstados=OFF,disp_Guarda=OFF,Ciclo=OFF,EstadoAgua2=OFF; 
.................... short Op=OFF,Op2=OFF,Minutos=OFF,Segundos=OFF,GuardaEEPROM=OFF,EstadoPaso=OFF,EstadoVacio=OFF,EstadoBuzzer=OFF,flagAlarma=OFF; 
.................... short flagBuzzer=OFF,flagSilencio=OFF,Finalizo=OFF,AlarmaPresion=OFF,EstadoACierre=OFF,EstadoBomba=OFF,Libre=OFF,ingreso=OFF,Fugas=OFF; 
.................... short PreCalentamiento=OFF,IniciaVacio=OFF,IniciaVacio2=OFF,Vacio=OFF,flag_vac=OFF,flag_vacio=OFF,flag_pulso=OFF,EstadoAireBomba=OFF; 
....................  
.................... //Tiempos//--------------------- 
.................... int16 TiempoCiclo=0,TiempoSensadoNivel=0,Tp=0,Tc=0,tguarda=0; 
.................... signed int  Testerilizacion[4]={0,0,0,0};   // Tiempo transcurrido 
.................... signed int  Testerilizacionp[4]={0,0,0,0};   // Tiempo transcurrido 
.................... signed int  Tsecado[4]={0,0,0,0};   // Tiempo transcurrido 
.................... signed int  Tsecadop[4]={0,0,0,0};   // Tiempo transcurrido 
....................  
.................... //Control//------------------------ 
.................... float PromPresion[20]={0.0,0.0,0.0,0.0,0.0,0.0,0.0,0.0,0.0,0.0,0.0,0.0,0.0,0.0,0.0,0.0,0.0,0.0,0.0,0.0}; 
.................... float PromPresionp[20]={0.0,0.0,0.0,0.0,0.0,0.0,0.0,0.0,0.0,0.0,0.0,0.0,0.0,0.0,0.0,0.0,0.0,0.0,0.0,0.0}; 
.................... float Temporal=0.0; 
.................... //float K=0.006429; 
.................... float R7=3000,R8=3100,R9=3100,R10=3100,AN=0,BN=0; 
.................... float X[2]={0.0,0.0}; 
.................... float promediopresion=0.0,promediopresionp=0.0; 
.................... int8 h=0,l=0,MediaMovil=20,PantallaPrincipal=0,TipoClave=0,Modulo=0; 
.................... float V0=0.0,Pt,Tciclo=10.0,Tpulso=0.0,error=0.0,Prom=0.0,Temperature=0.0,tmp=0.0,Ganancia=25.0,Ganancia2=20.0,desvio=1.0; 
.................... float V1=0.0,Presion=0.0,V2=0.0,Presionp=0.0; 
.................... float Temperatura=0.0,Temperatura2=0.0; 
.................... float a=0.0011,b=2.3302,c=-244.0723; 
....................  
.................... //Varios//-------------------------------- 
.................... short desfoguelento=0,Lectura=0,Grafica=0,borra=OFF; 
.................... short disp_Stop=0,flagTC=0,flagImprime=0; 
.................... int8 Control=0,tiemporecta=0,Controlando=0,timpresion=2,CalculoImpresion=0,Inicio=1,Dato_Exitoso=0,Dato2=0; 
.................... int8 Menu=0, MenuAnt=0,MenuAntt=240,CiclosL=0,CiclosH=0,CicloSeleccionado=0,Tapertura=0; 
.................... int16 CantidadPulsos=4,tStop=0,conteoPresion=0,i=0; 
.................... int8 Setpoint=0,Opcion=1,Opcion2=1,tiempo_esterilizacion=0,tiempo_secado=0,tiempoImpresion=0; 
.................... int16 tiempos=0,tiempos2=0,tiempos3=0,tiempoctrl=0,Nivel=0,tinicio=0,PresionCamara=0,PresionPreCamara=0,Ciclos=0,tbomba=0,tvacio=0; 
.................... signed int  Password[4]={0,0,0,0};        // Contrasena Almacenada de 4 digitos 
.................... int8 r=0,t=0,r22=0,t2=0,TiempoControl=0,NivelDes=0; 
.................... int8 y=0,ConteoBuzzer=0,codigoAlarma=0,codigoAnt=0,codigoUsuario2=0; 
.................... int16 tbuzzer=0,tsilencio=0,posicionDato=0,cicloVisualizado=0,cicloVisto=0; 
.................... int8 Year=18,Mes=9,Dia=13,Hora=0,Minuto=0,Segundo=0,dow=0,NivelVacio=25,Atmosferica=75,PulsoPositivo=10,PulsosVacio=0; 
.................... int8 YearTx=0,MesTx=0,DiaTx=0,HoraTx=0,MinutoTx=0,SegundoTx=0,dowTx=0,SetTime=0,Imprime=0,CicloLibre=0,Pulsos=0,j=0,codigoUsuario=0,codigoUsuarioant=0; 
.................... signed int8 G1=0,G2=0,sg1=0,sg2=0; 
.................... const char Texto[12][20]={"CALENTAMIENTO","NO ENVUELTOS 134","NO ENVUELTOS 121","ENVUELTOS 134","ENVUELTOS 121","ENVUELTO DOBLE 1", 
.................... "ENVUELTO DOBLE 2","PRION","BOWIE & DICK","TEST DE FUGAS","TEST DE COMPONENTES","HORA Y FECHA"}; 
.................... char usuario[20]; 
.................... float TCiclos[7]; 
.................... int16 PcCiclos[7]; 
.................... int16 PpcCiclos[7]; 
.................... int8 horaCiclos[7]; 
.................... int8 minutoCiclos[7]; 
.................... int8 ACiclos[7]; 
.................... int8 diaCiclos=0,mesCiclos=0,yearCiclos=0,usuarioCiclos=0,cicloCiclos=0; 
.................... short estados[30]={0,0,0,0,0,0,0,0,0,0,0,0,0,0,0,0,0,0,0,0,0,0,0,0,0,0,0,0,0,0}; 
....................  
.................... typedef struct{ 
....................    int8 Password[4]; 
.................... }Claves; 
....................  
.................... typedef struct{ 
....................    int8 Temperatura; 
....................    int8 Minutoest; 
....................    int8 Segundoest; 
....................    int8 Minutosec; 
....................    int8 Segundosec; 
....................    int8 PulsosVacio; 
....................    int8 NivelVacio; 
....................    int8 NivelDesfogue; 
.................... }Personalizado; 
....................  
.................... typedef struct{ 
....................    float BN; 
....................    float AN; 
....................    float V0; 
....................    float Pt; 
....................    float RPT100; 
....................    int8 l; 
....................    int8 h; 
....................    float Prom; 
....................    float Temperature; 
....................    int8 Ajuste; 
....................    int8 Ajusten; 
....................    float promedio[80]; 
....................    float Gain; 
.................... }SensorPT100; 
....................  
.................... SensorPT100 Sensor[2]; 
.................... Personalizado CiclosPersonalizados[20]; 
.................... Claves Clave[10]; 
....................  
.................... #include "Funciones.h" 
....................  
.................... void BorraBuffer(void){ 
.................... RX_Buffer[0]=0; 
*
05A80:  CLRF   30
.................... RX_Buffer[1]=0; 
05A82:  CLRF   31
.................... RX_Buffer[2]=0; 
05A84:  CLRF   32
.................... RX_Buffer[3]=0; 
05A86:  CLRF   33
.................... RX_Buffer[4]=0; 
05A88:  CLRF   34
.................... RX_Buffer[5]=0; 
05A8A:  CLRF   35
.................... RX_Buffer[6]=0; 
05A8C:  CLRF   36
.................... RX_Buffer[7]=0; 
05A8E:  CLRF   37
.................... RX_Buffer[8]=0; 
05A90:  CLRF   38
.................... RX_Buffer[9]=0; 
05A92:  CLRF   39
....................  
.................... RX_Buffer2[0]=0; 
05A94:  CLRF   3B
.................... RX_Buffer2[1]=0; 
05A96:  CLRF   3C
.................... RX_Buffer2[2]=0; 
05A98:  CLRF   3D
.................... RX_Buffer2[3]=0; 
05A9A:  CLRF   3E
.................... RX_Buffer2[4]=0; 
05A9C:  CLRF   3F
.................... RX_Buffer2[5]=0; 
05A9E:  CLRF   40
.................... RX_Buffer2[6]=0; 
05AA0:  CLRF   41
.................... RX_Buffer2[7]=0; 
05AA2:  CLRF   42
.................... RX_Buffer2[8]=0; 
05AA4:  CLRF   43
.................... RX_Buffer2[9]=0; 
05AA6:  CLRF   44
.................... } 
05AA8:  GOTO   8442 (RETURN)
....................  
.................... void SendDataDisplay(void){ 
.................... delay_us(10); 
*
0427A:  MOVLW  10
0427C:  MOVWF  00
0427E:  DECFSZ 00,F
04280:  BRA    427E
04282:  NOP   
.................... putc(0xFF); 
04284:  MOVLW  FF
04286:  RCALL  4272
.................... delay_us(10); 
04288:  MOVLW  10
0428A:  MOVWF  00
0428C:  DECFSZ 00,F
0428E:  BRA    428C
04290:  NOP   
.................... putc(0xFF); 
04292:  MOVLW  FF
04294:  RCALL  4272
.................... delay_us(10); 
04296:  MOVLW  10
04298:  MOVWF  00
0429A:  DECFSZ 00,F
0429C:  BRA    429A
0429E:  NOP   
.................... putc(0xFF); 
042A0:  MOVLW  FF
042A2:  RCALL  4272
.................... delay_us(10); 
042A4:  MOVLW  10
042A6:  MOVWF  00
042A8:  DECFSZ 00,F
042AA:  BRA    42A8
042AC:  NOP   
.................... } 
042AE:  RETLW  00
....................  
.................... short esBisiesto(int8 year) { 
....................      return ((year % 4 == 0 && year % 100 != 0) || year % 400 == 0); 
*
065C8:  MOVLB  6
065CA:  MOVF   x4B,W
065CC:  ANDLW  03
065CE:  BNZ   65E4
065D0:  MOVFF  64B,653
065D4:  MOVLW  64
065D6:  MOVWF  x54
065D8:  MOVLB  0
065DA:  CALL   5B04
065DE:  MOVF   00,F
065E0:  BNZ   6614
065E2:  MOVLB  6
065E4:  CLRF   x65
065E6:  MOVFF  64B,664
065EA:  MOVLW  01
065EC:  MOVWF  x67
065EE:  MOVLW  90
065F0:  MOVWF  x66
065F2:  MOVLB  0
065F4:  CALL   5BAE
065F8:  MOVFF  00,64C
065FC:  MOVLB  6
065FE:  MOVFF  03,64D
06602:  MOVF   x4C,F
06604:  BNZ   6610
06606:  MOVF   x4D,F
06608:  BTFSS  FD8.2
0660A:  BRA    6610
0660C:  MOVLB  0
0660E:  BRA    6614
06610:  MOVLW  00
06612:  BRA    6618
06614:  MOVLW  01
06616:  MOVLB  6
06618:  MOVWF  01
.................... } 
0661A:  MOVLB  0
0661C:  RETLW  00
....................  
.................... void LimitaDia(){ 
....................    if(MesTx>12) 
0661E:  MOVLB  2
06620:  MOVF   x40,W
06622:  SUBLW  0C
06624:  BC    662A
....................       MesTx=10; 
06626:  MOVLW  0A
06628:  MOVWF  x40
....................    if(DiaTx>31) 
0662A:  MOVF   x41,W
0662C:  SUBLW  1F
0662E:  BC    6634
....................       DiaTx=16; 
06630:  MOVLW  10
06632:  MOVWF  x41
....................    if(YearTx>99) 
06634:  MOVF   x3F,W
06636:  SUBLW  63
06638:  BC    663E
....................       YearTx=18;    
0663A:  MOVLW  12
0663C:  MOVWF  x3F
....................    if(HoraTx>24) 
0663E:  MOVF   x42,W
06640:  SUBLW  18
06642:  BC    6648
....................       HoraTx=11;       
06644:  MOVLW  0B
06646:  MOVWF  x42
....................    if(MinutoTx>59) 
06648:  MOVF   x43,W
0664A:  SUBLW  3B
0664C:  BC    6652
....................       MinutoTx=30;       
0664E:  MOVLW  1E
06650:  MOVWF  x43
....................     
....................       if(MesTx==2){ 
06652:  MOVF   x40,W
06654:  SUBLW  02
06656:  BNZ   6682
....................          if(esBisiesto(YearTx)){ 
06658:  MOVFF  23F,64B
0665C:  MOVLB  0
0665E:  RCALL  65C8
06660:  MOVF   01,F
06662:  BZ    6674
....................             if(DiaTx>29){ 
06664:  MOVLB  2
06666:  MOVF   x41,W
06668:  SUBLW  1D
0666A:  BC    6670
....................                DiaTx=29; 
0666C:  MOVLW  1D
0666E:  MOVWF  x41
....................                //glcd_fillScreen(OFF); 
....................             } 
....................          }else{ 
06670:  BRA    6680
06672:  MOVLB  0
....................             if(DiaTx>28){ 
06674:  MOVLB  2
06676:  MOVF   x41,W
06678:  SUBLW  1C
0667A:  BC    6680
....................                DiaTx=28; 
0667C:  MOVLW  1C
0667E:  MOVWF  x41
....................                //glcd_fillScreen(OFF); 
....................             } 
....................          } 
....................       }else{ 
06680:  BRA    66AC
....................          if(MesTx<=7){ 
06682:  MOVF   x40,W
06684:  SUBLW  07
06686:  BNC   669A
....................             if(MesTx % 2 ==0){ 
06688:  MOVF   x40,W
0668A:  ANDLW  01
0668C:  BNZ   6698
....................                if(DiaTx>30){ 
0668E:  MOVF   x41,W
06690:  SUBLW  1E
06692:  BC    6698
....................                   DiaTx=30;  
06694:  MOVLW  1E
06696:  MOVWF  x41
....................                   //glcd_fillScreen(OFF); 
....................                } 
....................             } 
....................          }else{ 
06698:  BRA    66AC
....................             if(MesTx % 2 ==1){ 
0669A:  MOVF   x40,W
0669C:  ANDLW  01
0669E:  SUBLW  01
066A0:  BNZ   66AC
....................                if(DiaTx>30){ 
066A2:  MOVF   x41,W
066A4:  SUBLW  1E
066A6:  BC    66AC
....................                   DiaTx=30;  
066A8:  MOVLW  1E
066AA:  MOVWF  x41
....................                   //glcd_fillScreen(OFF); 
....................                } 
....................             } 
....................          } 
....................       } 
.................... } 
066AC:  MOVLB  0
066AE:  GOTO   AC68 (RETURN)
....................  
.................... // Funcion para conversor analogo-digital 
.................... float sensores(int x){ 
.................... float y;set_adc_channel(x);delay_ms(1);y=read_adc();return (y); 
*
043CE:  MOVLB  6
043D0:  RLCF   x5B,W
043D2:  MOVWF  00
043D4:  RLCF   00,F
043D6:  MOVLW  FC
043D8:  ANDWF  00,F
043DA:  MOVFF  00,01
043DE:  MOVF   FC2,W
043E0:  ANDLW  C3
043E2:  IORWF  00,W
043E4:  MOVWF  FC2
043E6:  MOVLW  01
043E8:  MOVWF  x64
043EA:  MOVLB  0
043EC:  CALL   1F6E
043F0:  BSF    FC2.1
043F2:  BTFSC  FC2.1
043F4:  BRA    43F2
043F6:  MOVFF  FC4,661
043FA:  MOVFF  FC3,660
043FE:  MOVLB  0
04400:  CALL   1F38
04404:  MOVFF  03,65F
04408:  MOVFF  02,65E
0440C:  MOVFF  01,65D
04410:  MOVFF  00,65C
04414:  MOVFF  65C,00
04418:  MOVFF  65D,01
0441C:  MOVFF  65E,02
04420:  MOVFF  65F,03
.................... } 
04424:  RETLW  00
....................  
.................... float LeerPT100(int8 canal,int media) 
.................... { 
04426:  MOVLW  99
04428:  MOVLB  6
0442A:  MOVWF  x50
0442C:  MOVLW  11
0442E:  MOVWF  x4F
04430:  MOVLW  BD
04432:  MOVWF  x4E
04434:  MOVLW  73
04436:  MOVWF  x4D
04438:  MOVLW  DA
0443A:  MOVWF  x54
0443C:  MOVLW  72
0443E:  MOVWF  x53
04440:  MOVLW  1E
04442:  MOVWF  x52
04444:  MOVLW  7D
04446:  MOVWF  x51
04448:  MOVLW  CB
0444A:  MOVWF  x58
0444C:  MOVLW  A1
0444E:  MOVWF  x57
04450:  MOVLW  11
04452:  MOVWF  x56
04454:  MOVLW  85
04456:  MOVWF  x55
....................    float pa=-0.00036062,pb=0.30947,pc=72.816; 
....................    if(PresionCamara<140){ 
04458:  MOVLB  2
0445A:  MOVF   x12,F
0445C:  BTFSS  FD8.2
0445E:  GOTO   4F20
04462:  MOVF   x11,W
04464:  SUBLW  8B
04466:  BTFSS  FD8.0
04468:  GOTO   4F20
....................       Prom=0.0; 
0446C:  MOVLB  1
0446E:  CLRF   xAE
04470:  CLRF   xAD
04472:  CLRF   xAC
04474:  CLRF   xAB
....................       Sensor[canal].V0 = sensores(canal);   //Lectura de Divisor de Voltaje de PT100 con resistencia de 6.18k (+-2%) 
04476:  MOVLB  6
04478:  CLRF   x67
0447A:  MOVFF  64B,666
0447E:  MOVLW  01
04480:  MOVWF  x69
04482:  MOVLW  64
04484:  MOVWF  x68
04486:  MOVLB  0
04488:  CALL   23E0
0448C:  MOVFF  01,659
04490:  MOVLW  08
04492:  MOVLB  6
04494:  ADDWF  01,W
04496:  MOVWF  01
04498:  MOVLW  00
0449A:  ADDWFC 02,W
0449C:  MOVWF  03
0449E:  MOVF   01,W
044A0:  ADDLW  BB
044A2:  MOVWF  01
044A4:  MOVLW  02
044A6:  ADDWFC 03,F
044A8:  MOVFF  01,659
044AC:  MOVFF  03,65A
044B0:  MOVFF  64B,65B
044B4:  MOVLB  0
044B6:  RCALL  43CE
044B8:  MOVFF  65A,FEA
044BC:  MOVFF  659,FE9
044C0:  MOVFF  00,FEF
044C4:  MOVFF  01,FEC
044C8:  MOVFF  02,FEC
044CC:  MOVFF  03,FEC
....................       Sensor[canal].V0 = Sensor[canal].V0/Sensor[canal].Gain; // Se elimina la ganancia 
044D0:  MOVLB  6
044D2:  CLRF   x67
044D4:  MOVFF  64B,666
044D8:  MOVLW  01
044DA:  MOVWF  x69
044DC:  MOVLW  64
044DE:  MOVWF  x68
044E0:  MOVLB  0
044E2:  CALL   23E0
044E6:  MOVFF  01,659
044EA:  MOVLW  08
044EC:  MOVLB  6
044EE:  ADDWF  01,W
044F0:  MOVWF  01
044F2:  MOVLW  00
044F4:  ADDWFC 02,W
044F6:  MOVWF  03
044F8:  MOVF   01,W
044FA:  ADDLW  BB
044FC:  MOVWF  01
044FE:  MOVLW  02
04500:  ADDWFC 03,F
04502:  MOVFF  01,659
04506:  MOVFF  03,65A
0450A:  CLRF   x67
0450C:  MOVFF  64B,666
04510:  MOVLW  01
04512:  MOVWF  x69
04514:  MOVLW  64
04516:  MOVWF  x68
04518:  MOVLB  0
0451A:  CALL   23E0
0451E:  MOVFF  01,65B
04522:  MOVLW  08
04524:  MOVLB  6
04526:  ADDWF  01,W
04528:  MOVWF  01
0452A:  MOVLW  00
0452C:  ADDWFC 02,W
0452E:  MOVWF  03
04530:  MOVF   01,W
04532:  ADDLW  BB
04534:  MOVWF  FE9
04536:  MOVLW  02
04538:  ADDWFC 03,W
0453A:  MOVWF  FEA
0453C:  MOVFF  FEF,65B
04540:  MOVFF  FEC,65C
04544:  MOVFF  FEC,65D
04548:  MOVFF  FEC,65E
0454C:  CLRF   x67
0454E:  MOVFF  64B,666
04552:  MOVLW  01
04554:  MOVWF  x69
04556:  MOVLW  64
04558:  MOVWF  x68
0455A:  MOVLB  0
0455C:  CALL   23E0
04560:  MOVFF  02,660
04564:  MOVFF  01,65F
04568:  MOVLW  60
0456A:  MOVLB  6
0456C:  ADDWF  01,W
0456E:  MOVWF  01
04570:  MOVLW  01
04572:  ADDWFC 02,W
04574:  MOVWF  03
04576:  MOVF   01,W
04578:  ADDLW  BB
0457A:  MOVWF  FE9
0457C:  MOVLW  02
0457E:  ADDWFC 03,W
04580:  MOVWF  FEA
04582:  MOVFF  FEF,00
04586:  MOVFF  FEC,01
0458A:  MOVFF  FEC,02
0458E:  MOVFF  FEC,03
04592:  MOVFF  65E,664
04596:  MOVFF  65D,663
0459A:  MOVFF  65C,662
0459E:  MOVFF  65B,661
045A2:  MOVFF  03,668
045A6:  MOVFF  02,667
045AA:  MOVFF  01,666
045AE:  MOVFF  00,665
045B2:  MOVLB  0
045B4:  CALL   1F96
045B8:  MOVFF  65A,FEA
045BC:  MOVFF  659,FE9
045C0:  MOVFF  00,FEF
045C4:  MOVFF  01,FEC
045C8:  MOVFF  02,FEC
045CC:  MOVFF  03,FEC
....................       Sensor[canal].BN=(Sensor[canal].V0*(R8+R9))+(1023*R9); 
045D0:  MOVLB  6
045D2:  CLRF   x67
045D4:  MOVFF  64B,666
045D8:  MOVLW  01
045DA:  MOVWF  x69
045DC:  MOVLW  64
045DE:  MOVWF  x68
045E0:  MOVLB  0
045E2:  CALL   23E0
045E6:  MOVFF  01,659
045EA:  MOVLW  BB
045EC:  MOVLB  6
045EE:  ADDWF  01,W
045F0:  MOVWF  01
045F2:  MOVLW  02
045F4:  ADDWFC 02,W
045F6:  MOVWF  03
045F8:  MOVFF  01,659
045FC:  MOVWF  x5A
045FE:  CLRF   x67
04600:  MOVFF  64B,666
04604:  MOVLW  01
04606:  MOVWF  x69
04608:  MOVLW  64
0460A:  MOVWF  x68
0460C:  MOVLB  0
0460E:  CALL   23E0
04612:  MOVFF  01,65B
04616:  MOVLW  08
04618:  MOVLB  6
0461A:  ADDWF  01,W
0461C:  MOVWF  01
0461E:  MOVLW  00
04620:  ADDWFC 02,W
04622:  MOVWF  03
04624:  MOVF   01,W
04626:  ADDLW  BB
04628:  MOVWF  FE9
0462A:  MOVLW  02
0462C:  ADDWFC 03,W
0462E:  MOVWF  FEA
04630:  MOVFF  FEF,65B
04634:  MOVFF  FEC,65C
04638:  MOVFF  FEC,65D
0463C:  MOVFF  FEC,65E
04640:  MOVFF  FEA,660
04644:  MOVFF  FE9,65F
04648:  BCF    FD8.1
0464A:  MOVFF  170,666
0464E:  MOVFF  16F,665
04652:  MOVFF  16E,664
04656:  MOVFF  16D,663
0465A:  MOVFF  174,66A
0465E:  MOVFF  173,669
04662:  MOVFF  172,668
04666:  MOVFF  171,667
0466A:  MOVLB  0
0466C:  CALL   20F4
04670:  MOVFF  660,FEA
04674:  MOVFF  65F,FE9
04678:  MOVFF  65E,664
0467C:  MOVFF  65D,663
04680:  MOVFF  65C,662
04684:  MOVFF  65B,661
04688:  MOVFF  03,668
0468C:  MOVFF  02,667
04690:  MOVFF  01,666
04694:  MOVFF  00,665
04698:  RCALL  42D8
0469A:  MOVFF  00,65B
0469E:  MOVFF  01,65C
046A2:  MOVFF  02,65D
046A6:  MOVFF  03,65E
046AA:  MOVLB  6
046AC:  CLRF   x64
046AE:  MOVLW  C0
046B0:  MOVWF  x63
046B2:  MOVLW  7F
046B4:  MOVWF  x62
046B6:  MOVLW  88
046B8:  MOVWF  x61
046BA:  MOVFF  174,668
046BE:  MOVFF  173,667
046C2:  MOVFF  172,666
046C6:  MOVFF  171,665
046CA:  MOVLB  0
046CC:  RCALL  42D8
046CE:  MOVFF  FEA,662
046D2:  MOVFF  FE9,661
046D6:  BCF    FD8.1
046D8:  MOVFF  65E,666
046DC:  MOVFF  65D,665
046E0:  MOVFF  65C,664
046E4:  MOVFF  65B,663
046E8:  MOVFF  03,66A
046EC:  MOVFF  02,669
046F0:  MOVFF  01,668
046F4:  MOVFF  00,667
046F8:  CALL   20F4
046FC:  MOVFF  662,FEA
04700:  MOVFF  661,FE9
04704:  MOVFF  65A,FEA
04708:  MOVFF  659,FE9
0470C:  MOVFF  00,FEF
04710:  MOVFF  01,FEC
04714:  MOVFF  02,FEC
04718:  MOVFF  03,FEC
....................       Sensor[canal].Pt=(R10/((AN/Sensor[canal].BN)-1))-R7; 
0471C:  MOVLB  6
0471E:  CLRF   x67
04720:  MOVFF  64B,666
04724:  MOVLW  01
04726:  MOVWF  x69
04728:  MOVLW  64
0472A:  MOVWF  x68
0472C:  MOVLB  0
0472E:  CALL   23E0
04732:  MOVFF  01,659
04736:  MOVLW  0C
04738:  MOVLB  6
0473A:  ADDWF  01,W
0473C:  MOVWF  01
0473E:  MOVLW  00
04740:  ADDWFC 02,W
04742:  MOVWF  03
04744:  MOVF   01,W
04746:  ADDLW  BB
04748:  MOVWF  01
0474A:  MOVLW  02
0474C:  ADDWFC 03,F
0474E:  MOVFF  01,659
04752:  MOVFF  03,65A
04756:  CLRF   x67
04758:  MOVFF  64B,666
0475C:  MOVLW  01
0475E:  MOVWF  x69
04760:  MOVLW  64
04762:  MOVWF  x68
04764:  MOVLB  0
04766:  CALL   23E0
0476A:  MOVFF  02,65C
0476E:  MOVFF  01,65B
04772:  MOVLW  BB
04774:  MOVLB  6
04776:  ADDWF  01,W
04778:  MOVWF  FE9
0477A:  MOVLW  02
0477C:  ADDWFC 02,W
0477E:  MOVWF  FEA
04780:  MOVFF  FEF,00
04784:  MOVFF  FEC,01
04788:  MOVFF  FEC,02
0478C:  MOVFF  FEC,03
04790:  MOVFF  17C,664
04794:  MOVFF  17B,663
04798:  MOVFF  17A,662
0479C:  MOVFF  179,661
047A0:  MOVFF  03,668
047A4:  MOVFF  02,667
047A8:  MOVFF  01,666
047AC:  MOVFF  00,665
047B0:  MOVLB  0
047B2:  CALL   1F96
047B6:  MOVFF  00,65B
047BA:  MOVFF  01,65C
047BE:  MOVFF  02,65D
047C2:  MOVFF  03,65E
047C6:  MOVFF  FEA,660
047CA:  MOVFF  FE9,65F
047CE:  BSF    FD8.1
047D0:  MOVFF  03,666
047D4:  MOVFF  02,665
047D8:  MOVFF  01,664
047DC:  MOVFF  00,663
047E0:  MOVLB  6
047E2:  CLRF   x6A
047E4:  CLRF   x69
047E6:  CLRF   x68
047E8:  MOVLW  7F
047EA:  MOVWF  x67
047EC:  MOVLB  0
047EE:  CALL   20F4
047F2:  MOVFF  660,FEA
047F6:  MOVFF  65F,FE9
047FA:  MOVFF  178,664
047FE:  MOVFF  177,663
04802:  MOVFF  176,662
04806:  MOVFF  175,661
0480A:  MOVFF  03,668
0480E:  MOVFF  02,667
04812:  MOVFF  01,666
04816:  MOVFF  00,665
0481A:  CALL   1F96
0481E:  MOVFF  00,65B
04822:  MOVFF  01,65C
04826:  MOVFF  02,65D
0482A:  MOVFF  03,65E
0482E:  MOVFF  FEA,662
04832:  MOVFF  FE9,661
04836:  BSF    FD8.1
04838:  MOVFF  03,666
0483C:  MOVFF  02,665
04840:  MOVFF  01,664
04844:  MOVFF  00,663
04848:  MOVFF  16C,66A
0484C:  MOVFF  16B,669
04850:  MOVFF  16A,668
04854:  MOVFF  169,667
04858:  CALL   20F4
0485C:  MOVFF  662,FEA
04860:  MOVFF  661,FE9
04864:  MOVFF  65A,FEA
04868:  MOVFF  659,FE9
0486C:  MOVFF  00,FEF
04870:  MOVFF  01,FEC
04874:  MOVFF  02,FEC
04878:  MOVFF  03,FEC
....................       Sensor[canal].Pt=Sensor[canal].Pt-Sensor[canal].RPT100; //Ajuste de impedancia de cableado de PT100    
0487C:  MOVLB  6
0487E:  CLRF   x67
04880:  MOVFF  64B,666
04884:  MOVLW  01
04886:  MOVWF  x69
04888:  MOVLW  64
0488A:  MOVWF  x68
0488C:  MOVLB  0
0488E:  CALL   23E0
04892:  MOVFF  01,659
04896:  MOVLW  0C
04898:  MOVLB  6
0489A:  ADDWF  01,W
0489C:  MOVWF  01
0489E:  MOVLW  00
048A0:  ADDWFC 02,W
048A2:  MOVWF  03
048A4:  MOVF   01,W
048A6:  ADDLW  BB
048A8:  MOVWF  01
048AA:  MOVLW  02
048AC:  ADDWFC 03,F
048AE:  MOVFF  01,659
048B2:  MOVFF  03,65A
048B6:  CLRF   x67
048B8:  MOVFF  64B,666
048BC:  MOVLW  01
048BE:  MOVWF  x69
048C0:  MOVLW  64
048C2:  MOVWF  x68
048C4:  MOVLB  0
048C6:  CALL   23E0
048CA:  MOVFF  01,65B
048CE:  MOVLW  0C
048D0:  MOVLB  6
048D2:  ADDWF  01,W
048D4:  MOVWF  01
048D6:  MOVLW  00
048D8:  ADDWFC 02,W
048DA:  MOVWF  03
048DC:  MOVF   01,W
048DE:  ADDLW  BB
048E0:  MOVWF  FE9
048E2:  MOVLW  02
048E4:  ADDWFC 03,W
048E6:  MOVWF  FEA
048E8:  MOVFF  FEF,65B
048EC:  MOVFF  FEC,65C
048F0:  MOVFF  FEC,65D
048F4:  MOVFF  FEC,65E
048F8:  CLRF   x67
048FA:  MOVFF  64B,666
048FE:  MOVLW  01
04900:  MOVWF  x69
04902:  MOVLW  64
04904:  MOVWF  x68
04906:  MOVLB  0
04908:  CALL   23E0
0490C:  MOVFF  02,660
04910:  MOVFF  01,65F
04914:  MOVLW  10
04916:  MOVLB  6
04918:  ADDWF  01,W
0491A:  MOVWF  01
0491C:  MOVLW  00
0491E:  ADDWFC 02,W
04920:  MOVWF  03
04922:  MOVF   01,W
04924:  ADDLW  BB
04926:  MOVWF  FE9
04928:  MOVLW  02
0492A:  ADDWFC 03,W
0492C:  MOVWF  FEA
0492E:  MOVFF  FEF,00
04932:  MOVFF  FEC,01
04936:  MOVFF  FEC,02
0493A:  MOVFF  FEC,03
0493E:  MOVFF  FEA,660
04942:  MOVFF  FE9,65F
04946:  BSF    FD8.1
04948:  MOVFF  65E,666
0494C:  MOVFF  65D,665
04950:  MOVFF  65C,664
04954:  MOVFF  65B,663
04958:  MOVFF  03,66A
0495C:  MOVFF  02,669
04960:  MOVFF  01,668
04964:  MOVFF  00,667
04968:  MOVLB  0
0496A:  CALL   20F4
0496E:  MOVFF  660,FEA
04972:  MOVFF  65F,FE9
04976:  MOVFF  65A,FEA
0497A:  MOVFF  659,FE9
0497E:  MOVFF  00,FEF
04982:  MOVFF  01,FEC
04986:  MOVFF  02,FEC
0498A:  MOVFF  03,FEC
....................                 
....................       if(Sensor[canal].l>(media-1)) 
0498E:  MOVLB  6
04990:  CLRF   x67
04992:  MOVFF  64B,666
04996:  MOVLW  01
04998:  MOVWF  x69
0499A:  MOVLW  64
0499C:  MOVWF  x68
0499E:  MOVLB  0
049A0:  CALL   23E0
049A4:  MOVFF  02,65A
049A8:  MOVFF  01,659
049AC:  MOVLW  14
049AE:  MOVLB  6
049B0:  ADDWF  01,W
049B2:  MOVWF  01
049B4:  MOVLW  00
049B6:  ADDWFC 02,W
049B8:  MOVWF  03
049BA:  MOVF   01,W
049BC:  ADDLW  BB
049BE:  MOVWF  FE9
049C0:  MOVLW  02
049C2:  ADDWFC 03,W
049C4:  MOVWF  FEA
049C6:  MOVFF  FEF,659
049CA:  MOVLW  01
049CC:  SUBWF  x4C,W
049CE:  SUBWF  x59,W
049D0:  BZ    4A08
049D2:  BNC   4A08
....................       {Sensor[canal].l=0;} 
049D4:  CLRF   x67
049D6:  MOVFF  64B,666
049DA:  MOVLW  01
049DC:  MOVWF  x69
049DE:  MOVLW  64
049E0:  MOVWF  x68
049E2:  MOVLB  0
049E4:  CALL   23E0
049E8:  MOVFF  01,659
049EC:  MOVLW  14
049EE:  MOVLB  6
049F0:  ADDWF  01,W
049F2:  MOVWF  01
049F4:  MOVLW  00
049F6:  ADDWFC 02,W
049F8:  MOVWF  03
049FA:  MOVF   01,W
049FC:  ADDLW  BB
049FE:  MOVWF  FE9
04A00:  MOVLW  02
04A02:  ADDWFC 03,W
04A04:  MOVWF  FEA
04A06:  CLRF   FEF
....................        
....................       Sensor[canal].promedio[Sensor[canal].l]=Sensor[canal].Pt;Sensor[canal].l++; 
04A08:  CLRF   x67
04A0A:  MOVFF  64B,666
04A0E:  MOVLW  01
04A10:  MOVWF  x69
04A12:  MOVLW  64
04A14:  MOVWF  x68
04A16:  MOVLB  0
04A18:  CALL   23E0
04A1C:  MOVFF  02,65A
04A20:  MOVFF  01,659
04A24:  MOVLW  20
04A26:  MOVLB  6
04A28:  ADDWF  x59,F
04A2A:  MOVLW  00
04A2C:  ADDWFC x5A,F
04A2E:  CLRF   x67
04A30:  MOVFF  64B,666
04A34:  MOVLW  01
04A36:  MOVWF  x69
04A38:  MOVLW  64
04A3A:  MOVWF  x68
04A3C:  MOVLB  0
04A3E:  CALL   23E0
04A42:  MOVFF  02,65C
04A46:  MOVFF  01,65B
04A4A:  MOVLW  14
04A4C:  MOVLB  6
04A4E:  ADDWF  01,W
04A50:  MOVWF  01
04A52:  MOVLW  00
04A54:  ADDWFC 02,W
04A56:  MOVWF  03
04A58:  MOVF   01,W
04A5A:  ADDLW  BB
04A5C:  MOVWF  FE9
04A5E:  MOVLW  02
04A60:  ADDWFC 03,W
04A62:  MOVWF  FEA
04A64:  CLRF   x67
04A66:  MOVFF  FEF,666
04A6A:  CLRF   x69
04A6C:  MOVLW  04
04A6E:  MOVWF  x68
04A70:  MOVLB  0
04A72:  CALL   23E0
04A76:  MOVFF  02,03
04A7A:  MOVF   01,W
04A7C:  MOVLB  6
04A7E:  ADDWF  x59,W
04A80:  MOVWF  01
04A82:  MOVF   x5A,W
04A84:  ADDWFC 03,F
04A86:  MOVF   01,W
04A88:  ADDLW  BB
04A8A:  MOVWF  01
04A8C:  MOVLW  02
04A8E:  ADDWFC 03,F
04A90:  MOVFF  01,659
04A94:  MOVFF  03,65A
04A98:  CLRF   x67
04A9A:  MOVFF  64B,666
04A9E:  MOVLW  01
04AA0:  MOVWF  x69
04AA2:  MOVLW  64
04AA4:  MOVWF  x68
04AA6:  MOVLB  0
04AA8:  CALL   23E0
04AAC:  MOVFF  02,65C
04AB0:  MOVFF  01,65B
04AB4:  MOVLW  0C
04AB6:  MOVLB  6
04AB8:  ADDWF  01,W
04ABA:  MOVWF  01
04ABC:  MOVLW  00
04ABE:  ADDWFC 02,W
04AC0:  MOVWF  03
04AC2:  MOVF   01,W
04AC4:  ADDLW  BB
04AC6:  MOVWF  FE9
04AC8:  MOVLW  02
04ACA:  ADDWFC 03,W
04ACC:  MOVWF  FEA
04ACE:  MOVFF  FEF,00
04AD2:  MOVFF  FEC,01
04AD6:  MOVFF  FEC,02
04ADA:  MOVFF  FEC,03
04ADE:  MOVFF  65A,FEA
04AE2:  MOVFF  659,FE9
04AE6:  MOVFF  00,FEF
04AEA:  MOVFF  01,FEC
04AEE:  MOVFF  02,FEC
04AF2:  MOVFF  03,FEC
04AF6:  CLRF   x67
04AF8:  MOVFF  64B,666
04AFC:  MOVLW  01
04AFE:  MOVWF  x69
04B00:  MOVLW  64
04B02:  MOVWF  x68
04B04:  MOVLB  0
04B06:  CALL   23E0
04B0A:  MOVFF  01,659
04B0E:  MOVLW  14
04B10:  MOVLB  6
04B12:  ADDWF  01,W
04B14:  MOVWF  01
04B16:  MOVLW  00
04B18:  ADDWFC 02,W
04B1A:  MOVWF  03
04B1C:  MOVF   01,W
04B1E:  ADDLW  BB
04B20:  MOVWF  FE9
04B22:  MOVLW  02
04B24:  ADDWFC 03,W
04B26:  MOVWF  FEA
04B28:  INCF   FEF,F
....................              
....................       for(Sensor[canal].h=0;Sensor[canal].h<media;Sensor[canal].h++) 
04B2A:  CLRF   x67
04B2C:  MOVFF  64B,666
04B30:  MOVLW  01
04B32:  MOVWF  x69
04B34:  MOVLW  64
04B36:  MOVWF  x68
04B38:  MOVLB  0
04B3A:  CALL   23E0
04B3E:  MOVFF  02,65A
04B42:  MOVFF  01,659
04B46:  MOVLW  15
04B48:  MOVLB  6
04B4A:  ADDWF  01,W
04B4C:  MOVWF  01
04B4E:  MOVLW  00
04B50:  ADDWFC 02,W
04B52:  MOVWF  03
04B54:  MOVF   01,W
04B56:  ADDLW  BB
04B58:  MOVWF  FE9
04B5A:  MOVLW  02
04B5C:  ADDWFC 03,W
04B5E:  MOVWF  FEA
04B60:  CLRF   FEF
04B62:  CLRF   x67
04B64:  MOVFF  64B,666
04B68:  MOVLW  01
04B6A:  MOVWF  x69
04B6C:  MOVLW  64
04B6E:  MOVWF  x68
04B70:  MOVLB  0
04B72:  CALL   23E0
04B76:  MOVFF  02,65A
04B7A:  MOVFF  01,659
04B7E:  MOVLW  15
04B80:  MOVLB  6
04B82:  ADDWF  01,W
04B84:  MOVWF  01
04B86:  MOVLW  00
04B88:  ADDWFC 02,W
04B8A:  MOVWF  03
04B8C:  MOVF   01,W
04B8E:  ADDLW  BB
04B90:  MOVWF  FE9
04B92:  MOVLW  02
04B94:  ADDWFC 03,W
04B96:  MOVWF  FEA
04B98:  MOVF   x4C,W
04B9A:  SUBWF  FEF,W
04B9C:  BTFSC  FD8.0
04B9E:  BRA    4CBE
....................       { 
....................          Prom+=Sensor[canal].promedio[Sensor[canal].h]; 
04BA0:  CLRF   x67
04BA2:  MOVFF  64B,666
04BA6:  MOVLW  01
04BA8:  MOVWF  x69
04BAA:  MOVLW  64
04BAC:  MOVWF  x68
04BAE:  MOVLB  0
04BB0:  CALL   23E0
04BB4:  MOVFF  02,65A
04BB8:  MOVFF  01,659
04BBC:  MOVLW  20
04BBE:  MOVLB  6
04BC0:  ADDWF  x59,F
04BC2:  MOVLW  00
04BC4:  ADDWFC x5A,F
04BC6:  CLRF   x67
04BC8:  MOVFF  64B,666
04BCC:  MOVLW  01
04BCE:  MOVWF  x69
04BD0:  MOVLW  64
04BD2:  MOVWF  x68
04BD4:  MOVLB  0
04BD6:  CALL   23E0
04BDA:  MOVFF  02,65C
04BDE:  MOVFF  01,65B
04BE2:  MOVLW  15
04BE4:  MOVLB  6
04BE6:  ADDWF  01,W
04BE8:  MOVWF  01
04BEA:  MOVLW  00
04BEC:  ADDWFC 02,W
04BEE:  MOVWF  03
04BF0:  MOVF   01,W
04BF2:  ADDLW  BB
04BF4:  MOVWF  FE9
04BF6:  MOVLW  02
04BF8:  ADDWFC 03,W
04BFA:  MOVWF  FEA
04BFC:  CLRF   x67
04BFE:  MOVFF  FEF,666
04C02:  CLRF   x69
04C04:  MOVLW  04
04C06:  MOVWF  x68
04C08:  MOVLB  0
04C0A:  CALL   23E0
04C0E:  MOVFF  02,03
04C12:  MOVF   01,W
04C14:  MOVLB  6
04C16:  ADDWF  x59,W
04C18:  MOVWF  01
04C1A:  MOVF   x5A,W
04C1C:  ADDWFC 03,F
04C1E:  MOVF   01,W
04C20:  ADDLW  BB
04C22:  MOVWF  FE9
04C24:  MOVLW  02
04C26:  ADDWFC 03,W
04C28:  MOVWF  FEA
04C2A:  MOVFF  FEF,00
04C2E:  MOVFF  FEC,01
04C32:  MOVFF  FEC,02
04C36:  MOVFF  FEC,03
04C3A:  MOVFF  FEA,65A
04C3E:  MOVFF  FE9,659
04C42:  BCF    FD8.1
04C44:  MOVFF  1AE,666
04C48:  MOVFF  1AD,665
04C4C:  MOVFF  1AC,664
04C50:  MOVFF  1AB,663
04C54:  MOVFF  03,66A
04C58:  MOVFF  02,669
04C5C:  MOVFF  01,668
04C60:  MOVFF  00,667
04C64:  MOVLB  0
04C66:  CALL   20F4
04C6A:  MOVFF  65A,FEA
04C6E:  MOVFF  659,FE9
04C72:  MOVFF  03,1AE
04C76:  MOVFF  02,1AD
04C7A:  MOVFF  01,1AC
04C7E:  MOVFF  00,1AB
....................       }  
04C82:  MOVLB  6
04C84:  CLRF   x67
04C86:  MOVFF  64B,666
04C8A:  MOVLW  01
04C8C:  MOVWF  x69
04C8E:  MOVLW  64
04C90:  MOVWF  x68
04C92:  MOVLB  0
04C94:  CALL   23E0
04C98:  MOVFF  02,65A
04C9C:  MOVFF  01,659
04CA0:  MOVLW  15
04CA2:  MOVLB  6
04CA4:  ADDWF  01,W
04CA6:  MOVWF  01
04CA8:  MOVLW  00
04CAA:  ADDWFC 02,W
04CAC:  MOVWF  03
04CAE:  MOVF   01,W
04CB0:  ADDLW  BB
04CB2:  MOVWF  FE9
04CB4:  MOVLW  02
04CB6:  ADDWFC 03,W
04CB8:  MOVWF  FEA
04CBA:  INCF   FEF,F
04CBC:  BRA    4B62
....................       Prom=Prom/media;    
04CBE:  CLRF   x61
04CC0:  MOVFF  64C,660
04CC4:  MOVLB  0
04CC6:  CALL   1F38
04CCA:  MOVFF  1AE,664
04CCE:  MOVFF  1AD,663
04CD2:  MOVFF  1AC,662
04CD6:  MOVFF  1AB,661
04CDA:  MOVFF  03,668
04CDE:  MOVFF  02,667
04CE2:  MOVFF  01,666
04CE6:  MOVFF  00,665
04CEA:  CALL   1F96
04CEE:  MOVFF  03,1AE
04CF2:  MOVFF  02,1AD
04CF6:  MOVFF  01,1AC
04CFA:  MOVFF  00,1AB
....................       //Temperature=(Prom-100.0)/(0.385);  // Ecuacin determinada por linealizacin en Matlab. Revisar este polinomio.   
....................       Temperature=((Prom*Prom)*a)+(Prom*b)+c;  // Ecuacin determinada por linealizacin en Matlab. Revisar este polinomio. 
04CFE:  MOVFF  1AE,664
04D02:  MOVFF  1AD,663
04D06:  MOVFF  1AC,662
04D0A:  MOVFF  1AB,661
04D0E:  MOVFF  1AE,668
04D12:  MOVFF  1AD,667
04D16:  MOVFF  1AC,666
04D1A:  MOVFF  1AB,665
04D1E:  CALL   42D8
04D22:  MOVFF  00,659
04D26:  MOVFF  01,65A
04D2A:  MOVFF  02,65B
04D2E:  MOVFF  03,65C
04D32:  MOVFF  03,664
04D36:  MOVFF  02,663
04D3A:  MOVFF  01,662
04D3E:  MOVFF  00,661
04D42:  MOVFF  1DE,668
04D46:  MOVFF  1DD,667
04D4A:  MOVFF  1DC,666
04D4E:  MOVFF  1DB,665
04D52:  CALL   42D8
04D56:  MOVFF  00,659
04D5A:  MOVFF  01,65A
04D5E:  MOVFF  02,65B
04D62:  MOVFF  03,65C
04D66:  MOVFF  1AE,664
04D6A:  MOVFF  1AD,663
04D6E:  MOVFF  1AC,662
04D72:  MOVFF  1AB,661
04D76:  MOVFF  1E2,668
04D7A:  MOVFF  1E1,667
04D7E:  MOVFF  1E0,666
04D82:  MOVFF  1DF,665
04D86:  CALL   42D8
04D8A:  BCF    FD8.1
04D8C:  MOVFF  65C,666
04D90:  MOVFF  65B,665
04D94:  MOVFF  65A,664
04D98:  MOVFF  659,663
04D9C:  MOVFF  03,66A
04DA0:  MOVFF  02,669
04DA4:  MOVFF  01,668
04DA8:  MOVFF  00,667
04DAC:  CALL   20F4
04DB0:  MOVFF  00,659
04DB4:  MOVFF  01,65A
04DB8:  MOVFF  02,65B
04DBC:  MOVFF  03,65C
04DC0:  BCF    FD8.1
04DC2:  MOVFF  03,666
04DC6:  MOVFF  02,665
04DCA:  MOVFF  01,664
04DCE:  MOVFF  00,663
04DD2:  MOVFF  1E6,66A
04DD6:  MOVFF  1E5,669
04DDA:  MOVFF  1E4,668
04DDE:  MOVFF  1E3,667
04DE2:  CALL   20F4
04DE6:  MOVFF  03,1B2
04DEA:  MOVFF  02,1B1
04DEE:  MOVFF  01,1B0
04DF2:  MOVFF  00,1AF
....................       Temperature+=((float)Sensor[canal].Ajuste-(float)Sensor[canal].Ajusten); 
04DF6:  MOVLB  6
04DF8:  CLRF   x67
04DFA:  MOVFF  64B,666
04DFE:  MOVLW  01
04E00:  MOVWF  x69
04E02:  MOVLW  64
04E04:  MOVWF  x68
04E06:  MOVLB  0
04E08:  CALL   23E0
04E0C:  MOVFF  02,65A
04E10:  MOVFF  01,659
04E14:  MOVLW  1E
04E16:  MOVLB  6
04E18:  ADDWF  01,W
04E1A:  MOVWF  01
04E1C:  MOVLW  00
04E1E:  ADDWFC 02,W
04E20:  MOVWF  03
04E22:  MOVF   01,W
04E24:  ADDLW  BB
04E26:  MOVWF  FE9
04E28:  MOVLW  02
04E2A:  ADDWFC 03,W
04E2C:  MOVWF  FEA
04E2E:  MOVF   FEF,W
04E30:  CLRF   x61
04E32:  MOVWF  x60
04E34:  MOVLB  0
04E36:  CALL   1F38
04E3A:  MOVFF  00,659
04E3E:  MOVFF  01,65A
04E42:  MOVFF  02,65B
04E46:  MOVFF  03,65C
04E4A:  MOVLB  6
04E4C:  CLRF   x67
04E4E:  MOVFF  64B,666
04E52:  MOVLW  01
04E54:  MOVWF  x69
04E56:  MOVLW  64
04E58:  MOVWF  x68
04E5A:  MOVLB  0
04E5C:  CALL   23E0
04E60:  MOVFF  02,65E
04E64:  MOVFF  01,65D
04E68:  MOVLW  1F
04E6A:  MOVLB  6
04E6C:  ADDWF  01,W
04E6E:  MOVWF  01
04E70:  MOVLW  00
04E72:  ADDWFC 02,W
04E74:  MOVWF  03
04E76:  MOVF   01,W
04E78:  ADDLW  BB
04E7A:  MOVWF  FE9
04E7C:  MOVLW  02
04E7E:  ADDWFC 03,W
04E80:  MOVWF  FEA
04E82:  MOVF   FEF,W
04E84:  CLRF   x61
04E86:  MOVWF  x60
04E88:  MOVLB  0
04E8A:  CALL   1F38
04E8E:  MOVFF  FEA,65E
04E92:  MOVFF  FE9,65D
04E96:  BSF    FD8.1
04E98:  MOVFF  65C,666
04E9C:  MOVFF  65B,665
04EA0:  MOVFF  65A,664
04EA4:  MOVFF  659,663
04EA8:  MOVFF  03,66A
04EAC:  MOVFF  02,669
04EB0:  MOVFF  01,668
04EB4:  MOVFF  00,667
04EB8:  CALL   20F4
04EBC:  MOVFF  65E,FEA
04EC0:  MOVFF  65D,FE9
04EC4:  MOVFF  FEA,65A
04EC8:  MOVFF  FE9,659
04ECC:  BCF    FD8.1
04ECE:  MOVFF  1B2,666
04ED2:  MOVFF  1B1,665
04ED6:  MOVFF  1B0,664
04EDA:  MOVFF  1AF,663
04EDE:  MOVFF  03,66A
04EE2:  MOVFF  02,669
04EE6:  MOVFF  01,668
04EEA:  MOVFF  00,667
04EEE:  CALL   20F4
04EF2:  MOVFF  65A,FEA
04EF6:  MOVFF  659,FE9
04EFA:  MOVFF  03,1B2
04EFE:  MOVFF  02,1B1
04F02:  MOVFF  01,1B0
04F06:  MOVFF  00,1AF
....................        
....................       return Temperature; 
04F0A:  MOVFF  1AF,00
04F0E:  MOVFF  1B0,01
04F12:  MOVFF  1B1,02
04F16:  MOVFF  1B2,03
04F1A:  BRA    502C
....................    }else{ 
04F1C:  BRA    502C
04F1E:  MOVLB  2
....................       Temperature=(PresionCamara*PresionCamara*pa)+(PresionCamara*pb)+pc; 
04F20:  MOVFF  212,667
04F24:  MOVFF  211,666
04F28:  MOVFF  212,669
04F2C:  MOVFF  211,668
04F30:  MOVLB  0
04F32:  CALL   23E0
04F36:  MOVFF  02,65A
04F3A:  MOVFF  01,659
04F3E:  MOVFF  02,661
04F42:  MOVFF  01,660
04F46:  CALL   1F38
04F4A:  MOVFF  03,664
04F4E:  MOVFF  02,663
04F52:  MOVFF  01,662
04F56:  MOVFF  00,661
04F5A:  MOVFF  650,668
04F5E:  MOVFF  64F,667
04F62:  MOVFF  64E,666
04F66:  MOVFF  64D,665
04F6A:  CALL   42D8
04F6E:  MOVFF  00,659
04F72:  MOVFF  01,65A
04F76:  MOVFF  02,65B
04F7A:  MOVFF  03,65C
04F7E:  MOVFF  212,661
04F82:  MOVFF  211,660
04F86:  CALL   1F38
04F8A:  MOVFF  03,664
04F8E:  MOVFF  02,663
04F92:  MOVFF  01,662
04F96:  MOVFF  00,661
04F9A:  MOVFF  654,668
04F9E:  MOVFF  653,667
04FA2:  MOVFF  652,666
04FA6:  MOVFF  651,665
04FAA:  CALL   42D8
04FAE:  BCF    FD8.1
04FB0:  MOVFF  65C,666
04FB4:  MOVFF  65B,665
04FB8:  MOVFF  65A,664
04FBC:  MOVFF  659,663
04FC0:  MOVFF  03,66A
04FC4:  MOVFF  02,669
04FC8:  MOVFF  01,668
04FCC:  MOVFF  00,667
04FD0:  CALL   20F4
04FD4:  MOVFF  00,659
04FD8:  MOVFF  01,65A
04FDC:  MOVFF  02,65B
04FE0:  MOVFF  03,65C
04FE4:  BCF    FD8.1
04FE6:  MOVFF  03,666
04FEA:  MOVFF  02,665
04FEE:  MOVFF  01,664
04FF2:  MOVFF  00,663
04FF6:  MOVFF  658,66A
04FFA:  MOVFF  657,669
04FFE:  MOVFF  656,668
05002:  MOVFF  655,667
05006:  CALL   20F4
0500A:  MOVFF  03,1B2
0500E:  MOVFF  02,1B1
05012:  MOVFF  01,1B0
05016:  MOVFF  00,1AF
....................       return Temperature; 
0501A:  MOVFF  1AF,00
0501E:  MOVFF  1B0,01
05022:  MOVFF  1B1,02
05026:  MOVFF  1B2,03
0502A:  BRA    502C
....................    } 
.................... } 
0502C:  RETLW  00
....................  
.................... float Leer_Sensor_Presion_Camara(int media){ 
....................    promediopresion=0.0; 
*
05590:  MOVLB  1
05592:  CLRF   x8C
05594:  CLRF   x8B
05596:  CLRF   x8A
05598:  CLRF   x89
....................    V1 = sensores(2); 
0559A:  MOVLW  02
0559C:  MOVLB  6
0559E:  MOVWF  x5B
055A0:  MOVLB  0
055A2:  CALL   43CE
055A6:  MOVFF  03,1C6
055AA:  MOVFF  02,1C5
055AE:  MOVFF  01,1C4
055B2:  MOVFF  00,1C3
....................    Presion=(0.06364*V1)-12.5; //R=240, V=5; Sensor de Presion Absoluta de 0-50PSIA 
055B6:  MOVLW  B0
055B8:  MOVLB  6
055BA:  MOVWF  x64
055BC:  MOVLW  55
055BE:  MOVWF  x63
055C0:  MOVLW  02
055C2:  MOVWF  x62
055C4:  MOVLW  7B
055C6:  MOVWF  x61
055C8:  MOVFF  1C6,668
055CC:  MOVFF  1C5,667
055D0:  MOVFF  1C4,666
055D4:  MOVFF  1C3,665
055D8:  MOVLB  0
055DA:  CALL   42D8
055DE:  MOVFF  00,64C
055E2:  MOVFF  01,64D
055E6:  MOVFF  02,64E
055EA:  MOVFF  03,64F
055EE:  BSF    FD8.1
055F0:  MOVFF  03,666
055F4:  MOVFF  02,665
055F8:  MOVFF  01,664
055FC:  MOVFF  00,663
05600:  MOVLB  6
05602:  CLRF   x6A
05604:  CLRF   x69
05606:  MOVLW  48
05608:  MOVWF  x68
0560A:  MOVLW  82
0560C:  MOVWF  x67
0560E:  MOVLB  0
05610:  CALL   20F4
05614:  MOVFF  03,1CA
05618:  MOVFF  02,1C9
0561C:  MOVFF  01,1C8
05620:  MOVFF  00,1C7
....................    Presion=Presion*6.89476; 
05624:  MOVFF  1CA,664
05628:  MOVFF  1C9,663
0562C:  MOVFF  1C8,662
05630:  MOVFF  1C7,661
05634:  MOVLW  E0
05636:  MOVLB  6
05638:  MOVWF  x68
0563A:  MOVLW  A1
0563C:  MOVWF  x67
0563E:  MOVLW  5C
05640:  MOVWF  x66
05642:  MOVLW  81
05644:  MOVWF  x65
05646:  MOVLB  0
05648:  CALL   42D8
0564C:  MOVFF  03,1CA
05650:  MOVFF  02,1C9
05654:  MOVFF  01,1C8
05658:  MOVFF  00,1C7
....................     
....................    if(Presion<0.0) 
0565C:  MOVFF  1CA,652
05660:  MOVFF  1C9,651
05664:  MOVFF  1C8,650
05668:  MOVFF  1C7,64F
0566C:  MOVLB  6
0566E:  CLRF   x56
05670:  CLRF   x55
05672:  CLRF   x54
05674:  CLRF   x53
05676:  MOVLB  0
05678:  CALL   25CA
0567C:  BNC   5688
....................       Presion=0.0; 
0567E:  MOVLB  1
05680:  CLRF   xCA
05682:  CLRF   xC9
05684:  CLRF   xC8
05686:  CLRF   xC7
....................     
....................    if(r>media-1) 
05688:  MOVLW  01
0568A:  MOVLB  6
0568C:  SUBWF  x4B,W
0568E:  MOVLB  2
05690:  SUBWF  x1F,W
05692:  BZ    5698
05694:  BNC   5698
....................       r=0; 
05696:  CLRF   x1F
....................    PromPresion[r]=Presion;r++; 
05698:  MOVF   x1F,W
0569A:  MULLW  04
0569C:  MOVF   FF3,W
0569E:  CLRF   03
056A0:  ADDLW  C5
056A2:  MOVWF  FE9
056A4:  MOVLW  00
056A6:  ADDWFC 03,W
056A8:  MOVWF  FEA
056AA:  MOVFF  1C7,FEF
056AE:  MOVFF  1C8,FEC
056B2:  MOVFF  1C9,FEC
056B6:  MOVFF  1CA,FEC
056BA:  INCF   x1F,F
....................           
....................    for(t=0;t<=(media-1);t++){ 
056BC:  CLRF   x20
056BE:  MOVLW  01
056C0:  MOVLB  6
056C2:  SUBWF  x4B,W
056C4:  MOVLB  2
056C6:  SUBWF  x20,W
056C8:  BZ    56CC
056CA:  BC    573C
....................       promediopresion+=PromPresion[t]; 
056CC:  MOVF   x20,W
056CE:  MULLW  04
056D0:  MOVF   FF3,W
056D2:  CLRF   03
056D4:  ADDLW  C5
056D6:  MOVWF  FE9
056D8:  MOVLW  00
056DA:  ADDWFC 03,W
056DC:  MOVWF  FEA
056DE:  MOVFF  FEF,00
056E2:  MOVFF  FEC,01
056E6:  MOVFF  FEC,02
056EA:  MOVFF  FEC,03
056EE:  MOVFF  FEA,64D
056F2:  MOVFF  FE9,64C
056F6:  BCF    FD8.1
056F8:  MOVFF  18C,666
056FC:  MOVFF  18B,665
05700:  MOVFF  18A,664
05704:  MOVFF  189,663
05708:  MOVFF  03,66A
0570C:  MOVFF  02,669
05710:  MOVFF  01,668
05714:  MOVFF  00,667
05718:  MOVLB  0
0571A:  CALL   20F4
0571E:  MOVFF  64D,FEA
05722:  MOVFF  64C,FE9
05726:  MOVFF  03,18C
0572A:  MOVFF  02,18B
0572E:  MOVFF  01,18A
05732:  MOVFF  00,189
....................    } 
05736:  MOVLB  2
05738:  INCF   x20,F
0573A:  BRA    56BE
....................     
....................    promediopresion=promediopresion/media;    
0573C:  MOVLB  6
0573E:  CLRF   x61
05740:  MOVFF  64B,660
05744:  MOVLB  0
05746:  CALL   1F38
0574A:  MOVFF  18C,664
0574E:  MOVFF  18B,663
05752:  MOVFF  18A,662
05756:  MOVFF  189,661
0575A:  MOVFF  03,668
0575E:  MOVFF  02,667
05762:  MOVFF  01,666
05766:  MOVFF  00,665
0576A:  CALL   1F96
0576E:  MOVFF  03,18C
05772:  MOVFF  02,18B
05776:  MOVFF  01,18A
0577A:  MOVFF  00,189
....................     
....................    return promediopresion;    
0577E:  MOVFF  189,00
05782:  MOVFF  18A,01
05786:  MOVFF  18B,02
0578A:  MOVFF  18C,03
.................... } 
0578E:  GOTO   837A (RETURN)
....................  
.................... float Leer_Sensor_Presion_PreCamara(int media){ 
....................    promediopresionp=0.0; 
05792:  MOVLB  1
05794:  CLRF   x90
05796:  CLRF   x8F
05798:  CLRF   x8E
0579A:  CLRF   x8D
....................    V2 = sensores(3); 
0579C:  MOVLW  03
0579E:  MOVLB  6
057A0:  MOVWF  x5B
057A2:  MOVLB  0
057A4:  CALL   43CE
057A8:  MOVFF  03,1CE
057AC:  MOVFF  02,1CD
057B0:  MOVFF  01,1CC
057B4:  MOVFF  00,1CB
....................    //Presionp=(0.073842*V2)-14.504; //R=240, V=5; Sensor de Presion Manometrica de 0-58PSIG 
....................    if(V2<1010){ 
057B8:  MOVFF  1CE,652
057BC:  MOVFF  1CD,651
057C0:  MOVFF  1CC,650
057C4:  MOVFF  1CB,64F
057C8:  MOVLB  6
057CA:  CLRF   x56
057CC:  MOVLW  80
057CE:  MOVWF  x55
057D0:  MOVLW  7C
057D2:  MOVWF  x54
057D4:  MOVLW  88
057D6:  MOVWF  x53
057D8:  MOVLB  0
057DA:  CALL   25CA
057DE:  BNC   5888
....................       Presionp=(0.06364*V2)-12.5; //R=240, V=5; Sensor de Presion Manometrica de 0-50PSIA 
057E0:  MOVLW  B0
057E2:  MOVLB  6
057E4:  MOVWF  x64
057E6:  MOVLW  55
057E8:  MOVWF  x63
057EA:  MOVLW  02
057EC:  MOVWF  x62
057EE:  MOVLW  7B
057F0:  MOVWF  x61
057F2:  MOVFF  1CE,668
057F6:  MOVFF  1CD,667
057FA:  MOVFF  1CC,666
057FE:  MOVFF  1CB,665
05802:  MOVLB  0
05804:  CALL   42D8
05808:  MOVFF  00,64C
0580C:  MOVFF  01,64D
05810:  MOVFF  02,64E
05814:  MOVFF  03,64F
05818:  BSF    FD8.1
0581A:  MOVFF  03,666
0581E:  MOVFF  02,665
05822:  MOVFF  01,664
05826:  MOVFF  00,663
0582A:  MOVLB  6
0582C:  CLRF   x6A
0582E:  CLRF   x69
05830:  MOVLW  48
05832:  MOVWF  x68
05834:  MOVLW  82
05836:  MOVWF  x67
05838:  MOVLB  0
0583A:  CALL   20F4
0583E:  MOVFF  03,1D2
05842:  MOVFF  02,1D1
05846:  MOVFF  01,1D0
0584A:  MOVFF  00,1CF
....................       Presionp=Presionp*6.89476; 
0584E:  MOVFF  1D2,664
05852:  MOVFF  1D1,663
05856:  MOVFF  1D0,662
0585A:  MOVFF  1CF,661
0585E:  MOVLW  E0
05860:  MOVLB  6
05862:  MOVWF  x68
05864:  MOVLW  A1
05866:  MOVWF  x67
05868:  MOVLW  5C
0586A:  MOVWF  x66
0586C:  MOVLW  81
0586E:  MOVWF  x65
05870:  MOVLB  0
05872:  CALL   42D8
05876:  MOVFF  03,1D2
0587A:  MOVFF  02,1D1
0587E:  MOVFF  01,1D0
05882:  MOVFF  00,1CF
....................    }else{ 
05886:  BRA    5892
....................       Presionp=0.0; 
05888:  MOVLB  1
0588A:  CLRF   xD2
0588C:  CLRF   xD1
0588E:  CLRF   xD0
05890:  CLRF   xCF
....................    } 
....................     
....................    if(Presionp<0.0) 
05892:  MOVFF  1D2,652
05896:  MOVFF  1D1,651
0589A:  MOVFF  1D0,650
0589E:  MOVFF  1CF,64F
058A2:  MOVLB  6
058A4:  CLRF   x56
058A6:  CLRF   x55
058A8:  CLRF   x54
058AA:  CLRF   x53
058AC:  MOVLB  0
058AE:  CALL   25CA
058B2:  BNC   58BE
....................       Presionp=0.0; 
058B4:  MOVLB  1
058B6:  CLRF   xD2
058B8:  CLRF   xD1
058BA:  CLRF   xD0
058BC:  CLRF   xCF
....................     
....................    if(r22>media-1) 
058BE:  MOVLW  01
058C0:  MOVLB  6
058C2:  SUBWF  x4B,W
058C4:  MOVLB  2
058C6:  SUBWF  x21,W
058C8:  BZ    58CE
058CA:  BNC   58CE
....................       r22=0; 
058CC:  CLRF   x21
....................    PromPresionp[r22]=Presionp;r22++; 
058CE:  MOVF   x21,W
058D0:  MULLW  04
058D2:  MOVF   FF3,W
058D4:  CLRF   03
058D6:  ADDLW  15
058D8:  MOVWF  FE9
058DA:  MOVLW  01
058DC:  ADDWFC 03,W
058DE:  MOVWF  FEA
058E0:  MOVFF  1CF,FEF
058E4:  MOVFF  1D0,FEC
058E8:  MOVFF  1D1,FEC
058EC:  MOVFF  1D2,FEC
058F0:  INCF   x21,F
....................           
....................    for(t2=0;t2<=(media-1);t2++){ 
058F2:  CLRF   x22
058F4:  MOVLW  01
058F6:  MOVLB  6
058F8:  SUBWF  x4B,W
058FA:  MOVLB  2
058FC:  SUBWF  x22,W
058FE:  BZ    5902
05900:  BC    5972
....................       promediopresionp+=PromPresionp[t2]; 
05902:  MOVF   x22,W
05904:  MULLW  04
05906:  MOVF   FF3,W
05908:  CLRF   03
0590A:  ADDLW  15
0590C:  MOVWF  FE9
0590E:  MOVLW  01
05910:  ADDWFC 03,W
05912:  MOVWF  FEA
05914:  MOVFF  FEF,00
05918:  MOVFF  FEC,01
0591C:  MOVFF  FEC,02
05920:  MOVFF  FEC,03
05924:  MOVFF  FEA,64D
05928:  MOVFF  FE9,64C
0592C:  BCF    FD8.1
0592E:  MOVFF  190,666
05932:  MOVFF  18F,665
05936:  MOVFF  18E,664
0593A:  MOVFF  18D,663
0593E:  MOVFF  03,66A
05942:  MOVFF  02,669
05946:  MOVFF  01,668
0594A:  MOVFF  00,667
0594E:  MOVLB  0
05950:  CALL   20F4
05954:  MOVFF  64D,FEA
05958:  MOVFF  64C,FE9
0595C:  MOVFF  03,190
05960:  MOVFF  02,18F
05964:  MOVFF  01,18E
05968:  MOVFF  00,18D
....................    } 
0596C:  MOVLB  2
0596E:  INCF   x22,F
05970:  BRA    58F4
....................     
....................    promediopresionp=promediopresionp/media;    
05972:  MOVLB  6
05974:  CLRF   x61
05976:  MOVFF  64B,660
0597A:  MOVLB  0
0597C:  CALL   1F38
05980:  MOVFF  190,664
05984:  MOVFF  18F,663
05988:  MOVFF  18E,662
0598C:  MOVFF  18D,661
05990:  MOVFF  03,668
05994:  MOVFF  02,667
05998:  MOVFF  01,666
0599C:  MOVFF  00,665
059A0:  CALL   1F96
059A4:  MOVFF  03,190
059A8:  MOVFF  02,18F
059AC:  MOVFF  01,18E
059B0:  MOVFF  00,18D
....................     
....................    return promediopresionp; 
059B4:  MOVFF  18D,00
059B8:  MOVFF  18E,01
059BC:  MOVFF  18F,02
059C0:  MOVFF  190,03
....................     
....................    /////////////////************** 
....................    /*promediopresionp=0.0; 
....................    V2 = sensores(3);   //Lectura de Divisor de Voltaje de PT100 con resistencia de 1k (+-10%) 
....................    V2 = V2*(5.0/1024.0); 
....................    Presionp=(V2-0.2)/(K); 
....................     
....................    if(Presionp<0.0) 
....................    { 
....................       Presionp=0.0; 
....................    } 
....................     
....................    if(r22>media-1) 
....................    {r22=0;} 
....................    PromPresionp[r22]=Presionp;r22++; 
....................           
....................    for(t2=0;t2<=(media-1);t2++) 
....................    { 
....................       promediopresionp+=PromPresionp[t2]; 
....................    }  
....................    promediopresionp=promediopresionp/media;    
....................     
....................    return promediopresionp;*/ 
.................... } 
059C4:  GOTO   83A2 (RETURN)
....................  
.................... void Controla(){ 
.................... //-------------------------------Control de Calentamiento------------------------------------------------------------//          
....................    //error=desvio+Setpoint-Temperatura;      // Clculo del error ****** 
....................     
....................    if(error<-0.3)    
*
07850:  MOVFF  1AA,652
07854:  MOVFF  1A9,651
07858:  MOVFF  1A8,650
0785C:  MOVFF  1A7,64F
07860:  MOVLW  9A
07862:  MOVLB  6
07864:  MOVWF  x56
07866:  MOVLW  99
07868:  MOVWF  x55
0786A:  MOVWF  x54
0786C:  MOVLW  7D
0786E:  MOVWF  x53
07870:  MOVLB  0
07872:  CALL   25CA
07876:  BNC   7888
....................       Ganancia=Ganancia2;    
07878:  MOVFF  1BE,1BA
0787C:  MOVFF  1BD,1B9
07880:  MOVFF  1BC,1B8
07884:  MOVFF  1BB,1B7
....................     
....................    if(Ganancia<1)    
07888:  MOVFF  1BA,652
0788C:  MOVFF  1B9,651
07890:  MOVFF  1B8,650
07894:  MOVFF  1B7,64F
07898:  MOVLB  6
0789A:  CLRF   x56
0789C:  CLRF   x55
0789E:  CLRF   x54
078A0:  MOVLW  7F
078A2:  MOVWF  x53
078A4:  MOVLB  0
078A6:  CALL   25CA
078AA:  BNC   78B8
....................       Ganancia=1; 
078AC:  MOVLB  1
078AE:  CLRF   xBA
078B0:  CLRF   xB9
078B2:  CLRF   xB8
078B4:  MOVLW  7F
078B6:  MOVWF  xB7
....................     
....................    if(error<0.0)     // Anti Wind_DOWN     
078B8:  MOVFF  1AA,652
078BC:  MOVFF  1A9,651
078C0:  MOVFF  1A8,650
078C4:  MOVFF  1A7,64F
078C8:  MOVLB  6
078CA:  CLRF   x56
078CC:  CLRF   x55
078CE:  CLRF   x54
078D0:  CLRF   x53
078D2:  MOVLB  0
078D4:  CALL   25CA
078D8:  BNC   78E6
....................       error=0.0;      
078DA:  MOVLB  1
078DC:  CLRF   xAA
078DE:  CLRF   xA9
078E0:  CLRF   xA8
078E2:  CLRF   xA7
078E4:  MOVLB  0
....................        
....................    tmp=error*Ganancia;  // Control Proporcional. 
078E6:  MOVFF  1AA,664
078EA:  MOVFF  1A9,663
078EE:  MOVFF  1A8,662
078F2:  MOVFF  1A7,661
078F6:  MOVFF  1BA,668
078FA:  MOVFF  1B9,667
078FE:  MOVFF  1B8,666
07902:  MOVFF  1B7,665
07906:  CALL   42D8
0790A:  MOVFF  03,1B6
0790E:  MOVFF  02,1B5
07912:  MOVFF  01,1B4
07916:  MOVFF  00,1B3
....................           
....................    if(tmp>Setpoint)   // Anti Wind-UP          
0791A:  MOVLB  6
0791C:  CLRF   x61
0791E:  MOVFF  1FF,660
07922:  MOVLB  0
07924:  CALL   1F38
07928:  MOVFF  03,652
0792C:  MOVFF  02,651
07930:  MOVFF  01,650
07934:  MOVFF  00,64F
07938:  MOVFF  1B6,656
0793C:  MOVFF  1B5,655
07940:  MOVFF  1B4,654
07944:  MOVFF  1B3,653
07948:  CALL   25CA
0794C:  BNC   796C
....................       tmp=Setpoint;    
0794E:  MOVLB  6
07950:  CLRF   x61
07952:  MOVFF  1FF,660
07956:  MOVLB  0
07958:  CALL   1F38
0795C:  MOVFF  03,1B6
07960:  MOVFF  02,1B5
07964:  MOVFF  01,1B4
07968:  MOVFF  00,1B3
....................                 
....................    if(tmp<0.0)     // Anti Wind_DOWN       
0796C:  MOVFF  1B6,652
07970:  MOVFF  1B5,651
07974:  MOVFF  1B4,650
07978:  MOVFF  1B3,64F
0797C:  MOVLB  6
0797E:  CLRF   x56
07980:  CLRF   x55
07982:  CLRF   x54
07984:  CLRF   x53
07986:  MOVLB  0
07988:  CALL   25CA
0798C:  BNC   7998
....................       tmp=0.0;    
0798E:  MOVLB  1
07990:  CLRF   xB6
07992:  CLRF   xB5
07994:  CLRF   xB4
07996:  CLRF   xB3
....................     
....................    // Tpulso(t)= Tciclo*(y(t)-ymin)/(ymax - ymin); calculo de ciclo util para control de resistencia.ymax=140.ymin=0; 
....................    // Tpulso es float, hay que pasar ese ciclo a una salida de un puerto usando el TMR1. 
....................    Tpulso=(tmp/Setpoint)*Tciclo;   
07998:  MOVLB  6
0799A:  CLRF   x61
0799C:  MOVFF  1FF,660
079A0:  MOVLB  0
079A2:  CALL   1F38
079A6:  MOVFF  1B6,664
079AA:  MOVFF  1B5,663
079AE:  MOVFF  1B4,662
079B2:  MOVFF  1B3,661
079B6:  MOVFF  03,668
079BA:  MOVFF  02,667
079BE:  MOVFF  01,666
079C2:  MOVFF  00,665
079C6:  CALL   1F96
079CA:  MOVFF  00,64B
079CE:  MOVFF  01,64C
079D2:  MOVFF  02,64D
079D6:  MOVFF  03,64E
079DA:  MOVFF  03,664
079DE:  MOVFF  02,663
079E2:  MOVFF  01,662
079E6:  MOVFF  00,661
079EA:  MOVFF  1A2,668
079EE:  MOVFF  1A1,667
079F2:  MOVFF  1A0,666
079F6:  MOVFF  19F,665
079FA:  CALL   42D8
079FE:  MOVFF  03,1A6
07A02:  MOVFF  02,1A5
07A06:  MOVFF  01,1A4
07A0A:  MOVFF  00,1A3
....................     
....................    if(Tpulso<(Tciclo/5)) 
07A0E:  MOVFF  1A2,664
07A12:  MOVFF  1A1,663
07A16:  MOVFF  1A0,662
07A1A:  MOVFF  19F,661
07A1E:  MOVLB  6
07A20:  CLRF   x68
07A22:  CLRF   x67
07A24:  MOVLW  20
07A26:  MOVWF  x66
07A28:  MOVLW  81
07A2A:  MOVWF  x65
07A2C:  MOVLB  0
07A2E:  CALL   1F96
07A32:  MOVFF  1A6,652
07A36:  MOVFF  1A5,651
07A3A:  MOVFF  1A4,650
07A3E:  MOVFF  1A3,64F
07A42:  MOVFF  03,656
07A46:  MOVFF  02,655
07A4A:  MOVFF  01,654
07A4E:  MOVFF  00,653
07A52:  CALL   25CA
07A56:  BNC   7A64
....................       Tpulso=0; 
07A58:  MOVLB  1
07A5A:  CLRF   xA6
07A5C:  CLRF   xA5
07A5E:  CLRF   xA4
07A60:  CLRF   xA3
07A62:  MOVLB  0
....................     
....................    if(Tpulso>(Tciclo-2)) 
07A64:  BSF    FD8.1
07A66:  MOVFF  1A2,666
07A6A:  MOVFF  1A1,665
07A6E:  MOVFF  1A0,664
07A72:  MOVFF  19F,663
07A76:  MOVLB  6
07A78:  CLRF   x6A
07A7A:  CLRF   x69
07A7C:  CLRF   x68
07A7E:  MOVLW  80
07A80:  MOVWF  x67
07A82:  MOVLB  0
07A84:  CALL   20F4
07A88:  MOVFF  03,652
07A8C:  MOVFF  02,651
07A90:  MOVFF  01,650
07A94:  MOVFF  00,64F
07A98:  MOVFF  1A6,656
07A9C:  MOVFF  1A5,655
07AA0:  MOVFF  1A4,654
07AA4:  MOVFF  1A3,653
07AA8:  CALL   25CA
07AAC:  BNC   7ABE
....................       Tpulso=Tciclo; 
07AAE:  MOVFF  1A2,1A6
07AB2:  MOVFF  1A1,1A5
07AB6:  MOVFF  1A0,1A4
07ABA:  MOVFF  19F,1A3
....................     
....................    Tp=(Tpulso/0.005); 
07ABE:  MOVFF  1A6,664
07AC2:  MOVFF  1A5,663
07AC6:  MOVFF  1A4,662
07ACA:  MOVFF  1A3,661
07ACE:  MOVLW  0A
07AD0:  MOVLB  6
07AD2:  MOVWF  x68
07AD4:  MOVLW  D7
07AD6:  MOVWF  x67
07AD8:  MOVLW  23
07ADA:  MOVWF  x66
07ADC:  MOVLW  77
07ADE:  MOVWF  x65
07AE0:  MOVLB  0
07AE2:  CALL   1F96
07AE6:  MOVFF  03,660
07AEA:  MOVFF  02,65F
07AEE:  MOVFF  01,65E
07AF2:  MOVFF  00,65D
07AF6:  CALL   521E
07AFA:  MOVFF  02,B0
07AFE:  MOVFF  01,AF
....................    Tc=(Tciclo/0.005); 
07B02:  MOVFF  1A2,664
07B06:  MOVFF  1A1,663
07B0A:  MOVFF  1A0,662
07B0E:  MOVFF  19F,661
07B12:  MOVLW  0A
07B14:  MOVLB  6
07B16:  MOVWF  x68
07B18:  MOVLW  D7
07B1A:  MOVWF  x67
07B1C:  MOVLW  23
07B1E:  MOVWF  x66
07B20:  MOVLW  77
07B22:  MOVWF  x65
07B24:  MOVLB  0
07B26:  CALL   1F96
07B2A:  MOVFF  03,660
07B2E:  MOVFF  02,65F
07B32:  MOVFF  01,65E
07B36:  MOVFF  00,65D
07B3A:  CALL   521E
07B3E:  MOVFF  02,B2
07B42:  MOVFF  01,B1
....................    Controlando=1;    
07B46:  MOVLW  01
07B48:  MOVLB  1
07B4A:  MOVWF  xEA
....................    if(Temperatura>Setpoint+0.1){ 
07B4C:  MOVLB  6
07B4E:  CLRF   x61
07B50:  MOVFF  1FF,660
07B54:  MOVLB  0
07B56:  CALL   1F38
07B5A:  BCF    FD8.1
07B5C:  MOVFF  03,666
07B60:  MOVFF  02,665
07B64:  MOVFF  01,664
07B68:  MOVFF  00,663
07B6C:  MOVLW  CD
07B6E:  MOVLB  6
07B70:  MOVWF  x6A
07B72:  MOVLW  CC
07B74:  MOVWF  x69
07B76:  MOVLW  4C
07B78:  MOVWF  x68
07B7A:  MOVLW  7B
07B7C:  MOVWF  x67
07B7E:  MOVLB  0
07B80:  CALL   20F4
07B84:  MOVFF  03,652
07B88:  MOVFF  02,651
07B8C:  MOVFF  01,650
07B90:  MOVFF  00,64F
07B94:  MOVFF  1D6,656
07B98:  MOVFF  1D5,655
07B9C:  MOVFF  1D4,654
07BA0:  MOVFF  1D3,653
07BA4:  CALL   25CA
07BA8:  BNC   7BB4
....................       Suministro_off; 
07BAA:  BCF    F8C.0
07BAC:  BCF    F95.0
....................       Paso_off; 
07BAE:  BCF    F8C.1
07BB0:  BCF    F95.1
....................    }else if(Temperatura<=Setpoint){ 
07BB2:  BRA    7BF2
07BB4:  MOVLB  6
07BB6:  CLRF   x61
07BB8:  MOVFF  1FF,660
07BBC:  MOVLB  0
07BBE:  CALL   1F38
07BC2:  MOVFF  1D6,652
07BC6:  MOVFF  1D5,651
07BCA:  MOVFF  1D4,650
07BCE:  MOVFF  1D3,64F
07BD2:  MOVFF  03,656
07BD6:  MOVFF  02,655
07BDA:  MOVFF  01,654
07BDE:  MOVFF  00,653
07BE2:  CALL   25CA
07BE6:  BC    7BEA
07BE8:  BNZ   7BF2
....................       Suministro_on; 
07BEA:  BSF    F8C.0
07BEC:  BCF    F95.0
....................       Paso_on; 
07BEE:  BSF    F8C.1
07BF0:  BCF    F95.1
....................    } 
.................... //--------------------------------------------------------------------------------------------------------------------//    
.................... } 
07BF2:  RETLW  00
....................  
.................... void Envio_I2C(direccion,int16 posicion2, dato){ 
....................  
....................    i2c_start();            // Comienzo comunicacin 
*
053A6:  BSF    F94.4
053A8:  MOVLW  05
053AA:  MOVWF  00
053AC:  DECFSZ 00,F
053AE:  BRA    53AC
053B0:  BSF    F94.3
053B2:  MOVLW  06
053B4:  MOVWF  00
053B6:  DECFSZ 00,F
053B8:  BRA    53B6
053BA:  BCF    F8B.4
053BC:  BCF    F94.4
053BE:  MOVLW  05
053C0:  MOVWF  00
053C2:  DECFSZ 00,F
053C4:  BRA    53C2
053C6:  BCF    F8B.3
053C8:  BCF    F94.3
....................    i2c_write(direccion);   // Direccin del esclavo en el bus I2C 
053CA:  MOVFF  64C,66C
053CE:  CALL   2402
....................    i2c_write(make8(posicion2,0));    // Posicin donde se guardara el dato transmitido 
053D2:  MOVFF  64D,650
053D6:  MOVFF  64D,66C
053DA:  CALL   2402
....................    i2c_write(make8(posicion2,1)); 
053DE:  MOVFF  64E,650
053E2:  MOVFF  64E,66C
053E6:  CALL   2402
....................    i2c_write(dato);        // Dato a transmitir 
053EA:  MOVFF  64F,66C
053EE:  CALL   2402
....................    i2c_stop();             // Fin comunicacin 
053F2:  BCF    F94.4
053F4:  NOP   
053F6:  BSF    F94.3
053F8:  BTFSS  F82.3
053FA:  BRA    53F8
053FC:  MOVLW  05
053FE:  MOVWF  00
05400:  DECFSZ 00,F
05402:  BRA    5400
05404:  BRA    5406
05406:  NOP   
05408:  BSF    F94.4
0540A:  MOVLW  05
0540C:  MOVWF  00
0540E:  DECFSZ 00,F
05410:  BRA    540E
....................  } 
05412:  GOTO   5454 (RETURN)
....................  
.................... void Lectura_I2C (byte direccion, byte posicion, byte &dato) { 
....................  
....................    i2c_start();            // Comienzo de la comunicacin 
....................    i2c_write(direccion);   // Direccin del esclavo en el bus I2C 
....................    i2c_write(posicion);    // Posicin de donde se leer el dato en el esclavo 
....................    i2c_start();            // Reinicio 
....................    i2c_write(direccion+1); // Direccin del esclavo en modo lectura 
....................    dato=i2c_read(0);       // Lectura del dato 
....................    i2c_stop();             // Fin comunicacin 
.................... } 
....................  
.................... void Carga_Vector(void){ 
....................    SlaveA0Tx[0]=(int8)Temperatura; 
*
0525A:  MOVFF  1D6,660
0525E:  MOVFF  1D5,65F
05262:  MOVFF  1D4,65E
05266:  MOVFF  1D3,65D
0526A:  RCALL  521E
0526C:  MOVFF  01,67
....................    SlaveA0Tx[1]=(Temperatura-((int8)Temperatura))*10; 
05270:  MOVFF  1D6,660
05274:  MOVFF  1D5,65F
05278:  MOVFF  1D4,65E
0527C:  MOVFF  1D3,65D
05280:  RCALL  521E
05282:  MOVLB  6
05284:  CLRF   x61
05286:  MOVFF  01,660
0528A:  MOVLB  0
0528C:  CALL   1F38
05290:  BSF    FD8.1
05292:  MOVFF  1D6,666
05296:  MOVFF  1D5,665
0529A:  MOVFF  1D4,664
0529E:  MOVFF  1D3,663
052A2:  MOVFF  03,66A
052A6:  MOVFF  02,669
052AA:  MOVFF  01,668
052AE:  MOVFF  00,667
052B2:  CALL   20F4
052B6:  MOVFF  00,64B
052BA:  MOVFF  01,64C
052BE:  MOVFF  02,64D
052C2:  MOVFF  03,64E
052C6:  MOVFF  03,664
052CA:  MOVFF  02,663
052CE:  MOVFF  01,662
052D2:  MOVFF  00,661
052D6:  MOVLB  6
052D8:  CLRF   x68
052DA:  CLRF   x67
052DC:  MOVLW  20
052DE:  MOVWF  x66
052E0:  MOVLW  82
052E2:  MOVWF  x65
052E4:  MOVLB  0
052E6:  CALL   42D8
052EA:  MOVFF  03,660
052EE:  MOVFF  02,65F
052F2:  MOVFF  01,65E
052F6:  MOVFF  00,65D
052FA:  RCALL  521E
052FC:  MOVFF  01,68
....................    SlaveA0Tx[2]=make8((int16)PresionCamara,0); 
05300:  MOVFF  211,69
05304:  MOVLB  0
....................    SlaveA0Tx[3]=make8((int16)PresionCamara,1); 
05306:  MOVFF  212,6A
0530A:  MOVLB  0
....................    SlaveA0Tx[4]=make8((int16)PresionPreCamara,0); 
0530C:  MOVFF  213,6B
05310:  MOVLB  0
....................    SlaveA0Tx[5]=make8((int16)PresionPreCamara,1); 
05312:  MOVFF  214,6C
05316:  MOVLB  0
....................    SlaveA0Tx[6]=(int8)Tpulso*10; 
05318:  MOVFF  1A6,660
0531C:  MOVFF  1A5,65F
05320:  MOVFF  1A4,65E
05324:  MOVFF  1A3,65D
05328:  RCALL  521E
0532A:  MOVF   01,W
0532C:  MULLW  0A
0532E:  MOVFF  FF3,6D
....................    //SlaveA0Tx[7]=HIG; 
....................    SlaveA0Tx[8]=LOW; 
05332:  BSF    F93.0
05334:  CLRF   x6F
05336:  BTFSC  F81.0
05338:  INCF   x6F,F
....................    SlaveA0Tx[9]=TERM; 
0533A:  BSF    F93.3
0533C:  CLRF   x70
0533E:  BTFSS  F81.3
05340:  INCF   x70,F
....................    SlaveA0Tx[10]=DOOR; 
05342:  BSF    F93.1
05344:  CLRF   x71
05346:  BTFSS  F81.1
05348:  INCF   x71,F
....................    SlaveA0Tx[11]=STOP; 
0534A:  BSF    F93.2
0534C:  CLRF   x72
0534E:  BTFSS  F81.2
05350:  INCF   x72,F
....................    SlaveA0Tx[12]=(int8)error; 
05352:  MOVFF  1AA,660
05356:  MOVFF  1A9,65F
0535A:  MOVFF  1A8,65E
0535E:  MOVFF  1A7,65D
05362:  RCALL  521E
05364:  MOVFF  01,73
....................    SlaveA0Tx[13]=CicloSeleccionado; 
05368:  MOVFF  1F5,74
....................    SlaveA0Tx[14]=SetTime; 
0536C:  MOVFF  246,75
....................    SlaveA0Tx[15]=DiaTx; 
05370:  MOVFF  241,76
....................    SlaveA0Tx[16]=MesTx; 
05374:  MOVFF  240,77
....................    SlaveA0Tx[17]=YearTx; 
05378:  MOVFF  23F,78
....................    SlaveA0Tx[18]=HoraTx; 
0537C:  MOVFF  242,79
....................    SlaveA0Tx[19]=MinutoTx; 
05380:  MOVFF  243,7A
....................    SlaveA0Tx[20]=SegundoTx; 
05384:  MOVFF  244,7B
....................    SlaveA0Tx[21]=Imprime; 
05388:  MOVFF  247,7C
....................    SlaveA0Tx[22]=make8(Ciclos,0); 
0538C:  MOVFF  215,7D
05390:  MOVLB  0
....................    SlaveA0Tx[23]=make8(Ciclos,1); 
05392:  MOVFF  216,7E
05396:  MOVLB  0
....................    SlaveA0Tx[24]=EstadoBuzzer; 
05398:  CLRF   x7F
0539A:  BTFSC  xA7.7
0539C:  INCF   x7F,F
....................    SlaveA0Tx[25]=codigoAlarma; 
0539E:  MOVFF  227,80
.................... } 
053A2:  GOTO   5418 (RETURN)
....................  
.................... void Lee_Vector(void){ 
....................    //Dia=txbuf[0]; 
....................    if(txbuf[8]==44){  
*
05462:  MOVF   4F,W
05464:  SUBLW  2C
05466:  BNZ   5484
....................       Mes=txbuf[1]; 
05468:  MOVFF  48,235
....................       Year=txbuf[2]; 
0546C:  MOVFF  49,234
....................       Hora=txbuf[3]; 
05470:  MOVFF  4A,237
....................       Minuto=txbuf[4]; 
05474:  MOVFF  4B,238
....................       Segundo=txbuf[5]; 
05478:  MOVFF  4C,239
....................       dow=txbuf[6]; 
0547C:  MOVFF  4D,23A
....................       Dia=txbuf[7]; 
05480:  MOVFF  4E,236
....................    } 
.................... } 
05484:  GOTO   5560 (RETURN)
....................  
.................... void Envio_Esclavos(void){ 
....................    Carga_Vector(); 
*
05416:  BRA    525A
....................    for(i=0;i<26;i++){ 
05418:  MOVLB  1
0541A:  CLRF   xFE
0541C:  CLRF   xFD
0541E:  MOVF   xFE,F
05420:  BNZ   545E
05422:  MOVF   xFD,W
05424:  SUBLW  19
05426:  BNC   545E
....................       direccion=0xC0; 
05428:  MOVLW  C0
0542A:  MOVLB  0
0542C:  MOVWF  x88
....................       Envio_I2C(direccion,i,SlaveA0Tx[i]); 
0542E:  MOVLW  67
05430:  MOVLB  1
05432:  ADDWF  xFD,W
05434:  MOVWF  FE9
05436:  MOVLW  00
05438:  ADDWFC xFE,W
0543A:  MOVWF  FEA
0543C:  MOVFF  FEF,64B
05440:  MOVFF  88,64C
05444:  MOVFF  1FE,64E
05448:  MOVFF  1FD,64D
0544C:  MOVFF  64B,64F
05450:  MOVLB  0
05452:  BRA    53A6
....................    }  
05454:  MOVLB  1
05456:  INCF   xFD,F
05458:  BTFSC  FD8.2
0545A:  INCF   xFE,F
0545C:  BRA    541E
.................... } 
0545E:  MOVLB  0
05460:  RETLW  00
....................  
.................... void Lectura_Esclavos(void){ 
....................    for(i=0;i<9;i++){ 
*
05488:  MOVLB  1
0548A:  CLRF   xFE
0548C:  CLRF   xFD
0548E:  MOVF   xFE,F
05490:  BNZ   555C
05492:  MOVF   xFD,W
05494:  SUBLW  08
05496:  BNC   555C
....................       direccion=0xC0;                        //Direccin en el bus I2c 
05498:  MOVLW  C0
0549A:  MOVLB  0
0549C:  MOVWF  x88
....................       posicion=i;                         //Posicin de memoria a leer 
0549E:  MOVFF  1FD,89
....................       //Lectura_I2C(direccion, posicion, dato);    //Lectura por I2C 
....................       i2c_start();            // Comienzo de la comunicacin 
054A2:  BSF    F94.4
054A4:  MOVLW  05
054A6:  MOVWF  00
054A8:  DECFSZ 00,F
054AA:  BRA    54A8
054AC:  BSF    F94.3
054AE:  MOVLW  06
054B0:  MOVWF  00
054B2:  DECFSZ 00,F
054B4:  BRA    54B2
054B6:  BCF    F8B.4
054B8:  BCF    F94.4
054BA:  MOVLW  05
054BC:  MOVWF  00
054BE:  DECFSZ 00,F
054C0:  BRA    54BE
054C2:  BCF    F8B.3
054C4:  BCF    F94.3
....................       i2c_write(direccion);   // Direccin del esclavo en el bus I2C 
054C6:  MOVFF  88,66C
054CA:  CALL   2402
....................       i2c_write(i);    // Posicin de donde se leer el dato en el esclavo 
054CE:  MOVFF  1FD,66C
054D2:  CALL   2402
....................       i2c_write(0);    // Posicin de donde se leer el dato en el esclavo 
054D6:  MOVLB  6
054D8:  CLRF   x6C
054DA:  MOVLB  0
054DC:  CALL   2402
....................       i2c_start();            // Reinicio 
054E0:  BSF    F94.4
054E2:  MOVLW  05
054E4:  MOVWF  00
054E6:  DECFSZ 00,F
054E8:  BRA    54E6
054EA:  BSF    F94.3
054EC:  MOVLW  06
054EE:  MOVWF  00
054F0:  DECFSZ 00,F
054F2:  BRA    54F0
054F4:  BTFSS  F82.3
054F6:  BRA    54F4
054F8:  BCF    F8B.4
054FA:  BCF    F94.4
054FC:  MOVLW  05
054FE:  MOVWF  00
05500:  DECFSZ 00,F
05502:  BRA    5500
05504:  BCF    F8B.3
05506:  BCF    F94.3
....................       i2c_write(direccion+1); // Direccin del esclavo en modo lectura 
05508:  MOVLW  01
0550A:  ADDWF  x88,W
0550C:  MOVLB  6
0550E:  MOVWF  x4B
05510:  MOVWF  x6C
05512:  MOVLB  0
05514:  CALL   2402
....................       dato=i2c_read(0);       // Lectura del dato 
05518:  CLRF   00
0551A:  CALL   2478
0551E:  MOVFF  01,87
....................       i2c_stop();   
05522:  BCF    F94.4
05524:  NOP   
05526:  BSF    F94.3
05528:  BTFSS  F82.3
0552A:  BRA    5528
0552C:  MOVLW  05
0552E:  MOVWF  00
05530:  DECFSZ 00,F
05532:  BRA    5530
05534:  BRA    5536
05536:  NOP   
05538:  BSF    F94.4
0553A:  MOVLW  05
0553C:  MOVWF  00
0553E:  DECFSZ 00,F
05540:  BRA    553E
....................       txbuf[i]=(int8)dato; 
05542:  MOVLW  47
05544:  MOVLB  1
05546:  ADDWF  xFD,W
05548:  MOVWF  FE9
0554A:  MOVLW  00
0554C:  ADDWFC xFE,W
0554E:  MOVWF  FEA
05550:  MOVFF  87,FEF
....................    } 
05554:  INCF   xFD,F
05556:  BTFSC  FD8.2
05558:  INCF   xFE,F
0555A:  BRA    548E
....................    Lee_Vector(); 
0555C:  MOVLB  0
0555E:  BRA    5462
.................... } 
05560:  GOTO   824A (RETURN)
....................  
.................... int8 extraeDecimal(float data){ 
*
0726E:  MOVLB  6
07270:  CLRF   x58
07272:  CLRF   x57
07274:  CLRF   x56
07276:  CLRF   x55
07278:  CLRF   x5C
0727A:  CLRF   x5B
0727C:  CLRF   x5A
0727E:  CLRF   x59
....................    float entero=0; 
....................    float tmp=0.0; 
....................     
....................    entero=(int8)data; 
07280:  MOVFF  654,660
07284:  MOVFF  653,65F
07288:  MOVFF  652,65E
0728C:  MOVFF  651,65D
07290:  MOVLB  0
07292:  CALL   521E
07296:  MOVLB  6
07298:  CLRF   x61
0729A:  MOVFF  01,660
0729E:  MOVLB  0
072A0:  CALL   1F38
072A4:  MOVFF  03,658
072A8:  MOVFF  02,657
072AC:  MOVFF  01,656
072B0:  MOVFF  00,655
....................    tmp=(data-entero)*10; 
072B4:  BSF    FD8.1
072B6:  MOVFF  654,666
072BA:  MOVFF  653,665
072BE:  MOVFF  652,664
072C2:  MOVFF  651,663
072C6:  MOVFF  658,66A
072CA:  MOVFF  657,669
072CE:  MOVFF  656,668
072D2:  MOVFF  655,667
072D6:  CALL   20F4
072DA:  MOVFF  00,65D
072DE:  MOVFF  01,65E
072E2:  MOVFF  02,65F
072E6:  MOVFF  03,660
072EA:  MOVFF  03,664
072EE:  MOVFF  02,663
072F2:  MOVFF  01,662
072F6:  MOVFF  00,661
072FA:  MOVLB  6
072FC:  CLRF   x68
072FE:  CLRF   x67
07300:  MOVLW  20
07302:  MOVWF  x66
07304:  MOVLW  82
07306:  MOVWF  x65
07308:  MOVLB  0
0730A:  CALL   42D8
0730E:  MOVFF  03,65C
07312:  MOVFF  02,65B
07316:  MOVFF  01,65A
0731A:  MOVFF  00,659
....................    return (int8)tmp; 
0731E:  MOVFF  65C,660
07322:  MOVFF  65B,65F
07326:  MOVFF  65A,65E
0732A:  MOVFF  659,65D
0732E:  CALL   521E
07332:  MOVF   01,W
.................... } 
07334:  GOTO   746C (RETURN)
....................  
.................... float inttofloat(int8 decimal){ 
....................    float tmp; 
....................    tmp=decimal; 
*
0258A:  MOVLB  6
0258C:  CLRF   x61
0258E:  MOVFF  64F,660
02592:  MOVLB  0
02594:  RCALL  1F38
02596:  MOVFF  03,653
0259A:  MOVFF  02,652
0259E:  MOVFF  01,651
025A2:  MOVFF  00,650
....................    return tmp/10; 
025A6:  MOVFF  653,664
025AA:  MOVFF  652,663
025AE:  MOVFF  651,662
025B2:  MOVFF  650,661
025B6:  MOVLB  6
025B8:  CLRF   x68
025BA:  CLRF   x67
025BC:  MOVLW  20
025BE:  MOVWF  x66
025C0:  MOVLW  82
025C2:  MOVWF  x65
025C4:  MOVLB  0
025C6:  RCALL  1F96
.................... } 
025C8:  RETLW  00
....................  
.................... void LeeEEPROM(){ 
.................... //Lectura EEPROM//-------------------------- 
....................    Ganancia=read_eeprom(20); 
*
02644:  MOVFF  FF2,64B
02648:  BCF    FF2.6
0264A:  BCF    FF2.7
0264C:  CLRF   FAA
0264E:  MOVLW  14
02650:  MOVWF  FA9
02652:  BCF    FA6.6
02654:  BCF    FA6.7
02656:  BSF    FA6.0
02658:  MOVF   FA8,W
0265A:  MOVLB  6
0265C:  BTFSC  x4B.6
0265E:  BSF    FF2.6
02660:  BTFSC  x4B.7
02662:  BSF    FF2.7
02664:  CLRF   x61
02666:  MOVWF  x60
02668:  MOVLB  0
0266A:  RCALL  1F38
0266C:  MOVFF  03,1BA
02670:  MOVFF  02,1B9
02674:  MOVFF  01,1B8
02678:  MOVFF  00,1B7
....................    delay_ms(10); 
0267C:  MOVLW  0A
0267E:  MOVLB  6
02680:  MOVWF  x64
02682:  MOVLB  0
02684:  RCALL  1F6E
....................    Sensor[0].Ajuste=read_eeprom(21); 
02686:  MOVFF  FF2,64B
0268A:  BCF    FF2.6
0268C:  BCF    FF2.7
0268E:  CLRF   FAA
02690:  MOVLW  15
02692:  MOVWF  FA9
02694:  BCF    FA6.6
02696:  BCF    FA6.7
02698:  BSF    FA6.0
0269A:  MOVF   FA8,W
0269C:  MOVLB  6
0269E:  BTFSC  x4B.6
026A0:  BSF    FF2.6
026A2:  BTFSC  x4B.7
026A4:  BSF    FF2.7
026A6:  MOVLB  2
026A8:  MOVWF  xD9
....................    delay_ms(10); 
026AA:  MOVLW  0A
026AC:  MOVLB  6
026AE:  MOVWF  x64
026B0:  MOVLB  0
026B2:  RCALL  1F6E
....................    Sensor[0].Ajusten=read_eeprom(22); 
026B4:  MOVFF  FF2,64B
026B8:  BCF    FF2.6
026BA:  BCF    FF2.7
026BC:  CLRF   FAA
026BE:  MOVLW  16
026C0:  MOVWF  FA9
026C2:  BCF    FA6.6
026C4:  BCF    FA6.7
026C6:  BSF    FA6.0
026C8:  MOVF   FA8,W
026CA:  MOVLB  6
026CC:  BTFSC  x4B.6
026CE:  BSF    FF2.6
026D0:  BTFSC  x4B.7
026D2:  BSF    FF2.7
026D4:  MOVLB  2
026D6:  MOVWF  xDA
....................    delay_ms(10); 
026D8:  MOVLW  0A
026DA:  MOVLB  6
026DC:  MOVWF  x64
026DE:  MOVLB  0
026E0:  RCALL  1F6E
....................    Sensor[1].Ajuste=read_eeprom(23); 
026E2:  MOVFF  FF2,64B
026E6:  BCF    FF2.6
026E8:  BCF    FF2.7
026EA:  CLRF   FAA
026EC:  MOVLW  17
026EE:  MOVWF  FA9
026F0:  BCF    FA6.6
026F2:  BCF    FA6.7
026F4:  BSF    FA6.0
026F6:  MOVF   FA8,W
026F8:  MOVLB  6
026FA:  BTFSC  x4B.6
026FC:  BSF    FF2.6
026FE:  BTFSC  x4B.7
02700:  BSF    FF2.7
02702:  MOVLB  4
02704:  MOVWF  x3D
....................    delay_ms(10); 
02706:  MOVLW  0A
02708:  MOVLB  6
0270A:  MOVWF  x64
0270C:  MOVLB  0
0270E:  RCALL  1F6E
....................    Sensor[1].Ajusten=read_eeprom(24); 
02710:  MOVFF  FF2,64B
02714:  BCF    FF2.6
02716:  BCF    FF2.7
02718:  CLRF   FAA
0271A:  MOVLW  18
0271C:  MOVWF  FA9
0271E:  BCF    FA6.6
02720:  BCF    FA6.7
02722:  BSF    FA6.0
02724:  MOVF   FA8,W
02726:  MOVLB  6
02728:  BTFSC  x4B.6
0272A:  BSF    FF2.6
0272C:  BTFSC  x4B.7
0272E:  BSF    FF2.7
02730:  MOVLB  4
02732:  MOVWF  x3E
....................    delay_ms(10);    
02734:  MOVLW  0A
02736:  MOVLB  6
02738:  MOVWF  x64
0273A:  MOVLB  0
0273C:  RCALL  1F6E
....................    MediaMovil=read_eeprom(25); 
0273E:  MOVFF  FF2,64B
02742:  BCF    FF2.6
02744:  BCF    FF2.7
02746:  CLRF   FAA
02748:  MOVLW  19
0274A:  MOVWF  FA9
0274C:  BCF    FA6.6
0274E:  BCF    FA6.7
02750:  BSF    FA6.0
02752:  MOVF   FA8,W
02754:  MOVLB  6
02756:  BTFSC  x4B.6
02758:  BSF    FF2.6
0275A:  BTFSC  x4B.7
0275C:  BSF    FF2.7
0275E:  MOVLB  1
02760:  MOVWF  x93
....................    delay_ms(10); 
02762:  MOVLW  0A
02764:  MOVLB  6
02766:  MOVWF  x64
02768:  MOVLB  0
0276A:  RCALL  1F6E
....................    Tciclo=read_eeprom(26); 
0276C:  MOVFF  FF2,64B
02770:  BCF    FF2.6
02772:  BCF    FF2.7
02774:  CLRF   FAA
02776:  MOVLW  1A
02778:  MOVWF  FA9
0277A:  BCF    FA6.6
0277C:  BCF    FA6.7
0277E:  BSF    FA6.0
02780:  MOVF   FA8,W
02782:  MOVLB  6
02784:  BTFSC  x4B.6
02786:  BSF    FF2.6
02788:  BTFSC  x4B.7
0278A:  BSF    FF2.7
0278C:  CLRF   x61
0278E:  MOVWF  x60
02790:  MOVLB  0
02792:  CALL   1F38
02796:  MOVFF  03,1A2
0279A:  MOVFF  02,1A1
0279E:  MOVFF  01,1A0
027A2:  MOVFF  00,19F
....................    delay_ms(10); 
027A6:  MOVLW  0A
027A8:  MOVLB  6
027AA:  MOVWF  x64
027AC:  MOVLB  0
027AE:  CALL   1F6E
....................    Temporal=read_eeprom(27); 
027B2:  MOVFF  FF2,64B
027B6:  BCF    FF2.6
027B8:  BCF    FF2.7
027BA:  CLRF   FAA
027BC:  MOVLW  1B
027BE:  MOVWF  FA9
027C0:  BCF    FA6.6
027C2:  BCF    FA6.7
027C4:  BSF    FA6.0
027C6:  MOVF   FA8,W
027C8:  MOVLB  6
027CA:  BTFSC  x4B.6
027CC:  BSF    FF2.6
027CE:  BTFSC  x4B.7
027D0:  BSF    FF2.7
027D2:  CLRF   x61
027D4:  MOVWF  x60
027D6:  MOVLB  0
027D8:  CALL   1F38
027DC:  MOVFF  03,168
027E0:  MOVFF  02,167
027E4:  MOVFF  01,166
027E8:  MOVFF  00,165
....................    Temporal=Temporal/10.0; 
027EC:  MOVFF  168,664
027F0:  MOVFF  167,663
027F4:  MOVFF  166,662
027F8:  MOVFF  165,661
027FC:  MOVLB  6
027FE:  CLRF   x68
02800:  CLRF   x67
02802:  MOVLW  20
02804:  MOVWF  x66
02806:  MOVLW  82
02808:  MOVWF  x65
0280A:  MOVLB  0
0280C:  CALL   1F96
02810:  MOVFF  03,168
02814:  MOVFF  02,167
02818:  MOVFF  01,166
0281C:  MOVFF  00,165
....................    delay_ms(10); 
02820:  MOVLW  0A
02822:  MOVLB  6
02824:  MOVWF  x64
02826:  MOVLB  0
02828:  CALL   1F6E
....................    Sensor[0].RPT100=read_eeprom(28)+Temporal; 
0282C:  MOVFF  FF2,64B
02830:  BCF    FF2.6
02832:  BCF    FF2.7
02834:  CLRF   FAA
02836:  MOVLW  1C
02838:  MOVWF  FA9
0283A:  BCF    FA6.6
0283C:  BCF    FA6.7
0283E:  BSF    FA6.0
02840:  MOVF   FA8,W
02842:  MOVLB  6
02844:  BTFSC  x4B.6
02846:  BSF    FF2.6
02848:  BTFSC  x4B.7
0284A:  BSF    FF2.7
0284C:  CLRF   x61
0284E:  MOVWF  x60
02850:  MOVLB  0
02852:  CALL   1F38
02856:  BCF    FD8.1
02858:  MOVFF  03,666
0285C:  MOVFF  02,665
02860:  MOVFF  01,664
02864:  MOVFF  00,663
02868:  MOVFF  168,66A
0286C:  MOVFF  167,669
02870:  MOVFF  166,668
02874:  MOVFF  165,667
02878:  RCALL  20F4
0287A:  MOVFF  03,2CE
0287E:  MOVFF  02,2CD
02882:  MOVFF  01,2CC
02886:  MOVFF  00,2CB
....................    delay_ms(10); 
0288A:  MOVLW  0A
0288C:  MOVLB  6
0288E:  MOVWF  x64
02890:  MOVLB  0
02892:  CALL   1F6E
....................    Temporal=read_eeprom(29); 
02896:  MOVFF  FF2,64B
0289A:  BCF    FF2.6
0289C:  BCF    FF2.7
0289E:  CLRF   FAA
028A0:  MOVLW  1D
028A2:  MOVWF  FA9
028A4:  BCF    FA6.6
028A6:  BCF    FA6.7
028A8:  BSF    FA6.0
028AA:  MOVF   FA8,W
028AC:  MOVLB  6
028AE:  BTFSC  x4B.6
028B0:  BSF    FF2.6
028B2:  BTFSC  x4B.7
028B4:  BSF    FF2.7
028B6:  CLRF   x61
028B8:  MOVWF  x60
028BA:  MOVLB  0
028BC:  CALL   1F38
028C0:  MOVFF  03,168
028C4:  MOVFF  02,167
028C8:  MOVFF  01,166
028CC:  MOVFF  00,165
....................    Temporal=Temporal/10.0; 
028D0:  MOVFF  168,664
028D4:  MOVFF  167,663
028D8:  MOVFF  166,662
028DC:  MOVFF  165,661
028E0:  MOVLB  6
028E2:  CLRF   x68
028E4:  CLRF   x67
028E6:  MOVLW  20
028E8:  MOVWF  x66
028EA:  MOVLW  82
028EC:  MOVWF  x65
028EE:  MOVLB  0
028F0:  CALL   1F96
028F4:  MOVFF  03,168
028F8:  MOVFF  02,167
028FC:  MOVFF  01,166
02900:  MOVFF  00,165
....................    delay_ms(10); 
02904:  MOVLW  0A
02906:  MOVLB  6
02908:  MOVWF  x64
0290A:  MOVLB  0
0290C:  CALL   1F6E
....................    Sensor[1].RPT100=read_eeprom(30)+Temporal; 
02910:  MOVFF  FF2,64B
02914:  BCF    FF2.6
02916:  BCF    FF2.7
02918:  CLRF   FAA
0291A:  MOVLW  1E
0291C:  MOVWF  FA9
0291E:  BCF    FA6.6
02920:  BCF    FA6.7
02922:  BSF    FA6.0
02924:  MOVF   FA8,W
02926:  MOVLB  6
02928:  BTFSC  x4B.6
0292A:  BSF    FF2.6
0292C:  BTFSC  x4B.7
0292E:  BSF    FF2.7
02930:  CLRF   x61
02932:  MOVWF  x60
02934:  MOVLB  0
02936:  CALL   1F38
0293A:  BCF    FD8.1
0293C:  MOVFF  03,666
02940:  MOVFF  02,665
02944:  MOVFF  01,664
02948:  MOVFF  00,663
0294C:  MOVFF  168,66A
02950:  MOVFF  167,669
02954:  MOVFF  166,668
02958:  MOVFF  165,667
0295C:  CALL   20F4
02960:  MOVFF  03,432
02964:  MOVFF  02,431
02968:  MOVFF  01,430
0296C:  MOVFF  00,42F
....................    delay_ms(10); 
02970:  MOVLW  0A
02972:  MOVLB  6
02974:  MOVWF  x64
02976:  MOVLB  0
02978:  CALL   1F6E
....................    Atmosferica=read_eeprom(31); 
0297C:  MOVFF  FF2,64B
02980:  BCF    FF2.6
02982:  BCF    FF2.7
02984:  CLRF   FAA
02986:  MOVLW  1F
02988:  MOVWF  FA9
0298A:  BCF    FA6.6
0298C:  BCF    FA6.7
0298E:  BSF    FA6.0
02990:  MOVF   FA8,W
02992:  MOVLB  6
02994:  BTFSC  x4B.6
02996:  BSF    FF2.6
02998:  BTFSC  x4B.7
0299A:  BSF    FF2.7
0299C:  MOVLB  2
0299E:  MOVWF  x3C
....................    delay_ms(10); 
029A0:  MOVLW  0A
029A2:  MOVLB  6
029A4:  MOVWF  x64
029A6:  MOVLB  0
029A8:  CALL   1F6E
....................    Tapertura=read_eeprom(32); 
029AC:  MOVFF  FF2,64B
029B0:  BCF    FF2.6
029B2:  BCF    FF2.7
029B4:  CLRF   FAA
029B6:  MOVLW  20
029B8:  MOVWF  FA9
029BA:  BCF    FA6.6
029BC:  BCF    FA6.7
029BE:  BSF    FA6.0
029C0:  MOVF   FA8,W
029C2:  MOVLB  6
029C4:  BTFSC  x4B.6
029C6:  BSF    FF2.6
029C8:  BTFSC  x4B.7
029CA:  BSF    FF2.7
029CC:  MOVLB  1
029CE:  MOVWF  xF6
....................    delay_ms(10); 
029D0:  MOVLW  0A
029D2:  MOVLB  6
029D4:  MOVWF  x64
029D6:  MOVLB  0
029D8:  CALL   1F6E
....................    CiclosL=read_eeprom(37); 
029DC:  MOVFF  FF2,64B
029E0:  BCF    FF2.6
029E2:  BCF    FF2.7
029E4:  CLRF   FAA
029E6:  MOVLW  25
029E8:  MOVWF  FA9
029EA:  BCF    FA6.6
029EC:  BCF    FA6.7
029EE:  BSF    FA6.0
029F0:  MOVF   FA8,W
029F2:  MOVLB  6
029F4:  BTFSC  x4B.6
029F6:  BSF    FF2.6
029F8:  BTFSC  x4B.7
029FA:  BSF    FF2.7
029FC:  MOVLB  1
029FE:  MOVWF  xF3
....................    delay_ms(10); 
02A00:  MOVLW  0A
02A02:  MOVLB  6
02A04:  MOVWF  x64
02A06:  MOVLB  0
02A08:  CALL   1F6E
....................    CiclosH=read_eeprom(38); 
02A0C:  MOVFF  FF2,64B
02A10:  BCF    FF2.6
02A12:  BCF    FF2.7
02A14:  CLRF   FAA
02A16:  MOVLW  26
02A18:  MOVWF  FA9
02A1A:  BCF    FA6.6
02A1C:  BCF    FA6.7
02A1E:  BSF    FA6.0
02A20:  MOVF   FA8,W
02A22:  MOVLB  6
02A24:  BTFSC  x4B.6
02A26:  BSF    FF2.6
02A28:  BTFSC  x4B.7
02A2A:  BSF    FF2.7
02A2C:  MOVLB  1
02A2E:  MOVWF  xF4
....................    delay_ms(10); 
02A30:  MOVLW  0A
02A32:  MOVLB  6
02A34:  MOVWF  x64
02A36:  MOVLB  0
02A38:  CALL   1F6E
....................    Ciclos=make16(CiclosH,CiclosL); 
02A3C:  MOVFF  1F4,216
02A40:  MOVFF  1F3,215
....................    delay_ms(10); 
02A44:  MOVLW  0A
02A46:  MOVLB  6
02A48:  MOVWF  x64
02A4A:  MOVLB  0
02A4C:  CALL   1F6E
....................    G1=read_eeprom(42); 
02A50:  MOVFF  FF2,64B
02A54:  BCF    FF2.6
02A56:  BCF    FF2.7
02A58:  CLRF   FAA
02A5A:  MOVLW  2A
02A5C:  MOVWF  FA9
02A5E:  BCF    FA6.6
02A60:  BCF    FA6.7
02A62:  BSF    FA6.0
02A64:  MOVF   FA8,W
02A66:  MOVLB  6
02A68:  BTFSC  x4B.6
02A6A:  BSF    FF2.6
02A6C:  BTFSC  x4B.7
02A6E:  BSF    FF2.7
02A70:  MOVLB  2
02A72:  MOVWF  x4D
....................    delay_ms(10); 
02A74:  MOVLW  0A
02A76:  MOVLB  6
02A78:  MOVWF  x64
02A7A:  MOVLB  0
02A7C:  CALL   1F6E
....................    G2=read_eeprom(43); 
02A80:  MOVFF  FF2,64B
02A84:  BCF    FF2.6
02A86:  BCF    FF2.7
02A88:  CLRF   FAA
02A8A:  MOVLW  2B
02A8C:  MOVWF  FA9
02A8E:  BCF    FA6.6
02A90:  BCF    FA6.7
02A92:  BSF    FA6.0
02A94:  MOVF   FA8,W
02A96:  MOVLB  6
02A98:  BTFSC  x4B.6
02A9A:  BSF    FF2.6
02A9C:  BTFSC  x4B.7
02A9E:  BSF    FF2.7
02AA0:  MOVLB  2
02AA2:  MOVWF  x4E
....................    delay_ms(10); 
02AA4:  MOVLW  0A
02AA6:  MOVLB  6
02AA8:  MOVWF  x64
02AAA:  MOVLB  0
02AAC:  CALL   1F6E
....................    sg1=read_eeprom(44); 
02AB0:  MOVFF  FF2,64B
02AB4:  BCF    FF2.6
02AB6:  BCF    FF2.7
02AB8:  CLRF   FAA
02ABA:  MOVLW  2C
02ABC:  MOVWF  FA9
02ABE:  BCF    FA6.6
02AC0:  BCF    FA6.7
02AC2:  BSF    FA6.0
02AC4:  MOVF   FA8,W
02AC6:  MOVLB  6
02AC8:  BTFSC  x4B.6
02ACA:  BSF    FF2.6
02ACC:  BTFSC  x4B.7
02ACE:  BSF    FF2.7
02AD0:  MOVLB  2
02AD2:  MOVWF  x4F
....................    delay_ms(10); 
02AD4:  MOVLW  0A
02AD6:  MOVLB  6
02AD8:  MOVWF  x64
02ADA:  MOVLB  0
02ADC:  CALL   1F6E
....................    sg2=read_eeprom(45); 
02AE0:  MOVFF  FF2,64B
02AE4:  BCF    FF2.6
02AE6:  BCF    FF2.7
02AE8:  CLRF   FAA
02AEA:  MOVLW  2D
02AEC:  MOVWF  FA9
02AEE:  BCF    FA6.6
02AF0:  BCF    FA6.7
02AF2:  BSF    FA6.0
02AF4:  MOVF   FA8,W
02AF6:  MOVLB  6
02AF8:  BTFSC  x4B.6
02AFA:  BSF    FF2.6
02AFC:  BTFSC  x4B.7
02AFE:  BSF    FF2.7
02B00:  MOVLB  2
02B02:  MOVWF  x50
....................     
....................    for(i=0;i<30;i++){ 
02B04:  MOVLB  1
02B06:  CLRF   xFE
02B08:  CLRF   xFD
02B0A:  MOVF   xFE,F
02B0C:  BNZ   2B98
02B0E:  MOVF   xFD,W
02B10:  SUBLW  1D
02B12:  BNC   2B98
....................       estados[i]=read_eeprom(i+50); 
02B14:  MOVLW  32
02B16:  ADDWF  xFD,W
02B18:  MOVLB  6
02B1A:  MOVWF  x4B
02B1C:  MOVLW  00
02B1E:  MOVLB  1
02B20:  ADDWFC xFE,W
02B22:  MOVLB  6
02B24:  MOVWF  x4C
02B26:  MOVFF  FF2,64D
02B2A:  BCF    FF2.6
02B2C:  BCF    FF2.7
02B2E:  MOVFF  64C,FAA
02B32:  MOVFF  64B,FA9
02B36:  BCF    FA6.6
02B38:  BCF    FA6.7
02B3A:  BSF    FA6.0
02B3C:  MOVF   FA8,W
02B3E:  BTFSC  x4D.6
02B40:  BSF    FF2.6
02B42:  BTFSC  x4D.7
02B44:  BSF    FF2.7
02B46:  MOVFF  1FD,64E
02B4A:  MOVWF  x4F
02B4C:  MOVLW  02
02B4E:  MOVWF  x51
02B50:  MOVLW  B7
02B52:  MOVWF  x50
02B54:  MOVLB  0
02B56:  RCALL  236C
....................       if(estados[i]>1) 
02B58:  MOVFF  1FD,64D
02B5C:  MOVLW  02
02B5E:  MOVLB  6
02B60:  MOVWF  x4F
02B62:  MOVLW  B7
02B64:  MOVWF  x4E
02B66:  MOVLB  0
02B68:  RCALL  23AE
02B6A:  MOVLW  00
02B6C:  BTFSC  01.0
02B6E:  MOVLW  01
02B70:  ANDLW  01
02B72:  SUBLW  01
02B74:  BC    2B8E
....................          estados[i]=1; 
02B76:  MOVFF  1FD,64E
02B7A:  MOVLW  01
02B7C:  MOVLB  6
02B7E:  MOVWF  x4F
02B80:  MOVLW  02
02B82:  MOVWF  x51
02B84:  MOVLW  B7
02B86:  MOVWF  x50
02B88:  MOVLB  0
02B8A:  CALL   236C
....................    } 
02B8E:  MOVLB  1
02B90:  INCF   xFD,F
02B92:  BTFSC  FD8.2
02B94:  INCF   xFE,F
02B96:  BRA    2B0A
....................     
....................    for(i=0;i<20;i++){//Lee valores almacenados de ciclos personalizados 
02B98:  CLRF   xFE
02B9A:  CLRF   xFD
02B9C:  MOVF   xFE,F
02B9E:  BTFSS  FD8.2
02BA0:  GOTO   33C8
02BA4:  MOVF   xFD,W
02BA6:  SUBLW  13
02BA8:  BTFSS  FD8.0
02BAA:  GOTO   33C8
....................       CiclosPersonalizados[i].Temperatura=read_eeprom(100+(i*8));  
02BAE:  RLCF   xFD,W
02BB0:  MOVLB  6
02BB2:  MOVWF  x4B
02BB4:  MOVLB  1
02BB6:  RLCF   xFE,W
02BB8:  MOVLB  6
02BBA:  MOVWF  x4C
02BBC:  RLCF   x4B,F
02BBE:  RLCF   x4C,F
02BC0:  RLCF   x4B,F
02BC2:  RLCF   x4C,F
02BC4:  MOVLW  F8
02BC6:  ANDWF  x4B,F
02BC8:  MOVLW  83
02BCA:  ADDWF  x4B,W
02BCC:  MOVWF  FE9
02BCE:  MOVLW  05
02BD0:  ADDWFC x4C,W
02BD2:  MOVWF  FEA
02BD4:  MOVLB  1
02BD6:  RLCF   xFD,W
02BD8:  MOVWF  02
02BDA:  RLCF   xFE,W
02BDC:  MOVWF  03
02BDE:  RLCF   02,F
02BE0:  RLCF   03,F
02BE2:  RLCF   02,F
02BE4:  RLCF   03,F
02BE6:  MOVLW  F8
02BE8:  ANDWF  02,F
02BEA:  MOVF   02,W
02BEC:  ADDLW  64
02BEE:  MOVLB  6
02BF0:  MOVWF  x4D
02BF2:  MOVLW  00
02BF4:  ADDWFC 03,W
02BF6:  MOVWF  x4E
02BF8:  MOVFF  FF2,64F
02BFC:  BCF    FF2.6
02BFE:  BCF    FF2.7
02C00:  MOVFF  64E,FAA
02C04:  MOVFF  64D,FA9
02C08:  BCF    FA6.6
02C0A:  BCF    FA6.7
02C0C:  BSF    FA6.0
02C0E:  MOVF   FA8,W
02C10:  BTFSC  x4F.6
02C12:  BSF    FF2.6
02C14:  BTFSC  x4F.7
02C16:  BSF    FF2.7
02C18:  MOVWF  FEF
....................       CiclosPersonalizados[i].Minutoest=read_eeprom(101+(i*8));  
02C1A:  MOVLB  1
02C1C:  RLCF   xFD,W
02C1E:  MOVLB  6
02C20:  MOVWF  x4B
02C22:  MOVLB  1
02C24:  RLCF   xFE,W
02C26:  MOVLB  6
02C28:  MOVWF  x4C
02C2A:  RLCF   x4B,F
02C2C:  RLCF   x4C,F
02C2E:  RLCF   x4B,F
02C30:  RLCF   x4C,F
02C32:  MOVLW  F8
02C34:  ANDWF  x4B,F
02C36:  MOVLW  01
02C38:  ADDWF  x4B,W
02C3A:  MOVWF  01
02C3C:  MOVLW  00
02C3E:  ADDWFC x4C,W
02C40:  MOVWF  03
02C42:  MOVF   01,W
02C44:  ADDLW  83
02C46:  MOVWF  FE9
02C48:  MOVLW  05
02C4A:  ADDWFC 03,W
02C4C:  MOVWF  FEA
02C4E:  MOVLB  1
02C50:  RLCF   xFD,W
02C52:  MOVWF  02
02C54:  RLCF   xFE,W
02C56:  MOVWF  03
02C58:  RLCF   02,F
02C5A:  RLCF   03,F
02C5C:  RLCF   02,F
02C5E:  RLCF   03,F
02C60:  MOVLW  F8
02C62:  ANDWF  02,F
02C64:  MOVF   02,W
02C66:  ADDLW  65
02C68:  MOVLB  6
02C6A:  MOVWF  x4D
02C6C:  MOVLW  00
02C6E:  ADDWFC 03,W
02C70:  MOVWF  x4E
02C72:  MOVFF  FF2,64F
02C76:  BCF    FF2.6
02C78:  BCF    FF2.7
02C7A:  MOVFF  64E,FAA
02C7E:  MOVFF  64D,FA9
02C82:  BCF    FA6.6
02C84:  BCF    FA6.7
02C86:  BSF    FA6.0
02C88:  MOVF   FA8,W
02C8A:  BTFSC  x4F.6
02C8C:  BSF    FF2.6
02C8E:  BTFSC  x4F.7
02C90:  BSF    FF2.7
02C92:  MOVWF  FEF
....................       CiclosPersonalizados[i].Segundoest=read_eeprom(102+(i*8));  
02C94:  MOVLB  1
02C96:  RLCF   xFD,W
02C98:  MOVLB  6
02C9A:  MOVWF  x4B
02C9C:  MOVLB  1
02C9E:  RLCF   xFE,W
02CA0:  MOVLB  6
02CA2:  MOVWF  x4C
02CA4:  RLCF   x4B,F
02CA6:  RLCF   x4C,F
02CA8:  RLCF   x4B,F
02CAA:  RLCF   x4C,F
02CAC:  MOVLW  F8
02CAE:  ANDWF  x4B,F
02CB0:  MOVLW  02
02CB2:  ADDWF  x4B,W
02CB4:  MOVWF  01
02CB6:  MOVLW  00
02CB8:  ADDWFC x4C,W
02CBA:  MOVWF  03
02CBC:  MOVF   01,W
02CBE:  ADDLW  83
02CC0:  MOVWF  FE9
02CC2:  MOVLW  05
02CC4:  ADDWFC 03,W
02CC6:  MOVWF  FEA
02CC8:  MOVLB  1
02CCA:  RLCF   xFD,W
02CCC:  MOVWF  02
02CCE:  RLCF   xFE,W
02CD0:  MOVWF  03
02CD2:  RLCF   02,F
02CD4:  RLCF   03,F
02CD6:  RLCF   02,F
02CD8:  RLCF   03,F
02CDA:  MOVLW  F8
02CDC:  ANDWF  02,F
02CDE:  MOVF   02,W
02CE0:  ADDLW  66
02CE2:  MOVLB  6
02CE4:  MOVWF  x4D
02CE6:  MOVLW  00
02CE8:  ADDWFC 03,W
02CEA:  MOVWF  x4E
02CEC:  MOVFF  FF2,64F
02CF0:  BCF    FF2.6
02CF2:  BCF    FF2.7
02CF4:  MOVFF  64E,FAA
02CF8:  MOVFF  64D,FA9
02CFC:  BCF    FA6.6
02CFE:  BCF    FA6.7
02D00:  BSF    FA6.0
02D02:  MOVF   FA8,W
02D04:  BTFSC  x4F.6
02D06:  BSF    FF2.6
02D08:  BTFSC  x4F.7
02D0A:  BSF    FF2.7
02D0C:  MOVWF  FEF
....................       CiclosPersonalizados[i].Minutosec=read_eeprom(103+(i*8));  
02D0E:  MOVLB  1
02D10:  RLCF   xFD,W
02D12:  MOVLB  6
02D14:  MOVWF  x4B
02D16:  MOVLB  1
02D18:  RLCF   xFE,W
02D1A:  MOVLB  6
02D1C:  MOVWF  x4C
02D1E:  RLCF   x4B,F
02D20:  RLCF   x4C,F
02D22:  RLCF   x4B,F
02D24:  RLCF   x4C,F
02D26:  MOVLW  F8
02D28:  ANDWF  x4B,F
02D2A:  MOVLW  03
02D2C:  ADDWF  x4B,W
02D2E:  MOVWF  01
02D30:  MOVLW  00
02D32:  ADDWFC x4C,W
02D34:  MOVWF  03
02D36:  MOVF   01,W
02D38:  ADDLW  83
02D3A:  MOVWF  FE9
02D3C:  MOVLW  05
02D3E:  ADDWFC 03,W
02D40:  MOVWF  FEA
02D42:  MOVLB  1
02D44:  RLCF   xFD,W
02D46:  MOVWF  02
02D48:  RLCF   xFE,W
02D4A:  MOVWF  03
02D4C:  RLCF   02,F
02D4E:  RLCF   03,F
02D50:  RLCF   02,F
02D52:  RLCF   03,F
02D54:  MOVLW  F8
02D56:  ANDWF  02,F
02D58:  MOVF   02,W
02D5A:  ADDLW  67
02D5C:  MOVLB  6
02D5E:  MOVWF  x4D
02D60:  MOVLW  00
02D62:  ADDWFC 03,W
02D64:  MOVWF  x4E
02D66:  MOVFF  FF2,64F
02D6A:  BCF    FF2.6
02D6C:  BCF    FF2.7
02D6E:  MOVFF  64E,FAA
02D72:  MOVFF  64D,FA9
02D76:  BCF    FA6.6
02D78:  BCF    FA6.7
02D7A:  BSF    FA6.0
02D7C:  MOVF   FA8,W
02D7E:  BTFSC  x4F.6
02D80:  BSF    FF2.6
02D82:  BTFSC  x4F.7
02D84:  BSF    FF2.7
02D86:  MOVWF  FEF
....................       CiclosPersonalizados[i].Segundosec=read_eeprom(104+(i*8));  
02D88:  MOVLB  1
02D8A:  RLCF   xFD,W
02D8C:  MOVLB  6
02D8E:  MOVWF  x4B
02D90:  MOVLB  1
02D92:  RLCF   xFE,W
02D94:  MOVLB  6
02D96:  MOVWF  x4C
02D98:  RLCF   x4B,F
02D9A:  RLCF   x4C,F
02D9C:  RLCF   x4B,F
02D9E:  RLCF   x4C,F
02DA0:  MOVLW  F8
02DA2:  ANDWF  x4B,F
02DA4:  MOVLW  04
02DA6:  ADDWF  x4B,W
02DA8:  MOVWF  01
02DAA:  MOVLW  00
02DAC:  ADDWFC x4C,W
02DAE:  MOVWF  03
02DB0:  MOVF   01,W
02DB2:  ADDLW  83
02DB4:  MOVWF  FE9
02DB6:  MOVLW  05
02DB8:  ADDWFC 03,W
02DBA:  MOVWF  FEA
02DBC:  MOVLB  1
02DBE:  RLCF   xFD,W
02DC0:  MOVWF  02
02DC2:  RLCF   xFE,W
02DC4:  MOVWF  03
02DC6:  RLCF   02,F
02DC8:  RLCF   03,F
02DCA:  RLCF   02,F
02DCC:  RLCF   03,F
02DCE:  MOVLW  F8
02DD0:  ANDWF  02,F
02DD2:  MOVF   02,W
02DD4:  ADDLW  68
02DD6:  MOVLB  6
02DD8:  MOVWF  x4D
02DDA:  MOVLW  00
02DDC:  ADDWFC 03,W
02DDE:  MOVWF  x4E
02DE0:  MOVFF  FF2,64F
02DE4:  BCF    FF2.6
02DE6:  BCF    FF2.7
02DE8:  MOVFF  64E,FAA
02DEC:  MOVFF  64D,FA9
02DF0:  BCF    FA6.6
02DF2:  BCF    FA6.7
02DF4:  BSF    FA6.0
02DF6:  MOVF   FA8,W
02DF8:  BTFSC  x4F.6
02DFA:  BSF    FF2.6
02DFC:  BTFSC  x4F.7
02DFE:  BSF    FF2.7
02E00:  MOVWF  FEF
....................       CiclosPersonalizados[i].PulsosVacio=read_eeprom(105+(i*8));  
02E02:  MOVLB  1
02E04:  RLCF   xFD,W
02E06:  MOVLB  6
02E08:  MOVWF  x4B
02E0A:  MOVLB  1
02E0C:  RLCF   xFE,W
02E0E:  MOVLB  6
02E10:  MOVWF  x4C
02E12:  RLCF   x4B,F
02E14:  RLCF   x4C,F
02E16:  RLCF   x4B,F
02E18:  RLCF   x4C,F
02E1A:  MOVLW  F8
02E1C:  ANDWF  x4B,F
02E1E:  MOVLW  05
02E20:  ADDWF  x4B,W
02E22:  MOVWF  01
02E24:  MOVLW  00
02E26:  ADDWFC x4C,W
02E28:  MOVWF  03
02E2A:  MOVF   01,W
02E2C:  ADDLW  83
02E2E:  MOVWF  FE9
02E30:  MOVLW  05
02E32:  ADDWFC 03,W
02E34:  MOVWF  FEA
02E36:  MOVLB  1
02E38:  RLCF   xFD,W
02E3A:  MOVWF  02
02E3C:  RLCF   xFE,W
02E3E:  MOVWF  03
02E40:  RLCF   02,F
02E42:  RLCF   03,F
02E44:  RLCF   02,F
02E46:  RLCF   03,F
02E48:  MOVLW  F8
02E4A:  ANDWF  02,F
02E4C:  MOVF   02,W
02E4E:  ADDLW  69
02E50:  MOVLB  6
02E52:  MOVWF  x4D
02E54:  MOVLW  00
02E56:  ADDWFC 03,W
02E58:  MOVWF  x4E
02E5A:  MOVFF  FF2,64F
02E5E:  BCF    FF2.6
02E60:  BCF    FF2.7
02E62:  MOVFF  64E,FAA
02E66:  MOVFF  64D,FA9
02E6A:  BCF    FA6.6
02E6C:  BCF    FA6.7
02E6E:  BSF    FA6.0
02E70:  MOVF   FA8,W
02E72:  BTFSC  x4F.6
02E74:  BSF    FF2.6
02E76:  BTFSC  x4F.7
02E78:  BSF    FF2.7
02E7A:  MOVWF  FEF
....................       CiclosPersonalizados[i].NivelVacio=read_eeprom(106+(i*8));  
02E7C:  MOVLB  1
02E7E:  RLCF   xFD,W
02E80:  MOVLB  6
02E82:  MOVWF  x4B
02E84:  MOVLB  1
02E86:  RLCF   xFE,W
02E88:  MOVLB  6
02E8A:  MOVWF  x4C
02E8C:  RLCF   x4B,F
02E8E:  RLCF   x4C,F
02E90:  RLCF   x4B,F
02E92:  RLCF   x4C,F
02E94:  MOVLW  F8
02E96:  ANDWF  x4B,F
02E98:  MOVLW  06
02E9A:  ADDWF  x4B,W
02E9C:  MOVWF  01
02E9E:  MOVLW  00
02EA0:  ADDWFC x4C,W
02EA2:  MOVWF  03
02EA4:  MOVF   01,W
02EA6:  ADDLW  83
02EA8:  MOVWF  FE9
02EAA:  MOVLW  05
02EAC:  ADDWFC 03,W
02EAE:  MOVWF  FEA
02EB0:  MOVLB  1
02EB2:  RLCF   xFD,W
02EB4:  MOVWF  02
02EB6:  RLCF   xFE,W
02EB8:  MOVWF  03
02EBA:  RLCF   02,F
02EBC:  RLCF   03,F
02EBE:  RLCF   02,F
02EC0:  RLCF   03,F
02EC2:  MOVLW  F8
02EC4:  ANDWF  02,F
02EC6:  MOVF   02,W
02EC8:  ADDLW  6A
02ECA:  MOVLB  6
02ECC:  MOVWF  x4D
02ECE:  MOVLW  00
02ED0:  ADDWFC 03,W
02ED2:  MOVWF  x4E
02ED4:  MOVFF  FF2,64F
02ED8:  BCF    FF2.6
02EDA:  BCF    FF2.7
02EDC:  MOVFF  64E,FAA
02EE0:  MOVFF  64D,FA9
02EE4:  BCF    FA6.6
02EE6:  BCF    FA6.7
02EE8:  BSF    FA6.0
02EEA:  MOVF   FA8,W
02EEC:  BTFSC  x4F.6
02EEE:  BSF    FF2.6
02EF0:  BTFSC  x4F.7
02EF2:  BSF    FF2.7
02EF4:  MOVWF  FEF
....................       CiclosPersonalizados[i].NivelDesfogue=read_eeprom(107+(i*8));  
02EF6:  MOVLB  1
02EF8:  RLCF   xFD,W
02EFA:  MOVLB  6
02EFC:  MOVWF  x4B
02EFE:  MOVLB  1
02F00:  RLCF   xFE,W
02F02:  MOVLB  6
02F04:  MOVWF  x4C
02F06:  RLCF   x4B,F
02F08:  RLCF   x4C,F
02F0A:  RLCF   x4B,F
02F0C:  RLCF   x4C,F
02F0E:  MOVLW  F8
02F10:  ANDWF  x4B,F
02F12:  MOVLW  07
02F14:  ADDWF  x4B,W
02F16:  MOVWF  01
02F18:  MOVLW  00
02F1A:  ADDWFC x4C,W
02F1C:  MOVWF  03
02F1E:  MOVF   01,W
02F20:  ADDLW  83
02F22:  MOVWF  FE9
02F24:  MOVLW  05
02F26:  ADDWFC 03,W
02F28:  MOVWF  FEA
02F2A:  MOVLB  1
02F2C:  RLCF   xFD,W
02F2E:  MOVWF  02
02F30:  RLCF   xFE,W
02F32:  MOVWF  03
02F34:  RLCF   02,F
02F36:  RLCF   03,F
02F38:  RLCF   02,F
02F3A:  RLCF   03,F
02F3C:  MOVLW  F8
02F3E:  ANDWF  02,F
02F40:  MOVF   02,W
02F42:  ADDLW  6B
02F44:  MOVLB  6
02F46:  MOVWF  x4D
02F48:  MOVLW  00
02F4A:  ADDWFC 03,W
02F4C:  MOVWF  x4E
02F4E:  MOVFF  FF2,64F
02F52:  BCF    FF2.6
02F54:  BCF    FF2.7
02F56:  MOVFF  64E,FAA
02F5A:  MOVFF  64D,FA9
02F5E:  BCF    FA6.6
02F60:  BCF    FA6.7
02F62:  BSF    FA6.0
02F64:  MOVF   FA8,W
02F66:  BTFSC  x4F.6
02F68:  BSF    FF2.6
02F6A:  BTFSC  x4F.7
02F6C:  BSF    FF2.7
02F6E:  MOVWF  FEF
....................        
....................       if(CiclosPersonalizados[i].Temperatura>134 || CiclosPersonalizados[i].Temperatura<105) 
02F70:  MOVLB  1
02F72:  RLCF   xFD,W
02F74:  MOVLB  6
02F76:  MOVWF  x4B
02F78:  MOVLB  1
02F7A:  RLCF   xFE,W
02F7C:  MOVLB  6
02F7E:  MOVWF  x4C
02F80:  RLCF   x4B,F
02F82:  RLCF   x4C,F
02F84:  RLCF   x4B,F
02F86:  RLCF   x4C,F
02F88:  MOVLW  F8
02F8A:  ANDWF  x4B,F
02F8C:  MOVLW  83
02F8E:  ADDWF  x4B,W
02F90:  MOVWF  FE9
02F92:  MOVLW  05
02F94:  ADDWFC x4C,W
02F96:  MOVWF  FEA
02F98:  MOVF   FEF,W
02F9A:  SUBLW  86
02F9C:  BNC   2FCC
02F9E:  MOVLB  1
02FA0:  RLCF   xFD,W
02FA2:  MOVLB  6
02FA4:  MOVWF  x4B
02FA6:  MOVLB  1
02FA8:  RLCF   xFE,W
02FAA:  MOVLB  6
02FAC:  MOVWF  x4C
02FAE:  RLCF   x4B,F
02FB0:  RLCF   x4C,F
02FB2:  RLCF   x4B,F
02FB4:  RLCF   x4C,F
02FB6:  MOVLW  F8
02FB8:  ANDWF  x4B,F
02FBA:  MOVLW  83
02FBC:  ADDWF  x4B,W
02FBE:  MOVWF  FE9
02FC0:  MOVLW  05
02FC2:  ADDWFC x4C,W
02FC4:  MOVWF  FEA
02FC6:  MOVF   FEF,W
02FC8:  SUBLW  68
02FCA:  BNC   2FF8
....................          CiclosPersonalizados[i].Temperatura=121; 
02FCC:  MOVLB  1
02FCE:  RLCF   xFD,W
02FD0:  MOVLB  6
02FD2:  MOVWF  x4B
02FD4:  MOVLB  1
02FD6:  RLCF   xFE,W
02FD8:  MOVLB  6
02FDA:  MOVWF  x4C
02FDC:  RLCF   x4B,F
02FDE:  RLCF   x4C,F
02FE0:  RLCF   x4B,F
02FE2:  RLCF   x4C,F
02FE4:  MOVLW  F8
02FE6:  ANDWF  x4B,F
02FE8:  MOVLW  83
02FEA:  ADDWF  x4B,W
02FEC:  MOVWF  FE9
02FEE:  MOVLW  05
02FF0:  ADDWFC x4C,W
02FF2:  MOVWF  FEA
02FF4:  MOVLW  79
02FF6:  MOVWF  FEF
....................       if(CiclosPersonalizados[i].Minutoest>59) 
02FF8:  MOVLB  1
02FFA:  RLCF   xFD,W
02FFC:  MOVLB  6
02FFE:  MOVWF  x4B
03000:  MOVLB  1
03002:  RLCF   xFE,W
03004:  MOVLB  6
03006:  MOVWF  x4C
03008:  RLCF   x4B,F
0300A:  RLCF   x4C,F
0300C:  RLCF   x4B,F
0300E:  RLCF   x4C,F
03010:  MOVLW  F8
03012:  ANDWF  x4B,F
03014:  MOVLW  01
03016:  ADDWF  x4B,W
03018:  MOVWF  01
0301A:  MOVLW  00
0301C:  ADDWFC x4C,W
0301E:  MOVWF  03
03020:  MOVF   01,W
03022:  ADDLW  83
03024:  MOVWF  FE9
03026:  MOVLW  05
03028:  ADDWFC 03,W
0302A:  MOVWF  FEA
0302C:  MOVF   FEF,W
0302E:  SUBLW  3B
03030:  BC    306A
....................          CiclosPersonalizados[i].Minutoest=3; 
03032:  MOVLB  1
03034:  RLCF   xFD,W
03036:  MOVLB  6
03038:  MOVWF  x4B
0303A:  MOVLB  1
0303C:  RLCF   xFE,W
0303E:  MOVLB  6
03040:  MOVWF  x4C
03042:  RLCF   x4B,F
03044:  RLCF   x4C,F
03046:  RLCF   x4B,F
03048:  RLCF   x4C,F
0304A:  MOVLW  F8
0304C:  ANDWF  x4B,F
0304E:  MOVLW  01
03050:  ADDWF  x4B,W
03052:  MOVWF  01
03054:  MOVLW  00
03056:  ADDWFC x4C,W
03058:  MOVWF  03
0305A:  MOVF   01,W
0305C:  ADDLW  83
0305E:  MOVWF  FE9
03060:  MOVLW  05
03062:  ADDWFC 03,W
03064:  MOVWF  FEA
03066:  MOVLW  03
03068:  MOVWF  FEF
....................       if(CiclosPersonalizados[i].Minutosec>59) 
0306A:  MOVLB  1
0306C:  RLCF   xFD,W
0306E:  MOVLB  6
03070:  MOVWF  x4B
03072:  MOVLB  1
03074:  RLCF   xFE,W
03076:  MOVLB  6
03078:  MOVWF  x4C
0307A:  RLCF   x4B,F
0307C:  RLCF   x4C,F
0307E:  RLCF   x4B,F
03080:  RLCF   x4C,F
03082:  MOVLW  F8
03084:  ANDWF  x4B,F
03086:  MOVLW  03
03088:  ADDWF  x4B,W
0308A:  MOVWF  01
0308C:  MOVLW  00
0308E:  ADDWFC x4C,W
03090:  MOVWF  03
03092:  MOVF   01,W
03094:  ADDLW  83
03096:  MOVWF  FE9
03098:  MOVLW  05
0309A:  ADDWFC 03,W
0309C:  MOVWF  FEA
0309E:  MOVF   FEF,W
030A0:  SUBLW  3B
030A2:  BC    30DA
....................          CiclosPersonalizados[i].Minutosec=0;    
030A4:  MOVLB  1
030A6:  RLCF   xFD,W
030A8:  MOVLB  6
030AA:  MOVWF  x4B
030AC:  MOVLB  1
030AE:  RLCF   xFE,W
030B0:  MOVLB  6
030B2:  MOVWF  x4C
030B4:  RLCF   x4B,F
030B6:  RLCF   x4C,F
030B8:  RLCF   x4B,F
030BA:  RLCF   x4C,F
030BC:  MOVLW  F8
030BE:  ANDWF  x4B,F
030C0:  MOVLW  03
030C2:  ADDWF  x4B,W
030C4:  MOVWF  01
030C6:  MOVLW  00
030C8:  ADDWFC x4C,W
030CA:  MOVWF  03
030CC:  MOVF   01,W
030CE:  ADDLW  83
030D0:  MOVWF  FE9
030D2:  MOVLW  05
030D4:  ADDWFC 03,W
030D6:  MOVWF  FEA
030D8:  CLRF   FEF
....................       if(CiclosPersonalizados[i].Segundoest>59) 
030DA:  MOVLB  1
030DC:  RLCF   xFD,W
030DE:  MOVLB  6
030E0:  MOVWF  x4B
030E2:  MOVLB  1
030E4:  RLCF   xFE,W
030E6:  MOVLB  6
030E8:  MOVWF  x4C
030EA:  RLCF   x4B,F
030EC:  RLCF   x4C,F
030EE:  RLCF   x4B,F
030F0:  RLCF   x4C,F
030F2:  MOVLW  F8
030F4:  ANDWF  x4B,F
030F6:  MOVLW  02
030F8:  ADDWF  x4B,W
030FA:  MOVWF  01
030FC:  MOVLW  00
030FE:  ADDWFC x4C,W
03100:  MOVWF  03
03102:  MOVF   01,W
03104:  ADDLW  83
03106:  MOVWF  FE9
03108:  MOVLW  05
0310A:  ADDWFC 03,W
0310C:  MOVWF  FEA
0310E:  MOVF   FEF,W
03110:  SUBLW  3B
03112:  BC    314A
....................          CiclosPersonalizados[i].Segundoest=0; 
03114:  MOVLB  1
03116:  RLCF   xFD,W
03118:  MOVLB  6
0311A:  MOVWF  x4B
0311C:  MOVLB  1
0311E:  RLCF   xFE,W
03120:  MOVLB  6
03122:  MOVWF  x4C
03124:  RLCF   x4B,F
03126:  RLCF   x4C,F
03128:  RLCF   x4B,F
0312A:  RLCF   x4C,F
0312C:  MOVLW  F8
0312E:  ANDWF  x4B,F
03130:  MOVLW  02
03132:  ADDWF  x4B,W
03134:  MOVWF  01
03136:  MOVLW  00
03138:  ADDWFC x4C,W
0313A:  MOVWF  03
0313C:  MOVF   01,W
0313E:  ADDLW  83
03140:  MOVWF  FE9
03142:  MOVLW  05
03144:  ADDWFC 03,W
03146:  MOVWF  FEA
03148:  CLRF   FEF
....................       if(CiclosPersonalizados[i].Segundosec>59) 
0314A:  MOVLB  1
0314C:  RLCF   xFD,W
0314E:  MOVLB  6
03150:  MOVWF  x4B
03152:  MOVLB  1
03154:  RLCF   xFE,W
03156:  MOVLB  6
03158:  MOVWF  x4C
0315A:  RLCF   x4B,F
0315C:  RLCF   x4C,F
0315E:  RLCF   x4B,F
03160:  RLCF   x4C,F
03162:  MOVLW  F8
03164:  ANDWF  x4B,F
03166:  MOVLW  04
03168:  ADDWF  x4B,W
0316A:  MOVWF  01
0316C:  MOVLW  00
0316E:  ADDWFC x4C,W
03170:  MOVWF  03
03172:  MOVF   01,W
03174:  ADDLW  83
03176:  MOVWF  FE9
03178:  MOVLW  05
0317A:  ADDWFC 03,W
0317C:  MOVWF  FEA
0317E:  MOVF   FEF,W
03180:  SUBLW  3B
03182:  BC    31BA
....................          CiclosPersonalizados[i].Segundosec=0;       
03184:  MOVLB  1
03186:  RLCF   xFD,W
03188:  MOVLB  6
0318A:  MOVWF  x4B
0318C:  MOVLB  1
0318E:  RLCF   xFE,W
03190:  MOVLB  6
03192:  MOVWF  x4C
03194:  RLCF   x4B,F
03196:  RLCF   x4C,F
03198:  RLCF   x4B,F
0319A:  RLCF   x4C,F
0319C:  MOVLW  F8
0319E:  ANDWF  x4B,F
031A0:  MOVLW  04
031A2:  ADDWF  x4B,W
031A4:  MOVWF  01
031A6:  MOVLW  00
031A8:  ADDWFC x4C,W
031AA:  MOVWF  03
031AC:  MOVF   01,W
031AE:  ADDLW  83
031B0:  MOVWF  FE9
031B2:  MOVLW  05
031B4:  ADDWFC 03,W
031B6:  MOVWF  FEA
031B8:  CLRF   FEF
....................       if(CiclosPersonalizados[i].PulsosVacio>15) 
031BA:  MOVLB  1
031BC:  RLCF   xFD,W
031BE:  MOVLB  6
031C0:  MOVWF  x4B
031C2:  MOVLB  1
031C4:  RLCF   xFE,W
031C6:  MOVLB  6
031C8:  MOVWF  x4C
031CA:  RLCF   x4B,F
031CC:  RLCF   x4C,F
031CE:  RLCF   x4B,F
031D0:  RLCF   x4C,F
031D2:  MOVLW  F8
031D4:  ANDWF  x4B,F
031D6:  MOVLW  05
031D8:  ADDWF  x4B,W
031DA:  MOVWF  01
031DC:  MOVLW  00
031DE:  ADDWFC x4C,W
031E0:  MOVWF  03
031E2:  MOVF   01,W
031E4:  ADDLW  83
031E6:  MOVWF  FE9
031E8:  MOVLW  05
031EA:  ADDWFC 03,W
031EC:  MOVWF  FEA
031EE:  MOVF   FEF,W
031F0:  SUBLW  0F
031F2:  BC    322C
....................          CiclosPersonalizados[i].PulsosVacio=7; 
031F4:  MOVLB  1
031F6:  RLCF   xFD,W
031F8:  MOVLB  6
031FA:  MOVWF  x4B
031FC:  MOVLB  1
031FE:  RLCF   xFE,W
03200:  MOVLB  6
03202:  MOVWF  x4C
03204:  RLCF   x4B,F
03206:  RLCF   x4C,F
03208:  RLCF   x4B,F
0320A:  RLCF   x4C,F
0320C:  MOVLW  F8
0320E:  ANDWF  x4B,F
03210:  MOVLW  05
03212:  ADDWF  x4B,W
03214:  MOVWF  01
03216:  MOVLW  00
03218:  ADDWFC x4C,W
0321A:  MOVWF  03
0321C:  MOVF   01,W
0321E:  ADDLW  83
03220:  MOVWF  FE9
03222:  MOVLW  05
03224:  ADDWFC 03,W
03226:  MOVWF  FEA
03228:  MOVLW  07
0322A:  MOVWF  FEF
....................       if(CiclosPersonalizados[i].PulsosVacio<7) 
0322C:  MOVLB  1
0322E:  RLCF   xFD,W
03230:  MOVLB  6
03232:  MOVWF  x4B
03234:  MOVLB  1
03236:  RLCF   xFE,W
03238:  MOVLB  6
0323A:  MOVWF  x4C
0323C:  RLCF   x4B,F
0323E:  RLCF   x4C,F
03240:  RLCF   x4B,F
03242:  RLCF   x4C,F
03244:  MOVLW  F8
03246:  ANDWF  x4B,F
03248:  MOVLW  05
0324A:  ADDWF  x4B,W
0324C:  MOVWF  01
0324E:  MOVLW  00
03250:  ADDWFC x4C,W
03252:  MOVWF  03
03254:  MOVF   01,W
03256:  ADDLW  83
03258:  MOVWF  FE9
0325A:  MOVLW  05
0325C:  ADDWFC 03,W
0325E:  MOVWF  FEA
03260:  MOVF   FEF,W
03262:  SUBLW  06
03264:  BNC   329E
....................          CiclosPersonalizados[i].PulsosVacio=7; 
03266:  MOVLB  1
03268:  RLCF   xFD,W
0326A:  MOVLB  6
0326C:  MOVWF  x4B
0326E:  MOVLB  1
03270:  RLCF   xFE,W
03272:  MOVLB  6
03274:  MOVWF  x4C
03276:  RLCF   x4B,F
03278:  RLCF   x4C,F
0327A:  RLCF   x4B,F
0327C:  RLCF   x4C,F
0327E:  MOVLW  F8
03280:  ANDWF  x4B,F
03282:  MOVLW  05
03284:  ADDWF  x4B,W
03286:  MOVWF  01
03288:  MOVLW  00
0328A:  ADDWFC x4C,W
0328C:  MOVWF  03
0328E:  MOVF   01,W
03290:  ADDLW  83
03292:  MOVWF  FE9
03294:  MOVLW  05
03296:  ADDWFC 03,W
03298:  MOVWF  FEA
0329A:  MOVLW  07
0329C:  MOVWF  FEF
....................       if(CiclosPersonalizados[i].NivelVacio>100 || CiclosPersonalizados[i].NivelVacio<25) 
0329E:  MOVLB  1
032A0:  RLCF   xFD,W
032A2:  MOVLB  6
032A4:  MOVWF  x4B
032A6:  MOVLB  1
032A8:  RLCF   xFE,W
032AA:  MOVLB  6
032AC:  MOVWF  x4C
032AE:  RLCF   x4B,F
032B0:  RLCF   x4C,F
032B2:  RLCF   x4B,F
032B4:  RLCF   x4C,F
032B6:  MOVLW  F8
032B8:  ANDWF  x4B,F
032BA:  MOVLW  06
032BC:  ADDWF  x4B,W
032BE:  MOVWF  01
032C0:  MOVLW  00
032C2:  ADDWFC x4C,W
032C4:  MOVWF  03
032C6:  MOVF   01,W
032C8:  ADDLW  83
032CA:  MOVWF  FE9
032CC:  MOVLW  05
032CE:  ADDWFC 03,W
032D0:  MOVWF  FEA
032D2:  MOVF   FEF,W
032D4:  SUBLW  64
032D6:  BNC   3312
032D8:  MOVLB  1
032DA:  RLCF   xFD,W
032DC:  MOVLB  6
032DE:  MOVWF  x4B
032E0:  MOVLB  1
032E2:  RLCF   xFE,W
032E4:  MOVLB  6
032E6:  MOVWF  x4C
032E8:  RLCF   x4B,F
032EA:  RLCF   x4C,F
032EC:  RLCF   x4B,F
032EE:  RLCF   x4C,F
032F0:  MOVLW  F8
032F2:  ANDWF  x4B,F
032F4:  MOVLW  06
032F6:  ADDWF  x4B,W
032F8:  MOVWF  01
032FA:  MOVLW  00
032FC:  ADDWFC x4C,W
032FE:  MOVWF  03
03300:  MOVF   01,W
03302:  ADDLW  83
03304:  MOVWF  FE9
03306:  MOVLW  05
03308:  ADDWFC 03,W
0330A:  MOVWF  FEA
0330C:  MOVF   FEF,W
0330E:  SUBLW  18
03310:  BNC   334A
....................          CiclosPersonalizados[i].NivelVacio=25;    
03312:  MOVLB  1
03314:  RLCF   xFD,W
03316:  MOVLB  6
03318:  MOVWF  x4B
0331A:  MOVLB  1
0331C:  RLCF   xFE,W
0331E:  MOVLB  6
03320:  MOVWF  x4C
03322:  RLCF   x4B,F
03324:  RLCF   x4C,F
03326:  RLCF   x4B,F
03328:  RLCF   x4C,F
0332A:  MOVLW  F8
0332C:  ANDWF  x4B,F
0332E:  MOVLW  06
03330:  ADDWF  x4B,W
03332:  MOVWF  01
03334:  MOVLW  00
03336:  ADDWFC x4C,W
03338:  MOVWF  03
0333A:  MOVF   01,W
0333C:  ADDLW  83
0333E:  MOVWF  FE9
03340:  MOVLW  05
03342:  ADDWFC 03,W
03344:  MOVWF  FEA
03346:  MOVLW  19
03348:  MOVWF  FEF
....................       if(CiclosPersonalizados[i].NivelDesfogue>6) 
0334A:  MOVLB  1
0334C:  RLCF   xFD,W
0334E:  MOVLB  6
03350:  MOVWF  x4B
03352:  MOVLB  1
03354:  RLCF   xFE,W
03356:  MOVLB  6
03358:  MOVWF  x4C
0335A:  RLCF   x4B,F
0335C:  RLCF   x4C,F
0335E:  RLCF   x4B,F
03360:  RLCF   x4C,F
03362:  MOVLW  F8
03364:  ANDWF  x4B,F
03366:  MOVLW  07
03368:  ADDWF  x4B,W
0336A:  MOVWF  01
0336C:  MOVLW  00
0336E:  ADDWFC x4C,W
03370:  MOVWF  03
03372:  MOVF   01,W
03374:  ADDLW  83
03376:  MOVWF  FE9
03378:  MOVLW  05
0337A:  ADDWFC 03,W
0337C:  MOVWF  FEA
0337E:  MOVF   FEF,W
03380:  SUBLW  06
03382:  BC    33BC
....................          CiclosPersonalizados[i].NivelDesfogue=6; 
03384:  MOVLB  1
03386:  RLCF   xFD,W
03388:  MOVLB  6
0338A:  MOVWF  x4B
0338C:  MOVLB  1
0338E:  RLCF   xFE,W
03390:  MOVLB  6
03392:  MOVWF  x4C
03394:  RLCF   x4B,F
03396:  RLCF   x4C,F
03398:  RLCF   x4B,F
0339A:  RLCF   x4C,F
0339C:  MOVLW  F8
0339E:  ANDWF  x4B,F
033A0:  MOVLW  07
033A2:  ADDWF  x4B,W
033A4:  MOVWF  01
033A6:  MOVLW  00
033A8:  ADDWFC x4C,W
033AA:  MOVWF  03
033AC:  MOVF   01,W
033AE:  ADDLW  83
033B0:  MOVWF  FE9
033B2:  MOVLW  05
033B4:  ADDWFC 03,W
033B6:  MOVWF  FEA
033B8:  MOVLW  06
033BA:  MOVWF  FEF
....................    } 
033BC:  MOVLB  1
033BE:  INCF   xFD,F
033C0:  BTFSC  FD8.2
033C2:  INCF   xFE,F
033C4:  GOTO   2B9C
....................     
....................    for(i=0;i<10;i++){//Lee contraseas de usuarios 
033C8:  CLRF   xFE
033CA:  CLRF   xFD
033CC:  MOVF   xFE,F
033CE:  BTFSS  FD8.2
033D0:  BRA    34EA
033D2:  MOVF   xFD,W
033D4:  SUBLW  09
033D6:  BTFSS  FD8.0
033D8:  BRA    34EA
....................       for(j=0;j<4;j++){ 
033DA:  MOVLB  2
033DC:  CLRF   x4A
033DE:  MOVF   x4A,W
033E0:  SUBLW  03
033E2:  BTFSS  FD8.0
033E4:  BRA    34E0
....................          Clave[i].Password[j]=read_eeprom((300+j)+(i*4)); 
033E6:  MOVLB  1
033E8:  RLCF   xFD,W
033EA:  MOVLB  6
033EC:  MOVWF  x4B
033EE:  MOVLB  1
033F0:  RLCF   xFE,W
033F2:  MOVLB  6
033F4:  MOVWF  x4C
033F6:  RLCF   x4B,F
033F8:  RLCF   x4C,F
033FA:  MOVLW  FC
033FC:  ANDWF  x4B,F
033FE:  CLRF   03
03400:  MOVLB  2
03402:  MOVF   x4A,W
03404:  MOVLB  6
03406:  ADDWF  x4B,W
03408:  MOVWF  01
0340A:  MOVF   x4C,W
0340C:  ADDWFC 03,F
0340E:  MOVF   01,W
03410:  ADDLW  23
03412:  MOVWF  FE9
03414:  MOVLW  06
03416:  ADDWFC 03,W
03418:  MOVWF  FEA
0341A:  MOVLW  2C
0341C:  MOVLB  2
0341E:  ADDWF  x4A,W
03420:  MOVLB  6
03422:  MOVWF  x4D
03424:  MOVLW  01
03426:  MOVWF  x4E
03428:  BTFSC  FD8.0
0342A:  INCF   x4E,F
0342C:  MOVLB  1
0342E:  RLCF   xFD,W
03430:  MOVWF  02
03432:  RLCF   xFE,W
03434:  MOVWF  03
03436:  RLCF   02,F
03438:  RLCF   03,F
0343A:  MOVLW  FC
0343C:  ANDWF  02,F
0343E:  MOVF   02,W
03440:  MOVLB  6
03442:  ADDWF  x4D,F
03444:  MOVF   03,W
03446:  ADDWFC x4E,F
03448:  MOVFF  FF2,64F
0344C:  BCF    FF2.6
0344E:  BCF    FF2.7
03450:  MOVFF  64E,FAA
03454:  MOVFF  64D,FA9
03458:  BCF    FA6.6
0345A:  BCF    FA6.7
0345C:  BSF    FA6.0
0345E:  MOVF   FA8,W
03460:  BTFSC  x4F.6
03462:  BSF    FF2.6
03464:  BTFSC  x4F.7
03466:  BSF    FF2.7
03468:  MOVWF  FEF
....................          if(Clave[i].Password[j]>9) 
0346A:  MOVLB  1
0346C:  RLCF   xFD,W
0346E:  MOVLB  6
03470:  MOVWF  x4B
03472:  MOVLB  1
03474:  RLCF   xFE,W
03476:  MOVLB  6
03478:  MOVWF  x4C
0347A:  RLCF   x4B,F
0347C:  RLCF   x4C,F
0347E:  MOVLW  FC
03480:  ANDWF  x4B,F
03482:  CLRF   03
03484:  MOVLB  2
03486:  MOVF   x4A,W
03488:  MOVLB  6
0348A:  ADDWF  x4B,W
0348C:  MOVWF  01
0348E:  MOVF   x4C,W
03490:  ADDWFC 03,F
03492:  MOVF   01,W
03494:  ADDLW  23
03496:  MOVWF  FE9
03498:  MOVLW  06
0349A:  ADDWFC 03,W
0349C:  MOVWF  FEA
0349E:  MOVF   FEF,W
034A0:  SUBLW  09
034A2:  BC    34DA
....................             Clave[i].Password[j]=0; 
034A4:  MOVLB  1
034A6:  RLCF   xFD,W
034A8:  MOVLB  6
034AA:  MOVWF  x4B
034AC:  MOVLB  1
034AE:  RLCF   xFE,W
034B0:  MOVLB  6
034B2:  MOVWF  x4C
034B4:  RLCF   x4B,F
034B6:  RLCF   x4C,F
034B8:  MOVLW  FC
034BA:  ANDWF  x4B,F
034BC:  CLRF   03
034BE:  MOVLB  2
034C0:  MOVF   x4A,W
034C2:  MOVLB  6
034C4:  ADDWF  x4B,W
034C6:  MOVWF  01
034C8:  MOVF   x4C,W
034CA:  ADDWFC 03,F
034CC:  MOVF   01,W
034CE:  ADDLW  23
034D0:  MOVWF  FE9
034D2:  MOVLW  06
034D4:  ADDWFC 03,W
034D6:  MOVWF  FEA
034D8:  CLRF   FEF
....................       } 
034DA:  MOVLB  2
034DC:  INCF   x4A,F
034DE:  BRA    33DE
....................    } 
034E0:  MOVLB  1
034E2:  INCF   xFD,F
034E4:  BTFSC  FD8.2
034E6:  INCF   xFE,F
034E8:  BRA    33CC
....................     
....................    diaCiclos=read_ext_eeprom(2+(cicloVisto*320)); 
034EA:  MOVFF  233,667
034EE:  MOVFF  232,666
034F2:  MOVLW  01
034F4:  MOVLB  6
034F6:  MOVWF  x69
034F8:  MOVLW  40
034FA:  MOVWF  x68
034FC:  MOVLB  0
034FE:  CALL   23E0
03502:  MOVFF  02,03
03506:  MOVF   01,W
03508:  ADDLW  02
0350A:  MOVLB  6
0350C:  MOVWF  x4B
0350E:  MOVLW  00
03510:  ADDWFC 02,W
03512:  MOVWF  x4C
03514:  MOVWF  x51
03516:  MOVFF  64B,650
0351A:  MOVLB  0
0351C:  CALL   24E2
03520:  MOVFF  01,2B2
....................    if(diaCiclos>31) 
03524:  MOVLB  2
03526:  MOVF   xB2,W
03528:  SUBLW  1F
0352A:  BC    3530
....................       diaCiclos=1; 
0352C:  MOVLW  01
0352E:  MOVWF  xB2
....................    mesCiclos=read_ext_eeprom(3+(cicloVisto*320)); 
03530:  MOVFF  233,667
03534:  MOVFF  232,666
03538:  MOVLW  01
0353A:  MOVLB  6
0353C:  MOVWF  x69
0353E:  MOVLW  40
03540:  MOVWF  x68
03542:  MOVLB  0
03544:  CALL   23E0
03548:  MOVFF  02,03
0354C:  MOVF   01,W
0354E:  ADDLW  03
03550:  MOVLB  6
03552:  MOVWF  x4B
03554:  MOVLW  00
03556:  ADDWFC 02,W
03558:  MOVWF  x4C
0355A:  MOVWF  x51
0355C:  MOVFF  64B,650
03560:  MOVLB  0
03562:  CALL   24E2
03566:  MOVFF  01,2B3
....................    if(mesCiclos>12) 
0356A:  MOVLB  2
0356C:  MOVF   xB3,W
0356E:  SUBLW  0C
03570:  BC    3576
....................       mesCiclos=1; 
03572:  MOVLW  01
03574:  MOVWF  xB3
....................    yearCiclos=read_ext_eeprom(4+(cicloVisto*320)); 
03576:  MOVFF  233,667
0357A:  MOVFF  232,666
0357E:  MOVLW  01
03580:  MOVLB  6
03582:  MOVWF  x69
03584:  MOVLW  40
03586:  MOVWF  x68
03588:  MOVLB  0
0358A:  CALL   23E0
0358E:  MOVFF  02,03
03592:  MOVF   01,W
03594:  ADDLW  04
03596:  MOVLB  6
03598:  MOVWF  x4B
0359A:  MOVLW  00
0359C:  ADDWFC 02,W
0359E:  MOVWF  x4C
035A0:  MOVWF  x51
035A2:  MOVFF  64B,650
035A6:  MOVLB  0
035A8:  CALL   24E2
035AC:  MOVFF  01,2B4
....................    if(yearCiclos>99) 
035B0:  MOVLB  2
035B2:  MOVF   xB4,W
035B4:  SUBLW  63
035B6:  BC    35BC
....................       yearCiclos=19; 
035B8:  MOVLW  13
035BA:  MOVWF  xB4
....................    cicloCiclos=read_ext_eeprom(1+(cicloVisto*320)); 
035BC:  MOVFF  233,667
035C0:  MOVFF  232,666
035C4:  MOVLW  01
035C6:  MOVLB  6
035C8:  MOVWF  x69
035CA:  MOVLW  40
035CC:  MOVWF  x68
035CE:  MOVLB  0
035D0:  CALL   23E0
035D4:  MOVFF  02,03
035D8:  MOVF   01,W
035DA:  ADDLW  01
035DC:  MOVLB  6
035DE:  MOVWF  x4B
035E0:  MOVLW  00
035E2:  ADDWFC 02,W
035E4:  MOVWF  x4C
035E6:  MOVWF  x51
035E8:  MOVFF  64B,650
035EC:  MOVLB  0
035EE:  CALL   24E2
035F2:  MOVFF  01,2B6
....................    if(cicloCiclos>20) 
035F6:  MOVLB  2
035F8:  MOVF   xB6,W
035FA:  SUBLW  14
035FC:  BC    3602
....................       cicloCiclos=1; 
035FE:  MOVLW  01
03600:  MOVWF  xB6
....................    usuarioCiclos=read_ext_eeprom((cicloVisto*320)); 
03602:  MOVFF  233,667
03606:  MOVFF  232,666
0360A:  MOVLW  01
0360C:  MOVLB  6
0360E:  MOVWF  x69
03610:  MOVLW  40
03612:  MOVWF  x68
03614:  MOVLB  0
03616:  CALL   23E0
0361A:  MOVFF  02,64C
0361E:  MOVFF  01,64B
03622:  MOVFF  02,651
03626:  MOVFF  01,650
0362A:  CALL   24E2
0362E:  MOVFF  01,2B5
....................    if(usuarioCiclos>10) 
03632:  MOVLB  2
03634:  MOVF   xB5,W
03636:  SUBLW  0A
03638:  BC    363E
....................       usuarioCiclos=1; 
0363A:  MOVLW  01
0363C:  MOVWF  xB5
....................    for(i=0;i<7;i++){//Lee Valores para completar la Tabla 
0363E:  MOVLB  1
03640:  CLRF   xFE
03642:  CLRF   xFD
03644:  MOVF   xFE,F
03646:  BTFSS  FD8.2
03648:  BRA    3D34
0364A:  MOVF   xFD,W
0364C:  SUBLW  06
0364E:  BTFSS  FD8.0
03650:  BRA    3D34
....................       horaCiclos[i]=read_ext_eeprom((cicloVisto*320)+11+((cicloVisualizado+i)*9)); 
03652:  MOVLW  9D
03654:  ADDWF  xFD,W
03656:  MOVWF  01
03658:  MOVLW  02
0365A:  ADDWFC xFE,W
0365C:  MOVWF  03
0365E:  MOVFF  01,64B
03662:  MOVLB  6
03664:  MOVWF  x4C
03666:  MOVFF  233,667
0366A:  MOVFF  232,666
0366E:  MOVLW  01
03670:  MOVWF  x69
03672:  MOVLW  40
03674:  MOVWF  x68
03676:  MOVLB  0
03678:  CALL   23E0
0367C:  MOVFF  02,64E
03680:  MOVFF  01,64D
03684:  MOVLW  0B
03686:  MOVLB  6
03688:  ADDWF  x4D,F
0368A:  MOVLW  00
0368C:  ADDWFC x4E,F
0368E:  MOVLB  1
03690:  MOVF   xFD,W
03692:  MOVLB  2
03694:  ADDWF  x30,W
03696:  MOVLB  6
03698:  MOVWF  x4F
0369A:  MOVLB  1
0369C:  MOVF   xFE,W
0369E:  MOVLB  2
036A0:  ADDWFC x31,W
036A2:  MOVLB  6
036A4:  MOVWF  x50
036A6:  MOVWF  x67
036A8:  MOVFF  64F,666
036AC:  CLRF   x69
036AE:  MOVLW  09
036B0:  MOVWF  x68
036B2:  MOVLB  0
036B4:  CALL   23E0
036B8:  MOVFF  02,03
036BC:  MOVF   01,W
036BE:  MOVLB  6
036C0:  ADDWF  x4D,F
036C2:  MOVF   02,W
036C4:  ADDWFC x4E,F
036C6:  MOVFF  64E,651
036CA:  MOVFF  64D,650
036CE:  MOVLB  0
036D0:  CALL   24E2
036D4:  MOVFF  64C,FEA
036D8:  MOVFF  64B,FE9
036DC:  MOVFF  01,FEF
....................       if(horaCiclos[i]>24) 
036E0:  MOVLW  9D
036E2:  MOVLB  1
036E4:  ADDWF  xFD,W
036E6:  MOVWF  FE9
036E8:  MOVLW  02
036EA:  ADDWFC xFE,W
036EC:  MOVWF  FEA
036EE:  MOVF   FEF,W
036F0:  SUBLW  18
036F2:  BC    3702
....................          horaCiclos[i]=0; 
036F4:  MOVLW  9D
036F6:  ADDWF  xFD,W
036F8:  MOVWF  FE9
036FA:  MOVLW  02
036FC:  ADDWFC xFE,W
036FE:  MOVWF  FEA
03700:  CLRF   FEF
....................       minutoCiclos[i]=read_ext_eeprom((cicloVisto*320)+12+((cicloVisualizado+i)*9)); 
03702:  MOVLW  A4
03704:  ADDWF  xFD,W
03706:  MOVWF  01
03708:  MOVLW  02
0370A:  ADDWFC xFE,W
0370C:  MOVWF  03
0370E:  MOVFF  01,64B
03712:  MOVLB  6
03714:  MOVWF  x4C
03716:  MOVFF  233,667
0371A:  MOVFF  232,666
0371E:  MOVLW  01
03720:  MOVWF  x69
03722:  MOVLW  40
03724:  MOVWF  x68
03726:  MOVLB  0
03728:  CALL   23E0
0372C:  MOVFF  02,64E
03730:  MOVFF  01,64D
03734:  MOVLW  0C
03736:  MOVLB  6
03738:  ADDWF  x4D,F
0373A:  MOVLW  00
0373C:  ADDWFC x4E,F
0373E:  MOVLB  1
03740:  MOVF   xFD,W
03742:  MOVLB  2
03744:  ADDWF  x30,W
03746:  MOVLB  6
03748:  MOVWF  x4F
0374A:  MOVLB  1
0374C:  MOVF   xFE,W
0374E:  MOVLB  2
03750:  ADDWFC x31,W
03752:  MOVLB  6
03754:  MOVWF  x50
03756:  MOVWF  x67
03758:  MOVFF  64F,666
0375C:  CLRF   x69
0375E:  MOVLW  09
03760:  MOVWF  x68
03762:  MOVLB  0
03764:  CALL   23E0
03768:  MOVFF  02,03
0376C:  MOVF   01,W
0376E:  MOVLB  6
03770:  ADDWF  x4D,F
03772:  MOVF   02,W
03774:  ADDWFC x4E,F
03776:  MOVFF  64E,651
0377A:  MOVFF  64D,650
0377E:  MOVLB  0
03780:  CALL   24E2
03784:  MOVFF  64C,FEA
03788:  MOVFF  64B,FE9
0378C:  MOVFF  01,FEF
....................       if(minutoCiclos[i]>59) 
03790:  MOVLW  A4
03792:  MOVLB  1
03794:  ADDWF  xFD,W
03796:  MOVWF  FE9
03798:  MOVLW  02
0379A:  ADDWFC xFE,W
0379C:  MOVWF  FEA
0379E:  MOVF   FEF,W
037A0:  SUBLW  3B
037A2:  BC    37B2
....................          minutoCiclos[i]=0; 
037A4:  MOVLW  A4
037A6:  ADDWF  xFD,W
037A8:  MOVWF  FE9
037AA:  MOVLW  02
037AC:  ADDWFC xFE,W
037AE:  MOVWF  FEA
037B0:  CLRF   FEF
....................       TCiclos[i]=read_ext_eeprom((cicloVisto*320)+5+((cicloVisualizado+i)*9))+inttofloat(read_ext_eeprom((cicloVisto*320)+6+((cicloVisualizado+i)*9))); 
037B2:  RLCF   xFD,W
037B4:  MOVWF  02
037B6:  RLCF   xFE,W
037B8:  MOVWF  03
037BA:  RLCF   02,F
037BC:  RLCF   03,F
037BE:  MOVLW  FC
037C0:  ANDWF  02,F
037C2:  MOVF   02,W
037C4:  ADDLW  65
037C6:  MOVWF  01
037C8:  MOVLW  02
037CA:  ADDWFC 03,F
037CC:  MOVFF  01,64B
037D0:  MOVLB  6
037D2:  MOVFF  03,64C
037D6:  MOVFF  233,667
037DA:  MOVFF  232,666
037DE:  MOVLW  01
037E0:  MOVWF  x69
037E2:  MOVLW  40
037E4:  MOVWF  x68
037E6:  MOVLB  0
037E8:  CALL   23E0
037EC:  MOVFF  02,64E
037F0:  MOVFF  01,64D
037F4:  MOVLW  05
037F6:  MOVLB  6
037F8:  ADDWF  x4D,F
037FA:  MOVLW  00
037FC:  ADDWFC x4E,F
037FE:  MOVLB  1
03800:  MOVF   xFD,W
03802:  MOVLB  2
03804:  ADDWF  x30,W
03806:  MOVLB  6
03808:  MOVWF  x4F
0380A:  MOVLB  1
0380C:  MOVF   xFE,W
0380E:  MOVLB  2
03810:  ADDWFC x31,W
03812:  MOVLB  6
03814:  MOVWF  x50
03816:  MOVWF  x67
03818:  MOVFF  64F,666
0381C:  CLRF   x69
0381E:  MOVLW  09
03820:  MOVWF  x68
03822:  MOVLB  0
03824:  CALL   23E0
03828:  MOVFF  02,03
0382C:  MOVF   01,W
0382E:  MOVLB  6
03830:  ADDWF  x4D,F
03832:  MOVF   02,W
03834:  ADDWFC x4E,F
03836:  MOVFF  64E,651
0383A:  MOVFF  64D,650
0383E:  MOVLB  0
03840:  CALL   24E2
03844:  MOVFF  01,64D
03848:  MOVFF  233,667
0384C:  MOVFF  232,666
03850:  MOVLW  01
03852:  MOVLB  6
03854:  MOVWF  x69
03856:  MOVLW  40
03858:  MOVWF  x68
0385A:  MOVLB  0
0385C:  CALL   23E0
03860:  MOVFF  02,64F
03864:  MOVFF  01,64E
03868:  MOVLW  06
0386A:  MOVLB  6
0386C:  ADDWF  x4E,F
0386E:  MOVLW  00
03870:  ADDWFC x4F,F
03872:  MOVLB  1
03874:  MOVF   xFD,W
03876:  MOVLB  2
03878:  ADDWF  x30,W
0387A:  MOVLB  6
0387C:  MOVWF  x50
0387E:  MOVLB  1
03880:  MOVF   xFE,W
03882:  MOVLB  2
03884:  ADDWFC x31,W
03886:  MOVLB  6
03888:  MOVWF  x51
0388A:  MOVWF  x67
0388C:  MOVFF  650,666
03890:  CLRF   x69
03892:  MOVLW  09
03894:  MOVWF  x68
03896:  MOVLB  0
03898:  CALL   23E0
0389C:  MOVFF  02,03
038A0:  MOVF   01,W
038A2:  MOVLB  6
038A4:  ADDWF  x4E,F
038A6:  MOVF   02,W
038A8:  ADDWFC x4F,F
038AA:  MOVFF  64F,651
038AE:  MOVFF  64E,650
038B2:  MOVLB  0
038B4:  CALL   24E2
038B8:  MOVFF  01,64E
038BC:  MOVFF  01,64F
038C0:  CALL   258A
038C4:  MOVFF  00,64E
038C8:  MOVFF  01,64F
038CC:  MOVFF  02,650
038D0:  MOVFF  03,651
038D4:  MOVLB  6
038D6:  CLRF   x61
038D8:  MOVFF  64D,660
038DC:  MOVLB  0
038DE:  CALL   1F38
038E2:  MOVFF  FEA,653
038E6:  MOVFF  FE9,652
038EA:  BCF    FD8.1
038EC:  MOVFF  03,666
038F0:  MOVFF  02,665
038F4:  MOVFF  01,664
038F8:  MOVFF  00,663
038FC:  MOVFF  651,66A
03900:  MOVFF  650,669
03904:  MOVFF  64F,668
03908:  MOVFF  64E,667
0390C:  CALL   20F4
03910:  MOVFF  653,FEA
03914:  MOVFF  652,FE9
03918:  MOVFF  64C,FEA
0391C:  MOVFF  64B,FE9
03920:  MOVFF  00,FEF
03924:  MOVFF  01,FEC
03928:  MOVFF  02,FEC
0392C:  MOVFF  03,FEC
....................       if(TCiclos[i]>200) 
03930:  MOVLB  1
03932:  RLCF   xFD,W
03934:  MOVWF  02
03936:  RLCF   xFE,W
03938:  MOVWF  03
0393A:  RLCF   02,F
0393C:  RLCF   03,F
0393E:  MOVLW  FC
03940:  ANDWF  02,F
03942:  MOVF   02,W
03944:  ADDLW  65
03946:  MOVWF  FE9
03948:  MOVLW  02
0394A:  ADDWFC 03,W
0394C:  MOVWF  FEA
0394E:  MOVFF  FEF,64B
03952:  MOVFF  FEC,64C
03956:  MOVFF  FEC,64D
0395A:  MOVFF  FEC,64E
0395E:  MOVLB  6
03960:  CLRF   x52
03962:  CLRF   x51
03964:  MOVLW  48
03966:  MOVWF  x50
03968:  MOVLW  86
0396A:  MOVWF  x4F
0396C:  MOVFF  64E,656
03970:  MOVFF  64D,655
03974:  MOVFF  64C,654
03978:  MOVFF  64B,653
0397C:  MOVLB  0
0397E:  CALL   25CA
03982:  BNC   39AC
....................          TCiclos[i]=0; 
03984:  MOVLB  1
03986:  RLCF   xFD,W
03988:  MOVWF  02
0398A:  RLCF   xFE,W
0398C:  MOVWF  03
0398E:  RLCF   02,F
03990:  RLCF   03,F
03992:  MOVLW  FC
03994:  ANDWF  02,F
03996:  MOVF   02,W
03998:  ADDLW  65
0399A:  MOVWF  FE9
0399C:  MOVLW  02
0399E:  ADDWFC 03,W
039A0:  MOVWF  FEA
039A2:  CLRF   FEF
039A4:  CLRF   FEC
039A6:  CLRF   FEC
039A8:  CLRF   FEC
039AA:  MOVLB  0
....................       PcCiclos[i]=make16(read_ext_eeprom((cicloVisto*320)+7+((cicloVisualizado+i)*9)),read_ext_eeprom((cicloVisto*320)+8+((cicloVisualizado+i)*9))); 
039AC:  BCF    FD8.0
039AE:  MOVLB  1
039B0:  RLCF   xFD,W
039B2:  MOVWF  02
039B4:  RLCF   xFE,W
039B6:  MOVWF  03
039B8:  MOVF   02,W
039BA:  ADDLW  81
039BC:  MOVWF  01
039BE:  MOVLW  02
039C0:  ADDWFC 03,F
039C2:  MOVFF  01,64B
039C6:  MOVLB  6
039C8:  MOVFF  03,64C
039CC:  MOVFF  233,667
039D0:  MOVFF  232,666
039D4:  MOVLW  01
039D6:  MOVWF  x69
039D8:  MOVLW  40
039DA:  MOVWF  x68
039DC:  MOVLB  0
039DE:  CALL   23E0
039E2:  MOVFF  02,64E
039E6:  MOVFF  01,64D
039EA:  MOVLW  07
039EC:  MOVLB  6
039EE:  ADDWF  x4D,F
039F0:  MOVLW  00
039F2:  ADDWFC x4E,F
039F4:  MOVLB  1
039F6:  MOVF   xFD,W
039F8:  MOVLB  2
039FA:  ADDWF  x30,W
039FC:  MOVLB  6
039FE:  MOVWF  x4F
03A00:  MOVLB  1
03A02:  MOVF   xFE,W
03A04:  MOVLB  2
03A06:  ADDWFC x31,W
03A08:  MOVLB  6
03A0A:  MOVWF  x50
03A0C:  MOVWF  x67
03A0E:  MOVFF  64F,666
03A12:  CLRF   x69
03A14:  MOVLW  09
03A16:  MOVWF  x68
03A18:  MOVLB  0
03A1A:  CALL   23E0
03A1E:  MOVFF  02,03
03A22:  MOVF   01,W
03A24:  MOVLB  6
03A26:  ADDWF  x4D,F
03A28:  MOVF   02,W
03A2A:  ADDWFC x4E,F
03A2C:  MOVFF  64E,651
03A30:  MOVFF  64D,650
03A34:  MOVLB  0
03A36:  CALL   24E2
03A3A:  MOVFF  01,64D
03A3E:  MOVFF  233,667
03A42:  MOVFF  232,666
03A46:  MOVLW  01
03A48:  MOVLB  6
03A4A:  MOVWF  x69
03A4C:  MOVLW  40
03A4E:  MOVWF  x68
03A50:  MOVLB  0
03A52:  CALL   23E0
03A56:  MOVFF  02,64F
03A5A:  MOVFF  01,64E
03A5E:  MOVLW  08
03A60:  MOVLB  6
03A62:  ADDWF  x4E,F
03A64:  MOVLW  00
03A66:  ADDWFC x4F,F
03A68:  MOVLB  1
03A6A:  MOVF   xFD,W
03A6C:  MOVLB  2
03A6E:  ADDWF  x30,W
03A70:  MOVLB  6
03A72:  MOVWF  x50
03A74:  MOVLB  1
03A76:  MOVF   xFE,W
03A78:  MOVLB  2
03A7A:  ADDWFC x31,W
03A7C:  MOVLB  6
03A7E:  MOVWF  x51
03A80:  MOVWF  x67
03A82:  MOVFF  650,666
03A86:  CLRF   x69
03A88:  MOVLW  09
03A8A:  MOVWF  x68
03A8C:  MOVLB  0
03A8E:  CALL   23E0
03A92:  MOVFF  02,03
03A96:  MOVF   01,W
03A98:  MOVLB  6
03A9A:  ADDWF  x4E,F
03A9C:  MOVF   02,W
03A9E:  ADDWFC x4F,F
03AA0:  MOVFF  64F,651
03AA4:  MOVFF  64E,650
03AA8:  MOVLB  0
03AAA:  CALL   24E2
03AAE:  MOVFF  64C,FEA
03AB2:  MOVFF  64B,FE9
03AB6:  MOVFF  64D,FEC
03ABA:  MOVF   FED,F
03ABC:  MOVFF  01,FEF
....................       if(PcCiclos[i]>500) 
03AC0:  BCF    FD8.0
03AC2:  MOVLB  1
03AC4:  RLCF   xFD,W
03AC6:  MOVWF  02
03AC8:  RLCF   xFE,W
03ACA:  MOVWF  03
03ACC:  MOVF   02,W
03ACE:  ADDLW  81
03AD0:  MOVWF  FE9
03AD2:  MOVLW  02
03AD4:  ADDWFC 03,W
03AD6:  MOVWF  FEA
03AD8:  MOVFF  FEC,64C
03ADC:  MOVF   FED,F
03ADE:  MOVFF  FEF,64B
03AE2:  MOVLB  6
03AE4:  MOVF   x4C,W
03AE6:  SUBLW  00
03AE8:  BC    3B14
03AEA:  XORLW  FF
03AEC:  BNZ   3AF4
03AEE:  MOVF   x4B,W
03AF0:  SUBLW  F4
03AF2:  BC    3B14
....................          PcCiclos[i]=0; 
03AF4:  BCF    FD8.0
03AF6:  MOVLB  1
03AF8:  RLCF   xFD,W
03AFA:  MOVWF  02
03AFC:  RLCF   xFE,W
03AFE:  MOVWF  03
03B00:  MOVF   02,W
03B02:  ADDLW  81
03B04:  MOVWF  FE9
03B06:  MOVLW  02
03B08:  ADDWFC 03,W
03B0A:  MOVWF  FEA
03B0C:  CLRF   FEC
03B0E:  MOVF   FED,F
03B10:  CLRF   FEF
03B12:  MOVLB  6
....................       PpcCiclos[i]=make16(read_ext_eeprom((cicloVisto*320)+9+((cicloVisualizado+i)*9)),read_ext_eeprom((cicloVisto*320)+10+((cicloVisualizado+i)*9))); 
03B14:  BCF    FD8.0
03B16:  MOVLB  1
03B18:  RLCF   xFD,W
03B1A:  MOVWF  02
03B1C:  RLCF   xFE,W
03B1E:  MOVWF  03
03B20:  MOVF   02,W
03B22:  ADDLW  8F
03B24:  MOVWF  01
03B26:  MOVLW  02
03B28:  ADDWFC 03,F
03B2A:  MOVFF  01,64B
03B2E:  MOVLB  6
03B30:  MOVFF  03,64C
03B34:  MOVFF  233,667
03B38:  MOVFF  232,666
03B3C:  MOVLW  01
03B3E:  MOVWF  x69
03B40:  MOVLW  40
03B42:  MOVWF  x68
03B44:  MOVLB  0
03B46:  CALL   23E0
03B4A:  MOVFF  02,64E
03B4E:  MOVFF  01,64D
03B52:  MOVLW  09
03B54:  MOVLB  6
03B56:  ADDWF  x4D,F
03B58:  MOVLW  00
03B5A:  ADDWFC x4E,F
03B5C:  MOVLB  1
03B5E:  MOVF   xFD,W
03B60:  MOVLB  2
03B62:  ADDWF  x30,W
03B64:  MOVLB  6
03B66:  MOVWF  x4F
03B68:  MOVLB  1
03B6A:  MOVF   xFE,W
03B6C:  MOVLB  2
03B6E:  ADDWFC x31,W
03B70:  MOVLB  6
03B72:  MOVWF  x50
03B74:  MOVWF  x67
03B76:  MOVFF  64F,666
03B7A:  CLRF   x69
03B7C:  MOVLW  09
03B7E:  MOVWF  x68
03B80:  MOVLB  0
03B82:  CALL   23E0
03B86:  MOVFF  02,03
03B8A:  MOVF   01,W
03B8C:  MOVLB  6
03B8E:  ADDWF  x4D,F
03B90:  MOVF   02,W
03B92:  ADDWFC x4E,F
03B94:  MOVFF  64E,651
03B98:  MOVFF  64D,650
03B9C:  MOVLB  0
03B9E:  CALL   24E2
03BA2:  MOVFF  01,64D
03BA6:  MOVFF  233,667
03BAA:  MOVFF  232,666
03BAE:  MOVLW  01
03BB0:  MOVLB  6
03BB2:  MOVWF  x69
03BB4:  MOVLW  40
03BB6:  MOVWF  x68
03BB8:  MOVLB  0
03BBA:  CALL   23E0
03BBE:  MOVFF  02,64F
03BC2:  MOVFF  01,64E
03BC6:  MOVLW  0A
03BC8:  MOVLB  6
03BCA:  ADDWF  x4E,F
03BCC:  MOVLW  00
03BCE:  ADDWFC x4F,F
03BD0:  MOVLB  1
03BD2:  MOVF   xFD,W
03BD4:  MOVLB  2
03BD6:  ADDWF  x30,W
03BD8:  MOVLB  6
03BDA:  MOVWF  x50
03BDC:  MOVLB  1
03BDE:  MOVF   xFE,W
03BE0:  MOVLB  2
03BE2:  ADDWFC x31,W
03BE4:  MOVLB  6
03BE6:  MOVWF  x51
03BE8:  MOVWF  x67
03BEA:  MOVFF  650,666
03BEE:  CLRF   x69
03BF0:  MOVLW  09
03BF2:  MOVWF  x68
03BF4:  MOVLB  0
03BF6:  CALL   23E0
03BFA:  MOVFF  02,03
03BFE:  MOVF   01,W
03C00:  MOVLB  6
03C02:  ADDWF  x4E,F
03C04:  MOVF   02,W
03C06:  ADDWFC x4F,F
03C08:  MOVFF  64F,651
03C0C:  MOVFF  64E,650
03C10:  MOVLB  0
03C12:  CALL   24E2
03C16:  MOVFF  64C,FEA
03C1A:  MOVFF  64B,FE9
03C1E:  MOVFF  64D,FEC
03C22:  MOVF   FED,F
03C24:  MOVFF  01,FEF
....................       if(PpcCiclos[i]>500) 
03C28:  BCF    FD8.0
03C2A:  MOVLB  1
03C2C:  RLCF   xFD,W
03C2E:  MOVWF  02
03C30:  RLCF   xFE,W
03C32:  MOVWF  03
03C34:  MOVF   02,W
03C36:  ADDLW  8F
03C38:  MOVWF  FE9
03C3A:  MOVLW  02
03C3C:  ADDWFC 03,W
03C3E:  MOVWF  FEA
03C40:  MOVFF  FEC,64C
03C44:  MOVF   FED,F
03C46:  MOVFF  FEF,64B
03C4A:  MOVLB  6
03C4C:  MOVF   x4C,W
03C4E:  SUBLW  00
03C50:  BC    3C7A
03C52:  XORLW  FF
03C54:  BNZ   3C5C
03C56:  MOVF   x4B,W
03C58:  SUBLW  F4
03C5A:  BC    3C7A
....................          PpcCiclos[i]=0; 
03C5C:  BCF    FD8.0
03C5E:  MOVLB  1
03C60:  RLCF   xFD,W
03C62:  MOVWF  02
03C64:  RLCF   xFE,W
03C66:  MOVWF  03
03C68:  MOVF   02,W
03C6A:  ADDLW  8F
03C6C:  MOVWF  FE9
03C6E:  MOVLW  02
03C70:  ADDWFC 03,W
03C72:  MOVWF  FEA
03C74:  CLRF   FEC
03C76:  MOVF   FED,F
03C78:  CLRF   FEF
....................       ACiclos[i]=read_ext_eeprom((cicloVisto*320)+13+((cicloVisualizado+i)*9)); 
03C7A:  MOVLW  AB
03C7C:  MOVLB  1
03C7E:  ADDWF  xFD,W
03C80:  MOVWF  01
03C82:  MOVLW  02
03C84:  ADDWFC xFE,W
03C86:  MOVWF  03
03C88:  MOVFF  01,64B
03C8C:  MOVLB  6
03C8E:  MOVWF  x4C
03C90:  MOVFF  233,667
03C94:  MOVFF  232,666
03C98:  MOVLW  01
03C9A:  MOVWF  x69
03C9C:  MOVLW  40
03C9E:  MOVWF  x68
03CA0:  MOVLB  0
03CA2:  CALL   23E0
03CA6:  MOVFF  02,64E
03CAA:  MOVFF  01,64D
03CAE:  MOVLW  0D
03CB0:  MOVLB  6
03CB2:  ADDWF  x4D,F
03CB4:  MOVLW  00
03CB6:  ADDWFC x4E,F
03CB8:  MOVLB  1
03CBA:  MOVF   xFD,W
03CBC:  MOVLB  2
03CBE:  ADDWF  x30,W
03CC0:  MOVLB  6
03CC2:  MOVWF  x4F
03CC4:  MOVLB  1
03CC6:  MOVF   xFE,W
03CC8:  MOVLB  2
03CCA:  ADDWFC x31,W
03CCC:  MOVLB  6
03CCE:  MOVWF  x50
03CD0:  MOVWF  x67
03CD2:  MOVFF  64F,666
03CD6:  CLRF   x69
03CD8:  MOVLW  09
03CDA:  MOVWF  x68
03CDC:  MOVLB  0
03CDE:  CALL   23E0
03CE2:  MOVFF  02,03
03CE6:  MOVF   01,W
03CE8:  MOVLB  6
03CEA:  ADDWF  x4D,F
03CEC:  MOVF   02,W
03CEE:  ADDWFC x4E,F
03CF0:  MOVFF  64E,651
03CF4:  MOVFF  64D,650
03CF8:  MOVLB  0
03CFA:  CALL   24E2
03CFE:  MOVFF  64C,FEA
03D02:  MOVFF  64B,FE9
03D06:  MOVFF  01,FEF
....................       if(ACiclos[i]>10) 
03D0A:  MOVLW  AB
03D0C:  MOVLB  1
03D0E:  ADDWF  xFD,W
03D10:  MOVWF  FE9
03D12:  MOVLW  02
03D14:  ADDWFC xFE,W
03D16:  MOVWF  FEA
03D18:  MOVF   FEF,W
03D1A:  SUBLW  0A
03D1C:  BC    3D2C
....................          ACiclos[i]=0; 
03D1E:  MOVLW  AB
03D20:  ADDWF  xFD,W
03D22:  MOVWF  FE9
03D24:  MOVLW  02
03D26:  ADDWFC xFE,W
03D28:  MOVWF  FEA
03D2A:  CLRF   FEF
....................    } 
03D2C:  INCF   xFD,F
03D2E:  BTFSC  FD8.2
03D30:  INCF   xFE,F
03D32:  BRA    3644
.................... } 
03D34:  MOVLB  0
03D36:  GOTO   80DC (RETURN)
....................  
.................... void LimitaValores(){ 
....................    if(Ganancia>20.0){ 
*
03D88:  MOVLB  6
03D8A:  CLRF   x52
03D8C:  CLRF   x51
03D8E:  MOVLW  20
03D90:  MOVWF  x50
03D92:  MOVLW  83
03D94:  MOVWF  x4F
03D96:  MOVFF  1BA,656
03D9A:  MOVFF  1B9,655
03D9E:  MOVFF  1B8,654
03DA2:  MOVFF  1B7,653
03DA6:  MOVLB  0
03DA8:  CALL   25CA
03DAC:  BNC   3DF6
....................       Ganancia=15.0; 
03DAE:  MOVLB  1
03DB0:  CLRF   xBA
03DB2:  CLRF   xB9
03DB4:  MOVLW  70
03DB6:  MOVWF  xB8
03DB8:  MOVLW  82
03DBA:  MOVWF  xB7
....................       write_eeprom(20,15); 
03DBC:  CLRF   FAA
03DBE:  MOVLW  14
03DC0:  MOVWF  FA9
03DC2:  MOVLW  0F
03DC4:  MOVWF  FA8
03DC6:  BCF    FA6.6
03DC8:  BCF    FA6.7
03DCA:  BSF    FA6.2
03DCC:  MOVF   FF2,W
03DCE:  MOVWF  00
03DD0:  BCF    FF2.6
03DD2:  BCF    FF2.7
03DD4:  MOVLB  F
03DD6:  MOVLW  55
03DD8:  MOVWF  FA7
03DDA:  MOVLW  AA
03DDC:  MOVWF  FA7
03DDE:  BSF    FA6.1
03DE0:  BTFSC  FA6.1
03DE2:  BRA    3DE0
03DE4:  BCF    FA6.2
03DE6:  MOVF   00,W
03DE8:  IORWF  FF2,F
....................       delay_ms(10); 
03DEA:  MOVLW  0A
03DEC:  MOVLB  6
03DEE:  MOVWF  x64
03DF0:  MOVLB  0
03DF2:  CALL   1F6E
....................    } 
....................    if(Sensor[0].Ajuste>50){ 
03DF6:  MOVLB  2
03DF8:  MOVF   xD9,W
03DFA:  SUBLW  32
03DFC:  BC    3E3E
....................       Sensor[0].Ajuste=11; 
03DFE:  MOVLW  0B
03E00:  MOVWF  xD9
....................       write_eeprom(21,11); 
03E02:  CLRF   FAA
03E04:  MOVLW  15
03E06:  MOVWF  FA9
03E08:  MOVLW  0B
03E0A:  MOVWF  FA8
03E0C:  BCF    FA6.6
03E0E:  BCF    FA6.7
03E10:  BSF    FA6.2
03E12:  MOVF   FF2,W
03E14:  MOVWF  00
03E16:  BCF    FF2.6
03E18:  BCF    FF2.7
03E1A:  MOVLB  F
03E1C:  MOVLW  55
03E1E:  MOVWF  FA7
03E20:  MOVLW  AA
03E22:  MOVWF  FA7
03E24:  BSF    FA6.1
03E26:  BTFSC  FA6.1
03E28:  BRA    3E26
03E2A:  BCF    FA6.2
03E2C:  MOVF   00,W
03E2E:  IORWF  FF2,F
....................       delay_ms(10); 
03E30:  MOVLW  0A
03E32:  MOVLB  6
03E34:  MOVWF  x64
03E36:  MOVLB  0
03E38:  CALL   1F6E
03E3C:  MOVLB  2
....................    } 
....................    if(Sensor[0].Ajusten>50){ 
03E3E:  MOVF   xDA,W
03E40:  SUBLW  32
03E42:  BC    3E7E
....................       Sensor[0].Ajusten=0; 
03E44:  CLRF   xDA
....................       write_eeprom(22,0); 
03E46:  CLRF   FAA
03E48:  MOVLW  16
03E4A:  MOVWF  FA9
03E4C:  CLRF   FA8
03E4E:  BCF    FA6.6
03E50:  BCF    FA6.7
03E52:  BSF    FA6.2
03E54:  MOVF   FF2,W
03E56:  MOVWF  00
03E58:  BCF    FF2.6
03E5A:  BCF    FF2.7
03E5C:  MOVLB  F
03E5E:  MOVLW  55
03E60:  MOVWF  FA7
03E62:  MOVLW  AA
03E64:  MOVWF  FA7
03E66:  BSF    FA6.1
03E68:  BTFSC  FA6.1
03E6A:  BRA    3E68
03E6C:  BCF    FA6.2
03E6E:  MOVF   00,W
03E70:  IORWF  FF2,F
....................       delay_ms(10); 
03E72:  MOVLW  0A
03E74:  MOVLB  6
03E76:  MOVWF  x64
03E78:  MOVLB  0
03E7A:  CALL   1F6E
....................    } 
....................    if(Sensor[1].Ajuste>50){ 
03E7E:  MOVLB  4
03E80:  MOVF   x3D,W
03E82:  SUBLW  32
03E84:  BC    3EC2
....................       Sensor[1].Ajuste=0; 
03E86:  CLRF   x3D
....................       write_eeprom(23,0); 
03E88:  CLRF   FAA
03E8A:  MOVLW  17
03E8C:  MOVWF  FA9
03E8E:  CLRF   FA8
03E90:  BCF    FA6.6
03E92:  BCF    FA6.7
03E94:  BSF    FA6.2
03E96:  MOVF   FF2,W
03E98:  MOVWF  00
03E9A:  BCF    FF2.6
03E9C:  BCF    FF2.7
03E9E:  MOVLB  F
03EA0:  MOVLW  55
03EA2:  MOVWF  FA7
03EA4:  MOVLW  AA
03EA6:  MOVWF  FA7
03EA8:  BSF    FA6.1
03EAA:  BTFSC  FA6.1
03EAC:  BRA    3EAA
03EAE:  BCF    FA6.2
03EB0:  MOVF   00,W
03EB2:  IORWF  FF2,F
....................       delay_ms(10); 
03EB4:  MOVLW  0A
03EB6:  MOVLB  6
03EB8:  MOVWF  x64
03EBA:  MOVLB  0
03EBC:  CALL   1F6E
03EC0:  MOVLB  4
....................    } 
....................    if(Sensor[1].Ajusten>50){ 
03EC2:  MOVF   x3E,W
03EC4:  SUBLW  32
03EC6:  BC    3F02
....................       Sensor[1].Ajusten=0; 
03EC8:  CLRF   x3E
....................       write_eeprom(24,0); 
03ECA:  CLRF   FAA
03ECC:  MOVLW  18
03ECE:  MOVWF  FA9
03ED0:  CLRF   FA8
03ED2:  BCF    FA6.6
03ED4:  BCF    FA6.7
03ED6:  BSF    FA6.2
03ED8:  MOVF   FF2,W
03EDA:  MOVWF  00
03EDC:  BCF    FF2.6
03EDE:  BCF    FF2.7
03EE0:  MOVLB  F
03EE2:  MOVLW  55
03EE4:  MOVWF  FA7
03EE6:  MOVLW  AA
03EE8:  MOVWF  FA7
03EEA:  BSF    FA6.1
03EEC:  BTFSC  FA6.1
03EEE:  BRA    3EEC
03EF0:  BCF    FA6.2
03EF2:  MOVF   00,W
03EF4:  IORWF  FF2,F
....................       delay_ms(10); 
03EF6:  MOVLW  0A
03EF8:  MOVLB  6
03EFA:  MOVWF  x64
03EFC:  MOVLB  0
03EFE:  CALL   1F6E
....................    } 
....................    if(MediaMovil>80){ 
03F02:  MOVLB  1
03F04:  MOVF   x93,W
03F06:  SUBLW  50
03F08:  BC    3F48
....................       MediaMovil=40; 
03F0A:  MOVLW  28
03F0C:  MOVWF  x93
....................       write_eeprom(25,40); 
03F0E:  CLRF   FAA
03F10:  MOVLW  19
03F12:  MOVWF  FA9
03F14:  MOVLW  28
03F16:  MOVWF  FA8
03F18:  BCF    FA6.6
03F1A:  BCF    FA6.7
03F1C:  BSF    FA6.2
03F1E:  MOVF   FF2,W
03F20:  MOVWF  00
03F22:  BCF    FF2.6
03F24:  BCF    FF2.7
03F26:  MOVLB  F
03F28:  MOVLW  55
03F2A:  MOVWF  FA7
03F2C:  MOVLW  AA
03F2E:  MOVWF  FA7
03F30:  BSF    FA6.1
03F32:  BTFSC  FA6.1
03F34:  BRA    3F32
03F36:  BCF    FA6.2
03F38:  MOVF   00,W
03F3A:  IORWF  FF2,F
....................       delay_ms(10); 
03F3C:  MOVLW  0A
03F3E:  MOVLB  6
03F40:  MOVWF  x64
03F42:  MOVLB  0
03F44:  CALL   1F6E
....................    } 
....................    if(Tciclo>10){ 
03F48:  MOVLB  6
03F4A:  CLRF   x52
03F4C:  CLRF   x51
03F4E:  MOVLW  20
03F50:  MOVWF  x50
03F52:  MOVLW  82
03F54:  MOVWF  x4F
03F56:  MOVFF  1A2,656
03F5A:  MOVFF  1A1,655
03F5E:  MOVFF  1A0,654
03F62:  MOVFF  19F,653
03F66:  MOVLB  0
03F68:  CALL   25CA
03F6C:  BNC   3FB6
....................       Tciclo=10; 
03F6E:  MOVLB  1
03F70:  CLRF   xA2
03F72:  CLRF   xA1
03F74:  MOVLW  20
03F76:  MOVWF  xA0
03F78:  MOVLW  82
03F7A:  MOVWF  x9F
....................       write_eeprom(26,10); 
03F7C:  CLRF   FAA
03F7E:  MOVLW  1A
03F80:  MOVWF  FA9
03F82:  MOVLW  0A
03F84:  MOVWF  FA8
03F86:  BCF    FA6.6
03F88:  BCF    FA6.7
03F8A:  BSF    FA6.2
03F8C:  MOVF   FF2,W
03F8E:  MOVWF  00
03F90:  BCF    FF2.6
03F92:  BCF    FF2.7
03F94:  MOVLB  F
03F96:  MOVLW  55
03F98:  MOVWF  FA7
03F9A:  MOVLW  AA
03F9C:  MOVWF  FA7
03F9E:  BSF    FA6.1
03FA0:  BTFSC  FA6.1
03FA2:  BRA    3FA0
03FA4:  BCF    FA6.2
03FA6:  MOVF   00,W
03FA8:  IORWF  FF2,F
....................       delay_ms(10); 
03FAA:  MOVLW  0A
03FAC:  MOVLB  6
03FAE:  MOVWF  x64
03FB0:  MOVLB  0
03FB2:  CALL   1F6E
....................    } 
....................    if(Sensor[0].RPT100>2.0){ 
03FB6:  MOVLB  6
03FB8:  CLRF   x52
03FBA:  CLRF   x51
03FBC:  CLRF   x50
03FBE:  MOVLW  80
03FC0:  MOVWF  x4F
03FC2:  MOVFF  2CE,656
03FC6:  MOVFF  2CD,655
03FCA:  MOVFF  2CC,654
03FCE:  MOVFF  2CB,653
03FD2:  MOVLB  0
03FD4:  CALL   25CA
03FD8:  BNC   4058
....................       Sensor[0].RPT100=0.5; 
03FDA:  MOVLB  2
03FDC:  CLRF   xCE
03FDE:  CLRF   xCD
03FE0:  CLRF   xCC
03FE2:  MOVLW  7E
03FE4:  MOVWF  xCB
....................       write_eeprom(28,0); 
03FE6:  CLRF   FAA
03FE8:  MOVLW  1C
03FEA:  MOVWF  FA9
03FEC:  CLRF   FA8
03FEE:  BCF    FA6.6
03FF0:  BCF    FA6.7
03FF2:  BSF    FA6.2
03FF4:  MOVF   FF2,W
03FF6:  MOVWF  00
03FF8:  BCF    FF2.6
03FFA:  BCF    FF2.7
03FFC:  MOVLB  F
03FFE:  MOVLW  55
04000:  MOVWF  FA7
04002:  MOVLW  AA
04004:  MOVWF  FA7
04006:  BSF    FA6.1
04008:  BTFSC  FA6.1
0400A:  BRA    4008
0400C:  BCF    FA6.2
0400E:  MOVF   00,W
04010:  IORWF  FF2,F
....................       delay_ms(10); 
04012:  MOVLW  0A
04014:  MOVLB  6
04016:  MOVWF  x64
04018:  MOVLB  0
0401A:  CALL   1F6E
....................       write_eeprom(27,5); 
0401E:  CLRF   FAA
04020:  MOVLW  1B
04022:  MOVWF  FA9
04024:  MOVLW  05
04026:  MOVWF  FA8
04028:  BCF    FA6.6
0402A:  BCF    FA6.7
0402C:  BSF    FA6.2
0402E:  MOVF   FF2,W
04030:  MOVWF  00
04032:  BCF    FF2.6
04034:  BCF    FF2.7
04036:  MOVLB  F
04038:  MOVLW  55
0403A:  MOVWF  FA7
0403C:  MOVLW  AA
0403E:  MOVWF  FA7
04040:  BSF    FA6.1
04042:  BTFSC  FA6.1
04044:  BRA    4042
04046:  BCF    FA6.2
04048:  MOVF   00,W
0404A:  IORWF  FF2,F
....................       delay_ms(10); 
0404C:  MOVLW  0A
0404E:  MOVLB  6
04050:  MOVWF  x64
04052:  MOVLB  0
04054:  CALL   1F6E
....................    } 
....................    if(Sensor[1].RPT100>2.0){ 
04058:  MOVLB  6
0405A:  CLRF   x52
0405C:  CLRF   x51
0405E:  CLRF   x50
04060:  MOVLW  80
04062:  MOVWF  x4F
04064:  MOVFF  432,656
04068:  MOVFF  431,655
0406C:  MOVFF  430,654
04070:  MOVFF  42F,653
04074:  MOVLB  0
04076:  CALL   25CA
0407A:  BNC   40FA
....................       Sensor[1].RPT100=0.5; 
0407C:  MOVLB  4
0407E:  CLRF   x32
04080:  CLRF   x31
04082:  CLRF   x30
04084:  MOVLW  7E
04086:  MOVWF  x2F
....................       write_eeprom(30,0); 
04088:  CLRF   FAA
0408A:  MOVLW  1E
0408C:  MOVWF  FA9
0408E:  CLRF   FA8
04090:  BCF    FA6.6
04092:  BCF    FA6.7
04094:  BSF    FA6.2
04096:  MOVF   FF2,W
04098:  MOVWF  00
0409A:  BCF    FF2.6
0409C:  BCF    FF2.7
0409E:  MOVLB  F
040A0:  MOVLW  55
040A2:  MOVWF  FA7
040A4:  MOVLW  AA
040A6:  MOVWF  FA7
040A8:  BSF    FA6.1
040AA:  BTFSC  FA6.1
040AC:  BRA    40AA
040AE:  BCF    FA6.2
040B0:  MOVF   00,W
040B2:  IORWF  FF2,F
....................       delay_ms(10); 
040B4:  MOVLW  0A
040B6:  MOVLB  6
040B8:  MOVWF  x64
040BA:  MOVLB  0
040BC:  CALL   1F6E
....................       write_eeprom(29,5); 
040C0:  CLRF   FAA
040C2:  MOVLW  1D
040C4:  MOVWF  FA9
040C6:  MOVLW  05
040C8:  MOVWF  FA8
040CA:  BCF    FA6.6
040CC:  BCF    FA6.7
040CE:  BSF    FA6.2
040D0:  MOVF   FF2,W
040D2:  MOVWF  00
040D4:  BCF    FF2.6
040D6:  BCF    FF2.7
040D8:  MOVLB  F
040DA:  MOVLW  55
040DC:  MOVWF  FA7
040DE:  MOVLW  AA
040E0:  MOVWF  FA7
040E2:  BSF    FA6.1
040E4:  BTFSC  FA6.1
040E6:  BRA    40E4
040E8:  BCF    FA6.2
040EA:  MOVF   00,W
040EC:  IORWF  FF2,F
....................       delay_ms(10); 
040EE:  MOVLW  0A
040F0:  MOVLB  6
040F2:  MOVWF  x64
040F4:  MOVLB  0
040F6:  CALL   1F6E
....................    } 
....................    if(Atmosferica>100){ 
040FA:  MOVLB  2
040FC:  MOVF   x3C,W
040FE:  SUBLW  64
04100:  BC    4140
....................       Atmosferica=69; 
04102:  MOVLW  45
04104:  MOVWF  x3C
....................       write_eeprom(31,69); 
04106:  CLRF   FAA
04108:  MOVLW  1F
0410A:  MOVWF  FA9
0410C:  MOVLW  45
0410E:  MOVWF  FA8
04110:  BCF    FA6.6
04112:  BCF    FA6.7
04114:  BSF    FA6.2
04116:  MOVF   FF2,W
04118:  MOVWF  00
0411A:  BCF    FF2.6
0411C:  BCF    FF2.7
0411E:  MOVLB  F
04120:  MOVLW  55
04122:  MOVWF  FA7
04124:  MOVLW  AA
04126:  MOVWF  FA7
04128:  BSF    FA6.1
0412A:  BTFSC  FA6.1
0412C:  BRA    412A
0412E:  BCF    FA6.2
04130:  MOVF   00,W
04132:  IORWF  FF2,F
....................       delay_ms(10); 
04134:  MOVLW  0A
04136:  MOVLB  6
04138:  MOVWF  x64
0413A:  MOVLB  0
0413C:  CALL   1F6E
....................    } 
....................    if(Tapertura>100){ 
04140:  MOVLB  1
04142:  MOVF   xF6,W
04144:  SUBLW  64
04146:  BC    4186
....................       Tapertura=85; 
04148:  MOVLW  55
0414A:  MOVWF  xF6
....................       write_eeprom(32,85); 
0414C:  CLRF   FAA
0414E:  MOVLW  20
04150:  MOVWF  FA9
04152:  MOVLW  55
04154:  MOVWF  FA8
04156:  BCF    FA6.6
04158:  BCF    FA6.7
0415A:  BSF    FA6.2
0415C:  MOVF   FF2,W
0415E:  MOVWF  00
04160:  BCF    FF2.6
04162:  BCF    FF2.7
04164:  MOVLB  F
04166:  MOVLW  55
04168:  MOVWF  FA7
0416A:  MOVLW  AA
0416C:  MOVWF  FA7
0416E:  BSF    FA6.1
04170:  BTFSC  FA6.1
04172:  BRA    4170
04174:  BCF    FA6.2
04176:  MOVF   00,W
04178:  IORWF  FF2,F
....................       delay_ms(10); 
0417A:  MOVLW  0A
0417C:  MOVLB  6
0417E:  MOVWF  x64
04180:  MOVLB  0
04182:  CALL   1F6E
....................    } 
....................    if(Ciclos>60000){ 
04186:  MOVLB  2
04188:  MOVF   x16,W
0418A:  SUBLW  E9
0418C:  BC    420E
0418E:  XORLW  FF
04190:  BNZ   4198
04192:  MOVF   x15,W
04194:  SUBLW  60
04196:  BC    420E
....................       Ciclos=0; 
04198:  CLRF   x16
0419A:  CLRF   x15
....................       write_eeprom(37,0); 
0419C:  CLRF   FAA
0419E:  MOVLW  25
041A0:  MOVWF  FA9
041A2:  CLRF   FA8
041A4:  BCF    FA6.6
041A6:  BCF    FA6.7
041A8:  BSF    FA6.2
041AA:  MOVF   FF2,W
041AC:  MOVWF  00
041AE:  BCF    FF2.6
041B0:  BCF    FF2.7
041B2:  MOVLB  F
041B4:  MOVLW  55
041B6:  MOVWF  FA7
041B8:  MOVLW  AA
041BA:  MOVWF  FA7
041BC:  BSF    FA6.1
041BE:  BTFSC  FA6.1
041C0:  BRA    41BE
041C2:  BCF    FA6.2
041C4:  MOVF   00,W
041C6:  IORWF  FF2,F
....................       delay_ms(10); 
041C8:  MOVLW  0A
041CA:  MOVLB  6
041CC:  MOVWF  x64
041CE:  MOVLB  0
041D0:  CALL   1F6E
....................       write_eeprom(38,0); 
041D4:  CLRF   FAA
041D6:  MOVLW  26
041D8:  MOVWF  FA9
041DA:  CLRF   FA8
041DC:  BCF    FA6.6
041DE:  BCF    FA6.7
041E0:  BSF    FA6.2
041E2:  MOVF   FF2,W
041E4:  MOVWF  00
041E6:  BCF    FF2.6
041E8:  BCF    FF2.7
041EA:  MOVLB  F
041EC:  MOVLW  55
041EE:  MOVWF  FA7
041F0:  MOVLW  AA
041F2:  MOVWF  FA7
041F4:  BSF    FA6.1
041F6:  BTFSC  FA6.1
041F8:  BRA    41F6
041FA:  BCF    FA6.2
041FC:  MOVF   00,W
041FE:  IORWF  FF2,F
....................       delay_ms(10); 
04200:  MOVLW  0A
04202:  MOVLB  6
04204:  MOVWF  x64
04206:  MOVLB  0
04208:  CALL   1F6E
0420C:  MOVLB  2
....................    } 
....................    if(sg1==10){ 
0420E:  MOVF   x4F,W
04210:  SUBLW  0A
04212:  BNZ   4228
....................       G1=G1*(-1); 
04214:  MOVFF  24D,64D
04218:  MOVLW  FF
0421A:  MOVLB  6
0421C:  MOVWF  x4E
0421E:  MOVLB  0
04220:  RCALL  3D3A
04222:  MOVFF  01,24D
04226:  MOVLB  2
....................    } 
....................    if(sg2==10){ 
04228:  MOVF   x50,W
0422A:  SUBLW  0A
0422C:  BNZ   4242
....................       G2=G2*(-1); 
0422E:  MOVFF  24E,64D
04232:  MOVLW  FF
04234:  MOVLB  6
04236:  MOVWF  x4E
04238:  MOVLB  0
0423A:  RCALL  3D3A
0423C:  MOVFF  01,24E
04240:  MOVLB  2
....................    } 
.................... } 
04242:  MOVLB  0
04244:  GOTO   80EC (RETURN)
....................  
.................... void LeeDisplay(void){ 
....................    if(Dato_Exitoso==5){ 
*
0502E:  MOVLB  1
05030:  MOVF   xEE,W
05032:  SUBLW  05
05034:  BTFSS  FD8.2
05036:  BRA    5218
....................          RX_Buffer[0]=RX_Buffer2[0]; 
05038:  MOVFF  3B,30
....................          RX_Buffer[1]=RX_Buffer2[1]; 
0503C:  MOVFF  3C,31
....................          RX_Buffer[2]=RX_Buffer2[2]; 
05040:  MOVFF  3D,32
....................          RX_Buffer[3]=RX_Buffer2[3]; 
05044:  MOVFF  3E,33
....................          RX_Buffer[4]=RX_Buffer2[4]; 
05048:  MOVFF  3F,34
....................          RX_Buffer[5]=RX_Buffer2[5]; 
0504C:  MOVFF  40,35
....................          RX_Buffer[6]=RX_Buffer2[6]; 
05050:  MOVFF  41,36
....................          RX_Buffer[7]=RX_Buffer2[7]; 
05054:  MOVFF  42,37
....................          RX_Buffer[8]=RX_Buffer2[8]; 
05058:  MOVFF  43,38
....................          RX_Buffer[9]=RX_Buffer2[9]; 
0505C:  MOVFF  44,39
....................           
....................       if(RX_Buffer[3]==0x01){// Pregunta por la pagina en la que esta el display,01 es Contrasea de Acceso 
05060:  DECFSZ 33,W
05062:  BRA    5072
....................          Menu=0; 
05064:  CLRF   xF0
....................          if(MenuAntt!=Menu) 
05066:  MOVF   xF0,W
05068:  SUBWF  xF2,W
0506A:  BZ    5070
....................             MenuAntt=Menu; 
0506C:  MOVFF  1F0,1F2
....................       }else if(RX_Buffer[3]==0x02){//02 es Ciclos Fijos 
05070:  BRA    5218
05072:  MOVF   33,W
05074:  SUBLW  02
05076:  BNZ   5088
....................          Menu=1; 
05078:  MOVLW  01
0507A:  MOVWF  xF0
....................          if(MenuAntt!=Menu) 
0507C:  MOVF   xF0,W
0507E:  SUBWF  xF2,W
05080:  BZ    5086
....................             MenuAntt=Menu; 
05082:  MOVFF  1F0,1F2
....................       }else if(RX_Buffer[3]==0x03){//03 es Tiempo Esterilizacion 
05086:  BRA    5218
05088:  MOVF   33,W
0508A:  SUBLW  03
0508C:  BNZ   509E
....................          Menu=2; 
0508E:  MOVLW  02
05090:  MOVWF  xF0
....................          if(MenuAntt!=Menu) 
05092:  MOVF   xF0,W
05094:  SUBWF  xF2,W
05096:  BZ    509C
....................             MenuAntt=Menu; 
05098:  MOVFF  1F0,1F2
....................       }else if(RX_Buffer[3]==0x04){//04 es Tiempo de Secado 
0509C:  BRA    5218
0509E:  MOVF   33,W
050A0:  SUBLW  04
050A2:  BNZ   50B4
....................          Menu=3; 
050A4:  MOVLW  03
050A6:  MOVWF  xF0
....................          if(MenuAntt!=Menu) 
050A8:  MOVF   xF0,W
050AA:  SUBWF  xF2,W
050AC:  BZ    50B2
....................             MenuAntt=Menu; 
050AE:  MOVFF  1F0,1F2
....................       }else if(RX_Buffer[3]==0x05){//05 es Temperatura 
050B2:  BRA    5218
050B4:  MOVF   33,W
050B6:  SUBLW  05
050B8:  BNZ   50CA
....................          Menu=4; 
050BA:  MOVLW  04
050BC:  MOVWF  xF0
....................          if(MenuAntt!=Menu) 
050BE:  MOVF   xF0,W
050C0:  SUBWF  xF2,W
050C2:  BZ    50C8
....................             MenuAntt=Menu; 
050C4:  MOVFF  1F0,1F2
....................       }else if(RX_Buffer[3]==0x06){//06 es Nivel de Vacio 
050C8:  BRA    5218
050CA:  MOVF   33,W
050CC:  SUBLW  06
050CE:  BNZ   50E0
....................          Menu=5; 
050D0:  MOVLW  05
050D2:  MOVWF  xF0
....................          if(MenuAntt!=Menu) 
050D4:  MOVF   xF0,W
050D6:  SUBWF  xF2,W
050D8:  BZ    50DE
....................             MenuAntt=Menu; 
050DA:  MOVFF  1F0,1F2
....................       }else if(RX_Buffer[3]==0x07){//07 es Test de Componentes 
050DE:  BRA    5218
050E0:  MOVF   33,W
050E2:  SUBLW  07
050E4:  BNZ   50F6
....................          Menu=6; 
050E6:  MOVLW  06
050E8:  MOVWF  xF0
....................          if(MenuAntt!=Menu) 
050EA:  MOVF   xF0,W
050EC:  SUBWF  xF2,W
050EE:  BZ    50F4
....................             MenuAntt=Menu; 
050F0:  MOVFF  1F0,1F2
....................       }else if(RX_Buffer[3]==0x08){//08 es Fecha y hora 
050F4:  BRA    5218
050F6:  MOVF   33,W
050F8:  SUBLW  08
050FA:  BNZ   510C
....................          Menu=7; 
050FC:  MOVLW  07
050FE:  MOVWF  xF0
....................          if(MenuAntt!=Menu) 
05100:  MOVF   xF0,W
05102:  SUBWF  xF2,W
05104:  BZ    510A
....................             MenuAntt=Menu; 
05106:  MOVFF  1F0,1F2
....................       }else if(RX_Buffer[3]==0x09){//09 es Ciclos Personalizados 
0510A:  BRA    5218
0510C:  MOVF   33,W
0510E:  SUBLW  09
05110:  BNZ   5122
....................          Menu=8; 
05112:  MOVLW  08
05114:  MOVWF  xF0
....................          if(MenuAntt!=Menu) 
05116:  MOVF   xF0,W
05118:  SUBWF  xF2,W
0511A:  BZ    5120
....................             MenuAntt=Menu; 
0511C:  MOVFF  1F0,1F2
....................       }else if(RX_Buffer[3]==0x0a){//0a es Pulsos de Vacio 
05120:  BRA    5218
05122:  MOVF   33,W
05124:  SUBLW  0A
05126:  BNZ   5138
....................          Menu=9; 
05128:  MOVLW  09
0512A:  MOVWF  xF0
....................          if(MenuAntt!=Menu) 
0512C:  MOVF   xF0,W
0512E:  SUBWF  xF2,W
05130:  BZ    5136
....................             MenuAntt=Menu; 
05132:  MOVFF  1F0,1F2
....................       }else if(RX_Buffer[3]==0x0b){//0b es Usuarios 
05136:  BRA    5218
05138:  MOVF   33,W
0513A:  SUBLW  0B
0513C:  BNZ   514E
....................          Menu=10; 
0513E:  MOVLW  0A
05140:  MOVWF  xF0
....................          if(MenuAntt!=Menu) 
05142:  MOVF   xF0,W
05144:  SUBWF  xF2,W
05146:  BZ    514C
....................             MenuAntt=Menu; 
05148:  MOVFF  1F0,1F2
....................       }else if(RX_Buffer[3]==0x0c){//0c es Configuraciones 
0514C:  BRA    5218
0514E:  MOVF   33,W
05150:  SUBLW  0C
05152:  BNZ   5164
....................          Menu=11; 
05154:  MOVLW  0B
05156:  MOVWF  xF0
....................          if(MenuAntt!=Menu) 
05158:  MOVF   xF0,W
0515A:  SUBWF  xF2,W
0515C:  BZ    5162
....................             MenuAntt=Menu; 
0515E:  MOVFF  1F0,1F2
....................       }else if(RX_Buffer[3]==0x0d){//0d es Ciclos 
05162:  BRA    5218
05164:  MOVF   33,W
05166:  SUBLW  0D
05168:  BNZ   517A
....................          Menu=12; 
0516A:  MOVLW  0C
0516C:  MOVWF  xF0
....................          if(MenuAntt!=Menu) 
0516E:  MOVF   xF0,W
05170:  SUBWF  xF2,W
05172:  BZ    5178
....................             MenuAntt=Menu; 
05174:  MOVFF  1F0,1F2
....................       }else if(RX_Buffer[3]==0x0e){//0d es Activacion de Ciclos 
05178:  BRA    5218
0517A:  MOVF   33,W
0517C:  SUBLW  0E
0517E:  BNZ   5190
....................          Menu=14; 
05180:  MOVLW  0E
05182:  MOVWF  xF0
....................          if(MenuAntt!=Menu) 
05184:  MOVF   xF0,W
05186:  SUBWF  xF2,W
05188:  BZ    518E
....................             MenuAntt=Menu; 
0518A:  MOVFF  1F0,1F2
....................       }else if(RX_Buffer[3]==0x10){//10 es Nivel de Desfogue 
0518E:  BRA    5218
05190:  MOVF   33,W
05192:  SUBLW  10
05194:  BNZ   51A6
....................          Menu=13; 
05196:  MOVLW  0D
05198:  MOVWF  xF0
....................          if(MenuAntt!=Menu) 
0519A:  MOVF   xF0,W
0519C:  SUBWF  xF2,W
0519E:  BZ    51A4
....................             MenuAntt=Menu; 
051A0:  MOVFF  1F0,1F2
....................       }else if(RX_Buffer[3]==0x0f){//0f es Recibe caracteres de contrasea desde display 
051A4:  BRA    5218
051A6:  MOVF   33,W
051A8:  SUBLW  0F
051AA:  BNZ   51AE
....................           
....................       }else if(RX_Buffer[3]==0x1a){//1a es Menu de Funcionamiento 
051AC:  BRA    5218
051AE:  MOVF   33,W
051B0:  SUBLW  1A
051B2:  BNZ   51C4
....................          Menu=20; 
051B4:  MOVLW  14
051B6:  MOVWF  xF0
....................          if(MenuAntt!=Menu) 
051B8:  MOVF   xF0,W
051BA:  SUBWF  xF2,W
051BC:  BZ    51C2
....................             MenuAntt=Menu; 
051BE:  MOVFF  1F0,1F2
....................       }else if(RX_Buffer[3]==0x1b){//1b es Menu de clave correcta 
051C2:  BRA    5218
051C4:  MOVF   33,W
051C6:  SUBLW  1B
051C8:  BNZ   51DA
....................          Menu=15; 
051CA:  MOVLW  0F
051CC:  MOVWF  xF0
....................          if(MenuAntt!=Menu) 
051CE:  MOVF   xF0,W
051D0:  SUBWF  xF2,W
051D2:  BZ    51D8
....................             MenuAntt=Menu; 
051D4:  MOVFF  1F0,1F2
....................       }else if(RX_Buffer[3]==0x1c){//1c es Menu de clave incorrecta 
051D8:  BRA    5218
051DA:  MOVF   33,W
051DC:  SUBLW  1C
051DE:  BNZ   51F0
....................          Menu=16; 
051E0:  MOVLW  10
051E2:  MOVWF  xF0
....................          if(MenuAntt!=Menu) 
051E4:  MOVF   xF0,W
051E6:  SUBWF  xF2,W
051E8:  BZ    51EE
....................             MenuAntt=Menu; 
051EA:  MOVFF  1F0,1F2
....................       }else if(RX_Buffer[3]==0x2c){//2c es Menu de Configuracion de Parametros 
051EE:  BRA    5218
051F0:  MOVF   33,W
051F2:  SUBLW  2C
051F4:  BNZ   5206
....................          Menu=100; 
051F6:  MOVLW  64
051F8:  MOVWF  xF0
....................          if(MenuAntt!=Menu) 
051FA:  MOVF   xF0,W
051FC:  SUBWF  xF2,W
051FE:  BZ    5204
....................             MenuAntt=Menu; 
05200:  MOVFF  1F0,1F2
....................       }else if(RX_Buffer[3]==0xcc){//cc es Menu de Bienvenida 
05204:  BRA    5218
05206:  MOVF   33,W
05208:  SUBLW  CC
0520A:  BNZ   5218
....................          Menu=240; 
0520C:  MOVLW  F0
0520E:  MOVWF  xF0
....................          if(MenuAntt!=240) 
05210:  MOVF   xF2,W
05212:  SUBLW  F0
05214:  BZ    5218
....................             reset_cpu(); 
05216:  RESET
....................       } 
....................    } 
.................... } 
05218:  MOVLB  0
0521A:  GOTO   8236 (RETURN)
....................  
.................... void ActivaAlarma(int8 Tipo){ 
....................     
....................    if(tsilencio>12000){ 
*
059C8:  MOVLB  2
059CA:  MOVF   x2D,W
059CC:  SUBLW  2D
059CE:  BC    59E2
059D0:  XORLW  FF
059D2:  BNZ   59DA
059D4:  MOVF   x2C,W
059D6:  SUBLW  E0
059D8:  BC    59E2
....................       tsilencio=0; 
059DA:  CLRF   x2D
059DC:  CLRF   x2C
....................       flagSilencio=OFF; 
059DE:  MOVLB  0
059E0:  BCF    xA8.2
....................    } 
....................     
....................    if(Tipo==1){ // Alarma por Error 
059E2:  MOVLB  6
059E4:  DECFSZ x4B,W
059E6:  BRA    5A3E
....................    if(UP || DOWN || RIGHT || LEFT) 
059E8:  BSF    F93.6
059EA:  BTFSS  F81.6
059EC:  BRA    5A00
059EE:  BSF    F93.5
059F0:  BTFSS  F81.5
059F2:  BRA    5A00
059F4:  BSF    F93.4
059F6:  BTFSS  F81.4
059F8:  BRA    5A00
059FA:  BSF    F93.3
059FC:  BTFSC  F81.3
059FE:  BRA    5A04
....................       flagSilencio=ON; 
05A00:  MOVLB  0
05A02:  BSF    xA8.2
....................        
....................       if(!flagSilencio){ 
05A04:  MOVLB  0
05A06:  BTFSC  xA8.2
05A08:  BRA    5A34
....................          flagAlarma=1; 
05A0A:  BSF    xA8.0
....................          if(tbuzzer>200){ 
05A0C:  MOVLB  2
05A0E:  MOVF   x2B,F
05A10:  BNZ   5A18
05A12:  MOVF   x2A,W
05A14:  SUBLW  C8
05A16:  BC    5A30
....................             tbuzzer=0; 
05A18:  CLRF   x2B
05A1A:  CLRF   x2A
....................             flagBuzzer=!flagBuzzer; 
05A1C:  MOVLB  0
05A1E:  BTG    xA8.1
....................             if(flagBuzzer) 
05A20:  BTFSS  xA8.1
05A22:  BRA    5A2A
....................                Buzzer_on; 
05A24:  BSF    F8B.5
05A26:  BCF    F94.5
....................             else 
05A28:  BRA    5A2E
....................                Buzzer_off; 
05A2A:  BCF    F8B.5
05A2C:  BCF    F94.5
05A2E:  MOVLB  2
....................          } 
....................       }else{ 
05A30:  BRA    5A3A
05A32:  MOVLB  0
....................          Buzzer_off; 
05A34:  BCF    F8B.5
05A36:  BCF    F94.5
05A38:  MOVLB  2
....................       } 
....................    }else if(Tipo==2){  
05A3A:  BRA    5A7A
05A3C:  MOVLB  6
05A3E:  MOVF   x4B,W
05A40:  SUBLW  02
05A42:  BNZ   5A7C
....................       flagAlarma=1; 
05A44:  MOVLB  0
05A46:  BSF    xA8.0
....................       if(ConteoBuzzer<20){    
05A48:  MOVLB  2
05A4A:  MOVF   x26,W
05A4C:  SUBLW  13
05A4E:  BNC   5A76
....................          if(tbuzzer>100){ 
05A50:  MOVF   x2B,F
05A52:  BNZ   5A5A
05A54:  MOVF   x2A,W
05A56:  SUBLW  64
05A58:  BC    5A74
....................             tbuzzer=0; 
05A5A:  CLRF   x2B
05A5C:  CLRF   x2A
....................             flagBuzzer=!flagBuzzer; 
05A5E:  MOVLB  0
05A60:  BTG    xA8.1
....................             if(flagBuzzer) 
05A62:  BTFSS  xA8.1
05A64:  BRA    5A6C
....................                Buzzer_on; 
05A66:  BSF    F8B.5
05A68:  BCF    F94.5
....................             else 
05A6A:  BRA    5A70
....................                Buzzer_off; 
05A6C:  BCF    F8B.5
05A6E:  BCF    F94.5
....................                 
....................             ConteoBuzzer++;    
05A70:  MOVLB  2
05A72:  INCF   x26,F
....................          } 
....................       }else{ 
05A74:  BRA    5A7A
....................          Buzzer_off; 
05A76:  BCF    F8B.5
05A78:  BCF    F94.5
05A7A:  MOVLB  6
....................       } 
....................    } 
.................... } 
05A7C:  MOVLB  0
05A7E:  RETLW  00
....................  
.................... void ApagaSalidas(){ 
....................    Desfogue_off; 
*
042B0:  BCF    F8C.3
042B2:  BCF    F95.3
....................    Paso_off; 
042B4:  BCF    F8C.1
042B6:  BCF    F95.1
....................    Vacio_off; 
042B8:  BCF    F8C.2
042BA:  BCF    F95.2
....................    Aire_off; 
042BC:  BCF    F8C.4
042BE:  BCF    F95.4
....................    Suministro_off; 
042C0:  BCF    F8C.0
042C2:  BCF    F95.0
....................    BombaVacio_off; 
042C4:  BCF    F8C.5
042C6:  BCF    F95.5
....................    Buzzer_off; 
042C8:  BCF    F8B.5
042CA:  BCF    F94.5
....................    Agua_off; 
042CC:  BCF    F8C.6
042CE:  BCF    F95.6
....................    Controlando=0; 
042D0:  MOVLB  1
042D2:  CLRF   xEA
.................... } 
042D4:  MOVLB  0
042D6:  RETLW  00
....................  
.................... void ControlaPresion(){ 
....................    if(PresionPrecamara>=130){ 
*
07828:  MOVLB  2
0782A:  MOVF   x14,F
0782C:  BNZ   7834
0782E:  MOVF   x13,W
07830:  SUBLW  81
07832:  BC    783E
....................       Suministro_off; 
07834:  BCF    F8C.0
07836:  BCF    F95.0
....................       Precalentamiento=ON; 
07838:  MOVLB  0
0783A:  BSF    xA9.2
0783C:  MOVLB  2
....................    } 
....................    if(PresionPrecamara<120) 
0783E:  MOVF   x14,F
07840:  BNZ   784C
07842:  MOVF   x13,W
07844:  SUBLW  77
07846:  BNC   784C
....................       Suministro_on; 
07848:  BSF    F8C.0
0784A:  BCF    F95.0
.................... } 
0784C:  MOVLB  0
0784E:  RETLW  00
....................  
.................... void GuardaDatoEstatico(){ 
*
07074:  MOVLB  6
07076:  CLRF   x4C
07078:  CLRF   x4B
0707A:  CLRF   x4E
0707C:  CLRF   x4D
....................    int16 posCiclo=0,cicloMemoria=0; 
....................    posCiclo=Ciclos/200; 
0707E:  MOVFF  216,665
07082:  MOVFF  215,664
07086:  CLRF   x67
07088:  MOVLW  C8
0708A:  MOVWF  x66
0708C:  MOVLB  0
0708E:  CALL   5BAE
07092:  MOVFF  02,64C
07096:  MOVFF  01,64B
....................    cicloMemoria=Ciclos-(posCiclo*200); 
0709A:  MOVFF  64C,667
0709E:  MOVFF  64B,666
070A2:  MOVLB  6
070A4:  CLRF   x69
070A6:  MOVLW  C8
070A8:  MOVWF  x68
070AA:  MOVLB  0
070AC:  CALL   23E0
070B0:  MOVF   01,W
070B2:  MOVLB  2
070B4:  SUBWF  x15,W
070B6:  MOVLB  6
070B8:  MOVWF  x4D
070BA:  MOVF   02,W
070BC:  MOVLB  2
070BE:  SUBWFB x16,W
070C0:  MOVLB  6
070C2:  MOVWF  x4E
....................    if(!disp_Guarda){ 
070C4:  MOVLB  0
070C6:  BTFSC  xA6.5
070C8:  BRA    726A
....................       write_ext_eeprom(cicloMemoria*320,codigoUsuario); 
070CA:  MOVFF  64E,667
070CE:  MOVFF  64D,666
070D2:  MOVLW  01
070D4:  MOVLB  6
070D6:  MOVWF  x69
070D8:  MOVLW  40
070DA:  MOVWF  x68
070DC:  MOVLB  0
070DE:  CALL   23E0
070E2:  MOVFF  02,650
070E6:  MOVFF  01,64F
070EA:  MOVFF  02,667
070EE:  MOVFF  01,666
070F2:  MOVFF  24B,668
070F6:  CALL   5BF4
....................       delay_ms(10); 
070FA:  MOVLW  0A
070FC:  MOVLB  6
070FE:  MOVWF  x64
07100:  MOVLB  0
07102:  CALL   1F6E
....................       if(!Libre) 
07106:  BTFSC  xA8.7
07108:  BRA    7146
....................          write_ext_eeprom(1+(cicloMemoria*320),CicloSeleccionado); 
0710A:  MOVFF  64E,667
0710E:  MOVFF  64D,666
07112:  MOVLW  01
07114:  MOVLB  6
07116:  MOVWF  x69
07118:  MOVLW  40
0711A:  MOVWF  x68
0711C:  MOVLB  0
0711E:  CALL   23E0
07122:  MOVFF  02,03
07126:  MOVF   01,W
07128:  ADDLW  01
0712A:  MOVLB  6
0712C:  MOVWF  x4F
0712E:  MOVLW  00
07130:  ADDWFC 02,W
07132:  MOVWF  x50
07134:  MOVWF  x67
07136:  MOVFF  64F,666
0713A:  MOVFF  1F5,668
0713E:  MOVLB  0
07140:  CALL   5BF4
....................       else 
07144:  BRA    718A
....................          write_ext_eeprom(1+(cicloMemoria*320),CicloLibre+10); 
07146:  MOVFF  64E,667
0714A:  MOVFF  64D,666
0714E:  MOVLW  01
07150:  MOVLB  6
07152:  MOVWF  x69
07154:  MOVLW  40
07156:  MOVWF  x68
07158:  MOVLB  0
0715A:  CALL   23E0
0715E:  MOVFF  02,03
07162:  MOVF   01,W
07164:  ADDLW  01
07166:  MOVLB  6
07168:  MOVWF  x4F
0716A:  MOVLW  00
0716C:  ADDWFC 02,W
0716E:  MOVWF  x50
07170:  MOVLW  0A
07172:  MOVLB  2
07174:  ADDWF  x48,W
07176:  MOVLB  6
07178:  MOVWF  x51
0717A:  MOVFF  650,667
0717E:  MOVFF  64F,666
07182:  MOVWF  x68
07184:  MOVLB  0
07186:  CALL   5BF4
....................       delay_ms(10); 
0718A:  MOVLW  0A
0718C:  MOVLB  6
0718E:  MOVWF  x64
07190:  MOVLB  0
07192:  CALL   1F6E
....................       write_ext_eeprom(2+(cicloMemoria*320),Dia); 
07196:  MOVFF  64E,667
0719A:  MOVFF  64D,666
0719E:  MOVLW  01
071A0:  MOVLB  6
071A2:  MOVWF  x69
071A4:  MOVLW  40
071A6:  MOVWF  x68
071A8:  MOVLB  0
071AA:  CALL   23E0
071AE:  MOVFF  02,03
071B2:  MOVF   01,W
071B4:  ADDLW  02
071B6:  MOVLB  6
071B8:  MOVWF  x4F
071BA:  MOVLW  00
071BC:  ADDWFC 02,W
071BE:  MOVWF  x50
071C0:  MOVWF  x67
071C2:  MOVFF  64F,666
071C6:  MOVFF  236,668
071CA:  MOVLB  0
071CC:  CALL   5BF4
....................       delay_ms(10); 
071D0:  MOVLW  0A
071D2:  MOVLB  6
071D4:  MOVWF  x64
071D6:  MOVLB  0
071D8:  CALL   1F6E
....................       write_ext_eeprom(3+(cicloMemoria*320),Mes); 
071DC:  MOVFF  64E,667
071E0:  MOVFF  64D,666
071E4:  MOVLW  01
071E6:  MOVLB  6
071E8:  MOVWF  x69
071EA:  MOVLW  40
071EC:  MOVWF  x68
071EE:  MOVLB  0
071F0:  CALL   23E0
071F4:  MOVFF  02,03
071F8:  MOVF   01,W
071FA:  ADDLW  03
071FC:  MOVLB  6
071FE:  MOVWF  x4F
07200:  MOVLW  00
07202:  ADDWFC 02,W
07204:  MOVWF  x50
07206:  MOVWF  x67
07208:  MOVFF  64F,666
0720C:  MOVFF  235,668
07210:  MOVLB  0
07212:  CALL   5BF4
....................       delay_ms(10); 
07216:  MOVLW  0A
07218:  MOVLB  6
0721A:  MOVWF  x64
0721C:  MOVLB  0
0721E:  CALL   1F6E
....................       write_ext_eeprom(4+(cicloMemoria*320),Year); 
07222:  MOVFF  64E,667
07226:  MOVFF  64D,666
0722A:  MOVLW  01
0722C:  MOVLB  6
0722E:  MOVWF  x69
07230:  MOVLW  40
07232:  MOVWF  x68
07234:  MOVLB  0
07236:  CALL   23E0
0723A:  MOVFF  02,03
0723E:  MOVF   01,W
07240:  ADDLW  04
07242:  MOVLB  6
07244:  MOVWF  x4F
07246:  MOVLW  00
07248:  ADDWFC 02,W
0724A:  MOVWF  x50
0724C:  MOVWF  x67
0724E:  MOVFF  64F,666
07252:  MOVFF  234,668
07256:  MOVLB  0
07258:  CALL   5BF4
....................       delay_ms(10);  
0725C:  MOVLW  0A
0725E:  MOVLB  6
07260:  MOVWF  x64
07262:  MOVLB  0
07264:  CALL   1F6E
....................       disp_Guarda=1; 
07268:  BSF    xA6.5
....................    }    
.................... } 
0726A:  GOTO   D6D0 (RETURN)
....................  
.................... void GuardaDatoCiclo(){ 
*
07338:  MOVLB  6
0733A:  CLRF   x4C
0733C:  CLRF   x4B
0733E:  CLRF   x4E
07340:  CLRF   x4D
....................    int16 posCiclo=0,cicloMemoria=0; 
....................    posCiclo=Ciclos/200; 
07342:  MOVFF  216,665
07346:  MOVFF  215,664
0734A:  CLRF   x67
0734C:  MOVLW  C8
0734E:  MOVWF  x66
07350:  MOVLB  0
07352:  CALL   5BAE
07356:  MOVFF  02,64C
0735A:  MOVFF  01,64B
....................    if(!Ciclo){ 
0735E:  BTFSC  xA6.6
07360:  BRA    7794
....................       cicloMemoria=Ciclos-(posCiclo*200); 
07362:  MOVFF  64C,667
07366:  MOVFF  64B,666
0736A:  MOVLB  6
0736C:  CLRF   x69
0736E:  MOVLW  C8
07370:  MOVWF  x68
07372:  MOVLB  0
07374:  CALL   23E0
07378:  MOVF   01,W
0737A:  MOVLB  2
0737C:  SUBWF  x15,W
0737E:  MOVLB  6
07380:  MOVWF  x4D
07382:  MOVF   02,W
07384:  MOVLB  2
07386:  SUBWFB x16,W
07388:  MOVLB  6
0738A:  MOVWF  x4E
....................       write_ext_eeprom(5+(cicloMemoria*320)+(posicionDato*9),(int8)Temperatura); 
0738C:  MOVFF  64E,667
07390:  MOVFF  64D,666
07394:  MOVLW  01
07396:  MOVWF  x69
07398:  MOVLW  40
0739A:  MOVWF  x68
0739C:  MOVLB  0
0739E:  CALL   23E0
073A2:  MOVFF  02,03
073A6:  MOVF   01,W
073A8:  ADDLW  05
073AA:  MOVLB  6
073AC:  MOVWF  x4F
073AE:  MOVLW  00
073B0:  ADDWFC 02,W
073B2:  MOVWF  x50
073B4:  MOVFF  22F,667
073B8:  MOVFF  22E,666
073BC:  CLRF   x69
073BE:  MOVLW  09
073C0:  MOVWF  x68
073C2:  MOVLB  0
073C4:  CALL   23E0
073C8:  MOVFF  02,03
073CC:  MOVF   01,W
073CE:  MOVLB  6
073D0:  ADDWF  x4F,F
073D2:  MOVF   02,W
073D4:  ADDWFC x50,F
073D6:  MOVFF  1D6,660
073DA:  MOVFF  1D5,65F
073DE:  MOVFF  1D4,65E
073E2:  MOVFF  1D3,65D
073E6:  MOVLB  0
073E8:  CALL   521E
073EC:  MOVFF  01,651
073F0:  MOVFF  650,667
073F4:  MOVFF  64F,666
073F8:  MOVFF  01,668
073FC:  CALL   5BF4
....................       delay_ms(10); 
07400:  MOVLW  0A
07402:  MOVLB  6
07404:  MOVWF  x64
07406:  MOVLB  0
07408:  CALL   1F6E
....................       write_ext_eeprom(6+(cicloMemoria*320)+(posicionDato*9),extraeDecimal(Temperatura)); 
0740C:  MOVFF  64E,667
07410:  MOVFF  64D,666
07414:  MOVLW  01
07416:  MOVLB  6
07418:  MOVWF  x69
0741A:  MOVLW  40
0741C:  MOVWF  x68
0741E:  MOVLB  0
07420:  CALL   23E0
07424:  MOVFF  02,03
07428:  MOVF   01,W
0742A:  ADDLW  06
0742C:  MOVLB  6
0742E:  MOVWF  x4F
07430:  MOVLW  00
07432:  ADDWFC 02,W
07434:  MOVWF  x50
07436:  MOVFF  22F,667
0743A:  MOVFF  22E,666
0743E:  CLRF   x69
07440:  MOVLW  09
07442:  MOVWF  x68
07444:  MOVLB  0
07446:  CALL   23E0
0744A:  MOVFF  02,03
0744E:  MOVF   01,W
07450:  MOVLB  6
07452:  ADDWF  x4F,F
07454:  MOVF   02,W
07456:  ADDWFC x50,F
07458:  MOVFF  1D6,654
0745C:  MOVFF  1D5,653
07460:  MOVFF  1D4,652
07464:  MOVFF  1D3,651
07468:  MOVLB  0
0746A:  BRA    726E
0746C:  MOVFF  01,651
07470:  MOVFF  650,667
07474:  MOVFF  64F,666
07478:  MOVFF  01,668
0747C:  CALL   5BF4
....................       delay_ms(10); 
07480:  MOVLW  0A
07482:  MOVLB  6
07484:  MOVWF  x64
07486:  MOVLB  0
07488:  CALL   1F6E
....................       write_ext_eeprom(7+(cicloMemoria*320)+(posicionDato*9),make8(PresionCamara,1)); 
0748C:  MOVFF  64E,667
07490:  MOVFF  64D,666
07494:  MOVLW  01
07496:  MOVLB  6
07498:  MOVWF  x69
0749A:  MOVLW  40
0749C:  MOVWF  x68
0749E:  MOVLB  0
074A0:  CALL   23E0
074A4:  MOVFF  02,03
074A8:  MOVF   01,W
074AA:  ADDLW  07
074AC:  MOVLB  6
074AE:  MOVWF  x4F
074B0:  MOVLW  00
074B2:  ADDWFC 02,W
074B4:  MOVWF  x50
074B6:  MOVFF  22F,667
074BA:  MOVFF  22E,666
074BE:  CLRF   x69
074C0:  MOVLW  09
074C2:  MOVWF  x68
074C4:  MOVLB  0
074C6:  CALL   23E0
074CA:  MOVFF  02,03
074CE:  MOVF   01,W
074D0:  MOVLB  6
074D2:  ADDWF  x4F,F
074D4:  MOVF   02,W
074D6:  ADDWFC x50,F
074D8:  MOVFF  212,651
074DC:  MOVFF  650,667
074E0:  MOVFF  64F,666
074E4:  MOVFF  212,668
074E8:  MOVLB  0
074EA:  CALL   5BF4
....................       delay_ms(10); 
074EE:  MOVLW  0A
074F0:  MOVLB  6
074F2:  MOVWF  x64
074F4:  MOVLB  0
074F6:  CALL   1F6E
....................       write_ext_eeprom(8+(cicloMemoria*320)+(posicionDato*9),make8(PresionCamara,0)); 
074FA:  MOVFF  64E,667
074FE:  MOVFF  64D,666
07502:  MOVLW  01
07504:  MOVLB  6
07506:  MOVWF  x69
07508:  MOVLW  40
0750A:  MOVWF  x68
0750C:  MOVLB  0
0750E:  CALL   23E0
07512:  MOVFF  02,03
07516:  MOVF   01,W
07518:  ADDLW  08
0751A:  MOVLB  6
0751C:  MOVWF  x4F
0751E:  MOVLW  00
07520:  ADDWFC 02,W
07522:  MOVWF  x50
07524:  MOVFF  22F,667
07528:  MOVFF  22E,666
0752C:  CLRF   x69
0752E:  MOVLW  09
07530:  MOVWF  x68
07532:  MOVLB  0
07534:  CALL   23E0
07538:  MOVFF  02,03
0753C:  MOVF   01,W
0753E:  MOVLB  6
07540:  ADDWF  x4F,F
07542:  MOVF   02,W
07544:  ADDWFC x50,F
07546:  MOVFF  211,651
0754A:  MOVFF  650,667
0754E:  MOVFF  64F,666
07552:  MOVFF  211,668
07556:  MOVLB  0
07558:  CALL   5BF4
....................       delay_ms(10); 
0755C:  MOVLW  0A
0755E:  MOVLB  6
07560:  MOVWF  x64
07562:  MOVLB  0
07564:  CALL   1F6E
....................       write_ext_eeprom(9+(cicloMemoria*320)+(posicionDato*9),make8(PresionPreCamara,1)); 
07568:  MOVFF  64E,667
0756C:  MOVFF  64D,666
07570:  MOVLW  01
07572:  MOVLB  6
07574:  MOVWF  x69
07576:  MOVLW  40
07578:  MOVWF  x68
0757A:  MOVLB  0
0757C:  CALL   23E0
07580:  MOVFF  02,03
07584:  MOVF   01,W
07586:  ADDLW  09
07588:  MOVLB  6
0758A:  MOVWF  x4F
0758C:  MOVLW  00
0758E:  ADDWFC 02,W
07590:  MOVWF  x50
07592:  MOVFF  22F,667
07596:  MOVFF  22E,666
0759A:  CLRF   x69
0759C:  MOVLW  09
0759E:  MOVWF  x68
075A0:  MOVLB  0
075A2:  CALL   23E0
075A6:  MOVFF  02,03
075AA:  MOVF   01,W
075AC:  MOVLB  6
075AE:  ADDWF  x4F,F
075B0:  MOVF   02,W
075B2:  ADDWFC x50,F
075B4:  MOVFF  214,651
075B8:  MOVFF  650,667
075BC:  MOVFF  64F,666
075C0:  MOVFF  214,668
075C4:  MOVLB  0
075C6:  CALL   5BF4
....................       delay_ms(10); 
075CA:  MOVLW  0A
075CC:  MOVLB  6
075CE:  MOVWF  x64
075D0:  MOVLB  0
075D2:  CALL   1F6E
....................       write_ext_eeprom(10+(cicloMemoria*320)+(posicionDato*9),make8(PresionPreCamara,0)); 
075D6:  MOVFF  64E,667
075DA:  MOVFF  64D,666
075DE:  MOVLW  01
075E0:  MOVLB  6
075E2:  MOVWF  x69
075E4:  MOVLW  40
075E6:  MOVWF  x68
075E8:  MOVLB  0
075EA:  CALL   23E0
075EE:  MOVFF  02,03
075F2:  MOVF   01,W
075F4:  ADDLW  0A
075F6:  MOVLB  6
075F8:  MOVWF  x4F
075FA:  MOVLW  00
075FC:  ADDWFC 02,W
075FE:  MOVWF  x50
07600:  MOVFF  22F,667
07604:  MOVFF  22E,666
07608:  CLRF   x69
0760A:  MOVLW  09
0760C:  MOVWF  x68
0760E:  MOVLB  0
07610:  CALL   23E0
07614:  MOVFF  02,03
07618:  MOVF   01,W
0761A:  MOVLB  6
0761C:  ADDWF  x4F,F
0761E:  MOVF   02,W
07620:  ADDWFC x50,F
07622:  MOVFF  213,651
07626:  MOVFF  650,667
0762A:  MOVFF  64F,666
0762E:  MOVFF  213,668
07632:  MOVLB  0
07634:  CALL   5BF4
....................       delay_ms(10); 
07638:  MOVLW  0A
0763A:  MOVLB  6
0763C:  MOVWF  x64
0763E:  MOVLB  0
07640:  CALL   1F6E
....................       write_ext_eeprom(11+(cicloMemoria*320)+(posicionDato*9),Hora); 
07644:  MOVFF  64E,667
07648:  MOVFF  64D,666
0764C:  MOVLW  01
0764E:  MOVLB  6
07650:  MOVWF  x69
07652:  MOVLW  40
07654:  MOVWF  x68
07656:  MOVLB  0
07658:  CALL   23E0
0765C:  MOVFF  02,03
07660:  MOVF   01,W
07662:  ADDLW  0B
07664:  MOVLB  6
07666:  MOVWF  x4F
07668:  MOVLW  00
0766A:  ADDWFC 02,W
0766C:  MOVWF  x50
0766E:  MOVFF  22F,667
07672:  MOVFF  22E,666
07676:  CLRF   x69
07678:  MOVLW  09
0767A:  MOVWF  x68
0767C:  MOVLB  0
0767E:  CALL   23E0
07682:  MOVFF  02,03
07686:  MOVF   01,W
07688:  MOVLB  6
0768A:  ADDWF  x4F,F
0768C:  MOVF   02,W
0768E:  ADDWFC x50,F
07690:  MOVFF  650,667
07694:  MOVFF  64F,666
07698:  MOVFF  237,668
0769C:  MOVLB  0
0769E:  CALL   5BF4
....................       delay_ms(10); 
076A2:  MOVLW  0A
076A4:  MOVLB  6
076A6:  MOVWF  x64
076A8:  MOVLB  0
076AA:  CALL   1F6E
....................       write_ext_eeprom(12+(cicloMemoria*320)+(posicionDato*9),Minuto); 
076AE:  MOVFF  64E,667
076B2:  MOVFF  64D,666
076B6:  MOVLW  01
076B8:  MOVLB  6
076BA:  MOVWF  x69
076BC:  MOVLW  40
076BE:  MOVWF  x68
076C0:  MOVLB  0
076C2:  CALL   23E0
076C6:  MOVFF  02,03
076CA:  MOVF   01,W
076CC:  ADDLW  0C
076CE:  MOVLB  6
076D0:  MOVWF  x4F
076D2:  MOVLW  00
076D4:  ADDWFC 02,W
076D6:  MOVWF  x50
076D8:  MOVFF  22F,667
076DC:  MOVFF  22E,666
076E0:  CLRF   x69
076E2:  MOVLW  09
076E4:  MOVWF  x68
076E6:  MOVLB  0
076E8:  CALL   23E0
076EC:  MOVFF  02,03
076F0:  MOVF   01,W
076F2:  MOVLB  6
076F4:  ADDWF  x4F,F
076F6:  MOVF   02,W
076F8:  ADDWFC x50,F
076FA:  MOVFF  650,667
076FE:  MOVFF  64F,666
07702:  MOVFF  238,668
07706:  MOVLB  0
07708:  CALL   5BF4
....................       delay_ms(10); 
0770C:  MOVLW  0A
0770E:  MOVLB  6
07710:  MOVWF  x64
07712:  MOVLB  0
07714:  CALL   1F6E
....................       write_ext_eeprom(13+(cicloMemoria*320)+(posicionDato*9),codigoAlarma); 
07718:  MOVFF  64E,667
0771C:  MOVFF  64D,666
07720:  MOVLW  01
07722:  MOVLB  6
07724:  MOVWF  x69
07726:  MOVLW  40
07728:  MOVWF  x68
0772A:  MOVLB  0
0772C:  CALL   23E0
07730:  MOVFF  02,03
07734:  MOVF   01,W
07736:  ADDLW  0D
07738:  MOVLB  6
0773A:  MOVWF  x4F
0773C:  MOVLW  00
0773E:  ADDWFC 02,W
07740:  MOVWF  x50
07742:  MOVFF  22F,667
07746:  MOVFF  22E,666
0774A:  CLRF   x69
0774C:  MOVLW  09
0774E:  MOVWF  x68
07750:  MOVLB  0
07752:  CALL   23E0
07756:  MOVFF  02,03
0775A:  MOVF   01,W
0775C:  MOVLB  6
0775E:  ADDWF  x4F,F
07760:  MOVF   02,W
07762:  ADDWFC x50,F
07764:  MOVFF  650,667
07768:  MOVFF  64F,666
0776C:  MOVFF  227,668
07770:  MOVLB  0
07772:  CALL   5BF4
....................       delay_ms(10); 
07776:  MOVLW  0A
07778:  MOVLB  6
0777A:  MOVWF  x64
0777C:  MOVLB  0
0777E:  CALL   1F6E
....................     
....................       if(posicionDato<35) 
07782:  MOVLB  2
07784:  MOVF   x2F,F
07786:  BNZ   7794
07788:  MOVF   x2E,W
0778A:  SUBLW  22
0778C:  BNC   7794
....................          ++posicionDato; 
0778E:  INCF   x2E,F
07790:  BTFSC  FD8.2
07792:  INCF   x2F,F
07794:  MOVLB  0
....................    } 
.................... } 
07796:  RETLW  00
....................  
.................... void borraDatoCiclo(){ 
*
05D00:  MOVLB  6
05D02:  CLRF   x61
05D04:  CLRF   x60
05D06:  CLRF   x63
05D08:  CLRF   x62
....................    int16 posCiclo=0,cicloMemoria=0; 
....................    posCiclo=Ciclos/200; 
05D0A:  MOVFF  216,665
05D0E:  MOVFF  215,664
05D12:  CLRF   x67
05D14:  MOVLW  C8
05D16:  MOVWF  x66
05D18:  MOVLB  0
05D1A:  RCALL  5BAE
05D1C:  MOVFF  02,661
05D20:  MOVFF  01,660
....................    cicloMemoria=Ciclos-(posCiclo*200); 
05D24:  MOVFF  661,667
05D28:  MOVFF  660,666
05D2C:  MOVLB  6
05D2E:  CLRF   x69
05D30:  MOVLW  C8
05D32:  MOVWF  x68
05D34:  MOVLB  0
05D36:  CALL   23E0
05D3A:  MOVF   01,W
05D3C:  MOVLB  2
05D3E:  SUBWF  x15,W
05D40:  MOVLB  6
05D42:  MOVWF  x62
05D44:  MOVF   02,W
05D46:  MOVLB  2
05D48:  SUBWFB x16,W
05D4A:  MOVLB  6
05D4C:  MOVWF  x63
....................    write_ext_eeprom(cicloMemoria*320,1); 
05D4E:  MOVFF  663,667
05D52:  MOVFF  662,666
05D56:  MOVLW  01
05D58:  MOVWF  x69
05D5A:  MOVLW  40
05D5C:  MOVWF  x68
05D5E:  MOVLB  0
05D60:  CALL   23E0
05D64:  MOVFF  02,665
05D68:  MOVFF  01,664
05D6C:  MOVFF  02,667
05D70:  MOVFF  01,666
05D74:  MOVLW  01
05D76:  MOVLB  6
05D78:  MOVWF  x68
05D7A:  MOVLB  0
05D7C:  RCALL  5BF4
....................    delay_ms(5); 
05D7E:  MOVLW  05
05D80:  MOVLB  6
05D82:  MOVWF  x64
05D84:  MOVLB  0
05D86:  CALL   1F6E
....................    write_ext_eeprom(1+(cicloMemoria*320),0); 
05D8A:  MOVFF  663,667
05D8E:  MOVFF  662,666
05D92:  MOVLW  01
05D94:  MOVLB  6
05D96:  MOVWF  x69
05D98:  MOVLW  40
05D9A:  MOVWF  x68
05D9C:  MOVLB  0
05D9E:  CALL   23E0
05DA2:  MOVFF  02,03
05DA6:  MOVF   01,W
05DA8:  ADDLW  01
05DAA:  MOVLB  6
05DAC:  MOVWF  x64
05DAE:  MOVLW  00
05DB0:  ADDWFC 02,W
05DB2:  MOVWF  x65
05DB4:  MOVWF  x67
05DB6:  MOVFF  664,666
05DBA:  CLRF   x68
05DBC:  MOVLB  0
05DBE:  RCALL  5BF4
....................    delay_ms(5); 
05DC0:  MOVLW  05
05DC2:  MOVLB  6
05DC4:  MOVWF  x64
05DC6:  MOVLB  0
05DC8:  CALL   1F6E
....................    write_ext_eeprom(2+(cicloMemoria*320),0); 
05DCC:  MOVFF  663,667
05DD0:  MOVFF  662,666
05DD4:  MOVLW  01
05DD6:  MOVLB  6
05DD8:  MOVWF  x69
05DDA:  MOVLW  40
05DDC:  MOVWF  x68
05DDE:  MOVLB  0
05DE0:  CALL   23E0
05DE4:  MOVFF  02,03
05DE8:  MOVF   01,W
05DEA:  ADDLW  02
05DEC:  MOVLB  6
05DEE:  MOVWF  x64
05DF0:  MOVLW  00
05DF2:  ADDWFC 02,W
05DF4:  MOVWF  x65
05DF6:  MOVWF  x67
05DF8:  MOVFF  664,666
05DFC:  CLRF   x68
05DFE:  MOVLB  0
05E00:  RCALL  5BF4
....................    delay_ms(5); 
05E02:  MOVLW  05
05E04:  MOVLB  6
05E06:  MOVWF  x64
05E08:  MOVLB  0
05E0A:  CALL   1F6E
....................    write_ext_eeprom(3+(cicloMemoria*320),0); 
05E0E:  MOVFF  663,667
05E12:  MOVFF  662,666
05E16:  MOVLW  01
05E18:  MOVLB  6
05E1A:  MOVWF  x69
05E1C:  MOVLW  40
05E1E:  MOVWF  x68
05E20:  MOVLB  0
05E22:  CALL   23E0
05E26:  MOVFF  02,03
05E2A:  MOVF   01,W
05E2C:  ADDLW  03
05E2E:  MOVLB  6
05E30:  MOVWF  x64
05E32:  MOVLW  00
05E34:  ADDWFC 02,W
05E36:  MOVWF  x65
05E38:  MOVWF  x67
05E3A:  MOVFF  664,666
05E3E:  CLRF   x68
05E40:  MOVLB  0
05E42:  RCALL  5BF4
....................    delay_ms(5); 
05E44:  MOVLW  05
05E46:  MOVLB  6
05E48:  MOVWF  x64
05E4A:  MOVLB  0
05E4C:  CALL   1F6E
....................    write_ext_eeprom(4+(cicloMemoria*320),0); 
05E50:  MOVFF  663,667
05E54:  MOVFF  662,666
05E58:  MOVLW  01
05E5A:  MOVLB  6
05E5C:  MOVWF  x69
05E5E:  MOVLW  40
05E60:  MOVWF  x68
05E62:  MOVLB  0
05E64:  CALL   23E0
05E68:  MOVFF  02,03
05E6C:  MOVF   01,W
05E6E:  ADDLW  04
05E70:  MOVLB  6
05E72:  MOVWF  x64
05E74:  MOVLW  00
05E76:  ADDWFC 02,W
05E78:  MOVWF  x65
05E7A:  MOVWF  x67
05E7C:  MOVFF  664,666
05E80:  CLRF   x68
05E82:  MOVLB  0
05E84:  RCALL  5BF4
....................    delay_ms(5); 
05E86:  MOVLW  05
05E88:  MOVLB  6
05E8A:  MOVWF  x64
05E8C:  MOVLB  0
05E8E:  CALL   1F6E
....................    for(posicionDato=0;posicionDato<35;posicionDato++){ 
05E92:  MOVLB  2
05E94:  CLRF   x2F
05E96:  CLRF   x2E
05E98:  MOVF   x2F,F
05E9A:  BTFSS  FD8.2
05E9C:  BRA    6246
05E9E:  MOVF   x2E,W
05EA0:  SUBLW  22
05EA2:  BTFSS  FD8.0
05EA4:  BRA    6246
....................       write_ext_eeprom(5+(cicloMemoria*320)+(posicionDato*9),0); 
05EA6:  MOVFF  663,667
05EAA:  MOVFF  662,666
05EAE:  MOVLW  01
05EB0:  MOVLB  6
05EB2:  MOVWF  x69
05EB4:  MOVLW  40
05EB6:  MOVWF  x68
05EB8:  MOVLB  0
05EBA:  CALL   23E0
05EBE:  MOVFF  02,03
05EC2:  MOVF   01,W
05EC4:  ADDLW  05
05EC6:  MOVLB  6
05EC8:  MOVWF  x64
05ECA:  MOVLW  00
05ECC:  ADDWFC 02,W
05ECE:  MOVWF  x65
05ED0:  MOVFF  22F,667
05ED4:  MOVFF  22E,666
05ED8:  CLRF   x69
05EDA:  MOVLW  09
05EDC:  MOVWF  x68
05EDE:  MOVLB  0
05EE0:  CALL   23E0
05EE4:  MOVFF  02,03
05EE8:  MOVF   01,W
05EEA:  MOVLB  6
05EEC:  ADDWF  x64,F
05EEE:  MOVF   02,W
05EF0:  ADDWFC x65,F
05EF2:  MOVFF  665,667
05EF6:  MOVFF  664,666
05EFA:  CLRF   x68
05EFC:  MOVLB  0
05EFE:  RCALL  5BF4
....................       delay_ms(5); 
05F00:  MOVLW  05
05F02:  MOVLB  6
05F04:  MOVWF  x64
05F06:  MOVLB  0
05F08:  CALL   1F6E
....................       write_ext_eeprom(6+(cicloMemoria*320)+(posicionDato*9),0); 
05F0C:  MOVFF  663,667
05F10:  MOVFF  662,666
05F14:  MOVLW  01
05F16:  MOVLB  6
05F18:  MOVWF  x69
05F1A:  MOVLW  40
05F1C:  MOVWF  x68
05F1E:  MOVLB  0
05F20:  CALL   23E0
05F24:  MOVFF  02,03
05F28:  MOVF   01,W
05F2A:  ADDLW  06
05F2C:  MOVLB  6
05F2E:  MOVWF  x64
05F30:  MOVLW  00
05F32:  ADDWFC 02,W
05F34:  MOVWF  x65
05F36:  MOVFF  22F,667
05F3A:  MOVFF  22E,666
05F3E:  CLRF   x69
05F40:  MOVLW  09
05F42:  MOVWF  x68
05F44:  MOVLB  0
05F46:  CALL   23E0
05F4A:  MOVFF  02,03
05F4E:  MOVF   01,W
05F50:  MOVLB  6
05F52:  ADDWF  x64,F
05F54:  MOVF   02,W
05F56:  ADDWFC x65,F
05F58:  MOVFF  665,667
05F5C:  MOVFF  664,666
05F60:  CLRF   x68
05F62:  MOVLB  0
05F64:  RCALL  5BF4
....................       delay_ms(5); 
05F66:  MOVLW  05
05F68:  MOVLB  6
05F6A:  MOVWF  x64
05F6C:  MOVLB  0
05F6E:  CALL   1F6E
....................       write_ext_eeprom(7+(cicloMemoria*320)+(posicionDato*9),0); 
05F72:  MOVFF  663,667
05F76:  MOVFF  662,666
05F7A:  MOVLW  01
05F7C:  MOVLB  6
05F7E:  MOVWF  x69
05F80:  MOVLW  40
05F82:  MOVWF  x68
05F84:  MOVLB  0
05F86:  CALL   23E0
05F8A:  MOVFF  02,03
05F8E:  MOVF   01,W
05F90:  ADDLW  07
05F92:  MOVLB  6
05F94:  MOVWF  x64
05F96:  MOVLW  00
05F98:  ADDWFC 02,W
05F9A:  MOVWF  x65
05F9C:  MOVFF  22F,667
05FA0:  MOVFF  22E,666
05FA4:  CLRF   x69
05FA6:  MOVLW  09
05FA8:  MOVWF  x68
05FAA:  MOVLB  0
05FAC:  CALL   23E0
05FB0:  MOVFF  02,03
05FB4:  MOVF   01,W
05FB6:  MOVLB  6
05FB8:  ADDWF  x64,F
05FBA:  MOVF   02,W
05FBC:  ADDWFC x65,F
05FBE:  MOVFF  665,667
05FC2:  MOVFF  664,666
05FC6:  CLRF   x68
05FC8:  MOVLB  0
05FCA:  RCALL  5BF4
....................       delay_ms(5); 
05FCC:  MOVLW  05
05FCE:  MOVLB  6
05FD0:  MOVWF  x64
05FD2:  MOVLB  0
05FD4:  CALL   1F6E
....................       write_ext_eeprom(8+(cicloMemoria*320)+(posicionDato*9),0); 
05FD8:  MOVFF  663,667
05FDC:  MOVFF  662,666
05FE0:  MOVLW  01
05FE2:  MOVLB  6
05FE4:  MOVWF  x69
05FE6:  MOVLW  40
05FE8:  MOVWF  x68
05FEA:  MOVLB  0
05FEC:  CALL   23E0
05FF0:  MOVFF  02,03
05FF4:  MOVF   01,W
05FF6:  ADDLW  08
05FF8:  MOVLB  6
05FFA:  MOVWF  x64
05FFC:  MOVLW  00
05FFE:  ADDWFC 02,W
06000:  MOVWF  x65
06002:  MOVFF  22F,667
06006:  MOVFF  22E,666
0600A:  CLRF   x69
0600C:  MOVLW  09
0600E:  MOVWF  x68
06010:  MOVLB  0
06012:  CALL   23E0
06016:  MOVFF  02,03
0601A:  MOVF   01,W
0601C:  MOVLB  6
0601E:  ADDWF  x64,F
06020:  MOVF   02,W
06022:  ADDWFC x65,F
06024:  MOVFF  665,667
06028:  MOVFF  664,666
0602C:  CLRF   x68
0602E:  MOVLB  0
06030:  RCALL  5BF4
....................       delay_ms(5); 
06032:  MOVLW  05
06034:  MOVLB  6
06036:  MOVWF  x64
06038:  MOVLB  0
0603A:  CALL   1F6E
....................       write_ext_eeprom(9+(cicloMemoria*320)+(posicionDato*9),0); 
0603E:  MOVFF  663,667
06042:  MOVFF  662,666
06046:  MOVLW  01
06048:  MOVLB  6
0604A:  MOVWF  x69
0604C:  MOVLW  40
0604E:  MOVWF  x68
06050:  MOVLB  0
06052:  CALL   23E0
06056:  MOVFF  02,03
0605A:  MOVF   01,W
0605C:  ADDLW  09
0605E:  MOVLB  6
06060:  MOVWF  x64
06062:  MOVLW  00
06064:  ADDWFC 02,W
06066:  MOVWF  x65
06068:  MOVFF  22F,667
0606C:  MOVFF  22E,666
06070:  CLRF   x69
06072:  MOVLW  09
06074:  MOVWF  x68
06076:  MOVLB  0
06078:  CALL   23E0
0607C:  MOVFF  02,03
06080:  MOVF   01,W
06082:  MOVLB  6
06084:  ADDWF  x64,F
06086:  MOVF   02,W
06088:  ADDWFC x65,F
0608A:  MOVFF  665,667
0608E:  MOVFF  664,666
06092:  CLRF   x68
06094:  MOVLB  0
06096:  RCALL  5BF4
....................       delay_ms(5); 
06098:  MOVLW  05
0609A:  MOVLB  6
0609C:  MOVWF  x64
0609E:  MOVLB  0
060A0:  CALL   1F6E
....................       write_ext_eeprom(10+(cicloMemoria*320)+(posicionDato*9),0); 
060A4:  MOVFF  663,667
060A8:  MOVFF  662,666
060AC:  MOVLW  01
060AE:  MOVLB  6
060B0:  MOVWF  x69
060B2:  MOVLW  40
060B4:  MOVWF  x68
060B6:  MOVLB  0
060B8:  CALL   23E0
060BC:  MOVFF  02,03
060C0:  MOVF   01,W
060C2:  ADDLW  0A
060C4:  MOVLB  6
060C6:  MOVWF  x64
060C8:  MOVLW  00
060CA:  ADDWFC 02,W
060CC:  MOVWF  x65
060CE:  MOVFF  22F,667
060D2:  MOVFF  22E,666
060D6:  CLRF   x69
060D8:  MOVLW  09
060DA:  MOVWF  x68
060DC:  MOVLB  0
060DE:  CALL   23E0
060E2:  MOVFF  02,03
060E6:  MOVF   01,W
060E8:  MOVLB  6
060EA:  ADDWF  x64,F
060EC:  MOVF   02,W
060EE:  ADDWFC x65,F
060F0:  MOVFF  665,667
060F4:  MOVFF  664,666
060F8:  CLRF   x68
060FA:  MOVLB  0
060FC:  RCALL  5BF4
....................       delay_ms(5); 
060FE:  MOVLW  05
06100:  MOVLB  6
06102:  MOVWF  x64
06104:  MOVLB  0
06106:  CALL   1F6E
....................       write_ext_eeprom(11+(cicloMemoria*320)+(posicionDato*9),0); 
0610A:  MOVFF  663,667
0610E:  MOVFF  662,666
06112:  MOVLW  01
06114:  MOVLB  6
06116:  MOVWF  x69
06118:  MOVLW  40
0611A:  MOVWF  x68
0611C:  MOVLB  0
0611E:  CALL   23E0
06122:  MOVFF  02,03
06126:  MOVF   01,W
06128:  ADDLW  0B
0612A:  MOVLB  6
0612C:  MOVWF  x64
0612E:  MOVLW  00
06130:  ADDWFC 02,W
06132:  MOVWF  x65
06134:  MOVFF  22F,667
06138:  MOVFF  22E,666
0613C:  CLRF   x69
0613E:  MOVLW  09
06140:  MOVWF  x68
06142:  MOVLB  0
06144:  CALL   23E0
06148:  MOVFF  02,03
0614C:  MOVF   01,W
0614E:  MOVLB  6
06150:  ADDWF  x64,F
06152:  MOVF   02,W
06154:  ADDWFC x65,F
06156:  MOVFF  665,667
0615A:  MOVFF  664,666
0615E:  CLRF   x68
06160:  MOVLB  0
06162:  RCALL  5BF4
....................       delay_ms(5); 
06164:  MOVLW  05
06166:  MOVLB  6
06168:  MOVWF  x64
0616A:  MOVLB  0
0616C:  CALL   1F6E
....................       write_ext_eeprom(12+(cicloMemoria*320)+(posicionDato*9),0); 
06170:  MOVFF  663,667
06174:  MOVFF  662,666
06178:  MOVLW  01
0617A:  MOVLB  6
0617C:  MOVWF  x69
0617E:  MOVLW  40
06180:  MOVWF  x68
06182:  MOVLB  0
06184:  CALL   23E0
06188:  MOVFF  02,03
0618C:  MOVF   01,W
0618E:  ADDLW  0C
06190:  MOVLB  6
06192:  MOVWF  x64
06194:  MOVLW  00
06196:  ADDWFC 02,W
06198:  MOVWF  x65
0619A:  MOVFF  22F,667
0619E:  MOVFF  22E,666
061A2:  CLRF   x69
061A4:  MOVLW  09
061A6:  MOVWF  x68
061A8:  MOVLB  0
061AA:  CALL   23E0
061AE:  MOVFF  02,03
061B2:  MOVF   01,W
061B4:  MOVLB  6
061B6:  ADDWF  x64,F
061B8:  MOVF   02,W
061BA:  ADDWFC x65,F
061BC:  MOVFF  665,667
061C0:  MOVFF  664,666
061C4:  CLRF   x68
061C6:  MOVLB  0
061C8:  RCALL  5BF4
....................       delay_ms(5); 
061CA:  MOVLW  05
061CC:  MOVLB  6
061CE:  MOVWF  x64
061D0:  MOVLB  0
061D2:  CALL   1F6E
....................       write_ext_eeprom(13+(cicloMemoria*320)+(posicionDato*9),0); 
061D6:  MOVFF  663,667
061DA:  MOVFF  662,666
061DE:  MOVLW  01
061E0:  MOVLB  6
061E2:  MOVWF  x69
061E4:  MOVLW  40
061E6:  MOVWF  x68
061E8:  MOVLB  0
061EA:  CALL   23E0
061EE:  MOVFF  02,03
061F2:  MOVF   01,W
061F4:  ADDLW  0D
061F6:  MOVLB  6
061F8:  MOVWF  x64
061FA:  MOVLW  00
061FC:  ADDWFC 02,W
061FE:  MOVWF  x65
06200:  MOVFF  22F,667
06204:  MOVFF  22E,666
06208:  CLRF   x69
0620A:  MOVLW  09
0620C:  MOVWF  x68
0620E:  MOVLB  0
06210:  CALL   23E0
06214:  MOVFF  02,03
06218:  MOVF   01,W
0621A:  MOVLB  6
0621C:  ADDWF  x64,F
0621E:  MOVF   02,W
06220:  ADDWFC x65,F
06222:  MOVFF  665,667
06226:  MOVFF  664,666
0622A:  CLRF   x68
0622C:  MOVLB  0
0622E:  RCALL  5BF4
....................       delay_ms(5); 
06230:  MOVLW  05
06232:  MOVLB  6
06234:  MOVWF  x64
06236:  MOVLB  0
06238:  CALL   1F6E
....................    } 
0623C:  MOVLB  2
0623E:  INCF   x2E,F
06240:  BTFSC  FD8.2
06242:  INCF   x2F,F
06244:  BRA    5E98
....................    posicionDato=0; 
06246:  CLRF   x2F
06248:  CLRF   x2E
.................... } 
0624A:  MOVLB  0
0624C:  GOTO   62B2 (RETURN)
....................  
.................... void incrementaCiclos(){ 
....................    if(!Ciclo){ 
*
07798:  BTFSC  xA6.6
0779A:  BRA    7826
....................       Ciclo=ON; 
0779C:  BSF    xA6.6
....................       Ciclos++; 
0779E:  MOVLB  2
077A0:  INCF   x15,F
077A2:  BTFSC  FD8.2
077A4:  INCF   x16,F
....................       CiclosL=make8(Ciclos,0); 
077A6:  MOVFF  215,1F3
077AA:  MOVLB  1
....................       CiclosH=make8(Ciclos,1); 
077AC:  MOVFF  216,1F4
077B0:  MOVLB  1
....................       write_eeprom(37,CiclosL); 
077B2:  CLRF   FAA
077B4:  MOVLW  25
077B6:  MOVWF  FA9
077B8:  MOVFF  1F3,FA8
077BC:  BCF    FA6.6
077BE:  BCF    FA6.7
077C0:  BSF    FA6.2
077C2:  MOVF   FF2,W
077C4:  MOVWF  00
077C6:  BCF    FF2.6
077C8:  BCF    FF2.7
077CA:  MOVLB  F
077CC:  MOVLW  55
077CE:  MOVWF  FA7
077D0:  MOVLW  AA
077D2:  MOVWF  FA7
077D4:  BSF    FA6.1
077D6:  BTFSC  FA6.1
077D8:  BRA    77D6
077DA:  BCF    FA6.2
077DC:  MOVF   00,W
077DE:  IORWF  FF2,F
....................       delay_ms(20); 
077E0:  MOVLW  14
077E2:  MOVLB  6
077E4:  MOVWF  x64
077E6:  MOVLB  0
077E8:  CALL   1F6E
....................       write_eeprom(38,CiclosH); 
077EC:  CLRF   FAA
077EE:  MOVLW  26
077F0:  MOVWF  FA9
077F2:  MOVFF  1F4,FA8
077F6:  BCF    FA6.6
077F8:  BCF    FA6.7
077FA:  BSF    FA6.2
077FC:  MOVF   FF2,W
077FE:  MOVWF  00
07800:  BCF    FF2.6
07802:  BCF    FF2.7
07804:  MOVLB  F
07806:  MOVLW  55
07808:  MOVWF  FA7
0780A:  MOVLW  AA
0780C:  MOVWF  FA7
0780E:  BSF    FA6.1
07810:  BTFSC  FA6.1
07812:  BRA    7810
07814:  BCF    FA6.2
07816:  MOVF   00,W
07818:  IORWF  FF2,F
....................       delay_ms(20); 
0781A:  MOVLW  14
0781C:  MOVLB  6
0781E:  MOVWF  x64
07820:  MOVLB  0
07822:  CALL   1F6E
....................    } 
.................... } 
07826:  RETLW  00
....................  
.................... void exportarData(){ 
*
066B2:  MOVLB  6
066B4:  CLRF   x4C
066B6:  CLRF   x4B
066B8:  CLRF   x4D
.................... int16 posicion=0; 
.................... int8 tmp=0; 
.................... posicion=0; 
066BA:  CLRF   x4C
066BC:  CLRF   x4B
.................... direccion=0xB0; 
066BE:  MOVLW  B0
066C0:  MOVLB  0
066C2:  MOVWF  x88
.................... Buzzer_on; 
066C4:  BSF    F8B.5
066C6:  BCF    F94.5
.................... //Inicio de Transmision 
.................... i2c_start();            // Comienzo comunicacin 
066C8:  BSF    F94.4
066CA:  MOVLW  05
066CC:  MOVWF  00
066CE:  DECFSZ 00,F
066D0:  BRA    66CE
066D2:  BSF    F94.3
066D4:  MOVLW  06
066D6:  MOVWF  00
066D8:  DECFSZ 00,F
066DA:  BRA    66D8
066DC:  BCF    F8B.4
066DE:  BCF    F94.4
066E0:  MOVLW  05
066E2:  MOVWF  00
066E4:  DECFSZ 00,F
066E6:  BRA    66E4
066E8:  BCF    F8B.3
066EA:  BCF    F94.3
.................... i2c_write(direccion);   // Direccin del esclavo en el bus I2C 
066EC:  MOVFF  88,66C
066F0:  CALL   2402
.................... i2c_write(make8(posicion,0));    // Posicin donde se guardara el dato transmitido 
066F4:  MOVFF  64B,64E
066F8:  MOVFF  64B,66C
066FC:  CALL   2402
.................... i2c_write(make8(posicion,1));    // Posicin donde se guardara el dato transmitido 
06700:  MOVFF  64C,64E
06704:  MOVFF  64C,66C
06708:  CALL   2402
.................... i2c_write(0xff);        // Dato a transmitir 
0670C:  MOVLW  FF
0670E:  MOVLB  6
06710:  MOVWF  x6C
06712:  MOVLB  0
06714:  CALL   2402
.................... i2c_stop(); 
06718:  BCF    F94.4
0671A:  NOP   
0671C:  BSF    F94.3
0671E:  BTFSS  F82.3
06720:  BRA    671E
06722:  MOVLW  05
06724:  MOVWF  00
06726:  DECFSZ 00,F
06728:  BRA    6726
0672A:  BRA    672C
0672C:  NOP   
0672E:  BSF    F94.4
06730:  MOVLW  05
06732:  MOVWF  00
06734:  DECFSZ 00,F
06736:  BRA    6734
.................... ++posicion; 
06738:  MOVLB  6
0673A:  INCF   x4B,F
0673C:  BTFSC  FD8.2
0673E:  INCF   x4C,F
.................... i2c_start();            // Comienzo comunicacin 
06740:  BSF    F94.4
06742:  MOVLW  05
06744:  MOVWF  00
06746:  DECFSZ 00,F
06748:  BRA    6746
0674A:  BSF    F94.3
0674C:  MOVLW  06
0674E:  MOVWF  00
06750:  DECFSZ 00,F
06752:  BRA    6750
06754:  BCF    F8B.4
06756:  BCF    F94.4
06758:  MOVLW  05
0675A:  MOVWF  00
0675C:  DECFSZ 00,F
0675E:  BRA    675C
06760:  BCF    F8B.3
06762:  BCF    F94.3
.................... i2c_write(direccion);   // Direccin del esclavo en el bus I2C 
06764:  MOVFF  88,66C
06768:  MOVLB  0
0676A:  CALL   2402
.................... i2c_write(make8(posicion,0));    // Posicin donde se guardara el dato transmitido 
0676E:  MOVFF  64B,64E
06772:  MOVFF  64B,66C
06776:  CALL   2402
.................... i2c_write(make8(posicion,1));    // Posicin donde se guardara el dato transmitido 
0677A:  MOVFF  64C,64E
0677E:  MOVFF  64C,66C
06782:  CALL   2402
.................... i2c_write(0xff);        // Dato a transmitir 
06786:  MOVLW  FF
06788:  MOVLB  6
0678A:  MOVWF  x6C
0678C:  MOVLB  0
0678E:  CALL   2402
.................... i2c_stop(); 
06792:  BCF    F94.4
06794:  NOP   
06796:  BSF    F94.3
06798:  BTFSS  F82.3
0679A:  BRA    6798
0679C:  MOVLW  05
0679E:  MOVWF  00
067A0:  DECFSZ 00,F
067A2:  BRA    67A0
067A4:  BRA    67A6
067A6:  NOP   
067A8:  BSF    F94.4
067AA:  MOVLW  05
067AC:  MOVWF  00
067AE:  DECFSZ 00,F
067B0:  BRA    67AE
.................... ++posicion; 
067B2:  MOVLB  6
067B4:  INCF   x4B,F
067B6:  BTFSC  FD8.2
067B8:  INCF   x4C,F
.................... //Se envian 2 veces ff para indicar que se inicia la transmision. 
....................  
....................    for(i=0;i<5;i++){ 
067BA:  MOVLB  1
067BC:  CLRF   xFE
067BE:  CLRF   xFD
067C0:  MOVF   xFE,F
067C2:  BNZ   688A
067C4:  MOVF   xFD,W
067C6:  SUBLW  04
067C8:  BNC   688A
....................       tmp=read_ext_eeprom((cicloVisto*320)+i); 
067CA:  MOVFF  233,667
067CE:  MOVFF  232,666
067D2:  MOVLW  01
067D4:  MOVLB  6
067D6:  MOVWF  x69
067D8:  MOVLW  40
067DA:  MOVWF  x68
067DC:  MOVLB  0
067DE:  CALL   23E0
067E2:  MOVFF  02,64F
067E6:  MOVFF  01,64E
067EA:  MOVLB  1
067EC:  MOVF   xFD,W
067EE:  MOVLB  6
067F0:  ADDWF  x4E,F
067F2:  MOVLB  1
067F4:  MOVF   xFE,W
067F6:  MOVLB  6
067F8:  ADDWFC x4F,F
067FA:  MOVFF  64F,651
067FE:  MOVFF  64E,650
06802:  MOVLB  0
06804:  CALL   24E2
06808:  MOVFF  01,64D
....................       //if(tmp>250) 
....................       //   tmp=20; 
....................       i2c_start();            // Comienzo comunicacin 
0680C:  BSF    F94.4
0680E:  MOVLW  05
06810:  MOVWF  00
06812:  DECFSZ 00,F
06814:  BRA    6812
06816:  BSF    F94.3
06818:  MOVLW  06
0681A:  MOVWF  00
0681C:  DECFSZ 00,F
0681E:  BRA    681C
06820:  BCF    F8B.4
06822:  BCF    F94.4
06824:  MOVLW  05
06826:  MOVWF  00
06828:  DECFSZ 00,F
0682A:  BRA    6828
0682C:  BCF    F8B.3
0682E:  BCF    F94.3
....................       i2c_write(direccion);   // Direccin del esclavo en el bus I2C 
06830:  MOVFF  88,66C
06834:  CALL   2402
....................       i2c_write(make8(posicion,0));    // Posicin donde se guardara el dato transmitido 
06838:  MOVFF  64B,64E
0683C:  MOVFF  64B,66C
06840:  CALL   2402
....................       i2c_write(make8(posicion,1));    // Posicin donde se guardara el dato transmitido 
06844:  MOVFF  64C,64E
06848:  MOVFF  64C,66C
0684C:  CALL   2402
....................       i2c_write(tmp);        // Dato a transmitir 
06850:  MOVFF  64D,66C
06854:  CALL   2402
....................       i2c_stop();  
06858:  BCF    F94.4
0685A:  NOP   
0685C:  BSF    F94.3
0685E:  BTFSS  F82.3
06860:  BRA    685E
06862:  MOVLW  05
06864:  MOVWF  00
06866:  DECFSZ 00,F
06868:  BRA    6866
0686A:  BRA    686C
0686C:  NOP   
0686E:  BSF    F94.4
06870:  MOVLW  05
06872:  MOVWF  00
06874:  DECFSZ 00,F
06876:  BRA    6874
....................       ++posicion; 
06878:  MOVLB  6
0687A:  INCF   x4B,F
0687C:  BTFSC  FD8.2
0687E:  INCF   x4C,F
....................    } 
06880:  MOVLB  1
06882:  INCF   xFD,F
06884:  BTFSC  FD8.2
06886:  INCF   xFE,F
06888:  BRA    67C0
....................    for(i=0;i<35;i++){//Lee Valores para completar la Tabla 
0688A:  CLRF   xFE
0688C:  CLRF   xFD
0688E:  MOVF   xFE,F
06890:  BTFSS  FD8.2
06892:  BRA    698C
06894:  MOVF   xFD,W
06896:  SUBLW  22
06898:  BTFSS  FD8.0
0689A:  BRA    698C
....................       for(j=5;j<14;j++){//Lee Valores para completar la Tabla 
0689C:  MOVLW  05
0689E:  MOVLB  2
068A0:  MOVWF  x4A
068A2:  MOVF   x4A,W
068A4:  SUBLW  0D
068A6:  BNC   6982
....................          tmp=read_ext_eeprom((cicloVisto*320)+j+(i*9)); 
068A8:  MOVFF  233,667
068AC:  MOVFF  232,666
068B0:  MOVLW  01
068B2:  MOVLB  6
068B4:  MOVWF  x69
068B6:  MOVLW  40
068B8:  MOVWF  x68
068BA:  MOVLB  0
068BC:  CALL   23E0
068C0:  MOVFF  02,64F
068C4:  MOVFF  01,64E
068C8:  MOVLB  2
068CA:  MOVF   x4A,W
068CC:  MOVLB  6
068CE:  ADDWF  x4E,F
068D0:  MOVLW  00
068D2:  ADDWFC x4F,F
068D4:  MOVFF  1FE,667
068D8:  MOVFF  1FD,666
068DC:  CLRF   x69
068DE:  MOVLW  09
068E0:  MOVWF  x68
068E2:  MOVLB  0
068E4:  CALL   23E0
068E8:  MOVFF  02,03
068EC:  MOVF   01,W
068EE:  MOVLB  6
068F0:  ADDWF  x4E,F
068F2:  MOVF   02,W
068F4:  ADDWFC x4F,F
068F6:  MOVFF  64F,651
068FA:  MOVFF  64E,650
068FE:  MOVLB  0
06900:  CALL   24E2
06904:  MOVFF  01,64D
....................          //if(tmp>250) 
....................          //   tmp=20; 
....................          i2c_start();            // Comienzo comunicacin 
06908:  BSF    F94.4
0690A:  MOVLW  05
0690C:  MOVWF  00
0690E:  DECFSZ 00,F
06910:  BRA    690E
06912:  BSF    F94.3
06914:  MOVLW  06
06916:  MOVWF  00
06918:  DECFSZ 00,F
0691A:  BRA    6918
0691C:  BCF    F8B.4
0691E:  BCF    F94.4
06920:  MOVLW  05
06922:  MOVWF  00
06924:  DECFSZ 00,F
06926:  BRA    6924
06928:  BCF    F8B.3
0692A:  BCF    F94.3
....................          i2c_write(direccion);   // Direccin del esclavo en el bus I2C 
0692C:  MOVFF  88,66C
06930:  CALL   2402
....................          i2c_write(make8(posicion,0));    // Posicin donde se guardara el dato transmitido 
06934:  MOVFF  64B,64E
06938:  MOVFF  64B,66C
0693C:  CALL   2402
....................          i2c_write(make8(posicion,1));    // Posicin donde se guardara el dato transmitido 
06940:  MOVFF  64C,64E
06944:  MOVFF  64C,66C
06948:  CALL   2402
....................          i2c_write(tmp);        // Dato a transmitir 
0694C:  MOVFF  64D,66C
06950:  CALL   2402
....................          i2c_stop();  
06954:  BCF    F94.4
06956:  NOP   
06958:  BSF    F94.3
0695A:  BTFSS  F82.3
0695C:  BRA    695A
0695E:  MOVLW  05
06960:  MOVWF  00
06962:  DECFSZ 00,F
06964:  BRA    6962
06966:  BRA    6968
06968:  NOP   
0696A:  BSF    F94.4
0696C:  MOVLW  05
0696E:  MOVWF  00
06970:  DECFSZ 00,F
06972:  BRA    6970
....................          ++posicion; 
06974:  MOVLB  6
06976:  INCF   x4B,F
06978:  BTFSC  FD8.2
0697A:  INCF   x4C,F
....................       } 
0697C:  MOVLB  2
0697E:  INCF   x4A,F
06980:  BRA    68A2
....................    } 
06982:  MOVLB  1
06984:  INCF   xFD,F
06986:  BTFSC  FD8.2
06988:  INCF   xFE,F
0698A:  BRA    688E
....................  
.................... //Fin de Transmision 
.................... i2c_start();            // Comienzo comunicacin 
0698C:  BSF    F94.4
0698E:  MOVLW  05
06990:  MOVWF  00
06992:  DECFSZ 00,F
06994:  BRA    6992
06996:  BSF    F94.3
06998:  MOVLW  06
0699A:  MOVWF  00
0699C:  DECFSZ 00,F
0699E:  BRA    699C
069A0:  BCF    F8B.4
069A2:  BCF    F94.4
069A4:  MOVLW  05
069A6:  MOVWF  00
069A8:  DECFSZ 00,F
069AA:  BRA    69A8
069AC:  BCF    F8B.3
069AE:  BCF    F94.3
.................... i2c_write(direccion);   // Direccin del esclavo en el bus I2C 
069B0:  MOVFF  88,66C
069B4:  MOVLB  0
069B6:  CALL   2402
.................... i2c_write(make8(posicion,0));    // Posicin donde se guardara el dato transmitido 
069BA:  MOVFF  64B,64E
069BE:  MOVFF  64B,66C
069C2:  CALL   2402
.................... i2c_write(make8(posicion,1));    // Posicin donde se guardara el dato transmitido 
069C6:  MOVFF  64C,64E
069CA:  MOVFF  64C,66C
069CE:  CALL   2402
.................... i2c_write(0x1f);        // Dato a transmitir 
069D2:  MOVLW  1F
069D4:  MOVLB  6
069D6:  MOVWF  x6C
069D8:  MOVLB  0
069DA:  CALL   2402
.................... i2c_stop(); 
069DE:  BCF    F94.4
069E0:  NOP   
069E2:  BSF    F94.3
069E4:  BTFSS  F82.3
069E6:  BRA    69E4
069E8:  MOVLW  05
069EA:  MOVWF  00
069EC:  DECFSZ 00,F
069EE:  BRA    69EC
069F0:  BRA    69F2
069F2:  NOP   
069F4:  BSF    F94.4
069F6:  MOVLW  05
069F8:  MOVWF  00
069FA:  DECFSZ 00,F
069FC:  BRA    69FA
.................... ++posicion; 
069FE:  MOVLB  6
06A00:  INCF   x4B,F
06A02:  BTFSC  FD8.2
06A04:  INCF   x4C,F
.................... i2c_start();            // Comienzo comunicacin 
06A06:  BSF    F94.4
06A08:  MOVLW  05
06A0A:  MOVWF  00
06A0C:  DECFSZ 00,F
06A0E:  BRA    6A0C
06A10:  BSF    F94.3
06A12:  MOVLW  06
06A14:  MOVWF  00
06A16:  DECFSZ 00,F
06A18:  BRA    6A16
06A1A:  BCF    F8B.4
06A1C:  BCF    F94.4
06A1E:  MOVLW  05
06A20:  MOVWF  00
06A22:  DECFSZ 00,F
06A24:  BRA    6A22
06A26:  BCF    F8B.3
06A28:  BCF    F94.3
.................... i2c_write(direccion);   // Direccin del esclavo en el bus I2C 
06A2A:  MOVFF  88,66C
06A2E:  MOVLB  0
06A30:  CALL   2402
.................... i2c_write(make8(posicion,0));    // Posicin donde se guardara el dato transmitido 
06A34:  MOVFF  64B,64E
06A38:  MOVFF  64B,66C
06A3C:  CALL   2402
.................... i2c_write(make8(posicion,1));    // Posicin donde se guardara el dato transmitido 
06A40:  MOVFF  64C,64E
06A44:  MOVFF  64C,66C
06A48:  CALL   2402
.................... i2c_write(0x1f);        // Dato a transmitir 
06A4C:  MOVLW  1F
06A4E:  MOVLB  6
06A50:  MOVWF  x6C
06A52:  MOVLB  0
06A54:  CALL   2402
.................... i2c_stop(); 
06A58:  BCF    F94.4
06A5A:  NOP   
06A5C:  BSF    F94.3
06A5E:  BTFSS  F82.3
06A60:  BRA    6A5E
06A62:  MOVLW  05
06A64:  MOVWF  00
06A66:  DECFSZ 00,F
06A68:  BRA    6A66
06A6A:  BRA    6A6C
06A6C:  NOP   
06A6E:  BSF    F94.4
06A70:  MOVLW  05
06A72:  MOVWF  00
06A74:  DECFSZ 00,F
06A76:  BRA    6A74
.................... ++posicion; 
06A78:  MOVLB  6
06A7A:  INCF   x4B,F
06A7C:  BTFSC  FD8.2
06A7E:  INCF   x4C,F
.................... //Se envian 2 veces 1f para indicar que se inicia la transmision. 
.................... delay_ms(200); 
06A80:  MOVLW  C8
06A82:  MOVWF  x64
06A84:  MOVLB  0
06A86:  CALL   1F6E
.................... Buzzer_off; 
06A8A:  BCF    F8B.5
06A8C:  BCF    F94.5
.................... } 
06A8E:  GOTO   C550 (RETURN)
....................  
.................... void codificaAlarma(){ 
....................    if(ACiclos[i]==0){ 
06A92:  MOVLW  AB
06A94:  MOVLB  1
06A96:  ADDWF  xFD,W
06A98:  MOVWF  FE9
06A9A:  MOVLW  02
06A9C:  ADDWFC xFE,W
06A9E:  MOVWF  FEA
06AA0:  MOVF   FEF,F
06AA2:  BNZ   6AF0
....................       printf("A%Lu.txt=\"----\"",i+1); 
06AA4:  MOVLW  01
06AA6:  ADDWF  xFD,W
06AA8:  MOVLB  6
06AAA:  MOVWF  x4B
06AAC:  MOVLW  00
06AAE:  MOVLB  1
06AB0:  ADDWFC xFE,W
06AB2:  MOVLB  6
06AB4:  MOVWF  x4C
06AB6:  MOVLW  41
06AB8:  BTFSS  F9E.4
06ABA:  BRA    6AB8
06ABC:  MOVWF  FAD
06ABE:  MOVLW  10
06AC0:  MOVWF  FE9
06AC2:  MOVFF  64C,652
06AC6:  MOVFF  64B,651
06ACA:  MOVLB  0
06ACC:  CALL   62B6
06AD0:  MOVLW  08
06AD2:  MOVWF  FF6
06AD4:  MOVLW  04
06AD6:  MOVWF  FF7
06AD8:  MOVLW  00
06ADA:  MOVWF  FF8
06ADC:  MOVLW  0B
06ADE:  MOVLB  6
06AE0:  MOVWF  x51
06AE2:  MOVLB  0
06AE4:  CALL   5AAC
....................       SendDataDisplay(); 
06AE8:  CALL   427A
....................    }else if(ACiclos[i]==1){ 
06AEC:  BRA    706C
06AEE:  MOVLB  1
06AF0:  MOVLW  AB
06AF2:  ADDWF  xFD,W
06AF4:  MOVWF  FE9
06AF6:  MOVLW  02
06AF8:  ADDWFC xFE,W
06AFA:  MOVWF  FEA
06AFC:  DECFSZ FEF,W
06AFE:  BRA    6B4C
....................       printf("A%Lu.txt=\"Parada\"",i+1); 
06B00:  MOVLW  01
06B02:  ADDWF  xFD,W
06B04:  MOVLB  6
06B06:  MOVWF  x4B
06B08:  MOVLW  00
06B0A:  MOVLB  1
06B0C:  ADDWFC xFE,W
06B0E:  MOVLB  6
06B10:  MOVWF  x4C
06B12:  MOVLW  41
06B14:  BTFSS  F9E.4
06B16:  BRA    6B14
06B18:  MOVWF  FAD
06B1A:  MOVLW  10
06B1C:  MOVWF  FE9
06B1E:  MOVFF  64C,652
06B22:  MOVFF  64B,651
06B26:  MOVLB  0
06B28:  CALL   62B6
06B2C:  MOVLW  18
06B2E:  MOVWF  FF6
06B30:  MOVLW  04
06B32:  MOVWF  FF7
06B34:  MOVLW  00
06B36:  MOVWF  FF8
06B38:  MOVLW  0D
06B3A:  MOVLB  6
06B3C:  MOVWF  x51
06B3E:  MOVLB  0
06B40:  CALL   5AAC
....................       SendDataDisplay(); 
06B44:  CALL   427A
....................    }else if(ACiclos[i]==2){ 
06B48:  BRA    706C
06B4A:  MOVLB  1
06B4C:  MOVLW  AB
06B4E:  ADDWF  xFD,W
06B50:  MOVWF  FE9
06B52:  MOVLW  02
06B54:  ADDWFC xFE,W
06B56:  MOVWF  FEA
06B58:  MOVF   FEF,W
06B5A:  SUBLW  02
06B5C:  BNZ   6BAA
....................       printf("A%Lu.txt=\"Puerta\"",i+1); 
06B5E:  MOVLW  01
06B60:  ADDWF  xFD,W
06B62:  MOVLB  6
06B64:  MOVWF  x4B
06B66:  MOVLW  00
06B68:  MOVLB  1
06B6A:  ADDWFC xFE,W
06B6C:  MOVLB  6
06B6E:  MOVWF  x4C
06B70:  MOVLW  41
06B72:  BTFSS  F9E.4
06B74:  BRA    6B72
06B76:  MOVWF  FAD
06B78:  MOVLW  10
06B7A:  MOVWF  FE9
06B7C:  MOVFF  64C,652
06B80:  MOVFF  64B,651
06B84:  MOVLB  0
06B86:  CALL   62B6
06B8A:  MOVLW  2A
06B8C:  MOVWF  FF6
06B8E:  MOVLW  04
06B90:  MOVWF  FF7
06B92:  MOVLW  00
06B94:  MOVWF  FF8
06B96:  MOVLW  0D
06B98:  MOVLB  6
06B9A:  MOVWF  x51
06B9C:  MOVLB  0
06B9E:  CALL   5AAC
....................       SendDataDisplay(); 
06BA2:  CALL   427A
....................    }else if(ACiclos[i]==3){ 
06BA6:  BRA    706C
06BA8:  MOVLB  1
06BAA:  MOVLW  AB
06BAC:  ADDWF  xFD,W
06BAE:  MOVWF  FE9
06BB0:  MOVLW  02
06BB2:  ADDWFC xFE,W
06BB4:  MOVWF  FEA
06BB6:  MOVF   FEF,W
06BB8:  SUBLW  03
06BBA:  BNZ   6C08
....................       printf("A%Lu.txt=\"Termostato\"",i+1); 
06BBC:  MOVLW  01
06BBE:  ADDWF  xFD,W
06BC0:  MOVLB  6
06BC2:  MOVWF  x4B
06BC4:  MOVLW  00
06BC6:  MOVLB  1
06BC8:  ADDWFC xFE,W
06BCA:  MOVLB  6
06BCC:  MOVWF  x4C
06BCE:  MOVLW  41
06BD0:  BTFSS  F9E.4
06BD2:  BRA    6BD0
06BD4:  MOVWF  FAD
06BD6:  MOVLW  10
06BD8:  MOVWF  FE9
06BDA:  MOVFF  64C,652
06BDE:  MOVFF  64B,651
06BE2:  MOVLB  0
06BE4:  CALL   62B6
06BE8:  MOVLW  3C
06BEA:  MOVWF  FF6
06BEC:  MOVLW  04
06BEE:  MOVWF  FF7
06BF0:  MOVLW  00
06BF2:  MOVWF  FF8
06BF4:  MOVLW  11
06BF6:  MOVLB  6
06BF8:  MOVWF  x51
06BFA:  MOVLB  0
06BFC:  CALL   5AAC
....................       SendDataDisplay(); 
06C00:  CALL   427A
....................    }else if(ACiclos[i]==4){ 
06C04:  BRA    706C
06C06:  MOVLB  1
06C08:  MOVLW  AB
06C0A:  ADDWF  xFD,W
06C0C:  MOVWF  FE9
06C0E:  MOVLW  02
06C10:  ADDWFC xFE,W
06C12:  MOVWF  FEA
06C14:  MOVF   FEF,W
06C16:  SUBLW  04
06C18:  BNZ   6C66
....................       printf("A%Lu.txt=\"SobreT\"",i+1); 
06C1A:  MOVLW  01
06C1C:  ADDWF  xFD,W
06C1E:  MOVLB  6
06C20:  MOVWF  x4B
06C22:  MOVLW  00
06C24:  MOVLB  1
06C26:  ADDWFC xFE,W
06C28:  MOVLB  6
06C2A:  MOVWF  x4C
06C2C:  MOVLW  41
06C2E:  BTFSS  F9E.4
06C30:  BRA    6C2E
06C32:  MOVWF  FAD
06C34:  MOVLW  10
06C36:  MOVWF  FE9
06C38:  MOVFF  64C,652
06C3C:  MOVFF  64B,651
06C40:  MOVLB  0
06C42:  CALL   62B6
06C46:  MOVLW  52
06C48:  MOVWF  FF6
06C4A:  MOVLW  04
06C4C:  MOVWF  FF7
06C4E:  MOVLW  00
06C50:  MOVWF  FF8
06C52:  MOVLW  0D
06C54:  MOVLB  6
06C56:  MOVWF  x51
06C58:  MOVLB  0
06C5A:  CALL   5AAC
....................       SendDataDisplay(); 
06C5E:  CALL   427A
....................    }else if(ACiclos[i]==5){ 
06C62:  BRA    706C
06C64:  MOVLB  1
06C66:  MOVLW  AB
06C68:  ADDWF  xFD,W
06C6A:  MOVWF  FE9
06C6C:  MOVLW  02
06C6E:  ADDWFC xFE,W
06C70:  MOVWF  FEA
06C72:  MOVF   FEF,W
06C74:  SUBLW  05
06C76:  BNZ   6CC4
....................       printf("A%Lu.txt=\"Tiempo\"",i+1); 
06C78:  MOVLW  01
06C7A:  ADDWF  xFD,W
06C7C:  MOVLB  6
06C7E:  MOVWF  x4B
06C80:  MOVLW  00
06C82:  MOVLB  1
06C84:  ADDWFC xFE,W
06C86:  MOVLB  6
06C88:  MOVWF  x4C
06C8A:  MOVLW  41
06C8C:  BTFSS  F9E.4
06C8E:  BRA    6C8C
06C90:  MOVWF  FAD
06C92:  MOVLW  10
06C94:  MOVWF  FE9
06C96:  MOVFF  64C,652
06C9A:  MOVFF  64B,651
06C9E:  MOVLB  0
06CA0:  CALL   62B6
06CA4:  MOVLW  64
06CA6:  MOVWF  FF6
06CA8:  MOVLW  04
06CAA:  MOVWF  FF7
06CAC:  MOVLW  00
06CAE:  MOVWF  FF8
06CB0:  MOVLW  0D
06CB2:  MOVLB  6
06CB4:  MOVWF  x51
06CB6:  MOVLB  0
06CB8:  CALL   5AAC
....................       SendDataDisplay(); 
06CBC:  CALL   427A
....................    }else if(ACiclos[i]==6){ 
06CC0:  BRA    706C
06CC2:  MOVLB  1
06CC4:  MOVLW  AB
06CC6:  ADDWF  xFD,W
06CC8:  MOVWF  FE9
06CCA:  MOVLW  02
06CCC:  ADDWFC xFE,W
06CCE:  MOVWF  FEA
06CD0:  MOVF   FEF,W
06CD2:  SUBLW  06
06CD4:  BNZ   6D22
....................       printf("A%Lu.txt=\"Presion\"",i+1); 
06CD6:  MOVLW  01
06CD8:  ADDWF  xFD,W
06CDA:  MOVLB  6
06CDC:  MOVWF  x4B
06CDE:  MOVLW  00
06CE0:  MOVLB  1
06CE2:  ADDWFC xFE,W
06CE4:  MOVLB  6
06CE6:  MOVWF  x4C
06CE8:  MOVLW  41
06CEA:  BTFSS  F9E.4
06CEC:  BRA    6CEA
06CEE:  MOVWF  FAD
06CF0:  MOVLW  10
06CF2:  MOVWF  FE9
06CF4:  MOVFF  64C,652
06CF8:  MOVFF  64B,651
06CFC:  MOVLB  0
06CFE:  CALL   62B6
06D02:  MOVLW  76
06D04:  MOVWF  FF6
06D06:  MOVLW  04
06D08:  MOVWF  FF7
06D0A:  MOVLW  00
06D0C:  MOVWF  FF8
06D0E:  MOVLW  0E
06D10:  MOVLB  6
06D12:  MOVWF  x51
06D14:  MOVLB  0
06D16:  CALL   5AAC
....................       SendDataDisplay(); 
06D1A:  CALL   427A
....................    }else if(ACiclos[i]==7){ 
06D1E:  BRA    706C
06D20:  MOVLB  1
06D22:  MOVLW  AB
06D24:  ADDWF  xFD,W
06D26:  MOVWF  FE9
06D28:  MOVLW  02
06D2A:  ADDWFC xFE,W
06D2C:  MOVWF  FEA
06D2E:  MOVF   FEF,W
06D30:  SUBLW  07
06D32:  BNZ   6D80
....................       printf("A%Lu.txt=\"Bomba\"",i+1); 
06D34:  MOVLW  01
06D36:  ADDWF  xFD,W
06D38:  MOVLB  6
06D3A:  MOVWF  x4B
06D3C:  MOVLW  00
06D3E:  MOVLB  1
06D40:  ADDWFC xFE,W
06D42:  MOVLB  6
06D44:  MOVWF  x4C
06D46:  MOVLW  41
06D48:  BTFSS  F9E.4
06D4A:  BRA    6D48
06D4C:  MOVWF  FAD
06D4E:  MOVLW  10
06D50:  MOVWF  FE9
06D52:  MOVFF  64C,652
06D56:  MOVFF  64B,651
06D5A:  MOVLB  0
06D5C:  CALL   62B6
06D60:  MOVLW  8A
06D62:  MOVWF  FF6
06D64:  MOVLW  04
06D66:  MOVWF  FF7
06D68:  MOVLW  00
06D6A:  MOVWF  FF8
06D6C:  MOVLW  0C
06D6E:  MOVLB  6
06D70:  MOVWF  x51
06D72:  MOVLB  0
06D74:  CALL   5AAC
....................       SendDataDisplay(); 
06D78:  CALL   427A
....................    }else if(ACiclos[i]==8){ 
06D7C:  BRA    706C
06D7E:  MOVLB  1
06D80:  MOVLW  AB
06D82:  ADDWF  xFD,W
06D84:  MOVWF  FE9
06D86:  MOVLW  02
06D88:  ADDWFC xFE,W
06D8A:  MOVWF  FEA
06D8C:  MOVF   FEF,W
06D8E:  SUBLW  08
06D90:  BNZ   6DDE
....................       printf("A%Lu.txt=\"ErrorVacio\"",i+1); 
06D92:  MOVLW  01
06D94:  ADDWF  xFD,W
06D96:  MOVLB  6
06D98:  MOVWF  x4B
06D9A:  MOVLW  00
06D9C:  MOVLB  1
06D9E:  ADDWFC xFE,W
06DA0:  MOVLB  6
06DA2:  MOVWF  x4C
06DA4:  MOVLW  41
06DA6:  BTFSS  F9E.4
06DA8:  BRA    6DA6
06DAA:  MOVWF  FAD
06DAC:  MOVLW  10
06DAE:  MOVWF  FE9
06DB0:  MOVFF  64C,652
06DB4:  MOVFF  64B,651
06DB8:  MOVLB  0
06DBA:  CALL   62B6
06DBE:  MOVLW  9C
06DC0:  MOVWF  FF6
06DC2:  MOVLW  04
06DC4:  MOVWF  FF7
06DC6:  MOVLW  00
06DC8:  MOVWF  FF8
06DCA:  MOVLW  11
06DCC:  MOVLB  6
06DCE:  MOVWF  x51
06DD0:  MOVLB  0
06DD2:  CALL   5AAC
....................       SendDataDisplay(); 
06DD6:  CALL   427A
....................    }else if(ACiclos[i]==10){ 
06DDA:  BRA    706C
06DDC:  MOVLB  1
06DDE:  MOVLW  AB
06DE0:  ADDWF  xFD,W
06DE2:  MOVWF  FE9
06DE4:  MOVLW  02
06DE6:  ADDWFC xFE,W
06DE8:  MOVWF  FEA
06DEA:  MOVF   FEF,W
06DEC:  SUBLW  0A
06DEE:  BNZ   6E3C
....................       printf("A%Lu.txt=\"PreCale\"",i+1); 
06DF0:  MOVLW  01
06DF2:  ADDWF  xFD,W
06DF4:  MOVLB  6
06DF6:  MOVWF  x4B
06DF8:  MOVLW  00
06DFA:  MOVLB  1
06DFC:  ADDWFC xFE,W
06DFE:  MOVLB  6
06E00:  MOVWF  x4C
06E02:  MOVLW  41
06E04:  BTFSS  F9E.4
06E06:  BRA    6E04
06E08:  MOVWF  FAD
06E0A:  MOVLW  10
06E0C:  MOVWF  FE9
06E0E:  MOVFF  64C,652
06E12:  MOVFF  64B,651
06E16:  MOVLB  0
06E18:  CALL   62B6
06E1C:  MOVLW  B2
06E1E:  MOVWF  FF6
06E20:  MOVLW  04
06E22:  MOVWF  FF7
06E24:  MOVLW  00
06E26:  MOVWF  FF8
06E28:  MOVLW  0E
06E2A:  MOVLB  6
06E2C:  MOVWF  x51
06E2E:  MOVLB  0
06E30:  CALL   5AAC
....................       SendDataDisplay(); 
06E34:  CALL   427A
....................    }else if(ACiclos[i]==11){ 
06E38:  BRA    706C
06E3A:  MOVLB  1
06E3C:  MOVLW  AB
06E3E:  ADDWF  xFD,W
06E40:  MOVWF  FE9
06E42:  MOVLW  02
06E44:  ADDWFC xFE,W
06E46:  MOVWF  FEA
06E48:  MOVF   FEF,W
06E4A:  SUBLW  0B
06E4C:  BNZ   6E9A
....................       printf("A%Lu.txt=\"Vacio\"",i+1); 
06E4E:  MOVLW  01
06E50:  ADDWF  xFD,W
06E52:  MOVLB  6
06E54:  MOVWF  x4B
06E56:  MOVLW  00
06E58:  MOVLB  1
06E5A:  ADDWFC xFE,W
06E5C:  MOVLB  6
06E5E:  MOVWF  x4C
06E60:  MOVLW  41
06E62:  BTFSS  F9E.4
06E64:  BRA    6E62
06E66:  MOVWF  FAD
06E68:  MOVLW  10
06E6A:  MOVWF  FE9
06E6C:  MOVFF  64C,652
06E70:  MOVFF  64B,651
06E74:  MOVLB  0
06E76:  CALL   62B6
06E7A:  MOVLW  C6
06E7C:  MOVWF  FF6
06E7E:  MOVLW  04
06E80:  MOVWF  FF7
06E82:  MOVLW  00
06E84:  MOVWF  FF8
06E86:  MOVLW  0C
06E88:  MOVLB  6
06E8A:  MOVWF  x51
06E8C:  MOVLB  0
06E8E:  CALL   5AAC
....................       SendDataDisplay(); 
06E92:  CALL   427A
....................    }else if(ACiclos[i]==12){ 
06E96:  BRA    706C
06E98:  MOVLB  1
06E9A:  MOVLW  AB
06E9C:  ADDWF  xFD,W
06E9E:  MOVWF  FE9
06EA0:  MOVLW  02
06EA2:  ADDWFC xFE,W
06EA4:  MOVWF  FEA
06EA6:  MOVF   FEF,W
06EA8:  SUBLW  0C
06EAA:  BNZ   6EF8
....................       printf("A%Lu.txt=\"Calen\"",i+1); 
06EAC:  MOVLW  01
06EAE:  ADDWF  xFD,W
06EB0:  MOVLB  6
06EB2:  MOVWF  x4B
06EB4:  MOVLW  00
06EB6:  MOVLB  1
06EB8:  ADDWFC xFE,W
06EBA:  MOVLB  6
06EBC:  MOVWF  x4C
06EBE:  MOVLW  41
06EC0:  BTFSS  F9E.4
06EC2:  BRA    6EC0
06EC4:  MOVWF  FAD
06EC6:  MOVLW  10
06EC8:  MOVWF  FE9
06ECA:  MOVFF  64C,652
06ECE:  MOVFF  64B,651
06ED2:  MOVLB  0
06ED4:  CALL   62B6
06ED8:  MOVLW  D8
06EDA:  MOVWF  FF6
06EDC:  MOVLW  04
06EDE:  MOVWF  FF7
06EE0:  MOVLW  00
06EE2:  MOVWF  FF8
06EE4:  MOVLW  0C
06EE6:  MOVLB  6
06EE8:  MOVWF  x51
06EEA:  MOVLB  0
06EEC:  CALL   5AAC
....................       SendDataDisplay(); 
06EF0:  CALL   427A
....................    }else if(ACiclos[i]==13){ 
06EF4:  BRA    706C
06EF6:  MOVLB  1
06EF8:  MOVLW  AB
06EFA:  ADDWF  xFD,W
06EFC:  MOVWF  FE9
06EFE:  MOVLW  02
06F00:  ADDWFC xFE,W
06F02:  MOVWF  FEA
06F04:  MOVF   FEF,W
06F06:  SUBLW  0D
06F08:  BNZ   6F56
....................       printf("A%Lu.txt=\"Desfoga\"",i+1); 
06F0A:  MOVLW  01
06F0C:  ADDWF  xFD,W
06F0E:  MOVLB  6
06F10:  MOVWF  x4B
06F12:  MOVLW  00
06F14:  MOVLB  1
06F16:  ADDWFC xFE,W
06F18:  MOVLB  6
06F1A:  MOVWF  x4C
06F1C:  MOVLW  41
06F1E:  BTFSS  F9E.4
06F20:  BRA    6F1E
06F22:  MOVWF  FAD
06F24:  MOVLW  10
06F26:  MOVWF  FE9
06F28:  MOVFF  64C,652
06F2C:  MOVFF  64B,651
06F30:  MOVLB  0
06F32:  CALL   62B6
06F36:  MOVLW  EA
06F38:  MOVWF  FF6
06F3A:  MOVLW  04
06F3C:  MOVWF  FF7
06F3E:  MOVLW  00
06F40:  MOVWF  FF8
06F42:  MOVLW  0E
06F44:  MOVLB  6
06F46:  MOVWF  x51
06F48:  MOVLB  0
06F4A:  CALL   5AAC
....................       SendDataDisplay(); 
06F4E:  CALL   427A
....................    }else if(ACiclos[i]==14){ 
06F52:  BRA    706C
06F54:  MOVLB  1
06F56:  MOVLW  AB
06F58:  ADDWF  xFD,W
06F5A:  MOVWF  FE9
06F5C:  MOVLW  02
06F5E:  ADDWFC xFE,W
06F60:  MOVWF  FEA
06F62:  MOVF   FEF,W
06F64:  SUBLW  0E
06F66:  BNZ   6FB4
....................       printf("A%Lu.txt=\"Finalizado\"",i+1); 
06F68:  MOVLW  01
06F6A:  ADDWF  xFD,W
06F6C:  MOVLB  6
06F6E:  MOVWF  x4B
06F70:  MOVLW  00
06F72:  MOVLB  1
06F74:  ADDWFC xFE,W
06F76:  MOVLB  6
06F78:  MOVWF  x4C
06F7A:  MOVLW  41
06F7C:  BTFSS  F9E.4
06F7E:  BRA    6F7C
06F80:  MOVWF  FAD
06F82:  MOVLW  10
06F84:  MOVWF  FE9
06F86:  MOVFF  64C,652
06F8A:  MOVFF  64B,651
06F8E:  MOVLB  0
06F90:  CALL   62B6
06F94:  MOVLW  FE
06F96:  MOVWF  FF6
06F98:  MOVLW  04
06F9A:  MOVWF  FF7
06F9C:  MOVLW  00
06F9E:  MOVWF  FF8
06FA0:  MOVLW  11
06FA2:  MOVLB  6
06FA4:  MOVWF  x51
06FA6:  MOVLB  0
06FA8:  CALL   5AAC
....................       SendDataDisplay(); 
06FAC:  CALL   427A
....................    }else if(ACiclos[i]==15){ 
06FB0:  BRA    706C
06FB2:  MOVLB  1
06FB4:  MOVLW  AB
06FB6:  ADDWF  xFD,W
06FB8:  MOVWF  FE9
06FBA:  MOVLW  02
06FBC:  ADDWFC xFE,W
06FBE:  MOVWF  FEA
06FC0:  MOVF   FEF,W
06FC2:  SUBLW  0F
06FC4:  BNZ   7012
....................       printf("A%Lu.txt=\"Secando\"",i+1); 
06FC6:  MOVLW  01
06FC8:  ADDWF  xFD,W
06FCA:  MOVLB  6
06FCC:  MOVWF  x4B
06FCE:  MOVLW  00
06FD0:  MOVLB  1
06FD2:  ADDWFC xFE,W
06FD4:  MOVLB  6
06FD6:  MOVWF  x4C
06FD8:  MOVLW  41
06FDA:  BTFSS  F9E.4
06FDC:  BRA    6FDA
06FDE:  MOVWF  FAD
06FE0:  MOVLW  10
06FE2:  MOVWF  FE9
06FE4:  MOVFF  64C,652
06FE8:  MOVFF  64B,651
06FEC:  MOVLB  0
06FEE:  CALL   62B6
06FF2:  MOVLW  14
06FF4:  MOVWF  FF6
06FF6:  MOVLW  05
06FF8:  MOVWF  FF7
06FFA:  MOVLW  00
06FFC:  MOVWF  FF8
06FFE:  MOVLW  0E
07000:  MOVLB  6
07002:  MOVWF  x51
07004:  MOVLB  0
07006:  CALL   5AAC
....................       SendDataDisplay(); 
0700A:  CALL   427A
....................    }else if(ACiclos[i]==16){ 
0700E:  BRA    706C
07010:  MOVLB  1
07012:  MOVLW  AB
07014:  ADDWF  xFD,W
07016:  MOVWF  FE9
07018:  MOVLW  02
0701A:  ADDWFC xFE,W
0701C:  MOVWF  FEA
0701E:  MOVF   FEF,W
07020:  SUBLW  10
07022:  BNZ   706E
....................       printf("A%Lu.txt=\"Esterilizando\"",i+1); 
07024:  MOVLW  01
07026:  ADDWF  xFD,W
07028:  MOVLB  6
0702A:  MOVWF  x4B
0702C:  MOVLW  00
0702E:  MOVLB  1
07030:  ADDWFC xFE,W
07032:  MOVLB  6
07034:  MOVWF  x4C
07036:  MOVLW  41
07038:  BTFSS  F9E.4
0703A:  BRA    7038
0703C:  MOVWF  FAD
0703E:  MOVLW  10
07040:  MOVWF  FE9
07042:  MOVFF  64C,652
07046:  MOVFF  64B,651
0704A:  MOVLB  0
0704C:  CALL   62B6
07050:  MOVLW  28
07052:  MOVWF  FF6
07054:  MOVLW  05
07056:  MOVWF  FF7
07058:  MOVLW  00
0705A:  MOVWF  FF8
0705C:  MOVLW  14
0705E:  MOVLB  6
07060:  MOVWF  x51
07062:  MOVLB  0
07064:  CALL   5AAC
....................       SendDataDisplay(); 
07068:  CALL   427A
0706C:  MOVLB  1
....................    } 
.................... } 
0706E:  MOVLB  0
07070:  GOTO   D216 (RETURN)
....................  
.................... void sistemaBloqueo(short activa){ 
....................    if(activa && DOOR){ 
*
05564:  MOVLB  6
05566:  MOVF   x4B,F
05568:  BZ    5580
0556A:  BSF    F93.1
0556C:  BTFSC  F81.1
0556E:  BRA    5580
....................       output_bit(PIN_C1,1); 
05570:  BSF    F8B.1
05572:  BCF    F94.1
....................       output_bit(PIN_C2,0); 
05574:  BCF    F8B.2
05576:  BCF    F94.2
....................       Cilindro=ON; 
05578:  MOVLB  0
0557A:  BSF    xA3.0
....................    }else if(!activa){ 
0557C:  BRA    558C
0557E:  MOVLB  6
05580:  MOVF   x4B,F
05582:  BNZ   558C
....................       output_bit(PIN_C1,0); 
05584:  BCF    F8B.1
05586:  BCF    F94.1
....................       output_bit(PIN_C2,1); 
05588:  BSF    F8B.2
0558A:  BCF    F94.2
0558C:  MOVLB  0
....................    } 
.................... } 
0558E:  RETLW  00
....................  
.................... void ConfiguraCiclo(int8 este0,este1,este2,este3,secado0,secado1,secado2,secado3,liquidos,ciclo,temperatura){ 
....................    Testerilizacionp[0]=este0;Testerilizacionp[1]=este1;Testerilizacionp[2]=este2;Testerilizacionp[3]=este3; 
*
06250:  MOVFF  655,B9
06254:  MOVFF  656,BA
06258:  MOVFF  657,BB
0625C:  MOVFF  658,BC
....................    Tsecadop[0]=secado0;Tsecadop[1]=secado1;Tsecadop[2]=secado2;Tsecadop[3]=secado3; 
06260:  MOVFF  659,C1
06264:  MOVFF  65A,C2
06268:  MOVFF  65B,C3
0626C:  MOVFF  65C,C4
....................    Setpoint=temperatura;                
06270:  MOVFF  65F,1FF
....................    tiempo_secado=0; 
06274:  MOVLB  2
06276:  CLRF   x03
....................    if(Tsecadop[3]==0 && Tsecadop[2]==0){ 
06278:  MOVLB  0
0627A:  MOVF   xC4,F
0627C:  BNZ   6286
0627E:  MOVF   xC3,F
06280:  BNZ   6286
....................       desfoguelento=1; 
06282:  BSF    xAA.2
....................    }else{ 
06284:  BRA    6288
....................       desfoguelento=0; 
06286:  BCF    xAA.2
....................    } 
....................    CicloSeleccionado=ciclo;   
06288:  MOVFF  65E,1F5
....................    Testerilizacion[0]=Testerilizacionp[0];Testerilizacion[1]=Testerilizacionp[1];Testerilizacion[2]=Testerilizacionp[2];Testerilizacion[3]=Testerilizacionp[3]; 
0628C:  MOVFF  B9,B5
06290:  MOVFF  BA,B6
06294:  MOVFF  BB,B7
06298:  MOVFF  BC,B8
....................    Tsecado[0]=Tsecadop[0];Tsecado[1]=Tsecadop[1];Tsecado[2]=Tsecadop[2];Tsecado[3]=Tsecadop[3]; 
0629C:  MOVFF  C1,BD
062A0:  MOVFF  C2,BE
062A4:  MOVFF  C3,BF
062A8:  MOVFF  C4,C0
....................    if(!borra){ 
062AC:  BTFSC  xAA.5
062AE:  BRA    62B4
....................       borraDatoCiclo(); 
062B0:  BRA    5D00
....................       borra=ON; 
062B2:  BSF    xAA.5
....................    } 
.................... } 
062B4:  RETLW  00
....................  
....................  
....................  
.................... #int_rda HIGH 
.................... void serial_rx_isr(){ 
....................    Dato2=fgetc(); 
*
0053E:  BTFSS  F9E.5
00540:  BRA    053E
00542:  MOVFF  FAE,1EF
00546:  MOVLB  1
....................    if(Dato2==0x65){//Inicio Comunicacion 
00548:  MOVF   xEF,W
0054A:  SUBLW  65
0054C:  BNZ   0554
....................       Inicio=1; 
0054E:  MOVLW  01
00550:  MOVWF  xED
....................       RX_Wr_Index =0; 
00552:  CLRF   46
....................    } 
....................     
....................    if(Inicio==1){ 
00554:  DECFSZ xED,W
00556:  BRA    056C
....................       Rx_Buffer2[RX_Wr_Index] = Dato2; 
00558:  CLRF   03
0055A:  MOVF   46,W
0055C:  ADDLW  3B
0055E:  MOVWF  FE9
00560:  MOVLW  00
00562:  ADDWFC 03,W
00564:  MOVWF  FEA
00566:  MOVFF  1EF,FEF
....................       RX_Wr_Index++; 
0056A:  INCF   46,F
....................    } 
....................    if(RX_Wr_Index >= RX_BUFFER_SIZE){ 
0056C:  MOVF   46,W
0056E:  SUBLW  09
00570:  BC    0576
....................       RX_Wr_Index =0; 
00572:  CLRF   46
....................       Inicio=0; 
00574:  CLRF   xED
....................    } 
....................  
....................    if(RX_Wr_Index==0){ 
00576:  MOVF   46,F
00578:  BNZ   059A
....................       if(Rx_Buffer2[0]==0x65 && Rx_Buffer2[1]==0xff && Rx_Buffer2[2]==0xff && Rx_Buffer2[8]==0x00 && Rx_Buffer2[9]==0xff ){ 
0057A:  MOVF   3B,W
0057C:  SUBLW  65
0057E:  BNZ   0596
00580:  INCFSZ 3C,W
00582:  BRA    0596
00584:  INCFSZ 3D,W
00586:  BRA    0596
00588:  MOVF   43,F
0058A:  BNZ   0596
0058C:  INCFSZ 44,W
0058E:  BRA    0596
....................          Dato_Exitoso=5; 
00590:  MOVLW  05
00592:  MOVWF  xEE
....................       }else{ 
00594:  BRA    059A
....................          Dato_Exitoso=10; 
00596:  MOVLW  0A
00598:  MOVWF  xEE
....................       } 
....................    } 
....................     
....................    if(Menu==20) 
0059A:  MOVF   xF0,W
0059C:  SUBLW  14
0059E:  BNZ   05A4
....................      Buzzer_on; 
005A0:  BSF    F8B.5
005A2:  BCF    F94.5
.................... } 
....................  
005A4:  BCF    F9E.5
005A6:  MOVLB  0
005A8:  GOTO   00FE
.................... #int_TIMER1 
.................... void temp1s(void){ 
....................    set_timer1(40536); // Se repite cada 5ms 
005AC:  MOVLW  9E
005AE:  MOVWF  FCF
005B0:  MOVLW  58
005B2:  MOVWF  FCE
....................    tiempos++; 
005B4:  MOVLB  2
005B6:  INCF   x05,F
005B8:  BTFSC  FD8.2
005BA:  INCF   x06,F
....................    tiempos2++; 
005BC:  INCF   x07,F
005BE:  BTFSC  FD8.2
005C0:  INCF   x08,F
....................    tiempos3++; 
005C2:  INCF   x09,F
005C4:  BTFSC  FD8.2
005C6:  INCF   x0A,F
....................    tiempoctrl++; 
005C8:  INCF   x0B,F
005CA:  BTFSC  FD8.2
005CC:  INCF   x0C,F
....................     
....................    if(!STOP){ 
005CE:  BSF    F93.2
005D0:  BTFSS  F81.2
005D2:  BRA    05E0
....................       tStop++; 
005D4:  MOVLB  1
005D6:  INCF   xF9,F
005D8:  BTFSC  FD8.2
005DA:  INCF   xFA,F
....................    }else{ 
005DC:  BRA    05E6
005DE:  MOVLB  2
....................       tStop=0; 
005E0:  MOVLB  1
005E2:  CLRF   xFA
005E4:  CLRF   xF9
....................    } 
....................  
....................    if(flagAlarma) 
005E6:  MOVLB  0
005E8:  BTFSS  xA8.0
005EA:  BRA    05F6
....................       tbuzzer++; 
005EC:  MOVLB  2
005EE:  INCF   x2A,F
005F0:  BTFSC  FD8.2
005F2:  INCF   x2B,F
005F4:  MOVLB  0
....................        
....................    if(flagSilencio)    
005F6:  BTFSS  xA8.2
005F8:  BRA    0602
....................       tsilencio++; 
005FA:  MOVLB  2
005FC:  INCF   x2C,F
005FE:  BTFSC  FD8.2
00600:  INCF   x2D,F
....................  
....................    if(tiempos>=200){  // 12000 para que incremente cada minuto, 200para que incremente cada segundo. 
00602:  MOVLB  2
00604:  MOVF   x06,F
00606:  BNZ   0610
00608:  MOVF   x05,W
0060A:  SUBLW  C7
0060C:  BTFSC  FD8.0
0060E:  BRA    074C
....................       if(flagTC) 
00610:  MOVLB  0
00612:  BTFSS  xAA.7
00614:  BRA    061A
....................          TiempoControl++; 
00616:  MOVLB  2
00618:  INCF   x23,F
....................        
....................       tiemporecta++; 
0061A:  MOVLB  1
0061C:  INCF   xE9,F
....................        
....................       if(IniciaCiclo && tiempoImpresion<CalculoImpresion){ 
0061E:  MOVLB  0
00620:  BTFSS  xA3.2
00622:  BRA    0638
00624:  MOVLB  1
00626:  MOVF   xEC,W
00628:  MOVLB  2
0062A:  SUBWF  x04,W
0062C:  BTFSS  FD8.0
0062E:  BRA    0634
00630:  MOVLB  0
00632:  BRA    0638
....................          tiempoImpresion++; 
00634:  INCF   x04,F
....................       }else if(tiempoImpresion>=CalculoImpresion){ 
00636:  BRA    064A
00638:  MOVLB  1
0063A:  MOVF   xEC,W
0063C:  MOVLB  2
0063E:  SUBWF  x04,W
00640:  BNC   064A
....................          flagImprime=1; 
00642:  MOVLB  1
00644:  BSF    xE7.0
....................          tiempoImpresion=0; 
00646:  MOVLB  2
00648:  CLRF   x04
....................       } 
....................        
....................       if(guardaCiclo) 
0064A:  MOVLB  0
0064C:  BTFSS  xA2.7
0064E:  BRA    0656
....................          tguarda++; 
00650:  INCF   xB3,F
00652:  BTFSC  FD8.2
00654:  INCF   xB4,F
....................        
....................       if(IniciaCiclo && !Esterilizando && DOOR) 
00656:  BTFSS  xA3.2
00658:  BRA    066A
0065A:  BTFSC  xA3.3
0065C:  BRA    066A
0065E:  BSF    F93.1
00660:  BTFSC  F81.1
00662:  BRA    066A
....................          TiempoCiclo++; 
00664:  INCF   xAB,F
00666:  BTFSC  FD8.2
00668:  INCF   xAC,F
....................        
....................       if(SensadoNivel) 
0066A:  BTFSS  xA3.5
0066C:  BRA    0674
....................          TiempoSensadoNivel++; 
0066E:  INCF   xAD,F
00670:  BTFSC  FD8.2
00672:  INCF   xAE,F
....................        
....................       if(IniciaVacio) 
00674:  BTFSS  xA9.3
00676:  BRA    0682
....................          tvacio++;          
00678:  MOVLB  2
0067A:  INCF   x19,F
0067C:  BTFSC  FD8.2
0067E:  INCF   x1A,F
00680:  MOVLB  0
....................        
....................       if(IniciaVacio2) 
00682:  BTFSS  xA9.4
00684:  BRA    068E
....................          tbomba++; 
00686:  MOVLB  2
00688:  INCF   x17,F
0068A:  BTFSC  FD8.2
0068C:  INCF   x18,F
....................       
....................       tiempos=0;Lectura=1;tinicio++; 
0068E:  MOVLB  2
00690:  CLRF   x06
00692:  CLRF   x05
00694:  MOVLB  0
00696:  BSF    xAA.3
00698:  MOVLB  2
0069A:  INCF   x0F,F
0069C:  BTFSC  FD8.2
0069E:  INCF   x10,F
....................     
....................       if(Esterilizando && !Desfogando){                
006A0:  MOVLB  0
006A2:  BTFSS  xA3.3
006A4:  BRA    06F8
006A6:  BTFSC  xA3.6
006A8:  BRA    06F8
....................          if(Testerilizacion[0]>0){ 
006AA:  BTFSC  xB5.7
006AC:  BRA    06B8
006AE:  MOVF   xB5,W
006B0:  SUBLW  00
006B2:  BC    06B8
....................             Testerilizacion[0]--; 
006B4:  DECF   xB5,F
....................          }else if(Testerilizacion[1]>0){ 
006B6:  BRA    06F8
006B8:  BTFSC  xB6.7
006BA:  BRA    06CA
006BC:  MOVF   xB6,W
006BE:  SUBLW  00
006C0:  BC    06CA
....................             Testerilizacion[1]--; 
006C2:  DECF   xB6,F
....................             Testerilizacion[0]=9; 
006C4:  MOVLW  09
006C6:  MOVWF  xB5
....................          }else if(Testerilizacion[2]>0){ 
006C8:  BRA    06F8
006CA:  BTFSC  xB7.7
006CC:  BRA    06E0
006CE:  MOVF   xB7,W
006D0:  SUBLW  00
006D2:  BC    06E0
....................             Testerilizacion[2]--; 
006D4:  DECF   xB7,F
....................             Testerilizacion[1]=5; 
006D6:  MOVLW  05
006D8:  MOVWF  xB6
....................             Testerilizacion[0]=9; 
006DA:  MOVLW  09
006DC:  MOVWF  xB5
....................          }else if(Testerilizacion[3]>0){ 
006DE:  BRA    06F8
006E0:  BTFSC  xB8.7
006E2:  BRA    06F8
006E4:  MOVF   xB8,W
006E6:  SUBLW  00
006E8:  BC    06F8
....................             Testerilizacion[3]--; 
006EA:  DECF   xB8,F
....................             Testerilizacion[2]=9; 
006EC:  MOVLW  09
006EE:  MOVWF  xB7
....................             Testerilizacion[1]=5; 
006F0:  MOVLW  05
006F2:  MOVWF  xB6
....................             Testerilizacion[0]=9; 
006F4:  MOVLW  09
006F6:  MOVWF  xB5
....................          } 
....................       } 
....................        
....................       if(Secando){ 
006F8:  BTFSS  xA3.4
006FA:  BRA    074A
....................          if(Tsecado[0]>0){ 
006FC:  BTFSC  xBD.7
006FE:  BRA    070A
00700:  MOVF   xBD,W
00702:  SUBLW  00
00704:  BC    070A
....................             Tsecado[0]--; 
00706:  DECF   xBD,F
....................          }else if(Tsecado[1]>0){ 
00708:  BRA    074A
0070A:  BTFSC  xBE.7
0070C:  BRA    071C
0070E:  MOVF   xBE,W
00710:  SUBLW  00
00712:  BC    071C
....................             Tsecado[1]--; 
00714:  DECF   xBE,F
....................             Tsecado[0]=9; 
00716:  MOVLW  09
00718:  MOVWF  xBD
....................          }else if(Tsecado[2]>0){ 
0071A:  BRA    074A
0071C:  BTFSC  xBF.7
0071E:  BRA    0732
00720:  MOVF   xBF,W
00722:  SUBLW  00
00724:  BC    0732
....................             Tsecado[2]--; 
00726:  DECF   xBF,F
....................             Tsecado[1]=5; 
00728:  MOVLW  05
0072A:  MOVWF  xBE
....................             Tsecado[0]=9; 
0072C:  MOVLW  09
0072E:  MOVWF  xBD
....................          }else if(Tsecado[3]>0){ 
00730:  BRA    074A
00732:  BTFSC  xC0.7
00734:  BRA    074A
00736:  MOVF   xC0,W
00738:  SUBLW  00
0073A:  BC    074A
....................             Tsecado[3]--; 
0073C:  DECF   xC0,F
....................             Tsecado[2]=9; 
0073E:  MOVLW  09
00740:  MOVWF  xBF
....................             Tsecado[1]=5; 
00742:  MOVLW  05
00744:  MOVWF  xBE
....................             Tsecado[0]=9; 
00746:  MOVLW  09
00748:  MOVWF  xBD
0074A:  MOVLB  2
....................          } 
....................       } 
....................    } 
.................... } 
....................  
0074C:  BCF    F9E.0
0074E:  MOVLB  0
00750:  GOTO   0068
.................... void main() 
.................... { 
*
07BF4:  CLRF   FF8
07BF6:  BCF    F9F.0
07BF8:  BSF    F9F.5
07BFA:  BSF    FD0.7
07BFC:  BSF    07.7
07BFE:  CLRF   FEA
07C00:  CLRF   FE9
07C02:  BSF    FB8.3
07C04:  MOVLW  08
07C06:  MOVWF  FAF
07C08:  MOVLW  02
07C0A:  MOVWF  FB0
07C0C:  MOVLW  A6
07C0E:  MOVWF  FAC
07C10:  MOVLW  90
07C12:  MOVWF  FAB
07C14:  CLRF   46
07C16:  CLRF   x87
07C18:  CLRF   x88
07C1A:  CLRF   x89
07C1C:  BCF    xA2.0
07C1E:  BCF    xA2.1
07C20:  BCF    xA2.2
07C22:  BCF    xA2.3
07C24:  BCF    xA2.4
07C26:  BCF    xA2.5
07C28:  BCF    xA2.6
07C2A:  BCF    xA2.7
07C2C:  BCF    xA3.0
07C2E:  MOVLW  02
07C30:  MOVWF  xA5
07C32:  MOVLW  58
07C34:  MOVWF  xA4
07C36:  BCF    xA3.1
07C38:  BCF    xA3.2
07C3A:  BCF    xA3.3
07C3C:  BCF    xA3.4
07C3E:  BCF    xA3.5
07C40:  BCF    xA3.6
07C42:  BCF    xA3.7
07C44:  BCF    xA6.0
07C46:  BCF    xA6.1
07C48:  BCF    xA6.2
07C4A:  BCF    xA6.3
07C4C:  BCF    xA6.4
07C4E:  BCF    xA6.5
07C50:  BCF    xA6.6
07C52:  BCF    xA6.7
07C54:  BCF    xA7.0
07C56:  BCF    xA7.1
07C58:  BCF    xA7.2
07C5A:  BCF    xA7.3
07C5C:  BCF    xA7.4
07C5E:  BCF    xA7.5
07C60:  BCF    xA7.6
07C62:  BCF    xA7.7
07C64:  BCF    xA8.0
07C66:  BCF    xA8.1
07C68:  BCF    xA8.2
07C6A:  BCF    xA8.3
07C6C:  BCF    xA8.4
07C6E:  BCF    xA8.5
07C70:  BCF    xA8.6
07C72:  BCF    xA8.7
07C74:  BCF    xA9.0
07C76:  BCF    xA9.1
07C78:  BCF    xA9.2
07C7A:  BCF    xA9.3
07C7C:  BCF    xA9.4
07C7E:  BCF    xA9.5
07C80:  BCF    xA9.6
07C82:  BCF    xA9.7
07C84:  BCF    xAA.0
07C86:  BCF    xAA.1
07C88:  CLRF   xAC
07C8A:  CLRF   xAB
07C8C:  CLRF   xAE
07C8E:  CLRF   xAD
07C90:  CLRF   xB0
07C92:  CLRF   xAF
07C94:  CLRF   xB2
07C96:  CLRF   xB1
07C98:  CLRF   xB4
07C9A:  CLRF   xB3
07C9C:  MOVLB  1
07C9E:  CLRF   x68
07CA0:  CLRF   x67
07CA2:  CLRF   x66
07CA4:  CLRF   x65
07CA6:  CLRF   x6C
07CA8:  MOVLW  80
07CAA:  MOVWF  x6B
07CAC:  MOVLW  3B
07CAE:  MOVWF  x6A
07CB0:  MOVLW  8A
07CB2:  MOVWF  x69
07CB4:  CLRF   x70
07CB6:  MOVLW  C0
07CB8:  MOVWF  x6F
07CBA:  MOVLW  41
07CBC:  MOVWF  x6E
07CBE:  MOVLW  8A
07CC0:  MOVWF  x6D
07CC2:  CLRF   x74
07CC4:  MOVLW  C0
07CC6:  MOVWF  x73
07CC8:  MOVLW  41
07CCA:  MOVWF  x72
07CCC:  MOVLW  8A
07CCE:  MOVWF  x71
07CD0:  CLRF   x78
07CD2:  MOVLW  C0
07CD4:  MOVWF  x77
07CD6:  MOVLW  41
07CD8:  MOVWF  x76
07CDA:  MOVLW  8A
07CDC:  MOVWF  x75
07CDE:  CLRF   x7C
07CE0:  CLRF   x7B
07CE2:  CLRF   x7A
07CE4:  CLRF   x79
07CE6:  CLRF   x80
07CE8:  CLRF   x7F
07CEA:  CLRF   x7E
07CEC:  CLRF   x7D
07CEE:  CLRF   x8C
07CF0:  CLRF   x8B
07CF2:  CLRF   x8A
07CF4:  CLRF   x89
07CF6:  CLRF   x90
07CF8:  CLRF   x8F
07CFA:  CLRF   x8E
07CFC:  CLRF   x8D
07CFE:  CLRF   x91
07D00:  CLRF   x92
07D02:  MOVLW  14
07D04:  MOVWF  x93
07D06:  CLRF   x94
07D08:  CLRF   x95
07D0A:  CLRF   x96
07D0C:  CLRF   x9A
07D0E:  CLRF   x99
07D10:  CLRF   x98
07D12:  CLRF   x97
07D14:  CLRF   xA2
07D16:  CLRF   xA1
07D18:  MOVLW  20
07D1A:  MOVWF  xA0
07D1C:  MOVLW  82
07D1E:  MOVWF  x9F
07D20:  CLRF   xA6
07D22:  CLRF   xA5
07D24:  CLRF   xA4
07D26:  CLRF   xA3
07D28:  CLRF   xAA
07D2A:  CLRF   xA9
07D2C:  CLRF   xA8
07D2E:  CLRF   xA7
07D30:  CLRF   xAE
07D32:  CLRF   xAD
07D34:  CLRF   xAC
07D36:  CLRF   xAB
07D38:  CLRF   xB2
07D3A:  CLRF   xB1
07D3C:  CLRF   xB0
07D3E:  CLRF   xAF
07D40:  CLRF   xB6
07D42:  CLRF   xB5
07D44:  CLRF   xB4
07D46:  CLRF   xB3
07D48:  CLRF   xBA
07D4A:  CLRF   xB9
07D4C:  MOVLW  48
07D4E:  MOVWF  xB8
07D50:  MOVLW  83
07D52:  MOVWF  xB7
07D54:  CLRF   xBE
07D56:  CLRF   xBD
07D58:  MOVLW  20
07D5A:  MOVWF  xBC
07D5C:  MOVLW  83
07D5E:  MOVWF  xBB
07D60:  CLRF   xC2
07D62:  CLRF   xC1
07D64:  CLRF   xC0
07D66:  MOVLW  7F
07D68:  MOVWF  xBF
07D6A:  CLRF   xC6
07D6C:  CLRF   xC5
07D6E:  CLRF   xC4
07D70:  CLRF   xC3
07D72:  CLRF   xCA
07D74:  CLRF   xC9
07D76:  CLRF   xC8
07D78:  CLRF   xC7
07D7A:  CLRF   xCE
07D7C:  CLRF   xCD
07D7E:  CLRF   xCC
07D80:  CLRF   xCB
07D82:  CLRF   xD2
07D84:  CLRF   xD1
07D86:  CLRF   xD0
07D88:  CLRF   xCF
07D8A:  CLRF   xD6
07D8C:  CLRF   xD5
07D8E:  CLRF   xD4
07D90:  CLRF   xD3
07D92:  CLRF   xDA
07D94:  CLRF   xD9
07D96:  CLRF   xD8
07D98:  CLRF   xD7
07D9A:  MOVLW  E0
07D9C:  MOVWF  xDE
07D9E:  MOVLW  2D
07DA0:  MOVWF  xDD
07DA2:  MOVLW  10
07DA4:  MOVWF  xDC
07DA6:  MOVLW  75
07DA8:  MOVWF  xDB
07DAA:  MOVLW  FF
07DAC:  MOVWF  xE2
07DAE:  MOVLW  21
07DB0:  MOVWF  xE1
07DB2:  MOVLW  15
07DB4:  MOVWF  xE0
07DB6:  MOVLW  80
07DB8:  MOVWF  xDF
07DBA:  MOVLW  82
07DBC:  MOVWF  xE6
07DBE:  MOVLW  12
07DC0:  MOVWF  xE5
07DC2:  MOVLW  F4
07DC4:  MOVWF  xE4
07DC6:  MOVLW  86
07DC8:  MOVWF  xE3
07DCA:  MOVLB  0
07DCC:  BCF    xAA.2
07DCE:  BCF    xAA.3
07DD0:  BCF    xAA.4
07DD2:  BCF    xAA.5
07DD4:  BCF    xAA.6
07DD6:  BCF    xAA.7
07DD8:  MOVLB  1
07DDA:  BCF    xE7.0
07DDC:  CLRF   xE8
07DDE:  CLRF   xE9
07DE0:  CLRF   xEA
07DE2:  MOVLW  02
07DE4:  MOVWF  xEB
07DE6:  CLRF   xEC
07DE8:  MOVLW  01
07DEA:  MOVWF  xED
07DEC:  CLRF   xEE
07DEE:  CLRF   xEF
07DF0:  CLRF   xF0
07DF2:  CLRF   xF1
07DF4:  MOVLW  F0
07DF6:  MOVWF  xF2
07DF8:  CLRF   xF3
07DFA:  CLRF   xF4
07DFC:  CLRF   xF5
07DFE:  CLRF   xF6
07E00:  CLRF   xF8
07E02:  MOVLW  04
07E04:  MOVWF  xF7
07E06:  CLRF   xFA
07E08:  CLRF   xF9
07E0A:  CLRF   xFC
07E0C:  CLRF   xFB
07E0E:  CLRF   xFE
07E10:  CLRF   xFD
07E12:  CLRF   xFF
07E14:  MOVLW  01
07E16:  MOVLB  2
07E18:  MOVWF  x00
07E1A:  MOVWF  x01
07E1C:  CLRF   x02
07E1E:  CLRF   x03
07E20:  CLRF   x04
07E22:  CLRF   x06
07E24:  CLRF   x05
07E26:  CLRF   x08
07E28:  CLRF   x07
07E2A:  CLRF   x0A
07E2C:  CLRF   x09
07E2E:  CLRF   x0C
07E30:  CLRF   x0B
07E32:  CLRF   x0E
07E34:  CLRF   x0D
07E36:  CLRF   x10
07E38:  CLRF   x0F
07E3A:  CLRF   x12
07E3C:  CLRF   x11
07E3E:  CLRF   x14
07E40:  CLRF   x13
07E42:  CLRF   x16
07E44:  CLRF   x15
07E46:  CLRF   x18
07E48:  CLRF   x17
07E4A:  CLRF   x1A
07E4C:  CLRF   x19
07E4E:  CLRF   x1F
07E50:  CLRF   x20
07E52:  CLRF   x21
07E54:  CLRF   x22
07E56:  CLRF   x23
07E58:  CLRF   x24
07E5A:  CLRF   x25
07E5C:  CLRF   x26
07E5E:  CLRF   x27
07E60:  CLRF   x28
07E62:  CLRF   x29
07E64:  CLRF   x2B
07E66:  CLRF   x2A
07E68:  CLRF   x2D
07E6A:  CLRF   x2C
07E6C:  CLRF   x2F
07E6E:  CLRF   x2E
07E70:  CLRF   x31
07E72:  CLRF   x30
07E74:  CLRF   x33
07E76:  CLRF   x32
07E78:  MOVLW  12
07E7A:  MOVWF  x34
07E7C:  MOVLW  09
07E7E:  MOVWF  x35
07E80:  MOVLW  0D
07E82:  MOVWF  x36
07E84:  CLRF   x37
07E86:  CLRF   x38
07E88:  CLRF   x39
07E8A:  CLRF   x3A
07E8C:  MOVLW  19
07E8E:  MOVWF  x3B
07E90:  MOVLW  4B
07E92:  MOVWF  x3C
07E94:  MOVLW  0A
07E96:  MOVWF  x3D
07E98:  CLRF   x3E
07E9A:  CLRF   x3F
07E9C:  CLRF   x40
07E9E:  CLRF   x41
07EA0:  CLRF   x42
07EA2:  CLRF   x43
07EA4:  CLRF   x44
07EA6:  CLRF   x45
07EA8:  CLRF   x46
07EAA:  CLRF   x47
07EAC:  CLRF   x48
07EAE:  CLRF   x49
07EB0:  CLRF   x4A
07EB2:  CLRF   x4B
07EB4:  CLRF   x4C
07EB6:  CLRF   x4D
07EB8:  CLRF   x4E
07EBA:  CLRF   x4F
07EBC:  CLRF   x50
07EBE:  CLRF   xB2
07EC0:  CLRF   xB3
07EC2:  CLRF   xB4
07EC4:  CLRF   xB5
07EC6:  CLRF   xB6
07EC8:  MOVF   FC1,W
07ECA:  ANDLW  C0
07ECC:  IORLW  0F
07ECE:  MOVWF  FC1
07ED0:  MOVLW  07
07ED2:  MOVWF  FB4
07ED4:  CLRF   2A
07ED6:  CLRF   2B
07ED8:  MOVLB  0
07EDA:  CLRF   x8A
07EDC:  MOVLW  03
07EDE:  MOVWF  x8B
07EE0:  MOVWF  x8C
07EE2:  MOVLW  06
07EE4:  MOVWF  x8D
07EE6:  MOVLW  01
07EE8:  MOVWF  x8E
07EEA:  MOVLW  04
07EEC:  MOVWF  x8F
07EEE:  MOVLW  06
07EF0:  MOVWF  x90
07EF2:  MOVLW  02
07EF4:  MOVWF  x91
07EF6:  MOVLW  05
07EF8:  MOVWF  x92
07EFA:  CLRF   x93
07EFC:  MOVLW  03
07EFE:  MOVWF  x94
07F00:  MOVLW  05
07F02:  MOVWF  x95
07F04:  CLRF   x96
07F06:  MOVLW  03
07F08:  MOVWF  x97
07F0A:  MOVLW  04
07F0C:  MOVWF  x98
07F0E:  CLRF   x99
07F10:  MOVLW  02
07F12:  MOVWF  x9A
07F14:  MOVLW  05
07F16:  MOVWF  x9B
07F18:  CLRF   x9C
07F1A:  MOVLW  03
07F1C:  MOVWF  x9D
07F1E:  MOVLW  06
07F20:  MOVWF  x9E
07F22:  MOVLW  01
07F24:  MOVWF  x9F
07F26:  MOVLW  04
07F28:  MOVWF  xA0
07F2A:  MOVLW  06
07F2C:  MOVWF  xA1
07F2E:  CLRF   xB5
07F30:  CLRF   xB6
07F32:  CLRF   xB7
07F34:  CLRF   xB8
07F36:  CLRF   xB9
07F38:  CLRF   xBA
07F3A:  CLRF   xBB
07F3C:  CLRF   xBC
07F3E:  CLRF   xBD
07F40:  CLRF   xBE
07F42:  CLRF   xBF
07F44:  CLRF   xC0
07F46:  CLRF   xC1
07F48:  CLRF   xC2
07F4A:  CLRF   xC3
07F4C:  CLRF   xC4
07F4E:  CLRF   xC5
07F50:  CLRF   xC6
07F52:  CLRF   xC7
07F54:  CLRF   xC8
07F56:  CLRF   xC9
07F58:  CLRF   xCA
07F5A:  CLRF   xCB
07F5C:  CLRF   xCC
07F5E:  CLRF   xCD
07F60:  CLRF   xCE
07F62:  CLRF   xCF
07F64:  CLRF   xD0
07F66:  CLRF   xD1
07F68:  CLRF   xD2
07F6A:  CLRF   xD3
07F6C:  CLRF   xD4
07F6E:  CLRF   xD5
07F70:  CLRF   xD6
07F72:  CLRF   xD7
07F74:  CLRF   xD8
07F76:  CLRF   xD9
07F78:  CLRF   xDA
07F7A:  CLRF   xDB
07F7C:  CLRF   xDC
07F7E:  CLRF   xDD
07F80:  CLRF   xDE
07F82:  CLRF   xDF
07F84:  CLRF   xE0
07F86:  CLRF   xE1
07F88:  CLRF   xE2
07F8A:  CLRF   xE3
07F8C:  CLRF   xE4
07F8E:  CLRF   xE5
07F90:  CLRF   xE6
07F92:  CLRF   xE7
07F94:  CLRF   xE8
07F96:  CLRF   xE9
07F98:  CLRF   xEA
07F9A:  CLRF   xEB
07F9C:  CLRF   xEC
07F9E:  CLRF   xED
07FA0:  CLRF   xEE
07FA2:  CLRF   xEF
07FA4:  CLRF   xF0
07FA6:  CLRF   xF1
07FA8:  CLRF   xF2
07FAA:  CLRF   xF3
07FAC:  CLRF   xF4
07FAE:  CLRF   xF5
07FB0:  CLRF   xF6
07FB2:  CLRF   xF7
07FB4:  CLRF   xF8
07FB6:  CLRF   xF9
07FB8:  CLRF   xFA
07FBA:  CLRF   xFB
07FBC:  CLRF   xFC
07FBE:  CLRF   xFD
07FC0:  CLRF   xFE
07FC2:  CLRF   xFF
07FC4:  MOVLB  1
07FC6:  CLRF   x00
07FC8:  CLRF   x01
07FCA:  CLRF   x02
07FCC:  CLRF   x03
07FCE:  CLRF   x04
07FD0:  CLRF   x05
07FD2:  CLRF   x06
07FD4:  CLRF   x07
07FD6:  CLRF   x08
07FD8:  CLRF   x09
07FDA:  CLRF   x0A
07FDC:  CLRF   x0B
07FDE:  CLRF   x0C
07FE0:  CLRF   x0D
07FE2:  CLRF   x0E
07FE4:  CLRF   x0F
07FE6:  CLRF   x10
07FE8:  CLRF   x11
07FEA:  CLRF   x12
07FEC:  CLRF   x13
07FEE:  CLRF   x14
07FF0:  CLRF   x15
07FF2:  CLRF   x16
07FF4:  CLRF   x17
07FF6:  CLRF   x18
07FF8:  CLRF   x19
07FFA:  CLRF   x1A
07FFC:  CLRF   x1B
07FFE:  CLRF   x1C
08000:  CLRF   x1D
08002:  CLRF   x1E
08004:  CLRF   x1F
08006:  CLRF   x20
08008:  CLRF   x21
0800A:  CLRF   x22
0800C:  CLRF   x23
0800E:  CLRF   x24
08010:  CLRF   x25
08012:  CLRF   x26
08014:  CLRF   x27
08016:  CLRF   x28
08018:  CLRF   x29
0801A:  CLRF   x2A
0801C:  CLRF   x2B
0801E:  CLRF   x2C
08020:  CLRF   x2D
08022:  CLRF   x2E
08024:  CLRF   x2F
08026:  CLRF   x30
08028:  CLRF   x31
0802A:  CLRF   x32
0802C:  CLRF   x33
0802E:  CLRF   x34
08030:  CLRF   x35
08032:  CLRF   x36
08034:  CLRF   x37
08036:  CLRF   x38
08038:  CLRF   x39
0803A:  CLRF   x3A
0803C:  CLRF   x3B
0803E:  CLRF   x3C
08040:  CLRF   x3D
08042:  CLRF   x3E
08044:  CLRF   x3F
08046:  CLRF   x40
08048:  CLRF   x41
0804A:  CLRF   x42
0804C:  CLRF   x43
0804E:  CLRF   x44
08050:  CLRF   x45
08052:  CLRF   x46
08054:  CLRF   x47
08056:  CLRF   x48
08058:  CLRF   x49
0805A:  CLRF   x4A
0805C:  CLRF   x4B
0805E:  CLRF   x4C
08060:  CLRF   x4D
08062:  CLRF   x4E
08064:  CLRF   x4F
08066:  CLRF   x50
08068:  CLRF   x51
0806A:  CLRF   x52
0806C:  CLRF   x53
0806E:  CLRF   x54
08070:  CLRF   x55
08072:  CLRF   x56
08074:  CLRF   x57
08076:  CLRF   x58
08078:  CLRF   x59
0807A:  CLRF   x5A
0807C:  CLRF   x5B
0807E:  CLRF   x5C
08080:  CLRF   x5D
08082:  CLRF   x5E
08084:  CLRF   x5F
08086:  CLRF   x60
08088:  CLRF   x61
0808A:  CLRF   x62
0808C:  CLRF   x63
0808E:  CLRF   x64
08090:  CLRF   x81
08092:  CLRF   x82
08094:  CLRF   x83
08096:  CLRF   x84
08098:  CLRF   x85
0809A:  CLRF   x86
0809C:  CLRF   x87
0809E:  CLRF   x88
080A0:  MOVLB  2
080A2:  CLRF   x1B
080A4:  CLRF   x1C
080A6:  CLRF   x1D
080A8:  CLRF   x1E
080AA:  CLRF   xB7
080AC:  CLRF   xB8
080AE:  CLRF   xB9
080B0:  CLRF   xBA
....................    setup_timer_1(T1_INTERNAL|T1_DIV_BY_1); 
080B2:  MOVLW  85
080B4:  MOVWF  FCD
....................    enable_interrupts(INT_TIMER1); 
080B6:  BSF    F9D.0
....................    setup_adc_ports(AN0_TO_AN3); 
080B8:  MOVF   FC1,W
080BA:  ANDLW  C0
080BC:  IORLW  0B
080BE:  MOVWF  FC1
....................    setup_adc(ADC_CLOCK_DIV_64); 
080C0:  MOVF   FC0,W
080C2:  ANDLW  C0
080C4:  IORLW  06
080C6:  MOVWF  FC0
080C8:  BSF    FC0.7
080CA:  BSF    FC2.0
....................    port_b_pullups(true); 
080CC:  BCF    FF1.7
....................    enable_interrupts(int_rda); 
080CE:  BSF    F9D.5
....................    setup_wdt(WDT_ON); 
080D0:  BSF    FD1.0
....................    enable_interrupts(global); 
080D2:  MOVLW  C0
080D4:  IORWF  FF2,F
....................    LeeEEPROM(); 
080D6:  MOVLB  0
080D8:  GOTO   2644
....................    //rtc_init(); 
....................    delay_ms(1); 
080DC:  MOVLW  01
080DE:  MOVLB  6
080E0:  MOVWF  x64
080E2:  MOVLB  0
080E4:  CALL   1F6E
....................    LimitaValores(); 
080E8:  GOTO   3D88
....................    CalculoImpresion=timpresion*60; 
080EC:  MOVLB  1
080EE:  MOVF   xEB,W
080F0:  MULLW  3C
080F2:  MOVFF  FF3,1EC
....................    printf("page Bienvenida"); 
080F6:  MOVLW  54
080F8:  MOVWF  FF6
080FA:  MOVLW  07
080FC:  MOVWF  FF7
080FE:  MOVLW  00
08100:  MOVWF  FF8
08102:  MOVLB  0
08104:  CALL   4248
....................    SendDataDisplay(); 
08108:  CALL   427A
....................    printf("bkcmd=0"); 
0810C:  MOVLW  64
0810E:  MOVWF  FF6
08110:  MOVLW  07
08112:  MOVWF  FF7
08114:  MOVLW  00
08116:  MOVWF  FF8
08118:  CALL   4248
....................    SendDataDisplay(); 
0811C:  CALL   427A
....................    delay_ms(3500);  
08120:  MOVLW  0E
08122:  MOVLB  6
08124:  MOVWF  x4B
08126:  MOVLW  FA
08128:  MOVWF  x64
0812A:  MOVLB  0
0812C:  CALL   1F6E
08130:  MOVLB  6
08132:  DECFSZ x4B,F
08134:  BRA    8126
....................    printf("page Usuarios"); 
08136:  MOVLW  6C
08138:  MOVWF  FF6
0813A:  MOVLW  07
0813C:  MOVWF  FF7
0813E:  MOVLW  00
08140:  MOVWF  FF8
08142:  MOVLB  0
08144:  CALL   4248
....................    SendDataDisplay(); 
08148:  CALL   427A
....................    ApagaSalidas(); 
0814C:  CALL   42B0
....................    AN=1023*(R8+R9); 
08150:  BCF    FD8.1
08152:  MOVFF  170,666
08156:  MOVFF  16F,665
0815A:  MOVFF  16E,664
0815E:  MOVFF  16D,663
08162:  MOVFF  174,66A
08166:  MOVFF  173,669
0816A:  MOVFF  172,668
0816E:  MOVFF  171,667
08172:  CALL   20F4
08176:  MOVLB  6
08178:  CLRF   x64
0817A:  MOVLW  C0
0817C:  MOVWF  x63
0817E:  MOVLW  7F
08180:  MOVWF  x62
08182:  MOVLW  88
08184:  MOVWF  x61
08186:  MOVFF  03,668
0818A:  MOVFF  02,667
0818E:  MOVFF  01,666
08192:  MOVFF  00,665
08196:  MOVLB  0
08198:  CALL   42D8
0819C:  MOVFF  03,17C
081A0:  MOVFF  02,17B
081A4:  MOVFF  01,17A
081A8:  MOVFF  00,179
....................    //TiempoVacio=CantidadPulsos*360;  
....................    TiempoVacio=360;  
081AC:  MOVLW  01
081AE:  MOVWF  xA5
081B0:  MOVLW  68
081B2:  MOVWF  xA4
....................    Sensor[0].Gain=152.53; 
081B4:  MOVLW  AE
081B6:  MOVLB  4
081B8:  MOVWF  x1E
081BA:  MOVLW  87
081BC:  MOVWF  x1D
081BE:  MOVLW  18
081C0:  MOVWF  x1C
081C2:  MOVLW  86
081C4:  MOVWF  x1B
....................    Sensor[1].Gain=151.61; 
081C6:  MOVLW  29
081C8:  MOVLB  5
081CA:  MOVWF  x82
081CC:  MOVLW  9C
081CE:  MOVWF  x81
081D0:  MOVLW  17
081D2:  MOVWF  x80
081D4:  MOVLW  86
081D6:  MOVWF  x7F
....................     
....................    for(i=0;i<MediaMovil;i++){ 
081D8:  MOVLB  1
081DA:  CLRF   xFE
081DC:  CLRF   xFD
081DE:  MOVF   xFE,F
081E0:  BNZ   8230
081E2:  MOVF   x93,W
081E4:  SUBWF  xFD,W
081E6:  BC    8230
....................       Temperatura=LeerPT100(1,MediaMovil); 
081E8:  MOVLW  01
081EA:  MOVLB  6
081EC:  MOVWF  x4B
081EE:  MOVFF  193,64C
081F2:  MOVLB  0
081F4:  CALL   4426
081F8:  MOVFF  03,1D6
081FC:  MOVFF  02,1D5
08200:  MOVFF  01,1D4
08204:  MOVFF  00,1D3
....................       Temperatura2=LeerPT100(0,MediaMovil); 
08208:  MOVLB  6
0820A:  CLRF   x4B
0820C:  MOVFF  193,64C
08210:  MOVLB  0
08212:  CALL   4426
08216:  MOVFF  03,1DA
0821A:  MOVFF  02,1D9
0821E:  MOVFF  01,1D8
08222:  MOVFF  00,1D7
....................    } 
08226:  MOVLB  1
08228:  INCF   xFD,F
0822A:  BTFSC  FD8.2
0822C:  INCF   xFE,F
0822E:  BRA    81DE
....................     
....................    while(true) 
....................    { 
....................       //rtc_get_date(Dia,Mes,Year,dow); 
....................       //rtc_get_time(Hora,Minuto,Segundo); 
....................       LeeDisplay(); 
08230:  MOVLB  0
08232:  GOTO   502E
....................       Envio_Esclavos(); 
08236:  CALL   5416
....................       delay_ms(1); 
0823A:  MOVLW  01
0823C:  MOVLB  6
0823E:  MOVWF  x64
08240:  MOVLB  0
08242:  CALL   1F6E
....................       Lectura_Esclavos(); 
08246:  GOTO   5488
....................       restart_wdt(); 
0824A:  CLRWDT
....................        
....................       if(!PruebaEstados){ 
0824C:  BTFSC  xA6.4
0824E:  BRA    82A6
....................          if(Temperatura2>40) 
08250:  MOVLB  6
08252:  CLRF   x52
08254:  CLRF   x51
08256:  MOVLW  20
08258:  MOVWF  x50
0825A:  MOVLW  84
0825C:  MOVWF  x4F
0825E:  MOVFF  1DA,656
08262:  MOVFF  1D9,655
08266:  MOVFF  1D8,654
0826A:  MOVFF  1D7,653
0826E:  MOVLB  0
08270:  CALL   25CA
08274:  BNC   827C
....................             Agua2_on; 
08276:  BSF    F8C.7
08278:  BCF    F95.7
....................          else if(Temperatura2<38) 
0827A:  BRA    82A6
0827C:  MOVFF  1DA,652
08280:  MOVFF  1D9,651
08284:  MOVFF  1D8,650
08288:  MOVFF  1D7,64F
0828C:  MOVLB  6
0828E:  CLRF   x56
08290:  CLRF   x55
08292:  MOVLW  18
08294:  MOVWF  x54
08296:  MOVLW  84
08298:  MOVWF  x53
0829A:  MOVLB  0
0829C:  CALL   25CA
082A0:  BNC   82A6
....................             Agua2_off; 
082A2:  BCF    F8C.7
082A4:  BCF    F95.7
....................       } 
....................        
....................       if(!PruebaEstados){ 
082A6:  BTFSC  xA6.4
082A8:  BRA    82E2
....................          if(PresionCamara<=Atmosferica+3 && (!IniciaCiclo || Finalizo)){ 
082AA:  MOVLW  03
082AC:  MOVLB  2
082AE:  ADDWF  x3C,W
082B0:  MOVF   x12,F
082B2:  BNZ   82D6
082B4:  SUBWF  x11,W
082B6:  BZ    82BA
082B8:  BC    82D6
082BA:  MOVLB  0
082BC:  BTFSS  xA3.2
082BE:  BRA    82C8
082C0:  BTFSC  xA8.3
082C2:  BRA    82C8
082C4:  MOVLB  2
082C6:  BRA    82D6
....................             sistemaBloqueo(0); 
082C8:  MOVLB  6
082CA:  CLRF   x4B
082CC:  MOVLB  0
082CE:  CALL   5564
....................          }else{ 
082D2:  BRA    82E2
082D4:  MOVLB  2
....................             sistemaBloqueo(1); 
082D6:  MOVLW  01
082D8:  MOVLB  6
082DA:  MOVWF  x4B
082DC:  MOVLB  0
082DE:  CALL   5564
....................          } 
....................       } 
....................        
.................... // Monitoreo Nivel de Agua//-------------------------------------- 
....................             if(!LOW){//Si no sensa agua en el reservorio del agua para la bomba 
082E2:  BSF    F93.0
082E4:  BTFSC  F81.0
082E6:  BRA    82F8
....................                TiempoSensadoNivel=0; 
082E8:  CLRF   xAE
082EA:  CLRF   xAD
....................                Controlando=0;    
082EC:  MOVLB  1
082EE:  CLRF   xEA
....................                CalderinLleno=OFF; 
082F0:  MOVLB  0
082F2:  BCF    xA6.0
....................                SensadoNivel=OFF; 
082F4:  BCF    xA3.5
....................             } else{ 
082F6:  BRA    830A
....................                SensadoNivel=ON; 
082F8:  BSF    xA3.5
....................                if(TiempoSensadoNivel>3){ 
082FA:  MOVF   xAE,F
082FC:  BNZ   8304
082FE:  MOVF   xAD,W
08300:  SUBLW  03
08302:  BC    830A
....................                   SensadoNivel=OFF; 
08304:  BCF    xA3.5
....................                   CalderinLleno=ON; 
08306:  BSF    xA6.0
....................                   IniciaLlenado=OFF;                   
08308:  BCF    xA3.1
....................                }                                  
....................             } 
....................        
.................... // Tiempo de Grafica//-------------------------------------- 
....................       if(tiempos2>=2000){ 
0830A:  MOVLB  2
0830C:  MOVF   x08,W
0830E:  SUBLW  06
08310:  BC    8326
08312:  XORLW  FF
08314:  BNZ   831C
08316:  MOVF   x07,W
08318:  SUBLW  CF
0831A:  BC    8326
....................          Grafica=1; 
0831C:  MOVLB  0
0831E:  BSF    xAA.4
....................          tiempos2=0; 
08320:  MOVLB  2
08322:  CLRF   x08
08324:  CLRF   x07
....................       } 
....................  
.................... // Tiempo de Muestreo//-------------------------------------- 
....................       if(tiempos3>=20){ 
08326:  MOVF   x0A,F
08328:  BNZ   8330
0832A:  MOVF   x09,W
0832C:  SUBLW  13
0832E:  BC    83C4
....................          Temperatura=LeerPt100(1,MediaMovil); 
08330:  MOVLW  01
08332:  MOVLB  6
08334:  MOVWF  x4B
08336:  MOVFF  193,64C
0833A:  MOVLB  0
0833C:  CALL   4426
08340:  MOVFF  03,1D6
08344:  MOVFF  02,1D5
08348:  MOVFF  01,1D4
0834C:  MOVFF  00,1D3
....................          Temperatura2=LeerPt100(0,MediaMovil); 
08350:  MOVLB  6
08352:  CLRF   x4B
08354:  MOVFF  193,64C
08358:  MOVLB  0
0835A:  CALL   4426
0835E:  MOVFF  03,1DA
08362:  MOVFF  02,1D9
08366:  MOVFF  01,1D8
0836A:  MOVFF  00,1D7
....................          PresionCamara=Leer_Sensor_Presion_Camara(10); 
0836E:  MOVLW  0A
08370:  MOVLB  6
08372:  MOVWF  x4B
08374:  MOVLB  0
08376:  GOTO   5590
0837A:  MOVFF  03,660
0837E:  MOVFF  02,65F
08382:  MOVFF  01,65E
08386:  MOVFF  00,65D
0838A:  CALL   521E
0838E:  MOVFF  02,212
08392:  MOVFF  01,211
....................          PresionPreCamara=Leer_Sensor_Presion_PreCamara(10); 
08396:  MOVLW  0A
08398:  MOVLB  6
0839A:  MOVWF  x4B
0839C:  MOVLB  0
0839E:  GOTO   5792
083A2:  MOVFF  03,660
083A6:  MOVFF  02,65F
083AA:  MOVFF  01,65E
083AE:  MOVFF  00,65D
083B2:  CALL   521E
083B6:  MOVFF  02,214
083BA:  MOVFF  01,213
....................          tiempos3=0; 
083BE:  MOVLB  2
083C0:  CLRF   x0A
083C2:  CLRF   x09
....................       } 
....................        
.................... // Monitoreo Parada Emergencia//--------------------------------------       
....................       if(!STOP && !IniciaCiclo && !PruebaEstados){ 
083C4:  BSF    F93.2
083C6:  BTFSS  F81.2
083C8:  BRA    8446
083CA:  MOVLB  0
083CC:  BTFSS  xA3.2
083CE:  BRA    83D4
083D0:  MOVLB  2
083D2:  BRA    8446
083D4:  BTFSS  xA6.4
083D6:  BRA    83DC
083D8:  MOVLB  2
083DA:  BRA    8446
....................          if(!disp_Stop){ 
083DC:  BTFSC  xAA.6
083DE:  BRA    83E8
....................             disp_Stop=1;Menu=255; 
083E0:  BSF    xAA.6
083E2:  MOVLW  FF
083E4:  MOVLB  1
083E6:  MOVWF  xF0
....................          } 
....................          Controlando=0; 
083E8:  MOVLB  1
083EA:  CLRF   xEA
....................          Desfogue_on; 
083EC:  BSF    F8C.3
083EE:  BCF    F95.3
....................          Paso_off; 
083F0:  BCF    F8C.1
083F2:  BCF    F95.1
....................          Suministro_off; 
083F4:  BCF    F8C.0
083F6:  BCF    F95.0
....................          if(PresionCamara<Atmosferica) 
083F8:  MOVLB  2
083FA:  MOVF   x12,F
083FC:  BNZ   840A
083FE:  MOVF   x3C,W
08400:  SUBWF  x11,W
08402:  BC    840A
....................             Aire_on; 
08404:  BSF    F8C.4
08406:  BCF    F95.4
....................          else 
08408:  BRA    840E
....................             Aire_off; 
0840A:  BCF    F8C.4
0840C:  BCF    F95.4
....................          Vacio_off;    
0840E:  BCF    F8C.2
08410:  BCF    F95.2
....................          Agua_off; 
08412:  BCF    F8C.6
08414:  BCF    F95.6
....................          BombaVacio_off; 
08416:  BCF    F8C.5
08418:  BCF    F95.5
....................          DesfogueSuave=OFF; 
0841A:  MOVLB  0
0841C:  BCF    xA3.7
....................          printf("page Emergencia"); 
0841E:  MOVLW  7A
08420:  MOVWF  FF6
08422:  MOVLW  07
08424:  MOVWF  FF7
08426:  MOVLW  00
08428:  MOVWF  FF8
0842A:  CALL   4248
....................          SendDataDisplay(); 
0842E:  CALL   427A
....................          ActivaAlarma(1); 
08432:  MOVLW  01
08434:  MOVLB  6
08436:  MOVWF  x4B
08438:  MOVLB  0
0843A:  CALL   59C8
....................          BorraBuffer(); 
0843E:  GOTO   5A80
....................       }else{ 
08442:  BRA    844E
08444:  MOVLB  2
....................          if(disp_Stop){ 
08446:  MOVLB  0
08448:  BTFSS  xAA.6
0844A:  BRA    844E
....................             reset_cpu(); 
0844C:  RESET
....................          } 
....................       }            
....................    //Buzzer_off;    
.................... //_-------------------------------------------------------------------------------------------------------------------------------------------------------- 
....................    if(Menu==240){ //Menu de Bienvenida. 
0844E:  MOVLB  1
08450:  MOVF   xF0,W
08452:  SUBLW  F0
08454:  BNZ   849E
....................       printf("bkcmd=0"); 
08456:  MOVLW  8A
08458:  MOVWF  FF6
0845A:  MOVLW  07
0845C:  MOVWF  FF7
0845E:  MOVLW  00
08460:  MOVWF  FF8
08462:  MOVLB  0
08464:  CALL   4248
....................       SendDataDisplay(); 
08468:  CALL   427A
....................       delay_ms(1500); 
0846C:  MOVLW  06
0846E:  MOVLB  6
08470:  MOVWF  x4B
08472:  MOVLW  FA
08474:  MOVWF  x64
08476:  MOVLB  0
08478:  CALL   1F6E
0847C:  MOVLB  6
0847E:  DECFSZ x4B,F
08480:  BRA    8472
....................       printf("page Usuarios"); 
08482:  MOVLW  92
08484:  MOVWF  FF6
08486:  MOVLW  07
08488:  MOVWF  FF7
0848A:  MOVLW  00
0848C:  MOVWF  FF8
0848E:  MOVLB  0
08490:  CALL   4248
....................       SendDataDisplay(); 
08494:  CALL   427A
....................       ApagaSalidas(); 
08498:  CALL   42B0
0849C:  MOVLB  1
....................    } 
.................... //_-------------------------------------------------------------------------------------------------------------------------------------------------------- 
....................  
.................... //_-------------------------------------------------------------------------------------------------------------------------------------------------------- 
....................     if(Menu==0){ //Menu de Contrasea de acceso. 
0849E:  MOVF   xF0,F
084A0:  BTFSS  FD8.2
084A2:  BRA    8B0A
....................       ApagaSalidas(); 
084A4:  MOVLB  0
084A6:  CALL   42B0
....................       //printf("bkcmd=0"); 
....................       //SendDataDisplay(); 
....................       if(RX_Buffer[4]==0x11){//11 
084AA:  MOVF   34,W
084AC:  SUBLW  11
084AE:  BNZ   84D0
....................          if(TipoClave!=0){ 
084B0:  MOVLB  1
084B2:  MOVF   x95,F
084B4:  BZ    84D0
....................             printf("page MenuPrincipal"); 
084B6:  MOVLW  A0
084B8:  MOVWF  FF6
084BA:  MOVLW  07
084BC:  MOVWF  FF7
084BE:  MOVLW  00
084C0:  MOVWF  FF8
084C2:  MOVLB  0
084C4:  CALL   4248
....................             SendDataDisplay(); 
084C8:  CALL   427A
....................             PantallaPrincipal=0; 
084CC:  MOVLB  1
084CE:  CLRF   x94
....................          } 
....................       } 
....................        
....................       if(TipoClave==3){ 
084D0:  MOVLB  1
084D2:  MOVF   x95,W
084D4:  SUBLW  03
084D6:  BNZ   8504
....................          printf("titulo.txt=\"Clave Nueva\""); 
084D8:  MOVLW  B4
084DA:  MOVWF  FF6
084DC:  MOVLW  07
084DE:  MOVWF  FF7
084E0:  MOVLW  00
084E2:  MOVWF  FF8
084E4:  MOVLB  0
084E6:  CALL   4248
....................          SendDataDisplay(); 
084EA:  CALL   427A
....................          printf("doevents"); 
084EE:  MOVLW  CE
084F0:  MOVWF  FF6
084F2:  MOVLW  07
084F4:  MOVWF  FF7
084F6:  MOVLW  00
084F8:  MOVWF  FF8
084FA:  CALL   4248
....................          SendDataDisplay(); 
084FE:  CALL   427A
08502:  MOVLB  1
....................       } 
....................        
....................       if(TipoClave==2){ 
08504:  MOVF   x95,W
08506:  SUBLW  02
08508:  BNZ   8536
....................          printf("titulo.txt=\"Clave Actual\""); 
0850A:  MOVLW  D8
0850C:  MOVWF  FF6
0850E:  MOVLW  07
08510:  MOVWF  FF7
08512:  MOVLW  00
08514:  MOVWF  FF8
08516:  MOVLB  0
08518:  CALL   4248
....................          SendDataDisplay(); 
0851C:  CALL   427A
....................          printf("doevents"); 
08520:  MOVLW  F2
08522:  MOVWF  FF6
08524:  MOVLW  07
08526:  MOVWF  FF7
08528:  MOVLW  00
0852A:  MOVWF  FF8
0852C:  CALL   4248
....................          SendDataDisplay(); 
08530:  CALL   427A
08534:  MOVLB  1
....................       } 
....................        
....................       if(TipoClave==1){ 
08536:  DECFSZ x95,W
08538:  BRA    8566
....................          printf("titulo.txt=\"Clave Tecnico\""); 
0853A:  MOVLW  FC
0853C:  MOVWF  FF6
0853E:  MOVLW  07
08540:  MOVWF  FF7
08542:  MOVLW  00
08544:  MOVWF  FF8
08546:  MOVLB  0
08548:  CALL   4248
....................          SendDataDisplay(); 
0854C:  CALL   427A
....................          printf("doevents"); 
08550:  MOVLW  18
08552:  MOVWF  FF6
08554:  MOVLW  08
08556:  MOVWF  FF7
08558:  MOVLW  00
0855A:  MOVWF  FF8
0855C:  CALL   4248
....................          SendDataDisplay(); 
08560:  CALL   427A
08564:  MOVLB  1
....................       } 
....................        
....................       if(TipoClave==0){ 
08566:  MOVF   x95,F
08568:  BNZ   859C
....................          printf("titulo.txt=\"%s\"",usuario); 
0856A:  MOVLW  22
0856C:  MOVWF  FF6
0856E:  MOVLW  08
08570:  MOVWF  FF7
08572:  MOVLW  00
08574:  MOVWF  FF8
08576:  MOVLW  0C
08578:  MOVLB  6
0857A:  MOVWF  x51
0857C:  MOVLB  0
0857E:  CALL   5AAC
08582:  MOVLW  02
08584:  MOVWF  FEA
08586:  MOVLW  51
08588:  MOVWF  FE9
0858A:  CALL   5ADE
0858E:  MOVLW  22
08590:  BTFSS  F9E.4
08592:  BRA    8590
08594:  MOVWF  FAD
....................          SendDataDisplay(); 
08596:  CALL   427A
0859A:  MOVLB  1
....................       } 
....................        
....................       if(RX_Buffer[4]==0x11){//11, Regresar 
0859C:  MOVF   34,W
0859E:  SUBLW  11
085A0:  BNZ   85D8
....................          if(TipoClave==1){ 
085A2:  DECFSZ x95,W
085A4:  BRA    85C0
....................             printf("page Ajustes"); 
085A6:  MOVLW  32
085A8:  MOVWF  FF6
085AA:  MOVLW  08
085AC:  MOVWF  FF7
085AE:  MOVLW  00
085B0:  MOVWF  FF8
085B2:  MOVLB  0
085B4:  CALL   4248
....................             SendDataDisplay();        
085B8:  CALL   427A
....................          }else{ 
085BC:  BRA    85D6
085BE:  MOVLB  1
....................             printf("page Usuarios"); 
085C0:  MOVLW  40
085C2:  MOVWF  FF6
085C4:  MOVLW  08
085C6:  MOVWF  FF7
085C8:  MOVLW  00
085CA:  MOVWF  FF8
085CC:  MOVLB  0
085CE:  CALL   4248
....................             SendDataDisplay();        
085D2:  CALL   427A
085D6:  MOVLB  1
....................          } 
....................       } 
....................        
....................       if(RX_Buffer[3]==0x0f){//0f, recibe caracteres ingresados desde el Display 
085D8:  MOVF   33,W
085DA:  SUBLW  0F
085DC:  BTFSS  FD8.2
085DE:  BRA    8B0A
....................          delay_ms(800); 
085E0:  MOVLW  04
085E2:  MOVLB  6
085E4:  MOVWF  x4B
085E6:  MOVLW  C8
085E8:  MOVWF  x64
085EA:  MOVLB  0
085EC:  CALL   1F6E
085F0:  MOVLB  6
085F2:  DECFSZ x4B,F
085F4:  BRA    85E6
....................          if(TipoClave==0){ 
085F6:  MOVLB  1
085F8:  MOVF   x95,F
085FA:  BTFSS  FD8.2
085FC:  BRA    87B6
....................             if(RX_Buffer[4]==0x33&&RX_Buffer[5]==0x38&&RX_Buffer[6]==0x39&&RX_Buffer[7]==0x32 &&RX_Buffer[8]==0x00 &&RX_Buffer[9]==0xff){ // Si Ingresa clave para reset general del sistema. 
085FE:  MOVF   34,W
08600:  SUBLW  33
08602:  BNZ   8684
08604:  MOVF   35,W
08606:  SUBLW  38
08608:  BNZ   8684
0860A:  MOVF   36,W
0860C:  SUBLW  39
0860E:  BNZ   8684
08610:  MOVF   37,W
08612:  SUBLW  32
08614:  BNZ   8684
08616:  MOVF   38,F
08618:  BNZ   8684
0861A:  INCFSZ 39,W
0861C:  BRA    8684
....................                for(i=0;i<40;i++){//Lee contraseas de usuarios 
0861E:  CLRF   xFE
08620:  CLRF   xFD
08622:  MOVF   xFE,F
08624:  BNZ   8682
08626:  MOVF   xFD,W
08628:  SUBLW  27
0862A:  BNC   8682
....................                   write_eeprom(300+i,0);delay_ms(20); 
0862C:  MOVLW  2C
0862E:  ADDWF  xFD,W
08630:  MOVLB  6
08632:  MOVWF  x4B
08634:  MOVLW  01
08636:  MOVLB  1
08638:  ADDWFC xFE,W
0863A:  MOVLB  6
0863C:  MOVWF  x4C
0863E:  MOVFF  64C,FAA
08642:  MOVFF  64B,FA9
08646:  CLRF   FA8
08648:  BCF    FA6.6
0864A:  BCF    FA6.7
0864C:  BSF    FA6.2
0864E:  MOVF   FF2,W
08650:  MOVWF  00
08652:  BCF    FF2.6
08654:  BCF    FF2.7
08656:  MOVLB  F
08658:  MOVLW  55
0865A:  MOVWF  FA7
0865C:  MOVLW  AA
0865E:  MOVWF  FA7
08660:  BSF    FA6.1
08662:  BTFSC  FA6.1
08664:  BRA    8662
08666:  BCF    FA6.2
08668:  MOVF   00,W
0866A:  IORWF  FF2,F
0866C:  MOVLW  14
0866E:  MOVLB  6
08670:  MOVWF  x64
08672:  MOVLB  0
08674:  CALL   1F6E
....................                } 
08678:  MOVLB  1
0867A:  INCF   xFD,F
0867C:  BTFSC  FD8.2
0867E:  INCF   xFE,F
08680:  BRA    8622
....................                reset_cpu(); 
08682:  RESET
....................             } 
....................              
....................             if(RX_Buffer[4]>=0x30 && RX_Buffer[5]>=0x30 && RX_Buffer[6]>=0x30 && RX_Buffer[7]>=0x30 
....................             && RX_Buffer[4]<=0x39 && RX_Buffer[5]<=0x39 && RX_Buffer[6]<=0x39 && RX_Buffer[7]<=0x39){ 
08684:  MOVF   34,W
08686:  SUBLW  2F
08688:  BTFSC  FD8.0
0868A:  BRA    87B4
0868C:  MOVF   35,W
0868E:  SUBLW  2F
08690:  BTFSC  FD8.0
08692:  BRA    87B4
08694:  MOVF   36,W
08696:  SUBLW  2F
08698:  BTFSC  FD8.0
0869A:  BRA    87B4
0869C:  MOVF   37,W
0869E:  SUBLW  2F
086A0:  BTFSC  FD8.0
086A2:  BRA    87B4
086A4:  MOVF   34,W
086A6:  SUBLW  39
086A8:  BTFSS  FD8.0
086AA:  BRA    87B4
086AC:  MOVF   35,W
086AE:  SUBLW  39
086B0:  BTFSS  FD8.0
086B2:  BRA    87B4
086B4:  MOVF   36,W
086B6:  SUBLW  39
086B8:  BTFSS  FD8.0
086BA:  BRA    87B4
086BC:  MOVF   37,W
086BE:  SUBLW  39
086C0:  BTFSS  FD8.0
086C2:  BRA    87B4
....................                if((RX_Buffer[4]==Clave[codigoUsuario].Password[0]+0x30)&&(RX_Buffer[5]==Clave[codigoUsuario].Password[1]+0x30)&& 
....................                (RX_Buffer[6]==Clave[codigoUsuario].Password[2]+0x30)&&(RX_Buffer[7]==Clave[codigoUsuario].Password[3]+0x30) 
....................                &&RX_Buffer[8]==0x00 &&RX_Buffer[9]==0xff){ 
086C4:  MOVLB  2
086C6:  MOVF   x4B,W
086C8:  MULLW  04
086CA:  MOVF   FF3,W
086CC:  MOVLB  6
086CE:  CLRF   x4C
086D0:  MOVWF  x4B
086D2:  MOVLW  23
086D4:  ADDWF  x4B,W
086D6:  MOVWF  FE9
086D8:  MOVLW  06
086DA:  ADDWFC x4C,W
086DC:  MOVWF  FEA
086DE:  MOVLW  30
086E0:  ADDWF  FEF,W
086E2:  SUBWF  34,W
086E4:  BNZ   8798
086E6:  MOVLB  2
086E8:  MOVF   x4B,W
086EA:  MULLW  04
086EC:  MOVF   FF3,W
086EE:  MOVLB  6
086F0:  CLRF   x4C
086F2:  MOVWF  x4B
086F4:  MOVLW  01
086F6:  ADDWF  x4B,W
086F8:  MOVWF  01
086FA:  MOVLW  00
086FC:  ADDWFC x4C,W
086FE:  MOVWF  03
08700:  MOVF   01,W
08702:  ADDLW  23
08704:  MOVWF  FE9
08706:  MOVLW  06
08708:  ADDWFC 03,W
0870A:  MOVWF  FEA
0870C:  MOVLW  30
0870E:  ADDWF  FEF,W
08710:  SUBWF  35,W
08712:  BNZ   8798
08714:  MOVLB  2
08716:  MOVF   x4B,W
08718:  MULLW  04
0871A:  MOVF   FF3,W
0871C:  MOVLB  6
0871E:  CLRF   x4C
08720:  MOVWF  x4B
08722:  MOVLW  02
08724:  ADDWF  x4B,W
08726:  MOVWF  01
08728:  MOVLW  00
0872A:  ADDWFC x4C,W
0872C:  MOVWF  03
0872E:  MOVF   01,W
08730:  ADDLW  23
08732:  MOVWF  FE9
08734:  MOVLW  06
08736:  ADDWFC 03,W
08738:  MOVWF  FEA
0873A:  MOVLW  30
0873C:  ADDWF  FEF,W
0873E:  SUBWF  36,W
08740:  BNZ   8798
08742:  MOVLB  2
08744:  MOVF   x4B,W
08746:  MULLW  04
08748:  MOVF   FF3,W
0874A:  MOVLB  6
0874C:  CLRF   x4C
0874E:  MOVWF  x4B
08750:  MOVLW  03
08752:  ADDWF  x4B,W
08754:  MOVWF  01
08756:  MOVLW  00
08758:  ADDWFC x4C,W
0875A:  MOVWF  03
0875C:  MOVF   01,W
0875E:  ADDLW  23
08760:  MOVWF  FE9
08762:  MOVLW  06
08764:  ADDWFC 03,W
08766:  MOVWF  FEA
08768:  MOVLW  30
0876A:  ADDWF  FEF,W
0876C:  SUBWF  37,W
0876E:  BNZ   8798
08770:  MOVF   38,F
08772:  BNZ   8798
08774:  INCFSZ 39,W
08776:  BRA    8798
....................                   printf("page ClaveCorrecta"); 
08778:  MOVLW  4E
0877A:  MOVWF  FF6
0877C:  MOVLW  08
0877E:  MOVWF  FF7
08780:  MOVLW  00
08782:  MOVWF  FF8
08784:  MOVLB  0
08786:  CALL   4248
....................                   SendDataDisplay(); 
0878A:  CALL   427A
....................                   ingreso=ON; 
0878E:  BSF    xA9.0
....................                   RX_Buffer[3]=0x00;RX_Buffer2[3]=0x00;   
08790:  CLRF   33
08792:  CLRF   3E
....................                }else{ 
08794:  BRA    87B2
08796:  MOVLB  6
....................                   printf("page ClaveBad"); 
08798:  MOVLW  62
0879A:  MOVWF  FF6
0879C:  MOVLW  08
0879E:  MOVWF  FF7
087A0:  MOVLW  00
087A2:  MOVWF  FF8
087A4:  MOVLB  0
087A6:  CALL   4248
....................                   SendDataDisplay(); 
087AA:  CALL   427A
....................                   RX_Buffer[3]=0x00;RX_Buffer2[3]=0x00;   
087AE:  CLRF   33
087B0:  CLRF   3E
087B2:  MOVLB  1
....................                }  
....................             } 
....................          }else if(TipoClave==1){ 
087B4:  BRA    8B0A
087B6:  DECFSZ x95,W
087B8:  BRA    8816
....................             if(RX_Buffer[4]==0x34&&RX_Buffer[5]==0x34&&RX_Buffer[6]==0x34&&RX_Buffer[7]==0x34&&RX_Buffer[8]==0x00 &&RX_Buffer[9]==0xff){ // Si Ingresa clave de Servicio Tecnico 
087BA:  MOVF   34,W
087BC:  SUBLW  34
087BE:  BNZ   87F8
087C0:  MOVF   35,W
087C2:  SUBLW  34
087C4:  BNZ   87F8
087C6:  MOVF   36,W
087C8:  SUBLW  34
087CA:  BNZ   87F8
087CC:  MOVF   37,W
087CE:  SUBLW  34
087D0:  BNZ   87F8
087D2:  MOVF   38,F
087D4:  BNZ   87F8
087D6:  INCFSZ 39,W
087D8:  BRA    87F8
....................                printf("page Config"); 
087DA:  MOVLW  70
087DC:  MOVWF  FF6
087DE:  MOVLW  08
087E0:  MOVWF  FF7
087E2:  MOVLW  00
087E4:  MOVWF  FF8
087E6:  MOVLB  0
087E8:  CALL   4248
....................                SendDataDisplay(); 
087EC:  CALL   427A
....................                RX_Buffer[3]=0x00;RX_Buffer2[3]=0x00;   
087F0:  CLRF   33
087F2:  CLRF   3E
....................             }else{ 
087F4:  BRA    8812
087F6:  MOVLB  1
....................                printf("page Menu"); 
087F8:  MOVLW  7C
087FA:  MOVWF  FF6
087FC:  MOVLW  08
087FE:  MOVWF  FF7
08800:  MOVLW  00
08802:  MOVWF  FF8
08804:  MOVLB  0
08806:  CALL   4248
....................                SendDataDisplay(); 
0880A:  CALL   427A
....................                RX_Buffer[3]=0x00;RX_Buffer2[3]=0x00;   
0880E:  CLRF   33
08810:  CLRF   3E
....................             } 
....................          }else if(TipoClave==2){ 
08812:  BRA    8B08
08814:  MOVLB  1
08816:  MOVF   x95,W
08818:  SUBLW  02
0881A:  BTFSS  FD8.2
0881C:  BRA    896C
....................             if(RX_Buffer[4]>=0x30 && RX_Buffer[5]>=0x30 && RX_Buffer[6]>=0x30 && RX_Buffer[7]>=0x30 
....................             && RX_Buffer[4]<=0x39 && RX_Buffer[5]<=0x39 && RX_Buffer[6]<=0x39 && RX_Buffer[7]<=0x39){ 
0881E:  MOVF   34,W
08820:  SUBLW  2F
08822:  BTFSC  FD8.0
08824:  BRA    896A
08826:  MOVF   35,W
08828:  SUBLW  2F
0882A:  BTFSC  FD8.0
0882C:  BRA    896A
0882E:  MOVF   36,W
08830:  SUBLW  2F
08832:  BTFSC  FD8.0
08834:  BRA    896A
08836:  MOVF   37,W
08838:  SUBLW  2F
0883A:  BTFSC  FD8.0
0883C:  BRA    896A
0883E:  MOVF   34,W
08840:  SUBLW  39
08842:  BTFSS  FD8.0
08844:  BRA    896A
08846:  MOVF   35,W
08848:  SUBLW  39
0884A:  BTFSS  FD8.0
0884C:  BRA    896A
0884E:  MOVF   36,W
08850:  SUBLW  39
08852:  BTFSS  FD8.0
08854:  BRA    896A
08856:  MOVF   37,W
08858:  SUBLW  39
0885A:  BTFSS  FD8.0
0885C:  BRA    896A
....................                if((RX_Buffer[4]==Clave[codigoUsuario2].Password[0]+0x30)&&(RX_Buffer[5]==Clave[codigoUsuario2].Password[1]+0x30)&& 
....................                (RX_Buffer[6]==Clave[codigoUsuario2].Password[2]+0x30)&&(RX_Buffer[7]==Clave[codigoUsuario2].Password[3]+0x30) 
....................                &&RX_Buffer[8]==0x00 &&RX_Buffer[9]==0xff){ 
0885E:  MOVLB  2
08860:  MOVF   x29,W
08862:  MULLW  04
08864:  MOVF   FF3,W
08866:  MOVLB  6
08868:  CLRF   x4C
0886A:  MOVWF  x4B
0886C:  MOVLW  23
0886E:  ADDWF  x4B,W
08870:  MOVWF  FE9
08872:  MOVLW  06
08874:  ADDWFC x4C,W
08876:  MOVWF  FEA
08878:  MOVLW  30
0887A:  ADDWF  FEF,W
0887C:  SUBWF  34,W
0887E:  BNZ   894A
08880:  MOVLB  2
08882:  MOVF   x29,W
08884:  MULLW  04
08886:  MOVF   FF3,W
08888:  MOVLB  6
0888A:  CLRF   x4C
0888C:  MOVWF  x4B
0888E:  MOVLW  01
08890:  ADDWF  x4B,W
08892:  MOVWF  01
08894:  MOVLW  00
08896:  ADDWFC x4C,W
08898:  MOVWF  03
0889A:  MOVF   01,W
0889C:  ADDLW  23
0889E:  MOVWF  FE9
088A0:  MOVLW  06
088A2:  ADDWFC 03,W
088A4:  MOVWF  FEA
088A6:  MOVLW  30
088A8:  ADDWF  FEF,W
088AA:  SUBWF  35,W
088AC:  BNZ   894A
088AE:  MOVLB  2
088B0:  MOVF   x29,W
088B2:  MULLW  04
088B4:  MOVF   FF3,W
088B6:  MOVLB  6
088B8:  CLRF   x4C
088BA:  MOVWF  x4B
088BC:  MOVLW  02
088BE:  ADDWF  x4B,W
088C0:  MOVWF  01
088C2:  MOVLW  00
088C4:  ADDWFC x4C,W
088C6:  MOVWF  03
088C8:  MOVF   01,W
088CA:  ADDLW  23
088CC:  MOVWF  FE9
088CE:  MOVLW  06
088D0:  ADDWFC 03,W
088D2:  MOVWF  FEA
088D4:  MOVLW  30
088D6:  ADDWF  FEF,W
088D8:  SUBWF  36,W
088DA:  BNZ   894A
088DC:  MOVLB  2
088DE:  MOVF   x29,W
088E0:  MULLW  04
088E2:  MOVF   FF3,W
088E4:  MOVLB  6
088E6:  CLRF   x4C
088E8:  MOVWF  x4B
088EA:  MOVLW  03
088EC:  ADDWF  x4B,W
088EE:  MOVWF  01
088F0:  MOVLW  00
088F2:  ADDWFC x4C,W
088F4:  MOVWF  03
088F6:  MOVF   01,W
088F8:  ADDLW  23
088FA:  MOVWF  FE9
088FC:  MOVLW  06
088FE:  ADDWFC 03,W
08900:  MOVWF  FEA
08902:  MOVLW  30
08904:  ADDWF  FEF,W
08906:  SUBWF  37,W
08908:  BNZ   894A
0890A:  MOVF   38,F
0890C:  BNZ   894A
0890E:  INCFSZ 39,W
08910:  BRA    894A
....................                   printf("page Clave"); 
08912:  MOVLW  86
08914:  MOVWF  FF6
08916:  MOVLW  08
08918:  MOVWF  FF7
0891A:  MOVLW  00
0891C:  MOVWF  FF8
0891E:  MOVLB  0
08920:  CALL   4248
....................                   SendDataDisplay(); 
08924:  CALL   427A
....................                   printf("titulo.txt=\"Clave Nueva\""); 
08928:  MOVLW  92
0892A:  MOVWF  FF6
0892C:  MOVLW  08
0892E:  MOVWF  FF7
08930:  MOVLW  00
08932:  MOVWF  FF8
08934:  CALL   4248
....................                   SendDataDisplay(); 
08938:  CALL   427A
....................                   TipoClave=3; 
0893C:  MOVLW  03
0893E:  MOVLB  1
08940:  MOVWF  x95
....................                   RX_Buffer[3]=0x00; 
08942:  CLRF   33
....................                   RX_Buffer2[3]=0x00; 
08944:  CLRF   3E
....................                }else{ 
08946:  BRA    896A
08948:  MOVLB  6
....................                   printf("page Menu"); 
0894A:  MOVLW  AC
0894C:  MOVWF  FF6
0894E:  MOVLW  08
08950:  MOVWF  FF7
08952:  MOVLW  00
08954:  MOVWF  FF8
08956:  MOVLB  0
08958:  CALL   4248
....................                   SendDataDisplay(); 
0895C:  CALL   427A
....................                   RX_Buffer[3]=0x00; 
08960:  CLRF   33
....................                   RX_Buffer2[3]=0x00; 
08962:  CLRF   3E
....................                   codigoUsuario=codigoUsuarioant; 
08964:  MOVFF  24C,24B
08968:  MOVLB  1
....................                }  
....................             } 
....................          }else if(TipoClave==3){ 
0896A:  BRA    8B0A
0896C:  MOVF   x95,W
0896E:  SUBLW  03
08970:  BTFSS  FD8.2
08972:  BRA    8B0A
....................             printf("titulo.txt=\"Clave Nueva\""); 
08974:  MOVLW  B6
08976:  MOVWF  FF6
08978:  MOVLW  08
0897A:  MOVWF  FF7
0897C:  MOVLW  00
0897E:  MOVWF  FF8
08980:  MOVLB  0
08982:  CALL   4248
....................             SendDataDisplay(); 
08986:  CALL   427A
....................             printf("page Menu"); 
0898A:  MOVLW  D0
0898C:  MOVWF  FF6
0898E:  MOVLW  08
08990:  MOVWF  FF7
08992:  MOVLW  00
08994:  MOVWF  FF8
08996:  CALL   4248
....................             SendDataDisplay(); 
0899A:  CALL   427A
....................             if(!GuardaEEPROM){ 
0899E:  BTFSC  xA7.4
089A0:  BRA    8B08
....................                write_eeprom(300+(codigoUsuario2*4),RX_Buffer[4]-0x30);delay_ms(20); 
089A2:  MOVLB  2
089A4:  MOVF   x29,W
089A6:  MULLW  04
089A8:  MOVF   FF3,W
089AA:  ADDLW  2C
089AC:  MOVLB  6
089AE:  MOVWF  x4B
089B0:  MOVLW  01
089B2:  MOVWF  x4C
089B4:  BTFSC  FD8.0
089B6:  INCF   x4C,F
089B8:  MOVLW  30
089BA:  SUBWF  34,W
089BC:  MOVWF  x4D
089BE:  MOVFF  64C,FAA
089C2:  MOVFF  64B,FA9
089C6:  MOVFF  64D,FA8
089CA:  BCF    FA6.6
089CC:  BCF    FA6.7
089CE:  BSF    FA6.2
089D0:  MOVF   FF2,W
089D2:  MOVWF  00
089D4:  BCF    FF2.6
089D6:  BCF    FF2.7
089D8:  MOVLB  F
089DA:  MOVLW  55
089DC:  MOVWF  FA7
089DE:  MOVLW  AA
089E0:  MOVWF  FA7
089E2:  BSF    FA6.1
089E4:  BTFSC  FA6.1
089E6:  BRA    89E4
089E8:  BCF    FA6.2
089EA:  MOVF   00,W
089EC:  IORWF  FF2,F
089EE:  MOVLW  14
089F0:  MOVLB  6
089F2:  MOVWF  x64
089F4:  MOVLB  0
089F6:  CALL   1F6E
....................                write_eeprom(301+(codigoUsuario2*4),RX_Buffer[5]-0x30);delay_ms(20); 
089FA:  MOVLB  2
089FC:  MOVF   x29,W
089FE:  MULLW  04
08A00:  MOVF   FF3,W
08A02:  ADDLW  2D
08A04:  MOVLB  6
08A06:  MOVWF  x4B
08A08:  MOVLW  01
08A0A:  MOVWF  x4C
08A0C:  BTFSC  FD8.0
08A0E:  INCF   x4C,F
08A10:  MOVLW  30
08A12:  SUBWF  35,W
08A14:  MOVWF  x4D
08A16:  MOVFF  64C,FAA
08A1A:  MOVFF  64B,FA9
08A1E:  MOVFF  64D,FA8
08A22:  BCF    FA6.6
08A24:  BCF    FA6.7
08A26:  BSF    FA6.2
08A28:  MOVF   FF2,W
08A2A:  MOVWF  00
08A2C:  BCF    FF2.6
08A2E:  BCF    FF2.7
08A30:  MOVLB  F
08A32:  MOVLW  55
08A34:  MOVWF  FA7
08A36:  MOVLW  AA
08A38:  MOVWF  FA7
08A3A:  BSF    FA6.1
08A3C:  BTFSC  FA6.1
08A3E:  BRA    8A3C
08A40:  BCF    FA6.2
08A42:  MOVF   00,W
08A44:  IORWF  FF2,F
08A46:  MOVLW  14
08A48:  MOVLB  6
08A4A:  MOVWF  x64
08A4C:  MOVLB  0
08A4E:  CALL   1F6E
....................                write_eeprom(302+(codigoUsuario2*4),RX_Buffer[6]-0x30);delay_ms(20); 
08A52:  MOVLB  2
08A54:  MOVF   x29,W
08A56:  MULLW  04
08A58:  MOVF   FF3,W
08A5A:  ADDLW  2E
08A5C:  MOVLB  6
08A5E:  MOVWF  x4B
08A60:  MOVLW  01
08A62:  MOVWF  x4C
08A64:  BTFSC  FD8.0
08A66:  INCF   x4C,F
08A68:  MOVLW  30
08A6A:  SUBWF  36,W
08A6C:  MOVWF  x4D
08A6E:  MOVFF  64C,FAA
08A72:  MOVFF  64B,FA9
08A76:  MOVFF  64D,FA8
08A7A:  BCF    FA6.6
08A7C:  BCF    FA6.7
08A7E:  BSF    FA6.2
08A80:  MOVF   FF2,W
08A82:  MOVWF  00
08A84:  BCF    FF2.6
08A86:  BCF    FF2.7
08A88:  MOVLB  F
08A8A:  MOVLW  55
08A8C:  MOVWF  FA7
08A8E:  MOVLW  AA
08A90:  MOVWF  FA7
08A92:  BSF    FA6.1
08A94:  BTFSC  FA6.1
08A96:  BRA    8A94
08A98:  BCF    FA6.2
08A9A:  MOVF   00,W
08A9C:  IORWF  FF2,F
08A9E:  MOVLW  14
08AA0:  MOVLB  6
08AA2:  MOVWF  x64
08AA4:  MOVLB  0
08AA6:  CALL   1F6E
....................                write_eeprom(303+(codigoUsuario2*4),RX_Buffer[7]-0x30);delay_ms(20); 
08AAA:  MOVLB  2
08AAC:  MOVF   x29,W
08AAE:  MULLW  04
08AB0:  MOVF   FF3,W
08AB2:  ADDLW  2F
08AB4:  MOVLB  6
08AB6:  MOVWF  x4B
08AB8:  MOVLW  01
08ABA:  MOVWF  x4C
08ABC:  BTFSC  FD8.0
08ABE:  INCF   x4C,F
08AC0:  MOVLW  30
08AC2:  SUBWF  37,W
08AC4:  MOVWF  x4D
08AC6:  MOVFF  64C,FAA
08ACA:  MOVFF  64B,FA9
08ACE:  MOVFF  64D,FA8
08AD2:  BCF    FA6.6
08AD4:  BCF    FA6.7
08AD6:  BSF    FA6.2
08AD8:  MOVF   FF2,W
08ADA:  MOVWF  00
08ADC:  BCF    FF2.6
08ADE:  BCF    FF2.7
08AE0:  MOVLB  F
08AE2:  MOVLW  55
08AE4:  MOVWF  FA7
08AE6:  MOVLW  AA
08AE8:  MOVWF  FA7
08AEA:  BSF    FA6.1
08AEC:  BTFSC  FA6.1
08AEE:  BRA    8AEC
08AF0:  BCF    FA6.2
08AF2:  MOVF   00,W
08AF4:  IORWF  FF2,F
08AF6:  MOVLW  14
08AF8:  MOVLB  6
08AFA:  MOVWF  x64
08AFC:  MOVLB  0
08AFE:  CALL   1F6E
....................                GuardaEEPROM=ON; 
08B02:  BSF    xA7.4
....................                codigoUsuario=codigoUsuarioant; 
08B04:  MOVFF  24C,24B
08B08:  MOVLB  1
....................             } 
....................             //RX_Buffer[3]=0x00; 
....................             //RX_Buffer2[3]=0x00; 
....................          } 
....................       } 
....................     } 
.................... //_--------------------------------------------------------------------------------------------------------------------------------------------------------        
....................  
.................... //_-------------------------------------------------------------------------------------------------------------------------------------------------------- 
....................    if(Menu==1){ //Menu Principal. 
08B0A:  DECFSZ xF0,W
08B0C:  GOTO   94A8
....................       printf("fecha.txt=\"Fecha:%02u/%02u/20%02u    Hora: %02u:%02u:%02u\"",Dia,Mes,Year,Hora,Minuto,Segundo); 
08B10:  MOVLW  DA
08B12:  MOVWF  FF6
08B14:  MOVLW  08
08B16:  MOVWF  FF7
08B18:  MOVLW  00
08B1A:  MOVWF  FF8
08B1C:  MOVLW  11
08B1E:  MOVLB  6
08B20:  MOVWF  x51
08B22:  MOVLB  0
08B24:  CALL   5AAC
08B28:  MOVFF  236,651
08B2C:  MOVLW  01
08B2E:  MOVLB  6
08B30:  MOVWF  x52
08B32:  MOVLB  0
08B34:  CALL   5B30
08B38:  MOVLW  2F
08B3A:  BTFSS  F9E.4
08B3C:  BRA    8B3A
08B3E:  MOVWF  FAD
08B40:  MOVFF  235,651
08B44:  MOVLW  01
08B46:  MOVLB  6
08B48:  MOVWF  x52
08B4A:  MOVLB  0
08B4C:  CALL   5B30
08B50:  MOVLW  2F
08B52:  BTFSS  F9E.4
08B54:  BRA    8B52
08B56:  MOVWF  FAD
08B58:  MOVLW  32
08B5A:  BTFSS  F9E.4
08B5C:  BRA    8B5A
08B5E:  MOVWF  FAD
08B60:  MOVLW  30
08B62:  BTFSS  F9E.4
08B64:  BRA    8B62
08B66:  MOVWF  FAD
08B68:  MOVFF  234,651
08B6C:  MOVLW  01
08B6E:  MOVLB  6
08B70:  MOVWF  x52
08B72:  MOVLB  0
08B74:  CALL   5B30
08B78:  MOVLW  FB
08B7A:  MOVWF  FF6
08B7C:  MOVLW  08
08B7E:  MOVWF  FF7
08B80:  MOVLW  00
08B82:  MOVWF  FF8
08B84:  MOVLW  0A
08B86:  MOVLB  6
08B88:  MOVWF  x51
08B8A:  MOVLB  0
08B8C:  CALL   5AAC
08B90:  MOVFF  237,651
08B94:  MOVLW  01
08B96:  MOVLB  6
08B98:  MOVWF  x52
08B9A:  MOVLB  0
08B9C:  CALL   5B30
08BA0:  MOVLW  3A
08BA2:  BTFSS  F9E.4
08BA4:  BRA    8BA2
08BA6:  MOVWF  FAD
08BA8:  MOVFF  238,651
08BAC:  MOVLW  01
08BAE:  MOVLB  6
08BB0:  MOVWF  x52
08BB2:  MOVLB  0
08BB4:  CALL   5B30
08BB8:  MOVLW  3A
08BBA:  BTFSS  F9E.4
08BBC:  BRA    8BBA
08BBE:  MOVWF  FAD
08BC0:  MOVFF  239,651
08BC4:  MOVLW  01
08BC6:  MOVLB  6
08BC8:  MOVWF  x52
08BCA:  MOVLB  0
08BCC:  CALL   5B30
08BD0:  MOVLW  22
08BD2:  BTFSS  F9E.4
08BD4:  BRA    8BD2
08BD6:  MOVWF  FAD
....................       SendDataDisplay(); 
08BD8:  CALL   427A
....................       GuardaEEPROM=OFF; 
08BDC:  BCF    xA7.4
....................       printf("tuser.txt=\"%s\"",usuario); 
08BDE:  MOVLW  16
08BE0:  MOVWF  FF6
08BE2:  MOVLW  09
08BE4:  MOVWF  FF7
08BE6:  MOVLW  00
08BE8:  MOVWF  FF8
08BEA:  MOVLW  0B
08BEC:  MOVLB  6
08BEE:  MOVWF  x51
08BF0:  MOVLB  0
08BF2:  CALL   5AAC
08BF6:  MOVLW  02
08BF8:  MOVWF  FEA
08BFA:  MOVLW  51
08BFC:  MOVWF  FE9
08BFE:  CALL   5ADE
08C02:  MOVLW  22
08C04:  BTFSS  F9E.4
08C06:  BRA    8C04
08C08:  MOVWF  FAD
....................       SendDataDisplay(); 
08C0A:  CALL   427A
....................       codigoUsuarioant=codigoUsuario; 
08C0E:  MOVFF  24B,24C
....................        
....................       if(RX_Buffer[4]==0x01 && RX_Buffer[5]==0x0f && estados[19+RX_Buffer[4]]){//01, Calentamiento 
08C12:  DECFSZ 34,W
08C14:  BRA    8CD6
08C16:  MOVF   35,W
08C18:  SUBLW  0F
08C1A:  BNZ   8CD6
08C1C:  MOVLW  13
08C1E:  ADDWF  34,W
08C20:  MOVLB  6
08C22:  MOVWF  x4D
08C24:  MOVLW  02
08C26:  MOVWF  x4F
08C28:  MOVLW  B7
08C2A:  MOVWF  x4E
08C2C:  MOVLB  0
08C2E:  CALL   23AE
08C32:  BTFSS  01.0
08C34:  BRA    8CD6
....................          delay_ms(5); 
08C36:  MOVLW  05
08C38:  MOVLB  6
08C3A:  MOVWF  x64
08C3C:  MOVLB  0
08C3E:  CALL   1F6E
....................          if(RX_Buffer[4]==0x01 && RX_Buffer[5]==0x0f && estados[19+RX_Buffer[4]]){//01, Calentamiento 
08C42:  DECFSZ 34,W
08C44:  BRA    8CD6
08C46:  MOVF   35,W
08C48:  SUBLW  0F
08C4A:  BNZ   8CD6
08C4C:  MOVLW  13
08C4E:  ADDWF  34,W
08C50:  MOVLB  6
08C52:  MOVWF  x4D
08C54:  MOVLW  02
08C56:  MOVWF  x4F
08C58:  MOVLW  B7
08C5A:  MOVWF  x4E
08C5C:  MOVLB  0
08C5E:  CALL   23AE
08C62:  BTFSS  01.0
08C64:  BRA    8CD6
....................             printf("page Funcionamiento"); 
08C66:  MOVLW  26
08C68:  MOVWF  FF6
08C6A:  MOVLW  09
08C6C:  MOVWF  FF7
08C6E:  MOVLW  00
08C70:  MOVWF  FF8
08C72:  CALL   4248
....................             SendDataDisplay();        
08C76:  CALL   427A
....................             ConfiguraCiclo(0,0,5,1,0,0,1,0,0,1,121); 
08C7A:  MOVLB  6
08C7C:  CLRF   x55
08C7E:  CLRF   x56
08C80:  MOVLW  05
08C82:  MOVWF  x57
08C84:  MOVLW  01
08C86:  MOVWF  x58
08C88:  CLRF   x59
08C8A:  CLRF   x5A
08C8C:  MOVWF  x5B
08C8E:  CLRF   x5C
08C90:  CLRF   x5D
08C92:  MOVWF  x5E
08C94:  MOVLW  79
08C96:  MOVWF  x5F
08C98:  MOVLB  0
08C9A:  CALL   6250
....................             Op=OFF; 
08C9E:  BCF    xA7.0
....................             Op2=OFF; 
08CA0:  BCF    xA7.1
....................             MenuAnt=Menu; 
08CA2:  MOVFF  1F0,1F1
....................             CantidadPulsos=7; 
08CA6:  MOVLB  1
08CA8:  CLRF   xF8
08CAA:  MOVLW  07
08CAC:  MOVWF  xF7
....................             NivelVacio=32; 
08CAE:  MOVLW  20
08CB0:  MOVLB  2
08CB2:  MOVWF  x3B
....................             Fugas=OFF; 
08CB4:  MOVLB  0
08CB6:  BCF    xA9.1
....................             TiempoVacio=CantidadPulsos*180; 
08CB8:  MOVFF  1F8,667
08CBC:  MOVFF  1F7,666
08CC0:  MOVLB  6
08CC2:  CLRF   x69
08CC4:  MOVLW  B4
08CC6:  MOVWF  x68
08CC8:  MOVLB  0
08CCA:  CALL   23E0
08CCE:  MOVFF  02,A5
08CD2:  MOVFF  01,A4
....................          } 
....................       } 
....................        
....................       if(RX_Buffer[4]==0x02 && RX_Buffer[5]==0x0f && estados[19+RX_Buffer[4]]){//02, No Envueltos 134 
08CD6:  MOVF   34,W
08CD8:  SUBLW  02
08CDA:  BNZ   8DA0
08CDC:  MOVF   35,W
08CDE:  SUBLW  0F
08CE0:  BNZ   8DA0
08CE2:  MOVLW  13
08CE4:  ADDWF  34,W
08CE6:  MOVLB  6
08CE8:  MOVWF  x4D
08CEA:  MOVLW  02
08CEC:  MOVWF  x4F
08CEE:  MOVLW  B7
08CF0:  MOVWF  x4E
08CF2:  MOVLB  0
08CF4:  CALL   23AE
08CF8:  BTFSS  01.0
08CFA:  BRA    8DA0
....................          delay_ms(5); 
08CFC:  MOVLW  05
08CFE:  MOVLB  6
08D00:  MOVWF  x64
08D02:  MOVLB  0
08D04:  CALL   1F6E
....................          if(RX_Buffer[4]==0x02 && RX_Buffer[5]==0x0f && estados[19+RX_Buffer[4]]){ 
08D08:  MOVF   34,W
08D0A:  SUBLW  02
08D0C:  BNZ   8DA0
08D0E:  MOVF   35,W
08D10:  SUBLW  0F
08D12:  BNZ   8DA0
08D14:  MOVLW  13
08D16:  ADDWF  34,W
08D18:  MOVLB  6
08D1A:  MOVWF  x4D
08D1C:  MOVLW  02
08D1E:  MOVWF  x4F
08D20:  MOVLW  B7
08D22:  MOVWF  x4E
08D24:  MOVLB  0
08D26:  CALL   23AE
08D2A:  BTFSS  01.0
08D2C:  BRA    8DA0
....................             printf("page Funcionamiento"); 
08D2E:  MOVLW  3A
08D30:  MOVWF  FF6
08D32:  MOVLW  09
08D34:  MOVWF  FF7
08D36:  MOVLW  00
08D38:  MOVWF  FF8
08D3A:  CALL   4248
....................             SendDataDisplay();        
08D3E:  CALL   427A
....................             ConfiguraCiclo(0,0,3,0,0,0,1,0,0,2,134); 
08D42:  MOVLB  6
08D44:  CLRF   x55
08D46:  CLRF   x56
08D48:  MOVLW  03
08D4A:  MOVWF  x57
08D4C:  CLRF   x58
08D4E:  CLRF   x59
08D50:  CLRF   x5A
08D52:  MOVLW  01
08D54:  MOVWF  x5B
08D56:  CLRF   x5C
08D58:  CLRF   x5D
08D5A:  MOVLW  02
08D5C:  MOVWF  x5E
08D5E:  MOVLW  86
08D60:  MOVWF  x5F
08D62:  MOVLB  0
08D64:  CALL   6250
....................             Op=OFF; 
08D68:  BCF    xA7.0
....................             Op2=OFF; 
08D6A:  BCF    xA7.1
....................             MenuAnt=Menu; 
08D6C:  MOVFF  1F0,1F1
....................             CantidadPulsos=7; 
08D70:  MOVLB  1
08D72:  CLRF   xF8
08D74:  MOVLW  07
08D76:  MOVWF  xF7
....................             NivelVacio=32; 
08D78:  MOVLW  20
08D7A:  MOVLB  2
08D7C:  MOVWF  x3B
....................             Fugas=OFF; 
08D7E:  MOVLB  0
08D80:  BCF    xA9.1
....................             TiempoVacio=CantidadPulsos*180; 
08D82:  MOVFF  1F8,667
08D86:  MOVFF  1F7,666
08D8A:  MOVLB  6
08D8C:  CLRF   x69
08D8E:  MOVLW  B4
08D90:  MOVWF  x68
08D92:  MOVLB  0
08D94:  CALL   23E0
08D98:  MOVFF  02,A5
08D9C:  MOVFF  01,A4
....................          } 
....................       } 
....................        
....................       if(RX_Buffer[4]==0x03  && RX_Buffer[5]==0x0f && estados[19+RX_Buffer[4]]){//03, No Envueltos 121 
08DA0:  MOVF   34,W
08DA2:  SUBLW  03
08DA4:  BNZ   8E6A
08DA6:  MOVF   35,W
08DA8:  SUBLW  0F
08DAA:  BNZ   8E6A
08DAC:  MOVLW  13
08DAE:  ADDWF  34,W
08DB0:  MOVLB  6
08DB2:  MOVWF  x4D
08DB4:  MOVLW  02
08DB6:  MOVWF  x4F
08DB8:  MOVLW  B7
08DBA:  MOVWF  x4E
08DBC:  MOVLB  0
08DBE:  CALL   23AE
08DC2:  BTFSS  01.0
08DC4:  BRA    8E6A
....................          delay_ms(5); 
08DC6:  MOVLW  05
08DC8:  MOVLB  6
08DCA:  MOVWF  x64
08DCC:  MOVLB  0
08DCE:  CALL   1F6E
....................          if(RX_Buffer[4]==0x03 && RX_Buffer[5]==0x0f && estados[19+RX_Buffer[4]]){ 
08DD2:  MOVF   34,W
08DD4:  SUBLW  03
08DD6:  BNZ   8E6A
08DD8:  MOVF   35,W
08DDA:  SUBLW  0F
08DDC:  BNZ   8E6A
08DDE:  MOVLW  13
08DE0:  ADDWF  34,W
08DE2:  MOVLB  6
08DE4:  MOVWF  x4D
08DE6:  MOVLW  02
08DE8:  MOVWF  x4F
08DEA:  MOVLW  B7
08DEC:  MOVWF  x4E
08DEE:  MOVLB  0
08DF0:  CALL   23AE
08DF4:  BTFSS  01.0
08DF6:  BRA    8E6A
....................             printf("page Funcionamiento"); 
08DF8:  MOVLW  4E
08DFA:  MOVWF  FF6
08DFC:  MOVLW  09
08DFE:  MOVWF  FF7
08E00:  MOVLW  00
08E02:  MOVWF  FF8
08E04:  CALL   4248
....................             SendDataDisplay();        
08E08:  CALL   427A
....................             ConfiguraCiclo(0,0,5,1,0,0,1,0,0,3,121); 
08E0C:  MOVLB  6
08E0E:  CLRF   x55
08E10:  CLRF   x56
08E12:  MOVLW  05
08E14:  MOVWF  x57
08E16:  MOVLW  01
08E18:  MOVWF  x58
08E1A:  CLRF   x59
08E1C:  CLRF   x5A
08E1E:  MOVWF  x5B
08E20:  CLRF   x5C
08E22:  CLRF   x5D
08E24:  MOVLW  03
08E26:  MOVWF  x5E
08E28:  MOVLW  79
08E2A:  MOVWF  x5F
08E2C:  MOVLB  0
08E2E:  CALL   6250
....................             Op=OFF; 
08E32:  BCF    xA7.0
....................             Op2=OFF; 
08E34:  BCF    xA7.1
....................             MenuAnt=Menu; 
08E36:  MOVFF  1F0,1F1
....................             CantidadPulsos=7; 
08E3A:  MOVLB  1
08E3C:  CLRF   xF8
08E3E:  MOVLW  07
08E40:  MOVWF  xF7
....................             NivelVacio=32; 
08E42:  MOVLW  20
08E44:  MOVLB  2
08E46:  MOVWF  x3B
....................             Fugas=OFF; 
08E48:  MOVLB  0
08E4A:  BCF    xA9.1
....................             TiempoVacio=CantidadPulsos*180; 
08E4C:  MOVFF  1F8,667
08E50:  MOVFF  1F7,666
08E54:  MOVLB  6
08E56:  CLRF   x69
08E58:  MOVLW  B4
08E5A:  MOVWF  x68
08E5C:  MOVLB  0
08E5E:  CALL   23E0
08E62:  MOVFF  02,A5
08E66:  MOVFF  01,A4
....................          } 
....................       } 
....................        
....................       if(RX_Buffer[4]==0x04 && RX_Buffer[5]==0x0f && estados[19+RX_Buffer[4]]){//04, Envueltos 134 
08E6A:  MOVF   34,W
08E6C:  SUBLW  04
08E6E:  BNZ   8F36
08E70:  MOVF   35,W
08E72:  SUBLW  0F
08E74:  BNZ   8F36
08E76:  MOVLW  13
08E78:  ADDWF  34,W
08E7A:  MOVLB  6
08E7C:  MOVWF  x4D
08E7E:  MOVLW  02
08E80:  MOVWF  x4F
08E82:  MOVLW  B7
08E84:  MOVWF  x4E
08E86:  MOVLB  0
08E88:  CALL   23AE
08E8C:  BTFSS  01.0
08E8E:  BRA    8F36
....................          delay_ms(5); 
08E90:  MOVLW  05
08E92:  MOVLB  6
08E94:  MOVWF  x64
08E96:  MOVLB  0
08E98:  CALL   1F6E
....................          if(RX_Buffer[4]==0x04 && RX_Buffer[5]==0x0f && estados[19+RX_Buffer[4]]){ 
08E9C:  MOVF   34,W
08E9E:  SUBLW  04
08EA0:  BNZ   8F36
08EA2:  MOVF   35,W
08EA4:  SUBLW  0F
08EA6:  BNZ   8F36
08EA8:  MOVLW  13
08EAA:  ADDWF  34,W
08EAC:  MOVLB  6
08EAE:  MOVWF  x4D
08EB0:  MOVLW  02
08EB2:  MOVWF  x4F
08EB4:  MOVLW  B7
08EB6:  MOVWF  x4E
08EB8:  MOVLB  0
08EBA:  CALL   23AE
08EBE:  BTFSS  01.0
08EC0:  BRA    8F36
....................             printf("page Funcionamiento"); 
08EC2:  MOVLW  62
08EC4:  MOVWF  FF6
08EC6:  MOVLW  09
08EC8:  MOVWF  FF7
08ECA:  MOVLW  00
08ECC:  MOVWF  FF8
08ECE:  CALL   4248
....................             SendDataDisplay();        
08ED2:  CALL   427A
....................             ConfiguraCiclo(0,0,4,0,0,0,5,1,0,4,134); 
08ED6:  MOVLB  6
08ED8:  CLRF   x55
08EDA:  CLRF   x56
08EDC:  MOVLW  04
08EDE:  MOVWF  x57
08EE0:  CLRF   x58
08EE2:  CLRF   x59
08EE4:  CLRF   x5A
08EE6:  MOVLW  05
08EE8:  MOVWF  x5B
08EEA:  MOVLW  01
08EEC:  MOVWF  x5C
08EEE:  CLRF   x5D
08EF0:  MOVLW  04
08EF2:  MOVWF  x5E
08EF4:  MOVLW  86
08EF6:  MOVWF  x5F
08EF8:  MOVLB  0
08EFA:  CALL   6250
....................             Op=OFF; 
08EFE:  BCF    xA7.0
....................             Op2=OFF; 
08F00:  BCF    xA7.1
....................             MenuAnt=Menu; 
08F02:  MOVFF  1F0,1F1
....................             CantidadPulsos=7; 
08F06:  MOVLB  1
08F08:  CLRF   xF8
08F0A:  MOVLW  07
08F0C:  MOVWF  xF7
....................             NivelVacio=32; 
08F0E:  MOVLW  20
08F10:  MOVLB  2
08F12:  MOVWF  x3B
....................             Fugas=OFF; 
08F14:  MOVLB  0
08F16:  BCF    xA9.1
....................             TiempoVacio=CantidadPulsos*180; 
08F18:  MOVFF  1F8,667
08F1C:  MOVFF  1F7,666
08F20:  MOVLB  6
08F22:  CLRF   x69
08F24:  MOVLW  B4
08F26:  MOVWF  x68
08F28:  MOVLB  0
08F2A:  CALL   23E0
08F2E:  MOVFF  02,A5
08F32:  MOVFF  01,A4
....................          } 
....................       } 
....................        
....................       if(RX_Buffer[4]==0x05 && RX_Buffer[5]==0x0f && estados[19+RX_Buffer[4]]){//05, Envueltos 121 
08F36:  MOVF   34,W
08F38:  SUBLW  05
08F3A:  BNZ   9004
08F3C:  MOVF   35,W
08F3E:  SUBLW  0F
08F40:  BNZ   9004
08F42:  MOVLW  13
08F44:  ADDWF  34,W
08F46:  MOVLB  6
08F48:  MOVWF  x4D
08F4A:  MOVLW  02
08F4C:  MOVWF  x4F
08F4E:  MOVLW  B7
08F50:  MOVWF  x4E
08F52:  MOVLB  0
08F54:  CALL   23AE
08F58:  BTFSS  01.0
08F5A:  BRA    9004
....................          delay_ms(5); 
08F5C:  MOVLW  05
08F5E:  MOVLB  6
08F60:  MOVWF  x64
08F62:  MOVLB  0
08F64:  CALL   1F6E
....................          if(RX_Buffer[4]==0x05 && RX_Buffer[5]==0x0f && estados[19+RX_Buffer[4]]){ 
08F68:  MOVF   34,W
08F6A:  SUBLW  05
08F6C:  BNZ   9004
08F6E:  MOVF   35,W
08F70:  SUBLW  0F
08F72:  BNZ   9004
08F74:  MOVLW  13
08F76:  ADDWF  34,W
08F78:  MOVLB  6
08F7A:  MOVWF  x4D
08F7C:  MOVLW  02
08F7E:  MOVWF  x4F
08F80:  MOVLW  B7
08F82:  MOVWF  x4E
08F84:  MOVLB  0
08F86:  CALL   23AE
08F8A:  BTFSS  01.0
08F8C:  BRA    9004
....................             printf("page Funcionamiento"); 
08F8E:  MOVLW  76
08F90:  MOVWF  FF6
08F92:  MOVLW  09
08F94:  MOVWF  FF7
08F96:  MOVLW  00
08F98:  MOVWF  FF8
08F9A:  CALL   4248
....................             SendDataDisplay();        
08F9E:  CALL   427A
....................             ConfiguraCiclo(0,0,5,1,0,0,5,1,0,5,121); 
08FA2:  MOVLB  6
08FA4:  CLRF   x55
08FA6:  CLRF   x56
08FA8:  MOVLW  05
08FAA:  MOVWF  x57
08FAC:  MOVLW  01
08FAE:  MOVWF  x58
08FB0:  CLRF   x59
08FB2:  CLRF   x5A
08FB4:  MOVLW  05
08FB6:  MOVWF  x5B
08FB8:  MOVLW  01
08FBA:  MOVWF  x5C
08FBC:  CLRF   x5D
08FBE:  MOVLW  05
08FC0:  MOVWF  x5E
08FC2:  MOVLW  79
08FC4:  MOVWF  x5F
08FC6:  MOVLB  0
08FC8:  CALL   6250
....................             Op=OFF; 
08FCC:  BCF    xA7.0
....................             Op2=OFF; 
08FCE:  BCF    xA7.1
....................             MenuAnt=Menu; 
08FD0:  MOVFF  1F0,1F1
....................             CantidadPulsos=7; 
08FD4:  MOVLB  1
08FD6:  CLRF   xF8
08FD8:  MOVLW  07
08FDA:  MOVWF  xF7
....................             NivelVacio=32; 
08FDC:  MOVLW  20
08FDE:  MOVLB  2
08FE0:  MOVWF  x3B
....................             Fugas=OFF; 
08FE2:  MOVLB  0
08FE4:  BCF    xA9.1
....................             TiempoVacio=CantidadPulsos*180; 
08FE6:  MOVFF  1F8,667
08FEA:  MOVFF  1F7,666
08FEE:  MOVLB  6
08FF0:  CLRF   x69
08FF2:  MOVLW  B4
08FF4:  MOVWF  x68
08FF6:  MOVLB  0
08FF8:  CALL   23E0
08FFC:  MOVFF  02,A5
09000:  MOVFF  01,A4
....................          } 
....................       } 
....................        
....................       if(RX_Buffer[4]==0x06 && RX_Buffer[5]==0x0f && estados[19+RX_Buffer[4]]){//06, Envuelto Doble 1 
09004:  MOVF   34,W
09006:  SUBLW  06
09008:  BNZ   90CE
0900A:  MOVF   35,W
0900C:  SUBLW  0F
0900E:  BNZ   90CE
09010:  MOVLW  13
09012:  ADDWF  34,W
09014:  MOVLB  6
09016:  MOVWF  x4D
09018:  MOVLW  02
0901A:  MOVWF  x4F
0901C:  MOVLW  B7
0901E:  MOVWF  x4E
09020:  MOVLB  0
09022:  CALL   23AE
09026:  BTFSS  01.0
09028:  BRA    90CE
....................          delay_ms(5); 
0902A:  MOVLW  05
0902C:  MOVLB  6
0902E:  MOVWF  x64
09030:  MOVLB  0
09032:  CALL   1F6E
....................          if(RX_Buffer[4]==0x06 && RX_Buffer[5]==0x0f && estados[19+RX_Buffer[4]]){ 
09036:  MOVF   34,W
09038:  SUBLW  06
0903A:  BNZ   90CE
0903C:  MOVF   35,W
0903E:  SUBLW  0F
09040:  BNZ   90CE
09042:  MOVLW  13
09044:  ADDWF  34,W
09046:  MOVLB  6
09048:  MOVWF  x4D
0904A:  MOVLW  02
0904C:  MOVWF  x4F
0904E:  MOVLW  B7
09050:  MOVWF  x4E
09052:  MOVLB  0
09054:  CALL   23AE
09058:  BTFSS  01.0
0905A:  BRA    90CE
....................             printf("page Funcionamiento"); 
0905C:  MOVLW  8A
0905E:  MOVWF  FF6
09060:  MOVLW  09
09062:  MOVWF  FF7
09064:  MOVLW  00
09066:  MOVWF  FF8
09068:  CALL   4248
....................             SendDataDisplay();        
0906C:  CALL   427A
....................             ConfiguraCiclo(0,0,7,0,0,0,0,2,0,6,134); 
09070:  MOVLB  6
09072:  CLRF   x55
09074:  CLRF   x56
09076:  MOVLW  07
09078:  MOVWF  x57
0907A:  CLRF   x58
0907C:  CLRF   x59
0907E:  CLRF   x5A
09080:  CLRF   x5B
09082:  MOVLW  02
09084:  MOVWF  x5C
09086:  CLRF   x5D
09088:  MOVLW  06
0908A:  MOVWF  x5E
0908C:  MOVLW  86
0908E:  MOVWF  x5F
09090:  MOVLB  0
09092:  CALL   6250
....................             Op=OFF; 
09096:  BCF    xA7.0
....................             Op2=OFF; 
09098:  BCF    xA7.1
....................             MenuAnt=Menu; 
0909A:  MOVFF  1F0,1F1
....................             CantidadPulsos=7; 
0909E:  MOVLB  1
090A0:  CLRF   xF8
090A2:  MOVLW  07
090A4:  MOVWF  xF7
....................             NivelVacio=32; 
090A6:  MOVLW  20
090A8:  MOVLB  2
090AA:  MOVWF  x3B
....................             Fugas=OFF; 
090AC:  MOVLB  0
090AE:  BCF    xA9.1
....................             TiempoVacio=CantidadPulsos*180; 
090B0:  MOVFF  1F8,667
090B4:  MOVFF  1F7,666
090B8:  MOVLB  6
090BA:  CLRF   x69
090BC:  MOVLW  B4
090BE:  MOVWF  x68
090C0:  MOVLB  0
090C2:  CALL   23E0
090C6:  MOVFF  02,A5
090CA:  MOVFF  01,A4
....................          } 
....................       } 
....................        
....................       if(RX_Buffer[4]==0x07 && RX_Buffer[5]==0x0f && estados[19+RX_Buffer[4]]){//07, Envuelto Doble 2 
090CE:  MOVF   34,W
090D0:  SUBLW  07
090D2:  BNZ   9198
090D4:  MOVF   35,W
090D6:  SUBLW  0F
090D8:  BNZ   9198
090DA:  MOVLW  13
090DC:  ADDWF  34,W
090DE:  MOVLB  6
090E0:  MOVWF  x4D
090E2:  MOVLW  02
090E4:  MOVWF  x4F
090E6:  MOVLW  B7
090E8:  MOVWF  x4E
090EA:  MOVLB  0
090EC:  CALL   23AE
090F0:  BTFSS  01.0
090F2:  BRA    9198
....................          delay_ms(5); 
090F4:  MOVLW  05
090F6:  MOVLB  6
090F8:  MOVWF  x64
090FA:  MOVLB  0
090FC:  CALL   1F6E
....................          if(RX_Buffer[4]==0x07 && RX_Buffer[5]==0x0f && estados[19+RX_Buffer[4]]){ 
09100:  MOVF   34,W
09102:  SUBLW  07
09104:  BNZ   9198
09106:  MOVF   35,W
09108:  SUBLW  0F
0910A:  BNZ   9198
0910C:  MOVLW  13
0910E:  ADDWF  34,W
09110:  MOVLB  6
09112:  MOVWF  x4D
09114:  MOVLW  02
09116:  MOVWF  x4F
09118:  MOVLW  B7
0911A:  MOVWF  x4E
0911C:  MOVLB  0
0911E:  CALL   23AE
09122:  BTFSS  01.0
09124:  BRA    9198
....................             printf("page Funcionamiento"); 
09126:  MOVLW  9E
09128:  MOVWF  FF6
0912A:  MOVLW  09
0912C:  MOVWF  FF7
0912E:  MOVLW  00
09130:  MOVWF  FF8
09132:  CALL   4248
....................             SendDataDisplay();        
09136:  CALL   427A
....................             ConfiguraCiclo(0,0,7,0,0,0,0,3,0,7,134); 
0913A:  MOVLB  6
0913C:  CLRF   x55
0913E:  CLRF   x56
09140:  MOVLW  07
09142:  MOVWF  x57
09144:  CLRF   x58
09146:  CLRF   x59
09148:  CLRF   x5A
0914A:  CLRF   x5B
0914C:  MOVLW  03
0914E:  MOVWF  x5C
09150:  CLRF   x5D
09152:  MOVLW  07
09154:  MOVWF  x5E
09156:  MOVLW  86
09158:  MOVWF  x5F
0915A:  MOVLB  0
0915C:  CALL   6250
....................             Op=OFF; 
09160:  BCF    xA7.0
....................             Op2=OFF; 
09162:  BCF    xA7.1
....................             MenuAnt=Menu; 
09164:  MOVFF  1F0,1F1
....................             CantidadPulsos=7; 
09168:  MOVLB  1
0916A:  CLRF   xF8
0916C:  MOVLW  07
0916E:  MOVWF  xF7
....................             NivelVacio=32; 
09170:  MOVLW  20
09172:  MOVLB  2
09174:  MOVWF  x3B
....................             Fugas=OFF; 
09176:  MOVLB  0
09178:  BCF    xA9.1
....................             TiempoVacio=CantidadPulsos*180; 
0917A:  MOVFF  1F8,667
0917E:  MOVFF  1F7,666
09182:  MOVLB  6
09184:  CLRF   x69
09186:  MOVLW  B4
09188:  MOVWF  x68
0918A:  MOVLB  0
0918C:  CALL   23E0
09190:  MOVFF  02,A5
09194:  MOVFF  01,A4
....................          } 
....................       } 
....................        
....................       if(RX_Buffer[4]==0x08 && RX_Buffer[5]==0x0f && estados[19+RX_Buffer[4]]){//08, Prion 
09198:  MOVF   34,W
0919A:  SUBLW  08
0919C:  BNZ   9266
0919E:  MOVF   35,W
091A0:  SUBLW  0F
091A2:  BNZ   9266
091A4:  MOVLW  13
091A6:  ADDWF  34,W
091A8:  MOVLB  6
091AA:  MOVWF  x4D
091AC:  MOVLW  02
091AE:  MOVWF  x4F
091B0:  MOVLW  B7
091B2:  MOVWF  x4E
091B4:  MOVLB  0
091B6:  CALL   23AE
091BA:  BTFSS  01.0
091BC:  BRA    9266
....................          delay_ms(5); 
091BE:  MOVLW  05
091C0:  MOVLB  6
091C2:  MOVWF  x64
091C4:  MOVLB  0
091C6:  CALL   1F6E
....................          if(RX_Buffer[4]==0x08 && RX_Buffer[5]==0x0f && estados[19+RX_Buffer[4]]){ 
091CA:  MOVF   34,W
091CC:  SUBLW  08
091CE:  BNZ   9266
091D0:  MOVF   35,W
091D2:  SUBLW  0F
091D4:  BNZ   9266
091D6:  MOVLW  13
091D8:  ADDWF  34,W
091DA:  MOVLB  6
091DC:  MOVWF  x4D
091DE:  MOVLW  02
091E0:  MOVWF  x4F
091E2:  MOVLW  B7
091E4:  MOVWF  x4E
091E6:  MOVLB  0
091E8:  CALL   23AE
091EC:  BTFSS  01.0
091EE:  BRA    9266
....................             printf("page Funcionamiento"); 
091F0:  MOVLW  B2
091F2:  MOVWF  FF6
091F4:  MOVLW  09
091F6:  MOVWF  FF7
091F8:  MOVLW  00
091FA:  MOVWF  FF8
091FC:  CALL   4248
....................             SendDataDisplay();        
09200:  CALL   427A
....................             ConfiguraCiclo(0,0,8,1,0,0,5,1,0,8,134); 
09204:  MOVLB  6
09206:  CLRF   x55
09208:  CLRF   x56
0920A:  MOVLW  08
0920C:  MOVWF  x57
0920E:  MOVLW  01
09210:  MOVWF  x58
09212:  CLRF   x59
09214:  CLRF   x5A
09216:  MOVLW  05
09218:  MOVWF  x5B
0921A:  MOVLW  01
0921C:  MOVWF  x5C
0921E:  CLRF   x5D
09220:  MOVLW  08
09222:  MOVWF  x5E
09224:  MOVLW  86
09226:  MOVWF  x5F
09228:  MOVLB  0
0922A:  CALL   6250
....................             Op=OFF; 
0922E:  BCF    xA7.0
....................             Op2=OFF; 
09230:  BCF    xA7.1
....................             MenuAnt=Menu; 
09232:  MOVFF  1F0,1F1
....................             CantidadPulsos=7; 
09236:  MOVLB  1
09238:  CLRF   xF8
0923A:  MOVLW  07
0923C:  MOVWF  xF7
....................             NivelVacio=32; 
0923E:  MOVLW  20
09240:  MOVLB  2
09242:  MOVWF  x3B
....................             Fugas=OFF; 
09244:  MOVLB  0
09246:  BCF    xA9.1
....................             TiempoVacio=CantidadPulsos*180; 
09248:  MOVFF  1F8,667
0924C:  MOVFF  1F7,666
09250:  MOVLB  6
09252:  CLRF   x69
09254:  MOVLW  B4
09256:  MOVWF  x68
09258:  MOVLB  0
0925A:  CALL   23E0
0925E:  MOVFF  02,A5
09262:  MOVFF  01,A4
....................          } 
....................       } 
....................        
....................       if(RX_Buffer[4]==0x09 && RX_Buffer[5]==0x0f && estados[19+RX_Buffer[4]]){//09, Bowie & Dick 
09266:  MOVF   34,W
09268:  SUBLW  09
0926A:  BNZ   9330
0926C:  MOVF   35,W
0926E:  SUBLW  0F
09270:  BNZ   9330
09272:  MOVLW  13
09274:  ADDWF  34,W
09276:  MOVLB  6
09278:  MOVWF  x4D
0927A:  MOVLW  02
0927C:  MOVWF  x4F
0927E:  MOVLW  B7
09280:  MOVWF  x4E
09282:  MOVLB  0
09284:  CALL   23AE
09288:  BTFSS  01.0
0928A:  BRA    9330
....................          delay_ms(5); 
0928C:  MOVLW  05
0928E:  MOVLB  6
09290:  MOVWF  x64
09292:  MOVLB  0
09294:  CALL   1F6E
....................          if(RX_Buffer[4]==0x09 && RX_Buffer[5]==0x0f && estados[19+RX_Buffer[4]]){ 
09298:  MOVF   34,W
0929A:  SUBLW  09
0929C:  BNZ   9330
0929E:  MOVF   35,W
092A0:  SUBLW  0F
092A2:  BNZ   9330
092A4:  MOVLW  13
092A6:  ADDWF  34,W
092A8:  MOVLB  6
092AA:  MOVWF  x4D
092AC:  MOVLW  02
092AE:  MOVWF  x4F
092B0:  MOVLW  B7
092B2:  MOVWF  x4E
092B4:  MOVLB  0
092B6:  CALL   23AE
092BA:  BTFSS  01.0
092BC:  BRA    9330
....................             printf("page Funcionamiento"); 
092BE:  MOVLW  C6
092C0:  MOVWF  FF6
092C2:  MOVLW  09
092C4:  MOVWF  FF7
092C6:  MOVLW  00
092C8:  MOVWF  FF8
092CA:  CALL   4248
....................             SendDataDisplay();        
092CE:  CALL   427A
....................             ConfiguraCiclo(0,3,3,0,0,0,2,0,0,9,134); 
092D2:  MOVLB  6
092D4:  CLRF   x55
092D6:  MOVLW  03
092D8:  MOVWF  x56
092DA:  MOVWF  x57
092DC:  CLRF   x58
092DE:  CLRF   x59
092E0:  CLRF   x5A
092E2:  MOVLW  02
092E4:  MOVWF  x5B
092E6:  CLRF   x5C
092E8:  CLRF   x5D
092EA:  MOVLW  09
092EC:  MOVWF  x5E
092EE:  MOVLW  86
092F0:  MOVWF  x5F
092F2:  MOVLB  0
092F4:  CALL   6250
....................             Op=OFF; 
092F8:  BCF    xA7.0
....................             Op2=OFF; 
092FA:  BCF    xA7.1
....................             MenuAnt=Menu; 
092FC:  MOVFF  1F0,1F1
....................             CantidadPulsos=7; 
09300:  MOVLB  1
09302:  CLRF   xF8
09304:  MOVLW  07
09306:  MOVWF  xF7
....................             NivelVacio=32; 
09308:  MOVLW  20
0930A:  MOVLB  2
0930C:  MOVWF  x3B
....................             Fugas=OFF; 
0930E:  MOVLB  0
09310:  BCF    xA9.1
....................             TiempoVacio=CantidadPulsos*180; 
09312:  MOVFF  1F8,667
09316:  MOVFF  1F7,666
0931A:  MOVLB  6
0931C:  CLRF   x69
0931E:  MOVLW  B4
09320:  MOVWF  x68
09322:  MOVLB  0
09324:  CALL   23E0
09328:  MOVFF  02,A5
0932C:  MOVFF  01,A4
....................          } 
....................       } 
....................        
....................       if(RX_Buffer[4]==0x0a && RX_Buffer[5]==0x0f && estados[19+RX_Buffer[4]]){//0a, Test de Fugas 
09330:  MOVF   34,W
09332:  SUBLW  0A
09334:  BNZ   93F8
09336:  MOVF   35,W
09338:  SUBLW  0F
0933A:  BNZ   93F8
0933C:  MOVLW  13
0933E:  ADDWF  34,W
09340:  MOVLB  6
09342:  MOVWF  x4D
09344:  MOVLW  02
09346:  MOVWF  x4F
09348:  MOVLW  B7
0934A:  MOVWF  x4E
0934C:  MOVLB  0
0934E:  CALL   23AE
09352:  BTFSS  01.0
09354:  BRA    93F8
....................          delay_ms(5); 
09356:  MOVLW  05
09358:  MOVLB  6
0935A:  MOVWF  x64
0935C:  MOVLB  0
0935E:  CALL   1F6E
....................          if(RX_Buffer[4]==0x0a && RX_Buffer[5]==0x0f && estados[19+RX_Buffer[4]]){ 
09362:  MOVF   34,W
09364:  SUBLW  0A
09366:  BNZ   93F8
09368:  MOVF   35,W
0936A:  SUBLW  0F
0936C:  BNZ   93F8
0936E:  MOVLW  13
09370:  ADDWF  34,W
09372:  MOVLB  6
09374:  MOVWF  x4D
09376:  MOVLW  02
09378:  MOVWF  x4F
0937A:  MOVLW  B7
0937C:  MOVWF  x4E
0937E:  MOVLB  0
09380:  CALL   23AE
09384:  BTFSS  01.0
09386:  BRA    93F8
....................             printf("page Funcionamiento"); 
09388:  MOVLW  DA
0938A:  MOVWF  FF6
0938C:  MOVLW  09
0938E:  MOVWF  FF7
09390:  MOVLW  00
09392:  MOVWF  FF8
09394:  CALL   4248
....................             SendDataDisplay();        
09398:  CALL   427A
....................             ConfiguraCiclo(0,0,5,1,0,0,0,0,0,10,0); 
0939C:  MOVLB  6
0939E:  CLRF   x55
093A0:  CLRF   x56
093A2:  MOVLW  05
093A4:  MOVWF  x57
093A6:  MOVLW  01
093A8:  MOVWF  x58
093AA:  CLRF   x59
093AC:  CLRF   x5A
093AE:  CLRF   x5B
093B0:  CLRF   x5C
093B2:  CLRF   x5D
093B4:  MOVLW  0A
093B6:  MOVWF  x5E
093B8:  CLRF   x5F
093BA:  MOVLB  0
093BC:  CALL   6250
....................             Op=OFF; 
093C0:  BCF    xA7.0
....................             Op2=OFF; 
093C2:  BCF    xA7.1
....................             MenuAnt=Menu; 
093C4:  MOVFF  1F0,1F1
....................             CantidadPulsos=1; 
093C8:  MOVLB  1
093CA:  CLRF   xF8
093CC:  MOVLW  01
093CE:  MOVWF  xF7
....................             NivelVacio=17; 
093D0:  MOVLW  11
093D2:  MOVLB  2
093D4:  MOVWF  x3B
....................             Fugas=ON; 
093D6:  MOVLB  0
093D8:  BSF    xA9.1
....................             TiempoVacio=CantidadPulsos*180; 
093DA:  MOVFF  1F8,667
093DE:  MOVFF  1F7,666
093E2:  MOVLB  6
093E4:  CLRF   x69
093E6:  MOVLW  B4
093E8:  MOVWF  x68
093EA:  MOVLB  0
093EC:  CALL   23E0
093F0:  MOVFF  02,A5
093F4:  MOVFF  01,A4
....................          } 
....................       } 
....................        
....................       if(RX_Buffer[4]==0xa0){//a0, Ciclos Fijos 
093F8:  MOVF   34,W
093FA:  SUBLW  A0
093FC:  BNZ   9412
....................          printf("page Menu"); 
093FE:  MOVLW  EE
09400:  MOVWF  FF6
09402:  MOVLW  09
09404:  MOVWF  FF7
09406:  MOVLW  00
09408:  MOVWF  FF8
0940A:  CALL   4248
....................          SendDataDisplay();      
0940E:  CALL   427A
....................       } 
....................        
....................       if(RX_Buffer[4]==0xb0){//b0, Personalizados 
09412:  MOVF   34,W
09414:  SUBLW  B0
09416:  BNZ   942C
....................          printf("page CicloPersona"); 
09418:  MOVLW  F8
0941A:  MOVWF  FF6
0941C:  MOVLW  09
0941E:  MOVWF  FF7
09420:  MOVLW  00
09422:  MOVWF  FF8
09424:  CALL   4248
....................          SendDataDisplay();      
09428:  CALL   427A
....................       } 
....................        
....................       if(RX_Buffer[4]==0xc0){//c0, Configuraciones 
0942C:  MOVF   34,W
0942E:  SUBLW  C0
09430:  BNZ   9454
....................          if(codigoUsuario==0 || codigoUsuario==9){        
09432:  MOVLB  2
09434:  MOVF   x4B,F
09436:  BZ    943E
09438:  MOVF   x4B,W
0943A:  SUBLW  09
0943C:  BNZ   9456
....................             printf("page Ajustes"); 
0943E:  MOVLW  0A
09440:  MOVWF  FF6
09442:  MOVLW  0A
09444:  MOVWF  FF7
09446:  MOVLW  00
09448:  MOVWF  FF8
0944A:  MOVLB  0
0944C:  CALL   4248
....................             SendDataDisplay();      
09450:  CALL   427A
09454:  MOVLB  2
....................          } 
....................       } 
....................  
....................          if(RIGHT && LEFT){ 
09456:  BSF    F93.4
09458:  BTFSC  F81.4
0945A:  BRA    94A4
0945C:  BSF    F93.3
0945E:  BTFSC  F81.3
09460:  BRA    94A4
....................             delay_ms(20); 
09462:  MOVLW  14
09464:  MOVLB  6
09466:  MOVWF  x64
09468:  MOVLB  0
0946A:  CALL   1F6E
....................             if(RIGHT && LEFT){ 
0946E:  BSF    F93.4
09470:  BTFSC  F81.4
09472:  BRA    94A6
09474:  BSF    F93.3
09476:  BTFSC  F81.3
09478:  BRA    94A6
....................                printf("page Clave"); 
0947A:  MOVLW  18
0947C:  MOVWF  FF6
0947E:  MOVLW  0A
09480:  MOVWF  FF7
09482:  MOVLW  00
09484:  MOVWF  FF8
09486:  CALL   4248
....................                SendDataDisplay();  
0948A:  CALL   427A
....................                Op=OFF; 
0948E:  BCF    xA7.0
....................                Op2=OFF; 
09490:  BCF    xA7.1
....................                MenuAnt=Menu; 
09492:  MOVFF  1F0,1F1
....................                TipoClave=1; 
09496:  MOVLW  01
09498:  MOVLB  1
0949A:  MOVWF  x95
....................                RX_Buffer[3]=0x00; 
0949C:  CLRF   33
....................                RX_Buffer2[3]=0x00; 
0949E:  CLRF   3E
....................                Opcion=0; 
094A0:  MOVLB  2
094A2:  CLRF   x00
094A4:  MOVLB  0
094A6:  MOVLB  1
....................             } 
....................          } 
....................    } 
.................... //_--------------------------------------------------------------------------------------------------------------------------------------------------------        
....................  
.................... //_-------------------------------------------------------------------------------------------------------------------------------------------------------- 
....................     if(Menu==2){ //Menu de Tiempo Esterilizacion      
094A8:  MOVF   xF0,W
094AA:  SUBLW  02
094AC:  BTFSS  FD8.2
094AE:  BRA    98C8
....................       printf("fecha.txt=\"Fecha:%02u/%02u/20%02u    Hora: %02u:%02u:%02u\"",Dia,Mes,Year,Hora,Minuto,Segundo); 
094B0:  MOVLW  24
094B2:  MOVWF  FF6
094B4:  MOVLW  0A
094B6:  MOVWF  FF7
094B8:  MOVLW  00
094BA:  MOVWF  FF8
094BC:  MOVLW  11
094BE:  MOVLB  6
094C0:  MOVWF  x51
094C2:  MOVLB  0
094C4:  CALL   5AAC
094C8:  MOVFF  236,651
094CC:  MOVLW  01
094CE:  MOVLB  6
094D0:  MOVWF  x52
094D2:  MOVLB  0
094D4:  CALL   5B30
094D8:  MOVLW  2F
094DA:  BTFSS  F9E.4
094DC:  BRA    94DA
094DE:  MOVWF  FAD
094E0:  MOVFF  235,651
094E4:  MOVLW  01
094E6:  MOVLB  6
094E8:  MOVWF  x52
094EA:  MOVLB  0
094EC:  CALL   5B30
094F0:  MOVLW  2F
094F2:  BTFSS  F9E.4
094F4:  BRA    94F2
094F6:  MOVWF  FAD
094F8:  MOVLW  32
094FA:  BTFSS  F9E.4
094FC:  BRA    94FA
094FE:  MOVWF  FAD
09500:  MOVLW  30
09502:  BTFSS  F9E.4
09504:  BRA    9502
09506:  MOVWF  FAD
09508:  MOVFF  234,651
0950C:  MOVLW  01
0950E:  MOVLB  6
09510:  MOVWF  x52
09512:  MOVLB  0
09514:  CALL   5B30
09518:  MOVLW  45
0951A:  MOVWF  FF6
0951C:  MOVLW  0A
0951E:  MOVWF  FF7
09520:  MOVLW  00
09522:  MOVWF  FF8
09524:  MOVLW  0A
09526:  MOVLB  6
09528:  MOVWF  x51
0952A:  MOVLB  0
0952C:  CALL   5AAC
09530:  MOVFF  237,651
09534:  MOVLW  01
09536:  MOVLB  6
09538:  MOVWF  x52
0953A:  MOVLB  0
0953C:  CALL   5B30
09540:  MOVLW  3A
09542:  BTFSS  F9E.4
09544:  BRA    9542
09546:  MOVWF  FAD
09548:  MOVFF  238,651
0954C:  MOVLW  01
0954E:  MOVLB  6
09550:  MOVWF  x52
09552:  MOVLB  0
09554:  CALL   5B30
09558:  MOVLW  3A
0955A:  BTFSS  F9E.4
0955C:  BRA    955A
0955E:  MOVWF  FAD
09560:  MOVFF  239,651
09564:  MOVLW  01
09566:  MOVLB  6
09568:  MOVWF  x52
0956A:  MOVLB  0
0956C:  CALL   5B30
09570:  MOVLW  22
09572:  BTFSS  F9E.4
09574:  BRA    9572
09576:  MOVWF  FAD
....................       SendDataDisplay(); 
09578:  CALL   427A
....................          if(RX_Buffer[4]==0x0a){//Selecciono Minutos 
0957C:  MOVF   34,W
0957E:  SUBLW  0A
09580:  BNZ   9586
....................             Minutos=ON; 
09582:  BSF    xA7.2
....................             Segundos=OFF; 
09584:  BCF    xA7.3
....................          } 
....................           
....................          if(RX_Buffer[4]==0x0b){//Selecciono Segundos 
09586:  MOVF   34,W
09588:  SUBLW  0B
0958A:  BNZ   9590
....................             Segundos=ON; 
0958C:  BSF    xA7.3
....................             Minutos=OFF; 
0958E:  BCF    xA7.2
....................          } 
....................           
....................          if(RX_Buffer[4]==0x11){//Selecciono Regresar 
09590:  MOVF   34,W
09592:  SUBLW  11
09594:  BTFSS  FD8.2
09596:  BRA    970A
....................             Segundos=OFF; 
09598:  BCF    xA7.3
....................             Minutos=OFF; 
0959A:  BCF    xA7.2
....................             printf("page CicloPersona"); 
0959C:  MOVLW  60
0959E:  MOVWF  FF6
095A0:  MOVLW  0A
095A2:  MOVWF  FF7
095A4:  MOVLW  00
095A6:  MOVWF  FF8
095A8:  CALL   4248
....................             SendDataDisplay();   
095AC:  CALL   427A
....................             PantallaPrincipal=1; 
095B0:  MOVLW  01
095B2:  MOVLB  1
095B4:  MOVWF  x94
....................             Op=OFF; 
095B6:  MOVLB  0
095B8:  BCF    xA7.0
....................             Op2=OFF; 
095BA:  BCF    xA7.1
....................             if(!GuardaEEPROM){ 
095BC:  BTFSC  xA7.4
095BE:  BRA    970A
....................                CiclosPersonalizados[CicloLibre-1].Minutoest=Testerilizacionp[2]+(Testerilizacionp[3]*10); 
095C0:  MOVLW  01
095C2:  MOVLB  2
095C4:  SUBWF  x48,W
095C6:  MULLW  08
095C8:  MOVF   FF3,W
095CA:  MOVLB  6
095CC:  CLRF   x4C
095CE:  MOVWF  x4B
095D0:  MOVLW  01
095D2:  ADDWF  x4B,W
095D4:  MOVWF  01
095D6:  MOVLW  00
095D8:  ADDWFC x4C,W
095DA:  MOVWF  03
095DC:  MOVF   01,W
095DE:  ADDLW  83
095E0:  MOVWF  FE9
095E2:  MOVLW  05
095E4:  ADDWFC 03,W
095E6:  MOVWF  FEA
095E8:  MOVFF  BC,64D
095EC:  MOVLW  0A
095EE:  MOVWF  x4E
095F0:  MOVLB  0
095F2:  CALL   3D3A
095F6:  MOVF   01,W
095F8:  ADDWF  xBB,W
095FA:  MOVWF  FEF
....................                CiclosPersonalizados[CicloLibre-1].Segundoest=Testerilizacionp[0]+(Testerilizacionp[1]*10); 
095FC:  MOVLW  01
095FE:  MOVLB  2
09600:  SUBWF  x48,W
09602:  MULLW  08
09604:  MOVF   FF3,W
09606:  MOVLB  6
09608:  CLRF   x4C
0960A:  MOVWF  x4B
0960C:  MOVLW  02
0960E:  ADDWF  x4B,W
09610:  MOVWF  01
09612:  MOVLW  00
09614:  ADDWFC x4C,W
09616:  MOVWF  03
09618:  MOVF   01,W
0961A:  ADDLW  83
0961C:  MOVWF  FE9
0961E:  MOVLW  05
09620:  ADDWFC 03,W
09622:  MOVWF  FEA
09624:  MOVFF  BA,64D
09628:  MOVLW  0A
0962A:  MOVWF  x4E
0962C:  MOVLB  0
0962E:  CALL   3D3A
09632:  MOVF   01,W
09634:  ADDWF  xB9,W
09636:  MOVWF  FEF
....................                write_eeprom(101+((CicloLibre-1)*8),Testerilizacionp[2]+(Testerilizacionp[3]*10)); 
09638:  MOVLW  01
0963A:  MOVLB  2
0963C:  SUBWF  x48,W
0963E:  MULLW  08
09640:  MOVF   FF3,W
09642:  ADDLW  65
09644:  MOVLB  6
09646:  MOVWF  x4B
09648:  MOVFF  BC,64D
0964C:  MOVLW  0A
0964E:  MOVWF  x4E
09650:  MOVLB  0
09652:  CALL   3D3A
09656:  MOVF   01,W
09658:  ADDWF  xBB,W
0965A:  MOVLB  6
0965C:  MOVWF  x4C
0965E:  CLRF   FAA
09660:  MOVFF  64B,FA9
09664:  MOVFF  64C,FA8
09668:  BCF    FA6.6
0966A:  BCF    FA6.7
0966C:  BSF    FA6.2
0966E:  MOVF   FF2,W
09670:  MOVWF  00
09672:  BCF    FF2.6
09674:  BCF    FF2.7
09676:  MOVLB  F
09678:  MOVLW  55
0967A:  MOVWF  FA7
0967C:  MOVLW  AA
0967E:  MOVWF  FA7
09680:  BSF    FA6.1
09682:  BTFSC  FA6.1
09684:  BRA    9682
09686:  BCF    FA6.2
09688:  MOVF   00,W
0968A:  IORWF  FF2,F
....................                delay_ms(10); 
0968C:  MOVLW  0A
0968E:  MOVLB  6
09690:  MOVWF  x64
09692:  MOVLB  0
09694:  CALL   1F6E
....................                write_eeprom(102+((CicloLibre-1)*8),Testerilizacionp[0]+(Testerilizacionp[1]*10)); 
09698:  MOVLW  01
0969A:  MOVLB  2
0969C:  SUBWF  x48,W
0969E:  MULLW  08
096A0:  MOVF   FF3,W
096A2:  ADDLW  66
096A4:  MOVLB  6
096A6:  MOVWF  x4B
096A8:  MOVFF  BA,64D
096AC:  MOVLW  0A
096AE:  MOVWF  x4E
096B0:  MOVLB  0
096B2:  CALL   3D3A
096B6:  MOVF   01,W
096B8:  ADDWF  xB9,W
096BA:  MOVLB  6
096BC:  MOVWF  x4C
096BE:  CLRF   FAA
096C0:  MOVFF  64B,FA9
096C4:  MOVFF  64C,FA8
096C8:  BCF    FA6.6
096CA:  BCF    FA6.7
096CC:  BSF    FA6.2
096CE:  MOVF   FF2,W
096D0:  MOVWF  00
096D2:  BCF    FF2.6
096D4:  BCF    FF2.7
096D6:  MOVLB  F
096D8:  MOVLW  55
096DA:  MOVWF  FA7
096DC:  MOVLW  AA
096DE:  MOVWF  FA7
096E0:  BSF    FA6.1
096E2:  BTFSC  FA6.1
096E4:  BRA    96E2
096E6:  BCF    FA6.2
096E8:  MOVF   00,W
096EA:  IORWF  FF2,F
....................                delay_ms(10); 
096EC:  MOVLW  0A
096EE:  MOVLB  6
096F0:  MOVWF  x64
096F2:  MOVLB  0
096F4:  CALL   1F6E
....................                Testerilizacion[0]=Testerilizacionp[0]; 
096F8:  MOVFF  B9,B5
....................                Testerilizacion[1]=Testerilizacionp[1]; 
096FC:  MOVFF  BA,B6
....................                Testerilizacion[2]=Testerilizacionp[2]; 
09700:  MOVFF  BB,B7
....................                Testerilizacion[3]=Testerilizacionp[3]; 
09704:  MOVFF  BC,B8
....................                GuardaEEPROM=ON; 
09708:  BSF    xA7.4
....................             } 
....................          } 
....................           
....................          if(RX_Buffer[4]==0x0d && !Op){//Tecla Arriba Oprimida 
0970A:  MOVF   34,W
0970C:  SUBLW  0D
0970E:  BNZ   9758
09710:  BTFSC  xA7.0
09712:  BRA    9758
....................             if(Segundos){ 
09714:  BTFSS  xA7.3
09716:  BRA    9734
....................                Testerilizacionp[0]++; 
09718:  INCF   xB9,F
....................                if(Testerilizacionp[0]>9){ 
0971A:  BTFSC  xB9.7
0971C:  BRA    9734
0971E:  MOVF   xB9,W
09720:  SUBLW  09
09722:  BC    9734
....................                   Testerilizacionp[1]++; 
09724:  INCF   xBA,F
....................                   if(Testerilizacionp[1]>5) 
09726:  BTFSC  xBA.7
09728:  BRA    9732
0972A:  MOVF   xBA,W
0972C:  SUBLW  05
0972E:  BC    9732
....................                      Testerilizacionp[1]=0; 
09730:  CLRF   xBA
....................                   Testerilizacionp[0]=0; 
09732:  CLRF   xB9
....................                } 
....................             } 
....................             if(Minutos){ 
09734:  BTFSS  xA7.2
09736:  BRA    9754
....................                Testerilizacionp[2]++; 
09738:  INCF   xBB,F
....................                if(Testerilizacionp[2]>9){ 
0973A:  BTFSC  xBB.7
0973C:  BRA    9754
0973E:  MOVF   xBB,W
09740:  SUBLW  09
09742:  BC    9754
....................                   Testerilizacionp[3]++; 
09744:  INCF   xBC,F
....................                   if(Testerilizacionp[3]>5) 
09746:  BTFSC  xBC.7
09748:  BRA    9752
0974A:  MOVF   xBC,W
0974C:  SUBLW  05
0974E:  BC    9752
....................                      Testerilizacionp[3]=0; 
09750:  CLRF   xBC
....................                   Testerilizacionp[2]=0; 
09752:  CLRF   xBB
....................                } 
....................             } 
....................             RX_Buffer[4]=0x00; 
09754:  CLRF   34
....................             Op=ON; 
09756:  BSF    xA7.0
....................             //BorraBuffer(); 
....................          } 
....................           
....................          if(RX_Buffer[4]==0x0c && Op){//Tecla Derecha Oprimida 
09758:  MOVF   34,W
0975A:  SUBLW  0C
0975C:  BNZ   97A6
0975E:  BTFSS  xA7.0
09760:  BRA    97A6
....................             if(Segundos){ 
09762:  BTFSS  xA7.3
09764:  BRA    9782
....................                Testerilizacionp[0]++; 
09766:  INCF   xB9,F
....................                if(Testerilizacionp[0]>9){ 
09768:  BTFSC  xB9.7
0976A:  BRA    9782
0976C:  MOVF   xB9,W
0976E:  SUBLW  09
09770:  BC    9782
....................                   Testerilizacionp[1]++; 
09772:  INCF   xBA,F
....................                   if(Testerilizacionp[1]>5) 
09774:  BTFSC  xBA.7
09776:  BRA    9780
09778:  MOVF   xBA,W
0977A:  SUBLW  05
0977C:  BC    9780
....................                      Testerilizacionp[1]=0; 
0977E:  CLRF   xBA
....................                   Testerilizacionp[0]=0; 
09780:  CLRF   xB9
....................                } 
....................             } 
....................             if(Minutos){ 
09782:  BTFSS  xA7.2
09784:  BRA    97A2
....................                Testerilizacionp[2]++; 
09786:  INCF   xBB,F
....................                if(Testerilizacionp[2]>9){ 
09788:  BTFSC  xBB.7
0978A:  BRA    97A2
0978C:  MOVF   xBB,W
0978E:  SUBLW  09
09790:  BC    97A2
....................                   Testerilizacionp[3]++; 
09792:  INCF   xBC,F
....................                   if(Testerilizacionp[3]>5) 
09794:  BTFSC  xBC.7
09796:  BRA    97A0
09798:  MOVF   xBC,W
0979A:  SUBLW  05
0979C:  BC    97A0
....................                      Testerilizacionp[3]=0; 
0979E:  CLRF   xBC
....................                   Testerilizacionp[2]=0; 
097A0:  CLRF   xBB
....................                } 
....................             } 
....................             RX_Buffer[4]=0x00; 
097A2:  CLRF   34
....................             Op=OFF; 
097A4:  BCF    xA7.0
....................             //BorraBuffer(); 
....................          } 
....................           
....................          if(RX_Buffer[4]==0x0e && !Op2){//Tecla Izquierda Oprimida 
097A6:  MOVF   34,W
097A8:  SUBLW  0E
097AA:  BNZ   97EC
097AC:  BTFSC  xA7.1
097AE:  BRA    97EC
....................             if(Segundos){ 
097B0:  BTFSS  xA7.3
097B2:  BRA    97CC
....................                Testerilizacionp[0]--; 
097B4:  DECF   xB9,F
....................                if(Testerilizacionp[0]<0){ 
097B6:  BTFSC  xB9.7
097B8:  BRA    97BC
097BA:  BRA    97CC
....................                   Testerilizacionp[1]--; 
097BC:  DECF   xBA,F
....................                   if(Testerilizacionp[1]<0) 
097BE:  BTFSC  xBA.7
097C0:  BRA    97C4
097C2:  BRA    97C8
....................                      Testerilizacionp[1]=5; 
097C4:  MOVLW  05
097C6:  MOVWF  xBA
....................                   Testerilizacionp[0]=9; 
097C8:  MOVLW  09
097CA:  MOVWF  xB9
....................                } 
....................             } 
....................             if(Minutos){ 
097CC:  BTFSS  xA7.2
097CE:  BRA    97E8
....................                Testerilizacionp[2]--; 
097D0:  DECF   xBB,F
....................                if(Testerilizacionp[2]<0){ 
097D2:  BTFSC  xBB.7
097D4:  BRA    97D8
097D6:  BRA    97E8
....................                   Testerilizacionp[3]--; 
097D8:  DECF   xBC,F
....................                   if(Testerilizacionp[3]<0) 
097DA:  BTFSC  xBC.7
097DC:  BRA    97E0
097DE:  BRA    97E4
....................                      Testerilizacionp[3]=5; 
097E0:  MOVLW  05
097E2:  MOVWF  xBC
....................                   Testerilizacionp[2]=9; 
097E4:  MOVLW  09
097E6:  MOVWF  xBB
....................                } 
....................             } 
....................             RX_Buffer[4]=0x00; 
097E8:  CLRF   34
....................             Op2=ON; 
097EA:  BSF    xA7.1
....................             //BorraBuffer(); 
....................          } 
....................           
....................          if(RX_Buffer[4]==0x0f && Op2){//Tecla Izquierda Oprimida 
097EC:  MOVF   34,W
097EE:  SUBLW  0F
097F0:  BNZ   9832
097F2:  BTFSS  xA7.1
097F4:  BRA    9832
....................              
....................             if(Segundos){ 
097F6:  BTFSS  xA7.3
097F8:  BRA    9812
....................                Testerilizacionp[0]--; 
097FA:  DECF   xB9,F
....................                if(Testerilizacionp[0]<0){ 
097FC:  BTFSC  xB9.7
097FE:  BRA    9802
09800:  BRA    9812
....................                   Testerilizacionp[1]--; 
09802:  DECF   xBA,F
....................                   if(Testerilizacionp[1]<0) 
09804:  BTFSC  xBA.7
09806:  BRA    980A
09808:  BRA    980E
....................                      Testerilizacionp[1]=5; 
0980A:  MOVLW  05
0980C:  MOVWF  xBA
....................                   Testerilizacionp[0]=9; 
0980E:  MOVLW  09
09810:  MOVWF  xB9
....................                } 
....................             } 
....................             if(Minutos){ 
09812:  BTFSS  xA7.2
09814:  BRA    982E
....................                Testerilizacionp[2]--; 
09816:  DECF   xBB,F
....................                if(Testerilizacionp[2]<0){ 
09818:  BTFSC  xBB.7
0981A:  BRA    981E
0981C:  BRA    982E
....................                   Testerilizacionp[3]--; 
0981E:  DECF   xBC,F
....................                   if(Testerilizacionp[3]<0) 
09820:  BTFSC  xBC.7
09822:  BRA    9826
09824:  BRA    982A
....................                      Testerilizacionp[3]=5; 
09826:  MOVLW  05
09828:  MOVWF  xBC
....................                   Testerilizacionp[2]=9; 
0982A:  MOVLW  09
0982C:  MOVWF  xBB
....................                } 
....................             } 
....................             RX_Buffer[4]=0x00; 
0982E:  CLRF   34
....................             Op2=OFF; 
09830:  BCF    xA7.1
....................             //BorraBuffer(); 
....................          } 
....................          printf("tminest.txt=\"%02u\"",((Testerilizacionp[3]*10)+Testerilizacionp[2])); 
09832:  MOVFF  BC,64D
09836:  MOVLW  0A
09838:  MOVLB  6
0983A:  MOVWF  x4E
0983C:  MOVLB  0
0983E:  CALL   3D3A
09842:  MOVF   xBB,W
09844:  ADDWF  01,W
09846:  MOVLB  6
09848:  MOVWF  x4B
0984A:  MOVLW  72
0984C:  MOVWF  FF6
0984E:  MOVLW  0A
09850:  MOVWF  FF7
09852:  MOVLW  00
09854:  MOVWF  FF8
09856:  MOVLW  0D
09858:  MOVWF  x51
0985A:  MOVLB  0
0985C:  CALL   5AAC
09860:  MOVFF  64B,651
09864:  MOVLW  01
09866:  MOVLB  6
09868:  MOVWF  x52
0986A:  MOVLB  0
0986C:  CALL   5B30
09870:  MOVLW  22
09872:  BTFSS  F9E.4
09874:  BRA    9872
09876:  MOVWF  FAD
....................          SendDataDisplay(); 
09878:  CALL   427A
....................          printf("tsecest.txt=\"%02u\"",((Testerilizacionp[1]*10)+Testerilizacionp[0])); 
0987C:  MOVFF  BA,64D
09880:  MOVLW  0A
09882:  MOVLB  6
09884:  MOVWF  x4E
09886:  MOVLB  0
09888:  CALL   3D3A
0988C:  MOVF   xB9,W
0988E:  ADDWF  01,W
09890:  MOVLB  6
09892:  MOVWF  x4B
09894:  MOVLW  86
09896:  MOVWF  FF6
09898:  MOVLW  0A
0989A:  MOVWF  FF7
0989C:  MOVLW  00
0989E:  MOVWF  FF8
098A0:  MOVLW  0D
098A2:  MOVWF  x51
098A4:  MOVLB  0
098A6:  CALL   5AAC
098AA:  MOVFF  64B,651
098AE:  MOVLW  01
098B0:  MOVLB  6
098B2:  MOVWF  x52
098B4:  MOVLB  0
098B6:  CALL   5B30
098BA:  MOVLW  22
098BC:  BTFSS  F9E.4
098BE:  BRA    98BC
098C0:  MOVWF  FAD
....................          SendDataDisplay(); 
098C2:  CALL   427A
098C6:  MOVLB  1
....................     } 
.................... //_--------------------------------------------------------------------------------------------------------------------------------------------------------        
....................  
.................... //_-------------------------------------------------------------------------------------------------------------------------------------------------------- 
....................     if(Menu==3){ //Menu de Tiempo de Secado 
098C8:  MOVF   xF0,W
098CA:  SUBLW  03
098CC:  BTFSS  FD8.2
098CE:  BRA    9C58
....................       printf("fecha.txt=\"Fecha:%02u/%02u/20%02u    Hora: %02u:%02u:%02u\"",Dia,Mes,Year,Hora,Minuto,Segundo); 
098D0:  MOVLW  9A
098D2:  MOVWF  FF6
098D4:  MOVLW  0A
098D6:  MOVWF  FF7
098D8:  MOVLW  00
098DA:  MOVWF  FF8
098DC:  MOVLW  11
098DE:  MOVLB  6
098E0:  MOVWF  x51
098E2:  MOVLB  0
098E4:  CALL   5AAC
098E8:  MOVFF  236,651
098EC:  MOVLW  01
098EE:  MOVLB  6
098F0:  MOVWF  x52
098F2:  MOVLB  0
098F4:  CALL   5B30
098F8:  MOVLW  2F
098FA:  BTFSS  F9E.4
098FC:  BRA    98FA
098FE:  MOVWF  FAD
09900:  MOVFF  235,651
09904:  MOVLW  01
09906:  MOVLB  6
09908:  MOVWF  x52
0990A:  MOVLB  0
0990C:  CALL   5B30
09910:  MOVLW  2F
09912:  BTFSS  F9E.4
09914:  BRA    9912
09916:  MOVWF  FAD
09918:  MOVLW  32
0991A:  BTFSS  F9E.4
0991C:  BRA    991A
0991E:  MOVWF  FAD
09920:  MOVLW  30
09922:  BTFSS  F9E.4
09924:  BRA    9922
09926:  MOVWF  FAD
09928:  MOVFF  234,651
0992C:  MOVLW  01
0992E:  MOVLB  6
09930:  MOVWF  x52
09932:  MOVLB  0
09934:  CALL   5B30
09938:  MOVLW  BB
0993A:  MOVWF  FF6
0993C:  MOVLW  0A
0993E:  MOVWF  FF7
09940:  MOVLW  00
09942:  MOVWF  FF8
09944:  MOVLW  0A
09946:  MOVLB  6
09948:  MOVWF  x51
0994A:  MOVLB  0
0994C:  CALL   5AAC
09950:  MOVFF  237,651
09954:  MOVLW  01
09956:  MOVLB  6
09958:  MOVWF  x52
0995A:  MOVLB  0
0995C:  CALL   5B30
09960:  MOVLW  3A
09962:  BTFSS  F9E.4
09964:  BRA    9962
09966:  MOVWF  FAD
09968:  MOVFF  238,651
0996C:  MOVLW  01
0996E:  MOVLB  6
09970:  MOVWF  x52
09972:  MOVLB  0
09974:  CALL   5B30
09978:  MOVLW  3A
0997A:  BTFSS  F9E.4
0997C:  BRA    997A
0997E:  MOVWF  FAD
09980:  MOVFF  239,651
09984:  MOVLW  01
09986:  MOVLB  6
09988:  MOVWF  x52
0998A:  MOVLB  0
0998C:  CALL   5B30
09990:  MOVLW  22
09992:  BTFSS  F9E.4
09994:  BRA    9992
09996:  MOVWF  FAD
....................       SendDataDisplay(); 
09998:  CALL   427A
....................          if(RX_Buffer[4]==0x0a){//Selecciono Minutos 
0999C:  MOVF   34,W
0999E:  SUBLW  0A
099A0:  BNZ   99A6
....................             Minutos=ON; 
099A2:  BSF    xA7.2
....................             Segundos=OFF; 
099A4:  BCF    xA7.3
....................          } 
....................           
....................          if(RX_Buffer[4]==0x0b){//Selecciono Segundos 
099A6:  MOVF   34,W
099A8:  SUBLW  0B
099AA:  BNZ   99B0
....................             Segundos=ON; 
099AC:  BSF    xA7.3
....................             Minutos=OFF; 
099AE:  BCF    xA7.2
....................          } 
....................           
....................          if(RX_Buffer[4]==0x11){//Selecciono Regresar 
099B0:  MOVF   34,W
099B2:  SUBLW  11
099B4:  BTFSS  FD8.2
099B6:  BRA    9B2A
....................             Segundos=OFF; 
099B8:  BCF    xA7.3
....................             Minutos=OFF; 
099BA:  BCF    xA7.2
....................             printf("page CicloPersona"); 
099BC:  MOVLW  D6
099BE:  MOVWF  FF6
099C0:  MOVLW  0A
099C2:  MOVWF  FF7
099C4:  MOVLW  00
099C6:  MOVWF  FF8
099C8:  CALL   4248
....................             SendDataDisplay();   
099CC:  CALL   427A
....................             PantallaPrincipal=1; 
099D0:  MOVLW  01
099D2:  MOVLB  1
099D4:  MOVWF  x94
....................             Op=OFF; 
099D6:  MOVLB  0
099D8:  BCF    xA7.0
....................             Op2=OFF; 
099DA:  BCF    xA7.1
....................             if(!GuardaEEPROM){ 
099DC:  BTFSC  xA7.4
099DE:  BRA    9B2A
....................                CiclosPersonalizados[CicloLibre-1].Minutosec=Tsecadop[2]+(Tsecadop[3]*10); 
099E0:  MOVLW  01
099E2:  MOVLB  2
099E4:  SUBWF  x48,W
099E6:  MULLW  08
099E8:  MOVF   FF3,W
099EA:  MOVLB  6
099EC:  CLRF   x4C
099EE:  MOVWF  x4B
099F0:  MOVLW  03
099F2:  ADDWF  x4B,W
099F4:  MOVWF  01
099F6:  MOVLW  00
099F8:  ADDWFC x4C,W
099FA:  MOVWF  03
099FC:  MOVF   01,W
099FE:  ADDLW  83
09A00:  MOVWF  FE9
09A02:  MOVLW  05
09A04:  ADDWFC 03,W
09A06:  MOVWF  FEA
09A08:  MOVFF  C4,64D
09A0C:  MOVLW  0A
09A0E:  MOVWF  x4E
09A10:  MOVLB  0
09A12:  CALL   3D3A
09A16:  MOVF   01,W
09A18:  ADDWF  xC3,W
09A1A:  MOVWF  FEF
....................                CiclosPersonalizados[CicloLibre-1].Segundosec=Tsecadop[0]+(Tsecadop[1]*10); 
09A1C:  MOVLW  01
09A1E:  MOVLB  2
09A20:  SUBWF  x48,W
09A22:  MULLW  08
09A24:  MOVF   FF3,W
09A26:  MOVLB  6
09A28:  CLRF   x4C
09A2A:  MOVWF  x4B
09A2C:  MOVLW  04
09A2E:  ADDWF  x4B,W
09A30:  MOVWF  01
09A32:  MOVLW  00
09A34:  ADDWFC x4C,W
09A36:  MOVWF  03
09A38:  MOVF   01,W
09A3A:  ADDLW  83
09A3C:  MOVWF  FE9
09A3E:  MOVLW  05
09A40:  ADDWFC 03,W
09A42:  MOVWF  FEA
09A44:  MOVFF  C2,64D
09A48:  MOVLW  0A
09A4A:  MOVWF  x4E
09A4C:  MOVLB  0
09A4E:  CALL   3D3A
09A52:  MOVF   01,W
09A54:  ADDWF  xC1,W
09A56:  MOVWF  FEF
....................                write_eeprom(103+((CicloLibre-1)*8),Tsecadop[2]+(Tsecadop[3]*10)); 
09A58:  MOVLW  01
09A5A:  MOVLB  2
09A5C:  SUBWF  x48,W
09A5E:  MULLW  08
09A60:  MOVF   FF3,W
09A62:  ADDLW  67
09A64:  MOVLB  6
09A66:  MOVWF  x4B
09A68:  MOVFF  C4,64D
09A6C:  MOVLW  0A
09A6E:  MOVWF  x4E
09A70:  MOVLB  0
09A72:  CALL   3D3A
09A76:  MOVF   01,W
09A78:  ADDWF  xC3,W
09A7A:  MOVLB  6
09A7C:  MOVWF  x4C
09A7E:  CLRF   FAA
09A80:  MOVFF  64B,FA9
09A84:  MOVFF  64C,FA8
09A88:  BCF    FA6.6
09A8A:  BCF    FA6.7
09A8C:  BSF    FA6.2
09A8E:  MOVF   FF2,W
09A90:  MOVWF  00
09A92:  BCF    FF2.6
09A94:  BCF    FF2.7
09A96:  MOVLB  F
09A98:  MOVLW  55
09A9A:  MOVWF  FA7
09A9C:  MOVLW  AA
09A9E:  MOVWF  FA7
09AA0:  BSF    FA6.1
09AA2:  BTFSC  FA6.1
09AA4:  BRA    9AA2
09AA6:  BCF    FA6.2
09AA8:  MOVF   00,W
09AAA:  IORWF  FF2,F
....................                delay_ms(10); 
09AAC:  MOVLW  0A
09AAE:  MOVLB  6
09AB0:  MOVWF  x64
09AB2:  MOVLB  0
09AB4:  CALL   1F6E
....................                write_eeprom(104+((CicloLibre-1)*8),Tsecadop[0]+(Tsecadop[1]*10)); 
09AB8:  MOVLW  01
09ABA:  MOVLB  2
09ABC:  SUBWF  x48,W
09ABE:  MULLW  08
09AC0:  MOVF   FF3,W
09AC2:  ADDLW  68
09AC4:  MOVLB  6
09AC6:  MOVWF  x4B
09AC8:  MOVFF  C2,64D
09ACC:  MOVLW  0A
09ACE:  MOVWF  x4E
09AD0:  MOVLB  0
09AD2:  CALL   3D3A
09AD6:  MOVF   01,W
09AD8:  ADDWF  xC1,W
09ADA:  MOVLB  6
09ADC:  MOVWF  x4C
09ADE:  CLRF   FAA
09AE0:  MOVFF  64B,FA9
09AE4:  MOVFF  64C,FA8
09AE8:  BCF    FA6.6
09AEA:  BCF    FA6.7
09AEC:  BSF    FA6.2
09AEE:  MOVF   FF2,W
09AF0:  MOVWF  00
09AF2:  BCF    FF2.6
09AF4:  BCF    FF2.7
09AF6:  MOVLB  F
09AF8:  MOVLW  55
09AFA:  MOVWF  FA7
09AFC:  MOVLW  AA
09AFE:  MOVWF  FA7
09B00:  BSF    FA6.1
09B02:  BTFSC  FA6.1
09B04:  BRA    9B02
09B06:  BCF    FA6.2
09B08:  MOVF   00,W
09B0A:  IORWF  FF2,F
....................                delay_ms(10); 
09B0C:  MOVLW  0A
09B0E:  MOVLB  6
09B10:  MOVWF  x64
09B12:  MOVLB  0
09B14:  CALL   1F6E
....................                Tsecado[0]=Tsecadop[0]; 
09B18:  MOVFF  C1,BD
....................                Tsecado[1]=Tsecadop[1]; 
09B1C:  MOVFF  C2,BE
....................                Tsecado[2]=Tsecadop[2]; 
09B20:  MOVFF  C3,BF
....................                Tsecado[3]=Tsecadop[3]; 
09B24:  MOVFF  C4,C0
....................                GuardaEEPROM=ON; 
09B28:  BSF    xA7.4
....................             } 
....................          } 
....................            
....................          if(RX_Buffer[4]==0x0d ||RX_Buffer[4]==0x0c){//Tecla Arriba Oprimida 
09B2A:  MOVF   34,W
09B2C:  SUBLW  0D
09B2E:  BZ    9B36
09B30:  MOVF   34,W
09B32:  SUBLW  0C
09B34:  BNZ   9B7A
....................             if(Segundos){ 
09B36:  BTFSS  xA7.3
09B38:  BRA    9B56
....................                Tsecadop[0]++; 
09B3A:  INCF   xC1,F
....................                if(Tsecadop[0]>9){ 
09B3C:  BTFSC  xC1.7
09B3E:  BRA    9B56
09B40:  MOVF   xC1,W
09B42:  SUBLW  09
09B44:  BC    9B56
....................                   Tsecadop[1]++; 
09B46:  INCF   xC2,F
....................                   if(Tsecadop[1]>5) 
09B48:  BTFSC  xC2.7
09B4A:  BRA    9B54
09B4C:  MOVF   xC2,W
09B4E:  SUBLW  05
09B50:  BC    9B54
....................                      Tsecadop[1]=0; 
09B52:  CLRF   xC2
....................                   Tsecadop[0]=0; 
09B54:  CLRF   xC1
....................                } 
....................             } 
....................             if(Minutos){ 
09B56:  BTFSS  xA7.2
09B58:  BRA    9B76
....................                Tsecadop[2]++; 
09B5A:  INCF   xC3,F
....................                if(Tsecadop[2]>9){ 
09B5C:  BTFSC  xC3.7
09B5E:  BRA    9B76
09B60:  MOVF   xC3,W
09B62:  SUBLW  09
09B64:  BC    9B76
....................                   Tsecadop[3]++; 
09B66:  INCF   xC4,F
....................                   if(Tsecadop[3]>5) 
09B68:  BTFSC  xC4.7
09B6A:  BRA    9B74
09B6C:  MOVF   xC4,W
09B6E:  SUBLW  05
09B70:  BC    9B74
....................                      Tsecadop[3]=0; 
09B72:  CLRF   xC4
....................                   Tsecadop[2]=0; 
09B74:  CLRF   xC3
....................                } 
....................             } 
....................             RX_Buffer[4]=0x00; 
09B76:  CLRF   34
....................             RX_Buffer2[4]=0x00;                         
09B78:  CLRF   3F
....................          } 
....................           
....................          if(RX_Buffer[4]==0x0e || RX_Buffer[4]==0x0f){//Tecla Izquierda Oprimida 
09B7A:  MOVF   34,W
09B7C:  SUBLW  0E
09B7E:  BZ    9B86
09B80:  MOVF   34,W
09B82:  SUBLW  0F
09B84:  BNZ   9BC2
....................             if(Segundos){ 
09B86:  BTFSS  xA7.3
09B88:  BRA    9BA2
....................                Tsecadop[0]--; 
09B8A:  DECF   xC1,F
....................                if(Tsecadop[0]<0){ 
09B8C:  BTFSC  xC1.7
09B8E:  BRA    9B92
09B90:  BRA    9BA2
....................                   Tsecadop[1]--; 
09B92:  DECF   xC2,F
....................                   if(Tsecadop[1]<0) 
09B94:  BTFSC  xC2.7
09B96:  BRA    9B9A
09B98:  BRA    9B9E
....................                      Tsecadop[1]=5; 
09B9A:  MOVLW  05
09B9C:  MOVWF  xC2
....................                   Tsecadop[0]=9; 
09B9E:  MOVLW  09
09BA0:  MOVWF  xC1
....................                } 
....................             } 
....................             if(Minutos){ 
09BA2:  BTFSS  xA7.2
09BA4:  BRA    9BBE
....................                Tsecadop[2]--; 
09BA6:  DECF   xC3,F
....................                if(Tsecadop[2]<0){ 
09BA8:  BTFSC  xC3.7
09BAA:  BRA    9BAE
09BAC:  BRA    9BBE
....................                   Tsecadop[3]--; 
09BAE:  DECF   xC4,F
....................                   if(Tsecadop[3]<0) 
09BB0:  BTFSC  xC4.7
09BB2:  BRA    9BB6
09BB4:  BRA    9BBA
....................                      Tsecadop[3]=5; 
09BB6:  MOVLW  05
09BB8:  MOVWF  xC4
....................                   Tsecadop[2]=9; 
09BBA:  MOVLW  09
09BBC:  MOVWF  xC3
....................                } 
....................             } 
....................             RX_Buffer[4]=0x00; 
09BBE:  CLRF   34
....................             RX_Buffer2[4]=0x00;             
09BC0:  CLRF   3F
....................          } 
....................           
....................       printf("tminsec.txt=\"%02u\"",((Tsecadop[3]*10)+Tsecadop[2])); 
09BC2:  MOVFF  C4,64D
09BC6:  MOVLW  0A
09BC8:  MOVLB  6
09BCA:  MOVWF  x4E
09BCC:  MOVLB  0
09BCE:  CALL   3D3A
09BD2:  MOVF   xC3,W
09BD4:  ADDWF  01,W
09BD6:  MOVLB  6
09BD8:  MOVWF  x4B
09BDA:  MOVLW  E8
09BDC:  MOVWF  FF6
09BDE:  MOVLW  0A
09BE0:  MOVWF  FF7
09BE2:  MOVLW  00
09BE4:  MOVWF  FF8
09BE6:  MOVLW  0D
09BE8:  MOVWF  x51
09BEA:  MOVLB  0
09BEC:  CALL   5AAC
09BF0:  MOVFF  64B,651
09BF4:  MOVLW  01
09BF6:  MOVLB  6
09BF8:  MOVWF  x52
09BFA:  MOVLB  0
09BFC:  CALL   5B30
09C00:  MOVLW  22
09C02:  BTFSS  F9E.4
09C04:  BRA    9C02
09C06:  MOVWF  FAD
....................       SendDataDisplay(); 
09C08:  CALL   427A
....................       printf("tsecsec.txt=\"%02u\"",((Tsecadop[1]*10)+Tsecadop[0])); 
09C0C:  MOVFF  C2,64D
09C10:  MOVLW  0A
09C12:  MOVLB  6
09C14:  MOVWF  x4E
09C16:  MOVLB  0
09C18:  CALL   3D3A
09C1C:  MOVF   xC1,W
09C1E:  ADDWF  01,W
09C20:  MOVLB  6
09C22:  MOVWF  x4B
09C24:  MOVLW  FC
09C26:  MOVWF  FF6
09C28:  MOVLW  0A
09C2A:  MOVWF  FF7
09C2C:  MOVLW  00
09C2E:  MOVWF  FF8
09C30:  MOVLW  0D
09C32:  MOVWF  x51
09C34:  MOVLB  0
09C36:  CALL   5AAC
09C3A:  MOVFF  64B,651
09C3E:  MOVLW  01
09C40:  MOVLB  6
09C42:  MOVWF  x52
09C44:  MOVLB  0
09C46:  CALL   5B30
09C4A:  MOVLW  22
09C4C:  BTFSS  F9E.4
09C4E:  BRA    9C4C
09C50:  MOVWF  FAD
....................       SendDataDisplay(); 
09C52:  CALL   427A
09C56:  MOVLB  1
....................     } 
.................... //_--------------------------------------------------------------------------------------------------------------------------------------------------------        
....................  
.................... //_-------------------------------------------------------------------------------------------------------------------------------------------------------- 
....................     if(Menu==4){ //Menu de Temperatura 
09C58:  MOVF   xF0,W
09C5A:  SUBLW  04
09C5C:  BTFSS  FD8.2
09C5E:  BRA    9E2E
....................       printf("fecha.txt=\"Fecha:%02u/%02u/20%02u    Hora: %02u:%02u:%02u\"",Dia,Mes,Year,Hora,Minuto,Segundo); 
09C60:  MOVLW  10
09C62:  MOVWF  FF6
09C64:  MOVLW  0B
09C66:  MOVWF  FF7
09C68:  MOVLW  00
09C6A:  MOVWF  FF8
09C6C:  MOVLW  11
09C6E:  MOVLB  6
09C70:  MOVWF  x51
09C72:  MOVLB  0
09C74:  CALL   5AAC
09C78:  MOVFF  236,651
09C7C:  MOVLW  01
09C7E:  MOVLB  6
09C80:  MOVWF  x52
09C82:  MOVLB  0
09C84:  CALL   5B30
09C88:  MOVLW  2F
09C8A:  BTFSS  F9E.4
09C8C:  BRA    9C8A
09C8E:  MOVWF  FAD
09C90:  MOVFF  235,651
09C94:  MOVLW  01
09C96:  MOVLB  6
09C98:  MOVWF  x52
09C9A:  MOVLB  0
09C9C:  CALL   5B30
09CA0:  MOVLW  2F
09CA2:  BTFSS  F9E.4
09CA4:  BRA    9CA2
09CA6:  MOVWF  FAD
09CA8:  MOVLW  32
09CAA:  BTFSS  F9E.4
09CAC:  BRA    9CAA
09CAE:  MOVWF  FAD
09CB0:  MOVLW  30
09CB2:  BTFSS  F9E.4
09CB4:  BRA    9CB2
09CB6:  MOVWF  FAD
09CB8:  MOVFF  234,651
09CBC:  MOVLW  01
09CBE:  MOVLB  6
09CC0:  MOVWF  x52
09CC2:  MOVLB  0
09CC4:  CALL   5B30
09CC8:  MOVLW  31
09CCA:  MOVWF  FF6
09CCC:  MOVLW  0B
09CCE:  MOVWF  FF7
09CD0:  MOVLW  00
09CD2:  MOVWF  FF8
09CD4:  MOVLW  0A
09CD6:  MOVLB  6
09CD8:  MOVWF  x51
09CDA:  MOVLB  0
09CDC:  CALL   5AAC
09CE0:  MOVFF  237,651
09CE4:  MOVLW  01
09CE6:  MOVLB  6
09CE8:  MOVWF  x52
09CEA:  MOVLB  0
09CEC:  CALL   5B30
09CF0:  MOVLW  3A
09CF2:  BTFSS  F9E.4
09CF4:  BRA    9CF2
09CF6:  MOVWF  FAD
09CF8:  MOVFF  238,651
09CFC:  MOVLW  01
09CFE:  MOVLB  6
09D00:  MOVWF  x52
09D02:  MOVLB  0
09D04:  CALL   5B30
09D08:  MOVLW  3A
09D0A:  BTFSS  F9E.4
09D0C:  BRA    9D0A
09D0E:  MOVWF  FAD
09D10:  MOVFF  239,651
09D14:  MOVLW  01
09D16:  MOVLB  6
09D18:  MOVWF  x52
09D1A:  MOVLB  0
09D1C:  CALL   5B30
09D20:  MOVLW  22
09D22:  BTFSS  F9E.4
09D24:  BRA    9D22
09D26:  MOVWF  FAD
....................       SendDataDisplay(); 
09D28:  CALL   427A
....................          if(Setpoint<105) 
09D2C:  MOVLB  1
09D2E:  MOVF   xFF,W
09D30:  SUBLW  68
09D32:  BNC   9D38
....................             Setpoint=134; 
09D34:  MOVLW  86
09D36:  MOVWF  xFF
....................          if(Setpoint>134) 
09D38:  MOVF   xFF,W
09D3A:  SUBLW  86
09D3C:  BC    9D42
....................             Setpoint=105; 
09D3E:  MOVLW  69
09D40:  MOVWF  xFF
....................           
....................          if(RX_Buffer[4]==0x11){//Selecciono Regresar 
09D42:  MOVF   34,W
09D44:  SUBLW  11
09D46:  BNZ   9DE0
....................             Segundos=OFF; 
09D48:  MOVLB  0
09D4A:  BCF    xA7.3
....................             Minutos=OFF; 
09D4C:  BCF    xA7.2
....................             printf("page CicloPersona"); 
09D4E:  MOVLW  4C
09D50:  MOVWF  FF6
09D52:  MOVLW  0B
09D54:  MOVWF  FF7
09D56:  MOVLW  00
09D58:  MOVWF  FF8
09D5A:  CALL   4248
....................             SendDataDisplay();   
09D5E:  CALL   427A
....................             PantallaPrincipal=1; 
09D62:  MOVLW  01
09D64:  MOVLB  1
09D66:  MOVWF  x94
....................             Op=OFF; 
09D68:  MOVLB  0
09D6A:  BCF    xA7.0
....................             Op2=OFF; 
09D6C:  BCF    xA7.1
....................             if(!GuardaEEPROM){ 
09D6E:  BTFSC  xA7.4
09D70:  BRA    9DDE
....................                CiclosPersonalizados[CicloLibre-1].Temperatura=Setpoint; 
09D72:  MOVLW  01
09D74:  MOVLB  2
09D76:  SUBWF  x48,W
09D78:  MULLW  08
09D7A:  MOVF   FF3,W
09D7C:  MOVLB  6
09D7E:  CLRF   x4C
09D80:  MOVWF  x4B
09D82:  MOVLW  83
09D84:  ADDWF  x4B,W
09D86:  MOVWF  FE9
09D88:  MOVLW  05
09D8A:  ADDWFC x4C,W
09D8C:  MOVWF  FEA
09D8E:  MOVFF  1FF,FEF
....................                write_eeprom(100+((CicloLibre-1)*8),Setpoint); 
09D92:  MOVLW  01
09D94:  MOVLB  2
09D96:  SUBWF  x48,W
09D98:  MULLW  08
09D9A:  MOVF   FF3,W
09D9C:  ADDLW  64
09D9E:  MOVLB  6
09DA0:  MOVWF  x4B
09DA2:  CLRF   FAA
09DA4:  MOVFF  64B,FA9
09DA8:  MOVFF  1FF,FA8
09DAC:  BCF    FA6.6
09DAE:  BCF    FA6.7
09DB0:  BSF    FA6.2
09DB2:  MOVF   FF2,W
09DB4:  MOVWF  00
09DB6:  BCF    FF2.6
09DB8:  BCF    FF2.7
09DBA:  MOVLB  F
09DBC:  MOVLW  55
09DBE:  MOVWF  FA7
09DC0:  MOVLW  AA
09DC2:  MOVWF  FA7
09DC4:  BSF    FA6.1
09DC6:  BTFSC  FA6.1
09DC8:  BRA    9DC6
09DCA:  BCF    FA6.2
09DCC:  MOVF   00,W
09DCE:  IORWF  FF2,F
....................                delay_ms(10); 
09DD0:  MOVLW  0A
09DD2:  MOVLB  6
09DD4:  MOVWF  x64
09DD6:  MOVLB  0
09DD8:  CALL   1F6E
....................                GuardaEEPROM=ON; 
09DDC:  BSF    xA7.4
09DDE:  MOVLB  1
....................             } 
....................          } 
....................           
....................          if(RX_Buffer[4]==0x0d){//Tecla Arriba Oprimida 
09DE0:  MOVF   34,W
09DE2:  SUBLW  0D
09DE4:  BNZ   9DEC
....................             Setpoint++; 
09DE6:  INCF   xFF,F
....................             RX_Buffer[4]=0x00;   
09DE8:  CLRF   34
....................             RX_Buffer2[4]=0x00;             
09DEA:  CLRF   3F
....................             //BorraBuffer(); 
....................          } 
....................           
....................          if(RX_Buffer[4]==0x0c){//Tecla Abajo Oprimida 
09DEC:  MOVF   34,W
09DEE:  SUBLW  0C
09DF0:  BNZ   9DF8
....................             Setpoint--; 
09DF2:  DECF   xFF,F
....................             RX_Buffer[4]=0x00; 
09DF4:  CLRF   34
....................             RX_Buffer2[4]=0x00;             
09DF6:  CLRF   3F
....................             //BorraBuffer(); 
....................          } 
....................           
....................       printf("tsettem.txt=\"%03u\"",Setpoint); 
09DF8:  MOVLW  5E
09DFA:  MOVWF  FF6
09DFC:  MOVLW  0B
09DFE:  MOVWF  FF7
09E00:  MOVLW  00
09E02:  MOVWF  FF8
09E04:  MOVLW  0D
09E06:  MOVLB  6
09E08:  MOVWF  x51
09E0A:  MOVLB  0
09E0C:  CALL   5AAC
09E10:  MOVFF  1FF,651
09E14:  MOVLW  03
09E16:  MOVLB  6
09E18:  MOVWF  x52
09E1A:  MOVLB  0
09E1C:  CALL   5B30
09E20:  MOVLW  22
09E22:  BTFSS  F9E.4
09E24:  BRA    9E22
09E26:  MOVWF  FAD
....................       SendDataDisplay(); 
09E28:  CALL   427A
09E2C:  MOVLB  1
....................     } 
.................... //_--------------------------------------------------------------------------------------------------------------------------------------------------------        
....................  
.................... //_--------------------------------------------------------------------------------------------------------------------------------------------------------       
....................     if(Menu==5){//Menu de Nivel de Vacio 
09E2E:  MOVF   xF0,W
09E30:  SUBLW  05
09E32:  BTFSS  FD8.2
09E34:  BRA    A020
....................       printf("fecha.txt=\"Fecha:%02u/%02u/20%02u    Hora: %02u:%02u:%02u\"",Dia,Mes,Year,Hora,Minuto,Segundo); 
09E36:  MOVLW  72
09E38:  MOVWF  FF6
09E3A:  MOVLW  0B
09E3C:  MOVWF  FF7
09E3E:  MOVLW  00
09E40:  MOVWF  FF8
09E42:  MOVLW  11
09E44:  MOVLB  6
09E46:  MOVWF  x51
09E48:  MOVLB  0
09E4A:  CALL   5AAC
09E4E:  MOVFF  236,651
09E52:  MOVLW  01
09E54:  MOVLB  6
09E56:  MOVWF  x52
09E58:  MOVLB  0
09E5A:  CALL   5B30
09E5E:  MOVLW  2F
09E60:  BTFSS  F9E.4
09E62:  BRA    9E60
09E64:  MOVWF  FAD
09E66:  MOVFF  235,651
09E6A:  MOVLW  01
09E6C:  MOVLB  6
09E6E:  MOVWF  x52
09E70:  MOVLB  0
09E72:  CALL   5B30
09E76:  MOVLW  2F
09E78:  BTFSS  F9E.4
09E7A:  BRA    9E78
09E7C:  MOVWF  FAD
09E7E:  MOVLW  32
09E80:  BTFSS  F9E.4
09E82:  BRA    9E80
09E84:  MOVWF  FAD
09E86:  MOVLW  30
09E88:  BTFSS  F9E.4
09E8A:  BRA    9E88
09E8C:  MOVWF  FAD
09E8E:  MOVFF  234,651
09E92:  MOVLW  01
09E94:  MOVLB  6
09E96:  MOVWF  x52
09E98:  MOVLB  0
09E9A:  CALL   5B30
09E9E:  MOVLW  93
09EA0:  MOVWF  FF6
09EA2:  MOVLW  0B
09EA4:  MOVWF  FF7
09EA6:  MOVLW  00
09EA8:  MOVWF  FF8
09EAA:  MOVLW  0A
09EAC:  MOVLB  6
09EAE:  MOVWF  x51
09EB0:  MOVLB  0
09EB2:  CALL   5AAC
09EB6:  MOVFF  237,651
09EBA:  MOVLW  01
09EBC:  MOVLB  6
09EBE:  MOVWF  x52
09EC0:  MOVLB  0
09EC2:  CALL   5B30
09EC6:  MOVLW  3A
09EC8:  BTFSS  F9E.4
09ECA:  BRA    9EC8
09ECC:  MOVWF  FAD
09ECE:  MOVFF  238,651
09ED2:  MOVLW  01
09ED4:  MOVLB  6
09ED6:  MOVWF  x52
09ED8:  MOVLB  0
09EDA:  CALL   5B30
09EDE:  MOVLW  3A
09EE0:  BTFSS  F9E.4
09EE2:  BRA    9EE0
09EE4:  MOVWF  FAD
09EE6:  MOVFF  239,651
09EEA:  MOVLW  01
09EEC:  MOVLB  6
09EEE:  MOVWF  x52
09EF0:  MOVLB  0
09EF2:  CALL   5B30
09EF6:  MOVLW  22
09EF8:  BTFSS  F9E.4
09EFA:  BRA    9EF8
09EFC:  MOVWF  FAD
....................       SendDataDisplay(); 
09EFE:  CALL   427A
....................          if(Nivel<25) 
09F02:  MOVLB  2
09F04:  MOVF   x0E,F
09F06:  BNZ   9F14
09F08:  MOVF   x0D,W
09F0A:  SUBLW  18
09F0C:  BNC   9F14
....................             Nivel=100; 
09F0E:  CLRF   x0E
09F10:  MOVLW  64
09F12:  MOVWF  x0D
....................          if(Nivel>100) 
09F14:  MOVF   x0E,F
09F16:  BNZ   9F1E
09F18:  MOVF   x0D,W
09F1A:  SUBLW  64
09F1C:  BC    9F24
....................             Nivel=25; 
09F1E:  CLRF   x0E
09F20:  MOVLW  19
09F22:  MOVWF  x0D
....................           
....................          if(RX_Buffer[4]==0x11){//Selecciono Regresar 
09F24:  MOVF   34,W
09F26:  SUBLW  11
09F28:  BNZ   9FC8
....................             Segundos=OFF; 
09F2A:  MOVLB  0
09F2C:  BCF    xA7.3
....................             Minutos=OFF;             
09F2E:  BCF    xA7.2
....................             tiempo_secado=0; 
09F30:  MOVLB  2
09F32:  CLRF   x03
....................             printf("page CicloPersona"); 
09F34:  MOVLW  AE
09F36:  MOVWF  FF6
09F38:  MOVLW  0B
09F3A:  MOVWF  FF7
09F3C:  MOVLW  00
09F3E:  MOVWF  FF8
09F40:  MOVLB  0
09F42:  CALL   4248
....................             SendDataDisplay();   
09F46:  CALL   427A
....................             if(!GuardaEEPROM){     
09F4A:  BTFSC  xA7.4
09F4C:  BRA    9FC6
....................                CiclosPersonalizados[CicloLibre-1].NivelVacio=Nivel; 
09F4E:  MOVLW  01
09F50:  MOVLB  2
09F52:  SUBWF  x48,W
09F54:  MULLW  08
09F56:  MOVF   FF3,W
09F58:  MOVLB  6
09F5A:  CLRF   x4C
09F5C:  MOVWF  x4B
09F5E:  MOVLW  06
09F60:  ADDWF  x4B,W
09F62:  MOVWF  01
09F64:  MOVLW  00
09F66:  ADDWFC x4C,W
09F68:  MOVWF  03
09F6A:  MOVF   01,W
09F6C:  ADDLW  83
09F6E:  MOVWF  FE9
09F70:  MOVLW  05
09F72:  ADDWFC 03,W
09F74:  MOVWF  FEA
09F76:  MOVFF  20D,FEF
....................                write_eeprom(106+((CicloLibre-1)*8),Nivel); 
09F7A:  MOVLW  01
09F7C:  MOVLB  2
09F7E:  SUBWF  x48,W
09F80:  MULLW  08
09F82:  MOVF   FF3,W
09F84:  ADDLW  6A
09F86:  MOVLB  6
09F88:  MOVWF  x4B
09F8A:  CLRF   FAA
09F8C:  MOVFF  64B,FA9
09F90:  MOVFF  20D,FA8
09F94:  BCF    FA6.6
09F96:  BCF    FA6.7
09F98:  BSF    FA6.2
09F9A:  MOVF   FF2,W
09F9C:  MOVWF  00
09F9E:  BCF    FF2.6
09FA0:  BCF    FF2.7
09FA2:  MOVLB  F
09FA4:  MOVLW  55
09FA6:  MOVWF  FA7
09FA8:  MOVLW  AA
09FAA:  MOVWF  FA7
09FAC:  BSF    FA6.1
09FAE:  BTFSC  FA6.1
09FB0:  BRA    9FAE
09FB2:  BCF    FA6.2
09FB4:  MOVF   00,W
09FB6:  IORWF  FF2,F
....................                delay_ms(20);             
09FB8:  MOVLW  14
09FBA:  MOVLB  6
09FBC:  MOVWF  x64
09FBE:  MOVLB  0
09FC0:  CALL   1F6E
....................                GuardaEEPROM=ON; 
09FC4:  BSF    xA7.4
09FC6:  MOVLB  2
....................             } 
....................          } 
....................           
....................          if(RX_Buffer[4]==0x0d){//Tecla Arriba Oprimida 
09FC8:  MOVF   34,W
09FCA:  SUBLW  0D
09FCC:  BNZ   9FD8
....................             Nivel++; 
09FCE:  INCF   x0D,F
09FD0:  BTFSC  FD8.2
09FD2:  INCF   x0E,F
....................             RX_Buffer[4]=0x00;             
09FD4:  CLRF   34
....................             RX_Buffer2[4]=0x00;             
09FD6:  CLRF   3F
....................             //BorraBuffer(); 
....................          } 
....................           
....................          if(RX_Buffer[4]==0x0c){//Tecla Abajo Oprimida 
09FD8:  MOVF   34,W
09FDA:  SUBLW  0C
09FDC:  BNZ   9FEA
....................             Nivel--; 
09FDE:  MOVF   x0D,W
09FE0:  BTFSC  FD8.2
09FE2:  DECF   x0E,F
09FE4:  DECF   x0D,F
....................             RX_Buffer[4]=0x00; 
09FE6:  CLRF   34
....................             RX_Buffer2[4]=0x00;             
09FE8:  CLRF   3F
....................             //BorraBuffer(); 
....................          } 
....................           
....................       printf("tnivel.txt=\"%Lu\"",Nivel); 
09FEA:  MOVLW  C0
09FEC:  MOVWF  FF6
09FEE:  MOVLW  0B
09FF0:  MOVWF  FF7
09FF2:  MOVLW  00
09FF4:  MOVWF  FF8
09FF6:  MOVLW  0C
09FF8:  MOVLB  6
09FFA:  MOVWF  x51
09FFC:  MOVLB  0
09FFE:  CALL   5AAC
0A002:  MOVLW  10
0A004:  MOVWF  FE9
0A006:  MOVFF  20E,652
0A00A:  MOVFF  20D,651
0A00E:  CALL   62B6
0A012:  MOVLW  22
0A014:  BTFSS  F9E.4
0A016:  BRA    A014
0A018:  MOVWF  FAD
....................       SendDataDisplay(); 
0A01A:  CALL   427A
0A01E:  MOVLB  1
....................    } 
.................... //_--------------------------------------------------------------------------------------------------------------------------------------------------------       
....................  
.................... //_--------------------------------------------------------------------------------------------------------------------------------------------------------       
....................     if(Menu==6){ // Menu de Prueba de Componentes 
0A020:  MOVF   xF0,W
0A022:  SUBLW  06
0A024:  BTFSS  FD8.2
0A026:  GOTO   A88E
....................          PruebaEstados=ON; 
0A02A:  MOVLB  0
0A02C:  BSF    xA6.4
....................           
....................          if(RX_Buffer[4]==0x01)//Oprimio EV Suministro 
0A02E:  DECFSZ 34,W
0A030:  BRA    A038
....................          { 
....................             EstadoSuministro=!EstadoSuministro; 
0A032:  BTG    xA6.2
....................             RX_Buffer[4]=0x00; 
0A034:  CLRF   34
....................             RX_Buffer2[4]=0x00; 
0A036:  CLRF   3F
....................          } 
....................           
....................          if(EstadoSuministro){ 
0A038:  BTFSS  xA6.2
0A03A:  BRA    A056
....................             printf("b0.bco=2016"); 
0A03C:  MOVLW  D2
0A03E:  MOVWF  FF6
0A040:  MOVLW  0B
0A042:  MOVWF  FF7
0A044:  MOVLW  00
0A046:  MOVWF  FF8
0A048:  CALL   4248
....................             SendDataDisplay();  
0A04C:  CALL   427A
....................             Suministro_on; 
0A050:  BSF    F8C.0
0A052:  BCF    F95.0
....................          } 
....................          else{ 
0A054:  BRA    A06E
....................             printf("b0.bco=63488"); 
0A056:  MOVLW  DE
0A058:  MOVWF  FF6
0A05A:  MOVLW  0B
0A05C:  MOVWF  FF7
0A05E:  MOVLW  00
0A060:  MOVWF  FF8
0A062:  CALL   4248
....................             SendDataDisplay();  
0A066:  CALL   427A
....................             Suministro_off; 
0A06A:  BCF    F8C.0
0A06C:  BCF    F95.0
....................          } 
....................           
....................          if(RX_Buffer[4]==0x02)//Oprimio EV Desfogue 
0A06E:  MOVF   34,W
0A070:  SUBLW  02
0A072:  BNZ   A07A
....................          { 
....................             EstadoDesfogue=!EstadoDesfogue; 
0A074:  BTG    xA6.1
....................             RX_Buffer[4]=0x00; 
0A076:  CLRF   34
....................             RX_Buffer2[4]=0x00; 
0A078:  CLRF   3F
....................          } 
....................           
....................          if(EstadoDesfogue){ 
0A07A:  BTFSS  xA6.1
0A07C:  BRA    A098
....................             printf("b1.bco=2016"); 
0A07E:  MOVLW  EC
0A080:  MOVWF  FF6
0A082:  MOVLW  0B
0A084:  MOVWF  FF7
0A086:  MOVLW  00
0A088:  MOVWF  FF8
0A08A:  CALL   4248
....................             SendDataDisplay();  
0A08E:  CALL   427A
....................             Desfogue_on; 
0A092:  BSF    F8C.3
0A094:  BCF    F95.3
....................          } 
....................          else{ 
0A096:  BRA    A0B0
....................             printf("b1.bco=63488"); 
0A098:  MOVLW  F8
0A09A:  MOVWF  FF6
0A09C:  MOVLW  0B
0A09E:  MOVWF  FF7
0A0A0:  MOVLW  00
0A0A2:  MOVWF  FF8
0A0A4:  CALL   4248
....................             SendDataDisplay();  
0A0A8:  CALL   427A
....................             Desfogue_off; 
0A0AC:  BCF    F8C.3
0A0AE:  BCF    F95.3
....................          } 
....................           
....................          if(RX_Buffer[4]==0x03)//Oprimio EV Paso 
0A0B0:  MOVF   34,W
0A0B2:  SUBLW  03
0A0B4:  BNZ   A0BC
....................          { 
....................             EstadoPaso=!EstadoPaso; 
0A0B6:  BTG    xA7.5
....................             RX_Buffer[4]=0x00; 
0A0B8:  CLRF   34
....................             RX_Buffer2[4]=0x00; 
0A0BA:  CLRF   3F
....................          } 
....................           
....................          if(EstadoPaso){ 
0A0BC:  BTFSS  xA7.5
0A0BE:  BRA    A0DA
....................             printf("b2.bco=2016"); 
0A0C0:  MOVLW  06
0A0C2:  MOVWF  FF6
0A0C4:  MOVLW  0C
0A0C6:  MOVWF  FF7
0A0C8:  MOVLW  00
0A0CA:  MOVWF  FF8
0A0CC:  CALL   4248
....................             SendDataDisplay();  
0A0D0:  CALL   427A
....................             Paso_on; 
0A0D4:  BSF    F8C.1
0A0D6:  BCF    F95.1
....................          } 
....................          else{ 
0A0D8:  BRA    A0F2
....................             printf("b2.bco=63488"); 
0A0DA:  MOVLW  12
0A0DC:  MOVWF  FF6
0A0DE:  MOVLW  0C
0A0E0:  MOVWF  FF7
0A0E2:  MOVLW  00
0A0E4:  MOVWF  FF8
0A0E6:  CALL   4248
....................             SendDataDisplay();  
0A0EA:  CALL   427A
....................             Paso_off; 
0A0EE:  BCF    F8C.1
0A0F0:  BCF    F95.1
....................          } 
....................          
....................          if(RX_Buffer[4]==0x04)//Oprimio Vacio 
0A0F2:  MOVF   34,W
0A0F4:  SUBLW  04
0A0F6:  BNZ   A0FE
....................          { 
....................             EstadoVacio=!EstadoVacio; 
0A0F8:  BTG    xA7.6
....................             RX_Buffer[4]=0x00; 
0A0FA:  CLRF   34
....................             RX_Buffer2[4]=0x00; 
0A0FC:  CLRF   3F
....................          } 
....................           
....................          if(EstadoVacio){ 
0A0FE:  BTFSS  xA7.6
0A100:  BRA    A11C
....................             printf("b3.bco=2016"); 
0A102:  MOVLW  20
0A104:  MOVWF  FF6
0A106:  MOVLW  0C
0A108:  MOVWF  FF7
0A10A:  MOVLW  00
0A10C:  MOVWF  FF8
0A10E:  CALL   4248
....................             SendDataDisplay();  
0A112:  CALL   427A
....................             Vacio_on; 
0A116:  BSF    F8C.2
0A118:  BCF    F95.2
....................          } 
....................          else{ 
0A11A:  BRA    A134
....................             printf("b3.bco=63488"); 
0A11C:  MOVLW  2C
0A11E:  MOVWF  FF6
0A120:  MOVLW  0C
0A122:  MOVWF  FF7
0A124:  MOVLW  00
0A126:  MOVWF  FF8
0A128:  CALL   4248
....................             SendDataDisplay();  
0A12C:  CALL   427A
....................             Vacio_off; 
0A130:  BCF    F8C.2
0A132:  BCF    F95.2
....................          } 
....................           
....................          if(RX_Buffer[4]==0x05)//Oprimio Aire 
0A134:  MOVF   34,W
0A136:  SUBLW  05
0A138:  BNZ   A140
....................          { 
....................             EstadoAire=!EstadoAire; 
0A13A:  BTG    xA6.3
....................             RX_Buffer[4]=0x00; 
0A13C:  CLRF   34
....................             RX_Buffer2[4]=0x00; 
0A13E:  CLRF   3F
....................          } 
....................           
....................          if(EstadoAire){ 
0A140:  BTFSS  xA6.3
0A142:  BRA    A15E
....................             printf("b4.bco=2016"); 
0A144:  MOVLW  3A
0A146:  MOVWF  FF6
0A148:  MOVLW  0C
0A14A:  MOVWF  FF7
0A14C:  MOVLW  00
0A14E:  MOVWF  FF8
0A150:  CALL   4248
....................             SendDataDisplay();  
0A154:  CALL   427A
....................             Aire_on; 
0A158:  BSF    F8C.4
0A15A:  BCF    F95.4
....................          } 
....................          else{ 
0A15C:  BRA    A176
....................             printf("b4.bco=63488"); 
0A15E:  MOVLW  46
0A160:  MOVWF  FF6
0A162:  MOVLW  0C
0A164:  MOVWF  FF7
0A166:  MOVLW  00
0A168:  MOVWF  FF8
0A16A:  CALL   4248
....................             SendDataDisplay();  
0A16E:  CALL   427A
....................             Aire_off; 
0A172:  BCF    F8C.4
0A174:  BCF    F95.4
....................          } 
....................           
....................          if(RX_Buffer[4]==0x06)//Oprimio Bomba Vacio 
0A176:  MOVF   34,W
0A178:  SUBLW  06
0A17A:  BNZ   A182
....................          { 
....................             EstadoBomba=!EstadoBomba; 
0A17C:  BTG    xA8.6
....................             RX_Buffer[4]=0x00; 
0A17E:  CLRF   34
....................             RX_Buffer2[4]=0x00; 
0A180:  CLRF   3F
....................          } 
....................           
....................          if(EstadoBomba){ 
0A182:  BTFSS  xA8.6
0A184:  BRA    A1A4
....................             printf("b5.bco=2016"); 
0A186:  MOVLW  54
0A188:  MOVWF  FF6
0A18A:  MOVLW  0C
0A18C:  MOVWF  FF7
0A18E:  MOVLW  00
0A190:  MOVWF  FF8
0A192:  CALL   4248
....................             SendDataDisplay();  
0A196:  CALL   427A
....................             if(CalderinLleno) 
0A19A:  BTFSS  xA6.0
0A19C:  BRA    A1A2
....................                BombaVacio_on; 
0A19E:  BSF    F8C.5
0A1A0:  BCF    F95.5
....................          } 
....................          else{ 
0A1A2:  BRA    A1BC
....................             printf("b5.bco=63488"); 
0A1A4:  MOVLW  60
0A1A6:  MOVWF  FF6
0A1A8:  MOVLW  0C
0A1AA:  MOVWF  FF7
0A1AC:  MOVLW  00
0A1AE:  MOVWF  FF8
0A1B0:  CALL   4248
....................             SendDataDisplay();  
0A1B4:  CALL   427A
....................             BombaVacio_off; 
0A1B8:  BCF    F8C.5
0A1BA:  BCF    F95.5
....................          } 
....................           
....................          if(RX_Buffer[4]==0x07)//Oprimio EV Agua 
0A1BC:  MOVF   34,W
0A1BE:  SUBLW  07
0A1C0:  BNZ   A1C8
....................          { 
....................             EstadoAireBomba=!EstadoAireBomba; 
0A1C2:  BTG    xAA.1
....................             RX_Buffer[4]=0x00; 
0A1C4:  CLRF   34
....................             RX_Buffer2[4]=0x00; 
0A1C6:  CLRF   3F
....................          } 
....................           
....................          if(EstadoAireBomba){ 
0A1C8:  BTFSS  xAA.1
0A1CA:  BRA    A1E6
....................             printf("b6.bco=2016"); 
0A1CC:  MOVLW  6E
0A1CE:  MOVWF  FF6
0A1D0:  MOVLW  0C
0A1D2:  MOVWF  FF7
0A1D4:  MOVLW  00
0A1D6:  MOVWF  FF8
0A1D8:  CALL   4248
....................             SendDataDisplay();  
0A1DC:  CALL   427A
....................             Agua_on; 
0A1E0:  BSF    F8C.6
0A1E2:  BCF    F95.6
....................          } 
....................          else{ 
0A1E4:  BRA    A1FE
....................             printf("b6.bco=63488"); 
0A1E6:  MOVLW  7A
0A1E8:  MOVWF  FF6
0A1EA:  MOVLW  0C
0A1EC:  MOVWF  FF7
0A1EE:  MOVLW  00
0A1F0:  MOVWF  FF8
0A1F2:  CALL   4248
....................             SendDataDisplay();  
0A1F6:  CALL   427A
....................             Agua_off; 
0A1FA:  BCF    F8C.6
0A1FC:  BCF    F95.6
....................          } 
....................           
....................          if(RX_Buffer[4]==0x08)//Oprimio EV Agua2 
0A1FE:  MOVF   34,W
0A200:  SUBLW  08
0A202:  BNZ   A20A
....................          { 
....................             EstadoAgua2=!EstadoAgua2; 
0A204:  BTG    xA6.7
....................             RX_Buffer[4]=0x00; 
0A206:  CLRF   34
....................             RX_Buffer2[4]=0x00; 
0A208:  CLRF   3F
....................          } 
....................           
....................          if(EstadoAgua2){ 
0A20A:  BTFSS  xA6.7
0A20C:  BRA    A228
....................             printf("b7.bco=2016"); 
0A20E:  MOVLW  88
0A210:  MOVWF  FF6
0A212:  MOVLW  0C
0A214:  MOVWF  FF7
0A216:  MOVLW  00
0A218:  MOVWF  FF8
0A21A:  CALL   4248
....................             SendDataDisplay();  
0A21E:  CALL   427A
....................             Agua2_on; 
0A222:  BSF    F8C.7
0A224:  BCF    F95.7
....................          } 
....................          else{ 
0A226:  BRA    A240
....................             printf("b7.bco=63488"); 
0A228:  MOVLW  94
0A22A:  MOVWF  FF6
0A22C:  MOVLW  0C
0A22E:  MOVWF  FF7
0A230:  MOVLW  00
0A232:  MOVWF  FF8
0A234:  CALL   4248
....................             SendDataDisplay();  
0A238:  CALL   427A
....................             Agua2_off; 
0A23C:  BCF    F8C.7
0A23E:  BCF    F95.7
....................          } 
....................           
....................          if(RX_Buffer[4]==0x17)//Oprimio Abrir Cierre 
0A240:  MOVF   34,W
0A242:  SUBLW  17
0A244:  BNZ   A24C
....................          { 
....................             EstadoACierre=!EstadoACierre; 
0A246:  BTG    xA8.5
....................             RX_Buffer[4]=0x00; 
0A248:  CLRF   34
....................             RX_Buffer2[4]=0x00; 
0A24A:  CLRF   3F
....................          } 
....................           
....................          if(EstadoACierre){ 
0A24C:  BTFSS  xA8.5
0A24E:  BRA    A272
....................             printf("b16.bco=2016"); 
0A250:  MOVLW  A2
0A252:  MOVWF  FF6
0A254:  MOVLW  0C
0A256:  MOVWF  FF7
0A258:  MOVLW  00
0A25A:  MOVWF  FF8
0A25C:  CALL   4248
....................             SendDataDisplay();  
0A260:  CALL   427A
....................             sistemaBloqueo(1); 
0A264:  MOVLW  01
0A266:  MOVLB  6
0A268:  MOVWF  x4B
0A26A:  MOVLB  0
0A26C:  CALL   5564
....................          } 
....................          else{ 
0A270:  BRA    A290
....................             printf("b16.bco=63488"); 
0A272:  MOVLW  B0
0A274:  MOVWF  FF6
0A276:  MOVLW  0C
0A278:  MOVWF  FF7
0A27A:  MOVLW  00
0A27C:  MOVWF  FF8
0A27E:  CALL   4248
....................             SendDataDisplay();  
0A282:  CALL   427A
....................             sistemaBloqueo(0); 
0A286:  MOVLB  6
0A288:  CLRF   x4B
0A28A:  MOVLB  0
0A28C:  CALL   5564
....................          } 
....................           
....................          if(DOOR){ 
0A290:  BSF    F93.1
0A292:  BTFSC  F81.1
0A294:  BRA    A2AC
....................             printf("b8.bco=2016"); 
0A296:  MOVLW  BE
0A298:  MOVWF  FF6
0A29A:  MOVLW  0C
0A29C:  MOVWF  FF7
0A29E:  MOVLW  00
0A2A0:  MOVWF  FF8
0A2A2:  CALL   4248
....................             SendDataDisplay();  
0A2A6:  CALL   427A
....................          }else{ 
0A2AA:  BRA    A2C0
....................             printf("b8.bco=63488"); 
0A2AC:  MOVLW  CA
0A2AE:  MOVWF  FF6
0A2B0:  MOVLW  0C
0A2B2:  MOVWF  FF7
0A2B4:  MOVLW  00
0A2B6:  MOVWF  FF8
0A2B8:  CALL   4248
....................             SendDataDisplay();  
0A2BC:  CALL   427A
....................          } 
....................           
....................          if(TERM){ 
0A2C0:  BSF    F93.3
0A2C2:  BTFSC  F81.3
0A2C4:  BRA    A2DC
....................             printf("b9.bco=2016"); 
0A2C6:  MOVLW  D8
0A2C8:  MOVWF  FF6
0A2CA:  MOVLW  0C
0A2CC:  MOVWF  FF7
0A2CE:  MOVLW  00
0A2D0:  MOVWF  FF8
0A2D2:  CALL   4248
....................             SendDataDisplay();  
0A2D6:  CALL   427A
....................          }else{ 
0A2DA:  BRA    A2F0
....................             printf("b9.bco=63488"); 
0A2DC:  MOVLW  E4
0A2DE:  MOVWF  FF6
0A2E0:  MOVLW  0C
0A2E2:  MOVWF  FF7
0A2E4:  MOVLW  00
0A2E6:  MOVWF  FF8
0A2E8:  CALL   4248
....................             SendDataDisplay();  
0A2EC:  CALL   427A
....................          } 
....................           
....................          if(STOP){ 
0A2F0:  BSF    F93.2
0A2F2:  BTFSC  F81.2
0A2F4:  BRA    A30C
....................             printf("b10.bco=2016"); 
0A2F6:  MOVLW  F2
0A2F8:  MOVWF  FF6
0A2FA:  MOVLW  0C
0A2FC:  MOVWF  FF7
0A2FE:  MOVLW  00
0A300:  MOVWF  FF8
0A302:  CALL   4248
....................             SendDataDisplay();  
0A306:  CALL   427A
....................          }else{ 
0A30A:  BRA    A320
....................             printf("b10.bco=63488"); 
0A30C:  MOVLW  00
0A30E:  MOVWF  FF6
0A310:  MOVLW  0D
0A312:  MOVWF  FF7
0A314:  MOVLW  00
0A316:  MOVWF  FF8
0A318:  CALL   4248
....................             SendDataDisplay();  
0A31C:  CALL   427A
....................          } 
....................           
....................          if(PRES){ 
0A320:  BSF    F92.4
0A322:  BTFSC  F80.4
0A324:  BRA    A33C
....................             printf("b11.bco=2016"); 
0A326:  MOVLW  0E
0A328:  MOVWF  FF6
0A32A:  MOVLW  0D
0A32C:  MOVWF  FF7
0A32E:  MOVLW  00
0A330:  MOVWF  FF8
0A332:  CALL   4248
....................             SendDataDisplay();  
0A336:  CALL   427A
....................          }else{ 
0A33A:  BRA    A350
....................             printf("b11.bco=63488"); 
0A33C:  MOVLW  1C
0A33E:  MOVWF  FF6
0A340:  MOVLW  0D
0A342:  MOVWF  FF7
0A344:  MOVLW  00
0A346:  MOVWF  FF8
0A348:  CALL   4248
....................             SendDataDisplay();  
0A34C:  CALL   427A
....................          } 
....................           
....................          if(RX_Buffer[4]==0x13)//Oprimio Buzzer 
0A350:  MOVF   34,W
0A352:  SUBLW  13
0A354:  BNZ   A35C
....................          { 
....................             EstadoBuzzer=!EstadoBuzzer; 
0A356:  BTG    xA7.7
....................             RX_Buffer[4]=0x00; 
0A358:  CLRF   34
....................             RX_Buffer2[4]=0x00; 
0A35A:  CLRF   3F
....................          } 
....................           
....................          if(EstadoBuzzer){ 
0A35C:  BTFSS  xA7.7
0A35E:  BRA    A37A
....................             printf("b12.bco=2016"); 
0A360:  MOVLW  2A
0A362:  MOVWF  FF6
0A364:  MOVLW  0D
0A366:  MOVWF  FF7
0A368:  MOVLW  00
0A36A:  MOVWF  FF8
0A36C:  CALL   4248
....................             SendDataDisplay();  
0A370:  CALL   427A
....................             Buzzer_on; 
0A374:  BSF    F8B.5
0A376:  BCF    F94.5
....................          } 
....................          else{ 
0A378:  BRA    A392
....................             printf("b12.bco=63488"); 
0A37A:  MOVLW  38
0A37C:  MOVWF  FF6
0A37E:  MOVLW  0D
0A380:  MOVWF  FF7
0A382:  MOVLW  00
0A384:  MOVWF  FF8
0A386:  CALL   4248
....................             SendDataDisplay();  
0A38A:  CALL   427A
....................             Buzzer_off; 
0A38E:  BCF    F8B.5
0A390:  BCF    F94.5
....................          } 
....................           
....................          if(LOW){ 
0A392:  BSF    F93.0
0A394:  BTFSS  F81.0
0A396:  BRA    A3AE
....................             printf("b17.bco=2016"); 
0A398:  MOVLW  46
0A39A:  MOVWF  FF6
0A39C:  MOVLW  0D
0A39E:  MOVWF  FF7
0A3A0:  MOVLW  00
0A3A2:  MOVWF  FF8
0A3A4:  CALL   4248
....................             SendDataDisplay();  
0A3A8:  CALL   427A
....................          }else{ 
0A3AC:  BRA    A3C2
....................             printf("b17.bco=63488"); 
0A3AE:  MOVLW  54
0A3B0:  MOVWF  FF6
0A3B2:  MOVLW  0D
0A3B4:  MOVWF  FF7
0A3B6:  MOVLW  00
0A3B8:  MOVWF  FF8
0A3BA:  CALL   4248
....................             SendDataDisplay();  
0A3BE:  CALL   427A
....................          } 
....................           
....................          if(RX_Buffer[4]==0x14)//Oprimio Zero ADC3 
0A3C2:  MOVF   34,W
0A3C4:  SUBLW  14
0A3C6:  BTFSS  FD8.2
0A3C8:  BRA    A4FE
....................          { 
....................             G1=41-sensores(2); 
0A3CA:  MOVLW  02
0A3CC:  MOVLB  6
0A3CE:  MOVWF  x5B
0A3D0:  MOVLB  0
0A3D2:  CALL   43CE
0A3D6:  MOVFF  FEA,64C
0A3DA:  MOVFF  FE9,64B
0A3DE:  BSF    FD8.1
0A3E0:  MOVLB  6
0A3E2:  CLRF   x66
0A3E4:  CLRF   x65
0A3E6:  MOVLW  24
0A3E8:  MOVWF  x64
0A3EA:  MOVLW  84
0A3EC:  MOVWF  x63
0A3EE:  MOVFF  03,66A
0A3F2:  MOVFF  02,669
0A3F6:  MOVFF  01,668
0A3FA:  MOVFF  00,667
0A3FE:  MOVLB  0
0A400:  CALL   20F4
0A404:  MOVFF  64C,FEA
0A408:  MOVFF  64B,FE9
0A40C:  MOVFF  03,660
0A410:  MOVFF  02,65F
0A414:  MOVFF  01,65E
0A418:  MOVFF  00,65D
0A41C:  CALL   521E
0A420:  MOVFF  01,24D
....................             if(G1<0) 
0A424:  MOVLB  2
0A426:  BTFSC  x4D.7
0A428:  BRA    A42C
0A42A:  BRA    A432
....................                sg1=10; 
0A42C:  MOVLW  0A
0A42E:  MOVWF  x4F
....................             else 
0A430:  BRA    A436
....................                sg1=5; 
0A432:  MOVLW  05
0A434:  MOVWF  x4F
....................                    
....................             write_eeprom(42,(int8)G1); 
0A436:  CLRF   FAA
0A438:  MOVLW  2A
0A43A:  MOVWF  FA9
0A43C:  MOVFF  24D,FA8
0A440:  BCF    FA6.6
0A442:  BCF    FA6.7
0A444:  BSF    FA6.2
0A446:  MOVF   FF2,W
0A448:  MOVWF  00
0A44A:  BCF    FF2.6
0A44C:  BCF    FF2.7
0A44E:  MOVLB  F
0A450:  MOVLW  55
0A452:  MOVWF  FA7
0A454:  MOVLW  AA
0A456:  MOVWF  FA7
0A458:  BSF    FA6.1
0A45A:  BTFSC  FA6.1
0A45C:  BRA    A45A
0A45E:  BCF    FA6.2
0A460:  MOVF   00,W
0A462:  IORWF  FF2,F
....................             delay_ms(10); 
0A464:  MOVLW  0A
0A466:  MOVLB  6
0A468:  MOVWF  x64
0A46A:  MOVLB  0
0A46C:  CALL   1F6E
....................             write_eeprom(44,(int8)sg1); 
0A470:  CLRF   FAA
0A472:  MOVLW  2C
0A474:  MOVWF  FA9
0A476:  MOVFF  24F,FA8
0A47A:  BCF    FA6.6
0A47C:  BCF    FA6.7
0A47E:  BSF    FA6.2
0A480:  MOVF   FF2,W
0A482:  MOVWF  00
0A484:  BCF    FF2.6
0A486:  BCF    FF2.7
0A488:  MOVLB  F
0A48A:  MOVLW  55
0A48C:  MOVWF  FA7
0A48E:  MOVLW  AA
0A490:  MOVWF  FA7
0A492:  BSF    FA6.1
0A494:  BTFSC  FA6.1
0A496:  BRA    A494
0A498:  BCF    FA6.2
0A49A:  MOVF   00,W
0A49C:  IORWF  FF2,F
....................             delay_ms(10); 
0A49E:  MOVLW  0A
0A4A0:  MOVLB  6
0A4A2:  MOVWF  x64
0A4A4:  MOVLB  0
0A4A6:  CALL   1F6E
....................             Buzzer_on; 
0A4AA:  BSF    F8B.5
0A4AC:  BCF    F94.5
....................             delay_ms(1000); 
0A4AE:  MOVLW  04
0A4B0:  MOVLB  6
0A4B2:  MOVWF  x4B
0A4B4:  MOVLW  FA
0A4B6:  MOVWF  x64
0A4B8:  MOVLB  0
0A4BA:  CALL   1F6E
0A4BE:  MOVLB  6
0A4C0:  DECFSZ x4B,F
0A4C2:  BRA    A4B4
....................             Buzzer_off; 
0A4C4:  BCF    F8B.5
0A4C6:  BCF    F94.5
....................             delay_ms(1000); 
0A4C8:  MOVLW  04
0A4CA:  MOVWF  x4B
0A4CC:  MOVLW  FA
0A4CE:  MOVWF  x64
0A4D0:  MOVLB  0
0A4D2:  CALL   1F6E
0A4D6:  MOVLB  6
0A4D8:  DECFSZ x4B,F
0A4DA:  BRA    A4CC
....................             Buzzer_on; 
0A4DC:  BSF    F8B.5
0A4DE:  BCF    F94.5
....................             delay_ms(1000); 
0A4E0:  MOVLW  04
0A4E2:  MOVWF  x4B
0A4E4:  MOVLW  FA
0A4E6:  MOVWF  x64
0A4E8:  MOVLB  0
0A4EA:  CALL   1F6E
0A4EE:  MOVLB  6
0A4F0:  DECFSZ x4B,F
0A4F2:  BRA    A4E4
....................             Buzzer_off; 
0A4F4:  BCF    F8B.5
0A4F6:  BCF    F94.5
....................             RX_Buffer[4]=0x00; 
0A4F8:  CLRF   34
....................             RX_Buffer2[4]=0x00; 
0A4FA:  CLRF   3F
0A4FC:  MOVLB  0
....................          } 
....................           
....................          if(RX_Buffer[4]==0x14)//Oprimio Zero ADC3 
0A4FE:  MOVF   34,W
0A500:  SUBLW  14
0A502:  BTFSS  FD8.2
0A504:  BRA    A638
....................          { 
....................             G2=41-sensores(3); 
0A506:  MOVLW  03
0A508:  MOVLB  6
0A50A:  MOVWF  x5B
0A50C:  MOVLB  0
0A50E:  CALL   43CE
0A512:  MOVFF  FEA,64C
0A516:  MOVFF  FE9,64B
0A51A:  BSF    FD8.1
0A51C:  MOVLB  6
0A51E:  CLRF   x66
0A520:  CLRF   x65
0A522:  MOVLW  24
0A524:  MOVWF  x64
0A526:  MOVLW  84
0A528:  MOVWF  x63
0A52A:  MOVFF  03,66A
0A52E:  MOVFF  02,669
0A532:  MOVFF  01,668
0A536:  MOVFF  00,667
0A53A:  MOVLB  0
0A53C:  CALL   20F4
0A540:  MOVFF  64C,FEA
0A544:  MOVFF  64B,FE9
0A548:  MOVFF  03,660
0A54C:  MOVFF  02,65F
0A550:  MOVFF  01,65E
0A554:  MOVFF  00,65D
0A558:  CALL   521E
0A55C:  MOVFF  01,24E
....................             if(G2<0) 
0A560:  MOVLB  2
0A562:  BTFSC  x4E.7
0A564:  BRA    A568
0A566:  BRA    A56E
....................                sg2=10; 
0A568:  MOVLW  0A
0A56A:  MOVWF  x50
....................             else 
0A56C:  BRA    A572
....................                sg2=5; 
0A56E:  MOVLW  05
0A570:  MOVWF  x50
....................                    
....................             write_eeprom(43,(int8)G2); 
0A572:  CLRF   FAA
0A574:  MOVLW  2B
0A576:  MOVWF  FA9
0A578:  MOVFF  24E,FA8
0A57C:  BCF    FA6.6
0A57E:  BCF    FA6.7
0A580:  BSF    FA6.2
0A582:  MOVF   FF2,W
0A584:  MOVWF  00
0A586:  BCF    FF2.6
0A588:  BCF    FF2.7
0A58A:  MOVLB  F
0A58C:  MOVLW  55
0A58E:  MOVWF  FA7
0A590:  MOVLW  AA
0A592:  MOVWF  FA7
0A594:  BSF    FA6.1
0A596:  BTFSC  FA6.1
0A598:  BRA    A596
0A59A:  BCF    FA6.2
0A59C:  MOVF   00,W
0A59E:  IORWF  FF2,F
....................             delay_ms(10); 
0A5A0:  MOVLW  0A
0A5A2:  MOVLB  6
0A5A4:  MOVWF  x64
0A5A6:  MOVLB  0
0A5A8:  CALL   1F6E
....................             write_eeprom(45,(int8)sg2); 
0A5AC:  CLRF   FAA
0A5AE:  MOVLW  2D
0A5B0:  MOVWF  FA9
0A5B2:  MOVFF  250,FA8
0A5B6:  BCF    FA6.6
0A5B8:  BCF    FA6.7
0A5BA:  BSF    FA6.2
0A5BC:  MOVF   FF2,W
0A5BE:  MOVWF  00
0A5C0:  BCF    FF2.6
0A5C2:  BCF    FF2.7
0A5C4:  MOVLB  F
0A5C6:  MOVLW  55
0A5C8:  MOVWF  FA7
0A5CA:  MOVLW  AA
0A5CC:  MOVWF  FA7
0A5CE:  BSF    FA6.1
0A5D0:  BTFSC  FA6.1
0A5D2:  BRA    A5D0
0A5D4:  BCF    FA6.2
0A5D6:  MOVF   00,W
0A5D8:  IORWF  FF2,F
....................             delay_ms(10); 
0A5DA:  MOVLW  0A
0A5DC:  MOVLB  6
0A5DE:  MOVWF  x64
0A5E0:  MOVLB  0
0A5E2:  CALL   1F6E
....................             Buzzer_on; 
0A5E6:  BSF    F8B.5
0A5E8:  BCF    F94.5
....................             delay_ms(1000); 
0A5EA:  MOVLW  04
0A5EC:  MOVLB  6
0A5EE:  MOVWF  x4B
0A5F0:  MOVLW  FA
0A5F2:  MOVWF  x64
0A5F4:  MOVLB  0
0A5F6:  CALL   1F6E
0A5FA:  MOVLB  6
0A5FC:  DECFSZ x4B,F
0A5FE:  BRA    A5F0
....................             Buzzer_off; 
0A600:  BCF    F8B.5
0A602:  BCF    F94.5
....................             delay_ms(1000); 
0A604:  MOVLW  04
0A606:  MOVWF  x4B
0A608:  MOVLW  FA
0A60A:  MOVWF  x64
0A60C:  MOVLB  0
0A60E:  CALL   1F6E
0A612:  MOVLB  6
0A614:  DECFSZ x4B,F
0A616:  BRA    A608
....................             Buzzer_on; 
0A618:  BSF    F8B.5
0A61A:  BCF    F94.5
....................             delay_ms(1000); 
0A61C:  MOVLW  04
0A61E:  MOVWF  x4B
0A620:  MOVLW  FA
0A622:  MOVWF  x64
0A624:  MOVLB  0
0A626:  CALL   1F6E
0A62A:  MOVLB  6
0A62C:  DECFSZ x4B,F
0A62E:  BRA    A620
....................             Buzzer_off; 
0A630:  BCF    F8B.5
0A632:  BCF    F94.5
....................             RX_Buffer[4]=0x00; 
0A634:  CLRF   34
....................             RX_Buffer2[4]=0x00; 
0A636:  CLRF   3F
....................          } 
....................                    
....................          printf("b13.txt=\"ADC0:%3.0f\"",sensores(0));          
0A638:  MOVLB  6
0A63A:  CLRF   x5B
0A63C:  MOVLB  0
0A63E:  CALL   43CE
0A642:  MOVFF  00,64B
0A646:  MOVFF  01,64C
0A64A:  MOVFF  02,64D
0A64E:  MOVFF  03,64E
0A652:  MOVLW  62
0A654:  MOVWF  FF6
0A656:  MOVLW  0D
0A658:  MOVWF  FF7
0A65A:  MOVLW  00
0A65C:  MOVWF  FF8
0A65E:  MOVLW  0E
0A660:  MOVLB  6
0A662:  MOVWF  x51
0A664:  MOVLB  0
0A666:  CALL   5AAC
0A66A:  MOVLW  02
0A66C:  MOVWF  FE9
0A66E:  MOVFF  64E,654
0A672:  MOVFF  64D,653
0A676:  MOVFF  64C,652
0A67A:  MOVFF  64B,651
0A67E:  MOVLB  6
0A680:  CLRF   x55
0A682:  MOVLB  0
0A684:  CALL   6424
0A688:  MOVLW  22
0A68A:  BTFSS  F9E.4
0A68C:  BRA    A68A
0A68E:  MOVWF  FAD
....................          SendDataDisplay(); 
0A690:  CALL   427A
....................          printf("b14.txt=\"ADC1:%3.0f\"",sensores(1));          
0A694:  MOVLW  01
0A696:  MOVLB  6
0A698:  MOVWF  x5B
0A69A:  MOVLB  0
0A69C:  CALL   43CE
0A6A0:  MOVFF  00,64B
0A6A4:  MOVFF  01,64C
0A6A8:  MOVFF  02,64D
0A6AC:  MOVFF  03,64E
0A6B0:  MOVLW  78
0A6B2:  MOVWF  FF6
0A6B4:  MOVLW  0D
0A6B6:  MOVWF  FF7
0A6B8:  MOVLW  00
0A6BA:  MOVWF  FF8
0A6BC:  MOVLW  0E
0A6BE:  MOVLB  6
0A6C0:  MOVWF  x51
0A6C2:  MOVLB  0
0A6C4:  CALL   5AAC
0A6C8:  MOVLW  02
0A6CA:  MOVWF  FE9
0A6CC:  MOVFF  64E,654
0A6D0:  MOVFF  64D,653
0A6D4:  MOVFF  64C,652
0A6D8:  MOVFF  64B,651
0A6DC:  MOVLB  6
0A6DE:  CLRF   x55
0A6E0:  MOVLB  0
0A6E2:  CALL   6424
0A6E6:  MOVLW  22
0A6E8:  BTFSS  F9E.4
0A6EA:  BRA    A6E8
0A6EC:  MOVWF  FAD
....................          SendDataDisplay(); 
0A6EE:  CALL   427A
....................          printf("b15.txt=\"A2:%3.0f %03Lu\"",sensores(2),PresionCamara); 
0A6F2:  MOVLW  02
0A6F4:  MOVLB  6
0A6F6:  MOVWF  x5B
0A6F8:  MOVLB  0
0A6FA:  CALL   43CE
0A6FE:  MOVFF  00,64B
0A702:  MOVFF  01,64C
0A706:  MOVFF  02,64D
0A70A:  MOVFF  03,64E
0A70E:  MOVLW  8E
0A710:  MOVWF  FF6
0A712:  MOVLW  0D
0A714:  MOVWF  FF7
0A716:  MOVLW  00
0A718:  MOVWF  FF8
0A71A:  MOVLW  0C
0A71C:  MOVLB  6
0A71E:  MOVWF  x51
0A720:  MOVLB  0
0A722:  CALL   5AAC
0A726:  MOVLW  02
0A728:  MOVWF  FE9
0A72A:  MOVFF  64E,654
0A72E:  MOVFF  64D,653
0A732:  MOVFF  64C,652
0A736:  MOVFF  64B,651
0A73A:  MOVLB  6
0A73C:  CLRF   x55
0A73E:  MOVLB  0
0A740:  CALL   6424
0A744:  MOVLW  20
0A746:  BTFSS  F9E.4
0A748:  BRA    A746
0A74A:  MOVWF  FAD
0A74C:  MOVLW  0A
0A74E:  MOVWF  FE9
0A750:  MOVFF  212,652
0A754:  MOVFF  211,651
0A758:  CALL   62B6
0A75C:  MOVLW  22
0A75E:  BTFSS  F9E.4
0A760:  BRA    A75E
0A762:  MOVWF  FAD
....................          SendDataDisplay(); 
0A764:  CALL   427A
....................          printf("b18.txt=\"A3:%3.0f %03Lu\"",sensores(3),PresionPreCamara); 
0A768:  MOVLW  03
0A76A:  MOVLB  6
0A76C:  MOVWF  x5B
0A76E:  MOVLB  0
0A770:  CALL   43CE
0A774:  MOVFF  00,64B
0A778:  MOVFF  01,64C
0A77C:  MOVFF  02,64D
0A780:  MOVFF  03,64E
0A784:  MOVLW  A8
0A786:  MOVWF  FF6
0A788:  MOVLW  0D
0A78A:  MOVWF  FF7
0A78C:  MOVLW  00
0A78E:  MOVWF  FF8
0A790:  MOVLW  0C
0A792:  MOVLB  6
0A794:  MOVWF  x51
0A796:  MOVLB  0
0A798:  CALL   5AAC
0A79C:  MOVLW  02
0A79E:  MOVWF  FE9
0A7A0:  MOVFF  64E,654
0A7A4:  MOVFF  64D,653
0A7A8:  MOVFF  64C,652
0A7AC:  MOVFF  64B,651
0A7B0:  MOVLB  6
0A7B2:  CLRF   x55
0A7B4:  MOVLB  0
0A7B6:  CALL   6424
0A7BA:  MOVLW  20
0A7BC:  BTFSS  F9E.4
0A7BE:  BRA    A7BC
0A7C0:  MOVWF  FAD
0A7C2:  MOVLW  0A
0A7C4:  MOVWF  FE9
0A7C6:  MOVFF  214,652
0A7CA:  MOVFF  213,651
0A7CE:  CALL   62B6
0A7D2:  MOVLW  22
0A7D4:  BTFSS  F9E.4
0A7D6:  BRA    A7D4
0A7D8:  MOVWF  FAD
....................          SendDataDisplay(); 
0A7DA:  CALL   427A
....................          printf("b19.txt=\"T2:%3.1f\"",Temperatura2); 
0A7DE:  MOVLW  C2
0A7E0:  MOVWF  FF6
0A7E2:  MOVLW  0D
0A7E4:  MOVWF  FF7
0A7E6:  MOVLW  00
0A7E8:  MOVWF  FF8
0A7EA:  MOVLW  0C
0A7EC:  MOVLB  6
0A7EE:  MOVWF  x51
0A7F0:  MOVLB  0
0A7F2:  CALL   5AAC
0A7F6:  MOVLW  02
0A7F8:  MOVWF  FE9
0A7FA:  MOVFF  1DA,654
0A7FE:  MOVFF  1D9,653
0A802:  MOVFF  1D8,652
0A806:  MOVFF  1D7,651
0A80A:  MOVLW  01
0A80C:  MOVLB  6
0A80E:  MOVWF  x55
0A810:  MOVLB  0
0A812:  CALL   6424
0A816:  MOVLW  22
0A818:  BTFSS  F9E.4
0A81A:  BRA    A818
0A81C:  MOVWF  FAD
....................          SendDataDisplay(); 
0A81E:  CALL   427A
....................          printf("b20.txt=\"T1:%3.1f\"",Temperatura); 
0A822:  MOVLW  D6
0A824:  MOVWF  FF6
0A826:  MOVLW  0D
0A828:  MOVWF  FF7
0A82A:  MOVLW  00
0A82C:  MOVWF  FF8
0A82E:  MOVLW  0C
0A830:  MOVLB  6
0A832:  MOVWF  x51
0A834:  MOVLB  0
0A836:  CALL   5AAC
0A83A:  MOVLW  02
0A83C:  MOVWF  FE9
0A83E:  MOVFF  1D6,654
0A842:  MOVFF  1D5,653
0A846:  MOVFF  1D4,652
0A84A:  MOVFF  1D3,651
0A84E:  MOVLW  01
0A850:  MOVLB  6
0A852:  MOVWF  x55
0A854:  MOVLB  0
0A856:  CALL   6424
0A85A:  MOVLW  22
0A85C:  BTFSS  F9E.4
0A85E:  BRA    A85C
0A860:  MOVWF  FAD
....................          SendDataDisplay(); 
0A862:  CALL   427A
....................           
....................          if(RX_Buffer[4]==0x21)//Oprimio salir 
0A866:  MOVF   34,W
0A868:  SUBLW  21
0A86A:  BNZ   A88C
....................          { 
....................             printf("page Menu"); 
0A86C:  MOVLW  EA
0A86E:  MOVWF  FF6
0A870:  MOVLW  0D
0A872:  MOVWF  FF7
0A874:  MOVLW  00
0A876:  MOVWF  FF8
0A878:  CALL   4248
....................             SendDataDisplay(); 
0A87C:  CALL   427A
....................             PantallaPrincipal=0; 
0A880:  MOVLB  1
0A882:  CLRF   x94
....................             PruebaEstados=OFF; 
0A884:  MOVLB  0
0A886:  BCF    xA6.4
....................             ApagaSalidas(); 
0A888:  CALL   42B0
0A88C:  MOVLB  1
....................             // Falta apagar Todo 
....................          } 
....................      } 
.................... //_--------------------------------------------------------------------------------------------------------------------------------------------------------     
....................  
.................... //_--------------------------------------------------------------------------------------------------------------------------------------------------------       
....................     if(Menu==7){ //Menu de Configuracin de Fecha y Hora 
0A88E:  MOVF   xF0,W
0A890:  SUBLW  07
0A892:  BTFSS  FD8.2
0A894:  BRA    AC6A
....................        
....................          if(RX_Buffer[4]==0x0a)//Selecciono Hora 
0A896:  MOVF   34,W
0A898:  SUBLW  0A
0A89A:  BNZ   A8A4
....................             Opcion=4; 
0A89C:  MOVLW  04
0A89E:  MOVLB  2
0A8A0:  MOVWF  x00
0A8A2:  MOVLB  1
....................           
....................          if(RX_Buffer[4]==0x0b)//Selecciono Minuto 
0A8A4:  MOVF   34,W
0A8A6:  SUBLW  0B
0A8A8:  BNZ   A8B2
....................             Opcion=5; 
0A8AA:  MOVLW  05
0A8AC:  MOVLB  2
0A8AE:  MOVWF  x00
0A8B0:  MOVLB  1
....................           
....................          if(RX_Buffer[4]==0x0c)//Selecciono Dia 
0A8B2:  MOVF   34,W
0A8B4:  SUBLW  0C
0A8B6:  BNZ   A8C0
....................             Opcion=1; 
0A8B8:  MOVLW  01
0A8BA:  MOVLB  2
0A8BC:  MOVWF  x00
0A8BE:  MOVLB  1
....................           
....................          if(RX_Buffer[4]==0x0d)//Selecciono Hora 
0A8C0:  MOVF   34,W
0A8C2:  SUBLW  0D
0A8C4:  BNZ   A8CE
....................             Opcion=2; 
0A8C6:  MOVLW  02
0A8C8:  MOVLB  2
0A8CA:  MOVWF  x00
0A8CC:  MOVLB  1
....................           
....................          if(RX_Buffer[4]==0x0e)//Selecciono Year 
0A8CE:  MOVF   34,W
0A8D0:  SUBLW  0E
0A8D2:  BNZ   A8DA
....................             Opcion=3; 
0A8D4:  MOVLW  03
0A8D6:  MOVLB  2
0A8D8:  MOVWF  x00
....................           
....................          if(Opcion>5) 
0A8DA:  MOVLB  2
0A8DC:  MOVF   x00,W
0A8DE:  SUBLW  05
0A8E0:  BC    A8E6
....................             Opcion=1; 
0A8E2:  MOVLW  01
0A8E4:  MOVWF  x00
....................          if(Opcion<1) 
0A8E6:  MOVF   x00,F
0A8E8:  BNZ   A8EE
....................             Opcion=5; 
0A8EA:  MOVLW  05
0A8EC:  MOVWF  x00
....................              
....................          if(RX_Buffer[4]==0x11){//Selecciono Regresar 
0A8EE:  MOVF   34,W
0A8F0:  SUBLW  11
0A8F2:  BTFSS  FD8.2
0A8F4:  BRA    AA0E
....................             printf("page Menu"); 
0A8F6:  MOVLW  F4
0A8F8:  MOVWF  FF6
0A8FA:  MOVLW  0D
0A8FC:  MOVWF  FF7
0A8FE:  MOVLW  00
0A900:  MOVWF  FF8
0A902:  MOVLB  0
0A904:  CALL   4248
....................             SendDataDisplay();   
0A908:  CALL   427A
....................             PantallaPrincipal=0; 
0A90C:  MOVLB  1
0A90E:  CLRF   x94
....................             Op=OFF; 
0A910:  MOVLB  0
0A912:  BCF    xA7.0
....................             Op2=OFF; 
0A914:  BCF    xA7.1
....................              
....................             if(esBisiesto(YearTx)) 
0A916:  MOVFF  23F,64B
0A91A:  CALL   65C8
0A91E:  MOVF   01,F
0A920:  BZ    A93C
....................                Modulo=Bisiesto[MesTx]; 
0A922:  CLRF   03
0A924:  MOVLB  2
0A926:  MOVF   x40,W
0A928:  ADDLW  96
0A92A:  MOVWF  FE9
0A92C:  MOVLW  00
0A92E:  ADDWFC 03,W
0A930:  MOVWF  FEA
0A932:  MOVFF  FEF,196
0A936:  MOVLB  1
....................             else 
0A938:  BRA    A952
0A93A:  MOVLB  0
....................                Modulo=Regular[MesTx]; 
0A93C:  CLRF   03
0A93E:  MOVLB  2
0A940:  MOVF   x40,W
0A942:  ADDLW  8A
0A944:  MOVWF  FE9
0A946:  MOVLW  00
0A948:  ADDWFC 03,W
0A94A:  MOVWF  FEA
0A94C:  MOVFF  FEF,196
0A950:  MOVLB  1
....................           
....................             dowTx=((YearTx-1)%7+((YearTx-1)/4-3*((YearTx-1)/100+1)/4)%7+Modulo+DiaTx%7)%7; 
0A952:  MOVLW  01
0A954:  MOVLB  2
0A956:  SUBWF  x3F,W
0A958:  MOVLB  6
0A95A:  MOVWF  x4C
0A95C:  MOVWF  x53
0A95E:  MOVLW  07
0A960:  MOVWF  x54
0A962:  MOVLB  0
0A964:  CALL   5B04
0A968:  MOVFF  00,64B
0A96C:  MOVLW  01
0A96E:  MOVLB  2
0A970:  SUBWF  x3F,W
0A972:  MOVWF  00
0A974:  RRCF   00,W
0A976:  MOVLB  6
0A978:  MOVWF  x4C
0A97A:  RRCF   x4C,F
0A97C:  MOVLW  3F
0A97E:  ANDWF  x4C,F
0A980:  MOVLW  01
0A982:  MOVLB  2
0A984:  SUBWF  x3F,W
0A986:  MOVLB  6
0A988:  MOVWF  x4E
0A98A:  MOVWF  x53
0A98C:  MOVLW  64
0A98E:  MOVWF  x54
0A990:  MOVLB  0
0A992:  CALL   5B04
0A996:  MOVLW  01
0A998:  ADDWF  01,W
0A99A:  MULLW  03
0A99C:  MOVFF  FF3,00
0A9A0:  RRCF   00,F
0A9A2:  RRCF   00,F
0A9A4:  MOVLW  3F
0A9A6:  ANDWF  00,F
0A9A8:  MOVF   00,W
0A9AA:  MOVLB  6
0A9AC:  SUBWF  x4C,W
0A9AE:  MOVWF  x4D
0A9B0:  MOVWF  x53
0A9B2:  MOVLW  07
0A9B4:  MOVWF  x54
0A9B6:  MOVLB  0
0A9B8:  CALL   5B04
0A9BC:  MOVF   00,W
0A9BE:  MOVLB  6
0A9C0:  ADDWF  x4B,W
0A9C2:  MOVLB  1
0A9C4:  ADDWF  x96,W
0A9C6:  MOVLB  6
0A9C8:  MOVWF  x4B
0A9CA:  MOVFF  241,653
0A9CE:  MOVLW  07
0A9D0:  MOVWF  x54
0A9D2:  MOVLB  0
0A9D4:  CALL   5B04
0A9D8:  MOVF   00,W
0A9DA:  MOVLB  6
0A9DC:  ADDWF  x4B,W
0A9DE:  MOVWF  x4C
0A9E0:  MOVWF  x53
0A9E2:  MOVLW  07
0A9E4:  MOVWF  x54
0A9E6:  MOVLB  0
0A9E8:  CALL   5B04
0A9EC:  MOVFF  00,245
....................             SetTime=5; 
0A9F0:  MOVLW  05
0A9F2:  MOVLB  2
0A9F4:  MOVWF  x46
....................             Envio_Esclavos(); 
0A9F6:  MOVLB  0
0A9F8:  CALL   5416
....................             delay_ms(100);    
0A9FC:  MOVLW  64
0A9FE:  MOVLB  6
0AA00:  MOVWF  x64
0AA02:  MOVLB  0
0AA04:  CALL   1F6E
....................             SetTime=10; 
0AA08:  MOVLW  0A
0AA0A:  MOVLB  2
0AA0C:  MOVWF  x46
....................             //rtc_set_datetime(DiaTx,MesTx,YearTx,dowTx,HoraTx,MinutoTx); 
....................          } 
....................           
....................          if(RX_Buffer[4]==0x2a){//Tecla Arriba Oprimida 
0AA0E:  MOVF   34,W
0AA10:  SUBLW  2A
0AA12:  BTFSS  FD8.2
0AA14:  BRA    AAFA
....................                if(Opcion==1){ 
0AA16:  DECFSZ x00,W
0AA18:  BRA    AAA6
....................                   if(MesTx==2){ 
0AA1A:  MOVF   x40,W
0AA1C:  SUBLW  02
0AA1E:  BNZ   AA54
....................                      if(esBisiesto(YearTx)){ 
0AA20:  MOVFF  23F,64B
0AA24:  MOVLB  0
0AA26:  CALL   65C8
0AA2A:  MOVF   01,F
0AA2C:  BZ    AA42
....................                         if(DiaTx<29) 
0AA2E:  MOVLB  2
0AA30:  MOVF   x41,W
0AA32:  SUBLW  1C
0AA34:  BNC   AA3A
....................                            DiaTx++; 
0AA36:  INCF   x41,F
....................                         else 
0AA38:  BRA    AA3E
....................                            DiaTx=1;    
0AA3A:  MOVLW  01
0AA3C:  MOVWF  x41
....................                      }else{ 
0AA3E:  BRA    AA52
0AA40:  MOVLB  0
....................                         if(DiaTx<28) 
0AA42:  MOVLB  2
0AA44:  MOVF   x41,W
0AA46:  SUBLW  1B
0AA48:  BNC   AA4E
....................                            DiaTx++; 
0AA4A:  INCF   x41,F
....................                         else 
0AA4C:  BRA    AA52
....................                            DiaTx=1;    
0AA4E:  MOVLW  01
0AA50:  MOVWF  x41
....................                      } 
....................                   }else{ 
0AA52:  BRA    AAA4
....................                      if(MesTx<=7){ 
0AA54:  MOVF   x40,W
0AA56:  SUBLW  07
0AA58:  BNC   AA80
....................                         if(MesTx % 2 ==0){ 
0AA5A:  MOVF   x40,W
0AA5C:  ANDLW  01
0AA5E:  BNZ   AA70
....................                            if(DiaTx<30) 
0AA60:  MOVF   x41,W
0AA62:  SUBLW  1D
0AA64:  BNC   AA6A
....................                               DiaTx++;     
0AA66:  INCF   x41,F
....................                            else 
0AA68:  BRA    AA6E
....................                               DiaTx=1;    
0AA6A:  MOVLW  01
0AA6C:  MOVWF  x41
....................                         }else{ 
0AA6E:  BRA    AA7E
....................                            if(DiaTx<31) 
0AA70:  MOVF   x41,W
0AA72:  SUBLW  1E
0AA74:  BNC   AA7A
....................                               DiaTx++;     
0AA76:  INCF   x41,F
....................                            else 
0AA78:  BRA    AA7E
....................                               DiaTx=1;    
0AA7A:  MOVLW  01
0AA7C:  MOVWF  x41
....................                         }     
....................                      }else{ 
0AA7E:  BRA    AAA4
....................                         if(MesTx % 2 ==0){ 
0AA80:  MOVF   x40,W
0AA82:  ANDLW  01
0AA84:  BNZ   AA96
....................                            if(DiaTx<31) 
0AA86:  MOVF   x41,W
0AA88:  SUBLW  1E
0AA8A:  BNC   AA90
....................                               DiaTx++;   
0AA8C:  INCF   x41,F
....................                            else 
0AA8E:  BRA    AA94
....................                               DiaTx=1; 
0AA90:  MOVLW  01
0AA92:  MOVWF  x41
....................                         }else{ 
0AA94:  BRA    AAA4
....................                            if(DiaTx<30) 
0AA96:  MOVF   x41,W
0AA98:  SUBLW  1D
0AA9A:  BNC   AAA0
....................                               DiaTx++;     
0AA9C:  INCF   x41,F
....................                            else 
0AA9E:  BRA    AAA4
....................                               DiaTx=1; 
0AAA0:  MOVLW  01
0AAA2:  MOVWF  x41
....................                         }     
....................                      } 
....................                   } 
....................                }else if(Opcion==2){ 
0AAA4:  BRA    AAF6
0AAA6:  MOVF   x00,W
0AAA8:  SUBLW  02
0AAAA:  BNZ   AABC
....................                   if(MesTx<12) 
0AAAC:  MOVF   x40,W
0AAAE:  SUBLW  0B
0AAB0:  BNC   AAB6
....................                      MesTx++; 
0AAB2:  INCF   x40,F
....................                   else 
0AAB4:  BRA    AABA
....................                      MesTx=1; 
0AAB6:  MOVLW  01
0AAB8:  MOVWF  x40
....................                }else if(Opcion==3){ 
0AABA:  BRA    AAF6
0AABC:  MOVF   x00,W
0AABE:  SUBLW  03
0AAC0:  BNZ   AAD0
....................                   if(YearTx<99) 
0AAC2:  MOVF   x3F,W
0AAC4:  SUBLW  62
0AAC6:  BNC   AACC
....................                      YearTx++; 
0AAC8:  INCF   x3F,F
....................                   else  
0AACA:  BRA    AACE
....................                      YearTx=0; 
0AACC:  CLRF   x3F
....................                }else if(Opcion==4){ 
0AACE:  BRA    AAF6
0AAD0:  MOVF   x00,W
0AAD2:  SUBLW  04
0AAD4:  BNZ   AAE4
....................                   if(HoraTx<24) 
0AAD6:  MOVF   x42,W
0AAD8:  SUBLW  17
0AADA:  BNC   AAE0
....................                      HoraTx++; 
0AADC:  INCF   x42,F
....................                   else 
0AADE:  BRA    AAE2
....................                      HoraTx=0; 
0AAE0:  CLRF   x42
....................                }else if(Opcion==5){ 
0AAE2:  BRA    AAF6
0AAE4:  MOVF   x00,W
0AAE6:  SUBLW  05
0AAE8:  BNZ   AAF6
....................                   if(MinutoTx<59) 
0AAEA:  MOVF   x43,W
0AAEC:  SUBLW  3A
0AAEE:  BNC   AAF4
....................                      MinutoTx++; 
0AAF0:  INCF   x43,F
....................                   else 
0AAF2:  BRA    AAF6
....................                      MinutoTx=0; 
0AAF4:  CLRF   x43
....................                } 
....................                RX_Buffer[4]=0x00; 
0AAF6:  CLRF   34
....................                RX_Buffer2[4]=0x00; 
0AAF8:  CLRF   3F
....................          } 
....................           
....................          if(RX_Buffer[4]==0x2b){//Tecla Abajo Oprimida  
0AAFA:  MOVF   34,W
0AAFC:  SUBLW  2B
0AAFE:  BNZ   AB60
....................                if(Opcion==1){ 
0AB00:  DECFSZ x00,W
0AB02:  BRA    AB0C
....................                   if(DiaTx>0) 
0AB04:  MOVF   x41,F
0AB06:  BZ    AB0A
....................                      DiaTx--; 
0AB08:  DECF   x41,F
....................                }else if(Opcion==2){ 
0AB0A:  BRA    AB5C
0AB0C:  MOVF   x00,W
0AB0E:  SUBLW  02
0AB10:  BNZ   AB22
....................                   if(MesTx>1) 
0AB12:  MOVF   x40,W
0AB14:  SUBLW  01
0AB16:  BC    AB1C
....................                      MesTx--; 
0AB18:  DECF   x40,F
....................                   else 
0AB1A:  BRA    AB20
....................                      MesTx=12; 
0AB1C:  MOVLW  0C
0AB1E:  MOVWF  x40
....................                }else if(Opcion==3){ 
0AB20:  BRA    AB5C
0AB22:  MOVF   x00,W
0AB24:  SUBLW  03
0AB26:  BNZ   AB36
....................                   if(YearTx>0) 
0AB28:  MOVF   x3F,F
0AB2A:  BZ    AB30
....................                      YearTx--; 
0AB2C:  DECF   x3F,F
....................                   else 
0AB2E:  BRA    AB34
....................                      YearTx=99; 
0AB30:  MOVLW  63
0AB32:  MOVWF  x3F
....................                }else if(Opcion==4){ 
0AB34:  BRA    AB5C
0AB36:  MOVF   x00,W
0AB38:  SUBLW  04
0AB3A:  BNZ   AB4A
....................                   if(HoraTx>0) 
0AB3C:  MOVF   x42,F
0AB3E:  BZ    AB44
....................                      HoraTx--; 
0AB40:  DECF   x42,F
....................                   else 
0AB42:  BRA    AB48
....................                      HoraTx=23; 
0AB44:  MOVLW  17
0AB46:  MOVWF  x42
....................                }else if(Opcion==5){ 
0AB48:  BRA    AB5C
0AB4A:  MOVF   x00,W
0AB4C:  SUBLW  05
0AB4E:  BNZ   AB5C
....................                   if(MinutoTx>0) 
0AB50:  MOVF   x43,F
0AB52:  BZ    AB58
....................                      MinutoTx--; 
0AB54:  DECF   x43,F
....................                   else 
0AB56:  BRA    AB5C
....................                      MinutoTx=59; 
0AB58:  MOVLW  3B
0AB5A:  MOVWF  x43
....................                } 
....................                RX_Buffer[4]=0x00; 
0AB5C:  CLRF   34
....................                RX_Buffer2[4]=0x00; 
0AB5E:  CLRF   3F
....................                //BorraBuffer(); 
....................          } 
....................        
....................       printf("thora.txt=\"%02u\"",HoraTx); 
0AB60:  MOVLW  FE
0AB62:  MOVWF  FF6
0AB64:  MOVLW  0D
0AB66:  MOVWF  FF7
0AB68:  MOVLW  00
0AB6A:  MOVWF  FF8
0AB6C:  MOVLW  0B
0AB6E:  MOVLB  6
0AB70:  MOVWF  x51
0AB72:  MOVLB  0
0AB74:  CALL   5AAC
0AB78:  MOVFF  242,651
0AB7C:  MOVLW  01
0AB7E:  MOVLB  6
0AB80:  MOVWF  x52
0AB82:  MOVLB  0
0AB84:  CALL   5B30
0AB88:  MOVLW  22
0AB8A:  BTFSS  F9E.4
0AB8C:  BRA    AB8A
0AB8E:  MOVWF  FAD
....................       SendDataDisplay(); 
0AB90:  CALL   427A
....................       printf("tminutos.txt=\"%02u\"",MinutoTx); 
0AB94:  MOVLW  10
0AB96:  MOVWF  FF6
0AB98:  MOVLW  0E
0AB9A:  MOVWF  FF7
0AB9C:  MOVLW  00
0AB9E:  MOVWF  FF8
0ABA0:  MOVLW  0E
0ABA2:  MOVLB  6
0ABA4:  MOVWF  x51
0ABA6:  MOVLB  0
0ABA8:  CALL   5AAC
0ABAC:  MOVFF  243,651
0ABB0:  MOVLW  01
0ABB2:  MOVLB  6
0ABB4:  MOVWF  x52
0ABB6:  MOVLB  0
0ABB8:  CALL   5B30
0ABBC:  MOVLW  22
0ABBE:  BTFSS  F9E.4
0ABC0:  BRA    ABBE
0ABC2:  MOVWF  FAD
....................       SendDataDisplay(); 
0ABC4:  CALL   427A
....................       printf("tdia.txt=\"%02u\"",DiaTx); 
0ABC8:  MOVLW  24
0ABCA:  MOVWF  FF6
0ABCC:  MOVLW  0E
0ABCE:  MOVWF  FF7
0ABD0:  MOVLW  00
0ABD2:  MOVWF  FF8
0ABD4:  MOVLW  0A
0ABD6:  MOVLB  6
0ABD8:  MOVWF  x51
0ABDA:  MOVLB  0
0ABDC:  CALL   5AAC
0ABE0:  MOVFF  241,651
0ABE4:  MOVLW  01
0ABE6:  MOVLB  6
0ABE8:  MOVWF  x52
0ABEA:  MOVLB  0
0ABEC:  CALL   5B30
0ABF0:  MOVLW  22
0ABF2:  BTFSS  F9E.4
0ABF4:  BRA    ABF2
0ABF6:  MOVWF  FAD
....................       SendDataDisplay(); 
0ABF8:  CALL   427A
....................       printf("tmes.txt=\"%02u\"",MesTx); 
0ABFC:  MOVLW  34
0ABFE:  MOVWF  FF6
0AC00:  MOVLW  0E
0AC02:  MOVWF  FF7
0AC04:  MOVLW  00
0AC06:  MOVWF  FF8
0AC08:  MOVLW  0A
0AC0A:  MOVLB  6
0AC0C:  MOVWF  x51
0AC0E:  MOVLB  0
0AC10:  CALL   5AAC
0AC14:  MOVFF  240,651
0AC18:  MOVLW  01
0AC1A:  MOVLB  6
0AC1C:  MOVWF  x52
0AC1E:  MOVLB  0
0AC20:  CALL   5B30
0AC24:  MOVLW  22
0AC26:  BTFSS  F9E.4
0AC28:  BRA    AC26
0AC2A:  MOVWF  FAD
....................       SendDataDisplay(); 
0AC2C:  CALL   427A
....................       printf("tyear.txt=\"%02u\"",YearTx); 
0AC30:  MOVLW  44
0AC32:  MOVWF  FF6
0AC34:  MOVLW  0E
0AC36:  MOVWF  FF7
0AC38:  MOVLW  00
0AC3A:  MOVWF  FF8
0AC3C:  MOVLW  0B
0AC3E:  MOVLB  6
0AC40:  MOVWF  x51
0AC42:  MOVLB  0
0AC44:  CALL   5AAC
0AC48:  MOVFF  23F,651
0AC4C:  MOVLW  01
0AC4E:  MOVLB  6
0AC50:  MOVWF  x52
0AC52:  MOVLB  0
0AC54:  CALL   5B30
0AC58:  MOVLW  22
0AC5A:  BTFSS  F9E.4
0AC5C:  BRA    AC5A
0AC5E:  MOVWF  FAD
....................       SendDataDisplay(); 
0AC60:  CALL   427A
....................       LimitaDia();   
0AC64:  GOTO   661E
0AC68:  MOVLB  1
....................     } 
.................... //_--------------------------------------------------------------------------------------------------------------------------------------------------------        
....................  
.................... //_-------------------------------------------------------------------------------------------------------------------------------------------------------- 
....................    if(Menu==8){ //Menu Ciclos Personalizados 
0AC6A:  MOVF   xF0,W
0AC6C:  SUBLW  08
0AC6E:  BTFSS  FD8.2
0AC70:  GOTO   BB08
....................       printf("fecha.txt=\"Fecha:%02u/%02u/20%02u    Hora: %02u:%02u:%02u\"",Dia,Mes,Year,Hora,Minuto,Segundo); 
0AC74:  MOVLW  56
0AC76:  MOVWF  FF6
0AC78:  MOVLW  0E
0AC7A:  MOVWF  FF7
0AC7C:  MOVLW  00
0AC7E:  MOVWF  FF8
0AC80:  MOVLW  11
0AC82:  MOVLB  6
0AC84:  MOVWF  x51
0AC86:  MOVLB  0
0AC88:  CALL   5AAC
0AC8C:  MOVFF  236,651
0AC90:  MOVLW  01
0AC92:  MOVLB  6
0AC94:  MOVWF  x52
0AC96:  MOVLB  0
0AC98:  CALL   5B30
0AC9C:  MOVLW  2F
0AC9E:  BTFSS  F9E.4
0ACA0:  BRA    AC9E
0ACA2:  MOVWF  FAD
0ACA4:  MOVFF  235,651
0ACA8:  MOVLW  01
0ACAA:  MOVLB  6
0ACAC:  MOVWF  x52
0ACAE:  MOVLB  0
0ACB0:  CALL   5B30
0ACB4:  MOVLW  2F
0ACB6:  BTFSS  F9E.4
0ACB8:  BRA    ACB6
0ACBA:  MOVWF  FAD
0ACBC:  MOVLW  32
0ACBE:  BTFSS  F9E.4
0ACC0:  BRA    ACBE
0ACC2:  MOVWF  FAD
0ACC4:  MOVLW  30
0ACC6:  BTFSS  F9E.4
0ACC8:  BRA    ACC6
0ACCA:  MOVWF  FAD
0ACCC:  MOVFF  234,651
0ACD0:  MOVLW  01
0ACD2:  MOVLB  6
0ACD4:  MOVWF  x52
0ACD6:  MOVLB  0
0ACD8:  CALL   5B30
0ACDC:  MOVLW  77
0ACDE:  MOVWF  FF6
0ACE0:  MOVLW  0E
0ACE2:  MOVWF  FF7
0ACE4:  MOVLW  00
0ACE6:  MOVWF  FF8
0ACE8:  MOVLW  0A
0ACEA:  MOVLB  6
0ACEC:  MOVWF  x51
0ACEE:  MOVLB  0
0ACF0:  CALL   5AAC
0ACF4:  MOVFF  237,651
0ACF8:  MOVLW  01
0ACFA:  MOVLB  6
0ACFC:  MOVWF  x52
0ACFE:  MOVLB  0
0AD00:  CALL   5B30
0AD04:  MOVLW  3A
0AD06:  BTFSS  F9E.4
0AD08:  BRA    AD06
0AD0A:  MOVWF  FAD
0AD0C:  MOVFF  238,651
0AD10:  MOVLW  01
0AD12:  MOVLB  6
0AD14:  MOVWF  x52
0AD16:  MOVLB  0
0AD18:  CALL   5B30
0AD1C:  MOVLW  3A
0AD1E:  BTFSS  F9E.4
0AD20:  BRA    AD1E
0AD22:  MOVWF  FAD
0AD24:  MOVFF  239,651
0AD28:  MOVLW  01
0AD2A:  MOVLB  6
0AD2C:  MOVWF  x52
0AD2E:  MOVLB  0
0AD30:  CALL   5B30
0AD34:  MOVLW  22
0AD36:  BTFSS  F9E.4
0AD38:  BRA    AD36
0AD3A:  MOVWF  FAD
....................       SendDataDisplay(); 
0AD3C:  CALL   427A
....................       GuardaEEPROM=OFF; 
0AD40:  BCF    xA7.4
....................       printf("tuser.txt=\"%s\"",usuario); 
0AD42:  MOVLW  92
0AD44:  MOVWF  FF6
0AD46:  MOVLW  0E
0AD48:  MOVWF  FF7
0AD4A:  MOVLW  00
0AD4C:  MOVWF  FF8
0AD4E:  MOVLW  0B
0AD50:  MOVLB  6
0AD52:  MOVWF  x51
0AD54:  MOVLB  0
0AD56:  CALL   5AAC
0AD5A:  MOVLW  02
0AD5C:  MOVWF  FEA
0AD5E:  MOVLW  51
0AD60:  MOVWF  FE9
0AD62:  CALL   5ADE
0AD66:  MOVLW  22
0AD68:  BTFSS  F9E.4
0AD6A:  BRA    AD68
0AD6C:  MOVWF  FAD
....................       SendDataDisplay(); 
0AD6E:  CALL   427A
....................       codigoUsuarioant=codigoUsuario; 
0AD72:  MOVFF  24B,24C
....................        
....................       if(RX_Buffer[4]>0x00 && RX_Buffer[4]<0x15 && estados[RX_Buffer[4]-1]){//Personalizados 
0AD76:  MOVF   34,F
0AD78:  BTFSC  FD8.2
0AD7A:  BRA    B042
0AD7C:  MOVF   34,W
0AD7E:  SUBLW  14
0AD80:  BTFSS  FD8.0
0AD82:  BRA    B042
0AD84:  MOVLW  01
0AD86:  SUBWF  34,W
0AD88:  MOVLB  6
0AD8A:  MOVWF  x4D
0AD8C:  MOVLW  02
0AD8E:  MOVWF  x4F
0AD90:  MOVLW  B7
0AD92:  MOVWF  x4E
0AD94:  MOVLB  0
0AD96:  CALL   23AE
0AD9A:  BTFSS  01.0
0AD9C:  BRA    B042
....................          printf("ciclo.txt=\"CICLO P%02u\"",RX_Buffer[4]+0x0a); 
0AD9E:  MOVLW  0A
0ADA0:  ADDWF  34,W
0ADA2:  MOVLB  6
0ADA4:  MOVWF  x4B
0ADA6:  MOVLW  A2
0ADA8:  MOVWF  FF6
0ADAA:  MOVLW  0E
0ADAC:  MOVWF  FF7
0ADAE:  MOVLW  00
0ADB0:  MOVWF  FF8
0ADB2:  MOVLW  12
0ADB4:  MOVWF  x51
0ADB6:  MOVLB  0
0ADB8:  CALL   5AAC
0ADBC:  MOVFF  64B,651
0ADC0:  MOVLW  01
0ADC2:  MOVLB  6
0ADC4:  MOVWF  x52
0ADC6:  MOVLB  0
0ADC8:  CALL   5B30
0ADCC:  MOVLW  22
0ADCE:  BTFSS  F9E.4
0ADD0:  BRA    ADCE
0ADD2:  MOVWF  FAD
....................          SendDataDisplay();           
0ADD4:  CALL   427A
....................          printf("temp.txt=\"%u\"",CiclosPersonalizados[RX_Buffer[4]-1].Temperatura); 
0ADD8:  MOVLW  01
0ADDA:  SUBWF  34,W
0ADDC:  MULLW  08
0ADDE:  MOVF   FF3,W
0ADE0:  MOVLB  6
0ADE2:  CLRF   x4C
0ADE4:  MOVWF  x4B
0ADE6:  MOVLW  83
0ADE8:  ADDWF  x4B,W
0ADEA:  MOVWF  FE9
0ADEC:  MOVLW  05
0ADEE:  ADDWFC x4C,W
0ADF0:  MOVWF  FEA
0ADF2:  MOVFF  FEF,64B
0ADF6:  MOVLW  BA
0ADF8:  MOVWF  FF6
0ADFA:  MOVLW  0E
0ADFC:  MOVWF  FF7
0ADFE:  MOVLW  00
0AE00:  MOVWF  FF8
0AE02:  MOVLW  0A
0AE04:  MOVWF  x51
0AE06:  MOVLB  0
0AE08:  CALL   5AAC
0AE0C:  MOVFF  64B,651
0AE10:  MOVLW  1B
0AE12:  MOVLB  6
0AE14:  MOVWF  x52
0AE16:  MOVLB  0
0AE18:  CALL   5B30
0AE1C:  MOVLW  22
0AE1E:  BTFSS  F9E.4
0AE20:  BRA    AE1E
0AE22:  MOVWF  FAD
....................          SendDataDisplay(); 
0AE24:  CALL   427A
....................          printf("test.txt=\"%02u:%02u\"",CiclosPersonalizados[RX_Buffer[4]-1].Minutoest,CiclosPersonalizados[RX_Buffer[4]-1].Segundoest); 
0AE28:  MOVLW  01
0AE2A:  SUBWF  34,W
0AE2C:  MULLW  08
0AE2E:  MOVF   FF3,W
0AE30:  MOVLB  6
0AE32:  CLRF   x4C
0AE34:  MOVWF  x4B
0AE36:  MOVLW  01
0AE38:  ADDWF  x4B,W
0AE3A:  MOVWF  01
0AE3C:  MOVLW  00
0AE3E:  ADDWFC x4C,W
0AE40:  MOVWF  03
0AE42:  MOVF   01,W
0AE44:  ADDLW  83
0AE46:  MOVWF  FE9
0AE48:  MOVLW  05
0AE4A:  ADDWFC 03,W
0AE4C:  MOVWF  FEA
0AE4E:  MOVFF  FEF,64B
0AE52:  MOVLW  01
0AE54:  SUBWF  34,W
0AE56:  MULLW  08
0AE58:  MOVF   FF3,W
0AE5A:  CLRF   x4D
0AE5C:  MOVWF  x4C
0AE5E:  MOVLW  02
0AE60:  ADDWF  x4C,W
0AE62:  MOVWF  01
0AE64:  MOVLW  00
0AE66:  ADDWFC x4D,W
0AE68:  MOVWF  03
0AE6A:  MOVF   01,W
0AE6C:  ADDLW  83
0AE6E:  MOVWF  FE9
0AE70:  MOVLW  05
0AE72:  ADDWFC 03,W
0AE74:  MOVWF  FEA
0AE76:  MOVFF  FEF,64C
0AE7A:  MOVLW  C8
0AE7C:  MOVWF  FF6
0AE7E:  MOVLW  0E
0AE80:  MOVWF  FF7
0AE82:  MOVLW  00
0AE84:  MOVWF  FF8
0AE86:  MOVLW  0A
0AE88:  MOVWF  x51
0AE8A:  MOVLB  0
0AE8C:  CALL   5AAC
0AE90:  MOVFF  64B,651
0AE94:  MOVLW  01
0AE96:  MOVLB  6
0AE98:  MOVWF  x52
0AE9A:  MOVLB  0
0AE9C:  CALL   5B30
0AEA0:  MOVLW  3A
0AEA2:  BTFSS  F9E.4
0AEA4:  BRA    AEA2
0AEA6:  MOVWF  FAD
0AEA8:  MOVFF  64C,651
0AEAC:  MOVLW  01
0AEAE:  MOVLB  6
0AEB0:  MOVWF  x52
0AEB2:  MOVLB  0
0AEB4:  CALL   5B30
0AEB8:  MOVLW  22
0AEBA:  BTFSS  F9E.4
0AEBC:  BRA    AEBA
0AEBE:  MOVWF  FAD
....................          SendDataDisplay(); 
0AEC0:  CALL   427A
....................          printf("tsec.txt=\"%02u:%02u\"",CiclosPersonalizados[RX_Buffer[4]-1].Minutosec,CiclosPersonalizados[RX_Buffer[4]-1].Segundosec); 
0AEC4:  MOVLW  01
0AEC6:  SUBWF  34,W
0AEC8:  MULLW  08
0AECA:  MOVF   FF3,W
0AECC:  MOVLB  6
0AECE:  CLRF   x4C
0AED0:  MOVWF  x4B
0AED2:  MOVLW  03
0AED4:  ADDWF  x4B,W
0AED6:  MOVWF  01
0AED8:  MOVLW  00
0AEDA:  ADDWFC x4C,W
0AEDC:  MOVWF  03
0AEDE:  MOVF   01,W
0AEE0:  ADDLW  83
0AEE2:  MOVWF  FE9
0AEE4:  MOVLW  05
0AEE6:  ADDWFC 03,W
0AEE8:  MOVWF  FEA
0AEEA:  MOVFF  FEF,64B
0AEEE:  MOVLW  01
0AEF0:  SUBWF  34,W
0AEF2:  MULLW  08
0AEF4:  MOVF   FF3,W
0AEF6:  CLRF   x4D
0AEF8:  MOVWF  x4C
0AEFA:  MOVLW  04
0AEFC:  ADDWF  x4C,W
0AEFE:  MOVWF  01
0AF00:  MOVLW  00
0AF02:  ADDWFC x4D,W
0AF04:  MOVWF  03
0AF06:  MOVF   01,W
0AF08:  ADDLW  83
0AF0A:  MOVWF  FE9
0AF0C:  MOVLW  05
0AF0E:  ADDWFC 03,W
0AF10:  MOVWF  FEA
0AF12:  MOVFF  FEF,64C
0AF16:  MOVLW  DE
0AF18:  MOVWF  FF6
0AF1A:  MOVLW  0E
0AF1C:  MOVWF  FF7
0AF1E:  MOVLW  00
0AF20:  MOVWF  FF8
0AF22:  MOVLW  0A
0AF24:  MOVWF  x51
0AF26:  MOVLB  0
0AF28:  CALL   5AAC
0AF2C:  MOVFF  64B,651
0AF30:  MOVLW  01
0AF32:  MOVLB  6
0AF34:  MOVWF  x52
0AF36:  MOVLB  0
0AF38:  CALL   5B30
0AF3C:  MOVLW  3A
0AF3E:  BTFSS  F9E.4
0AF40:  BRA    AF3E
0AF42:  MOVWF  FAD
0AF44:  MOVFF  64C,651
0AF48:  MOVLW  01
0AF4A:  MOVLB  6
0AF4C:  MOVWF  x52
0AF4E:  MOVLB  0
0AF50:  CALL   5B30
0AF54:  MOVLW  22
0AF56:  BTFSS  F9E.4
0AF58:  BRA    AF56
0AF5A:  MOVWF  FAD
....................          SendDataDisplay(); 
0AF5C:  CALL   427A
....................          printf("pulsos.txt=\"%02u\"",CiclosPersonalizados[RX_Buffer[4]-1].PulsosVacio); 
0AF60:  MOVLW  01
0AF62:  SUBWF  34,W
0AF64:  MULLW  08
0AF66:  MOVF   FF3,W
0AF68:  MOVLB  6
0AF6A:  CLRF   x4C
0AF6C:  MOVWF  x4B
0AF6E:  MOVLW  05
0AF70:  ADDWF  x4B,W
0AF72:  MOVWF  01
0AF74:  MOVLW  00
0AF76:  ADDWFC x4C,W
0AF78:  MOVWF  03
0AF7A:  MOVF   01,W
0AF7C:  ADDLW  83
0AF7E:  MOVWF  FE9
0AF80:  MOVLW  05
0AF82:  ADDWFC 03,W
0AF84:  MOVWF  FEA
0AF86:  MOVFF  FEF,64B
0AF8A:  MOVLW  F4
0AF8C:  MOVWF  FF6
0AF8E:  MOVLW  0E
0AF90:  MOVWF  FF7
0AF92:  MOVLW  00
0AF94:  MOVWF  FF8
0AF96:  MOVLW  0C
0AF98:  MOVWF  x51
0AF9A:  MOVLB  0
0AF9C:  CALL   5AAC
0AFA0:  MOVFF  64B,651
0AFA4:  MOVLW  01
0AFA6:  MOVLB  6
0AFA8:  MOVWF  x52
0AFAA:  MOVLB  0
0AFAC:  CALL   5B30
0AFB0:  MOVLW  22
0AFB2:  BTFSS  F9E.4
0AFB4:  BRA    AFB2
0AFB6:  MOVWF  FAD
....................          SendDataDisplay(); 
0AFB8:  CALL   427A
....................          printf("vacio.txt=\"%03u kPa\"",CiclosPersonalizados[RX_Buffer[4]-1].NivelVacio); 
0AFBC:  MOVLW  01
0AFBE:  SUBWF  34,W
0AFC0:  MULLW  08
0AFC2:  MOVF   FF3,W
0AFC4:  MOVLB  6
0AFC6:  CLRF   x4C
0AFC8:  MOVWF  x4B
0AFCA:  MOVLW  06
0AFCC:  ADDWF  x4B,W
0AFCE:  MOVWF  01
0AFD0:  MOVLW  00
0AFD2:  ADDWFC x4C,W
0AFD4:  MOVWF  03
0AFD6:  MOVF   01,W
0AFD8:  ADDLW  83
0AFDA:  MOVWF  FE9
0AFDC:  MOVLW  05
0AFDE:  ADDWFC 03,W
0AFE0:  MOVWF  FEA
0AFE2:  MOVFF  FEF,64B
0AFE6:  MOVLW  06
0AFE8:  MOVWF  FF6
0AFEA:  MOVLW  0F
0AFEC:  MOVWF  FF7
0AFEE:  MOVLW  00
0AFF0:  MOVWF  FF8
0AFF2:  MOVLW  0B
0AFF4:  MOVWF  x51
0AFF6:  MOVLB  0
0AFF8:  CALL   5AAC
0AFFC:  MOVFF  64B,651
0B000:  MOVLW  03
0B002:  MOVLB  6
0B004:  MOVWF  x52
0B006:  MOVLB  0
0B008:  CALL   5B30
0B00C:  MOVLW  15
0B00E:  MOVWF  FF6
0B010:  MOVLW  0F
0B012:  MOVWF  FF7
0B014:  MOVLW  00
0B016:  MOVWF  FF8
0B018:  MOVLW  05
0B01A:  MOVLB  6
0B01C:  MOVWF  x51
0B01E:  MOVLB  0
0B020:  CALL   5AAC
....................          SendDataDisplay(); 
0B024:  CALL   427A
....................          //printf("desfogue.txt=\"%u\"",CiclosPersonalizados[RX_Buffer[4]-1].NivelDesfogue); 
....................          printf("desfogue.txt=\"N/A\""); 
0B028:  MOVLW  1C
0B02A:  MOVWF  FF6
0B02C:  MOVLW  0F
0B02E:  MOVWF  FF7
0B030:  MOVLW  00
0B032:  MOVWF  FF8
0B034:  CALL   4248
....................          SendDataDisplay(); 
0B038:  CALL   427A
....................          CicloLibre=RX_Buffer[4]; 
0B03C:  MOVFF  34,248
....................       }else if(CicloLibre==0x00){ 
0B040:  BRA    B3B8
0B042:  MOVLB  2
0B044:  MOVF   x48,F
0B046:  BNZ   B0DA
....................          printf("ciclo.txt=\"CICLO P--\""); 
0B048:  MOVLW  30
0B04A:  MOVWF  FF6
0B04C:  MOVLW  0F
0B04E:  MOVWF  FF7
0B050:  MOVLW  00
0B052:  MOVWF  FF8
0B054:  MOVLB  0
0B056:  CALL   4248
....................          SendDataDisplay();           
0B05A:  CALL   427A
....................          printf("temp.txt=\"--\""); 
0B05E:  MOVLW  46
0B060:  MOVWF  FF6
0B062:  MOVLW  0F
0B064:  MOVWF  FF7
0B066:  MOVLW  00
0B068:  MOVWF  FF8
0B06A:  CALL   4248
....................          SendDataDisplay(); 
0B06E:  CALL   427A
....................          printf("test.txt=\"--:--\""); 
0B072:  MOVLW  54
0B074:  MOVWF  FF6
0B076:  MOVLW  0F
0B078:  MOVWF  FF7
0B07A:  MOVLW  00
0B07C:  MOVWF  FF8
0B07E:  CALL   4248
....................          SendDataDisplay(); 
0B082:  CALL   427A
....................          printf("tsec.txt=\"--:--\""); 
0B086:  MOVLW  66
0B088:  MOVWF  FF6
0B08A:  MOVLW  0F
0B08C:  MOVWF  FF7
0B08E:  MOVLW  00
0B090:  MOVWF  FF8
0B092:  CALL   4248
....................          SendDataDisplay(); 
0B096:  CALL   427A
....................          printf("pulsos.txt=\"--\""); 
0B09A:  MOVLW  78
0B09C:  MOVWF  FF6
0B09E:  MOVLW  0F
0B0A0:  MOVWF  FF7
0B0A2:  MOVLW  00
0B0A4:  MOVWF  FF8
0B0A6:  CALL   4248
....................          SendDataDisplay(); 
0B0AA:  CALL   427A
....................          printf("vacio.txt=\"--\""); 
0B0AE:  MOVLW  88
0B0B0:  MOVWF  FF6
0B0B2:  MOVLW  0F
0B0B4:  MOVWF  FF7
0B0B6:  MOVLW  00
0B0B8:  MOVWF  FF8
0B0BA:  CALL   4248
....................          SendDataDisplay(); 
0B0BE:  CALL   427A
....................          printf("desfogue.txt=\"--\""); 
0B0C2:  MOVLW  98
0B0C4:  MOVWF  FF6
0B0C6:  MOVLW  0F
0B0C8:  MOVWF  FF7
0B0CA:  MOVLW  00
0B0CC:  MOVWF  FF8
0B0CE:  CALL   4248
....................          SendDataDisplay(); 
0B0D2:  CALL   427A
....................       }else if(CicloLibre>0 && CicloLibre<21 && estados[CicloLibre-1]){ 
0B0D6:  BRA    B3B8
0B0D8:  MOVLB  2
0B0DA:  MOVF   x48,F
0B0DC:  BTFSC  FD8.2
0B0DE:  BRA    B3BA
0B0E0:  MOVF   x48,W
0B0E2:  SUBLW  14
0B0E4:  BTFSS  FD8.0
0B0E6:  BRA    B3BA
0B0E8:  MOVLW  01
0B0EA:  SUBWF  x48,W
0B0EC:  MOVLB  6
0B0EE:  MOVWF  x4D
0B0F0:  MOVLW  02
0B0F2:  MOVWF  x4F
0B0F4:  MOVLW  B7
0B0F6:  MOVWF  x4E
0B0F8:  MOVLB  0
0B0FA:  CALL   23AE
0B0FE:  BTFSC  01.0
0B100:  BRA    B106
0B102:  MOVLB  2
0B104:  BRA    B3BA
....................          printf("ciclo.txt=\"CICLO P%02u\"",CicloLibre+0x0a); 
0B106:  MOVLW  0A
0B108:  MOVLB  2
0B10A:  ADDWF  x48,W
0B10C:  MOVLB  6
0B10E:  MOVWF  x4B
0B110:  MOVLW  AA
0B112:  MOVWF  FF6
0B114:  MOVLW  0F
0B116:  MOVWF  FF7
0B118:  MOVLW  00
0B11A:  MOVWF  FF8
0B11C:  MOVLW  12
0B11E:  MOVWF  x51
0B120:  MOVLB  0
0B122:  CALL   5AAC
0B126:  MOVFF  64B,651
0B12A:  MOVLW  01
0B12C:  MOVLB  6
0B12E:  MOVWF  x52
0B130:  MOVLB  0
0B132:  CALL   5B30
0B136:  MOVLW  22
0B138:  BTFSS  F9E.4
0B13A:  BRA    B138
0B13C:  MOVWF  FAD
....................          SendDataDisplay();           
0B13E:  CALL   427A
....................          printf("temp.txt=\"%u\"",CiclosPersonalizados[CicloLibre-1].Temperatura); 
0B142:  MOVLW  01
0B144:  MOVLB  2
0B146:  SUBWF  x48,W
0B148:  MULLW  08
0B14A:  MOVF   FF3,W
0B14C:  MOVLB  6
0B14E:  CLRF   x4C
0B150:  MOVWF  x4B
0B152:  MOVLW  83
0B154:  ADDWF  x4B,W
0B156:  MOVWF  FE9
0B158:  MOVLW  05
0B15A:  ADDWFC x4C,W
0B15C:  MOVWF  FEA
0B15E:  MOVFF  FEF,64B
0B162:  MOVLW  C2
0B164:  MOVWF  FF6
0B166:  MOVLW  0F
0B168:  MOVWF  FF7
0B16A:  MOVLW  00
0B16C:  MOVWF  FF8
0B16E:  MOVLW  0A
0B170:  MOVWF  x51
0B172:  MOVLB  0
0B174:  CALL   5AAC
0B178:  MOVFF  64B,651
0B17C:  MOVLW  1B
0B17E:  MOVLB  6
0B180:  MOVWF  x52
0B182:  MOVLB  0
0B184:  CALL   5B30
0B188:  MOVLW  22
0B18A:  BTFSS  F9E.4
0B18C:  BRA    B18A
0B18E:  MOVWF  FAD
....................          SendDataDisplay(); 
0B190:  CALL   427A
....................          printf("test.txt=\"%02u:%02u\"",CiclosPersonalizados[CicloLibre-1].Minutoest,CiclosPersonalizados[CicloLibre-1].Segundoest); 
0B194:  MOVLW  01
0B196:  MOVLB  2
0B198:  SUBWF  x48,W
0B19A:  MULLW  08
0B19C:  MOVF   FF3,W
0B19E:  MOVLB  6
0B1A0:  CLRF   x4C
0B1A2:  MOVWF  x4B
0B1A4:  MOVLW  01
0B1A6:  ADDWF  x4B,W
0B1A8:  MOVWF  01
0B1AA:  MOVLW  00
0B1AC:  ADDWFC x4C,W
0B1AE:  MOVWF  03
0B1B0:  MOVF   01,W
0B1B2:  ADDLW  83
0B1B4:  MOVWF  FE9
0B1B6:  MOVLW  05
0B1B8:  ADDWFC 03,W
0B1BA:  MOVWF  FEA
0B1BC:  MOVFF  FEF,64B
0B1C0:  MOVLW  01
0B1C2:  MOVLB  2
0B1C4:  SUBWF  x48,W
0B1C6:  MULLW  08
0B1C8:  MOVF   FF3,W
0B1CA:  MOVLB  6
0B1CC:  CLRF   x4D
0B1CE:  MOVWF  x4C
0B1D0:  MOVLW  02
0B1D2:  ADDWF  x4C,W
0B1D4:  MOVWF  01
0B1D6:  MOVLW  00
0B1D8:  ADDWFC x4D,W
0B1DA:  MOVWF  03
0B1DC:  MOVF   01,W
0B1DE:  ADDLW  83
0B1E0:  MOVWF  FE9
0B1E2:  MOVLW  05
0B1E4:  ADDWFC 03,W
0B1E6:  MOVWF  FEA
0B1E8:  MOVFF  FEF,64C
0B1EC:  MOVLW  D0
0B1EE:  MOVWF  FF6
0B1F0:  MOVLW  0F
0B1F2:  MOVWF  FF7
0B1F4:  MOVLW  00
0B1F6:  MOVWF  FF8
0B1F8:  MOVLW  0A
0B1FA:  MOVWF  x51
0B1FC:  MOVLB  0
0B1FE:  CALL   5AAC
0B202:  MOVFF  64B,651
0B206:  MOVLW  01
0B208:  MOVLB  6
0B20A:  MOVWF  x52
0B20C:  MOVLB  0
0B20E:  CALL   5B30
0B212:  MOVLW  3A
0B214:  BTFSS  F9E.4
0B216:  BRA    B214
0B218:  MOVWF  FAD
0B21A:  MOVFF  64C,651
0B21E:  MOVLW  01
0B220:  MOVLB  6
0B222:  MOVWF  x52
0B224:  MOVLB  0
0B226:  CALL   5B30
0B22A:  MOVLW  22
0B22C:  BTFSS  F9E.4
0B22E:  BRA    B22C
0B230:  MOVWF  FAD
....................          SendDataDisplay(); 
0B232:  CALL   427A
....................          printf("tsec.txt=\"%02u:%02u\"",CiclosPersonalizados[CicloLibre-1].Minutosec,CiclosPersonalizados[CicloLibre-1].Segundosec); 
0B236:  MOVLW  01
0B238:  MOVLB  2
0B23A:  SUBWF  x48,W
0B23C:  MULLW  08
0B23E:  MOVF   FF3,W
0B240:  MOVLB  6
0B242:  CLRF   x4C
0B244:  MOVWF  x4B
0B246:  MOVLW  03
0B248:  ADDWF  x4B,W
0B24A:  MOVWF  01
0B24C:  MOVLW  00
0B24E:  ADDWFC x4C,W
0B250:  MOVWF  03
0B252:  MOVF   01,W
0B254:  ADDLW  83
0B256:  MOVWF  FE9
0B258:  MOVLW  05
0B25A:  ADDWFC 03,W
0B25C:  MOVWF  FEA
0B25E:  MOVFF  FEF,64B
0B262:  MOVLW  01
0B264:  MOVLB  2
0B266:  SUBWF  x48,W
0B268:  MULLW  08
0B26A:  MOVF   FF3,W
0B26C:  MOVLB  6
0B26E:  CLRF   x4D
0B270:  MOVWF  x4C
0B272:  MOVLW  04
0B274:  ADDWF  x4C,W
0B276:  MOVWF  01
0B278:  MOVLW  00
0B27A:  ADDWFC x4D,W
0B27C:  MOVWF  03
0B27E:  MOVF   01,W
0B280:  ADDLW  83
0B282:  MOVWF  FE9
0B284:  MOVLW  05
0B286:  ADDWFC 03,W
0B288:  MOVWF  FEA
0B28A:  MOVFF  FEF,64C
0B28E:  MOVLW  E6
0B290:  MOVWF  FF6
0B292:  MOVLW  0F
0B294:  MOVWF  FF7
0B296:  MOVLW  00
0B298:  MOVWF  FF8
0B29A:  MOVLW  0A
0B29C:  MOVWF  x51
0B29E:  MOVLB  0
0B2A0:  CALL   5AAC
0B2A4:  MOVFF  64B,651
0B2A8:  MOVLW  01
0B2AA:  MOVLB  6
0B2AC:  MOVWF  x52
0B2AE:  MOVLB  0
0B2B0:  CALL   5B30
0B2B4:  MOVLW  3A
0B2B6:  BTFSS  F9E.4
0B2B8:  BRA    B2B6
0B2BA:  MOVWF  FAD
0B2BC:  MOVFF  64C,651
0B2C0:  MOVLW  01
0B2C2:  MOVLB  6
0B2C4:  MOVWF  x52
0B2C6:  MOVLB  0
0B2C8:  CALL   5B30
0B2CC:  MOVLW  22
0B2CE:  BTFSS  F9E.4
0B2D0:  BRA    B2CE
0B2D2:  MOVWF  FAD
....................          SendDataDisplay(); 
0B2D4:  CALL   427A
....................          printf("pulsos.txt=\"%02u\"",CiclosPersonalizados[CicloLibre-1].PulsosVacio); 
0B2D8:  MOVLW  01
0B2DA:  MOVLB  2
0B2DC:  SUBWF  x48,W
0B2DE:  MULLW  08
0B2E0:  MOVF   FF3,W
0B2E2:  MOVLB  6
0B2E4:  CLRF   x4C
0B2E6:  MOVWF  x4B
0B2E8:  MOVLW  05
0B2EA:  ADDWF  x4B,W
0B2EC:  MOVWF  01
0B2EE:  MOVLW  00
0B2F0:  ADDWFC x4C,W
0B2F2:  MOVWF  03
0B2F4:  MOVF   01,W
0B2F6:  ADDLW  83
0B2F8:  MOVWF  FE9
0B2FA:  MOVLW  05
0B2FC:  ADDWFC 03,W
0B2FE:  MOVWF  FEA
0B300:  MOVFF  FEF,64B
0B304:  MOVLW  FC
0B306:  MOVWF  FF6
0B308:  MOVLW  0F
0B30A:  MOVWF  FF7
0B30C:  MOVLW  00
0B30E:  MOVWF  FF8
0B310:  MOVLW  0C
0B312:  MOVWF  x51
0B314:  MOVLB  0
0B316:  CALL   5AAC
0B31A:  MOVFF  64B,651
0B31E:  MOVLW  01
0B320:  MOVLB  6
0B322:  MOVWF  x52
0B324:  MOVLB  0
0B326:  CALL   5B30
0B32A:  MOVLW  22
0B32C:  BTFSS  F9E.4
0B32E:  BRA    B32C
0B330:  MOVWF  FAD
....................          SendDataDisplay(); 
0B332:  CALL   427A
....................          printf("vacio.txt=\"%03u kPa\"",CiclosPersonalizados[CicloLibre-1].NivelVacio); 
0B336:  MOVLW  01
0B338:  MOVLB  2
0B33A:  SUBWF  x48,W
0B33C:  MULLW  08
0B33E:  MOVF   FF3,W
0B340:  MOVLB  6
0B342:  CLRF   x4C
0B344:  MOVWF  x4B
0B346:  MOVLW  06
0B348:  ADDWF  x4B,W
0B34A:  MOVWF  01
0B34C:  MOVLW  00
0B34E:  ADDWFC x4C,W
0B350:  MOVWF  03
0B352:  MOVF   01,W
0B354:  ADDLW  83
0B356:  MOVWF  FE9
0B358:  MOVLW  05
0B35A:  ADDWFC 03,W
0B35C:  MOVWF  FEA
0B35E:  MOVFF  FEF,64B
0B362:  MOVLW  0E
0B364:  MOVWF  FF6
0B366:  MOVLW  10
0B368:  MOVWF  FF7
0B36A:  MOVLW  00
0B36C:  MOVWF  FF8
0B36E:  MOVLW  0B
0B370:  MOVWF  x51
0B372:  MOVLB  0
0B374:  CALL   5AAC
0B378:  MOVFF  64B,651
0B37C:  MOVLW  03
0B37E:  MOVLB  6
0B380:  MOVWF  x52
0B382:  MOVLB  0
0B384:  CALL   5B30
0B388:  MOVLW  1D
0B38A:  MOVWF  FF6
0B38C:  MOVLW  10
0B38E:  MOVWF  FF7
0B390:  MOVLW  00
0B392:  MOVWF  FF8
0B394:  MOVLW  05
0B396:  MOVLB  6
0B398:  MOVWF  x51
0B39A:  MOVLB  0
0B39C:  CALL   5AAC
....................          SendDataDisplay(); 
0B3A0:  CALL   427A
....................          //printf("desfogue.txt=\"%u\"",CiclosPersonalizados[CicloLibre-1].NivelDesfogue); 
....................          printf("desfogue.txt=\"N/A\""); 
0B3A4:  MOVLW  24
0B3A6:  MOVWF  FF6
0B3A8:  MOVLW  10
0B3AA:  MOVWF  FF7
0B3AC:  MOVLW  00
0B3AE:  MOVWF  FF8
0B3B0:  CALL   4248
....................          SendDataDisplay(); 
0B3B4:  CALL   427A
0B3B8:  MOVLB  2
....................       } 
....................        
....................       if(RX_Buffer[4]==0xa0){//a0, Menu Principal 
0B3BA:  MOVF   34,W
0B3BC:  SUBLW  A0
0B3BE:  BNZ   B3D8
....................          printf("page Menu"); 
0B3C0:  MOVLW  38
0B3C2:  MOVWF  FF6
0B3C4:  MOVLW  10
0B3C6:  MOVWF  FF7
0B3C8:  MOVLW  00
0B3CA:  MOVWF  FF8
0B3CC:  MOVLB  0
0B3CE:  CALL   4248
....................          SendDataDisplay();      
0B3D2:  CALL   427A
0B3D6:  MOVLB  2
....................       } 
....................        
....................       if(RX_Buffer[4]==0xb0){//b0, Personalizados 
0B3D8:  MOVF   34,W
0B3DA:  SUBLW  B0
0B3DC:  BNZ   B3F6
....................          printf("page CicloPersona"); 
0B3DE:  MOVLW  42
0B3E0:  MOVWF  FF6
0B3E2:  MOVLW  10
0B3E4:  MOVWF  FF7
0B3E6:  MOVLW  00
0B3E8:  MOVWF  FF8
0B3EA:  MOVLB  0
0B3EC:  CALL   4248
....................          SendDataDisplay();      
0B3F0:  CALL   427A
0B3F4:  MOVLB  2
....................       } 
....................        
....................       if(RX_Buffer[4]==0xc0){//c0, Configuraciones 
0B3F6:  MOVF   34,W
0B3F8:  SUBLW  C0
0B3FA:  BNZ   B41E
....................          if(codigoUsuario==0 || codigoUsuario==9){   
0B3FC:  MOVF   x4B,F
0B3FE:  BZ    B406
0B400:  MOVF   x4B,W
0B402:  SUBLW  09
0B404:  BNZ   B41E
....................             printf("page Ajustes"); 
0B406:  MOVLW  54
0B408:  MOVWF  FF6
0B40A:  MOVLW  10
0B40C:  MOVWF  FF7
0B40E:  MOVLW  00
0B410:  MOVWF  FF8
0B412:  MOVLB  0
0B414:  CALL   4248
....................             SendDataDisplay();      
0B418:  CALL   427A
0B41C:  MOVLB  2
....................          } 
....................       } 
....................        
....................       if(RX_Buffer[4]==0x20 && CicloLibre>0){//20, Temperatura 
0B41E:  MOVF   34,W
0B420:  SUBLW  20
0B422:  BNZ   B46C
0B424:  MOVF   x48,F
0B426:  BZ    B46C
....................          if(codigoUsuario==0 || codigoUsuario==9){   
0B428:  MOVF   x4B,F
0B42A:  BZ    B432
0B42C:  MOVF   x4B,W
0B42E:  SUBLW  09
0B430:  BNZ   B46C
....................             printf("page Temperatura"); 
0B432:  MOVLW  62
0B434:  MOVWF  FF6
0B436:  MOVLW  10
0B438:  MOVWF  FF7
0B43A:  MOVLW  00
0B43C:  MOVWF  FF8
0B43E:  MOVLB  0
0B440:  CALL   4248
....................             SendDataDisplay();      
0B444:  CALL   427A
....................             Setpoint=CiclosPersonalizados[CicloLibre-1].Temperatura; 
0B448:  MOVLW  01
0B44A:  MOVLB  2
0B44C:  SUBWF  x48,W
0B44E:  MULLW  08
0B450:  MOVF   FF3,W
0B452:  MOVLB  6
0B454:  CLRF   x4C
0B456:  MOVWF  x4B
0B458:  MOVLW  83
0B45A:  ADDWF  x4B,W
0B45C:  MOVWF  FE9
0B45E:  MOVLW  05
0B460:  ADDWFC x4C,W
0B462:  MOVWF  FEA
0B464:  MOVFF  FEF,1FF
0B468:  MOVLB  1
0B46A:  MOVLB  2
....................          } 
....................       } 
....................        
....................       if(RX_Buffer[4]==0x30 && CicloLibre>0){//30, Test 
0B46C:  MOVF   34,W
0B46E:  SUBLW  30
0B470:  BTFSS  FD8.2
0B472:  BRA    B59A
0B474:  MOVF   x48,F
0B476:  BTFSC  FD8.2
0B478:  BRA    B59A
....................          if(codigoUsuario==0 || codigoUsuario==9){   
0B47A:  MOVF   x4B,F
0B47C:  BZ    B486
0B47E:  MOVF   x4B,W
0B480:  SUBLW  09
0B482:  BTFSS  FD8.2
0B484:  BRA    B59A
....................             printf("page TiempoEst"); 
0B486:  MOVLW  74
0B488:  MOVWF  FF6
0B48A:  MOVLW  10
0B48C:  MOVWF  FF7
0B48E:  MOVLW  00
0B490:  MOVWF  FF8
0B492:  MOVLB  0
0B494:  CALL   4248
....................             SendDataDisplay();      
0B498:  CALL   427A
....................             Testerilizacionp[3]=CiclosPersonalizados[CicloLibre-1].Minutoest/10; 
0B49C:  MOVLW  01
0B49E:  MOVLB  2
0B4A0:  SUBWF  x48,W
0B4A2:  MULLW  08
0B4A4:  MOVF   FF3,W
0B4A6:  MOVLB  6
0B4A8:  CLRF   x4C
0B4AA:  MOVWF  x4B
0B4AC:  MOVLW  01
0B4AE:  ADDWF  x4B,W
0B4B0:  MOVWF  01
0B4B2:  MOVLW  00
0B4B4:  ADDWFC x4C,W
0B4B6:  MOVWF  03
0B4B8:  MOVF   01,W
0B4BA:  ADDLW  83
0B4BC:  MOVWF  FE9
0B4BE:  MOVLW  05
0B4C0:  ADDWFC 03,W
0B4C2:  MOVWF  FEA
0B4C4:  MOVFF  FEF,653
0B4C8:  MOVLW  0A
0B4CA:  MOVWF  x54
0B4CC:  MOVLB  0
0B4CE:  CALL   5B04
0B4D2:  MOVFF  01,BC
....................             Testerilizacionp[2]=CiclosPersonalizados[CicloLibre-1].Minutoest-(Testerilizacionp[3]*10); 
0B4D6:  MOVLW  01
0B4D8:  MOVLB  2
0B4DA:  SUBWF  x48,W
0B4DC:  MULLW  08
0B4DE:  MOVF   FF3,W
0B4E0:  MOVLB  6
0B4E2:  CLRF   x4C
0B4E4:  MOVWF  x4B
0B4E6:  MOVLW  01
0B4E8:  ADDWF  x4B,W
0B4EA:  MOVWF  01
0B4EC:  MOVLW  00
0B4EE:  ADDWFC x4C,W
0B4F0:  MOVWF  03
0B4F2:  MOVF   01,W
0B4F4:  ADDLW  83
0B4F6:  MOVWF  FE9
0B4F8:  MOVLW  05
0B4FA:  ADDWFC 03,W
0B4FC:  MOVWF  FEA
0B4FE:  MOVFF  FEF,64B
0B502:  MOVFF  BC,64D
0B506:  MOVLW  0A
0B508:  MOVWF  x4E
0B50A:  MOVLB  0
0B50C:  CALL   3D3A
0B510:  MOVF   01,W
0B512:  MOVLB  6
0B514:  SUBWF  x4B,W
0B516:  MOVLB  0
0B518:  MOVWF  xBB
....................             Testerilizacionp[1]=CiclosPersonalizados[CicloLibre-1].Segundoest/10; 
0B51A:  MOVLW  01
0B51C:  MOVLB  2
0B51E:  SUBWF  x48,W
0B520:  MULLW  08
0B522:  MOVF   FF3,W
0B524:  MOVLB  6
0B526:  CLRF   x4C
0B528:  MOVWF  x4B
0B52A:  MOVLW  02
0B52C:  ADDWF  x4B,W
0B52E:  MOVWF  01
0B530:  MOVLW  00
0B532:  ADDWFC x4C,W
0B534:  MOVWF  03
0B536:  MOVF   01,W
0B538:  ADDLW  83
0B53A:  MOVWF  FE9
0B53C:  MOVLW  05
0B53E:  ADDWFC 03,W
0B540:  MOVWF  FEA
0B542:  MOVFF  FEF,653
0B546:  MOVLW  0A
0B548:  MOVWF  x54
0B54A:  MOVLB  0
0B54C:  CALL   5B04
0B550:  MOVFF  01,BA
....................             Testerilizacionp[0]=CiclosPersonalizados[CicloLibre-1].Segundoest-(Testerilizacionp[1]*10); 
0B554:  MOVLW  01
0B556:  MOVLB  2
0B558:  SUBWF  x48,W
0B55A:  MULLW  08
0B55C:  MOVF   FF3,W
0B55E:  MOVLB  6
0B560:  CLRF   x4C
0B562:  MOVWF  x4B
0B564:  MOVLW  02
0B566:  ADDWF  x4B,W
0B568:  MOVWF  01
0B56A:  MOVLW  00
0B56C:  ADDWFC x4C,W
0B56E:  MOVWF  03
0B570:  MOVF   01,W
0B572:  ADDLW  83
0B574:  MOVWF  FE9
0B576:  MOVLW  05
0B578:  ADDWFC 03,W
0B57A:  MOVWF  FEA
0B57C:  MOVFF  FEF,64B
0B580:  MOVFF  BA,64D
0B584:  MOVLW  0A
0B586:  MOVWF  x4E
0B588:  MOVLB  0
0B58A:  CALL   3D3A
0B58E:  MOVF   01,W
0B590:  MOVLB  6
0B592:  SUBWF  x4B,W
0B594:  MOVLB  0
0B596:  MOVWF  xB9
0B598:  MOVLB  2
....................          } 
....................       } 
....................        
....................       if(RX_Buffer[4]==0x40 && CicloLibre>0){//40, Tsec 
0B59A:  MOVF   34,W
0B59C:  SUBLW  40
0B59E:  BTFSS  FD8.2
0B5A0:  BRA    B6C8
0B5A2:  MOVF   x48,F
0B5A4:  BTFSC  FD8.2
0B5A6:  BRA    B6C8
....................          if(codigoUsuario==0 || codigoUsuario==9){   
0B5A8:  MOVF   x4B,F
0B5AA:  BZ    B5B4
0B5AC:  MOVF   x4B,W
0B5AE:  SUBLW  09
0B5B0:  BTFSS  FD8.2
0B5B2:  BRA    B6C8
....................             printf("page TiempoSec"); 
0B5B4:  MOVLW  84
0B5B6:  MOVWF  FF6
0B5B8:  MOVLW  10
0B5BA:  MOVWF  FF7
0B5BC:  MOVLW  00
0B5BE:  MOVWF  FF8
0B5C0:  MOVLB  0
0B5C2:  CALL   4248
....................             SendDataDisplay();    
0B5C6:  CALL   427A
....................             Tsecadop[3]=CiclosPersonalizados[CicloLibre-1].Minutosec/10; 
0B5CA:  MOVLW  01
0B5CC:  MOVLB  2
0B5CE:  SUBWF  x48,W
0B5D0:  MULLW  08
0B5D2:  MOVF   FF3,W
0B5D4:  MOVLB  6
0B5D6:  CLRF   x4C
0B5D8:  MOVWF  x4B
0B5DA:  MOVLW  03
0B5DC:  ADDWF  x4B,W
0B5DE:  MOVWF  01
0B5E0:  MOVLW  00
0B5E2:  ADDWFC x4C,W
0B5E4:  MOVWF  03
0B5E6:  MOVF   01,W
0B5E8:  ADDLW  83
0B5EA:  MOVWF  FE9
0B5EC:  MOVLW  05
0B5EE:  ADDWFC 03,W
0B5F0:  MOVWF  FEA
0B5F2:  MOVFF  FEF,653
0B5F6:  MOVLW  0A
0B5F8:  MOVWF  x54
0B5FA:  MOVLB  0
0B5FC:  CALL   5B04
0B600:  MOVFF  01,C4
....................             Tsecadop[2]=CiclosPersonalizados[CicloLibre-1].Minutosec-(Tsecadop[3]*10); 
0B604:  MOVLW  01
0B606:  MOVLB  2
0B608:  SUBWF  x48,W
0B60A:  MULLW  08
0B60C:  MOVF   FF3,W
0B60E:  MOVLB  6
0B610:  CLRF   x4C
0B612:  MOVWF  x4B
0B614:  MOVLW  03
0B616:  ADDWF  x4B,W
0B618:  MOVWF  01
0B61A:  MOVLW  00
0B61C:  ADDWFC x4C,W
0B61E:  MOVWF  03
0B620:  MOVF   01,W
0B622:  ADDLW  83
0B624:  MOVWF  FE9
0B626:  MOVLW  05
0B628:  ADDWFC 03,W
0B62A:  MOVWF  FEA
0B62C:  MOVFF  FEF,64B
0B630:  MOVFF  C4,64D
0B634:  MOVLW  0A
0B636:  MOVWF  x4E
0B638:  MOVLB  0
0B63A:  CALL   3D3A
0B63E:  MOVF   01,W
0B640:  MOVLB  6
0B642:  SUBWF  x4B,W
0B644:  MOVLB  0
0B646:  MOVWF  xC3
....................             Tsecadop[1]=CiclosPersonalizados[CicloLibre-1].Segundosec/10; 
0B648:  MOVLW  01
0B64A:  MOVLB  2
0B64C:  SUBWF  x48,W
0B64E:  MULLW  08
0B650:  MOVF   FF3,W
0B652:  MOVLB  6
0B654:  CLRF   x4C
0B656:  MOVWF  x4B
0B658:  MOVLW  04
0B65A:  ADDWF  x4B,W
0B65C:  MOVWF  01
0B65E:  MOVLW  00
0B660:  ADDWFC x4C,W
0B662:  MOVWF  03
0B664:  MOVF   01,W
0B666:  ADDLW  83
0B668:  MOVWF  FE9
0B66A:  MOVLW  05
0B66C:  ADDWFC 03,W
0B66E:  MOVWF  FEA
0B670:  MOVFF  FEF,653
0B674:  MOVLW  0A
0B676:  MOVWF  x54
0B678:  MOVLB  0
0B67A:  CALL   5B04
0B67E:  MOVFF  01,C2
....................             Tsecadop[0]=CiclosPersonalizados[CicloLibre-1].Segundosec-(Tsecadop[1]*10); 
0B682:  MOVLW  01
0B684:  MOVLB  2
0B686:  SUBWF  x48,W
0B688:  MULLW  08
0B68A:  MOVF   FF3,W
0B68C:  MOVLB  6
0B68E:  CLRF   x4C
0B690:  MOVWF  x4B
0B692:  MOVLW  04
0B694:  ADDWF  x4B,W
0B696:  MOVWF  01
0B698:  MOVLW  00
0B69A:  ADDWFC x4C,W
0B69C:  MOVWF  03
0B69E:  MOVF   01,W
0B6A0:  ADDLW  83
0B6A2:  MOVWF  FE9
0B6A4:  MOVLW  05
0B6A6:  ADDWFC 03,W
0B6A8:  MOVWF  FEA
0B6AA:  MOVFF  FEF,64B
0B6AE:  MOVFF  C2,64D
0B6B2:  MOVLW  0A
0B6B4:  MOVWF  x4E
0B6B6:  MOVLB  0
0B6B8:  CALL   3D3A
0B6BC:  MOVF   01,W
0B6BE:  MOVLB  6
0B6C0:  SUBWF  x4B,W
0B6C2:  MOVLB  0
0B6C4:  MOVWF  xC1
0B6C6:  MOVLB  2
....................          } 
....................       } 
....................        
....................       if(RX_Buffer[4]==0x50 && CicloLibre>0){//50, PulsosVacio 
0B6C8:  MOVF   34,W
0B6CA:  SUBLW  50
0B6CC:  BNZ   B720
0B6CE:  MOVF   x48,F
0B6D0:  BZ    B720
....................          if(codigoUsuario==0 || codigoUsuario==9){   
0B6D2:  MOVF   x4B,F
0B6D4:  BZ    B6DC
0B6D6:  MOVF   x4B,W
0B6D8:  SUBLW  09
0B6DA:  BNZ   B720
....................             printf("page Pulsos"); 
0B6DC:  MOVLW  94
0B6DE:  MOVWF  FF6
0B6E0:  MOVLW  10
0B6E2:  MOVWF  FF7
0B6E4:  MOVLW  00
0B6E6:  MOVWF  FF8
0B6E8:  MOVLB  0
0B6EA:  CALL   4248
....................             SendDataDisplay();      
0B6EE:  CALL   427A
....................             Pulsos=CiclosPersonalizados[CicloLibre-1].PulsosVacio; 
0B6F2:  MOVLW  01
0B6F4:  MOVLB  2
0B6F6:  SUBWF  x48,W
0B6F8:  MULLW  08
0B6FA:  MOVF   FF3,W
0B6FC:  MOVLB  6
0B6FE:  CLRF   x4C
0B700:  MOVWF  x4B
0B702:  MOVLW  05
0B704:  ADDWF  x4B,W
0B706:  MOVWF  01
0B708:  MOVLW  00
0B70A:  ADDWFC x4C,W
0B70C:  MOVWF  03
0B70E:  MOVF   01,W
0B710:  ADDLW  83
0B712:  MOVWF  FE9
0B714:  MOVLW  05
0B716:  ADDWFC 03,W
0B718:  MOVWF  FEA
0B71A:  MOVFF  FEF,249
0B71E:  MOVLB  2
....................          } 
....................       } 
....................        
....................       if(RX_Buffer[4]==0x60 && CicloLibre>0){//60, NivelVacio 
0B720:  MOVF   34,W
0B722:  SUBLW  60
0B724:  BNZ   B77E
0B726:  MOVF   x48,F
0B728:  BZ    B77E
....................          if(codigoUsuario==0 || codigoUsuario==9){   
0B72A:  MOVF   x4B,F
0B72C:  BZ    B734
0B72E:  MOVF   x4B,W
0B730:  SUBLW  09
0B732:  BNZ   B77E
....................             printf("page Nivel"); 
0B734:  MOVLW  A0
0B736:  MOVWF  FF6
0B738:  MOVLW  10
0B73A:  MOVWF  FF7
0B73C:  MOVLW  00
0B73E:  MOVWF  FF8
0B740:  MOVLB  0
0B742:  CALL   4248
....................             SendDataDisplay();      
0B746:  CALL   427A
....................             Nivel=CiclosPersonalizados[CicloLibre-1].NivelVacio; 
0B74A:  MOVLW  01
0B74C:  MOVLB  2
0B74E:  SUBWF  x48,W
0B750:  MULLW  08
0B752:  MOVF   FF3,W
0B754:  MOVLB  6
0B756:  CLRF   x4C
0B758:  MOVWF  x4B
0B75A:  MOVLW  06
0B75C:  ADDWF  x4B,W
0B75E:  MOVWF  01
0B760:  MOVLW  00
0B762:  ADDWFC x4C,W
0B764:  MOVWF  03
0B766:  MOVF   01,W
0B768:  ADDLW  83
0B76A:  MOVWF  FE9
0B76C:  MOVLW  05
0B76E:  ADDWFC 03,W
0B770:  MOVWF  FEA
0B772:  MOVF   FEF,W
0B774:  CLRF   03
0B776:  MOVLB  2
0B778:  MOVWF  x0D
0B77A:  MOVFF  03,20E
....................          } 
....................       } 
....................        
....................       if(RX_Buffer[4]==0x80 && CicloLibre>0){//80, NivelDesfogue 
0B77E:  MOVF   34,W
0B780:  SUBLW  80
0B782:  BNZ   B788
0B784:  MOVF   x48,F
0B786:  BZ    B788
....................          //printf("page NivelDes"); 
....................          //SendDataDisplay();      
....................          //NivelDes=CiclosPersonalizados[CicloLibre-1].NivelDesfogue; 
....................       } 
....................        
....................       if(RX_Buffer[4]==0x70 && CicloLibre>0){//70, Iniciar Ciclo 
0B788:  MOVF   34,W
0B78A:  SUBLW  70
0B78C:  BTFSS  FD8.2
0B78E:  BRA    BB06
0B790:  MOVF   x48,F
0B792:  BTFSC  FD8.2
0B794:  BRA    BB06
....................          printf("page Funcionamiento"); 
0B796:  MOVLW  AC
0B798:  MOVWF  FF6
0B79A:  MOVLW  10
0B79C:  MOVWF  FF7
0B79E:  MOVLW  00
0B7A0:  MOVWF  FF8
0B7A2:  MOVLB  0
0B7A4:  CALL   4248
....................          SendDataDisplay();        
0B7A8:  CALL   427A
....................          Libre=ON; 
0B7AC:  BSF    xA8.7
....................           
....................           
....................          ConfiguraCiclo(CiclosPersonalizados[CicloLibre-1].Segundoest-((CiclosPersonalizados[CicloLibre-1].Segundoest/10)*10), 
....................                         CiclosPersonalizados[CicloLibre-1].Segundoest/10, 
....................                         CiclosPersonalizados[CicloLibre-1].Minutoest-((CiclosPersonalizados[CicloLibre-1].Minutoest/10)*10), 
....................                         CiclosPersonalizados[CicloLibre-1].Minutoest/10, 
....................                         CiclosPersonalizados[CicloLibre-1].Segundosec-((CiclosPersonalizados[CicloLibre-1].Segundosec/10)*10), 
....................                         CiclosPersonalizados[CicloLibre-1].Segundosec/10, 
....................                         CiclosPersonalizados[CicloLibre-1].Minutosec-((CiclosPersonalizados[CicloLibre-1].Minutosec/10)*10), 
....................                         CiclosPersonalizados[CicloLibre-1].Minutosec/10,0,CicloLibre+10,CiclosPersonalizados[CicloLibre-1].Temperatura);             
0B7AE:  MOVLW  01
0B7B0:  MOVLB  2
0B7B2:  SUBWF  x48,W
0B7B4:  MULLW  08
0B7B6:  MOVF   FF3,W
0B7B8:  MOVLB  6
0B7BA:  CLRF   x4C
0B7BC:  MOVWF  x4B
0B7BE:  MOVLW  02
0B7C0:  ADDWF  x4B,W
0B7C2:  MOVWF  01
0B7C4:  MOVLW  00
0B7C6:  ADDWFC x4C,W
0B7C8:  MOVWF  03
0B7CA:  MOVF   01,W
0B7CC:  ADDLW  83
0B7CE:  MOVWF  FE9
0B7D0:  MOVLW  05
0B7D2:  ADDWFC 03,W
0B7D4:  MOVWF  FEA
0B7D6:  MOVFF  FEF,64B
0B7DA:  MOVLW  01
0B7DC:  MOVLB  2
0B7DE:  SUBWF  x48,W
0B7E0:  MULLW  08
0B7E2:  MOVF   FF3,W
0B7E4:  MOVLB  6
0B7E6:  CLRF   x4D
0B7E8:  MOVWF  x4C
0B7EA:  MOVLW  02
0B7EC:  ADDWF  x4C,W
0B7EE:  MOVWF  01
0B7F0:  MOVLW  00
0B7F2:  ADDWFC x4D,W
0B7F4:  MOVWF  03
0B7F6:  MOVF   01,W
0B7F8:  ADDLW  83
0B7FA:  MOVWF  FE9
0B7FC:  MOVLW  05
0B7FE:  ADDWFC 03,W
0B800:  MOVWF  FEA
0B802:  MOVFF  FEF,653
0B806:  MOVLW  0A
0B808:  MOVWF  x54
0B80A:  MOVLB  0
0B80C:  CALL   5B04
0B810:  MOVF   01,W
0B812:  MULLW  0A
0B814:  MOVF   FF3,W
0B816:  MOVLB  6
0B818:  SUBWF  x4B,F
0B81A:  MOVLW  01
0B81C:  MOVLB  2
0B81E:  SUBWF  x48,W
0B820:  MULLW  08
0B822:  MOVF   FF3,W
0B824:  MOVLB  6
0B826:  CLRF   x4D
0B828:  MOVWF  x4C
0B82A:  MOVLW  02
0B82C:  ADDWF  x4C,W
0B82E:  MOVWF  01
0B830:  MOVLW  00
0B832:  ADDWFC x4D,W
0B834:  MOVWF  03
0B836:  MOVF   01,W
0B838:  ADDLW  83
0B83A:  MOVWF  FE9
0B83C:  MOVLW  05
0B83E:  ADDWFC 03,W
0B840:  MOVWF  FEA
0B842:  MOVFF  FEF,653
0B846:  MOVLW  0A
0B848:  MOVWF  x54
0B84A:  MOVLB  0
0B84C:  CALL   5B04
0B850:  MOVFF  01,64C
0B854:  MOVLW  01
0B856:  MOVLB  2
0B858:  SUBWF  x48,W
0B85A:  MULLW  08
0B85C:  MOVF   FF3,W
0B85E:  MOVLB  6
0B860:  CLRF   x4E
0B862:  MOVWF  x4D
0B864:  MOVLW  01
0B866:  ADDWF  x4D,W
0B868:  MOVWF  01
0B86A:  MOVLW  00
0B86C:  ADDWFC x4E,W
0B86E:  MOVWF  03
0B870:  MOVF   01,W
0B872:  ADDLW  83
0B874:  MOVWF  FE9
0B876:  MOVLW  05
0B878:  ADDWFC 03,W
0B87A:  MOVWF  FEA
0B87C:  MOVFF  FEF,64D
0B880:  MOVLW  01
0B882:  MOVLB  2
0B884:  SUBWF  x48,W
0B886:  MULLW  08
0B888:  MOVF   FF3,W
0B88A:  MOVLB  6
0B88C:  CLRF   x4F
0B88E:  MOVWF  x4E
0B890:  MOVLW  01
0B892:  ADDWF  x4E,W
0B894:  MOVWF  01
0B896:  MOVLW  00
0B898:  ADDWFC x4F,W
0B89A:  MOVWF  03
0B89C:  MOVF   01,W
0B89E:  ADDLW  83
0B8A0:  MOVWF  FE9
0B8A2:  MOVLW  05
0B8A4:  ADDWFC 03,W
0B8A6:  MOVWF  FEA
0B8A8:  MOVFF  FEF,653
0B8AC:  MOVLW  0A
0B8AE:  MOVWF  x54
0B8B0:  MOVLB  0
0B8B2:  CALL   5B04
0B8B6:  MOVF   01,W
0B8B8:  MULLW  0A
0B8BA:  MOVF   FF3,W
0B8BC:  MOVLB  6
0B8BE:  SUBWF  x4D,F
0B8C0:  MOVLW  01
0B8C2:  MOVLB  2
0B8C4:  SUBWF  x48,W
0B8C6:  MULLW  08
0B8C8:  MOVF   FF3,W
0B8CA:  MOVLB  6
0B8CC:  CLRF   x4F
0B8CE:  MOVWF  x4E
0B8D0:  MOVLW  01
0B8D2:  ADDWF  x4E,W
0B8D4:  MOVWF  01
0B8D6:  MOVLW  00
0B8D8:  ADDWFC x4F,W
0B8DA:  MOVWF  03
0B8DC:  MOVF   01,W
0B8DE:  ADDLW  83
0B8E0:  MOVWF  FE9
0B8E2:  MOVLW  05
0B8E4:  ADDWFC 03,W
0B8E6:  MOVWF  FEA
0B8E8:  MOVFF  FEF,653
0B8EC:  MOVLW  0A
0B8EE:  MOVWF  x54
0B8F0:  MOVLB  0
0B8F2:  CALL   5B04
0B8F6:  MOVFF  01,64E
0B8FA:  MOVLW  01
0B8FC:  MOVLB  2
0B8FE:  SUBWF  x48,W
0B900:  MULLW  08
0B902:  MOVF   FF3,W
0B904:  MOVLB  6
0B906:  CLRF   x50
0B908:  MOVWF  x4F
0B90A:  MOVLW  04
0B90C:  ADDWF  x4F,W
0B90E:  MOVWF  01
0B910:  MOVLW  00
0B912:  ADDWFC x50,W
0B914:  MOVWF  03
0B916:  MOVF   01,W
0B918:  ADDLW  83
0B91A:  MOVWF  FE9
0B91C:  MOVLW  05
0B91E:  ADDWFC 03,W
0B920:  MOVWF  FEA
0B922:  MOVFF  FEF,64F
0B926:  MOVLW  01
0B928:  MOVLB  2
0B92A:  SUBWF  x48,W
0B92C:  MULLW  08
0B92E:  MOVF   FF3,W
0B930:  MOVLB  6
0B932:  CLRF   x51
0B934:  MOVWF  x50
0B936:  MOVLW  04
0B938:  ADDWF  x50,W
0B93A:  MOVWF  01
0B93C:  MOVLW  00
0B93E:  ADDWFC x51,W
0B940:  MOVWF  03
0B942:  MOVF   01,W
0B944:  ADDLW  83
0B946:  MOVWF  FE9
0B948:  MOVLW  05
0B94A:  ADDWFC 03,W
0B94C:  MOVWF  FEA
0B94E:  MOVFF  FEF,653
0B952:  MOVLW  0A
0B954:  MOVWF  x54
0B956:  MOVLB  0
0B958:  CALL   5B04
0B95C:  MOVF   01,W
0B95E:  MULLW  0A
0B960:  MOVF   FF3,W
0B962:  MOVLB  6
0B964:  SUBWF  x4F,F
0B966:  MOVLW  01
0B968:  MOVLB  2
0B96A:  SUBWF  x48,W
0B96C:  MULLW  08
0B96E:  MOVF   FF3,W
0B970:  MOVLB  6
0B972:  CLRF   x51
0B974:  MOVWF  x50
0B976:  MOVLW  04
0B978:  ADDWF  x50,W
0B97A:  MOVWF  01
0B97C:  MOVLW  00
0B97E:  ADDWFC x51,W
0B980:  MOVWF  03
0B982:  MOVF   01,W
0B984:  ADDLW  83
0B986:  MOVWF  FE9
0B988:  MOVLW  05
0B98A:  ADDWFC 03,W
0B98C:  MOVWF  FEA
0B98E:  MOVFF  FEF,653
0B992:  MOVLW  0A
0B994:  MOVWF  x54
0B996:  MOVLB  0
0B998:  CALL   5B04
0B99C:  MOVFF  01,650
0B9A0:  MOVLW  01
0B9A2:  MOVLB  2
0B9A4:  SUBWF  x48,W
0B9A6:  MULLW  08
0B9A8:  MOVF   FF3,W
0B9AA:  MOVLB  6
0B9AC:  CLRF   x52
0B9AE:  MOVWF  x51
0B9B0:  MOVLW  03
0B9B2:  ADDWF  x51,W
0B9B4:  MOVWF  01
0B9B6:  MOVLW  00
0B9B8:  ADDWFC x52,W
0B9BA:  MOVWF  03
0B9BC:  MOVF   01,W
0B9BE:  ADDLW  83
0B9C0:  MOVWF  FE9
0B9C2:  MOVLW  05
0B9C4:  ADDWFC 03,W
0B9C6:  MOVWF  FEA
0B9C8:  MOVFF  FEF,651
0B9CC:  MOVLW  01
0B9CE:  MOVLB  2
0B9D0:  SUBWF  x48,W
0B9D2:  MULLW  08
0B9D4:  MOVF   FF3,W
0B9D6:  MOVLB  6
0B9D8:  CLRF   x53
0B9DA:  MOVWF  x52
0B9DC:  MOVLW  03
0B9DE:  ADDWF  x52,W
0B9E0:  MOVWF  01
0B9E2:  MOVLW  00
0B9E4:  ADDWFC x53,W
0B9E6:  MOVWF  03
0B9E8:  MOVF   01,W
0B9EA:  ADDLW  83
0B9EC:  MOVWF  FE9
0B9EE:  MOVLW  05
0B9F0:  ADDWFC 03,W
0B9F2:  MOVWF  FEA
0B9F4:  MOVFF  FEF,653
0B9F8:  MOVLW  0A
0B9FA:  MOVWF  x54
0B9FC:  MOVLB  0
0B9FE:  CALL   5B04
0BA02:  MOVF   01,W
0BA04:  MULLW  0A
0BA06:  MOVF   FF3,W
0BA08:  MOVLB  6
0BA0A:  SUBWF  x51,F
0BA0C:  MOVLW  01
0BA0E:  MOVLB  2
0BA10:  SUBWF  x48,W
0BA12:  MULLW  08
0BA14:  MOVF   FF3,W
0BA16:  MOVLB  6
0BA18:  CLRF   x53
0BA1A:  MOVWF  x52
0BA1C:  MOVLW  03
0BA1E:  ADDWF  x52,W
0BA20:  MOVWF  01
0BA22:  MOVLW  00
0BA24:  ADDWFC x53,W
0BA26:  MOVWF  03
0BA28:  MOVF   01,W
0BA2A:  ADDLW  83
0BA2C:  MOVWF  FE9
0BA2E:  MOVLW  05
0BA30:  ADDWFC 03,W
0BA32:  MOVWF  FEA
0BA34:  MOVFF  FEF,653
0BA38:  MOVLW  0A
0BA3A:  MOVWF  x54
0BA3C:  MOVLB  0
0BA3E:  CALL   5B04
0BA42:  MOVFF  01,652
0BA46:  MOVLW  0A
0BA48:  MOVLB  2
0BA4A:  ADDWF  x48,W
0BA4C:  MOVLB  6
0BA4E:  MOVWF  x53
0BA50:  MOVLW  01
0BA52:  MOVLB  2
0BA54:  SUBWF  x48,W
0BA56:  MULLW  08
0BA58:  MOVF   FF3,W
0BA5A:  MOVLB  6
0BA5C:  CLRF   x55
0BA5E:  MOVWF  x54
0BA60:  MOVLW  83
0BA62:  ADDWF  x54,W
0BA64:  MOVWF  FE9
0BA66:  MOVLW  05
0BA68:  ADDWFC x55,W
0BA6A:  MOVWF  FEA
0BA6C:  MOVFF  FEF,654
0BA70:  MOVFF  64B,655
0BA74:  MOVFF  64C,656
0BA78:  MOVFF  64D,657
0BA7C:  MOVFF  64E,658
0BA80:  MOVFF  64F,659
0BA84:  MOVFF  650,65A
0BA88:  MOVFF  651,65B
0BA8C:  MOVFF  01,65C
0BA90:  CLRF   x5D
0BA92:  MOVFF  653,65E
0BA96:  MOVFF  654,65F
0BA9A:  MOVLB  0
0BA9C:  CALL   6250
....................          NivelVacio=CiclosPersonalizados[CicloLibre-1].NivelVacio; 
0BAA0:  MOVLW  01
0BAA2:  MOVLB  2
0BAA4:  SUBWF  x48,W
0BAA6:  MULLW  08
0BAA8:  MOVF   FF3,W
0BAAA:  MOVLB  6
0BAAC:  CLRF   x4C
0BAAE:  MOVWF  x4B
0BAB0:  MOVLW  06
0BAB2:  ADDWF  x4B,W
0BAB4:  MOVWF  01
0BAB6:  MOVLW  00
0BAB8:  ADDWFC x4C,W
0BABA:  MOVWF  03
0BABC:  MOVF   01,W
0BABE:  ADDLW  83
0BAC0:  MOVWF  FE9
0BAC2:  MOVLW  05
0BAC4:  ADDWFC 03,W
0BAC6:  MOVWF  FEA
0BAC8:  MOVFF  FEF,23B
0BACC:  MOVLB  2
....................          CantidadPulsos=CiclosPersonalizados[CicloLibre-1].PulsosVacio; 
0BACE:  MOVLW  01
0BAD0:  SUBWF  x48,W
0BAD2:  MULLW  08
0BAD4:  MOVF   FF3,W
0BAD6:  MOVLB  6
0BAD8:  CLRF   x4C
0BADA:  MOVWF  x4B
0BADC:  MOVLW  05
0BADE:  ADDWF  x4B,W
0BAE0:  MOVWF  01
0BAE2:  MOVLW  00
0BAE4:  ADDWFC x4C,W
0BAE6:  MOVWF  03
0BAE8:  MOVF   01,W
0BAEA:  ADDLW  83
0BAEC:  MOVWF  FE9
0BAEE:  MOVLW  05
0BAF0:  ADDWFC 03,W
0BAF2:  MOVWF  FEA
0BAF4:  MOVF   FEF,W
0BAF6:  CLRF   03
0BAF8:  MOVLB  1
0BAFA:  MOVWF  xF7
0BAFC:  MOVFF  03,1F8
....................          Fugas=OFF; 
0BB00:  MOVLB  0
0BB02:  BCF    xA9.1
0BB04:  MOVLB  2
0BB06:  MOVLB  1
....................       } 
....................    } 
.................... //_--------------------------------------------------------------------------------------------------------------------------------------------------------        
....................  
.................... //_--------------------------------------------------------------------------------------------------------------------------------------------------------       
....................    if(Menu==9){//Menu de Pulsos de Vacio 
0BB08:  MOVF   xF0,W
0BB0A:  SUBLW  09
0BB0C:  BTFSS  FD8.2
0BB0E:  BRA    BCDE
....................       printf("fecha.txt=\"Fecha:%02u/%02u/20%02u    Hora: %02u:%02u:%02u\"",Dia,Mes,Year,Hora,Minuto,Segundo); 
0BB10:  MOVLW  C0
0BB12:  MOVWF  FF6
0BB14:  MOVLW  10
0BB16:  MOVWF  FF7
0BB18:  MOVLW  00
0BB1A:  MOVWF  FF8
0BB1C:  MOVLW  11
0BB1E:  MOVLB  6
0BB20:  MOVWF  x51
0BB22:  MOVLB  0
0BB24:  CALL   5AAC
0BB28:  MOVFF  236,651
0BB2C:  MOVLW  01
0BB2E:  MOVLB  6
0BB30:  MOVWF  x52
0BB32:  MOVLB  0
0BB34:  CALL   5B30
0BB38:  MOVLW  2F
0BB3A:  BTFSS  F9E.4
0BB3C:  BRA    BB3A
0BB3E:  MOVWF  FAD
0BB40:  MOVFF  235,651
0BB44:  MOVLW  01
0BB46:  MOVLB  6
0BB48:  MOVWF  x52
0BB4A:  MOVLB  0
0BB4C:  CALL   5B30
0BB50:  MOVLW  2F
0BB52:  BTFSS  F9E.4
0BB54:  BRA    BB52
0BB56:  MOVWF  FAD
0BB58:  MOVLW  32
0BB5A:  BTFSS  F9E.4
0BB5C:  BRA    BB5A
0BB5E:  MOVWF  FAD
0BB60:  MOVLW  30
0BB62:  BTFSS  F9E.4
0BB64:  BRA    BB62
0BB66:  MOVWF  FAD
0BB68:  MOVFF  234,651
0BB6C:  MOVLW  01
0BB6E:  MOVLB  6
0BB70:  MOVWF  x52
0BB72:  MOVLB  0
0BB74:  CALL   5B30
0BB78:  MOVLW  E1
0BB7A:  MOVWF  FF6
0BB7C:  MOVLW  10
0BB7E:  MOVWF  FF7
0BB80:  MOVLW  00
0BB82:  MOVWF  FF8
0BB84:  MOVLW  0A
0BB86:  MOVLB  6
0BB88:  MOVWF  x51
0BB8A:  MOVLB  0
0BB8C:  CALL   5AAC
0BB90:  MOVFF  237,651
0BB94:  MOVLW  01
0BB96:  MOVLB  6
0BB98:  MOVWF  x52
0BB9A:  MOVLB  0
0BB9C:  CALL   5B30
0BBA0:  MOVLW  3A
0BBA2:  BTFSS  F9E.4
0BBA4:  BRA    BBA2
0BBA6:  MOVWF  FAD
0BBA8:  MOVFF  238,651
0BBAC:  MOVLW  01
0BBAE:  MOVLB  6
0BBB0:  MOVWF  x52
0BBB2:  MOVLB  0
0BBB4:  CALL   5B30
0BBB8:  MOVLW  3A
0BBBA:  BTFSS  F9E.4
0BBBC:  BRA    BBBA
0BBBE:  MOVWF  FAD
0BBC0:  MOVFF  239,651
0BBC4:  MOVLW  01
0BBC6:  MOVLB  6
0BBC8:  MOVWF  x52
0BBCA:  MOVLB  0
0BBCC:  CALL   5B30
0BBD0:  MOVLW  22
0BBD2:  BTFSS  F9E.4
0BBD4:  BRA    BBD2
0BBD6:  MOVWF  FAD
....................       SendDataDisplay(); 
0BBD8:  CALL   427A
....................          if(Pulsos<4) 
0BBDC:  MOVLB  2
0BBDE:  MOVF   x49,W
0BBE0:  SUBLW  03
0BBE2:  BNC   BBE8
....................             Pulsos=15; 
0BBE4:  MOVLW  0F
0BBE6:  MOVWF  x49
....................          if(Pulsos>15) 
0BBE8:  MOVF   x49,W
0BBEA:  SUBLW  0F
0BBEC:  BC    BBF2
....................             Pulsos=4; 
0BBEE:  MOVLW  04
0BBF0:  MOVWF  x49
....................           
....................          if(RX_Buffer[4]==0x11){//Selecciono Regresar 
0BBF2:  MOVF   34,W
0BBF4:  SUBLW  11
0BBF6:  BNZ   BC90
....................             Segundos=OFF; 
0BBF8:  MOVLB  0
0BBFA:  BCF    xA7.3
....................             Minutos=OFF;             
0BBFC:  BCF    xA7.2
....................             printf("page CicloPersona"); 
0BBFE:  MOVLW  FC
0BC00:  MOVWF  FF6
0BC02:  MOVLW  10
0BC04:  MOVWF  FF7
0BC06:  MOVLW  00
0BC08:  MOVWF  FF8
0BC0A:  CALL   4248
....................             SendDataDisplay();   
0BC0E:  CALL   427A
....................             if(!GuardaEEPROM){     
0BC12:  BTFSC  xA7.4
0BC14:  BRA    BC8E
....................                CiclosPersonalizados[CicloLibre-1].PulsosVacio=Pulsos; 
0BC16:  MOVLW  01
0BC18:  MOVLB  2
0BC1A:  SUBWF  x48,W
0BC1C:  MULLW  08
0BC1E:  MOVF   FF3,W
0BC20:  MOVLB  6
0BC22:  CLRF   x4C
0BC24:  MOVWF  x4B
0BC26:  MOVLW  05
0BC28:  ADDWF  x4B,W
0BC2A:  MOVWF  01
0BC2C:  MOVLW  00
0BC2E:  ADDWFC x4C,W
0BC30:  MOVWF  03
0BC32:  MOVF   01,W
0BC34:  ADDLW  83
0BC36:  MOVWF  FE9
0BC38:  MOVLW  05
0BC3A:  ADDWFC 03,W
0BC3C:  MOVWF  FEA
0BC3E:  MOVFF  249,FEF
....................                write_eeprom(105+((CicloLibre-1)*8),Pulsos); 
0BC42:  MOVLW  01
0BC44:  MOVLB  2
0BC46:  SUBWF  x48,W
0BC48:  MULLW  08
0BC4A:  MOVF   FF3,W
0BC4C:  ADDLW  69
0BC4E:  MOVLB  6
0BC50:  MOVWF  x4B
0BC52:  CLRF   FAA
0BC54:  MOVFF  64B,FA9
0BC58:  MOVFF  249,FA8
0BC5C:  BCF    FA6.6
0BC5E:  BCF    FA6.7
0BC60:  BSF    FA6.2
0BC62:  MOVF   FF2,W
0BC64:  MOVWF  00
0BC66:  BCF    FF2.6
0BC68:  BCF    FF2.7
0BC6A:  MOVLB  F
0BC6C:  MOVLW  55
0BC6E:  MOVWF  FA7
0BC70:  MOVLW  AA
0BC72:  MOVWF  FA7
0BC74:  BSF    FA6.1
0BC76:  BTFSC  FA6.1
0BC78:  BRA    BC76
0BC7A:  BCF    FA6.2
0BC7C:  MOVF   00,W
0BC7E:  IORWF  FF2,F
....................                delay_ms(20);             
0BC80:  MOVLW  14
0BC82:  MOVLB  6
0BC84:  MOVWF  x64
0BC86:  MOVLB  0
0BC88:  CALL   1F6E
....................                //NivelSeleccionado=9990*Nivel; 
....................                GuardaEEPROM=ON; 
0BC8C:  BSF    xA7.4
0BC8E:  MOVLB  2
....................             } 
....................          } 
....................           
....................          if(RX_Buffer[4]==0x0d){//Tecla Arriba Oprimida 
0BC90:  MOVF   34,W
0BC92:  SUBLW  0D
0BC94:  BNZ   BC9C
....................             Pulsos++; 
0BC96:  INCF   x49,F
....................             RX_Buffer[4]=0x00;             
0BC98:  CLRF   34
....................             RX_Buffer2[4]=0x00;             
0BC9A:  CLRF   3F
....................             //BorraBuffer(); 
....................          } 
....................           
....................          if(RX_Buffer[4]==0x0c){//Tecla Abajo Oprimida 
0BC9C:  MOVF   34,W
0BC9E:  SUBLW  0C
0BCA0:  BNZ   BCA8
....................             Pulsos--; 
0BCA2:  DECF   x49,F
....................             RX_Buffer[4]=0x00; 
0BCA4:  CLRF   34
....................             RX_Buffer2[4]=0x00;             
0BCA6:  CLRF   3F
....................             //BorraBuffer(); 
....................          } 
....................           
....................       printf("tnivel.txt=\"%u\"",Pulsos); 
0BCA8:  MOVLW  0E
0BCAA:  MOVWF  FF6
0BCAC:  MOVLW  11
0BCAE:  MOVWF  FF7
0BCB0:  MOVLW  00
0BCB2:  MOVWF  FF8
0BCB4:  MOVLW  0C
0BCB6:  MOVLB  6
0BCB8:  MOVWF  x51
0BCBA:  MOVLB  0
0BCBC:  CALL   5AAC
0BCC0:  MOVFF  249,651
0BCC4:  MOVLW  1B
0BCC6:  MOVLB  6
0BCC8:  MOVWF  x52
0BCCA:  MOVLB  0
0BCCC:  CALL   5B30
0BCD0:  MOVLW  22
0BCD2:  BTFSS  F9E.4
0BCD4:  BRA    BCD2
0BCD6:  MOVWF  FAD
....................       SendDataDisplay(); 
0BCD8:  CALL   427A
0BCDC:  MOVLB  1
....................    } 
.................... //_--------------------------------------------------------------------------------------------------------------------------------------------------------       
....................  
.................... //_--------------------------------------------------------------------------------------------------------------------------------------------------------       
....................    if(Menu==10){//Menu de Usuarios 
0BCDE:  MOVF   xF0,W
0BCE0:  SUBLW  0A
0BCE2:  BTFSS  FD8.2
0BCE4:  BRA    C180
....................       printf("fecha.txt=\"Fecha:%02u/%02u/20%02u    Hora: %02u:%02u:%02u\"",Dia,Mes,Year,Hora,Minuto,Segundo); 
0BCE6:  MOVLW  1E
0BCE8:  MOVWF  FF6
0BCEA:  MOVLW  11
0BCEC:  MOVWF  FF7
0BCEE:  MOVLW  00
0BCF0:  MOVWF  FF8
0BCF2:  MOVLW  11
0BCF4:  MOVLB  6
0BCF6:  MOVWF  x51
0BCF8:  MOVLB  0
0BCFA:  CALL   5AAC
0BCFE:  MOVFF  236,651
0BD02:  MOVLW  01
0BD04:  MOVLB  6
0BD06:  MOVWF  x52
0BD08:  MOVLB  0
0BD0A:  CALL   5B30
0BD0E:  MOVLW  2F
0BD10:  BTFSS  F9E.4
0BD12:  BRA    BD10
0BD14:  MOVWF  FAD
0BD16:  MOVFF  235,651
0BD1A:  MOVLW  01
0BD1C:  MOVLB  6
0BD1E:  MOVWF  x52
0BD20:  MOVLB  0
0BD22:  CALL   5B30
0BD26:  MOVLW  2F
0BD28:  BTFSS  F9E.4
0BD2A:  BRA    BD28
0BD2C:  MOVWF  FAD
0BD2E:  MOVLW  32
0BD30:  BTFSS  F9E.4
0BD32:  BRA    BD30
0BD34:  MOVWF  FAD
0BD36:  MOVLW  30
0BD38:  BTFSS  F9E.4
0BD3A:  BRA    BD38
0BD3C:  MOVWF  FAD
0BD3E:  MOVFF  234,651
0BD42:  MOVLW  01
0BD44:  MOVLB  6
0BD46:  MOVWF  x52
0BD48:  MOVLB  0
0BD4A:  CALL   5B30
0BD4E:  MOVLW  3F
0BD50:  MOVWF  FF6
0BD52:  MOVLW  11
0BD54:  MOVWF  FF7
0BD56:  MOVLW  00
0BD58:  MOVWF  FF8
0BD5A:  MOVLW  0A
0BD5C:  MOVLB  6
0BD5E:  MOVWF  x51
0BD60:  MOVLB  0
0BD62:  CALL   5AAC
0BD66:  MOVFF  237,651
0BD6A:  MOVLW  01
0BD6C:  MOVLB  6
0BD6E:  MOVWF  x52
0BD70:  MOVLB  0
0BD72:  CALL   5B30
0BD76:  MOVLW  3A
0BD78:  BTFSS  F9E.4
0BD7A:  BRA    BD78
0BD7C:  MOVWF  FAD
0BD7E:  MOVFF  238,651
0BD82:  MOVLW  01
0BD84:  MOVLB  6
0BD86:  MOVWF  x52
0BD88:  MOVLB  0
0BD8A:  CALL   5B30
0BD8E:  MOVLW  3A
0BD90:  BTFSS  F9E.4
0BD92:  BRA    BD90
0BD94:  MOVWF  FAD
0BD96:  MOVFF  239,651
0BD9A:  MOVLW  01
0BD9C:  MOVLB  6
0BD9E:  MOVWF  x52
0BDA0:  MOVLB  0
0BDA2:  CALL   5B30
0BDA6:  MOVLW  22
0BDA8:  BTFSS  F9E.4
0BDAA:  BRA    BDA8
0BDAC:  MOVWF  FAD
....................       SendDataDisplay(); 
0BDAE:  CALL   427A
....................       GuardaEEPROM=OFF; 
0BDB2:  BCF    xA7.4
....................       if(ingreso) 
0BDB4:  BTFSS  xA9.0
0BDB6:  BRA    BDC0
....................          TipoClave=2; 
0BDB8:  MOVLW  02
0BDBA:  MOVLB  1
0BDBC:  MOVWF  x95
....................       else 
0BDBE:  BRA    BDC4
....................          TipoClave=0; 
0BDC0:  MOVLB  1
0BDC2:  CLRF   x95
....................        
....................       if(RX_Buffer[4]==0x01){//01, Admin 
0BDC4:  DECFSZ 34,W
0BDC6:  BRA    BE1A
....................          printf("page Clave"); 
0BDC8:  MOVLW  5A
0BDCA:  MOVWF  FF6
0BDCC:  MOVLW  11
0BDCE:  MOVWF  FF7
0BDD0:  MOVLW  00
0BDD2:  MOVWF  FF8
0BDD4:  MOVLB  0
0BDD6:  CALL   4248
....................          SendDataDisplay();        
0BDDA:  CALL   427A
....................          if(!ingreso){ 
0BDDE:  BTFSC  xA9.0
0BDE0:  BRA    BE12
....................             usuario="Admin"; 
0BDE2:  MOVLW  02
0BDE4:  MOVWF  FEA
0BDE6:  MOVLW  51
0BDE8:  MOVWF  FE9
0BDEA:  MOVFF  FF2,64B
0BDEE:  BCF    FF2.6
0BDF0:  BCF    FF2.7
0BDF2:  MOVLW  00
0BDF4:  CALL   0144
0BDF8:  TBLRD*-
0BDFA:  TBLRD*+
0BDFC:  MOVF   FF5,W
0BDFE:  MOVWF  FEE
0BE00:  IORLW  00
0BE02:  BNZ   BDFA
0BE04:  MOVLB  6
0BE06:  BTFSC  x4B.6
0BE08:  BSF    FF2.6
0BE0A:  BTFSC  x4B.7
0BE0C:  BSF    FF2.7
....................             codigoUsuario=0; 
0BE0E:  MOVLB  2
0BE10:  CLRF   x4B
....................          } 
....................          codigoUsuario2=0; 
0BE12:  MOVLB  2
0BE14:  CLRF   x29
....................       }else if(RX_Buffer[4]==0x02){//02, Operador 1 
0BE16:  BRA    C152
0BE18:  MOVLB  1
0BE1A:  MOVF   34,W
0BE1C:  SUBLW  02
0BE1E:  BNZ   BE76
....................          printf("page Clave"); 
0BE20:  MOVLW  66
0BE22:  MOVWF  FF6
0BE24:  MOVLW  11
0BE26:  MOVWF  FF7
0BE28:  MOVLW  00
0BE2A:  MOVWF  FF8
0BE2C:  MOVLB  0
0BE2E:  CALL   4248
....................          SendDataDisplay();        
0BE32:  CALL   427A
....................          if(!ingreso){ 
0BE36:  BTFSC  xA9.0
0BE38:  BRA    BE6C
....................             usuario="Operador 1"; 
0BE3A:  MOVLW  02
0BE3C:  MOVWF  FEA
0BE3E:  MOVLW  51
0BE40:  MOVWF  FE9
0BE42:  MOVFF  FF2,64B
0BE46:  BCF    FF2.6
0BE48:  BCF    FF2.7
0BE4A:  MOVLW  00
0BE4C:  CALL   016E
0BE50:  TBLRD*-
0BE52:  TBLRD*+
0BE54:  MOVF   FF5,W
0BE56:  MOVWF  FEE
0BE58:  IORLW  00
0BE5A:  BNZ   BE52
0BE5C:  MOVLB  6
0BE5E:  BTFSC  x4B.6
0BE60:  BSF    FF2.6
0BE62:  BTFSC  x4B.7
0BE64:  BSF    FF2.7
....................             codigoUsuario=1; 
0BE66:  MOVLW  01
0BE68:  MOVLB  2
0BE6A:  MOVWF  x4B
....................          } 
....................          codigoUsuario2=1; 
0BE6C:  MOVLW  01
0BE6E:  MOVLB  2
0BE70:  MOVWF  x29
....................       }else if(RX_Buffer[4]==0x03){//03, Operador 2 
0BE72:  BRA    C152
0BE74:  MOVLB  1
0BE76:  MOVF   34,W
0BE78:  SUBLW  03
0BE7A:  BNZ   BED2
....................          printf("page Clave"); 
0BE7C:  MOVLW  72
0BE7E:  MOVWF  FF6
0BE80:  MOVLW  11
0BE82:  MOVWF  FF7
0BE84:  MOVLW  00
0BE86:  MOVWF  FF8
0BE88:  MOVLB  0
0BE8A:  CALL   4248
....................          SendDataDisplay();        
0BE8E:  CALL   427A
....................          if(!ingreso){ 
0BE92:  BTFSC  xA9.0
0BE94:  BRA    BEC8
....................             usuario="Operador 2"; 
0BE96:  MOVLW  02
0BE98:  MOVWF  FEA
0BE9A:  MOVLW  51
0BE9C:  MOVWF  FE9
0BE9E:  MOVFF  FF2,64B
0BEA2:  BCF    FF2.6
0BEA4:  BCF    FF2.7
0BEA6:  MOVLW  00
0BEA8:  CALL   019E
0BEAC:  TBLRD*-
0BEAE:  TBLRD*+
0BEB0:  MOVF   FF5,W
0BEB2:  MOVWF  FEE
0BEB4:  IORLW  00
0BEB6:  BNZ   BEAE
0BEB8:  MOVLB  6
0BEBA:  BTFSC  x4B.6
0BEBC:  BSF    FF2.6
0BEBE:  BTFSC  x4B.7
0BEC0:  BSF    FF2.7
....................             codigoUsuario=2; 
0BEC2:  MOVLW  02
0BEC4:  MOVLB  2
0BEC6:  MOVWF  x4B
....................          } 
....................          codigoUsuario2=2; 
0BEC8:  MOVLW  02
0BECA:  MOVLB  2
0BECC:  MOVWF  x29
....................       }else if(RX_Buffer[4]==0x04){//04, Operador 3 
0BECE:  BRA    C152
0BED0:  MOVLB  1
0BED2:  MOVF   34,W
0BED4:  SUBLW  04
0BED6:  BNZ   BF2E
....................          printf("page Clave"); 
0BED8:  MOVLW  7E
0BEDA:  MOVWF  FF6
0BEDC:  MOVLW  11
0BEDE:  MOVWF  FF7
0BEE0:  MOVLW  00
0BEE2:  MOVWF  FF8
0BEE4:  MOVLB  0
0BEE6:  CALL   4248
....................          SendDataDisplay();        
0BEEA:  CALL   427A
....................          if(!ingreso){ 
0BEEE:  BTFSC  xA9.0
0BEF0:  BRA    BF24
....................             usuario="Operador 3"; 
0BEF2:  MOVLW  02
0BEF4:  MOVWF  FEA
0BEF6:  MOVLW  51
0BEF8:  MOVWF  FE9
0BEFA:  MOVFF  FF2,64B
0BEFE:  BCF    FF2.6
0BF00:  BCF    FF2.7
0BF02:  MOVLW  00
0BF04:  CALL   01CE
0BF08:  TBLRD*-
0BF0A:  TBLRD*+
0BF0C:  MOVF   FF5,W
0BF0E:  MOVWF  FEE
0BF10:  IORLW  00
0BF12:  BNZ   BF0A
0BF14:  MOVLB  6
0BF16:  BTFSC  x4B.6
0BF18:  BSF    FF2.6
0BF1A:  BTFSC  x4B.7
0BF1C:  BSF    FF2.7
....................             codigoUsuario=3; 
0BF1E:  MOVLW  03
0BF20:  MOVLB  2
0BF22:  MOVWF  x4B
....................          } 
....................          codigoUsuario2=3; 
0BF24:  MOVLW  03
0BF26:  MOVLB  2
0BF28:  MOVWF  x29
....................       }else if(RX_Buffer[4]==0x05){//05, Operador 4 
0BF2A:  BRA    C152
0BF2C:  MOVLB  1
0BF2E:  MOVF   34,W
0BF30:  SUBLW  05
0BF32:  BNZ   BF8A
....................          printf("page Clave"); 
0BF34:  MOVLW  8A
0BF36:  MOVWF  FF6
0BF38:  MOVLW  11
0BF3A:  MOVWF  FF7
0BF3C:  MOVLW  00
0BF3E:  MOVWF  FF8
0BF40:  MOVLB  0
0BF42:  CALL   4248
....................          SendDataDisplay();        
0BF46:  CALL   427A
....................          if(!ingreso){ 
0BF4A:  BTFSC  xA9.0
0BF4C:  BRA    BF80
....................             usuario="Operador 4"; 
0BF4E:  MOVLW  02
0BF50:  MOVWF  FEA
0BF52:  MOVLW  51
0BF54:  MOVWF  FE9
0BF56:  MOVFF  FF2,64B
0BF5A:  BCF    FF2.6
0BF5C:  BCF    FF2.7
0BF5E:  MOVLW  00
0BF60:  CALL   01FE
0BF64:  TBLRD*-
0BF66:  TBLRD*+
0BF68:  MOVF   FF5,W
0BF6A:  MOVWF  FEE
0BF6C:  IORLW  00
0BF6E:  BNZ   BF66
0BF70:  MOVLB  6
0BF72:  BTFSC  x4B.6
0BF74:  BSF    FF2.6
0BF76:  BTFSC  x4B.7
0BF78:  BSF    FF2.7
....................             codigoUsuario=4; 
0BF7A:  MOVLW  04
0BF7C:  MOVLB  2
0BF7E:  MOVWF  x4B
....................          } 
....................          codigoUsuario2=4; 
0BF80:  MOVLW  04
0BF82:  MOVLB  2
0BF84:  MOVWF  x29
....................       }else if(RX_Buffer[4]==0x06){//06, Operador 5 
0BF86:  BRA    C152
0BF88:  MOVLB  1
0BF8A:  MOVF   34,W
0BF8C:  SUBLW  06
0BF8E:  BNZ   BFE6
....................          printf("page Clave"); 
0BF90:  MOVLW  96
0BF92:  MOVWF  FF6
0BF94:  MOVLW  11
0BF96:  MOVWF  FF7
0BF98:  MOVLW  00
0BF9A:  MOVWF  FF8
0BF9C:  MOVLB  0
0BF9E:  CALL   4248
....................          SendDataDisplay();        
0BFA2:  CALL   427A
....................          if(!ingreso){ 
0BFA6:  BTFSC  xA9.0
0BFA8:  BRA    BFDC
....................             usuario="Operador 5"; 
0BFAA:  MOVLW  02
0BFAC:  MOVWF  FEA
0BFAE:  MOVLW  51
0BFB0:  MOVWF  FE9
0BFB2:  MOVFF  FF2,64B
0BFB6:  BCF    FF2.6
0BFB8:  BCF    FF2.7
0BFBA:  MOVLW  00
0BFBC:  CALL   022E
0BFC0:  TBLRD*-
0BFC2:  TBLRD*+
0BFC4:  MOVF   FF5,W
0BFC6:  MOVWF  FEE
0BFC8:  IORLW  00
0BFCA:  BNZ   BFC2
0BFCC:  MOVLB  6
0BFCE:  BTFSC  x4B.6
0BFD0:  BSF    FF2.6
0BFD2:  BTFSC  x4B.7
0BFD4:  BSF    FF2.7
....................             codigoUsuario=5; 
0BFD6:  MOVLW  05
0BFD8:  MOVLB  2
0BFDA:  MOVWF  x4B
....................          } 
....................          codigoUsuario2=5; 
0BFDC:  MOVLW  05
0BFDE:  MOVLB  2
0BFE0:  MOVWF  x29
....................       }else if(RX_Buffer[4]==0x07){//07, Operador 6 
0BFE2:  BRA    C152
0BFE4:  MOVLB  1
0BFE6:  MOVF   34,W
0BFE8:  SUBLW  07
0BFEA:  BNZ   C042
....................          printf("page Clave"); 
0BFEC:  MOVLW  A2
0BFEE:  MOVWF  FF6
0BFF0:  MOVLW  11
0BFF2:  MOVWF  FF7
0BFF4:  MOVLW  00
0BFF6:  MOVWF  FF8
0BFF8:  MOVLB  0
0BFFA:  CALL   4248
....................          SendDataDisplay();        
0BFFE:  CALL   427A
....................          if(!ingreso){ 
0C002:  BTFSC  xA9.0
0C004:  BRA    C038
....................             usuario="Operador 6"; 
0C006:  MOVLW  02
0C008:  MOVWF  FEA
0C00A:  MOVLW  51
0C00C:  MOVWF  FE9
0C00E:  MOVFF  FF2,64B
0C012:  BCF    FF2.6
0C014:  BCF    FF2.7
0C016:  MOVLW  00
0C018:  CALL   025E
0C01C:  TBLRD*-
0C01E:  TBLRD*+
0C020:  MOVF   FF5,W
0C022:  MOVWF  FEE
0C024:  IORLW  00
0C026:  BNZ   C01E
0C028:  MOVLB  6
0C02A:  BTFSC  x4B.6
0C02C:  BSF    FF2.6
0C02E:  BTFSC  x4B.7
0C030:  BSF    FF2.7
....................             codigoUsuario=6; 
0C032:  MOVLW  06
0C034:  MOVLB  2
0C036:  MOVWF  x4B
....................          } 
....................          codigoUsuario2=6; 
0C038:  MOVLW  06
0C03A:  MOVLB  2
0C03C:  MOVWF  x29
....................       }else if(RX_Buffer[4]==0x08){//08, Operador 7 
0C03E:  BRA    C152
0C040:  MOVLB  1
0C042:  MOVF   34,W
0C044:  SUBLW  08
0C046:  BNZ   C09E
....................          printf("page Clave"); 
0C048:  MOVLW  AE
0C04A:  MOVWF  FF6
0C04C:  MOVLW  11
0C04E:  MOVWF  FF7
0C050:  MOVLW  00
0C052:  MOVWF  FF8
0C054:  MOVLB  0
0C056:  CALL   4248
....................          SendDataDisplay();        
0C05A:  CALL   427A
....................          if(!ingreso){ 
0C05E:  BTFSC  xA9.0
0C060:  BRA    C094
....................             usuario="Operador 7"; 
0C062:  MOVLW  02
0C064:  MOVWF  FEA
0C066:  MOVLW  51
0C068:  MOVWF  FE9
0C06A:  MOVFF  FF2,64B
0C06E:  BCF    FF2.6
0C070:  BCF    FF2.7
0C072:  MOVLW  00
0C074:  CALL   028E
0C078:  TBLRD*-
0C07A:  TBLRD*+
0C07C:  MOVF   FF5,W
0C07E:  MOVWF  FEE
0C080:  IORLW  00
0C082:  BNZ   C07A
0C084:  MOVLB  6
0C086:  BTFSC  x4B.6
0C088:  BSF    FF2.6
0C08A:  BTFSC  x4B.7
0C08C:  BSF    FF2.7
....................             codigoUsuario=7; 
0C08E:  MOVLW  07
0C090:  MOVLB  2
0C092:  MOVWF  x4B
....................          } 
....................          codigoUsuario2=7; 
0C094:  MOVLW  07
0C096:  MOVLB  2
0C098:  MOVWF  x29
....................       }else if(RX_Buffer[4]==0x09){//09, Operador 8 
0C09A:  BRA    C152
0C09C:  MOVLB  1
0C09E:  MOVF   34,W
0C0A0:  SUBLW  09
0C0A2:  BNZ   C0FA
....................          printf("page Clave"); 
0C0A4:  MOVLW  BA
0C0A6:  MOVWF  FF6
0C0A8:  MOVLW  11
0C0AA:  MOVWF  FF7
0C0AC:  MOVLW  00
0C0AE:  MOVWF  FF8
0C0B0:  MOVLB  0
0C0B2:  CALL   4248
....................          SendDataDisplay();        
0C0B6:  CALL   427A
....................          if(!ingreso){ 
0C0BA:  BTFSC  xA9.0
0C0BC:  BRA    C0F0
....................             usuario="Operador 8"; 
0C0BE:  MOVLW  02
0C0C0:  MOVWF  FEA
0C0C2:  MOVLW  51
0C0C4:  MOVWF  FE9
0C0C6:  MOVFF  FF2,64B
0C0CA:  BCF    FF2.6
0C0CC:  BCF    FF2.7
0C0CE:  MOVLW  00
0C0D0:  CALL   02BE
0C0D4:  TBLRD*-
0C0D6:  TBLRD*+
0C0D8:  MOVF   FF5,W
0C0DA:  MOVWF  FEE
0C0DC:  IORLW  00
0C0DE:  BNZ   C0D6
0C0E0:  MOVLB  6
0C0E2:  BTFSC  x4B.6
0C0E4:  BSF    FF2.6
0C0E6:  BTFSC  x4B.7
0C0E8:  BSF    FF2.7
....................             codigoUsuario=8; 
0C0EA:  MOVLW  08
0C0EC:  MOVLB  2
0C0EE:  MOVWF  x4B
....................          } 
....................          codigoUsuario2=8; 
0C0F0:  MOVLW  08
0C0F2:  MOVLB  2
0C0F4:  MOVWF  x29
....................       }else if(RX_Buffer[4]==0x0a){//0a, Tecnico 
0C0F6:  BRA    C152
0C0F8:  MOVLB  1
0C0FA:  MOVF   34,W
0C0FC:  SUBLW  0A
0C0FE:  BNZ   C154
....................          printf("page Clave"); 
0C100:  MOVLW  C6
0C102:  MOVWF  FF6
0C104:  MOVLW  11
0C106:  MOVWF  FF7
0C108:  MOVLW  00
0C10A:  MOVWF  FF8
0C10C:  MOVLB  0
0C10E:  CALL   4248
....................          SendDataDisplay();        
0C112:  CALL   427A
....................          if(!ingreso){ 
0C116:  BTFSC  xA9.0
0C118:  BRA    C14C
....................             usuario="Tecnico"; 
0C11A:  MOVLW  02
0C11C:  MOVWF  FEA
0C11E:  MOVLW  51
0C120:  MOVWF  FE9
0C122:  MOVFF  FF2,64B
0C126:  BCF    FF2.6
0C128:  BCF    FF2.7
0C12A:  MOVLW  00
0C12C:  CALL   02EE
0C130:  TBLRD*-
0C132:  TBLRD*+
0C134:  MOVF   FF5,W
0C136:  MOVWF  FEE
0C138:  IORLW  00
0C13A:  BNZ   C132
0C13C:  MOVLB  6
0C13E:  BTFSC  x4B.6
0C140:  BSF    FF2.6
0C142:  BTFSC  x4B.7
0C144:  BSF    FF2.7
....................             codigoUsuario=9; 
0C146:  MOVLW  09
0C148:  MOVLB  2
0C14A:  MOVWF  x4B
....................          } 
....................          codigoUsuario2=9; 
0C14C:  MOVLW  09
0C14E:  MOVLB  2
0C150:  MOVWF  x29
0C152:  MOVLB  1
....................       } 
....................        
....................       if(RX_Buffer[4]==0xaa && ingreso){//aa, Regresar 
0C154:  MOVF   34,W
0C156:  SUBLW  AA
0C158:  BNZ   C180
0C15A:  MOVLB  0
0C15C:  BTFSC  xA9.0
0C15E:  BRA    C164
0C160:  MOVLB  1
0C162:  BRA    C180
....................          printf("page Ajustes"); 
0C164:  MOVLW  D2
0C166:  MOVWF  FF6
0C168:  MOVLW  11
0C16A:  MOVWF  FF7
0C16C:  MOVLW  00
0C16E:  MOVWF  FF8
0C170:  CALL   4248
....................          SendDataDisplay();        
0C174:  CALL   427A
....................          codigoUsuario2=10; 
0C178:  MOVLW  0A
0C17A:  MOVLB  2
0C17C:  MOVWF  x29
0C17E:  MOVLB  1
....................       } 
....................    } 
.................... //_--------------------------------------------------------------------------------------------------------------------------------------------------------       
....................  
.................... //_--------------------------------------------------------------------------------------------------------------------------------------------------------       
....................    if(Menu==11){//Menu de Configuraciones 
0C180:  MOVF   xF0,W
0C182:  SUBLW  0B
0C184:  BTFSS  FD8.2
0C186:  BRA    C3BC
....................       printf("fecha.txt=\"Fecha:%02u/%02u/20%02u    Hora: %02u:%02u:%02u\"",Dia,Mes,Year,Hora,Minuto,Segundo); 
0C188:  MOVLW  E0
0C18A:  MOVWF  FF6
0C18C:  MOVLW  11
0C18E:  MOVWF  FF7
0C190:  MOVLW  00
0C192:  MOVWF  FF8
0C194:  MOVLW  11
0C196:  MOVLB  6
0C198:  MOVWF  x51
0C19A:  MOVLB  0
0C19C:  CALL   5AAC
0C1A0:  MOVFF  236,651
0C1A4:  MOVLW  01
0C1A6:  MOVLB  6
0C1A8:  MOVWF  x52
0C1AA:  MOVLB  0
0C1AC:  CALL   5B30
0C1B0:  MOVLW  2F
0C1B2:  BTFSS  F9E.4
0C1B4:  BRA    C1B2
0C1B6:  MOVWF  FAD
0C1B8:  MOVFF  235,651
0C1BC:  MOVLW  01
0C1BE:  MOVLB  6
0C1C0:  MOVWF  x52
0C1C2:  MOVLB  0
0C1C4:  CALL   5B30
0C1C8:  MOVLW  2F
0C1CA:  BTFSS  F9E.4
0C1CC:  BRA    C1CA
0C1CE:  MOVWF  FAD
0C1D0:  MOVLW  32
0C1D2:  BTFSS  F9E.4
0C1D4:  BRA    C1D2
0C1D6:  MOVWF  FAD
0C1D8:  MOVLW  30
0C1DA:  BTFSS  F9E.4
0C1DC:  BRA    C1DA
0C1DE:  MOVWF  FAD
0C1E0:  MOVFF  234,651
0C1E4:  MOVLW  01
0C1E6:  MOVLB  6
0C1E8:  MOVWF  x52
0C1EA:  MOVLB  0
0C1EC:  CALL   5B30
0C1F0:  MOVLW  01
0C1F2:  MOVWF  FF6
0C1F4:  MOVLW  12
0C1F6:  MOVWF  FF7
0C1F8:  MOVLW  00
0C1FA:  MOVWF  FF8
0C1FC:  MOVLW  0A
0C1FE:  MOVLB  6
0C200:  MOVWF  x51
0C202:  MOVLB  0
0C204:  CALL   5AAC
0C208:  MOVFF  237,651
0C20C:  MOVLW  01
0C20E:  MOVLB  6
0C210:  MOVWF  x52
0C212:  MOVLB  0
0C214:  CALL   5B30
0C218:  MOVLW  3A
0C21A:  BTFSS  F9E.4
0C21C:  BRA    C21A
0C21E:  MOVWF  FAD
0C220:  MOVFF  238,651
0C224:  MOVLW  01
0C226:  MOVLB  6
0C228:  MOVWF  x52
0C22A:  MOVLB  0
0C22C:  CALL   5B30
0C230:  MOVLW  3A
0C232:  BTFSS  F9E.4
0C234:  BRA    C232
0C236:  MOVWF  FAD
0C238:  MOVFF  239,651
0C23C:  MOVLW  01
0C23E:  MOVLB  6
0C240:  MOVWF  x52
0C242:  MOVLB  0
0C244:  CALL   5B30
0C248:  MOVLW  22
0C24A:  BTFSS  F9E.4
0C24C:  BRA    C24A
0C24E:  MOVWF  FAD
....................       SendDataDisplay(); 
0C250:  CALL   427A
....................       GuardaEEPROM=OFF; 
0C254:  BCF    xA7.4
....................       printf("tuser.txt=\"%s\"",usuario); 
0C256:  MOVLW  1C
0C258:  MOVWF  FF6
0C25A:  MOVLW  12
0C25C:  MOVWF  FF7
0C25E:  MOVLW  00
0C260:  MOVWF  FF8
0C262:  MOVLW  0B
0C264:  MOVLB  6
0C266:  MOVWF  x51
0C268:  MOVLB  0
0C26A:  CALL   5AAC
0C26E:  MOVLW  02
0C270:  MOVWF  FEA
0C272:  MOVLW  51
0C274:  MOVWF  FE9
0C276:  CALL   5ADE
0C27A:  MOVLW  22
0C27C:  BTFSS  F9E.4
0C27E:  BRA    C27C
0C280:  MOVWF  FAD
....................       SendDataDisplay(); 
0C282:  CALL   427A
....................       TipoClave=0; 
0C286:  MOVLB  1
0C288:  CLRF   x95
....................        
....................       if(RX_Buffer[4]==0x01){//01, Ciclos 
0C28A:  DECFSZ 34,W
0C28C:  BRA    C2A6
....................          printf("page Ciclos"); 
0C28E:  MOVLW  2C
0C290:  MOVWF  FF6
0C292:  MOVLW  12
0C294:  MOVWF  FF7
0C296:  MOVLW  00
0C298:  MOVWF  FF8
0C29A:  MOVLB  0
0C29C:  CALL   4248
....................          SendDataDisplay();      
0C2A0:  CALL   427A
0C2A4:  MOVLB  1
....................       } 
....................        
....................       if(RX_Buffer[4]==0x02){//02, Test de Componentes 
0C2A6:  MOVF   34,W
0C2A8:  SUBLW  02
0C2AA:  BNZ   C2C4
....................          printf("page Test"); 
0C2AC:  MOVLW  38
0C2AE:  MOVWF  FF6
0C2B0:  MOVLW  12
0C2B2:  MOVWF  FF7
0C2B4:  MOVLW  00
0C2B6:  MOVWF  FF8
0C2B8:  MOVLB  0
0C2BA:  CALL   4248
....................          SendDataDisplay();      
0C2BE:  CALL   427A
0C2C2:  MOVLB  1
....................       } 
....................        
....................       if(RX_Buffer[4]==0x03){//03, Modificacin de clave Usuarios 
0C2C4:  MOVF   34,W
0C2C6:  SUBLW  03
0C2C8:  BNZ   C2E2
....................          printf("page Usuarios"); 
0C2CA:  MOVLW  42
0C2CC:  MOVWF  FF6
0C2CE:  MOVLW  12
0C2D0:  MOVWF  FF7
0C2D2:  MOVLW  00
0C2D4:  MOVWF  FF8
0C2D6:  MOVLB  0
0C2D8:  CALL   4248
....................          SendDataDisplay();      
0C2DC:  CALL   427A
0C2E0:  MOVLB  1
....................       } 
....................        
....................       if(RX_Buffer[4]==0x04){//03, Modificacin de clave Usuarios 
0C2E2:  MOVF   34,W
0C2E4:  SUBLW  04
0C2E6:  BNZ   C300
....................          printf("page Activa"); 
0C2E8:  MOVLW  50
0C2EA:  MOVWF  FF6
0C2EC:  MOVLW  12
0C2EE:  MOVWF  FF7
0C2F0:  MOVLW  00
0C2F2:  MOVWF  FF8
0C2F4:  MOVLB  0
0C2F6:  CALL   4248
....................          SendDataDisplay();      
0C2FA:  CALL   427A
0C2FE:  MOVLB  1
....................       } 
....................        
....................       if(RX_Buffer[4]==0x11 && CodigoUsuario==9){//11, Menu Oculto Tecnico 
0C300:  MOVF   34,W
0C302:  SUBLW  11
0C304:  BNZ   C330
0C306:  MOVLB  2
0C308:  MOVF   x4B,W
0C30A:  SUBLW  09
0C30C:  BTFSC  FD8.2
0C30E:  BRA    C314
0C310:  MOVLB  1
0C312:  BRA    C330
....................          printf("page Clave"); 
0C314:  MOVLW  5C
0C316:  MOVWF  FF6
0C318:  MOVLW  12
0C31A:  MOVWF  FF7
0C31C:  MOVLW  00
0C31E:  MOVWF  FF8
0C320:  MOVLB  0
0C322:  CALL   4248
....................          SendDataDisplay();  
0C326:  CALL   427A
....................          TipoClave=1; 
0C32A:  MOVLW  01
0C32C:  MOVLB  1
0C32E:  MOVWF  x95
....................       } 
....................        
....................       if(RX_Buffer[4]==0x05){//05, Hora y Fecha 
0C330:  MOVF   34,W
0C332:  SUBLW  05
0C334:  BNZ   C362
....................          printf("page Fecha"); 
0C336:  MOVLW  68
0C338:  MOVWF  FF6
0C33A:  MOVLW  12
0C33C:  MOVWF  FF7
0C33E:  MOVLW  00
0C340:  MOVWF  FF8
0C342:  MOVLB  0
0C344:  CALL   4248
....................          SendDataDisplay();      
0C348:  CALL   427A
....................          DiaTx=Dia; 
0C34C:  MOVFF  236,241
....................          MesTx=Mes; 
0C350:  MOVFF  235,240
....................          YearTx=Year; 
0C354:  MOVFF  234,23F
....................          HoraTx=Hora; 
0C358:  MOVFF  237,242
....................          MinutoTx=Minuto; 
0C35C:  MOVFF  238,243
0C360:  MOVLB  1
....................       } 
....................        
....................       if(RX_Buffer[4]==0xa0){//a0, Menu Principal 
0C362:  MOVF   34,W
0C364:  SUBLW  A0
0C366:  BNZ   C380
....................          printf("page Menu"); 
0C368:  MOVLW  74
0C36A:  MOVWF  FF6
0C36C:  MOVLW  12
0C36E:  MOVWF  FF7
0C370:  MOVLW  00
0C372:  MOVWF  FF8
0C374:  MOVLB  0
0C376:  CALL   4248
....................          SendDataDisplay();      
0C37A:  CALL   427A
0C37E:  MOVLB  1
....................       } 
....................        
....................       if(RX_Buffer[4]==0xb0){//b0, Personalizados 
0C380:  MOVF   34,W
0C382:  SUBLW  B0
0C384:  BNZ   C39E
....................          printf("page CicloPersona"); 
0C386:  MOVLW  7E
0C388:  MOVWF  FF6
0C38A:  MOVLW  12
0C38C:  MOVWF  FF7
0C38E:  MOVLW  00
0C390:  MOVWF  FF8
0C392:  MOVLB  0
0C394:  CALL   4248
....................          SendDataDisplay();      
0C398:  CALL   427A
0C39C:  MOVLB  1
....................       } 
....................        
....................       if(RX_Buffer[4]==0xc0){//c0, Configuraciones 
0C39E:  MOVF   34,W
0C3A0:  SUBLW  C0
0C3A2:  BNZ   C3BC
....................          printf("page Ajustes"); 
0C3A4:  MOVLW  90
0C3A6:  MOVWF  FF6
0C3A8:  MOVLW  12
0C3AA:  MOVWF  FF7
0C3AC:  MOVLW  00
0C3AE:  MOVWF  FF8
0C3B0:  MOVLB  0
0C3B2:  CALL   4248
....................          SendDataDisplay();      
0C3B6:  CALL   427A
0C3BA:  MOVLB  1
....................       } 
....................    } 
.................... //_--------------------------------------------------------------------------------------------------------------------------------------------------------       
....................  
.................... //_--------------------------------------------------------------------------------------------------------------------------------------------------------       
....................    if(Menu==12){//Menu de Visualizacion de Ciclos Realizados 
0C3BC:  MOVF   xF0,W
0C3BE:  SUBLW  0C
0C3C0:  BTFSS  FD8.2
0C3C2:  GOTO   D220
....................       //printf("fecha.txt=\"Fecha:%02u/%02u/20%02u    Hora: %02u:%02u\"",Dia,Mes,Year,Hora,Minuto); 
....................       //SendDataDisplay(); 
....................       GuardaEEPROM=OFF; 
0C3C6:  MOVLB  0
0C3C8:  BCF    xA7.4
....................        
....................       i2c_start();            // Comienzo de la comunicacin 
0C3CA:  BSF    F94.4
0C3CC:  MOVLW  05
0C3CE:  MOVWF  00
0C3D0:  DECFSZ 00,F
0C3D2:  BRA    C3D0
0C3D4:  BSF    F94.3
0C3D6:  MOVLW  06
0C3D8:  MOVWF  00
0C3DA:  DECFSZ 00,F
0C3DC:  BRA    C3DA
0C3DE:  BCF    F8B.4
0C3E0:  BCF    F94.4
0C3E2:  MOVLW  05
0C3E4:  MOVWF  00
0C3E6:  DECFSZ 00,F
0C3E8:  BRA    C3E6
0C3EA:  BCF    F8B.3
0C3EC:  BCF    F94.3
....................       i2c_write(0xB0);   // Direccin del esclavo en el bus I2C 
0C3EE:  MOVLW  B0
0C3F0:  MOVLB  6
0C3F2:  MOVWF  x6C
0C3F4:  MOVLB  0
0C3F6:  CALL   2402
....................       i2c_write(0);    // Posicin de donde se leer el dato en el esclavo 
0C3FA:  MOVLB  6
0C3FC:  CLRF   x6C
0C3FE:  MOVLB  0
0C400:  CALL   2402
....................       i2c_write(0);    // Posicin de donde se leer el dato en el esclavo 
0C404:  MOVLB  6
0C406:  CLRF   x6C
0C408:  MOVLB  0
0C40A:  CALL   2402
....................       i2c_start();            // Reinicio 
0C40E:  BSF    F94.4
0C410:  MOVLW  05
0C412:  MOVWF  00
0C414:  DECFSZ 00,F
0C416:  BRA    C414
0C418:  BSF    F94.3
0C41A:  MOVLW  06
0C41C:  MOVWF  00
0C41E:  DECFSZ 00,F
0C420:  BRA    C41E
0C422:  BTFSS  F82.3
0C424:  BRA    C422
0C426:  BCF    F8B.4
0C428:  BCF    F94.4
0C42A:  MOVLW  05
0C42C:  MOVWF  00
0C42E:  DECFSZ 00,F
0C430:  BRA    C42E
0C432:  BCF    F8B.3
0C434:  BCF    F94.3
....................       i2c_write(direccion+1); // Direccin del esclavo en modo lectura 
0C436:  MOVLW  01
0C438:  ADDWF  x88,W
0C43A:  MOVLB  6
0C43C:  MOVWF  x4B
0C43E:  MOVWF  x6C
0C440:  MOVLB  0
0C442:  CALL   2402
....................       dato=i2c_read(0);       // Lectura del dato 
0C446:  CLRF   00
0C448:  CALL   2478
0C44C:  MOVFF  01,87
....................       i2c_stop(); 
0C450:  BCF    F94.4
0C452:  NOP   
0C454:  BSF    F94.3
0C456:  BTFSS  F82.3
0C458:  BRA    C456
0C45A:  MOVLW  05
0C45C:  MOVWF  00
0C45E:  DECFSZ 00,F
0C460:  BRA    C45E
0C462:  BRA    C464
0C464:  NOP   
0C466:  BSF    F94.4
0C468:  MOVLW  05
0C46A:  MOVWF  00
0C46C:  DECFSZ 00,F
0C46E:  BRA    C46C
....................       if(dato==1){ 
0C470:  DECFSZ x87,W
0C472:  BRA    C48A
....................          printf("estado.txt=\"Enlazando \""); 
0C474:  MOVLW  9E
0C476:  MOVWF  FF6
0C478:  MOVLW  12
0C47A:  MOVWF  FF7
0C47C:  MOVLW  00
0C47E:  MOVWF  FF8
0C480:  CALL   4248
....................          SendDataDisplay();      
0C484:  CALL   427A
....................       }else if(dato==2){ 
0C488:  BRA    C52A
0C48A:  MOVF   x87,W
0C48C:  SUBLW  02
0C48E:  BNZ   C4A6
....................          printf("estado.txt=\"Verificando Com. \""); 
0C490:  MOVLW  B6
0C492:  MOVWF  FF6
0C494:  MOVLW  12
0C496:  MOVWF  FF7
0C498:  MOVLW  00
0C49A:  MOVWF  FF8
0C49C:  CALL   4248
....................          SendDataDisplay();     
0C4A0:  CALL   427A
....................       }else if(dato==3){ 
0C4A4:  BRA    C52A
0C4A6:  MOVF   x87,W
0C4A8:  SUBLW  03
0C4AA:  BNZ   C4C2
....................          printf("estado.txt=\"Montando USB\""); 
0C4AC:  MOVLW  D6
0C4AE:  MOVWF  FF6
0C4B0:  MOVLW  12
0C4B2:  MOVWF  FF7
0C4B4:  MOVLW  00
0C4B6:  MOVWF  FF8
0C4B8:  CALL   4248
....................          SendDataDisplay();     
0C4BC:  CALL   427A
....................       }else if(dato==4){ 
0C4C0:  BRA    C52A
0C4C2:  MOVF   x87,W
0C4C4:  SUBLW  04
0C4C6:  BNZ   C4DE
....................          printf("estado.txt=\"Creando Archivo\""); 
0C4C8:  MOVLW  F0
0C4CA:  MOVWF  FF6
0C4CC:  MOVLW  12
0C4CE:  MOVWF  FF7
0C4D0:  MOVLW  00
0C4D2:  MOVWF  FF8
0C4D4:  CALL   4248
....................          SendDataDisplay();     
0C4D8:  CALL   427A
....................       }else if(dato==5){ 
0C4DC:  BRA    C52A
0C4DE:  MOVF   x87,W
0C4E0:  SUBLW  05
0C4E2:  BNZ   C4FA
....................          printf("estado.txt=\"Transfiriendo Datos\""); 
0C4E4:  MOVLW  0E
0C4E6:  MOVWF  FF6
0C4E8:  MOVLW  13
0C4EA:  MOVWF  FF7
0C4EC:  MOVLW  00
0C4EE:  MOVWF  FF8
0C4F0:  CALL   4248
....................          SendDataDisplay();     
0C4F4:  CALL   427A
....................       }else if(dato==6){ 
0C4F8:  BRA    C52A
0C4FA:  MOVF   x87,W
0C4FC:  SUBLW  06
0C4FE:  BNZ   C516
....................          printf("estado.txt=\"Cerrando USB\""); 
0C500:  MOVLW  30
0C502:  MOVWF  FF6
0C504:  MOVLW  13
0C506:  MOVWF  FF7
0C508:  MOVLW  00
0C50A:  MOVWF  FF8
0C50C:  CALL   4248
....................          SendDataDisplay();     
0C510:  CALL   427A
....................       }else{ 
0C514:  BRA    C52A
....................          printf("estado.txt=\"Desconectado \""); 
0C516:  MOVLW  4A
0C518:  MOVWF  FF6
0C51A:  MOVLW  13
0C51C:  MOVWF  FF7
0C51E:  MOVLW  00
0C520:  MOVWF  FF8
0C522:  CALL   4248
....................          SendDataDisplay();     
0C526:  CALL   427A
....................       } 
....................        
....................       if(RX_Buffer[6]==0x01){//01, Ciclos 
0C52A:  DECFSZ 36,W
0C52C:  BRA    C542
....................          printf("page Ajustes"); 
0C52E:  MOVLW  66
0C530:  MOVWF  FF6
0C532:  MOVLW  13
0C534:  MOVWF  FF7
0C536:  MOVLW  00
0C538:  MOVWF  FF8
0C53A:  CALL   4248
....................          SendDataDisplay();      
0C53E:  CALL   427A
....................       } 
....................        
....................       if(RX_Buffer[6]==0x02){//02, Exportar 
0C542:  MOVF   36,W
0C544:  SUBLW  02
0C546:  BNZ   C550
....................          RX_Buffer[6]=0x00;   
0C548:  CLRF   36
....................          RX_Buffer2[6]=0x00; 
0C54A:  CLRF   41
....................          exportarData(); 
0C54C:  GOTO   66B2
....................       } 
....................        
....................       if(RX_Buffer[4]>0x00 || RX_Buffer[5]>0x00){ 
0C550:  MOVF   34,F
0C552:  BNZ   C55C
0C554:  MOVF   35,F
0C556:  BTFSC  FD8.2
0C558:  GOTO   CDC2
....................          cicloVisualizado=RX_Buffer[4]-1; 
0C55C:  MOVLW  01
0C55E:  SUBWF  34,W
0C560:  MOVLB  2
0C562:  MOVWF  x30
0C564:  CLRF   x31
....................          cicloVisto=RX_Buffer[5]-1; 
0C566:  MOVLW  01
0C568:  SUBWF  35,W
0C56A:  MOVWF  x32
0C56C:  CLRF   x33
....................          RX_Buffer[4]=0x00; 
0C56E:  CLRF   34
....................          RX_Buffer[5]=0x00; 
0C570:  CLRF   35
....................          RX_Buffer2[4]=0x00; 
0C572:  CLRF   3F
....................          RX_Buffer2[5]=0x00; 
0C574:  CLRF   40
....................          diaCiclos=read_ext_eeprom(2+(cicloVisto*320)); 
0C576:  MOVFF  233,667
0C57A:  MOVFF  232,666
0C57E:  MOVLW  01
0C580:  MOVLB  6
0C582:  MOVWF  x69
0C584:  MOVLW  40
0C586:  MOVWF  x68
0C588:  MOVLB  0
0C58A:  CALL   23E0
0C58E:  MOVFF  02,03
0C592:  MOVF   01,W
0C594:  ADDLW  02
0C596:  MOVLB  6
0C598:  MOVWF  x4B
0C59A:  MOVLW  00
0C59C:  ADDWFC 02,W
0C59E:  MOVWF  x4C
0C5A0:  MOVWF  x51
0C5A2:  MOVFF  64B,650
0C5A6:  MOVLB  0
0C5A8:  CALL   24E2
0C5AC:  MOVFF  01,2B2
....................          if(diaCiclos>31) 
0C5B0:  MOVLB  2
0C5B2:  MOVF   xB2,W
0C5B4:  SUBLW  1F
0C5B6:  BC    C5BC
....................             diaCiclos=1; 
0C5B8:  MOVLW  01
0C5BA:  MOVWF  xB2
....................          mesCiclos=read_ext_eeprom(3+(cicloVisto*320)); 
0C5BC:  MOVFF  233,667
0C5C0:  MOVFF  232,666
0C5C4:  MOVLW  01
0C5C6:  MOVLB  6
0C5C8:  MOVWF  x69
0C5CA:  MOVLW  40
0C5CC:  MOVWF  x68
0C5CE:  MOVLB  0
0C5D0:  CALL   23E0
0C5D4:  MOVFF  02,03
0C5D8:  MOVF   01,W
0C5DA:  ADDLW  03
0C5DC:  MOVLB  6
0C5DE:  MOVWF  x4B
0C5E0:  MOVLW  00
0C5E2:  ADDWFC 02,W
0C5E4:  MOVWF  x4C
0C5E6:  MOVWF  x51
0C5E8:  MOVFF  64B,650
0C5EC:  MOVLB  0
0C5EE:  CALL   24E2
0C5F2:  MOVFF  01,2B3
....................          if(mesCiclos>12) 
0C5F6:  MOVLB  2
0C5F8:  MOVF   xB3,W
0C5FA:  SUBLW  0C
0C5FC:  BC    C602
....................             mesCiclos=1; 
0C5FE:  MOVLW  01
0C600:  MOVWF  xB3
....................          yearCiclos=read_ext_eeprom(4+(cicloVisto*320)); 
0C602:  MOVFF  233,667
0C606:  MOVFF  232,666
0C60A:  MOVLW  01
0C60C:  MOVLB  6
0C60E:  MOVWF  x69
0C610:  MOVLW  40
0C612:  MOVWF  x68
0C614:  MOVLB  0
0C616:  CALL   23E0
0C61A:  MOVFF  02,03
0C61E:  MOVF   01,W
0C620:  ADDLW  04
0C622:  MOVLB  6
0C624:  MOVWF  x4B
0C626:  MOVLW  00
0C628:  ADDWFC 02,W
0C62A:  MOVWF  x4C
0C62C:  MOVWF  x51
0C62E:  MOVFF  64B,650
0C632:  MOVLB  0
0C634:  CALL   24E2
0C638:  MOVFF  01,2B4
....................          if(yearCiclos>99) 
0C63C:  MOVLB  2
0C63E:  MOVF   xB4,W
0C640:  SUBLW  63
0C642:  BC    C648
....................             yearCiclos=19; 
0C644:  MOVLW  13
0C646:  MOVWF  xB4
....................          cicloCiclos=read_ext_eeprom(1+(cicloVisto*320)); 
0C648:  MOVFF  233,667
0C64C:  MOVFF  232,666
0C650:  MOVLW  01
0C652:  MOVLB  6
0C654:  MOVWF  x69
0C656:  MOVLW  40
0C658:  MOVWF  x68
0C65A:  MOVLB  0
0C65C:  CALL   23E0
0C660:  MOVFF  02,03
0C664:  MOVF   01,W
0C666:  ADDLW  01
0C668:  MOVLB  6
0C66A:  MOVWF  x4B
0C66C:  MOVLW  00
0C66E:  ADDWFC 02,W
0C670:  MOVWF  x4C
0C672:  MOVWF  x51
0C674:  MOVFF  64B,650
0C678:  MOVLB  0
0C67A:  CALL   24E2
0C67E:  MOVFF  01,2B6
....................          if(cicloCiclos>20) 
0C682:  MOVLB  2
0C684:  MOVF   xB6,W
0C686:  SUBLW  14
0C688:  BC    C68E
....................             cicloCiclos=1; 
0C68A:  MOVLW  01
0C68C:  MOVWF  xB6
....................          usuarioCiclos=read_ext_eeprom((cicloVisto*320)); 
0C68E:  MOVFF  233,667
0C692:  MOVFF  232,666
0C696:  MOVLW  01
0C698:  MOVLB  6
0C69A:  MOVWF  x69
0C69C:  MOVLW  40
0C69E:  MOVWF  x68
0C6A0:  MOVLB  0
0C6A2:  CALL   23E0
0C6A6:  MOVFF  02,64C
0C6AA:  MOVFF  01,64B
0C6AE:  MOVFF  02,651
0C6B2:  MOVFF  01,650
0C6B6:  CALL   24E2
0C6BA:  MOVFF  01,2B5
....................          if(usuarioCiclos>10) 
0C6BE:  MOVLB  2
0C6C0:  MOVF   xB5,W
0C6C2:  SUBLW  0A
0C6C4:  BC    C6CA
....................             usuarioCiclos=1; 
0C6C6:  MOVLW  01
0C6C8:  MOVWF  xB5
....................          for(i=0;i<7;i++){//Lee Valores para completar la Tabla 
0C6CA:  MOVLB  1
0C6CC:  CLRF   xFE
0C6CE:  CLRF   xFD
0C6D0:  MOVF   xFE,F
0C6D2:  BTFSS  FD8.2
0C6D4:  BRA    CDC0
0C6D6:  MOVF   xFD,W
0C6D8:  SUBLW  06
0C6DA:  BTFSS  FD8.0
0C6DC:  BRA    CDC0
....................             horaCiclos[i]=read_ext_eeprom((cicloVisto*320)+11+((cicloVisualizado+i)*9)); 
0C6DE:  MOVLW  9D
0C6E0:  ADDWF  xFD,W
0C6E2:  MOVWF  01
0C6E4:  MOVLW  02
0C6E6:  ADDWFC xFE,W
0C6E8:  MOVWF  03
0C6EA:  MOVFF  01,64B
0C6EE:  MOVLB  6
0C6F0:  MOVWF  x4C
0C6F2:  MOVFF  233,667
0C6F6:  MOVFF  232,666
0C6FA:  MOVLW  01
0C6FC:  MOVWF  x69
0C6FE:  MOVLW  40
0C700:  MOVWF  x68
0C702:  MOVLB  0
0C704:  CALL   23E0
0C708:  MOVFF  02,64E
0C70C:  MOVFF  01,64D
0C710:  MOVLW  0B
0C712:  MOVLB  6
0C714:  ADDWF  x4D,F
0C716:  MOVLW  00
0C718:  ADDWFC x4E,F
0C71A:  MOVLB  1
0C71C:  MOVF   xFD,W
0C71E:  MOVLB  2
0C720:  ADDWF  x30,W
0C722:  MOVLB  6
0C724:  MOVWF  x4F
0C726:  MOVLB  1
0C728:  MOVF   xFE,W
0C72A:  MOVLB  2
0C72C:  ADDWFC x31,W
0C72E:  MOVLB  6
0C730:  MOVWF  x50
0C732:  MOVWF  x67
0C734:  MOVFF  64F,666
0C738:  CLRF   x69
0C73A:  MOVLW  09
0C73C:  MOVWF  x68
0C73E:  MOVLB  0
0C740:  CALL   23E0
0C744:  MOVFF  02,03
0C748:  MOVF   01,W
0C74A:  MOVLB  6
0C74C:  ADDWF  x4D,F
0C74E:  MOVF   02,W
0C750:  ADDWFC x4E,F
0C752:  MOVFF  64E,651
0C756:  MOVFF  64D,650
0C75A:  MOVLB  0
0C75C:  CALL   24E2
0C760:  MOVFF  64C,FEA
0C764:  MOVFF  64B,FE9
0C768:  MOVFF  01,FEF
....................             if(horaCiclos[i]>24) 
0C76C:  MOVLW  9D
0C76E:  MOVLB  1
0C770:  ADDWF  xFD,W
0C772:  MOVWF  FE9
0C774:  MOVLW  02
0C776:  ADDWFC xFE,W
0C778:  MOVWF  FEA
0C77A:  MOVF   FEF,W
0C77C:  SUBLW  18
0C77E:  BC    C78E
....................                horaCiclos[i]=0; 
0C780:  MOVLW  9D
0C782:  ADDWF  xFD,W
0C784:  MOVWF  FE9
0C786:  MOVLW  02
0C788:  ADDWFC xFE,W
0C78A:  MOVWF  FEA
0C78C:  CLRF   FEF
....................             minutoCiclos[i]=read_ext_eeprom((cicloVisto*320)+12+((cicloVisualizado+i)*9)); 
0C78E:  MOVLW  A4
0C790:  ADDWF  xFD,W
0C792:  MOVWF  01
0C794:  MOVLW  02
0C796:  ADDWFC xFE,W
0C798:  MOVWF  03
0C79A:  MOVFF  01,64B
0C79E:  MOVLB  6
0C7A0:  MOVWF  x4C
0C7A2:  MOVFF  233,667
0C7A6:  MOVFF  232,666
0C7AA:  MOVLW  01
0C7AC:  MOVWF  x69
0C7AE:  MOVLW  40
0C7B0:  MOVWF  x68
0C7B2:  MOVLB  0
0C7B4:  CALL   23E0
0C7B8:  MOVFF  02,64E
0C7BC:  MOVFF  01,64D
0C7C0:  MOVLW  0C
0C7C2:  MOVLB  6
0C7C4:  ADDWF  x4D,F
0C7C6:  MOVLW  00
0C7C8:  ADDWFC x4E,F
0C7CA:  MOVLB  1
0C7CC:  MOVF   xFD,W
0C7CE:  MOVLB  2
0C7D0:  ADDWF  x30,W
0C7D2:  MOVLB  6
0C7D4:  MOVWF  x4F
0C7D6:  MOVLB  1
0C7D8:  MOVF   xFE,W
0C7DA:  MOVLB  2
0C7DC:  ADDWFC x31,W
0C7DE:  MOVLB  6
0C7E0:  MOVWF  x50
0C7E2:  MOVWF  x67
0C7E4:  MOVFF  64F,666
0C7E8:  CLRF   x69
0C7EA:  MOVLW  09
0C7EC:  MOVWF  x68
0C7EE:  MOVLB  0
0C7F0:  CALL   23E0
0C7F4:  MOVFF  02,03
0C7F8:  MOVF   01,W
0C7FA:  MOVLB  6
0C7FC:  ADDWF  x4D,F
0C7FE:  MOVF   02,W
0C800:  ADDWFC x4E,F
0C802:  MOVFF  64E,651
0C806:  MOVFF  64D,650
0C80A:  MOVLB  0
0C80C:  CALL   24E2
0C810:  MOVFF  64C,FEA
0C814:  MOVFF  64B,FE9
0C818:  MOVFF  01,FEF
....................             if(minutoCiclos[i]>59) 
0C81C:  MOVLW  A4
0C81E:  MOVLB  1
0C820:  ADDWF  xFD,W
0C822:  MOVWF  FE9
0C824:  MOVLW  02
0C826:  ADDWFC xFE,W
0C828:  MOVWF  FEA
0C82A:  MOVF   FEF,W
0C82C:  SUBLW  3B
0C82E:  BC    C83E
....................                minutoCiclos[i]=0; 
0C830:  MOVLW  A4
0C832:  ADDWF  xFD,W
0C834:  MOVWF  FE9
0C836:  MOVLW  02
0C838:  ADDWFC xFE,W
0C83A:  MOVWF  FEA
0C83C:  CLRF   FEF
....................             TCiclos[i]=read_ext_eeprom((cicloVisto*320)+5+((cicloVisualizado+i)*9))+inttofloat(read_ext_eeprom((cicloVisto*320)+6+((cicloVisualizado+i)*9))); 
0C83E:  RLCF   xFD,W
0C840:  MOVWF  02
0C842:  RLCF   xFE,W
0C844:  MOVWF  03
0C846:  RLCF   02,F
0C848:  RLCF   03,F
0C84A:  MOVLW  FC
0C84C:  ANDWF  02,F
0C84E:  MOVF   02,W
0C850:  ADDLW  65
0C852:  MOVWF  01
0C854:  MOVLW  02
0C856:  ADDWFC 03,F
0C858:  MOVFF  01,64B
0C85C:  MOVLB  6
0C85E:  MOVFF  03,64C
0C862:  MOVFF  233,667
0C866:  MOVFF  232,666
0C86A:  MOVLW  01
0C86C:  MOVWF  x69
0C86E:  MOVLW  40
0C870:  MOVWF  x68
0C872:  MOVLB  0
0C874:  CALL   23E0
0C878:  MOVFF  02,64E
0C87C:  MOVFF  01,64D
0C880:  MOVLW  05
0C882:  MOVLB  6
0C884:  ADDWF  x4D,F
0C886:  MOVLW  00
0C888:  ADDWFC x4E,F
0C88A:  MOVLB  1
0C88C:  MOVF   xFD,W
0C88E:  MOVLB  2
0C890:  ADDWF  x30,W
0C892:  MOVLB  6
0C894:  MOVWF  x4F
0C896:  MOVLB  1
0C898:  MOVF   xFE,W
0C89A:  MOVLB  2
0C89C:  ADDWFC x31,W
0C89E:  MOVLB  6
0C8A0:  MOVWF  x50
0C8A2:  MOVWF  x67
0C8A4:  MOVFF  64F,666
0C8A8:  CLRF   x69
0C8AA:  MOVLW  09
0C8AC:  MOVWF  x68
0C8AE:  MOVLB  0
0C8B0:  CALL   23E0
0C8B4:  MOVFF  02,03
0C8B8:  MOVF   01,W
0C8BA:  MOVLB  6
0C8BC:  ADDWF  x4D,F
0C8BE:  MOVF   02,W
0C8C0:  ADDWFC x4E,F
0C8C2:  MOVFF  64E,651
0C8C6:  MOVFF  64D,650
0C8CA:  MOVLB  0
0C8CC:  CALL   24E2
0C8D0:  MOVFF  01,64D
0C8D4:  MOVFF  233,667
0C8D8:  MOVFF  232,666
0C8DC:  MOVLW  01
0C8DE:  MOVLB  6
0C8E0:  MOVWF  x69
0C8E2:  MOVLW  40
0C8E4:  MOVWF  x68
0C8E6:  MOVLB  0
0C8E8:  CALL   23E0
0C8EC:  MOVFF  02,64F
0C8F0:  MOVFF  01,64E
0C8F4:  MOVLW  06
0C8F6:  MOVLB  6
0C8F8:  ADDWF  x4E,F
0C8FA:  MOVLW  00
0C8FC:  ADDWFC x4F,F
0C8FE:  MOVLB  1
0C900:  MOVF   xFD,W
0C902:  MOVLB  2
0C904:  ADDWF  x30,W
0C906:  MOVLB  6
0C908:  MOVWF  x50
0C90A:  MOVLB  1
0C90C:  MOVF   xFE,W
0C90E:  MOVLB  2
0C910:  ADDWFC x31,W
0C912:  MOVLB  6
0C914:  MOVWF  x51
0C916:  MOVWF  x67
0C918:  MOVFF  650,666
0C91C:  CLRF   x69
0C91E:  MOVLW  09
0C920:  MOVWF  x68
0C922:  MOVLB  0
0C924:  CALL   23E0
0C928:  MOVFF  02,03
0C92C:  MOVF   01,W
0C92E:  MOVLB  6
0C930:  ADDWF  x4E,F
0C932:  MOVF   02,W
0C934:  ADDWFC x4F,F
0C936:  MOVFF  64F,651
0C93A:  MOVFF  64E,650
0C93E:  MOVLB  0
0C940:  CALL   24E2
0C944:  MOVFF  01,64E
0C948:  MOVFF  01,64F
0C94C:  CALL   258A
0C950:  MOVFF  00,64E
0C954:  MOVFF  01,64F
0C958:  MOVFF  02,650
0C95C:  MOVFF  03,651
0C960:  MOVLB  6
0C962:  CLRF   x61
0C964:  MOVFF  64D,660
0C968:  MOVLB  0
0C96A:  CALL   1F38
0C96E:  MOVFF  FEA,653
0C972:  MOVFF  FE9,652
0C976:  BCF    FD8.1
0C978:  MOVFF  03,666
0C97C:  MOVFF  02,665
0C980:  MOVFF  01,664
0C984:  MOVFF  00,663
0C988:  MOVFF  651,66A
0C98C:  MOVFF  650,669
0C990:  MOVFF  64F,668
0C994:  MOVFF  64E,667
0C998:  CALL   20F4
0C99C:  MOVFF  653,FEA
0C9A0:  MOVFF  652,FE9
0C9A4:  MOVFF  64C,FEA
0C9A8:  MOVFF  64B,FE9
0C9AC:  MOVFF  00,FEF
0C9B0:  MOVFF  01,FEC
0C9B4:  MOVFF  02,FEC
0C9B8:  MOVFF  03,FEC
....................             if(TCiclos[i]>150) 
0C9BC:  MOVLB  1
0C9BE:  RLCF   xFD,W
0C9C0:  MOVWF  02
0C9C2:  RLCF   xFE,W
0C9C4:  MOVWF  03
0C9C6:  RLCF   02,F
0C9C8:  RLCF   03,F
0C9CA:  MOVLW  FC
0C9CC:  ANDWF  02,F
0C9CE:  MOVF   02,W
0C9D0:  ADDLW  65
0C9D2:  MOVWF  FE9
0C9D4:  MOVLW  02
0C9D6:  ADDWFC 03,W
0C9D8:  MOVWF  FEA
0C9DA:  MOVFF  FEF,64B
0C9DE:  MOVFF  FEC,64C
0C9E2:  MOVFF  FEC,64D
0C9E6:  MOVFF  FEC,64E
0C9EA:  MOVLB  6
0C9EC:  CLRF   x52
0C9EE:  CLRF   x51
0C9F0:  MOVLW  16
0C9F2:  MOVWF  x50
0C9F4:  MOVLW  86
0C9F6:  MOVWF  x4F
0C9F8:  MOVFF  64E,656
0C9FC:  MOVFF  64D,655
0CA00:  MOVFF  64C,654
0CA04:  MOVFF  64B,653
0CA08:  MOVLB  0
0CA0A:  CALL   25CA
0CA0E:  BNC   CA38
....................                TCiclos[i]=0; 
0CA10:  MOVLB  1
0CA12:  RLCF   xFD,W
0CA14:  MOVWF  02
0CA16:  RLCF   xFE,W
0CA18:  MOVWF  03
0CA1A:  RLCF   02,F
0CA1C:  RLCF   03,F
0CA1E:  MOVLW  FC
0CA20:  ANDWF  02,F
0CA22:  MOVF   02,W
0CA24:  ADDLW  65
0CA26:  MOVWF  FE9
0CA28:  MOVLW  02
0CA2A:  ADDWFC 03,W
0CA2C:  MOVWF  FEA
0CA2E:  CLRF   FEF
0CA30:  CLRF   FEC
0CA32:  CLRF   FEC
0CA34:  CLRF   FEC
0CA36:  MOVLB  0
....................             PcCiclos[i]=make16(read_ext_eeprom((cicloVisto*320)+7+((cicloVisualizado+i)*9)),read_ext_eeprom((cicloVisto*320)+8+((cicloVisualizado+i)*9))); 
0CA38:  BCF    FD8.0
0CA3A:  MOVLB  1
0CA3C:  RLCF   xFD,W
0CA3E:  MOVWF  02
0CA40:  RLCF   xFE,W
0CA42:  MOVWF  03
0CA44:  MOVF   02,W
0CA46:  ADDLW  81
0CA48:  MOVWF  01
0CA4A:  MOVLW  02
0CA4C:  ADDWFC 03,F
0CA4E:  MOVFF  01,64B
0CA52:  MOVLB  6
0CA54:  MOVFF  03,64C
0CA58:  MOVFF  233,667
0CA5C:  MOVFF  232,666
0CA60:  MOVLW  01
0CA62:  MOVWF  x69
0CA64:  MOVLW  40
0CA66:  MOVWF  x68
0CA68:  MOVLB  0
0CA6A:  CALL   23E0
0CA6E:  MOVFF  02,64E
0CA72:  MOVFF  01,64D
0CA76:  MOVLW  07
0CA78:  MOVLB  6
0CA7A:  ADDWF  x4D,F
0CA7C:  MOVLW  00
0CA7E:  ADDWFC x4E,F
0CA80:  MOVLB  1
0CA82:  MOVF   xFD,W
0CA84:  MOVLB  2
0CA86:  ADDWF  x30,W
0CA88:  MOVLB  6
0CA8A:  MOVWF  x4F
0CA8C:  MOVLB  1
0CA8E:  MOVF   xFE,W
0CA90:  MOVLB  2
0CA92:  ADDWFC x31,W
0CA94:  MOVLB  6
0CA96:  MOVWF  x50
0CA98:  MOVWF  x67
0CA9A:  MOVFF  64F,666
0CA9E:  CLRF   x69
0CAA0:  MOVLW  09
0CAA2:  MOVWF  x68
0CAA4:  MOVLB  0
0CAA6:  CALL   23E0
0CAAA:  MOVFF  02,03
0CAAE:  MOVF   01,W
0CAB0:  MOVLB  6
0CAB2:  ADDWF  x4D,F
0CAB4:  MOVF   02,W
0CAB6:  ADDWFC x4E,F
0CAB8:  MOVFF  64E,651
0CABC:  MOVFF  64D,650
0CAC0:  MOVLB  0
0CAC2:  CALL   24E2
0CAC6:  MOVFF  01,64D
0CACA:  MOVFF  233,667
0CACE:  MOVFF  232,666
0CAD2:  MOVLW  01
0CAD4:  MOVLB  6
0CAD6:  MOVWF  x69
0CAD8:  MOVLW  40
0CADA:  MOVWF  x68
0CADC:  MOVLB  0
0CADE:  CALL   23E0
0CAE2:  MOVFF  02,64F
0CAE6:  MOVFF  01,64E
0CAEA:  MOVLW  08
0CAEC:  MOVLB  6
0CAEE:  ADDWF  x4E,F
0CAF0:  MOVLW  00
0CAF2:  ADDWFC x4F,F
0CAF4:  MOVLB  1
0CAF6:  MOVF   xFD,W
0CAF8:  MOVLB  2
0CAFA:  ADDWF  x30,W
0CAFC:  MOVLB  6
0CAFE:  MOVWF  x50
0CB00:  MOVLB  1
0CB02:  MOVF   xFE,W
0CB04:  MOVLB  2
0CB06:  ADDWFC x31,W
0CB08:  MOVLB  6
0CB0A:  MOVWF  x51
0CB0C:  MOVWF  x67
0CB0E:  MOVFF  650,666
0CB12:  CLRF   x69
0CB14:  MOVLW  09
0CB16:  MOVWF  x68
0CB18:  MOVLB  0
0CB1A:  CALL   23E0
0CB1E:  MOVFF  02,03
0CB22:  MOVF   01,W
0CB24:  MOVLB  6
0CB26:  ADDWF  x4E,F
0CB28:  MOVF   02,W
0CB2A:  ADDWFC x4F,F
0CB2C:  MOVFF  64F,651
0CB30:  MOVFF  64E,650
0CB34:  MOVLB  0
0CB36:  CALL   24E2
0CB3A:  MOVFF  64C,FEA
0CB3E:  MOVFF  64B,FE9
0CB42:  MOVFF  64D,FEC
0CB46:  MOVF   FED,F
0CB48:  MOVFF  01,FEF
....................             if(PcCiclos[i]>400) 
0CB4C:  BCF    FD8.0
0CB4E:  MOVLB  1
0CB50:  RLCF   xFD,W
0CB52:  MOVWF  02
0CB54:  RLCF   xFE,W
0CB56:  MOVWF  03
0CB58:  MOVF   02,W
0CB5A:  ADDLW  81
0CB5C:  MOVWF  FE9
0CB5E:  MOVLW  02
0CB60:  ADDWFC 03,W
0CB62:  MOVWF  FEA
0CB64:  MOVFF  FEC,64C
0CB68:  MOVF   FED,F
0CB6A:  MOVFF  FEF,64B
0CB6E:  MOVLB  6
0CB70:  MOVF   x4C,W
0CB72:  SUBLW  00
0CB74:  BC    CBA0
0CB76:  XORLW  FF
0CB78:  BNZ   CB80
0CB7A:  MOVF   x4B,W
0CB7C:  SUBLW  90
0CB7E:  BC    CBA0
....................                PcCiclos[i]=0; 
0CB80:  BCF    FD8.0
0CB82:  MOVLB  1
0CB84:  RLCF   xFD,W
0CB86:  MOVWF  02
0CB88:  RLCF   xFE,W
0CB8A:  MOVWF  03
0CB8C:  MOVF   02,W
0CB8E:  ADDLW  81
0CB90:  MOVWF  FE9
0CB92:  MOVLW  02
0CB94:  ADDWFC 03,W
0CB96:  MOVWF  FEA
0CB98:  CLRF   FEC
0CB9A:  MOVF   FED,F
0CB9C:  CLRF   FEF
0CB9E:  MOVLB  6
....................             PpcCiclos[i]=make16(read_ext_eeprom((cicloVisto*320)+9+((cicloVisualizado+i)*9)),read_ext_eeprom((cicloVisto*320)+10+((cicloVisualizado+i)*9))); 
0CBA0:  BCF    FD8.0
0CBA2:  MOVLB  1
0CBA4:  RLCF   xFD,W
0CBA6:  MOVWF  02
0CBA8:  RLCF   xFE,W
0CBAA:  MOVWF  03
0CBAC:  MOVF   02,W
0CBAE:  ADDLW  8F
0CBB0:  MOVWF  01
0CBB2:  MOVLW  02
0CBB4:  ADDWFC 03,F
0CBB6:  MOVFF  01,64B
0CBBA:  MOVLB  6
0CBBC:  MOVFF  03,64C
0CBC0:  MOVFF  233,667
0CBC4:  MOVFF  232,666
0CBC8:  MOVLW  01
0CBCA:  MOVWF  x69
0CBCC:  MOVLW  40
0CBCE:  MOVWF  x68
0CBD0:  MOVLB  0
0CBD2:  CALL   23E0
0CBD6:  MOVFF  02,64E
0CBDA:  MOVFF  01,64D
0CBDE:  MOVLW  09
0CBE0:  MOVLB  6
0CBE2:  ADDWF  x4D,F
0CBE4:  MOVLW  00
0CBE6:  ADDWFC x4E,F
0CBE8:  MOVLB  1
0CBEA:  MOVF   xFD,W
0CBEC:  MOVLB  2
0CBEE:  ADDWF  x30,W
0CBF0:  MOVLB  6
0CBF2:  MOVWF  x4F
0CBF4:  MOVLB  1
0CBF6:  MOVF   xFE,W
0CBF8:  MOVLB  2
0CBFA:  ADDWFC x31,W
0CBFC:  MOVLB  6
0CBFE:  MOVWF  x50
0CC00:  MOVWF  x67
0CC02:  MOVFF  64F,666
0CC06:  CLRF   x69
0CC08:  MOVLW  09
0CC0A:  MOVWF  x68
0CC0C:  MOVLB  0
0CC0E:  CALL   23E0
0CC12:  MOVFF  02,03
0CC16:  MOVF   01,W
0CC18:  MOVLB  6
0CC1A:  ADDWF  x4D,F
0CC1C:  MOVF   02,W
0CC1E:  ADDWFC x4E,F
0CC20:  MOVFF  64E,651
0CC24:  MOVFF  64D,650
0CC28:  MOVLB  0
0CC2A:  CALL   24E2
0CC2E:  MOVFF  01,64D
0CC32:  MOVFF  233,667
0CC36:  MOVFF  232,666
0CC3A:  MOVLW  01
0CC3C:  MOVLB  6
0CC3E:  MOVWF  x69
0CC40:  MOVLW  40
0CC42:  MOVWF  x68
0CC44:  MOVLB  0
0CC46:  CALL   23E0
0CC4A:  MOVFF  02,64F
0CC4E:  MOVFF  01,64E
0CC52:  MOVLW  0A
0CC54:  MOVLB  6
0CC56:  ADDWF  x4E,F
0CC58:  MOVLW  00
0CC5A:  ADDWFC x4F,F
0CC5C:  MOVLB  1
0CC5E:  MOVF   xFD,W
0CC60:  MOVLB  2
0CC62:  ADDWF  x30,W
0CC64:  MOVLB  6
0CC66:  MOVWF  x50
0CC68:  MOVLB  1
0CC6A:  MOVF   xFE,W
0CC6C:  MOVLB  2
0CC6E:  ADDWFC x31,W
0CC70:  MOVLB  6
0CC72:  MOVWF  x51
0CC74:  MOVWF  x67
0CC76:  MOVFF  650,666
0CC7A:  CLRF   x69
0CC7C:  MOVLW  09
0CC7E:  MOVWF  x68
0CC80:  MOVLB  0
0CC82:  CALL   23E0
0CC86:  MOVFF  02,03
0CC8A:  MOVF   01,W
0CC8C:  MOVLB  6
0CC8E:  ADDWF  x4E,F
0CC90:  MOVF   02,W
0CC92:  ADDWFC x4F,F
0CC94:  MOVFF  64F,651
0CC98:  MOVFF  64E,650
0CC9C:  MOVLB  0
0CC9E:  CALL   24E2
0CCA2:  MOVFF  64C,FEA
0CCA6:  MOVFF  64B,FE9
0CCAA:  MOVFF  64D,FEC
0CCAE:  MOVF   FED,F
0CCB0:  MOVFF  01,FEF
....................             if(PpcCiclos[i]>400) 
0CCB4:  BCF    FD8.0
0CCB6:  MOVLB  1
0CCB8:  RLCF   xFD,W
0CCBA:  MOVWF  02
0CCBC:  RLCF   xFE,W
0CCBE:  MOVWF  03
0CCC0:  MOVF   02,W
0CCC2:  ADDLW  8F
0CCC4:  MOVWF  FE9
0CCC6:  MOVLW  02
0CCC8:  ADDWFC 03,W
0CCCA:  MOVWF  FEA
0CCCC:  MOVFF  FEC,64C
0CCD0:  MOVF   FED,F
0CCD2:  MOVFF  FEF,64B
0CCD6:  MOVLB  6
0CCD8:  MOVF   x4C,W
0CCDA:  SUBLW  00
0CCDC:  BC    CD06
0CCDE:  XORLW  FF
0CCE0:  BNZ   CCE8
0CCE2:  MOVF   x4B,W
0CCE4:  SUBLW  90
0CCE6:  BC    CD06
....................                PpcCiclos[i]=0; 
0CCE8:  BCF    FD8.0
0CCEA:  MOVLB  1
0CCEC:  RLCF   xFD,W
0CCEE:  MOVWF  02
0CCF0:  RLCF   xFE,W
0CCF2:  MOVWF  03
0CCF4:  MOVF   02,W
0CCF6:  ADDLW  8F
0CCF8:  MOVWF  FE9
0CCFA:  MOVLW  02
0CCFC:  ADDWFC 03,W
0CCFE:  MOVWF  FEA
0CD00:  CLRF   FEC
0CD02:  MOVF   FED,F
0CD04:  CLRF   FEF
....................             ACiclos[i]=read_ext_eeprom((cicloVisto*320)+13+((cicloVisualizado+i)*9)); 
0CD06:  MOVLW  AB
0CD08:  MOVLB  1
0CD0A:  ADDWF  xFD,W
0CD0C:  MOVWF  01
0CD0E:  MOVLW  02
0CD10:  ADDWFC xFE,W
0CD12:  MOVWF  03
0CD14:  MOVFF  01,64B
0CD18:  MOVLB  6
0CD1A:  MOVWF  x4C
0CD1C:  MOVFF  233,667
0CD20:  MOVFF  232,666
0CD24:  MOVLW  01
0CD26:  MOVWF  x69
0CD28:  MOVLW  40
0CD2A:  MOVWF  x68
0CD2C:  MOVLB  0
0CD2E:  CALL   23E0
0CD32:  MOVFF  02,64E
0CD36:  MOVFF  01,64D
0CD3A:  MOVLW  0D
0CD3C:  MOVLB  6
0CD3E:  ADDWF  x4D,F
0CD40:  MOVLW  00
0CD42:  ADDWFC x4E,F
0CD44:  MOVLB  1
0CD46:  MOVF   xFD,W
0CD48:  MOVLB  2
0CD4A:  ADDWF  x30,W
0CD4C:  MOVLB  6
0CD4E:  MOVWF  x4F
0CD50:  MOVLB  1
0CD52:  MOVF   xFE,W
0CD54:  MOVLB  2
0CD56:  ADDWFC x31,W
0CD58:  MOVLB  6
0CD5A:  MOVWF  x50
0CD5C:  MOVWF  x67
0CD5E:  MOVFF  64F,666
0CD62:  CLRF   x69
0CD64:  MOVLW  09
0CD66:  MOVWF  x68
0CD68:  MOVLB  0
0CD6A:  CALL   23E0
0CD6E:  MOVFF  02,03
0CD72:  MOVF   01,W
0CD74:  MOVLB  6
0CD76:  ADDWF  x4D,F
0CD78:  MOVF   02,W
0CD7A:  ADDWFC x4E,F
0CD7C:  MOVFF  64E,651
0CD80:  MOVFF  64D,650
0CD84:  MOVLB  0
0CD86:  CALL   24E2
0CD8A:  MOVFF  64C,FEA
0CD8E:  MOVFF  64B,FE9
0CD92:  MOVFF  01,FEF
....................             if(ACiclos[i]>20) 
0CD96:  MOVLW  AB
0CD98:  MOVLB  1
0CD9A:  ADDWF  xFD,W
0CD9C:  MOVWF  FE9
0CD9E:  MOVLW  02
0CDA0:  ADDWFC xFE,W
0CDA2:  MOVWF  FEA
0CDA4:  MOVF   FEF,W
0CDA6:  SUBLW  14
0CDA8:  BC    CDB8
....................                ACiclos[i]=0; 
0CDAA:  MOVLW  AB
0CDAC:  ADDWF  xFD,W
0CDAE:  MOVWF  FE9
0CDB0:  MOVLW  02
0CDB2:  ADDWFC xFE,W
0CDB4:  MOVWF  FEA
0CDB6:  CLRF   FEF
....................          } 
0CDB8:  INCF   xFD,F
0CDBA:  BTFSC  FD8.2
0CDBC:  INCF   xFE,F
0CDBE:  BRA    C6D0
0CDC0:  MOVLB  0
....................       } 
....................        
....................       //Imprime Valores Estaticos 
....................       printf("fecha.txt=\"%02u/%02u/%02u\"",diaCiclos,mesCiclos,yearCiclos); 
0CDC2:  MOVLW  74
0CDC4:  MOVWF  FF6
0CDC6:  MOVLW  13
0CDC8:  MOVWF  FF7
0CDCA:  MOVLW  00
0CDCC:  MOVWF  FF8
0CDCE:  MOVLW  0B
0CDD0:  MOVLB  6
0CDD2:  MOVWF  x51
0CDD4:  MOVLB  0
0CDD6:  CALL   5AAC
0CDDA:  MOVFF  2B2,651
0CDDE:  MOVLW  01
0CDE0:  MOVLB  6
0CDE2:  MOVWF  x52
0CDE4:  MOVLB  0
0CDE6:  CALL   5B30
0CDEA:  MOVLW  2F
0CDEC:  BTFSS  F9E.4
0CDEE:  BRA    CDEC
0CDF0:  MOVWF  FAD
0CDF2:  MOVFF  2B3,651
0CDF6:  MOVLW  01
0CDF8:  MOVLB  6
0CDFA:  MOVWF  x52
0CDFC:  MOVLB  0
0CDFE:  CALL   5B30
0CE02:  MOVLW  2F
0CE04:  BTFSS  F9E.4
0CE06:  BRA    CE04
0CE08:  MOVWF  FAD
0CE0A:  MOVFF  2B4,651
0CE0E:  MOVLW  01
0CE10:  MOVLB  6
0CE12:  MOVWF  x52
0CE14:  MOVLB  0
0CE16:  CALL   5B30
0CE1A:  MOVLW  22
0CE1C:  BTFSS  F9E.4
0CE1E:  BRA    CE1C
0CE20:  MOVWF  FAD
....................       SendDataDisplay(); 
0CE22:  CALL   427A
....................        
....................       printf("ciclo.txt=\"%02u\"",cicloCiclos); 
0CE26:  MOVLW  90
0CE28:  MOVWF  FF6
0CE2A:  MOVLW  13
0CE2C:  MOVWF  FF7
0CE2E:  MOVLW  00
0CE30:  MOVWF  FF8
0CE32:  MOVLW  0B
0CE34:  MOVLB  6
0CE36:  MOVWF  x51
0CE38:  MOVLB  0
0CE3A:  CALL   5AAC
0CE3E:  MOVFF  2B6,651
0CE42:  MOVLW  01
0CE44:  MOVLB  6
0CE46:  MOVWF  x52
0CE48:  MOVLB  0
0CE4A:  CALL   5B30
0CE4E:  MOVLW  22
0CE50:  BTFSS  F9E.4
0CE52:  BRA    CE50
0CE54:  MOVWF  FAD
....................       SendDataDisplay(); 
0CE56:  CALL   427A
....................        
....................       printf("t0.txt=\"Ciclo %03Lu\"",cicloVisto+1); 
0CE5A:  MOVLW  01
0CE5C:  MOVLB  2
0CE5E:  ADDWF  x32,W
0CE60:  MOVLB  6
0CE62:  MOVWF  x4B
0CE64:  MOVLW  00
0CE66:  MOVLB  2
0CE68:  ADDWFC x33,W
0CE6A:  MOVLB  6
0CE6C:  MOVWF  x4C
0CE6E:  MOVLW  A2
0CE70:  MOVWF  FF6
0CE72:  MOVLW  13
0CE74:  MOVWF  FF7
0CE76:  MOVLW  00
0CE78:  MOVWF  FF8
0CE7A:  MOVLW  0E
0CE7C:  MOVWF  x51
0CE7E:  MOVLB  0
0CE80:  CALL   5AAC
0CE84:  MOVLW  0A
0CE86:  MOVWF  FE9
0CE88:  MOVFF  64C,652
0CE8C:  MOVFF  64B,651
0CE90:  CALL   62B6
0CE94:  MOVLW  22
0CE96:  BTFSS  F9E.4
0CE98:  BRA    CE96
0CE9A:  MOVWF  FAD
....................       SendDataDisplay(); 
0CE9C:  CALL   427A
....................        
....................       if(usuarioCiclos==0){ 
0CEA0:  MOVLB  2
0CEA2:  MOVF   xB5,F
0CEA4:  BNZ   CEC0
....................          printf("usuario.txt=\"Admin\""); 
0CEA6:  MOVLW  B8
0CEA8:  MOVWF  FF6
0CEAA:  MOVLW  13
0CEAC:  MOVWF  FF7
0CEAE:  MOVLW  00
0CEB0:  MOVWF  FF8
0CEB2:  MOVLB  0
0CEB4:  CALL   4248
....................          SendDataDisplay(); 
0CEB8:  CALL   427A
....................       }else if(usuarioCiclos>0 && usuarioCiclos<9){ 
0CEBC:  BRA    CF1E
0CEBE:  MOVLB  2
0CEC0:  MOVF   xB5,F
0CEC2:  BZ    CF02
0CEC4:  MOVF   xB5,W
0CEC6:  SUBLW  08
0CEC8:  BNC   CF02
....................          printf("usuario.txt=\"Operador%u\"",usuarioCiclos); 
0CECA:  MOVLW  CC
0CECC:  MOVWF  FF6
0CECE:  MOVLW  13
0CED0:  MOVWF  FF7
0CED2:  MOVLW  00
0CED4:  MOVWF  FF8
0CED6:  MOVLW  15
0CED8:  MOVLB  6
0CEDA:  MOVWF  x51
0CEDC:  MOVLB  0
0CEDE:  CALL   5AAC
0CEE2:  MOVFF  2B5,651
0CEE6:  MOVLW  1B
0CEE8:  MOVLB  6
0CEEA:  MOVWF  x52
0CEEC:  MOVLB  0
0CEEE:  CALL   5B30
0CEF2:  MOVLW  22
0CEF4:  BTFSS  F9E.4
0CEF6:  BRA    CEF4
0CEF8:  MOVWF  FAD
....................          SendDataDisplay(); 
0CEFA:  CALL   427A
....................       }else if(usuarioCiclos==9){ 
0CEFE:  BRA    CF1E
0CF00:  MOVLB  2
0CF02:  MOVF   xB5,W
0CF04:  SUBLW  09
0CF06:  BNZ   CF1E
....................          printf("usuario.txt=\"Tecnico\""); 
0CF08:  MOVLW  E6
0CF0A:  MOVWF  FF6
0CF0C:  MOVLW  13
0CF0E:  MOVWF  FF7
0CF10:  MOVLW  00
0CF12:  MOVWF  FF8
0CF14:  MOVLB  0
0CF16:  CALL   4248
....................          SendDataDisplay(); 
0CF1A:  CALL   427A
....................       } 
....................        
....................       //Imprime Valores Dinamicos 
....................       for(i=0;i<7;i++){ 
0CF1E:  MOVLB  1
0CF20:  CLRF   xFE
0CF22:  CLRF   xFD
0CF24:  MOVF   xFE,F
0CF26:  BTFSS  FD8.2
0CF28:  BRA    D220
0CF2A:  MOVF   xFD,W
0CF2C:  SUBLW  06
0CF2E:  BTFSS  FD8.0
0CF30:  BRA    D220
....................          printf("hora%Lu.txt=\"%02Lu.  %02u:%02u\"",i+1,cicloVisualizado+i+1,horaCiclos[i],minutoCiclos[i]); 
0CF32:  MOVLW  01
0CF34:  ADDWF  xFD,W
0CF36:  MOVLB  6
0CF38:  MOVWF  x4B
0CF3A:  MOVLW  00
0CF3C:  MOVLB  1
0CF3E:  ADDWFC xFE,W
0CF40:  MOVLB  6
0CF42:  MOVWF  x4C
0CF44:  MOVLB  1
0CF46:  MOVF   xFD,W
0CF48:  MOVLB  2
0CF4A:  ADDWF  x30,W
0CF4C:  MOVLB  6
0CF4E:  MOVWF  x4D
0CF50:  MOVLB  1
0CF52:  MOVF   xFE,W
0CF54:  MOVLB  2
0CF56:  ADDWFC x31,W
0CF58:  MOVLB  6
0CF5A:  MOVWF  x4E
0CF5C:  MOVLW  01
0CF5E:  ADDWF  x4D,F
0CF60:  MOVLW  00
0CF62:  ADDWFC x4E,F
0CF64:  MOVLW  9D
0CF66:  MOVLB  1
0CF68:  ADDWF  xFD,W
0CF6A:  MOVWF  FE9
0CF6C:  MOVLW  02
0CF6E:  ADDWFC xFE,W
0CF70:  MOVWF  FEA
0CF72:  MOVFF  FEF,64F
0CF76:  MOVLW  A4
0CF78:  ADDWF  xFD,W
0CF7A:  MOVWF  FE9
0CF7C:  MOVLW  02
0CF7E:  ADDWFC xFE,W
0CF80:  MOVWF  FEA
0CF82:  MOVFF  FEF,650
0CF86:  MOVLW  FC
0CF88:  MOVWF  FF6
0CF8A:  MOVLW  13
0CF8C:  MOVWF  FF7
0CF8E:  MOVLW  00
0CF90:  MOVWF  FF8
0CF92:  MOVLW  04
0CF94:  MOVLB  6
0CF96:  MOVWF  x51
0CF98:  MOVLB  0
0CF9A:  CALL   5AAC
0CF9E:  MOVLW  10
0CFA0:  MOVWF  FE9
0CFA2:  MOVFF  64C,652
0CFA6:  MOVFF  64B,651
0CFAA:  CALL   62B6
0CFAE:  MOVLW  03
0CFB0:  MOVWF  FF6
0CFB2:  MOVLW  14
0CFB4:  MOVWF  FF7
0CFB6:  MOVLW  00
0CFB8:  MOVWF  FF8
0CFBA:  MOVLW  06
0CFBC:  MOVLB  6
0CFBE:  MOVWF  x51
0CFC0:  MOVLB  0
0CFC2:  CALL   5AAC
0CFC6:  MOVLW  0B
0CFC8:  MOVWF  FE9
0CFCA:  MOVFF  64E,652
0CFCE:  MOVFF  64D,651
0CFD2:  CALL   62B6
0CFD6:  MOVLW  2E
0CFD8:  BTFSS  F9E.4
0CFDA:  BRA    CFD8
0CFDC:  MOVWF  FAD
0CFDE:  MOVLW  20
0CFE0:  BTFSS  F9E.4
0CFE2:  BRA    CFE0
0CFE4:  MOVWF  FAD
0CFE6:  MOVLW  20
0CFE8:  BTFSS  F9E.4
0CFEA:  BRA    CFE8
0CFEC:  MOVWF  FAD
0CFEE:  MOVFF  64F,651
0CFF2:  MOVLW  01
0CFF4:  MOVLB  6
0CFF6:  MOVWF  x52
0CFF8:  MOVLB  0
0CFFA:  CALL   5B30
0CFFE:  MOVLW  3A
0D000:  BTFSS  F9E.4
0D002:  BRA    D000
0D004:  MOVWF  FAD
0D006:  MOVFF  650,651
0D00A:  MOVLW  01
0D00C:  MOVLB  6
0D00E:  MOVWF  x52
0D010:  MOVLB  0
0D012:  CALL   5B30
0D016:  MOVLW  22
0D018:  BTFSS  F9E.4
0D01A:  BRA    D018
0D01C:  MOVWF  FAD
....................          SendDataDisplay(); 
0D01E:  CALL   427A
....................          printf("T%Lu.txt=\"%3.1fC\"",i+1,TCiclos[i]); 
0D022:  MOVLW  01
0D024:  MOVLB  1
0D026:  ADDWF  xFD,W
0D028:  MOVLB  6
0D02A:  MOVWF  x4B
0D02C:  MOVLW  00
0D02E:  MOVLB  1
0D030:  ADDWFC xFE,W
0D032:  MOVLB  6
0D034:  MOVWF  x4C
0D036:  MOVLB  1
0D038:  RLCF   xFD,W
0D03A:  MOVWF  02
0D03C:  RLCF   xFE,W
0D03E:  MOVWF  03
0D040:  RLCF   02,F
0D042:  RLCF   03,F
0D044:  MOVLW  FC
0D046:  ANDWF  02,F
0D048:  MOVF   02,W
0D04A:  ADDLW  65
0D04C:  MOVWF  FE9
0D04E:  MOVLW  02
0D050:  ADDWFC 03,W
0D052:  MOVWF  FEA
0D054:  MOVFF  FEF,64D
0D058:  MOVFF  FEC,64E
0D05C:  MOVFF  FEC,64F
0D060:  MOVFF  FEC,650
0D064:  MOVLW  54
0D066:  BTFSS  F9E.4
0D068:  BRA    D066
0D06A:  MOVWF  FAD
0D06C:  MOVLW  10
0D06E:  MOVWF  FE9
0D070:  MOVFF  64C,652
0D074:  MOVFF  64B,651
0D078:  MOVLB  0
0D07A:  CALL   62B6
0D07E:  MOVLW  20
0D080:  MOVWF  FF6
0D082:  MOVLW  14
0D084:  MOVWF  FF7
0D086:  MOVLW  00
0D088:  MOVWF  FF8
0D08A:  MOVLW  06
0D08C:  MOVLB  6
0D08E:  MOVWF  x51
0D090:  MOVLB  0
0D092:  CALL   5AAC
0D096:  MOVLW  02
0D098:  MOVWF  FE9
0D09A:  MOVFF  650,654
0D09E:  MOVFF  64F,653
0D0A2:  MOVFF  64E,652
0D0A6:  MOVFF  64D,651
0D0AA:  MOVLW  01
0D0AC:  MOVLB  6
0D0AE:  MOVWF  x55
0D0B0:  MOVLB  0
0D0B2:  CALL   6424
0D0B6:  MOVLW  B0
0D0B8:  BTFSS  F9E.4
0D0BA:  BRA    D0B8
0D0BC:  MOVWF  FAD
0D0BE:  MOVLW  43
0D0C0:  BTFSS  F9E.4
0D0C2:  BRA    D0C0
0D0C4:  MOVWF  FAD
0D0C6:  MOVLW  22
0D0C8:  BTFSS  F9E.4
0D0CA:  BRA    D0C8
0D0CC:  MOVWF  FAD
....................          SendDataDisplay(); 
0D0CE:  CALL   427A
....................          printf("Pc%Lu.txt=\"%03LukPa\"",i+1,PcCiclos[i]); 
0D0D2:  MOVLW  01
0D0D4:  MOVLB  1
0D0D6:  ADDWF  xFD,W
0D0D8:  MOVLB  6
0D0DA:  MOVWF  x4B
0D0DC:  MOVLW  00
0D0DE:  MOVLB  1
0D0E0:  ADDWFC xFE,W
0D0E2:  MOVLB  6
0D0E4:  MOVWF  x4C
0D0E6:  BCF    FD8.0
0D0E8:  MOVLB  1
0D0EA:  RLCF   xFD,W
0D0EC:  MOVWF  02
0D0EE:  RLCF   xFE,W
0D0F0:  MOVWF  03
0D0F2:  MOVF   02,W
0D0F4:  ADDLW  81
0D0F6:  MOVWF  FE9
0D0F8:  MOVLW  02
0D0FA:  ADDWFC 03,W
0D0FC:  MOVWF  FEA
0D0FE:  MOVFF  FEC,64E
0D102:  MOVF   FED,F
0D104:  MOVFF  FEF,64D
0D108:  MOVLW  50
0D10A:  BTFSS  F9E.4
0D10C:  BRA    D10A
0D10E:  MOVWF  FAD
0D110:  MOVLW  63
0D112:  BTFSS  F9E.4
0D114:  BRA    D112
0D116:  MOVWF  FAD
0D118:  MOVLW  10
0D11A:  MOVWF  FE9
0D11C:  MOVFF  64C,652
0D120:  MOVFF  64B,651
0D124:  MOVLB  0
0D126:  CALL   62B6
0D12A:  MOVLW  35
0D12C:  MOVWF  FF6
0D12E:  MOVLW  14
0D130:  MOVWF  FF7
0D132:  MOVLW  00
0D134:  MOVWF  FF8
0D136:  MOVLW  06
0D138:  MOVLB  6
0D13A:  MOVWF  x51
0D13C:  MOVLB  0
0D13E:  CALL   5AAC
0D142:  MOVLW  0A
0D144:  MOVWF  FE9
0D146:  MOVFF  64E,652
0D14A:  MOVFF  64D,651
0D14E:  CALL   62B6
0D152:  MOVLW  40
0D154:  MOVWF  FF6
0D156:  MOVLW  14
0D158:  MOVWF  FF7
0D15A:  MOVLW  00
0D15C:  MOVWF  FF8
0D15E:  MOVLW  04
0D160:  MOVLB  6
0D162:  MOVWF  x51
0D164:  MOVLB  0
0D166:  CALL   5AAC
....................          SendDataDisplay(); 
0D16A:  CALL   427A
....................          printf("Ppc%Lu.txt=\"%03LukPa\"",i+1,PpcCiclos[i]); 
0D16E:  MOVLW  01
0D170:  MOVLB  1
0D172:  ADDWF  xFD,W
0D174:  MOVLB  6
0D176:  MOVWF  x4B
0D178:  MOVLW  00
0D17A:  MOVLB  1
0D17C:  ADDWFC xFE,W
0D17E:  MOVLB  6
0D180:  MOVWF  x4C
0D182:  BCF    FD8.0
0D184:  MOVLB  1
0D186:  RLCF   xFD,W
0D188:  MOVWF  02
0D18A:  RLCF   xFE,W
0D18C:  MOVWF  03
0D18E:  MOVF   02,W
0D190:  ADDLW  8F
0D192:  MOVWF  FE9
0D194:  MOVLW  02
0D196:  ADDWFC 03,W
0D198:  MOVWF  FEA
0D19A:  MOVFF  FEC,64E
0D19E:  MOVF   FED,F
0D1A0:  MOVFF  FEF,64D
0D1A4:  MOVLW  50
0D1A6:  BTFSS  F9E.4
0D1A8:  BRA    D1A6
0D1AA:  MOVWF  FAD
0D1AC:  MOVLW  70
0D1AE:  BTFSS  F9E.4
0D1B0:  BRA    D1AE
0D1B2:  MOVWF  FAD
0D1B4:  MOVLW  63
0D1B6:  BTFSS  F9E.4
0D1B8:  BRA    D1B6
0D1BA:  MOVWF  FAD
0D1BC:  MOVLW  10
0D1BE:  MOVWF  FE9
0D1C0:  MOVFF  64C,652
0D1C4:  MOVFF  64B,651
0D1C8:  MOVLB  0
0D1CA:  CALL   62B6
0D1CE:  MOVLW  4C
0D1D0:  MOVWF  FF6
0D1D2:  MOVLW  14
0D1D4:  MOVWF  FF7
0D1D6:  MOVLW  00
0D1D8:  MOVWF  FF8
0D1DA:  MOVLW  06
0D1DC:  MOVLB  6
0D1DE:  MOVWF  x51
0D1E0:  MOVLB  0
0D1E2:  CALL   5AAC
0D1E6:  MOVLW  0A
0D1E8:  MOVWF  FE9
0D1EA:  MOVFF  64E,652
0D1EE:  MOVFF  64D,651
0D1F2:  CALL   62B6
0D1F6:  MOVLW  57
0D1F8:  MOVWF  FF6
0D1FA:  MOVLW  14
0D1FC:  MOVWF  FF7
0D1FE:  MOVLW  00
0D200:  MOVWF  FF8
0D202:  MOVLW  04
0D204:  MOVLB  6
0D206:  MOVWF  x51
0D208:  MOVLB  0
0D20A:  CALL   5AAC
....................          SendDataDisplay();          
0D20E:  CALL   427A
....................          codificaAlarma(); 
0D212:  GOTO   6A92
....................       }   
0D216:  MOVLB  1
0D218:  INCF   xFD,F
0D21A:  BTFSC  FD8.2
0D21C:  INCF   xFE,F
0D21E:  BRA    CF24
....................    } 
.................... //_--------------------------------------------------------------------------------------------------------------------------------------------------------       
....................  
.................... //_--------------------------------------------------------------------------------------------------------------------------------------------------------       
....................     if(Menu==13){//Menu de Nivel de Desfogue 
0D220:  MOVF   xF0,W
0D222:  SUBLW  0D
0D224:  BTFSS  FD8.2
0D226:  BRA    D3FA
....................       printf("fecha.txt=\"Fecha:%02u/%02u/20%02u    Hora: %02u:%02u:%02u\"",Dia,Mes,Year,Hora,Minuto,Segundo); 
0D228:  MOVLW  5C
0D22A:  MOVWF  FF6
0D22C:  MOVLW  14
0D22E:  MOVWF  FF7
0D230:  MOVLW  00
0D232:  MOVWF  FF8
0D234:  MOVLW  11
0D236:  MOVLB  6
0D238:  MOVWF  x51
0D23A:  MOVLB  0
0D23C:  CALL   5AAC
0D240:  MOVFF  236,651
0D244:  MOVLW  01
0D246:  MOVLB  6
0D248:  MOVWF  x52
0D24A:  MOVLB  0
0D24C:  CALL   5B30
0D250:  MOVLW  2F
0D252:  BTFSS  F9E.4
0D254:  BRA    D252
0D256:  MOVWF  FAD
0D258:  MOVFF  235,651
0D25C:  MOVLW  01
0D25E:  MOVLB  6
0D260:  MOVWF  x52
0D262:  MOVLB  0
0D264:  CALL   5B30
0D268:  MOVLW  2F
0D26A:  BTFSS  F9E.4
0D26C:  BRA    D26A
0D26E:  MOVWF  FAD
0D270:  MOVLW  32
0D272:  BTFSS  F9E.4
0D274:  BRA    D272
0D276:  MOVWF  FAD
0D278:  MOVLW  30
0D27A:  BTFSS  F9E.4
0D27C:  BRA    D27A
0D27E:  MOVWF  FAD
0D280:  MOVFF  234,651
0D284:  MOVLW  01
0D286:  MOVLB  6
0D288:  MOVWF  x52
0D28A:  MOVLB  0
0D28C:  CALL   5B30
0D290:  MOVLW  7D
0D292:  MOVWF  FF6
0D294:  MOVLW  14
0D296:  MOVWF  FF7
0D298:  MOVLW  00
0D29A:  MOVWF  FF8
0D29C:  MOVLW  0A
0D29E:  MOVLB  6
0D2A0:  MOVWF  x51
0D2A2:  MOVLB  0
0D2A4:  CALL   5AAC
0D2A8:  MOVFF  237,651
0D2AC:  MOVLW  01
0D2AE:  MOVLB  6
0D2B0:  MOVWF  x52
0D2B2:  MOVLB  0
0D2B4:  CALL   5B30
0D2B8:  MOVLW  3A
0D2BA:  BTFSS  F9E.4
0D2BC:  BRA    D2BA
0D2BE:  MOVWF  FAD
0D2C0:  MOVFF  238,651
0D2C4:  MOVLW  01
0D2C6:  MOVLB  6
0D2C8:  MOVWF  x52
0D2CA:  MOVLB  0
0D2CC:  CALL   5B30
0D2D0:  MOVLW  3A
0D2D2:  BTFSS  F9E.4
0D2D4:  BRA    D2D2
0D2D6:  MOVWF  FAD
0D2D8:  MOVFF  239,651
0D2DC:  MOVLW  01
0D2DE:  MOVLB  6
0D2E0:  MOVWF  x52
0D2E2:  MOVLB  0
0D2E4:  CALL   5B30
0D2E8:  MOVLW  22
0D2EA:  BTFSS  F9E.4
0D2EC:  BRA    D2EA
0D2EE:  MOVWF  FAD
....................       SendDataDisplay(); 
0D2F0:  CALL   427A
....................          if(NivelDes<1) 
0D2F4:  MOVLB  2
0D2F6:  MOVF   x24,F
0D2F8:  BNZ   D2FE
....................             NivelDes=6; 
0D2FA:  MOVLW  06
0D2FC:  MOVWF  x24
....................          if(NivelDes>6) 
0D2FE:  MOVF   x24,W
0D300:  SUBLW  06
0D302:  BC    D308
....................             NivelDes=1; 
0D304:  MOVLW  01
0D306:  MOVWF  x24
....................           
....................          if(RX_Buffer[4]==0x11){//Selecciono Regresar 
0D308:  MOVF   34,W
0D30A:  SUBLW  11
0D30C:  BNZ   D3AC
....................             Segundos=OFF; 
0D30E:  MOVLB  0
0D310:  BCF    xA7.3
....................             Minutos=OFF;             
0D312:  BCF    xA7.2
....................             tiempo_secado=0; 
0D314:  MOVLB  2
0D316:  CLRF   x03
....................             printf("page CicloPersona"); 
0D318:  MOVLW  98
0D31A:  MOVWF  FF6
0D31C:  MOVLW  14
0D31E:  MOVWF  FF7
0D320:  MOVLW  00
0D322:  MOVWF  FF8
0D324:  MOVLB  0
0D326:  CALL   4248
....................             SendDataDisplay();   
0D32A:  CALL   427A
....................             if(!GuardaEEPROM){     
0D32E:  BTFSC  xA7.4
0D330:  BRA    D3AA
....................                CiclosPersonalizados[CicloLibre-1].NivelDesfogue=NivelDes; 
0D332:  MOVLW  01
0D334:  MOVLB  2
0D336:  SUBWF  x48,W
0D338:  MULLW  08
0D33A:  MOVF   FF3,W
0D33C:  MOVLB  6
0D33E:  CLRF   x4C
0D340:  MOVWF  x4B
0D342:  MOVLW  07
0D344:  ADDWF  x4B,W
0D346:  MOVWF  01
0D348:  MOVLW  00
0D34A:  ADDWFC x4C,W
0D34C:  MOVWF  03
0D34E:  MOVF   01,W
0D350:  ADDLW  83
0D352:  MOVWF  FE9
0D354:  MOVLW  05
0D356:  ADDWFC 03,W
0D358:  MOVWF  FEA
0D35A:  MOVFF  224,FEF
....................                write_eeprom(107+((CicloLibre-1)*8),NivelDes); 
0D35E:  MOVLW  01
0D360:  MOVLB  2
0D362:  SUBWF  x48,W
0D364:  MULLW  08
0D366:  MOVF   FF3,W
0D368:  ADDLW  6B
0D36A:  MOVLB  6
0D36C:  MOVWF  x4B
0D36E:  CLRF   FAA
0D370:  MOVFF  64B,FA9
0D374:  MOVFF  224,FA8
0D378:  BCF    FA6.6
0D37A:  BCF    FA6.7
0D37C:  BSF    FA6.2
0D37E:  MOVF   FF2,W
0D380:  MOVWF  00
0D382:  BCF    FF2.6
0D384:  BCF    FF2.7
0D386:  MOVLB  F
0D388:  MOVLW  55
0D38A:  MOVWF  FA7
0D38C:  MOVLW  AA
0D38E:  MOVWF  FA7
0D390:  BSF    FA6.1
0D392:  BTFSC  FA6.1
0D394:  BRA    D392
0D396:  BCF    FA6.2
0D398:  MOVF   00,W
0D39A:  IORWF  FF2,F
....................                delay_ms(20);             
0D39C:  MOVLW  14
0D39E:  MOVLB  6
0D3A0:  MOVWF  x64
0D3A2:  MOVLB  0
0D3A4:  CALL   1F6E
....................                GuardaEEPROM=ON; 
0D3A8:  BSF    xA7.4
0D3AA:  MOVLB  2
....................             } 
....................          } 
....................           
....................          if(RX_Buffer[4]==0x0d){//Tecla Arriba Oprimida 
0D3AC:  MOVF   34,W
0D3AE:  SUBLW  0D
0D3B0:  BNZ   D3B8
....................             NivelDes++; 
0D3B2:  INCF   x24,F
....................             RX_Buffer[4]=0x00;             
0D3B4:  CLRF   34
....................             RX_Buffer2[4]=0x00;                        
0D3B6:  CLRF   3F
....................          } 
....................           
....................          if(RX_Buffer[4]==0x0c){//Tecla Abajo Oprimida 
0D3B8:  MOVF   34,W
0D3BA:  SUBLW  0C
0D3BC:  BNZ   D3C4
....................             NivelDes--; 
0D3BE:  DECF   x24,F
....................             RX_Buffer[4]=0x00; 
0D3C0:  CLRF   34
....................             RX_Buffer2[4]=0x00;                         
0D3C2:  CLRF   3F
....................          } 
....................           
....................       printf("tnivel.txt=\"%u\"",NivelDes); 
0D3C4:  MOVLW  AA
0D3C6:  MOVWF  FF6
0D3C8:  MOVLW  14
0D3CA:  MOVWF  FF7
0D3CC:  MOVLW  00
0D3CE:  MOVWF  FF8
0D3D0:  MOVLW  0C
0D3D2:  MOVLB  6
0D3D4:  MOVWF  x51
0D3D6:  MOVLB  0
0D3D8:  CALL   5AAC
0D3DC:  MOVFF  224,651
0D3E0:  MOVLW  1B
0D3E2:  MOVLB  6
0D3E4:  MOVWF  x52
0D3E6:  MOVLB  0
0D3E8:  CALL   5B30
0D3EC:  MOVLW  22
0D3EE:  BTFSS  F9E.4
0D3F0:  BRA    D3EE
0D3F2:  MOVWF  FAD
....................       SendDataDisplay(); 
0D3F4:  CALL   427A
0D3F8:  MOVLB  1
....................    } 
.................... //_--------------------------------------------------------------------------------------------------------------------------------------------------------       
....................  
.................... //_--------------------------------------------------------------------------------------------------------------------------------------------------------       
....................     if(Menu==14){//Menu de Activacion de Ciclos 
0D3FA:  MOVF   xF0,W
0D3FC:  SUBLW  0E
0D3FE:  BTFSS  FD8.2
0D400:  BRA    D658
....................       printf("fecha.txt=\"Fecha:%02u/%02u/20%02u    Hora: %02u:%02u:%02u\"",Dia,Mes,Year,Hora,Minuto,Segundo); 
0D402:  MOVLW  BA
0D404:  MOVWF  FF6
0D406:  MOVLW  14
0D408:  MOVWF  FF7
0D40A:  MOVLW  00
0D40C:  MOVWF  FF8
0D40E:  MOVLW  11
0D410:  MOVLB  6
0D412:  MOVWF  x51
0D414:  MOVLB  0
0D416:  CALL   5AAC
0D41A:  MOVFF  236,651
0D41E:  MOVLW  01
0D420:  MOVLB  6
0D422:  MOVWF  x52
0D424:  MOVLB  0
0D426:  CALL   5B30
0D42A:  MOVLW  2F
0D42C:  BTFSS  F9E.4
0D42E:  BRA    D42C
0D430:  MOVWF  FAD
0D432:  MOVFF  235,651
0D436:  MOVLW  01
0D438:  MOVLB  6
0D43A:  MOVWF  x52
0D43C:  MOVLB  0
0D43E:  CALL   5B30
0D442:  MOVLW  2F
0D444:  BTFSS  F9E.4
0D446:  BRA    D444
0D448:  MOVWF  FAD
0D44A:  MOVLW  32
0D44C:  BTFSS  F9E.4
0D44E:  BRA    D44C
0D450:  MOVWF  FAD
0D452:  MOVLW  30
0D454:  BTFSS  F9E.4
0D456:  BRA    D454
0D458:  MOVWF  FAD
0D45A:  MOVFF  234,651
0D45E:  MOVLW  01
0D460:  MOVLB  6
0D462:  MOVWF  x52
0D464:  MOVLB  0
0D466:  CALL   5B30
0D46A:  MOVLW  DB
0D46C:  MOVWF  FF6
0D46E:  MOVLW  14
0D470:  MOVWF  FF7
0D472:  MOVLW  00
0D474:  MOVWF  FF8
0D476:  MOVLW  0A
0D478:  MOVLB  6
0D47A:  MOVWF  x51
0D47C:  MOVLB  0
0D47E:  CALL   5AAC
0D482:  MOVFF  237,651
0D486:  MOVLW  01
0D488:  MOVLB  6
0D48A:  MOVWF  x52
0D48C:  MOVLB  0
0D48E:  CALL   5B30
0D492:  MOVLW  3A
0D494:  BTFSS  F9E.4
0D496:  BRA    D494
0D498:  MOVWF  FAD
0D49A:  MOVFF  238,651
0D49E:  MOVLW  01
0D4A0:  MOVLB  6
0D4A2:  MOVWF  x52
0D4A4:  MOVLB  0
0D4A6:  CALL   5B30
0D4AA:  MOVLW  3A
0D4AC:  BTFSS  F9E.4
0D4AE:  BRA    D4AC
0D4B0:  MOVWF  FAD
0D4B2:  MOVFF  239,651
0D4B6:  MOVLW  01
0D4B8:  MOVLB  6
0D4BA:  MOVWF  x52
0D4BC:  MOVLB  0
0D4BE:  CALL   5B30
0D4C2:  MOVLW  22
0D4C4:  BTFSS  F9E.4
0D4C6:  BRA    D4C4
0D4C8:  MOVWF  FAD
....................       SendDataDisplay(); 
0D4CA:  CALL   427A
....................        
....................       if(RX_Buffer[4]==0xaa){ 
0D4CE:  MOVF   34,W
0D4D0:  SUBLW  AA
0D4D2:  BNZ   D572
....................          for(i=0;i<30;i++){ 
0D4D4:  MOVLB  1
0D4D6:  CLRF   xFE
0D4D8:  CLRF   xFD
0D4DA:  MOVF   xFE,F
0D4DC:  BNZ   D558
0D4DE:  MOVF   xFD,W
0D4E0:  SUBLW  1D
0D4E2:  BNC   D558
....................             write_eeprom(50+i,estados[i]); 
0D4E4:  MOVLW  32
0D4E6:  ADDWF  xFD,W
0D4E8:  MOVLB  6
0D4EA:  MOVWF  x4B
0D4EC:  MOVLW  00
0D4EE:  MOVLB  1
0D4F0:  ADDWFC xFE,W
0D4F2:  MOVLB  6
0D4F4:  MOVWF  x4C
0D4F6:  MOVFF  1FD,64D
0D4FA:  MOVLW  02
0D4FC:  MOVWF  x4F
0D4FE:  MOVLW  B7
0D500:  MOVWF  x4E
0D502:  MOVLB  0
0D504:  CALL   23AE
0D508:  MOVLW  00
0D50A:  BTFSC  01.0
0D50C:  MOVLW  01
0D50E:  MOVLB  6
0D510:  MOVWF  x4D
0D512:  MOVFF  64C,FAA
0D516:  MOVFF  64B,FA9
0D51A:  MOVFF  64D,FA8
0D51E:  BCF    FA6.6
0D520:  BCF    FA6.7
0D522:  BSF    FA6.2
0D524:  MOVF   FF2,W
0D526:  MOVWF  00
0D528:  BCF    FF2.6
0D52A:  BCF    FF2.7
0D52C:  MOVLB  F
0D52E:  MOVLW  55
0D530:  MOVWF  FA7
0D532:  MOVLW  AA
0D534:  MOVWF  FA7
0D536:  BSF    FA6.1
0D538:  BTFSC  FA6.1
0D53A:  BRA    D538
0D53C:  BCF    FA6.2
0D53E:  MOVF   00,W
0D540:  IORWF  FF2,F
....................             delay_ms(10); 
0D542:  MOVLW  0A
0D544:  MOVLB  6
0D546:  MOVWF  x64
0D548:  MOVLB  0
0D54A:  CALL   1F6E
....................          } 
0D54E:  MOVLB  1
0D550:  INCF   xFD,F
0D552:  BTFSC  FD8.2
0D554:  INCF   xFE,F
0D556:  BRA    D4DA
....................          printf("page Ajustes"); 
0D558:  MOVLW  F6
0D55A:  MOVWF  FF6
0D55C:  MOVLW  14
0D55E:  MOVWF  FF7
0D560:  MOVLW  00
0D562:  MOVWF  FF8
0D564:  MOVLB  0
0D566:  CALL   4248
....................          SendDataDisplay();  
0D56A:  CALL   427A
....................          RX_Buffer[4]=0x00; 
0D56E:  CLRF   34
....................          RX_Buffer2[4]=0x00; 
0D570:  CLRF   3F
....................       } 
....................        
....................       for(i=0;i<30;i++){ 
0D572:  MOVLB  1
0D574:  CLRF   xFE
0D576:  CLRF   xFD
0D578:  MOVF   xFE,F
0D57A:  BNZ   D658
0D57C:  MOVF   xFD,W
0D57E:  SUBLW  1D
0D580:  BNC   D658
....................          if(RX_Buffer[4]==i+1){ 
0D582:  MOVLW  01
0D584:  ADDWF  xFD,W
0D586:  MOVWF  01
0D588:  MOVLW  00
0D58A:  ADDWFC xFE,W
0D58C:  MOVWF  03
0D58E:  MOVF   01,W
0D590:  SUBWF  34,W
0D592:  BNZ   D5CC
0D594:  MOVF   03,F
0D596:  BNZ   D5CC
....................             estados[i]=!estados[i]; 
0D598:  MOVFF  1FD,64D
0D59C:  MOVLW  02
0D59E:  MOVLB  6
0D5A0:  MOVWF  x4F
0D5A2:  MOVLW  B7
0D5A4:  MOVWF  x4E
0D5A6:  MOVLB  0
0D5A8:  CALL   23AE
0D5AC:  MOVLW  00
0D5AE:  BTFSS  01.0
0D5B0:  MOVLW  01
0D5B2:  MOVFF  1FD,64E
0D5B6:  MOVLB  6
0D5B8:  MOVWF  x4F
0D5BA:  MOVLW  02
0D5BC:  MOVWF  x51
0D5BE:  MOVLW  B7
0D5C0:  MOVWF  x50
0D5C2:  MOVLB  0
0D5C4:  CALL   236C
....................             RX_Buffer[4]=0x00; 
0D5C8:  CLRF   34
....................             RX_Buffer2[4]=0x00; 
0D5CA:  CLRF   3F
....................          } 
....................           
....................          if(estados[i]){ 
0D5CC:  MOVFF  1FD,64D
0D5D0:  MOVLW  02
0D5D2:  MOVLB  6
0D5D4:  MOVWF  x4F
0D5D6:  MOVLW  B7
0D5D8:  MOVWF  x4E
0D5DA:  MOVLB  0
0D5DC:  CALL   23AE
0D5E0:  BTFSS  01.0
0D5E2:  BRA    D61A
....................             printf("b%Lu.bco=2016",i); 
0D5E4:  MOVLW  62
0D5E6:  BTFSS  F9E.4
0D5E8:  BRA    D5E6
0D5EA:  MOVWF  FAD
0D5EC:  MOVLW  10
0D5EE:  MOVWF  FE9
0D5F0:  MOVFF  1FE,652
0D5F4:  MOVFF  1FD,651
0D5F8:  CALL   62B6
0D5FC:  MOVLW  08
0D5FE:  MOVWF  FF6
0D600:  MOVLW  15
0D602:  MOVWF  FF7
0D604:  MOVLW  00
0D606:  MOVWF  FF8
0D608:  MOVLW  09
0D60A:  MOVLB  6
0D60C:  MOVWF  x51
0D60E:  MOVLB  0
0D610:  CALL   5AAC
....................             SendDataDisplay();              
0D614:  CALL   427A
....................          }else{ 
0D618:  BRA    D64E
....................             printf("b%Lu.bco=63488",i); 
0D61A:  MOVLW  62
0D61C:  BTFSS  F9E.4
0D61E:  BRA    D61C
0D620:  MOVWF  FAD
0D622:  MOVLW  10
0D624:  MOVWF  FE9
0D626:  MOVFF  1FE,652
0D62A:  MOVFF  1FD,651
0D62E:  CALL   62B6
0D632:  MOVLW  16
0D634:  MOVWF  FF6
0D636:  MOVLW  15
0D638:  MOVWF  FF7
0D63A:  MOVLW  00
0D63C:  MOVWF  FF8
0D63E:  MOVLW  0A
0D640:  MOVLB  6
0D642:  MOVWF  x51
0D644:  MOVLB  0
0D646:  CALL   5AAC
....................             SendDataDisplay();  
0D64A:  CALL   427A
....................          } 
....................       } 
0D64E:  MOVLB  1
0D650:  INCF   xFD,F
0D652:  BTFSC  FD8.2
0D654:  INCF   xFE,F
0D656:  BRA    D578
....................    } 
.................... //_--------------------------------------------------------------------------------------------------------------------------------------------------------       
....................  
.................... //_--------------------------------------------------------------------------------------------------------------------------------------------------------       
....................     if(Menu==15){//Menu de Clave Correcta 
0D658:  MOVF   xF0,W
0D65A:  SUBLW  0F
0D65C:  BNZ   D68C
....................       delay_ms(2000); 
0D65E:  MOVLW  08
0D660:  MOVLB  6
0D662:  MOVWF  x4B
0D664:  MOVLW  FA
0D666:  MOVWF  x64
0D668:  MOVLB  0
0D66A:  CALL   1F6E
0D66E:  MOVLB  6
0D670:  DECFSZ x4B,F
0D672:  BRA    D664
....................       printf("page CicloPersona"); 
0D674:  MOVLW  22
0D676:  MOVWF  FF6
0D678:  MOVLW  15
0D67A:  MOVWF  FF7
0D67C:  MOVLW  00
0D67E:  MOVWF  FF8
0D680:  MOVLB  0
0D682:  CALL   4248
....................       SendDataDisplay();      
0D686:  CALL   427A
0D68A:  MOVLB  1
....................       //printf("page Menu"); 
....................       //SendDataDisplay(); 
....................    } 
.................... //_--------------------------------------------------------------------------------------------------------------------------------------------------------       
....................  
.................... //_--------------------------------------------------------------------------------------------------------------------------------------------------------       
....................     if(Menu==16){//Menu de Clave InCorrecta 
0D68C:  MOVF   xF0,W
0D68E:  SUBLW  10
0D690:  BNZ   D6C0
....................       delay_ms(2000); 
0D692:  MOVLW  08
0D694:  MOVLB  6
0D696:  MOVWF  x4B
0D698:  MOVLW  FA
0D69A:  MOVWF  x64
0D69C:  MOVLB  0
0D69E:  CALL   1F6E
0D6A2:  MOVLB  6
0D6A4:  DECFSZ x4B,F
0D6A6:  BRA    D698
....................       printf("page Clave"); 
0D6A8:  MOVLW  34
0D6AA:  MOVWF  FF6
0D6AC:  MOVLW  15
0D6AE:  MOVWF  FF7
0D6B0:  MOVLW  00
0D6B2:  MOVWF  FF8
0D6B4:  MOVLB  0
0D6B6:  CALL   4248
....................       SendDataDisplay(); 
0D6BA:  CALL   427A
0D6BE:  MOVLB  1
....................    } 
.................... //_--------------------------------------------------------------------------------------------------------------------------------------------------------       
....................  
.................... //_--------------------------------------------------------------------------------------------------------------------------------------------------------     
....................    if(Menu==20){ // Este es el menu de cuando el proceso se inicio. 
0D6C0:  MOVF   xF0,W
0D6C2:  SUBLW  14
0D6C4:  BTFSS  FD8.2
0D6C6:  GOTO   EAD6
....................     
....................    GuardaDatoEstatico(); 
0D6CA:  MOVLB  0
0D6CC:  GOTO   7074
....................    guardaCiclo=ON; 
0D6D0:  BSF    xA2.7
....................    if(!Libre){ 
0D6D2:  BTFSC  xA8.7
0D6D4:  BRA    D75A
....................       printf("t2f.txt=\"%u\"",CicloSeleccionado); 
0D6D6:  MOVLW  40
0D6D8:  MOVWF  FF6
0D6DA:  MOVLW  15
0D6DC:  MOVWF  FF7
0D6DE:  MOVLW  00
0D6E0:  MOVWF  FF8
0D6E2:  MOVLW  09
0D6E4:  MOVLB  6
0D6E6:  MOVWF  x51
0D6E8:  MOVLB  0
0D6EA:  CALL   5AAC
0D6EE:  MOVFF  1F5,651
0D6F2:  MOVLW  1B
0D6F4:  MOVLB  6
0D6F6:  MOVWF  x52
0D6F8:  MOVLB  0
0D6FA:  CALL   5B30
0D6FE:  MOVLW  22
0D700:  BTFSS  F9E.4
0D702:  BRA    D700
0D704:  MOVWF  FAD
....................       SendDataDisplay(); 
0D706:  CALL   427A
....................       printf("t3f.txt=\"%s\"",Texto[CicloSeleccionado-1]); 
0D70A:  MOVLW  01
0D70C:  MOVLB  1
0D70E:  SUBWF  xF5,W
0D710:  MULLW  14
0D712:  MOVF   FF3,W
0D714:  CLRF   03
0D716:  MOVLB  6
0D718:  MOVWF  x4B
0D71A:  MOVLW  4E
0D71C:  MOVWF  FF6
0D71E:  MOVLW  15
0D720:  MOVWF  FF7
0D722:  MOVLW  00
0D724:  MOVWF  FF8
0D726:  MOVLW  09
0D728:  MOVWF  x51
0D72A:  MOVLB  0
0D72C:  CALL   5AAC
0D730:  MOVLW  1A
0D732:  MOVWF  FF6
0D734:  MOVLW  03
0D736:  MOVWF  FF7
0D738:  MOVLW  00
0D73A:  MOVWF  FF8
0D73C:  MOVLB  6
0D73E:  MOVF   x4B,W
0D740:  ADDWF  FF6,F
0D742:  MOVLW  00
0D744:  ADDWFC FF7,F
0D746:  MOVLB  0
0D748:  CALL   4248
0D74C:  MOVLW  22
0D74E:  BTFSS  F9E.4
0D750:  BRA    D74E
0D752:  MOVWF  FAD
....................       SendDataDisplay(); 
0D754:  CALL   427A
....................    }else{ 
0D758:  BRA    D7AA
....................       printf("t2f.txt=\"%u\"",CicloLibre+10); 
0D75A:  MOVLW  0A
0D75C:  MOVLB  2
0D75E:  ADDWF  x48,W
0D760:  MOVLB  6
0D762:  MOVWF  x4B
0D764:  MOVLW  5C
0D766:  MOVWF  FF6
0D768:  MOVLW  15
0D76A:  MOVWF  FF7
0D76C:  MOVLW  00
0D76E:  MOVWF  FF8
0D770:  MOVLW  09
0D772:  MOVWF  x51
0D774:  MOVLB  0
0D776:  CALL   5AAC
0D77A:  MOVFF  64B,651
0D77E:  MOVLW  1B
0D780:  MOVLB  6
0D782:  MOVWF  x52
0D784:  MOVLB  0
0D786:  CALL   5B30
0D78A:  MOVLW  22
0D78C:  BTFSS  F9E.4
0D78E:  BRA    D78C
0D790:  MOVWF  FAD
....................       SendDataDisplay(); 
0D792:  CALL   427A
....................       printf("t3f.txt=\"Personalizado\""); 
0D796:  MOVLW  6A
0D798:  MOVWF  FF6
0D79A:  MOVLW  15
0D79C:  MOVWF  FF7
0D79E:  MOVLW  00
0D7A0:  MOVWF  FF8
0D7A2:  CALL   4248
....................       SendDataDisplay(); 
0D7A6:  CALL   427A
....................    } 
....................        
....................    if(PresionPreCamara>275 || PresionCamara>350){ 
0D7AA:  MOVLB  2
0D7AC:  MOVF   x14,W
0D7AE:  SUBLW  00
0D7B0:  BC    D7BC
0D7B2:  XORLW  FF
0D7B4:  BNZ   D7CC
0D7B6:  MOVF   x13,W
0D7B8:  SUBLW  13
0D7BA:  BNC   D7CC
0D7BC:  MOVF   x12,W
0D7BE:  SUBLW  00
0D7C0:  BC    D80A
0D7C2:  XORLW  FF
0D7C4:  BNZ   D7CC
0D7C6:  MOVF   x11,W
0D7C8:  SUBLW  5E
0D7CA:  BC    D80A
....................       conteoPresion++; 
0D7CC:  MOVLB  1
0D7CE:  INCF   xFB,F
0D7D0:  BTFSC  FD8.2
0D7D2:  INCF   xFC,F
....................       if(PresionPreCamara>275 || PresionCamara>350){ 
0D7D4:  MOVLB  2
0D7D6:  MOVF   x14,W
0D7D8:  SUBLW  00
0D7DA:  BC    D7E6
0D7DC:  XORLW  FF
0D7DE:  BNZ   D7F6
0D7E0:  MOVF   x13,W
0D7E2:  SUBLW  13
0D7E4:  BNC   D7F6
0D7E6:  MOVF   x12,W
0D7E8:  SUBLW  00
0D7EA:  BC    D80A
0D7EC:  XORLW  FF
0D7EE:  BNZ   D7F6
0D7F0:  MOVF   x11,W
0D7F2:  SUBLW  5E
0D7F4:  BC    D80A
....................          if(conteoPresion>=50) 
0D7F6:  MOVLB  1
0D7F8:  MOVF   xFC,F
0D7FA:  BNZ   D802
0D7FC:  MOVF   xFB,W
0D7FE:  SUBLW  31
0D800:  BC    D808
....................             AlarmaPresion=ON;   
0D802:  MOVLB  0
0D804:  BSF    xA8.4
0D806:  MOVLB  1
0D808:  MOVLB  2
....................       } 
....................    } 
....................     
....................    if(TiempoCiclo>3600 && !Fugas){//ANALIZAR BIEN ESTA ALARMA 
0D80A:  MOVLB  0
0D80C:  MOVF   xAC,W
0D80E:  SUBLW  0D
0D810:  BC    D824
0D812:  XORLW  FF
0D814:  BNZ   D81C
0D816:  MOVF   xAB,W
0D818:  SUBLW  10
0D81A:  BC    D824
0D81C:  BTFSC  xA9.1
0D81E:  BRA    D824
....................       //if(PresionPrecamara<10){ 
....................          AlarmaTiempoProlongado=ON; 
0D820:  BSF    xA2.0
....................       //} 
....................    }else{ 
0D822:  BRA    D826
....................       AlarmaTiempoProlongado=OFF; 
0D824:  BCF    xA2.0
....................    } 
....................     
....................    if(Temperatura>Setpoint+4.0 && !Fugas){ 
0D826:  MOVLB  6
0D828:  CLRF   x61
0D82A:  MOVFF  1FF,660
0D82E:  MOVLB  0
0D830:  CALL   1F38
0D834:  BCF    FD8.1
0D836:  MOVFF  03,666
0D83A:  MOVFF  02,665
0D83E:  MOVFF  01,664
0D842:  MOVFF  00,663
0D846:  MOVLB  6
0D848:  CLRF   x6A
0D84A:  CLRF   x69
0D84C:  CLRF   x68
0D84E:  MOVLW  81
0D850:  MOVWF  x67
0D852:  MOVLB  0
0D854:  CALL   20F4
0D858:  MOVFF  03,652
0D85C:  MOVFF  02,651
0D860:  MOVFF  01,650
0D864:  MOVFF  00,64F
0D868:  MOVFF  1D6,656
0D86C:  MOVFF  1D5,655
0D870:  MOVFF  1D4,654
0D874:  MOVFF  1D3,653
0D878:  CALL   25CA
0D87C:  BNC   D884
0D87E:  BTFSC  xA9.1
0D880:  BRA    D884
....................       AlarmaSobreTemperatura=ON; 
0D882:  BSF    xA2.1
....................    } 
....................     
....................    if(!TERM){ 
0D884:  BSF    F93.3
0D886:  BTFSS  F81.3
0D888:  BRA    D88A
....................       //AlarmaTermostato=ON; 
....................    } 
....................     
....................    if(!DOOR){ 
0D88A:  BSF    F93.1
0D88C:  BTFSS  F81.1
0D88E:  BRA    D8A4
....................       //Desfogue_off; 
....................       //Solenoide_off; 
....................       Paso_off; 
0D890:  BCF    F8C.1
0D892:  BCF    F95.1
....................       if(!Secando && !Finalizo && !Desfogando){ 
0D894:  BTFSC  xA3.4
0D896:  BRA    D8A2
0D898:  BTFSC  xA8.3
0D89A:  BRA    D8A2
0D89C:  BTFSC  xA3.6
0D89E:  BRA    D8A2
....................          AlarmaPuerta=ON; 
0D8A0:  BSF    xA2.3
....................       } 
....................    }else{ 
0D8A2:  BRA    D8A6
....................       AlarmaPuerta=OFF; 
0D8A4:  BCF    xA2.3
....................    } 
....................  
....................    if(tStop>=300){ 
0D8A6:  MOVLB  1
0D8A8:  MOVF   xFA,W
0D8AA:  SUBLW  00
0D8AC:  BC    D8BE
0D8AE:  XORLW  FF
0D8B0:  BNZ   D8B8
0D8B2:  MOVF   xF9,W
0D8B4:  SUBLW  2B
0D8B6:  BC    D8BE
....................       AlarmaEmergencia=ON;          
0D8B8:  MOVLB  0
0D8BA:  BSF    xA2.4
0D8BC:  MOVLB  1
....................    } 
....................     
....................    if(AlarmaPuerta || AlarmaTermostato || AlarmaSobreTemperatura || AlarmaTiempoProlongado || AlarmaEmergencia || AlarmaPresion || AlarmaBomba  
....................          || AlarmaVacio){ 
0D8BE:  MOVLB  0
0D8C0:  BTFSC  xA2.3
0D8C2:  BRA    D8E0
0D8C4:  BTFSC  xA2.2
0D8C6:  BRA    D8E0
0D8C8:  BTFSC  xA2.1
0D8CA:  BRA    D8E0
0D8CC:  BTFSC  xA2.0
0D8CE:  BRA    D8E0
0D8D0:  BTFSC  xA2.4
0D8D2:  BRA    D8E0
0D8D4:  BTFSC  xA8.4
0D8D6:  BRA    D8E0
0D8D8:  BTFSC  xA2.6
0D8DA:  BRA    D8E0
0D8DC:  BTFSS  xA2.5
0D8DE:  BRA    DC8A
....................       ActivaAlarma(1); 
0D8E0:  MOVLW  01
0D8E2:  MOVLB  6
0D8E4:  MOVWF  x4B
0D8E6:  MOVLB  0
0D8E8:  CALL   59C8
....................       if(AlarmaEmergencia){ 
0D8EC:  BTFSS  xA2.4
0D8EE:  BRA    D976
....................          codigoAlarma=1; 
0D8F0:  MOVLW  01
0D8F2:  MOVLB  2
0D8F4:  MOVWF  x27
....................          printf("Funcionamiento.t4f.txt=\" Parada de Emergencia\""); 
0D8F6:  MOVLW  82
0D8F8:  MOVWF  FF6
0D8FA:  MOVLW  15
0D8FC:  MOVWF  FF7
0D8FE:  MOVLW  00
0D900:  MOVWF  FF8
0D902:  MOVLB  0
0D904:  CALL   4248
....................          SendDataDisplay(); 
0D908:  CALL   427A
....................          printf("Funcionamiento.t5f.txt=\" Cancelado\""); 
0D90C:  MOVLW  B2
0D90E:  MOVWF  FF6
0D910:  MOVLW  15
0D912:  MOVWF  FF7
0D914:  MOVLW  00
0D916:  MOVWF  FF8
0D918:  CALL   4248
....................          SendDataDisplay(); 
0D91C:  CALL   427A
....................          Desfogue_on; 
0D920:  BSF    F8C.3
0D922:  BCF    F95.3
....................          Paso_off; 
0D924:  BCF    F8C.1
0D926:  BCF    F95.1
....................          Suministro_off; 
0D928:  BCF    F8C.0
0D92A:  BCF    F95.0
....................          BombaVacio_off; 
0D92C:  BCF    F8C.5
0D92E:  BCF    F95.5
....................          Agua_off; 
0D930:  BCF    F8C.6
0D932:  BCF    F95.6
....................          Vacio_off; 
0D934:  BCF    F8C.2
0D936:  BCF    F95.2
....................          if(PresionCamara<Atmosferica) 
0D938:  MOVLB  2
0D93A:  MOVF   x12,F
0D93C:  BNZ   D94A
0D93E:  MOVF   x3C,W
0D940:  SUBWF  x11,W
0D942:  BC    D94A
....................             Aire_on; 
0D944:  BSF    F8C.4
0D946:  BCF    F95.4
....................          else 
0D948:  BRA    D94E
....................             Aire_off; 
0D94A:  BCF    F8C.4
0D94C:  BCF    F95.4
....................          Esterilizando=OFF; 
0D94E:  MOVLB  0
0D950:  BCF    xA3.3
....................          Desfogando=OFF; 
0D952:  BCF    xA3.6
....................          DesfogueSuave=OFF; 
0D954:  BCF    xA3.7
....................          //IniciaCiclo=OFF; 
....................          Controlando=0; 
0D956:  MOVLB  1
0D958:  CLRF   xEA
....................          if(codigoAnt!=codigoAlarma){ 
0D95A:  MOVLB  2
0D95C:  MOVF   x27,W
0D95E:  SUBWF  x28,W
0D960:  BZ    D972
....................             codigoAnt=codigoAlarma; 
0D962:  MOVFF  227,228
....................             GuardaDatoCiclo(); 
0D966:  MOVLB  0
0D968:  CALL   7338
....................             incrementaCiclos(); 
0D96C:  CALL   7798
0D970:  MOVLB  2
....................          } 
....................       }else if(AlarmaPuerta){ 
0D972:  BRA    DC82
0D974:  MOVLB  0
0D976:  BTFSS  xA2.3
0D978:  BRA    D9CC
....................          codigoAlarma=2; 
0D97A:  MOVLW  02
0D97C:  MOVLB  2
0D97E:  MOVWF  x27
....................          printf("Funcionamiento.t4f.txt=\" Puerta Abierta\""); 
0D980:  MOVLW  D6
0D982:  MOVWF  FF6
0D984:  MOVLW  15
0D986:  MOVWF  FF7
0D988:  MOVLW  00
0D98A:  MOVWF  FF8
0D98C:  MOVLB  0
0D98E:  CALL   4248
....................          SendDataDisplay(); 
0D992:  CALL   427A
....................          printf("Funcionamiento.t5f.txt=\" Pausado\""); 
0D996:  MOVLW  00
0D998:  MOVWF  FF6
0D99A:  MOVLW  16
0D99C:  MOVWF  FF7
0D99E:  MOVLW  00
0D9A0:  MOVWF  FF8
0D9A2:  CALL   4248
....................          SendDataDisplay(); 
0D9A6:  CALL   427A
....................          Paso_off; 
0D9AA:  BCF    F8C.1
0D9AC:  BCF    F95.1
....................          Suministro_off; 
0D9AE:  BCF    F8C.0
0D9B0:  BCF    F95.0
....................          BombaVacio_off; 
0D9B2:  BCF    F8C.5
0D9B4:  BCF    F95.5
....................          Aire_off; 
0D9B6:  BCF    F8C.4
0D9B8:  BCF    F95.4
....................          Agua_off; 
0D9BA:  BCF    F8C.6
0D9BC:  BCF    F95.6
....................          Vacio_off; 
0D9BE:  BCF    F8C.2
0D9C0:  BCF    F95.2
....................          IniciaLlenado=OFF; 
0D9C2:  BCF    xA3.1
....................          //IniciaCiclo=OFF; 
....................          Controlando=0; 
0D9C4:  MOVLB  1
0D9C6:  CLRF   xEA
....................          //if(codigoAnt!=codigoAlarma){ 
....................          //   codigoAnt=codigoAlarma; 
....................          //   GuardaDatoCiclo(); 
....................          //} 
....................       }else if(AlarmaTermostato){ 
0D9C8:  BRA    DC84
0D9CA:  MOVLB  0
0D9CC:  BTFSS  xA2.2
0D9CE:  BRA    DA46
....................          codigoAlarma=3; 
0D9D0:  MOVLW  03
0D9D2:  MOVLB  2
0D9D4:  MOVWF  x27
....................          tiempo_esterilizacion=0;tiempo_secado=0;          
0D9D6:  CLRF   x02
0D9D8:  CLRF   x03
....................          printf("Funcionamiento.t4f.txt=\" Termostato\""); 
0D9DA:  MOVLW  22
0D9DC:  MOVWF  FF6
0D9DE:  MOVLW  16
0D9E0:  MOVWF  FF7
0D9E2:  MOVLW  00
0D9E4:  MOVWF  FF8
0D9E6:  MOVLB  0
0D9E8:  CALL   4248
....................          SendDataDisplay(); 
0D9EC:  CALL   427A
....................          printf("Funcionamiento.t5f.txt=\" Cancelado\""); 
0D9F0:  MOVLW  48
0D9F2:  MOVWF  FF6
0D9F4:  MOVLW  16
0D9F6:  MOVWF  FF7
0D9F8:  MOVLW  00
0D9FA:  MOVWF  FF8
0D9FC:  CALL   4248
....................          SendDataDisplay(); 
0DA00:  CALL   427A
....................          Suministro_off; 
0DA04:  BCF    F8C.0
0DA06:  BCF    F95.0
....................          Desfogue_on;                   
0DA08:  BSF    F8C.3
0DA0A:  BCF    F95.3
....................          Paso_off; 
0DA0C:  BCF    F8C.1
0DA0E:  BCF    F95.1
....................          BombaVacio_off; 
0DA10:  BCF    F8C.5
0DA12:  BCF    F95.5
....................          Aire_off; 
0DA14:  BCF    F8C.4
0DA16:  BCF    F95.4
....................          Agua_off; 
0DA18:  BCF    F8C.6
0DA1A:  BCF    F95.6
....................          Vacio_off; 
0DA1C:  BCF    F8C.2
0DA1E:  BCF    F95.2
....................          Esterilizando=OFF; 
0DA20:  BCF    xA3.3
....................          Desfogando=OFF; 
0DA22:  BCF    xA3.6
....................          IniciaCiclo=OFF; 
0DA24:  BCF    xA3.2
....................          Controlando=0; 
0DA26:  MOVLB  1
0DA28:  CLRF   xEA
....................          if(codigoAnt!=codigoAlarma){ 
0DA2A:  MOVLB  2
0DA2C:  MOVF   x27,W
0DA2E:  SUBWF  x28,W
0DA30:  BZ    DA42
....................             codigoAnt=codigoAlarma; 
0DA32:  MOVFF  227,228
....................             GuardaDatoCiclo(); 
0DA36:  MOVLB  0
0DA38:  CALL   7338
....................             incrementaCiclos(); 
0DA3C:  CALL   7798
0DA40:  MOVLB  2
....................          } 
....................       }else if(AlarmaSobreTemperatura){                   
0DA42:  BRA    DC82
0DA44:  MOVLB  0
0DA46:  BTFSS  xA2.1
0DA48:  BRA    DABA
....................          codigoAlarma=4; 
0DA4A:  MOVLW  04
0DA4C:  MOVLB  2
0DA4E:  MOVWF  x27
....................          tiempo_esterilizacion=0;tiempo_secado=0;          
0DA50:  CLRF   x02
0DA52:  CLRF   x03
....................          printf("Funcionamiento.t4f.txt=\" Sobretemperatura\""); 
0DA54:  MOVLW  6C
0DA56:  MOVWF  FF6
0DA58:  MOVLW  16
0DA5A:  MOVWF  FF7
0DA5C:  MOVLW  00
0DA5E:  MOVWF  FF8
0DA60:  MOVLB  0
0DA62:  CALL   4248
....................          SendDataDisplay(); 
0DA66:  CALL   427A
....................          printf("Funcionamiento.t5f.txt=\" Cancelado\""); 
0DA6A:  MOVLW  98
0DA6C:  MOVWF  FF6
0DA6E:  MOVLW  16
0DA70:  MOVWF  FF7
0DA72:  MOVLW  00
0DA74:  MOVWF  FF8
0DA76:  CALL   4248
....................          SendDataDisplay();   
0DA7A:  CALL   427A
....................          Suministro_off; 
0DA7E:  BCF    F8C.0
0DA80:  BCF    F95.0
....................          Desfogue_on; 
0DA82:  BSF    F8C.3
0DA84:  BCF    F95.3
....................          Paso_off; 
0DA86:  BCF    F8C.1
0DA88:  BCF    F95.1
....................          BombaVacio_off; 
0DA8A:  BCF    F8C.5
0DA8C:  BCF    F95.5
....................          Aire_off; 
0DA8E:  BCF    F8C.4
0DA90:  BCF    F95.4
....................          Agua_off; 
0DA92:  BCF    F8C.6
0DA94:  BCF    F95.6
....................          Vacio_off; 
0DA96:  BCF    F8C.2
0DA98:  BCF    F95.2
....................          Controlando=0; 
0DA9A:  MOVLB  1
0DA9C:  CLRF   xEA
....................          if(codigoAnt!=codigoAlarma){ 
0DA9E:  MOVLB  2
0DAA0:  MOVF   x27,W
0DAA2:  SUBWF  x28,W
0DAA4:  BZ    DAB6
....................             codigoAnt=codigoAlarma; 
0DAA6:  MOVFF  227,228
....................             GuardaDatoCiclo(); 
0DAAA:  MOVLB  0
0DAAC:  CALL   7338
....................             incrementaCiclos(); 
0DAB0:  CALL   7798
0DAB4:  MOVLB  2
....................          } 
....................       }else if(AlarmaTiempoProlongado){ 
0DAB6:  BRA    DC82
0DAB8:  MOVLB  0
0DABA:  BTFSS  xA2.0
0DABC:  BRA    DB22
....................          codigoAlarma=5; 
0DABE:  MOVLW  05
0DAC0:  MOVLB  2
0DAC2:  MOVWF  x27
....................          printf("Funcionamiento.t4f.txt=\" Tiempo Prolongado\""); 
0DAC4:  MOVLW  BC
0DAC6:  MOVWF  FF6
0DAC8:  MOVLW  16
0DACA:  MOVWF  FF7
0DACC:  MOVLW  00
0DACE:  MOVWF  FF8
0DAD0:  MOVLB  0
0DAD2:  CALL   4248
....................          SendDataDisplay(); 
0DAD6:  CALL   427A
....................          printf("Funcionamiento.t5f.txt=\" Cancelado\""); 
0DADA:  MOVLW  E8
0DADC:  MOVWF  FF6
0DADE:  MOVLW  16
0DAE0:  MOVWF  FF7
0DAE2:  MOVLW  00
0DAE4:  MOVWF  FF8
0DAE6:  CALL   4248
....................          SendDataDisplay(); 
0DAEA:  CALL   427A
....................          Suministro_off; 
0DAEE:  BCF    F8C.0
0DAF0:  BCF    F95.0
....................          Desfogue_on; 
0DAF2:  BSF    F8C.3
0DAF4:  BCF    F95.3
....................          Paso_off; 
0DAF6:  BCF    F8C.1
0DAF8:  BCF    F95.1
....................          Agua_off; 
0DAFA:  BCF    F8C.6
0DAFC:  BCF    F95.6
....................          Vacio_off; 
0DAFE:  BCF    F8C.2
0DB00:  BCF    F95.2
....................          Controlando=0; 
0DB02:  MOVLB  1
0DB04:  CLRF   xEA
....................          if(codigoAnt!=codigoAlarma){ 
0DB06:  MOVLB  2
0DB08:  MOVF   x27,W
0DB0A:  SUBWF  x28,W
0DB0C:  BZ    DB1E
....................             codigoAnt=codigoAlarma; 
0DB0E:  MOVFF  227,228
....................             GuardaDatoCiclo(); 
0DB12:  MOVLB  0
0DB14:  CALL   7338
....................             incrementaCiclos(); 
0DB18:  CALL   7798
0DB1C:  MOVLB  2
....................          } 
....................       }else if(AlarmaPresion){ // Alarma de Error de SobrePresion: Error por exceso de Presion. 
0DB1E:  BRA    DC82
0DB20:  MOVLB  0
0DB22:  BTFSS  xA8.4
0DB24:  BRA    DBAE
....................          codigoAlarma=6; 
0DB26:  MOVLW  06
0DB28:  MOVLB  2
0DB2A:  MOVWF  x27
....................          printf("Funcionamiento.t4f.txt=\" SobrePresion\""); 
0DB2C:  MOVLW  0C
0DB2E:  MOVWF  FF6
0DB30:  MOVLW  17
0DB32:  MOVWF  FF7
0DB34:  MOVLW  00
0DB36:  MOVWF  FF8
0DB38:  MOVLB  0
0DB3A:  CALL   4248
....................          SendDataDisplay(); 
0DB3E:  CALL   427A
....................          printf("Funcionamiento.t5f.txt=\" Cancelado\""); 
0DB42:  MOVLW  34
0DB44:  MOVWF  FF6
0DB46:  MOVLW  17
0DB48:  MOVWF  FF7
0DB4A:  MOVLW  00
0DB4C:  MOVWF  FF8
0DB4E:  CALL   4248
....................          SendDataDisplay(); 
0DB52:  CALL   427A
....................          Desfogue_on; 
0DB56:  BSF    F8C.3
0DB58:  BCF    F95.3
....................          Suministro_off; 
0DB5A:  BCF    F8C.0
0DB5C:  BCF    F95.0
....................          BombaVacio_off; 
0DB5E:  BCF    F8C.5
0DB60:  BCF    F95.5
....................          Aire_off; 
0DB62:  BCF    F8C.4
0DB64:  BCF    F95.4
....................          Agua_off; 
0DB66:  BCF    F8C.6
0DB68:  BCF    F95.6
....................          Vacio_off; 
0DB6A:  BCF    F8C.2
0DB6C:  BCF    F95.2
....................          if(PresionPreCamara>(Atmosferica+4) && DOOR) 
0DB6E:  MOVLW  04
0DB70:  MOVLB  2
0DB72:  ADDWF  x3C,W
0DB74:  MOVF   x14,F
0DB76:  BNZ   DB7E
0DB78:  SUBWF  x13,W
0DB7A:  BZ    DB8A
0DB7C:  BNC   DB8A
0DB7E:  BSF    F93.1
0DB80:  BTFSC  F81.1
0DB82:  BRA    DB8A
....................             Paso_on; 
0DB84:  BSF    F8C.1
0DB86:  BCF    F95.1
....................          else 
0DB88:  BRA    DB8E
....................             Paso_off; 
0DB8A:  BCF    F8C.1
0DB8C:  BCF    F95.1
....................          Controlando=0; 
0DB8E:  MOVLB  1
0DB90:  CLRF   xEA
....................          if(codigoAnt!=codigoAlarma){ 
0DB92:  MOVLB  2
0DB94:  MOVF   x27,W
0DB96:  SUBWF  x28,W
0DB98:  BZ    DBAA
....................             codigoAnt=codigoAlarma; 
0DB9A:  MOVFF  227,228
....................             GuardaDatoCiclo(); 
0DB9E:  MOVLB  0
0DBA0:  CALL   7338
....................             incrementaCiclos(); 
0DBA4:  CALL   7798
0DBA8:  MOVLB  2
....................          } 
....................       }else if(AlarmaBomba){ // Alarma de Error de que bomba no ha arrancado. 
0DBAA:  BRA    DC82
0DBAC:  MOVLB  0
0DBAE:  BTFSS  xA2.6
0DBB0:  BRA    DC1A
....................          codigoAlarma=7; 
0DBB2:  MOVLW  07
0DBB4:  MOVLB  2
0DBB6:  MOVWF  x27
....................          printf("Funcionamiento.t4f.txt=\" Error Bomba\""); 
0DBB8:  MOVLW  58
0DBBA:  MOVWF  FF6
0DBBC:  MOVLW  17
0DBBE:  MOVWF  FF7
0DBC0:  MOVLW  00
0DBC2:  MOVWF  FF8
0DBC4:  MOVLB  0
0DBC6:  CALL   4248
....................          SendDataDisplay(); 
0DBCA:  CALL   427A
....................          printf("Funcionamiento.t5f.txt=\" Cancelado\""); 
0DBCE:  MOVLW  7E
0DBD0:  MOVWF  FF6
0DBD2:  MOVLW  17
0DBD4:  MOVWF  FF7
0DBD6:  MOVLW  00
0DBD8:  MOVWF  FF8
0DBDA:  CALL   4248
....................          SendDataDisplay(); 
0DBDE:  CALL   427A
....................          Desfogue_on; 
0DBE2:  BSF    F8C.3
0DBE4:  BCF    F95.3
....................          Suministro_off; 
0DBE6:  BCF    F8C.0
0DBE8:  BCF    F95.0
....................          BombaVacio_off; 
0DBEA:  BCF    F8C.5
0DBEC:  BCF    F95.5
....................          Aire_off; 
0DBEE:  BCF    F8C.4
0DBF0:  BCF    F95.4
....................          Agua_off; 
0DBF2:  BCF    F8C.6
0DBF4:  BCF    F95.6
....................          Vacio_off; 
0DBF6:  BCF    F8C.2
0DBF8:  BCF    F95.2
....................          Controlando=0; 
0DBFA:  MOVLB  1
0DBFC:  CLRF   xEA
....................          if(codigoAnt!=codigoAlarma){ 
0DBFE:  MOVLB  2
0DC00:  MOVF   x27,W
0DC02:  SUBWF  x28,W
0DC04:  BZ    DC16
....................             codigoAnt=codigoAlarma; 
0DC06:  MOVFF  227,228
....................             GuardaDatoCiclo(); 
0DC0A:  MOVLB  0
0DC0C:  CALL   7338
....................             incrementaCiclos(); 
0DC10:  CALL   7798
0DC14:  MOVLB  2
....................          } 
....................       }else if(AlarmaVacio){ // Alarma de Error de que genera el Vacio en el tiempo estipulado. 
0DC16:  BRA    DC82
0DC18:  MOVLB  0
0DC1A:  BTFSS  xA2.5
0DC1C:  BRA    DC80
....................          codigoAlarma=8; 
0DC1E:  MOVLW  08
0DC20:  MOVLB  2
0DC22:  MOVWF  x27
....................          printf("Funcionamiento.t4f.txt=\" Error Vacio\""); 
0DC24:  MOVLW  A2
0DC26:  MOVWF  FF6
0DC28:  MOVLW  17
0DC2A:  MOVWF  FF7
0DC2C:  MOVLW  00
0DC2E:  MOVWF  FF8
0DC30:  MOVLB  0
0DC32:  CALL   4248
....................          SendDataDisplay(); 
0DC36:  CALL   427A
....................          printf("Funcionamiento.t5f.txt=\" Cancelado\""); 
0DC3A:  MOVLW  C8
0DC3C:  MOVWF  FF6
0DC3E:  MOVLW  17
0DC40:  MOVWF  FF7
0DC42:  MOVLW  00
0DC44:  MOVWF  FF8
0DC46:  CALL   4248
....................          SendDataDisplay(); 
0DC4A:  CALL   427A
....................          Desfogue_on; 
0DC4E:  BSF    F8C.3
0DC50:  BCF    F95.3
....................          Suministro_off; 
0DC52:  BCF    F8C.0
0DC54:  BCF    F95.0
....................          BombaVacio_off; 
0DC56:  BCF    F8C.5
0DC58:  BCF    F95.5
....................          Aire_off; 
0DC5A:  BCF    F8C.4
0DC5C:  BCF    F95.4
....................          Agua_off; 
0DC5E:  BCF    F8C.6
0DC60:  BCF    F95.6
....................          Vacio_off; 
0DC62:  BCF    F8C.2
0DC64:  BCF    F95.2
....................          Controlando=0; 
0DC66:  MOVLB  1
0DC68:  CLRF   xEA
....................          if(codigoAnt!=codigoAlarma){ 
0DC6A:  MOVLB  2
0DC6C:  MOVF   x27,W
0DC6E:  SUBWF  x28,W
0DC70:  BZ    DC82
....................             codigoAnt=codigoAlarma; 
0DC72:  MOVFF  227,228
....................             GuardaDatoCiclo(); 
0DC76:  MOVLB  0
0DC78:  CALL   7338
....................             incrementaCiclos(); 
0DC7C:  CALL   7798
0DC80:  MOVLB  2
0DC82:  MOVLB  1
....................          } 
....................       } 
....................    }else{ 
0DC84:  GOTO   E600
0DC88:  MOVLB  0
....................        
....................       if(!Fugas){//Si selecciono un ciclo diferente al test de fugas 
0DC8A:  BTFSC  xA9.1
0DC8C:  GOTO   E414
....................          Buzzer_off; 
0DC90:  BCF    F8B.5
0DC92:  BCF    F94.5
....................          IniciaCiclo=ON; 
0DC94:  BSF    xA3.2
....................           
....................       if(!Precalentamiento){       
0DC96:  BTFSC  xA9.2
0DC98:  BRA    DCDC
....................          printf("Funcionamiento.t4f.txt=\" Ninguna\""); 
0DC9A:  MOVLW  EC
0DC9C:  MOVWF  FF6
0DC9E:  MOVLW  17
0DCA0:  MOVWF  FF7
0DCA2:  MOVLW  00
0DCA4:  MOVWF  FF8
0DCA6:  CALL   4248
....................          SendDataDisplay(); 
0DCAA:  CALL   427A
....................          printf("Funcionamiento.t5f.txt=\" PreCalentando\""); 
0DCAE:  MOVLW  0E
0DCB0:  MOVWF  FF6
0DCB2:  MOVLW  18
0DCB4:  MOVWF  FF7
0DCB6:  MOVLW  00
0DCB8:  MOVWF  FF8
0DCBA:  CALL   4248
....................          SendDataDisplay(); 
0DCBE:  CALL   427A
....................          ControlaPresion();  
0DCC2:  CALL   7828
....................          Control=0; 
0DCC6:  MOVLB  1
0DCC8:  CLRF   xE8
....................          IniciaVacio=OFF; 
0DCCA:  MOVLB  0
0DCCC:  BCF    xA9.3
....................          IniciaVacio2=OFF; 
0DCCE:  BCF    xA9.4
....................          codigoAlarma=10; 
0DCD0:  MOVLW  0A
0DCD2:  MOVLB  2
0DCD4:  MOVWF  x27
....................          //if(codigoAnt!=codigoAlarma){ 
....................          //   codigoAnt=codigoAlarma; 
....................          //   GuardaDatoCiclo(); 
....................          //} 
....................       }else{ 
0DCD6:  GOTO   E410
0DCDA:  MOVLB  0
....................          if(!Vacio){ //Si no ha realizado los pulsos de vacio 
0DCDC:  BTFSC  xA9.5
0DCDE:  BRA    DED4
....................             codigoAlarma=11; 
0DCE0:  MOVLW  0B
0DCE2:  MOVLB  2
0DCE4:  MOVWF  x27
....................             //if(codigoAnt!=codigoAlarma){ 
....................             //   codigoAnt=codigoAlarma; 
....................             //   GuardaDatoCiclo();                
....................             //} 
....................             if(!flag_vac){//Ciclo inicial para purga de Bomba 
0DCE6:  MOVLB  0
0DCE8:  BTFSC  xA9.6
0DCEA:  BRA    DD26
....................                flag_vac=ON; 
0DCEC:  BSF    xA9.6
....................                Vacio_off; 
0DCEE:  BCF    F8C.2
0DCF0:  BCF    F95.2
....................                Desfogue_off; 
0DCF2:  BCF    F8C.3
0DCF4:  BCF    F95.3
....................                Aire_off; 
0DCF6:  BCF    F8C.4
0DCF8:  BCF    F95.4
....................                Paso_off; 
0DCFA:  BCF    F8C.1
0DCFC:  BCF    F95.1
....................                Agua_on; 
0DCFE:  BSF    F8C.6
0DD00:  BCF    F95.6
....................                delay_ms(70); 
0DD02:  MOVLW  46
0DD04:  MOVLB  6
0DD06:  MOVWF  x64
0DD08:  MOVLB  0
0DD0A:  CALL   1F6E
....................                if(CalderinLleno) 
0DD0E:  BTFSS  xA6.0
0DD10:  BRA    DD18
....................                   BombaVacio_on; 
0DD12:  BSF    F8C.5
0DD14:  BCF    F95.5
....................                else 
0DD16:  BRA    DD1C
....................                   BombaVacio_off; 
0DD18:  BCF    F8C.5
0DD1A:  BCF    F95.5
....................                IniciaVacio2=ON; 
0DD1C:  BSF    xA9.4
....................                PulsoPositivo=5; //Prueba para ver rendimiento de bomba de vacio************ 
0DD1E:  MOVLW  05
0DD20:  MOVLB  2
0DD22:  MOVWF  x3D
0DD24:  MOVLB  0
....................             } 
....................             printf("Funcionamiento.t4f.txt=\" Ninguna\""); 
0DD26:  MOVLW  36
0DD28:  MOVWF  FF6
0DD2A:  MOVLW  18
0DD2C:  MOVWF  FF7
0DD2E:  MOVLW  00
0DD30:  MOVWF  FF8
0DD32:  CALL   4248
....................             SendDataDisplay(); 
0DD36:  CALL   427A
....................             ControlaPresion(); 
0DD3A:  CALL   7828
....................             IniciaVacio=ON; 
0DD3E:  BSF    xA9.3
....................                 
....................             if(PresionCamara>NivelVacio && PulsoPositivo==10){//Pulso Negativo 
0DD40:  MOVLB  2
0DD42:  MOVF   x12,F
0DD44:  BNZ   DD4C
0DD46:  MOVF   x11,W
0DD48:  SUBWF  x3B,W
0DD4A:  BC    DDBC
0DD4C:  MOVF   x3D,W
0DD4E:  SUBLW  0A
0DD50:  BNZ   DDBC
....................                flag_vacio=1; 
0DD52:  MOVLB  0
0DD54:  BSF    xA9.7
....................                if(CalderinLleno) 
0DD56:  BTFSS  xA6.0
0DD58:  BRA    DD60
....................                   BombaVacio_on; 
0DD5A:  BSF    F8C.5
0DD5C:  BCF    F95.5
....................                else 
0DD5E:  BRA    DD64
....................                   BombaVacio_off; 
0DD60:  BCF    F8C.5
0DD62:  BCF    F95.5
....................                Vacio_on; 
0DD64:  BSF    F8C.2
0DD66:  BCF    F95.2
....................                Desfogue_off; 
0DD68:  BCF    F8C.3
0DD6A:  BCF    F95.3
....................                Aire_off;                      
0DD6C:  BCF    F8C.4
0DD6E:  BCF    F95.4
....................                Paso_off; 
0DD70:  BCF    F8C.1
0DD72:  BCF    F95.1
....................                Agua_on; 
0DD74:  BSF    F8C.6
0DD76:  BCF    F95.6
....................                printf("Funcionamiento.t5f.txt=\" Pulso de Vacio %u\"",PulsosVacio); 
0DD78:  MOVLW  58
0DD7A:  MOVWF  FF6
0DD7C:  MOVLW  18
0DD7E:  MOVWF  FF7
0DD80:  MOVLW  00
0DD82:  MOVWF  FF8
0DD84:  MOVLW  28
0DD86:  MOVLB  6
0DD88:  MOVWF  x51
0DD8A:  MOVLB  0
0DD8C:  CALL   5AAC
0DD90:  MOVFF  23E,651
0DD94:  MOVLW  1B
0DD96:  MOVLB  6
0DD98:  MOVWF  x52
0DD9A:  MOVLB  0
0DD9C:  CALL   5B30
0DDA0:  MOVLW  22
0DDA2:  BTFSS  F9E.4
0DDA4:  BRA    DDA2
0DDA6:  MOVWF  FAD
....................                SendDataDisplay(); 
0DDA8:  CALL   427A
....................                if(flag_pulso==0){ 
0DDAC:  BTFSC  xAA.0
0DDAE:  BRA    DDB8
....................                   PulsosVacio++; 
0DDB0:  MOVLB  2
0DDB2:  INCF   x3E,F
....................                   flag_pulso=1; 
0DDB4:  MOVLB  0
0DDB6:  BSF    xAA.0
....................                } 
....................             }else{ 
0DDB8:  BRA    DDC0
0DDBA:  MOVLB  2
....................                PulsoPositivo=5; 
0DDBC:  MOVLW  05
0DDBE:  MOVWF  x3D
....................             } 
....................              
....................             if(PulsosVacio>=CantidadPulsos && PulsoPositivo==5){//Si realiza los pulsos de vacio, continua con el proceso de calentamiento 
0DDC0:  MOVLB  1
0DDC2:  MOVF   xF8,F
0DDC4:  BNZ   DE08
0DDC6:  MOVF   xF7,W
0DDC8:  MOVLB  2
0DDCA:  SUBWF  x3E,W
0DDCC:  BTFSC  FD8.0
0DDCE:  BRA    DDD4
0DDD0:  MOVLB  1
0DDD2:  BRA    DE08
0DDD4:  MOVF   x3D,W
0DDD6:  SUBLW  05
0DDD8:  BTFSC  FD8.2
0DDDA:  BRA    DDE0
0DDDC:  MOVLB  1
0DDDE:  BRA    DE08
....................                Vacio=ON; 
0DDE0:  MOVLB  0
0DDE2:  BSF    xA9.5
....................                Vacio_off; 
0DDE4:  BCF    F8C.2
0DDE6:  BCF    F95.2
....................                BombaVacio_off; 
0DDE8:  BCF    F8C.5
0DDEA:  BCF    F95.5
....................                Vacio_off; 
0DDEC:  BCF    F8C.2
0DDEE:  BCF    F95.2
....................                Desfogue_off; 
0DDF0:  BCF    F8C.3
0DDF2:  BCF    F95.3
....................                Aire_off;                                  
0DDF4:  BCF    F8C.4
0DDF6:  BCF    F95.4
....................                IniciaVacio=OFF; 
0DDF8:  BCF    xA9.3
....................                Paso_on; 
0DDFA:  BSF    F8C.1
0DDFC:  BCF    F95.1
....................                Agua_off; 
0DDFE:  BCF    F8C.6
0DE00:  BCF    F95.6
....................                PulsoPositivo=10; 
0DE02:  MOVLW  0A
0DE04:  MOVLB  2
0DE06:  MOVWF  x3D
....................             } 
....................                
....................             if(PulsoPositivo==5){//Pulso Positivo 
0DE08:  MOVLB  2
0DE0A:  MOVF   x3D,W
0DE0C:  SUBLW  05
0DE0E:  BNZ   DE8C
....................                tvacio=0; 
0DE10:  CLRF   x1A
0DE12:  CLRF   x19
....................                flag_pulso=0; 
0DE14:  MOVLB  0
0DE16:  BCF    xAA.0
....................                printf("Funcionamiento.t5f.txt=\" Pulso Positivo %u\"",PulsosVacio+1); 
0DE18:  MOVLW  01
0DE1A:  MOVLB  2
0DE1C:  ADDWF  x3E,W
0DE1E:  MOVLB  6
0DE20:  MOVWF  x4B
0DE22:  MOVLW  84
0DE24:  MOVWF  FF6
0DE26:  MOVLW  18
0DE28:  MOVWF  FF7
0DE2A:  MOVLW  00
0DE2C:  MOVWF  FF8
0DE2E:  MOVLW  28
0DE30:  MOVWF  x51
0DE32:  MOVLB  0
0DE34:  CALL   5AAC
0DE38:  MOVFF  64B,651
0DE3C:  MOVLW  1B
0DE3E:  MOVLB  6
0DE40:  MOVWF  x52
0DE42:  MOVLB  0
0DE44:  CALL   5B30
0DE48:  MOVLW  22
0DE4A:  BTFSS  F9E.4
0DE4C:  BRA    DE4A
0DE4E:  MOVWF  FAD
....................                SendDataDisplay(); 
0DE50:  CALL   427A
....................                if(CalderinLleno) 
0DE54:  BTFSS  xA6.0
0DE56:  BRA    DE5E
....................                   BombaVacio_on; 
0DE58:  BSF    F8C.5
0DE5A:  BCF    F95.5
....................                else 
0DE5C:  BRA    DE62
....................                   BombaVacio_off; 
0DE5E:  BCF    F8C.5
0DE60:  BCF    F95.5
....................                Vacio_off; 
0DE62:  BCF    F8C.2
0DE64:  BCF    F95.2
....................                Desfogue_off; 
0DE66:  BCF    F8C.3
0DE68:  BCF    F95.3
....................                Aire_off;                      
0DE6A:  BCF    F8C.4
0DE6C:  BCF    F95.4
....................                Paso_on;      
0DE6E:  BSF    F8C.1
0DE70:  BCF    F95.1
....................                Agua_on; 
0DE72:  BSF    F8C.6
0DE74:  BCF    F95.6
....................                if(PresionCamara>=Atmosferica+25){ 
0DE76:  MOVLW  19
0DE78:  MOVLB  2
0DE7A:  ADDWF  x3C,W
0DE7C:  MOVF   x12,F
0DE7E:  BNZ   DE84
0DE80:  SUBWF  x11,W
0DE82:  BNC   DE8C
....................                   Paso_off; 
0DE84:  BCF    F8C.1
0DE86:  BCF    F95.1
....................                   PulsoPositivo=10; 
0DE88:  MOVLW  0A
0DE8A:  MOVWF  x3D
....................                }   
....................             } 
....................                 
....................             if(tbomba>=120 && PulsosVacio==0){//Si no se ha generado ningun pulso de vacio despues de 120 segundos se genera alarma 
0DE8C:  MOVF   x18,F
0DE8E:  BNZ   DE96
0DE90:  MOVF   x17,W
0DE92:  SUBLW  77
0DE94:  BC    DEB4
0DE96:  MOVF   x3E,F
0DE98:  BNZ   DEB4
....................                if(PresionCamara>Atmosferica){ 
0DE9A:  MOVF   x12,F
0DE9C:  BNZ   DEA4
0DE9E:  MOVF   x11,W
0DEA0:  SUBWF  x3C,W
0DEA2:  BC    DEAC
....................                   AlarmaBomba=ON; 
0DEA4:  MOVLB  0
0DEA6:  BSF    xA2.6
....................                }else{ 
0DEA8:  BRA    DEB4
0DEAA:  MOVLB  2
....................                   tbomba=0; 
0DEAC:  CLRF   x18
0DEAE:  CLRF   x17
....................                   IniciaVacio2=OFF; 
0DEB0:  MOVLB  0
0DEB2:  BCF    xA9.4
....................                } 
....................              } 
....................                 
....................             if(tvacio>=TiempoVacio){//Si excede el tiempo maximo para generar los pulsos de vacio genera alarma             
0DEB4:  MOVLB  0
0DEB6:  MOVF   xA5,W
0DEB8:  MOVLB  2
0DEBA:  SUBWF  x1A,W
0DEBC:  BNC   DED0
0DEBE:  BNZ   DECA
0DEC0:  MOVLB  0
0DEC2:  MOVF   xA4,W
0DEC4:  MOVLB  2
0DEC6:  SUBWF  x19,W
0DEC8:  BNC   DED0
....................                AlarmaVacio=ON; 
0DECA:  MOVLB  0
0DECC:  BSF    xA2.5
0DECE:  MOVLB  2
....................             } 
....................          }else{ 
0DED0:  BRA    E410
0DED2:  MOVLB  0
....................             IniciaVacio=OFF;         
0DED4:  BCF    xA9.3
....................             if(Temperatura>=((float)Setpoint-0.3)){ 
0DED6:  MOVLB  6
0DED8:  CLRF   x61
0DEDA:  MOVFF  1FF,660
0DEDE:  MOVLB  0
0DEE0:  CALL   1F38
0DEE4:  MOVFF  00,64B
0DEE8:  MOVFF  01,64C
0DEEC:  MOVFF  02,64D
0DEF0:  MOVFF  03,64E
0DEF4:  BSF    FD8.1
0DEF6:  MOVFF  03,666
0DEFA:  MOVFF  02,665
0DEFE:  MOVFF  01,664
0DF02:  MOVFF  00,663
0DF06:  MOVLW  9A
0DF08:  MOVLB  6
0DF0A:  MOVWF  x6A
0DF0C:  MOVLW  99
0DF0E:  MOVWF  x69
0DF10:  MOVLW  19
0DF12:  MOVWF  x68
0DF14:  MOVLW  7D
0DF16:  MOVWF  x67
0DF18:  MOVLB  0
0DF1A:  CALL   20F4
0DF1E:  MOVFF  03,652
0DF22:  MOVFF  02,651
0DF26:  MOVFF  01,650
0DF2A:  MOVFF  00,64F
0DF2E:  MOVFF  1D6,656
0DF32:  MOVFF  1D5,655
0DF36:  MOVFF  1D4,654
0DF3A:  MOVFF  1D3,653
0DF3E:  CALL   25CA
0DF42:  BC    DF46
0DF44:  BNZ   DF48
....................                Esterilizando=ON; 
0DF46:  BSF    xA3.3
....................             } 
....................              
....................             if(Temperatura<((float)Setpoint-0.9) && !Desfogando){ 
0DF48:  MOVLB  6
0DF4A:  CLRF   x61
0DF4C:  MOVFF  1FF,660
0DF50:  MOVLB  0
0DF52:  CALL   1F38
0DF56:  MOVFF  00,64B
0DF5A:  MOVFF  01,64C
0DF5E:  MOVFF  02,64D
0DF62:  MOVFF  03,64E
0DF66:  BSF    FD8.1
0DF68:  MOVFF  03,666
0DF6C:  MOVFF  02,665
0DF70:  MOVFF  01,664
0DF74:  MOVFF  00,663
0DF78:  MOVLW  66
0DF7A:  MOVLB  6
0DF7C:  MOVWF  x6A
0DF7E:  MOVWF  x69
0DF80:  MOVWF  x68
0DF82:  MOVLW  7E
0DF84:  MOVWF  x67
0DF86:  MOVLB  0
0DF88:  CALL   20F4
0DF8C:  MOVFF  1D6,652
0DF90:  MOVFF  1D5,651
0DF94:  MOVFF  1D4,650
0DF98:  MOVFF  1D3,64F
0DF9C:  MOVFF  03,656
0DFA0:  MOVFF  02,655
0DFA4:  MOVFF  01,654
0DFA8:  MOVFF  00,653
0DFAC:  CALL   25CA
0DFB0:  BNC   DFB8
0DFB2:  BTFSC  xA3.6
0DFB4:  BRA    DFB8
....................                Esterilizando=OFF; 
0DFB6:  BCF    xA3.3
....................             } 
....................              
....................             if(!Esterilizando){ 
0DFB8:  BTFSC  xA3.3
0DFBA:  BRA    E024
....................                codigoAlarma=12; 
0DFBC:  MOVLW  0C
0DFBE:  MOVLB  2
0DFC0:  MOVWF  x27
....................                if(codigoAnt!=codigoAlarma){ 
0DFC2:  MOVF   x27,W
0DFC4:  SUBWF  x28,W
0DFC6:  BZ    DFD2
....................                   codigoAnt=codigoAlarma; 
0DFC8:  MOVFF  227,228
....................                   GuardaDatoCiclo();                   
0DFCC:  MOVLB  0
0DFCE:  CALL   7338
....................                } 
....................                flag_vac=OFF; 
0DFD2:  MOVLB  0
0DFD4:  BCF    xA9.6
....................                printf("Funcionamiento.t4f.txt=\" Ninguna\""); 
0DFD6:  MOVLW  B0
0DFD8:  MOVWF  FF6
0DFDA:  MOVLW  18
0DFDC:  MOVWF  FF7
0DFDE:  MOVLW  00
0DFE0:  MOVWF  FF8
0DFE2:  CALL   4248
....................                SendDataDisplay(); 
0DFE6:  CALL   427A
....................                printf("Funcionamiento.t5f.txt=\" Calentando\""); 
0DFEA:  MOVLW  D2
0DFEC:  MOVWF  FF6
0DFEE:  MOVLW  18
0DFF0:  MOVWF  FF7
0DFF2:  MOVLW  00
0DFF4:  MOVWF  FF8
0DFF6:  CALL   4248
....................                SendDataDisplay(); 
0DFFA:  CALL   427A
....................                Control=1; 
0DFFE:  MOVLW  01
0E000:  MOVLB  1
0E002:  MOVWF  xE8
....................                Controla(); 
0E004:  MOVLB  0
0E006:  CALL   7850
....................                Paso_on; 
0E00A:  BSF    F8C.1
0E00C:  BCF    F95.1
....................                BombaVacio_off; 
0E00E:  BCF    F8C.5
0E010:  BCF    F95.5
....................                Vacio_off; 
0E012:  BCF    F8C.2
0E014:  BCF    F95.2
....................                Aire_off; 
0E016:  BCF    F8C.4
0E018:  BCF    F95.4
....................                Desfogue_off; 
0E01A:  BCF    F8C.3
0E01C:  BCF    F95.3
....................                Agua_off; 
0E01E:  BCF    F8C.6
0E020:  BCF    F95.6
....................             }else{ 
0E022:  BRA    E40E
....................                TiempoCiclo=0; 
0E024:  CLRF   xAC
0E026:  CLRF   xAB
....................                if((Testerilizacion[0]==0)&&(Testerilizacion[1]==0)&& 
....................                (Testerilizacion[2]==0)&&(Testerilizacion[3]==0)){  
0E028:  MOVF   xB5,F
0E02A:  BTFSS  FD8.2
0E02C:  BRA    E3C0
0E02E:  MOVF   xB6,F
0E030:  BTFSS  FD8.2
0E032:  BRA    E3C0
0E034:  MOVF   xB7,F
0E036:  BTFSS  FD8.2
0E038:  BRA    E3C0
0E03A:  MOVF   xB8,F
0E03C:  BTFSS  FD8.2
0E03E:  BRA    E3C0
....................                   if(desfoguelento){ 
0E040:  BTFSS  xAA.2
0E042:  BRA    E17A
....................                      Controlando=0; 
0E044:  MOVLB  1
0E046:  CLRF   xEA
....................                      if(PresionCamara<(Atmosferica+2)){ 
0E048:  MOVLW  02
0E04A:  MOVLB  2
0E04C:  ADDWF  x3C,W
0E04E:  MOVF   x12,F
0E050:  BNZ   E106
0E052:  SUBWF  x11,W
0E054:  BC    E106
....................                         Secando=OFF; 
0E056:  MOVLB  0
0E058:  BCF    xA3.4
....................                         DesfogueSuave=OFF; 
0E05A:  BCF    xA3.7
....................                         BombaVacio_off; 
0E05C:  BCF    F8C.5
0E05E:  BCF    F95.5
....................                         Vacio_off; 
0E060:  BCF    F8C.2
0E062:  BCF    F95.2
....................                         Aire_off; 
0E064:  BCF    F8C.4
0E066:  BCF    F95.4
....................                         Desfogue_on; 
0E068:  BSF    F8C.3
0E06A:  BCF    F95.3
....................                         Paso_off; 
0E06C:  BCF    F8C.1
0E06E:  BCF    F95.1
....................                         Suministro_off; 
0E070:  BCF    F8C.0
0E072:  BCF    F95.0
....................                         Agua_off; 
0E074:  BCF    F8C.6
0E076:  BCF    F95.6
....................                         if(Temperatura<=Tapertura){ 
0E078:  MOVLB  6
0E07A:  CLRF   x61
0E07C:  MOVFF  1F6,660
0E080:  MOVLB  0
0E082:  CALL   1F38
0E086:  MOVFF  1D6,652
0E08A:  MOVFF  1D5,651
0E08E:  MOVFF  1D4,650
0E092:  MOVFF  1D3,64F
0E096:  MOVFF  03,656
0E09A:  MOVFF  02,655
0E09E:  MOVFF  01,654
0E0A2:  MOVFF  00,653
0E0A6:  CALL   25CA
0E0AA:  BC    E0AE
0E0AC:  BNZ   E0FA
....................                            ActivaAlarma(2); 
0E0AE:  MOVLW  02
0E0B0:  MOVLB  6
0E0B2:  MOVWF  x4B
0E0B4:  MOVLB  0
0E0B6:  CALL   59C8
....................                            printf("Funcionamiento.t4f.txt=\" Ninguna\""); 
0E0BA:  MOVLW  F8
0E0BC:  MOVWF  FF6
0E0BE:  MOVLW  18
0E0C0:  MOVWF  FF7
0E0C2:  MOVLW  00
0E0C4:  MOVWF  FF8
0E0C6:  CALL   4248
....................                            SendDataDisplay(); 
0E0CA:  CALL   427A
....................                            printf("Funcionamiento.t5f.txt=\" Finalizado\""); 
0E0CE:  MOVLW  1A
0E0D0:  MOVWF  FF6
0E0D2:  MOVLW  19
0E0D4:  MOVWF  FF7
0E0D6:  MOVLW  00
0E0D8:  MOVWF  FF8
0E0DA:  CALL   4248
....................                            SendDataDisplay(); 
0E0DE:  CALL   427A
....................                            Finalizo=ON; 
0E0E2:  BSF    xA8.3
....................                            codigoAlarma=14; 
0E0E4:  MOVLW  0E
0E0E6:  MOVLB  2
0E0E8:  MOVWF  x27
....................                               if(codigoAnt!=codigoAlarma){ 
0E0EA:  MOVF   x27,W
0E0EC:  SUBWF  x28,W
0E0EE:  BZ    E0FC
....................                                  codigoAnt=codigoAlarma; 
0E0F0:  MOVFF  227,228
....................                                  GuardaDatoCiclo();                   
0E0F4:  MOVLB  0
0E0F6:  CALL   7338
0E0FA:  MOVLB  2
....................                               }                           
....................                         } 
....................                         incrementaCiclos(); 
0E0FC:  MOVLB  0
0E0FE:  CALL   7798
....................                      }else if(PresionCamara>(Atmosferica+10)){ 
0E102:  BRA    E178
0E104:  MOVLB  2
0E106:  MOVLW  0A
0E108:  ADDWF  x3C,W
0E10A:  MOVF   x12,F
0E10C:  BNZ   E114
0E10E:  SUBWF  x11,W
0E110:  BZ    E176
0E112:  BNC   E176
....................                         codigoAlarma=13; 
0E114:  MOVLW  0D
0E116:  MOVWF  x27
....................                         if(codigoAnt!=codigoAlarma){ 
0E118:  MOVF   x27,W
0E11A:  SUBWF  x28,W
0E11C:  BZ    E128
....................                            codigoAnt=codigoAlarma; 
0E11E:  MOVFF  227,228
....................                            GuardaDatoCiclo();                   
0E122:  MOVLB  0
0E124:  CALL   7338
....................                         } 
....................                         Desfogando=ON; 
0E128:  MOVLB  0
0E12A:  BSF    xA3.6
....................                         DesfogueSuave=ON; 
0E12C:  BSF    xA3.7
....................                         printf("Funcionamiento.t4f.txt=\" Ninguna\""); 
0E12E:  MOVLW  40
0E130:  MOVWF  FF6
0E132:  MOVLW  19
0E134:  MOVWF  FF7
0E136:  MOVLW  00
0E138:  MOVWF  FF8
0E13A:  CALL   4248
....................                         SendDataDisplay(); 
0E13E:  CALL   427A
....................                         printf("Funcionamiento.t5f.txt=\" Despresurizando\""); 
0E142:  MOVLW  62
0E144:  MOVWF  FF6
0E146:  MOVLW  19
0E148:  MOVWF  FF7
0E14A:  MOVLW  00
0E14C:  MOVWF  FF8
0E14E:  CALL   4248
....................                         SendDataDisplay(); 
0E152:  CALL   427A
....................                         Control=0; 
0E156:  MOVLB  1
0E158:  CLRF   xE8
....................                         Desfogue_on; 
0E15A:  BSF    F8C.3
0E15C:  BCF    F95.3
....................                         Paso_on; 
0E15E:  BSF    F8C.1
0E160:  BCF    F95.1
....................                         BombaVacio_off; 
0E162:  BCF    F8C.5
0E164:  BCF    F95.5
....................                         Agua_off; 
0E166:  BCF    F8C.6
0E168:  BCF    F95.6
....................                         Vacio_off; 
0E16A:  BCF    F8C.2
0E16C:  BCF    F95.2
....................                         Aire_off;  
0E16E:  BCF    F8C.4
0E170:  BCF    F95.4
....................                         Suministro_off; 
0E172:  BCF    F8C.0
0E174:  BCF    F95.0
0E176:  MOVLB  0
....................                      } 
....................                   }else{                      
0E178:  BRA    E3BA
....................                      Paso_off; 
0E17A:  BCF    F8C.1
0E17C:  BCF    F95.1
....................                      Controlando=0; 
0E17E:  MOVLB  1
0E180:  CLRF   xEA
....................                      Control=0; 
0E182:  CLRF   xE8
....................                      if(PresionCamara<(Atmosferica+2)){   
0E184:  MOVLW  02
0E186:  MOVLB  2
0E188:  ADDWF  x3C,W
0E18A:  MOVF   x12,F
0E18C:  BTFSS  FD8.2
0E18E:  BRA    E33E
0E190:  SUBWF  x11,W
0E192:  BTFSC  FD8.0
0E194:  BRA    E33E
....................                         if((Tsecado[0]==0)&&(Tsecado[1]==0)&&(Tsecado[2]==0)&&(Tsecado[3]==0)){                           
0E196:  MOVLB  0
0E198:  MOVF   xBD,F
0E19A:  BTFSS  FD8.2
0E19C:  BRA    E28C
0E19E:  MOVF   xBE,F
0E1A0:  BTFSS  FD8.2
0E1A2:  BRA    E28C
0E1A4:  MOVF   xBF,F
0E1A6:  BTFSS  FD8.2
0E1A8:  BRA    E28C
0E1AA:  MOVF   xC0,F
0E1AC:  BNZ   E28C
....................                            codigoAlarma=15; 
0E1AE:  MOVLW  0F
0E1B0:  MOVLB  2
0E1B2:  MOVWF  x27
....................                            if(codigoAnt!=codigoAlarma){ 
0E1B4:  MOVF   x27,W
0E1B6:  SUBWF  x28,W
0E1B8:  BZ    E1C6
....................                               codigoAnt=codigoAlarma; 
0E1BA:  MOVFF  227,228
....................                               GuardaDatoCiclo();                   
0E1BE:  MOVLB  0
0E1C0:  CALL   7338
0E1C4:  MOVLB  2
....................                            } 
....................                            if(!DOOR){ 
0E1C6:  BSF    F93.1
0E1C8:  BTFSS  F81.1
0E1CA:  BRA    E1D6
....................                               Desfogue_off; 
0E1CC:  BCF    F8C.3
0E1CE:  BCF    F95.3
....................                               Paso_off; 
0E1D0:  BCF    F8C.1
0E1D2:  BCF    F95.1
....................                            }else{ 
0E1D4:  BRA    E1DE
....................                               Desfogue_on;                               
0E1D6:  BSF    F8C.3
0E1D8:  BCF    F95.3
....................                               Paso_off; 
0E1DA:  BCF    F8C.1
0E1DC:  BCF    F95.1
....................                            }     
....................                            BombaVacio_off; 
0E1DE:  BCF    F8C.5
0E1E0:  BCF    F95.5
....................                            Agua_off; 
0E1E2:  BCF    F8C.6
0E1E4:  BCF    F95.6
....................                            Vacio_off; 
0E1E6:  BCF    F8C.2
0E1E8:  BCF    F95.2
....................                            Aire_on; 
0E1EA:  BSF    F8C.4
0E1EC:  BCF    F95.4
....................                            Desfogue_on; 
0E1EE:  BSF    F8C.3
0E1F0:  BCF    F95.3
....................                            Paso_off; 
0E1F2:  BCF    F8C.1
0E1F4:  BCF    F95.1
....................                            Suministro_off; 
0E1F6:  BCF    F8C.0
0E1F8:  BCF    F95.0
....................                            Secando=OFF; 
0E1FA:  MOVLB  0
0E1FC:  BCF    xA3.4
....................                            if(Temperatura<=Tapertura){ 
0E1FE:  MOVLB  6
0E200:  CLRF   x61
0E202:  MOVFF  1F6,660
0E206:  MOVLB  0
0E208:  CALL   1F38
0E20C:  MOVFF  1D6,652
0E210:  MOVFF  1D5,651
0E214:  MOVFF  1D4,650
0E218:  MOVFF  1D3,64F
0E21C:  MOVFF  03,656
0E220:  MOVFF  02,655
0E224:  MOVFF  01,654
0E228:  MOVFF  00,653
0E22C:  CALL   25CA
0E230:  BC    E234
0E232:  BNZ   E280
....................                               ActivaAlarma(2); 
0E234:  MOVLW  02
0E236:  MOVLB  6
0E238:  MOVWF  x4B
0E23A:  MOVLB  0
0E23C:  CALL   59C8
....................                               printf("Funcionamiento.t4f.txt=\" Ninguna\""); 
0E240:  MOVLW  8C
0E242:  MOVWF  FF6
0E244:  MOVLW  19
0E246:  MOVWF  FF7
0E248:  MOVLW  00
0E24A:  MOVWF  FF8
0E24C:  CALL   4248
....................                               SendDataDisplay(); 
0E250:  CALL   427A
....................                               printf("Funcionamiento.t5f.txt=\" Finalizado\""); 
0E254:  MOVLW  AE
0E256:  MOVWF  FF6
0E258:  MOVLW  19
0E25A:  MOVWF  FF7
0E25C:  MOVLW  00
0E25E:  MOVWF  FF8
0E260:  CALL   4248
....................                               SendDataDisplay(); 
0E264:  CALL   427A
....................                               Finalizo=ON; 
0E268:  BSF    xA8.3
....................                               codigoAlarma=14; 
0E26A:  MOVLW  0E
0E26C:  MOVLB  2
0E26E:  MOVWF  x27
....................                               if(codigoAnt!=codigoAlarma){ 
0E270:  MOVF   x27,W
0E272:  SUBWF  x28,W
0E274:  BZ    E282
....................                                  codigoAnt=codigoAlarma; 
0E276:  MOVFF  227,228
....................                                  GuardaDatoCiclo();                   
0E27A:  MOVLB  0
0E27C:  CALL   7338
0E280:  MOVLB  2
....................                               } 
....................                            } 
....................                            incrementaCiclos(); 
0E282:  MOVLB  0
0E284:  CALL   7798
....................                            Secando=OFF; 
0E288:  BCF    xA3.4
....................                         }else{ 
0E28A:  BRA    E33A
....................                            if(Secando){ 
0E28C:  BTFSS  xA3.4
0E28E:  BRA    E2B8
....................                               printf("Funcionamiento.t4f.txt=\" Ninguna\""); 
0E290:  MOVLW  D4
0E292:  MOVWF  FF6
0E294:  MOVLW  19
0E296:  MOVWF  FF7
0E298:  MOVLW  00
0E29A:  MOVWF  FF8
0E29C:  CALL   4248
....................                               SendDataDisplay(); 
0E2A0:  CALL   427A
....................                               printf("Funcionamiento.t5f.txt=\" Secando\""); 
0E2A4:  MOVLW  F6
0E2A6:  MOVWF  FF6
0E2A8:  MOVLW  19
0E2AA:  MOVWF  FF7
0E2AC:  MOVLW  00
0E2AE:  MOVWF  FF8
0E2B0:  CALL   4248
....................                               SendDataDisplay(); 
0E2B4:  CALL   427A
....................                            } 
....................                            Paso_off; 
0E2B8:  BCF    F8C.1
0E2BA:  BCF    F95.1
....................                            ControlaPresion(); 
0E2BC:  CALL   7828
....................                            if(PresionCamara>NivelVacio+5){//Si la presin de la camara es mayor al nivel de vacio 
0E2C0:  MOVLW  05
0E2C2:  MOVLB  2
0E2C4:  ADDWF  x3B,W
0E2C6:  MOVF   x12,F
0E2C8:  BNZ   E2D0
0E2CA:  SUBWF  x11,W
0E2CC:  BZ    E2F6
0E2CE:  BNC   E2F6
....................                               if(CalderinLleno) 
0E2D0:  MOVLB  0
0E2D2:  BTFSS  xA6.0
0E2D4:  BRA    E2DC
....................                                  BombaVacio_on; 
0E2D6:  BSF    F8C.5
0E2D8:  BCF    F95.5
....................                               else 
0E2DA:  BRA    E2E0
....................                                  BombaVacio_off; 
0E2DC:  BCF    F8C.5
0E2DE:  BCF    F95.5
....................                               Vacio_on; 
0E2E0:  BSF    F8C.2
0E2E2:  BCF    F95.2
....................                               Agua_on; 
0E2E4:  BSF    F8C.6
0E2E6:  BCF    F95.6
....................                               Desfogue_off; 
0E2E8:  BCF    F8C.3
0E2EA:  BCF    F95.3
....................                               Aire_off; 
0E2EC:  BCF    F8C.4
0E2EE:  BCF    F95.4
....................                               Paso_off; 
0E2F0:  BCF    F8C.1
0E2F2:  BCF    F95.1
0E2F4:  MOVLB  2
....................                            } 
....................        
....................                            if(PresionCamara<=NivelVacio){//Si alcanzo el nivel de vacio requerido 
0E2F6:  MOVF   x12,F
0E2F8:  BNZ   E33C
0E2FA:  MOVF   x11,W
0E2FC:  SUBWF  x3B,W
0E2FE:  BNC   E33C
....................                               codigoAlarma=15; 
0E300:  MOVLW  0F
0E302:  MOVWF  x27
....................                               if(codigoAnt!=codigoAlarma){ 
0E304:  MOVF   x27,W
0E306:  SUBWF  x28,W
0E308:  BZ    E314
....................                                  codigoAnt=codigoAlarma; 
0E30A:  MOVFF  227,228
....................                                  GuardaDatoCiclo();                   
0E30E:  MOVLB  0
0E310:  CALL   7338
....................                               } 
....................                               Secando=ON; 
0E314:  MOVLB  0
0E316:  BSF    xA3.4
....................                               if(CalderinLleno) 
0E318:  BTFSS  xA6.0
0E31A:  BRA    E322
....................                                  BombaVacio_on; 
0E31C:  BSF    F8C.5
0E31E:  BCF    F95.5
....................                               else 
0E320:  BRA    E326
....................                                  BombaVacio_off; 
0E322:  BCF    F8C.5
0E324:  BCF    F95.5
....................                               Agua_on; 
0E326:  BSF    F8C.6
0E328:  BCF    F95.6
....................                               Vacio_on; 
0E32A:  BSF    F8C.2
0E32C:  BCF    F95.2
....................                               Desfogue_off; 
0E32E:  BCF    F8C.3
0E330:  BCF    F95.3
....................                               Aire_on;                      
0E332:  BSF    F8C.4
0E334:  BCF    F95.4
....................                               Paso_off; 
0E336:  BCF    F8C.1
0E338:  BCF    F95.1
0E33A:  MOVLB  2
....................                            } 
....................                         } 
....................                      }else if(PresionCamara>(Atmosferica+5)){ 
0E33C:  BRA    E3BC
0E33E:  MOVLW  05
0E340:  ADDWF  x3C,W
0E342:  MOVF   x12,F
0E344:  BNZ   E34C
0E346:  SUBWF  x11,W
0E348:  BZ    E3BC
0E34A:  BNC   E3BC
....................                         codigoAlarma=13; 
0E34C:  MOVLW  0D
0E34E:  MOVWF  x27
....................                         if(codigoAnt!=codigoAlarma){ 
0E350:  MOVF   x27,W
0E352:  SUBWF  x28,W
0E354:  BZ    E360
....................                            codigoAnt=codigoAlarma; 
0E356:  MOVFF  227,228
....................                            GuardaDatoCiclo();                   
0E35A:  MOVLB  0
0E35C:  CALL   7338
....................                         } 
....................                         Desfogando=ON; 
0E360:  MOVLB  0
0E362:  BSF    xA3.6
....................                         printf("Funcionamiento.t4f.txt=\" Ninguna\""); 
0E364:  MOVLW  18
0E366:  MOVWF  FF6
0E368:  MOVLW  1A
0E36A:  MOVWF  FF7
0E36C:  MOVLW  00
0E36E:  MOVWF  FF8
0E370:  CALL   4248
....................                         SendDataDisplay(); 
0E374:  CALL   427A
....................                         printf("Funcionamiento.t5f.txt=\" Despresurizando\""); 
0E378:  MOVLW  3A
0E37A:  MOVWF  FF6
0E37C:  MOVLW  1A
0E37E:  MOVWF  FF7
0E380:  MOVLW  00
0E382:  MOVWF  FF8
0E384:  CALL   4248
....................                         SendDataDisplay(); 
0E388:  CALL   427A
....................                         Control=0; 
0E38C:  MOVLB  1
0E38E:  CLRF   xE8
....................                         Controlando=0; 
0E390:  CLRF   xEA
....................                         Paso_off; 
0E392:  BCF    F8C.1
0E394:  BCF    F95.1
....................                         Desfogue_off; 
0E396:  BCF    F8C.3
0E398:  BCF    F95.3
....................                         if(CalderinLleno) 
0E39A:  MOVLB  0
0E39C:  BTFSS  xA6.0
0E39E:  BRA    E3A6
....................                            BombaVacio_on; 
0E3A0:  BSF    F8C.5
0E3A2:  BCF    F95.5
....................                         else 
0E3A4:  BRA    E3AA
....................                            BombaVacio_off;    
0E3A6:  BCF    F8C.5
0E3A8:  BCF    F95.5
....................                         Agua_on; 
0E3AA:  BSF    F8C.6
0E3AC:  BCF    F95.6
....................                         Vacio_on; 
0E3AE:  BSF    F8C.2
0E3B0:  BCF    F95.2
....................                         Aire_off; 
0E3B2:  BCF    F8C.4
0E3B4:  BCF    F95.4
....................                         Suministro_off; 
0E3B6:  BCF    F8C.0
0E3B8:  BCF    F95.0
0E3BA:  MOVLB  2
....................                      } 
....................                   } 
....................                }else{ 
0E3BC:  BRA    E410
0E3BE:  MOVLB  0
....................                   codigoAlarma=16; 
0E3C0:  MOVLW  10
0E3C2:  MOVLB  2
0E3C4:  MOVWF  x27
....................                   if(codigoAnt!=codigoAlarma){ 
0E3C6:  MOVF   x27,W
0E3C8:  SUBWF  x28,W
0E3CA:  BZ    E3D8
....................                      codigoAnt=codigoAlarma; 
0E3CC:  MOVFF  227,228
....................                      GuardaDatoCiclo();                   
0E3D0:  MOVLB  0
0E3D2:  CALL   7338
0E3D6:  MOVLB  2
....................                   } 
....................                   printf("Funcionamiento.t4f.txt=\" Ninguna\""); 
0E3D8:  MOVLW  64
0E3DA:  MOVWF  FF6
0E3DC:  MOVLW  1A
0E3DE:  MOVWF  FF7
0E3E0:  MOVLW  00
0E3E2:  MOVWF  FF8
0E3E4:  MOVLB  0
0E3E6:  CALL   4248
....................                   SendDataDisplay(); 
0E3EA:  CALL   427A
....................                   printf("Funcionamiento.t5f.txt=\" Esterilizando\""); 
0E3EE:  MOVLW  86
0E3F0:  MOVWF  FF6
0E3F2:  MOVLW  1A
0E3F4:  MOVWF  FF7
0E3F6:  MOVLW  00
0E3F8:  MOVWF  FF8
0E3FA:  CALL   4248
....................                   SendDataDisplay(); 
0E3FE:  CALL   427A
....................                   //Paso_on; 
....................                   Control=1; 
0E402:  MOVLW  01
0E404:  MOVLB  1
0E406:  MOVWF  xE8
....................                   Controla(); 
0E408:  MOVLB  0
0E40A:  CALL   7850
0E40E:  MOVLB  2
....................                } 
....................             } 
....................          } 
....................       }  
....................       }else{ 
0E410:  BRA    E600
0E412:  MOVLB  0
....................       Buzzer_off; 
0E414:  BCF    F8B.5
0E416:  BCF    F94.5
....................       IniciaCiclo=ON; 
0E418:  BSF    xA3.2
....................          if(!flag_vac){ 
0E41A:  BTFSC  xA9.6
0E41C:  BRA    E46C
....................             codigoAlarma=11; 
0E41E:  MOVLW  0B
0E420:  MOVLB  2
0E422:  MOVWF  x27
....................             if(codigoAnt!=codigoAlarma){ 
0E424:  MOVF   x27,W
0E426:  SUBWF  x28,W
0E428:  BZ    E434
....................                codigoAnt=codigoAlarma; 
0E42A:  MOVFF  227,228
....................                GuardaDatoCiclo();                
0E42E:  MOVLB  0
0E430:  CALL   7338
....................             } 
....................             flag_vac=ON; 
0E434:  MOVLB  0
0E436:  BSF    xA9.6
....................             if(CalderinLleno) 
0E438:  BTFSS  xA6.0
0E43A:  BRA    E442
....................                BombaVacio_on; 
0E43C:  BSF    F8C.5
0E43E:  BCF    F95.5
....................             else 
0E440:  BRA    E446
....................                BombaVacio_off; 
0E442:  BCF    F8C.5
0E444:  BCF    F95.5
....................             Desfogue_off; 
0E446:  BCF    F8C.3
0E448:  BCF    F95.3
....................             Aire_off; 
0E44A:  BCF    F8C.4
0E44C:  BCF    F95.4
....................             Agua_off; 
0E44E:  BCF    F8C.6
0E450:  BCF    F95.6
....................             Paso_off; 
0E452:  BCF    F8C.1
0E454:  BCF    F95.1
....................             Suministro_off; 
0E456:  BCF    F8C.0
0E458:  BCF    F95.0
....................             delay_ms(70); 
0E45A:  MOVLW  46
0E45C:  MOVLB  6
0E45E:  MOVWF  x64
0E460:  MOVLB  0
0E462:  CALL   1F6E
....................             IniciaVacio2=ON; 
0E466:  BSF    xA9.4
....................             Vacio_on; 
0E468:  BSF    F8C.2
0E46A:  BCF    F95.2
....................          } 
....................           
....................          if(tbomba>=120){ 
0E46C:  MOVLB  2
0E46E:  MOVF   x18,F
0E470:  BNZ   E478
0E472:  MOVF   x17,W
0E474:  SUBLW  77
0E476:  BC    E492
....................             if(PresionCamara>Atmosferica){ 
0E478:  MOVF   x12,F
0E47A:  BNZ   E482
0E47C:  MOVF   x11,W
0E47E:  SUBWF  x3C,W
0E480:  BC    E48A
....................                AlarmaBomba=ON; 
0E482:  MOVLB  0
0E484:  BSF    xA2.6
....................             }else{ 
0E486:  BRA    E492
0E488:  MOVLB  2
....................                tbomba=0; 
0E48A:  CLRF   x18
0E48C:  CLRF   x17
....................                IniciaVacio2=OFF; 
0E48E:  MOVLB  0
0E490:  BCF    xA9.4
....................             } 
....................          } 
....................           
....................          if(tvacio>=TiempoVacio){//Si excede el tiempo maximo para generar los pulsos de vacio genera alarma             
0E492:  MOVLB  0
0E494:  MOVF   xA5,W
0E496:  MOVLB  2
0E498:  SUBWF  x1A,W
0E49A:  BNC   E4AE
0E49C:  BNZ   E4A8
0E49E:  MOVLB  0
0E4A0:  MOVF   xA4,W
0E4A2:  MOVLB  2
0E4A4:  SUBWF  x19,W
0E4A6:  BNC   E4AE
....................                AlarmaVacio=ON; 
0E4A8:  MOVLB  0
0E4AA:  BSF    xA2.5
0E4AC:  MOVLB  2
....................          } 
....................           
....................          if(PresionCamara<55){ 
0E4AE:  MOVF   x12,F
0E4B0:  BNZ   E4E0
0E4B2:  MOVF   x11,W
0E4B4:  SUBLW  36
0E4B6:  BNC   E4E0
....................             BombaVacio_off; 
0E4B8:  BCF    F8C.5
0E4BA:  BCF    F95.5
....................             Vacio_off; 
0E4BC:  BCF    F8C.2
0E4BE:  BCF    F95.2
....................             Desfogue_off; 
0E4C0:  BCF    F8C.3
0E4C2:  BCF    F95.3
....................             Aire_off; 
0E4C4:  BCF    F8C.4
0E4C6:  BCF    F95.4
....................             Agua_off; 
0E4C8:  BCF    F8C.6
0E4CA:  BCF    F95.6
....................             Paso_off; 
0E4CC:  BCF    F8C.1
0E4CE:  BCF    F95.1
....................             Suministro_off; 
0E4D0:  BCF    F8C.0
0E4D2:  BCF    F95.0
....................             Esterilizando=ON; 
0E4D4:  MOVLB  0
0E4D6:  BSF    xA3.3
....................             IniciaVacio=OFF; 
0E4D8:  BCF    xA9.3
....................             tbomba=0; 
0E4DA:  MOVLB  2
0E4DC:  CLRF   x18
0E4DE:  CLRF   x17
....................          }  
....................           
....................          if(!Esterilizando){ 
0E4E0:  MOVLB  0
0E4E2:  BTFSC  xA3.3
0E4E4:  BRA    E51C
....................             if(CalderinLleno) 
0E4E6:  BTFSS  xA6.0
0E4E8:  BRA    E4F0
....................                BombaVacio_on; 
0E4EA:  BSF    F8C.5
0E4EC:  BCF    F95.5
....................             else 
0E4EE:  BRA    E4F4
....................                BombaVacio_off; 
0E4F0:  BCF    F8C.5
0E4F2:  BCF    F95.5
....................              
....................             printf("Funcionamiento.t4f.txt=\" Ninguna\""); 
0E4F4:  MOVLW  AE
0E4F6:  MOVWF  FF6
0E4F8:  MOVLW  1A
0E4FA:  MOVWF  FF7
0E4FC:  MOVLW  00
0E4FE:  MOVWF  FF8
0E500:  CALL   4248
....................             SendDataDisplay(); 
0E504:  CALL   427A
....................             printf("Funcionamiento.t5f.txt=\" Vacio\""); 
0E508:  MOVLW  D0
0E50A:  MOVWF  FF6
0E50C:  MOVLW  1A
0E50E:  MOVWF  FF7
0E510:  MOVLW  00
0E512:  MOVWF  FF8
0E514:  CALL   4248
....................             SendDataDisplay(); 
0E518:  CALL   427A
....................          } 
....................           
....................          if((Testerilizacion[0]==0)&&(Testerilizacion[1]==0)&&(Testerilizacion[2]==0)&&(Testerilizacion[3]==0)){                 
0E51C:  MOVF   xB5,F
0E51E:  BTFSS  FD8.2
0E520:  BRA    E5FE
0E522:  MOVF   xB6,F
0E524:  BNZ   E5FE
0E526:  MOVF   xB7,F
0E528:  BNZ   E5FE
0E52A:  MOVF   xB8,F
0E52C:  BNZ   E5FE
....................             IniciaVacio=OFF; 
0E52E:  BCF    xA9.3
....................             tbomba=0; 
0E530:  MOVLB  2
0E532:  CLRF   x18
0E534:  CLRF   x17
....................             BombaVacio_off; 
0E536:  BCF    F8C.5
0E538:  BCF    F95.5
....................             Vacio_off; 
0E53A:  BCF    F8C.2
0E53C:  BCF    F95.2
....................             Desfogue_off; 
0E53E:  BCF    F8C.3
0E540:  BCF    F95.3
....................             Aire_on; 
0E542:  BSF    F8C.4
0E544:  BCF    F95.4
....................             Paso_off; 
0E546:  BCF    F8C.1
0E548:  BCF    F95.1
....................             Suministro_off; 
0E54A:  BCF    F8C.0
0E54C:  BCF    F95.0
....................             Agua_off; 
0E54E:  BCF    F8C.6
0E550:  BCF    F95.6
....................             ActivaAlarma(2); 
0E552:  MOVLW  02
0E554:  MOVLB  6
0E556:  MOVWF  x4B
0E558:  MOVLB  0
0E55A:  CALL   59C8
....................             if(!Finalizo){ 
0E55E:  BTFSC  xA8.3
0E560:  BRA    E5F4
....................                Finalizo=ON; 
0E562:  BSF    xA8.3
....................                if(PresionCamara<=60){ 
0E564:  MOVLB  2
0E566:  MOVF   x12,F
0E568:  BNZ   E5B4
0E56A:  MOVF   x11,W
0E56C:  SUBLW  3C
0E56E:  BNC   E5B4
....................                   printf("Funcionamiento.t4f.txt=\" Ninguna\""); 
0E570:  MOVLW  F0
0E572:  MOVWF  FF6
0E574:  MOVLW  1A
0E576:  MOVWF  FF7
0E578:  MOVLW  00
0E57A:  MOVWF  FF8
0E57C:  MOVLB  0
0E57E:  CALL   4248
....................                   SendDataDisplay(); 
0E582:  CALL   427A
....................                   printf("Funcionamiento.t5f.txt=\" Finalizado\""); 
0E586:  MOVLW  12
0E588:  MOVWF  FF6
0E58A:  MOVLW  1B
0E58C:  MOVWF  FF7
0E58E:  MOVLW  00
0E590:  MOVWF  FF8
0E592:  CALL   4248
....................                   SendDataDisplay(); 
0E596:  CALL   427A
....................                   codigoAlarma=14; 
0E59A:  MOVLW  0E
0E59C:  MOVLB  2
0E59E:  MOVWF  x27
....................                   if(codigoAnt!=codigoAlarma){ 
0E5A0:  MOVF   x27,W
0E5A2:  SUBWF  x28,W
0E5A4:  BZ    E5B2
....................                      codigoAnt=codigoAlarma; 
0E5A6:  MOVFF  227,228
....................                      GuardaDatoCiclo();                   
0E5AA:  MOVLB  0
0E5AC:  CALL   7338
0E5B0:  MOVLB  2
....................                   } 
....................                }else{ 
0E5B2:  BRA    E5F6
....................                   printf("Funcionamiento.t4f.txt=\" Error Ciclo\""); 
0E5B4:  MOVLW  38
0E5B6:  MOVWF  FF6
0E5B8:  MOVLW  1B
0E5BA:  MOVWF  FF7
0E5BC:  MOVLW  00
0E5BE:  MOVWF  FF8
0E5C0:  MOVLB  0
0E5C2:  CALL   4248
....................                   SendDataDisplay(); 
0E5C6:  CALL   427A
....................                   printf("Funcionamiento.t5f.txt=\" Finalizado\""); 
0E5CA:  MOVLW  5E
0E5CC:  MOVWF  FF6
0E5CE:  MOVLW  1B
0E5D0:  MOVWF  FF7
0E5D2:  MOVLW  00
0E5D4:  MOVWF  FF8
0E5D6:  CALL   4248
....................                   SendDataDisplay(); 
0E5DA:  CALL   427A
....................                   codigoAlarma=8; 
0E5DE:  MOVLW  08
0E5E0:  MOVLB  2
0E5E2:  MOVWF  x27
....................                   if(codigoAnt!=codigoAlarma){ 
0E5E4:  MOVF   x27,W
0E5E6:  SUBWF  x28,W
0E5E8:  BZ    E5F6
....................                      codigoAnt=codigoAlarma; 
0E5EA:  MOVFF  227,228
....................                      GuardaDatoCiclo();                   
0E5EE:  MOVLB  0
0E5F0:  CALL   7338
0E5F4:  MOVLB  2
....................                   } 
....................                } 
....................             } 
....................             incrementaCiclos(); 
0E5F6:  MOVLB  0
0E5F8:  CALL   7798
....................             Esterilizando=OFF; 
0E5FC:  BCF    xA3.3
0E5FE:  MOVLB  2
....................          } 
....................       } 
....................    } 
....................  
....................    if(tguarda>=300){ 
0E600:  MOVLB  0
0E602:  MOVF   xB4,W
0E604:  SUBLW  00
0E606:  BC    E61E
0E608:  XORLW  FF
0E60A:  BNZ   E612
0E60C:  MOVF   xB3,W
0E60E:  SUBLW  2B
0E610:  BC    E61E
....................       if(!Ciclo) 
0E612:  BTFSC  xA6.6
0E614:  BRA    E61A
....................          GuardaDatoCiclo(); 
0E616:  CALL   7338
....................       tguarda=0; 
0E61A:  CLRF   xB4
0E61C:  CLRF   xB3
....................    } 
....................  
....................    if(Grafica==1){ 
0E61E:  BTFSS  xAA.4
0E620:  BRA    E792
....................       printf("add 14,0,%1.0f",Temperatura*0.66); 
0E622:  MOVFF  1D6,664
0E626:  MOVFF  1D5,663
0E62A:  MOVFF  1D4,662
0E62E:  MOVFF  1D3,661
0E632:  MOVLW  C3
0E634:  MOVLB  6
0E636:  MOVWF  x68
0E638:  MOVLW  F5
0E63A:  MOVWF  x67
0E63C:  MOVLW  28
0E63E:  MOVWF  x66
0E640:  MOVLW  7E
0E642:  MOVWF  x65
0E644:  MOVLB  0
0E646:  CALL   42D8
0E64A:  MOVFF  00,64B
0E64E:  MOVFF  01,64C
0E652:  MOVFF  02,64D
0E656:  MOVFF  03,64E
0E65A:  MOVLW  84
0E65C:  MOVWF  FF6
0E65E:  MOVLW  1B
0E660:  MOVWF  FF7
0E662:  MOVLW  00
0E664:  MOVWF  FF8
0E666:  MOVLW  09
0E668:  MOVLB  6
0E66A:  MOVWF  x51
0E66C:  MOVLB  0
0E66E:  CALL   5AAC
0E672:  MOVLW  00
0E674:  MOVWF  FE9
0E676:  MOVFF  64E,654
0E67A:  MOVFF  64D,653
0E67E:  MOVFF  64C,652
0E682:  MOVFF  64B,651
0E686:  MOVLB  6
0E688:  CLRF   x55
0E68A:  MOVLB  0
0E68C:  CALL   6424
....................       SendDataDisplay(); 
0E690:  CALL   427A
....................       printf("add 14,1,%1.0f",PresionCamara*0.66); 
0E694:  MOVFF  212,661
0E698:  MOVFF  211,660
0E69C:  CALL   1F38
0E6A0:  MOVFF  03,664
0E6A4:  MOVFF  02,663
0E6A8:  MOVFF  01,662
0E6AC:  MOVFF  00,661
0E6B0:  MOVLW  C3
0E6B2:  MOVLB  6
0E6B4:  MOVWF  x68
0E6B6:  MOVLW  F5
0E6B8:  MOVWF  x67
0E6BA:  MOVLW  28
0E6BC:  MOVWF  x66
0E6BE:  MOVLW  7E
0E6C0:  MOVWF  x65
0E6C2:  MOVLB  0
0E6C4:  CALL   42D8
0E6C8:  MOVFF  00,64B
0E6CC:  MOVFF  01,64C
0E6D0:  MOVFF  02,64D
0E6D4:  MOVFF  03,64E
0E6D8:  MOVLW  94
0E6DA:  MOVWF  FF6
0E6DC:  MOVLW  1B
0E6DE:  MOVWF  FF7
0E6E0:  MOVLW  00
0E6E2:  MOVWF  FF8
0E6E4:  MOVLW  09
0E6E6:  MOVLB  6
0E6E8:  MOVWF  x51
0E6EA:  MOVLB  0
0E6EC:  CALL   5AAC
0E6F0:  MOVLW  00
0E6F2:  MOVWF  FE9
0E6F4:  MOVFF  64E,654
0E6F8:  MOVFF  64D,653
0E6FC:  MOVFF  64C,652
0E700:  MOVFF  64B,651
0E704:  MOVLB  6
0E706:  CLRF   x55
0E708:  MOVLB  0
0E70A:  CALL   6424
....................       SendDataDisplay(); 
0E70E:  CALL   427A
....................       printf("add 14,2,%1.0f",PresionPreCamara*0.66); 
0E712:  MOVFF  214,661
0E716:  MOVFF  213,660
0E71A:  CALL   1F38
0E71E:  MOVFF  03,664
0E722:  MOVFF  02,663
0E726:  MOVFF  01,662
0E72A:  MOVFF  00,661
0E72E:  MOVLW  C3
0E730:  MOVLB  6
0E732:  MOVWF  x68
0E734:  MOVLW  F5
0E736:  MOVWF  x67
0E738:  MOVLW  28
0E73A:  MOVWF  x66
0E73C:  MOVLW  7E
0E73E:  MOVWF  x65
0E740:  MOVLB  0
0E742:  CALL   42D8
0E746:  MOVFF  00,64B
0E74A:  MOVFF  01,64C
0E74E:  MOVFF  02,64D
0E752:  MOVFF  03,64E
0E756:  MOVLW  A4
0E758:  MOVWF  FF6
0E75A:  MOVLW  1B
0E75C:  MOVWF  FF7
0E75E:  MOVLW  00
0E760:  MOVWF  FF8
0E762:  MOVLW  09
0E764:  MOVLB  6
0E766:  MOVWF  x51
0E768:  MOVLB  0
0E76A:  CALL   5AAC
0E76E:  MOVLW  00
0E770:  MOVWF  FE9
0E772:  MOVFF  64E,654
0E776:  MOVFF  64D,653
0E77A:  MOVFF  64C,652
0E77E:  MOVFF  64B,651
0E782:  MOVLB  6
0E784:  CLRF   x55
0E786:  MOVLB  0
0E788:  CALL   6424
....................       SendDataDisplay(); 
0E78C:  CALL   427A
....................       Grafica=0; 
0E790:  BCF    xAA.4
....................    } 
....................    if(Lectura==1)// Utilizado para visualizar la lectura de la temperatura 
0E792:  BTFSS  xAA.3
0E794:  BRA    EAD4
....................    {                       
....................       Lectura=0; 
0E796:  BCF    xAA.3
....................       printf("tuser.txt=\"Ciclo #%05Lu  %s\"",Ciclos,usuario); 
0E798:  MOVLW  B4
0E79A:  MOVWF  FF6
0E79C:  MOVLW  1B
0E79E:  MOVWF  FF7
0E7A0:  MOVLW  00
0E7A2:  MOVWF  FF8
0E7A4:  MOVLW  12
0E7A6:  MOVLB  6
0E7A8:  MOVWF  x51
0E7AA:  MOVLB  0
0E7AC:  CALL   5AAC
0E7B0:  MOVLW  08
0E7B2:  MOVWF  FE9
0E7B4:  MOVFF  216,652
0E7B8:  MOVFF  215,651
0E7BC:  CALL   62B6
0E7C0:  MOVLW  20
0E7C2:  BTFSS  F9E.4
0E7C4:  BRA    E7C2
0E7C6:  MOVWF  FAD
0E7C8:  MOVLW  20
0E7CA:  BTFSS  F9E.4
0E7CC:  BRA    E7CA
0E7CE:  MOVWF  FAD
0E7D0:  MOVLW  02
0E7D2:  MOVWF  FEA
0E7D4:  MOVLW  51
0E7D6:  MOVWF  FE9
0E7D8:  CALL   5ADE
0E7DC:  MOVLW  22
0E7DE:  BTFSS  F9E.4
0E7E0:  BRA    E7DE
0E7E2:  MOVWF  FAD
....................       SendDataDisplay(); 
0E7E4:  CALL   427A
....................       printf("t6f.txt=\"%3.1fC\"",Temperatura); 
0E7E8:  MOVLW  D2
0E7EA:  MOVWF  FF6
0E7EC:  MOVLW  1B
0E7EE:  MOVWF  FF7
0E7F0:  MOVLW  00
0E7F2:  MOVWF  FF8
0E7F4:  MOVLW  09
0E7F6:  MOVLB  6
0E7F8:  MOVWF  x51
0E7FA:  MOVLB  0
0E7FC:  CALL   5AAC
0E800:  MOVLW  02
0E802:  MOVWF  FE9
0E804:  MOVFF  1D6,654
0E808:  MOVFF  1D5,653
0E80C:  MOVFF  1D4,652
0E810:  MOVFF  1D3,651
0E814:  MOVLW  01
0E816:  MOVLB  6
0E818:  MOVWF  x55
0E81A:  MOVLB  0
0E81C:  CALL   6424
0E820:  MOVLW  B0
0E822:  BTFSS  F9E.4
0E824:  BRA    E822
0E826:  MOVWF  FAD
0E828:  MOVLW  43
0E82A:  BTFSS  F9E.4
0E82C:  BRA    E82A
0E82E:  MOVWF  FAD
0E830:  MOVLW  22
0E832:  BTFSS  F9E.4
0E834:  BRA    E832
0E836:  MOVWF  FAD
....................       SendDataDisplay(); 
0E838:  CALL   427A
....................       printf("Funcionamiento.t7f.txt=\"%03LukPa\"",PresionCamara); 
0E83C:  MOVLW  E4
0E83E:  MOVWF  FF6
0E840:  MOVLW  1B
0E842:  MOVWF  FF7
0E844:  MOVLW  00
0E846:  MOVWF  FF8
0E848:  MOVLW  18
0E84A:  MOVLB  6
0E84C:  MOVWF  x51
0E84E:  MOVLB  0
0E850:  CALL   5AAC
0E854:  MOVLW  0A
0E856:  MOVWF  FE9
0E858:  MOVFF  212,652
0E85C:  MOVFF  211,651
0E860:  CALL   62B6
0E864:  MOVLW  01
0E866:  MOVWF  FF6
0E868:  MOVLW  1C
0E86A:  MOVWF  FF7
0E86C:  MOVLW  00
0E86E:  MOVWF  FF8
0E870:  MOVLW  04
0E872:  MOVLB  6
0E874:  MOVWF  x51
0E876:  MOVLB  0
0E878:  CALL   5AAC
....................       SendDataDisplay(); 
0E87C:  CALL   427A
....................       printf("Funcionamiento.t12f.txt=\"%03LukPa\"",PresionPreCamara); 
0E880:  MOVLW  06
0E882:  MOVWF  FF6
0E884:  MOVLW  1C
0E886:  MOVWF  FF7
0E888:  MOVLW  00
0E88A:  MOVWF  FF8
0E88C:  MOVLW  19
0E88E:  MOVLB  6
0E890:  MOVWF  x51
0E892:  MOVLB  0
0E894:  CALL   5AAC
0E898:  MOVLW  0A
0E89A:  MOVWF  FE9
0E89C:  MOVFF  214,652
0E8A0:  MOVFF  213,651
0E8A4:  CALL   62B6
0E8A8:  MOVLW  24
0E8AA:  MOVWF  FF6
0E8AC:  MOVLW  1C
0E8AE:  MOVWF  FF7
0E8B0:  MOVLW  00
0E8B2:  MOVWF  FF8
0E8B4:  MOVLW  04
0E8B6:  MOVLB  6
0E8B8:  MOVWF  x51
0E8BA:  MOVLB  0
0E8BC:  CALL   5AAC
....................       SendDataDisplay(); 
0E8C0:  CALL   427A
....................       printf("Funcionamiento.t9f.txt=\"%03u\"",Setpoint); 
0E8C4:  MOVLW  2A
0E8C6:  MOVWF  FF6
0E8C8:  MOVLW  1C
0E8CA:  MOVWF  FF7
0E8CC:  MOVLW  00
0E8CE:  MOVWF  FF8
0E8D0:  MOVLW  18
0E8D2:  MOVLB  6
0E8D4:  MOVWF  x51
0E8D6:  MOVLB  0
0E8D8:  CALL   5AAC
0E8DC:  MOVFF  1FF,651
0E8E0:  MOVLW  03
0E8E2:  MOVLB  6
0E8E4:  MOVWF  x52
0E8E6:  MOVLB  0
0E8E8:  CALL   5B30
0E8EC:  MOVLW  22
0E8EE:  BTFSS  F9E.4
0E8F0:  BRA    E8EE
0E8F2:  MOVWF  FAD
....................       SendDataDisplay();       
0E8F4:  CALL   427A
....................       printf("Funcionamiento.t10f.txt=\"%02u\"",((Testerilizacion[3]*10)+Testerilizacion[2])); 
0E8F8:  MOVFF  B8,64D
0E8FC:  MOVLW  0A
0E8FE:  MOVLB  6
0E900:  MOVWF  x4E
0E902:  MOVLB  0
0E904:  CALL   3D3A
0E908:  MOVF   xB7,W
0E90A:  ADDWF  01,W
0E90C:  MOVLB  6
0E90E:  MOVWF  x4B
0E910:  MOVLW  48
0E912:  MOVWF  FF6
0E914:  MOVLW  1C
0E916:  MOVWF  FF7
0E918:  MOVLW  00
0E91A:  MOVWF  FF8
0E91C:  MOVLW  19
0E91E:  MOVWF  x51
0E920:  MOVLB  0
0E922:  CALL   5AAC
0E926:  MOVFF  64B,651
0E92A:  MOVLW  01
0E92C:  MOVLB  6
0E92E:  MOVWF  x52
0E930:  MOVLB  0
0E932:  CALL   5B30
0E936:  MOVLW  22
0E938:  BTFSS  F9E.4
0E93A:  BRA    E938
0E93C:  MOVWF  FAD
....................       SendDataDisplay();       
0E93E:  CALL   427A
....................       printf("Funcionamiento.t13f.txt=\"%02u\"",((Testerilizacion[1]*10)+Testerilizacion[0])); 
0E942:  MOVFF  B6,64D
0E946:  MOVLW  0A
0E948:  MOVLB  6
0E94A:  MOVWF  x4E
0E94C:  MOVLB  0
0E94E:  CALL   3D3A
0E952:  MOVF   xB5,W
0E954:  ADDWF  01,W
0E956:  MOVLB  6
0E958:  MOVWF  x4B
0E95A:  MOVLW  68
0E95C:  MOVWF  FF6
0E95E:  MOVLW  1C
0E960:  MOVWF  FF7
0E962:  MOVLW  00
0E964:  MOVWF  FF8
0E966:  MOVLW  19
0E968:  MOVWF  x51
0E96A:  MOVLB  0
0E96C:  CALL   5AAC
0E970:  MOVFF  64B,651
0E974:  MOVLW  01
0E976:  MOVLB  6
0E978:  MOVWF  x52
0E97A:  MOVLB  0
0E97C:  CALL   5B30
0E980:  MOVLW  22
0E982:  BTFSS  F9E.4
0E984:  BRA    E982
0E986:  MOVWF  FAD
....................       SendDataDisplay();       
0E988:  CALL   427A
....................       printf("Funcionamiento.t11f.txt=\"%02u\"",((Tsecado[3]*10)+Tsecado[2])); 
0E98C:  MOVFF  C0,64D
0E990:  MOVLW  0A
0E992:  MOVLB  6
0E994:  MOVWF  x4E
0E996:  MOVLB  0
0E998:  CALL   3D3A
0E99C:  MOVF   xBF,W
0E99E:  ADDWF  01,W
0E9A0:  MOVLB  6
0E9A2:  MOVWF  x4B
0E9A4:  MOVLW  88
0E9A6:  MOVWF  FF6
0E9A8:  MOVLW  1C
0E9AA:  MOVWF  FF7
0E9AC:  MOVLW  00
0E9AE:  MOVWF  FF8
0E9B0:  MOVLW  19
0E9B2:  MOVWF  x51
0E9B4:  MOVLB  0
0E9B6:  CALL   5AAC
0E9BA:  MOVFF  64B,651
0E9BE:  MOVLW  01
0E9C0:  MOVLB  6
0E9C2:  MOVWF  x52
0E9C4:  MOVLB  0
0E9C6:  CALL   5B30
0E9CA:  MOVLW  22
0E9CC:  BTFSS  F9E.4
0E9CE:  BRA    E9CC
0E9D0:  MOVWF  FAD
....................       SendDataDisplay();       
0E9D2:  CALL   427A
....................       printf("Funcionamiento.t16f.txt=\"%02u\"",((Tsecado[1]*10)+Tsecado[0])); 
0E9D6:  MOVFF  BE,64D
0E9DA:  MOVLW  0A
0E9DC:  MOVLB  6
0E9DE:  MOVWF  x4E
0E9E0:  MOVLB  0
0E9E2:  CALL   3D3A
0E9E6:  MOVF   xBD,W
0E9E8:  ADDWF  01,W
0E9EA:  MOVLB  6
0E9EC:  MOVWF  x4B
0E9EE:  MOVLW  A8
0E9F0:  MOVWF  FF6
0E9F2:  MOVLW  1C
0E9F4:  MOVWF  FF7
0E9F6:  MOVLW  00
0E9F8:  MOVWF  FF8
0E9FA:  MOVLW  19
0E9FC:  MOVWF  x51
0E9FE:  MOVLB  0
0EA00:  CALL   5AAC
0EA04:  MOVFF  64B,651
0EA08:  MOVLW  01
0EA0A:  MOVLB  6
0EA0C:  MOVWF  x52
0EA0E:  MOVLB  0
0EA10:  CALL   5B30
0EA14:  MOVLW  22
0EA16:  BTFSS  F9E.4
0EA18:  BRA    EA16
0EA1A:  MOVWF  FAD
....................       SendDataDisplay();       
0EA1C:  CALL   427A
....................        
....................       printf("fecha.txt=\"Fecha:%02u/%02u/20%02u    Hora: %02u:%02u\"",Dia,Mes,Year,Hora,Minuto); 
0EA20:  MOVLW  C8
0EA22:  MOVWF  FF6
0EA24:  MOVLW  1C
0EA26:  MOVWF  FF7
0EA28:  MOVLW  00
0EA2A:  MOVWF  FF8
0EA2C:  MOVLW  11
0EA2E:  MOVLB  6
0EA30:  MOVWF  x51
0EA32:  MOVLB  0
0EA34:  CALL   5AAC
0EA38:  MOVFF  236,651
0EA3C:  MOVLW  01
0EA3E:  MOVLB  6
0EA40:  MOVWF  x52
0EA42:  MOVLB  0
0EA44:  CALL   5B30
0EA48:  MOVLW  2F
0EA4A:  BTFSS  F9E.4
0EA4C:  BRA    EA4A
0EA4E:  MOVWF  FAD
0EA50:  MOVFF  235,651
0EA54:  MOVLW  01
0EA56:  MOVLB  6
0EA58:  MOVWF  x52
0EA5A:  MOVLB  0
0EA5C:  CALL   5B30
0EA60:  MOVLW  2F
0EA62:  BTFSS  F9E.4
0EA64:  BRA    EA62
0EA66:  MOVWF  FAD
0EA68:  MOVLW  32
0EA6A:  BTFSS  F9E.4
0EA6C:  BRA    EA6A
0EA6E:  MOVWF  FAD
0EA70:  MOVLW  30
0EA72:  BTFSS  F9E.4
0EA74:  BRA    EA72
0EA76:  MOVWF  FAD
0EA78:  MOVFF  234,651
0EA7C:  MOVLW  01
0EA7E:  MOVLB  6
0EA80:  MOVWF  x52
0EA82:  MOVLB  0
0EA84:  CALL   5B30
0EA88:  MOVLW  E9
0EA8A:  MOVWF  FF6
0EA8C:  MOVLW  1C
0EA8E:  MOVWF  FF7
0EA90:  MOVLW  00
0EA92:  MOVWF  FF8
0EA94:  MOVLW  0A
0EA96:  MOVLB  6
0EA98:  MOVWF  x51
0EA9A:  MOVLB  0
0EA9C:  CALL   5AAC
0EAA0:  MOVFF  237,651
0EAA4:  MOVLW  01
0EAA6:  MOVLB  6
0EAA8:  MOVWF  x52
0EAAA:  MOVLB  0
0EAAC:  CALL   5B30
0EAB0:  MOVLW  3A
0EAB2:  BTFSS  F9E.4
0EAB4:  BRA    EAB2
0EAB6:  MOVWF  FAD
0EAB8:  MOVFF  238,651
0EABC:  MOVLW  01
0EABE:  MOVLB  6
0EAC0:  MOVWF  x52
0EAC2:  MOVLB  0
0EAC4:  CALL   5B30
0EAC8:  MOVLW  22
0EACA:  BTFSS  F9E.4
0EACC:  BRA    EACA
0EACE:  MOVWF  FAD
....................       SendDataDisplay(); 
0EAD0:  CALL   427A
0EAD4:  MOVLB  1
....................    } 
....................  
.................... } 
.................... //_-------------------------------------------------------------------------------------------------------------------------------------------------------- 
....................  
.................... //_-------------------------------------------------------------------------------------------------------------------------------------------------------- 
....................       if(Menu==100){ //Menu de Configuracin de Parametros de Control 
0EAD6:  MOVF   xF0,W
0EAD8:  SUBLW  64
0EADA:  BTFSS  FD8.2
0EADC:  GOTO   F950
....................       
....................       if(Opcion2>12) 
0EAE0:  MOVLB  2
0EAE2:  MOVF   x01,W
0EAE4:  SUBLW  0C
0EAE6:  BC    EAEC
....................          Opcion2=1; 
0EAE8:  MOVLW  01
0EAEA:  MOVWF  x01
....................       if(Opcion2<1) 
0EAEC:  MOVF   x01,F
0EAEE:  BNZ   EAF4
....................          Opcion2=12; 
0EAF0:  MOVLW  0C
0EAF2:  MOVWF  x01
....................        
....................       if(Opcion2==1){ 
0EAF4:  DECFSZ x01,W
0EAF6:  BRA    EC38
....................          printf("Config.t2c.txt=\"Proporcional\""); 
0EAF8:  MOVLW  FE
0EAFA:  MOVWF  FF6
0EAFC:  MOVLW  1C
0EAFE:  MOVWF  FF7
0EB00:  MOVLW  00
0EB02:  MOVWF  FF8
0EB04:  MOVLB  0
0EB06:  CALL   4248
....................          SendDataDisplay();       
0EB0A:  CALL   427A
....................          printf("t3c.txt=\"%2.0f\"",Ganancia); 
0EB0E:  MOVLW  1C
0EB10:  MOVWF  FF6
0EB12:  MOVLW  1D
0EB14:  MOVWF  FF7
0EB16:  MOVLW  00
0EB18:  MOVWF  FF8
0EB1A:  MOVLW  09
0EB1C:  MOVLB  6
0EB1E:  MOVWF  x51
0EB20:  MOVLB  0
0EB22:  CALL   5AAC
0EB26:  MOVLW  01
0EB28:  MOVWF  FE9
0EB2A:  MOVFF  1BA,654
0EB2E:  MOVFF  1B9,653
0EB32:  MOVFF  1B8,652
0EB36:  MOVFF  1B7,651
0EB3A:  MOVLB  6
0EB3C:  CLRF   x55
0EB3E:  MOVLB  0
0EB40:  CALL   6424
0EB44:  MOVLW  22
0EB46:  BTFSS  F9E.4
0EB48:  BRA    EB46
0EB4A:  MOVWF  FAD
....................          SendDataDisplay(); 
0EB4C:  CALL   427A
....................          if(RX_Buffer[4]==0x0a){//Tecla Arriba Oprimida 
0EB50:  MOVF   34,W
0EB52:  SUBLW  0A
0EB54:  BNZ   EB8E
....................                Ganancia+=1.0; 
0EB56:  BCF    FD8.1
0EB58:  MOVFF  1BA,666
0EB5C:  MOVFF  1B9,665
0EB60:  MOVFF  1B8,664
0EB64:  MOVFF  1B7,663
0EB68:  MOVLB  6
0EB6A:  CLRF   x6A
0EB6C:  CLRF   x69
0EB6E:  CLRF   x68
0EB70:  MOVLW  7F
0EB72:  MOVWF  x67
0EB74:  MOVLB  0
0EB76:  CALL   20F4
0EB7A:  MOVFF  03,1BA
0EB7E:  MOVFF  02,1B9
0EB82:  MOVFF  01,1B8
0EB86:  MOVFF  00,1B7
....................                RX_Buffer[4]=0x00;   
0EB8A:  CLRF   34
....................                RX_Buffer2[4]=0x00;             
0EB8C:  CLRF   3F
....................                //BorraBuffer(); 
....................          } 
....................              
....................          if(RX_Buffer[4]==0x0b){//Tecla Abajo Oprimida 
0EB8E:  MOVF   34,W
0EB90:  SUBLW  0B
0EB92:  BNZ   EBCC
....................                Ganancia-=1.0; 
0EB94:  BSF    FD8.1
0EB96:  MOVFF  1BA,666
0EB9A:  MOVFF  1B9,665
0EB9E:  MOVFF  1B8,664
0EBA2:  MOVFF  1B7,663
0EBA6:  MOVLB  6
0EBA8:  CLRF   x6A
0EBAA:  CLRF   x69
0EBAC:  CLRF   x68
0EBAE:  MOVLW  7F
0EBB0:  MOVWF  x67
0EBB2:  MOVLB  0
0EBB4:  CALL   20F4
0EBB8:  MOVFF  03,1BA
0EBBC:  MOVFF  02,1B9
0EBC0:  MOVFF  01,1B8
0EBC4:  MOVFF  00,1B7
....................                RX_Buffer[4]=0x00; 
0EBC8:  CLRF   34
....................                RX_Buffer2[4]=0x00;             
0EBCA:  CLRF   3F
....................                //BorraBuffer(); 
....................          } 
....................           
....................          if(Ganancia>40) 
0EBCC:  MOVLB  6
0EBCE:  CLRF   x52
0EBD0:  CLRF   x51
0EBD2:  MOVLW  20
0EBD4:  MOVWF  x50
0EBD6:  MOVLW  84
0EBD8:  MOVWF  x4F
0EBDA:  MOVFF  1BA,656
0EBDE:  MOVFF  1B9,655
0EBE2:  MOVFF  1B8,654
0EBE6:  MOVFF  1B7,653
0EBEA:  MOVLB  0
0EBEC:  CALL   25CA
0EBF0:  BNC   EBFE
....................             Ganancia=1; 
0EBF2:  MOVLB  1
0EBF4:  CLRF   xBA
0EBF6:  CLRF   xB9
0EBF8:  CLRF   xB8
0EBFA:  MOVLW  7F
0EBFC:  MOVWF  xB7
....................          if(Ganancia<1) 
0EBFE:  MOVFF  1BA,652
0EC02:  MOVFF  1B9,651
0EC06:  MOVFF  1B8,650
0EC0A:  MOVFF  1B7,64F
0EC0E:  MOVLB  6
0EC10:  CLRF   x56
0EC12:  CLRF   x55
0EC14:  CLRF   x54
0EC16:  MOVLW  7F
0EC18:  MOVWF  x53
0EC1A:  MOVLB  0
0EC1C:  CALL   25CA
0EC20:  BNC   EC32
....................             Ganancia=40; 
0EC22:  MOVLB  1
0EC24:  CLRF   xBA
0EC26:  CLRF   xB9
0EC28:  MOVLW  20
0EC2A:  MOVWF  xB8
0EC2C:  MOVLW  84
0EC2E:  MOVWF  xB7
0EC30:  MOVLB  0
....................       }else if(Opcion2==2){ 
0EC32:  GOTO   F3AE
0EC36:  MOVLB  2
0EC38:  MOVF   x01,W
0EC3A:  SUBLW  02
0EC3C:  BTFSS  FD8.2
0EC3E:  BRA    ED82
....................          printf("Config.t2c.txt=\"Tciclo\""); 
0EC40:  MOVLW  2C
0EC42:  MOVWF  FF6
0EC44:  MOVLW  1D
0EC46:  MOVWF  FF7
0EC48:  MOVLW  00
0EC4A:  MOVWF  FF8
0EC4C:  MOVLB  0
0EC4E:  CALL   4248
....................          SendDataDisplay();       
0EC52:  CALL   427A
....................          printf("t3c.txt=\"%2.0f\"",Tciclo); 
0EC56:  MOVLW  44
0EC58:  MOVWF  FF6
0EC5A:  MOVLW  1D
0EC5C:  MOVWF  FF7
0EC5E:  MOVLW  00
0EC60:  MOVWF  FF8
0EC62:  MOVLW  09
0EC64:  MOVLB  6
0EC66:  MOVWF  x51
0EC68:  MOVLB  0
0EC6A:  CALL   5AAC
0EC6E:  MOVLW  01
0EC70:  MOVWF  FE9
0EC72:  MOVFF  1A2,654
0EC76:  MOVFF  1A1,653
0EC7A:  MOVFF  1A0,652
0EC7E:  MOVFF  19F,651
0EC82:  MOVLB  6
0EC84:  CLRF   x55
0EC86:  MOVLB  0
0EC88:  CALL   6424
0EC8C:  MOVLW  22
0EC8E:  BTFSS  F9E.4
0EC90:  BRA    EC8E
0EC92:  MOVWF  FAD
....................          SendDataDisplay(); 
0EC94:  CALL   427A
....................          if(RX_Buffer[4]==0x0a){//Tecla Arriba Oprimida 
0EC98:  MOVF   34,W
0EC9A:  SUBLW  0A
0EC9C:  BNZ   ECD6
....................                Tciclo+=1.0; 
0EC9E:  BCF    FD8.1
0ECA0:  MOVFF  1A2,666
0ECA4:  MOVFF  1A1,665
0ECA8:  MOVFF  1A0,664
0ECAC:  MOVFF  19F,663
0ECB0:  MOVLB  6
0ECB2:  CLRF   x6A
0ECB4:  CLRF   x69
0ECB6:  CLRF   x68
0ECB8:  MOVLW  7F
0ECBA:  MOVWF  x67
0ECBC:  MOVLB  0
0ECBE:  CALL   20F4
0ECC2:  MOVFF  03,1A2
0ECC6:  MOVFF  02,1A1
0ECCA:  MOVFF  01,1A0
0ECCE:  MOVFF  00,19F
....................                RX_Buffer[4]=0x00;   
0ECD2:  CLRF   34
....................                RX_Buffer2[4]=0x00;             
0ECD4:  CLRF   3F
....................                //BorraBuffer(); 
....................          } 
....................              
....................          if(RX_Buffer[4]==0x0b){//Tecla Abajo Oprimida             
0ECD6:  MOVF   34,W
0ECD8:  SUBLW  0B
0ECDA:  BNZ   ED14
....................                Tciclo-=1.0; 
0ECDC:  BSF    FD8.1
0ECDE:  MOVFF  1A2,666
0ECE2:  MOVFF  1A1,665
0ECE6:  MOVFF  1A0,664
0ECEA:  MOVFF  19F,663
0ECEE:  MOVLB  6
0ECF0:  CLRF   x6A
0ECF2:  CLRF   x69
0ECF4:  CLRF   x68
0ECF6:  MOVLW  7F
0ECF8:  MOVWF  x67
0ECFA:  MOVLB  0
0ECFC:  CALL   20F4
0ED00:  MOVFF  03,1A2
0ED04:  MOVFF  02,1A1
0ED08:  MOVFF  01,1A0
0ED0C:  MOVFF  00,19F
....................                RX_Buffer[4]=0x00; 
0ED10:  CLRF   34
....................                RX_Buffer2[4]=0x00;             
0ED12:  CLRF   3F
....................                //BorraBuffer(); 
....................          } 
....................           
....................          if(Tciclo>20) 
0ED14:  MOVLB  6
0ED16:  CLRF   x52
0ED18:  CLRF   x51
0ED1A:  MOVLW  20
0ED1C:  MOVWF  x50
0ED1E:  MOVLW  83
0ED20:  MOVWF  x4F
0ED22:  MOVFF  1A2,656
0ED26:  MOVFF  1A1,655
0ED2A:  MOVFF  1A0,654
0ED2E:  MOVFF  19F,653
0ED32:  MOVLB  0
0ED34:  CALL   25CA
0ED38:  BNC   ED48
....................             Tciclo=5; 
0ED3A:  MOVLB  1
0ED3C:  CLRF   xA2
0ED3E:  CLRF   xA1
0ED40:  MOVLW  20
0ED42:  MOVWF  xA0
0ED44:  MOVLW  81
0ED46:  MOVWF  x9F
....................          if(Tciclo<5) 
0ED48:  MOVFF  1A2,652
0ED4C:  MOVFF  1A1,651
0ED50:  MOVFF  1A0,650
0ED54:  MOVFF  19F,64F
0ED58:  MOVLB  6
0ED5A:  CLRF   x56
0ED5C:  CLRF   x55
0ED5E:  MOVLW  20
0ED60:  MOVWF  x54
0ED62:  MOVLW  81
0ED64:  MOVWF  x53
0ED66:  MOVLB  0
0ED68:  CALL   25CA
0ED6C:  BNC   ED7E
....................             Tciclo=20; 
0ED6E:  MOVLB  1
0ED70:  CLRF   xA2
0ED72:  CLRF   xA1
0ED74:  MOVLW  20
0ED76:  MOVWF  xA0
0ED78:  MOVLW  83
0ED7A:  MOVWF  x9F
0ED7C:  MOVLB  0
....................       }else if(Opcion2==3){ 
0ED7E:  BRA    F3AE
0ED80:  MOVLB  2
0ED82:  MOVF   x01,W
0ED84:  SUBLW  03
0ED86:  BNZ   EE00
....................          printf("Config.t2c.txt=\"Ajuste +\""); 
0ED88:  MOVLW  54
0ED8A:  MOVWF  FF6
0ED8C:  MOVLW  1D
0ED8E:  MOVWF  FF7
0ED90:  MOVLW  00
0ED92:  MOVWF  FF8
0ED94:  MOVLB  0
0ED96:  CALL   4248
....................          SendDataDisplay();       
0ED9A:  CALL   427A
....................          printf("t3c.txt=\"%u\"",Sensor[0].Ajuste); 
0ED9E:  MOVLW  6E
0EDA0:  MOVWF  FF6
0EDA2:  MOVLW  1D
0EDA4:  MOVWF  FF7
0EDA6:  MOVLW  00
0EDA8:  MOVWF  FF8
0EDAA:  MOVLW  09
0EDAC:  MOVLB  6
0EDAE:  MOVWF  x51
0EDB0:  MOVLB  0
0EDB2:  CALL   5AAC
0EDB6:  MOVFF  2D9,651
0EDBA:  MOVLW  1B
0EDBC:  MOVLB  6
0EDBE:  MOVWF  x52
0EDC0:  MOVLB  0
0EDC2:  CALL   5B30
0EDC6:  MOVLW  22
0EDC8:  BTFSS  F9E.4
0EDCA:  BRA    EDC8
0EDCC:  MOVWF  FAD
....................          SendDataDisplay(); 
0EDCE:  CALL   427A
....................          if(RX_Buffer[4]==0x0a){//Tecla Arriba Oprimida             
0EDD2:  MOVF   34,W
0EDD4:  SUBLW  0A
0EDD6:  BNZ   EDE8
....................                if(Sensor[0].Ajuste<40) 
0EDD8:  MOVLB  2
0EDDA:  MOVF   xD9,W
0EDDC:  SUBLW  27
0EDDE:  BNC   EDE2
....................                   Sensor[0].Ajuste++; 
0EDE0:  INCF   xD9,F
....................                RX_Buffer[4]=0x00;   
0EDE2:  CLRF   34
....................                RX_Buffer2[4]=0x00;             
0EDE4:  CLRF   3F
0EDE6:  MOVLB  0
....................                //BorraBuffer();             
....................          } 
....................              
....................          if(RX_Buffer[4]==0x0b){//Tecla Abajo Oprimida             
0EDE8:  MOVF   34,W
0EDEA:  SUBLW  0B
0EDEC:  BNZ   EDFC
....................                if(Sensor[0].Ajuste>0) 
0EDEE:  MOVLB  2
0EDF0:  MOVF   xD9,F
0EDF2:  BZ    EDF6
....................                   Sensor[0].Ajuste--; 
0EDF4:  DECF   xD9,F
....................                RX_Buffer[4]=0x00; 
0EDF6:  CLRF   34
....................                RX_Buffer2[4]=0x00;             
0EDF8:  CLRF   3F
0EDFA:  MOVLB  0
....................                //BorraBuffer(); 
....................          } 
....................       }else if(Opcion2==4){ 
0EDFC:  BRA    F3AE
0EDFE:  MOVLB  2
0EE00:  MOVF   x01,W
0EE02:  SUBLW  04
0EE04:  BNZ   EE7E
....................          printf("Config.t2c.txt=\"Ajuste -\""); 
0EE06:  MOVLW  7C
0EE08:  MOVWF  FF6
0EE0A:  MOVLW  1D
0EE0C:  MOVWF  FF7
0EE0E:  MOVLW  00
0EE10:  MOVWF  FF8
0EE12:  MOVLB  0
0EE14:  CALL   4248
....................          SendDataDisplay();       
0EE18:  CALL   427A
....................          printf("t3c.txt=\"%u\"",Sensor[0].Ajusten); 
0EE1C:  MOVLW  96
0EE1E:  MOVWF  FF6
0EE20:  MOVLW  1D
0EE22:  MOVWF  FF7
0EE24:  MOVLW  00
0EE26:  MOVWF  FF8
0EE28:  MOVLW  09
0EE2A:  MOVLB  6
0EE2C:  MOVWF  x51
0EE2E:  MOVLB  0
0EE30:  CALL   5AAC
0EE34:  MOVFF  2DA,651
0EE38:  MOVLW  1B
0EE3A:  MOVLB  6
0EE3C:  MOVWF  x52
0EE3E:  MOVLB  0
0EE40:  CALL   5B30
0EE44:  MOVLW  22
0EE46:  BTFSS  F9E.4
0EE48:  BRA    EE46
0EE4A:  MOVWF  FAD
....................          SendDataDisplay(); 
0EE4C:  CALL   427A
....................          if(RX_Buffer[4]==0x0a){//Tecla Arriba Oprimida             
0EE50:  MOVF   34,W
0EE52:  SUBLW  0A
0EE54:  BNZ   EE66
....................                if(Sensor[0].Ajusten<40) 
0EE56:  MOVLB  2
0EE58:  MOVF   xDA,W
0EE5A:  SUBLW  27
0EE5C:  BNC   EE60
....................                   Sensor[0].Ajusten++; 
0EE5E:  INCF   xDA,F
....................                RX_Buffer[4]=0x00;   
0EE60:  CLRF   34
....................                RX_Buffer2[4]=0x00;             
0EE62:  CLRF   3F
0EE64:  MOVLB  0
....................                //BorraBuffer();             
....................          } 
....................              
....................          if(RX_Buffer[4]==0x0b){//Tecla Abajo Oprimida             
0EE66:  MOVF   34,W
0EE68:  SUBLW  0B
0EE6A:  BNZ   EE7A
....................                if(Sensor[0].Ajusten>0) 
0EE6C:  MOVLB  2
0EE6E:  MOVF   xDA,F
0EE70:  BZ    EE74
....................                   Sensor[0].Ajusten--; 
0EE72:  DECF   xDA,F
....................                RX_Buffer[4]=0x00; 
0EE74:  CLRF   34
....................                RX_Buffer2[4]=0x00;             
0EE76:  CLRF   3F
0EE78:  MOVLB  0
....................                //BorraBuffer(); 
....................          } 
....................       }else if(Opcion2==5){ 
0EE7A:  BRA    F3AE
0EE7C:  MOVLB  2
0EE7E:  MOVF   x01,W
0EE80:  SUBLW  05
0EE82:  BNZ   EEFC
....................          printf("Config.t2c.txt=\"Ajuste2 +\""); 
0EE84:  MOVLW  A4
0EE86:  MOVWF  FF6
0EE88:  MOVLW  1D
0EE8A:  MOVWF  FF7
0EE8C:  MOVLW  00
0EE8E:  MOVWF  FF8
0EE90:  MOVLB  0
0EE92:  CALL   4248
....................          SendDataDisplay();       
0EE96:  CALL   427A
....................          printf("t3c.txt=\"%u\"",Sensor[1].Ajuste); 
0EE9A:  MOVLW  C0
0EE9C:  MOVWF  FF6
0EE9E:  MOVLW  1D
0EEA0:  MOVWF  FF7
0EEA2:  MOVLW  00
0EEA4:  MOVWF  FF8
0EEA6:  MOVLW  09
0EEA8:  MOVLB  6
0EEAA:  MOVWF  x51
0EEAC:  MOVLB  0
0EEAE:  CALL   5AAC
0EEB2:  MOVFF  43D,651
0EEB6:  MOVLW  1B
0EEB8:  MOVLB  6
0EEBA:  MOVWF  x52
0EEBC:  MOVLB  0
0EEBE:  CALL   5B30
0EEC2:  MOVLW  22
0EEC4:  BTFSS  F9E.4
0EEC6:  BRA    EEC4
0EEC8:  MOVWF  FAD
....................          SendDataDisplay(); 
0EECA:  CALL   427A
....................          if(RX_Buffer[4]==0x0a){//Tecla Arriba Oprimida 
0EECE:  MOVF   34,W
0EED0:  SUBLW  0A
0EED2:  BNZ   EEE4
....................                if(Sensor[1].Ajuste<40) 
0EED4:  MOVLB  4
0EED6:  MOVF   x3D,W
0EED8:  SUBLW  27
0EEDA:  BNC   EEDE
....................                   Sensor[1].Ajuste++; 
0EEDC:  INCF   x3D,F
....................                RX_Buffer[4]=0x00;   
0EEDE:  CLRF   34
....................                RX_Buffer2[4]=0x00;             
0EEE0:  CLRF   3F
0EEE2:  MOVLB  0
....................                //BorraBuffer(); 
....................          } 
....................              
....................          if(RX_Buffer[4]==0x0b){//Tecla Abajo Oprimida 
0EEE4:  MOVF   34,W
0EEE6:  SUBLW  0B
0EEE8:  BNZ   EEF8
....................                if(Sensor[1].Ajuste>0) 
0EEEA:  MOVLB  4
0EEEC:  MOVF   x3D,F
0EEEE:  BZ    EEF2
....................                   Sensor[1].Ajuste--; 
0EEF0:  DECF   x3D,F
....................                RX_Buffer[4]=0x00; 
0EEF2:  CLRF   34
....................                RX_Buffer2[4]=0x00;             
0EEF4:  CLRF   3F
0EEF6:  MOVLB  0
....................                //BorraBuffer();             
....................          } 
....................       }else if(Opcion2==6){ 
0EEF8:  BRA    F3AE
0EEFA:  MOVLB  2
0EEFC:  MOVF   x01,W
0EEFE:  SUBLW  06
0EF00:  BNZ   EF7A
....................          printf("Config.t2c.txt=\"Ajuste2 -\""); 
0EF02:  MOVLW  CE
0EF04:  MOVWF  FF6
0EF06:  MOVLW  1D
0EF08:  MOVWF  FF7
0EF0A:  MOVLW  00
0EF0C:  MOVWF  FF8
0EF0E:  MOVLB  0
0EF10:  CALL   4248
....................          SendDataDisplay();       
0EF14:  CALL   427A
....................          printf("t3c.txt=\"%u\"",Sensor[1].Ajusten); 
0EF18:  MOVLW  EA
0EF1A:  MOVWF  FF6
0EF1C:  MOVLW  1D
0EF1E:  MOVWF  FF7
0EF20:  MOVLW  00
0EF22:  MOVWF  FF8
0EF24:  MOVLW  09
0EF26:  MOVLB  6
0EF28:  MOVWF  x51
0EF2A:  MOVLB  0
0EF2C:  CALL   5AAC
0EF30:  MOVFF  43E,651
0EF34:  MOVLW  1B
0EF36:  MOVLB  6
0EF38:  MOVWF  x52
0EF3A:  MOVLB  0
0EF3C:  CALL   5B30
0EF40:  MOVLW  22
0EF42:  BTFSS  F9E.4
0EF44:  BRA    EF42
0EF46:  MOVWF  FAD
....................          SendDataDisplay(); 
0EF48:  CALL   427A
....................          if(RX_Buffer[4]==0x0a){//Tecla Arriba Oprimida             
0EF4C:  MOVF   34,W
0EF4E:  SUBLW  0A
0EF50:  BNZ   EF62
....................                if(Sensor[1].Ajusten<40) 
0EF52:  MOVLB  4
0EF54:  MOVF   x3E,W
0EF56:  SUBLW  27
0EF58:  BNC   EF5C
....................                   Sensor[1].Ajusten++; 
0EF5A:  INCF   x3E,F
....................                RX_Buffer[4]=0x00;   
0EF5C:  CLRF   34
....................                RX_Buffer2[4]=0x00;             
0EF5E:  CLRF   3F
0EF60:  MOVLB  0
....................                //BorraBuffer(); 
....................          } 
....................              
....................          if(RX_Buffer[4]==0x0b){//Tecla Abajo Oprimida             
0EF62:  MOVF   34,W
0EF64:  SUBLW  0B
0EF66:  BNZ   EF76
....................                if(Sensor[1].Ajusten>0) 
0EF68:  MOVLB  4
0EF6A:  MOVF   x3E,F
0EF6C:  BZ    EF70
....................                   Sensor[1].Ajusten--; 
0EF6E:  DECF   x3E,F
....................                RX_Buffer[4]=0x00; 
0EF70:  CLRF   34
....................                RX_Buffer2[4]=0x00;             
0EF72:  CLRF   3F
0EF74:  MOVLB  0
....................                //BorraBuffer(); 
....................          } 
....................       }else if(Opcion2==7){ 
0EF76:  BRA    F3AE
0EF78:  MOVLB  2
0EF7A:  MOVF   x01,W
0EF7C:  SUBLW  07
0EF7E:  BNZ   EFFA
....................          printf("Config.t2c.txt=\"Media\""); 
0EF80:  MOVLW  F8
0EF82:  MOVWF  FF6
0EF84:  MOVLW  1D
0EF86:  MOVWF  FF7
0EF88:  MOVLW  00
0EF8A:  MOVWF  FF8
0EF8C:  MOVLB  0
0EF8E:  CALL   4248
....................          SendDataDisplay();       
0EF92:  CALL   427A
....................          printf("t3c.txt=\"%u\"",MediaMovil); 
0EF96:  MOVLW  10
0EF98:  MOVWF  FF6
0EF9A:  MOVLW  1E
0EF9C:  MOVWF  FF7
0EF9E:  MOVLW  00
0EFA0:  MOVWF  FF8
0EFA2:  MOVLW  09
0EFA4:  MOVLB  6
0EFA6:  MOVWF  x51
0EFA8:  MOVLB  0
0EFAA:  CALL   5AAC
0EFAE:  MOVFF  193,651
0EFB2:  MOVLW  1B
0EFB4:  MOVLB  6
0EFB6:  MOVWF  x52
0EFB8:  MOVLB  0
0EFBA:  CALL   5B30
0EFBE:  MOVLW  22
0EFC0:  BTFSS  F9E.4
0EFC2:  BRA    EFC0
0EFC4:  MOVWF  FAD
....................          SendDataDisplay(); 
0EFC6:  CALL   427A
....................          if(RX_Buffer[4]==0x0a){//Tecla Arriba Oprimida 
0EFCA:  MOVF   34,W
0EFCC:  SUBLW  0A
0EFCE:  BNZ   EFE0
....................                if(MediaMovil<80) 
0EFD0:  MOVLB  1
0EFD2:  MOVF   x93,W
0EFD4:  SUBLW  4F
0EFD6:  BNC   EFDA
....................                   MediaMovil++; 
0EFD8:  INCF   x93,F
....................                RX_Buffer[4]=0x00;   
0EFDA:  CLRF   34
....................                RX_Buffer2[4]=0x00;             
0EFDC:  CLRF   3F
0EFDE:  MOVLB  0
....................                //BorraBuffer(); 
....................          } 
....................              
....................          if(RX_Buffer[4]==0x0b){//Tecla Abajo Oprimida 
0EFE0:  MOVF   34,W
0EFE2:  SUBLW  0B
0EFE4:  BNZ   EFF6
....................                if(MediaMovil>10) 
0EFE6:  MOVLB  1
0EFE8:  MOVF   x93,W
0EFEA:  SUBLW  0A
0EFEC:  BC    EFF0
....................                   MediaMovil--; 
0EFEE:  DECF   x93,F
....................                RX_Buffer[4]=0x00; 
0EFF0:  CLRF   34
....................                RX_Buffer2[4]=0x00;             
0EFF2:  CLRF   3F
0EFF4:  MOVLB  0
....................                //BorraBuffer();             
....................          } 
....................       }else if(Opcion2==8){ 
0EFF6:  BRA    F3AE
0EFF8:  MOVLB  2
0EFFA:  MOVF   x01,W
0EFFC:  SUBLW  08
0EFFE:  BTFSS  FD8.2
0F000:  BRA    F12C
....................          printf("Config.t2c.txt=\"RPT100B\""); 
0F002:  MOVLW  1E
0F004:  MOVWF  FF6
0F006:  MOVLW  1E
0F008:  MOVWF  FF7
0F00A:  MOVLW  00
0F00C:  MOVWF  FF8
0F00E:  MOVLB  0
0F010:  CALL   4248
....................          SendDataDisplay();       
0F014:  CALL   427A
....................          printf("t3c.txt=\"%2.1f\"",Sensor[0].RPT100); 
0F018:  MOVLW  38
0F01A:  MOVWF  FF6
0F01C:  MOVLW  1E
0F01E:  MOVWF  FF7
0F020:  MOVLW  00
0F022:  MOVWF  FF8
0F024:  MOVLW  09
0F026:  MOVLB  6
0F028:  MOVWF  x51
0F02A:  MOVLB  0
0F02C:  CALL   5AAC
0F030:  MOVLW  01
0F032:  MOVWF  FE9
0F034:  MOVFF  2CE,654
0F038:  MOVFF  2CD,653
0F03C:  MOVFF  2CC,652
0F040:  MOVFF  2CB,651
0F044:  MOVLB  6
0F046:  MOVWF  x55
0F048:  MOVLB  0
0F04A:  CALL   6424
0F04E:  MOVLW  22
0F050:  BTFSS  F9E.4
0F052:  BRA    F050
0F054:  MOVWF  FAD
....................          SendDataDisplay(); 
0F056:  CALL   427A
....................          if(RX_Buffer[4]==0x0a){//Tecla Arriba Oprimida             
0F05A:  MOVF   34,W
0F05C:  SUBLW  0A
0F05E:  BNZ   F0C2
....................                if(Sensor[0].RPT100<2.0) 
0F060:  MOVFF  2CE,652
0F064:  MOVFF  2CD,651
0F068:  MOVFF  2CC,650
0F06C:  MOVFF  2CB,64F
0F070:  MOVLB  6
0F072:  CLRF   x56
0F074:  CLRF   x55
0F076:  CLRF   x54
0F078:  MOVLW  80
0F07A:  MOVWF  x53
0F07C:  MOVLB  0
0F07E:  CALL   25CA
0F082:  BNC   F0BE
....................                   Sensor[0].RPT100+=0.1; 
0F084:  BCF    FD8.1
0F086:  MOVFF  2CE,666
0F08A:  MOVFF  2CD,665
0F08E:  MOVFF  2CC,664
0F092:  MOVFF  2CB,663
0F096:  MOVLW  CD
0F098:  MOVLB  6
0F09A:  MOVWF  x6A
0F09C:  MOVLW  CC
0F09E:  MOVWF  x69
0F0A0:  MOVLW  4C
0F0A2:  MOVWF  x68
0F0A4:  MOVLW  7B
0F0A6:  MOVWF  x67
0F0A8:  MOVLB  0
0F0AA:  CALL   20F4
0F0AE:  MOVFF  03,2CE
0F0B2:  MOVFF  02,2CD
0F0B6:  MOVFF  01,2CC
0F0BA:  MOVFF  00,2CB
....................                RX_Buffer[4]=0x00;   
0F0BE:  CLRF   34
....................                RX_Buffer2[4]=0x00;             
0F0C0:  CLRF   3F
....................                //BorraBuffer(); 
....................          } 
....................              
....................          if(RX_Buffer[4]==0x0b){//Tecla Abajo Oprimida 
0F0C2:  MOVF   34,W
0F0C4:  SUBLW  0B
0F0C6:  BNZ   F128
....................                if(Sensor[0].RPT100>0.0) 
0F0C8:  MOVLB  6
0F0CA:  CLRF   x52
0F0CC:  CLRF   x51
0F0CE:  CLRF   x50
0F0D0:  CLRF   x4F
0F0D2:  MOVFF  2CE,656
0F0D6:  MOVFF  2CD,655
0F0DA:  MOVFF  2CC,654
0F0DE:  MOVFF  2CB,653
0F0E2:  MOVLB  0
0F0E4:  CALL   25CA
0F0E8:  BNC   F124
....................                   Sensor[0].RPT100-=0.1; 
0F0EA:  BSF    FD8.1
0F0EC:  MOVFF  2CE,666
0F0F0:  MOVFF  2CD,665
0F0F4:  MOVFF  2CC,664
0F0F8:  MOVFF  2CB,663
0F0FC:  MOVLW  CD
0F0FE:  MOVLB  6
0F100:  MOVWF  x6A
0F102:  MOVLW  CC
0F104:  MOVWF  x69
0F106:  MOVLW  4C
0F108:  MOVWF  x68
0F10A:  MOVLW  7B
0F10C:  MOVWF  x67
0F10E:  MOVLB  0
0F110:  CALL   20F4
0F114:  MOVFF  03,2CE
0F118:  MOVFF  02,2CD
0F11C:  MOVFF  01,2CC
0F120:  MOVFF  00,2CB
....................                RX_Buffer[4]=0x00; 
0F124:  CLRF   34
....................                RX_Buffer2[4]=0x00;             
0F126:  CLRF   3F
....................                //BorraBuffer(); 
....................          } 
....................       }else if(Opcion2==9){ 
0F128:  BRA    F3AE
0F12A:  MOVLB  2
0F12C:  MOVF   x01,W
0F12E:  SUBLW  09
0F130:  BTFSS  FD8.2
0F132:  BRA    F25E
....................          printf("Config.t2c.txt=\"RPT100B 2\""); 
0F134:  MOVLW  48
0F136:  MOVWF  FF6
0F138:  MOVLW  1E
0F13A:  MOVWF  FF7
0F13C:  MOVLW  00
0F13E:  MOVWF  FF8
0F140:  MOVLB  0
0F142:  CALL   4248
....................          SendDataDisplay();       
0F146:  CALL   427A
....................          printf("t3c.txt=\"%2.1f\"",Sensor[1].RPT100); 
0F14A:  MOVLW  64
0F14C:  MOVWF  FF6
0F14E:  MOVLW  1E
0F150:  MOVWF  FF7
0F152:  MOVLW  00
0F154:  MOVWF  FF8
0F156:  MOVLW  09
0F158:  MOVLB  6
0F15A:  MOVWF  x51
0F15C:  MOVLB  0
0F15E:  CALL   5AAC
0F162:  MOVLW  01
0F164:  MOVWF  FE9
0F166:  MOVFF  432,654
0F16A:  MOVFF  431,653
0F16E:  MOVFF  430,652
0F172:  MOVFF  42F,651
0F176:  MOVLB  6
0F178:  MOVWF  x55
0F17A:  MOVLB  0
0F17C:  CALL   6424
0F180:  MOVLW  22
0F182:  BTFSS  F9E.4
0F184:  BRA    F182
0F186:  MOVWF  FAD
....................          SendDataDisplay(); 
0F188:  CALL   427A
....................          if(RX_Buffer[4]==0x0a){//Tecla Arriba Oprimida 
0F18C:  MOVF   34,W
0F18E:  SUBLW  0A
0F190:  BNZ   F1F4
....................                if(Sensor[1].RPT100<2.0) 
0F192:  MOVFF  432,652
0F196:  MOVFF  431,651
0F19A:  MOVFF  430,650
0F19E:  MOVFF  42F,64F
0F1A2:  MOVLB  6
0F1A4:  CLRF   x56
0F1A6:  CLRF   x55
0F1A8:  CLRF   x54
0F1AA:  MOVLW  80
0F1AC:  MOVWF  x53
0F1AE:  MOVLB  0
0F1B0:  CALL   25CA
0F1B4:  BNC   F1F0
....................                   Sensor[1].RPT100+=0.1; 
0F1B6:  BCF    FD8.1
0F1B8:  MOVFF  432,666
0F1BC:  MOVFF  431,665
0F1C0:  MOVFF  430,664
0F1C4:  MOVFF  42F,663
0F1C8:  MOVLW  CD
0F1CA:  MOVLB  6
0F1CC:  MOVWF  x6A
0F1CE:  MOVLW  CC
0F1D0:  MOVWF  x69
0F1D2:  MOVLW  4C
0F1D4:  MOVWF  x68
0F1D6:  MOVLW  7B
0F1D8:  MOVWF  x67
0F1DA:  MOVLB  0
0F1DC:  CALL   20F4
0F1E0:  MOVFF  03,432
0F1E4:  MOVFF  02,431
0F1E8:  MOVFF  01,430
0F1EC:  MOVFF  00,42F
....................                RX_Buffer[4]=0x00;   
0F1F0:  CLRF   34
....................                RX_Buffer2[4]=0x00;             
0F1F2:  CLRF   3F
....................                //BorraBuffer(); 
....................          } 
....................              
....................          if(RX_Buffer[4]==0x0b){//Tecla Abajo Oprimida 
0F1F4:  MOVF   34,W
0F1F6:  SUBLW  0B
0F1F8:  BNZ   F25A
....................                if(Sensor[1].RPT100>0.0) 
0F1FA:  MOVLB  6
0F1FC:  CLRF   x52
0F1FE:  CLRF   x51
0F200:  CLRF   x50
0F202:  CLRF   x4F
0F204:  MOVFF  432,656
0F208:  MOVFF  431,655
0F20C:  MOVFF  430,654
0F210:  MOVFF  42F,653
0F214:  MOVLB  0
0F216:  CALL   25CA
0F21A:  BNC   F256
....................                   Sensor[1].RPT100-=0.1; 
0F21C:  BSF    FD8.1
0F21E:  MOVFF  432,666
0F222:  MOVFF  431,665
0F226:  MOVFF  430,664
0F22A:  MOVFF  42F,663
0F22E:  MOVLW  CD
0F230:  MOVLB  6
0F232:  MOVWF  x6A
0F234:  MOVLW  CC
0F236:  MOVWF  x69
0F238:  MOVLW  4C
0F23A:  MOVWF  x68
0F23C:  MOVLW  7B
0F23E:  MOVWF  x67
0F240:  MOVLB  0
0F242:  CALL   20F4
0F246:  MOVFF  03,432
0F24A:  MOVFF  02,431
0F24E:  MOVFF  01,430
0F252:  MOVFF  00,42F
....................                RX_Buffer[4]=0x00; 
0F256:  CLRF   34
....................                RX_Buffer2[4]=0x00;             
0F258:  CLRF   3F
....................                //BorraBuffer(); 
....................          } 
....................       }else if(Opcion2==10){ 
0F25A:  BRA    F3AE
0F25C:  MOVLB  2
0F25E:  MOVF   x01,W
0F260:  SUBLW  0A
0F262:  BNZ   F2B2
....................          printf("Config.t2c.txt=\"Ciclos\""); 
0F264:  MOVLW  74
0F266:  MOVWF  FF6
0F268:  MOVLW  1E
0F26A:  MOVWF  FF7
0F26C:  MOVLW  00
0F26E:  MOVWF  FF8
0F270:  MOVLB  0
0F272:  CALL   4248
....................          SendDataDisplay();       
0F276:  CALL   427A
....................          printf("t3c.txt=\"%03Lu\"",Ciclos); 
0F27A:  MOVLW  8C
0F27C:  MOVWF  FF6
0F27E:  MOVLW  1E
0F280:  MOVWF  FF7
0F282:  MOVLW  00
0F284:  MOVWF  FF8
0F286:  MOVLW  09
0F288:  MOVLB  6
0F28A:  MOVWF  x51
0F28C:  MOVLB  0
0F28E:  CALL   5AAC
0F292:  MOVLW  0A
0F294:  MOVWF  FE9
0F296:  MOVFF  216,652
0F29A:  MOVFF  215,651
0F29E:  CALL   62B6
0F2A2:  MOVLW  22
0F2A4:  BTFSS  F9E.4
0F2A6:  BRA    F2A4
0F2A8:  MOVWF  FAD
....................          SendDataDisplay(); 
0F2AA:  CALL   427A
....................       }else if(Opcion2==11){ 
0F2AE:  BRA    F3AE
0F2B0:  MOVLB  2
0F2B2:  MOVF   x01,W
0F2B4:  SUBLW  0B
0F2B6:  BNZ   F332
....................          printf("Config.t2c.txt=\"Atmosferica\""); 
0F2B8:  MOVLW  9C
0F2BA:  MOVWF  FF6
0F2BC:  MOVLW  1E
0F2BE:  MOVWF  FF7
0F2C0:  MOVLW  00
0F2C2:  MOVWF  FF8
0F2C4:  MOVLB  0
0F2C6:  CALL   4248
....................          SendDataDisplay();       
0F2CA:  CALL   427A
....................          printf("t3c.txt=\"%03u\"",Atmosferica); 
0F2CE:  MOVLW  BA
0F2D0:  MOVWF  FF6
0F2D2:  MOVLW  1E
0F2D4:  MOVWF  FF7
0F2D6:  MOVLW  00
0F2D8:  MOVWF  FF8
0F2DA:  MOVLW  09
0F2DC:  MOVLB  6
0F2DE:  MOVWF  x51
0F2E0:  MOVLB  0
0F2E2:  CALL   5AAC
0F2E6:  MOVFF  23C,651
0F2EA:  MOVLW  03
0F2EC:  MOVLB  6
0F2EE:  MOVWF  x52
0F2F0:  MOVLB  0
0F2F2:  CALL   5B30
0F2F6:  MOVLW  22
0F2F8:  BTFSS  F9E.4
0F2FA:  BRA    F2F8
0F2FC:  MOVWF  FAD
....................          SendDataDisplay(); 
0F2FE:  CALL   427A
....................          if(RX_Buffer[4]==0x0a){//Tecla Arriba Oprimida 
0F302:  MOVF   34,W
0F304:  SUBLW  0A
0F306:  BNZ   F318
....................                if(Atmosferica<100) 
0F308:  MOVLB  2
0F30A:  MOVF   x3C,W
0F30C:  SUBLW  63
0F30E:  BNC   F312
....................                   ++Atmosferica; 
0F310:  INCF   x3C,F
....................                RX_Buffer[4]=0x00;   
0F312:  CLRF   34
....................                RX_Buffer2[4]=0x00;             
0F314:  CLRF   3F
0F316:  MOVLB  0
....................                //BorraBuffer(); 
....................          } 
....................              
....................          if(RX_Buffer[4]==0x0b){//Tecla Abajo Oprimida 
0F318:  MOVF   34,W
0F31A:  SUBLW  0B
0F31C:  BNZ   F32E
....................                if(Atmosferica>50) 
0F31E:  MOVLB  2
0F320:  MOVF   x3C,W
0F322:  SUBLW  32
0F324:  BC    F328
....................                   --Atmosferica; 
0F326:  DECF   x3C,F
....................                RX_Buffer[4]=0x00; 
0F328:  CLRF   34
....................                RX_Buffer2[4]=0x00;             
0F32A:  CLRF   3F
0F32C:  MOVLB  0
....................                //BorraBuffer(); 
....................          } 
....................       }else if(Opcion2==12){ 
0F32E:  BRA    F3AE
0F330:  MOVLB  2
0F332:  MOVF   x01,W
0F334:  SUBLW  0C
0F336:  BNZ   F3B0
....................          printf("Config.t2c.txt=\"T. Apertura\""); 
0F338:  MOVLW  CA
0F33A:  MOVWF  FF6
0F33C:  MOVLW  1E
0F33E:  MOVWF  FF7
0F340:  MOVLW  00
0F342:  MOVWF  FF8
0F344:  MOVLB  0
0F346:  CALL   4248
....................          SendDataDisplay();       
0F34A:  CALL   427A
....................          printf("t3c.txt=\"%03u\"",Tapertura); 
0F34E:  MOVLW  E8
0F350:  MOVWF  FF6
0F352:  MOVLW  1E
0F354:  MOVWF  FF7
0F356:  MOVLW  00
0F358:  MOVWF  FF8
0F35A:  MOVLW  09
0F35C:  MOVLB  6
0F35E:  MOVWF  x51
0F360:  MOVLB  0
0F362:  CALL   5AAC
0F366:  MOVFF  1F6,651
0F36A:  MOVLW  03
0F36C:  MOVLB  6
0F36E:  MOVWF  x52
0F370:  MOVLB  0
0F372:  CALL   5B30
0F376:  MOVLW  22
0F378:  BTFSS  F9E.4
0F37A:  BRA    F378
0F37C:  MOVWF  FAD
....................          SendDataDisplay(); 
0F37E:  CALL   427A
....................          if(RX_Buffer[4]==0x0a){//Tecla Arriba Oprimida 
0F382:  MOVF   34,W
0F384:  SUBLW  0A
0F386:  BNZ   F398
....................                if(Tapertura<100) 
0F388:  MOVLB  1
0F38A:  MOVF   xF6,W
0F38C:  SUBLW  63
0F38E:  BNC   F392
....................                   ++Tapertura; 
0F390:  INCF   xF6,F
....................                RX_Buffer[4]=0x00;   
0F392:  CLRF   34
....................                RX_Buffer2[4]=0x00;             
0F394:  CLRF   3F
0F396:  MOVLB  0
....................                //BorraBuffer(); 
....................          } 
....................              
....................          if(RX_Buffer[4]==0x0b){//Tecla Abajo Oprimida 
0F398:  MOVF   34,W
0F39A:  SUBLW  0B
0F39C:  BNZ   F3AE
....................                if(Tapertura>50) 
0F39E:  MOVLB  1
0F3A0:  MOVF   xF6,W
0F3A2:  SUBLW  32
0F3A4:  BC    F3A8
....................                   --Tapertura; 
0F3A6:  DECF   xF6,F
....................                RX_Buffer[4]=0x00; 
0F3A8:  CLRF   34
....................                RX_Buffer2[4]=0x00;             
0F3AA:  CLRF   3F
0F3AC:  MOVLB  0
0F3AE:  MOVLB  2
....................                //BorraBuffer();            
....................          } 
....................       } 
....................        
....................       if(RX_Buffer[4]==0x0c){//Tecla Izquierda Oprimida 
0F3B0:  MOVF   34,W
0F3B2:  SUBLW  0C
0F3B4:  BNZ   F3BC
....................             Opcion2++; 
0F3B6:  INCF   x01,F
....................             RX_Buffer[4]=0x00;   
0F3B8:  CLRF   34
....................             RX_Buffer2[4]=0x00;             
0F3BA:  CLRF   3F
....................             //BorraBuffer();    
....................       } 
....................           
....................       if(RX_Buffer[4]==0x0d){//Tecla Derecha Oprimida          
0F3BC:  MOVF   34,W
0F3BE:  SUBLW  0D
0F3C0:  BNZ   F3C8
....................             Opcion2--; 
0F3C2:  DECF   x01,F
....................             RX_Buffer[4]=0x00; 
0F3C4:  CLRF   34
....................             RX_Buffer2[4]=0x00;             
0F3C6:  CLRF   3F
....................             //BorraBuffer(); 
....................       } 
....................        
....................       if(RX_Buffer[4]==0x11){//Tecla Regresar 
0F3C8:  MOVF   34,W
0F3CA:  SUBLW  11
0F3CC:  BTFSS  FD8.2
0F3CE:  BRA    F89A
....................          delay_ms(20); 
0F3D0:  MOVLW  14
0F3D2:  MOVLB  6
0F3D4:  MOVWF  x64
0F3D6:  MOVLB  0
0F3D8:  CALL   1F6E
....................          if(RX_Buffer[4]==0x11){ 
0F3DC:  MOVF   34,W
0F3DE:  SUBLW  11
0F3E0:  BTFSS  FD8.2
0F3E2:  BRA    F898
....................             if(!GuardaEEPROM){ 
0F3E4:  BTFSC  xA7.4
0F3E6:  BRA    F884
....................                write_eeprom(20,(int8)Ganancia); 
0F3E8:  MOVFF  1BA,660
0F3EC:  MOVFF  1B9,65F
0F3F0:  MOVFF  1B8,65E
0F3F4:  MOVFF  1B7,65D
0F3F8:  CALL   521E
0F3FC:  MOVFF  01,64B
0F400:  CLRF   FAA
0F402:  MOVLW  14
0F404:  MOVWF  FA9
0F406:  MOVFF  64B,FA8
0F40A:  BCF    FA6.6
0F40C:  BCF    FA6.7
0F40E:  BSF    FA6.2
0F410:  MOVF   FF2,W
0F412:  MOVWF  00
0F414:  BCF    FF2.6
0F416:  BCF    FF2.7
0F418:  MOVLB  F
0F41A:  MOVLW  55
0F41C:  MOVWF  FA7
0F41E:  MOVLW  AA
0F420:  MOVWF  FA7
0F422:  BSF    FA6.1
0F424:  BTFSC  FA6.1
0F426:  BRA    F424
0F428:  BCF    FA6.2
0F42A:  MOVF   00,W
0F42C:  IORWF  FF2,F
....................                delay_ms(10); 
0F42E:  MOVLW  0A
0F430:  MOVLB  6
0F432:  MOVWF  x64
0F434:  MOVLB  0
0F436:  CALL   1F6E
....................                write_eeprom(21,Sensor[0].Ajuste); 
0F43A:  CLRF   FAA
0F43C:  MOVLW  15
0F43E:  MOVWF  FA9
0F440:  MOVFF  2D9,FA8
0F444:  BCF    FA6.6
0F446:  BCF    FA6.7
0F448:  BSF    FA6.2
0F44A:  MOVF   FF2,W
0F44C:  MOVWF  00
0F44E:  BCF    FF2.6
0F450:  BCF    FF2.7
0F452:  MOVLB  F
0F454:  MOVLW  55
0F456:  MOVWF  FA7
0F458:  MOVLW  AA
0F45A:  MOVWF  FA7
0F45C:  BSF    FA6.1
0F45E:  BTFSC  FA6.1
0F460:  BRA    F45E
0F462:  BCF    FA6.2
0F464:  MOVF   00,W
0F466:  IORWF  FF2,F
....................                delay_ms(10); 
0F468:  MOVLW  0A
0F46A:  MOVLB  6
0F46C:  MOVWF  x64
0F46E:  MOVLB  0
0F470:  CALL   1F6E
....................                write_eeprom(22,Sensor[0].Ajusten); 
0F474:  CLRF   FAA
0F476:  MOVLW  16
0F478:  MOVWF  FA9
0F47A:  MOVFF  2DA,FA8
0F47E:  BCF    FA6.6
0F480:  BCF    FA6.7
0F482:  BSF    FA6.2
0F484:  MOVF   FF2,W
0F486:  MOVWF  00
0F488:  BCF    FF2.6
0F48A:  BCF    FF2.7
0F48C:  MOVLB  F
0F48E:  MOVLW  55
0F490:  MOVWF  FA7
0F492:  MOVLW  AA
0F494:  MOVWF  FA7
0F496:  BSF    FA6.1
0F498:  BTFSC  FA6.1
0F49A:  BRA    F498
0F49C:  BCF    FA6.2
0F49E:  MOVF   00,W
0F4A0:  IORWF  FF2,F
....................                delay_ms(10); 
0F4A2:  MOVLW  0A
0F4A4:  MOVLB  6
0F4A6:  MOVWF  x64
0F4A8:  MOVLB  0
0F4AA:  CALL   1F6E
....................                write_eeprom(23,Sensor[1].Ajuste); 
0F4AE:  CLRF   FAA
0F4B0:  MOVLW  17
0F4B2:  MOVWF  FA9
0F4B4:  MOVFF  43D,FA8
0F4B8:  BCF    FA6.6
0F4BA:  BCF    FA6.7
0F4BC:  BSF    FA6.2
0F4BE:  MOVF   FF2,W
0F4C0:  MOVWF  00
0F4C2:  BCF    FF2.6
0F4C4:  BCF    FF2.7
0F4C6:  MOVLB  F
0F4C8:  MOVLW  55
0F4CA:  MOVWF  FA7
0F4CC:  MOVLW  AA
0F4CE:  MOVWF  FA7
0F4D0:  BSF    FA6.1
0F4D2:  BTFSC  FA6.1
0F4D4:  BRA    F4D2
0F4D6:  BCF    FA6.2
0F4D8:  MOVF   00,W
0F4DA:  IORWF  FF2,F
....................                delay_ms(10); 
0F4DC:  MOVLW  0A
0F4DE:  MOVLB  6
0F4E0:  MOVWF  x64
0F4E2:  MOVLB  0
0F4E4:  CALL   1F6E
....................                write_eeprom(24,Sensor[1].Ajusten); 
0F4E8:  CLRF   FAA
0F4EA:  MOVLW  18
0F4EC:  MOVWF  FA9
0F4EE:  MOVFF  43E,FA8
0F4F2:  BCF    FA6.6
0F4F4:  BCF    FA6.7
0F4F6:  BSF    FA6.2
0F4F8:  MOVF   FF2,W
0F4FA:  MOVWF  00
0F4FC:  BCF    FF2.6
0F4FE:  BCF    FF2.7
0F500:  MOVLB  F
0F502:  MOVLW  55
0F504:  MOVWF  FA7
0F506:  MOVLW  AA
0F508:  MOVWF  FA7
0F50A:  BSF    FA6.1
0F50C:  BTFSC  FA6.1
0F50E:  BRA    F50C
0F510:  BCF    FA6.2
0F512:  MOVF   00,W
0F514:  IORWF  FF2,F
....................                delay_ms(10); 
0F516:  MOVLW  0A
0F518:  MOVLB  6
0F51A:  MOVWF  x64
0F51C:  MOVLB  0
0F51E:  CALL   1F6E
....................                write_eeprom(25,(int8)MediaMovil); 
0F522:  CLRF   FAA
0F524:  MOVLW  19
0F526:  MOVWF  FA9
0F528:  MOVFF  193,FA8
0F52C:  BCF    FA6.6
0F52E:  BCF    FA6.7
0F530:  BSF    FA6.2
0F532:  MOVF   FF2,W
0F534:  MOVWF  00
0F536:  BCF    FF2.6
0F538:  BCF    FF2.7
0F53A:  MOVLB  F
0F53C:  MOVLW  55
0F53E:  MOVWF  FA7
0F540:  MOVLW  AA
0F542:  MOVWF  FA7
0F544:  BSF    FA6.1
0F546:  BTFSC  FA6.1
0F548:  BRA    F546
0F54A:  BCF    FA6.2
0F54C:  MOVF   00,W
0F54E:  IORWF  FF2,F
....................                delay_ms(10); 
0F550:  MOVLW  0A
0F552:  MOVLB  6
0F554:  MOVWF  x64
0F556:  MOVLB  0
0F558:  CALL   1F6E
....................                write_eeprom(26,(int8)Tciclo); 
0F55C:  MOVFF  1A2,660
0F560:  MOVFF  1A1,65F
0F564:  MOVFF  1A0,65E
0F568:  MOVFF  19F,65D
0F56C:  CALL   521E
0F570:  MOVFF  01,64B
0F574:  CLRF   FAA
0F576:  MOVLW  1A
0F578:  MOVWF  FA9
0F57A:  MOVFF  64B,FA8
0F57E:  BCF    FA6.6
0F580:  BCF    FA6.7
0F582:  BSF    FA6.2
0F584:  MOVF   FF2,W
0F586:  MOVWF  00
0F588:  BCF    FF2.6
0F58A:  BCF    FF2.7
0F58C:  MOVLB  F
0F58E:  MOVLW  55
0F590:  MOVWF  FA7
0F592:  MOVLW  AA
0F594:  MOVWF  FA7
0F596:  BSF    FA6.1
0F598:  BTFSC  FA6.1
0F59A:  BRA    F598
0F59C:  BCF    FA6.2
0F59E:  MOVF   00,W
0F5A0:  IORWF  FF2,F
....................                delay_ms(10); 
0F5A2:  MOVLW  0A
0F5A4:  MOVLB  6
0F5A6:  MOVWF  x64
0F5A8:  MOVLB  0
0F5AA:  CALL   1F6E
....................                write_eeprom(28,(int8)Sensor[0].RPT100); 
0F5AE:  MOVFF  2CE,660
0F5B2:  MOVFF  2CD,65F
0F5B6:  MOVFF  2CC,65E
0F5BA:  MOVFF  2CB,65D
0F5BE:  CALL   521E
0F5C2:  MOVFF  01,64B
0F5C6:  CLRF   FAA
0F5C8:  MOVLW  1C
0F5CA:  MOVWF  FA9
0F5CC:  MOVFF  64B,FA8
0F5D0:  BCF    FA6.6
0F5D2:  BCF    FA6.7
0F5D4:  BSF    FA6.2
0F5D6:  MOVF   FF2,W
0F5D8:  MOVWF  00
0F5DA:  BCF    FF2.6
0F5DC:  BCF    FF2.7
0F5DE:  MOVLB  F
0F5E0:  MOVLW  55
0F5E2:  MOVWF  FA7
0F5E4:  MOVLW  AA
0F5E6:  MOVWF  FA7
0F5E8:  BSF    FA6.1
0F5EA:  BTFSC  FA6.1
0F5EC:  BRA    F5EA
0F5EE:  BCF    FA6.2
0F5F0:  MOVF   00,W
0F5F2:  IORWF  FF2,F
....................                delay_ms(10); 
0F5F4:  MOVLW  0A
0F5F6:  MOVLB  6
0F5F8:  MOVWF  x64
0F5FA:  MOVLB  0
0F5FC:  CALL   1F6E
....................                Temporal=Sensor[0].RPT100-((int8)Sensor[0].RPT100); 
0F600:  MOVFF  2CE,660
0F604:  MOVFF  2CD,65F
0F608:  MOVFF  2CC,65E
0F60C:  MOVFF  2CB,65D
0F610:  CALL   521E
0F614:  MOVLB  6
0F616:  CLRF   x61
0F618:  MOVFF  01,660
0F61C:  MOVLB  0
0F61E:  CALL   1F38
0F622:  BSF    FD8.1
0F624:  MOVFF  2CE,666
0F628:  MOVFF  2CD,665
0F62C:  MOVFF  2CC,664
0F630:  MOVFF  2CB,663
0F634:  MOVFF  03,66A
0F638:  MOVFF  02,669
0F63C:  MOVFF  01,668
0F640:  MOVFF  00,667
0F644:  CALL   20F4
0F648:  MOVFF  03,168
0F64C:  MOVFF  02,167
0F650:  MOVFF  01,166
0F654:  MOVFF  00,165
....................                Temporal=Temporal*10; 
0F658:  MOVFF  168,664
0F65C:  MOVFF  167,663
0F660:  MOVFF  166,662
0F664:  MOVFF  165,661
0F668:  MOVLB  6
0F66A:  CLRF   x68
0F66C:  CLRF   x67
0F66E:  MOVLW  20
0F670:  MOVWF  x66
0F672:  MOVLW  82
0F674:  MOVWF  x65
0F676:  MOVLB  0
0F678:  CALL   42D8
0F67C:  MOVFF  03,168
0F680:  MOVFF  02,167
0F684:  MOVFF  01,166
0F688:  MOVFF  00,165
....................                write_eeprom(27,(int8)Temporal); 
0F68C:  MOVFF  168,660
0F690:  MOVFF  167,65F
0F694:  MOVFF  166,65E
0F698:  MOVFF  165,65D
0F69C:  CALL   521E
0F6A0:  MOVFF  01,64B
0F6A4:  CLRF   FAA
0F6A6:  MOVLW  1B
0F6A8:  MOVWF  FA9
0F6AA:  MOVFF  64B,FA8
0F6AE:  BCF    FA6.6
0F6B0:  BCF    FA6.7
0F6B2:  BSF    FA6.2
0F6B4:  MOVF   FF2,W
0F6B6:  MOVWF  00
0F6B8:  BCF    FF2.6
0F6BA:  BCF    FF2.7
0F6BC:  MOVLB  F
0F6BE:  MOVLW  55
0F6C0:  MOVWF  FA7
0F6C2:  MOVLW  AA
0F6C4:  MOVWF  FA7
0F6C6:  BSF    FA6.1
0F6C8:  BTFSC  FA6.1
0F6CA:  BRA    F6C8
0F6CC:  BCF    FA6.2
0F6CE:  MOVF   00,W
0F6D0:  IORWF  FF2,F
....................                delay_ms(10); 
0F6D2:  MOVLW  0A
0F6D4:  MOVLB  6
0F6D6:  MOVWF  x64
0F6D8:  MOVLB  0
0F6DA:  CALL   1F6E
....................                write_eeprom(30,(int8)Sensor[1].RPT100); 
0F6DE:  MOVFF  432,660
0F6E2:  MOVFF  431,65F
0F6E6:  MOVFF  430,65E
0F6EA:  MOVFF  42F,65D
0F6EE:  CALL   521E
0F6F2:  MOVFF  01,64B
0F6F6:  CLRF   FAA
0F6F8:  MOVLW  1E
0F6FA:  MOVWF  FA9
0F6FC:  MOVFF  64B,FA8
0F700:  BCF    FA6.6
0F702:  BCF    FA6.7
0F704:  BSF    FA6.2
0F706:  MOVF   FF2,W
0F708:  MOVWF  00
0F70A:  BCF    FF2.6
0F70C:  BCF    FF2.7
0F70E:  MOVLB  F
0F710:  MOVLW  55
0F712:  MOVWF  FA7
0F714:  MOVLW  AA
0F716:  MOVWF  FA7
0F718:  BSF    FA6.1
0F71A:  BTFSC  FA6.1
0F71C:  BRA    F71A
0F71E:  BCF    FA6.2
0F720:  MOVF   00,W
0F722:  IORWF  FF2,F
....................                delay_ms(10); 
0F724:  MOVLW  0A
0F726:  MOVLB  6
0F728:  MOVWF  x64
0F72A:  MOVLB  0
0F72C:  CALL   1F6E
....................                Temporal=Sensor[1].RPT100-((int8)Sensor[1].RPT100); 
0F730:  MOVFF  432,660
0F734:  MOVFF  431,65F
0F738:  MOVFF  430,65E
0F73C:  MOVFF  42F,65D
0F740:  CALL   521E
0F744:  MOVLB  6
0F746:  CLRF   x61
0F748:  MOVFF  01,660
0F74C:  MOVLB  0
0F74E:  CALL   1F38
0F752:  BSF    FD8.1
0F754:  MOVFF  432,666
0F758:  MOVFF  431,665
0F75C:  MOVFF  430,664
0F760:  MOVFF  42F,663
0F764:  MOVFF  03,66A
0F768:  MOVFF  02,669
0F76C:  MOVFF  01,668
0F770:  MOVFF  00,667
0F774:  CALL   20F4
0F778:  MOVFF  03,168
0F77C:  MOVFF  02,167
0F780:  MOVFF  01,166
0F784:  MOVFF  00,165
....................                Temporal=Temporal*10; 
0F788:  MOVFF  168,664
0F78C:  MOVFF  167,663
0F790:  MOVFF  166,662
0F794:  MOVFF  165,661
0F798:  MOVLB  6
0F79A:  CLRF   x68
0F79C:  CLRF   x67
0F79E:  MOVLW  20
0F7A0:  MOVWF  x66
0F7A2:  MOVLW  82
0F7A4:  MOVWF  x65
0F7A6:  MOVLB  0
0F7A8:  CALL   42D8
0F7AC:  MOVFF  03,168
0F7B0:  MOVFF  02,167
0F7B4:  MOVFF  01,166
0F7B8:  MOVFF  00,165
....................                write_eeprom(29,(int8)Temporal); 
0F7BC:  MOVFF  168,660
0F7C0:  MOVFF  167,65F
0F7C4:  MOVFF  166,65E
0F7C8:  MOVFF  165,65D
0F7CC:  CALL   521E
0F7D0:  MOVFF  01,64B
0F7D4:  CLRF   FAA
0F7D6:  MOVLW  1D
0F7D8:  MOVWF  FA9
0F7DA:  MOVFF  64B,FA8
0F7DE:  BCF    FA6.6
0F7E0:  BCF    FA6.7
0F7E2:  BSF    FA6.2
0F7E4:  MOVF   FF2,W
0F7E6:  MOVWF  00
0F7E8:  BCF    FF2.6
0F7EA:  BCF    FF2.7
0F7EC:  MOVLB  F
0F7EE:  MOVLW  55
0F7F0:  MOVWF  FA7
0F7F2:  MOVLW  AA
0F7F4:  MOVWF  FA7
0F7F6:  BSF    FA6.1
0F7F8:  BTFSC  FA6.1
0F7FA:  BRA    F7F8
0F7FC:  BCF    FA6.2
0F7FE:  MOVF   00,W
0F800:  IORWF  FF2,F
....................                delay_ms(10); 
0F802:  MOVLW  0A
0F804:  MOVLB  6
0F806:  MOVWF  x64
0F808:  MOVLB  0
0F80A:  CALL   1F6E
....................                write_eeprom(31,Atmosferica); 
0F80E:  CLRF   FAA
0F810:  MOVLW  1F
0F812:  MOVWF  FA9
0F814:  MOVFF  23C,FA8
0F818:  BCF    FA6.6
0F81A:  BCF    FA6.7
0F81C:  BSF    FA6.2
0F81E:  MOVF   FF2,W
0F820:  MOVWF  00
0F822:  BCF    FF2.6
0F824:  BCF    FF2.7
0F826:  MOVLB  F
0F828:  MOVLW  55
0F82A:  MOVWF  FA7
0F82C:  MOVLW  AA
0F82E:  MOVWF  FA7
0F830:  BSF    FA6.1
0F832:  BTFSC  FA6.1
0F834:  BRA    F832
0F836:  BCF    FA6.2
0F838:  MOVF   00,W
0F83A:  IORWF  FF2,F
....................                delay_ms(10); 
0F83C:  MOVLW  0A
0F83E:  MOVLB  6
0F840:  MOVWF  x64
0F842:  MOVLB  0
0F844:  CALL   1F6E
....................                write_eeprom(32,Tapertura); 
0F848:  CLRF   FAA
0F84A:  MOVLW  20
0F84C:  MOVWF  FA9
0F84E:  MOVFF  1F6,FA8
0F852:  BCF    FA6.6
0F854:  BCF    FA6.7
0F856:  BSF    FA6.2
0F858:  MOVF   FF2,W
0F85A:  MOVWF  00
0F85C:  BCF    FF2.6
0F85E:  BCF    FF2.7
0F860:  MOVLB  F
0F862:  MOVLW  55
0F864:  MOVWF  FA7
0F866:  MOVLW  AA
0F868:  MOVWF  FA7
0F86A:  BSF    FA6.1
0F86C:  BTFSC  FA6.1
0F86E:  BRA    F86C
0F870:  BCF    FA6.2
0F872:  MOVF   00,W
0F874:  IORWF  FF2,F
....................                delay_ms(10); 
0F876:  MOVLW  0A
0F878:  MOVLB  6
0F87A:  MOVWF  x64
0F87C:  MOVLB  0
0F87E:  CALL   1F6E
....................                GuardaEEPROM=ON; 
0F882:  BSF    xA7.4
....................             } 
....................             printf("page Menu"); 
0F884:  MOVLW  F8
0F886:  MOVWF  FF6
0F888:  MOVLW  1E
0F88A:  MOVWF  FF7
0F88C:  MOVLW  00
0F88E:  MOVWF  FF8
0F890:  CALL   4248
....................             SendDataDisplay(); 
0F894:  CALL   427A
0F898:  MOVLB  2
....................             //BorraBuffer(); 
....................          } 
....................       } 
....................       printf("fecha.txt=\"Fecha:%02u/%02u/20%02u    Hora: %02u:%02u\"",Dia,Mes,Year,Hora,Minuto); 
0F89A:  MOVLW  02
0F89C:  MOVWF  FF6
0F89E:  MOVLW  1F
0F8A0:  MOVWF  FF7
0F8A2:  MOVLW  00
0F8A4:  MOVWF  FF8
0F8A6:  MOVLW  11
0F8A8:  MOVLB  6
0F8AA:  MOVWF  x51
0F8AC:  MOVLB  0
0F8AE:  CALL   5AAC
0F8B2:  MOVFF  236,651
0F8B6:  MOVLW  01
0F8B8:  MOVLB  6
0F8BA:  MOVWF  x52
0F8BC:  MOVLB  0
0F8BE:  CALL   5B30
0F8C2:  MOVLW  2F
0F8C4:  BTFSS  F9E.4
0F8C6:  BRA    F8C4
0F8C8:  MOVWF  FAD
0F8CA:  MOVFF  235,651
0F8CE:  MOVLW  01
0F8D0:  MOVLB  6
0F8D2:  MOVWF  x52
0F8D4:  MOVLB  0
0F8D6:  CALL   5B30
0F8DA:  MOVLW  2F
0F8DC:  BTFSS  F9E.4
0F8DE:  BRA    F8DC
0F8E0:  MOVWF  FAD
0F8E2:  MOVLW  32
0F8E4:  BTFSS  F9E.4
0F8E6:  BRA    F8E4
0F8E8:  MOVWF  FAD
0F8EA:  MOVLW  30
0F8EC:  BTFSS  F9E.4
0F8EE:  BRA    F8EC
0F8F0:  MOVWF  FAD
0F8F2:  MOVFF  234,651
0F8F6:  MOVLW  01
0F8F8:  MOVLB  6
0F8FA:  MOVWF  x52
0F8FC:  MOVLB  0
0F8FE:  CALL   5B30
0F902:  MOVLW  23
0F904:  MOVWF  FF6
0F906:  MOVLW  1F
0F908:  MOVWF  FF7
0F90A:  MOVLW  00
0F90C:  MOVWF  FF8
0F90E:  MOVLW  0A
0F910:  MOVLB  6
0F912:  MOVWF  x51
0F914:  MOVLB  0
0F916:  CALL   5AAC
0F91A:  MOVFF  237,651
0F91E:  MOVLW  01
0F920:  MOVLB  6
0F922:  MOVWF  x52
0F924:  MOVLB  0
0F926:  CALL   5B30
0F92A:  MOVLW  3A
0F92C:  BTFSS  F9E.4
0F92E:  BRA    F92C
0F930:  MOVWF  FAD
0F932:  MOVFF  238,651
0F936:  MOVLW  01
0F938:  MOVLB  6
0F93A:  MOVWF  x52
0F93C:  MOVLB  0
0F93E:  CALL   5B30
0F942:  MOVLW  22
0F944:  BTFSS  F9E.4
0F946:  BRA    F944
0F948:  MOVWF  FAD
....................       SendDataDisplay();  
0F94A:  CALL   427A
0F94E:  MOVLB  1
....................     } 
.................... //_--------------------------------------------------------------------------------------------------------------------------------------------------------        
....................  
....................    } 
0F950:  GOTO   8230
.................... } 
0F954:  SLEEP 

Configuration Fuses:
   Word  1: 0200   HS NOIESO NOFCMEN
   Word  2: 1B1F   BROWNOUT WDT BORV20 NOPUT WDT8192
   Word  3: 0000   NOPBADEN NOLPT1OSC NOMCLR
   Word  4: 00B0   NOSTVREN NODEBUG NOLVP NOXINST BBSIZ4K
   Word  5: C03F   NOPROTECT NOCPD NOCPB
   Word  6: E03F   NOWRT NOWRTD NOWRTC NOWRTB
   Word  7: 403F   NOEBTR NOEBTRB
