CCS PCH C Compiler, Version 4.104, 5967               17-jun.-20 15:10

               Filename: D:\Laboratorio\Autoclave\Autoclaves Vertical\Con Precamara\2020\Autoclave 160L Sociedad Integral Suministros OP202055 #0045881XX\Firmware V4.0\GLCD_Controller\GLCD_Controller.lst

               ROM used: 58636 bytes (60%)
                         Largest free fragment is 32768
               RAM used: 1977 (59%) at main() level
                         2004 (60%) worst case
               Stack:    5 worst case (4 in main + 1 for interrupts)

*
00000:  GOTO   7558
*
00008:  GOTO   00BA
0000C:  NOP   
0000E:  NOP   
00010:  NOP   
00012:  NOP   
00014:  NOP   
00016:  NOP   
00018:  MOVWF  04
0001A:  MOVFF  FD8,05
0001E:  MOVFF  FE0,06
00022:  MOVLB  0
00024:  MOVFF  FE9,0C
00028:  MOVFF  FEA,07
0002C:  MOVFF  FE1,08
00030:  MOVFF  FE2,09
00034:  MOVFF  FD9,0A
00038:  MOVFF  FDA,0B
0003C:  MOVFF  FF3,12
00040:  MOVFF  FF4,13
00044:  MOVFF  FFA,14
00048:  MOVFF  FFB,15
0004C:  MOVFF  00,0E
00050:  MOVFF  01,0F
00054:  MOVFF  02,10
00058:  MOVFF  03,11
0005C:  BTFSS  FF2.5
0005E:  GOTO   0068
00062:  BTFSC  FF2.2
00064:  GOTO   061C
00068:  BTFSS  F9D.0
0006A:  GOTO   0074
0006E:  BTFSC  F9E.0
00070:  GOTO   066C
00074:  MOVFF  0E,00
00078:  MOVFF  0F,01
0007C:  MOVFF  10,02
00080:  MOVFF  11,03
00084:  MOVFF  0C,FE9
00088:  MOVFF  07,FEA
0008C:  BSF    07.7
0008E:  MOVFF  08,FE1
00092:  MOVFF  09,FE2
00096:  MOVFF  0A,FD9
0009A:  MOVFF  0B,FDA
0009E:  MOVFF  12,FF3
000A2:  MOVFF  13,FF4
000A6:  MOVFF  14,FFA
000AA:  MOVFF  15,FFB
000AE:  MOVF   04,W
000B0:  MOVFF  06,FE0
000B4:  MOVFF  05,FD8
000B8:  RETFIE 0
000BA:  MOVWF  17
000BC:  MOVFF  FD8,18
000C0:  MOVFF  FE0,19
000C4:  MOVLB  0
000C6:  MOVFF  FE9,1F
000CA:  MOVFF  FEA,1A
000CE:  MOVFF  FE1,1B
000D2:  MOVFF  FE2,1C
000D6:  MOVFF  FD9,1D
000DA:  MOVFF  FDA,1E
000DE:  MOVFF  FF3,25
000E2:  MOVFF  FF4,26
000E6:  MOVFF  FFA,27
000EA:  MOVFF  FFB,28
000EE:  MOVFF  00,21
000F2:  MOVFF  01,22
000F6:  MOVFF  02,23
000FA:  MOVFF  03,24
000FE:  BTFSS  F9D.5
00100:  GOTO   010A
00104:  BTFSC  F9E.5
00106:  GOTO   05AE
0010A:  MOVFF  21,00
0010E:  MOVFF  22,01
00112:  MOVFF  23,02
00116:  MOVFF  24,03
0011A:  MOVFF  1F,FE9
0011E:  MOVFF  1A,FEA
00122:  BSF    1A.7
00124:  MOVFF  1B,FE1
00128:  MOVFF  1C,FE2
0012C:  MOVFF  1D,FD9
00130:  MOVFF  1E,FDA
00134:  MOVFF  25,FF3
00138:  MOVFF  26,FF4
0013C:  MOVFF  27,FFA
00140:  MOVFF  28,FFB
00144:  MOVF   17,W
00146:  MOVFF  19,FE0
0014A:  MOVFF  18,FD8
0014E:  RETFIE 0
.................... //Falta crear menu de ajuste de variables y de norma CFR21 
....................  
.................... #include <18F4685.h> 
.................... //////// Standard Header file for the PIC18F4685 device //////////////// 
.................... #device PIC18F4685 
.................... #list 
....................  
.................... #device adc=10 
.................... #device HIGH_INTS=TRUE //Activamos niveles de prioridad 
.................... #fuses HS,WDT8192,NOPROTECT,NOLVP,NODEBUG,NOSTVREN,NOPUT,NOCPD,NOWRT,NOIESO,NOFCMEN,NOPBADEN,NOWRTC,NOWRTB,NOEBTR,NOEBTRB,NOCPB,NOXINST,NOLPT1OSC,NOMCLR 
.................... #use delay(clock=20000000) 
*
01E8C:  MOVLW  07
01E8E:  MOVWF  FEA
01E90:  MOVLW  C0
01E92:  MOVWF  FE9
01E94:  MOVF   FEF,W
01E96:  BZ    1EB2
01E98:  MOVLW  06
01E9A:  MOVWF  01
01E9C:  CLRF   00
01E9E:  DECFSZ 00,F
01EA0:  BRA    1E9E
01EA2:  DECFSZ 01,F
01EA4:  BRA    1E9C
01EA6:  MOVLW  7B
01EA8:  MOVWF  00
01EAA:  DECFSZ 00,F
01EAC:  BRA    1EAA
01EAE:  DECFSZ FEF,F
01EB0:  BRA    1E98
01EB2:  RETLW  00
.................... #use i2c(Master,slow,sda=PIN_C4,scl=PIN_C3) 
*
01F4A:  MOVLW  08
01F4C:  MOVWF  01
01F4E:  MOVLW  05
01F50:  MOVWF  00
01F52:  DECFSZ 00,F
01F54:  BRA    1F52
01F56:  BCF    F8B.3
01F58:  BCF    F94.3
01F5A:  MOVLW  06
01F5C:  MOVWF  00
01F5E:  DECFSZ 00,F
01F60:  BRA    1F5E
01F62:  MOVLB  7
01F64:  RLCF   xC4,F
01F66:  BCF    F8B.4
01F68:  BTFSC  FD8.0
01F6A:  BSF    F94.4
01F6C:  BTFSS  FD8.0
01F6E:  BCF    F94.4
01F70:  BSF    F94.3
01F72:  BTFSS  F82.3
01F74:  BRA    1F72
01F76:  DECFSZ 01,F
01F78:  BRA    1F7C
01F7A:  BRA    1F80
01F7C:  MOVLB  0
01F7E:  BRA    1F4E
01F80:  MOVLW  05
01F82:  MOVWF  00
01F84:  DECFSZ 00,F
01F86:  BRA    1F84
01F88:  BCF    F8B.3
01F8A:  BCF    F94.3
01F8C:  NOP   
01F8E:  BSF    F94.4
01F90:  MOVLW  06
01F92:  MOVWF  00
01F94:  DECFSZ 00,F
01F96:  BRA    1F94
01F98:  MOVLW  06
01F9A:  MOVWF  00
01F9C:  DECFSZ 00,F
01F9E:  BRA    1F9C
01FA0:  BSF    F94.3
01FA2:  BTFSS  F82.3
01FA4:  BRA    1FA2
01FA6:  CLRF   01
01FA8:  MOVLW  06
01FAA:  MOVWF  00
01FAC:  DECFSZ 00,F
01FAE:  BRA    1FAC
01FB0:  BTFSC  F82.4
01FB2:  BSF    01.0
01FB4:  BCF    F8B.3
01FB6:  BCF    F94.3
01FB8:  BCF    F8B.4
01FBA:  BCF    F94.4
01FBC:  MOVLB  0
01FBE:  RETLW  00
01FC0:  MOVLW  08
01FC2:  MOVLB  7
01FC4:  MOVWF  xB9
01FC6:  MOVFF  00,7BA
01FCA:  BSF    F94.4
01FCC:  MOVLW  06
01FCE:  MOVWF  00
01FD0:  DECFSZ 00,F
01FD2:  BRA    1FD0
01FD4:  BSF    F94.3
01FD6:  BTFSS  F82.3
01FD8:  BRA    1FD6
01FDA:  BTFSC  F82.4
01FDC:  BSF    FD8.0
01FDE:  BTFSS  F82.4
01FE0:  BCF    FD8.0
01FE2:  RLCF   01,F
01FE4:  MOVLW  05
01FE6:  MOVWF  00
01FE8:  DECFSZ 00,F
01FEA:  BRA    1FE8
01FEC:  BCF    F94.3
01FEE:  BCF    F8B.3
01FF0:  DECFSZ xB9,F
01FF2:  BRA    1FCA
01FF4:  BSF    F94.4
01FF6:  MOVLW  06
01FF8:  MOVWF  00
01FFA:  DECFSZ 00,F
01FFC:  BRA    1FFA
01FFE:  BCF    F8B.4
02000:  MOVF   xBA,W
02002:  BTFSS  FD8.2
02004:  BCF    F94.4
02006:  NOP   
02008:  BSF    F94.3
0200A:  BTFSS  F82.3
0200C:  BRA    200A
0200E:  MOVLW  05
02010:  MOVWF  00
02012:  DECFSZ 00,F
02014:  BRA    2012
02016:  BCF    F8B.3
02018:  BCF    F94.3
0201A:  MOVLW  06
0201C:  MOVWF  00
0201E:  DECFSZ 00,F
02020:  BRA    201E
02022:  BCF    F8B.4
02024:  BCF    F94.4
02026:  MOVLB  0
02028:  RETLW  00
.................... #use rs232(baud=9600, xmit=PIN_C6, rcv=PIN_C7, bits=8, parity=N) 
*
03E1E:  BTFSS  F9E.4
03E20:  BRA    3E1E
03E22:  MOVWF  FAD
03E24:  RETLW  00
....................  
.................... #include <stdio.h> 
.................... /////////////////////////////////////////////////////////////////////////// 
.................... ////        (C) Copyright 1996,2003 Custom Computer Services           //// 
.................... //// This source code may only be used by licensed users of the CCS C  //// 
.................... //// compiler.  This source code may only be distributed to other      //// 
.................... //// licensed users of the CCS C compiler.  No other use, reproduction //// 
.................... //// or distribution is permitted without written permission.          //// 
.................... //// Derivative programs created using this software in object code    //// 
.................... //// form are not restricted in any way.                               //// 
.................... /////////////////////////////////////////////////////////////////////////// 
....................  
.................... #ifndef _STDIO 
.................... #define _STDIO 
.................... #include <string.h> 
.................... //////////////////////////////////////////////////////////////////////////// 
.................... ////        (C) Copyright 1996,2008 Custom Computer Services            //// 
.................... //// This source code may only be used by licensed users of the CCS C   //// 
.................... //// compiler.  This source code may only be distributed to other       //// 
.................... //// licensed users of the CCS C compiler.  No other use, reproduction  //// 
.................... //// or distribution is permitted without written permission.           //// 
.................... //// Derivative programs created using this software in object code     //// 
.................... //// form are not restricted in any way.                                //// 
.................... //////////////////////////////////////////////////////////////////////////// 
....................  
.................... #ifndef _STRING 
.................... #define _STRING 
.................... #include <stddef.h> 
.................... /////////////////////////////////////////////////////////////////////////// 
.................... ////        (C) Copyright 1996,2003 Custom Computer Services           //// 
.................... //// This source code may only be used by licensed users of the CCS C  //// 
.................... //// compiler.  This source code may only be distributed to other      //// 
.................... //// licensed users of the CCS C compiler.  No other use, reproduction //// 
.................... //// or distribution is permitted without written permission.          //// 
.................... //// Derivative programs created using this software in object code    //// 
.................... //// form are not restricted in any way.                               //// 
.................... /////////////////////////////////////////////////////////////////////////// 
....................  
.................... #ifndef _STDDEF 
....................  
.................... #define _STDDEF 
....................  
.................... #if sizeof(unsigned int8 *)==1 
.................... #define ptrdiff_t unsigned int8 
.................... #else 
.................... #define ptrdiff_t unsigned int16 
.................... #endif 
....................  
.................... #define size_t unsigned int8 
.................... #define wchar_t char 
.................... #define NULL 0 
....................  
.................... #define offsetof(s,f) (offsetofbit(s,f)/8) 
....................  
.................... #endif 
....................  
.................... #include <ctype.h> 
.................... //////////////////////////////////////////////////////////////////////////// 
.................... ////        (C) Copyright 1996,2003 Custom Computer Services            //// 
.................... //// This source code may only be used by licensed users of the CCS C   //// 
.................... //// compiler.  This source code may only be distributed to other       //// 
.................... //// licensed users of the CCS C compiler.  No other use, reproduction  //// 
.................... //// or distribution is permitted without written permission.           //// 
.................... //// Derivative programs created using this software in object code     //// 
.................... //// form are not restricted in any way.                                //// 
.................... //////////////////////////////////////////////////////////////////////////// 
....................  
.................... #ifndef _CTYPE 
.................... #define _CTYPE 
....................  
.................... #define islower(x)  isamong(x,"abcdefghijklmnopqrstuvwxyz") 
.................... #define isupper(x)  isamong(x,"ABCDEFGHIJKLMNOPQRSTUVWXYZ") 
.................... #define isalnum(x)  isamong(x,"0123456789ABCDEFGHIJKLMNOPQRSTUVWXYZabcdefghijklmnopqrstuvwxyz") 
.................... #define isalpha(x)  isamong(x,"ABCDEFGHIJKLMNOPQRSTUVWXYZabcdefghijklmnopqrstuvwxyz") 
.................... #define isdigit(x)  isamong(x,"0123456789") 
.................... #define isspace(x)  ((x)==' ') 
.................... #define isxdigit(x) isamong(x,"0123456789ABCDEFabcdef") 
.................... #define iscntrl(x)  ((x)<' ') 
.................... #define isprint(x)  ((x)>=' ') 
.................... #define isgraph(x)  ((x)>' ') 
.................... #define ispunct(x)  (((x)>' ')&&!isalnum(x)) 
....................  
.................... #endif 
....................  
....................  
....................  
....................  
....................  
.................... ////////////////////////////////////////////// 
.................... //// Uncomment the following define to    //// 
.................... //// allow some functions to use a        //// 
.................... //// quicker algorithm, but use more ROM  //// 
.................... ////                                      //// 
.................... //// #define FASTER_BUT_MORE_ROM          //// 
.................... ////////////////////////////////////////////// 
....................  
....................  
....................  
.................... /*Copying functions*/ 
.................... /* standard template: 
....................    void *memmove(void *s1, void *s2, size_t n). 
....................    Copies max of n characters safely (not following ending '\0') 
....................    from s2 in s1; if s2 has less than n characters, appends 0 */ 
....................  
.................... char *memmove(void *s1,char *s2,size_t n) 
.................... { 
....................    char *sc1; 
....................    char *sc2; 
....................    sc1=s1; 
....................    sc2=s2; 
....................    if(sc2<sc1 && sc1 <sc2 +n) 
....................       for(sc1+=n,sc2+=n;0<n;--n) 
....................          *--sc1=*--sc2; 
....................    else 
....................       for(;0<n;--n) 
....................          *sc1++=*sc2++; 
....................   return s1; 
....................   } 
....................  
.................... /* Standard template: char *strcpy(char *s1, const char *s2) 
....................    copies the string s2 including the null character to s1. 
....................    This is a compiler built in to handle the different address 
....................    spaces */ 
....................  
.................... #define strcopy strcpy 
....................  
.................... /* standard template: 
....................    char *strncpy(char *s1, const char *s2, size_t n). 
....................    Copies max of n characters (not following ending '\0') 
....................    from s2 in s1; if s2 has less than n characters, appends 0 */ 
....................  
.................... char *strncpy(char *s1, char *s2, size_t n) 
.................... { 
....................   char *s; 
....................  
....................   for (s = s1; n > 0 && *s2 != '\0'; n--) 
....................      *s++ = *s2++; 
....................   for (; n > 0; n--) 
....................      *s++ = '\0'; 
....................  
....................   return(s1); 
.................... } 
.................... /***********************************************************/ 
....................  
.................... /*concatenation functions*/ 
.................... /* standard template: char *strcat(char *s1, const char *s2) 
.................... appends s2 to s1*/ 
....................  
.................... char *strcat(char *s1, char *s2) 
.................... { 
....................    char *s; 
....................  
....................    for (s = s1; *s != '\0'; ++s); 
....................    while(*s2 != '\0') 
....................    { 
....................       *s = *s2; 
....................       ++s; 
....................       ++s2; 
....................    } 
....................  
....................    *s = '\0'; 
....................    return(s1); 
.................... } 
.................... /* standard template: char *strncat(char *s1, char *s2,size_t n) 
.................... appends not more than n characters from s2 to s1*/ 
....................  
.................... char *strncat(char *s1, char *s2, size_t n) 
.................... { 
....................    char *s; 
....................  
....................    for (s = s1; *s != '\0'; ++s); 
....................    while(*s2 != '\0' && 0<n) 
....................    { 
....................       *s = *s2; 
....................       ++s; 
....................       ++s2; 
....................       --n; 
....................    } 
....................  
....................    *s = '\0'; 
....................    return(s1); 
.................... } 
....................  
.................... /***********************************************************/ 
....................  
....................  
.................... /*comparison functions*/ 
.................... /* standard template: signed int memcmp(void *s1, void *s2). 
....................    Compares s1 & s2; returns -1 if s1<s2, 0 if s1=s2, 1 if s1>s2 */ 
....................  
.................... signed int8 memcmp(void * s1,char *s2,size_t n) 
.................... { 
.................... char *su1, *su2; 
.................... for(su1=s1, su2=s2; 0<n; ++su1, ++su2, --n) 
.................... { 
....................    if(*su1!=*su2) 
....................       return ((*su1<*su2)?-1:+1); 
.................... } 
.................... return 0; 
.................... } 
....................  
.................... /* standard template: int strcmp(const char *s1, const char *s2). 
....................    Compares s1 & s2; returns -1 if s1<s2, 0 if s1=s2, 1 if s1>s2 */ 
....................  
.................... signed int8 strcmp(char *s1, char *s2) 
.................... { 
....................    for (; *s1 == *s2; s1++, s2++) 
....................       if (*s1 == '\0') 
....................          return(0); 
....................    return((*s1 < *s2) ? -1: 1); 
.................... } 
.................... /* standard template: int strcoll(const char *s1, const char *s2). 
....................    Compares s1 & s2; returns -1 if s1<s2, 0 if s1=s2, 1 if s1>s2 */ 
....................  
.................... signed int8 strcoll(char *s1, char *s2) 
.................... { 
....................    for (; *s1 == *s2; s1++, s2++) 
....................       if (*s1 == '\0') 
....................          return(0); 
....................    return((*s1 < *s2) ? -1: 1); 
.................... } 
....................  
.................... /* standard template: 
....................    int strncmp(const char *s1, const char *s2, size_t n). 
....................    Compares max of n characters (not following 0) from s1 to s2; 
....................    returns same as strcmp */ 
....................  
.................... signed int8 strncmp(char *s1, char *s2, size_t n) 
.................... { 
....................    for (; n > 0; s1++, s2++, n--) 
....................       if (*s1 != *s2) 
....................          return((*s1 <*s2) ? -1: 1); 
....................       else if (*s1 == '\0') 
....................          return(0); 
....................    return(0); 
.................... } 
.................... /* standard template: 
....................    int strxfrm(const char *s1, const char *s2, size_t n). 
....................    transforms maximum of n characters from s2 and places them into s1*/ 
.................... size_t strxfrm(char *s1, char *s2, size_t n) 
.................... { 
....................   char *s; 
....................   unsigned int8 n1; 
....................   n1=n; 
....................   for (s = s1; n > 0 && *s2 != '\0'; n--) 
....................      *s++ = *s2++; 
....................   for (; n > 0; n--) 
....................      *s++ = '\0'; 
....................  
....................   return(n1); 
.................... } 
....................  
....................  
....................  
....................  
....................  
.................... /***********************************************************/ 
.................... /*Search functions*/ 
.................... /* standard template: void *memchr(const char *s, int c). 
....................    Finds first occurrence of c in n characters of s */ 
....................  
.................... char *memchr(void *s,unsigned int8 c,size_t n) 
.................... { 
....................    char uc; 
....................    char *su; 
....................    uc=c; 
....................    for(su=s;0<n;++su,--n) 
....................       if(*su==uc) 
....................       return su; 
....................    return NULL; 
.................... } 
....................  
.................... /* standard template: char *strchr(const char *s, int c). 
....................    Finds first occurrence of c in s */ 
....................  
.................... char *strchr(char *s, unsigned int8 c) 
.................... { 
....................    for (; *s != c; s++) 
....................       if (*s == '\0') 
....................          return(0); 
....................    return(s); 
.................... } 
.................... /* standard template: 
....................    size_t strcspn(const char *s1, const char *s2). 
....................    Computes length of max initial segment of s1 that 
....................    consists entirely of characters NOT from s2*/ 
....................  
.................... unsigned int8  strcspn(char *s1, char *s2) 
.................... { 
....................    char *sc1, *sc2; 
....................  
....................    for (sc1 = s1; *sc1 != 0; sc1++) 
....................       for (sc2 = s2; *sc2 != 0; sc2++) 
....................          if (*sc1 == *sc2) 
....................             return(sc1 - s1); 
....................    return(sc1 - s1); 
.................... } 
.................... /* standard template: 
....................    char *strpbrk(const char *s1, const char *s2). 
....................    Locates first occurence of any character from s2 in s1; 
....................    returns s1 if s2 is empty string */ 
....................  
.................... char *strpbrk(char *s1, char *s2) 
.................... { 
....................    char *sc1, *sc2; 
....................  
....................    for (sc1 = s1; *sc1 != 0; sc1++) 
....................       for (sc2 = s2; *sc2 != 0; sc2++) 
....................          if (*sc1 == *sc2) 
....................             return(sc1); 
....................    return(0); 
.................... } 
....................  
....................  
.................... /* standard template: char *strrchr(const char *s, int c). 
....................    Finds last occurrence of c in s */ 
....................  
.................... char *strrchr(char *s, unsigned int8 c) 
.................... { 
....................    char *p; 
....................  
....................    for (p = 0; ; s++) 
....................    { 
....................       if (*s == c) 
....................          p = s; 
....................       if (*s == '\0') 
....................          return(p); 
....................    } 
.................... } 
.................... /* computes length of max initial segment of s1 consisting 
....................    entirely of characters from s2 */ 
....................  
.................... unsigned int8  strspn(char *s1, char *s2) 
.................... { 
....................    char *sc1, *sc2; 
....................  
....................    for (sc1 = s1; *sc1 != 0; sc1++) 
....................       for (sc2 = s2; ; sc2++) 
....................     if (*sc2 == '\0') 
....................        return(sc1 - s1); 
....................          else if (*sc1 == *sc2) 
....................             break; 
....................    return(sc1 - s1); 
.................... } 
.................... /* standard template: 
....................    char *strstr(const char *s1, const char *s2); 
....................    Locates first occurence of character sequence s2 in s1; 
....................    returns 0 if s2 is empty string 
....................  
....................    Uncomment #define FASTER_BUT_MORE_ROM at the top of the 
....................    file to use the faster algorithm */ 
.................... char *strstr(char *s1, char *s2) 
.................... { 
....................    char *s, *t; 
....................  
....................    #ifdef FASTER_BUT_MORE_ROM 
....................    if (*s2 == '\0') 
....................          return(s1); 
....................    #endif 
....................  
....................    while (*s1) 
....................    { 
....................       for(s = s1, t = s2; *t && (*s == *t); ++s, ++t); 
....................  
....................       if (*t == '\0') 
....................          return s1; 
....................       ++s1; 
....................       #ifdef FASTER_BUT_MORE_ROM 
....................          while(*s1 != '\0' && *s1 != *s2) 
....................             ++s1; 
....................       #endif 
....................    } 
....................    return 0; 
.................... } 
....................  
.................... /* standard template: char *strtok(char *s1, const char *s2). 
....................  
....................    Finds next token in s1 delimited by a character from separator 
....................    string s2 (which can be different from call to call).  First call 
....................    starts at beginning of s1 searching for first character NOT 
....................    contained in s2; returns 0 if none is found. 
....................    If one is found, it is the start of first token (return value). 
....................    Function then searches from there for a character contained in s2. 
....................    If none is found, current token extends to end of s1, and subsequent 
....................    searches for a token will return 0.  If one is found, it is 
....................    overwritten by '\0', which terminates current token.  Function saves 
....................    pointer to following character from which next search will start. 
....................    Each subsequent call, with 0 as first argument, starts searching 
....................    from saved pointer */ 
....................  
.................... char *strtok(char *s1, char *s2) 
.................... { 
....................    char *beg, *end; 
....................    static char *save; 
....................  
....................    beg = (s1)? s1: save; 
....................    beg += strspn(beg, s2); 
....................    if (*beg == '\0') 
....................    { 
....................       *save = ' '; 
....................       return(0); 
....................    } 
....................    end = strpbrk(beg, s2); 
....................    if (*end != '\0') 
....................    { 
....................       *end = '\0'; 
....................       end++; 
....................    } 
....................    save = end; 
....................    return(beg); 
.................... } 
....................  
.................... /*****************************************************************/ 
.................... /*Miscellaneous functions*/ 
.................... /* standard template 
.................... maps error number in errnum to an error message string 
.................... Returns: Pointer to string 
.................... */ 
.................... #ifdef _ERRNO 
.................... char * strerror(unsigned int8 errnum) 
.................... { 
.................... char s[15]; 
.................... switch( errnum) 
.................... { 
.................... case 0: 
....................    strcpy(s,"no errors"); 
....................    return s; 
.................... case EDOM : 
....................    strcpy(s,"domain error"); 
....................    return s; 
.................... case ERANGE: 
....................    strcpy(s,"range error"); 
....................    return s; 
.................... } 
.................... } 
.................... #ENDIF 
.................... /* standard template: size_t strlen(const char *s). 
....................    Computes length of s1 (preceding terminating 0) */ 
....................  
.................... unsigned int8 strlen(char *s) 
.................... { 
....................    char *sc; 
....................  
....................    for (sc = s; *sc != 0; sc++); 
....................    return(sc - s); 
.................... } 
....................  
.................... /* standard template: size_t stricmp(const char *s1, const char *s2). 
....................    Compares s1 to s2 ignoring case (upper vs. lower) */ 
....................  
.................... signed int8 stricmp(char *s1, char *s2) 
.................... { 
....................  for(; *s1==*s2||(isalpha(*s1)&&isalpha(*s2)&&(*s1==*s2+32||*s2==*s1+32)); 
....................     s1++, s2++) 
....................     if (*s1 == '\0') 
....................        return(0); 
....................  return((*s1 < *s2) ? -1: 1); 
.................... } 
....................  
....................  
.................... /* standard template: char *strlwr(char *s). 
....................    Replaces uppercase letters by lowercase; 
....................    returns pointer to new string s */ 
....................  
.................... char *strlwr(char *s) 
.................... { 
....................    char *p; 
....................  
....................    for (p = s; *p != '\0'; p++) 
....................       if (*p >= 'A' && *p <='Z') 
....................          *p += 'a' - 'A'; 
....................    return(s); 
.................... } 
....................  
....................  
.................... /************************************************************/ 
....................  
....................  
.................... #endif 
....................  
.................... #ifndef getc 
.................... #define getc getch 
.................... #define getchar getch 
.................... #define puts(s) {printf(s); putchar(13); putchar(10);} 
.................... #define putc putchar 
.................... #endif 
.................... /* maps error number to an error message. Writes a sequence of characters to 
.................... stderr stream thus: if s is not null then string pointed to by s follwed by 
.................... a colon (:) and a space and the appropriate error message returned by strerror 
.................... function with argument errno 
....................  
.................... Returns: no value 
.................... */ 
....................  
.................... #ifdef _ERRNO 
.................... void perror(char *s) 
.................... { 
....................   if(s) 
....................   fprintf(STDERR,"%s: ",s); 
....................   fprintf(STDERR,"%s\r\n",strerror(errno)); 
.................... } 
.................... #endif 
.................... #endif 
....................  
.................... #include <string.h> 
.................... //////////////////////////////////////////////////////////////////////////// 
.................... ////        (C) Copyright 1996,2008 Custom Computer Services            //// 
.................... //// This source code may only be used by licensed users of the CCS C   //// 
.................... //// compiler.  This source code may only be distributed to other       //// 
.................... //// licensed users of the CCS C compiler.  No other use, reproduction  //// 
.................... //// or distribution is permitted without written permission.           //// 
.................... //// Derivative programs created using this software in object code     //// 
.................... //// form are not restricted in any way.                                //// 
.................... //////////////////////////////////////////////////////////////////////////// 
....................  
.................... #ifndef _STRING 
.................... #define _STRING 
.................... #include <stddef.h> 
.................... #include <ctype.h> 
....................  
....................  
....................  
.................... ////////////////////////////////////////////// 
.................... //// Uncomment the following define to    //// 
.................... //// allow some functions to use a        //// 
.................... //// quicker algorithm, but use more ROM  //// 
.................... ////                                      //// 
.................... //// #define FASTER_BUT_MORE_ROM          //// 
.................... ////////////////////////////////////////////// 
....................  
....................  
....................  
.................... /*Copying functions*/ 
.................... /* standard template: 
....................    void *memmove(void *s1, void *s2, size_t n). 
....................    Copies max of n characters safely (not following ending '\0') 
....................    from s2 in s1; if s2 has less than n characters, appends 0 */ 
....................  
.................... char *memmove(void *s1,char *s2,size_t n) 
.................... { 
....................    char *sc1; 
....................    char *sc2; 
....................    sc1=s1; 
....................    sc2=s2; 
....................    if(sc2<sc1 && sc1 <sc2 +n) 
....................       for(sc1+=n,sc2+=n;0<n;--n) 
....................          *--sc1=*--sc2; 
....................    else 
....................       for(;0<n;--n) 
....................          *sc1++=*sc2++; 
....................   return s1; 
....................   } 
....................  
.................... /* Standard template: char *strcpy(char *s1, const char *s2) 
....................    copies the string s2 including the null character to s1. 
....................    This is a compiler built in to handle the different address 
....................    spaces */ 
....................  
.................... #define strcopy strcpy 
....................  
.................... /* standard template: 
....................    char *strncpy(char *s1, const char *s2, size_t n). 
....................    Copies max of n characters (not following ending '\0') 
....................    from s2 in s1; if s2 has less than n characters, appends 0 */ 
....................  
.................... char *strncpy(char *s1, char *s2, size_t n) 
.................... { 
....................   char *s; 
....................  
....................   for (s = s1; n > 0 && *s2 != '\0'; n--) 
....................      *s++ = *s2++; 
....................   for (; n > 0; n--) 
....................      *s++ = '\0'; 
....................  
....................   return(s1); 
.................... } 
.................... /***********************************************************/ 
....................  
.................... /*concatenation functions*/ 
.................... /* standard template: char *strcat(char *s1, const char *s2) 
.................... appends s2 to s1*/ 
....................  
.................... char *strcat(char *s1, char *s2) 
.................... { 
....................    char *s; 
....................  
....................    for (s = s1; *s != '\0'; ++s); 
....................    while(*s2 != '\0') 
....................    { 
....................       *s = *s2; 
....................       ++s; 
....................       ++s2; 
....................    } 
....................  
....................    *s = '\0'; 
....................    return(s1); 
.................... } 
.................... /* standard template: char *strncat(char *s1, char *s2,size_t n) 
.................... appends not more than n characters from s2 to s1*/ 
....................  
.................... char *strncat(char *s1, char *s2, size_t n) 
.................... { 
....................    char *s; 
....................  
....................    for (s = s1; *s != '\0'; ++s); 
....................    while(*s2 != '\0' && 0<n) 
....................    { 
....................       *s = *s2; 
....................       ++s; 
....................       ++s2; 
....................       --n; 
....................    } 
....................  
....................    *s = '\0'; 
....................    return(s1); 
.................... } 
....................  
.................... /***********************************************************/ 
....................  
....................  
.................... /*comparison functions*/ 
.................... /* standard template: signed int memcmp(void *s1, void *s2). 
....................    Compares s1 & s2; returns -1 if s1<s2, 0 if s1=s2, 1 if s1>s2 */ 
....................  
.................... signed int8 memcmp(void * s1,char *s2,size_t n) 
.................... { 
.................... char *su1, *su2; 
.................... for(su1=s1, su2=s2; 0<n; ++su1, ++su2, --n) 
.................... { 
....................    if(*su1!=*su2) 
....................       return ((*su1<*su2)?-1:+1); 
.................... } 
.................... return 0; 
.................... } 
....................  
.................... /* standard template: int strcmp(const char *s1, const char *s2). 
....................    Compares s1 & s2; returns -1 if s1<s2, 0 if s1=s2, 1 if s1>s2 */ 
....................  
.................... signed int8 strcmp(char *s1, char *s2) 
.................... { 
....................    for (; *s1 == *s2; s1++, s2++) 
....................       if (*s1 == '\0') 
....................          return(0); 
....................    return((*s1 < *s2) ? -1: 1); 
.................... } 
.................... /* standard template: int strcoll(const char *s1, const char *s2). 
....................    Compares s1 & s2; returns -1 if s1<s2, 0 if s1=s2, 1 if s1>s2 */ 
....................  
.................... signed int8 strcoll(char *s1, char *s2) 
.................... { 
....................    for (; *s1 == *s2; s1++, s2++) 
....................       if (*s1 == '\0') 
....................          return(0); 
....................    return((*s1 < *s2) ? -1: 1); 
.................... } 
....................  
.................... /* standard template: 
....................    int strncmp(const char *s1, const char *s2, size_t n). 
....................    Compares max of n characters (not following 0) from s1 to s2; 
....................    returns same as strcmp */ 
....................  
.................... signed int8 strncmp(char *s1, char *s2, size_t n) 
.................... { 
....................    for (; n > 0; s1++, s2++, n--) 
....................       if (*s1 != *s2) 
....................          return((*s1 <*s2) ? -1: 1); 
....................       else if (*s1 == '\0') 
....................          return(0); 
....................    return(0); 
.................... } 
.................... /* standard template: 
....................    int strxfrm(const char *s1, const char *s2, size_t n). 
....................    transforms maximum of n characters from s2 and places them into s1*/ 
.................... size_t strxfrm(char *s1, char *s2, size_t n) 
.................... { 
....................   char *s; 
....................   unsigned int8 n1; 
....................   n1=n; 
....................   for (s = s1; n > 0 && *s2 != '\0'; n--) 
....................      *s++ = *s2++; 
....................   for (; n > 0; n--) 
....................      *s++ = '\0'; 
....................  
....................   return(n1); 
.................... } 
....................  
....................  
....................  
....................  
....................  
.................... /***********************************************************/ 
.................... /*Search functions*/ 
.................... /* standard template: void *memchr(const char *s, int c). 
....................    Finds first occurrence of c in n characters of s */ 
....................  
.................... char *memchr(void *s,unsigned int8 c,size_t n) 
.................... { 
....................    char uc; 
....................    char *su; 
....................    uc=c; 
....................    for(su=s;0<n;++su,--n) 
....................       if(*su==uc) 
....................       return su; 
....................    return NULL; 
.................... } 
....................  
.................... /* standard template: char *strchr(const char *s, int c). 
....................    Finds first occurrence of c in s */ 
....................  
.................... char *strchr(char *s, unsigned int8 c) 
.................... { 
....................    for (; *s != c; s++) 
....................       if (*s == '\0') 
....................          return(0); 
....................    return(s); 
.................... } 
.................... /* standard template: 
....................    size_t strcspn(const char *s1, const char *s2). 
....................    Computes length of max initial segment of s1 that 
....................    consists entirely of characters NOT from s2*/ 
....................  
.................... unsigned int8  strcspn(char *s1, char *s2) 
.................... { 
....................    char *sc1, *sc2; 
....................  
....................    for (sc1 = s1; *sc1 != 0; sc1++) 
....................       for (sc2 = s2; *sc2 != 0; sc2++) 
....................          if (*sc1 == *sc2) 
....................             return(sc1 - s1); 
....................    return(sc1 - s1); 
.................... } 
.................... /* standard template: 
....................    char *strpbrk(const char *s1, const char *s2). 
....................    Locates first occurence of any character from s2 in s1; 
....................    returns s1 if s2 is empty string */ 
....................  
.................... char *strpbrk(char *s1, char *s2) 
.................... { 
....................    char *sc1, *sc2; 
....................  
....................    for (sc1 = s1; *sc1 != 0; sc1++) 
....................       for (sc2 = s2; *sc2 != 0; sc2++) 
....................          if (*sc1 == *sc2) 
....................             return(sc1); 
....................    return(0); 
.................... } 
....................  
....................  
.................... /* standard template: char *strrchr(const char *s, int c). 
....................    Finds last occurrence of c in s */ 
....................  
.................... char *strrchr(char *s, unsigned int8 c) 
.................... { 
....................    char *p; 
....................  
....................    for (p = 0; ; s++) 
....................    { 
....................       if (*s == c) 
....................          p = s; 
....................       if (*s == '\0') 
....................          return(p); 
....................    } 
.................... } 
.................... /* computes length of max initial segment of s1 consisting 
....................    entirely of characters from s2 */ 
....................  
.................... unsigned int8  strspn(char *s1, char *s2) 
.................... { 
....................    char *sc1, *sc2; 
....................  
....................    for (sc1 = s1; *sc1 != 0; sc1++) 
....................       for (sc2 = s2; ; sc2++) 
....................     if (*sc2 == '\0') 
....................        return(sc1 - s1); 
....................          else if (*sc1 == *sc2) 
....................             break; 
....................    return(sc1 - s1); 
.................... } 
.................... /* standard template: 
....................    char *strstr(const char *s1, const char *s2); 
....................    Locates first occurence of character sequence s2 in s1; 
....................    returns 0 if s2 is empty string 
....................  
....................    Uncomment #define FASTER_BUT_MORE_ROM at the top of the 
....................    file to use the faster algorithm */ 
.................... char *strstr(char *s1, char *s2) 
.................... { 
....................    char *s, *t; 
....................  
....................    #ifdef FASTER_BUT_MORE_ROM 
....................    if (*s2 == '\0') 
....................          return(s1); 
....................    #endif 
....................  
....................    while (*s1) 
....................    { 
....................       for(s = s1, t = s2; *t && (*s == *t); ++s, ++t); 
....................  
....................       if (*t == '\0') 
....................          return s1; 
....................       ++s1; 
....................       #ifdef FASTER_BUT_MORE_ROM 
....................          while(*s1 != '\0' && *s1 != *s2) 
....................             ++s1; 
....................       #endif 
....................    } 
....................    return 0; 
.................... } 
....................  
.................... /* standard template: char *strtok(char *s1, const char *s2). 
....................  
....................    Finds next token in s1 delimited by a character from separator 
....................    string s2 (which can be different from call to call).  First call 
....................    starts at beginning of s1 searching for first character NOT 
....................    contained in s2; returns 0 if none is found. 
....................    If one is found, it is the start of first token (return value). 
....................    Function then searches from there for a character contained in s2. 
....................    If none is found, current token extends to end of s1, and subsequent 
....................    searches for a token will return 0.  If one is found, it is 
....................    overwritten by '\0', which terminates current token.  Function saves 
....................    pointer to following character from which next search will start. 
....................    Each subsequent call, with 0 as first argument, starts searching 
....................    from saved pointer */ 
....................  
.................... char *strtok(char *s1, char *s2) 
.................... { 
....................    char *beg, *end; 
....................    static char *save; 
....................  
....................    beg = (s1)? s1: save; 
....................    beg += strspn(beg, s2); 
....................    if (*beg == '\0') 
....................    { 
....................       *save = ' '; 
....................       return(0); 
....................    } 
....................    end = strpbrk(beg, s2); 
....................    if (*end != '\0') 
....................    { 
....................       *end = '\0'; 
....................       end++; 
....................    } 
....................    save = end; 
....................    return(beg); 
.................... } 
....................  
.................... /*****************************************************************/ 
.................... /*Miscellaneous functions*/ 
.................... /* standard template 
.................... maps error number in errnum to an error message string 
.................... Returns: Pointer to string 
.................... */ 
.................... #ifdef _ERRNO 
.................... char * strerror(unsigned int8 errnum) 
.................... { 
.................... char s[15]; 
.................... switch( errnum) 
.................... { 
.................... case 0: 
....................    strcpy(s,"no errors"); 
....................    return s; 
.................... case EDOM : 
....................    strcpy(s,"domain error"); 
....................    return s; 
.................... case ERANGE: 
....................    strcpy(s,"range error"); 
....................    return s; 
.................... } 
.................... } 
.................... #ENDIF 
.................... /* standard template: size_t strlen(const char *s). 
....................    Computes length of s1 (preceding terminating 0) */ 
....................  
.................... unsigned int8 strlen(char *s) 
.................... { 
....................    char *sc; 
....................  
....................    for (sc = s; *sc != 0; sc++); 
....................    return(sc - s); 
.................... } 
....................  
.................... /* standard template: size_t stricmp(const char *s1, const char *s2). 
....................    Compares s1 to s2 ignoring case (upper vs. lower) */ 
....................  
.................... signed int8 stricmp(char *s1, char *s2) 
.................... { 
....................  for(; *s1==*s2||(isalpha(*s1)&&isalpha(*s2)&&(*s1==*s2+32||*s2==*s1+32)); 
....................     s1++, s2++) 
....................     if (*s1 == '\0') 
....................        return(0); 
....................  return((*s1 < *s2) ? -1: 1); 
.................... } 
....................  
....................  
.................... /* standard template: char *strlwr(char *s). 
....................    Replaces uppercase letters by lowercase; 
....................    returns pointer to new string s */ 
....................  
.................... char *strlwr(char *s) 
.................... { 
....................    char *p; 
....................  
....................    for (p = s; *p != '\0'; p++) 
....................       if (*p >= 'A' && *p <='Z') 
....................          *p += 'a' - 'A'; 
....................    return(s); 
.................... } 
....................  
....................  
.................... /************************************************************/ 
....................  
....................  
.................... #endif 
....................  
.................... #include <stdlib.h> 
.................... /////////////////////////////////////////////////////////////////////////// 
.................... ////        (C) Copyright 1996,2007 Custom Computer Services           //// 
.................... //// This source code may only be used by licensed users of the CCS C  //// 
.................... //// compiler.  This source code may only be distributed to other      //// 
.................... //// licensed users of the CCS C compiler.  No other use, reproduction //// 
.................... //// or distribution is permitted without written permission.          //// 
.................... //// Derivative programs created using this software in object code    //// 
.................... //// form are not restricted in any way.                               //// 
.................... /////////////////////////////////////////////////////////////////////////// 
....................  
.................... #ifndef _STDLIB 
.................... #define _STDLIB 
....................  
.................... //--------------------------------------------------------------------------- 
.................... // Definitions and types 
.................... //--------------------------------------------------------------------------- 
....................  
.................... #ifndef RAND_MAX 
.................... #define RAND_MAX  32767    // The value of which is the maximum value 
....................                            // ... returned by the rand function 
.................... #endif 
....................  
....................  
.................... #IF (sizeof(int16*)>1) 
.................... #DEFINE LONG_POINTERS 1 
.................... #ELSE  
.................... #DEFINE LONG_POINTERS 0 
.................... #ENDIF 
....................  
.................... typedef struct { 
....................    signed int quot; 
....................    signed int rem; 
.................... } div_t; 
....................  
.................... typedef struct { 
....................    signed long quot; 
....................    signed long rem; 
.................... } ldiv_t; 
....................  
.................... #include <stddef.h> 
.................... /////////////////////////////////////////////////////////////////////////// 
.................... ////        (C) Copyright 1996,2003 Custom Computer Services           //// 
.................... //// This source code may only be used by licensed users of the CCS C  //// 
.................... //// compiler.  This source code may only be distributed to other      //// 
.................... //// licensed users of the CCS C compiler.  No other use, reproduction //// 
.................... //// or distribution is permitted without written permission.          //// 
.................... //// Derivative programs created using this software in object code    //// 
.................... //// form are not restricted in any way.                               //// 
.................... /////////////////////////////////////////////////////////////////////////// 
....................  
.................... #ifndef _STDDEF 
....................  
.................... #define _STDDEF 
....................  
.................... #if sizeof(unsigned int8 *)==1 
.................... #define ptrdiff_t unsigned int8 
.................... #else 
.................... #define ptrdiff_t unsigned int16 
.................... #endif 
....................  
.................... #define size_t unsigned int8 
.................... #define wchar_t char 
.................... #define NULL 0 
....................  
.................... #define offsetof(s,f) (offsetofbit(s,f)/8) 
....................  
.................... #endif 
....................  
....................  
.................... //--------------------------------------------------------------------------- 
.................... // String conversion functions 
.................... //--------------------------------------------------------------------------- 
....................  
.................... /* Standard template: signed int  atoi(char * s) 
....................  * converts the initial portion of the string s to a signed int 
....................  * returns the converted value if any, 0 otherwise 
....................  */ 
.................... signed int atoi(char *s); 
....................  
.................... /* Syntax: signed int32  atoi32(char * s) 
....................    converts the initial portion of the string s to a signed int32 
....................    returns the converted value if any, 0 otherwise*/ 
.................... #if (sizeof(long)==4) 
....................  #define atoi32(s) atol(s) 
.................... #else  
....................  signed int32 atoi32(char *s); 
.................... #endif 
....................  
.................... #if defined(__PCD__) 
.................... // The following functions only work on the 24 bit compiler 
.................... // for the 30F, 33F, 24F and 24H parts 
.................... /* Syntax: signed int48  atoi48(char * s) 
....................    converts the initial portion of the string s to a signed int48 
....................    returns the converted value if any, 0 otherwise*/ 
....................     
.................... signed int48 atoi48(char *s); 
....................  
.................... /* Syntax: signed int64  atoi64(char * s) 
....................    converts the initial portion of the string s to a signed int64 
....................    returns the converted value if any, 0 otherwise*/ 
.................... signed int64 atoi64(char *s); 
.................... #endif 
....................  
.................... /* Syntax: char *  itoa(signed int32 num, int8 base, char * s) 
....................    converts the signed int32 to a string and 
....................    returns the converted value if any, 0 otherwise*/ 
.................... char * itoa(signed int32 num, unsigned int base, char * s); 
....................  
.................... /* Standard template: signed int16  atol(char * s) 
....................  * converts the initial portion of the string s to a signed int16 
....................  * returns the converted value if any, 0 otherwise 
....................  */ 
.................... signed long atol(char *s); 
....................  
.................... /* Standard template: int16 strtoul(char * s,char *endptr,signed int base) 
....................  * converts the initial portion of the string s, represented as an 
....................  * integral value of radix base  to a signed long. 
....................  * Returns the converted value if any, 0 otherwise 
....................  * the final string is returned in the endptr, if endptr is not null 
....................  */ 
.................... signed long strtol(char *s,char *endptr, signed int base); 
....................  
.................... /* Standard template: int16 strtoul(char * s,char *endptr,signed int base) 
....................  * converts the initial portion of the string s, represented as an 
....................  * integral value of radix base to a unsigned long. 
....................  * returns the converted value if any, 0 otherwise 
....................  * the final string is returned in the endptr, if endptr is not null 
....................  */ 
.................... unsigned long strtoul(char *s,char *endptr, signed int base); 
....................  
.................... /* Standart template: float strtof(char * s,char *endptr) 
....................                       float48 strtof48(char *s,char *endptr); 
....................                       float64 strtod(char *s,char *endptr); 
....................  * converts the initial portion of the string s to a float32, float48 or float64, 
....................  * returns the converted value if any, 0 otherwise 
....................  * the final string is returned in the endptr, if endptr is not null                    
.................... */ 
.................... float strtof(char *s,char *endptr); 
.................... #if defined(__PCD__) 
.................... float48 strtof48(char *s,char *endptr); 
.................... float64 strtod(char *s,char *endptr); 
.................... #else 
.................... //provided for compatibility 
.................... #define strtof48(s, e) strtof(s, e) 
.................... #define strtod(s, e) strtof(s, e) 
.................... #endif 
....................  
.................... /* Standard template: float32 atof(char * s) 
....................  * converts the initial portion of the string s to a float. 
....................  * returns the converted value if any, 0 otherwise 
....................  */ 
.................... #define atof(s)   strtof(s, 0) 
....................  
.................... #if defined(__PCD__) 
.................... // The following functions only work on the 24 bit compiler 
.................... // for the 30F, 33F, 24F and 24H parts 
....................  
.................... /* Standard template: float48 atof48(char * s) 
....................  * converts the initial portion of the string s to a float. 
....................  * returns the converted value if any, 0 otherwise 
....................  */ 
.................... #define atof48(s) strtof48(s, 0) 
....................  
.................... /* Standard template: float64 atof64(char * s) 
....................  * converts the initial portion of the string s to a float. 
....................  * returns the converted value if any, 0 otherwise 
....................  */ 
.................... #define atof64(s) strtod(s, 0) 
.................... #endif 
....................  
.................... /* Standard template: float32 atoe(char * s) 
....................  * converts the initial portion of the string s to a float. 
....................  * returns the converted value if any, 0 otherwise 
....................  * also handles E format numbers 
....................  */ 
.................... #if !defined(__PCD__) 
.................... float atoe(char * s); 
.................... #endif 
....................  
.................... #if defined(__PCD__) 
.................... float32 atoe(char * s); 
.................... #endif 
....................  
.................... //--------------------------------------------------------------------------- 
.................... // Pseudo-random sequence generation functions 
.................... //--------------------------------------------------------------------------- 
....................  
.................... /* The rand function computes a sequence of pseudo-random integers in 
....................  * the range 0 to RAND_MAX 
....................  * 
....................  * Parameters: 
....................  *       (none) 
....................  * 
....................  * Returns: 
....................  *       The pseudo-random integer 
....................  */ 
.................... unsigned int16 rand(void); 
....................  
.................... /* The srand function uses the argument as a seed for a new sequence of 
....................  * pseudo-random numbers to be returned by subsequent calls to rand. 
....................  * 
....................  * Parameters: 
....................  *       [in] seed: The seed value to start from. You might need to pass 
....................  * 
....................  * Returns: 
....................  *       (none) 
....................  * 
....................  * Remarks 
....................  *          The srand function sets the starting point for generating 
....................  *       a series of pseudorandom integers. To reinitialize the 
....................  *       generator, use 1 as the seed argument. Any other value for 
....................  *       seed sets the generator to a random starting point. rand 
....................  *       retrieves the pseudorandom numbers that are generated. 
....................  *       Calling rand before any call to srand generates the same 
....................  *       sequence as calling srand with seed passed as 1. 
....................  *          Usually, you need to pass a time here from outer source 
....................  *       so that the numbers will be different every time you run. 
....................  */ 
.................... void srand(unsigned int32 seed); 
....................  
.................... //--------------------------------------------------------------------------- 
.................... // Memory management functions 
.................... //--------------------------------------------------------------------------- 
....................  
.................... // Comming soon 
....................  
.................... //--------------------------------------------------------------------------- 
.................... // Communication with the environment 
.................... //--------------------------------------------------------------------------- 
....................  
.................... /* The function returns 0 always 
....................  */ 
.................... signed int8 system(char *string); 
....................  
.................... //--------------------------------------------------------------------------- 
.................... // Searching and sorting utilities 
.................... //--------------------------------------------------------------------------- 
....................  
.................... /* Performs a binary search of a sorted array.. 
....................  * 
....................  * Parameters: 
....................  *       [in] key: Object to search for 
....................  *       [in] base: Pointer to base of search data 
....................  *       [in] num: Number of elements 
....................  *       [in] width: Width of elements 
....................  *       [in] compare: Function that compares two elements 
....................  * 
....................  * Returns: 
....................  *       bsearch returns a pointer to an occurrence of key in the array pointed 
....................  *       to by base. If key is not found, the function returns NULL. If the 
....................  *       array is not in order or contains duplicate records with identical keys, 
....................  *       the result is unpredictable. 
....................  */ 
.................... //void *bsearch(const void *key, const void *base, size_t num, size_t width, 
.................... //              int (*compare)(const void *, const void *)); 
....................  
.................... /* Performs the shell-metzner sort (not the quick sort algorithm). The contents 
....................  * of the array are sorted into ascending order according to a comparison 
....................  * function pointed to by compar. 
....................  * 
....................  * Parameters: 
....................  *       [in] base: Pointer to base of search data 
....................  *       [in] num: Number of elements 
....................  *       [in] width: Width of elements 
....................  *       [in] compare: Function that compares two elements 
....................  * 
....................  * Returns: 
....................  *       (none) 
....................  */ 
.................... //void *qsort(const void *base, size_t num, size_t width, 
.................... //              int (*compare)(const void *, const void *)); 
....................  
.................... //--------------------------------------------------------------------------- 
.................... // Integer arithmetic functions 
.................... //--------------------------------------------------------------------------- 
....................  
.................... #define labs abs 
....................  
.................... div_t div(signed int numer, signed int denom); 
.................... ldiv_t ldiv(signed long numer, signed long denom); 
....................  
.................... //--------------------------------------------------------------------------- 
.................... // Multibyte character functions 
.................... //--------------------------------------------------------------------------- 
....................  
.................... // Not supported 
....................  
.................... //--------------------------------------------------------------------------- 
.................... // Multibyte string functions 
.................... //--------------------------------------------------------------------------- 
....................  
.................... // Not supported 
....................  
....................  
.................... //--------------------------------------------------------------------------- 
.................... // Internal implementation 
.................... //--------------------------------------------------------------------------- 
....................  
.................... #include <stddef.h> 
.................... /////////////////////////////////////////////////////////////////////////// 
.................... ////        (C) Copyright 1996,2003 Custom Computer Services           //// 
.................... //// This source code may only be used by licensed users of the CCS C  //// 
.................... //// compiler.  This source code may only be distributed to other      //// 
.................... //// licensed users of the CCS C compiler.  No other use, reproduction //// 
.................... //// or distribution is permitted without written permission.          //// 
.................... //// Derivative programs created using this software in object code    //// 
.................... //// form are not restricted in any way.                               //// 
.................... /////////////////////////////////////////////////////////////////////////// 
....................  
.................... #ifndef _STDDEF 
....................  
.................... #define _STDDEF 
....................  
.................... #if sizeof(unsigned int8 *)==1 
.................... #define ptrdiff_t unsigned int8 
.................... #else 
.................... #define ptrdiff_t unsigned int16 
.................... #endif 
....................  
.................... #define size_t unsigned int8 
.................... #define wchar_t char 
.................... #define NULL 0 
....................  
.................... #define offsetof(s,f) (offsetofbit(s,f)/8) 
....................  
.................... #endif 
....................  
.................... #include <string.h> 
.................... //////////////////////////////////////////////////////////////////////////// 
.................... ////        (C) Copyright 1996,2008 Custom Computer Services            //// 
.................... //// This source code may only be used by licensed users of the CCS C   //// 
.................... //// compiler.  This source code may only be distributed to other       //// 
.................... //// licensed users of the CCS C compiler.  No other use, reproduction  //// 
.................... //// or distribution is permitted without written permission.           //// 
.................... //// Derivative programs created using this software in object code     //// 
.................... //// form are not restricted in any way.                                //// 
.................... //////////////////////////////////////////////////////////////////////////// 
....................  
.................... #ifndef _STRING 
.................... #define _STRING 
.................... #include <stddef.h> 
.................... #include <ctype.h> 
....................  
....................  
....................  
.................... ////////////////////////////////////////////// 
.................... //// Uncomment the following define to    //// 
.................... //// allow some functions to use a        //// 
.................... //// quicker algorithm, but use more ROM  //// 
.................... ////                                      //// 
.................... //// #define FASTER_BUT_MORE_ROM          //// 
.................... ////////////////////////////////////////////// 
....................  
....................  
....................  
.................... /*Copying functions*/ 
.................... /* standard template: 
....................    void *memmove(void *s1, void *s2, size_t n). 
....................    Copies max of n characters safely (not following ending '\0') 
....................    from s2 in s1; if s2 has less than n characters, appends 0 */ 
....................  
.................... char *memmove(void *s1,char *s2,size_t n) 
.................... { 
....................    char *sc1; 
....................    char *sc2; 
....................    sc1=s1; 
....................    sc2=s2; 
....................    if(sc2<sc1 && sc1 <sc2 +n) 
....................       for(sc1+=n,sc2+=n;0<n;--n) 
....................          *--sc1=*--sc2; 
....................    else 
....................       for(;0<n;--n) 
....................          *sc1++=*sc2++; 
....................   return s1; 
....................   } 
....................  
.................... /* Standard template: char *strcpy(char *s1, const char *s2) 
....................    copies the string s2 including the null character to s1. 
....................    This is a compiler built in to handle the different address 
....................    spaces */ 
....................  
.................... #define strcopy strcpy 
....................  
.................... /* standard template: 
....................    char *strncpy(char *s1, const char *s2, size_t n). 
....................    Copies max of n characters (not following ending '\0') 
....................    from s2 in s1; if s2 has less than n characters, appends 0 */ 
....................  
.................... char *strncpy(char *s1, char *s2, size_t n) 
.................... { 
....................   char *s; 
....................  
....................   for (s = s1; n > 0 && *s2 != '\0'; n--) 
....................      *s++ = *s2++; 
....................   for (; n > 0; n--) 
....................      *s++ = '\0'; 
....................  
....................   return(s1); 
.................... } 
.................... /***********************************************************/ 
....................  
.................... /*concatenation functions*/ 
.................... /* standard template: char *strcat(char *s1, const char *s2) 
.................... appends s2 to s1*/ 
....................  
.................... char *strcat(char *s1, char *s2) 
.................... { 
....................    char *s; 
....................  
....................    for (s = s1; *s != '\0'; ++s); 
....................    while(*s2 != '\0') 
....................    { 
....................       *s = *s2; 
....................       ++s; 
....................       ++s2; 
....................    } 
....................  
....................    *s = '\0'; 
....................    return(s1); 
.................... } 
.................... /* standard template: char *strncat(char *s1, char *s2,size_t n) 
.................... appends not more than n characters from s2 to s1*/ 
....................  
.................... char *strncat(char *s1, char *s2, size_t n) 
.................... { 
....................    char *s; 
....................  
....................    for (s = s1; *s != '\0'; ++s); 
....................    while(*s2 != '\0' && 0<n) 
....................    { 
....................       *s = *s2; 
....................       ++s; 
....................       ++s2; 
....................       --n; 
....................    } 
....................  
....................    *s = '\0'; 
....................    return(s1); 
.................... } 
....................  
.................... /***********************************************************/ 
....................  
....................  
.................... /*comparison functions*/ 
.................... /* standard template: signed int memcmp(void *s1, void *s2). 
....................    Compares s1 & s2; returns -1 if s1<s2, 0 if s1=s2, 1 if s1>s2 */ 
....................  
.................... signed int8 memcmp(void * s1,char *s2,size_t n) 
.................... { 
.................... char *su1, *su2; 
.................... for(su1=s1, su2=s2; 0<n; ++su1, ++su2, --n) 
.................... { 
....................    if(*su1!=*su2) 
....................       return ((*su1<*su2)?-1:+1); 
.................... } 
.................... return 0; 
.................... } 
....................  
.................... /* standard template: int strcmp(const char *s1, const char *s2). 
....................    Compares s1 & s2; returns -1 if s1<s2, 0 if s1=s2, 1 if s1>s2 */ 
....................  
.................... signed int8 strcmp(char *s1, char *s2) 
.................... { 
....................    for (; *s1 == *s2; s1++, s2++) 
....................       if (*s1 == '\0') 
....................          return(0); 
....................    return((*s1 < *s2) ? -1: 1); 
.................... } 
.................... /* standard template: int strcoll(const char *s1, const char *s2). 
....................    Compares s1 & s2; returns -1 if s1<s2, 0 if s1=s2, 1 if s1>s2 */ 
....................  
.................... signed int8 strcoll(char *s1, char *s2) 
.................... { 
....................    for (; *s1 == *s2; s1++, s2++) 
....................       if (*s1 == '\0') 
....................          return(0); 
....................    return((*s1 < *s2) ? -1: 1); 
.................... } 
....................  
.................... /* standard template: 
....................    int strncmp(const char *s1, const char *s2, size_t n). 
....................    Compares max of n characters (not following 0) from s1 to s2; 
....................    returns same as strcmp */ 
....................  
.................... signed int8 strncmp(char *s1, char *s2, size_t n) 
.................... { 
....................    for (; n > 0; s1++, s2++, n--) 
....................       if (*s1 != *s2) 
....................          return((*s1 <*s2) ? -1: 1); 
....................       else if (*s1 == '\0') 
....................          return(0); 
....................    return(0); 
.................... } 
.................... /* standard template: 
....................    int strxfrm(const char *s1, const char *s2, size_t n). 
....................    transforms maximum of n characters from s2 and places them into s1*/ 
.................... size_t strxfrm(char *s1, char *s2, size_t n) 
.................... { 
....................   char *s; 
....................   unsigned int8 n1; 
....................   n1=n; 
....................   for (s = s1; n > 0 && *s2 != '\0'; n--) 
....................      *s++ = *s2++; 
....................   for (; n > 0; n--) 
....................      *s++ = '\0'; 
....................  
....................   return(n1); 
.................... } 
....................  
....................  
....................  
....................  
....................  
.................... /***********************************************************/ 
.................... /*Search functions*/ 
.................... /* standard template: void *memchr(const char *s, int c). 
....................    Finds first occurrence of c in n characters of s */ 
....................  
.................... char *memchr(void *s,unsigned int8 c,size_t n) 
.................... { 
....................    char uc; 
....................    char *su; 
....................    uc=c; 
....................    for(su=s;0<n;++su,--n) 
....................       if(*su==uc) 
....................       return su; 
....................    return NULL; 
.................... } 
....................  
.................... /* standard template: char *strchr(const char *s, int c). 
....................    Finds first occurrence of c in s */ 
....................  
.................... char *strchr(char *s, unsigned int8 c) 
.................... { 
....................    for (; *s != c; s++) 
....................       if (*s == '\0') 
....................          return(0); 
....................    return(s); 
.................... } 
.................... /* standard template: 
....................    size_t strcspn(const char *s1, const char *s2). 
....................    Computes length of max initial segment of s1 that 
....................    consists entirely of characters NOT from s2*/ 
....................  
.................... unsigned int8  strcspn(char *s1, char *s2) 
.................... { 
....................    char *sc1, *sc2; 
....................  
....................    for (sc1 = s1; *sc1 != 0; sc1++) 
....................       for (sc2 = s2; *sc2 != 0; sc2++) 
....................          if (*sc1 == *sc2) 
....................             return(sc1 - s1); 
....................    return(sc1 - s1); 
.................... } 
.................... /* standard template: 
....................    char *strpbrk(const char *s1, const char *s2). 
....................    Locates first occurence of any character from s2 in s1; 
....................    returns s1 if s2 is empty string */ 
....................  
.................... char *strpbrk(char *s1, char *s2) 
.................... { 
....................    char *sc1, *sc2; 
....................  
....................    for (sc1 = s1; *sc1 != 0; sc1++) 
....................       for (sc2 = s2; *sc2 != 0; sc2++) 
....................          if (*sc1 == *sc2) 
....................             return(sc1); 
....................    return(0); 
.................... } 
....................  
....................  
.................... /* standard template: char *strrchr(const char *s, int c). 
....................    Finds last occurrence of c in s */ 
....................  
.................... char *strrchr(char *s, unsigned int8 c) 
.................... { 
....................    char *p; 
....................  
....................    for (p = 0; ; s++) 
....................    { 
....................       if (*s == c) 
....................          p = s; 
....................       if (*s == '\0') 
....................          return(p); 
....................    } 
.................... } 
.................... /* computes length of max initial segment of s1 consisting 
....................    entirely of characters from s2 */ 
....................  
.................... unsigned int8  strspn(char *s1, char *s2) 
.................... { 
....................    char *sc1, *sc2; 
....................  
....................    for (sc1 = s1; *sc1 != 0; sc1++) 
....................       for (sc2 = s2; ; sc2++) 
....................     if (*sc2 == '\0') 
....................        return(sc1 - s1); 
....................          else if (*sc1 == *sc2) 
....................             break; 
....................    return(sc1 - s1); 
.................... } 
.................... /* standard template: 
....................    char *strstr(const char *s1, const char *s2); 
....................    Locates first occurence of character sequence s2 in s1; 
....................    returns 0 if s2 is empty string 
....................  
....................    Uncomment #define FASTER_BUT_MORE_ROM at the top of the 
....................    file to use the faster algorithm */ 
.................... char *strstr(char *s1, char *s2) 
.................... { 
....................    char *s, *t; 
....................  
....................    #ifdef FASTER_BUT_MORE_ROM 
....................    if (*s2 == '\0') 
....................          return(s1); 
....................    #endif 
....................  
....................    while (*s1) 
....................    { 
....................       for(s = s1, t = s2; *t && (*s == *t); ++s, ++t); 
....................  
....................       if (*t == '\0') 
....................          return s1; 
....................       ++s1; 
....................       #ifdef FASTER_BUT_MORE_ROM 
....................          while(*s1 != '\0' && *s1 != *s2) 
....................             ++s1; 
....................       #endif 
....................    } 
....................    return 0; 
.................... } 
....................  
.................... /* standard template: char *strtok(char *s1, const char *s2). 
....................  
....................    Finds next token in s1 delimited by a character from separator 
....................    string s2 (which can be different from call to call).  First call 
....................    starts at beginning of s1 searching for first character NOT 
....................    contained in s2; returns 0 if none is found. 
....................    If one is found, it is the start of first token (return value). 
....................    Function then searches from there for a character contained in s2. 
....................    If none is found, current token extends to end of s1, and subsequent 
....................    searches for a token will return 0.  If one is found, it is 
....................    overwritten by '\0', which terminates current token.  Function saves 
....................    pointer to following character from which next search will start. 
....................    Each subsequent call, with 0 as first argument, starts searching 
....................    from saved pointer */ 
....................  
.................... char *strtok(char *s1, char *s2) 
.................... { 
....................    char *beg, *end; 
....................    static char *save; 
....................  
....................    beg = (s1)? s1: save; 
....................    beg += strspn(beg, s2); 
....................    if (*beg == '\0') 
....................    { 
....................       *save = ' '; 
....................       return(0); 
....................    } 
....................    end = strpbrk(beg, s2); 
....................    if (*end != '\0') 
....................    { 
....................       *end = '\0'; 
....................       end++; 
....................    } 
....................    save = end; 
....................    return(beg); 
.................... } 
....................  
.................... /*****************************************************************/ 
.................... /*Miscellaneous functions*/ 
.................... /* standard template 
.................... maps error number in errnum to an error message string 
.................... Returns: Pointer to string 
.................... */ 
.................... #ifdef _ERRNO 
.................... char * strerror(unsigned int8 errnum) 
.................... { 
.................... char s[15]; 
.................... switch( errnum) 
.................... { 
.................... case 0: 
....................    strcpy(s,"no errors"); 
....................    return s; 
.................... case EDOM : 
....................    strcpy(s,"domain error"); 
....................    return s; 
.................... case ERANGE: 
....................    strcpy(s,"range error"); 
....................    return s; 
.................... } 
.................... } 
.................... #ENDIF 
.................... /* standard template: size_t strlen(const char *s). 
....................    Computes length of s1 (preceding terminating 0) */ 
....................  
.................... unsigned int8 strlen(char *s) 
.................... { 
....................    char *sc; 
....................  
....................    for (sc = s; *sc != 0; sc++); 
....................    return(sc - s); 
.................... } 
....................  
.................... /* standard template: size_t stricmp(const char *s1, const char *s2). 
....................    Compares s1 to s2 ignoring case (upper vs. lower) */ 
....................  
.................... signed int8 stricmp(char *s1, char *s2) 
.................... { 
....................  for(; *s1==*s2||(isalpha(*s1)&&isalpha(*s2)&&(*s1==*s2+32||*s2==*s1+32)); 
....................     s1++, s2++) 
....................     if (*s1 == '\0') 
....................        return(0); 
....................  return((*s1 < *s2) ? -1: 1); 
.................... } 
....................  
....................  
.................... /* standard template: char *strlwr(char *s). 
....................    Replaces uppercase letters by lowercase; 
....................    returns pointer to new string s */ 
....................  
.................... char *strlwr(char *s) 
.................... { 
....................    char *p; 
....................  
....................    for (p = s; *p != '\0'; p++) 
....................       if (*p >= 'A' && *p <='Z') 
....................          *p += 'a' - 'A'; 
....................    return(s); 
.................... } 
....................  
....................  
.................... /************************************************************/ 
....................  
....................  
.................... #endif 
....................  
....................  
.................... div_t div(signed int numer, signed int denom) 
.................... { 
....................    div_t val; 
....................    val.quot = numer / denom; 
....................    val.rem = numer - (denom * val.quot); 
....................    return (val); 
.................... } 
....................  
.................... ldiv_t ldiv(signed long numer, signed long denom) 
.................... { 
....................    ldiv_t val; 
....................  
....................    val.quot = numer / denom; 
....................    val.rem = numer - (denom * val.quot); 
....................    return (val); 
.................... } 
....................  
.................... #if defined(__PCD__) 
.................... float32 atoe(char * s) 
.................... { 
....................    float32 pow10 = 1.0; 
....................    float32 result = 0.0; 
....................    unsigned int8 sign = 0; 
....................    unsigned int8 expsign = 0; 
....................    char c; 
....................    unsigned int8 ptr = 0; 
....................    unsigned int8 i; 
....................    float32 exp = 1.0; 
....................    unsigned int8 expcnt = 0; 
....................  
....................    c = s[ptr++]; 
....................  
....................    if ((c>='0' && c<='9') || c=='+' || c=='-' || c=='.' || c=='E' || c=='e') { 
....................       if(c == '-') { 
....................          sign = 1; 
....................          c = s[ptr++]; 
....................       } 
....................       if(c == '+') 
....................          c = s[ptr++]; 
....................  
....................       while((c >= '0' && c <= '9')) { 
....................          result = 10*result + c - '0'; 
....................          c = s[ptr++]; 
....................       } 
....................  
....................       if (c == '.') { 
....................          c = s[ptr++]; 
....................          while((c >= '0' && c <= '9')) { 
....................              pow10 = pow10*10; 
....................              result += (c - '0')/pow10; 
....................              c = s[ptr++]; 
....................          } 
....................       } 
....................  
....................       // Handling the exponent 
....................       if (c=='e' || c=='E') { 
....................          c = s[ptr++]; 
....................  
....................          if(c == '-') { 
....................             expsign = 1; 
....................             c = s[ptr++]; 
....................          } 
....................          if(c == '+') 
....................             c = s[ptr++]; 
....................  
....................          while((c >= '0' && c <= '9')) { 
....................             expcnt = 10*expcnt + c - '0'; 
....................             c = s[ptr++]; 
....................          } 
....................  
....................          for(i=0;i<expcnt;i++) 
....................             exp*=10; 
....................  
....................          if(expsign==1) 
....................             result/=exp; 
....................          else 
....................             result*=exp; 
....................       } 
....................    } 
....................  
....................    if (sign == 1) 
....................       result = -1*result; 
....................    return(result); 
.................... } 
.................... #endif 
....................  
.................... #if !defined(__PCD__) 
.................... float atoe(char * s) 
.................... { 
....................    float pow10 = 1.0; 
....................    float result = 0.0; 
....................    unsigned int8 sign = 0; 
....................    unsigned int8 expsign = 0; 
....................    char c; 
....................    unsigned int8 ptr = 0; 
....................    unsigned int8 i; 
....................    float exp = 1.0; 
....................    unsigned int8 expcnt = 0; 
....................  
....................    c = s[ptr++]; 
....................  
....................    if ((c>='0' && c<='9') || c=='+' || c=='-' || c=='.' || c=='E' || c=='e') { 
....................       if(c == '-') { 
....................          sign = 1; 
....................          c = s[ptr++]; 
....................       } 
....................       if(c == '+') 
....................          c = s[ptr++]; 
....................  
....................       while((c >= '0' && c <= '9')) { 
....................          result = 10*result + c - '0'; 
....................          c = s[ptr++]; 
....................       } 
....................  
....................       if (c == '.') { 
....................          c = s[ptr++]; 
....................          while((c >= '0' && c <= '9')) { 
....................              pow10 = pow10*10; 
....................              result += (c - '0')/pow10; 
....................              c = s[ptr++]; 
....................          } 
....................       } 
....................  
....................       // Handling the exponent 
....................       if (c=='e' || c=='E') { 
....................          c = s[ptr++]; 
....................  
....................          if(c == '-') { 
....................             expsign = 1; 
....................             c = s[ptr++]; 
....................          } 
....................          if(c == '+') 
....................             c = s[ptr++]; 
....................  
....................          while((c >= '0' && c <= '9')) { 
....................             expcnt = 10*expcnt + c - '0'; 
....................             c = s[ptr++]; 
....................          } 
....................  
....................          for(i=0;i<expcnt;i++) 
....................             exp*=10; 
....................  
....................          if(expsign==1) 
....................             result/=exp; 
....................          else 
....................             result*=exp; 
....................       } 
....................    } 
....................  
....................    if (sign == 1) 
....................       result = -1*result; 
....................    return(result); 
.................... } 
.................... #endif 
....................  
.................... signed int atoi(char *s) 
.................... { 
....................    signed int result; 
....................    unsigned int sign, base, index; 
....................    char c; 
....................  
....................    index = 0; 
....................    sign = 0; 
....................    base = 10; 
....................    result = 0; 
....................  
....................    if (!s) 
....................       return 0; 
....................    // Omit all preceeding alpha characters 
....................    c = s[index++]; 
....................  
....................    // increase index if either positive or negative sign is detected 
....................    if (c == '-') 
....................    { 
....................       sign = 1;         // Set the sign to negative 
....................       c = s[index++]; 
....................    } 
....................    else if (c == '+') 
....................    { 
....................       c = s[index++]; 
....................    } 
....................  
....................    if (c >= '0' && c <= '9') 
....................    { 
....................  
....................       // Check for hexa number 
....................       if (c == '0' && (s[index] == 'x' || s[index] == 'X')) 
....................       { 
....................          base = 16; 
....................          index++; 
....................          c = s[index++]; 
....................       } 
....................  
....................       // The number is a decimal number 
....................       if (base == 10) 
....................       { 
....................          while (c >= '0' && c <= '9') 
....................          { 
....................             result = 10*result + (c - '0'); 
....................             c = s[index++]; 
....................          } 
....................       } 
....................       else if (base == 16)    // The number is a hexa number 
....................       { 
....................          c = toupper(c); 
....................          while ( (c >= '0' && c <= '9') || (c >= 'A' && c<='F')) 
....................          { 
....................             if (c >= '0' && c <= '9') 
....................                result = (result << 4) + (c - '0'); 
....................             else 
....................                result = (result << 4) + (c - 'A' + 10); 
....................  
....................             c = s[index++]; 
....................             c = toupper(c); 
....................          } 
....................       } 
....................    } 
....................  
....................    if (sign == 1 && base == 10) 
....................        result = -result; 
....................  
....................    return(result); 
.................... } 
....................  
.................... signed long atol(char *s) 
.................... { 
....................    signed long result; 
....................    unsigned int sign, base, index; 
....................    char c; 
....................  
....................    index = 0; 
....................    sign = 0; 
....................    base = 10; 
....................    result = 0; 
....................  
....................    if (!s) 
....................       return 0; 
....................    c = s[index++]; 
....................  
....................    // increase index if either positive or negative sign is detected 
....................    if (c == '-') 
....................    { 
....................       sign = 1;         // Set the sign to negative 
....................       c = s[index++]; 
....................    } 
....................    else if (c == '+') 
....................    { 
....................       c = s[index++]; 
....................    } 
....................  
....................    if (c >= '0' && c <= '9') 
....................    { 
....................       if (c == '0' && (s[index] == 'x' || s[index] == 'X')) 
....................       { 
....................          base = 16; 
....................          index++; 
....................          c = s[index++]; 
....................       } 
....................  
....................       // The number is a decimal number 
....................       if (base == 10) 
....................       { 
....................          while (c >= '0' && c <= '9') 
....................          { 
....................             result = 10*result + (c - '0'); 
....................             c = s[index++]; 
....................          } 
....................       } 
....................       else if (base == 16)    // The number is a hexa number 
....................       { 
....................          c = toupper(c); 
....................          while ( (c >= '0' && c <= '9') || (c >= 'A' && c <='F')) 
....................          { 
....................             if (c >= '0' && c <= '9') 
....................                result = (result << 4) + (c - '0'); 
....................             else 
....................                result = (result << 4) + (c - 'A' + 10); 
....................  
....................             c = s[index++];c = toupper(c); 
....................          } 
....................       } 
....................    } 
....................  
....................    if (base == 10 && sign == 1) 
....................       result = -result; 
....................  
....................    return(result); 
.................... } 
....................  
.................... /* A fast routine to multiply by 10 
....................  */ 
.................... signed int32 mult_with10(int32 num) 
.................... { 
....................    return ( (num << 1) + (num << 3) ); 
.................... } 
....................  
.................... #if sizeof(long)==2 
.................... signed int32 atoi32(char *s) 
.................... { 
....................    signed int32 result; 
....................    int8 sign, base, index; 
....................    char c; 
....................  
....................    index = 0; 
....................    sign = 0; 
....................    base = 10; 
....................    result = 0; 
....................  
....................    if (!s) 
....................       return 0; 
....................    c = s[index++]; 
....................  
....................    // increase index if either positive or negative sign is detected 
....................    if (c == '-') 
....................    { 
....................       sign = 1;         // Set the sign to negative 
....................       c = s[index++]; 
....................    } 
....................    else if (c == '+') 
....................    { 
....................       c = s[index++]; 
....................    } 
....................  
....................    if (c >= '0' && c <= '9') 
....................    { 
....................       if (c == '0' && (s[index] == 'x' || s[index] == 'X')) 
....................       { 
....................          base = 16; 
....................          index++; 
....................          c = s[index++]; 
....................       } 
....................  
....................       // The number is a decimal number 
....................       if (base == 10) 
....................       { 
....................          while (c >= '0' && c <= '9') { 
....................             result = (result << 1) + (result << 3);  // result *= 10; 
....................             result += (c - '0'); 
....................             c = s[index++]; 
....................          } 
....................       } 
....................       else if (base == 16)    // The number is a hexa number 
....................       { 
....................          c = toupper(c); 
....................          while ((c >= '0' && c <= '9') || (c >= 'A' && c <='F')) 
....................          { 
....................             if (c >= '0' && c <= '9') 
....................                result = (result << 4) + (c - '0'); 
....................             else 
....................                result = (result << 4) + (c - 'A' + 10); 
....................  
....................             c = s[index++];c = toupper(c); 
....................          } 
....................       } 
....................    } 
....................  
....................    if (base == 10 && sign == 1) 
....................       result = -result; 
....................  
....................    return(result); 
.................... } 
.................... #endif 
....................  
.................... #if defined(__PCD__) 
....................  
.................... signed int48 atoi48(char *s) 
.................... { 
....................    signed int48 result; 
....................    int8 sign, base, index; 
....................    char c; 
....................  
....................    index = 0; 
....................    sign = 0; 
....................    base = 10; 
....................    result = 0; 
....................  
....................    if (!s) 
....................       return 0; 
....................    c = s[index++]; 
....................  
....................    // increase index if either positive or negative sign is detected 
....................    if (c == '-') 
....................    { 
....................       sign = 1;         // Set the sign to negative 
....................       c = s[index++]; 
....................    } 
....................    else if (c == '+') 
....................    { 
....................       c = s[index++]; 
....................    } 
....................  
....................    if (c >= '0' && c <= '9') 
....................    { 
....................       if (c == '0' && (s[index] == 'x' || s[index] == 'X')) 
....................       { 
....................          base = 16; 
....................          index++; 
....................          c = s[index++]; 
....................       } 
....................  
....................       // The number is a decimal number 
....................       if (base == 10) 
....................       { 
....................          while (c >= '0' && c <= '9') { 
....................             result = (result << 1) + (result << 3);  // result *= 10; 
....................             result += (c - '0'); 
....................             c = s[index++]; 
....................          } 
....................       } 
....................       else if (base == 16)    // The number is a hexa number 
....................       { 
....................          c = toupper(c); 
....................          while ((c >= '0' && c <= '9') || (c >= 'A' && c <='F')) 
....................          { 
....................             if (c >= '0' && c <= '9') 
....................                result = (result << 4) + (c - '0'); 
....................             else 
....................                result = (result << 4) + (c - 'A' + 10); 
....................  
....................             c = s[index++];c = toupper(c); 
....................          } 
....................       } 
....................    } 
....................  
....................    if (base == 10 && sign == 1) 
....................       result = -result; 
....................  
....................    return(result); 
.................... } 
....................  
.................... signed int64 atoi64(char *s) 
.................... { 
....................    signed int64 result; 
....................    int8 sign, base, index; 
....................    char c; 
....................  
....................    index = 0; 
....................    sign = 0; 
....................    base = 10; 
....................    result = 0; 
....................  
....................    if (!s) 
....................       return 0; 
....................    c = s[index++]; 
....................  
....................    // increase index if either positive or negative sign is detected 
....................    if (c == '-') 
....................    { 
....................       sign = 1;         // Set the sign to negative 
....................       c = s[index++]; 
....................    } 
....................    else if (c == '+') 
....................    { 
....................       c = s[index++]; 
....................    } 
....................  
....................    if (c >= '0' && c <= '9') 
....................    { 
....................       if (c == '0' && (s[index] == 'x' || s[index] == 'X')) 
....................       { 
....................          base = 16; 
....................          index++; 
....................          c = s[index++]; 
....................       } 
....................  
....................       // The number is a decimal number 
....................       if (base == 10) 
....................       { 
....................          while (c >= '0' && c <= '9') { 
....................             result = (result << 1) + (result << 3);  // result *= 10; 
....................             result += (c - '0'); 
....................             c = s[index++]; 
....................          } 
....................       } 
....................       else if (base == 16)    // The number is a hexa number 
....................       { 
....................          c = toupper(c); 
....................          while ((c >= '0' && c <= '9') || (c >= 'A' && c <='F')) 
....................          { 
....................             if (c >= '0' && c <= '9') 
....................                result = (result << 4) + (c - '0'); 
....................             else 
....................                result = (result << 4) + (c - 'A' + 10); 
....................  
....................             c = s[index++];c = toupper(c); 
....................          } 
....................       } 
....................    } 
....................  
....................    if (base == 10 && sign == 1) 
....................       result = -result; 
....................  
....................    return(result); 
.................... } 
.................... #endif 
....................  
.................... char * itoa(signed int32 num, unsigned int base, char * s) 
.................... { 
....................      unsigned int32 temp=1; 
....................      unsigned int8 i,sign=0,cnt=0; 
....................      char c; 
....................  
....................      if(num<0) { 
....................          sign=1;        // Check for negative number 
....................          num*=-1; 
....................      } 
....................  
....................      while(temp>0) { 
....................          temp=(num/base); 
....................          s[cnt]=(num%base)+'0';    // Conversion 
....................  
....................          if(s[cnt]>0x39) 
....................             s[cnt]+=0x7; 
....................  
....................          cnt++; 
....................          num=temp; 
....................      } 
....................  
....................      if(sign==1) { 
....................          s[cnt]=0x2D;      // Negative sign 
....................          cnt++; 
....................      } 
....................  
....................      for(i = 0;i<(int8)(cnt/2);i++) { 
....................  
....................          c=s[i]; 
....................          s[i]=s[cnt-i-1];        // Reverse the number 
....................          s[cnt-i-1]=c; 
....................      } 
....................      s[cnt]='\0';     // End the string 
....................      return s; 
.................... } 
....................  
.................... float strtof(char *s, char *endptr) 
.................... { 
....................    float pow10 = 1.0; 
....................    float result = 0.0; 
....................    int1 skip = 1, sign = 0, point = 0; 
....................    char c; 
....................    unsigned int8 ptr = 0; 
....................  
....................    if (!s) 
....................       return 0; 
....................  
....................    for(c=s[ptr++]; c!=0; c=s[ptr++]) 
....................    { 
....................       if (skip && !isspace(c)) 
....................       { 
....................          skip = 0; 
....................          if (c == '+') 
....................          { 
....................             sign = 0; 
....................             continue; 
....................          }             
....................          else if (c == '-') 
....................          { 
....................             sign = 1; 
....................             continue; 
....................          } 
....................       } 
....................       if (!skip && (c == '.') && !point) 
....................          point = 1; 
....................       else if (!skip && isdigit(c)) 
....................       { 
....................          c -= '0'; 
....................          if (point) 
....................          { 
....................             pow10 = pow10 * 10.0; 
....................             result += (float)c / pow10;    
....................          } 
....................          else 
....................          { 
....................             result = 10.0 * result + (float)c; 
....................          } 
....................       } 
....................       else if (!skip) 
....................          break; 
....................    } 
....................  
....................    if (sign) 
....................       result = -1*result; 
....................        
....................    if(endptr) 
....................    { 
....................       if (ptr) { 
....................          ptr--; 
....................        #IF LONG_POINTERS  
....................          *((long *)endptr)= s+ptr;  
....................        #ELSE 
....................          *((char *)endptr)=s+ptr; 
....................        #ENDIF 
....................       } 
....................       else 
....................       { 
....................       #IF LONG_POINTERS 
....................       *((long *)endptr)= s;  
....................       #ELSE 
....................       *((char *)endptr)=s; 
....................       #ENDIF 
....................       } 
....................    } 
....................  
....................    return(result); 
.................... } 
....................  
.................... #if defined(__PCD__) 
.................... float48 strtof48(char *s, char *endptr) 
.................... { 
....................    float48 pow10 = 1.0; 
....................    float48 result = 0.0; 
....................    int1 skip = 1, sign = 0, point = 0; 
....................    char c; 
....................    unsigned int8 ptr = 0; 
....................  
....................    if (!s) 
....................       return 0; 
....................  
....................    for(c=s[ptr++]; c!=0; c=s[ptr++]) 
....................    { 
....................       if (skip && !isspace(c)) 
....................       { 
....................          skip = 0; 
....................          if (c == '+') 
....................          { 
....................             sign = 0; 
....................             continue; 
....................          }             
....................          else if (c == '-') 
....................          { 
....................             sign = 1; 
....................             continue; 
....................          } 
....................       } 
....................       if (!skip && (c == '.') && !point) 
....................          point = 1; 
....................       else if (!skip && isdigit(c)) 
....................       { 
....................          c -= '0'; 
....................          if (point) 
....................          { 
....................             pow10 = pow10 * 10.0; 
....................             result += (float48)c / pow10;    
....................          } 
....................          else 
....................          { 
....................             result = 10.0 * result + (float48)c; 
....................          } 
....................       } 
....................       else if (!skip) 
....................          break; 
....................    } 
....................  
....................    if (sign) 
....................       result = -1*result; 
....................        
....................    if(endptr) 
....................    { 
....................       if (ptr) { 
....................          ptr--; 
....................        #IF LONG_POINTERS  
....................          *((long *)endptr)= s+ptr;  
....................        #ELSE 
....................          *((char *)endptr)=s+ptr; 
....................        #ENDIF 
....................       } 
....................       else 
....................       { 
....................       #IF LONG_POINTERS 
....................       *((long *)endptr)= s;  
....................       #ELSE 
....................       *((char *)endptr)=s; 
....................       #ENDIF 
....................       } 
....................    } 
....................  
....................    return(result); 
.................... } 
....................  
.................... float64 strtod(char *s, char *endptr) 
.................... { 
....................    float64 pow10 = 1.0; 
....................    float64 result = 0.0; 
....................    int1 skip = 1, sign = 0, point = 0; 
....................    char c; 
....................    unsigned int8 ptr = 0; 
....................  
....................    if (!s) 
....................       return 0; 
....................  
....................    for(c=s[ptr++]; c!=0; c=s[ptr++]) 
....................    { 
....................       if (skip && !isspace(c)) 
....................       { 
....................          skip = 0; 
....................          if (c == '+') 
....................          { 
....................             sign = 0; 
....................             continue; 
....................          }             
....................          else if (c == '-') 
....................          { 
....................             sign = 1; 
....................             continue; 
....................          } 
....................       } 
....................       if (!skip && (c == '.') && !point) 
....................          point = 1; 
....................       else if (!skip && isdigit(c)) 
....................       { 
....................          c -= '0'; 
....................          if (point) 
....................          { 
....................             pow10 = pow10 * 10.0; 
....................             result += (float64)c / pow10;    
....................          } 
....................          else 
....................          { 
....................             result = 10.0 * result + (float64)c; 
....................          } 
....................       } 
....................       else if (!skip) 
....................          break; 
....................    } 
....................  
....................    if (sign) 
....................       result = -1*result; 
....................        
....................    if(endptr) 
....................    { 
....................       if (ptr) { 
....................          ptr--; 
....................        #IF LONG_POINTERS  
....................          *((long *)endptr)= s+ptr;  
....................        #ELSE 
....................          *((char *)endptr)=s+ptr; 
....................        #ENDIF 
....................       } 
....................       else 
....................       { 
....................       #IF LONG_POINTERS 
....................       *((long *)endptr)= s;  
....................       #ELSE 
....................       *((char *)endptr)=s; 
....................       #ENDIF 
....................       } 
....................    } 
....................  
....................    return(result); 
.................... } 
.................... #endif 
....................  
.................... unsigned long strtoul(char *s, char *endptr, signed int base) 
.................... { 
....................    char *sc,*s1,*sd; 
....................    unsigned long x=0; 
....................    char sign; 
....................    char digits[]="0123456789abcdefghijklmnopqstuvwxyz"; 
....................    for(sc=s;isspace(*sc);++sc); 
....................    sign=*sc=='-'||*sc=='+'?*sc++:'+'; 
....................    if(sign=='-' || base <0 || base ==1|| base >36) // invalid base 
....................    goto StrtoulGO; 
....................  
....................    else if (base) 
....................    { 
....................       if(base==16 && *sc =='0'&&(sc[1]=='x' || sc[1]=='X')) 
....................          sc+=2; 
....................       if(base==8 && *sc =='0') 
....................          sc+=1; 
....................       if(base==2 && *sc =='0'&&sc[1]=='b') 
....................          sc+=2; 
....................  
....................    } 
....................    else if(*sc!='0') // base is 0, find base 
....................       base=10; 
....................    else if (sc[1]=='x' || sc[1]=='X') 
....................       base =16,sc+=2; 
....................    else if(sc[1]=='b') 
....................       base=2,sc+=2; 
....................    else 
....................       base=8; 
....................    for (s1=sc;*sc=='0';++sc);// skip leading zeroes 
....................    sd=memchr(digits,tolower(*sc),base); 
....................    for(; sd!=0; ) 
....................    { 
....................       x=x*base+(int16)(sd-digits); 
....................       ++sc; 
....................       sd=memchr(digits,tolower(*sc),base); 
....................    } 
....................    if(s1==sc) 
....................    { 
....................    StrtoulGO: 
....................       if (endptr) 
....................       { 
....................          #IF LONG_POINTERS 
....................          *((long *)endptr)= s;  
....................          #ELSE 
....................          *((char *)endptr)=s; 
....................          #ENDIF 
....................          } 
....................    return 0; 
....................    } 
....................    if (endptr) 
....................    { 
....................          #IF LONG_POINTERS 
....................          *((long *)endptr)= sc;  
....................          #ELSE 
....................          *((char *)endptr)=sc;  
....................          #ENDIF 
....................    } 
....................    return x; 
.................... } 
....................  
....................  
.................... signed long strtol(char *s,char *endptr, signed int base) 
.................... { 
....................    char *sc,*s1,*sd; 
....................    signed long x=0; 
....................    char sign; 
....................    char digits[]="0123456789abcdefghijklmnopqstuvwxyz"; 
....................    for(sc=s;isspace(*sc);++sc); 
....................    sign=*sc=='-'||*sc=='+'?*sc++:'+'; 
....................    if (base <0 || base ==1|| base >36) // invalid base 
....................    goto StrtolGO; 
....................    else if (base) 
....................    { 
....................       if(base==16 && *sc =='0'&&(sc[1]=='x' || sc[1]=='X')) 
....................          sc+=2; 
....................       if(base==8 && *sc =='0') 
....................          sc+=1; 
....................       if(base==2 && *sc =='0'&&sc[1]=='b') 
....................          sc+=2; 
....................  
....................    } 
....................    else if(*sc!='0') // base is 0, find base 
....................       base=10; 
....................    else if (sc[1]=='x' || sc[1]=='X') 
....................       base =16,sc+=2; 
....................    else if(sc[1]=='b') 
....................       base=2,sc+=2; 
....................    else 
....................       base=8; 
....................    for (s1=sc;*sc=='0';++sc);// skip leading zeroes 
....................  
....................    sd=memchr(digits,tolower(*sc),base); 
....................    for(;sd!=0;) 
....................    { 
....................       x=x*base+(int16)(sd-digits); 
....................       ++sc; 
....................       sd=memchr(digits,tolower(*sc),base); 
....................    } 
....................    if(s1==sc) 
....................    { 
....................    StrtolGO: 
....................       if (endptr) 
....................       { 
....................          #IF LONG_POINTERS 
....................          *((long *)endptr)= s;  
....................          #ELSE 
....................          *((char *)endptr)=s; 
....................          #ENDIF 
....................       } 
....................    return 0; 
....................    } 
....................    if(sign=='-') 
....................       x  =-x; 
....................    if (endptr) 
....................    { 
....................         #IF LONG_POINTERS 
....................          *((long *)endptr)= sc;  
....................         #ELSE 
....................         *((char *)endptr)=sc; 
....................         #ENDIF 
....................    } 
....................    return x; 
.................... } 
....................  
.................... signed int8 system(char *string) 
.................... { 
....................    return 0; 
.................... } 
....................  
.................... int8 mblen(char *s,size_t n) 
.................... { 
....................    return strlen(s); 
.................... } 
....................  
.................... int8 mbtowc(wchar_t *pwc,char *s,size_t n) 
.................... { 
....................    *pwc=*s; 
....................    return 1; 
.................... } 
....................  
.................... int8 wctomb(char *s,wchar_t wchar) 
.................... { 
....................    *s=wchar; 
....................    return 1; 
.................... } 
....................  
.................... size_t mbstowcs(wchar_t *pwcs,char *s,size_t n) 
.................... { 
....................    strncpy(pwcs,s,n); 
....................    return strlen(pwcs); 
.................... } 
....................  
.................... size_t wcstombs(char *s,wchar_t *pwcs,size_t n) 
.................... { 
....................    strncpy(s,pwcs,n); 
....................    return strlen(s); 
.................... } 
....................  
.................... //--------------------------------------------------------------------------- 
.................... // The random number implementation 
.................... //--------------------------------------------------------------------------- 
....................  
.................... unsigned int32 _Randseed; 
....................  
.................... unsigned int16 rand(void) 
.................... { 
....................    _Randseed = _Randseed * 1103515245 + 12345; 
....................    return ((unsigned int16)(_Randseed >> 16) % RAND_MAX); 
.................... } 
....................  
.................... void srand(unsigned int32 seed) 
.................... { 
....................    _Randseed = seed; 
.................... } 
....................  
.................... //--------------------------------------------------------------------------- 
.................... // Searching and sorting utilities implementation 
.................... //--------------------------------------------------------------------------- 
....................  
.................... #if !defined(__PCD__) 
.................... typedef signed int8 (*_Cmpfun)(char * p1,char * p2);  
.................... #else  
.................... typedef signed int16 (*_Cmpfun)(char * p1,char * p2);  
.................... #endif 
....................  
....................  
....................  
.................... void qsort(char * qdata, unsigned int qitems, unsigned int qsize, _Cmpfun cmp) { 
....................    unsigned int m,j,i,l; 
....................    int1 done; 
....................    unsigned int8 t[16]; 
....................  
....................    m = qitems/2; 
....................    while( m > 0 ) { 
....................      for(j=0; j<(qitems-m); ++j) { 
....................         i = j; 
....................         do 
....................         { 
....................            done=1; 
....................            l = i+m; 
....................            if( (*cmp)(qdata+i*qsize, qdata+l*qsize) > 0 ) { 
....................               memcpy(t, qdata+i*qsize, qsize); 
....................               memcpy(qdata+i*qsize, qdata+l*qsize, qsize); 
....................               memcpy(qdata+l*qsize, t, qsize); 
....................               if(m <= i) 
....................                 i -= m; 
....................                 done = 0; 
....................            } 
....................         } while(!done); 
....................      } 
....................      m = m/2; 
....................    } 
.................... } 
....................  
....................  
.................... char *bsearch(char *key, char *base, size_t num, size_t width,_Cmpfun cmp) 
.................... { 
....................    char *p, *q; 
....................    size_t n; 
....................    size_t pivot; 
....................    signed int val; 
....................  
....................    p = base; 
....................    n = num; 
....................  
....................    while (n > 0) 
....................    { 
....................       pivot = n >> 1; 
....................       q = p + width * pivot; 
....................  
....................       val = (*cmp)(key, q); 
....................  
....................       if (val < 0) 
....................          n = pivot; 
....................       else if (val == 0) 
....................          return ((char *)q); 
....................       else { 
....................          p = q + width; 
....................          n -= pivot + 1; 
....................       } 
....................    } 
....................  
....................    return NULL;      // There's no match 
.................... } 
....................  
....................  
.................... #endif 
....................  
.................... #include <DS1302.c> 
.................... ////////////////////////////////////////////////////////////////////////// 
.................... ////                               DS1302.C                           //// 
.................... ////                     Driver for Real Time Clock                   //// 
.................... ////                                                                  //// 
.................... ////  rtc_init()                                   Call after power up//// 
.................... ////                                                                  //// 
.................... ////  rtc_set_datetime(day,mth,year,dow,hour,min)  Set the date/time  //// 
.................... ////                                                                  //// 
.................... ////  rtc_get_date(day,mth,year,dow)               Get the date       //// 
.................... ////                                                                  //// 
.................... ////  rtc_get_time(hr,min,sec)                     Get the time       //// 
.................... ////                                                                  //// 
.................... ////  rtc_write_nvr(address,data)                  Write to NVR       //// 
.................... ////                                                                  //// 
.................... ////  data = rtc_read_nvr(address)                 Read from NVR      //// 
.................... ////                                                                  //// 
.................... ////  get_bcd(data)                              Convert data to BCD  //// 
.................... ////                                                                  //// 
.................... ////  rm_bcd(data)                               Convert data to int  //// 
.................... ////                                                                  //// 
.................... ////////////////////////////////////////////////////////////////////////// 
.................... ////        (C) Copyright 1996,2003 Custom Computer Services          //// 
.................... //// This source code may only be used by licensed users of the CCS C //// 
.................... //// compiler.  This source code may only be distributed to other     //// 
.................... //// licensed users of the CCS C compiler.  No other use, reproduction//// 
.................... //// or distribution is permitted without written permission.         //// 
.................... //// Derivative programs created using this software in object code   //// 
.................... //// form are not restricted in any way.                              //// 
.................... ////////////////////////////////////////////////////////////////////////// 
....................  
.................... //#ifndef RTC_SCLK 
....................  
.................... #define RTC_SCLK PIN_D4 
.................... #define RTC_IO   PIN_D5 
.................... #define RTC_RST  PIN_D6 
....................  
.................... //#endif 
....................  
.................... void write_ds1302_byte(BYTE cmd) { 
....................    BYTE i; 
....................  
....................    for(i=0;i<=7;++i) { 
*
036DA:  MOVLB  7
036DC:  CLRF   xBA
036DE:  MOVF   xBA,W
036E0:  SUBLW  07
036E2:  BNC   36FE
....................       output_bit(RTC_IO, shift_right(&cmd,1,0) ); 
036E4:  BCF    FD8.0
036E6:  RRCF   xB9,F
036E8:  BC    36EE
036EA:  BCF    F8C.5
036EC:  BRA    36F0
036EE:  BSF    F8C.5
036F0:  BCF    F95.5
....................       output_high(RTC_SCLK); 
036F2:  BCF    F95.4
036F4:  BSF    F8C.4
....................       output_low(RTC_SCLK); 
036F6:  BCF    F95.4
036F8:  BCF    F8C.4
....................    } 
036FA:  INCF   xBA,F
036FC:  BRA    36DE
.................... } 
036FE:  MOVLB  0
03700:  RETLW  00
....................  
.................... void write_ds1302(BYTE cmd, BYTE data) { 
....................  
....................    output_high(RTC_RST); 
03702:  BCF    F95.6
03704:  BSF    F8C.6
....................    write_ds1302_byte(cmd); 
03706:  MOVFF  7B7,7B9
0370A:  RCALL  36DA
....................    write_ds1302_byte(data); 
0370C:  MOVFF  7B8,7B9
03710:  RCALL  36DA
....................    output_low(RTC_RST); 
03712:  BCF    F95.6
03714:  BCF    F8C.6
.................... } 
03716:  RETLW  00
....................  
.................... BYTE read_ds1302(BYTE cmd) { 
....................    BYTE i,data; 
....................  
....................    output_high(RTC_RST); 
03718:  BCF    F95.6
0371A:  BSF    F8C.6
....................    write_ds1302_byte(cmd); 
0371C:  MOVFF  7B6,7B9
03720:  RCALL  36DA
....................     
....................    input(RTC_IO); 
03722:  BSF    F95.5
....................    delay_us(10); 
03724:  MOVLW  10
03726:  MOVWF  00
03728:  DECFSZ 00,F
0372A:  BRA    3728
0372C:  NOP   
....................           
....................    for(i=0;i<=7;++i) { 
0372E:  MOVLB  7
03730:  CLRF   xB7
03732:  MOVF   xB7,W
03734:  SUBLW  07
03736:  BNC   3762
....................       shift_right(&data,1,input(RTC_IO)); 
03738:  BSF    F95.5
0373A:  BTFSC  F83.5
0373C:  BRA    3742
0373E:  BCF    FD8.0
03740:  BRA    3744
03742:  BSF    FD8.0
03744:  RRCF   xB8,F
....................       output_high(RTC_SCLK); 
03746:  BCF    F95.4
03748:  BSF    F8C.4
....................       delay_us(20); 
0374A:  MOVLW  21
0374C:  MOVWF  00
0374E:  DECFSZ 00,F
03750:  BRA    374E
....................       output_low(RTC_SCLK); 
03752:  BCF    F95.4
03754:  BCF    F8C.4
....................       delay_us(20); 
03756:  MOVLW  21
03758:  MOVWF  00
0375A:  DECFSZ 00,F
0375C:  BRA    375A
....................    } 
0375E:  INCF   xB7,F
03760:  BRA    3732
....................    output_low(RTC_RST); 
03762:  BCF    F95.6
03764:  BCF    F8C.6
....................  
....................    return(data); 
03766:  MOVFF  7B8,01
.................... } 
0376A:  MOVLB  0
0376C:  RETLW  00
....................  
.................... void rtc_init() { 
....................    BYTE x; 
....................    output_low(RTC_RST); 
0376E:  BCF    F95.6
03770:  BCF    F8C.6
....................    delay_us(20); 
03772:  MOVLW  21
03774:  MOVWF  00
03776:  DECFSZ 00,F
03778:  BRA    3776
....................    output_low(RTC_SCLK); 
0377A:  BCF    F95.4
0377C:  BCF    F8C.4
....................    write_ds1302(0x8e,0); 
0377E:  MOVLW  8E
03780:  MOVLB  7
03782:  MOVWF  xB7
03784:  CLRF   xB8
03786:  MOVLB  0
03788:  RCALL  3702
....................    write_ds1302(0x90,0xa4); 
0378A:  MOVLW  90
0378C:  MOVLB  7
0378E:  MOVWF  xB7
03790:  MOVLW  A4
03792:  MOVWF  xB8
03794:  MOVLB  0
03796:  RCALL  3702
....................    x=read_ds1302(0x81); 
03798:  MOVLW  81
0379A:  MOVLB  7
0379C:  MOVWF  xB6
0379E:  MOVLB  0
037A0:  RCALL  3718
037A2:  MOVFF  01,7B0
....................    if((x & 0x80)!=0) 
037A6:  MOVLB  7
037A8:  MOVF   xB0,W
037AA:  ANDLW  80
037AC:  BZ    37BA
....................      write_ds1302(0x80,0); 
037AE:  MOVLW  80
037B0:  MOVWF  xB7
037B2:  CLRF   xB8
037B4:  MOVLB  0
037B6:  RCALL  3702
037B8:  MOVLB  7
.................... } 
037BA:  MOVLB  0
037BC:  GOTO   7D08 (RETURN)
....................  
.................... byte get_bcd(BYTE data) 
.................... { 
....................    byte nibh; 
....................    byte nibl; 
....................  
....................    nibh=data/10; 
*
05BF0:  MOVFF  7B6,7B9
05BF4:  MOVLW  0A
05BF6:  MOVLB  7
05BF8:  MOVWF  xBA
05BFA:  MOVLB  0
05BFC:  RCALL  582C
05BFE:  MOVFF  01,7B7
....................    nibl=data-(nibh*10); 
05C02:  MOVLB  7
05C04:  MOVF   xB7,W
05C06:  MULLW  0A
05C08:  MOVF   FF3,W
05C0A:  SUBWF  xB6,W
05C0C:  MOVWF  xB8
....................  
....................    return((nibh<<4)|nibl); 
05C0E:  SWAPF  xB7,W
05C10:  MOVWF  00
05C12:  MOVLW  F0
05C14:  ANDWF  00,F
05C16:  MOVF   00,W
05C18:  IORWF  xB8,W
05C1A:  MOVWF  01
.................... } 
05C1C:  MOVLB  0
05C1E:  RETLW  00
....................  
.................... byte rm_bcd(BYTE data) 
.................... { 
....................    byte i; 
....................  
....................    i=data; 
*
05158:  MOVFF  7B7,7B8
....................    data=(i>>4)*10; 
0515C:  MOVLB  7
0515E:  SWAPF  xB8,W
05160:  MOVWF  00
05162:  MOVLW  0F
05164:  ANDWF  00,F
05166:  MOVF   00,W
05168:  MULLW  0A
0516A:  MOVFF  FF3,7B7
....................    data=data+(i<<4>>4); 
0516E:  SWAPF  xB8,W
05170:  MOVWF  00
05172:  MOVLW  F0
05174:  ANDWF  00,F
05176:  MOVF   00,W
05178:  SWAPF  00,F
0517A:  MOVLW  0F
0517C:  ANDWF  00,F
0517E:  MOVF   00,W
05180:  ADDWF  xB7,F
....................  
....................    return data; 
05182:  MOVFF  7B7,01
.................... } 
05186:  MOVLB  0
05188:  RETLW  00
....................  
.................... void rtc_set_datetime(BYTE day, BYTE mth, BYTE year, BYTE dow, BYTE hr, BYTE min) { 
....................  
....................    write_ds1302(0x86,get_bcd(day)); 
*
05C20:  MOVFF  7B0,7B6
05C24:  RCALL  5BF0
05C26:  MOVFF  01,7B6
05C2A:  MOVLW  86
05C2C:  MOVLB  7
05C2E:  MOVWF  xB7
05C30:  MOVFF  01,7B8
05C34:  MOVLB  0
05C36:  CALL   3702
....................    write_ds1302(0x88,get_bcd(mth)); 
05C3A:  MOVFF  7B1,7B6
05C3E:  RCALL  5BF0
05C40:  MOVFF  01,7B6
05C44:  MOVLW  88
05C46:  MOVLB  7
05C48:  MOVWF  xB7
05C4A:  MOVFF  01,7B8
05C4E:  MOVLB  0
05C50:  CALL   3702
....................    write_ds1302(0x8c,get_bcd(year)); 
05C54:  MOVFF  7B2,7B6
05C58:  RCALL  5BF0
05C5A:  MOVFF  01,7B6
05C5E:  MOVLW  8C
05C60:  MOVLB  7
05C62:  MOVWF  xB7
05C64:  MOVFF  01,7B8
05C68:  MOVLB  0
05C6A:  CALL   3702
....................    write_ds1302(0x8a,get_bcd(dow)); 
05C6E:  MOVFF  7B3,7B6
05C72:  RCALL  5BF0
05C74:  MOVFF  01,7B6
05C78:  MOVLW  8A
05C7A:  MOVLB  7
05C7C:  MOVWF  xB7
05C7E:  MOVFF  01,7B8
05C82:  MOVLB  0
05C84:  CALL   3702
....................    write_ds1302(0x84,get_bcd(hr)); 
05C88:  MOVFF  7B4,7B6
05C8C:  RCALL  5BF0
05C8E:  MOVFF  01,7B6
05C92:  MOVLW  84
05C94:  MOVLB  7
05C96:  MOVWF  xB7
05C98:  MOVFF  01,7B8
05C9C:  MOVLB  0
05C9E:  CALL   3702
....................    write_ds1302(0x82,get_bcd(min)); 
05CA2:  MOVFF  7B5,7B6
05CA6:  RCALL  5BF0
05CA8:  MOVFF  01,7B6
05CAC:  MOVLW  82
05CAE:  MOVLB  7
05CB0:  MOVWF  xB7
05CB2:  MOVFF  01,7B8
05CB6:  MOVLB  0
05CB8:  CALL   3702
....................    write_ds1302(0x80,get_bcd(0)); 
05CBC:  MOVLB  7
05CBE:  CLRF   xB6
05CC0:  MOVLB  0
05CC2:  RCALL  5BF0
05CC4:  MOVFF  01,7B6
05CC8:  MOVLW  80
05CCA:  MOVLB  7
05CCC:  MOVWF  xB7
05CCE:  MOVFF  01,7B8
05CD2:  MOVLB  0
05CD4:  CALL   3702
.................... } 
05CD8:  GOTO   A052 (RETURN)
....................  
.................... void rtc_get_date(BYTE& day, BYTE& mth, BYTE& year, BYTE& dow) { 
....................    day = rm_bcd(read_ds1302(0x87)); 
*
0522C:  MOVLW  87
0522E:  MOVLB  7
05230:  MOVWF  xB6
05232:  MOVLB  0
05234:  CALL   3718
05238:  MOVFF  01,7B2
0523C:  MOVFF  01,7B7
05240:  RCALL  5158
05242:  MOVFF  01,37D
....................    mth = rm_bcd(read_ds1302(0x89)); 
05246:  MOVLW  89
05248:  MOVLB  7
0524A:  MOVWF  xB6
0524C:  MOVLB  0
0524E:  CALL   3718
05252:  MOVFF  01,7B2
05256:  MOVFF  01,7B7
0525A:  RCALL  5158
0525C:  MOVFF  01,37C
....................    year = rm_bcd(read_ds1302(0x8d)); 
05260:  MOVLW  8D
05262:  MOVLB  7
05264:  MOVWF  xB6
05266:  MOVLB  0
05268:  CALL   3718
0526C:  MOVFF  01,7B2
05270:  MOVFF  01,7B7
05274:  RCALL  5158
05276:  MOVFF  01,37B
....................    dow = rm_bcd(read_ds1302(0x8b)); 
0527A:  MOVLW  8B
0527C:  MOVLB  7
0527E:  MOVWF  xB6
05280:  MOVLB  0
05282:  CALL   3718
05286:  MOVFF  01,7B2
0528A:  MOVFF  01,7B7
0528E:  RCALL  5158
05290:  MOVFF  01,381
.................... } 
....................  
.................... void rtc_get_time(BYTE& hr, BYTE& min, BYTE& sec) { 
....................    hr = rm_bcd(read_ds1302(0x85)); 
05294:  MOVLW  85
05296:  MOVLB  7
05298:  MOVWF  xB6
0529A:  MOVLB  0
0529C:  CALL   3718
052A0:  MOVFF  01,7B2
052A4:  MOVFF  01,7B7
052A8:  RCALL  5158
052AA:  MOVFF  01,37E
....................    min = rm_bcd(read_ds1302(0x83)); 
052AE:  MOVLW  83
052B0:  MOVLB  7
052B2:  MOVWF  xB6
052B4:  MOVLB  0
052B6:  CALL   3718
052BA:  MOVFF  01,7B2
052BE:  MOVFF  01,7B7
052C2:  RCALL  5158
052C4:  MOVFF  01,37F
....................    sec = rm_bcd(read_ds1302(0x81)); 
052C8:  MOVLW  81
052CA:  MOVLB  7
052CC:  MOVWF  xB6
052CE:  MOVLB  0
052D0:  CALL   3718
052D4:  MOVFF  01,7B2
052D8:  MOVFF  01,7B7
052DC:  RCALL  5158
052DE:  MOVFF  01,380
.................... } 
....................  
.................... void rtc_write_nvr(BYTE address, BYTE data) { 
....................    write_ds1302(address|0xc0,data); 
.................... } 
....................  
.................... BYTE rtc_read_nvr(BYTE address) { 
....................     return(read_ds1302(address|0xc1)); 
.................... } 
....................  
.................... #include <24512.c> 
.................... /////////////////////////////////////////////////////////////////////////// 
.................... ////   Library for a 24LC512 serial EEPROM                             //// 
.................... ////                                                                   //// 
.................... ////   init_ext_eeprom();    Call before the other functions are used  //// 
.................... ////                                                                   //// 
.................... ////   write_ext_eeprom(a, d);  Write the byte d to the address a      //// 
.................... ////                                                                   //// 
.................... ////   d = read_ext_eeprom(a);   Read the byte d from the address a    //// 
.................... ////                                                                   //// 
.................... ////   The main program may define eeprom_sda                          //// 
.................... ////   and eeprom_scl to override the defaults below.                  //// 
.................... ////                                                                   //// 
.................... /////////////////////////////////////////////////////////////////////////// 
.................... ////        (C) Copyright 1996,2003 Custom Computer Services           //// 
.................... //// This source code may only be used by licensed users of the CCS C  //// 
.................... //// compiler.  This source code may only be distributed to other      //// 
.................... //// licensed users of the CCS C compiler.  No other use, reproduction //// 
.................... //// or distribution is permitted without written permission.          //// 
.................... //// Derivative programs created using this software in object code    //// 
.................... //// form are not restricted in any way.                               //// 
.................... /////////////////////////////////////////////////////////////////////////// 
....................  
.................... #ifndef EEPROM_SDA 
....................  
.................... #define EEPROM_SDA  PIN_C4 
.................... #define EEPROM_SCL  PIN_C3 
....................  
.................... #endif 
....................  
.................... //#use i2c(master, sda=EEPROM_SDA, scl=EEPROM_SCL) 
....................  
.................... #define EEPROM_ADDRESS long int 
.................... #define EEPROM_SIZE   65535 
....................  
.................... void init_ext_eeprom() 
.................... { 
....................    output_float(EEPROM_SCL); 
....................    output_float(EEPROM_SDA); 
....................  
.................... } 
....................  
.................... void write_ext_eeprom(long int address, BYTE data) 
.................... { 
....................    short int status; 
....................    i2c_start(); 
*
0672E:  BSF    F94.4
06730:  MOVLW  05
06732:  MOVWF  00
06734:  DECFSZ 00,F
06736:  BRA    6734
06738:  BSF    F94.3
0673A:  MOVLW  06
0673C:  MOVWF  00
0673E:  DECFSZ 00,F
06740:  BRA    673E
06742:  BCF    F8B.4
06744:  BCF    F94.4
06746:  MOVLW  05
06748:  MOVWF  00
0674A:  DECFSZ 00,F
0674C:  BRA    674A
0674E:  BCF    F8B.3
06750:  BCF    F94.3
....................    i2c_write(0xa0); 
06752:  MOVLW  A0
06754:  MOVLB  7
06756:  MOVWF  xC4
06758:  MOVLB  0
0675A:  CALL   1F4A
....................    i2c_write(address>>8); 
0675E:  MOVFF  7B8,7BB
06762:  MOVLB  7
06764:  CLRF   xBC
06766:  MOVFF  7B8,7C4
0676A:  MOVLB  0
0676C:  CALL   1F4A
....................    i2c_write(address); 
06770:  MOVFF  7B7,7C4
06774:  CALL   1F4A
....................    i2c_write(data); 
06778:  MOVFF  7B9,7C4
0677C:  CALL   1F4A
....................    i2c_stop(); 
06780:  BCF    F94.4
06782:  NOP   
06784:  BSF    F94.3
06786:  BTFSS  F82.3
06788:  BRA    6786
0678A:  MOVLW  05
0678C:  MOVWF  00
0678E:  DECFSZ 00,F
06790:  BRA    678E
06792:  BRA    6794
06794:  NOP   
06796:  BSF    F94.4
06798:  MOVLW  05
0679A:  MOVWF  00
0679C:  DECFSZ 00,F
0679E:  BRA    679C
....................    i2c_start(); 
067A0:  BSF    F94.4
067A2:  MOVLW  05
067A4:  MOVWF  00
067A6:  DECFSZ 00,F
067A8:  BRA    67A6
067AA:  BSF    F94.3
067AC:  MOVLW  06
067AE:  MOVWF  00
067B0:  DECFSZ 00,F
067B2:  BRA    67B0
067B4:  BCF    F8B.4
067B6:  BCF    F94.4
067B8:  MOVLW  05
067BA:  MOVWF  00
067BC:  DECFSZ 00,F
067BE:  BRA    67BC
067C0:  BCF    F8B.3
067C2:  BCF    F94.3
....................    status=i2c_write(0xa0); 
067C4:  MOVLW  A0
067C6:  MOVLB  7
067C8:  MOVWF  xC4
067CA:  MOVLB  0
067CC:  CALL   1F4A
067D0:  MOVF   01,W
067D2:  MOVLB  7
067D4:  BCF    xBA.0
067D6:  BTFSC  01.0
067D8:  BSF    xBA.0
....................    while(status==1) 
....................    { 
067DA:  BTFSS  xBA.0
067DC:  BRA    681C
....................       i2c_start(); 
067DE:  BSF    F94.4
067E0:  MOVLW  05
067E2:  MOVWF  00
067E4:  DECFSZ 00,F
067E6:  BRA    67E4
067E8:  BSF    F94.3
067EA:  MOVLW  06
067EC:  MOVWF  00
067EE:  DECFSZ 00,F
067F0:  BRA    67EE
067F2:  BTFSS  F82.3
067F4:  BRA    67F2
067F6:  BCF    F8B.4
067F8:  BCF    F94.4
067FA:  MOVLW  05
067FC:  MOVWF  00
067FE:  DECFSZ 00,F
06800:  BRA    67FE
06802:  BCF    F8B.3
06804:  BCF    F94.3
....................       status=i2c_write(0xa0); 
06806:  MOVLW  A0
06808:  MOVWF  xC4
0680A:  MOVLB  0
0680C:  CALL   1F4A
06810:  MOVF   01,W
06812:  MOVLB  7
06814:  BCF    xBA.0
06816:  BTFSC  01.0
06818:  BSF    xBA.0
....................    } 
0681A:  BRA    67DA
....................    i2c_stop(); 
0681C:  BCF    F94.4
0681E:  NOP   
06820:  BSF    F94.3
06822:  BTFSS  F82.3
06824:  BRA    6822
06826:  MOVLW  05
06828:  MOVWF  00
0682A:  DECFSZ 00,F
0682C:  BRA    682A
0682E:  BRA    6830
06830:  NOP   
06832:  BSF    F94.4
06834:  MOVLW  05
06836:  MOVWF  00
06838:  DECFSZ 00,F
0683A:  BRA    6838
.................... } 
0683C:  MOVLB  0
0683E:  RETLW  00
....................  
.................... BYTE read_ext_eeprom(long int address) { 
....................    BYTE data; 
....................    i2c_start(); 
*
0202A:  BSF    F94.4
0202C:  MOVLW  05
0202E:  MOVWF  00
02030:  DECFSZ 00,F
02032:  BRA    2030
02034:  BSF    F94.3
02036:  MOVLW  06
02038:  MOVWF  00
0203A:  DECFSZ 00,F
0203C:  BRA    203A
0203E:  BCF    F8B.4
02040:  BCF    F94.4
02042:  MOVLW  05
02044:  MOVWF  00
02046:  DECFSZ 00,F
02048:  BRA    2046
0204A:  BCF    F8B.3
0204C:  BCF    F94.3
....................    i2c_write(0xa0); 
0204E:  MOVLW  A0
02050:  MOVLB  7
02052:  MOVWF  xC4
02054:  MOVLB  0
02056:  RCALL  1F4A
....................    i2c_write(address>>8); 
02058:  MOVFF  7B6,7B8
0205C:  MOVLB  7
0205E:  CLRF   xB9
02060:  MOVFF  7B6,7C4
02064:  MOVLB  0
02066:  RCALL  1F4A
....................    i2c_write(address); 
02068:  MOVFF  7B5,7C4
0206C:  RCALL  1F4A
....................    i2c_start(); 
0206E:  BSF    F94.4
02070:  MOVLW  05
02072:  MOVWF  00
02074:  DECFSZ 00,F
02076:  BRA    2074
02078:  BSF    F94.3
0207A:  MOVLW  06
0207C:  MOVWF  00
0207E:  DECFSZ 00,F
02080:  BRA    207E
02082:  BTFSS  F82.3
02084:  BRA    2082
02086:  BCF    F8B.4
02088:  BCF    F94.4
0208A:  MOVLW  05
0208C:  MOVWF  00
0208E:  DECFSZ 00,F
02090:  BRA    208E
02092:  BCF    F8B.3
02094:  BCF    F94.3
....................    i2c_write(0xa1); 
02096:  MOVLW  A1
02098:  MOVLB  7
0209A:  MOVWF  xC4
0209C:  MOVLB  0
0209E:  RCALL  1F4A
....................    data=i2c_read(0); 
020A0:  CLRF   00
020A2:  RCALL  1FC0
020A4:  MOVFF  01,7B7
....................    i2c_stop(); 
020A8:  BCF    F94.4
020AA:  NOP   
020AC:  BSF    F94.3
020AE:  BTFSS  F82.3
020B0:  BRA    20AE
020B2:  MOVLW  05
020B4:  MOVWF  00
020B6:  DECFSZ 00,F
020B8:  BRA    20B6
020BA:  BRA    20BC
020BC:  NOP   
020BE:  BSF    F94.4
020C0:  MOVLW  05
020C2:  MOVWF  00
020C4:  DECFSZ 00,F
020C6:  BRA    20C4
....................    return(data); 
020C8:  MOVLB  7
020CA:  MOVFF  7B7,01
.................... } 
020CE:  MOVLB  0
020D0:  RETLW  00
....................  
....................  
.................... //#define   UP            !input(PIN_B0) 
.................... //#define   DOWN          !input(PIN_B1) 
.................... //#define   RIGHT         !input(PIN_B2) 
.................... //#define   LEFT          !input(PIN_B3) 
....................  
.................... #define   UPD            !input(PIN_B0) 
.................... #define   DND            !input(PIN_B1) 
.................... #define   SWBLO          !input(PIN_B2) 
.................... #define   DOORO          !input(PIN_B3) 
.................... #define   TERM           input(PIN_B4) 
.................... #define   STOP           !input(PIN_B5) 
.................... #define   SWBL           !input(PIN_B6) 
.................... #define   DOOR           !input(PIN_B7) 
....................  
.................... //#define   LOW           //input(PIN_A2) 
.................... //#define   HIG           //input(PIN_A3) 
....................  
.................... #define   SSR_on           output_bit(PIN_E1,1) 
.................... #define   SSR_off          output_bit(PIN_E1,0) 
....................  
.................... #define   SSR2_on          output_bit(PIN_E2,1) 
.................... #define   SSR2_off         output_bit(PIN_E2,0) 
....................  
.................... #define   Buzzer_on        output_bit(PIN_D7,1) 
.................... #define   Buzzer_off       output_bit(PIN_D7,0) 
....................  
.................... #define   Paso_on          output_bit(PIN_C0,0) 
.................... #define   Paso_off         output_bit(PIN_C0,1) 
....................  
.................... #define   Desfogue_on      output_bit(PIN_C1,0) 
.................... #define   Desfogue_off     output_bit(PIN_C1,1) 
....................  
.................... #define   Agua_on          output_bit(PIN_C2,0) 
.................... #define   Agua_off         output_bit(PIN_C2,1) 
....................  
.................... #define OFF 0 
.................... #define ON  1 
.................... #define RX_BUFFER_SIZE  10 
.................... char Rx_Buffer[RX_BUFFER_SIZE+1]; 
.................... char Rx_Buffer2[RX_BUFFER_SIZE+1]; 
.................... char RX_Wr_Index=0; 
.................... char RX_Rd_Index=0; 
.................... char RX_Counter=0; 
....................  
.................... #define TX_BUFFER_SIZE  24 
.................... char Tx_Buffer[TX_BUFFER_SIZE+1]; 
.................... char TX_Wr_Index=0; 
.................... char TX_Counter=0; 
.................... //int1 RX_Buffer_Overflow=0; 
....................  
.................... //Comunicacion//------------------------ 
.................... byte SlaveA0Tx[0X20]; 
.................... byte dato=0;            //Contendr la informacin a enviar o recibir 
.................... byte direccion=0;       //Contendr la direccin del esclavo en el bus I2C 
.................... byte posicion=0;        //Contendr la posicin en el buffer de memoria del esclavo donde se almacenar o de donde se recuperar el dato 
....................  
.................... /* Tabla de Modulos, Primera Fila Ao Regular y el siguiente ao Bisiesto 
.................... E   F   M   A   M   J   J   A   S   O   N   D 
.................... 0   3   3   6   1   4   6   2   5   0   3   5 
.................... 0   3   4   0   2   5   0   3   6   1   4   6 
.................... */ 
.................... int8 Regular[12]={0,3,3,6,1,4,6,2,5,0,3,5}; 
.................... int8 Bisiesto[12]={0,3,4,0,2,5,0,3,6,1,4,6}; 
....................  
.................... //Alarmas//--------------------- 
.................... short AlarmaTiempoProlongado=OFF,AlarmaSobreTemperatura=OFF,AlarmaLlenado=OFF,AlarmaTermostato=OFF,AlarmaPuerta=OFF,AlarmaEmergencia=OFF,AlarmaBomba=OFF; 
.................... short AlarmaVacio=OFF,UP=OFF,DOWN=OFF,RIGHT=OFF,LEFT=OFF,flagAbreSecado=0; 
....................  
.................... //Banderas//-------------------- 
.................... short IniciaLlenado=OFF,CalderinLleno=OFF,IniciaCiclo=OFF,Esterilizando=OFF,Secando=OFF,SensadoNivel=OFF,Desfogando=OFF,DesfogueSuave=OFF; 
.................... short EstadoDesfogue=OFF,EstadoAgua=OFF,EstadoSSR=OFF,PruebaEstados=OFF,Ciclo=OFF; 
.................... short Op=OFF,Op2=OFF,Minutos=OFF,Segundos=OFF,GuardaEEPROM=OFF,EstadoPaso=OFF,EstadoBuzzer=OFF,flagAlarma=OFF; 
.................... short flagBuzzer=OFF,flagSilencio=OFF,Finalizo=OFF,AlarmaPresion=OFF,Libre=OFF,purga=OFF,Fugas=OFF,disp_Guarda=OFF,guardaCiclo=OFF; 
.................... short PreCalentamiento=OFF,IniciaVacio=OFF,IniciaVacio2=OFF,EstadoAireBomba=OFF; 
.................... short EstadoVacio=OFF,EstadoAire=OFF,EstadoACierre=OFF,entro=OFF,LOW=OFF,HIG=OFF; 
.................... short SensadoNivelL=OFF,NivelBajo=OFF,flagBombaAgua=OFF,flagBombaAguaOff=OFF,ingreso=0,cerro=OFF,abrio=OFF,flagLiquidos=OFF,pulsoSubir=OFF,pulsoBajar=OFF; 
....................  
.................... //Tiempos//--------------------- 
.................... int16 TiempoCiclo=0,TiempoLlenado=0,TiempoSensadoNivel=0,Tp=0,Tc=0,tBombaAgua=0,tBombaAguaOff=0,NivelSeleccionado=0; 
.................... int8 sEst=0,mEst=0,sSec=0,mSec=0,sEstp=0,mEstp=0,sSecp=0,mSecp=0,j=0,cicloVisto=0,codigoUsuario=0,cicloVisualizado=0,codigoUsuario2=0,codigoUsuarioant=0,NivelDes=0,conteo=0,TTrampa=0; 
....................  
.................... //Control//------------------------ 
.................... float promedio[80]={0.0,0.0,0.0,0.0,0.0,0.0,0.0,0.0,0.0,0.0,0.0,0.0,0.0,0.0,0.0,0.0,0.0,0.0,0.0,0.0,0.0,0.0,0.0,0.0,0.0,0.0,0.0,0.0,0.0,0.0,0.0,0.0,0.0,0.0,0.0,0.0,0.0,0.0,0.0,0.0,0.0,0.0,0.0,0.0,0.0,0.0,0.0,0.0,0.0,0.0,0.0,0.0,0.0,0.0,0.0,0.0,0.0,0.0,0.0,0.0,0.0,0.0,0.0,0.0}; 
.................... float PromPresion[20]={0.0,0.0,0.0,0.0,0.0,0.0,0.0,0.0,0.0,0.0,0.0,0.0,0.0,0.0,0.0,0.0,0.0,0.0,0.0,0.0}; 
.................... float PromPresionp[20]={0.0,0.0,0.0,0.0,0.0,0.0,0.0,0.0,0.0,0.0,0.0,0.0,0.0,0.0,0.0,0.0,0.0,0.0,0.0,0.0}; 
.................... float Gain=141.6,RPT100=0.5; 
.................... float R10=6800; 
.................... float X[2]={0.0,0.0}; 
.................... float promediopresion=0.0,Aumento=0.0,promediopresionp=0.0; 
.................... int8 h=0,l=0,Ajuste=0,Ajusten=0,MediaMovil=20,PantallaPrincipal=0,TipoClave=0,Modulo=0,Tapertura=0; 
.................... float V0=0.0,Pt,Tciclo=10.0,Tpulso=0.0,error=0.0,Prom=0.0,Temperature=0.0,tmp=0.0,Ganancia=25.0,Ganancia2=20.0,desvio=1.0,tmp2=0.0; 
.................... float V1=0.0,Presion=0.0,V2=0.0,Presionp=0.0; 
.................... float Temperatura=0.0,Temperatura2=0.0,K=0.0012858; 
.................... float a=0.0011,b=2.3302,c=-244.0723; 
.................... int8 Integral=0,Derivativo=0,CicloLibre=0; 
....................  
.................... //Varios//-------------------------------- 
.................... int8 CantidadPulsos=4,NivelVacio=25,Pulsos=0,posicionDato=0,codigoAlarma=0,Atmosferica=0,conteoRx=0,comandoRx=0,tAbreSecado=0; 
.................... int16 TiempoVacio=0,tguarda=0,tNivelBajo=0; 
.................... short desfoguelento=0,Lectura=0,Grafica=0; 
.................... short disp_Stop=0,flagTC=0,flagImprime=0,flagImprimir=0; 
.................... int8 Control=0,tiemporecta=0,Controlando=0,ActivaImpresion=1,timpresion=2,CalculoImpresion=0,Inicio=1,Dato_Exitoso=0,Dato2=0; 
.................... int8 Menu=0, MenuAnt=0,MenuAntt=240,i=0,CiclosL=0,CiclosH=0,CicloSeleccionado=0; 
.................... int8 Setpoint=0,Opcion=1,Opcion2=1,tiempo_esterilizacion=0,tiempo_secado=0,tiempoImpresion=0; 
.................... int16 tiempos=0,tiempos2=0,tiempos3=0,tiempoctrl=0,Nivel=0,tinicio=0,PresionCamara=0,PresionPreCamara=0,Ciclos=0; 
.................... int16 tbomba=0,tvacio=0; 
.................... signed int  Password[4]={0,0,0,0};        // Contrasena Almacenada de 4 digitos 
.................... int8 r=0,t=0,r22=0,t2=0,TiempoControl=0; 
.................... int8 y=0,ConteoBuzzer=0,codigoAnt=0,PulsosVacio=0; 
.................... int16 tbuzzer=0,tsilencio=0,t_exhaust=0; 
.................... int8 Year=18,Mes=9,Dia=13,Hora=0,Minuto=0,Segundo=0,dow=0; 
.................... int8 YearTx=0,MesTx=0,DiaTx=0,HoraTx=0,MinutoTx=0,dowTx=0,SetTime=0,Imprime=0; 
.................... signed int8 G1=0,G2=0,sg1=0,sg2=0; 
.................... const char Texto[12][24]={"TEXTIL & INSTRUMENTAL","CAUCHO","LIQUIDOS A","LIQUIDOS B","NO ENVUELTOS 121","ENVUELTO 121", 
.................... "ENVUELTO 134","LIQUIDOS C","SOLIIDOS","DESINFECCION","TEST DE COMPONENTES","HORA Y FECHA"}; 
....................  
.................... //Textil & Instrumental 134C, 5m,15m 
.................... //Prion 134C, 20m,15m 
.................... //Caucho 121C, 25m,15m 
.................... //Contenedores 134C, 5m,25m 
.................... //Rapid 134C, 5m,8m 
....................  
.................... char usuario[20]; 
.................... float TCiclos[7]; 
.................... int16 PcCiclos[7]; 
.................... int16 PpcCiclos[7]; 
.................... int8 horaCiclos[7]; 
.................... int8 minutoCiclos[7]; 
.................... int8 ACiclos[7]; 
.................... int8 diaCiclos=0,mesCiclos=0,yearCiclos=0,usuarioCiclos=0,cicloCiclos=0; 
.................... short estados[30]={0,0,0,0,0,0,0,0,0,0,0,0,0,0,0,0,0,0,0,0,0,0,0,0,0,0,0,0,0,0}; 
....................  
.................... typedef struct{ 
....................    int8 Password[4]; 
.................... }Claves; 
....................  
.................... typedef struct{ 
....................    int8 Temperatura; 
....................    int8 MinutoestH; 
....................    int8 MinutoestL; 
....................    int8 Segundoest; 
....................    int8 Minutosec; 
....................    int8 Segundosec; 
....................    int8 PulsosVacio; 
....................    int8 NivelVacio; 
....................    int8 NivelDesfogue; 
....................    int8 Minutoest; 
.................... }Personalizado; 
....................  
.................... typedef struct{ 
....................    float BN; 
....................    float AN; 
....................    float V0; 
....................    float Pt; 
....................    float RPT100; 
....................    int8 l; 
....................    int8 h; 
....................    float Prom; 
....................    float Temperature; 
....................    int8 Ajuste; 
....................    int8 Ajusten; 
....................    float promedio[80]; 
....................    float Gain; 
.................... }SensorPT100; 
....................  
.................... SensorPT100 Sensor[2]; 
.................... Personalizado CiclosPersonalizados[20]; 
.................... Claves Clave[10]; 
....................  
.................... #include "Funciones.h" 
.................... void BorraBuffer(void){ 
.................... RX_Buffer[0]=0; 
*
054E0:  CLRF   30
.................... RX_Buffer[1]=0; 
054E2:  CLRF   31
.................... RX_Buffer[2]=0; 
054E4:  CLRF   32
.................... RX_Buffer[3]=0; 
054E6:  CLRF   33
.................... RX_Buffer[4]=0; 
054E8:  CLRF   34
.................... RX_Buffer[5]=0; 
054EA:  CLRF   35
.................... RX_Buffer[6]=0; 
054EC:  CLRF   36
.................... RX_Buffer[7]=0; 
054EE:  CLRF   37
.................... RX_Buffer[8]=0; 
054F0:  CLRF   38
.................... RX_Buffer[9]=0; 
054F2:  CLRF   39
....................  
.................... RX_Buffer2[0]=0; 
054F4:  CLRF   3B
.................... RX_Buffer2[1]=0; 
054F6:  CLRF   3C
.................... RX_Buffer2[2]=0; 
054F8:  CLRF   3D
.................... RX_Buffer2[3]=0; 
054FA:  CLRF   3E
.................... RX_Buffer2[4]=0; 
054FC:  CLRF   3F
.................... RX_Buffer2[5]=0; 
054FE:  CLRF   40
.................... RX_Buffer2[6]=0; 
05500:  CLRF   41
.................... RX_Buffer2[7]=0; 
05502:  CLRF   42
.................... RX_Buffer2[8]=0; 
05504:  CLRF   43
.................... RX_Buffer2[9]=0; 
05506:  CLRF   44
....................  
.................... } 
05508:  GOTO   555C (RETURN)
....................  
.................... char bgetc(void){ 
....................    char c; 
....................    while(RX_Counter==0) 
....................       ; 
....................    c=Rx_Buffer2[RX_Rd_Index]; 
....................    if(++RX_Rd_Index>RX_BUFFER_SIZE) 
....................       RX_Rd_Index=0; 
....................    if(RX_Counter) 
....................       RX_Counter--; 
....................    return c; 
.................... } 
....................  
.................... void bputc(char c){ 
....................    char restart=0; 
....................    while(TX_Counter> (TX_BUFFER_SIZE-1)) 
....................       ; 
....................    if(TX_Counter==0) 
....................       restart=1; 
....................    TX_Buffer[TX_Wr_Index++]=c; 
....................    if(TX_Wr_Index>TX_BUFFER_SIZE) 
....................       TX_Wr_Index=0; 
....................     
....................    TX_Counter++; 
....................     
....................    if(restart==1) 
....................       enable_interrupts(int_tbe); 
.................... } 
....................  
.................... void SendDataDisplay(void){ 
.................... delay_us(10); 
*
03E26:  MOVLW  10
03E28:  MOVWF  00
03E2A:  DECFSZ 00,F
03E2C:  BRA    3E2A
03E2E:  NOP   
.................... putc(0xFF); 
03E30:  MOVLW  FF
03E32:  RCALL  3E1E
.................... delay_us(10); 
03E34:  MOVLW  10
03E36:  MOVWF  00
03E38:  DECFSZ 00,F
03E3A:  BRA    3E38
03E3C:  NOP   
.................... putc(0xFF); 
03E3E:  MOVLW  FF
03E40:  RCALL  3E1E
.................... delay_us(10); 
03E42:  MOVLW  10
03E44:  MOVWF  00
03E46:  DECFSZ 00,F
03E48:  BRA    3E46
03E4A:  NOP   
.................... putc(0xFF); 
03E4C:  MOVLW  FF
03E4E:  RCALL  3E1E
.................... delay_us(10); 
03E50:  MOVLW  10
03E52:  MOVWF  00
03E54:  DECFSZ 00,F
03E56:  BRA    3E54
03E58:  NOP   
.................... } 
03E5A:  RETLW  00
....................  
.................... short esBisiesto(int8 year) { 
....................      return ((year % 4 == 0 && year % 100 != 0) || year % 400 == 0); 
*
05B9E:  MOVLB  7
05BA0:  MOVF   xB0,W
05BA2:  ANDLW  03
05BA4:  BNZ   5BB8
05BA6:  MOVFF  7B0,7B9
05BAA:  MOVLW  64
05BAC:  MOVWF  xBA
05BAE:  MOVLB  0
05BB0:  RCALL  582C
05BB2:  MOVF   00,F
05BB4:  BNZ   5BE6
05BB6:  MOVLB  7
05BB8:  CLRF   xB5
05BBA:  MOVFF  7B0,7B4
05BBE:  MOVLW  01
05BC0:  MOVWF  xB7
05BC2:  MOVLW  90
05BC4:  MOVWF  xB6
05BC6:  MOVLB  0
05BC8:  RCALL  5B58
05BCA:  MOVFF  00,7B1
05BCE:  MOVLB  7
05BD0:  MOVFF  03,7B2
05BD4:  MOVF   xB1,F
05BD6:  BNZ   5BE2
05BD8:  MOVF   xB2,F
05BDA:  BTFSS  FD8.2
05BDC:  BRA    5BE2
05BDE:  MOVLB  0
05BE0:  BRA    5BE6
05BE2:  MOVLW  00
05BE4:  BRA    5BEA
05BE6:  MOVLW  01
05BE8:  MOVLB  7
05BEA:  MOVWF  01
.................... } 
05BEC:  MOVLB  0
05BEE:  RETLW  00
....................  
.................... void LimitaDia(){ 
....................    if(MesTx>12) 
*
05CDC:  MOVLB  3
05CDE:  MOVF   x83,W
05CE0:  SUBLW  0C
05CE2:  BC    5CE8
....................       MesTx=10; 
05CE4:  MOVLW  0A
05CE6:  MOVWF  x83
....................    if(DiaTx>31) 
05CE8:  MOVF   x84,W
05CEA:  SUBLW  1F
05CEC:  BC    5CF2
....................       DiaTx=16; 
05CEE:  MOVLW  10
05CF0:  MOVWF  x84
....................    if(YearTx>99) 
05CF2:  MOVF   x82,W
05CF4:  SUBLW  63
05CF6:  BC    5CFC
....................       YearTx=18;    
05CF8:  MOVLW  12
05CFA:  MOVWF  x82
....................    if(HoraTx>24) 
05CFC:  MOVF   x85,W
05CFE:  SUBLW  18
05D00:  BC    5D06
....................       HoraTx=11;       
05D02:  MOVLW  0B
05D04:  MOVWF  x85
....................    if(MinutoTx>59) 
05D06:  MOVF   x86,W
05D08:  SUBLW  3B
05D0A:  BC    5D10
....................       MinutoTx=30;       
05D0C:  MOVLW  1E
05D0E:  MOVWF  x86
....................     
....................       if(MesTx==2){ 
05D10:  MOVF   x83,W
05D12:  SUBLW  02
05D14:  BNZ   5D40
....................          if(esBisiesto(YearTx)){ 
05D16:  MOVFF  382,7B0
05D1A:  MOVLB  0
05D1C:  RCALL  5B9E
05D1E:  MOVF   01,F
05D20:  BZ    5D32
....................             if(DiaTx>29){ 
05D22:  MOVLB  3
05D24:  MOVF   x84,W
05D26:  SUBLW  1D
05D28:  BC    5D2E
....................                DiaTx=29; 
05D2A:  MOVLW  1D
05D2C:  MOVWF  x84
....................             } 
....................          }else{ 
05D2E:  BRA    5D3E
05D30:  MOVLB  0
....................             if(DiaTx>28){ 
05D32:  MOVLB  3
05D34:  MOVF   x84,W
05D36:  SUBLW  1C
05D38:  BC    5D3E
....................                DiaTx=28; 
05D3A:  MOVLW  1C
05D3C:  MOVWF  x84
....................             } 
....................          } 
....................       }else{ 
05D3E:  BRA    5D6A
....................          if(MesTx<=7){ 
05D40:  MOVF   x83,W
05D42:  SUBLW  07
05D44:  BNC   5D58
....................             if(MesTx % 2 ==0){ 
05D46:  MOVF   x83,W
05D48:  ANDLW  01
05D4A:  BNZ   5D56
....................                if(DiaTx>30){ 
05D4C:  MOVF   x84,W
05D4E:  SUBLW  1E
05D50:  BC    5D56
....................                   DiaTx=30;                    
05D52:  MOVLW  1E
05D54:  MOVWF  x84
....................                } 
....................             } 
....................          }else{ 
05D56:  BRA    5D6A
....................             if(MesTx % 2 ==1){ 
05D58:  MOVF   x83,W
05D5A:  ANDLW  01
05D5C:  SUBLW  01
05D5E:  BNZ   5D6A
....................                if(DiaTx>30){ 
05D60:  MOVF   x84,W
05D62:  SUBLW  1E
05D64:  BC    5D6A
....................                   DiaTx=30;  
05D66:  MOVLW  1E
05D68:  MOVWF  x84
....................                } 
....................             } 
....................          } 
....................       } 
.................... } 
05D6A:  MOVLB  0
05D6C:  GOTO   A2E6 (RETURN)
....................  
.................... void ActualizaRecta(){ 
....................    X[y]=Temperature; 
*
06FA4:  MOVLB  3
06FA6:  MOVF   x71,W
06FA8:  MULLW  04
06FAA:  MOVF   FF3,W
06FAC:  CLRF   03
06FAE:  ADDLW  B4
06FB0:  MOVWF  FE9
06FB2:  MOVLW  02
06FB4:  ADDWFC 03,W
06FB6:  MOVWF  FEA
06FB8:  MOVFF  2E9,FEF
06FBC:  MOVFF  2EA,FEC
06FC0:  MOVFF  2EB,FEC
06FC4:  MOVFF  2EC,FEC
....................    y++; 
06FC8:  INCF   x71,F
....................    if(y>=2){ 
06FCA:  MOVF   x71,W
06FCC:  SUBLW  01
06FCE:  BC    700C
....................       y=0; 
06FD0:  CLRF   x71
....................       Aumento=X[1]-X[0]; 
06FD2:  BSF    FD8.1
06FD4:  MOVFF  2BB,7C5
06FD8:  MOVFF  2BA,7C4
06FDC:  MOVFF  2B9,7C3
06FE0:  MOVFF  2B8,7C2
06FE4:  MOVFF  2B7,7C9
06FE8:  MOVFF  2B6,7C8
06FEC:  MOVFF  2B5,7C7
06FF0:  MOVFF  2B4,7C6
06FF4:  MOVLB  0
06FF6:  CALL   2270
06FFA:  MOVFF  03,2C3
06FFE:  MOVFF  02,2C2
07002:  MOVFF  01,2C1
07006:  MOVFF  00,2C0
0700A:  MOVLB  3
....................    } 
.................... } 
0700C:  MOVLB  0
0700E:  GOTO   708A (RETURN)
....................  
.................... // Funcion para conversor analogo-digital 
.................... float sensores(int x){ 
.................... float y;set_adc_channel(x);delay_ms(1);y=read_adc();return (y); 
*
03E80:  MOVLB  7
03E82:  RLCF   xB6,W
03E84:  MOVWF  00
03E86:  RLCF   00,F
03E88:  MOVLW  FC
03E8A:  ANDWF  00,F
03E8C:  MOVFF  00,01
03E90:  MOVF   FC2,W
03E92:  ANDLW  C3
03E94:  IORWF  00,W
03E96:  MOVWF  FC2
03E98:  MOVLW  01
03E9A:  MOVWF  xC0
03E9C:  MOVLB  0
03E9E:  CALL   1E8C
03EA2:  BSF    FC2.1
03EA4:  BTFSC  FC2.1
03EA6:  BRA    3EA4
03EA8:  MOVFF  FC4,7C3
03EAC:  MOVFF  FC3,7C2
03EB0:  MOVLB  0
03EB2:  CALL   1E56
03EB6:  MOVFF  03,7BA
03EBA:  MOVFF  02,7B9
03EBE:  MOVFF  01,7B8
03EC2:  MOVFF  00,7B7
03EC6:  MOVFF  7B7,00
03ECA:  MOVFF  7B8,01
03ECE:  MOVFF  7B9,02
03ED2:  MOVFF  7BA,03
.................... } 
03ED6:  RETLW  00
....................  
.................... float LeerPT100(int8 canal,int media) 
.................... { 
....................    Prom=0.0;  
*
03FCE:  MOVLB  2
03FD0:  CLRF   xE8
03FD2:  CLRF   xE7
03FD4:  CLRF   xE6
03FD6:  CLRF   xE5
....................    Sensor[canal].V0 = sensores(canal);   //Lectura de Divisor de Voltaje de PT100 con resistencia de 6.18k (+-2%) 
03FD8:  MOVLB  7
03FDA:  CLRF   xBB
03FDC:  MOVFF  7B2,7BA
03FE0:  MOVLW  01
03FE2:  MOVWF  xBD
03FE4:  MOVLW  64
03FE6:  MOVWF  xBC
03FE8:  MOVLB  0
03FEA:  CALL   1F28
03FEE:  MOVFF  01,7B4
03FF2:  MOVLW  08
03FF4:  MOVLB  7
03FF6:  ADDWF  01,W
03FF8:  MOVWF  01
03FFA:  MOVLW  00
03FFC:  ADDWFC 02,W
03FFE:  MOVWF  03
04000:  MOVF   01,W
04002:  ADDLW  F8
04004:  MOVWF  01
04006:  MOVLW  03
04008:  ADDWFC 03,F
0400A:  MOVFF  01,7B4
0400E:  MOVFF  03,7B5
04012:  MOVFF  7B2,7B6
04016:  MOVLB  0
04018:  RCALL  3E80
0401A:  MOVFF  7B5,FEA
0401E:  MOVFF  7B4,FE9
04022:  MOVFF  00,FEF
04026:  MOVFF  01,FEC
0402A:  MOVFF  02,FEC
0402E:  MOVFF  03,FEC
....................    Sensor[canal].V0 = Sensor[canal].V0/Sensor[canal].Gain; // Se elimina la ganancia 
04032:  MOVLB  7
04034:  CLRF   xBB
04036:  MOVFF  7B2,7BA
0403A:  MOVLW  01
0403C:  MOVWF  xBD
0403E:  MOVLW  64
04040:  MOVWF  xBC
04042:  MOVLB  0
04044:  CALL   1F28
04048:  MOVFF  01,7B4
0404C:  MOVLW  08
0404E:  MOVLB  7
04050:  ADDWF  01,W
04052:  MOVWF  01
04054:  MOVLW  00
04056:  ADDWFC 02,W
04058:  MOVWF  03
0405A:  MOVF   01,W
0405C:  ADDLW  F8
0405E:  MOVWF  01
04060:  MOVLW  03
04062:  ADDWFC 03,F
04064:  MOVFF  01,7B4
04068:  MOVFF  03,7B5
0406C:  CLRF   xBB
0406E:  MOVFF  7B2,7BA
04072:  MOVLW  01
04074:  MOVWF  xBD
04076:  MOVLW  64
04078:  MOVWF  xBC
0407A:  MOVLB  0
0407C:  CALL   1F28
04080:  MOVFF  01,7B6
04084:  MOVLW  08
04086:  MOVLB  7
04088:  ADDWF  01,W
0408A:  MOVWF  01
0408C:  MOVLW  00
0408E:  ADDWFC 02,W
04090:  MOVWF  03
04092:  MOVF   01,W
04094:  ADDLW  F8
04096:  MOVWF  FE9
04098:  MOVLW  03
0409A:  ADDWFC 03,W
0409C:  MOVWF  FEA
0409E:  MOVFF  FEF,7B6
040A2:  MOVFF  FEC,7B7
040A6:  MOVFF  FEC,7B8
040AA:  MOVFF  FEC,7B9
040AE:  CLRF   xBB
040B0:  MOVFF  7B2,7BA
040B4:  MOVLW  01
040B6:  MOVWF  xBD
040B8:  MOVLW  64
040BA:  MOVWF  xBC
040BC:  MOVLB  0
040BE:  CALL   1F28
040C2:  MOVFF  02,7BB
040C6:  MOVFF  01,7BA
040CA:  MOVLW  60
040CC:  MOVLB  7
040CE:  ADDWF  01,W
040D0:  MOVWF  01
040D2:  MOVLW  01
040D4:  ADDWFC 02,W
040D6:  MOVWF  03
040D8:  MOVF   01,W
040DA:  ADDLW  F8
040DC:  MOVWF  FE9
040DE:  MOVLW  03
040E0:  ADDWFC 03,W
040E2:  MOVWF  FEA
040E4:  MOVFF  FEF,00
040E8:  MOVFF  FEC,01
040EC:  MOVFF  FEC,02
040F0:  MOVFF  FEC,03
040F4:  MOVFF  7B9,7BF
040F8:  MOVFF  7B8,7BE
040FC:  MOVFF  7B7,7BD
04100:  MOVFF  7B6,7BC
04104:  MOVFF  03,7C3
04108:  MOVFF  02,7C2
0410C:  MOVFF  01,7C1
04110:  MOVFF  00,7C0
04114:  MOVLB  0
04116:  CALL   20D2
0411A:  MOVFF  7B5,FEA
0411E:  MOVFF  7B4,FE9
04122:  MOVFF  00,FEF
04126:  MOVFF  01,FEC
0412A:  MOVFF  02,FEC
0412E:  MOVFF  03,FEC
....................    Sensor[canal].V0 = Sensor[canal].V0+14.79; // Se suma voltaje de divisor fijo 
04132:  MOVLB  7
04134:  CLRF   xBB
04136:  MOVFF  7B2,7BA
0413A:  MOVLW  01
0413C:  MOVWF  xBD
0413E:  MOVLW  64
04140:  MOVWF  xBC
04142:  MOVLB  0
04144:  CALL   1F28
04148:  MOVFF  01,7B4
0414C:  MOVLW  08
0414E:  MOVLB  7
04150:  ADDWF  01,W
04152:  MOVWF  01
04154:  MOVLW  00
04156:  ADDWFC 02,W
04158:  MOVWF  03
0415A:  MOVF   01,W
0415C:  ADDLW  F8
0415E:  MOVWF  01
04160:  MOVLW  03
04162:  ADDWFC 03,F
04164:  MOVFF  01,7B4
04168:  MOVFF  03,7B5
0416C:  CLRF   xBB
0416E:  MOVFF  7B2,7BA
04172:  MOVLW  01
04174:  MOVWF  xBD
04176:  MOVLW  64
04178:  MOVWF  xBC
0417A:  MOVLB  0
0417C:  CALL   1F28
04180:  MOVFF  01,7B6
04184:  MOVLW  08
04186:  MOVLB  7
04188:  ADDWF  01,W
0418A:  MOVWF  01
0418C:  MOVLW  00
0418E:  ADDWFC 02,W
04190:  MOVWF  03
04192:  MOVF   01,W
04194:  ADDLW  F8
04196:  MOVWF  FE9
04198:  MOVLW  03
0419A:  ADDWFC 03,W
0419C:  MOVWF  FEA
0419E:  MOVFF  FEF,7B6
041A2:  MOVFF  FEC,7B7
041A6:  MOVFF  FEC,7B8
041AA:  MOVFF  FEC,7B9
041AE:  MOVFF  FEA,7BB
041B2:  MOVFF  FE9,7BA
041B6:  BCF    FD8.1
041B8:  MOVFF  7B9,7C5
041BC:  MOVFF  7B8,7C4
041C0:  MOVFF  7B7,7C3
041C4:  MOVFF  7B6,7C2
041C8:  MOVLW  D7
041CA:  MOVWF  xC9
041CC:  MOVLW  A3
041CE:  MOVWF  xC8
041D0:  MOVLW  6C
041D2:  MOVWF  xC7
041D4:  MOVLW  82
041D6:  MOVWF  xC6
041D8:  MOVLB  0
041DA:  CALL   2270
041DE:  MOVFF  7BB,FEA
041E2:  MOVFF  7BA,FE9
041E6:  MOVFF  7B5,FEA
041EA:  MOVFF  7B4,FE9
041EE:  MOVFF  00,FEF
041F2:  MOVFF  01,FEC
041F6:  MOVFF  02,FEC
041FA:  MOVFF  03,FEC
....................    //Sensor[canal].BN=(Sensor[canal].V0*(R8+R9))+(1023*R9); 
....................    Sensor[canal].Pt = R10/((1023/Sensor[canal].V0)-1); 
041FE:  MOVLB  7
04200:  CLRF   xBB
04202:  MOVFF  7B2,7BA
04206:  MOVLW  01
04208:  MOVWF  xBD
0420A:  MOVLW  64
0420C:  MOVWF  xBC
0420E:  MOVLB  0
04210:  CALL   1F28
04214:  MOVFF  01,7B4
04218:  MOVLW  0C
0421A:  MOVLB  7
0421C:  ADDWF  01,W
0421E:  MOVWF  01
04220:  MOVLW  00
04222:  ADDWFC 02,W
04224:  MOVWF  03
04226:  MOVF   01,W
04228:  ADDLW  F8
0422A:  MOVWF  01
0422C:  MOVLW  03
0422E:  ADDWFC 03,F
04230:  MOVFF  01,7B4
04234:  MOVFF  03,7B5
04238:  CLRF   xBB
0423A:  MOVFF  7B2,7BA
0423E:  MOVLW  01
04240:  MOVWF  xBD
04242:  MOVLW  64
04244:  MOVWF  xBC
04246:  MOVLB  0
04248:  CALL   1F28
0424C:  MOVFF  02,7B7
04250:  MOVFF  01,7B6
04254:  MOVLW  08
04256:  MOVLB  7
04258:  ADDWF  01,W
0425A:  MOVWF  01
0425C:  MOVLW  00
0425E:  ADDWFC 02,W
04260:  MOVWF  03
04262:  MOVF   01,W
04264:  ADDLW  F8
04266:  MOVWF  FE9
04268:  MOVLW  03
0426A:  ADDWFC 03,W
0426C:  MOVWF  FEA
0426E:  MOVFF  FEF,00
04272:  MOVFF  FEC,01
04276:  MOVFF  FEC,02
0427A:  MOVFF  FEC,03
0427E:  CLRF   xBF
04280:  MOVLW  C0
04282:  MOVWF  xBE
04284:  MOVLW  7F
04286:  MOVWF  xBD
04288:  MOVLW  88
0428A:  MOVWF  xBC
0428C:  MOVFF  03,7C3
04290:  MOVFF  02,7C2
04294:  MOVFF  01,7C1
04298:  MOVFF  00,7C0
0429C:  MOVLB  0
0429E:  CALL   20D2
042A2:  MOVFF  00,7B6
042A6:  MOVFF  01,7B7
042AA:  MOVFF  02,7B8
042AE:  MOVFF  03,7B9
042B2:  MOVFF  FEA,7BB
042B6:  MOVFF  FE9,7BA
042BA:  BSF    FD8.1
042BC:  MOVFF  03,7C5
042C0:  MOVFF  02,7C4
042C4:  MOVFF  01,7C3
042C8:  MOVFF  00,7C2
042CC:  MOVLB  7
042CE:  CLRF   xC9
042D0:  CLRF   xC8
042D2:  CLRF   xC7
042D4:  MOVLW  7F
042D6:  MOVWF  xC6
042D8:  MOVLB  0
042DA:  CALL   2270
042DE:  MOVFF  7BB,FEA
042E2:  MOVFF  7BA,FE9
042E6:  MOVFF  2B3,7BF
042EA:  MOVFF  2B2,7BE
042EE:  MOVFF  2B1,7BD
042F2:  MOVFF  2B0,7BC
042F6:  MOVFF  03,7C3
042FA:  MOVFF  02,7C2
042FE:  MOVFF  01,7C1
04302:  MOVFF  00,7C0
04306:  CALL   20D2
0430A:  MOVFF  7B5,FEA
0430E:  MOVFF  7B4,FE9
04312:  MOVFF  00,FEF
04316:  MOVFF  01,FEC
0431A:  MOVFF  02,FEC
0431E:  MOVFF  03,FEC
....................    //Sensor[canal].Pt=Sensor[canal].Pt-Sensor[canal].RPT100; //Ajuste de impedancia de cableado de PT100    
....................              
....................    if(Sensor[canal].l>(media-1)) 
04322:  MOVLB  7
04324:  CLRF   xBB
04326:  MOVFF  7B2,7BA
0432A:  MOVLW  01
0432C:  MOVWF  xBD
0432E:  MOVLW  64
04330:  MOVWF  xBC
04332:  MOVLB  0
04334:  CALL   1F28
04338:  MOVFF  02,7B5
0433C:  MOVFF  01,7B4
04340:  MOVLW  14
04342:  MOVLB  7
04344:  ADDWF  01,W
04346:  MOVWF  01
04348:  MOVLW  00
0434A:  ADDWFC 02,W
0434C:  MOVWF  03
0434E:  MOVF   01,W
04350:  ADDLW  F8
04352:  MOVWF  FE9
04354:  MOVLW  03
04356:  ADDWFC 03,W
04358:  MOVWF  FEA
0435A:  MOVFF  FEF,7B4
0435E:  MOVLW  01
04360:  SUBWF  xB3,W
04362:  SUBWF  xB4,W
04364:  BZ    439C
04366:  BNC   439C
....................    {Sensor[canal].l=0;} 
04368:  CLRF   xBB
0436A:  MOVFF  7B2,7BA
0436E:  MOVLW  01
04370:  MOVWF  xBD
04372:  MOVLW  64
04374:  MOVWF  xBC
04376:  MOVLB  0
04378:  CALL   1F28
0437C:  MOVFF  01,7B4
04380:  MOVLW  14
04382:  MOVLB  7
04384:  ADDWF  01,W
04386:  MOVWF  01
04388:  MOVLW  00
0438A:  ADDWFC 02,W
0438C:  MOVWF  03
0438E:  MOVF   01,W
04390:  ADDLW  F8
04392:  MOVWF  FE9
04394:  MOVLW  03
04396:  ADDWFC 03,W
04398:  MOVWF  FEA
0439A:  CLRF   FEF
....................     
....................    Sensor[canal].promedio[Sensor[canal].l]=Sensor[canal].Pt;Sensor[canal].l++; 
0439C:  CLRF   xBB
0439E:  MOVFF  7B2,7BA
043A2:  MOVLW  01
043A4:  MOVWF  xBD
043A6:  MOVLW  64
043A8:  MOVWF  xBC
043AA:  MOVLB  0
043AC:  CALL   1F28
043B0:  MOVFF  02,7B5
043B4:  MOVFF  01,7B4
043B8:  MOVLW  20
043BA:  MOVLB  7
043BC:  ADDWF  xB4,F
043BE:  MOVLW  00
043C0:  ADDWFC xB5,F
043C2:  CLRF   xBB
043C4:  MOVFF  7B2,7BA
043C8:  MOVLW  01
043CA:  MOVWF  xBD
043CC:  MOVLW  64
043CE:  MOVWF  xBC
043D0:  MOVLB  0
043D2:  CALL   1F28
043D6:  MOVFF  02,7B7
043DA:  MOVFF  01,7B6
043DE:  MOVLW  14
043E0:  MOVLB  7
043E2:  ADDWF  01,W
043E4:  MOVWF  01
043E6:  MOVLW  00
043E8:  ADDWFC 02,W
043EA:  MOVWF  03
043EC:  MOVF   01,W
043EE:  ADDLW  F8
043F0:  MOVWF  FE9
043F2:  MOVLW  03
043F4:  ADDWFC 03,W
043F6:  MOVWF  FEA
043F8:  CLRF   xBB
043FA:  MOVFF  FEF,7BA
043FE:  CLRF   xBD
04400:  MOVLW  04
04402:  MOVWF  xBC
04404:  MOVLB  0
04406:  CALL   1F28
0440A:  MOVFF  02,03
0440E:  MOVF   01,W
04410:  MOVLB  7
04412:  ADDWF  xB4,W
04414:  MOVWF  01
04416:  MOVF   xB5,W
04418:  ADDWFC 03,F
0441A:  MOVF   01,W
0441C:  ADDLW  F8
0441E:  MOVWF  01
04420:  MOVLW  03
04422:  ADDWFC 03,F
04424:  MOVFF  01,7B4
04428:  MOVFF  03,7B5
0442C:  CLRF   xBB
0442E:  MOVFF  7B2,7BA
04432:  MOVLW  01
04434:  MOVWF  xBD
04436:  MOVLW  64
04438:  MOVWF  xBC
0443A:  MOVLB  0
0443C:  CALL   1F28
04440:  MOVFF  02,7B7
04444:  MOVFF  01,7B6
04448:  MOVLW  0C
0444A:  MOVLB  7
0444C:  ADDWF  01,W
0444E:  MOVWF  01
04450:  MOVLW  00
04452:  ADDWFC 02,W
04454:  MOVWF  03
04456:  MOVF   01,W
04458:  ADDLW  F8
0445A:  MOVWF  FE9
0445C:  MOVLW  03
0445E:  ADDWFC 03,W
04460:  MOVWF  FEA
04462:  MOVFF  FEF,00
04466:  MOVFF  FEC,01
0446A:  MOVFF  FEC,02
0446E:  MOVFF  FEC,03
04472:  MOVFF  7B5,FEA
04476:  MOVFF  7B4,FE9
0447A:  MOVFF  00,FEF
0447E:  MOVFF  01,FEC
04482:  MOVFF  02,FEC
04486:  MOVFF  03,FEC
0448A:  CLRF   xBB
0448C:  MOVFF  7B2,7BA
04490:  MOVLW  01
04492:  MOVWF  xBD
04494:  MOVLW  64
04496:  MOVWF  xBC
04498:  MOVLB  0
0449A:  CALL   1F28
0449E:  MOVFF  01,7B4
044A2:  MOVLW  14
044A4:  MOVLB  7
044A6:  ADDWF  01,W
044A8:  MOVWF  01
044AA:  MOVLW  00
044AC:  ADDWFC 02,W
044AE:  MOVWF  03
044B0:  MOVF   01,W
044B2:  ADDLW  F8
044B4:  MOVWF  FE9
044B6:  MOVLW  03
044B8:  ADDWFC 03,W
044BA:  MOVWF  FEA
044BC:  INCF   FEF,F
....................           
....................    for(Sensor[canal].h=0;Sensor[canal].h<media;Sensor[canal].h++) 
044BE:  CLRF   xBB
044C0:  MOVFF  7B2,7BA
044C4:  MOVLW  01
044C6:  MOVWF  xBD
044C8:  MOVLW  64
044CA:  MOVWF  xBC
044CC:  MOVLB  0
044CE:  CALL   1F28
044D2:  MOVFF  02,7B5
044D6:  MOVFF  01,7B4
044DA:  MOVLW  15
044DC:  MOVLB  7
044DE:  ADDWF  01,W
044E0:  MOVWF  01
044E2:  MOVLW  00
044E4:  ADDWFC 02,W
044E6:  MOVWF  03
044E8:  MOVF   01,W
044EA:  ADDLW  F8
044EC:  MOVWF  FE9
044EE:  MOVLW  03
044F0:  ADDWFC 03,W
044F2:  MOVWF  FEA
044F4:  CLRF   FEF
044F6:  CLRF   xBB
044F8:  MOVFF  7B2,7BA
044FC:  MOVLW  01
044FE:  MOVWF  xBD
04500:  MOVLW  64
04502:  MOVWF  xBC
04504:  MOVLB  0
04506:  CALL   1F28
0450A:  MOVFF  02,7B5
0450E:  MOVFF  01,7B4
04512:  MOVLW  15
04514:  MOVLB  7
04516:  ADDWF  01,W
04518:  MOVWF  01
0451A:  MOVLW  00
0451C:  ADDWFC 02,W
0451E:  MOVWF  03
04520:  MOVF   01,W
04522:  ADDLW  F8
04524:  MOVWF  FE9
04526:  MOVLW  03
04528:  ADDWFC 03,W
0452A:  MOVWF  FEA
0452C:  MOVF   xB3,W
0452E:  SUBWF  FEF,W
04530:  BTFSC  FD8.0
04532:  BRA    4652
....................    { 
....................       Prom+=Sensor[canal].promedio[Sensor[canal].h]; 
04534:  CLRF   xBB
04536:  MOVFF  7B2,7BA
0453A:  MOVLW  01
0453C:  MOVWF  xBD
0453E:  MOVLW  64
04540:  MOVWF  xBC
04542:  MOVLB  0
04544:  CALL   1F28
04548:  MOVFF  02,7B5
0454C:  MOVFF  01,7B4
04550:  MOVLW  20
04552:  MOVLB  7
04554:  ADDWF  xB4,F
04556:  MOVLW  00
04558:  ADDWFC xB5,F
0455A:  CLRF   xBB
0455C:  MOVFF  7B2,7BA
04560:  MOVLW  01
04562:  MOVWF  xBD
04564:  MOVLW  64
04566:  MOVWF  xBC
04568:  MOVLB  0
0456A:  CALL   1F28
0456E:  MOVFF  02,7B7
04572:  MOVFF  01,7B6
04576:  MOVLW  15
04578:  MOVLB  7
0457A:  ADDWF  01,W
0457C:  MOVWF  01
0457E:  MOVLW  00
04580:  ADDWFC 02,W
04582:  MOVWF  03
04584:  MOVF   01,W
04586:  ADDLW  F8
04588:  MOVWF  FE9
0458A:  MOVLW  03
0458C:  ADDWFC 03,W
0458E:  MOVWF  FEA
04590:  CLRF   xBB
04592:  MOVFF  FEF,7BA
04596:  CLRF   xBD
04598:  MOVLW  04
0459A:  MOVWF  xBC
0459C:  MOVLB  0
0459E:  CALL   1F28
045A2:  MOVFF  02,03
045A6:  MOVF   01,W
045A8:  MOVLB  7
045AA:  ADDWF  xB4,W
045AC:  MOVWF  01
045AE:  MOVF   xB5,W
045B0:  ADDWFC 03,F
045B2:  MOVF   01,W
045B4:  ADDLW  F8
045B6:  MOVWF  FE9
045B8:  MOVLW  03
045BA:  ADDWFC 03,W
045BC:  MOVWF  FEA
045BE:  MOVFF  FEF,00
045C2:  MOVFF  FEC,01
045C6:  MOVFF  FEC,02
045CA:  MOVFF  FEC,03
045CE:  MOVFF  FEA,7B5
045D2:  MOVFF  FE9,7B4
045D6:  BCF    FD8.1
045D8:  MOVFF  2E8,7C5
045DC:  MOVFF  2E7,7C4
045E0:  MOVFF  2E6,7C3
045E4:  MOVFF  2E5,7C2
045E8:  MOVFF  03,7C9
045EC:  MOVFF  02,7C8
045F0:  MOVFF  01,7C7
045F4:  MOVFF  00,7C6
045F8:  MOVLB  0
045FA:  CALL   2270
045FE:  MOVFF  7B5,FEA
04602:  MOVFF  7B4,FE9
04606:  MOVFF  03,2E8
0460A:  MOVFF  02,2E7
0460E:  MOVFF  01,2E6
04612:  MOVFF  00,2E5
....................    }  
04616:  MOVLB  7
04618:  CLRF   xBB
0461A:  MOVFF  7B2,7BA
0461E:  MOVLW  01
04620:  MOVWF  xBD
04622:  MOVLW  64
04624:  MOVWF  xBC
04626:  MOVLB  0
04628:  CALL   1F28
0462C:  MOVFF  02,7B5
04630:  MOVFF  01,7B4
04634:  MOVLW  15
04636:  MOVLB  7
04638:  ADDWF  01,W
0463A:  MOVWF  01
0463C:  MOVLW  00
0463E:  ADDWFC 02,W
04640:  MOVWF  03
04642:  MOVF   01,W
04644:  ADDLW  F8
04646:  MOVWF  FE9
04648:  MOVLW  03
0464A:  ADDWFC 03,W
0464C:  MOVWF  FEA
0464E:  INCF   FEF,F
04650:  BRA    44F6
....................    Prom=Prom/media;    
04652:  CLRF   xC3
04654:  MOVFF  7B3,7C2
04658:  MOVLB  0
0465A:  CALL   1E56
0465E:  MOVFF  2E8,7BF
04662:  MOVFF  2E7,7BE
04666:  MOVFF  2E6,7BD
0466A:  MOVFF  2E5,7BC
0466E:  MOVFF  03,7C3
04672:  MOVFF  02,7C2
04676:  MOVFF  01,7C1
0467A:  MOVFF  00,7C0
0467E:  CALL   20D2
04682:  MOVFF  03,2E8
04686:  MOVFF  02,2E7
0468A:  MOVFF  01,2E6
0468E:  MOVFF  00,2E5
....................    //Temperature=(Prom-100.0)/(0.385);  // Ecuacin determinada por linealizacin en Matlab. Revisar este polinomio.   
....................    Temperature=((Prom*Prom)*a)+(Prom*b)+c;  // Ecuacin determinada por linealizacin en Matlab. Revisar este polinomio. 
04692:  MOVFF  2E8,7C9
04696:  MOVFF  2E7,7C8
0469A:  MOVFF  2E6,7C7
0469E:  MOVFF  2E5,7C6
046A2:  MOVFF  2E8,7CD
046A6:  MOVFF  2E7,7CC
046AA:  MOVFF  2E6,7CB
046AE:  MOVFF  2E5,7CA
046B2:  RCALL  3ED8
046B4:  MOVFF  00,7B4
046B8:  MOVFF  01,7B5
046BC:  MOVFF  02,7B6
046C0:  MOVFF  03,7B7
046C4:  MOVFF  03,7C9
046C8:  MOVFF  02,7C8
046CC:  MOVFF  01,7C7
046D0:  MOVFF  00,7C6
046D4:  MOVFF  320,7CD
046D8:  MOVFF  31F,7CC
046DC:  MOVFF  31E,7CB
046E0:  MOVFF  31D,7CA
046E4:  CALL   3ED8
046E8:  MOVFF  00,7B4
046EC:  MOVFF  01,7B5
046F0:  MOVFF  02,7B6
046F4:  MOVFF  03,7B7
046F8:  MOVFF  2E8,7C9
046FC:  MOVFF  2E7,7C8
04700:  MOVFF  2E6,7C7
04704:  MOVFF  2E5,7C6
04708:  MOVFF  324,7CD
0470C:  MOVFF  323,7CC
04710:  MOVFF  322,7CB
04714:  MOVFF  321,7CA
04718:  CALL   3ED8
0471C:  BCF    FD8.1
0471E:  MOVFF  7B7,7C5
04722:  MOVFF  7B6,7C4
04726:  MOVFF  7B5,7C3
0472A:  MOVFF  7B4,7C2
0472E:  MOVFF  03,7C9
04732:  MOVFF  02,7C8
04736:  MOVFF  01,7C7
0473A:  MOVFF  00,7C6
0473E:  CALL   2270
04742:  MOVFF  00,7B4
04746:  MOVFF  01,7B5
0474A:  MOVFF  02,7B6
0474E:  MOVFF  03,7B7
04752:  BCF    FD8.1
04754:  MOVFF  03,7C5
04758:  MOVFF  02,7C4
0475C:  MOVFF  01,7C3
04760:  MOVFF  00,7C2
04764:  MOVFF  328,7C9
04768:  MOVFF  327,7C8
0476C:  MOVFF  326,7C7
04770:  MOVFF  325,7C6
04774:  CALL   2270
04778:  MOVFF  03,2EC
0477C:  MOVFF  02,2EB
04780:  MOVFF  01,2EA
04784:  MOVFF  00,2E9
....................    Temperature+=((float)Sensor[canal].Ajuste-(float)Sensor[canal].Ajusten); 
04788:  MOVLB  7
0478A:  CLRF   xBB
0478C:  MOVFF  7B2,7BA
04790:  MOVLW  01
04792:  MOVWF  xBD
04794:  MOVLW  64
04796:  MOVWF  xBC
04798:  MOVLB  0
0479A:  CALL   1F28
0479E:  MOVFF  02,7B5
047A2:  MOVFF  01,7B4
047A6:  MOVLW  1E
047A8:  MOVLB  7
047AA:  ADDWF  01,W
047AC:  MOVWF  01
047AE:  MOVLW  00
047B0:  ADDWFC 02,W
047B2:  MOVWF  03
047B4:  MOVF   01,W
047B6:  ADDLW  F8
047B8:  MOVWF  FE9
047BA:  MOVLW  03
047BC:  ADDWFC 03,W
047BE:  MOVWF  FEA
047C0:  MOVF   FEF,W
047C2:  CLRF   xC3
047C4:  MOVWF  xC2
047C6:  MOVLB  0
047C8:  CALL   1E56
047CC:  MOVFF  00,7B4
047D0:  MOVFF  01,7B5
047D4:  MOVFF  02,7B6
047D8:  MOVFF  03,7B7
047DC:  MOVLB  7
047DE:  CLRF   xBB
047E0:  MOVFF  7B2,7BA
047E4:  MOVLW  01
047E6:  MOVWF  xBD
047E8:  MOVLW  64
047EA:  MOVWF  xBC
047EC:  MOVLB  0
047EE:  CALL   1F28
047F2:  MOVFF  02,7B9
047F6:  MOVFF  01,7B8
047FA:  MOVLW  1F
047FC:  MOVLB  7
047FE:  ADDWF  01,W
04800:  MOVWF  01
04802:  MOVLW  00
04804:  ADDWFC 02,W
04806:  MOVWF  03
04808:  MOVF   01,W
0480A:  ADDLW  F8
0480C:  MOVWF  FE9
0480E:  MOVLW  03
04810:  ADDWFC 03,W
04812:  MOVWF  FEA
04814:  MOVF   FEF,W
04816:  CLRF   xC3
04818:  MOVWF  xC2
0481A:  MOVLB  0
0481C:  CALL   1E56
04820:  MOVFF  FEA,7B9
04824:  MOVFF  FE9,7B8
04828:  BSF    FD8.1
0482A:  MOVFF  7B7,7C5
0482E:  MOVFF  7B6,7C4
04832:  MOVFF  7B5,7C3
04836:  MOVFF  7B4,7C2
0483A:  MOVFF  03,7C9
0483E:  MOVFF  02,7C8
04842:  MOVFF  01,7C7
04846:  MOVFF  00,7C6
0484A:  CALL   2270
0484E:  MOVFF  7B9,FEA
04852:  MOVFF  7B8,FE9
04856:  MOVFF  FEA,7B5
0485A:  MOVFF  FE9,7B4
0485E:  BCF    FD8.1
04860:  MOVFF  2EC,7C5
04864:  MOVFF  2EB,7C4
04868:  MOVFF  2EA,7C3
0486C:  MOVFF  2E9,7C2
04870:  MOVFF  03,7C9
04874:  MOVFF  02,7C8
04878:  MOVFF  01,7C7
0487C:  MOVFF  00,7C6
04880:  CALL   2270
04884:  MOVFF  7B5,FEA
04888:  MOVFF  7B4,FE9
0488C:  MOVFF  03,2EC
04890:  MOVFF  02,2EB
04894:  MOVFF  01,2EA
04898:  MOVFF  00,2E9
....................     
....................    return Temperature; 
0489C:  MOVFF  2E9,00
048A0:  MOVFF  2EA,01
048A4:  MOVFF  2EB,02
048A8:  MOVFF  2EC,03
.................... } 
048AC:  RETLW  00
....................  
.................... float Leer_Sensor_Presion_Camara(int media){ 
....................    promediopresion=0.0; 
048AE:  MOVLB  2
048B0:  CLRF   xBF
048B2:  CLRF   xBE
048B4:  CLRF   xBD
048B6:  CLRF   xBC
....................    V1 = sensores(5);   //Lectura de Divisor de Voltaje de PT100 con resistencia de 1k (+-10%) 
048B8:  MOVLW  05
048BA:  MOVLB  7
048BC:  MOVWF  xB6
048BE:  MOVLB  0
048C0:  CALL   3E80
048C4:  MOVFF  03,304
048C8:  MOVFF  02,303
048CC:  MOVFF  01,302
048D0:  MOVFF  00,301
....................    //V1 = V1*(5.0/1024.0); 
....................    //Presion=(V1-0.2)/(K); 
....................    Presion=(((V1)/1023)-0.04)/K; 
048D4:  MOVFF  304,7BF
048D8:  MOVFF  303,7BE
048DC:  MOVFF  302,7BD
048E0:  MOVFF  301,7BC
048E4:  MOVLB  7
048E6:  CLRF   xC3
048E8:  MOVLW  C0
048EA:  MOVWF  xC2
048EC:  MOVLW  7F
048EE:  MOVWF  xC1
048F0:  MOVLW  88
048F2:  MOVWF  xC0
048F4:  MOVLB  0
048F6:  CALL   20D2
048FA:  MOVFF  00,7B3
048FE:  MOVFF  01,7B4
04902:  MOVFF  02,7B5
04906:  MOVFF  03,7B6
0490A:  BSF    FD8.1
0490C:  MOVFF  03,7C5
04910:  MOVFF  02,7C4
04914:  MOVFF  01,7C3
04918:  MOVFF  00,7C2
0491C:  MOVLW  0A
0491E:  MOVLB  7
04920:  MOVWF  xC9
04922:  MOVLW  D7
04924:  MOVWF  xC8
04926:  MOVLW  23
04928:  MOVWF  xC7
0492A:  MOVLW  7A
0492C:  MOVWF  xC6
0492E:  MOVLB  0
04930:  CALL   2270
04934:  MOVFF  00,7B3
04938:  MOVFF  01,7B4
0493C:  MOVFF  02,7B5
04940:  MOVFF  03,7B6
04944:  MOVFF  03,7BF
04948:  MOVFF  02,7BE
0494C:  MOVFF  01,7BD
04950:  MOVFF  00,7BC
04954:  MOVFF  31C,7C3
04958:  MOVFF  31B,7C2
0495C:  MOVFF  31A,7C1
04960:  MOVFF  319,7C0
04964:  CALL   20D2
04968:  MOVFF  03,308
0496C:  MOVFF  02,307
04970:  MOVFF  01,306
04974:  MOVFF  00,305
....................     
....................    if(Presion<0.0) 
04978:  MOVFF  308,7B9
0497C:  MOVFF  307,7B8
04980:  MOVFF  306,7B7
04984:  MOVFF  305,7B6
04988:  MOVLB  7
0498A:  CLRF   xBD
0498C:  CLRF   xBC
0498E:  CLRF   xBB
04990:  CLRF   xBA
04992:  MOVLB  0
04994:  CALL   24E8
04998:  BNC   49A4
....................       Presion=0.0; 
0499A:  MOVLB  3
0499C:  CLRF   x08
0499E:  CLRF   x07
049A0:  CLRF   x06
049A2:  CLRF   x05
....................     
....................    if(r>media-1) 
049A4:  MOVLW  01
049A6:  MOVLB  7
049A8:  SUBWF  xB2,W
049AA:  MOVLB  3
049AC:  SUBWF  x6C,W
049AE:  BZ    49B4
049B0:  BNC   49B4
....................       r=0; 
049B2:  CLRF   x6C
....................    PromPresion[r]=Presion;r++; 
049B4:  MOVF   x6C,W
049B6:  MULLW  04
049B8:  MOVF   FF3,W
049BA:  CLRF   03
049BC:  ADDLW  08
049BE:  MOVWF  FE9
049C0:  MOVLW  02
049C2:  ADDWFC 03,W
049C4:  MOVWF  FEA
049C6:  MOVFF  305,FEF
049CA:  MOVFF  306,FEC
049CE:  MOVFF  307,FEC
049D2:  MOVFF  308,FEC
049D6:  INCF   x6C,F
....................           
....................    for(t=0;t<=(media-1);t++) 
049D8:  CLRF   x6D
049DA:  MOVLW  01
049DC:  MOVLB  7
049DE:  SUBWF  xB2,W
049E0:  MOVLB  3
049E2:  SUBWF  x6D,W
049E4:  BZ    49E8
049E6:  BC    4A58
....................       promediopresion+=PromPresion[t]; 
049E8:  MOVF   x6D,W
049EA:  MULLW  04
049EC:  MOVF   FF3,W
049EE:  CLRF   03
049F0:  ADDLW  08
049F2:  MOVWF  FE9
049F4:  MOVLW  02
049F6:  ADDWFC 03,W
049F8:  MOVWF  FEA
049FA:  MOVFF  FEF,00
049FE:  MOVFF  FEC,01
04A02:  MOVFF  FEC,02
04A06:  MOVFF  FEC,03
04A0A:  MOVFF  FEA,7B4
04A0E:  MOVFF  FE9,7B3
04A12:  BCF    FD8.1
04A14:  MOVFF  2BF,7C5
04A18:  MOVFF  2BE,7C4
04A1C:  MOVFF  2BD,7C3
04A20:  MOVFF  2BC,7C2
04A24:  MOVFF  03,7C9
04A28:  MOVFF  02,7C8
04A2C:  MOVFF  01,7C7
04A30:  MOVFF  00,7C6
04A34:  MOVLB  0
04A36:  CALL   2270
04A3A:  MOVFF  7B4,FEA
04A3E:  MOVFF  7B3,FE9
04A42:  MOVFF  03,2BF
04A46:  MOVFF  02,2BE
04A4A:  MOVFF  01,2BD
04A4E:  MOVFF  00,2BC
04A52:  MOVLB  3
04A54:  INCF   x6D,F
04A56:  BRA    49DA
....................      
....................    promediopresion=promediopresion/media;    
04A58:  MOVLB  7
04A5A:  CLRF   xC3
04A5C:  MOVFF  7B2,7C2
04A60:  MOVLB  0
04A62:  CALL   1E56
04A66:  MOVFF  2BF,7BF
04A6A:  MOVFF  2BE,7BE
04A6E:  MOVFF  2BD,7BD
04A72:  MOVFF  2BC,7BC
04A76:  MOVFF  03,7C3
04A7A:  MOVFF  02,7C2
04A7E:  MOVFF  01,7C1
04A82:  MOVFF  00,7C0
04A86:  CALL   20D2
04A8A:  MOVFF  03,2BF
04A8E:  MOVFF  02,2BE
04A92:  MOVFF  01,2BD
04A96:  MOVFF  00,2BC
....................     
....................    return promediopresion; 
04A9A:  MOVFF  2BC,00
04A9E:  MOVFF  2BD,01
04AA2:  MOVFF  2BE,02
04AA6:  MOVFF  2BF,03
.................... } 
04AAA:  RETLW  00
....................  
.................... float Leer_Sensor_Presion_PreCamara(int media){ 
....................    promediopresionp=0.0; 
*
04AE8:  MOVLB  2
04AEA:  CLRF   xC7
04AEC:  CLRF   xC6
04AEE:  CLRF   xC5
04AF0:  CLRF   xC4
....................    V2 = sensores(4);   //Lectura de Divisor de Voltaje de PT100 con resistencia de 1k (+-10%) 
04AF2:  MOVLW  04
04AF4:  MOVLB  7
04AF6:  MOVWF  xB6
04AF8:  MOVLB  0
04AFA:  CALL   3E80
04AFE:  MOVFF  03,30C
04B02:  MOVFF  02,30B
04B06:  MOVFF  01,30A
04B0A:  MOVFF  00,309
....................    //V2 = V2*(5.0/1024.0); 
....................    //Presionp=(V2-0.2)/(K); 
....................    Presionp=(((V2)/1023)-0.04)/K; 
04B0E:  MOVFF  30C,7BF
04B12:  MOVFF  30B,7BE
04B16:  MOVFF  30A,7BD
04B1A:  MOVFF  309,7BC
04B1E:  MOVLB  7
04B20:  CLRF   xC3
04B22:  MOVLW  C0
04B24:  MOVWF  xC2
04B26:  MOVLW  7F
04B28:  MOVWF  xC1
04B2A:  MOVLW  88
04B2C:  MOVWF  xC0
04B2E:  MOVLB  0
04B30:  CALL   20D2
04B34:  MOVFF  00,7B3
04B38:  MOVFF  01,7B4
04B3C:  MOVFF  02,7B5
04B40:  MOVFF  03,7B6
04B44:  BSF    FD8.1
04B46:  MOVFF  03,7C5
04B4A:  MOVFF  02,7C4
04B4E:  MOVFF  01,7C3
04B52:  MOVFF  00,7C2
04B56:  MOVLW  0A
04B58:  MOVLB  7
04B5A:  MOVWF  xC9
04B5C:  MOVLW  D7
04B5E:  MOVWF  xC8
04B60:  MOVLW  23
04B62:  MOVWF  xC7
04B64:  MOVLW  7A
04B66:  MOVWF  xC6
04B68:  MOVLB  0
04B6A:  CALL   2270
04B6E:  MOVFF  00,7B3
04B72:  MOVFF  01,7B4
04B76:  MOVFF  02,7B5
04B7A:  MOVFF  03,7B6
04B7E:  MOVFF  03,7BF
04B82:  MOVFF  02,7BE
04B86:  MOVFF  01,7BD
04B8A:  MOVFF  00,7BC
04B8E:  MOVFF  31C,7C3
04B92:  MOVFF  31B,7C2
04B96:  MOVFF  31A,7C1
04B9A:  MOVFF  319,7C0
04B9E:  CALL   20D2
04BA2:  MOVFF  03,310
04BA6:  MOVFF  02,30F
04BAA:  MOVFF  01,30E
04BAE:  MOVFF  00,30D
....................     
....................    if(Presionp<0.0) 
04BB2:  MOVFF  310,7B9
04BB6:  MOVFF  30F,7B8
04BBA:  MOVFF  30E,7B7
04BBE:  MOVFF  30D,7B6
04BC2:  MOVLB  7
04BC4:  CLRF   xBD
04BC6:  CLRF   xBC
04BC8:  CLRF   xBB
04BCA:  CLRF   xBA
04BCC:  MOVLB  0
04BCE:  CALL   24E8
04BD2:  BNC   4BDE
....................       Presionp=0.0; 
04BD4:  MOVLB  3
04BD6:  CLRF   x10
04BD8:  CLRF   x0F
04BDA:  CLRF   x0E
04BDC:  CLRF   x0D
....................     
....................    if(r22>media-1) 
04BDE:  MOVLW  01
04BE0:  MOVLB  7
04BE2:  SUBWF  xB2,W
04BE4:  MOVLB  3
04BE6:  SUBWF  x6E,W
04BE8:  BZ    4BEE
04BEA:  BNC   4BEE
....................       r22=0; 
04BEC:  CLRF   x6E
....................    PromPresionp[r22]=Presionp;r22++; 
04BEE:  MOVF   x6E,W
04BF0:  MULLW  04
04BF2:  MOVF   FF3,W
04BF4:  CLRF   03
04BF6:  ADDLW  58
04BF8:  MOVWF  FE9
04BFA:  MOVLW  02
04BFC:  ADDWFC 03,W
04BFE:  MOVWF  FEA
04C00:  MOVFF  30D,FEF
04C04:  MOVFF  30E,FEC
04C08:  MOVFF  30F,FEC
04C0C:  MOVFF  310,FEC
04C10:  INCF   x6E,F
....................           
....................    for(t2=0;t2<=(media-1);t2++) 
04C12:  CLRF   x6F
04C14:  MOVLW  01
04C16:  MOVLB  7
04C18:  SUBWF  xB2,W
04C1A:  MOVLB  3
04C1C:  SUBWF  x6F,W
04C1E:  BZ    4C22
04C20:  BC    4C92
....................       promediopresionp+=PromPresionp[t2];  
04C22:  MOVF   x6F,W
04C24:  MULLW  04
04C26:  MOVF   FF3,W
04C28:  CLRF   03
04C2A:  ADDLW  58
04C2C:  MOVWF  FE9
04C2E:  MOVLW  02
04C30:  ADDWFC 03,W
04C32:  MOVWF  FEA
04C34:  MOVFF  FEF,00
04C38:  MOVFF  FEC,01
04C3C:  MOVFF  FEC,02
04C40:  MOVFF  FEC,03
04C44:  MOVFF  FEA,7B4
04C48:  MOVFF  FE9,7B3
04C4C:  BCF    FD8.1
04C4E:  MOVFF  2C7,7C5
04C52:  MOVFF  2C6,7C4
04C56:  MOVFF  2C5,7C3
04C5A:  MOVFF  2C4,7C2
04C5E:  MOVFF  03,7C9
04C62:  MOVFF  02,7C8
04C66:  MOVFF  01,7C7
04C6A:  MOVFF  00,7C6
04C6E:  MOVLB  0
04C70:  CALL   2270
04C74:  MOVFF  7B4,FEA
04C78:  MOVFF  7B3,FE9
04C7C:  MOVFF  03,2C7
04C80:  MOVFF  02,2C6
04C84:  MOVFF  01,2C5
04C88:  MOVFF  00,2C4
04C8C:  MOVLB  3
04C8E:  INCF   x6F,F
04C90:  BRA    4C14
....................        
....................    promediopresionp=promediopresionp/media;    
04C92:  MOVLB  7
04C94:  CLRF   xC3
04C96:  MOVFF  7B2,7C2
04C9A:  MOVLB  0
04C9C:  CALL   1E56
04CA0:  MOVFF  2C7,7BF
04CA4:  MOVFF  2C6,7BE
04CA8:  MOVFF  2C5,7BD
04CAC:  MOVFF  2C4,7BC
04CB0:  MOVFF  03,7C3
04CB4:  MOVFF  02,7C2
04CB8:  MOVFF  01,7C1
04CBC:  MOVFF  00,7C0
04CC0:  CALL   20D2
04CC4:  MOVFF  03,2C7
04CC8:  MOVFF  02,2C6
04CCC:  MOVFF  01,2C5
04CD0:  MOVFF  00,2C4
....................     
....................    return promediopresionp; 
04CD4:  MOVFF  2C4,00
04CD8:  MOVFF  2C5,01
04CDC:  MOVFF  2C6,02
04CE0:  MOVFF  2C7,03
.................... } 
04CE4:  RETLW  00
....................  
.................... void Controla(){ 
....................    if(tiemporecta>=Derivativo/2.0){ 
*
07012:  MOVLB  7
07014:  CLRF   xC3
07016:  MOVFF  32A,7C2
0701A:  MOVLB  0
0701C:  CALL   1E56
07020:  MOVFF  03,7BF
07024:  MOVFF  02,7BE
07028:  MOVFF  01,7BD
0702C:  MOVFF  00,7BC
07030:  MOVLB  7
07032:  CLRF   xC3
07034:  CLRF   xC2
07036:  CLRF   xC1
07038:  MOVLW  80
0703A:  MOVWF  xC0
0703C:  MOVLB  0
0703E:  CALL   20D2
07042:  MOVFF  00,7B0
07046:  MOVFF  01,7B1
0704A:  MOVFF  02,7B2
0704E:  MOVFF  03,7B3
07052:  MOVLB  7
07054:  CLRF   xC3
07056:  MOVFF  33D,7C2
0705A:  MOVLB  0
0705C:  CALL   1E56
07060:  MOVFF  7B3,7B9
07064:  MOVFF  7B2,7B8
07068:  MOVFF  7B1,7B7
0706C:  MOVFF  7B0,7B6
07070:  MOVFF  03,7BD
07074:  MOVFF  02,7BC
07078:  MOVFF  01,7BB
0707C:  MOVFF  00,7BA
07080:  CALL   24E8
07084:  BC    7088
07086:  BNZ   708E
....................       ActualizaRecta(); 
07088:  BRA    6FA4
....................       tiemporecta=0; 
0708A:  MOVLB  3
0708C:  CLRF   x3D
....................    }  
.................... //-------------------------------Control de Calentamiento------------------------------------------------------------//          
....................    error=desvio+Setpoint-Temperatura;      // Clculo del error ****** 
0708E:  MOVLB  7
07090:  CLRF   xC3
07092:  MOVFF  34C,7C2
07096:  MOVLB  0
07098:  CALL   1E56
0709C:  BCF    FD8.1
0709E:  MOVFF  2FC,7C5
070A2:  MOVFF  2FB,7C4
070A6:  MOVFF  2FA,7C3
070AA:  MOVFF  2F9,7C2
070AE:  MOVFF  03,7C9
070B2:  MOVFF  02,7C8
070B6:  MOVFF  01,7C7
070BA:  MOVFF  00,7C6
070BE:  CALL   2270
070C2:  MOVFF  00,7B0
070C6:  MOVFF  01,7B1
070CA:  MOVFF  02,7B2
070CE:  MOVFF  03,7B3
070D2:  BSF    FD8.1
070D4:  MOVFF  03,7C5
070D8:  MOVFF  02,7C4
070DC:  MOVFF  01,7C3
070E0:  MOVFF  00,7C2
070E4:  MOVFF  314,7C9
070E8:  MOVFF  313,7C8
070EC:  MOVFF  312,7C7
070F0:  MOVFF  311,7C6
070F4:  CALL   2270
070F8:  MOVFF  03,2E4
070FC:  MOVFF  02,2E3
07100:  MOVFF  01,2E2
07104:  MOVFF  00,2E1
....................     
....................    if(error>1.0 && error<15 && Aumento<0.3){ 
07108:  MOVLB  7
0710A:  CLRF   xB9
0710C:  CLRF   xB8
0710E:  CLRF   xB7
07110:  MOVLW  7F
07112:  MOVWF  xB6
07114:  MOVFF  2E4,7BD
07118:  MOVFF  2E3,7BC
0711C:  MOVFF  2E2,7BB
07120:  MOVFF  2E1,7BA
07124:  MOVLB  0
07126:  CALL   24E8
0712A:  BTFSS  FD8.0
0712C:  BRA    7308
0712E:  MOVFF  2E4,7B9
07132:  MOVFF  2E3,7B8
07136:  MOVFF  2E2,7B7
0713A:  MOVFF  2E1,7B6
0713E:  MOVLB  7
07140:  CLRF   xBD
07142:  CLRF   xBC
07144:  MOVLW  70
07146:  MOVWF  xBB
07148:  MOVLW  82
0714A:  MOVWF  xBA
0714C:  MOVLB  0
0714E:  CALL   24E8
07152:  BTFSS  FD8.0
07154:  BRA    7308
07156:  MOVFF  2C3,7B9
0715A:  MOVFF  2C2,7B8
0715E:  MOVFF  2C1,7B7
07162:  MOVFF  2C0,7B6
07166:  MOVLW  9A
07168:  MOVLB  7
0716A:  MOVWF  xBD
0716C:  MOVLW  99
0716E:  MOVWF  xBC
07170:  MOVLW  19
07172:  MOVWF  xBB
07174:  MOVLW  7D
07176:  MOVWF  xBA
07178:  MOVLB  0
0717A:  CALL   24E8
0717E:  BTFSS  FD8.0
07180:  BRA    7308
....................       if(Tpulso<7.0){ 
07182:  MOVFF  2E0,7B9
07186:  MOVFF  2DF,7B8
0718A:  MOVFF  2DE,7B7
0718E:  MOVFF  2DD,7B6
07192:  MOVLB  7
07194:  CLRF   xBD
07196:  CLRF   xBC
07198:  MOVLW  60
0719A:  MOVWF  xBB
0719C:  MOVLW  81
0719E:  MOVWF  xBA
071A0:  MOVLB  0
071A2:  CALL   24E8
071A6:  BTFSS  FD8.0
071A8:  BRA    7304
....................          flagTC=1; 
071AA:  MOVLB  3
071AC:  BSF    x3B.3
....................          if(TiempoControl>=Derivativo){ 
071AE:  MOVF   x2A,W
071B0:  SUBWF  x70,W
071B2:  BTFSS  FD8.0
071B4:  BRA    7300
....................             TiempoControl=0; 
071B6:  CLRF   x70
....................             if(Aumento<-0.5){ 
071B8:  MOVFF  2C3,7B9
071BC:  MOVFF  2C2,7B8
071C0:  MOVFF  2C1,7B7
071C4:  MOVFF  2C0,7B6
071C8:  MOVLB  7
071CA:  CLRF   xBD
071CC:  CLRF   xBC
071CE:  MOVLW  80
071D0:  MOVWF  xBB
071D2:  MOVLW  7E
071D4:  MOVWF  xBA
071D6:  MOVLB  0
071D8:  CALL   24E8
071DC:  BNC   7228
....................                Ganancia+=Integral+1; 
071DE:  MOVLW  01
071E0:  MOVLB  3
071E2:  ADDWF  x29,W
071E4:  MOVLB  7
071E6:  CLRF   xC3
071E8:  MOVWF  xC2
071EA:  MOVLB  0
071EC:  CALL   1E56
071F0:  BCF    FD8.1
071F2:  MOVFF  2F4,7C5
071F6:  MOVFF  2F3,7C4
071FA:  MOVFF  2F2,7C3
071FE:  MOVFF  2F1,7C2
07202:  MOVFF  03,7C9
07206:  MOVFF  02,7C8
0720A:  MOVFF  01,7C7
0720E:  MOVFF  00,7C6
07212:  CALL   2270
07216:  MOVFF  03,2F4
0721A:  MOVFF  02,2F3
0721E:  MOVFF  01,2F2
07222:  MOVFF  00,2F1
....................             }else{ 
07226:  BRA    72FE
....................                if(Aumento<-0.1){ 
07228:  MOVFF  2C3,7B9
0722C:  MOVFF  2C2,7B8
07230:  MOVFF  2C1,7B7
07234:  MOVFF  2C0,7B6
07238:  MOVLW  CD
0723A:  MOVLB  7
0723C:  MOVWF  xBD
0723E:  MOVLW  CC
07240:  MOVWF  xBC
07242:  MOVWF  xBB
07244:  MOVLW  7B
07246:  MOVWF  xBA
07248:  MOVLB  0
0724A:  CALL   24E8
0724E:  BNC   72BA
....................                   Ganancia+=Integral+0.5; 
07250:  MOVLB  7
07252:  CLRF   xC3
07254:  MOVFF  329,7C2
07258:  MOVLB  0
0725A:  CALL   1E56
0725E:  BCF    FD8.1
07260:  MOVFF  03,7C5
07264:  MOVFF  02,7C4
07268:  MOVFF  01,7C3
0726C:  MOVFF  00,7C2
07270:  MOVLB  7
07272:  CLRF   xC9
07274:  CLRF   xC8
07276:  CLRF   xC7
07278:  MOVLW  7E
0727A:  MOVWF  xC6
0727C:  MOVLB  0
0727E:  CALL   2270
07282:  BCF    FD8.1
07284:  MOVFF  2F4,7C5
07288:  MOVFF  2F3,7C4
0728C:  MOVFF  2F2,7C3
07290:  MOVFF  2F1,7C2
07294:  MOVFF  03,7C9
07298:  MOVFF  02,7C8
0729C:  MOVFF  01,7C7
072A0:  MOVFF  00,7C6
072A4:  CALL   2270
072A8:  MOVFF  03,2F4
072AC:  MOVFF  02,2F3
072B0:  MOVFF  01,2F2
072B4:  MOVFF  00,2F1
....................                }else{ 
072B8:  BRA    72FE
....................                   Ganancia+=Integral; 
072BA:  MOVLB  7
072BC:  CLRF   xC3
072BE:  MOVFF  329,7C2
072C2:  MOVLB  0
072C4:  CALL   1E56
072C8:  BCF    FD8.1
072CA:  MOVFF  2F4,7C5
072CE:  MOVFF  2F3,7C4
072D2:  MOVFF  2F2,7C3
072D6:  MOVFF  2F1,7C2
072DA:  MOVFF  03,7C9
072DE:  MOVFF  02,7C8
072E2:  MOVFF  01,7C7
072E6:  MOVFF  00,7C6
072EA:  CALL   2270
072EE:  MOVFF  03,2F4
072F2:  MOVFF  02,2F3
072F6:  MOVFF  01,2F2
072FA:  MOVFF  00,2F1
072FE:  MOVLB  3
....................                } 
....................             } 
....................          } 
....................       }else{ 
07300:  BRA    7308
07302:  MOVLB  0
....................          flagTC=0; 
07304:  MOVLB  3
07306:  BCF    x3B.3
....................       } 
....................    } 
....................     
....................    if(error<-0.3) 
07308:  MOVFF  2E4,7B9
0730C:  MOVFF  2E3,7B8
07310:  MOVFF  2E2,7B7
07314:  MOVFF  2E1,7B6
07318:  MOVLW  9A
0731A:  MOVLB  7
0731C:  MOVWF  xBD
0731E:  MOVLW  99
07320:  MOVWF  xBC
07322:  MOVWF  xBB
07324:  MOVLW  7D
07326:  MOVWF  xBA
07328:  MOVLB  0
0732A:  CALL   24E8
0732E:  BNC   7340
....................       Ganancia=Ganancia2; 
07330:  MOVFF  2F8,2F4
07334:  MOVFF  2F7,2F3
07338:  MOVFF  2F6,2F2
0733C:  MOVFF  2F5,2F1
....................     
....................    if(Ganancia<1) 
07340:  MOVFF  2F4,7B9
07344:  MOVFF  2F3,7B8
07348:  MOVFF  2F2,7B7
0734C:  MOVFF  2F1,7B6
07350:  MOVLB  7
07352:  CLRF   xBD
07354:  CLRF   xBC
07356:  CLRF   xBB
07358:  MOVLW  7F
0735A:  MOVWF  xBA
0735C:  MOVLB  0
0735E:  CALL   24E8
07362:  BNC   7370
....................       Ganancia=1; 
07364:  MOVLB  2
07366:  CLRF   xF4
07368:  CLRF   xF3
0736A:  CLRF   xF2
0736C:  MOVLW  7F
0736E:  MOVWF  xF1
....................     
....................    if(error<0.0)     // Anti Wind_DOWN     
07370:  MOVFF  2E4,7B9
07374:  MOVFF  2E3,7B8
07378:  MOVFF  2E2,7B7
0737C:  MOVFF  2E1,7B6
07380:  MOVLB  7
07382:  CLRF   xBD
07384:  CLRF   xBC
07386:  CLRF   xBB
07388:  CLRF   xBA
0738A:  MOVLB  0
0738C:  CALL   24E8
07390:  BNC   739E
....................       error=0.0; 
07392:  MOVLB  2
07394:  CLRF   xE4
07396:  CLRF   xE3
07398:  CLRF   xE2
0739A:  CLRF   xE1
0739C:  MOVLB  0
....................    //tmp=(Setpoint-Prom)*Ganancia;  // Control Proporcional. 
....................    tmp=error*Ganancia;  // Control Proporcional. 
0739E:  MOVFF  2E4,7C9
073A2:  MOVFF  2E3,7C8
073A6:  MOVFF  2E2,7C7
073AA:  MOVFF  2E1,7C6
073AE:  MOVFF  2F4,7CD
073B2:  MOVFF  2F3,7CC
073B6:  MOVFF  2F2,7CB
073BA:  MOVFF  2F1,7CA
073BE:  CALL   3ED8
073C2:  MOVFF  03,2F0
073C6:  MOVFF  02,2EF
073CA:  MOVFF  01,2EE
073CE:  MOVFF  00,2ED
....................           
....................    if(tmp>Setpoint)   // Anti Wind-UP       
073D2:  MOVLB  7
073D4:  CLRF   xC3
073D6:  MOVFF  34C,7C2
073DA:  MOVLB  0
073DC:  CALL   1E56
073E0:  MOVFF  03,7B9
073E4:  MOVFF  02,7B8
073E8:  MOVFF  01,7B7
073EC:  MOVFF  00,7B6
073F0:  MOVFF  2F0,7BD
073F4:  MOVFF  2EF,7BC
073F8:  MOVFF  2EE,7BB
073FC:  MOVFF  2ED,7BA
07400:  CALL   24E8
07404:  BNC   7424
....................       tmp=Setpoint; 
07406:  MOVLB  7
07408:  CLRF   xC3
0740A:  MOVFF  34C,7C2
0740E:  MOVLB  0
07410:  CALL   1E56
07414:  MOVFF  03,2F0
07418:  MOVFF  02,2EF
0741C:  MOVFF  01,2EE
07420:  MOVFF  00,2ED
....................                 
....................    if(tmp<0.0)     // Anti Wind_DOWN     
07424:  MOVFF  2F0,7B9
07428:  MOVFF  2EF,7B8
0742C:  MOVFF  2EE,7B7
07430:  MOVFF  2ED,7B6
07434:  MOVLB  7
07436:  CLRF   xBD
07438:  CLRF   xBC
0743A:  CLRF   xBB
0743C:  CLRF   xBA
0743E:  MOVLB  0
07440:  CALL   24E8
07444:  BNC   7450
....................       tmp=0.0; 
07446:  MOVLB  2
07448:  CLRF   xF0
0744A:  CLRF   xEF
0744C:  CLRF   xEE
0744E:  CLRF   xED
....................     
....................    // Tpulso(t)= Tciclo*(y(t)-ymin)/(ymax - ymin); calculo de ciclo util para control de resistencia.ymax=140.ymin=0; 
....................    // Tpulso es float, hay que pasar ese ciclo a una salida de un puerto usando el TMR1. 
....................    tmp2=(tmp/Setpoint); 
07450:  MOVLB  7
07452:  CLRF   xC3
07454:  MOVFF  34C,7C2
07458:  MOVLB  0
0745A:  CALL   1E56
0745E:  MOVFF  2F0,7BF
07462:  MOVFF  2EF,7BE
07466:  MOVFF  2EE,7BD
0746A:  MOVFF  2ED,7BC
0746E:  MOVFF  03,7C3
07472:  MOVFF  02,7C2
07476:  MOVFF  01,7C1
0747A:  MOVFF  00,7C0
0747E:  CALL   20D2
07482:  MOVFF  03,300
07486:  MOVFF  02,2FF
0748A:  MOVFF  01,2FE
0748E:  MOVFF  00,2FD
....................    //if(tmp2>0.8) 
....................    //tmp2=0.8; 
....................    Tpulso=tmp2*Tciclo;   
07492:  MOVFF  300,7C9
07496:  MOVFF  2FF,7C8
0749A:  MOVFF  2FE,7C7
0749E:  MOVFF  2FD,7C6
074A2:  MOVFF  2DC,7CD
074A6:  MOVFF  2DB,7CC
074AA:  MOVFF  2DA,7CB
074AE:  MOVFF  2D9,7CA
074B2:  CALL   3ED8
074B6:  MOVFF  03,2E0
074BA:  MOVFF  02,2DF
074BE:  MOVFF  01,2DE
074C2:  MOVFF  00,2DD
....................                                        
....................    Tp=(Tpulso/0.005); 
074C6:  MOVFF  2E0,7BF
074CA:  MOVFF  2DF,7BE
074CE:  MOVFF  2DE,7BD
074D2:  MOVFF  2DD,7BC
074D6:  MOVLW  0A
074D8:  MOVLB  7
074DA:  MOVWF  xC3
074DC:  MOVLW  D7
074DE:  MOVWF  xC2
074E0:  MOVLW  23
074E2:  MOVWF  xC1
074E4:  MOVLW  77
074E6:  MOVWF  xC0
074E8:  MOVLB  0
074EA:  CALL   20D2
074EE:  MOVFF  03,7C5
074F2:  MOVFF  02,7C4
074F6:  MOVFF  01,7C3
074FA:  MOVFF  00,7C2
074FE:  CALL   4AAC
07502:  MOVFF  02,AE
07506:  MOVFF  01,AD
....................    Tc=(Tciclo/0.005); 
0750A:  MOVFF  2DC,7BF
0750E:  MOVFF  2DB,7BE
07512:  MOVFF  2DA,7BD
07516:  MOVFF  2D9,7BC
0751A:  MOVLW  0A
0751C:  MOVLB  7
0751E:  MOVWF  xC3
07520:  MOVLW  D7
07522:  MOVWF  xC2
07524:  MOVLW  23
07526:  MOVWF  xC1
07528:  MOVLW  77
0752A:  MOVWF  xC0
0752C:  MOVLB  0
0752E:  CALL   20D2
07532:  MOVFF  03,7C5
07536:  MOVFF  02,7C4
0753A:  MOVFF  01,7C3
0753E:  MOVFF  00,7C2
07542:  CALL   4AAC
07546:  MOVFF  02,B0
0754A:  MOVFF  01,AF
....................    Controlando=1;    
0754E:  MOVLW  01
07550:  MOVLB  3
07552:  MOVWF  x3E
.................... //--------------------------------------------------------------------------------------------------------------------//    
.................... } 
07554:  MOVLB  0
07556:  RETLW  00
....................  
.................... void Envio_I2C(direccion, posicion, dato){ 
....................  
....................    i2c_start();            // Comienzo comunicacin 
*
04CE6:  BSF    F94.4
04CE8:  MOVLW  05
04CEA:  MOVWF  00
04CEC:  DECFSZ 00,F
04CEE:  BRA    4CEC
04CF0:  BSF    F94.3
04CF2:  MOVLW  06
04CF4:  MOVWF  00
04CF6:  DECFSZ 00,F
04CF8:  BRA    4CF6
04CFA:  BCF    F8B.4
04CFC:  BCF    F94.4
04CFE:  MOVLW  05
04D00:  MOVWF  00
04D02:  DECFSZ 00,F
04D04:  BRA    4D02
04D06:  BCF    F8B.3
04D08:  BCF    F94.3
....................    i2c_write(direccion);   // Direccin del esclavo en el bus I2C 
04D0A:  MOVFF  7C1,7C4
04D0E:  CALL   1F4A
....................    i2c_write(posicion);    // Posicin donde se guardara el dato transmitido 
04D12:  MOVFF  7C2,7C4
04D16:  CALL   1F4A
....................    i2c_write(dato);        // Dato a transmitir 
04D1A:  MOVFF  7C3,7C4
04D1E:  CALL   1F4A
....................    i2c_stop();             // Fin comunicacin 
04D22:  BCF    F94.4
04D24:  NOP   
04D26:  BSF    F94.3
04D28:  BTFSS  F82.3
04D2A:  BRA    4D28
04D2C:  MOVLW  05
04D2E:  MOVWF  00
04D30:  DECFSZ 00,F
04D32:  BRA    4D30
04D34:  BRA    4D36
04D36:  NOP   
04D38:  BSF    F94.4
04D3A:  MOVLW  05
04D3C:  MOVWF  00
04D3E:  DECFSZ 00,F
04D40:  BRA    4D3E
....................  } 
04D42:  RETLW  00
....................  
.................... void Lectura_I2C (byte direccion, byte posicion, byte &dato) { 
....................  
....................    i2c_start();            // Comienzo de la comunicacin 
*
09B04:  BSF    F94.4
09B06:  MOVLW  05
09B08:  MOVWF  00
09B0A:  DECFSZ 00,F
09B0C:  BRA    9B0A
09B0E:  BSF    F94.3
09B10:  MOVLW  06
09B12:  MOVWF  00
09B14:  DECFSZ 00,F
09B16:  BRA    9B14
09B18:  BCF    F8B.4
09B1A:  BCF    F94.4
09B1C:  MOVLW  05
09B1E:  MOVWF  00
09B20:  DECFSZ 00,F
09B22:  BRA    9B20
09B24:  BCF    F8B.3
09B26:  BCF    F94.3
*
09BA6:  BSF    F94.4
09BA8:  MOVLW  05
09BAA:  MOVWF  00
09BAC:  DECFSZ 00,F
09BAE:  BRA    9BAC
09BB0:  BSF    F94.3
09BB2:  MOVLW  06
09BB4:  MOVWF  00
09BB6:  DECFSZ 00,F
09BB8:  BRA    9BB6
09BBA:  BCF    F8B.4
09BBC:  BCF    F94.4
09BBE:  MOVLW  05
09BC0:  MOVWF  00
09BC2:  DECFSZ 00,F
09BC4:  BRA    9BC2
09BC6:  BCF    F8B.3
09BC8:  BCF    F94.3
....................    i2c_write(direccion);   // Direccin del esclavo en el bus I2C 
*
09B28:  MOVFF  7B0,7C4
09B2C:  MOVLB  0
09B2E:  CALL   1F4A
*
09BCA:  MOVFF  7B0,7C4
09BCE:  MOVLB  0
09BD0:  CALL   1F4A
....................    i2c_write(posicion);    // Posicin de donde se leer el dato en el esclavo 
*
09B32:  MOVFF  7B1,7C4
09B36:  CALL   1F4A
*
09BD4:  MOVFF  7B1,7C4
09BD8:  CALL   1F4A
....................    i2c_start();            // Reinicio 
*
09B3A:  BSF    F94.4
09B3C:  MOVLW  05
09B3E:  MOVWF  00
09B40:  DECFSZ 00,F
09B42:  BRA    9B40
09B44:  BSF    F94.3
09B46:  MOVLW  06
09B48:  MOVWF  00
09B4A:  DECFSZ 00,F
09B4C:  BRA    9B4A
09B4E:  BTFSS  F82.3
09B50:  BRA    9B4E
09B52:  BCF    F8B.4
09B54:  BCF    F94.4
09B56:  MOVLW  05
09B58:  MOVWF  00
09B5A:  DECFSZ 00,F
09B5C:  BRA    9B5A
09B5E:  BCF    F8B.3
09B60:  BCF    F94.3
*
09BDC:  BSF    F94.4
09BDE:  MOVLW  05
09BE0:  MOVWF  00
09BE2:  DECFSZ 00,F
09BE4:  BRA    9BE2
09BE6:  BSF    F94.3
09BE8:  MOVLW  06
09BEA:  MOVWF  00
09BEC:  DECFSZ 00,F
09BEE:  BRA    9BEC
09BF0:  BTFSS  F82.3
09BF2:  BRA    9BF0
09BF4:  BCF    F8B.4
09BF6:  BCF    F94.4
09BF8:  MOVLW  05
09BFA:  MOVWF  00
09BFC:  DECFSZ 00,F
09BFE:  BRA    9BFC
09C00:  BCF    F8B.3
09C02:  BCF    F94.3
....................    i2c_write(direccion+1); // Direccin del esclavo en modo lectura 
*
09B62:  MOVLW  01
09B64:  MOVLB  7
09B66:  ADDWF  xB0,W
09B68:  MOVWF  xB2
09B6A:  MOVWF  xC4
09B6C:  MOVLB  0
09B6E:  CALL   1F4A
*
09C04:  MOVLW  01
09C06:  MOVLB  7
09C08:  ADDWF  xB0,W
09C0A:  MOVWF  xB2
09C0C:  MOVWF  xC4
09C0E:  MOVLB  0
09C10:  CALL   1F4A
....................    dato=i2c_read(0);       // Lectura del dato 
*
09B72:  CLRF   00
09B74:  CALL   1FC0
09B78:  MOVFF  01,332
*
09C14:  CLRF   00
09C16:  CALL   1FC0
09C1A:  MOVFF  01,333
....................    i2c_stop();             // Fin comunicacin 
*
09B7C:  BCF    F94.4
09B7E:  NOP   
09B80:  BSF    F94.3
09B82:  BTFSS  F82.3
09B84:  BRA    9B82
09B86:  MOVLW  05
09B88:  MOVWF  00
09B8A:  DECFSZ 00,F
09B8C:  BRA    9B8A
09B8E:  BRA    9B90
09B90:  NOP   
09B92:  BSF    F94.4
09B94:  MOVLW  05
09B96:  MOVWF  00
09B98:  DECFSZ 00,F
09B9A:  BRA    9B98
*
09C1E:  BCF    F94.4
09C20:  NOP   
09C22:  BSF    F94.3
09C24:  BTFSS  F82.3
09C26:  BRA    9C24
09C28:  MOVLW  05
09C2A:  MOVWF  00
09C2C:  DECFSZ 00,F
09C2E:  BRA    9C2C
09C30:  BRA    9C32
09C32:  NOP   
09C34:  BSF    F94.4
09C36:  MOVLW  05
09C38:  MOVWF  00
09C3A:  DECFSZ 00,F
09C3C:  BRA    9C3A
.................... } 
....................  
.................... void Carga_Vector(void){ 
....................    SlaveA0Tx[0]=(int8)Temperatura; 
*
04FB0:  MOVFF  314,7C5
04FB4:  MOVFF  313,7C4
04FB8:  MOVFF  312,7C3
04FBC:  MOVFF  311,7C2
04FC0:  RCALL  4AAC
04FC2:  MOVFF  01,64
....................    SlaveA0Tx[1]=(Temperatura-((int8)Temperatura))*10; 
04FC6:  MOVFF  314,7C5
04FCA:  MOVFF  313,7C4
04FCE:  MOVFF  312,7C3
04FD2:  MOVFF  311,7C2
04FD6:  RCALL  4AAC
04FD8:  MOVLB  7
04FDA:  CLRF   xC3
04FDC:  MOVFF  01,7C2
04FE0:  MOVLB  0
04FE2:  CALL   1E56
04FE6:  BSF    FD8.1
04FE8:  MOVFF  314,7C5
04FEC:  MOVFF  313,7C4
04FF0:  MOVFF  312,7C3
04FF4:  MOVFF  311,7C2
04FF8:  MOVFF  03,7C9
04FFC:  MOVFF  02,7C8
05000:  MOVFF  01,7C7
05004:  MOVFF  00,7C6
05008:  CALL   2270
0500C:  MOVFF  00,7C0
05010:  MOVFF  01,7C1
05014:  MOVFF  02,7C2
05018:  MOVFF  03,7C3
0501C:  MOVFF  03,7C9
05020:  MOVFF  02,7C8
05024:  MOVFF  01,7C7
05028:  MOVFF  00,7C6
0502C:  MOVLB  7
0502E:  CLRF   xCD
05030:  CLRF   xCC
05032:  MOVLW  20
05034:  MOVWF  xCB
05036:  MOVLW  82
05038:  MOVWF  xCA
0503A:  MOVLB  0
0503C:  CALL   3ED8
05040:  MOVFF  03,7C5
05044:  MOVFF  02,7C4
05048:  MOVFF  01,7C3
0504C:  MOVFF  00,7C2
05050:  RCALL  4AAC
05052:  MOVFF  01,65
....................    SlaveA0Tx[2]=make8((int16)PresionCamara,0); 
05056:  MOVFF  35E,66
0505A:  MOVLB  0
....................    SlaveA0Tx[3]=make8((int16)PresionCamara,1); 
0505C:  MOVFF  35F,67
05060:  MOVLB  0
....................    SlaveA0Tx[4]=make8((int16)PresionPreCamara,0); 
05062:  MOVFF  360,68
05066:  MOVLB  0
....................    SlaveA0Tx[5]=make8((int16)PresionPreCamara,1); 
05068:  MOVFF  361,69
0506C:  MOVLB  0
....................    SlaveA0Tx[6]=(int8)Tpulso*10; 
0506E:  MOVFF  2E0,7C5
05072:  MOVFF  2DF,7C4
05076:  MOVFF  2DE,7C3
0507A:  MOVFF  2DD,7C2
0507E:  RCALL  4AAC
05080:  MOVF   01,W
05082:  MULLW  0A
05084:  MOVFF  FF3,6A
....................    SlaveA0Tx[7]=HIG; 
05088:  CLRF   x6B
0508A:  BTFSC  xA5.4
0508C:  INCF   x6B,F
....................    SlaveA0Tx[8]=LOW; 
0508E:  CLRF   x6C
05090:  BTFSC  xA5.3
05092:  INCF   x6C,F
....................    SlaveA0Tx[9]=TERM; 
05094:  BSF    F93.4
05096:  CLRF   x6D
05098:  BTFSC  F81.4
0509A:  INCF   x6D,F
....................    SlaveA0Tx[10]=DOOR; 
0509C:  BSF    F93.7
0509E:  CLRF   x6E
050A0:  BTFSS  F81.7
050A2:  INCF   x6E,F
....................    SlaveA0Tx[11]=STOP; 
050A4:  BSF    F93.5
050A6:  CLRF   x6F
050A8:  BTFSS  F81.5
050AA:  INCF   x6F,F
....................    SlaveA0Tx[12]=(int8)error; 
050AC:  MOVFF  2E4,7C5
050B0:  MOVFF  2E3,7C4
050B4:  MOVFF  2E2,7C3
050B8:  MOVFF  2E1,7C2
050BC:  RCALL  4AAC
050BE:  MOVFF  01,70
....................    SlaveA0Tx[13]=CicloSeleccionado; 
050C2:  MOVFF  34B,71
....................    SlaveA0Tx[14]=SetTime; 
050C6:  MOVFF  388,72
....................    SlaveA0Tx[15]=Dia; 
050CA:  MOVFF  37D,73
....................    SlaveA0Tx[16]=Mes; 
050CE:  MOVFF  37C,74
....................    SlaveA0Tx[17]=Year; 
050D2:  MOVFF  37B,75
....................    SlaveA0Tx[18]=Hora; 
050D6:  MOVFF  37E,76
....................    SlaveA0Tx[19]=Minuto; 
050DA:  MOVFF  37F,77
....................    SlaveA0Tx[20]=Segundo; 
050DE:  MOVFF  380,78
....................    SlaveA0Tx[21]=Imprime; 
050E2:  MOVFF  389,79
....................    SlaveA0Tx[22]=make8(Ciclos,0); 
050E6:  MOVFF  362,7A
050EA:  MOVLB  0
....................    SlaveA0Tx[23]=make8(Ciclos,1); 
050EC:  MOVFF  363,7B
050F0:  MOVLB  0
.................... } 
050F2:  GOTO   50F8 (RETURN)
....................  
.................... void Lee_Vector(void){ 
....................    /*Dia=txbuf[0]; 
....................    Mess=txbuf[1]; 
....................    Year=txbuf[2]; 
....................    Hora=txbuf[3]; 
....................    Minuto=txbuf[4]; 
....................    Segundo=txbuf[5]; 
....................    dow=txbuf[6];*/ 
.................... } 
....................  
.................... void Envio_Esclavos(void){ 
....................    Carga_Vector(); 
050F6:  BRA    4FB0
....................    for(i=0;i<24;i++){ 
050F8:  MOVLB  3
050FA:  CLRF   x48
050FC:  MOVF   x48,W
050FE:  SUBLW  17
05100:  BNC   5132
....................       direccion=0xB0; 
05102:  MOVLW  B0
05104:  MOVLB  0
05106:  MOVWF  x85
....................       Envio_I2C(direccion,i,SlaveA0Tx[i]); 
05108:  CLRF   03
0510A:  MOVLB  3
0510C:  MOVF   x48,W
0510E:  ADDLW  64
05110:  MOVWF  FE9
05112:  MOVLW  00
05114:  ADDWFC 03,W
05116:  MOVWF  FEA
05118:  MOVFF  FEF,7C0
0511C:  MOVFF  85,7C1
05120:  MOVFF  348,7C2
05124:  MOVFF  7C0,7C3
05128:  MOVLB  0
0512A:  RCALL  4CE6
....................    }  
0512C:  MOVLB  3
0512E:  INCF   x48,F
05130:  BRA    50FC
.................... } 
05132:  MOVLB  0
05134:  RETLW  00
.................... void Lectura_Esclavos(void){ 
....................    //for(i=0;i<7;i++) 
....................    //{ 
....................    //   direccion=0xA0;                        //Direccin en el bus I2c 
....................    //   posicion=i;                         //Posicin de memoria a leer 
....................    //   Lectura_I2C(direccion, posicion, dato);    //Lectura por I2C 
....................    //   txbuf[i]=(int8)dato; 
....................    //} 
....................    //Lee_Vector(); 
.................... } 
....................  
.................... int8 extraeDecimal(float data){ 
*
06A2E:  MOVLB  7
06A30:  CLRF   xBD
06A32:  CLRF   xBC
06A34:  CLRF   xBB
06A36:  CLRF   xBA
06A38:  CLRF   xC1
06A3A:  CLRF   xC0
06A3C:  CLRF   xBF
06A3E:  CLRF   xBE
....................    float entero=0; 
....................    float tmp=0.0; 
....................     
....................    entero=(int8)data; 
06A40:  MOVFF  7B9,7C5
06A44:  MOVFF  7B8,7C4
06A48:  MOVFF  7B7,7C3
06A4C:  MOVFF  7B6,7C2
06A50:  MOVLB  0
06A52:  CALL   4AAC
06A56:  MOVLB  7
06A58:  CLRF   xC3
06A5A:  MOVFF  01,7C2
06A5E:  MOVLB  0
06A60:  CALL   1E56
06A64:  MOVFF  03,7BD
06A68:  MOVFF  02,7BC
06A6C:  MOVFF  01,7BB
06A70:  MOVFF  00,7BA
....................    tmp=(data-entero)*10; 
06A74:  BSF    FD8.1
06A76:  MOVFF  7B9,7C5
06A7A:  MOVFF  7B8,7C4
06A7E:  MOVFF  7B7,7C3
06A82:  MOVFF  7B6,7C2
06A86:  MOVFF  7BD,7C9
06A8A:  MOVFF  7BC,7C8
06A8E:  MOVFF  7BB,7C7
06A92:  MOVFF  7BA,7C6
06A96:  CALL   2270
06A9A:  MOVFF  00,7C2
06A9E:  MOVFF  01,7C3
06AA2:  MOVFF  02,7C4
06AA6:  MOVFF  03,7C5
06AAA:  MOVFF  03,7C9
06AAE:  MOVFF  02,7C8
06AB2:  MOVFF  01,7C7
06AB6:  MOVFF  00,7C6
06ABA:  MOVLB  7
06ABC:  CLRF   xCD
06ABE:  CLRF   xCC
06AC0:  MOVLW  20
06AC2:  MOVWF  xCB
06AC4:  MOVLW  82
06AC6:  MOVWF  xCA
06AC8:  MOVLB  0
06ACA:  CALL   3ED8
06ACE:  MOVFF  03,7C1
06AD2:  MOVFF  02,7C0
06AD6:  MOVFF  01,7BF
06ADA:  MOVFF  00,7BE
....................    return (int8)tmp; 
06ADE:  MOVFF  7C1,7C5
06AE2:  MOVFF  7C0,7C4
06AE6:  MOVFF  7BF,7C3
06AEA:  MOVFF  7BE,7C2
06AEE:  CALL   4AAC
06AF2:  MOVF   01,W
.................... } 
06AF4:  GOTO   6C06 (RETURN)
....................  
.................... float inttofloat(int8 decimal){ 
....................    float tmp; 
....................    tmp=decimal; 
*
02230:  MOVLB  7
02232:  CLRF   xC3
02234:  MOVFF  7B4,7C2
02238:  MOVLB  0
0223A:  RCALL  1E56
0223C:  MOVFF  03,7B8
02240:  MOVFF  02,7B7
02244:  MOVFF  01,7B6
02248:  MOVFF  00,7B5
....................    return tmp/10; 
0224C:  MOVFF  7B8,7BF
02250:  MOVFF  7B7,7BE
02254:  MOVFF  7B6,7BD
02258:  MOVFF  7B5,7BC
0225C:  MOVLB  7
0225E:  CLRF   xC3
02260:  CLRF   xC2
02262:  MOVLW  20
02264:  MOVWF  xC1
02266:  MOVLW  82
02268:  MOVWF  xC0
0226A:  MOVLB  0
0226C:  RCALL  20D2
.................... } 
0226E:  RETLW  00
....................  
.................... void LeeEEPROM(){ 
.................... //Lectura EEPROM//-------------------------- 
....................    Ganancia=read_eeprom(20); 
*
02562:  MOVFF  FF2,7B0
02566:  BCF    FF2.6
02568:  BCF    FF2.7
0256A:  CLRF   FAA
0256C:  MOVLW  14
0256E:  MOVWF  FA9
02570:  BCF    FA6.6
02572:  BCF    FA6.7
02574:  BSF    FA6.0
02576:  MOVF   FA8,W
02578:  MOVLB  7
0257A:  BTFSC  xB0.6
0257C:  BSF    FF2.6
0257E:  BTFSC  xB0.7
02580:  BSF    FF2.7
02582:  CLRF   xC3
02584:  MOVWF  xC2
02586:  MOVLB  0
02588:  RCALL  1E56
0258A:  MOVFF  03,2F4
0258E:  MOVFF  02,2F3
02592:  MOVFF  01,2F2
02596:  MOVFF  00,2F1
....................    delay_ms(10); 
0259A:  MOVLW  0A
0259C:  MOVLB  7
0259E:  MOVWF  xC0
025A0:  MOVLB  0
025A2:  RCALL  1E8C
....................    Sensor[0].Ajuste=read_eeprom(21); 
025A4:  MOVFF  FF2,7B0
025A8:  BCF    FF2.6
025AA:  BCF    FF2.7
025AC:  CLRF   FAA
025AE:  MOVLW  15
025B0:  MOVWF  FA9
025B2:  BCF    FA6.6
025B4:  BCF    FA6.7
025B6:  BSF    FA6.0
025B8:  MOVF   FA8,W
025BA:  MOVLB  7
025BC:  BTFSC  xB0.6
025BE:  BSF    FF2.6
025C0:  BTFSC  xB0.7
025C2:  BSF    FF2.7
025C4:  MOVLB  4
025C6:  MOVWF  x16
....................    delay_ms(10); 
025C8:  MOVLW  0A
025CA:  MOVLB  7
025CC:  MOVWF  xC0
025CE:  MOVLB  0
025D0:  RCALL  1E8C
....................    Sensor[0].Ajusten=read_eeprom(22); 
025D2:  MOVFF  FF2,7B0
025D6:  BCF    FF2.6
025D8:  BCF    FF2.7
025DA:  CLRF   FAA
025DC:  MOVLW  16
025DE:  MOVWF  FA9
025E0:  BCF    FA6.6
025E2:  BCF    FA6.7
025E4:  BSF    FA6.0
025E6:  MOVF   FA8,W
025E8:  MOVLB  7
025EA:  BTFSC  xB0.6
025EC:  BSF    FF2.6
025EE:  BTFSC  xB0.7
025F0:  BSF    FF2.7
025F2:  MOVLB  4
025F4:  MOVWF  x17
....................    delay_ms(10); 
025F6:  MOVLW  0A
025F8:  MOVLB  7
025FA:  MOVWF  xC0
025FC:  MOVLB  0
025FE:  RCALL  1E8C
....................    Sensor[1].Ajuste=read_eeprom(23); 
02600:  MOVFF  FF2,7B0
02604:  BCF    FF2.6
02606:  BCF    FF2.7
02608:  CLRF   FAA
0260A:  MOVLW  17
0260C:  MOVWF  FA9
0260E:  BCF    FA6.6
02610:  BCF    FA6.7
02612:  BSF    FA6.0
02614:  MOVF   FA8,W
02616:  MOVLB  7
02618:  BTFSC  xB0.6
0261A:  BSF    FF2.6
0261C:  BTFSC  xB0.7
0261E:  BSF    FF2.7
02620:  MOVLB  5
02622:  MOVWF  x7A
....................    delay_ms(10); 
02624:  MOVLW  0A
02626:  MOVLB  7
02628:  MOVWF  xC0
0262A:  MOVLB  0
0262C:  RCALL  1E8C
....................    Sensor[1].Ajusten=read_eeprom(24); 
0262E:  MOVFF  FF2,7B0
02632:  BCF    FF2.6
02634:  BCF    FF2.7
02636:  CLRF   FAA
02638:  MOVLW  18
0263A:  MOVWF  FA9
0263C:  BCF    FA6.6
0263E:  BCF    FA6.7
02640:  BSF    FA6.0
02642:  MOVF   FA8,W
02644:  MOVLB  7
02646:  BTFSC  xB0.6
02648:  BSF    FF2.6
0264A:  BTFSC  xB0.7
0264C:  BSF    FF2.7
0264E:  MOVLB  5
02650:  MOVWF  x7B
....................    delay_ms(10);    
02652:  MOVLW  0A
02654:  MOVLB  7
02656:  MOVWF  xC0
02658:  MOVLB  0
0265A:  RCALL  1E8C
....................    MediaMovil=read_eeprom(25); 
0265C:  MOVFF  FF2,7B0
02660:  BCF    FF2.6
02662:  BCF    FF2.7
02664:  CLRF   FAA
02666:  MOVLW  19
02668:  MOVWF  FA9
0266A:  BCF    FA6.6
0266C:  BCF    FA6.7
0266E:  BSF    FA6.0
02670:  MOVF   FA8,W
02672:  MOVLB  7
02674:  BTFSC  xB0.6
02676:  BSF    FF2.6
02678:  BTFSC  xB0.7
0267A:  BSF    FF2.7
0267C:  MOVLB  2
0267E:  MOVWF  xCC
....................    delay_ms(10); 
02680:  MOVLW  0A
02682:  MOVLB  7
02684:  MOVWF  xC0
02686:  MOVLB  0
02688:  RCALL  1E8C
....................    Tciclo=read_eeprom(26); 
0268A:  MOVFF  FF2,7B0
0268E:  BCF    FF2.6
02690:  BCF    FF2.7
02692:  CLRF   FAA
02694:  MOVLW  1A
02696:  MOVWF  FA9
02698:  BCF    FA6.6
0269A:  BCF    FA6.7
0269C:  BSF    FA6.0
0269E:  MOVF   FA8,W
026A0:  MOVLB  7
026A2:  BTFSC  xB0.6
026A4:  BSF    FF2.6
026A6:  BTFSC  xB0.7
026A8:  BSF    FF2.7
026AA:  CLRF   xC3
026AC:  MOVWF  xC2
026AE:  MOVLB  0
026B0:  CALL   1E56
026B4:  MOVFF  03,2DC
026B8:  MOVFF  02,2DB
026BC:  MOVFF  01,2DA
026C0:  MOVFF  00,2D9
....................    delay_ms(10); 
026C4:  MOVLW  0A
026C6:  MOVLB  7
026C8:  MOVWF  xC0
026CA:  MOVLB  0
026CC:  CALL   1E8C
....................    Integral=read_eeprom(27); 
026D0:  MOVFF  FF2,7B0
026D4:  BCF    FF2.6
026D6:  BCF    FF2.7
026D8:  CLRF   FAA
026DA:  MOVLW  1B
026DC:  MOVWF  FA9
026DE:  BCF    FA6.6
026E0:  BCF    FA6.7
026E2:  BSF    FA6.0
026E4:  MOVF   FA8,W
026E6:  MOVLB  7
026E8:  BTFSC  xB0.6
026EA:  BSF    FF2.6
026EC:  BTFSC  xB0.7
026EE:  BSF    FF2.7
026F0:  MOVLB  3
026F2:  MOVWF  x29
....................    delay_ms(10); 
026F4:  MOVLW  0A
026F6:  MOVLB  7
026F8:  MOVWF  xC0
026FA:  MOVLB  0
026FC:  CALL   1E8C
....................    Derivativo=read_eeprom(28); 
02700:  MOVFF  FF2,7B0
02704:  BCF    FF2.6
02706:  BCF    FF2.7
02708:  CLRF   FAA
0270A:  MOVLW  1C
0270C:  MOVWF  FA9
0270E:  BCF    FA6.6
02710:  BCF    FA6.7
02712:  BSF    FA6.0
02714:  MOVF   FA8,W
02716:  MOVLB  7
02718:  BTFSC  xB0.6
0271A:  BSF    FF2.6
0271C:  BTFSC  xB0.7
0271E:  BSF    FF2.7
02720:  MOVLB  3
02722:  MOVWF  x2A
....................    delay_ms(10); 
02724:  MOVLW  0A
02726:  MOVLB  7
02728:  MOVWF  xC0
0272A:  MOVLB  0
0272C:  CALL   1E8C
....................    Atmosferica=read_eeprom(31); 
02730:  MOVFF  FF2,7B0
02734:  BCF    FF2.6
02736:  BCF    FF2.7
02738:  CLRF   FAA
0273A:  MOVLW  1F
0273C:  MOVWF  FA9
0273E:  BCF    FA6.6
02740:  BCF    FA6.7
02742:  BSF    FA6.0
02744:  MOVF   FA8,W
02746:  MOVLB  7
02748:  BTFSC  xB0.6
0274A:  BSF    FF2.6
0274C:  BTFSC  xB0.7
0274E:  BSF    FF2.7
02750:  MOVLB  3
02752:  MOVWF  x31
....................    delay_ms(10); 
02754:  MOVLW  0A
02756:  MOVLB  7
02758:  MOVWF  xC0
0275A:  MOVLB  0
0275C:  CALL   1E8C
....................    Tapertura=read_eeprom(32); 
02760:  MOVFF  FF2,7B0
02764:  BCF    FF2.6
02766:  BCF    FF2.7
02768:  CLRF   FAA
0276A:  MOVLW  20
0276C:  MOVWF  FA9
0276E:  BCF    FA6.6
02770:  BCF    FA6.7
02772:  BSF    FA6.0
02774:  MOVF   FA8,W
02776:  MOVLB  7
02778:  BTFSC  xB0.6
0277A:  BSF    FF2.6
0277C:  BTFSC  xB0.7
0277E:  BSF    FF2.7
02780:  MOVLB  2
02782:  MOVWF  xD0
....................    delay_ms(10); 
02784:  MOVLW  0A
02786:  MOVLB  7
02788:  MOVWF  xC0
0278A:  MOVLB  0
0278C:  CALL   1E8C
....................    CiclosL=read_eeprom(37); 
02790:  MOVFF  FF2,7B0
02794:  BCF    FF2.6
02796:  BCF    FF2.7
02798:  CLRF   FAA
0279A:  MOVLW  25
0279C:  MOVWF  FA9
0279E:  BCF    FA6.6
027A0:  BCF    FA6.7
027A2:  BSF    FA6.0
027A4:  MOVF   FA8,W
027A6:  MOVLB  7
027A8:  BTFSC  xB0.6
027AA:  BSF    FF2.6
027AC:  BTFSC  xB0.7
027AE:  BSF    FF2.7
027B0:  MOVLB  3
027B2:  MOVWF  x49
....................    delay_ms(10); 
027B4:  MOVLW  0A
027B6:  MOVLB  7
027B8:  MOVWF  xC0
027BA:  MOVLB  0
027BC:  CALL   1E8C
....................    CiclosH=read_eeprom(38); 
027C0:  MOVFF  FF2,7B0
027C4:  BCF    FF2.6
027C6:  BCF    FF2.7
027C8:  CLRF   FAA
027CA:  MOVLW  26
027CC:  MOVWF  FA9
027CE:  BCF    FA6.6
027D0:  BCF    FA6.7
027D2:  BSF    FA6.0
027D4:  MOVF   FA8,W
027D6:  MOVLB  7
027D8:  BTFSC  xB0.6
027DA:  BSF    FF2.6
027DC:  BTFSC  xB0.7
027DE:  BSF    FF2.7
027E0:  MOVLB  3
027E2:  MOVWF  x4A
....................    delay_ms(10); 
027E4:  MOVLW  0A
027E6:  MOVLB  7
027E8:  MOVWF  xC0
027EA:  MOVLB  0
027EC:  CALL   1E8C
....................    TTrampa=read_eeprom(39); 
027F0:  MOVFF  FF2,7B0
027F4:  BCF    FF2.6
027F6:  BCF    FF2.7
027F8:  CLRF   FAA
027FA:  MOVLW  27
027FC:  MOVWF  FA9
027FE:  BCF    FA6.6
02800:  BCF    FA6.7
02802:  BSF    FA6.0
02804:  MOVF   FA8,W
02806:  MOVLB  7
02808:  BTFSC  xB0.6
0280A:  BSF    FF2.6
0280C:  BTFSC  xB0.7
0280E:  BSF    FF2.7
02810:  MOVLB  0
02812:  MOVWF  xC7
....................    delay_ms(10); 
02814:  MOVLW  0A
02816:  MOVLB  7
02818:  MOVWF  xC0
0281A:  MOVLB  0
0281C:  CALL   1E8C
....................    Ciclos=make16(CiclosH,CiclosL); 
02820:  MOVFF  34A,363
02824:  MOVFF  349,362
....................    delay_ms(10); 
02828:  MOVLW  0A
0282A:  MOVLB  7
0282C:  MOVWF  xC0
0282E:  MOVLB  0
02830:  CALL   1E8C
....................    G1=read_eeprom(42); 
02834:  MOVFF  FF2,7B0
02838:  BCF    FF2.6
0283A:  BCF    FF2.7
0283C:  CLRF   FAA
0283E:  MOVLW  2A
02840:  MOVWF  FA9
02842:  BCF    FA6.6
02844:  BCF    FA6.7
02846:  BSF    FA6.0
02848:  MOVF   FA8,W
0284A:  MOVLB  7
0284C:  BTFSC  xB0.6
0284E:  BSF    FF2.6
02850:  BTFSC  xB0.7
02852:  BSF    FF2.7
02854:  MOVLB  3
02856:  MOVWF  x8A
....................    delay_ms(10); 
02858:  MOVLW  0A
0285A:  MOVLB  7
0285C:  MOVWF  xC0
0285E:  MOVLB  0
02860:  CALL   1E8C
....................    G2=read_eeprom(43); 
02864:  MOVFF  FF2,7B0
02868:  BCF    FF2.6
0286A:  BCF    FF2.7
0286C:  CLRF   FAA
0286E:  MOVLW  2B
02870:  MOVWF  FA9
02872:  BCF    FA6.6
02874:  BCF    FA6.7
02876:  BSF    FA6.0
02878:  MOVF   FA8,W
0287A:  MOVLB  7
0287C:  BTFSC  xB0.6
0287E:  BSF    FF2.6
02880:  BTFSC  xB0.7
02882:  BSF    FF2.7
02884:  MOVLB  3
02886:  MOVWF  x8B
....................    delay_ms(10); 
02888:  MOVLW  0A
0288A:  MOVLB  7
0288C:  MOVWF  xC0
0288E:  MOVLB  0
02890:  CALL   1E8C
....................    sg1=read_eeprom(44); 
02894:  MOVFF  FF2,7B0
02898:  BCF    FF2.6
0289A:  BCF    FF2.7
0289C:  CLRF   FAA
0289E:  MOVLW  2C
028A0:  MOVWF  FA9
028A2:  BCF    FA6.6
028A4:  BCF    FA6.7
028A6:  BSF    FA6.0
028A8:  MOVF   FA8,W
028AA:  MOVLB  7
028AC:  BTFSC  xB0.6
028AE:  BSF    FF2.6
028B0:  BTFSC  xB0.7
028B2:  BSF    FF2.7
028B4:  MOVLB  3
028B6:  MOVWF  x8C
....................    delay_ms(10); 
028B8:  MOVLW  0A
028BA:  MOVLB  7
028BC:  MOVWF  xC0
028BE:  MOVLB  0
028C0:  CALL   1E8C
....................    sg2=read_eeprom(45); 
028C4:  MOVFF  FF2,7B0
028C8:  BCF    FF2.6
028CA:  BCF    FF2.7
028CC:  CLRF   FAA
028CE:  MOVLW  2D
028D0:  MOVWF  FA9
028D2:  BCF    FA6.6
028D4:  BCF    FA6.7
028D6:  BSF    FA6.0
028D8:  MOVF   FA8,W
028DA:  MOVLB  7
028DC:  BTFSC  xB0.6
028DE:  BSF    FF2.6
028E0:  BTFSC  xB0.7
028E2:  BSF    FF2.7
028E4:  MOVLB  3
028E6:  MOVWF  x8D
....................     
....................    for(i=0;i<30;i++){ 
028E8:  CLRF   x48
028EA:  MOVF   x48,W
028EC:  SUBLW  1D
028EE:  BNC   2968
....................       estados[i]=read_eeprom(i+50); 
028F0:  MOVLW  32
028F2:  ADDWF  x48,W
028F4:  MOVLB  7
028F6:  MOVWF  xB0
028F8:  MOVFF  FF2,7B1
028FC:  BCF    FF2.6
028FE:  BCF    FF2.7
02900:  CLRF   FAA
02902:  MOVFF  7B0,FA9
02906:  BCF    FA6.6
02908:  BCF    FA6.7
0290A:  BSF    FA6.0
0290C:  MOVF   FA8,W
0290E:  BTFSC  xB1.6
02910:  BSF    FF2.6
02912:  BTFSC  xB1.7
02914:  BSF    FF2.7
02916:  MOVFF  348,7B2
0291A:  MOVWF  xB3
0291C:  MOVLW  03
0291E:  MOVWF  xB5
02920:  MOVLW  F4
02922:  MOVWF  xB4
02924:  MOVLB  0
02926:  CALL   1EB4
....................       if(estados[i]>1) 
0292A:  MOVFF  348,7B1
0292E:  MOVLW  03
02930:  MOVLB  7
02932:  MOVWF  xB3
02934:  MOVLW  F4
02936:  MOVWF  xB2
02938:  MOVLB  0
0293A:  CALL   1EF6
0293E:  MOVLW  00
02940:  BTFSC  01.0
02942:  MOVLW  01
02944:  ANDLW  01
02946:  SUBLW  01
02948:  BC    2962
....................          estados[i]=1; 
0294A:  MOVFF  348,7B2
0294E:  MOVLW  01
02950:  MOVLB  7
02952:  MOVWF  xB3
02954:  MOVLW  03
02956:  MOVWF  xB5
02958:  MOVLW  F4
0295A:  MOVWF  xB4
0295C:  MOVLB  0
0295E:  CALL   1EB4
....................    } 
02962:  MOVLB  3
02964:  INCF   x48,F
02966:  BRA    28EA
....................     
....................    for(i=0;i<20;i++){//Lee valores almacenados de ciclos personalizados 
02968:  CLRF   x48
0296A:  MOVF   x48,W
0296C:  SUBLW  13
0296E:  BTFSS  FD8.0
02970:  BRA    2F3E
....................       CiclosPersonalizados[i].Temperatura=read_eeprom(100+(i*8));  
02972:  MOVF   x48,W
02974:  MULLW  0A
02976:  MOVF   FF3,W
02978:  MOVLB  7
0297A:  CLRF   xB1
0297C:  MOVWF  xB0
0297E:  MOVLW  C0
02980:  ADDWF  xB0,W
02982:  MOVWF  FE9
02984:  MOVLW  06
02986:  ADDWFC xB1,W
02988:  MOVWF  FEA
0298A:  MOVLB  3
0298C:  MOVF   x48,W
0298E:  MULLW  08
02990:  MOVF   FF3,W
02992:  ADDLW  64
02994:  MOVLB  7
02996:  MOVWF  xB2
02998:  MOVFF  FF2,7B3
0299C:  BCF    FF2.6
0299E:  BCF    FF2.7
029A0:  CLRF   FAA
029A2:  MOVFF  7B2,FA9
029A6:  BCF    FA6.6
029A8:  BCF    FA6.7
029AA:  BSF    FA6.0
029AC:  MOVF   FA8,W
029AE:  BTFSC  xB3.6
029B0:  BSF    FF2.6
029B2:  BTFSC  xB3.7
029B4:  BSF    FF2.7
029B6:  MOVWF  FEF
....................       CiclosPersonalizados[i].Minutoest=read_eeprom(101+(i*8));  
029B8:  MOVLB  3
029BA:  MOVF   x48,W
029BC:  MULLW  0A
029BE:  MOVF   FF3,W
029C0:  MOVLB  7
029C2:  CLRF   xB1
029C4:  MOVWF  xB0
029C6:  MOVLW  09
029C8:  ADDWF  xB0,W
029CA:  MOVWF  01
029CC:  MOVLW  00
029CE:  ADDWFC xB1,W
029D0:  MOVWF  03
029D2:  MOVF   01,W
029D4:  ADDLW  C0
029D6:  MOVWF  FE9
029D8:  MOVLW  06
029DA:  ADDWFC 03,W
029DC:  MOVWF  FEA
029DE:  MOVLB  3
029E0:  MOVF   x48,W
029E2:  MULLW  08
029E4:  MOVF   FF3,W
029E6:  ADDLW  65
029E8:  MOVLB  7
029EA:  MOVWF  xB2
029EC:  MOVFF  FF2,7B3
029F0:  BCF    FF2.6
029F2:  BCF    FF2.7
029F4:  CLRF   FAA
029F6:  MOVFF  7B2,FA9
029FA:  BCF    FA6.6
029FC:  BCF    FA6.7
029FE:  BSF    FA6.0
02A00:  MOVF   FA8,W
02A02:  BTFSC  xB3.6
02A04:  BSF    FF2.6
02A06:  BTFSC  xB3.7
02A08:  BSF    FF2.7
02A0A:  MOVWF  FEF
....................       CiclosPersonalizados[i].Segundoest=read_eeprom(102+(i*8));  
02A0C:  MOVLB  3
02A0E:  MOVF   x48,W
02A10:  MULLW  0A
02A12:  MOVF   FF3,W
02A14:  MOVLB  7
02A16:  CLRF   xB1
02A18:  MOVWF  xB0
02A1A:  MOVLW  03
02A1C:  ADDWF  xB0,W
02A1E:  MOVWF  01
02A20:  MOVLW  00
02A22:  ADDWFC xB1,W
02A24:  MOVWF  03
02A26:  MOVF   01,W
02A28:  ADDLW  C0
02A2A:  MOVWF  FE9
02A2C:  MOVLW  06
02A2E:  ADDWFC 03,W
02A30:  MOVWF  FEA
02A32:  MOVLB  3
02A34:  MOVF   x48,W
02A36:  MULLW  08
02A38:  MOVF   FF3,W
02A3A:  ADDLW  66
02A3C:  MOVLB  7
02A3E:  MOVWF  xB2
02A40:  MOVFF  FF2,7B3
02A44:  BCF    FF2.6
02A46:  BCF    FF2.7
02A48:  CLRF   FAA
02A4A:  MOVFF  7B2,FA9
02A4E:  BCF    FA6.6
02A50:  BCF    FA6.7
02A52:  BSF    FA6.0
02A54:  MOVF   FA8,W
02A56:  BTFSC  xB3.6
02A58:  BSF    FF2.6
02A5A:  BTFSC  xB3.7
02A5C:  BSF    FF2.7
02A5E:  MOVWF  FEF
....................       CiclosPersonalizados[i].Minutosec=read_eeprom(103+(i*8));  
02A60:  MOVLB  3
02A62:  MOVF   x48,W
02A64:  MULLW  0A
02A66:  MOVF   FF3,W
02A68:  MOVLB  7
02A6A:  CLRF   xB1
02A6C:  MOVWF  xB0
02A6E:  MOVLW  04
02A70:  ADDWF  xB0,W
02A72:  MOVWF  01
02A74:  MOVLW  00
02A76:  ADDWFC xB1,W
02A78:  MOVWF  03
02A7A:  MOVF   01,W
02A7C:  ADDLW  C0
02A7E:  MOVWF  FE9
02A80:  MOVLW  06
02A82:  ADDWFC 03,W
02A84:  MOVWF  FEA
02A86:  MOVLB  3
02A88:  MOVF   x48,W
02A8A:  MULLW  08
02A8C:  MOVF   FF3,W
02A8E:  ADDLW  67
02A90:  MOVLB  7
02A92:  MOVWF  xB2
02A94:  MOVFF  FF2,7B3
02A98:  BCF    FF2.6
02A9A:  BCF    FF2.7
02A9C:  CLRF   FAA
02A9E:  MOVFF  7B2,FA9
02AA2:  BCF    FA6.6
02AA4:  BCF    FA6.7
02AA6:  BSF    FA6.0
02AA8:  MOVF   FA8,W
02AAA:  BTFSC  xB3.6
02AAC:  BSF    FF2.6
02AAE:  BTFSC  xB3.7
02AB0:  BSF    FF2.7
02AB2:  MOVWF  FEF
....................       CiclosPersonalizados[i].Segundosec=read_eeprom(104+(i*8));  
02AB4:  MOVLB  3
02AB6:  MOVF   x48,W
02AB8:  MULLW  0A
02ABA:  MOVF   FF3,W
02ABC:  MOVLB  7
02ABE:  CLRF   xB1
02AC0:  MOVWF  xB0
02AC2:  MOVLW  05
02AC4:  ADDWF  xB0,W
02AC6:  MOVWF  01
02AC8:  MOVLW  00
02ACA:  ADDWFC xB1,W
02ACC:  MOVWF  03
02ACE:  MOVF   01,W
02AD0:  ADDLW  C0
02AD2:  MOVWF  FE9
02AD4:  MOVLW  06
02AD6:  ADDWFC 03,W
02AD8:  MOVWF  FEA
02ADA:  MOVLB  3
02ADC:  MOVF   x48,W
02ADE:  MULLW  08
02AE0:  MOVF   FF3,W
02AE2:  ADDLW  68
02AE4:  MOVLB  7
02AE6:  MOVWF  xB2
02AE8:  MOVFF  FF2,7B3
02AEC:  BCF    FF2.6
02AEE:  BCF    FF2.7
02AF0:  CLRF   FAA
02AF2:  MOVFF  7B2,FA9
02AF6:  BCF    FA6.6
02AF8:  BCF    FA6.7
02AFA:  BSF    FA6.0
02AFC:  MOVF   FA8,W
02AFE:  BTFSC  xB3.6
02B00:  BSF    FF2.6
02B02:  BTFSC  xB3.7
02B04:  BSF    FF2.7
02B06:  MOVWF  FEF
....................       CiclosPersonalizados[i].PulsosVacio=read_eeprom(105+(i*8));  
02B08:  MOVLB  3
02B0A:  MOVF   x48,W
02B0C:  MULLW  0A
02B0E:  MOVF   FF3,W
02B10:  MOVLB  7
02B12:  CLRF   xB1
02B14:  MOVWF  xB0
02B16:  MOVLW  06
02B18:  ADDWF  xB0,W
02B1A:  MOVWF  01
02B1C:  MOVLW  00
02B1E:  ADDWFC xB1,W
02B20:  MOVWF  03
02B22:  MOVF   01,W
02B24:  ADDLW  C0
02B26:  MOVWF  FE9
02B28:  MOVLW  06
02B2A:  ADDWFC 03,W
02B2C:  MOVWF  FEA
02B2E:  MOVLB  3
02B30:  MOVF   x48,W
02B32:  MULLW  08
02B34:  MOVF   FF3,W
02B36:  ADDLW  69
02B38:  MOVLB  7
02B3A:  MOVWF  xB2
02B3C:  MOVFF  FF2,7B3
02B40:  BCF    FF2.6
02B42:  BCF    FF2.7
02B44:  CLRF   FAA
02B46:  MOVFF  7B2,FA9
02B4A:  BCF    FA6.6
02B4C:  BCF    FA6.7
02B4E:  BSF    FA6.0
02B50:  MOVF   FA8,W
02B52:  BTFSC  xB3.6
02B54:  BSF    FF2.6
02B56:  BTFSC  xB3.7
02B58:  BSF    FF2.7
02B5A:  MOVWF  FEF
....................       CiclosPersonalizados[i].NivelVacio=read_eeprom(106+(i*8));  
02B5C:  MOVLB  3
02B5E:  MOVF   x48,W
02B60:  MULLW  0A
02B62:  MOVF   FF3,W
02B64:  MOVLB  7
02B66:  CLRF   xB1
02B68:  MOVWF  xB0
02B6A:  MOVLW  07
02B6C:  ADDWF  xB0,W
02B6E:  MOVWF  01
02B70:  MOVLW  00
02B72:  ADDWFC xB1,W
02B74:  MOVWF  03
02B76:  MOVF   01,W
02B78:  ADDLW  C0
02B7A:  MOVWF  FE9
02B7C:  MOVLW  06
02B7E:  ADDWFC 03,W
02B80:  MOVWF  FEA
02B82:  MOVLB  3
02B84:  MOVF   x48,W
02B86:  MULLW  08
02B88:  MOVF   FF3,W
02B8A:  ADDLW  6A
02B8C:  MOVLB  7
02B8E:  MOVWF  xB2
02B90:  MOVFF  FF2,7B3
02B94:  BCF    FF2.6
02B96:  BCF    FF2.7
02B98:  CLRF   FAA
02B9A:  MOVFF  7B2,FA9
02B9E:  BCF    FA6.6
02BA0:  BCF    FA6.7
02BA2:  BSF    FA6.0
02BA4:  MOVF   FA8,W
02BA6:  BTFSC  xB3.6
02BA8:  BSF    FF2.6
02BAA:  BTFSC  xB3.7
02BAC:  BSF    FF2.7
02BAE:  MOVWF  FEF
....................       CiclosPersonalizados[i].NivelDesfogue=read_eeprom(107+(i*8));  
02BB0:  MOVLB  3
02BB2:  MOVF   x48,W
02BB4:  MULLW  0A
02BB6:  MOVF   FF3,W
02BB8:  MOVLB  7
02BBA:  CLRF   xB1
02BBC:  MOVWF  xB0
02BBE:  MOVLW  08
02BC0:  ADDWF  xB0,W
02BC2:  MOVWF  01
02BC4:  MOVLW  00
02BC6:  ADDWFC xB1,W
02BC8:  MOVWF  03
02BCA:  MOVF   01,W
02BCC:  ADDLW  C0
02BCE:  MOVWF  FE9
02BD0:  MOVLW  06
02BD2:  ADDWFC 03,W
02BD4:  MOVWF  FEA
02BD6:  MOVLB  3
02BD8:  MOVF   x48,W
02BDA:  MULLW  08
02BDC:  MOVF   FF3,W
02BDE:  ADDLW  6B
02BE0:  MOVLB  7
02BE2:  MOVWF  xB2
02BE4:  MOVFF  FF2,7B3
02BE8:  BCF    FF2.6
02BEA:  BCF    FF2.7
02BEC:  CLRF   FAA
02BEE:  MOVFF  7B2,FA9
02BF2:  BCF    FA6.6
02BF4:  BCF    FA6.7
02BF6:  BSF    FA6.0
02BF8:  MOVF   FA8,W
02BFA:  BTFSC  xB3.6
02BFC:  BSF    FF2.6
02BFE:  BTFSC  xB3.7
02C00:  BSF    FF2.7
02C02:  MOVWF  FEF
....................        
....................       if(CiclosPersonalizados[i].Temperatura>134 || CiclosPersonalizados[i].Temperatura<105) 
02C04:  MOVLB  3
02C06:  MOVF   x48,W
02C08:  MULLW  0A
02C0A:  MOVF   FF3,W
02C0C:  MOVLB  7
02C0E:  CLRF   xB1
02C10:  MOVWF  xB0
02C12:  MOVLW  C0
02C14:  ADDWF  xB0,W
02C16:  MOVWF  FE9
02C18:  MOVLW  06
02C1A:  ADDWFC xB1,W
02C1C:  MOVWF  FEA
02C1E:  MOVF   FEF,W
02C20:  SUBLW  86
02C22:  BNC   2C44
02C24:  MOVLB  3
02C26:  MOVF   x48,W
02C28:  MULLW  0A
02C2A:  MOVF   FF3,W
02C2C:  MOVLB  7
02C2E:  CLRF   xB1
02C30:  MOVWF  xB0
02C32:  MOVLW  C0
02C34:  ADDWF  xB0,W
02C36:  MOVWF  FE9
02C38:  MOVLW  06
02C3A:  ADDWFC xB1,W
02C3C:  MOVWF  FEA
02C3E:  MOVF   FEF,W
02C40:  SUBLW  68
02C42:  BNC   2C62
....................          CiclosPersonalizados[i].Temperatura=121; 
02C44:  MOVLB  3
02C46:  MOVF   x48,W
02C48:  MULLW  0A
02C4A:  MOVF   FF3,W
02C4C:  MOVLB  7
02C4E:  CLRF   xB1
02C50:  MOVWF  xB0
02C52:  MOVLW  C0
02C54:  ADDWF  xB0,W
02C56:  MOVWF  FE9
02C58:  MOVLW  06
02C5A:  ADDWFC xB1,W
02C5C:  MOVWF  FEA
02C5E:  MOVLW  79
02C60:  MOVWF  FEF
....................       if(CiclosPersonalizados[i].Minutoest>99 || CiclosPersonalizados[i].Minutoest<1) 
02C62:  MOVLB  3
02C64:  MOVF   x48,W
02C66:  MULLW  0A
02C68:  MOVF   FF3,W
02C6A:  MOVLB  7
02C6C:  CLRF   xB1
02C6E:  MOVWF  xB0
02C70:  MOVLW  09
02C72:  ADDWF  xB0,W
02C74:  MOVWF  01
02C76:  MOVLW  00
02C78:  ADDWFC xB1,W
02C7A:  MOVWF  03
02C7C:  MOVF   01,W
02C7E:  ADDLW  C0
02C80:  MOVWF  FE9
02C82:  MOVLW  06
02C84:  ADDWFC 03,W
02C86:  MOVWF  FEA
02C88:  MOVF   FEF,W
02C8A:  SUBLW  63
02C8C:  BNC   2CB8
02C8E:  MOVLB  3
02C90:  MOVF   x48,W
02C92:  MULLW  0A
02C94:  MOVF   FF3,W
02C96:  MOVLB  7
02C98:  CLRF   xB1
02C9A:  MOVWF  xB0
02C9C:  MOVLW  09
02C9E:  ADDWF  xB0,W
02CA0:  MOVWF  01
02CA2:  MOVLW  00
02CA4:  ADDWFC xB1,W
02CA6:  MOVWF  03
02CA8:  MOVF   01,W
02CAA:  ADDLW  C0
02CAC:  MOVWF  FE9
02CAE:  MOVLW  06
02CB0:  ADDWFC 03,W
02CB2:  MOVWF  FEA
02CB4:  MOVF   FEF,F
02CB6:  BNZ   2CE2
....................          CiclosPersonalizados[i].Minutoest=3; 
02CB8:  MOVLB  3
02CBA:  MOVF   x48,W
02CBC:  MULLW  0A
02CBE:  MOVF   FF3,W
02CC0:  MOVLB  7
02CC2:  CLRF   xB1
02CC4:  MOVWF  xB0
02CC6:  MOVLW  09
02CC8:  ADDWF  xB0,W
02CCA:  MOVWF  01
02CCC:  MOVLW  00
02CCE:  ADDWFC xB1,W
02CD0:  MOVWF  03
02CD2:  MOVF   01,W
02CD4:  ADDLW  C0
02CD6:  MOVWF  FE9
02CD8:  MOVLW  06
02CDA:  ADDWFC 03,W
02CDC:  MOVWF  FEA
02CDE:  MOVLW  03
02CE0:  MOVWF  FEF
....................       if(CiclosPersonalizados[i].Minutosec>99 || CiclosPersonalizados[i].Minutosec<1) 
02CE2:  MOVLB  3
02CE4:  MOVF   x48,W
02CE6:  MULLW  0A
02CE8:  MOVF   FF3,W
02CEA:  MOVLB  7
02CEC:  CLRF   xB1
02CEE:  MOVWF  xB0
02CF0:  MOVLW  04
02CF2:  ADDWF  xB0,W
02CF4:  MOVWF  01
02CF6:  MOVLW  00
02CF8:  ADDWFC xB1,W
02CFA:  MOVWF  03
02CFC:  MOVF   01,W
02CFE:  ADDLW  C0
02D00:  MOVWF  FE9
02D02:  MOVLW  06
02D04:  ADDWFC 03,W
02D06:  MOVWF  FEA
02D08:  MOVF   FEF,W
02D0A:  SUBLW  63
02D0C:  BNC   2D38
02D0E:  MOVLB  3
02D10:  MOVF   x48,W
02D12:  MULLW  0A
02D14:  MOVF   FF3,W
02D16:  MOVLB  7
02D18:  CLRF   xB1
02D1A:  MOVWF  xB0
02D1C:  MOVLW  04
02D1E:  ADDWF  xB0,W
02D20:  MOVWF  01
02D22:  MOVLW  00
02D24:  ADDWFC xB1,W
02D26:  MOVWF  03
02D28:  MOVF   01,W
02D2A:  ADDLW  C0
02D2C:  MOVWF  FE9
02D2E:  MOVLW  06
02D30:  ADDWFC 03,W
02D32:  MOVWF  FEA
02D34:  MOVF   FEF,F
02D36:  BNZ   2D62
....................          CiclosPersonalizados[i].Minutosec=1;    
02D38:  MOVLB  3
02D3A:  MOVF   x48,W
02D3C:  MULLW  0A
02D3E:  MOVF   FF3,W
02D40:  MOVLB  7
02D42:  CLRF   xB1
02D44:  MOVWF  xB0
02D46:  MOVLW  04
02D48:  ADDWF  xB0,W
02D4A:  MOVWF  01
02D4C:  MOVLW  00
02D4E:  ADDWFC xB1,W
02D50:  MOVWF  03
02D52:  MOVF   01,W
02D54:  ADDLW  C0
02D56:  MOVWF  FE9
02D58:  MOVLW  06
02D5A:  ADDWFC 03,W
02D5C:  MOVWF  FEA
02D5E:  MOVLW  01
02D60:  MOVWF  FEF
....................       if(CiclosPersonalizados[i].Segundoest>59) 
02D62:  MOVLB  3
02D64:  MOVF   x48,W
02D66:  MULLW  0A
02D68:  MOVF   FF3,W
02D6A:  MOVLB  7
02D6C:  CLRF   xB1
02D6E:  MOVWF  xB0
02D70:  MOVLW  03
02D72:  ADDWF  xB0,W
02D74:  MOVWF  01
02D76:  MOVLW  00
02D78:  ADDWFC xB1,W
02D7A:  MOVWF  03
02D7C:  MOVF   01,W
02D7E:  ADDLW  C0
02D80:  MOVWF  FE9
02D82:  MOVLW  06
02D84:  ADDWFC 03,W
02D86:  MOVWF  FEA
02D88:  MOVF   FEF,W
02D8A:  SUBLW  3B
02D8C:  BC    2DB6
....................          CiclosPersonalizados[i].Segundoest=0; 
02D8E:  MOVLB  3
02D90:  MOVF   x48,W
02D92:  MULLW  0A
02D94:  MOVF   FF3,W
02D96:  MOVLB  7
02D98:  CLRF   xB1
02D9A:  MOVWF  xB0
02D9C:  MOVLW  03
02D9E:  ADDWF  xB0,W
02DA0:  MOVWF  01
02DA2:  MOVLW  00
02DA4:  ADDWFC xB1,W
02DA6:  MOVWF  03
02DA8:  MOVF   01,W
02DAA:  ADDLW  C0
02DAC:  MOVWF  FE9
02DAE:  MOVLW  06
02DB0:  ADDWFC 03,W
02DB2:  MOVWF  FEA
02DB4:  CLRF   FEF
....................       if(CiclosPersonalizados[i].Segundosec>59) 
02DB6:  MOVLB  3
02DB8:  MOVF   x48,W
02DBA:  MULLW  0A
02DBC:  MOVF   FF3,W
02DBE:  MOVLB  7
02DC0:  CLRF   xB1
02DC2:  MOVWF  xB0
02DC4:  MOVLW  05
02DC6:  ADDWF  xB0,W
02DC8:  MOVWF  01
02DCA:  MOVLW  00
02DCC:  ADDWFC xB1,W
02DCE:  MOVWF  03
02DD0:  MOVF   01,W
02DD2:  ADDLW  C0
02DD4:  MOVWF  FE9
02DD6:  MOVLW  06
02DD8:  ADDWFC 03,W
02DDA:  MOVWF  FEA
02DDC:  MOVF   FEF,W
02DDE:  SUBLW  3B
02DE0:  BC    2E0A
....................          CiclosPersonalizados[i].Segundosec=0;       
02DE2:  MOVLB  3
02DE4:  MOVF   x48,W
02DE6:  MULLW  0A
02DE8:  MOVF   FF3,W
02DEA:  MOVLB  7
02DEC:  CLRF   xB1
02DEE:  MOVWF  xB0
02DF0:  MOVLW  05
02DF2:  ADDWF  xB0,W
02DF4:  MOVWF  01
02DF6:  MOVLW  00
02DF8:  ADDWFC xB1,W
02DFA:  MOVWF  03
02DFC:  MOVF   01,W
02DFE:  ADDLW  C0
02E00:  MOVWF  FE9
02E02:  MOVLW  06
02E04:  ADDWFC 03,W
02E06:  MOVWF  FEA
02E08:  CLRF   FEF
....................       if(CiclosPersonalizados[i].PulsosVacio>15) 
02E0A:  MOVLB  3
02E0C:  MOVF   x48,W
02E0E:  MULLW  0A
02E10:  MOVF   FF3,W
02E12:  MOVLB  7
02E14:  CLRF   xB1
02E16:  MOVWF  xB0
02E18:  MOVLW  06
02E1A:  ADDWF  xB0,W
02E1C:  MOVWF  01
02E1E:  MOVLW  00
02E20:  ADDWFC xB1,W
02E22:  MOVWF  03
02E24:  MOVF   01,W
02E26:  ADDLW  C0
02E28:  MOVWF  FE9
02E2A:  MOVLW  06
02E2C:  ADDWFC 03,W
02E2E:  MOVWF  FEA
02E30:  MOVF   FEF,W
02E32:  SUBLW  0F
02E34:  BC    2E60
....................          CiclosPersonalizados[i].PulsosVacio=4; 
02E36:  MOVLB  3
02E38:  MOVF   x48,W
02E3A:  MULLW  0A
02E3C:  MOVF   FF3,W
02E3E:  MOVLB  7
02E40:  CLRF   xB1
02E42:  MOVWF  xB0
02E44:  MOVLW  06
02E46:  ADDWF  xB0,W
02E48:  MOVWF  01
02E4A:  MOVLW  00
02E4C:  ADDWFC xB1,W
02E4E:  MOVWF  03
02E50:  MOVF   01,W
02E52:  ADDLW  C0
02E54:  MOVWF  FE9
02E56:  MOVLW  06
02E58:  ADDWFC 03,W
02E5A:  MOVWF  FEA
02E5C:  MOVLW  04
02E5E:  MOVWF  FEF
....................       if(CiclosPersonalizados[i].NivelVacio>100 || CiclosPersonalizados[i].NivelVacio<10) 
02E60:  MOVLB  3
02E62:  MOVF   x48,W
02E64:  MULLW  0A
02E66:  MOVF   FF3,W
02E68:  MOVLB  7
02E6A:  CLRF   xB1
02E6C:  MOVWF  xB0
02E6E:  MOVLW  07
02E70:  ADDWF  xB0,W
02E72:  MOVWF  01
02E74:  MOVLW  00
02E76:  ADDWFC xB1,W
02E78:  MOVWF  03
02E7A:  MOVF   01,W
02E7C:  ADDLW  C0
02E7E:  MOVWF  FE9
02E80:  MOVLW  06
02E82:  ADDWFC 03,W
02E84:  MOVWF  FEA
02E86:  MOVF   FEF,W
02E88:  SUBLW  64
02E8A:  BNC   2EB8
02E8C:  MOVLB  3
02E8E:  MOVF   x48,W
02E90:  MULLW  0A
02E92:  MOVF   FF3,W
02E94:  MOVLB  7
02E96:  CLRF   xB1
02E98:  MOVWF  xB0
02E9A:  MOVLW  07
02E9C:  ADDWF  xB0,W
02E9E:  MOVWF  01
02EA0:  MOVLW  00
02EA2:  ADDWFC xB1,W
02EA4:  MOVWF  03
02EA6:  MOVF   01,W
02EA8:  ADDLW  C0
02EAA:  MOVWF  FE9
02EAC:  MOVLW  06
02EAE:  ADDWFC 03,W
02EB0:  MOVWF  FEA
02EB2:  MOVF   FEF,W
02EB4:  SUBLW  09
02EB6:  BNC   2EE2
....................          CiclosPersonalizados[i].NivelVacio=25;    
02EB8:  MOVLB  3
02EBA:  MOVF   x48,W
02EBC:  MULLW  0A
02EBE:  MOVF   FF3,W
02EC0:  MOVLB  7
02EC2:  CLRF   xB1
02EC4:  MOVWF  xB0
02EC6:  MOVLW  07
02EC8:  ADDWF  xB0,W
02ECA:  MOVWF  01
02ECC:  MOVLW  00
02ECE:  ADDWFC xB1,W
02ED0:  MOVWF  03
02ED2:  MOVF   01,W
02ED4:  ADDLW  C0
02ED6:  MOVWF  FE9
02ED8:  MOVLW  06
02EDA:  ADDWFC 03,W
02EDC:  MOVWF  FEA
02EDE:  MOVLW  19
02EE0:  MOVWF  FEF
....................       if(CiclosPersonalizados[i].NivelDesfogue>6) 
02EE2:  MOVLB  3
02EE4:  MOVF   x48,W
02EE6:  MULLW  0A
02EE8:  MOVF   FF3,W
02EEA:  MOVLB  7
02EEC:  CLRF   xB1
02EEE:  MOVWF  xB0
02EF0:  MOVLW  08
02EF2:  ADDWF  xB0,W
02EF4:  MOVWF  01
02EF6:  MOVLW  00
02EF8:  ADDWFC xB1,W
02EFA:  MOVWF  03
02EFC:  MOVF   01,W
02EFE:  ADDLW  C0
02F00:  MOVWF  FE9
02F02:  MOVLW  06
02F04:  ADDWFC 03,W
02F06:  MOVWF  FEA
02F08:  MOVF   FEF,W
02F0A:  SUBLW  06
02F0C:  BC    2F38
....................          CiclosPersonalizados[i].NivelDesfogue=6; 
02F0E:  MOVLB  3
02F10:  MOVF   x48,W
02F12:  MULLW  0A
02F14:  MOVF   FF3,W
02F16:  MOVLB  7
02F18:  CLRF   xB1
02F1A:  MOVWF  xB0
02F1C:  MOVLW  08
02F1E:  ADDWF  xB0,W
02F20:  MOVWF  01
02F22:  MOVLW  00
02F24:  ADDWFC xB1,W
02F26:  MOVWF  03
02F28:  MOVF   01,W
02F2A:  ADDLW  C0
02F2C:  MOVWF  FE9
02F2E:  MOVLW  06
02F30:  ADDWFC 03,W
02F32:  MOVWF  FEA
02F34:  MOVLW  06
02F36:  MOVWF  FEF
....................    } 
02F38:  MOVLB  3
02F3A:  INCF   x48,F
02F3C:  BRA    296A
....................     
....................    for(i=0;i<10;i++){//Lee contraseas de usuarios 
02F3E:  CLRF   x48
02F40:  MOVF   x48,W
02F42:  SUBLW  09
02F44:  BNC   3026
....................       for(j=0;j<4;j++){ 
02F46:  MOVLB  0
02F48:  CLRF   xBF
02F4A:  MOVF   xBF,W
02F4C:  SUBLW  03
02F4E:  BNC   3020
....................          Clave[i].Password[j]=read_eeprom((300+j)+(i*4)); 
02F50:  MOVLB  3
02F52:  MOVF   x48,W
02F54:  MULLW  04
02F56:  MOVF   FF3,W
02F58:  MOVLB  7
02F5A:  CLRF   xB1
02F5C:  MOVWF  xB0
02F5E:  CLRF   03
02F60:  MOVLB  0
02F62:  MOVF   xBF,W
02F64:  MOVLB  7
02F66:  ADDWF  xB0,W
02F68:  MOVWF  01
02F6A:  MOVF   xB1,W
02F6C:  ADDWFC 03,F
02F6E:  MOVF   01,W
02F70:  ADDLW  88
02F72:  MOVWF  FE9
02F74:  MOVLW  07
02F76:  ADDWFC 03,W
02F78:  MOVWF  FEA
02F7A:  MOVLW  2C
02F7C:  MOVLB  0
02F7E:  ADDWF  xBF,W
02F80:  MOVLB  7
02F82:  MOVWF  xB2
02F84:  MOVLW  01
02F86:  MOVWF  xB3
02F88:  BTFSC  FD8.0
02F8A:  INCF   xB3,F
02F8C:  MOVLB  3
02F8E:  MOVF   x48,W
02F90:  MULLW  04
02F92:  MOVF   FF3,W
02F94:  MOVLB  7
02F96:  ADDWF  xB2,F
02F98:  MOVLW  00
02F9A:  ADDWFC xB3,F
02F9C:  MOVFF  FF2,7B4
02FA0:  BCF    FF2.6
02FA2:  BCF    FF2.7
02FA4:  MOVFF  7B3,FAA
02FA8:  MOVFF  7B2,FA9
02FAC:  BCF    FA6.6
02FAE:  BCF    FA6.7
02FB0:  BSF    FA6.0
02FB2:  MOVF   FA8,W
02FB4:  BTFSC  xB4.6
02FB6:  BSF    FF2.6
02FB8:  BTFSC  xB4.7
02FBA:  BSF    FF2.7
02FBC:  MOVWF  FEF
....................          if(Clave[i].Password[j]>9) 
02FBE:  MOVLB  3
02FC0:  MOVF   x48,W
02FC2:  MULLW  04
02FC4:  MOVF   FF3,W
02FC6:  MOVLB  7
02FC8:  CLRF   xB1
02FCA:  MOVWF  xB0
02FCC:  CLRF   03
02FCE:  MOVLB  0
02FD0:  MOVF   xBF,W
02FD2:  MOVLB  7
02FD4:  ADDWF  xB0,W
02FD6:  MOVWF  01
02FD8:  MOVF   xB1,W
02FDA:  ADDWFC 03,F
02FDC:  MOVF   01,W
02FDE:  ADDLW  88
02FE0:  MOVWF  FE9
02FE2:  MOVLW  07
02FE4:  ADDWFC 03,W
02FE6:  MOVWF  FEA
02FE8:  MOVF   FEF,W
02FEA:  SUBLW  09
02FEC:  BC    301A
....................             Clave[i].Password[j]=0; 
02FEE:  MOVLB  3
02FF0:  MOVF   x48,W
02FF2:  MULLW  04
02FF4:  MOVF   FF3,W
02FF6:  MOVLB  7
02FF8:  CLRF   xB1
02FFA:  MOVWF  xB0
02FFC:  CLRF   03
02FFE:  MOVLB  0
03000:  MOVF   xBF,W
03002:  MOVLB  7
03004:  ADDWF  xB0,W
03006:  MOVWF  01
03008:  MOVF   xB1,W
0300A:  ADDWFC 03,F
0300C:  MOVF   01,W
0300E:  ADDLW  88
03010:  MOVWF  FE9
03012:  MOVLW  07
03014:  ADDWFC 03,W
03016:  MOVWF  FEA
03018:  CLRF   FEF
....................       } 
0301A:  MOVLB  0
0301C:  INCF   xBF,F
0301E:  BRA    2F4A
....................    } 
03020:  MOVLB  3
03022:  INCF   x48,F
03024:  BRA    2F40
....................     
....................    diaCiclos=read_ext_eeprom(2+(cicloVisto*320)); 
03026:  MOVLB  7
03028:  CLRF   xBB
0302A:  MOVFF  C0,7BA
0302E:  MOVLW  01
03030:  MOVWF  xBD
03032:  MOVLW  40
03034:  MOVWF  xBC
03036:  MOVLB  0
03038:  CALL   1F28
0303C:  MOVFF  02,03
03040:  MOVF   01,W
03042:  ADDLW  02
03044:  MOVLB  7
03046:  MOVWF  xB0
03048:  MOVLW  00
0304A:  ADDWFC 02,W
0304C:  MOVWF  xB1
0304E:  MOVWF  xB6
03050:  MOVFF  7B0,7B5
03054:  MOVLB  0
03056:  CALL   202A
0305A:  MOVFF  01,3EF
....................    if(diaCiclos>31) 
0305E:  MOVLB  3
03060:  MOVF   xEF,W
03062:  SUBLW  1F
03064:  BC    306A
....................       diaCiclos=1; 
03066:  MOVLW  01
03068:  MOVWF  xEF
....................    mesCiclos=read_ext_eeprom(3+(cicloVisto*320)); 
0306A:  MOVLB  7
0306C:  CLRF   xBB
0306E:  MOVFF  C0,7BA
03072:  MOVLW  01
03074:  MOVWF  xBD
03076:  MOVLW  40
03078:  MOVWF  xBC
0307A:  MOVLB  0
0307C:  CALL   1F28
03080:  MOVFF  02,03
03084:  MOVF   01,W
03086:  ADDLW  03
03088:  MOVLB  7
0308A:  MOVWF  xB0
0308C:  MOVLW  00
0308E:  ADDWFC 02,W
03090:  MOVWF  xB1
03092:  MOVWF  xB6
03094:  MOVFF  7B0,7B5
03098:  MOVLB  0
0309A:  CALL   202A
0309E:  MOVFF  01,3F0
....................    if(mesCiclos>12) 
030A2:  MOVLB  3
030A4:  MOVF   xF0,W
030A6:  SUBLW  0C
030A8:  BC    30AE
....................       mesCiclos=1; 
030AA:  MOVLW  01
030AC:  MOVWF  xF0
....................    yearCiclos=read_ext_eeprom(4+(cicloVisto*320)); 
030AE:  MOVLB  7
030B0:  CLRF   xBB
030B2:  MOVFF  C0,7BA
030B6:  MOVLW  01
030B8:  MOVWF  xBD
030BA:  MOVLW  40
030BC:  MOVWF  xBC
030BE:  MOVLB  0
030C0:  CALL   1F28
030C4:  MOVFF  02,03
030C8:  MOVF   01,W
030CA:  ADDLW  04
030CC:  MOVLB  7
030CE:  MOVWF  xB0
030D0:  MOVLW  00
030D2:  ADDWFC 02,W
030D4:  MOVWF  xB1
030D6:  MOVWF  xB6
030D8:  MOVFF  7B0,7B5
030DC:  MOVLB  0
030DE:  CALL   202A
030E2:  MOVFF  01,3F1
....................    if(yearCiclos>99) 
030E6:  MOVLB  3
030E8:  MOVF   xF1,W
030EA:  SUBLW  63
030EC:  BC    30F2
....................       yearCiclos=19; 
030EE:  MOVLW  13
030F0:  MOVWF  xF1
....................    cicloCiclos=read_ext_eeprom(1+(cicloVisto*320)); 
030F2:  MOVLB  7
030F4:  CLRF   xBB
030F6:  MOVFF  C0,7BA
030FA:  MOVLW  01
030FC:  MOVWF  xBD
030FE:  MOVLW  40
03100:  MOVWF  xBC
03102:  MOVLB  0
03104:  CALL   1F28
03108:  MOVFF  02,03
0310C:  MOVF   01,W
0310E:  ADDLW  01
03110:  MOVLB  7
03112:  MOVWF  xB0
03114:  MOVLW  00
03116:  ADDWFC 02,W
03118:  MOVWF  xB1
0311A:  MOVWF  xB6
0311C:  MOVFF  7B0,7B5
03120:  MOVLB  0
03122:  CALL   202A
03126:  MOVFF  01,3F3
....................    if(cicloCiclos>20) 
0312A:  MOVLB  3
0312C:  MOVF   xF3,W
0312E:  SUBLW  14
03130:  BC    3136
....................       cicloCiclos=1; 
03132:  MOVLW  01
03134:  MOVWF  xF3
....................    usuarioCiclos=read_ext_eeprom((cicloVisto*320)); 
03136:  MOVLB  7
03138:  CLRF   xBB
0313A:  MOVFF  C0,7BA
0313E:  MOVLW  01
03140:  MOVWF  xBD
03142:  MOVLW  40
03144:  MOVWF  xBC
03146:  MOVLB  0
03148:  CALL   1F28
0314C:  MOVFF  02,7B1
03150:  MOVFF  01,7B0
03154:  MOVFF  02,7B6
03158:  MOVFF  01,7B5
0315C:  CALL   202A
03160:  MOVFF  01,3F2
....................    if(usuarioCiclos>10) 
03164:  MOVLB  3
03166:  MOVF   xF2,W
03168:  SUBLW  0A
0316A:  BC    3170
....................       usuarioCiclos=1; 
0316C:  MOVLW  01
0316E:  MOVWF  xF2
....................    for(i=0;i<7;i++){//Lee Valores para completar la Tabla 
03170:  CLRF   x48
03172:  MOVF   x48,W
03174:  SUBLW  06
03176:  BTFSS  FD8.0
03178:  BRA    36D4
....................       horaCiclos[i]=read_ext_eeprom((cicloVisto*320)+11+((cicloVisualizado+i)*9)); 
0317A:  CLRF   03
0317C:  MOVF   x48,W
0317E:  ADDLW  DA
03180:  MOVWF  01
03182:  MOVLW  03
03184:  ADDWFC 03,F
03186:  MOVFF  01,7B0
0318A:  MOVLB  7
0318C:  MOVFF  03,7B1
03190:  CLRF   xBB
03192:  MOVFF  C0,7BA
03196:  MOVLW  01
03198:  MOVWF  xBD
0319A:  MOVLW  40
0319C:  MOVWF  xBC
0319E:  MOVLB  0
031A0:  CALL   1F28
031A4:  MOVFF  02,7B3
031A8:  MOVFF  01,7B2
031AC:  MOVLW  0B
031AE:  MOVLB  7
031B0:  ADDWF  xB2,F
031B2:  MOVLW  00
031B4:  ADDWFC xB3,F
031B6:  MOVLB  3
031B8:  MOVF   x48,W
031BA:  MOVLB  0
031BC:  ADDWF  xC2,W
031BE:  MULLW  09
031C0:  MOVF   FF3,W
031C2:  MOVLB  7
031C4:  ADDWF  xB2,F
031C6:  MOVLW  00
031C8:  ADDWFC xB3,F
031CA:  MOVFF  7B3,7B6
031CE:  MOVFF  7B2,7B5
031D2:  MOVLB  0
031D4:  CALL   202A
031D8:  MOVFF  7B1,FEA
031DC:  MOVFF  7B0,FE9
031E0:  MOVFF  01,FEF
....................       if(horaCiclos[i]>24) 
031E4:  CLRF   03
031E6:  MOVLB  3
031E8:  MOVF   x48,W
031EA:  ADDLW  DA
031EC:  MOVWF  FE9
031EE:  MOVLW  03
031F0:  ADDWFC 03,W
031F2:  MOVWF  FEA
031F4:  MOVF   FEF,W
031F6:  SUBLW  18
031F8:  BC    320A
....................          horaCiclos[i]=0; 
031FA:  CLRF   03
031FC:  MOVF   x48,W
031FE:  ADDLW  DA
03200:  MOVWF  FE9
03202:  MOVLW  03
03204:  ADDWFC 03,W
03206:  MOVWF  FEA
03208:  CLRF   FEF
....................       minutoCiclos[i]=read_ext_eeprom((cicloVisto*320)+12+((cicloVisualizado+i)*9)); 
0320A:  CLRF   03
0320C:  MOVF   x48,W
0320E:  ADDLW  E1
03210:  MOVWF  01
03212:  MOVLW  03
03214:  ADDWFC 03,F
03216:  MOVFF  01,7B0
0321A:  MOVLB  7
0321C:  MOVFF  03,7B1
03220:  CLRF   xBB
03222:  MOVFF  C0,7BA
03226:  MOVLW  01
03228:  MOVWF  xBD
0322A:  MOVLW  40
0322C:  MOVWF  xBC
0322E:  MOVLB  0
03230:  CALL   1F28
03234:  MOVFF  02,7B3
03238:  MOVFF  01,7B2
0323C:  MOVLW  0C
0323E:  MOVLB  7
03240:  ADDWF  xB2,F
03242:  MOVLW  00
03244:  ADDWFC xB3,F
03246:  MOVLB  3
03248:  MOVF   x48,W
0324A:  MOVLB  0
0324C:  ADDWF  xC2,W
0324E:  MULLW  09
03250:  MOVF   FF3,W
03252:  MOVLB  7
03254:  ADDWF  xB2,F
03256:  MOVLW  00
03258:  ADDWFC xB3,F
0325A:  MOVFF  7B3,7B6
0325E:  MOVFF  7B2,7B5
03262:  MOVLB  0
03264:  CALL   202A
03268:  MOVFF  7B1,FEA
0326C:  MOVFF  7B0,FE9
03270:  MOVFF  01,FEF
....................       if(minutoCiclos[i]>59) 
03274:  CLRF   03
03276:  MOVLB  3
03278:  MOVF   x48,W
0327A:  ADDLW  E1
0327C:  MOVWF  FE9
0327E:  MOVLW  03
03280:  ADDWFC 03,W
03282:  MOVWF  FEA
03284:  MOVF   FEF,W
03286:  SUBLW  3B
03288:  BC    329A
....................          minutoCiclos[i]=0; 
0328A:  CLRF   03
0328C:  MOVF   x48,W
0328E:  ADDLW  E1
03290:  MOVWF  FE9
03292:  MOVLW  03
03294:  ADDWFC 03,W
03296:  MOVWF  FEA
03298:  CLRF   FEF
....................       TCiclos[i]=read_ext_eeprom((cicloVisto*320)+5+((cicloVisualizado+i)*9))+inttofloat(read_ext_eeprom((cicloVisto*320)+6+((cicloVisualizado+i)*9))); 
0329A:  MOVF   x48,W
0329C:  MULLW  04
0329E:  MOVF   FF3,W
032A0:  CLRF   03
032A2:  ADDLW  A2
032A4:  MOVWF  01
032A6:  MOVLW  03
032A8:  ADDWFC 03,F
032AA:  MOVFF  01,7B0
032AE:  MOVLB  7
032B0:  MOVFF  03,7B1
032B4:  CLRF   xBB
032B6:  MOVFF  C0,7BA
032BA:  MOVLW  01
032BC:  MOVWF  xBD
032BE:  MOVLW  40
032C0:  MOVWF  xBC
032C2:  MOVLB  0
032C4:  CALL   1F28
032C8:  MOVFF  02,7B3
032CC:  MOVFF  01,7B2
032D0:  MOVLW  05
032D2:  MOVLB  7
032D4:  ADDWF  xB2,F
032D6:  MOVLW  00
032D8:  ADDWFC xB3,F
032DA:  MOVLB  3
032DC:  MOVF   x48,W
032DE:  MOVLB  0
032E0:  ADDWF  xC2,W
032E2:  MULLW  09
032E4:  MOVF   FF3,W
032E6:  MOVLB  7
032E8:  ADDWF  xB2,F
032EA:  MOVLW  00
032EC:  ADDWFC xB3,F
032EE:  MOVFF  7B3,7B6
032F2:  MOVFF  7B2,7B5
032F6:  MOVLB  0
032F8:  CALL   202A
032FC:  MOVFF  01,7B2
03300:  MOVLB  7
03302:  CLRF   xBB
03304:  MOVFF  C0,7BA
03308:  MOVLW  01
0330A:  MOVWF  xBD
0330C:  MOVLW  40
0330E:  MOVWF  xBC
03310:  MOVLB  0
03312:  CALL   1F28
03316:  MOVFF  02,7B4
0331A:  MOVFF  01,7B3
0331E:  MOVLW  06
03320:  MOVLB  7
03322:  ADDWF  xB3,F
03324:  MOVLW  00
03326:  ADDWFC xB4,F
03328:  MOVLB  3
0332A:  MOVF   x48,W
0332C:  MOVLB  0
0332E:  ADDWF  xC2,W
03330:  MULLW  09
03332:  MOVF   FF3,W
03334:  MOVLB  7
03336:  ADDWF  xB3,F
03338:  MOVLW  00
0333A:  ADDWFC xB4,F
0333C:  MOVFF  7B4,7B6
03340:  MOVFF  7B3,7B5
03344:  MOVLB  0
03346:  CALL   202A
0334A:  MOVFF  01,7B3
0334E:  MOVFF  01,7B4
03352:  CALL   2230
03356:  MOVFF  00,7B3
0335A:  MOVFF  01,7B4
0335E:  MOVFF  02,7B5
03362:  MOVFF  03,7B6
03366:  MOVLB  7
03368:  CLRF   xC3
0336A:  MOVFF  7B2,7C2
0336E:  MOVLB  0
03370:  CALL   1E56
03374:  MOVFF  FEA,7B8
03378:  MOVFF  FE9,7B7
0337C:  BCF    FD8.1
0337E:  MOVFF  03,7C5
03382:  MOVFF  02,7C4
03386:  MOVFF  01,7C3
0338A:  MOVFF  00,7C2
0338E:  MOVFF  7B6,7C9
03392:  MOVFF  7B5,7C8
03396:  MOVFF  7B4,7C7
0339A:  MOVFF  7B3,7C6
0339E:  CALL   2270
033A2:  MOVFF  7B8,FEA
033A6:  MOVFF  7B7,FE9
033AA:  MOVFF  7B1,FEA
033AE:  MOVFF  7B0,FE9
033B2:  MOVFF  00,FEF
033B6:  MOVFF  01,FEC
033BA:  MOVFF  02,FEC
033BE:  MOVFF  03,FEC
....................       if(TCiclos[i]>200) 
033C2:  MOVLB  3
033C4:  MOVF   x48,W
033C6:  MULLW  04
033C8:  MOVF   FF3,W
033CA:  CLRF   03
033CC:  ADDLW  A2
033CE:  MOVWF  FE9
033D0:  MOVLW  03
033D2:  ADDWFC 03,W
033D4:  MOVWF  FEA
033D6:  MOVFF  FEF,7B0
033DA:  MOVFF  FEC,7B1
033DE:  MOVFF  FEC,7B2
033E2:  MOVFF  FEC,7B3
033E6:  MOVLB  7
033E8:  CLRF   xB9
033EA:  CLRF   xB8
033EC:  MOVLW  48
033EE:  MOVWF  xB7
033F0:  MOVLW  86
033F2:  MOVWF  xB6
033F4:  MOVFF  7B3,7BD
033F8:  MOVFF  7B2,7BC
033FC:  MOVFF  7B1,7BB
03400:  MOVFF  7B0,7BA
03404:  MOVLB  0
03406:  CALL   24E8
0340A:  BNC   342A
....................          TCiclos[i]=0; 
0340C:  MOVLB  3
0340E:  MOVF   x48,W
03410:  MULLW  04
03412:  MOVF   FF3,W
03414:  CLRF   03
03416:  ADDLW  A2
03418:  MOVWF  FE9
0341A:  MOVLW  03
0341C:  ADDWFC 03,W
0341E:  MOVWF  FEA
03420:  CLRF   FEF
03422:  CLRF   FEC
03424:  CLRF   FEC
03426:  CLRF   FEC
03428:  MOVLB  0
....................       PcCiclos[i]=make16(read_ext_eeprom((cicloVisto*320)+7+((cicloVisualizado+i)*9)),read_ext_eeprom((cicloVisto*320)+8+((cicloVisualizado+i)*9))); 
0342A:  BCF    FD8.0
0342C:  MOVLB  3
0342E:  RLCF   x48,W
03430:  CLRF   03
03432:  ADDLW  BE
03434:  MOVWF  01
03436:  MOVLW  03
03438:  ADDWFC 03,F
0343A:  MOVFF  01,7B0
0343E:  MOVLB  7
03440:  MOVFF  03,7B1
03444:  CLRF   xBB
03446:  MOVFF  C0,7BA
0344A:  MOVLW  01
0344C:  MOVWF  xBD
0344E:  MOVLW  40
03450:  MOVWF  xBC
03452:  MOVLB  0
03454:  CALL   1F28
03458:  MOVFF  02,7B3
0345C:  MOVFF  01,7B2
03460:  MOVLW  07
03462:  MOVLB  7
03464:  ADDWF  xB2,F
03466:  MOVLW  00
03468:  ADDWFC xB3,F
0346A:  MOVLB  3
0346C:  MOVF   x48,W
0346E:  MOVLB  0
03470:  ADDWF  xC2,W
03472:  MULLW  09
03474:  MOVF   FF3,W
03476:  MOVLB  7
03478:  ADDWF  xB2,F
0347A:  MOVLW  00
0347C:  ADDWFC xB3,F
0347E:  MOVFF  7B3,7B6
03482:  MOVFF  7B2,7B5
03486:  MOVLB  0
03488:  CALL   202A
0348C:  MOVFF  01,7B2
03490:  MOVLB  7
03492:  CLRF   xBB
03494:  MOVFF  C0,7BA
03498:  MOVLW  01
0349A:  MOVWF  xBD
0349C:  MOVLW  40
0349E:  MOVWF  xBC
034A0:  MOVLB  0
034A2:  CALL   1F28
034A6:  MOVFF  02,7B4
034AA:  MOVFF  01,7B3
034AE:  MOVLW  08
034B0:  MOVLB  7
034B2:  ADDWF  xB3,F
034B4:  MOVLW  00
034B6:  ADDWFC xB4,F
034B8:  MOVLB  3
034BA:  MOVF   x48,W
034BC:  MOVLB  0
034BE:  ADDWF  xC2,W
034C0:  MULLW  09
034C2:  MOVF   FF3,W
034C4:  MOVLB  7
034C6:  ADDWF  xB3,F
034C8:  MOVLW  00
034CA:  ADDWFC xB4,F
034CC:  MOVFF  7B4,7B6
034D0:  MOVFF  7B3,7B5
034D4:  MOVLB  0
034D6:  CALL   202A
034DA:  MOVFF  7B1,FEA
034DE:  MOVFF  7B0,FE9
034E2:  MOVFF  7B2,FEC
034E6:  MOVF   FED,F
034E8:  MOVFF  01,FEF
....................       if(PcCiclos[i]>500) 
034EC:  BCF    FD8.0
034EE:  MOVLB  3
034F0:  RLCF   x48,W
034F2:  CLRF   03
034F4:  ADDLW  BE
034F6:  MOVWF  FE9
034F8:  MOVLW  03
034FA:  ADDWFC 03,W
034FC:  MOVWF  FEA
034FE:  MOVFF  FEC,7B1
03502:  MOVF   FED,F
03504:  MOVFF  FEF,7B0
03508:  MOVLB  7
0350A:  MOVF   xB1,W
0350C:  SUBLW  00
0350E:  BC    3534
03510:  XORLW  FF
03512:  BNZ   351A
03514:  MOVF   xB0,W
03516:  SUBLW  F4
03518:  BC    3534
....................          PcCiclos[i]=0; 
0351A:  BCF    FD8.0
0351C:  MOVLB  3
0351E:  RLCF   x48,W
03520:  CLRF   03
03522:  ADDLW  BE
03524:  MOVWF  FE9
03526:  MOVLW  03
03528:  ADDWFC 03,W
0352A:  MOVWF  FEA
0352C:  CLRF   FEC
0352E:  MOVF   FED,F
03530:  CLRF   FEF
03532:  MOVLB  7
....................       PpcCiclos[i]=make16(read_ext_eeprom((cicloVisto*320)+9+((cicloVisualizado+i)*9)),read_ext_eeprom((cicloVisto*320)+10+((cicloVisualizado+i)*9))); 
03534:  BCF    FD8.0
03536:  MOVLB  3
03538:  RLCF   x48,W
0353A:  CLRF   03
0353C:  ADDLW  CC
0353E:  MOVWF  01
03540:  MOVLW  03
03542:  ADDWFC 03,F
03544:  MOVFF  01,7B0
03548:  MOVLB  7
0354A:  MOVFF  03,7B1
0354E:  CLRF   xBB
03550:  MOVFF  C0,7BA
03554:  MOVLW  01
03556:  MOVWF  xBD
03558:  MOVLW  40
0355A:  MOVWF  xBC
0355C:  MOVLB  0
0355E:  CALL   1F28
03562:  MOVFF  02,7B3
03566:  MOVFF  01,7B2
0356A:  MOVLW  09
0356C:  MOVLB  7
0356E:  ADDWF  xB2,F
03570:  MOVLW  00
03572:  ADDWFC xB3,F
03574:  MOVLB  3
03576:  MOVF   x48,W
03578:  MOVLB  0
0357A:  ADDWF  xC2,W
0357C:  MULLW  09
0357E:  MOVF   FF3,W
03580:  MOVLB  7
03582:  ADDWF  xB2,F
03584:  MOVLW  00
03586:  ADDWFC xB3,F
03588:  MOVFF  7B3,7B6
0358C:  MOVFF  7B2,7B5
03590:  MOVLB  0
03592:  CALL   202A
03596:  MOVFF  01,7B2
0359A:  MOVLB  7
0359C:  CLRF   xBB
0359E:  MOVFF  C0,7BA
035A2:  MOVLW  01
035A4:  MOVWF  xBD
035A6:  MOVLW  40
035A8:  MOVWF  xBC
035AA:  MOVLB  0
035AC:  CALL   1F28
035B0:  MOVFF  02,7B4
035B4:  MOVFF  01,7B3
035B8:  MOVLW  0A
035BA:  MOVLB  7
035BC:  ADDWF  xB3,F
035BE:  MOVLW  00
035C0:  ADDWFC xB4,F
035C2:  MOVLB  3
035C4:  MOVF   x48,W
035C6:  MOVLB  0
035C8:  ADDWF  xC2,W
035CA:  MULLW  09
035CC:  MOVF   FF3,W
035CE:  MOVLB  7
035D0:  ADDWF  xB3,F
035D2:  MOVLW  00
035D4:  ADDWFC xB4,F
035D6:  MOVFF  7B4,7B6
035DA:  MOVFF  7B3,7B5
035DE:  MOVLB  0
035E0:  CALL   202A
035E4:  MOVFF  7B1,FEA
035E8:  MOVFF  7B0,FE9
035EC:  MOVFF  7B2,FEC
035F0:  MOVF   FED,F
035F2:  MOVFF  01,FEF
....................       if(PpcCiclos[i]>500) 
035F6:  BCF    FD8.0
035F8:  MOVLB  3
035FA:  RLCF   x48,W
035FC:  CLRF   03
035FE:  ADDLW  CC
03600:  MOVWF  FE9
03602:  MOVLW  03
03604:  ADDWFC 03,W
03606:  MOVWF  FEA
03608:  MOVFF  FEC,7B1
0360C:  MOVF   FED,F
0360E:  MOVFF  FEF,7B0
03612:  MOVLB  7
03614:  MOVF   xB1,W
03616:  SUBLW  00
03618:  BC    363E
0361A:  XORLW  FF
0361C:  BNZ   3624
0361E:  MOVF   xB0,W
03620:  SUBLW  F4
03622:  BC    363E
....................          PpcCiclos[i]=0; 
03624:  BCF    FD8.0
03626:  MOVLB  3
03628:  RLCF   x48,W
0362A:  CLRF   03
0362C:  ADDLW  CC
0362E:  MOVWF  FE9
03630:  MOVLW  03
03632:  ADDWFC 03,W
03634:  MOVWF  FEA
03636:  CLRF   FEC
03638:  MOVF   FED,F
0363A:  CLRF   FEF
0363C:  MOVLB  7
....................       ACiclos[i]=read_ext_eeprom((cicloVisto*320)+13+((cicloVisualizado+i)*9)); 
0363E:  CLRF   03
03640:  MOVLB  3
03642:  MOVF   x48,W
03644:  ADDLW  E8
03646:  MOVWF  01
03648:  MOVLW  03
0364A:  ADDWFC 03,F
0364C:  MOVFF  01,7B0
03650:  MOVLB  7
03652:  MOVFF  03,7B1
03656:  CLRF   xBB
03658:  MOVFF  C0,7BA
0365C:  MOVLW  01
0365E:  MOVWF  xBD
03660:  MOVLW  40
03662:  MOVWF  xBC
03664:  MOVLB  0
03666:  CALL   1F28
0366A:  MOVFF  02,7B3
0366E:  MOVFF  01,7B2
03672:  MOVLW  0D
03674:  MOVLB  7
03676:  ADDWF  xB2,F
03678:  MOVLW  00
0367A:  ADDWFC xB3,F
0367C:  MOVLB  3
0367E:  MOVF   x48,W
03680:  MOVLB  0
03682:  ADDWF  xC2,W
03684:  MULLW  09
03686:  MOVF   FF3,W
03688:  MOVLB  7
0368A:  ADDWF  xB2,F
0368C:  MOVLW  00
0368E:  ADDWFC xB3,F
03690:  MOVFF  7B3,7B6
03694:  MOVFF  7B2,7B5
03698:  MOVLB  0
0369A:  CALL   202A
0369E:  MOVFF  7B1,FEA
036A2:  MOVFF  7B0,FE9
036A6:  MOVFF  01,FEF
....................       if(ACiclos[i]>30) 
036AA:  CLRF   03
036AC:  MOVLB  3
036AE:  MOVF   x48,W
036B0:  ADDLW  E8
036B2:  MOVWF  FE9
036B4:  MOVLW  03
036B6:  ADDWFC 03,W
036B8:  MOVWF  FEA
036BA:  MOVF   FEF,W
036BC:  SUBLW  1E
036BE:  BC    36D0
....................          ACiclos[i]=0; 
036C0:  CLRF   03
036C2:  MOVF   x48,W
036C4:  ADDLW  E8
036C6:  MOVWF  FE9
036C8:  MOVLW  03
036CA:  ADDWFC 03,W
036CC:  MOVWF  FEA
036CE:  CLRF   FEF
....................    } 
036D0:  INCF   x48,F
036D2:  BRA    3172
.................... } 
036D4:  MOVLB  0
036D6:  GOTO   7D04 (RETURN)
....................  
.................... void LimitaValores(){ 
....................    if(Ganancia>20.0){ 
*
0380E:  MOVLB  7
03810:  CLRF   xB9
03812:  CLRF   xB8
03814:  MOVLW  20
03816:  MOVWF  xB7
03818:  MOVLW  83
0381A:  MOVWF  xB6
0381C:  MOVFF  2F4,7BD
03820:  MOVFF  2F3,7BC
03824:  MOVFF  2F2,7BB
03828:  MOVFF  2F1,7BA
0382C:  MOVLB  0
0382E:  CALL   24E8
03832:  BNC   387C
....................       Ganancia=15.0; 
03834:  MOVLB  2
03836:  CLRF   xF4
03838:  CLRF   xF3
0383A:  MOVLW  70
0383C:  MOVWF  xF2
0383E:  MOVLW  82
03840:  MOVWF  xF1
....................       write_eeprom(20,15); 
03842:  CLRF   FAA
03844:  MOVLW  14
03846:  MOVWF  FA9
03848:  MOVLW  0F
0384A:  MOVWF  FA8
0384C:  BCF    FA6.6
0384E:  BCF    FA6.7
03850:  BSF    FA6.2
03852:  MOVF   FF2,W
03854:  MOVWF  00
03856:  BCF    FF2.6
03858:  BCF    FF2.7
0385A:  MOVLB  F
0385C:  MOVLW  55
0385E:  MOVWF  FA7
03860:  MOVLW  AA
03862:  MOVWF  FA7
03864:  BSF    FA6.1
03866:  BTFSC  FA6.1
03868:  BRA    3866
0386A:  BCF    FA6.2
0386C:  MOVF   00,W
0386E:  IORWF  FF2,F
....................       delay_ms(10); 
03870:  MOVLW  0A
03872:  MOVLB  7
03874:  MOVWF  xC0
03876:  MOVLB  0
03878:  CALL   1E8C
....................    } 
....................    if(Sensor[0].Ajuste>20){ 
0387C:  MOVLB  4
0387E:  MOVF   x16,W
03880:  SUBLW  14
03882:  BC    38C0
....................       Sensor[0].Ajuste=0; 
03884:  CLRF   x16
....................       write_eeprom(21,0); 
03886:  CLRF   FAA
03888:  MOVLW  15
0388A:  MOVWF  FA9
0388C:  CLRF   FA8
0388E:  BCF    FA6.6
03890:  BCF    FA6.7
03892:  BSF    FA6.2
03894:  MOVF   FF2,W
03896:  MOVWF  00
03898:  BCF    FF2.6
0389A:  BCF    FF2.7
0389C:  MOVLB  F
0389E:  MOVLW  55
038A0:  MOVWF  FA7
038A2:  MOVLW  AA
038A4:  MOVWF  FA7
038A6:  BSF    FA6.1
038A8:  BTFSC  FA6.1
038AA:  BRA    38A8
038AC:  BCF    FA6.2
038AE:  MOVF   00,W
038B0:  IORWF  FF2,F
....................       delay_ms(10); 
038B2:  MOVLW  0A
038B4:  MOVLB  7
038B6:  MOVWF  xC0
038B8:  MOVLB  0
038BA:  CALL   1E8C
038BE:  MOVLB  4
....................    } 
....................    if(Sensor[0].Ajusten>20){ 
038C0:  MOVF   x17,W
038C2:  SUBLW  14
038C4:  BC    3900
....................       Sensor[0].Ajusten=0; 
038C6:  CLRF   x17
....................       write_eeprom(22,0); 
038C8:  CLRF   FAA
038CA:  MOVLW  16
038CC:  MOVWF  FA9
038CE:  CLRF   FA8
038D0:  BCF    FA6.6
038D2:  BCF    FA6.7
038D4:  BSF    FA6.2
038D6:  MOVF   FF2,W
038D8:  MOVWF  00
038DA:  BCF    FF2.6
038DC:  BCF    FF2.7
038DE:  MOVLB  F
038E0:  MOVLW  55
038E2:  MOVWF  FA7
038E4:  MOVLW  AA
038E6:  MOVWF  FA7
038E8:  BSF    FA6.1
038EA:  BTFSC  FA6.1
038EC:  BRA    38EA
038EE:  BCF    FA6.2
038F0:  MOVF   00,W
038F2:  IORWF  FF2,F
....................       delay_ms(10); 
038F4:  MOVLW  0A
038F6:  MOVLB  7
038F8:  MOVWF  xC0
038FA:  MOVLB  0
038FC:  CALL   1E8C
....................    } 
....................    if(Sensor[1].Ajuste>20){ 
03900:  MOVLB  5
03902:  MOVF   x7A,W
03904:  SUBLW  14
03906:  BC    3944
....................       Sensor[1].Ajuste=0; 
03908:  CLRF   x7A
....................       write_eeprom(23,0); 
0390A:  CLRF   FAA
0390C:  MOVLW  17
0390E:  MOVWF  FA9
03910:  CLRF   FA8
03912:  BCF    FA6.6
03914:  BCF    FA6.7
03916:  BSF    FA6.2
03918:  MOVF   FF2,W
0391A:  MOVWF  00
0391C:  BCF    FF2.6
0391E:  BCF    FF2.7
03920:  MOVLB  F
03922:  MOVLW  55
03924:  MOVWF  FA7
03926:  MOVLW  AA
03928:  MOVWF  FA7
0392A:  BSF    FA6.1
0392C:  BTFSC  FA6.1
0392E:  BRA    392C
03930:  BCF    FA6.2
03932:  MOVF   00,W
03934:  IORWF  FF2,F
....................       delay_ms(10); 
03936:  MOVLW  0A
03938:  MOVLB  7
0393A:  MOVWF  xC0
0393C:  MOVLB  0
0393E:  CALL   1E8C
03942:  MOVLB  5
....................    } 
....................    if(Sensor[1].Ajusten>20){ 
03944:  MOVF   x7B,W
03946:  SUBLW  14
03948:  BC    3984
....................       Sensor[1].Ajusten=0; 
0394A:  CLRF   x7B
....................       write_eeprom(24,0); 
0394C:  CLRF   FAA
0394E:  MOVLW  18
03950:  MOVWF  FA9
03952:  CLRF   FA8
03954:  BCF    FA6.6
03956:  BCF    FA6.7
03958:  BSF    FA6.2
0395A:  MOVF   FF2,W
0395C:  MOVWF  00
0395E:  BCF    FF2.6
03960:  BCF    FF2.7
03962:  MOVLB  F
03964:  MOVLW  55
03966:  MOVWF  FA7
03968:  MOVLW  AA
0396A:  MOVWF  FA7
0396C:  BSF    FA6.1
0396E:  BTFSC  FA6.1
03970:  BRA    396E
03972:  BCF    FA6.2
03974:  MOVF   00,W
03976:  IORWF  FF2,F
....................       delay_ms(10); 
03978:  MOVLW  0A
0397A:  MOVLB  7
0397C:  MOVWF  xC0
0397E:  MOVLB  0
03980:  CALL   1E8C
....................    } 
....................    if(MediaMovil>80){ 
03984:  MOVLB  2
03986:  MOVF   xCC,W
03988:  SUBLW  50
0398A:  BC    39CA
....................       MediaMovil=40; 
0398C:  MOVLW  28
0398E:  MOVWF  xCC
....................       write_eeprom(25,40); 
03990:  CLRF   FAA
03992:  MOVLW  19
03994:  MOVWF  FA9
03996:  MOVLW  28
03998:  MOVWF  FA8
0399A:  BCF    FA6.6
0399C:  BCF    FA6.7
0399E:  BSF    FA6.2
039A0:  MOVF   FF2,W
039A2:  MOVWF  00
039A4:  BCF    FF2.6
039A6:  BCF    FF2.7
039A8:  MOVLB  F
039AA:  MOVLW  55
039AC:  MOVWF  FA7
039AE:  MOVLW  AA
039B0:  MOVWF  FA7
039B2:  BSF    FA6.1
039B4:  BTFSC  FA6.1
039B6:  BRA    39B4
039B8:  BCF    FA6.2
039BA:  MOVF   00,W
039BC:  IORWF  FF2,F
....................       delay_ms(10); 
039BE:  MOVLW  0A
039C0:  MOVLB  7
039C2:  MOVWF  xC0
039C4:  MOVLB  0
039C6:  CALL   1E8C
....................    } 
....................    if(Tciclo>10){ 
039CA:  MOVLB  7
039CC:  CLRF   xB9
039CE:  CLRF   xB8
039D0:  MOVLW  20
039D2:  MOVWF  xB7
039D4:  MOVLW  82
039D6:  MOVWF  xB6
039D8:  MOVFF  2DC,7BD
039DC:  MOVFF  2DB,7BC
039E0:  MOVFF  2DA,7BB
039E4:  MOVFF  2D9,7BA
039E8:  MOVLB  0
039EA:  CALL   24E8
039EE:  BNC   3A38
....................       Tciclo=10; 
039F0:  MOVLB  2
039F2:  CLRF   xDC
039F4:  CLRF   xDB
039F6:  MOVLW  20
039F8:  MOVWF  xDA
039FA:  MOVLW  82
039FC:  MOVWF  xD9
....................       write_eeprom(26,10); 
039FE:  CLRF   FAA
03A00:  MOVLW  1A
03A02:  MOVWF  FA9
03A04:  MOVLW  0A
03A06:  MOVWF  FA8
03A08:  BCF    FA6.6
03A0A:  BCF    FA6.7
03A0C:  BSF    FA6.2
03A0E:  MOVF   FF2,W
03A10:  MOVWF  00
03A12:  BCF    FF2.6
03A14:  BCF    FF2.7
03A16:  MOVLB  F
03A18:  MOVLW  55
03A1A:  MOVWF  FA7
03A1C:  MOVLW  AA
03A1E:  MOVWF  FA7
03A20:  BSF    FA6.1
03A22:  BTFSC  FA6.1
03A24:  BRA    3A22
03A26:  BCF    FA6.2
03A28:  MOVF   00,W
03A2A:  IORWF  FF2,F
....................       delay_ms(10); 
03A2C:  MOVLW  0A
03A2E:  MOVLB  7
03A30:  MOVWF  xC0
03A32:  MOVLB  0
03A34:  CALL   1E8C
....................    } 
....................    if(Sensor[0].RPT100>2.0){ 
03A38:  MOVLB  7
03A3A:  CLRF   xB9
03A3C:  CLRF   xB8
03A3E:  CLRF   xB7
03A40:  MOVLW  80
03A42:  MOVWF  xB6
03A44:  MOVFF  40B,7BD
03A48:  MOVFF  40A,7BC
03A4C:  MOVFF  409,7BB
03A50:  MOVFF  408,7BA
03A54:  MOVLB  0
03A56:  CALL   24E8
03A5A:  BNC   3ADA
....................       Sensor[0].RPT100=0.5; 
03A5C:  MOVLB  4
03A5E:  CLRF   x0B
03A60:  CLRF   x0A
03A62:  CLRF   x09
03A64:  MOVLW  7E
03A66:  MOVWF  x08
....................       write_eeprom(28,0); 
03A68:  CLRF   FAA
03A6A:  MOVLW  1C
03A6C:  MOVWF  FA9
03A6E:  CLRF   FA8
03A70:  BCF    FA6.6
03A72:  BCF    FA6.7
03A74:  BSF    FA6.2
03A76:  MOVF   FF2,W
03A78:  MOVWF  00
03A7A:  BCF    FF2.6
03A7C:  BCF    FF2.7
03A7E:  MOVLB  F
03A80:  MOVLW  55
03A82:  MOVWF  FA7
03A84:  MOVLW  AA
03A86:  MOVWF  FA7
03A88:  BSF    FA6.1
03A8A:  BTFSC  FA6.1
03A8C:  BRA    3A8A
03A8E:  BCF    FA6.2
03A90:  MOVF   00,W
03A92:  IORWF  FF2,F
....................       delay_ms(10); 
03A94:  MOVLW  0A
03A96:  MOVLB  7
03A98:  MOVWF  xC0
03A9A:  MOVLB  0
03A9C:  CALL   1E8C
....................       write_eeprom(27,5); 
03AA0:  CLRF   FAA
03AA2:  MOVLW  1B
03AA4:  MOVWF  FA9
03AA6:  MOVLW  05
03AA8:  MOVWF  FA8
03AAA:  BCF    FA6.6
03AAC:  BCF    FA6.7
03AAE:  BSF    FA6.2
03AB0:  MOVF   FF2,W
03AB2:  MOVWF  00
03AB4:  BCF    FF2.6
03AB6:  BCF    FF2.7
03AB8:  MOVLB  F
03ABA:  MOVLW  55
03ABC:  MOVWF  FA7
03ABE:  MOVLW  AA
03AC0:  MOVWF  FA7
03AC2:  BSF    FA6.1
03AC4:  BTFSC  FA6.1
03AC6:  BRA    3AC4
03AC8:  BCF    FA6.2
03ACA:  MOVF   00,W
03ACC:  IORWF  FF2,F
....................       delay_ms(10); 
03ACE:  MOVLW  0A
03AD0:  MOVLB  7
03AD2:  MOVWF  xC0
03AD4:  MOVLB  0
03AD6:  CALL   1E8C
....................    } 
....................    if(Sensor[1].RPT100>2.0){ 
03ADA:  MOVLB  7
03ADC:  CLRF   xB9
03ADE:  CLRF   xB8
03AE0:  CLRF   xB7
03AE2:  MOVLW  80
03AE4:  MOVWF  xB6
03AE6:  MOVFF  56F,7BD
03AEA:  MOVFF  56E,7BC
03AEE:  MOVFF  56D,7BB
03AF2:  MOVFF  56C,7BA
03AF6:  MOVLB  0
03AF8:  CALL   24E8
03AFC:  BNC   3B7C
....................       Sensor[1].RPT100=0.5; 
03AFE:  MOVLB  5
03B00:  CLRF   x6F
03B02:  CLRF   x6E
03B04:  CLRF   x6D
03B06:  MOVLW  7E
03B08:  MOVWF  x6C
....................       write_eeprom(30,0); 
03B0A:  CLRF   FAA
03B0C:  MOVLW  1E
03B0E:  MOVWF  FA9
03B10:  CLRF   FA8
03B12:  BCF    FA6.6
03B14:  BCF    FA6.7
03B16:  BSF    FA6.2
03B18:  MOVF   FF2,W
03B1A:  MOVWF  00
03B1C:  BCF    FF2.6
03B1E:  BCF    FF2.7
03B20:  MOVLB  F
03B22:  MOVLW  55
03B24:  MOVWF  FA7
03B26:  MOVLW  AA
03B28:  MOVWF  FA7
03B2A:  BSF    FA6.1
03B2C:  BTFSC  FA6.1
03B2E:  BRA    3B2C
03B30:  BCF    FA6.2
03B32:  MOVF   00,W
03B34:  IORWF  FF2,F
....................       delay_ms(10); 
03B36:  MOVLW  0A
03B38:  MOVLB  7
03B3A:  MOVWF  xC0
03B3C:  MOVLB  0
03B3E:  CALL   1E8C
....................       write_eeprom(29,5); 
03B42:  CLRF   FAA
03B44:  MOVLW  1D
03B46:  MOVWF  FA9
03B48:  MOVLW  05
03B4A:  MOVWF  FA8
03B4C:  BCF    FA6.6
03B4E:  BCF    FA6.7
03B50:  BSF    FA6.2
03B52:  MOVF   FF2,W
03B54:  MOVWF  00
03B56:  BCF    FF2.6
03B58:  BCF    FF2.7
03B5A:  MOVLB  F
03B5C:  MOVLW  55
03B5E:  MOVWF  FA7
03B60:  MOVLW  AA
03B62:  MOVWF  FA7
03B64:  BSF    FA6.1
03B66:  BTFSC  FA6.1
03B68:  BRA    3B66
03B6A:  BCF    FA6.2
03B6C:  MOVF   00,W
03B6E:  IORWF  FF2,F
....................       delay_ms(10); 
03B70:  MOVLW  0A
03B72:  MOVLB  7
03B74:  MOVWF  xC0
03B76:  MOVLB  0
03B78:  CALL   1E8C
....................    } 
....................    if(Atmosferica>100){ 
03B7C:  MOVLB  3
03B7E:  MOVF   x31,W
03B80:  SUBLW  64
03B82:  BC    3BC2
....................       Atmosferica=69; 
03B84:  MOVLW  45
03B86:  MOVWF  x31
....................       write_eeprom(31,69); 
03B88:  CLRF   FAA
03B8A:  MOVLW  1F
03B8C:  MOVWF  FA9
03B8E:  MOVLW  45
03B90:  MOVWF  FA8
03B92:  BCF    FA6.6
03B94:  BCF    FA6.7
03B96:  BSF    FA6.2
03B98:  MOVF   FF2,W
03B9A:  MOVWF  00
03B9C:  BCF    FF2.6
03B9E:  BCF    FF2.7
03BA0:  MOVLB  F
03BA2:  MOVLW  55
03BA4:  MOVWF  FA7
03BA6:  MOVLW  AA
03BA8:  MOVWF  FA7
03BAA:  BSF    FA6.1
03BAC:  BTFSC  FA6.1
03BAE:  BRA    3BAC
03BB0:  BCF    FA6.2
03BB2:  MOVF   00,W
03BB4:  IORWF  FF2,F
....................       delay_ms(10); 
03BB6:  MOVLW  0A
03BB8:  MOVLB  7
03BBA:  MOVWF  xC0
03BBC:  MOVLB  0
03BBE:  CALL   1E8C
....................    } 
....................    if(Tapertura>100){ 
03BC2:  MOVLB  2
03BC4:  MOVF   xD0,W
03BC6:  SUBLW  64
03BC8:  BC    3C08
....................       Tapertura=85; 
03BCA:  MOVLW  55
03BCC:  MOVWF  xD0
....................       write_eeprom(32,85); 
03BCE:  CLRF   FAA
03BD0:  MOVLW  20
03BD2:  MOVWF  FA9
03BD4:  MOVLW  55
03BD6:  MOVWF  FA8
03BD8:  BCF    FA6.6
03BDA:  BCF    FA6.7
03BDC:  BSF    FA6.2
03BDE:  MOVF   FF2,W
03BE0:  MOVWF  00
03BE2:  BCF    FF2.6
03BE4:  BCF    FF2.7
03BE6:  MOVLB  F
03BE8:  MOVLW  55
03BEA:  MOVWF  FA7
03BEC:  MOVLW  AA
03BEE:  MOVWF  FA7
03BF0:  BSF    FA6.1
03BF2:  BTFSC  FA6.1
03BF4:  BRA    3BF2
03BF6:  BCF    FA6.2
03BF8:  MOVF   00,W
03BFA:  IORWF  FF2,F
....................       delay_ms(10); 
03BFC:  MOVLW  0A
03BFE:  MOVLB  7
03C00:  MOVWF  xC0
03C02:  MOVLB  0
03C04:  CALL   1E8C
....................    } 
....................    if(Ciclos>60000){ 
03C08:  MOVLB  3
03C0A:  MOVF   x63,W
03C0C:  SUBLW  E9
03C0E:  BC    3C8E
03C10:  XORLW  FF
03C12:  BNZ   3C1A
03C14:  MOVF   x62,W
03C16:  SUBLW  60
03C18:  BC    3C8E
....................       Ciclos=0; 
03C1A:  CLRF   x63
03C1C:  CLRF   x62
....................       write_eeprom(37,0); 
03C1E:  CLRF   FAA
03C20:  MOVLW  25
03C22:  MOVWF  FA9
03C24:  CLRF   FA8
03C26:  BCF    FA6.6
03C28:  BCF    FA6.7
03C2A:  BSF    FA6.2
03C2C:  MOVF   FF2,W
03C2E:  MOVWF  00
03C30:  BCF    FF2.6
03C32:  BCF    FF2.7
03C34:  MOVLB  F
03C36:  MOVLW  55
03C38:  MOVWF  FA7
03C3A:  MOVLW  AA
03C3C:  MOVWF  FA7
03C3E:  BSF    FA6.1
03C40:  BTFSC  FA6.1
03C42:  BRA    3C40
03C44:  BCF    FA6.2
03C46:  MOVF   00,W
03C48:  IORWF  FF2,F
....................       delay_ms(10); 
03C4A:  MOVLW  0A
03C4C:  MOVLB  7
03C4E:  MOVWF  xC0
03C50:  MOVLB  0
03C52:  CALL   1E8C
....................       write_eeprom(38,0); 
03C56:  CLRF   FAA
03C58:  MOVLW  26
03C5A:  MOVWF  FA9
03C5C:  CLRF   FA8
03C5E:  BCF    FA6.6
03C60:  BCF    FA6.7
03C62:  BSF    FA6.2
03C64:  MOVF   FF2,W
03C66:  MOVWF  00
03C68:  BCF    FF2.6
03C6A:  BCF    FF2.7
03C6C:  MOVLB  F
03C6E:  MOVLW  55
03C70:  MOVWF  FA7
03C72:  MOVLW  AA
03C74:  MOVWF  FA7
03C76:  BSF    FA6.1
03C78:  BTFSC  FA6.1
03C7A:  BRA    3C78
03C7C:  BCF    FA6.2
03C7E:  MOVF   00,W
03C80:  IORWF  FF2,F
....................       delay_ms(10); 
03C82:  MOVLW  0A
03C84:  MOVLB  7
03C86:  MOVWF  xC0
03C88:  MOVLB  0
03C8A:  CALL   1E8C
....................    } 
....................    if(TTrampa>100){ 
03C8E:  MOVLB  0
03C90:  MOVF   xC7,W
03C92:  SUBLW  64
03C94:  BC    3CD4
....................       TTrampa=80; 
03C96:  MOVLW  50
03C98:  MOVWF  xC7
....................       write_eeprom(39,80); 
03C9A:  CLRF   FAA
03C9C:  MOVLW  27
03C9E:  MOVWF  FA9
03CA0:  MOVLW  50
03CA2:  MOVWF  FA8
03CA4:  BCF    FA6.6
03CA6:  BCF    FA6.7
03CA8:  BSF    FA6.2
03CAA:  MOVF   FF2,W
03CAC:  MOVWF  00
03CAE:  BCF    FF2.6
03CB0:  BCF    FF2.7
03CB2:  MOVLB  F
03CB4:  MOVLW  55
03CB6:  MOVWF  FA7
03CB8:  MOVLW  AA
03CBA:  MOVWF  FA7
03CBC:  BSF    FA6.1
03CBE:  BTFSC  FA6.1
03CC0:  BRA    3CBE
03CC2:  BCF    FA6.2
03CC4:  MOVF   00,W
03CC6:  IORWF  FF2,F
....................       delay_ms(10); 
03CC8:  MOVLW  0A
03CCA:  MOVLB  7
03CCC:  MOVWF  xC0
03CCE:  MOVLB  0
03CD0:  CALL   1E8C
....................    } 
....................    if(sg1==10){ 
03CD4:  MOVLB  3
03CD6:  MOVF   x8C,W
03CD8:  SUBLW  0A
03CDA:  BNZ   3CF0
....................       G1=G1*(-1); 
03CDC:  MOVFF  38A,7B0
03CE0:  MOVLW  FF
03CE2:  MOVLB  7
03CE4:  MOVWF  xB1
03CE6:  MOVLB  0
03CE8:  RCALL  37C0
03CEA:  MOVFF  01,38A
03CEE:  MOVLB  3
....................    } 
....................    if(sg2==10){ 
03CF0:  MOVF   x8D,W
03CF2:  SUBLW  0A
03CF4:  BNZ   3D08
....................       G2=G2*(-1); 
03CF6:  MOVFF  38B,7B0
03CFA:  MOVLW  FF
03CFC:  MOVLB  7
03CFE:  MOVWF  xB1
03D00:  MOVLB  0
03D02:  RCALL  37C0
03D04:  MOVFF  01,38B
....................    } 
....................    if(Integral>10.0){ 
03D08:  MOVLB  7
03D0A:  CLRF   xC3
03D0C:  MOVFF  329,7C2
03D10:  MOVLB  0
03D12:  CALL   1E56
03D16:  MOVLB  7
03D18:  CLRF   xB9
03D1A:  CLRF   xB8
03D1C:  MOVLW  20
03D1E:  MOVWF  xB7
03D20:  MOVLW  82
03D22:  MOVWF  xB6
03D24:  MOVFF  03,7BD
03D28:  MOVFF  02,7BC
03D2C:  MOVFF  01,7BB
03D30:  MOVFF  00,7BA
03D34:  MOVLB  0
03D36:  CALL   24E8
03D3A:  BNC   3D7C
....................       Integral=1.0; 
03D3C:  MOVLW  01
03D3E:  MOVLB  3
03D40:  MOVWF  x29
....................       write_eeprom(27,1); 
03D42:  CLRF   FAA
03D44:  MOVLW  1B
03D46:  MOVWF  FA9
03D48:  MOVLW  01
03D4A:  MOVWF  FA8
03D4C:  BCF    FA6.6
03D4E:  BCF    FA6.7
03D50:  BSF    FA6.2
03D52:  MOVF   FF2,W
03D54:  MOVWF  00
03D56:  BCF    FF2.6
03D58:  BCF    FF2.7
03D5A:  MOVLB  F
03D5C:  MOVLW  55
03D5E:  MOVWF  FA7
03D60:  MOVLW  AA
03D62:  MOVWF  FA7
03D64:  BSF    FA6.1
03D66:  BTFSC  FA6.1
03D68:  BRA    3D66
03D6A:  BCF    FA6.2
03D6C:  MOVF   00,W
03D6E:  IORWF  FF2,F
....................       delay_ms(10); 
03D70:  MOVLW  0A
03D72:  MOVLB  7
03D74:  MOVWF  xC0
03D76:  MOVLB  0
03D78:  CALL   1E8C
....................    } 
....................    if(Derivativo>90.0){ 
03D7C:  MOVLB  7
03D7E:  CLRF   xC3
03D80:  MOVFF  32A,7C2
03D84:  MOVLB  0
03D86:  CALL   1E56
03D8A:  MOVLB  7
03D8C:  CLRF   xB9
03D8E:  CLRF   xB8
03D90:  MOVLW  34
03D92:  MOVWF  xB7
03D94:  MOVLW  85
03D96:  MOVWF  xB6
03D98:  MOVFF  03,7BD
03D9C:  MOVFF  02,7BC
03DA0:  MOVFF  01,7BB
03DA4:  MOVFF  00,7BA
03DA8:  MOVLB  0
03DAA:  CALL   24E8
03DAE:  BNC   3DF0
....................       Derivativo=15.0; 
03DB0:  MOVLW  0F
03DB2:  MOVLB  3
03DB4:  MOVWF  x2A
....................       write_eeprom(28,15); 
03DB6:  CLRF   FAA
03DB8:  MOVLW  1C
03DBA:  MOVWF  FA9
03DBC:  MOVLW  0F
03DBE:  MOVWF  FA8
03DC0:  BCF    FA6.6
03DC2:  BCF    FA6.7
03DC4:  BSF    FA6.2
03DC6:  MOVF   FF2,W
03DC8:  MOVWF  00
03DCA:  BCF    FF2.6
03DCC:  BCF    FF2.7
03DCE:  MOVLB  F
03DD0:  MOVLW  55
03DD2:  MOVWF  FA7
03DD4:  MOVLW  AA
03DD6:  MOVWF  FA7
03DD8:  BSF    FA6.1
03DDA:  BTFSC  FA6.1
03DDC:  BRA    3DDA
03DDE:  BCF    FA6.2
03DE0:  MOVF   00,W
03DE2:  IORWF  FF2,F
....................       delay_ms(10); 
03DE4:  MOVLW  0A
03DE6:  MOVLB  7
03DE8:  MOVWF  xC0
03DEA:  MOVLB  0
03DEC:  CALL   1E8C
....................    } 
.................... } 
03DF0:  GOTO   7D18 (RETURN)
....................  
.................... void LeeDisplay(void){ 
....................    if(Dato_Exitoso==5){ 
*
04DC0:  MOVLB  3
04DC2:  MOVF   x43,W
04DC4:  SUBLW  05
04DC6:  BTFSS  FD8.2
04DC8:  BRA    4FAA
....................          RX_Buffer[0]=RX_Buffer2[0]; 
04DCA:  MOVFF  3B,30
....................          RX_Buffer[1]=RX_Buffer2[1]; 
04DCE:  MOVFF  3C,31
....................          RX_Buffer[2]=RX_Buffer2[2]; 
04DD2:  MOVFF  3D,32
....................          RX_Buffer[3]=RX_Buffer2[3]; 
04DD6:  MOVFF  3E,33
....................          RX_Buffer[4]=RX_Buffer2[4]; 
04DDA:  MOVFF  3F,34
....................          RX_Buffer[5]=RX_Buffer2[5]; 
04DDE:  MOVFF  40,35
....................          RX_Buffer[6]=RX_Buffer2[6]; 
04DE2:  MOVFF  41,36
....................          RX_Buffer[7]=RX_Buffer2[7]; 
04DE6:  MOVFF  42,37
....................          RX_Buffer[8]=RX_Buffer2[8]; 
04DEA:  MOVFF  43,38
....................          RX_Buffer[9]=RX_Buffer2[9]; 
04DEE:  MOVFF  44,39
....................           
....................       if(RX_Buffer[3]==0x01){// Pregunta por la pagina en la que esta el display,01 es Contrasea de Acceso 
04DF2:  DECFSZ 33,W
04DF4:  BRA    4E04
....................          Menu=0; 
04DF6:  CLRF   x45
....................          if(MenuAntt!=Menu) 
04DF8:  MOVF   x45,W
04DFA:  SUBWF  x47,W
04DFC:  BZ    4E02
....................             MenuAntt=Menu; 
04DFE:  MOVFF  345,347
....................       }else if(RX_Buffer[3]==0x02){//02 es Ciclos Fijos 
04E02:  BRA    4FAA
04E04:  MOVF   33,W
04E06:  SUBLW  02
04E08:  BNZ   4E1A
....................          Menu=1; 
04E0A:  MOVLW  01
04E0C:  MOVWF  x45
....................          if(MenuAntt!=Menu) 
04E0E:  MOVF   x45,W
04E10:  SUBWF  x47,W
04E12:  BZ    4E18
....................             MenuAntt=Menu; 
04E14:  MOVFF  345,347
....................       }else if(RX_Buffer[3]==0x03){//03 es Tiempo Esterilizacion 
04E18:  BRA    4FAA
04E1A:  MOVF   33,W
04E1C:  SUBLW  03
04E1E:  BNZ   4E30
....................          Menu=2; 
04E20:  MOVLW  02
04E22:  MOVWF  x45
....................          if(MenuAntt!=Menu) 
04E24:  MOVF   x45,W
04E26:  SUBWF  x47,W
04E28:  BZ    4E2E
....................             MenuAntt=Menu; 
04E2A:  MOVFF  345,347
....................       }else if(RX_Buffer[3]==0x04){//04 es Tiempo de Secado 
04E2E:  BRA    4FAA
04E30:  MOVF   33,W
04E32:  SUBLW  04
04E34:  BNZ   4E46
....................          Menu=3; 
04E36:  MOVLW  03
04E38:  MOVWF  x45
....................          if(MenuAntt!=Menu) 
04E3A:  MOVF   x45,W
04E3C:  SUBWF  x47,W
04E3E:  BZ    4E44
....................             MenuAntt=Menu; 
04E40:  MOVFF  345,347
....................       }else if(RX_Buffer[3]==0x05){//05 es Temperatura 
04E44:  BRA    4FAA
04E46:  MOVF   33,W
04E48:  SUBLW  05
04E4A:  BNZ   4E5C
....................          Menu=4; 
04E4C:  MOVLW  04
04E4E:  MOVWF  x45
....................          if(MenuAntt!=Menu) 
04E50:  MOVF   x45,W
04E52:  SUBWF  x47,W
04E54:  BZ    4E5A
....................             MenuAntt=Menu; 
04E56:  MOVFF  345,347
....................       }else if(RX_Buffer[3]==0x06){//06 es Nivel de Vacio 
04E5A:  BRA    4FAA
04E5C:  MOVF   33,W
04E5E:  SUBLW  06
04E60:  BNZ   4E72
....................          Menu=5; 
04E62:  MOVLW  05
04E64:  MOVWF  x45
....................          if(MenuAntt!=Menu) 
04E66:  MOVF   x45,W
04E68:  SUBWF  x47,W
04E6A:  BZ    4E70
....................             MenuAntt=Menu; 
04E6C:  MOVFF  345,347
....................       }else if(RX_Buffer[3]==0x07){//07 es Test de Componentes 
04E70:  BRA    4FAA
04E72:  MOVF   33,W
04E74:  SUBLW  07
04E76:  BNZ   4E88
....................          Menu=6; 
04E78:  MOVLW  06
04E7A:  MOVWF  x45
....................          if(MenuAntt!=Menu) 
04E7C:  MOVF   x45,W
04E7E:  SUBWF  x47,W
04E80:  BZ    4E86
....................             MenuAntt=Menu; 
04E82:  MOVFF  345,347
....................       }else if(RX_Buffer[3]==0x08){//08 es Fecha y hora 
04E86:  BRA    4FAA
04E88:  MOVF   33,W
04E8A:  SUBLW  08
04E8C:  BNZ   4E9E
....................          Menu=7; 
04E8E:  MOVLW  07
04E90:  MOVWF  x45
....................          if(MenuAntt!=Menu) 
04E92:  MOVF   x45,W
04E94:  SUBWF  x47,W
04E96:  BZ    4E9C
....................             MenuAntt=Menu; 
04E98:  MOVFF  345,347
....................       }else if(RX_Buffer[3]==0x09){//09 es Ciclos Personalizados 
04E9C:  BRA    4FAA
04E9E:  MOVF   33,W
04EA0:  SUBLW  09
04EA2:  BNZ   4EB4
....................          Menu=8; 
04EA4:  MOVLW  08
04EA6:  MOVWF  x45
....................          if(MenuAntt!=Menu) 
04EA8:  MOVF   x45,W
04EAA:  SUBWF  x47,W
04EAC:  BZ    4EB2
....................             MenuAntt=Menu; 
04EAE:  MOVFF  345,347
....................       }else if(RX_Buffer[3]==0x0a){//0a es Pulsos de Vacio 
04EB2:  BRA    4FAA
04EB4:  MOVF   33,W
04EB6:  SUBLW  0A
04EB8:  BNZ   4ECA
....................          Menu=9; 
04EBA:  MOVLW  09
04EBC:  MOVWF  x45
....................          if(MenuAntt!=Menu) 
04EBE:  MOVF   x45,W
04EC0:  SUBWF  x47,W
04EC2:  BZ    4EC8
....................             MenuAntt=Menu; 
04EC4:  MOVFF  345,347
....................       }else if(RX_Buffer[3]==0x0b){//0b es Usuarios 
04EC8:  BRA    4FAA
04ECA:  MOVF   33,W
04ECC:  SUBLW  0B
04ECE:  BNZ   4EE0
....................          Menu=10; 
04ED0:  MOVLW  0A
04ED2:  MOVWF  x45
....................          if(MenuAntt!=Menu) 
04ED4:  MOVF   x45,W
04ED6:  SUBWF  x47,W
04ED8:  BZ    4EDE
....................             MenuAntt=Menu; 
04EDA:  MOVFF  345,347
....................       }else if(RX_Buffer[3]==0x0c){//0c es Configuraciones 
04EDE:  BRA    4FAA
04EE0:  MOVF   33,W
04EE2:  SUBLW  0C
04EE4:  BNZ   4EF6
....................          Menu=11; 
04EE6:  MOVLW  0B
04EE8:  MOVWF  x45
....................          if(MenuAntt!=Menu) 
04EEA:  MOVF   x45,W
04EEC:  SUBWF  x47,W
04EEE:  BZ    4EF4
....................             MenuAntt=Menu; 
04EF0:  MOVFF  345,347
....................       }else if(RX_Buffer[3]==0x0d){//0d es Ciclos 
04EF4:  BRA    4FAA
04EF6:  MOVF   33,W
04EF8:  SUBLW  0D
04EFA:  BNZ   4F0C
....................          Menu=12; 
04EFC:  MOVLW  0C
04EFE:  MOVWF  x45
....................          if(MenuAntt!=Menu) 
04F00:  MOVF   x45,W
04F02:  SUBWF  x47,W
04F04:  BZ    4F0A
....................             MenuAntt=Menu; 
04F06:  MOVFF  345,347
....................       }else if(RX_Buffer[3]==0x0e){//0d es Activacion de Ciclos 
04F0A:  BRA    4FAA
04F0C:  MOVF   33,W
04F0E:  SUBLW  0E
04F10:  BNZ   4F22
....................          Menu=14; 
04F12:  MOVLW  0E
04F14:  MOVWF  x45
....................          if(MenuAntt!=Menu) 
04F16:  MOVF   x45,W
04F18:  SUBWF  x47,W
04F1A:  BZ    4F20
....................             MenuAntt=Menu; 
04F1C:  MOVFF  345,347
....................       }else if(RX_Buffer[3]==0x10){//10 es Nivel de Desfogue 
04F20:  BRA    4FAA
04F22:  MOVF   33,W
04F24:  SUBLW  10
04F26:  BNZ   4F38
....................          Menu=13; 
04F28:  MOVLW  0D
04F2A:  MOVWF  x45
....................          if(MenuAntt!=Menu) 
04F2C:  MOVF   x45,W
04F2E:  SUBWF  x47,W
04F30:  BZ    4F36
....................             MenuAntt=Menu; 
04F32:  MOVFF  345,347
....................       }else if(RX_Buffer[3]==0x0f){//0f es Recibe caracteres de contrasea desde display 
04F36:  BRA    4FAA
04F38:  MOVF   33,W
04F3A:  SUBLW  0F
04F3C:  BNZ   4F40
....................           
....................       }else if(RX_Buffer[3]==0x1a){//1a es Menu de Funcionamiento 
04F3E:  BRA    4FAA
04F40:  MOVF   33,W
04F42:  SUBLW  1A
04F44:  BNZ   4F56
....................          Menu=20; 
04F46:  MOVLW  14
04F48:  MOVWF  x45
....................          if(MenuAntt!=Menu) 
04F4A:  MOVF   x45,W
04F4C:  SUBWF  x47,W
04F4E:  BZ    4F54
....................             MenuAntt=Menu; 
04F50:  MOVFF  345,347
....................       }else if(RX_Buffer[3]==0x1b){//1b es Menu de clave correcta 
04F54:  BRA    4FAA
04F56:  MOVF   33,W
04F58:  SUBLW  1B
04F5A:  BNZ   4F6C
....................          Menu=15; 
04F5C:  MOVLW  0F
04F5E:  MOVWF  x45
....................          if(MenuAntt!=Menu) 
04F60:  MOVF   x45,W
04F62:  SUBWF  x47,W
04F64:  BZ    4F6A
....................             MenuAntt=Menu; 
04F66:  MOVFF  345,347
....................       }else if(RX_Buffer[3]==0x1c){//1c es Menu de clave incorrecta 
04F6A:  BRA    4FAA
04F6C:  MOVF   33,W
04F6E:  SUBLW  1C
04F70:  BNZ   4F82
....................          Menu=16; 
04F72:  MOVLW  10
04F74:  MOVWF  x45
....................          if(MenuAntt!=Menu) 
04F76:  MOVF   x45,W
04F78:  SUBWF  x47,W
04F7A:  BZ    4F80
....................             MenuAntt=Menu; 
04F7C:  MOVFF  345,347
....................       }else if(RX_Buffer[3]==0x2c){//2c es Menu de Configuracion de Parametros 
04F80:  BRA    4FAA
04F82:  MOVF   33,W
04F84:  SUBLW  2C
04F86:  BNZ   4F98
....................          Menu=100; 
04F88:  MOVLW  64
04F8A:  MOVWF  x45
....................          if(MenuAntt!=Menu) 
04F8C:  MOVF   x45,W
04F8E:  SUBWF  x47,W
04F90:  BZ    4F96
....................             MenuAntt=Menu; 
04F92:  MOVFF  345,347
....................       }else if(RX_Buffer[3]==0xcc){//cc es Menu de Bienvenida 
04F96:  BRA    4FAA
04F98:  MOVF   33,W
04F9A:  SUBLW  CC
04F9C:  BNZ   4FAA
....................          Menu=240; 
04F9E:  MOVLW  F0
04FA0:  MOVWF  x45
....................          if(MenuAntt!=240) 
04FA2:  MOVF   x47,W
04FA4:  SUBLW  F0
04FA6:  BZ    4FAA
....................             reset_cpu(); 
04FA8:  RESET
....................       } 
....................    } 
.................... } 
04FAA:  MOVLB  0
04FAC:  GOTO   7ED8 (RETURN)
....................  
.................... void ConfiguraCiclo(int8 segest,minest,segsec,minsec,liquidos,ciclo,temperatura,pulsos,nvacio,fug){ 
....................    sEstp=segest; 
*
058D6:  MOVFF  7B6,BB
....................    mEstp=minest; 
058DA:  MOVFF  7B7,BC
....................    sSecp=segsec; 
058DE:  MOVFF  7B8,BD
....................    mSecp=minsec; 
058E2:  MOVFF  7B9,BE
....................    Setpoint=temperatura;                
058E6:  MOVFF  7BC,34C
....................    tiempo_secado=0; 
058EA:  MOVLB  3
058EC:  CLRF   x50
....................    desfoguelento=liquidos; 
058EE:  MOVLB  0
058F0:  BCF    xA6.7
058F2:  MOVLB  7
058F4:  BTFSS  xBA.0
058F6:  BRA    58FE
058F8:  MOVLB  0
058FA:  BSF    xA6.7
058FC:  MOVLB  7
....................    CicloSeleccionado=ciclo; 
058FE:  MOVFF  7BB,34B
....................    sEst=sEstp; 
05902:  MOVFF  BB,B7
....................    mEst=mEstp; 
05906:  MOVFF  BC,B8
....................    sSec=sSecp; 
0590A:  MOVFF  BD,B9
....................    mSec=mSecp; 
0590E:  MOVFF  BE,BA
....................    CantidadPulsos=pulsos; 
05912:  MOVFF  7BD,32C
....................    NivelVacio=nvacio; 
05916:  MOVFF  7BE,32D
....................    Fugas=fug; 
0591A:  MOVLB  0
0591C:  BCF    xA4.0
0591E:  MOVLB  7
05920:  BTFSS  xBF.0
05922:  BRA    592A
05924:  MOVLB  0
05926:  BSF    xA4.0
05928:  MOVLB  7
....................    //TiempoVacio=CantidadPulsos*180; 
....................    Imprime=15; 
0592A:  MOVLW  0F
0592C:  MOVLB  3
0592E:  MOVWF  x89
....................    Envio_Esclavos(); 
05930:  MOVLB  0
05932:  CALL   50F6
....................    delay_ms(100); 
05936:  MOVLW  64
05938:  MOVLB  7
0593A:  MOVWF  xC0
0593C:  MOVLB  0
0593E:  CALL   1E8C
....................    Imprime=10; 
05942:  MOVLW  0A
05944:  MOVLB  3
05946:  MOVWF  x89
.................... } 
05948:  MOVLB  0
0594A:  RETLW  00
....................  
.................... void ActivaAlarma(int8 Tipo){ 
....................     
....................    if(tsilencio>12000){ 
*
0541A:  MOVLB  3
0541C:  MOVF   x78,W
0541E:  SUBLW  2D
05420:  BC    5434
05422:  XORLW  FF
05424:  BNZ   542C
05426:  MOVF   x77,W
05428:  SUBLW  E0
0542A:  BC    5434
....................       tsilencio=0; 
0542C:  CLRF   x78
0542E:  CLRF   x77
....................       flagSilencio=OFF; 
05430:  MOVLB  0
05432:  BCF    xA3.3
....................    } 
....................     
....................    if(Tipo==1){ // Alarma por Error 
05434:  MOVLB  7
05436:  DECFSZ xB0,W
05438:  BRA    5486
....................    if(UP || DOWN || RIGHT || LEFT) 
0543A:  MOVLB  0
0543C:  BTFSC  xA0.0
0543E:  BRA    544C
05440:  BTFSC  xA0.1
05442:  BRA    544C
05444:  BTFSC  xA0.2
05446:  BRA    544C
05448:  BTFSS  xA0.3
0544A:  BRA    544E
....................       flagSilencio=ON; 
0544C:  BSF    xA3.3
....................        
....................       if(!flagSilencio){ 
0544E:  BTFSC  xA3.3
05450:  BRA    547C
....................          flagAlarma=1; 
05452:  BSF    xA3.1
....................          if(tbuzzer>200){ 
05454:  MOVLB  3
05456:  MOVF   x76,F
05458:  BNZ   5460
0545A:  MOVF   x75,W
0545C:  SUBLW  C8
0545E:  BC    5478
....................             tbuzzer=0; 
05460:  CLRF   x76
05462:  CLRF   x75
....................             flagBuzzer=!flagBuzzer; 
05464:  MOVLB  0
05466:  BTG    xA3.2
....................             if(flagBuzzer) 
05468:  BTFSS  xA3.2
0546A:  BRA    5472
....................                Buzzer_on; 
0546C:  BSF    F8C.7
0546E:  BCF    F95.7
....................             else 
05470:  BRA    5476
....................                Buzzer_off; 
05472:  BCF    F8C.7
05474:  BCF    F95.7
05476:  MOVLB  3
....................          } 
....................       }else{ 
05478:  BRA    5482
0547A:  MOVLB  0
....................          Buzzer_off; 
0547C:  BCF    F8C.7
0547E:  BCF    F95.7
05480:  MOVLB  3
....................       } 
....................    }else if(Tipo==2){ 
05482:  BRA    54DA
05484:  MOVLB  7
05486:  MOVF   xB0,W
05488:  SUBLW  02
0548A:  BNZ   54DC
....................    if(UP || DOWN || RIGHT || LEFT) 
0548C:  MOVLB  0
0548E:  BTFSC  xA0.0
05490:  BRA    549E
05492:  BTFSC  xA0.1
05494:  BRA    549E
05496:  BTFSC  xA0.2
05498:  BRA    549E
0549A:  BTFSS  xA0.3
0549C:  BRA    54A6
....................       ConteoBuzzer=21; 
0549E:  MOVLW  15
054A0:  MOVLB  3
054A2:  MOVWF  x72
054A4:  MOVLB  0
....................        
....................       flagAlarma=1; 
054A6:  BSF    xA3.1
....................       if(ConteoBuzzer<20){    
054A8:  MOVLB  3
054AA:  MOVF   x72,W
054AC:  SUBLW  13
054AE:  BNC   54D6
....................          if(tbuzzer>100){ 
054B0:  MOVF   x76,F
054B2:  BNZ   54BA
054B4:  MOVF   x75,W
054B6:  SUBLW  64
054B8:  BC    54D4
....................             tbuzzer=0; 
054BA:  CLRF   x76
054BC:  CLRF   x75
....................             flagBuzzer=!flagBuzzer; 
054BE:  MOVLB  0
054C0:  BTG    xA3.2
....................             if(flagBuzzer) 
054C2:  BTFSS  xA3.2
054C4:  BRA    54CC
....................                Buzzer_on; 
054C6:  BSF    F8C.7
054C8:  BCF    F95.7
....................             else 
054CA:  BRA    54D0
....................                Buzzer_off; 
054CC:  BCF    F8C.7
054CE:  BCF    F95.7
....................                 
....................             ConteoBuzzer++;    
054D0:  MOVLB  3
054D2:  INCF   x72,F
....................          } 
....................       }else{ 
054D4:  BRA    54DA
....................          Buzzer_off; 
054D6:  BCF    F8C.7
054D8:  BCF    F95.7
054DA:  MOVLB  7
....................       } 
....................    } 
.................... } 
054DC:  MOVLB  0
054DE:  RETLW  00
....................  
.................... void ControlaPresion(){ 
....................    if(Setpoint<125){ 
*
06F28:  MOVLB  3
06F2A:  MOVF   x4C,W
06F2C:  SUBLW  7C
06F2E:  BNC   6F7E
....................       if(Setpoint<115){ 
06F30:  MOVF   x4C,W
06F32:  SUBLW  72
06F34:  BNC   6F5A
....................          if(PresionPrecamara>=60){ 
06F36:  MOVF   x61,F
06F38:  BNZ   6F40
06F3A:  MOVF   x60,W
06F3C:  SUBLW  3B
06F3E:  BC    6F4A
....................             SSR_off; 
06F40:  BCF    F8D.1
06F42:  BCF    F96.1
....................             Precalentamiento=ON; 
06F44:  MOVLB  0
06F46:  BSF    xA4.3
06F48:  MOVLB  3
....................          } 
....................          if(PresionPrecamara<50) 
06F4A:  MOVF   x61,F
06F4C:  BNZ   6F58
06F4E:  MOVF   x60,W
06F50:  SUBLW  31
06F52:  BNC   6F58
....................             SSR_on; 
06F54:  BSF    F8D.1
06F56:  BCF    F96.1
....................       }else{  
06F58:  BRA    6F7C
....................          if(PresionPrecamara>=140){ 
06F5A:  MOVF   x61,F
06F5C:  BNZ   6F64
06F5E:  MOVF   x60,W
06F60:  SUBLW  8B
06F62:  BC    6F6E
....................             SSR_off; 
06F64:  BCF    F8D.1
06F66:  BCF    F96.1
....................             Precalentamiento=ON; 
06F68:  MOVLB  0
06F6A:  BSF    xA4.3
06F6C:  MOVLB  3
....................          } 
....................          if(PresionPrecamara<130) 
06F6E:  MOVF   x61,F
06F70:  BNZ   6F7C
06F72:  MOVF   x60,W
06F74:  SUBLW  81
06F76:  BNC   6F7C
....................             SSR_on; 
06F78:  BSF    F8D.1
06F7A:  BCF    F96.1
....................       } 
....................    }else{ 
06F7C:  BRA    6FA0
....................       if(PresionPrecamara>=200){ 
06F7E:  MOVF   x61,F
06F80:  BNZ   6F88
06F82:  MOVF   x60,W
06F84:  SUBLW  C7
06F86:  BC    6F92
....................          SSR_off; 
06F88:  BCF    F8D.1
06F8A:  BCF    F96.1
....................          Precalentamiento=ON; 
06F8C:  MOVLB  0
06F8E:  BSF    xA4.3
06F90:  MOVLB  3
....................       } 
....................       if(PresionPrecamara<190) 
06F92:  MOVF   x61,F
06F94:  BNZ   6FA0
06F96:  MOVF   x60,W
06F98:  SUBLW  BD
06F9A:  BNC   6FA0
....................          SSR_on; 
06F9C:  BSF    F8D.1
06F9E:  BCF    F96.1
....................    } 
.................... } 
06FA0:  MOVLB  0
06FA2:  RETLW  00
....................  
.................... void ApagaSalidas(){ 
....................    Desfogue_off; 
*
03E5C:  BSF    F8B.1
03E5E:  BCF    F94.1
....................    Agua_off; 
03E60:  BSF    F8B.2
03E62:  BCF    F94.2
....................    Buzzer_off; 
03E64:  BCF    F8C.7
03E66:  BCF    F95.7
....................    SSR_off; 
03E68:  BCF    F8D.1
03E6A:  BCF    F96.1
....................    Agua_off; 
03E6C:  BSF    F8B.2
03E6E:  BCF    F94.2
....................    Paso_off; 
03E70:  BSF    F8B.0
03E72:  BCF    F94.0
....................    SSR2_off; 
03E74:  BCF    F8D.2
03E76:  BCF    F96.2
....................    Controlando=0; 
03E78:  MOVLB  3
03E7A:  CLRF   x3E
.................... } 
03E7C:  MOVLB  0
03E7E:  RETLW  00
....................  
.................... void purgaAire(){ 
....................    if(!purga){ 
....................       for(i=0;i<4;i++){ 
....................          Desfogue_on; 
....................          delay_ms(2000); 
....................          Desfogue_off; 
....................          delay_ms(1000); 
....................       } 
....................       purga=ON; 
....................    } 
.................... } 
....................  
.................... void GuardaDatoEstatico(){ 
*
06840:  MOVLB  7
06842:  CLRF   xB1
06844:  CLRF   xB0
06846:  CLRF   xB3
06848:  CLRF   xB2
....................    int16 posCiclo=0,cicloMemoria=0; 
....................    posCiclo=Ciclos/200; 
0684A:  MOVFF  363,7B5
0684E:  MOVFF  362,7B4
06852:  CLRF   xB7
06854:  MOVLW  C8
06856:  MOVWF  xB6
06858:  MOVLB  0
0685A:  CALL   5B58
0685E:  MOVFF  02,7B1
06862:  MOVFF  01,7B0
....................    cicloMemoria=Ciclos-(posCiclo*200); 
06866:  MOVFF  7B1,7BB
0686A:  MOVFF  7B0,7BA
0686E:  MOVLB  7
06870:  CLRF   xBD
06872:  MOVLW  C8
06874:  MOVWF  xBC
06876:  MOVLB  0
06878:  CALL   1F28
0687C:  MOVF   01,W
0687E:  MOVLB  3
06880:  SUBWF  x62,W
06882:  MOVLB  7
06884:  MOVWF  xB2
06886:  MOVF   02,W
06888:  MOVLB  3
0688A:  SUBWFB x63,W
0688C:  MOVLB  7
0688E:  MOVWF  xB3
....................    if(!disp_Guarda){ 
06890:  MOVLB  0
06892:  BTFSC  xA4.1
06894:  BRA    6A2A
....................       write_ext_eeprom(cicloMemoria*320,codigoUsuario); 
06896:  MOVFF  7B3,7BB
0689A:  MOVFF  7B2,7BA
0689E:  MOVLW  01
068A0:  MOVLB  7
068A2:  MOVWF  xBD
068A4:  MOVLW  40
068A6:  MOVWF  xBC
068A8:  MOVLB  0
068AA:  CALL   1F28
068AE:  MOVFF  02,7B5
068B2:  MOVFF  01,7B4
068B6:  MOVFF  02,7B8
068BA:  MOVFF  01,7B7
068BE:  MOVFF  C1,7B9
068C2:  RCALL  672E
....................       delay_ms(10); 
068C4:  MOVLW  0A
068C6:  MOVLB  7
068C8:  MOVWF  xC0
068CA:  MOVLB  0
068CC:  CALL   1E8C
....................       if(!Libre) 
068D0:  BTFSC  xA3.6
068D2:  BRA    690E
....................          write_ext_eeprom(1+(cicloMemoria*320),CicloSeleccionado); 
068D4:  MOVFF  7B3,7BB
068D8:  MOVFF  7B2,7BA
068DC:  MOVLW  01
068DE:  MOVLB  7
068E0:  MOVWF  xBD
068E2:  MOVLW  40
068E4:  MOVWF  xBC
068E6:  MOVLB  0
068E8:  CALL   1F28
068EC:  MOVFF  02,03
068F0:  MOVF   01,W
068F2:  ADDLW  01
068F4:  MOVLB  7
068F6:  MOVWF  xB4
068F8:  MOVLW  00
068FA:  ADDWFC 02,W
068FC:  MOVWF  xB5
068FE:  MOVWF  xB8
06900:  MOVFF  7B4,7B7
06904:  MOVFF  34B,7B9
06908:  MOVLB  0
0690A:  RCALL  672E
....................       else 
0690C:  BRA    6950
....................          write_ext_eeprom(1+(cicloMemoria*320),CicloLibre+10); 
0690E:  MOVFF  7B3,7BB
06912:  MOVFF  7B2,7BA
06916:  MOVLW  01
06918:  MOVLB  7
0691A:  MOVWF  xBD
0691C:  MOVLW  40
0691E:  MOVWF  xBC
06920:  MOVLB  0
06922:  CALL   1F28
06926:  MOVFF  02,03
0692A:  MOVF   01,W
0692C:  ADDLW  01
0692E:  MOVLB  7
06930:  MOVWF  xB4
06932:  MOVLW  00
06934:  ADDWFC 02,W
06936:  MOVWF  xB5
06938:  MOVLW  0A
0693A:  MOVLB  3
0693C:  ADDWF  x2B,W
0693E:  MOVLB  7
06940:  MOVWF  xB6
06942:  MOVFF  7B5,7B8
06946:  MOVFF  7B4,7B7
0694A:  MOVWF  xB9
0694C:  MOVLB  0
0694E:  RCALL  672E
....................       delay_ms(10); 
06950:  MOVLW  0A
06952:  MOVLB  7
06954:  MOVWF  xC0
06956:  MOVLB  0
06958:  CALL   1E8C
....................       write_ext_eeprom(2+(cicloMemoria*320),Dia); 
0695C:  MOVFF  7B3,7BB
06960:  MOVFF  7B2,7BA
06964:  MOVLW  01
06966:  MOVLB  7
06968:  MOVWF  xBD
0696A:  MOVLW  40
0696C:  MOVWF  xBC
0696E:  MOVLB  0
06970:  CALL   1F28
06974:  MOVFF  02,03
06978:  MOVF   01,W
0697A:  ADDLW  02
0697C:  MOVLB  7
0697E:  MOVWF  xB4
06980:  MOVLW  00
06982:  ADDWFC 02,W
06984:  MOVWF  xB5
06986:  MOVWF  xB8
06988:  MOVFF  7B4,7B7
0698C:  MOVFF  37D,7B9
06990:  MOVLB  0
06992:  RCALL  672E
....................       delay_ms(10); 
06994:  MOVLW  0A
06996:  MOVLB  7
06998:  MOVWF  xC0
0699A:  MOVLB  0
0699C:  CALL   1E8C
....................       write_ext_eeprom(3+(cicloMemoria*320),Mes); 
069A0:  MOVFF  7B3,7BB
069A4:  MOVFF  7B2,7BA
069A8:  MOVLW  01
069AA:  MOVLB  7
069AC:  MOVWF  xBD
069AE:  MOVLW  40
069B0:  MOVWF  xBC
069B2:  MOVLB  0
069B4:  CALL   1F28
069B8:  MOVFF  02,03
069BC:  MOVF   01,W
069BE:  ADDLW  03
069C0:  MOVLB  7
069C2:  MOVWF  xB4
069C4:  MOVLW  00
069C6:  ADDWFC 02,W
069C8:  MOVWF  xB5
069CA:  MOVWF  xB8
069CC:  MOVFF  7B4,7B7
069D0:  MOVFF  37C,7B9
069D4:  MOVLB  0
069D6:  RCALL  672E
....................       delay_ms(10); 
069D8:  MOVLW  0A
069DA:  MOVLB  7
069DC:  MOVWF  xC0
069DE:  MOVLB  0
069E0:  CALL   1E8C
....................       write_ext_eeprom(4+(cicloMemoria*320),Year); 
069E4:  MOVFF  7B3,7BB
069E8:  MOVFF  7B2,7BA
069EC:  MOVLW  01
069EE:  MOVLB  7
069F0:  MOVWF  xBD
069F2:  MOVLW  40
069F4:  MOVWF  xBC
069F6:  MOVLB  0
069F8:  CALL   1F28
069FC:  MOVFF  02,03
06A00:  MOVF   01,W
06A02:  ADDLW  04
06A04:  MOVLB  7
06A06:  MOVWF  xB4
06A08:  MOVLW  00
06A0A:  ADDWFC 02,W
06A0C:  MOVWF  xB5
06A0E:  MOVWF  xB8
06A10:  MOVFF  7B4,7B7
06A14:  MOVFF  37B,7B9
06A18:  MOVLB  0
06A1A:  RCALL  672E
....................       delay_ms(10);  
06A1C:  MOVLW  0A
06A1E:  MOVLB  7
06A20:  MOVWF  xC0
06A22:  MOVLB  0
06A24:  CALL   1E8C
....................       disp_Guarda=1; 
06A28:  BSF    xA4.1
....................    }    
.................... } 
06A2A:  GOTO   C87A (RETURN)
....................  
.................... void GuardaDatoCiclo(){ 
*
06AF8:  MOVLB  7
06AFA:  CLRF   xB1
06AFC:  CLRF   xB0
06AFE:  CLRF   xB3
06B00:  CLRF   xB2
....................    int16 posCiclo=0,cicloMemoria=0; 
....................    posCiclo=Ciclos/200; 
06B02:  MOVFF  363,7B5
06B06:  MOVFF  362,7B4
06B0A:  CLRF   xB7
06B0C:  MOVLW  C8
06B0E:  MOVWF  xB6
06B10:  MOVLB  0
06B12:  CALL   5B58
06B16:  MOVFF  02,7B1
06B1A:  MOVFF  01,7B0
....................    if(!Ciclo){ 
06B1E:  BTFSC  xA2.1
06B20:  BRA    6E98
....................       cicloMemoria=Ciclos-(posCiclo*200); 
06B22:  MOVFF  7B1,7BB
06B26:  MOVFF  7B0,7BA
06B2A:  MOVLB  7
06B2C:  CLRF   xBD
06B2E:  MOVLW  C8
06B30:  MOVWF  xBC
06B32:  MOVLB  0
06B34:  CALL   1F28
06B38:  MOVF   01,W
06B3A:  MOVLB  3
06B3C:  SUBWF  x62,W
06B3E:  MOVLB  7
06B40:  MOVWF  xB2
06B42:  MOVF   02,W
06B44:  MOVLB  3
06B46:  SUBWFB x63,W
06B48:  MOVLB  7
06B4A:  MOVWF  xB3
....................       write_ext_eeprom(5+(cicloMemoria*320)+(posicionDato*9),(int8)Temperatura); 
06B4C:  MOVFF  7B3,7BB
06B50:  MOVFF  7B2,7BA
06B54:  MOVLW  01
06B56:  MOVWF  xBD
06B58:  MOVLW  40
06B5A:  MOVWF  xBC
06B5C:  MOVLB  0
06B5E:  CALL   1F28
06B62:  MOVFF  02,03
06B66:  MOVF   01,W
06B68:  ADDLW  05
06B6A:  MOVLB  7
06B6C:  MOVWF  xB4
06B6E:  MOVLW  00
06B70:  ADDWFC 02,W
06B72:  MOVWF  xB5
06B74:  MOVLB  3
06B76:  MOVF   x2F,W
06B78:  MULLW  09
06B7A:  MOVF   FF3,W
06B7C:  MOVLB  7
06B7E:  ADDWF  xB4,F
06B80:  MOVLW  00
06B82:  ADDWFC xB5,F
06B84:  MOVFF  314,7C5
06B88:  MOVFF  313,7C4
06B8C:  MOVFF  312,7C3
06B90:  MOVFF  311,7C2
06B94:  MOVLB  0
06B96:  CALL   4AAC
06B9A:  MOVFF  01,7B6
06B9E:  MOVFF  7B5,7B8
06BA2:  MOVFF  7B4,7B7
06BA6:  MOVFF  01,7B9
06BAA:  RCALL  672E
....................       delay_ms(10); 
06BAC:  MOVLW  0A
06BAE:  MOVLB  7
06BB0:  MOVWF  xC0
06BB2:  MOVLB  0
06BB4:  CALL   1E8C
....................       write_ext_eeprom(6+(cicloMemoria*320)+(posicionDato*9),extraeDecimal(Temperatura)); 
06BB8:  MOVFF  7B3,7BB
06BBC:  MOVFF  7B2,7BA
06BC0:  MOVLW  01
06BC2:  MOVLB  7
06BC4:  MOVWF  xBD
06BC6:  MOVLW  40
06BC8:  MOVWF  xBC
06BCA:  MOVLB  0
06BCC:  CALL   1F28
06BD0:  MOVFF  02,03
06BD4:  MOVF   01,W
06BD6:  ADDLW  06
06BD8:  MOVLB  7
06BDA:  MOVWF  xB4
06BDC:  MOVLW  00
06BDE:  ADDWFC 02,W
06BE0:  MOVWF  xB5
06BE2:  MOVLB  3
06BE4:  MOVF   x2F,W
06BE6:  MULLW  09
06BE8:  MOVF   FF3,W
06BEA:  MOVLB  7
06BEC:  ADDWF  xB4,F
06BEE:  MOVLW  00
06BF0:  ADDWFC xB5,F
06BF2:  MOVFF  314,7B9
06BF6:  MOVFF  313,7B8
06BFA:  MOVFF  312,7B7
06BFE:  MOVFF  311,7B6
06C02:  MOVLB  0
06C04:  BRA    6A2E
06C06:  MOVFF  01,7B6
06C0A:  MOVFF  7B5,7B8
06C0E:  MOVFF  7B4,7B7
06C12:  MOVFF  01,7B9
06C16:  RCALL  672E
....................       delay_ms(10); 
06C18:  MOVLW  0A
06C1A:  MOVLB  7
06C1C:  MOVWF  xC0
06C1E:  MOVLB  0
06C20:  CALL   1E8C
....................       write_ext_eeprom(7+(cicloMemoria*320)+(posicionDato*9),make8(PresionCamara,1)); 
06C24:  MOVFF  7B3,7BB
06C28:  MOVFF  7B2,7BA
06C2C:  MOVLW  01
06C2E:  MOVLB  7
06C30:  MOVWF  xBD
06C32:  MOVLW  40
06C34:  MOVWF  xBC
06C36:  MOVLB  0
06C38:  CALL   1F28
06C3C:  MOVFF  02,03
06C40:  MOVF   01,W
06C42:  ADDLW  07
06C44:  MOVLB  7
06C46:  MOVWF  xB4
06C48:  MOVLW  00
06C4A:  ADDWFC 02,W
06C4C:  MOVWF  xB5
06C4E:  MOVLB  3
06C50:  MOVF   x2F,W
06C52:  MULLW  09
06C54:  MOVF   FF3,W
06C56:  MOVLB  7
06C58:  ADDWF  xB4,F
06C5A:  MOVLW  00
06C5C:  ADDWFC xB5,F
06C5E:  MOVFF  35F,7B6
06C62:  MOVFF  7B5,7B8
06C66:  MOVFF  7B4,7B7
06C6A:  MOVFF  35F,7B9
06C6E:  MOVLB  0
06C70:  RCALL  672E
....................       delay_ms(10); 
06C72:  MOVLW  0A
06C74:  MOVLB  7
06C76:  MOVWF  xC0
06C78:  MOVLB  0
06C7A:  CALL   1E8C
....................       write_ext_eeprom(8+(cicloMemoria*320)+(posicionDato*9),make8(PresionCamara,0)); 
06C7E:  MOVFF  7B3,7BB
06C82:  MOVFF  7B2,7BA
06C86:  MOVLW  01
06C88:  MOVLB  7
06C8A:  MOVWF  xBD
06C8C:  MOVLW  40
06C8E:  MOVWF  xBC
06C90:  MOVLB  0
06C92:  CALL   1F28
06C96:  MOVFF  02,03
06C9A:  MOVF   01,W
06C9C:  ADDLW  08
06C9E:  MOVLB  7
06CA0:  MOVWF  xB4
06CA2:  MOVLW  00
06CA4:  ADDWFC 02,W
06CA6:  MOVWF  xB5
06CA8:  MOVLB  3
06CAA:  MOVF   x2F,W
06CAC:  MULLW  09
06CAE:  MOVF   FF3,W
06CB0:  MOVLB  7
06CB2:  ADDWF  xB4,F
06CB4:  MOVLW  00
06CB6:  ADDWFC xB5,F
06CB8:  MOVFF  35E,7B6
06CBC:  MOVFF  7B5,7B8
06CC0:  MOVFF  7B4,7B7
06CC4:  MOVFF  35E,7B9
06CC8:  MOVLB  0
06CCA:  RCALL  672E
....................       delay_ms(10); 
06CCC:  MOVLW  0A
06CCE:  MOVLB  7
06CD0:  MOVWF  xC0
06CD2:  MOVLB  0
06CD4:  CALL   1E8C
....................       write_ext_eeprom(9+(cicloMemoria*320)+(posicionDato*9),make8(PresionPreCamara,1)); 
06CD8:  MOVFF  7B3,7BB
06CDC:  MOVFF  7B2,7BA
06CE0:  MOVLW  01
06CE2:  MOVLB  7
06CE4:  MOVWF  xBD
06CE6:  MOVLW  40
06CE8:  MOVWF  xBC
06CEA:  MOVLB  0
06CEC:  CALL   1F28
06CF0:  MOVFF  02,03
06CF4:  MOVF   01,W
06CF6:  ADDLW  09
06CF8:  MOVLB  7
06CFA:  MOVWF  xB4
06CFC:  MOVLW  00
06CFE:  ADDWFC 02,W
06D00:  MOVWF  xB5
06D02:  MOVLB  3
06D04:  MOVF   x2F,W
06D06:  MULLW  09
06D08:  MOVF   FF3,W
06D0A:  MOVLB  7
06D0C:  ADDWF  xB4,F
06D0E:  MOVLW  00
06D10:  ADDWFC xB5,F
06D12:  MOVFF  361,7B6
06D16:  MOVFF  7B5,7B8
06D1A:  MOVFF  7B4,7B7
06D1E:  MOVFF  361,7B9
06D22:  MOVLB  0
06D24:  RCALL  672E
....................       delay_ms(10); 
06D26:  MOVLW  0A
06D28:  MOVLB  7
06D2A:  MOVWF  xC0
06D2C:  MOVLB  0
06D2E:  CALL   1E8C
....................       write_ext_eeprom(10+(cicloMemoria*320)+(posicionDato*9),make8(PresionPreCamara,0)); 
06D32:  MOVFF  7B3,7BB
06D36:  MOVFF  7B2,7BA
06D3A:  MOVLW  01
06D3C:  MOVLB  7
06D3E:  MOVWF  xBD
06D40:  MOVLW  40
06D42:  MOVWF  xBC
06D44:  MOVLB  0
06D46:  CALL   1F28
06D4A:  MOVFF  02,03
06D4E:  MOVF   01,W
06D50:  ADDLW  0A
06D52:  MOVLB  7
06D54:  MOVWF  xB4
06D56:  MOVLW  00
06D58:  ADDWFC 02,W
06D5A:  MOVWF  xB5
06D5C:  MOVLB  3
06D5E:  MOVF   x2F,W
06D60:  MULLW  09
06D62:  MOVF   FF3,W
06D64:  MOVLB  7
06D66:  ADDWF  xB4,F
06D68:  MOVLW  00
06D6A:  ADDWFC xB5,F
06D6C:  MOVFF  360,7B6
06D70:  MOVFF  7B5,7B8
06D74:  MOVFF  7B4,7B7
06D78:  MOVFF  360,7B9
06D7C:  MOVLB  0
06D7E:  RCALL  672E
....................       delay_ms(10); 
06D80:  MOVLW  0A
06D82:  MOVLB  7
06D84:  MOVWF  xC0
06D86:  MOVLB  0
06D88:  CALL   1E8C
....................       write_ext_eeprom(11+(cicloMemoria*320)+(posicionDato*9),Hora); 
06D8C:  MOVFF  7B3,7BB
06D90:  MOVFF  7B2,7BA
06D94:  MOVLW  01
06D96:  MOVLB  7
06D98:  MOVWF  xBD
06D9A:  MOVLW  40
06D9C:  MOVWF  xBC
06D9E:  MOVLB  0
06DA0:  CALL   1F28
06DA4:  MOVFF  02,03
06DA8:  MOVF   01,W
06DAA:  ADDLW  0B
06DAC:  MOVLB  7
06DAE:  MOVWF  xB4
06DB0:  MOVLW  00
06DB2:  ADDWFC 02,W
06DB4:  MOVWF  xB5
06DB6:  MOVLB  3
06DB8:  MOVF   x2F,W
06DBA:  MULLW  09
06DBC:  MOVF   FF3,W
06DBE:  MOVLB  7
06DC0:  ADDWF  xB4,F
06DC2:  MOVLW  00
06DC4:  ADDWFC xB5,F
06DC6:  MOVFF  7B5,7B8
06DCA:  MOVFF  7B4,7B7
06DCE:  MOVFF  37E,7B9
06DD2:  MOVLB  0
06DD4:  RCALL  672E
....................       delay_ms(10); 
06DD6:  MOVLW  0A
06DD8:  MOVLB  7
06DDA:  MOVWF  xC0
06DDC:  MOVLB  0
06DDE:  CALL   1E8C
....................       write_ext_eeprom(12+(cicloMemoria*320)+(posicionDato*9),Minuto); 
06DE2:  MOVFF  7B3,7BB
06DE6:  MOVFF  7B2,7BA
06DEA:  MOVLW  01
06DEC:  MOVLB  7
06DEE:  MOVWF  xBD
06DF0:  MOVLW  40
06DF2:  MOVWF  xBC
06DF4:  MOVLB  0
06DF6:  CALL   1F28
06DFA:  MOVFF  02,03
06DFE:  MOVF   01,W
06E00:  ADDLW  0C
06E02:  MOVLB  7
06E04:  MOVWF  xB4
06E06:  MOVLW  00
06E08:  ADDWFC 02,W
06E0A:  MOVWF  xB5
06E0C:  MOVLB  3
06E0E:  MOVF   x2F,W
06E10:  MULLW  09
06E12:  MOVF   FF3,W
06E14:  MOVLB  7
06E16:  ADDWF  xB4,F
06E18:  MOVLW  00
06E1A:  ADDWFC xB5,F
06E1C:  MOVFF  7B5,7B8
06E20:  MOVFF  7B4,7B7
06E24:  MOVFF  37F,7B9
06E28:  MOVLB  0
06E2A:  RCALL  672E
....................       delay_ms(10); 
06E2C:  MOVLW  0A
06E2E:  MOVLB  7
06E30:  MOVWF  xC0
06E32:  MOVLB  0
06E34:  CALL   1E8C
....................       write_ext_eeprom(13+(cicloMemoria*320)+(posicionDato*9),codigoAlarma); 
06E38:  MOVFF  7B3,7BB
06E3C:  MOVFF  7B2,7BA
06E40:  MOVLW  01
06E42:  MOVLB  7
06E44:  MOVWF  xBD
06E46:  MOVLW  40
06E48:  MOVWF  xBC
06E4A:  MOVLB  0
06E4C:  CALL   1F28
06E50:  MOVFF  02,03
06E54:  MOVF   01,W
06E56:  ADDLW  0D
06E58:  MOVLB  7
06E5A:  MOVWF  xB4
06E5C:  MOVLW  00
06E5E:  ADDWFC 02,W
06E60:  MOVWF  xB5
06E62:  MOVLB  3
06E64:  MOVF   x2F,W
06E66:  MULLW  09
06E68:  MOVF   FF3,W
06E6A:  MOVLB  7
06E6C:  ADDWF  xB4,F
06E6E:  MOVLW  00
06E70:  ADDWFC xB5,F
06E72:  MOVFF  7B5,7B8
06E76:  MOVFF  7B4,7B7
06E7A:  MOVFF  330,7B9
06E7E:  MOVLB  0
06E80:  RCALL  672E
....................       delay_ms(10); 
06E82:  MOVLW  0A
06E84:  MOVLB  7
06E86:  MOVWF  xC0
06E88:  MOVLB  0
06E8A:  CALL   1E8C
....................     
....................       if(posicionDato<35) 
06E8E:  MOVLB  3
06E90:  MOVF   x2F,W
06E92:  SUBLW  22
06E94:  BNC   6E98
....................          ++posicionDato; 
06E96:  INCF   x2F,F
06E98:  MOVLB  0
....................    } 
.................... } 
06E9A:  RETLW  00
....................  
.................... void incrementaCiclos(){ 
....................    if(!Ciclo){ 
06E9C:  BTFSC  xA2.1
06E9E:  BRA    6F26
....................       Ciclo=ON; 
06EA0:  BSF    xA2.1
....................       Ciclos++; 
06EA2:  MOVLB  3
06EA4:  INCF   x62,F
06EA6:  BTFSC  FD8.2
06EA8:  INCF   x63,F
....................       CiclosL=make8(Ciclos,0); 
06EAA:  MOVFF  362,349
....................       CiclosH=make8(Ciclos,1); 
06EAE:  MOVFF  363,34A
....................       write_eeprom(37,CiclosL); 
06EB2:  CLRF   FAA
06EB4:  MOVLW  25
06EB6:  MOVWF  FA9
06EB8:  MOVFF  349,FA8
06EBC:  BCF    FA6.6
06EBE:  BCF    FA6.7
06EC0:  BSF    FA6.2
06EC2:  MOVF   FF2,W
06EC4:  MOVWF  00
06EC6:  BCF    FF2.6
06EC8:  BCF    FF2.7
06ECA:  MOVLB  F
06ECC:  MOVLW  55
06ECE:  MOVWF  FA7
06ED0:  MOVLW  AA
06ED2:  MOVWF  FA7
06ED4:  BSF    FA6.1
06ED6:  BTFSC  FA6.1
06ED8:  BRA    6ED6
06EDA:  BCF    FA6.2
06EDC:  MOVF   00,W
06EDE:  IORWF  FF2,F
....................       delay_ms(20); 
06EE0:  MOVLW  14
06EE2:  MOVLB  7
06EE4:  MOVWF  xC0
06EE6:  MOVLB  0
06EE8:  CALL   1E8C
....................       write_eeprom(38,CiclosH); 
06EEC:  CLRF   FAA
06EEE:  MOVLW  26
06EF0:  MOVWF  FA9
06EF2:  MOVFF  34A,FA8
06EF6:  BCF    FA6.6
06EF8:  BCF    FA6.7
06EFA:  BSF    FA6.2
06EFC:  MOVF   FF2,W
06EFE:  MOVWF  00
06F00:  BCF    FF2.6
06F02:  BCF    FF2.7
06F04:  MOVLB  F
06F06:  MOVLW  55
06F08:  MOVWF  FA7
06F0A:  MOVLW  AA
06F0C:  MOVWF  FA7
06F0E:  BSF    FA6.1
06F10:  BTFSC  FA6.1
06F12:  BRA    6F10
06F14:  BCF    FA6.2
06F16:  MOVF   00,W
06F18:  IORWF  FF2,F
....................       delay_ms(20); 
06F1A:  MOVLW  14
06F1C:  MOVLB  7
06F1E:  MOVWF  xC0
06F20:  MOVLB  0
06F22:  CALL   1E8C
....................    } 
.................... } 
06F26:  RETLW  00
....................  
.................... void exportarData(){ 
*
05D70:  MOVLB  7
05D72:  CLRF   xB1
05D74:  CLRF   xB0
05D76:  CLRF   xB2
.................... int16 posicion=0; 
.................... int8 tmp=0; 
.................... posicion=40; 
05D78:  CLRF   xB1
05D7A:  MOVLW  28
05D7C:  MOVWF  xB0
.................... direccion=0xB0; 
05D7E:  MOVLW  B0
05D80:  MOVLB  0
05D82:  MOVWF  x85
.................... //Buzzer_on; 
.................... //Inicio de Transmision 
.................... i2c_start();            // Comienzo comunicacin 
05D84:  BSF    F94.4
05D86:  MOVLW  05
05D88:  MOVWF  00
05D8A:  DECFSZ 00,F
05D8C:  BRA    5D8A
05D8E:  BSF    F94.3
05D90:  MOVLW  06
05D92:  MOVWF  00
05D94:  DECFSZ 00,F
05D96:  BRA    5D94
05D98:  BCF    F8B.4
05D9A:  BCF    F94.4
05D9C:  MOVLW  05
05D9E:  MOVWF  00
05DA0:  DECFSZ 00,F
05DA2:  BRA    5DA0
05DA4:  BCF    F8B.3
05DA6:  BCF    F94.3
.................... i2c_write(direccion);   // Direccin del esclavo en el bus I2C 
05DA8:  MOVFF  85,7C4
05DAC:  CALL   1F4A
.................... i2c_write(make8(posicion,0));    // Posicin donde se guardara el dato transmitido 
05DB0:  MOVFF  7B0,7B3
05DB4:  MOVFF  7B0,7C4
05DB8:  CALL   1F4A
.................... i2c_write(make8(posicion,1));    // Posicin donde se guardara el dato transmitido 
05DBC:  MOVFF  7B1,7B3
05DC0:  MOVFF  7B1,7C4
05DC4:  CALL   1F4A
.................... i2c_write(0xff);        // Dato a transmitir 
05DC8:  MOVLW  FF
05DCA:  MOVLB  7
05DCC:  MOVWF  xC4
05DCE:  MOVLB  0
05DD0:  CALL   1F4A
.................... i2c_stop(); 
05DD4:  BCF    F94.4
05DD6:  NOP   
05DD8:  BSF    F94.3
05DDA:  BTFSS  F82.3
05DDC:  BRA    5DDA
05DDE:  MOVLW  05
05DE0:  MOVWF  00
05DE2:  DECFSZ 00,F
05DE4:  BRA    5DE2
05DE6:  BRA    5DE8
05DE8:  NOP   
05DEA:  BSF    F94.4
05DEC:  MOVLW  05
05DEE:  MOVWF  00
05DF0:  DECFSZ 00,F
05DF2:  BRA    5DF0
.................... ++posicion; 
05DF4:  MOVLB  7
05DF6:  INCF   xB0,F
05DF8:  BTFSC  FD8.2
05DFA:  INCF   xB1,F
.................... i2c_start();            // Comienzo comunicacin 
05DFC:  BSF    F94.4
05DFE:  MOVLW  05
05E00:  MOVWF  00
05E02:  DECFSZ 00,F
05E04:  BRA    5E02
05E06:  BSF    F94.3
05E08:  MOVLW  06
05E0A:  MOVWF  00
05E0C:  DECFSZ 00,F
05E0E:  BRA    5E0C
05E10:  BCF    F8B.4
05E12:  BCF    F94.4
05E14:  MOVLW  05
05E16:  MOVWF  00
05E18:  DECFSZ 00,F
05E1A:  BRA    5E18
05E1C:  BCF    F8B.3
05E1E:  BCF    F94.3
.................... i2c_write(direccion);   // Direccin del esclavo en el bus I2C 
05E20:  MOVFF  85,7C4
05E24:  MOVLB  0
05E26:  CALL   1F4A
.................... i2c_write(make8(posicion,0));    // Posicin donde se guardara el dato transmitido 
05E2A:  MOVFF  7B0,7B3
05E2E:  MOVFF  7B0,7C4
05E32:  CALL   1F4A
.................... i2c_write(make8(posicion,1));    // Posicin donde se guardara el dato transmitido 
05E36:  MOVFF  7B1,7B3
05E3A:  MOVFF  7B1,7C4
05E3E:  CALL   1F4A
.................... i2c_write(0xff);        // Dato a transmitir 
05E42:  MOVLW  FF
05E44:  MOVLB  7
05E46:  MOVWF  xC4
05E48:  MOVLB  0
05E4A:  CALL   1F4A
.................... i2c_stop(); 
05E4E:  BCF    F94.4
05E50:  NOP   
05E52:  BSF    F94.3
05E54:  BTFSS  F82.3
05E56:  BRA    5E54
05E58:  MOVLW  05
05E5A:  MOVWF  00
05E5C:  DECFSZ 00,F
05E5E:  BRA    5E5C
05E60:  BRA    5E62
05E62:  NOP   
05E64:  BSF    F94.4
05E66:  MOVLW  05
05E68:  MOVWF  00
05E6A:  DECFSZ 00,F
05E6C:  BRA    5E6A
.................... ++posicion; 
05E6E:  MOVLB  7
05E70:  INCF   xB0,F
05E72:  BTFSC  FD8.2
05E74:  INCF   xB1,F
.................... //Se envian 2 veces ff para indicar que se inicia la transmision. 
....................  
....................    for(i=0;i<5;i++){ 
05E76:  MOVLB  3
05E78:  CLRF   x48
05E7A:  MOVF   x48,W
05E7C:  SUBLW  04
05E7E:  BNC   5F36
....................       tmp=read_ext_eeprom((cicloVisto*320)+i); 
05E80:  MOVLB  7
05E82:  CLRF   xBB
05E84:  MOVFF  C0,7BA
05E88:  MOVLW  01
05E8A:  MOVWF  xBD
05E8C:  MOVLW  40
05E8E:  MOVWF  xBC
05E90:  MOVLB  0
05E92:  CALL   1F28
05E96:  MOVFF  02,7B4
05E9A:  MOVFF  01,7B3
05E9E:  MOVLB  3
05EA0:  MOVF   x48,W
05EA2:  MOVLB  7
05EA4:  ADDWF  xB3,F
05EA6:  MOVLW  00
05EA8:  ADDWFC xB4,F
05EAA:  MOVFF  7B4,7B6
05EAE:  MOVFF  7B3,7B5
05EB2:  MOVLB  0
05EB4:  CALL   202A
05EB8:  MOVFF  01,7B2
....................       //if(tmp>250) 
....................       //   tmp=20; 
....................       i2c_start();            // Comienzo comunicacin 
05EBC:  BSF    F94.4
05EBE:  MOVLW  05
05EC0:  MOVWF  00
05EC2:  DECFSZ 00,F
05EC4:  BRA    5EC2
05EC6:  BSF    F94.3
05EC8:  MOVLW  06
05ECA:  MOVWF  00
05ECC:  DECFSZ 00,F
05ECE:  BRA    5ECC
05ED0:  BCF    F8B.4
05ED2:  BCF    F94.4
05ED4:  MOVLW  05
05ED6:  MOVWF  00
05ED8:  DECFSZ 00,F
05EDA:  BRA    5ED8
05EDC:  BCF    F8B.3
05EDE:  BCF    F94.3
....................       i2c_write(direccion);   // Direccin del esclavo en el bus I2C 
05EE0:  MOVFF  85,7C4
05EE4:  CALL   1F4A
....................       i2c_write(make8(posicion,0));    // Posicin donde se guardara el dato transmitido 
05EE8:  MOVFF  7B0,7B3
05EEC:  MOVFF  7B0,7C4
05EF0:  CALL   1F4A
....................       i2c_write(make8(posicion,1));    // Posicin donde se guardara el dato transmitido 
05EF4:  MOVFF  7B1,7B3
05EF8:  MOVFF  7B1,7C4
05EFC:  CALL   1F4A
....................       i2c_write(tmp);        // Dato a transmitir 
05F00:  MOVFF  7B2,7C4
05F04:  CALL   1F4A
....................       i2c_stop();  
05F08:  BCF    F94.4
05F0A:  NOP   
05F0C:  BSF    F94.3
05F0E:  BTFSS  F82.3
05F10:  BRA    5F0E
05F12:  MOVLW  05
05F14:  MOVWF  00
05F16:  DECFSZ 00,F
05F18:  BRA    5F16
05F1A:  BRA    5F1C
05F1C:  NOP   
05F1E:  BSF    F94.4
05F20:  MOVLW  05
05F22:  MOVWF  00
05F24:  DECFSZ 00,F
05F26:  BRA    5F24
....................       ++posicion; 
05F28:  MOVLB  7
05F2A:  INCF   xB0,F
05F2C:  BTFSC  FD8.2
05F2E:  INCF   xB1,F
....................    } 
05F30:  MOVLB  3
05F32:  INCF   x48,F
05F34:  BRA    5E7A
....................    for(i=0;i<35;i++){//Lee Valores para completar la Tabla 
05F36:  CLRF   x48
05F38:  MOVF   x48,W
05F3A:  SUBLW  22
05F3C:  BNC   6014
....................       for(j=5;j<14;j++){//Lee Valores para completar la Tabla 
05F3E:  MOVLW  05
05F40:  MOVLB  0
05F42:  MOVWF  xBF
05F44:  MOVF   xBF,W
05F46:  SUBLW  0D
05F48:  BNC   600E
....................          tmp=read_ext_eeprom((cicloVisto*320)+j+(i*9)); 
05F4A:  MOVLB  7
05F4C:  CLRF   xBB
05F4E:  MOVFF  C0,7BA
05F52:  MOVLW  01
05F54:  MOVWF  xBD
05F56:  MOVLW  40
05F58:  MOVWF  xBC
05F5A:  MOVLB  0
05F5C:  CALL   1F28
05F60:  MOVFF  02,7B4
05F64:  MOVFF  01,7B3
05F68:  MOVF   xBF,W
05F6A:  MOVLB  7
05F6C:  ADDWF  xB3,F
05F6E:  MOVLW  00
05F70:  ADDWFC xB4,F
05F72:  MOVLB  3
05F74:  MOVF   x48,W
05F76:  MULLW  09
05F78:  MOVF   FF3,W
05F7A:  MOVLB  7
05F7C:  ADDWF  xB3,F
05F7E:  MOVLW  00
05F80:  ADDWFC xB4,F
05F82:  MOVFF  7B4,7B6
05F86:  MOVFF  7B3,7B5
05F8A:  MOVLB  0
05F8C:  CALL   202A
05F90:  MOVFF  01,7B2
....................          //if(tmp>250) 
....................          //   tmp=20; 
....................          i2c_start();            // Comienzo comunicacin 
05F94:  BSF    F94.4
05F96:  MOVLW  05
05F98:  MOVWF  00
05F9A:  DECFSZ 00,F
05F9C:  BRA    5F9A
05F9E:  BSF    F94.3
05FA0:  MOVLW  06
05FA2:  MOVWF  00
05FA4:  DECFSZ 00,F
05FA6:  BRA    5FA4
05FA8:  BCF    F8B.4
05FAA:  BCF    F94.4
05FAC:  MOVLW  05
05FAE:  MOVWF  00
05FB0:  DECFSZ 00,F
05FB2:  BRA    5FB0
05FB4:  BCF    F8B.3
05FB6:  BCF    F94.3
....................          i2c_write(direccion);   // Direccin del esclavo en el bus I2C 
05FB8:  MOVFF  85,7C4
05FBC:  CALL   1F4A
....................          i2c_write(make8(posicion,0));    // Posicin donde se guardara el dato transmitido 
05FC0:  MOVFF  7B0,7B3
05FC4:  MOVFF  7B0,7C4
05FC8:  CALL   1F4A
....................          i2c_write(make8(posicion,1));    // Posicin donde se guardara el dato transmitido 
05FCC:  MOVFF  7B1,7B3
05FD0:  MOVFF  7B1,7C4
05FD4:  CALL   1F4A
....................          i2c_write(tmp);        // Dato a transmitir 
05FD8:  MOVFF  7B2,7C4
05FDC:  CALL   1F4A
....................          i2c_stop();  
05FE0:  BCF    F94.4
05FE2:  NOP   
05FE4:  BSF    F94.3
05FE6:  BTFSS  F82.3
05FE8:  BRA    5FE6
05FEA:  MOVLW  05
05FEC:  MOVWF  00
05FEE:  DECFSZ 00,F
05FF0:  BRA    5FEE
05FF2:  BRA    5FF4
05FF4:  NOP   
05FF6:  BSF    F94.4
05FF8:  MOVLW  05
05FFA:  MOVWF  00
05FFC:  DECFSZ 00,F
05FFE:  BRA    5FFC
....................          ++posicion; 
06000:  MOVLB  7
06002:  INCF   xB0,F
06004:  BTFSC  FD8.2
06006:  INCF   xB1,F
....................       } 
06008:  MOVLB  0
0600A:  INCF   xBF,F
0600C:  BRA    5F44
....................    } 
0600E:  MOVLB  3
06010:  INCF   x48,F
06012:  BRA    5F38
....................  
.................... //Fin de Transmision 
.................... i2c_start();            // Comienzo comunicacin 
06014:  BSF    F94.4
06016:  MOVLW  05
06018:  MOVWF  00
0601A:  DECFSZ 00,F
0601C:  BRA    601A
0601E:  BSF    F94.3
06020:  MOVLW  06
06022:  MOVWF  00
06024:  DECFSZ 00,F
06026:  BRA    6024
06028:  BCF    F8B.4
0602A:  BCF    F94.4
0602C:  MOVLW  05
0602E:  MOVWF  00
06030:  DECFSZ 00,F
06032:  BRA    6030
06034:  BCF    F8B.3
06036:  BCF    F94.3
.................... i2c_write(direccion);   // Direccin del esclavo en el bus I2C 
06038:  MOVFF  85,7C4
0603C:  MOVLB  0
0603E:  CALL   1F4A
.................... i2c_write(make8(posicion,0));    // Posicin donde se guardara el dato transmitido 
06042:  MOVFF  7B0,7B3
06046:  MOVFF  7B0,7C4
0604A:  CALL   1F4A
.................... i2c_write(make8(posicion,1));    // Posicin donde se guardara el dato transmitido 
0604E:  MOVFF  7B1,7B3
06052:  MOVFF  7B1,7C4
06056:  CALL   1F4A
.................... i2c_write(0x1f);        // Dato a transmitir 
0605A:  MOVLW  1F
0605C:  MOVLB  7
0605E:  MOVWF  xC4
06060:  MOVLB  0
06062:  CALL   1F4A
.................... i2c_stop(); 
06066:  BCF    F94.4
06068:  NOP   
0606A:  BSF    F94.3
0606C:  BTFSS  F82.3
0606E:  BRA    606C
06070:  MOVLW  05
06072:  MOVWF  00
06074:  DECFSZ 00,F
06076:  BRA    6074
06078:  BRA    607A
0607A:  NOP   
0607C:  BSF    F94.4
0607E:  MOVLW  05
06080:  MOVWF  00
06082:  DECFSZ 00,F
06084:  BRA    6082
.................... ++posicion; 
06086:  MOVLB  7
06088:  INCF   xB0,F
0608A:  BTFSC  FD8.2
0608C:  INCF   xB1,F
.................... i2c_start();            // Comienzo comunicacin 
0608E:  BSF    F94.4
06090:  MOVLW  05
06092:  MOVWF  00
06094:  DECFSZ 00,F
06096:  BRA    6094
06098:  BSF    F94.3
0609A:  MOVLW  06
0609C:  MOVWF  00
0609E:  DECFSZ 00,F
060A0:  BRA    609E
060A2:  BCF    F8B.4
060A4:  BCF    F94.4
060A6:  MOVLW  05
060A8:  MOVWF  00
060AA:  DECFSZ 00,F
060AC:  BRA    60AA
060AE:  BCF    F8B.3
060B0:  BCF    F94.3
.................... i2c_write(direccion);   // Direccin del esclavo en el bus I2C 
060B2:  MOVFF  85,7C4
060B6:  MOVLB  0
060B8:  CALL   1F4A
.................... i2c_write(make8(posicion,0));    // Posicin donde se guardara el dato transmitido 
060BC:  MOVFF  7B0,7B3
060C0:  MOVFF  7B0,7C4
060C4:  CALL   1F4A
.................... i2c_write(make8(posicion,1));    // Posicin donde se guardara el dato transmitido 
060C8:  MOVFF  7B1,7B3
060CC:  MOVFF  7B1,7C4
060D0:  CALL   1F4A
.................... i2c_write(0x1f);        // Dato a transmitir 
060D4:  MOVLW  1F
060D6:  MOVLB  7
060D8:  MOVWF  xC4
060DA:  MOVLB  0
060DC:  CALL   1F4A
.................... i2c_stop(); 
060E0:  BCF    F94.4
060E2:  NOP   
060E4:  BSF    F94.3
060E6:  BTFSS  F82.3
060E8:  BRA    60E6
060EA:  MOVLW  05
060EC:  MOVWF  00
060EE:  DECFSZ 00,F
060F0:  BRA    60EE
060F2:  BRA    60F4
060F4:  NOP   
060F6:  BSF    F94.4
060F8:  MOVLW  05
060FA:  MOVWF  00
060FC:  DECFSZ 00,F
060FE:  BRA    60FC
.................... ++posicion; 
06100:  MOVLB  7
06102:  INCF   xB0,F
06104:  BTFSC  FD8.2
06106:  INCF   xB1,F
.................... //Se envian 2 veces 1f para indicar que se inicia la transmision. 
.................... delay_ms(200); 
06108:  MOVLW  C8
0610A:  MOVWF  xC0
0610C:  MOVLB  0
0610E:  CALL   1E8C
.................... //Buzzer_off; 
.................... } 
06112:  GOTO   B84A (RETURN)
....................  
.................... void codificaAlarma(){ 
....................    if(ACiclos[i]==0){ 
06116:  CLRF   03
06118:  MOVLB  3
0611A:  MOVF   x48,W
0611C:  ADDLW  E8
0611E:  MOVWF  FE9
06120:  MOVLW  03
06122:  ADDWFC 03,W
06124:  MOVWF  FEA
06126:  MOVF   FEF,F
06128:  BNZ   6168
....................       printf("A%u.txt=\"----\"",i+1); 
0612A:  MOVLW  01
0612C:  ADDWF  x48,W
0612E:  MOVLB  7
06130:  MOVWF  xB0
06132:  MOVLW  41
06134:  BTFSS  F9E.4
06136:  BRA    6134
06138:  MOVWF  FAD
0613A:  MOVFF  7B0,7B5
0613E:  MOVLW  1B
06140:  MOVWF  xB6
06142:  MOVLB  0
06144:  CALL   5858
06148:  MOVLW  3F
0614A:  MOVWF  FF6
0614C:  MOVLW  04
0614E:  MOVWF  FF7
06150:  MOVLW  00
06152:  MOVWF  FF8
06154:  MOVLW  0B
06156:  MOVLB  7
06158:  MOVWF  xB5
0615A:  MOVLB  0
0615C:  CALL   556C
....................       SendDataDisplay(); 
06160:  CALL   3E26
....................    }else if(ACiclos[i]==1){ 
06164:  BRA    6726
06166:  MOVLB  3
06168:  CLRF   03
0616A:  MOVF   x48,W
0616C:  ADDLW  E8
0616E:  MOVWF  FE9
06170:  MOVLW  03
06172:  ADDWFC 03,W
06174:  MOVWF  FEA
06176:  DECFSZ FEF,W
06178:  BRA    61B8
....................       printf("A%u.txt=\"Parada\"",i+1); 
0617A:  MOVLW  01
0617C:  ADDWF  x48,W
0617E:  MOVLB  7
06180:  MOVWF  xB0
06182:  MOVLW  41
06184:  BTFSS  F9E.4
06186:  BRA    6184
06188:  MOVWF  FAD
0618A:  MOVFF  7B0,7B5
0618E:  MOVLW  1B
06190:  MOVWF  xB6
06192:  MOVLB  0
06194:  CALL   5858
06198:  MOVLW  4F
0619A:  MOVWF  FF6
0619C:  MOVLW  04
0619E:  MOVWF  FF7
061A0:  MOVLW  00
061A2:  MOVWF  FF8
061A4:  MOVLW  0D
061A6:  MOVLB  7
061A8:  MOVWF  xB5
061AA:  MOVLB  0
061AC:  CALL   556C
....................       SendDataDisplay(); 
061B0:  CALL   3E26
....................    }else if(ACiclos[i]==2){ 
061B4:  BRA    6726
061B6:  MOVLB  3
061B8:  CLRF   03
061BA:  MOVF   x48,W
061BC:  ADDLW  E8
061BE:  MOVWF  FE9
061C0:  MOVLW  03
061C2:  ADDWFC 03,W
061C4:  MOVWF  FEA
061C6:  MOVF   FEF,W
061C8:  SUBLW  02
061CA:  BNZ   620A
....................       printf("A%u.txt=\"Puerta\"",i+1); 
061CC:  MOVLW  01
061CE:  ADDWF  x48,W
061D0:  MOVLB  7
061D2:  MOVWF  xB0
061D4:  MOVLW  41
061D6:  BTFSS  F9E.4
061D8:  BRA    61D6
061DA:  MOVWF  FAD
061DC:  MOVFF  7B0,7B5
061E0:  MOVLW  1B
061E2:  MOVWF  xB6
061E4:  MOVLB  0
061E6:  CALL   5858
061EA:  MOVLW  61
061EC:  MOVWF  FF6
061EE:  MOVLW  04
061F0:  MOVWF  FF7
061F2:  MOVLW  00
061F4:  MOVWF  FF8
061F6:  MOVLW  0D
061F8:  MOVLB  7
061FA:  MOVWF  xB5
061FC:  MOVLB  0
061FE:  CALL   556C
....................       SendDataDisplay(); 
06202:  CALL   3E26
....................    }else if(ACiclos[i]==3){ 
06206:  BRA    6726
06208:  MOVLB  3
0620A:  CLRF   03
0620C:  MOVF   x48,W
0620E:  ADDLW  E8
06210:  MOVWF  FE9
06212:  MOVLW  03
06214:  ADDWFC 03,W
06216:  MOVWF  FEA
06218:  MOVF   FEF,W
0621A:  SUBLW  03
0621C:  BNZ   625C
....................       printf("A%u.txt=\"Termostato\"",i+1); 
0621E:  MOVLW  01
06220:  ADDWF  x48,W
06222:  MOVLB  7
06224:  MOVWF  xB0
06226:  MOVLW  41
06228:  BTFSS  F9E.4
0622A:  BRA    6228
0622C:  MOVWF  FAD
0622E:  MOVFF  7B0,7B5
06232:  MOVLW  1B
06234:  MOVWF  xB6
06236:  MOVLB  0
06238:  CALL   5858
0623C:  MOVLW  73
0623E:  MOVWF  FF6
06240:  MOVLW  04
06242:  MOVWF  FF7
06244:  MOVLW  00
06246:  MOVWF  FF8
06248:  MOVLW  11
0624A:  MOVLB  7
0624C:  MOVWF  xB5
0624E:  MOVLB  0
06250:  CALL   556C
....................       SendDataDisplay(); 
06254:  CALL   3E26
....................    }else if(ACiclos[i]==4){ 
06258:  BRA    6726
0625A:  MOVLB  3
0625C:  CLRF   03
0625E:  MOVF   x48,W
06260:  ADDLW  E8
06262:  MOVWF  FE9
06264:  MOVLW  03
06266:  ADDWFC 03,W
06268:  MOVWF  FEA
0626A:  MOVF   FEF,W
0626C:  SUBLW  04
0626E:  BNZ   62AE
....................       printf("A%u.txt=\"SobreT\"",i+1); 
06270:  MOVLW  01
06272:  ADDWF  x48,W
06274:  MOVLB  7
06276:  MOVWF  xB0
06278:  MOVLW  41
0627A:  BTFSS  F9E.4
0627C:  BRA    627A
0627E:  MOVWF  FAD
06280:  MOVFF  7B0,7B5
06284:  MOVLW  1B
06286:  MOVWF  xB6
06288:  MOVLB  0
0628A:  CALL   5858
0628E:  MOVLW  89
06290:  MOVWF  FF6
06292:  MOVLW  04
06294:  MOVWF  FF7
06296:  MOVLW  00
06298:  MOVWF  FF8
0629A:  MOVLW  0D
0629C:  MOVLB  7
0629E:  MOVWF  xB5
062A0:  MOVLB  0
062A2:  CALL   556C
....................       SendDataDisplay(); 
062A6:  CALL   3E26
....................    }else if(ACiclos[i]==5){ 
062AA:  BRA    6726
062AC:  MOVLB  3
062AE:  CLRF   03
062B0:  MOVF   x48,W
062B2:  ADDLW  E8
062B4:  MOVWF  FE9
062B6:  MOVLW  03
062B8:  ADDWFC 03,W
062BA:  MOVWF  FEA
062BC:  MOVF   FEF,W
062BE:  SUBLW  05
062C0:  BNZ   6300
....................       printf("A%u.txt=\"Tiempo\"",i+1); 
062C2:  MOVLW  01
062C4:  ADDWF  x48,W
062C6:  MOVLB  7
062C8:  MOVWF  xB0
062CA:  MOVLW  41
062CC:  BTFSS  F9E.4
062CE:  BRA    62CC
062D0:  MOVWF  FAD
062D2:  MOVFF  7B0,7B5
062D6:  MOVLW  1B
062D8:  MOVWF  xB6
062DA:  MOVLB  0
062DC:  CALL   5858
062E0:  MOVLW  9B
062E2:  MOVWF  FF6
062E4:  MOVLW  04
062E6:  MOVWF  FF7
062E8:  MOVLW  00
062EA:  MOVWF  FF8
062EC:  MOVLW  0D
062EE:  MOVLB  7
062F0:  MOVWF  xB5
062F2:  MOVLB  0
062F4:  CALL   556C
....................       SendDataDisplay(); 
062F8:  CALL   3E26
....................    }else if(ACiclos[i]==6){ 
062FC:  BRA    6726
062FE:  MOVLB  3
06300:  CLRF   03
06302:  MOVF   x48,W
06304:  ADDLW  E8
06306:  MOVWF  FE9
06308:  MOVLW  03
0630A:  ADDWFC 03,W
0630C:  MOVWF  FEA
0630E:  MOVF   FEF,W
06310:  SUBLW  06
06312:  BNZ   6352
....................       printf("A%u.txt=\"Presion\"",i+1); 
06314:  MOVLW  01
06316:  ADDWF  x48,W
06318:  MOVLB  7
0631A:  MOVWF  xB0
0631C:  MOVLW  41
0631E:  BTFSS  F9E.4
06320:  BRA    631E
06322:  MOVWF  FAD
06324:  MOVFF  7B0,7B5
06328:  MOVLW  1B
0632A:  MOVWF  xB6
0632C:  MOVLB  0
0632E:  CALL   5858
06332:  MOVLW  AD
06334:  MOVWF  FF6
06336:  MOVLW  04
06338:  MOVWF  FF7
0633A:  MOVLW  00
0633C:  MOVWF  FF8
0633E:  MOVLW  0E
06340:  MOVLB  7
06342:  MOVWF  xB5
06344:  MOVLB  0
06346:  CALL   556C
....................       SendDataDisplay(); 
0634A:  CALL   3E26
....................    }else if(ACiclos[i]==7){ 
0634E:  BRA    6726
06350:  MOVLB  3
06352:  CLRF   03
06354:  MOVF   x48,W
06356:  ADDLW  E8
06358:  MOVWF  FE9
0635A:  MOVLW  03
0635C:  ADDWFC 03,W
0635E:  MOVWF  FEA
06360:  MOVF   FEF,W
06362:  SUBLW  07
06364:  BNZ   63A4
....................       printf("A%u.txt=\"Bomba\"",i+1); 
06366:  MOVLW  01
06368:  ADDWF  x48,W
0636A:  MOVLB  7
0636C:  MOVWF  xB0
0636E:  MOVLW  41
06370:  BTFSS  F9E.4
06372:  BRA    6370
06374:  MOVWF  FAD
06376:  MOVFF  7B0,7B5
0637A:  MOVLW  1B
0637C:  MOVWF  xB6
0637E:  MOVLB  0
06380:  CALL   5858
06384:  MOVLW  BF
06386:  MOVWF  FF6
06388:  MOVLW  04
0638A:  MOVWF  FF7
0638C:  MOVLW  00
0638E:  MOVWF  FF8
06390:  MOVLW  0C
06392:  MOVLB  7
06394:  MOVWF  xB5
06396:  MOVLB  0
06398:  CALL   556C
....................       SendDataDisplay(); 
0639C:  CALL   3E26
....................    }else if(ACiclos[i]==8){ 
063A0:  BRA    6726
063A2:  MOVLB  3
063A4:  CLRF   03
063A6:  MOVF   x48,W
063A8:  ADDLW  E8
063AA:  MOVWF  FE9
063AC:  MOVLW  03
063AE:  ADDWFC 03,W
063B0:  MOVWF  FEA
063B2:  MOVF   FEF,W
063B4:  SUBLW  08
063B6:  BNZ   63F6
....................       printf("A%u.txt=\"ErrorVacio\"",i+1); 
063B8:  MOVLW  01
063BA:  ADDWF  x48,W
063BC:  MOVLB  7
063BE:  MOVWF  xB0
063C0:  MOVLW  41
063C2:  BTFSS  F9E.4
063C4:  BRA    63C2
063C6:  MOVWF  FAD
063C8:  MOVFF  7B0,7B5
063CC:  MOVLW  1B
063CE:  MOVWF  xB6
063D0:  MOVLB  0
063D2:  CALL   5858
063D6:  MOVLW  CF
063D8:  MOVWF  FF6
063DA:  MOVLW  04
063DC:  MOVWF  FF7
063DE:  MOVLW  00
063E0:  MOVWF  FF8
063E2:  MOVLW  11
063E4:  MOVLB  7
063E6:  MOVWF  xB5
063E8:  MOVLB  0
063EA:  CALL   556C
....................       SendDataDisplay(); 
063EE:  CALL   3E26
....................    }else if(ACiclos[i]==9){ 
063F2:  BRA    6726
063F4:  MOVLB  3
063F6:  CLRF   03
063F8:  MOVF   x48,W
063FA:  ADDLW  E8
063FC:  MOVWF  FE9
063FE:  MOVLW  03
06400:  ADDWFC 03,W
06402:  MOVWF  FEA
06404:  MOVF   FEF,W
06406:  SUBLW  09
06408:  BNZ   6448
....................       printf("A%u.txt=\"Llenado\"",i+1); 
0640A:  MOVLW  01
0640C:  ADDWF  x48,W
0640E:  MOVLB  7
06410:  MOVWF  xB0
06412:  MOVLW  41
06414:  BTFSS  F9E.4
06416:  BRA    6414
06418:  MOVWF  FAD
0641A:  MOVFF  7B0,7B5
0641E:  MOVLW  1B
06420:  MOVWF  xB6
06422:  MOVLB  0
06424:  CALL   5858
06428:  MOVLW  E5
0642A:  MOVWF  FF6
0642C:  MOVLW  04
0642E:  MOVWF  FF7
06430:  MOVLW  00
06432:  MOVWF  FF8
06434:  MOVLW  0E
06436:  MOVLB  7
06438:  MOVWF  xB5
0643A:  MOVLB  0
0643C:  CALL   556C
....................       SendDataDisplay(); 
06440:  CALL   3E26
....................    }else if(ACiclos[i]==10){ 
06444:  BRA    6726
06446:  MOVLB  3
06448:  CLRF   03
0644A:  MOVF   x48,W
0644C:  ADDLW  E8
0644E:  MOVWF  FE9
06450:  MOVLW  03
06452:  ADDWFC 03,W
06454:  MOVWF  FEA
06456:  MOVF   FEF,W
06458:  SUBLW  0A
0645A:  BNZ   649A
....................       printf("A%u.txt=\"PreCale\"",i+1); 
0645C:  MOVLW  01
0645E:  ADDWF  x48,W
06460:  MOVLB  7
06462:  MOVWF  xB0
06464:  MOVLW  41
06466:  BTFSS  F9E.4
06468:  BRA    6466
0646A:  MOVWF  FAD
0646C:  MOVFF  7B0,7B5
06470:  MOVLW  1B
06472:  MOVWF  xB6
06474:  MOVLB  0
06476:  CALL   5858
0647A:  MOVLW  F7
0647C:  MOVWF  FF6
0647E:  MOVLW  04
06480:  MOVWF  FF7
06482:  MOVLW  00
06484:  MOVWF  FF8
06486:  MOVLW  0E
06488:  MOVLB  7
0648A:  MOVWF  xB5
0648C:  MOVLB  0
0648E:  CALL   556C
....................       SendDataDisplay(); 
06492:  CALL   3E26
....................    }else if(ACiclos[i]==11){ 
06496:  BRA    6726
06498:  MOVLB  3
0649A:  CLRF   03
0649C:  MOVF   x48,W
0649E:  ADDLW  E8
064A0:  MOVWF  FE9
064A2:  MOVLW  03
064A4:  ADDWFC 03,W
064A6:  MOVWF  FEA
064A8:  MOVF   FEF,W
064AA:  SUBLW  0B
064AC:  BNZ   64EC
....................       printf("A%u.txt=\"Vacio\"",i+1); 
064AE:  MOVLW  01
064B0:  ADDWF  x48,W
064B2:  MOVLB  7
064B4:  MOVWF  xB0
064B6:  MOVLW  41
064B8:  BTFSS  F9E.4
064BA:  BRA    64B8
064BC:  MOVWF  FAD
064BE:  MOVFF  7B0,7B5
064C2:  MOVLW  1B
064C4:  MOVWF  xB6
064C6:  MOVLB  0
064C8:  CALL   5858
064CC:  MOVLW  09
064CE:  MOVWF  FF6
064D0:  MOVLW  05
064D2:  MOVWF  FF7
064D4:  MOVLW  00
064D6:  MOVWF  FF8
064D8:  MOVLW  0C
064DA:  MOVLB  7
064DC:  MOVWF  xB5
064DE:  MOVLB  0
064E0:  CALL   556C
....................       SendDataDisplay(); 
064E4:  CALL   3E26
....................    }else if(ACiclos[i]==12){ 
064E8:  BRA    6726
064EA:  MOVLB  3
064EC:  CLRF   03
064EE:  MOVF   x48,W
064F0:  ADDLW  E8
064F2:  MOVWF  FE9
064F4:  MOVLW  03
064F6:  ADDWFC 03,W
064F8:  MOVWF  FEA
064FA:  MOVF   FEF,W
064FC:  SUBLW  0C
064FE:  BNZ   653E
....................       printf("A%u.txt=\"Calen\"",i+1); 
06500:  MOVLW  01
06502:  ADDWF  x48,W
06504:  MOVLB  7
06506:  MOVWF  xB0
06508:  MOVLW  41
0650A:  BTFSS  F9E.4
0650C:  BRA    650A
0650E:  MOVWF  FAD
06510:  MOVFF  7B0,7B5
06514:  MOVLW  1B
06516:  MOVWF  xB6
06518:  MOVLB  0
0651A:  CALL   5858
0651E:  MOVLW  19
06520:  MOVWF  FF6
06522:  MOVLW  05
06524:  MOVWF  FF7
06526:  MOVLW  00
06528:  MOVWF  FF8
0652A:  MOVLW  0C
0652C:  MOVLB  7
0652E:  MOVWF  xB5
06530:  MOVLB  0
06532:  CALL   556C
....................       SendDataDisplay(); 
06536:  CALL   3E26
....................    }else if(ACiclos[i]==13){ 
0653A:  BRA    6726
0653C:  MOVLB  3
0653E:  CLRF   03
06540:  MOVF   x48,W
06542:  ADDLW  E8
06544:  MOVWF  FE9
06546:  MOVLW  03
06548:  ADDWFC 03,W
0654A:  MOVWF  FEA
0654C:  MOVF   FEF,W
0654E:  SUBLW  0D
06550:  BNZ   6590
....................       printf("A%u.txt=\"Desfoga\"",i+1); 
06552:  MOVLW  01
06554:  ADDWF  x48,W
06556:  MOVLB  7
06558:  MOVWF  xB0
0655A:  MOVLW  41
0655C:  BTFSS  F9E.4
0655E:  BRA    655C
06560:  MOVWF  FAD
06562:  MOVFF  7B0,7B5
06566:  MOVLW  1B
06568:  MOVWF  xB6
0656A:  MOVLB  0
0656C:  CALL   5858
06570:  MOVLW  29
06572:  MOVWF  FF6
06574:  MOVLW  05
06576:  MOVWF  FF7
06578:  MOVLW  00
0657A:  MOVWF  FF8
0657C:  MOVLW  0E
0657E:  MOVLB  7
06580:  MOVWF  xB5
06582:  MOVLB  0
06584:  CALL   556C
....................       SendDataDisplay(); 
06588:  CALL   3E26
....................    }else if(ACiclos[i]==14){ 
0658C:  BRA    6726
0658E:  MOVLB  3
06590:  CLRF   03
06592:  MOVF   x48,W
06594:  ADDLW  E8
06596:  MOVWF  FE9
06598:  MOVLW  03
0659A:  ADDWFC 03,W
0659C:  MOVWF  FEA
0659E:  MOVF   FEF,W
065A0:  SUBLW  0E
065A2:  BNZ   65E2
....................       printf("A%u.txt=\"Finalizado\"",i+1); 
065A4:  MOVLW  01
065A6:  ADDWF  x48,W
065A8:  MOVLB  7
065AA:  MOVWF  xB0
065AC:  MOVLW  41
065AE:  BTFSS  F9E.4
065B0:  BRA    65AE
065B2:  MOVWF  FAD
065B4:  MOVFF  7B0,7B5
065B8:  MOVLW  1B
065BA:  MOVWF  xB6
065BC:  MOVLB  0
065BE:  CALL   5858
065C2:  MOVLW  3B
065C4:  MOVWF  FF6
065C6:  MOVLW  05
065C8:  MOVWF  FF7
065CA:  MOVLW  00
065CC:  MOVWF  FF8
065CE:  MOVLW  11
065D0:  MOVLB  7
065D2:  MOVWF  xB5
065D4:  MOVLB  0
065D6:  CALL   556C
....................       SendDataDisplay(); 
065DA:  CALL   3E26
....................    }else if(ACiclos[i]==15){ 
065DE:  BRA    6726
065E0:  MOVLB  3
065E2:  CLRF   03
065E4:  MOVF   x48,W
065E6:  ADDLW  E8
065E8:  MOVWF  FE9
065EA:  MOVLW  03
065EC:  ADDWFC 03,W
065EE:  MOVWF  FEA
065F0:  MOVF   FEF,W
065F2:  SUBLW  0F
065F4:  BNZ   6634
....................       printf("A%u.txt=\"Secando\"",i+1); 
065F6:  MOVLW  01
065F8:  ADDWF  x48,W
065FA:  MOVLB  7
065FC:  MOVWF  xB0
065FE:  MOVLW  41
06600:  BTFSS  F9E.4
06602:  BRA    6600
06604:  MOVWF  FAD
06606:  MOVFF  7B0,7B5
0660A:  MOVLW  1B
0660C:  MOVWF  xB6
0660E:  MOVLB  0
06610:  CALL   5858
06614:  MOVLW  51
06616:  MOVWF  FF6
06618:  MOVLW  05
0661A:  MOVWF  FF7
0661C:  MOVLW  00
0661E:  MOVWF  FF8
06620:  MOVLW  0E
06622:  MOVLB  7
06624:  MOVWF  xB5
06626:  MOVLB  0
06628:  CALL   556C
....................       SendDataDisplay(); 
0662C:  CALL   3E26
....................    }else if(ACiclos[i]==16){ 
06630:  BRA    6726
06632:  MOVLB  3
06634:  CLRF   03
06636:  MOVF   x48,W
06638:  ADDLW  E8
0663A:  MOVWF  FE9
0663C:  MOVLW  03
0663E:  ADDWFC 03,W
06640:  MOVWF  FEA
06642:  MOVF   FEF,W
06644:  SUBLW  10
06646:  BNZ   6686
....................       printf("A%u.txt=\"Esterilizando\"",i+1); 
06648:  MOVLW  01
0664A:  ADDWF  x48,W
0664C:  MOVLB  7
0664E:  MOVWF  xB0
06650:  MOVLW  41
06652:  BTFSS  F9E.4
06654:  BRA    6652
06656:  MOVWF  FAD
06658:  MOVFF  7B0,7B5
0665C:  MOVLW  1B
0665E:  MOVWF  xB6
06660:  MOVLB  0
06662:  CALL   5858
06666:  MOVLW  63
06668:  MOVWF  FF6
0666A:  MOVLW  05
0666C:  MOVWF  FF7
0666E:  MOVLW  00
06670:  MOVWF  FF8
06672:  MOVLW  14
06674:  MOVLB  7
06676:  MOVWF  xB5
06678:  MOVLB  0
0667A:  CALL   556C
....................       SendDataDisplay(); 
0667E:  CALL   3E26
....................    }else if(ACiclos[i]==17){ 
06682:  BRA    6726
06684:  MOVLB  3
06686:  CLRF   03
06688:  MOVF   x48,W
0668A:  ADDLW  E8
0668C:  MOVWF  FE9
0668E:  MOVLW  03
06690:  ADDWFC 03,W
06692:  MOVWF  FEA
06694:  MOVF   FEF,W
06696:  SUBLW  11
06698:  BNZ   66D8
....................       printf("A%u.txt=\"Llenando\"",i+1); 
0669A:  MOVLW  01
0669C:  ADDWF  x48,W
0669E:  MOVLB  7
066A0:  MOVWF  xB0
066A2:  MOVLW  41
066A4:  BTFSS  F9E.4
066A6:  BRA    66A4
066A8:  MOVWF  FAD
066AA:  MOVFF  7B0,7B5
066AE:  MOVLW  1B
066B0:  MOVWF  xB6
066B2:  MOVLB  0
066B4:  CALL   5858
066B8:  MOVLW  7B
066BA:  MOVWF  FF6
066BC:  MOVLW  05
066BE:  MOVWF  FF7
066C0:  MOVLW  00
066C2:  MOVWF  FF8
066C4:  MOVLW  0F
066C6:  MOVLB  7
066C8:  MOVWF  xB5
066CA:  MOVLB  0
066CC:  CALL   556C
....................       SendDataDisplay(); 
066D0:  CALL   3E26
....................    }else if(ACiclos[i]==30){ 
066D4:  BRA    6726
066D6:  MOVLB  3
066D8:  CLRF   03
066DA:  MOVF   x48,W
066DC:  ADDLW  E8
066DE:  MOVWF  FE9
066E0:  MOVLW  03
066E2:  ADDWFC 03,W
066E4:  MOVWF  FEA
066E6:  MOVF   FEF,W
066E8:  SUBLW  1E
066EA:  BNZ   6728
....................       printf("A%u.txt=\"Empaque\"",i+1); 
066EC:  MOVLW  01
066EE:  ADDWF  x48,W
066F0:  MOVLB  7
066F2:  MOVWF  xB0
066F4:  MOVLW  41
066F6:  BTFSS  F9E.4
066F8:  BRA    66F6
066FA:  MOVWF  FAD
066FC:  MOVFF  7B0,7B5
06700:  MOVLW  1B
06702:  MOVWF  xB6
06704:  MOVLB  0
06706:  CALL   5858
0670A:  MOVLW  8F
0670C:  MOVWF  FF6
0670E:  MOVLW  05
06710:  MOVWF  FF7
06712:  MOVLW  00
06714:  MOVWF  FF8
06716:  MOVLW  0E
06718:  MOVLB  7
0671A:  MOVWF  xB5
0671C:  MOVLB  0
0671E:  CALL   556C
....................       SendDataDisplay(); 
06722:  CALL   3E26
06726:  MOVLB  3
....................    } 
.................... } 
06728:  MOVLB  0
0672A:  GOTO   C302 (RETURN)
....................  
.................... void graficaCurva(int16 tGrafica){ 
....................    if(tiempos2>=tGrafica){ 
*
05136:  MOVLB  7
05138:  MOVF   xB1,W
0513A:  MOVLB  3
0513C:  SUBWF  x55,W
0513E:  BNC   5152
05140:  BNZ   514C
05142:  MOVLB  7
05144:  MOVF   xB0,W
05146:  MOVLB  3
05148:  SUBWF  x54,W
0514A:  BNC   5152
....................       Grafica=1; 
0514C:  BSF    x3B.1
....................       tiempos2=0; 
0514E:  CLRF   x55
05150:  CLRF   x54
....................    } 
.................... } 
05152:  MOVLB  0
05154:  GOTO   7F12 (RETURN)
....................  
.................... void muestreo(int16 tmuestreo){ 
....................    if(tiempos3>=tmuestreo){ 
*
0518A:  MOVLB  7
0518C:  MOVF   xB1,W
0518E:  MOVLB  3
05190:  SUBWF  x57,W
05192:  BTFSS  FD8.0
05194:  BRA    5374
05196:  BNZ   51A4
05198:  MOVLB  7
0519A:  MOVF   xB0,W
0519C:  MOVLB  3
0519E:  SUBWF  x56,W
051A0:  BTFSS  FD8.0
051A2:  BRA    5374
....................       Temperatura=LeerPt100(0,MediaMovil); 
051A4:  MOVLB  7
051A6:  CLRF   xB2
051A8:  MOVFF  2CC,7B3
051AC:  MOVLB  0
051AE:  CALL   3FCE
051B2:  MOVFF  03,314
051B6:  MOVFF  02,313
051BA:  MOVFF  01,312
051BE:  MOVFF  00,311
....................       Temperatura2=LeerPt100(1,MediaMovil); 
051C2:  MOVLW  01
051C4:  MOVLB  7
051C6:  MOVWF  xB2
051C8:  MOVFF  2CC,7B3
051CC:  MOVLB  0
051CE:  CALL   3FCE
051D2:  MOVFF  03,318
051D6:  MOVFF  02,317
051DA:  MOVFF  01,316
051DE:  MOVFF  00,315
....................       PresionCamara=Leer_Sensor_Presion_Camara(5); 
051E2:  MOVLW  05
051E4:  MOVLB  7
051E6:  MOVWF  xB2
051E8:  MOVLB  0
051EA:  CALL   48AE
051EE:  MOVFF  03,7C5
051F2:  MOVFF  02,7C4
051F6:  MOVFF  01,7C3
051FA:  MOVFF  00,7C2
051FE:  RCALL  4AAC
05200:  MOVFF  02,35F
05204:  MOVFF  01,35E
....................       PresionPreCamara=Leer_Sensor_Presion_PreCamara(5); 
05208:  MOVLW  05
0520A:  MOVLB  7
0520C:  MOVWF  xB2
0520E:  MOVLB  0
05210:  RCALL  4AE8
05212:  MOVFF  03,7C5
05216:  MOVFF  02,7C4
0521A:  MOVFF  01,7C3
0521E:  MOVFF  00,7C2
05222:  RCALL  4AAC
05224:  MOVFF  02,361
05228:  MOVFF  01,360
....................       rtc_get_date(Dia,Mes,Year,dow); 
....................       rtc_get_time(Hora,Minuto,Segundo); 
....................       if(sensores(2)<512) 
*
052E2:  MOVLW  02
052E4:  MOVLB  7
052E6:  MOVWF  xB6
052E8:  MOVLB  0
052EA:  CALL   3E80
052EE:  MOVFF  00,7B2
052F2:  MOVFF  01,7B3
052F6:  MOVFF  02,7B4
052FA:  MOVFF  03,7B5
052FE:  MOVFF  03,7B9
05302:  MOVFF  02,7B8
05306:  MOVFF  01,7B7
0530A:  MOVFF  00,7B6
0530E:  MOVLB  7
05310:  CLRF   xBD
05312:  CLRF   xBC
05314:  CLRF   xBB
05316:  MOVLW  88
05318:  MOVWF  xBA
0531A:  MOVLB  0
0531C:  CALL   24E8
05320:  BNC   5326
....................          LOW=ON; 
05322:  BSF    xA5.3
....................       else 
05324:  BRA    5328
....................          LOW=OFF; 
05326:  BCF    xA5.3
....................        
....................       if(sensores(3)<512)//3 
05328:  MOVLW  03
0532A:  MOVLB  7
0532C:  MOVWF  xB6
0532E:  MOVLB  0
05330:  CALL   3E80
05334:  MOVFF  00,7B2
05338:  MOVFF  01,7B3
0533C:  MOVFF  02,7B4
05340:  MOVFF  03,7B5
05344:  MOVFF  03,7B9
05348:  MOVFF  02,7B8
0534C:  MOVFF  01,7B7
05350:  MOVFF  00,7B6
05354:  MOVLB  7
05356:  CLRF   xBD
05358:  CLRF   xBC
0535A:  CLRF   xBB
0535C:  MOVLW  88
0535E:  MOVWF  xBA
05360:  MOVLB  0
05362:  CALL   24E8
05366:  BNC   536C
....................          HIG=ON; 
05368:  BSF    xA5.4
....................       else 
0536A:  BRA    536E
....................          HIG=OFF; 
0536C:  BCF    xA5.4
....................       tiempos3=0; 
0536E:  MOVLB  3
05370:  CLRF   x57
05372:  CLRF   x56
....................    } 
.................... } 
05374:  MOVLB  0
05376:  GOTO   7F20 (RETURN)
....................  
.................... void monitoreaAgua(){ 
....................    if(!LOW){//Si no sensa agua en el nivel alto y no se ha llenado el calderin          
0537A:  BTFSC  xA5.3
0537C:  BRA    5388
....................       SensadoNivelL=ON;  
0537E:  BSF    xA5.5
....................       Controlando=0;    
05380:  MOVLB  3
05382:  CLRF   x3E
....................    }else{ 
05384:  BRA    5396
05386:  MOVLB  0
....................       NivelBajo=ON; 
05388:  BSF    xA5.6
....................       tNivelBajo=0; 
0538A:  MOVLB  3
0538C:  CLRF   x3A
0538E:  CLRF   x39
....................       SensadoNivelL=OFF; 
05390:  MOVLB  0
05392:  BCF    xA5.5
05394:  MOVLB  3
....................    } 
....................    
....................    if(tNivelBajo>3){ 
05396:  MOVF   x3A,F
05398:  BNZ   53A0
0539A:  MOVF   x39,W
0539C:  SUBLW  03
0539E:  BC    53B2
....................       SensadoNivelL=OFF; 
053A0:  MOVLB  0
053A2:  BCF    xA5.5
....................       NivelBajo=OFF; 
053A4:  BCF    xA5.6
....................       TiempoSensadoNivel=0; 
053A6:  CLRF   xAC
053A8:  CLRF   xAB
....................       SensadoNivel=OFF; 
053AA:  BCF    xA1.2
....................       if(!Esterilizando) 
053AC:  BTFSC  xA1.0
053AE:  BRA    53B2
....................          CalderinLleno=OFF; 
053B0:  BCF    xA0.6
....................    } 
....................    
....................    if(!PruebaEstados){ 
053B2:  MOVLB  0
053B4:  BTFSC  xA2.0
053B6:  BRA    5414
....................       if(NivelBajo){ 
053B8:  BTFSS  xA5.6
053BA:  BRA    53EE
....................          if(HIG){ 
053BC:  BTFSS  xA5.4
053BE:  BRA    53D8
....................             SensadoNivel=ON; 
053C0:  BSF    xA1.2
....................             if(TiempoSensadoNivel>2){ 
053C2:  MOVF   xAC,F
053C4:  BNZ   53CC
053C6:  MOVF   xAB,W
053C8:  SUBLW  02
053CA:  BC    53D6
....................                SensadoNivel=OFF; 
053CC:  BCF    xA1.2
....................                CalderinLleno=ON; 
053CE:  BSF    xA0.6
....................                IniciaLlenado=OFF;                   
053D0:  BCF    xA0.5
....................                Agua_off; 
053D2:  BSF    F8B.2
053D4:  BCF    F94.2
....................             } 
....................          }else{ 
053D6:  BRA    53EC
....................             SensadoNivel=OFF; 
053D8:  BCF    xA1.2
....................             TiempoSensadoNivel=0; 
053DA:  CLRF   xAC
053DC:  CLRF   xAB
....................             if(!AlarmaLlenado && !CalderinLleno)    
053DE:  BTFSC  x9F.2
053E0:  BRA    53EA
053E2:  BTFSC  xA0.6
053E4:  BRA    53EA
....................                Agua_on; 
053E6:  BCF    F8B.2
053E8:  BCF    F94.2
....................             IniciaLlenado=ON; 
053EA:  BSF    xA0.5
....................          } 
....................       }else{ 
053EC:  BRA    53F8
....................          if(!AlarmaLlenado) 
053EE:  BTFSC  x9F.2
053F0:  BRA    53F6
....................             Agua_on; 
053F2:  BCF    F8B.2
053F4:  BCF    F94.2
....................          IniciaLlenado=ON; 
053F6:  BSF    xA0.5
....................       } 
....................        
....................       if(TiempoLlenado>600){ 
053F8:  MOVF   xAA,W
053FA:  SUBLW  01
053FC:  BC    5410
053FE:  XORLW  FF
05400:  BNZ   5408
05402:  MOVF   xA9,W
05404:  SUBLW  58
05406:  BC    5410
....................          AlarmaLlenado=ON; 
05408:  BSF    x9F.2
....................          Agua_off; 
0540A:  BSF    F8B.2
0540C:  BCF    F94.2
....................       }else{ 
0540E:  BRA    5412
....................          AlarmaLlenado=OFF; 
05410:  BCF    x9F.2
....................       } 
....................    }else{ 
05412:  BRA    5416
....................       IniciaLlenado=OFF; 
05414:  BCF    xA0.5
....................    } 
.................... } 
05416:  GOTO   7F24 (RETURN)
....................  
.................... void monitoreaStop(){ 
....................    if(!STOP && !IniciaCiclo && !PruebaEstados){ 
*
0550C:  BSF    F93.5
0550E:  BTFSS  F81.5
05510:  BRA    555E
05512:  BTFSC  xA0.7
05514:  BRA    555E
05516:  BTFSC  xA2.0
05518:  BRA    555E
....................       if(!disp_Stop){ 
0551A:  MOVLB  3
0551C:  BTFSC  x3B.2
0551E:  BRA    553E
....................          disp_Stop=1;Menu=255; 
05520:  BSF    x3B.2
05522:  MOVLW  FF
05524:  MOVWF  x45
....................          printf("page Emergencia"); 
05526:  MOVLW  9E
05528:  MOVWF  FF6
0552A:  MOVLW  05
0552C:  MOVWF  FF7
0552E:  MOVLW  00
05530:  MOVWF  FF8
05532:  MOVLB  0
05534:  CALL   3DF4
....................          SendDataDisplay(); 
05538:  CALL   3E26
0553C:  MOVLB  3
....................       } 
....................       Controlando=0; 
0553E:  CLRF   x3E
....................       Desfogue_on; 
05540:  BCF    F8B.1
05542:  BCF    F94.1
....................       SSR_off; 
05544:  BCF    F8D.1
05546:  BCF    F96.1
....................       Paso_off; 
05548:  BSF    F8B.0
0554A:  BCF    F94.0
....................       DesfogueSuave=OFF; 
0554C:  MOVLB  0
0554E:  BCF    xA1.4
....................       ActivaAlarma(1); 
05550:  MOVLW  01
05552:  MOVLB  7
05554:  MOVWF  xB0
05556:  MOVLB  0
05558:  RCALL  541A
....................       BorraBuffer(); 
0555A:  BRA    54E0
....................    }else{ 
0555C:  BRA    5566
....................       if(disp_Stop){ 
0555E:  MOVLB  3
05560:  BTFSS  x3B.2
05562:  BRA    5566
....................          reset_cpu(); 
05564:  RESET
05566:  MOVLB  0
....................       } 
....................    }            
.................... } 
05568:  GOTO   7F28 (RETURN)
.................... /* 
.................... void monitoreaNivelAlto(){ 
....................    if(LRES){ 
....................       printf("Funcionamiento.t4f.txt=\" Ninguna\""); 
....................       SendDataDisplay(); 
....................       if(HIG){ 
....................          SensadoNivel=ON; 
....................          if(TiempoSensadoNivel>2){ 
....................             SensadoNivel=OFF; 
....................             CalderinLleno=ON; 
....................             IniciaLlenado=OFF;                   
....................             Agua_off; 
....................          } 
....................      }else{ 
....................         SensadoNivel=OFF; 
....................         TiempoSensadoNivel=0; 
....................         Agua_on; 
....................      }   
....................   }else{ 
....................       printf("Funcionamiento.t4f.txt=\" Reservorio Vacio\""); 
....................       SendDataDisplay(); 
....................       Agua_off;      
....................   } 
.................... } 
.................... */ 
....................  
....................  
.................... void detieneBloqueo(){    
....................    conteo++; 
*
04D84:  INCF   xC6,F
....................    Envio_I2C(0XC0,0,conteo); 
04D86:  MOVLW  C0
04D88:  MOVLB  7
04D8A:  MOVWF  xC1
04D8C:  CLRF   xC2
04D8E:  MOVFF  C6,7C3
04D92:  MOVLB  0
04D94:  RCALL  4CE6
....................    delay_us(100); 
04D96:  MOVLW  A6
04D98:  MOVWF  00
04D9A:  DECFSZ 00,F
04D9C:  BRA    4D9A
04D9E:  NOP   
....................    Envio_I2C(0XC0,1,60); 
04DA0:  MOVLW  C0
04DA2:  MOVLB  7
04DA4:  MOVWF  xC1
04DA6:  MOVLW  01
04DA8:  MOVWF  xC2
04DAA:  MOVLW  3C
04DAC:  MOVWF  xC3
04DAE:  MOVLB  0
04DB0:  RCALL  4CE6
....................    delay_us(100); 
04DB2:  MOVLW  A6
04DB4:  MOVWF  00
04DB6:  DECFSZ 00,F
04DB8:  BRA    4DB6
04DBA:  NOP   
.................... } 
04DBC:  GOTO   7ED4 (RETURN)
....................  
.................... void detienePuerta(){ 
....................    if(PruebaEstados){ 
*
04D44:  BTFSS  xA2.0
04D46:  BRA    4D4A
....................       EstadoAireBomba=1; 
04D48:  BSF    xA4.6
....................    } 
....................    conteo++; 
04D4A:  INCF   xC6,F
....................    Envio_I2C(0XC0,0,conteo); 
04D4C:  MOVLW  C0
04D4E:  MOVLB  7
04D50:  MOVWF  xC1
04D52:  CLRF   xC2
04D54:  MOVFF  C6,7C3
04D58:  MOVLB  0
04D5A:  RCALL  4CE6
....................    delay_us(100); 
04D5C:  MOVLW  A6
04D5E:  MOVWF  00
04D60:  DECFSZ 00,F
04D62:  BRA    4D60
04D64:  NOP   
....................    Envio_I2C(0XC0,1,70); 
04D66:  MOVLW  C0
04D68:  MOVLB  7
04D6A:  MOVWF  xC1
04D6C:  MOVLW  01
04D6E:  MOVWF  xC2
04D70:  MOVLW  46
04D72:  MOVWF  xC3
04D74:  MOVLB  0
04D76:  RCALL  4CE6
....................    delay_us(100); 
04D78:  MOVLW  A6
04D7A:  MOVWF  00
04D7C:  DECFSZ 00,F
04D7E:  BRA    4D7C
04D80:  NOP   
.................... } 
04D82:  RETLW  00
....................  
.................... void bloqueaPuerta(){ 
....................    if(!SWBL && DOOR){ 
*
05AB8:  BSF    F93.6
05ABA:  BTFSS  F81.6
05ABC:  BRA    5B00
05ABE:  BSF    F93.7
05AC0:  BTFSC  F81.7
05AC2:  BRA    5B00
....................       conteo++; 
05AC4:  INCF   xC6,F
....................       Envio_I2C(0XC0,0,conteo); 
05AC6:  MOVLW  C0
05AC8:  MOVLB  7
05ACA:  MOVWF  xC1
05ACC:  CLRF   xC2
05ACE:  MOVFF  C6,7C3
05AD2:  MOVLB  0
05AD4:  CALL   4CE6
....................       delay_us(100); 
05AD8:  MOVLW  A6
05ADA:  MOVWF  00
05ADC:  DECFSZ 00,F
05ADE:  BRA    5ADC
05AE0:  NOP   
....................       Envio_I2C(0XC0,1,40); 
05AE2:  MOVLW  C0
05AE4:  MOVLB  7
05AE6:  MOVWF  xC1
05AE8:  MOVLW  01
05AEA:  MOVWF  xC2
05AEC:  MOVLW  28
05AEE:  MOVWF  xC3
05AF0:  MOVLB  0
05AF2:  CALL   4CE6
....................       delay_us(100); 
05AF6:  MOVLW  A6
05AF8:  MOVWF  00
05AFA:  DECFSZ 00,F
05AFC:  BRA    5AFA
05AFE:  NOP   
....................    } 
.................... } 
05B00:  RETLW  00
....................  
.................... void desbloqueaPuerta(){    
....................    if(PresionCamara<=2 && !SWBLO){ 
05B02:  MOVLB  3
05B04:  MOVF   x5F,F
05B06:  BNZ   5B54
05B08:  MOVF   x5E,W
05B0A:  SUBLW  02
05B0C:  BNC   5B54
05B0E:  BSF    F93.2
05B10:  BTFSS  F81.2
05B12:  BRA    5B54
....................       conteo++; 
05B14:  MOVLB  0
05B16:  INCF   xC6,F
....................       Envio_I2C(0XC0,0,conteo); 
05B18:  MOVLW  C0
05B1A:  MOVLB  7
05B1C:  MOVWF  xC1
05B1E:  CLRF   xC2
05B20:  MOVFF  C6,7C3
05B24:  MOVLB  0
05B26:  CALL   4CE6
....................       delay_us(100); 
05B2A:  MOVLW  A6
05B2C:  MOVWF  00
05B2E:  DECFSZ 00,F
05B30:  BRA    5B2E
05B32:  NOP   
....................       Envio_I2C(0XC0,1,50); 
05B34:  MOVLW  C0
05B36:  MOVLB  7
05B38:  MOVWF  xC1
05B3A:  MOVLW  01
05B3C:  MOVWF  xC2
05B3E:  MOVLW  32
05B40:  MOVWF  xC3
05B42:  MOVLB  0
05B44:  CALL   4CE6
....................       delay_us(100); 
05B48:  MOVLW  A6
05B4A:  MOVWF  00
05B4C:  DECFSZ 00,F
05B4E:  BRA    5B4C
05B50:  NOP   
05B52:  MOVLB  3
....................    } 
.................... } 
05B54:  MOVLB  0
05B56:  RETLW  00
....................  
.................... void cierraPuerta(){ 
....................    if(!DOOR){ 
*
05A66:  BSF    F93.7
05A68:  BTFSS  F81.7
05A6A:  BRA    5AAC
....................       cerro=OFF; 
05A6C:  BCF    xA6.2
....................       conteo++; 
05A6E:  INCF   xC6,F
....................       Envio_I2C(0XC0,0,conteo); 
05A70:  MOVLW  C0
05A72:  MOVLB  7
05A74:  MOVWF  xC1
05A76:  CLRF   xC2
05A78:  MOVFF  C6,7C3
05A7C:  MOVLB  0
05A7E:  CALL   4CE6
....................       delay_us(100); 
05A82:  MOVLW  A6
05A84:  MOVWF  00
05A86:  DECFSZ 00,F
05A88:  BRA    5A86
05A8A:  NOP   
....................       Envio_I2C(0XC0,1,10);       
05A8C:  MOVLW  C0
05A8E:  MOVLB  7
05A90:  MOVWF  xC1
05A92:  MOVLW  01
05A94:  MOVWF  xC2
05A96:  MOVLW  0A
05A98:  MOVWF  xC3
05A9A:  MOVLB  0
05A9C:  CALL   4CE6
....................       delay_us(100); 
05AA0:  MOVLW  A6
05AA2:  MOVWF  00
05AA4:  DECFSZ 00,F
05AA6:  BRA    5AA4
05AA8:  NOP   
....................       //desbloqueaPuerta(); 
....................    }else{ 
05AAA:  BRA    5AB6
....................       if(!cerro){ 
05AAC:  BTFSC  xA6.2
05AAE:  BRA    5AB6
....................          cerro=ON; 
05AB0:  BSF    xA6.2
....................          detienePuerta(); 
05AB2:  CALL   4D44
....................       } 
....................    } 
.................... } 
05AB6:  RETLW  00
....................  
.................... void abrePuerta(){ 
....................    if(PresionCamara<=2 && !SWBL && !DOORO && SWBLO){ 
*
059F6:  MOVLB  3
059F8:  MOVF   x5F,F
059FA:  BNZ   5A58
059FC:  MOVF   x5E,W
059FE:  SUBLW  02
05A00:  BNC   5A58
05A02:  BSF    F93.6
05A04:  BTFSS  F81.6
05A06:  BRA    5A58
05A08:  BSF    F93.3
05A0A:  BTFSS  F81.3
05A0C:  BRA    5A58
05A0E:  BSF    F93.2
05A10:  BTFSC  F81.2
05A12:  BRA    5A58
....................       abrio=OFF; 
05A14:  MOVLB  0
05A16:  BCF    xA6.3
....................       conteo++; 
05A18:  INCF   xC6,F
....................       Envio_I2C(0XC0,0,conteo); 
05A1A:  MOVLW  C0
05A1C:  MOVLB  7
05A1E:  MOVWF  xC1
05A20:  CLRF   xC2
05A22:  MOVFF  C6,7C3
05A26:  MOVLB  0
05A28:  CALL   4CE6
....................       delay_us(100); 
05A2C:  MOVLW  A6
05A2E:  MOVWF  00
05A30:  DECFSZ 00,F
05A32:  BRA    5A30
05A34:  NOP   
....................       Envio_I2C(0XC0,1,20); 
05A36:  MOVLW  C0
05A38:  MOVLB  7
05A3A:  MOVWF  xC1
05A3C:  MOVLW  01
05A3E:  MOVWF  xC2
05A40:  MOVLW  14
05A42:  MOVWF  xC3
05A44:  MOVLB  0
05A46:  CALL   4CE6
....................       delay_us(100); 
05A4A:  MOVLW  A6
05A4C:  MOVWF  00
05A4E:  DECFSZ 00,F
05A50:  BRA    5A4E
05A52:  NOP   
....................    }else{ 
05A54:  BRA    5A64
05A56:  MOVLB  3
....................       if(!abrio){ 
05A58:  MOVLB  0
05A5A:  BTFSC  xA6.3
05A5C:  BRA    5A64
....................          abrio=ON; 
05A5E:  BSF    xA6.3
....................          detienePuerta(); 
05A60:  CALL   4D44
....................       } 
....................    } 
.................... } 
05A64:  RETLW  00
....................  
....................  
....................  
....................  
....................  
.................... #int_rda HIGH 
.................... void serial_rx_isr(){ 
....................    Dato2=fgetc(); 
*
005AE:  BTFSS  F9E.5
005B0:  BRA    05AE
005B2:  MOVFF  FAE,344
005B6:  MOVLB  3
....................    if(Dato2==0x65){//Inicio Comunicacion 
005B8:  MOVF   x44,W
005BA:  SUBLW  65
005BC:  BNZ   05C4
....................       Inicio=1; 
005BE:  MOVLW  01
005C0:  MOVWF  x42
....................       RX_Wr_Index =0; 
005C2:  CLRF   46
....................    } 
....................    if(Inicio==1){ 
005C4:  DECFSZ x42,W
005C6:  BRA    05DC
....................       Rx_Buffer2[RX_Wr_Index] = Dato2; 
005C8:  CLRF   03
005CA:  MOVF   46,W
005CC:  ADDLW  3B
005CE:  MOVWF  FE9
005D0:  MOVLW  00
005D2:  ADDWFC 03,W
005D4:  MOVWF  FEA
005D6:  MOVFF  344,FEF
....................       RX_Wr_Index++; 
005DA:  INCF   46,F
....................    } 
....................    if(RX_Wr_Index >= RX_BUFFER_SIZE){ 
005DC:  MOVF   46,W
005DE:  SUBLW  09
005E0:  BC    05E6
....................       RX_Wr_Index =0; 
005E2:  CLRF   46
....................       Inicio=0; 
005E4:  CLRF   x42
....................    } 
....................    if(RX_Wr_Index==0){ 
005E6:  MOVF   46,F
005E8:  BNZ   060A
....................       if(Rx_Buffer2[0]==0x65 && Rx_Buffer2[1]==0xff && Rx_Buffer2[2]==0xff && Rx_Buffer2[8]==0x00 && Rx_Buffer2[9]==0xff ) 
005EA:  MOVF   3B,W
005EC:  SUBLW  65
005EE:  BNZ   0606
005F0:  INCFSZ 3C,W
005F2:  BRA    0606
005F4:  INCFSZ 3D,W
005F6:  BRA    0606
005F8:  MOVF   43,F
005FA:  BNZ   0606
005FC:  INCFSZ 44,W
005FE:  BRA    0606
....................          Dato_Exitoso=5; 
00600:  MOVLW  05
00602:  MOVWF  x43
....................       else 
00604:  BRA    060A
....................          Dato_Exitoso=10; 
00606:  MOVLW  0A
00608:  MOVWF  x43
....................    } 
....................    if(Menu==20) 
0060A:  MOVF   x45,W
0060C:  SUBLW  14
0060E:  BNZ   0614
....................      Buzzer_on; 
00610:  BSF    F8C.7
00612:  BCF    F95.7
.................... } 
....................  
00614:  BCF    F9E.5
00616:  MOVLB  0
00618:  GOTO   010A
.................... #int_TIMER0 
.................... void temp0s(void){ 
....................    set_timer0(0); 
0061C:  CLRF   FD7
0061E:  CLRF   FD6
....................    t_exhaust++; 
00620:  MOVLB  3
00622:  INCF   x79,F
00624:  BTFSC  FD8.2
00626:  INCF   x7A,F
....................    if(DesfogueSuave){ 
00628:  MOVLB  0
0062A:  BTFSS  xA1.4
0062C:  BRA    0666
....................          if(t_exhaust<=NivelSeleccionado){ // Si el tiempo es menor o igual al tiempo de control se enciende la resistencia de lo contrario se apaga. 
0062E:  MOVLB  3
00630:  MOVF   x7A,W
00632:  MOVLB  0
00634:  SUBWF  xB6,W
00636:  BNC   064A
00638:  BNZ   0644
0063A:  MOVLB  3
0063C:  MOVF   x79,W
0063E:  MOVLB  0
00640:  SUBWF  xB5,W
00642:  BNC   064A
....................             Desfogue_on; 
00644:  BCF    F8B.1
00646:  BCF    F94.1
....................          }else{             
00648:  BRA    064E
....................             Desfogue_off; 
0064A:  BSF    F8B.1
0064C:  BCF    F94.1
....................          }    
....................        
....................          if(t_exhaust>=60000){ // Si el tiempo de control es mayor al tiempo de ciclo se reinicia tiempo de control 
0064E:  MOVLB  3
00650:  MOVF   x7A,W
00652:  SUBLW  E9
00654:  BC    0664
00656:  XORLW  FF
00658:  BNZ   0660
0065A:  MOVF   x79,W
0065C:  SUBLW  5F
0065E:  BC    0664
....................             t_exhaust=0; 
00660:  CLRF   x7A
00662:  CLRF   x79
00664:  MOVLB  0
....................          } // tiempoctrl incrementa una unidad cada Xms, por eso se dividen los tiempos por 0.005. 
....................    }   
.................... } 
....................  
00666:  BCF    FF2.2
00668:  GOTO   0074
.................... #int_TIMER1 
.................... void temp1s(void){ 
....................    set_timer1(40536); // Se repite cada 5ms 
0066C:  MOVLW  9E
0066E:  MOVWF  FCF
00670:  MOVLW  58
00672:  MOVWF  FCE
....................    tiempos++; 
00674:  MOVLB  3
00676:  INCF   x52,F
00678:  BTFSC  FD8.2
0067A:  INCF   x53,F
....................    tiempos2++; 
0067C:  INCF   x54,F
0067E:  BTFSC  FD8.2
00680:  INCF   x55,F
....................    tiempos3++; 
00682:  INCF   x56,F
00684:  BTFSC  FD8.2
00686:  INCF   x57,F
....................    tiempoctrl++; 
00688:  INCF   x58,F
0068A:  BTFSC  FD8.2
0068C:  INCF   x59,F
....................     
....................    if(flagAlarma) 
0068E:  MOVLB  0
00690:  BTFSS  xA3.1
00692:  BRA    069E
....................       tbuzzer++; 
00694:  MOVLB  3
00696:  INCF   x75,F
00698:  BTFSC  FD8.2
0069A:  INCF   x76,F
0069C:  MOVLB  0
....................        
....................    if(flagSilencio)    
0069E:  BTFSS  xA3.3
006A0:  BRA    06AA
....................       tsilencio++; 
006A2:  MOVLB  3
006A4:  INCF   x77,F
006A6:  BTFSC  FD8.2
006A8:  INCF   x78,F
....................     
....................    if(Controlando==1){ 
006AA:  MOVLB  3
006AC:  DECFSZ x3E,W
006AE:  BRA    06EC
....................       if(tiempoctrl<Tp) // Si el tiempo es menor o igual al tiempo de control se enciende la resistencia de lo contrario se apaga. 
006B0:  MOVF   x59,W
006B2:  MOVLB  0
006B4:  SUBWF  xAE,W
006B6:  BNC   06D0
006B8:  BNZ   06CA
006BA:  MOVF   xAD,W
006BC:  MOVLB  3
006BE:  SUBWF  x58,W
006C0:  BTFSS  FD8.0
006C2:  BRA    06C8
006C4:  MOVLB  0
006C6:  BRA    06D0
006C8:  MOVLB  0
....................          SSR_on; 
006CA:  BSF    F8D.1
006CC:  BCF    F96.1
....................       else          
006CE:  BRA    06D4
....................          SSR_off; 
006D0:  BCF    F8D.1
006D2:  BCF    F96.1
....................              
....................       if(tiempoctrl>=Tc) // Si el tiempo de control es mayor al tiempo de ciclo se reinicia tiempo de control 
006D4:  MOVF   xB0,W
006D6:  MOVLB  3
006D8:  SUBWF  x59,W
006DA:  BNC   06EC
006DC:  BNZ   06E8
006DE:  MOVLB  0
006E0:  MOVF   xAF,W
006E2:  MOVLB  3
006E4:  SUBWF  x58,W
006E6:  BNC   06EC
....................          tiempoctrl=0;// tiempoctrl incrementa una unidad cada 5ms, por eso se dividen los tiempos por 0.005. 
006E8:  CLRF   x59
006EA:  CLRF   x58
....................    } 
....................     
....................    if(tiempos>=200){  // 12000 para que incremente cada minuto, 200para que incremente cada segundo. 
006EC:  MOVF   x53,F
006EE:  BNZ   06F8
006F0:  MOVF   x52,W
006F2:  SUBLW  C7
006F4:  BTFSC  FD8.0
006F6:  BRA    07E2
....................       if(flagTC) 
006F8:  BTFSS  x3B.3
006FA:  BRA    06FE
....................          TiempoControl++; 
006FC:  INCF   x70,F
....................        
....................       tiemporecta++; 
006FE:  INCF   x3D,F
....................        
....................       if(guardaCiclo) 
00700:  MOVLB  0
00702:  BTFSS  xA4.2
00704:  BRA    0710
....................          tguarda++; 
00706:  MOVLB  3
00708:  INCF   x37,F
0070A:  BTFSC  FD8.2
0070C:  INCF   x38,F
0070E:  MOVLB  0
....................           
....................       if(flagAbreSecado) 
00710:  BTFSS  xA0.4
00712:  BRA    071A
....................          tAbreSecado++; 
00714:  MOVLB  3
00716:  INCF   x34,F
00718:  MOVLB  0
....................        
....................       if(flagBombaAgua) 
0071A:  BTFSS  xA5.7
0071C:  BRA    0724
....................          tBombaAgua++; 
0071E:  INCF   xB1,F
00720:  BTFSC  FD8.2
00722:  INCF   xB2,F
....................        
....................       if(flagBombaAguaOff) 
00724:  BTFSS  xA6.0
00726:  BRA    072E
....................          tBombaAguaOff++; 
00728:  INCF   xB3,F
0072A:  BTFSC  FD8.2
0072C:  INCF   xB4,F
....................        
....................       if(IniciaCiclo && tiempoImpresion<CalculoImpresion){ 
0072E:  BTFSS  xA0.7
00730:  BRA    0744
00732:  MOVLB  3
00734:  MOVF   x41,W
00736:  SUBWF  x51,W
00738:  BTFSS  FD8.0
0073A:  BRA    0740
0073C:  MOVLB  0
0073E:  BRA    0744
....................          tiempoImpresion++; 
00740:  INCF   x51,F
....................       }else if(tiempoImpresion>=CalculoImpresion){ 
00742:  BRA    0750
00744:  MOVLB  3
00746:  MOVF   x41,W
00748:  SUBWF  x51,W
0074A:  BNC   0750
....................          flagImprime=1; 
0074C:  BSF    x3B.4
....................          tiempoImpresion=0; 
0074E:  CLRF   x51
....................       } 
....................        
....................       if(IniciaCiclo && !Esterilizando) 
00750:  MOVLB  0
00752:  BTFSS  xA0.7
00754:  BRA    0760
00756:  BTFSC  xA1.0
00758:  BRA    0760
....................          TiempoCiclo++; 
0075A:  INCF   xA7,F
0075C:  BTFSC  FD8.2
0075E:  INCF   xA8,F
....................        
....................       if(IniciaLlenado && !CalderinLleno) 
00760:  BTFSS  xA0.5
00762:  BRA    076E
00764:  BTFSC  xA0.6
00766:  BRA    076E
....................          TiempoLlenado++; 
00768:  INCF   xA9,F
0076A:  BTFSC  FD8.2
0076C:  INCF   xAA,F
....................        
....................       if(SensadoNivel) 
0076E:  BTFSS  xA1.2
00770:  BRA    0778
....................          TiempoSensadoNivel++; 
00772:  INCF   xAB,F
00774:  BTFSC  FD8.2
00776:  INCF   xAC,F
....................        
....................       if(SensadoNivelL) 
00778:  BTFSS  xA5.5
0077A:  BRA    0786
....................          tNivelBajo++; 
0077C:  MOVLB  3
0077E:  INCF   x39,F
00780:  BTFSC  FD8.2
00782:  INCF   x3A,F
00784:  MOVLB  0
....................           
....................       if(IniciaVacio) 
00786:  BTFSS  xA4.4
00788:  BRA    0794
....................          tvacio++;          
0078A:  MOVLB  3
0078C:  INCF   x66,F
0078E:  BTFSC  FD8.2
00790:  INCF   x67,F
00792:  MOVLB  0
....................        
....................       if(IniciaVacio2) 
00794:  BTFSS  xA4.5
00796:  BRA    07A0
....................          tbomba++;    
00798:  MOVLB  3
0079A:  INCF   x64,F
0079C:  BTFSC  FD8.2
0079E:  INCF   x65,F
....................           
....................       tiempos=0;Lectura=1;tinicio++; 
007A0:  MOVLB  3
007A2:  CLRF   x53
007A4:  CLRF   x52
007A6:  BSF    x3B.0
007A8:  INCF   x5C,F
007AA:  BTFSC  FD8.2
007AC:  INCF   x5D,F
....................     
....................       if(Esterilizando && !Desfogando){                
007AE:  MOVLB  0
007B0:  BTFSS  xA1.0
007B2:  BRA    07CA
007B4:  BTFSC  xA1.3
007B6:  BRA    07CA
....................          if(sEst>0){ 
007B8:  MOVF   xB7,F
007BA:  BZ    07C0
....................             sEst--; 
007BC:  DECF   xB7,F
....................          }else if(mEst>0){ 
007BE:  BRA    07CA
007C0:  MOVF   xB8,F
007C2:  BZ    07CA
....................             mEst--; 
007C4:  DECF   xB8,F
....................             sEst=59; 
007C6:  MOVLW  3B
007C8:  MOVWF  xB7
....................          } 
....................       } 
....................       if(Secando){ 
007CA:  BTFSS  xA1.1
007CC:  BRA    07E0
....................          if(sSec>0){ 
007CE:  MOVF   xB9,F
007D0:  BZ    07D6
....................             sSec--; 
007D2:  DECF   xB9,F
....................          }else if(mSec>0){ 
007D4:  BRA    07E0
007D6:  MOVF   xBA,F
007D8:  BZ    07E0
....................             mSec--; 
007DA:  DECF   xBA,F
....................             sSec=59; 
007DC:  MOVLW  3B
007DE:  MOVWF  xB9
007E0:  MOVLB  3
....................          } 
....................       } 
....................    } 
.................... } 
....................  
007E2:  BCF    F9E.0
007E4:  MOVLB  0
007E6:  GOTO   0074
.................... void main(){ 
*
07558:  CLRF   FF8
0755A:  BCF    FF1.2
0755C:  BCF    F9F.0
0755E:  BSF    F9F.5
07560:  BSF    FD0.7
07562:  BSF    07.7
07564:  CLRF   FEA
07566:  CLRF   FE9
07568:  BSF    FB8.3
0756A:  MOVLW  08
0756C:  MOVWF  FAF
0756E:  MOVLW  02
07570:  MOVWF  FB0
07572:  MOVLW  A6
07574:  MOVWF  FAC
07576:  MOVLW  90
07578:  MOVWF  FAB
0757A:  CLRF   46
0757C:  CLRF   47
0757E:  CLRF   48
07580:  CLRF   x62
07582:  CLRF   x63
07584:  CLRF   x84
07586:  CLRF   x85
07588:  CLRF   x86
0758A:  BCF    x9F.0
0758C:  BCF    x9F.1
0758E:  BCF    x9F.2
07590:  BCF    x9F.3
07592:  BCF    x9F.4
07594:  BCF    x9F.5
07596:  BCF    x9F.6
07598:  BCF    x9F.7
0759A:  BCF    xA0.0
0759C:  BCF    xA0.1
0759E:  BCF    xA0.2
075A0:  BCF    xA0.3
075A2:  BCF    xA0.4
075A4:  BCF    xA0.5
075A6:  BCF    xA0.6
075A8:  BCF    xA0.7
075AA:  BCF    xA1.0
075AC:  BCF    xA1.1
075AE:  BCF    xA1.2
075B0:  BCF    xA1.3
075B2:  BCF    xA1.4
075B4:  BCF    xA1.5
075B6:  BCF    xA1.6
075B8:  BCF    xA1.7
075BA:  BCF    xA2.0
075BC:  BCF    xA2.1
075BE:  BCF    xA2.2
075C0:  BCF    xA2.3
075C2:  BCF    xA2.4
075C4:  BCF    xA2.5
075C6:  BCF    xA2.6
075C8:  BCF    xA2.7
075CA:  BCF    xA3.0
075CC:  BCF    xA3.1
075CE:  BCF    xA3.2
075D0:  BCF    xA3.3
075D2:  BCF    xA3.4
075D4:  BCF    xA3.5
075D6:  BCF    xA3.6
075D8:  BCF    xA3.7
075DA:  BCF    xA4.0
075DC:  BCF    xA4.1
075DE:  BCF    xA4.2
075E0:  BCF    xA4.3
075E2:  BCF    xA4.4
075E4:  BCF    xA4.5
075E6:  BCF    xA4.6
075E8:  BCF    xA4.7
075EA:  BCF    xA5.0
075EC:  BCF    xA5.1
075EE:  BCF    xA5.2
075F0:  BCF    xA5.3
075F2:  BCF    xA5.4
075F4:  BCF    xA5.5
075F6:  BCF    xA5.6
075F8:  BCF    xA5.7
075FA:  BCF    xA6.0
075FC:  BCF    xA6.1
075FE:  BCF    xA6.2
07600:  BCF    xA6.3
07602:  BCF    xA6.4
07604:  BCF    xA6.5
07606:  BCF    xA6.6
07608:  CLRF   xA8
0760A:  CLRF   xA7
0760C:  CLRF   xAA
0760E:  CLRF   xA9
07610:  CLRF   xAC
07612:  CLRF   xAB
07614:  CLRF   xAE
07616:  CLRF   xAD
07618:  CLRF   xB0
0761A:  CLRF   xAF
0761C:  CLRF   xB2
0761E:  CLRF   xB1
07620:  CLRF   xB4
07622:  CLRF   xB3
07624:  CLRF   xB6
07626:  CLRF   xB5
07628:  CLRF   xB7
0762A:  CLRF   xB8
0762C:  CLRF   xB9
0762E:  CLRF   xBA
07630:  CLRF   xBB
07632:  CLRF   xBC
07634:  CLRF   xBD
07636:  CLRF   xBE
07638:  CLRF   xBF
0763A:  CLRF   xC0
0763C:  CLRF   xC1
0763E:  CLRF   xC2
07640:  CLRF   xC3
07642:  CLRF   xC4
07644:  CLRF   xC5
07646:  CLRF   xC6
07648:  CLRF   xC7
0764A:  MOVLW  9A
0764C:  MOVLB  2
0764E:  MOVWF  xAB
07650:  MOVLW  99
07652:  MOVWF  xAA
07654:  MOVLW  0D
07656:  MOVWF  xA9
07658:  MOVLW  86
0765A:  MOVWF  xA8
0765C:  CLRF   xAF
0765E:  CLRF   xAE
07660:  CLRF   xAD
07662:  MOVLW  7E
07664:  MOVWF  xAC
07666:  CLRF   xB3
07668:  MOVLW  80
0766A:  MOVWF  xB2
0766C:  MOVLW  54
0766E:  MOVWF  xB1
07670:  MOVLW  8B
07672:  MOVWF  xB0
07674:  CLRF   xBF
07676:  CLRF   xBE
07678:  CLRF   xBD
0767A:  CLRF   xBC
0767C:  CLRF   xC3
0767E:  CLRF   xC2
07680:  CLRF   xC1
07682:  CLRF   xC0
07684:  CLRF   xC7
07686:  CLRF   xC6
07688:  CLRF   xC5
0768A:  CLRF   xC4
0768C:  CLRF   xC8
0768E:  CLRF   xC9
07690:  CLRF   xCA
07692:  CLRF   xCB
07694:  MOVLW  14
07696:  MOVWF  xCC
07698:  CLRF   xCD
0769A:  CLRF   xCE
0769C:  CLRF   xCF
0769E:  CLRF   xD0
076A0:  CLRF   xD4
076A2:  CLRF   xD3
076A4:  CLRF   xD2
076A6:  CLRF   xD1
076A8:  CLRF   xDC
076AA:  CLRF   xDB
076AC:  MOVLW  20
076AE:  MOVWF  xDA
076B0:  MOVLW  82
076B2:  MOVWF  xD9
076B4:  CLRF   xE0
076B6:  CLRF   xDF
076B8:  CLRF   xDE
076BA:  CLRF   xDD
076BC:  CLRF   xE4
076BE:  CLRF   xE3
076C0:  CLRF   xE2
076C2:  CLRF   xE1
076C4:  CLRF   xE8
076C6:  CLRF   xE7
076C8:  CLRF   xE6
076CA:  CLRF   xE5
076CC:  CLRF   xEC
076CE:  CLRF   xEB
076D0:  CLRF   xEA
076D2:  CLRF   xE9
076D4:  CLRF   xF0
076D6:  CLRF   xEF
076D8:  CLRF   xEE
076DA:  CLRF   xED
076DC:  CLRF   xF4
076DE:  CLRF   xF3
076E0:  MOVLW  48
076E2:  MOVWF  xF2
076E4:  MOVLW  83
076E6:  MOVWF  xF1
076E8:  CLRF   xF8
076EA:  CLRF   xF7
076EC:  MOVLW  20
076EE:  MOVWF  xF6
076F0:  MOVLW  83
076F2:  MOVWF  xF5
076F4:  CLRF   xFC
076F6:  CLRF   xFB
076F8:  CLRF   xFA
076FA:  MOVLW  7F
076FC:  MOVWF  xF9
076FE:  MOVLB  3
07700:  CLRF   x00
07702:  MOVLB  2
07704:  CLRF   xFF
07706:  CLRF   xFE
07708:  CLRF   xFD
0770A:  MOVLB  3
0770C:  CLRF   x04
0770E:  CLRF   x03
07710:  CLRF   x02
07712:  CLRF   x01
07714:  CLRF   x08
07716:  CLRF   x07
07718:  CLRF   x06
0771A:  CLRF   x05
0771C:  CLRF   x0C
0771E:  CLRF   x0B
07720:  CLRF   x0A
07722:  CLRF   x09
07724:  CLRF   x10
07726:  CLRF   x0F
07728:  CLRF   x0E
0772A:  CLRF   x0D
0772C:  CLRF   x14
0772E:  CLRF   x13
07730:  CLRF   x12
07732:  CLRF   x11
07734:  CLRF   x18
07736:  CLRF   x17
07738:  CLRF   x16
0773A:  CLRF   x15
0773C:  MOVLW  4A
0773E:  MOVWF  x1C
07740:  MOVLW  88
07742:  MOVWF  x1B
07744:  MOVLW  28
07746:  MOVWF  x1A
07748:  MOVLW  75
0774A:  MOVWF  x19
0774C:  MOVLW  E0
0774E:  MOVWF  x20
07750:  MOVLW  2D
07752:  MOVWF  x1F
07754:  MOVLW  10
07756:  MOVWF  x1E
07758:  MOVLW  75
0775A:  MOVWF  x1D
0775C:  MOVLW  FF
0775E:  MOVWF  x24
07760:  MOVLW  21
07762:  MOVWF  x23
07764:  MOVLW  15
07766:  MOVWF  x22
07768:  MOVLW  80
0776A:  MOVWF  x21
0776C:  MOVLW  82
0776E:  MOVWF  x28
07770:  MOVLW  12
07772:  MOVWF  x27
07774:  MOVLW  F4
07776:  MOVWF  x26
07778:  MOVLW  86
0777A:  MOVWF  x25
0777C:  CLRF   x29
0777E:  CLRF   x2A
07780:  CLRF   x2B
07782:  MOVLW  04
07784:  MOVWF  x2C
07786:  MOVLW  19
07788:  MOVWF  x2D
0778A:  CLRF   x2E
0778C:  CLRF   x2F
0778E:  CLRF   x30
07790:  CLRF   x31
07792:  CLRF   x32
07794:  CLRF   x33
07796:  CLRF   x34
07798:  CLRF   x36
0779A:  CLRF   x35
0779C:  CLRF   x38
0779E:  CLRF   x37
077A0:  CLRF   x3A
077A2:  CLRF   x39
077A4:  MOVLB  0
077A6:  BCF    xA6.7
077A8:  MOVLB  3
077AA:  BCF    x3B.0
077AC:  BCF    x3B.1
077AE:  BCF    x3B.2
077B0:  BCF    x3B.3
077B2:  BCF    x3B.4
077B4:  BCF    x3B.5
077B6:  CLRF   x3C
077B8:  CLRF   x3D
077BA:  CLRF   x3E
077BC:  MOVLW  01
077BE:  MOVWF  x3F
077C0:  MOVLW  02
077C2:  MOVWF  x40
077C4:  CLRF   x41
077C6:  MOVLW  01
077C8:  MOVWF  x42
077CA:  CLRF   x43
077CC:  CLRF   x44
077CE:  CLRF   x45
077D0:  CLRF   x46
077D2:  MOVLW  F0
077D4:  MOVWF  x47
077D6:  CLRF   x48
077D8:  CLRF   x49
077DA:  CLRF   x4A
077DC:  CLRF   x4B
077DE:  CLRF   x4C
077E0:  MOVLW  01
077E2:  MOVWF  x4D
077E4:  MOVWF  x4E
077E6:  CLRF   x4F
077E8:  CLRF   x50
077EA:  CLRF   x51
077EC:  CLRF   x53
077EE:  CLRF   x52
077F0:  CLRF   x55
077F2:  CLRF   x54
077F4:  CLRF   x57
077F6:  CLRF   x56
077F8:  CLRF   x59
077FA:  CLRF   x58
077FC:  CLRF   x5B
077FE:  CLRF   x5A
07800:  CLRF   x5D
07802:  CLRF   x5C
07804:  CLRF   x5F
07806:  CLRF   x5E
07808:  CLRF   x61
0780A:  CLRF   x60
0780C:  CLRF   x63
0780E:  CLRF   x62
07810:  CLRF   x65
07812:  CLRF   x64
07814:  CLRF   x67
07816:  CLRF   x66
07818:  CLRF   x6C
0781A:  CLRF   x6D
0781C:  CLRF   x6E
0781E:  CLRF   x6F
07820:  CLRF   x70
07822:  CLRF   x71
07824:  CLRF   x72
07826:  CLRF   x73
07828:  CLRF   x74
0782A:  CLRF   x76
0782C:  CLRF   x75
0782E:  CLRF   x78
07830:  CLRF   x77
07832:  CLRF   x7A
07834:  CLRF   x79
07836:  MOVLW  12
07838:  MOVWF  x7B
0783A:  MOVLW  09
0783C:  MOVWF  x7C
0783E:  MOVLW  0D
07840:  MOVWF  x7D
07842:  CLRF   x7E
07844:  CLRF   x7F
07846:  CLRF   x80
07848:  CLRF   x81
0784A:  CLRF   x82
0784C:  CLRF   x83
0784E:  CLRF   x84
07850:  CLRF   x85
07852:  CLRF   x86
07854:  CLRF   x87
07856:  CLRF   x88
07858:  CLRF   x89
0785A:  CLRF   x8A
0785C:  CLRF   x8B
0785E:  CLRF   x8C
07860:  CLRF   x8D
07862:  CLRF   xEF
07864:  CLRF   xF0
07866:  CLRF   xF1
07868:  CLRF   xF2
0786A:  CLRF   xF3
0786C:  MOVF   FC1,W
0786E:  ANDLW  C0
07870:  IORLW  0F
07872:  MOVWF  FC1
07874:  MOVLW  07
07876:  MOVWF  FB4
07878:  CLRF   2A
0787A:  CLRF   2B
0787C:  MOVLB  0
0787E:  CLRF   x87
07880:  MOVLW  03
07882:  MOVWF  x88
07884:  MOVWF  x89
07886:  MOVLW  06
07888:  MOVWF  x8A
0788A:  MOVLW  01
0788C:  MOVWF  x8B
0788E:  MOVLW  04
07890:  MOVWF  x8C
07892:  MOVLW  06
07894:  MOVWF  x8D
07896:  MOVLW  02
07898:  MOVWF  x8E
0789A:  MOVLW  05
0789C:  MOVWF  x8F
0789E:  CLRF   x90
078A0:  MOVLW  03
078A2:  MOVWF  x91
078A4:  MOVLW  05
078A6:  MOVWF  x92
078A8:  CLRF   x93
078AA:  MOVLW  03
078AC:  MOVWF  x94
078AE:  MOVLW  04
078B0:  MOVWF  x95
078B2:  CLRF   x96
078B4:  MOVLW  02
078B6:  MOVWF  x97
078B8:  MOVLW  05
078BA:  MOVWF  x98
078BC:  CLRF   x99
078BE:  MOVLW  03
078C0:  MOVWF  x9A
078C2:  MOVLW  06
078C4:  MOVWF  x9B
078C6:  MOVLW  01
078C8:  MOVWF  x9C
078CA:  MOVLW  04
078CC:  MOVWF  x9D
078CE:  MOVLW  06
078D0:  MOVWF  x9E
078D2:  CLRF   xC8
078D4:  CLRF   xC9
078D6:  CLRF   xCA
078D8:  CLRF   xCB
078DA:  CLRF   xCC
078DC:  CLRF   xCD
078DE:  CLRF   xCE
078E0:  CLRF   xCF
078E2:  CLRF   xD0
078E4:  CLRF   xD1
078E6:  CLRF   xD2
078E8:  CLRF   xD3
078EA:  CLRF   xD4
078EC:  CLRF   xD5
078EE:  CLRF   xD6
078F0:  CLRF   xD7
078F2:  CLRF   xD8
078F4:  CLRF   xD9
078F6:  CLRF   xDA
078F8:  CLRF   xDB
078FA:  CLRF   xDC
078FC:  CLRF   xDD
078FE:  CLRF   xDE
07900:  CLRF   xDF
07902:  CLRF   xE0
07904:  CLRF   xE1
07906:  CLRF   xE2
07908:  CLRF   xE3
0790A:  CLRF   xE4
0790C:  CLRF   xE5
0790E:  CLRF   xE6
07910:  CLRF   xE7
07912:  CLRF   xE8
07914:  CLRF   xE9
07916:  CLRF   xEA
07918:  CLRF   xEB
0791A:  CLRF   xEC
0791C:  CLRF   xED
0791E:  CLRF   xEE
07920:  CLRF   xEF
07922:  CLRF   xF0
07924:  CLRF   xF1
07926:  CLRF   xF2
07928:  CLRF   xF3
0792A:  CLRF   xF4
0792C:  CLRF   xF5
0792E:  CLRF   xF6
07930:  CLRF   xF7
07932:  CLRF   xF8
07934:  CLRF   xF9
07936:  CLRF   xFA
07938:  CLRF   xFB
0793A:  CLRF   xFC
0793C:  CLRF   xFD
0793E:  CLRF   xFE
07940:  CLRF   xFF
07942:  MOVLB  1
07944:  CLRF   x00
07946:  CLRF   x01
07948:  CLRF   x02
0794A:  CLRF   x03
0794C:  CLRF   x04
0794E:  CLRF   x05
07950:  CLRF   x06
07952:  CLRF   x07
07954:  CLRF   x08
07956:  CLRF   x09
07958:  CLRF   x0A
0795A:  CLRF   x0B
0795C:  CLRF   x0C
0795E:  CLRF   x0D
07960:  CLRF   x0E
07962:  CLRF   x0F
07964:  CLRF   x10
07966:  CLRF   x11
07968:  CLRF   x12
0796A:  CLRF   x13
0796C:  CLRF   x14
0796E:  CLRF   x15
07970:  CLRF   x16
07972:  CLRF   x17
07974:  CLRF   x18
07976:  CLRF   x19
07978:  CLRF   x1A
0797A:  CLRF   x1B
0797C:  CLRF   x1C
0797E:  CLRF   x1D
07980:  CLRF   x1E
07982:  CLRF   x1F
07984:  CLRF   x20
07986:  CLRF   x21
07988:  CLRF   x22
0798A:  CLRF   x23
0798C:  CLRF   x24
0798E:  CLRF   x25
07990:  CLRF   x26
07992:  CLRF   x27
07994:  CLRF   x28
07996:  CLRF   x29
07998:  CLRF   x2A
0799A:  CLRF   x2B
0799C:  CLRF   x2C
0799E:  CLRF   x2D
079A0:  CLRF   x2E
079A2:  CLRF   x2F
079A4:  CLRF   x30
079A6:  CLRF   x31
079A8:  CLRF   x32
079AA:  CLRF   x33
079AC:  CLRF   x34
079AE:  CLRF   x35
079B0:  CLRF   x36
079B2:  CLRF   x37
079B4:  CLRF   x38
079B6:  CLRF   x39
079B8:  CLRF   x3A
079BA:  CLRF   x3B
079BC:  CLRF   x3C
079BE:  CLRF   x3D
079C0:  CLRF   x3E
079C2:  CLRF   x3F
079C4:  CLRF   x40
079C6:  CLRF   x41
079C8:  CLRF   x42
079CA:  CLRF   x43
079CC:  CLRF   x44
079CE:  CLRF   x45
079D0:  CLRF   x46
079D2:  CLRF   x47
079D4:  CLRF   x48
079D6:  CLRF   x49
079D8:  CLRF   x4A
079DA:  CLRF   x4B
079DC:  CLRF   x4C
079DE:  CLRF   x4D
079E0:  CLRF   x4E
079E2:  CLRF   x4F
079E4:  CLRF   x50
079E6:  CLRF   x51
079E8:  CLRF   x52
079EA:  CLRF   x53
079EC:  CLRF   x54
079EE:  CLRF   x55
079F0:  CLRF   x56
079F2:  CLRF   x57
079F4:  CLRF   x58
079F6:  CLRF   x59
079F8:  CLRF   x5A
079FA:  CLRF   x5B
079FC:  CLRF   x5C
079FE:  CLRF   x5D
07A00:  CLRF   x5E
07A02:  CLRF   x5F
07A04:  CLRF   x60
07A06:  CLRF   x61
07A08:  CLRF   x62
07A0A:  CLRF   x63
07A0C:  CLRF   x64
07A0E:  CLRF   x65
07A10:  CLRF   x66
07A12:  CLRF   x67
07A14:  CLRF   x68
07A16:  CLRF   x69
07A18:  CLRF   x6A
07A1A:  CLRF   x6B
07A1C:  CLRF   x6C
07A1E:  CLRF   x6D
07A20:  CLRF   x6E
07A22:  CLRF   x6F
07A24:  CLRF   x70
07A26:  CLRF   x71
07A28:  CLRF   x72
07A2A:  CLRF   x73
07A2C:  CLRF   x74
07A2E:  CLRF   x75
07A30:  CLRF   x76
07A32:  CLRF   x77
07A34:  CLRF   x78
07A36:  CLRF   x79
07A38:  CLRF   x7A
07A3A:  CLRF   x7B
07A3C:  CLRF   x7C
07A3E:  CLRF   x7D
07A40:  CLRF   x7E
07A42:  CLRF   x7F
07A44:  CLRF   x80
07A46:  CLRF   x81
07A48:  CLRF   x82
07A4A:  CLRF   x83
07A4C:  CLRF   x84
07A4E:  CLRF   x85
07A50:  CLRF   x86
07A52:  CLRF   x87
07A54:  CLRF   x88
07A56:  CLRF   x89
07A58:  CLRF   x8A
07A5A:  CLRF   x8B
07A5C:  CLRF   x8C
07A5E:  CLRF   x8D
07A60:  CLRF   x8E
07A62:  CLRF   x8F
07A64:  CLRF   x90
07A66:  CLRF   x91
07A68:  CLRF   x92
07A6A:  CLRF   x93
07A6C:  CLRF   x94
07A6E:  CLRF   x95
07A70:  CLRF   x96
07A72:  CLRF   x97
07A74:  CLRF   x98
07A76:  CLRF   x99
07A78:  CLRF   x9A
07A7A:  CLRF   x9B
07A7C:  CLRF   x9C
07A7E:  CLRF   x9D
07A80:  CLRF   x9E
07A82:  CLRF   x9F
07A84:  CLRF   xA0
07A86:  CLRF   xA1
07A88:  CLRF   xA2
07A8A:  CLRF   xA3
07A8C:  CLRF   xA4
07A8E:  CLRF   xA5
07A90:  CLRF   xA6
07A92:  CLRF   xA7
07A94:  CLRF   xA8
07A96:  CLRF   xA9
07A98:  CLRF   xAA
07A9A:  CLRF   xAB
07A9C:  CLRF   xAC
07A9E:  CLRF   xAD
07AA0:  CLRF   xAE
07AA2:  CLRF   xAF
07AA4:  CLRF   xB0
07AA6:  CLRF   xB1
07AA8:  CLRF   xB2
07AAA:  CLRF   xB3
07AAC:  CLRF   xB4
07AAE:  CLRF   xB5
07AB0:  CLRF   xB6
07AB2:  CLRF   xB7
07AB4:  CLRF   xB8
07AB6:  CLRF   xB9
07AB8:  CLRF   xBA
07ABA:  CLRF   xBB
07ABC:  CLRF   xBC
07ABE:  CLRF   xBD
07AC0:  CLRF   xBE
07AC2:  CLRF   xBF
07AC4:  CLRF   xC0
07AC6:  CLRF   xC1
07AC8:  CLRF   xC2
07ACA:  CLRF   xC3
07ACC:  CLRF   xC4
07ACE:  CLRF   xC5
07AD0:  CLRF   xC6
07AD2:  CLRF   xC7
07AD4:  CLRF   xC8
07AD6:  CLRF   xC9
07AD8:  CLRF   xCA
07ADA:  CLRF   xCB
07ADC:  CLRF   xCC
07ADE:  CLRF   xCD
07AE0:  CLRF   xCE
07AE2:  CLRF   xCF
07AE4:  CLRF   xD0
07AE6:  CLRF   xD1
07AE8:  CLRF   xD2
07AEA:  CLRF   xD3
07AEC:  CLRF   xD4
07AEE:  CLRF   xD5
07AF0:  CLRF   xD6
07AF2:  CLRF   xD7
07AF4:  CLRF   xD8
07AF6:  CLRF   xD9
07AF8:  CLRF   xDA
07AFA:  CLRF   xDB
07AFC:  CLRF   xDC
07AFE:  CLRF   xDD
07B00:  CLRF   xDE
07B02:  CLRF   xDF
07B04:  CLRF   xE0
07B06:  CLRF   xE1
07B08:  CLRF   xE2
07B0A:  CLRF   xE3
07B0C:  CLRF   xE4
07B0E:  CLRF   xE5
07B10:  CLRF   xE6
07B12:  CLRF   xE7
07B14:  CLRF   xE8
07B16:  CLRF   xE9
07B18:  CLRF   xEA
07B1A:  CLRF   xEB
07B1C:  CLRF   xEC
07B1E:  CLRF   xED
07B20:  CLRF   xEE
07B22:  CLRF   xEF
07B24:  CLRF   xF0
07B26:  CLRF   xF1
07B28:  CLRF   xF2
07B2A:  CLRF   xF3
07B2C:  CLRF   xF4
07B2E:  CLRF   xF5
07B30:  CLRF   xF6
07B32:  CLRF   xF7
07B34:  CLRF   xF8
07B36:  CLRF   xF9
07B38:  CLRF   xFA
07B3A:  CLRF   xFB
07B3C:  CLRF   xFC
07B3E:  CLRF   xFD
07B40:  CLRF   xFE
07B42:  CLRF   xFF
07B44:  MOVLB  2
07B46:  CLRF   x00
07B48:  CLRF   x01
07B4A:  CLRF   x02
07B4C:  CLRF   x03
07B4E:  CLRF   x04
07B50:  CLRF   x05
07B52:  CLRF   x06
07B54:  CLRF   x07
07B56:  CLRF   x08
07B58:  CLRF   x09
07B5A:  CLRF   x0A
07B5C:  CLRF   x0B
07B5E:  CLRF   x0C
07B60:  CLRF   x0D
07B62:  CLRF   x0E
07B64:  CLRF   x0F
07B66:  CLRF   x10
07B68:  CLRF   x11
07B6A:  CLRF   x12
07B6C:  CLRF   x13
07B6E:  CLRF   x14
07B70:  CLRF   x15
07B72:  CLRF   x16
07B74:  CLRF   x17
07B76:  CLRF   x18
07B78:  CLRF   x19
07B7A:  CLRF   x1A
07B7C:  CLRF   x1B
07B7E:  CLRF   x1C
07B80:  CLRF   x1D
07B82:  CLRF   x1E
07B84:  CLRF   x1F
07B86:  CLRF   x20
07B88:  CLRF   x21
07B8A:  CLRF   x22
07B8C:  CLRF   x23
07B8E:  CLRF   x24
07B90:  CLRF   x25
07B92:  CLRF   x26
07B94:  CLRF   x27
07B96:  CLRF   x28
07B98:  CLRF   x29
07B9A:  CLRF   x2A
07B9C:  CLRF   x2B
07B9E:  CLRF   x2C
07BA0:  CLRF   x2D
07BA2:  CLRF   x2E
07BA4:  CLRF   x2F
07BA6:  CLRF   x30
07BA8:  CLRF   x31
07BAA:  CLRF   x32
07BAC:  CLRF   x33
07BAE:  CLRF   x34
07BB0:  CLRF   x35
07BB2:  CLRF   x36
07BB4:  CLRF   x37
07BB6:  CLRF   x38
07BB8:  CLRF   x39
07BBA:  CLRF   x3A
07BBC:  CLRF   x3B
07BBE:  CLRF   x3C
07BC0:  CLRF   x3D
07BC2:  CLRF   x3E
07BC4:  CLRF   x3F
07BC6:  CLRF   x40
07BC8:  CLRF   x41
07BCA:  CLRF   x42
07BCC:  CLRF   x43
07BCE:  CLRF   x44
07BD0:  CLRF   x45
07BD2:  CLRF   x46
07BD4:  CLRF   x47
07BD6:  CLRF   x48
07BD8:  CLRF   x49
07BDA:  CLRF   x4A
07BDC:  CLRF   x4B
07BDE:  CLRF   x4C
07BE0:  CLRF   x4D
07BE2:  CLRF   x4E
07BE4:  CLRF   x4F
07BE6:  CLRF   x50
07BE8:  CLRF   x51
07BEA:  CLRF   x52
07BEC:  CLRF   x53
07BEE:  CLRF   x54
07BF0:  CLRF   x55
07BF2:  CLRF   x56
07BF4:  CLRF   x57
07BF6:  CLRF   x58
07BF8:  CLRF   x59
07BFA:  CLRF   x5A
07BFC:  CLRF   x5B
07BFE:  CLRF   x5C
07C00:  CLRF   x5D
07C02:  CLRF   x5E
07C04:  CLRF   x5F
07C06:  CLRF   x60
07C08:  CLRF   x61
07C0A:  CLRF   x62
07C0C:  CLRF   x63
07C0E:  CLRF   x64
07C10:  CLRF   x65
07C12:  CLRF   x66
07C14:  CLRF   x67
07C16:  CLRF   x68
07C18:  CLRF   x69
07C1A:  CLRF   x6A
07C1C:  CLRF   x6B
07C1E:  CLRF   x6C
07C20:  CLRF   x6D
07C22:  CLRF   x6E
07C24:  CLRF   x6F
07C26:  CLRF   x70
07C28:  CLRF   x71
07C2A:  CLRF   x72
07C2C:  CLRF   x73
07C2E:  CLRF   x74
07C30:  CLRF   x75
07C32:  CLRF   x76
07C34:  CLRF   x77
07C36:  CLRF   x78
07C38:  CLRF   x79
07C3A:  CLRF   x7A
07C3C:  CLRF   x7B
07C3E:  CLRF   x7C
07C40:  CLRF   x7D
07C42:  CLRF   x7E
07C44:  CLRF   x7F
07C46:  CLRF   x80
07C48:  CLRF   x81
07C4A:  CLRF   x82
07C4C:  CLRF   x83
07C4E:  CLRF   x84
07C50:  CLRF   x85
07C52:  CLRF   x86
07C54:  CLRF   x87
07C56:  CLRF   x88
07C58:  CLRF   x89
07C5A:  CLRF   x8A
07C5C:  CLRF   x8B
07C5E:  CLRF   x8C
07C60:  CLRF   x8D
07C62:  CLRF   x8E
07C64:  CLRF   x8F
07C66:  CLRF   x90
07C68:  CLRF   x91
07C6A:  CLRF   x92
07C6C:  CLRF   x93
07C6E:  CLRF   x94
07C70:  CLRF   x95
07C72:  CLRF   x96
07C74:  CLRF   x97
07C76:  CLRF   x98
07C78:  CLRF   x99
07C7A:  CLRF   x9A
07C7C:  CLRF   x9B
07C7E:  CLRF   x9C
07C80:  CLRF   x9D
07C82:  CLRF   x9E
07C84:  CLRF   x9F
07C86:  CLRF   xA0
07C88:  CLRF   xA1
07C8A:  CLRF   xA2
07C8C:  CLRF   xA3
07C8E:  CLRF   xA4
07C90:  CLRF   xA5
07C92:  CLRF   xA6
07C94:  CLRF   xA7
07C96:  CLRF   xB4
07C98:  CLRF   xB5
07C9A:  CLRF   xB6
07C9C:  CLRF   xB7
07C9E:  CLRF   xB8
07CA0:  CLRF   xB9
07CA2:  CLRF   xBA
07CA4:  CLRF   xBB
07CA6:  MOVLB  3
07CA8:  CLRF   x68
07CAA:  CLRF   x69
07CAC:  CLRF   x6A
07CAE:  CLRF   x6B
07CB0:  CLRF   xF4
07CB2:  CLRF   xF5
07CB4:  CLRF   xF6
07CB6:  CLRF   xF7
....................     
....................    for (posicion=0;posicion<0x10;posicion++){ 
07CB8:  MOVLB  0
07CBA:  CLRF   x86
07CBC:  MOVF   x86,W
07CBE:  SUBLW  0F
07CC0:  BNC   7CD6
....................       SlaveA0Tx[posicion] = 0x00; 
07CC2:  CLRF   03
07CC4:  MOVF   x86,W
07CC6:  ADDLW  64
07CC8:  MOVWF  FE9
07CCA:  MOVLW  00
07CCC:  ADDWFC 03,W
07CCE:  MOVWF  FEA
07CD0:  CLRF   FEF
....................    } 
07CD2:  INCF   x86,F
07CD4:  BRA    7CBC
....................    setup_timer_0(RTCC_8_BIT|RTCC_DIV_1); 
07CD6:  MOVLW  C8
07CD8:  MOVWF  FD5
....................    enable_interrupts(INT_TIMER0); 
07CDA:  BSF    FF2.5
....................    setup_timer_1(T1_INTERNAL|T1_DIV_BY_1); 
07CDC:  MOVLW  85
07CDE:  MOVWF  FCD
....................    enable_interrupts(INT_TIMER1); 
07CE0:  BSF    F9D.0
....................    setup_adc_ports(AN0_TO_AN5); 
07CE2:  MOVF   FC1,W
07CE4:  ANDLW  C0
07CE6:  IORLW  09
07CE8:  MOVWF  FC1
....................    setup_adc(ADC_CLOCK_DIV_64); 
07CEA:  MOVF   FC0,W
07CEC:  ANDLW  C0
07CEE:  IORLW  06
07CF0:  MOVWF  FC0
07CF2:  BSF    FC0.7
07CF4:  BSF    FC2.0
....................    port_b_pullups(true); 
07CF6:  BCF    FF1.7
....................    enable_interrupts(int_rda); 
07CF8:  BSF    F9D.5
....................    setup_wdt(WDT_ON); 
07CFA:  BSF    FD1.0
....................    enable_interrupts(global); 
07CFC:  MOVLW  C0
07CFE:  IORWF  FF2,F
....................    LeeEEPROM(); 
07D00:  GOTO   2562
....................    rtc_init(); 
07D04:  GOTO   376E
....................    delay_ms(1); 
07D08:  MOVLW  01
07D0A:  MOVLB  7
07D0C:  MOVWF  xC0
07D0E:  MOVLB  0
07D10:  CALL   1E8C
....................    LimitaValores(); 
07D14:  GOTO   380E
....................    CalculoImpresion=timpresion*60; 
07D18:  MOVLB  3
07D1A:  MOVF   x40,W
07D1C:  MULLW  3C
07D1E:  MOVFF  FF3,341
....................    ActivaImpresion=1; 
07D22:  MOVLW  01
07D24:  MOVWF  x3F
....................    printf("page Bienvenida"); 
07D26:  MOVLW  EA
07D28:  MOVWF  FF6
07D2A:  MOVLW  07
07D2C:  MOVWF  FF7
07D2E:  MOVLW  00
07D30:  MOVWF  FF8
07D32:  MOVLB  0
07D34:  CALL   3DF4
....................    SendDataDisplay(); 
07D38:  CALL   3E26
....................    printf("bkcmd=0"); 
07D3C:  MOVLW  FA
07D3E:  MOVWF  FF6
07D40:  MOVLW  07
07D42:  MOVWF  FF7
07D44:  MOVLW  00
07D46:  MOVWF  FF8
07D48:  CALL   3DF4
....................    SendDataDisplay(); 
07D4C:  CALL   3E26
....................    delay_ms(10);  
07D50:  MOVLW  0A
07D52:  MOVLB  7
07D54:  MOVWF  xC0
07D56:  MOVLB  0
07D58:  CALL   1E8C
....................    printf("page Usuarios"); 
07D5C:  MOVLW  02
07D5E:  MOVWF  FF6
07D60:  MOVLW  08
07D62:  MOVWF  FF7
07D64:  MOVLW  00
07D66:  MOVWF  FF8
07D68:  CALL   3DF4
....................    SendDataDisplay(); 
07D6C:  CALL   3E26
....................    ApagaSalidas(); 
07D70:  CALL   3E5C
....................    TiempoVacio=360;  
07D74:  MOVLW  01
07D76:  MOVLB  3
07D78:  MOVWF  x36
07D7A:  MOVLW  68
07D7C:  MOVWF  x35
....................    Sensor[0].Gain=105.56; 
07D7E:  MOVLW  B8
07D80:  MOVLB  5
07D82:  MOVWF  x5B
07D84:  MOVLW  1E
07D86:  MOVWF  x5A
07D88:  MOVLW  53
07D8A:  MOVWF  x59
07D8C:  MOVLW  85
07D8E:  MOVWF  x58
....................    Sensor[1].Gain=105.56; 
07D90:  MOVLW  B8
07D92:  MOVLB  6
07D94:  MOVWF  xBF
07D96:  MOVLW  1E
07D98:  MOVWF  xBE
07D9A:  MOVLW  53
07D9C:  MOVWF  xBD
07D9E:  MOVLW  85
07DA0:  MOVWF  xBC
....................    Imprime=10; 
07DA2:  MOVLW  0A
07DA4:  MOVLB  3
07DA6:  MOVWF  x89
....................     
....................    for(i=0;i<MediaMovil;i++){ 
07DA8:  CLRF   x48
07DAA:  MOVLB  2
07DAC:  MOVF   xCC,W
07DAE:  MOVLB  3
07DB0:  SUBWF  x48,W
07DB2:  BC    7E48
....................       Temperatura=LeerPT100(0,MediaMovil); 
07DB4:  MOVLB  7
07DB6:  CLRF   xB2
07DB8:  MOVFF  2CC,7B3
07DBC:  MOVLB  0
07DBE:  CALL   3FCE
07DC2:  MOVFF  03,314
07DC6:  MOVFF  02,313
07DCA:  MOVFF  01,312
07DCE:  MOVFF  00,311
....................       Temperatura2=LeerPT100(1,MediaMovil); 
07DD2:  MOVLW  01
07DD4:  MOVLB  7
07DD6:  MOVWF  xB2
07DD8:  MOVFF  2CC,7B3
07DDC:  MOVLB  0
07DDE:  CALL   3FCE
07DE2:  MOVFF  03,318
07DE6:  MOVFF  02,317
07DEA:  MOVFF  01,316
07DEE:  MOVFF  00,315
....................       PresionCamara=Leer_Sensor_Presion_Camara(10); 
07DF2:  MOVLW  0A
07DF4:  MOVLB  7
07DF6:  MOVWF  xB2
07DF8:  MOVLB  0
07DFA:  CALL   48AE
07DFE:  MOVFF  03,7C5
07E02:  MOVFF  02,7C4
07E06:  MOVFF  01,7C3
07E0A:  MOVFF  00,7C2
07E0E:  CALL   4AAC
07E12:  MOVFF  02,35F
07E16:  MOVFF  01,35E
....................       PresionPreCamara=Leer_Sensor_Presion_PreCamara(10); 
07E1A:  MOVLW  0A
07E1C:  MOVLB  7
07E1E:  MOVWF  xB2
07E20:  MOVLB  0
07E22:  CALL   4AE8
07E26:  MOVFF  03,7C5
07E2A:  MOVFF  02,7C4
07E2E:  MOVFF  01,7C3
07E32:  MOVFF  00,7C2
07E36:  CALL   4AAC
07E3A:  MOVFF  02,361
07E3E:  MOVFF  01,360
....................    } 
07E42:  MOVLB  3
07E44:  INCF   x48,F
07E46:  BRA    7DAA
....................     
....................    if(UP && DOWN && RIGHT && LEFT)//Si oprime boton de Toma. 
07E48:  MOVLB  0
07E4A:  BTFSS  xA0.0
07E4C:  BRA    7ECC
07E4E:  BTFSS  xA0.1
07E50:  BRA    7ECC
07E52:  BTFSS  xA0.2
07E54:  BRA    7ECC
07E56:  BTFSS  xA0.3
07E58:  BRA    7ECC
....................    { 
....................       write_eeprom(37,0); 
07E5A:  CLRF   FAA
07E5C:  MOVLW  25
07E5E:  MOVWF  FA9
07E60:  CLRF   FA8
07E62:  BCF    FA6.6
07E64:  BCF    FA6.7
07E66:  BSF    FA6.2
07E68:  MOVF   FF2,W
07E6A:  MOVWF  00
07E6C:  BCF    FF2.6
07E6E:  BCF    FF2.7
07E70:  MOVLB  F
07E72:  MOVLW  55
07E74:  MOVWF  FA7
07E76:  MOVLW  AA
07E78:  MOVWF  FA7
07E7A:  BSF    FA6.1
07E7C:  BTFSC  FA6.1
07E7E:  BRA    7E7C
07E80:  BCF    FA6.2
07E82:  MOVF   00,W
07E84:  IORWF  FF2,F
....................       delay_ms(20); 
07E86:  MOVLW  14
07E88:  MOVLB  7
07E8A:  MOVWF  xC0
07E8C:  MOVLB  0
07E8E:  CALL   1E8C
....................       write_eeprom(38,0); 
07E92:  CLRF   FAA
07E94:  MOVLW  26
07E96:  MOVWF  FA9
07E98:  CLRF   FA8
07E9A:  BCF    FA6.6
07E9C:  BCF    FA6.7
07E9E:  BSF    FA6.2
07EA0:  MOVF   FF2,W
07EA2:  MOVWF  00
07EA4:  BCF    FF2.6
07EA6:  BCF    FF2.7
07EA8:  MOVLB  F
07EAA:  MOVLW  55
07EAC:  MOVWF  FA7
07EAE:  MOVLW  AA
07EB0:  MOVWF  FA7
07EB2:  BSF    FA6.1
07EB4:  BTFSC  FA6.1
07EB6:  BRA    7EB4
07EB8:  BCF    FA6.2
07EBA:  MOVF   00,W
07EBC:  IORWF  FF2,F
....................       delay_ms(20); 
07EBE:  MOVLW  14
07EC0:  MOVLB  7
07EC2:  MOVWF  xC0
07EC4:  MOVLB  0
07EC6:  CALL   1E8C
....................       reset_cpu(); 
07ECA:  RESET
....................    } 
....................    detienePuerta(); 
07ECC:  CALL   4D44
....................    detieneBloqueo(); 
07ED0:  GOTO   4D84
....................     
....................    while(true){ 
....................       LeeDisplay(); 
07ED4:  GOTO   4DC0
....................       Envio_Esclavos(); 
07ED8:  CALL   50F6
....................       delay_ms(1); 
07EDC:  MOVLW  01
07EDE:  MOVLB  7
07EE0:  MOVWF  xC0
07EE2:  MOVLB  0
07EE4:  CALL   1E8C
....................       //Lectura_Esclavos(); 
....................       restart_wdt(); 
07EE8:  CLRWDT
....................       if(!Esterilizando || Desfogando){ 
07EEA:  BTFSS  xA1.0
07EEC:  BRA    7EF2
07EEE:  BTFSS  xA1.3
07EF0:  BRA    7EFC
....................          CalculoImpresion=180; 
07EF2:  MOVLW  B4
07EF4:  MOVLB  3
07EF6:  MOVWF  x41
....................       }else{ 
07EF8:  BRA    7F02
07EFA:  MOVLB  0
....................          CalculoImpresion=60; 
07EFC:  MOVLW  3C
07EFE:  MOVLB  3
07F00:  MOVWF  x41
....................       } 
....................       graficaCurva(6000); 
07F02:  MOVLW  17
07F04:  MOVLB  7
07F06:  MOVWF  xB1
07F08:  MOVLW  70
07F0A:  MOVWF  xB0
07F0C:  MOVLB  0
07F0E:  GOTO   5136
....................       muestreo(20); 
07F12:  MOVLB  7
07F14:  CLRF   xB1
07F16:  MOVLW  14
07F18:  MOVWF  xB0
07F1A:  MOVLB  0
07F1C:  GOTO   518A
....................       monitoreaAgua(); 
07F20:  GOTO   537A
....................       monitoreaStop(); 
07F24:  GOTO   550C
....................        
....................             
.................... //_-------------------------------------------------------------------------------------------------------------------------------------------------------- 
....................    if(Menu==240){ //Menu de Bienvenida. 
07F28:  MOVLB  3
07F2A:  MOVF   x45,W
07F2C:  SUBLW  F0
07F2E:  BNZ   7F68
....................       printf("bkcmd=0"); 
07F30:  MOVLW  10
07F32:  MOVWF  FF6
07F34:  MOVLW  08
07F36:  MOVWF  FF7
07F38:  MOVLW  00
07F3A:  MOVWF  FF8
07F3C:  MOVLB  0
07F3E:  CALL   3DF4
....................       SendDataDisplay(); 
07F42:  CALL   3E26
....................       delay_ms(100); 
07F46:  MOVLW  64
07F48:  MOVLB  7
07F4A:  MOVWF  xC0
07F4C:  MOVLB  0
07F4E:  CALL   1E8C
....................       printf("page Usuarios"); 
07F52:  MOVLW  18
07F54:  MOVWF  FF6
07F56:  MOVLW  08
07F58:  MOVWF  FF7
07F5A:  MOVLW  00
07F5C:  MOVWF  FF8
07F5E:  CALL   3DF4
....................       SendDataDisplay(); 
07F62:  CALL   3E26
07F66:  MOVLB  3
....................       //ApagaSalidas(); 
....................    } 
.................... //_-------------------------------------------------------------------------------------------------------------------------------------------------------- 
....................  
.................... //_-------------------------------------------------------------------------------------------------------------------------------------------------------- 
....................     if(Menu==0){ //Menu de Contrasea de acceso. 
07F68:  MOVF   x45,F
07F6A:  BTFSS  FD8.2
07F6C:  BRA    8566
....................       entro=OFF; 
07F6E:  MOVLB  0
07F70:  BCF    xA5.2
....................       //ApagaSalidas(); 
....................       //printf("bkcmd=0"); 
....................       //SendDataDisplay(); 
....................        
....................        
....................       if(TipoClave==3){ 
07F72:  MOVLB  2
07F74:  MOVF   xCE,W
07F76:  SUBLW  03
07F78:  BNZ   7F92
....................          printf("titulo.txt=\"Clave Nueva\""); 
07F7A:  MOVLW  26
07F7C:  MOVWF  FF6
07F7E:  MOVLW  08
07F80:  MOVWF  FF7
07F82:  MOVLW  00
07F84:  MOVWF  FF8
07F86:  MOVLB  0
07F88:  CALL   3DF4
....................          SendDataDisplay(); 
07F8C:  CALL   3E26
07F90:  MOVLB  2
....................       } 
....................        
....................       if(TipoClave==2){ 
07F92:  MOVF   xCE,W
07F94:  SUBLW  02
07F96:  BNZ   7FB0
....................          printf("titulo.txt=\"Clave Actual\""); 
07F98:  MOVLW  40
07F9A:  MOVWF  FF6
07F9C:  MOVLW  08
07F9E:  MOVWF  FF7
07FA0:  MOVLW  00
07FA2:  MOVWF  FF8
07FA4:  MOVLB  0
07FA6:  CALL   3DF4
....................          SendDataDisplay();         
07FAA:  CALL   3E26
07FAE:  MOVLB  2
....................       } 
....................        
....................       if(TipoClave==1){ 
07FB0:  DECFSZ xCE,W
07FB2:  BRA    7FCC
....................          printf("titulo.txt=\"Clave Tecnico\""); 
07FB4:  MOVLW  5A
07FB6:  MOVWF  FF6
07FB8:  MOVLW  08
07FBA:  MOVWF  FF7
07FBC:  MOVLW  00
07FBE:  MOVWF  FF8
07FC0:  MOVLB  0
07FC2:  CALL   3DF4
....................          SendDataDisplay(); 
07FC6:  CALL   3E26
07FCA:  MOVLB  2
....................       } 
....................        
....................       if(TipoClave==0){ 
07FCC:  MOVF   xCE,F
07FCE:  BNZ   8002
....................          printf("titulo.txt=\"%s\"",usuario); 
07FD0:  MOVLW  76
07FD2:  MOVWF  FF6
07FD4:  MOVLW  08
07FD6:  MOVWF  FF7
07FD8:  MOVLW  00
07FDA:  MOVWF  FF8
07FDC:  MOVLW  0C
07FDE:  MOVLB  7
07FE0:  MOVWF  xB5
07FE2:  MOVLB  0
07FE4:  CALL   556C
07FE8:  MOVLW  03
07FEA:  MOVWF  FEA
07FEC:  MOVLW  8E
07FEE:  MOVWF  FE9
07FF0:  CALL   559E
07FF4:  MOVLW  22
07FF6:  BTFSS  F9E.4
07FF8:  BRA    7FF6
07FFA:  MOVWF  FAD
....................          SendDataDisplay(); 
07FFC:  CALL   3E26
08000:  MOVLB  2
....................       } 
....................        
....................       if(RX_Buffer[4]==0x11){//11, Regresar 
08002:  MOVF   34,W
08004:  SUBLW  11
08006:  BNZ   803E
....................          if(TipoClave==1){ 
08008:  DECFSZ xCE,W
0800A:  BRA    8026
....................             printf("page Ajustes"); 
0800C:  MOVLW  86
0800E:  MOVWF  FF6
08010:  MOVLW  08
08012:  MOVWF  FF7
08014:  MOVLW  00
08016:  MOVWF  FF8
08018:  MOVLB  0
0801A:  CALL   3DF4
....................             SendDataDisplay();        
0801E:  CALL   3E26
....................          }else{ 
08022:  BRA    803C
08024:  MOVLB  2
....................             printf("page Usuarios"); 
08026:  MOVLW  94
08028:  MOVWF  FF6
0802A:  MOVLW  08
0802C:  MOVWF  FF7
0802E:  MOVLW  00
08030:  MOVWF  FF8
08032:  MOVLB  0
08034:  CALL   3DF4
....................             SendDataDisplay();        
08038:  CALL   3E26
0803C:  MOVLB  2
....................          } 
....................       } 
....................        
....................       if(RX_Buffer[3]==0x0f){//0f, recibe caracteres ingresados desde el Display 
0803E:  MOVF   33,W
08040:  SUBLW  0F
08042:  BTFSS  FD8.2
08044:  BRA    8564
....................          delay_ms(800); 
08046:  MOVLW  04
08048:  MOVLB  7
0804A:  MOVWF  xB0
0804C:  MOVLW  C8
0804E:  MOVWF  xC0
08050:  MOVLB  0
08052:  CALL   1E8C
08056:  MOVLB  7
08058:  DECFSZ xB0,F
0805A:  BRA    804C
....................          if(TipoClave==0){ 
0805C:  MOVLB  2
0805E:  MOVF   xCE,F
08060:  BTFSS  FD8.2
08062:  BRA    8214
....................             if(RX_Buffer[4]==0x33&&RX_Buffer[5]==0x38&&RX_Buffer[6]==0x39&&RX_Buffer[7]==0x32 &&RX_Buffer[8]==0x00 &&RX_Buffer[9]==0xff){ // Si Ingresa clave para reset general del sistema. 
08064:  MOVF   34,W
08066:  SUBLW  33
08068:  BNZ   80E2
0806A:  MOVF   35,W
0806C:  SUBLW  38
0806E:  BNZ   80E2
08070:  MOVF   36,W
08072:  SUBLW  39
08074:  BNZ   80E2
08076:  MOVF   37,W
08078:  SUBLW  32
0807A:  BNZ   80E2
0807C:  MOVF   38,F
0807E:  BNZ   80E2
08080:  INCFSZ 39,W
08082:  BRA    80E2
....................                for(i=0;i<40;i++){//Lee contraseas de usuarios 
08084:  MOVLB  3
08086:  CLRF   x48
08088:  MOVF   x48,W
0808A:  SUBLW  27
0808C:  BNC   80DE
....................                   write_eeprom(300+i,0);delay_ms(20); 
0808E:  MOVLW  2C
08090:  ADDWF  x48,W
08092:  MOVLB  7
08094:  MOVWF  xB0
08096:  MOVLW  01
08098:  MOVWF  xB1
0809A:  BTFSC  FD8.0
0809C:  INCF   xB1,F
0809E:  MOVFF  7B1,FAA
080A2:  MOVFF  7B0,FA9
080A6:  CLRF   FA8
080A8:  BCF    FA6.6
080AA:  BCF    FA6.7
080AC:  BSF    FA6.2
080AE:  MOVF   FF2,W
080B0:  MOVWF  00
080B2:  BCF    FF2.6
080B4:  BCF    FF2.7
080B6:  MOVLB  F
080B8:  MOVLW  55
080BA:  MOVWF  FA7
080BC:  MOVLW  AA
080BE:  MOVWF  FA7
080C0:  BSF    FA6.1
080C2:  BTFSC  FA6.1
080C4:  BRA    80C2
080C6:  BCF    FA6.2
080C8:  MOVF   00,W
080CA:  IORWF  FF2,F
080CC:  MOVLW  14
080CE:  MOVLB  7
080D0:  MOVWF  xC0
080D2:  MOVLB  0
080D4:  CALL   1E8C
....................                } 
080D8:  MOVLB  3
080DA:  INCF   x48,F
080DC:  BRA    8088
....................                reset_cpu(); 
080DE:  RESET
080E0:  MOVLB  2
....................             } 
....................              
....................             if(RX_Buffer[4]>=0x30 && RX_Buffer[5]>=0x30 && RX_Buffer[6]>=0x30 && RX_Buffer[7]>=0x30 
....................             && RX_Buffer[4]<=0x39 && RX_Buffer[5]<=0x39 && RX_Buffer[6]<=0x39 && RX_Buffer[7]<=0x39){ 
080E2:  MOVF   34,W
080E4:  SUBLW  2F
080E6:  BTFSC  FD8.0
080E8:  BRA    8212
080EA:  MOVF   35,W
080EC:  SUBLW  2F
080EE:  BTFSC  FD8.0
080F0:  BRA    8212
080F2:  MOVF   36,W
080F4:  SUBLW  2F
080F6:  BTFSC  FD8.0
080F8:  BRA    8212
080FA:  MOVF   37,W
080FC:  SUBLW  2F
080FE:  BTFSC  FD8.0
08100:  BRA    8212
08102:  MOVF   34,W
08104:  SUBLW  39
08106:  BTFSS  FD8.0
08108:  BRA    8212
0810A:  MOVF   35,W
0810C:  SUBLW  39
0810E:  BTFSS  FD8.0
08110:  BRA    8212
08112:  MOVF   36,W
08114:  SUBLW  39
08116:  BTFSS  FD8.0
08118:  BRA    8212
0811A:  MOVF   37,W
0811C:  SUBLW  39
0811E:  BTFSS  FD8.0
08120:  BRA    8212
....................                if((RX_Buffer[4]==Clave[codigoUsuario].Password[0]+0x30)&&(RX_Buffer[5]==Clave[codigoUsuario].Password[1]+0x30)&& 
....................                (RX_Buffer[6]==Clave[codigoUsuario].Password[2]+0x30)&&(RX_Buffer[7]==Clave[codigoUsuario].Password[3]+0x30) 
....................                &&RX_Buffer[8]==0x00 &&RX_Buffer[9]==0xff){ 
08122:  MOVLB  0
08124:  MOVF   xC1,W
08126:  MULLW  04
08128:  MOVF   FF3,W
0812A:  MOVLB  7
0812C:  CLRF   xB1
0812E:  MOVWF  xB0
08130:  MOVLW  88
08132:  ADDWF  xB0,W
08134:  MOVWF  FE9
08136:  MOVLW  07
08138:  ADDWFC xB1,W
0813A:  MOVWF  FEA
0813C:  MOVLW  30
0813E:  ADDWF  FEF,W
08140:  SUBWF  34,W
08142:  BNZ   81F6
08144:  MOVLB  0
08146:  MOVF   xC1,W
08148:  MULLW  04
0814A:  MOVF   FF3,W
0814C:  MOVLB  7
0814E:  CLRF   xB1
08150:  MOVWF  xB0
08152:  MOVLW  01
08154:  ADDWF  xB0,W
08156:  MOVWF  01
08158:  MOVLW  00
0815A:  ADDWFC xB1,W
0815C:  MOVWF  03
0815E:  MOVF   01,W
08160:  ADDLW  88
08162:  MOVWF  FE9
08164:  MOVLW  07
08166:  ADDWFC 03,W
08168:  MOVWF  FEA
0816A:  MOVLW  30
0816C:  ADDWF  FEF,W
0816E:  SUBWF  35,W
08170:  BNZ   81F6
08172:  MOVLB  0
08174:  MOVF   xC1,W
08176:  MULLW  04
08178:  MOVF   FF3,W
0817A:  MOVLB  7
0817C:  CLRF   xB1
0817E:  MOVWF  xB0
08180:  MOVLW  02
08182:  ADDWF  xB0,W
08184:  MOVWF  01
08186:  MOVLW  00
08188:  ADDWFC xB1,W
0818A:  MOVWF  03
0818C:  MOVF   01,W
0818E:  ADDLW  88
08190:  MOVWF  FE9
08192:  MOVLW  07
08194:  ADDWFC 03,W
08196:  MOVWF  FEA
08198:  MOVLW  30
0819A:  ADDWF  FEF,W
0819C:  SUBWF  36,W
0819E:  BNZ   81F6
081A0:  MOVLB  0
081A2:  MOVF   xC1,W
081A4:  MULLW  04
081A6:  MOVF   FF3,W
081A8:  MOVLB  7
081AA:  CLRF   xB1
081AC:  MOVWF  xB0
081AE:  MOVLW  03
081B0:  ADDWF  xB0,W
081B2:  MOVWF  01
081B4:  MOVLW  00
081B6:  ADDWFC xB1,W
081B8:  MOVWF  03
081BA:  MOVF   01,W
081BC:  ADDLW  88
081BE:  MOVWF  FE9
081C0:  MOVLW  07
081C2:  ADDWFC 03,W
081C4:  MOVWF  FEA
081C6:  MOVLW  30
081C8:  ADDWF  FEF,W
081CA:  SUBWF  37,W
081CC:  BNZ   81F6
081CE:  MOVF   38,F
081D0:  BNZ   81F6
081D2:  INCFSZ 39,W
081D4:  BRA    81F6
....................                   printf("page ClaveCorrecta"); 
081D6:  MOVLW  A2
081D8:  MOVWF  FF6
081DA:  MOVLW  08
081DC:  MOVWF  FF7
081DE:  MOVLW  00
081E0:  MOVWF  FF8
081E2:  MOVLB  0
081E4:  CALL   3DF4
....................                   SendDataDisplay(); 
081E8:  CALL   3E26
....................                   ingreso=ON; 
081EC:  BSF    xA6.1
....................                   RX_Buffer[3]=0x00;RX_Buffer2[3]=0x00;   
081EE:  CLRF   33
081F0:  CLRF   3E
....................                }else{ 
081F2:  BRA    8210
081F4:  MOVLB  7
....................                   printf("page ClaveBad"); 
081F6:  MOVLW  B6
081F8:  MOVWF  FF6
081FA:  MOVLW  08
081FC:  MOVWF  FF7
081FE:  MOVLW  00
08200:  MOVWF  FF8
08202:  MOVLB  0
08204:  CALL   3DF4
....................                   SendDataDisplay(); 
08208:  CALL   3E26
....................                   RX_Buffer[3]=0x00;RX_Buffer2[3]=0x00;   
0820C:  CLRF   33
0820E:  CLRF   3E
08210:  MOVLB  2
....................                }  
....................             } 
....................          }else if(TipoClave==1){ 
08212:  BRA    8564
08214:  DECFSZ xCE,W
08216:  BRA    8274
....................             if(RX_Buffer[4]==0x34&&RX_Buffer[5]==0x34&&RX_Buffer[6]==0x34&&RX_Buffer[7]==0x34&&RX_Buffer[8]==0x00 &&RX_Buffer[9]==0xff){ // Si Ingresa clave de Servicio Tecnico 
08218:  MOVF   34,W
0821A:  SUBLW  34
0821C:  BNZ   8256
0821E:  MOVF   35,W
08220:  SUBLW  34
08222:  BNZ   8256
08224:  MOVF   36,W
08226:  SUBLW  34
08228:  BNZ   8256
0822A:  MOVF   37,W
0822C:  SUBLW  34
0822E:  BNZ   8256
08230:  MOVF   38,F
08232:  BNZ   8256
08234:  INCFSZ 39,W
08236:  BRA    8256
....................                printf("page Config"); 
08238:  MOVLW  C4
0823A:  MOVWF  FF6
0823C:  MOVLW  08
0823E:  MOVWF  FF7
08240:  MOVLW  00
08242:  MOVWF  FF8
08244:  MOVLB  0
08246:  CALL   3DF4
....................                SendDataDisplay(); 
0824A:  CALL   3E26
....................                RX_Buffer[3]=0x00;RX_Buffer2[3]=0x00;   
0824E:  CLRF   33
08250:  CLRF   3E
....................             }else{ 
08252:  BRA    8270
08254:  MOVLB  2
....................                printf("page MenuPrincipal"); 
08256:  MOVLW  D0
08258:  MOVWF  FF6
0825A:  MOVLW  08
0825C:  MOVWF  FF7
0825E:  MOVLW  00
08260:  MOVWF  FF8
08262:  MOVLB  0
08264:  CALL   3DF4
....................                SendDataDisplay(); 
08268:  CALL   3E26
....................                RX_Buffer[3]=0x00;RX_Buffer2[3]=0x00;   
0826C:  CLRF   33
0826E:  CLRF   3E
....................             } 
....................          }else if(TipoClave==2){ 
08270:  BRA    8562
08272:  MOVLB  2
08274:  MOVF   xCE,W
08276:  SUBLW  02
08278:  BTFSS  FD8.2
0827A:  BRA    83CA
....................             if(RX_Buffer[4]>=0x30 && RX_Buffer[5]>=0x30 && RX_Buffer[6]>=0x30 && RX_Buffer[7]>=0x30 
....................             && RX_Buffer[4]<=0x39 && RX_Buffer[5]<=0x39 && RX_Buffer[6]<=0x39 && RX_Buffer[7]<=0x39){ 
0827C:  MOVF   34,W
0827E:  SUBLW  2F
08280:  BTFSC  FD8.0
08282:  BRA    83C8
08284:  MOVF   35,W
08286:  SUBLW  2F
08288:  BTFSC  FD8.0
0828A:  BRA    83C8
0828C:  MOVF   36,W
0828E:  SUBLW  2F
08290:  BTFSC  FD8.0
08292:  BRA    83C8
08294:  MOVF   37,W
08296:  SUBLW  2F
08298:  BTFSC  FD8.0
0829A:  BRA    83C8
0829C:  MOVF   34,W
0829E:  SUBLW  39
082A0:  BTFSS  FD8.0
082A2:  BRA    83C8
082A4:  MOVF   35,W
082A6:  SUBLW  39
082A8:  BTFSS  FD8.0
082AA:  BRA    83C8
082AC:  MOVF   36,W
082AE:  SUBLW  39
082B0:  BTFSS  FD8.0
082B2:  BRA    83C8
082B4:  MOVF   37,W
082B6:  SUBLW  39
082B8:  BTFSS  FD8.0
082BA:  BRA    83C8
....................                if((RX_Buffer[4]==Clave[codigoUsuario2].Password[0]+0x30)&&(RX_Buffer[5]==Clave[codigoUsuario2].Password[1]+0x30)&& 
....................                (RX_Buffer[6]==Clave[codigoUsuario2].Password[2]+0x30)&&(RX_Buffer[7]==Clave[codigoUsuario2].Password[3]+0x30) 
....................                &&RX_Buffer[8]==0x00 &&RX_Buffer[9]==0xff){ 
082BC:  MOVLB  0
082BE:  MOVF   xC3,W
082C0:  MULLW  04
082C2:  MOVF   FF3,W
082C4:  MOVLB  7
082C6:  CLRF   xB1
082C8:  MOVWF  xB0
082CA:  MOVLW  88
082CC:  ADDWF  xB0,W
082CE:  MOVWF  FE9
082D0:  MOVLW  07
082D2:  ADDWFC xB1,W
082D4:  MOVWF  FEA
082D6:  MOVLW  30
082D8:  ADDWF  FEF,W
082DA:  SUBWF  34,W
082DC:  BNZ   83A8
082DE:  MOVLB  0
082E0:  MOVF   xC3,W
082E2:  MULLW  04
082E4:  MOVF   FF3,W
082E6:  MOVLB  7
082E8:  CLRF   xB1
082EA:  MOVWF  xB0
082EC:  MOVLW  01
082EE:  ADDWF  xB0,W
082F0:  MOVWF  01
082F2:  MOVLW  00
082F4:  ADDWFC xB1,W
082F6:  MOVWF  03
082F8:  MOVF   01,W
082FA:  ADDLW  88
082FC:  MOVWF  FE9
082FE:  MOVLW  07
08300:  ADDWFC 03,W
08302:  MOVWF  FEA
08304:  MOVLW  30
08306:  ADDWF  FEF,W
08308:  SUBWF  35,W
0830A:  BNZ   83A8
0830C:  MOVLB  0
0830E:  MOVF   xC3,W
08310:  MULLW  04
08312:  MOVF   FF3,W
08314:  MOVLB  7
08316:  CLRF   xB1
08318:  MOVWF  xB0
0831A:  MOVLW  02
0831C:  ADDWF  xB0,W
0831E:  MOVWF  01
08320:  MOVLW  00
08322:  ADDWFC xB1,W
08324:  MOVWF  03
08326:  MOVF   01,W
08328:  ADDLW  88
0832A:  MOVWF  FE9
0832C:  MOVLW  07
0832E:  ADDWFC 03,W
08330:  MOVWF  FEA
08332:  MOVLW  30
08334:  ADDWF  FEF,W
08336:  SUBWF  36,W
08338:  BNZ   83A8
0833A:  MOVLB  0
0833C:  MOVF   xC3,W
0833E:  MULLW  04
08340:  MOVF   FF3,W
08342:  MOVLB  7
08344:  CLRF   xB1
08346:  MOVWF  xB0
08348:  MOVLW  03
0834A:  ADDWF  xB0,W
0834C:  MOVWF  01
0834E:  MOVLW  00
08350:  ADDWFC xB1,W
08352:  MOVWF  03
08354:  MOVF   01,W
08356:  ADDLW  88
08358:  MOVWF  FE9
0835A:  MOVLW  07
0835C:  ADDWFC 03,W
0835E:  MOVWF  FEA
08360:  MOVLW  30
08362:  ADDWF  FEF,W
08364:  SUBWF  37,W
08366:  BNZ   83A8
08368:  MOVF   38,F
0836A:  BNZ   83A8
0836C:  INCFSZ 39,W
0836E:  BRA    83A8
....................                   printf("page Clave"); 
08370:  MOVLW  E4
08372:  MOVWF  FF6
08374:  MOVLW  08
08376:  MOVWF  FF7
08378:  MOVLW  00
0837A:  MOVWF  FF8
0837C:  MOVLB  0
0837E:  CALL   3DF4
....................                   SendDataDisplay(); 
08382:  CALL   3E26
....................                   printf("titulo.txt=\"Clave Nueva\""); 
08386:  MOVLW  F0
08388:  MOVWF  FF6
0838A:  MOVLW  08
0838C:  MOVWF  FF7
0838E:  MOVLW  00
08390:  MOVWF  FF8
08392:  CALL   3DF4
....................                   SendDataDisplay(); 
08396:  CALL   3E26
....................                   TipoClave=3; 
0839A:  MOVLW  03
0839C:  MOVLB  2
0839E:  MOVWF  xCE
....................                   RX_Buffer[3]=0x00; 
083A0:  CLRF   33
....................                   RX_Buffer2[3]=0x00; 
083A2:  CLRF   3E
....................                }else{ 
083A4:  BRA    83C8
083A6:  MOVLB  7
....................                   printf("page MenuPrincipal"); 
083A8:  MOVLW  0A
083AA:  MOVWF  FF6
083AC:  MOVLW  09
083AE:  MOVWF  FF7
083B0:  MOVLW  00
083B2:  MOVWF  FF8
083B4:  MOVLB  0
083B6:  CALL   3DF4
....................                   SendDataDisplay(); 
083BA:  CALL   3E26
....................                   RX_Buffer[3]=0x00; 
083BE:  CLRF   33
....................                   RX_Buffer2[3]=0x00; 
083C0:  CLRF   3E
....................                   codigoUsuario=codigoUsuarioant; 
083C2:  MOVFF  C4,C1
083C6:  MOVLB  2
....................                }  
....................             } 
....................          }else if(TipoClave==3){ 
083C8:  BRA    8564
083CA:  MOVF   xCE,W
083CC:  SUBLW  03
083CE:  BTFSS  FD8.2
083D0:  BRA    8564
....................             printf("titulo.txt=\"Clave Nueva\""); 
083D2:  MOVLW  1E
083D4:  MOVWF  FF6
083D6:  MOVLW  09
083D8:  MOVWF  FF7
083DA:  MOVLW  00
083DC:  MOVWF  FF8
083DE:  MOVLB  0
083E0:  CALL   3DF4
....................             SendDataDisplay(); 
083E4:  CALL   3E26
....................             printf("page MenuPrincipal"); 
083E8:  MOVLW  38
083EA:  MOVWF  FF6
083EC:  MOVLW  09
083EE:  MOVWF  FF7
083F0:  MOVLW  00
083F2:  MOVWF  FF8
083F4:  CALL   3DF4
....................             SendDataDisplay(); 
083F8:  CALL   3E26
....................             if(!GuardaEEPROM){ 
083FC:  BTFSC  xA2.6
083FE:  BRA    855E
....................                write_eeprom(300+(codigoUsuario2*4),RX_Buffer[4]-0x30);delay_ms(20); 
08400:  MOVF   xC3,W
08402:  MULLW  04
08404:  MOVF   FF3,W
08406:  ADDLW  2C
08408:  MOVLB  7
0840A:  MOVWF  xB0
0840C:  MOVLW  01
0840E:  MOVWF  xB1
08410:  BTFSC  FD8.0
08412:  INCF   xB1,F
08414:  MOVLW  30
08416:  SUBWF  34,W
08418:  MOVWF  xB2
0841A:  MOVFF  7B1,FAA
0841E:  MOVFF  7B0,FA9
08422:  MOVFF  7B2,FA8
08426:  BCF    FA6.6
08428:  BCF    FA6.7
0842A:  BSF    FA6.2
0842C:  MOVF   FF2,W
0842E:  MOVWF  00
08430:  BCF    FF2.6
08432:  BCF    FF2.7
08434:  MOVLB  F
08436:  MOVLW  55
08438:  MOVWF  FA7
0843A:  MOVLW  AA
0843C:  MOVWF  FA7
0843E:  BSF    FA6.1
08440:  BTFSC  FA6.1
08442:  BRA    8440
08444:  BCF    FA6.2
08446:  MOVF   00,W
08448:  IORWF  FF2,F
0844A:  MOVLW  14
0844C:  MOVLB  7
0844E:  MOVWF  xC0
08450:  MOVLB  0
08452:  CALL   1E8C
....................                write_eeprom(301+(codigoUsuario2*4),RX_Buffer[5]-0x30);delay_ms(20); 
08456:  MOVF   xC3,W
08458:  MULLW  04
0845A:  MOVF   FF3,W
0845C:  ADDLW  2D
0845E:  MOVLB  7
08460:  MOVWF  xB0
08462:  MOVLW  01
08464:  MOVWF  xB1
08466:  BTFSC  FD8.0
08468:  INCF   xB1,F
0846A:  MOVLW  30
0846C:  SUBWF  35,W
0846E:  MOVWF  xB2
08470:  MOVFF  7B1,FAA
08474:  MOVFF  7B0,FA9
08478:  MOVFF  7B2,FA8
0847C:  BCF    FA6.6
0847E:  BCF    FA6.7
08480:  BSF    FA6.2
08482:  MOVF   FF2,W
08484:  MOVWF  00
08486:  BCF    FF2.6
08488:  BCF    FF2.7
0848A:  MOVLB  F
0848C:  MOVLW  55
0848E:  MOVWF  FA7
08490:  MOVLW  AA
08492:  MOVWF  FA7
08494:  BSF    FA6.1
08496:  BTFSC  FA6.1
08498:  BRA    8496
0849A:  BCF    FA6.2
0849C:  MOVF   00,W
0849E:  IORWF  FF2,F
084A0:  MOVLW  14
084A2:  MOVLB  7
084A4:  MOVWF  xC0
084A6:  MOVLB  0
084A8:  CALL   1E8C
....................                write_eeprom(302+(codigoUsuario2*4),RX_Buffer[6]-0x30);delay_ms(20); 
084AC:  MOVF   xC3,W
084AE:  MULLW  04
084B0:  MOVF   FF3,W
084B2:  ADDLW  2E
084B4:  MOVLB  7
084B6:  MOVWF  xB0
084B8:  MOVLW  01
084BA:  MOVWF  xB1
084BC:  BTFSC  FD8.0
084BE:  INCF   xB1,F
084C0:  MOVLW  30
084C2:  SUBWF  36,W
084C4:  MOVWF  xB2
084C6:  MOVFF  7B1,FAA
084CA:  MOVFF  7B0,FA9
084CE:  MOVFF  7B2,FA8
084D2:  BCF    FA6.6
084D4:  BCF    FA6.7
084D6:  BSF    FA6.2
084D8:  MOVF   FF2,W
084DA:  MOVWF  00
084DC:  BCF    FF2.6
084DE:  BCF    FF2.7
084E0:  MOVLB  F
084E2:  MOVLW  55
084E4:  MOVWF  FA7
084E6:  MOVLW  AA
084E8:  MOVWF  FA7
084EA:  BSF    FA6.1
084EC:  BTFSC  FA6.1
084EE:  BRA    84EC
084F0:  BCF    FA6.2
084F2:  MOVF   00,W
084F4:  IORWF  FF2,F
084F6:  MOVLW  14
084F8:  MOVLB  7
084FA:  MOVWF  xC0
084FC:  MOVLB  0
084FE:  CALL   1E8C
....................                write_eeprom(303+(codigoUsuario2*4),RX_Buffer[7]-0x30);delay_ms(20); 
08502:  MOVF   xC3,W
08504:  MULLW  04
08506:  MOVF   FF3,W
08508:  ADDLW  2F
0850A:  MOVLB  7
0850C:  MOVWF  xB0
0850E:  MOVLW  01
08510:  MOVWF  xB1
08512:  BTFSC  FD8.0
08514:  INCF   xB1,F
08516:  MOVLW  30
08518:  SUBWF  37,W
0851A:  MOVWF  xB2
0851C:  MOVFF  7B1,FAA
08520:  MOVFF  7B0,FA9
08524:  MOVFF  7B2,FA8
08528:  BCF    FA6.6
0852A:  BCF    FA6.7
0852C:  BSF    FA6.2
0852E:  MOVF   FF2,W
08530:  MOVWF  00
08532:  BCF    FF2.6
08534:  BCF    FF2.7
08536:  MOVLB  F
08538:  MOVLW  55
0853A:  MOVWF  FA7
0853C:  MOVLW  AA
0853E:  MOVWF  FA7
08540:  BSF    FA6.1
08542:  BTFSC  FA6.1
08544:  BRA    8542
08546:  BCF    FA6.2
08548:  MOVF   00,W
0854A:  IORWF  FF2,F
0854C:  MOVLW  14
0854E:  MOVLB  7
08550:  MOVWF  xC0
08552:  MOVLB  0
08554:  CALL   1E8C
....................                GuardaEEPROM=ON; 
08558:  BSF    xA2.6
....................                codigoUsuario=codigoUsuarioant; 
0855A:  MOVFF  C4,C1
....................             } 
....................             RX_Buffer[3]=0x00; 
0855E:  CLRF   33
....................             RX_Buffer2[3]=0x00; 
08560:  CLRF   3E
08562:  MOVLB  2
08564:  MOVLB  3
....................          } 
....................       } 
....................     } 
.................... //_--------------------------------------------------------------------------------------------------------------------------------------------------------        
....................  
.................... //_-------------------------------------------------------------------------------------------------------------------------------------------------------- 
....................    if(Menu==1){ //Menu Principal. 
08566:  DECFSZ x45,W
08568:  GOTO   8CF0
....................       printf("fecha.txt=\"T:%2.1fC Fecha:%02u/%02u/20%02u Hora:%02u:%02u:%02u\"",Temperatura,Dia,Mes,Year,Hora,Minuto,Segundo); 
0856C:  MOVLW  4C
0856E:  MOVWF  FF6
08570:  MOVLW  09
08572:  MOVWF  FF7
08574:  MOVLW  00
08576:  MOVWF  FF8
08578:  MOVLW  0D
0857A:  MOVLB  7
0857C:  MOVWF  xB5
0857E:  MOVLB  0
08580:  CALL   556C
08584:  MOVLW  01
08586:  MOVWF  FE9
08588:  MOVFF  314,7B8
0858C:  MOVFF  313,7B7
08590:  MOVFF  312,7B6
08594:  MOVFF  311,7B5
08598:  MOVLB  7
0859A:  MOVWF  xB9
0859C:  MOVLB  0
0859E:  CALL   5688
085A2:  MOVLW  5E
085A4:  MOVWF  FF6
085A6:  MOVLW  09
085A8:  MOVWF  FF7
085AA:  MOVLW  00
085AC:  MOVWF  FF8
085AE:  MOVLW  09
085B0:  MOVLB  7
085B2:  MOVWF  xB5
085B4:  MOVLB  0
085B6:  CALL   556C
085BA:  MOVFF  37D,7B5
085BE:  MOVLW  01
085C0:  MOVLB  7
085C2:  MOVWF  xB6
085C4:  MOVLB  0
085C6:  CALL   5858
085CA:  MOVLW  2F
085CC:  BTFSS  F9E.4
085CE:  BRA    85CC
085D0:  MOVWF  FAD
085D2:  MOVFF  37C,7B5
085D6:  MOVLW  01
085D8:  MOVLB  7
085DA:  MOVWF  xB6
085DC:  MOVLB  0
085DE:  CALL   5858
085E2:  MOVLW  2F
085E4:  BTFSS  F9E.4
085E6:  BRA    85E4
085E8:  MOVWF  FAD
085EA:  MOVLW  32
085EC:  BTFSS  F9E.4
085EE:  BRA    85EC
085F0:  MOVWF  FAD
085F2:  MOVLW  30
085F4:  BTFSS  F9E.4
085F6:  BRA    85F4
085F8:  MOVWF  FAD
085FA:  MOVFF  37B,7B5
085FE:  MOVLW  01
08600:  MOVLB  7
08602:  MOVWF  xB6
08604:  MOVLB  0
08606:  CALL   5858
0860A:  MOVLW  77
0860C:  MOVWF  FF6
0860E:  MOVLW  09
08610:  MOVWF  FF7
08612:  MOVLW  00
08614:  MOVWF  FF8
08616:  MOVLW  06
08618:  MOVLB  7
0861A:  MOVWF  xB5
0861C:  MOVLB  0
0861E:  CALL   556C
08622:  MOVFF  37E,7B5
08626:  MOVLW  01
08628:  MOVLB  7
0862A:  MOVWF  xB6
0862C:  MOVLB  0
0862E:  CALL   5858
08632:  MOVLW  3A
08634:  BTFSS  F9E.4
08636:  BRA    8634
08638:  MOVWF  FAD
0863A:  MOVFF  37F,7B5
0863E:  MOVLW  01
08640:  MOVLB  7
08642:  MOVWF  xB6
08644:  MOVLB  0
08646:  CALL   5858
0864A:  MOVLW  3A
0864C:  BTFSS  F9E.4
0864E:  BRA    864C
08650:  MOVWF  FAD
08652:  MOVFF  380,7B5
08656:  MOVLW  01
08658:  MOVLB  7
0865A:  MOVWF  xB6
0865C:  MOVLB  0
0865E:  CALL   5858
08662:  MOVLW  22
08664:  BTFSS  F9E.4
08666:  BRA    8664
08668:  MOVWF  FAD
....................       SendDataDisplay(); 
0866A:  CALL   3E26
....................       GuardaEEPROM=OFF; 
0866E:  BCF    xA2.6
....................       printf("tuser.txt=\"%s\"",usuario); 
08670:  MOVLW  8E
08672:  MOVWF  FF6
08674:  MOVLW  09
08676:  MOVWF  FF7
08678:  MOVLW  00
0867A:  MOVWF  FF8
0867C:  MOVLW  0B
0867E:  MOVLB  7
08680:  MOVWF  xB5
08682:  MOVLB  0
08684:  CALL   556C
08688:  MOVLW  03
0868A:  MOVWF  FEA
0868C:  MOVLW  8E
0868E:  MOVWF  FE9
08690:  CALL   559E
08694:  MOVLW  22
08696:  BTFSS  F9E.4
08698:  BRA    8696
0869A:  MOVWF  FAD
....................       SendDataDisplay(); 
0869C:  CALL   3E26
....................       codigoUsuarioant=codigoUsuario; 
086A0:  MOVFF  C1,C4
....................        
....................       if(RX_Buffer[4]==0x01 && RX_Buffer[5]==0x0f && estados[19+RX_Buffer[4]]){//01, Textil & Instrumental 
086A4:  DECFSZ 34,W
086A6:  BRA    8738
086A8:  MOVF   35,W
086AA:  SUBLW  0F
086AC:  BNZ   8738
086AE:  MOVLW  13
086B0:  ADDWF  34,W
086B2:  MOVLB  7
086B4:  MOVWF  xB1
086B6:  MOVLW  03
086B8:  MOVWF  xB3
086BA:  MOVLW  F4
086BC:  MOVWF  xB2
086BE:  MOVLB  0
086C0:  CALL   1EF6
086C4:  BTFSS  01.0
086C6:  BRA    8738
....................          delay_ms(5); 
086C8:  MOVLW  05
086CA:  MOVLB  7
086CC:  MOVWF  xC0
086CE:  MOVLB  0
086D0:  CALL   1E8C
....................          if(RX_Buffer[4]==0x01 && RX_Buffer[5]==0x0f && estados[19+RX_Buffer[4]]){//01, Textil & Instrumental 
086D4:  DECFSZ 34,W
086D6:  BRA    8738
086D8:  MOVF   35,W
086DA:  SUBLW  0F
086DC:  BNZ   8738
086DE:  MOVLW  13
086E0:  ADDWF  34,W
086E2:  MOVLB  7
086E4:  MOVWF  xB1
086E6:  MOVLW  03
086E8:  MOVWF  xB3
086EA:  MOVLW  F4
086EC:  MOVWF  xB2
086EE:  MOVLB  0
086F0:  CALL   1EF6
086F4:  BTFSS  01.0
086F6:  BRA    8738
....................             printf("page Funcionamiento"); 
086F8:  MOVLW  9E
086FA:  MOVWF  FF6
086FC:  MOVLW  09
086FE:  MOVWF  FF7
08700:  MOVLW  00
08702:  MOVWF  FF8
08704:  CALL   3DF4
....................             SendDataDisplay(); 
08708:  CALL   3E26
....................             ConfiguraCiclo(0,5,0,15,0,1,134,7,25,0); 
0870C:  MOVLB  7
0870E:  CLRF   xB6
08710:  MOVLW  05
08712:  MOVWF  xB7
08714:  CLRF   xB8
08716:  MOVLW  0F
08718:  MOVWF  xB9
0871A:  CLRF   xBA
0871C:  MOVLW  01
0871E:  MOVWF  xBB
08720:  MOVLW  86
08722:  MOVWF  xBC
08724:  MOVLW  07
08726:  MOVWF  xBD
08728:  MOVLW  19
0872A:  MOVWF  xBE
0872C:  CLRF   xBF
0872E:  MOVLB  0
08730:  CALL   58D6
....................             Op=OFF; 
08734:  BCF    xA2.2
....................             Op2=OFF; 
08736:  BCF    xA2.3
....................          } 
....................       } 
....................        
....................       if(RX_Buffer[4]==0x02 && RX_Buffer[5]==0x0f && estados[19+RX_Buffer[4]]){//02, Caucho 
08738:  MOVF   34,W
0873A:  SUBLW  02
0873C:  BNZ   87D0
0873E:  MOVF   35,W
08740:  SUBLW  0F
08742:  BNZ   87D0
08744:  MOVLW  13
08746:  ADDWF  34,W
08748:  MOVLB  7
0874A:  MOVWF  xB1
0874C:  MOVLW  03
0874E:  MOVWF  xB3
08750:  MOVLW  F4
08752:  MOVWF  xB2
08754:  MOVLB  0
08756:  CALL   1EF6
0875A:  BTFSS  01.0
0875C:  BRA    87D0
....................          delay_ms(5); 
0875E:  MOVLW  05
08760:  MOVLB  7
08762:  MOVWF  xC0
08764:  MOVLB  0
08766:  CALL   1E8C
....................          if(RX_Buffer[4]==0x02 && RX_Buffer[5]==0x0f && estados[19+RX_Buffer[4]]){ 
0876A:  MOVF   34,W
0876C:  SUBLW  02
0876E:  BNZ   87D0
08770:  MOVF   35,W
08772:  SUBLW  0F
08774:  BNZ   87D0
08776:  MOVLW  13
08778:  ADDWF  34,W
0877A:  MOVLB  7
0877C:  MOVWF  xB1
0877E:  MOVLW  03
08780:  MOVWF  xB3
08782:  MOVLW  F4
08784:  MOVWF  xB2
08786:  MOVLB  0
08788:  CALL   1EF6
0878C:  BTFSS  01.0
0878E:  BRA    87D0
....................             printf("page Funcionamiento"); 
08790:  MOVLW  B2
08792:  MOVWF  FF6
08794:  MOVLW  09
08796:  MOVWF  FF7
08798:  MOVLW  00
0879A:  MOVWF  FF8
0879C:  CALL   3DF4
....................             SendDataDisplay();        
087A0:  CALL   3E26
....................             ConfiguraCiclo(0,25,0,15,0,2,121,7,25,0);             
087A4:  MOVLB  7
087A6:  CLRF   xB6
087A8:  MOVLW  19
087AA:  MOVWF  xB7
087AC:  CLRF   xB8
087AE:  MOVLW  0F
087B0:  MOVWF  xB9
087B2:  CLRF   xBA
087B4:  MOVLW  02
087B6:  MOVWF  xBB
087B8:  MOVLW  79
087BA:  MOVWF  xBC
087BC:  MOVLW  07
087BE:  MOVWF  xBD
087C0:  MOVLW  19
087C2:  MOVWF  xBE
087C4:  CLRF   xBF
087C6:  MOVLB  0
087C8:  CALL   58D6
....................             Op=OFF; 
087CC:  BCF    xA2.2
....................             Op2=OFF; 
087CE:  BCF    xA2.3
....................          } 
....................       } 
....................        
....................       if(RX_Buffer[4]==0x03  && RX_Buffer[5]==0x0f && estados[19+RX_Buffer[4]]){//03, Liquidos A 
087D0:  MOVF   34,W
087D2:  SUBLW  03
087D4:  BNZ   886E
087D6:  MOVF   35,W
087D8:  SUBLW  0F
087DA:  BNZ   886E
087DC:  MOVLW  13
087DE:  ADDWF  34,W
087E0:  MOVLB  7
087E2:  MOVWF  xB1
087E4:  MOVLW  03
087E6:  MOVWF  xB3
087E8:  MOVLW  F4
087EA:  MOVWF  xB2
087EC:  MOVLB  0
087EE:  CALL   1EF6
087F2:  BTFSS  01.0
087F4:  BRA    886E
....................          delay_ms(5); 
087F6:  MOVLW  05
087F8:  MOVLB  7
087FA:  MOVWF  xC0
087FC:  MOVLB  0
087FE:  CALL   1E8C
....................          if(RX_Buffer[4]==0x03 && RX_Buffer[5]==0x0f && estados[19+RX_Buffer[4]]){ 
08802:  MOVF   34,W
08804:  SUBLW  03
08806:  BNZ   886E
08808:  MOVF   35,W
0880A:  SUBLW  0F
0880C:  BNZ   886E
0880E:  MOVLW  13
08810:  ADDWF  34,W
08812:  MOVLB  7
08814:  MOVWF  xB1
08816:  MOVLW  03
08818:  MOVWF  xB3
0881A:  MOVLW  F4
0881C:  MOVWF  xB2
0881E:  MOVLB  0
08820:  CALL   1EF6
08824:  BTFSS  01.0
08826:  BRA    886E
....................             printf("page NivelDes"); 
08828:  MOVLW  C6
0882A:  MOVWF  FF6
0882C:  MOVLW  09
0882E:  MOVWF  FF7
08830:  MOVLW  00
08832:  MOVWF  FF8
08834:  CALL   3DF4
....................             SendDataDisplay();      
08838:  CALL   3E26
....................             ConfiguraCiclo(0,15,0,0,1,3,121,0,0,0);   
0883C:  MOVLB  7
0883E:  CLRF   xB6
08840:  MOVLW  0F
08842:  MOVWF  xB7
08844:  CLRF   xB8
08846:  CLRF   xB9
08848:  MOVLW  01
0884A:  MOVWF  xBA
0884C:  MOVLW  03
0884E:  MOVWF  xBB
08850:  MOVLW  79
08852:  MOVWF  xBC
08854:  CLRF   xBD
08856:  CLRF   xBE
08858:  CLRF   xBF
0885A:  MOVLB  0
0885C:  CALL   58D6
....................             Op=OFF; 
08860:  BCF    xA2.2
....................             Op2=OFF; 
08862:  BCF    xA2.3
....................             MenuAnt=2; 
08864:  MOVLW  02
08866:  MOVLB  3
08868:  MOVWF  x46
....................             flagLiquidos=ON; 
0886A:  MOVLB  0
0886C:  BSF    xA6.4
....................          } 
....................       } 
....................        
....................       if(RX_Buffer[4]==0x04 && RX_Buffer[5]==0x0f && estados[19+RX_Buffer[4]]){//04, Liquidos B 
0886E:  MOVF   34,W
08870:  SUBLW  04
08872:  BNZ   890C
08874:  MOVF   35,W
08876:  SUBLW  0F
08878:  BNZ   890C
0887A:  MOVLW  13
0887C:  ADDWF  34,W
0887E:  MOVLB  7
08880:  MOVWF  xB1
08882:  MOVLW  03
08884:  MOVWF  xB3
08886:  MOVLW  F4
08888:  MOVWF  xB2
0888A:  MOVLB  0
0888C:  CALL   1EF6
08890:  BTFSS  01.0
08892:  BRA    890C
....................          delay_ms(5); 
08894:  MOVLW  05
08896:  MOVLB  7
08898:  MOVWF  xC0
0889A:  MOVLB  0
0889C:  CALL   1E8C
....................          if(RX_Buffer[4]==0x04 && RX_Buffer[5]==0x0f && estados[19+RX_Buffer[4]]){ 
088A0:  MOVF   34,W
088A2:  SUBLW  04
088A4:  BNZ   890C
088A6:  MOVF   35,W
088A8:  SUBLW  0F
088AA:  BNZ   890C
088AC:  MOVLW  13
088AE:  ADDWF  34,W
088B0:  MOVLB  7
088B2:  MOVWF  xB1
088B4:  MOVLW  03
088B6:  MOVWF  xB3
088B8:  MOVLW  F4
088BA:  MOVWF  xB2
088BC:  MOVLB  0
088BE:  CALL   1EF6
088C2:  BTFSS  01.0
088C4:  BRA    890C
....................             printf("page NivelDes"); 
088C6:  MOVLW  D4
088C8:  MOVWF  FF6
088CA:  MOVLW  09
088CC:  MOVWF  FF7
088CE:  MOVLW  00
088D0:  MOVWF  FF8
088D2:  CALL   3DF4
....................             SendDataDisplay();        
088D6:  CALL   3E26
....................             ConfiguraCiclo(0,20,0,0,1,4,121,0,0,0);   
088DA:  MOVLB  7
088DC:  CLRF   xB6
088DE:  MOVLW  14
088E0:  MOVWF  xB7
088E2:  CLRF   xB8
088E4:  CLRF   xB9
088E6:  MOVLW  01
088E8:  MOVWF  xBA
088EA:  MOVLW  04
088EC:  MOVWF  xBB
088EE:  MOVLW  79
088F0:  MOVWF  xBC
088F2:  CLRF   xBD
088F4:  CLRF   xBE
088F6:  CLRF   xBF
088F8:  MOVLB  0
088FA:  CALL   58D6
....................             Op=OFF; 
088FE:  BCF    xA2.2
....................             Op2=OFF; 
08900:  BCF    xA2.3
....................             MenuAnt=2; 
08902:  MOVLW  02
08904:  MOVLB  3
08906:  MOVWF  x46
....................             flagLiquidos=ON; 
08908:  MOVLB  0
0890A:  BSF    xA6.4
....................          } 
....................       } 
....................        
....................       if(RX_Buffer[4]==0x05 && RX_Buffer[5]==0x0f && estados[19+RX_Buffer[4]]){//05, No Envueltos 121 
0890C:  MOVF   34,W
0890E:  SUBLW  05
08910:  BNZ   89A6
08912:  MOVF   35,W
08914:  SUBLW  0F
08916:  BNZ   89A6
08918:  MOVLW  13
0891A:  ADDWF  34,W
0891C:  MOVLB  7
0891E:  MOVWF  xB1
08920:  MOVLW  03
08922:  MOVWF  xB3
08924:  MOVLW  F4
08926:  MOVWF  xB2
08928:  MOVLB  0
0892A:  CALL   1EF6
0892E:  BTFSS  01.0
08930:  BRA    89A6
....................          delay_ms(5); 
08932:  MOVLW  05
08934:  MOVLB  7
08936:  MOVWF  xC0
08938:  MOVLB  0
0893A:  CALL   1E8C
....................          if(RX_Buffer[4]==0x05 && RX_Buffer[5]==0x0f && estados[19+RX_Buffer[4]]){ 
0893E:  MOVF   34,W
08940:  SUBLW  05
08942:  BNZ   89A6
08944:  MOVF   35,W
08946:  SUBLW  0F
08948:  BNZ   89A6
0894A:  MOVLW  13
0894C:  ADDWF  34,W
0894E:  MOVLB  7
08950:  MOVWF  xB1
08952:  MOVLW  03
08954:  MOVWF  xB3
08956:  MOVLW  F4
08958:  MOVWF  xB2
0895A:  MOVLB  0
0895C:  CALL   1EF6
08960:  BTFSS  01.0
08962:  BRA    89A6
....................             printf("page Funcionamiento"); 
08964:  MOVLW  E2
08966:  MOVWF  FF6
08968:  MOVLW  09
0896A:  MOVWF  FF7
0896C:  MOVLW  00
0896E:  MOVWF  FF8
08970:  CALL   3DF4
....................             SendDataDisplay();        
08974:  CALL   3E26
....................             ConfiguraCiclo(0,15,0,2,0,5,121,7,25,0);   
08978:  MOVLB  7
0897A:  CLRF   xB6
0897C:  MOVLW  0F
0897E:  MOVWF  xB7
08980:  CLRF   xB8
08982:  MOVLW  02
08984:  MOVWF  xB9
08986:  CLRF   xBA
08988:  MOVLW  05
0898A:  MOVWF  xBB
0898C:  MOVLW  79
0898E:  MOVWF  xBC
08990:  MOVLW  07
08992:  MOVWF  xBD
08994:  MOVLW  19
08996:  MOVWF  xBE
08998:  CLRF   xBF
0899A:  MOVLB  0
0899C:  CALL   58D6
....................             Op=OFF; 
089A0:  BCF    xA2.2
....................             Op2=OFF; 
089A2:  BCF    xA2.3
....................             Fugas=OFF; 
089A4:  BCF    xA4.0
....................          } 
....................       } 
....................        
....................       if(RX_Buffer[4]==0x06 && RX_Buffer[5]==0x0f && estados[19+RX_Buffer[4]]){//06, Envuelto 121 
089A6:  MOVF   34,W
089A8:  SUBLW  06
089AA:  BNZ   8A3E
089AC:  MOVF   35,W
089AE:  SUBLW  0F
089B0:  BNZ   8A3E
089B2:  MOVLW  13
089B4:  ADDWF  34,W
089B6:  MOVLB  7
089B8:  MOVWF  xB1
089BA:  MOVLW  03
089BC:  MOVWF  xB3
089BE:  MOVLW  F4
089C0:  MOVWF  xB2
089C2:  MOVLB  0
089C4:  CALL   1EF6
089C8:  BTFSS  01.0
089CA:  BRA    8A3E
....................          delay_ms(5); 
089CC:  MOVLW  05
089CE:  MOVLB  7
089D0:  MOVWF  xC0
089D2:  MOVLB  0
089D4:  CALL   1E8C
....................          if(RX_Buffer[4]==0x06 && RX_Buffer[5]==0x0f && estados[19+RX_Buffer[4]]){ 
089D8:  MOVF   34,W
089DA:  SUBLW  06
089DC:  BNZ   8A3E
089DE:  MOVF   35,W
089E0:  SUBLW  0F
089E2:  BNZ   8A3E
089E4:  MOVLW  13
089E6:  ADDWF  34,W
089E8:  MOVLB  7
089EA:  MOVWF  xB1
089EC:  MOVLW  03
089EE:  MOVWF  xB3
089F0:  MOVLW  F4
089F2:  MOVWF  xB2
089F4:  MOVLB  0
089F6:  CALL   1EF6
089FA:  BTFSS  01.0
089FC:  BRA    8A3E
....................             printf("page Funcionamiento"); 
089FE:  MOVLW  F6
08A00:  MOVWF  FF6
08A02:  MOVLW  09
08A04:  MOVWF  FF7
08A06:  MOVLW  00
08A08:  MOVWF  FF8
08A0A:  CALL   3DF4
....................             SendDataDisplay();        
08A0E:  CALL   3E26
....................             ConfiguraCiclo(0,15,0,20,0,6,121,7,25,0);   
08A12:  MOVLB  7
08A14:  CLRF   xB6
08A16:  MOVLW  0F
08A18:  MOVWF  xB7
08A1A:  CLRF   xB8
08A1C:  MOVLW  14
08A1E:  MOVWF  xB9
08A20:  CLRF   xBA
08A22:  MOVLW  06
08A24:  MOVWF  xBB
08A26:  MOVLW  79
08A28:  MOVWF  xBC
08A2A:  MOVLW  07
08A2C:  MOVWF  xBD
08A2E:  MOVLW  19
08A30:  MOVWF  xBE
08A32:  CLRF   xBF
08A34:  MOVLB  0
08A36:  CALL   58D6
....................             Op=OFF; 
08A3A:  BCF    xA2.2
....................             Op2=OFF; 
08A3C:  BCF    xA2.3
....................          } 
....................       } 
....................        
....................       if(RX_Buffer[4]==0x07 && RX_Buffer[5]==0x0f && estados[19+RX_Buffer[4]]){//07, Envuelto Doble 2 
08A3E:  MOVF   34,W
08A40:  SUBLW  07
08A42:  BNZ   8AD6
08A44:  MOVF   35,W
08A46:  SUBLW  0F
08A48:  BNZ   8AD6
08A4A:  MOVLW  13
08A4C:  ADDWF  34,W
08A4E:  MOVLB  7
08A50:  MOVWF  xB1
08A52:  MOVLW  03
08A54:  MOVWF  xB3
08A56:  MOVLW  F4
08A58:  MOVWF  xB2
08A5A:  MOVLB  0
08A5C:  CALL   1EF6
08A60:  BTFSS  01.0
08A62:  BRA    8AD6
....................          delay_ms(5); 
08A64:  MOVLW  05
08A66:  MOVLB  7
08A68:  MOVWF  xC0
08A6A:  MOVLB  0
08A6C:  CALL   1E8C
....................          if(RX_Buffer[4]==0x07 && RX_Buffer[5]==0x0f && estados[19+RX_Buffer[4]]){ 
08A70:  MOVF   34,W
08A72:  SUBLW  07
08A74:  BNZ   8AD6
08A76:  MOVF   35,W
08A78:  SUBLW  0F
08A7A:  BNZ   8AD6
08A7C:  MOVLW  13
08A7E:  ADDWF  34,W
08A80:  MOVLB  7
08A82:  MOVWF  xB1
08A84:  MOVLW  03
08A86:  MOVWF  xB3
08A88:  MOVLW  F4
08A8A:  MOVWF  xB2
08A8C:  MOVLB  0
08A8E:  CALL   1EF6
08A92:  BTFSS  01.0
08A94:  BRA    8AD6
....................             printf("page Funcionamiento"); 
08A96:  MOVLW  0A
08A98:  MOVWF  FF6
08A9A:  MOVLW  0A
08A9C:  MOVWF  FF7
08A9E:  MOVLW  00
08AA0:  MOVWF  FF8
08AA2:  CALL   3DF4
....................             SendDataDisplay();        
08AA6:  CALL   3E26
....................             ConfiguraCiclo(0,7,0,30,0,7,134,7,25,0);   
08AAA:  MOVLB  7
08AAC:  CLRF   xB6
08AAE:  MOVLW  07
08AB0:  MOVWF  xB7
08AB2:  CLRF   xB8
08AB4:  MOVLW  1E
08AB6:  MOVWF  xB9
08AB8:  CLRF   xBA
08ABA:  MOVLW  07
08ABC:  MOVWF  xBB
08ABE:  MOVLW  86
08AC0:  MOVWF  xBC
08AC2:  MOVLW  07
08AC4:  MOVWF  xBD
08AC6:  MOVLW  19
08AC8:  MOVWF  xBE
08ACA:  CLRF   xBF
08ACC:  MOVLB  0
08ACE:  CALL   58D6
....................             Op=OFF; 
08AD2:  BCF    xA2.2
....................             Op2=OFF; 
08AD4:  BCF    xA2.3
....................          } 
....................       } 
....................        
....................       if(RX_Buffer[4]==0x08 && RX_Buffer[5]==0x0f && estados[19+RX_Buffer[4]]){//08, Liquidos C 
08AD6:  MOVF   34,W
08AD8:  SUBLW  08
08ADA:  BNZ   8B74
08ADC:  MOVF   35,W
08ADE:  SUBLW  0F
08AE0:  BNZ   8B74
08AE2:  MOVLW  13
08AE4:  ADDWF  34,W
08AE6:  MOVLB  7
08AE8:  MOVWF  xB1
08AEA:  MOVLW  03
08AEC:  MOVWF  xB3
08AEE:  MOVLW  F4
08AF0:  MOVWF  xB2
08AF2:  MOVLB  0
08AF4:  CALL   1EF6
08AF8:  BTFSS  01.0
08AFA:  BRA    8B74
....................          delay_ms(5); 
08AFC:  MOVLW  05
08AFE:  MOVLB  7
08B00:  MOVWF  xC0
08B02:  MOVLB  0
08B04:  CALL   1E8C
....................          if(RX_Buffer[4]==0x08 && RX_Buffer[5]==0x0f && estados[19+RX_Buffer[4]]){ 
08B08:  MOVF   34,W
08B0A:  SUBLW  08
08B0C:  BNZ   8B74
08B0E:  MOVF   35,W
08B10:  SUBLW  0F
08B12:  BNZ   8B74
08B14:  MOVLW  13
08B16:  ADDWF  34,W
08B18:  MOVLB  7
08B1A:  MOVWF  xB1
08B1C:  MOVLW  03
08B1E:  MOVWF  xB3
08B20:  MOVLW  F4
08B22:  MOVWF  xB2
08B24:  MOVLB  0
08B26:  CALL   1EF6
08B2A:  BTFSS  01.0
08B2C:  BRA    8B74
....................             printf("page NivelDes"); 
08B2E:  MOVLW  1E
08B30:  MOVWF  FF6
08B32:  MOVLW  0A
08B34:  MOVWF  FF7
08B36:  MOVLW  00
08B38:  MOVWF  FF8
08B3A:  CALL   3DF4
....................             SendDataDisplay();        
08B3E:  CALL   3E26
....................             ConfiguraCiclo(0,30,0,0,1,8,121,0,0,0);   
08B42:  MOVLB  7
08B44:  CLRF   xB6
08B46:  MOVLW  1E
08B48:  MOVWF  xB7
08B4A:  CLRF   xB8
08B4C:  CLRF   xB9
08B4E:  MOVLW  01
08B50:  MOVWF  xBA
08B52:  MOVLW  08
08B54:  MOVWF  xBB
08B56:  MOVLW  79
08B58:  MOVWF  xBC
08B5A:  CLRF   xBD
08B5C:  CLRF   xBE
08B5E:  CLRF   xBF
08B60:  MOVLB  0
08B62:  CALL   58D6
....................             Op=OFF; 
08B66:  BCF    xA2.2
....................             Op2=OFF; 
08B68:  BCF    xA2.3
....................             MenuAnt=2; 
08B6A:  MOVLW  02
08B6C:  MOVLB  3
08B6E:  MOVWF  x46
....................             flagLiquidos=ON; 
08B70:  MOVLB  0
08B72:  BSF    xA6.4
....................          } 
....................       } 
....................        
....................       if(RX_Buffer[4]==0x09 && RX_Buffer[5]==0x0f && estados[19+RX_Buffer[4]]){//09, Solidos 
08B74:  MOVF   34,W
08B76:  SUBLW  09
08B78:  BNZ   8C06
08B7A:  MOVF   35,W
08B7C:  SUBLW  0F
08B7E:  BNZ   8C06
08B80:  MOVLW  13
08B82:  ADDWF  34,W
08B84:  MOVLB  7
08B86:  MOVWF  xB1
08B88:  MOVLW  03
08B8A:  MOVWF  xB3
08B8C:  MOVLW  F4
08B8E:  MOVWF  xB2
08B90:  MOVLB  0
08B92:  CALL   1EF6
08B96:  BTFSS  01.0
08B98:  BRA    8C06
....................          delay_ms(5); 
08B9A:  MOVLW  05
08B9C:  MOVLB  7
08B9E:  MOVWF  xC0
08BA0:  MOVLB  0
08BA2:  CALL   1E8C
....................          if(RX_Buffer[4]==0x09 && RX_Buffer[5]==0x0f && estados[19+RX_Buffer[4]]){ 
08BA6:  MOVF   34,W
08BA8:  SUBLW  09
08BAA:  BNZ   8C06
08BAC:  MOVF   35,W
08BAE:  SUBLW  0F
08BB0:  BNZ   8C06
08BB2:  MOVLW  13
08BB4:  ADDWF  34,W
08BB6:  MOVLB  7
08BB8:  MOVWF  xB1
08BBA:  MOVLW  03
08BBC:  MOVWF  xB3
08BBE:  MOVLW  F4
08BC0:  MOVWF  xB2
08BC2:  MOVLB  0
08BC4:  CALL   1EF6
08BC8:  BTFSS  01.0
08BCA:  BRA    8C06
....................             printf("page Funcionamiento"); 
08BCC:  MOVLW  2C
08BCE:  MOVWF  FF6
08BD0:  MOVLW  0A
08BD2:  MOVWF  FF7
08BD4:  MOVLW  00
08BD6:  MOVWF  FF8
08BD8:  CALL   3DF4
....................             SendDataDisplay();        
08BDC:  CALL   3E26
....................             ConfiguraCiclo(0,20,0,20,0,9,121,0,0,0);   
08BE0:  MOVLB  7
08BE2:  CLRF   xB6
08BE4:  MOVLW  14
08BE6:  MOVWF  xB7
08BE8:  CLRF   xB8
08BEA:  MOVWF  xB9
08BEC:  CLRF   xBA
08BEE:  MOVLW  09
08BF0:  MOVWF  xBB
08BF2:  MOVLW  79
08BF4:  MOVWF  xBC
08BF6:  CLRF   xBD
08BF8:  CLRF   xBE
08BFA:  CLRF   xBF
08BFC:  MOVLB  0
08BFE:  CALL   58D6
....................             Op=OFF; 
08C02:  BCF    xA2.2
....................             Op2=OFF;            
08C04:  BCF    xA2.3
....................          } 
....................       } 
....................        
....................       if(RX_Buffer[4]==0x0a && RX_Buffer[5]==0x0f && estados[19+RX_Buffer[4]]){//0a, Desinfeccion 
08C06:  MOVF   34,W
08C08:  SUBLW  0A
08C0A:  BNZ   8C96
08C0C:  MOVF   35,W
08C0E:  SUBLW  0F
08C10:  BNZ   8C96
08C12:  MOVLW  13
08C14:  ADDWF  34,W
08C16:  MOVLB  7
08C18:  MOVWF  xB1
08C1A:  MOVLW  03
08C1C:  MOVWF  xB3
08C1E:  MOVLW  F4
08C20:  MOVWF  xB2
08C22:  MOVLB  0
08C24:  CALL   1EF6
08C28:  BTFSS  01.0
08C2A:  BRA    8C96
....................          delay_ms(5); 
08C2C:  MOVLW  05
08C2E:  MOVLB  7
08C30:  MOVWF  xC0
08C32:  MOVLB  0
08C34:  CALL   1E8C
....................          if(RX_Buffer[4]==0x0a && RX_Buffer[5]==0x0f && estados[19+RX_Buffer[4]]){ 
08C38:  MOVF   34,W
08C3A:  SUBLW  0A
08C3C:  BNZ   8C96
08C3E:  MOVF   35,W
08C40:  SUBLW  0F
08C42:  BNZ   8C96
08C44:  MOVLW  13
08C46:  ADDWF  34,W
08C48:  MOVLB  7
08C4A:  MOVWF  xB1
08C4C:  MOVLW  03
08C4E:  MOVWF  xB3
08C50:  MOVLW  F4
08C52:  MOVWF  xB2
08C54:  MOVLB  0
08C56:  CALL   1EF6
08C5A:  BTFSS  01.0
08C5C:  BRA    8C96
....................             printf("page Funcionamiento"); 
08C5E:  MOVLW  40
08C60:  MOVWF  FF6
08C62:  MOVLW  0A
08C64:  MOVWF  FF7
08C66:  MOVLW  00
08C68:  MOVWF  FF8
08C6A:  CALL   3DF4
....................             SendDataDisplay();        
08C6E:  CALL   3E26
....................             ConfiguraCiclo(0,25,0,15,0,10,105,0,0,0);   
08C72:  MOVLB  7
08C74:  CLRF   xB6
08C76:  MOVLW  19
08C78:  MOVWF  xB7
08C7A:  CLRF   xB8
08C7C:  MOVLW  0F
08C7E:  MOVWF  xB9
08C80:  CLRF   xBA
08C82:  MOVLW  0A
08C84:  MOVWF  xBB
08C86:  MOVLW  69
08C88:  MOVWF  xBC
08C8A:  CLRF   xBD
08C8C:  CLRF   xBE
08C8E:  CLRF   xBF
08C90:  MOVLB  0
08C92:  CALL   58D6
....................          } 
....................       } 
....................        
....................       if(RX_Buffer[4]==0xa0){//a0, Ciclos Fijos 
08C96:  MOVF   34,W
08C98:  SUBLW  A0
08C9A:  BNZ   8CB0
....................          printf("page MenuPrincipal"); 
08C9C:  MOVLW  54
08C9E:  MOVWF  FF6
08CA0:  MOVLW  0A
08CA2:  MOVWF  FF7
08CA4:  MOVLW  00
08CA6:  MOVWF  FF8
08CA8:  CALL   3DF4
....................          SendDataDisplay();      
08CAC:  CALL   3E26
....................       } 
....................        
....................       if(RX_Buffer[4]==0xb0){//b0, Personalizados 
08CB0:  MOVF   34,W
08CB2:  SUBLW  B0
08CB4:  BNZ   8CCA
....................          printf("page CicloPersona"); 
08CB6:  MOVLW  68
08CB8:  MOVWF  FF6
08CBA:  MOVLW  0A
08CBC:  MOVWF  FF7
08CBE:  MOVLW  00
08CC0:  MOVWF  FF8
08CC2:  CALL   3DF4
....................          SendDataDisplay();      
08CC6:  CALL   3E26
....................       } 
....................        
....................       if(RX_Buffer[4]==0xc0){//c0, Configuraciones 
08CCA:  MOVF   34,W
08CCC:  SUBLW  C0
08CCE:  BNZ   8CEE
....................          if(codigoUsuario==0 || codigoUsuario==9){        
08CD0:  MOVF   xC1,F
08CD2:  BZ    8CDA
08CD4:  MOVF   xC1,W
08CD6:  SUBLW  09
08CD8:  BNZ   8CEE
....................             printf("page Ajustes"); 
08CDA:  MOVLW  7A
08CDC:  MOVWF  FF6
08CDE:  MOVLW  0A
08CE0:  MOVWF  FF7
08CE2:  MOVLW  00
08CE4:  MOVWF  FF8
08CE6:  CALL   3DF4
....................             SendDataDisplay();      
08CEA:  CALL   3E26
08CEE:  MOVLB  3
....................          } 
....................       } 
....................    } 
.................... //_--------------------------------------------------------------------------------------------------------------------------------------------------------        
....................  
.................... //_-------------------------------------------------------------------------------------------------------------------------------------------------------- 
....................       if(Menu==2){ //Menu de Tiempo Esterilizacion      
08CF0:  MOVF   x45,W
08CF2:  SUBLW  02
08CF4:  BTFSS  FD8.2
08CF6:  BRA    8FE8
....................          printf("fecha.txt=\"T:%2.1fC Fecha:%02u/%02u/20%02u Hora:%02u:%02u:%02u\"",Temperatura,Dia,Mes,Year,Hora,Minuto,Segundo); 
08CF8:  MOVLW  88
08CFA:  MOVWF  FF6
08CFC:  MOVLW  0A
08CFE:  MOVWF  FF7
08D00:  MOVLW  00
08D02:  MOVWF  FF8
08D04:  MOVLW  0D
08D06:  MOVLB  7
08D08:  MOVWF  xB5
08D0A:  MOVLB  0
08D0C:  CALL   556C
08D10:  MOVLW  01
08D12:  MOVWF  FE9
08D14:  MOVFF  314,7B8
08D18:  MOVFF  313,7B7
08D1C:  MOVFF  312,7B6
08D20:  MOVFF  311,7B5
08D24:  MOVLB  7
08D26:  MOVWF  xB9
08D28:  MOVLB  0
08D2A:  CALL   5688
08D2E:  MOVLW  9A
08D30:  MOVWF  FF6
08D32:  MOVLW  0A
08D34:  MOVWF  FF7
08D36:  MOVLW  00
08D38:  MOVWF  FF8
08D3A:  MOVLW  09
08D3C:  MOVLB  7
08D3E:  MOVWF  xB5
08D40:  MOVLB  0
08D42:  CALL   556C
08D46:  MOVFF  37D,7B5
08D4A:  MOVLW  01
08D4C:  MOVLB  7
08D4E:  MOVWF  xB6
08D50:  MOVLB  0
08D52:  CALL   5858
08D56:  MOVLW  2F
08D58:  BTFSS  F9E.4
08D5A:  BRA    8D58
08D5C:  MOVWF  FAD
08D5E:  MOVFF  37C,7B5
08D62:  MOVLW  01
08D64:  MOVLB  7
08D66:  MOVWF  xB6
08D68:  MOVLB  0
08D6A:  CALL   5858
08D6E:  MOVLW  2F
08D70:  BTFSS  F9E.4
08D72:  BRA    8D70
08D74:  MOVWF  FAD
08D76:  MOVLW  32
08D78:  BTFSS  F9E.4
08D7A:  BRA    8D78
08D7C:  MOVWF  FAD
08D7E:  MOVLW  30
08D80:  BTFSS  F9E.4
08D82:  BRA    8D80
08D84:  MOVWF  FAD
08D86:  MOVFF  37B,7B5
08D8A:  MOVLW  01
08D8C:  MOVLB  7
08D8E:  MOVWF  xB6
08D90:  MOVLB  0
08D92:  CALL   5858
08D96:  MOVLW  B3
08D98:  MOVWF  FF6
08D9A:  MOVLW  0A
08D9C:  MOVWF  FF7
08D9E:  MOVLW  00
08DA0:  MOVWF  FF8
08DA2:  MOVLW  06
08DA4:  MOVLB  7
08DA6:  MOVWF  xB5
08DA8:  MOVLB  0
08DAA:  CALL   556C
08DAE:  MOVFF  37E,7B5
08DB2:  MOVLW  01
08DB4:  MOVLB  7
08DB6:  MOVWF  xB6
08DB8:  MOVLB  0
08DBA:  CALL   5858
08DBE:  MOVLW  3A
08DC0:  BTFSS  F9E.4
08DC2:  BRA    8DC0
08DC4:  MOVWF  FAD
08DC6:  MOVFF  37F,7B5
08DCA:  MOVLW  01
08DCC:  MOVLB  7
08DCE:  MOVWF  xB6
08DD0:  MOVLB  0
08DD2:  CALL   5858
08DD6:  MOVLW  3A
08DD8:  BTFSS  F9E.4
08DDA:  BRA    8DD8
08DDC:  MOVWF  FAD
08DDE:  MOVFF  380,7B5
08DE2:  MOVLW  01
08DE4:  MOVLB  7
08DE6:  MOVWF  xB6
08DE8:  MOVLB  0
08DEA:  CALL   5858
08DEE:  MOVLW  22
08DF0:  BTFSS  F9E.4
08DF2:  BRA    8DF0
08DF4:  MOVWF  FAD
....................          SendDataDisplay(); 
08DF6:  CALL   3E26
....................          if(RX_Buffer[4]==0x0a){//Selecciono Minutos 
08DFA:  MOVF   34,W
08DFC:  SUBLW  0A
08DFE:  BNZ   8E04
....................             Minutos=ON; 
08E00:  BSF    xA2.4
....................             Segundos=OFF; 
08E02:  BCF    xA2.5
....................          } 
....................           
....................          if(RX_Buffer[4]==0x0b){//Selecciono Segundos 
08E04:  MOVF   34,W
08E06:  SUBLW  0B
08E08:  BNZ   8E0E
....................             Segundos=ON; 
08E0A:  BSF    xA2.5
....................             Minutos=OFF; 
08E0C:  BCF    xA2.4
....................          }            
....................           
....................          if(RX_Buffer[4]==0x11){//Selecciono Regresar             
08E0E:  MOVF   34,W
08E10:  SUBLW  11
08E12:  BTFSS  FD8.2
08E14:  BRA    8F28
....................                Segundos=OFF; 
08E16:  BCF    xA2.5
....................                Minutos=OFF; 
08E18:  BCF    xA2.4
....................                printf("page CicloPersona"); 
08E1A:  MOVLW  CA
08E1C:  MOVWF  FF6
08E1E:  MOVLW  0A
08E20:  MOVWF  FF7
08E22:  MOVLW  00
08E24:  MOVWF  FF8
08E26:  CALL   3DF4
....................                SendDataDisplay();   
08E2A:  CALL   3E26
....................                if(!GuardaEEPROM){ 
08E2E:  BTFSC  xA2.6
08E30:  BRA    8F28
....................                   CiclosPersonalizados[CicloLibre-1].Minutoest=mEstp; 
08E32:  MOVLW  01
08E34:  MOVLB  3
08E36:  SUBWF  x2B,W
08E38:  MULLW  0A
08E3A:  MOVF   FF3,W
08E3C:  MOVLB  7
08E3E:  CLRF   xB1
08E40:  MOVWF  xB0
08E42:  MOVLW  09
08E44:  ADDWF  xB0,W
08E46:  MOVWF  01
08E48:  MOVLW  00
08E4A:  ADDWFC xB1,W
08E4C:  MOVWF  03
08E4E:  MOVF   01,W
08E50:  ADDLW  C0
08E52:  MOVWF  FE9
08E54:  MOVLW  06
08E56:  ADDWFC 03,W
08E58:  MOVWF  FEA
08E5A:  MOVFF  BC,FEF
....................                   CiclosPersonalizados[CicloLibre-1].Segundoest=sEstp; 
08E5E:  MOVLW  01
08E60:  MOVLB  3
08E62:  SUBWF  x2B,W
08E64:  MULLW  0A
08E66:  MOVF   FF3,W
08E68:  MOVLB  7
08E6A:  CLRF   xB1
08E6C:  MOVWF  xB0
08E6E:  MOVLW  03
08E70:  ADDWF  xB0,W
08E72:  MOVWF  01
08E74:  MOVLW  00
08E76:  ADDWFC xB1,W
08E78:  MOVWF  03
08E7A:  MOVF   01,W
08E7C:  ADDLW  C0
08E7E:  MOVWF  FE9
08E80:  MOVLW  06
08E82:  ADDWFC 03,W
08E84:  MOVWF  FEA
08E86:  MOVFF  BB,FEF
....................                   write_eeprom(101+((CicloLibre-1)*8),mEstp); 
08E8A:  MOVLW  01
08E8C:  MOVLB  3
08E8E:  SUBWF  x2B,W
08E90:  MULLW  08
08E92:  MOVF   FF3,W
08E94:  ADDLW  65
08E96:  MOVLB  7
08E98:  MOVWF  xB0
08E9A:  CLRF   FAA
08E9C:  MOVFF  7B0,FA9
08EA0:  MOVFF  BC,FA8
08EA4:  BCF    FA6.6
08EA6:  BCF    FA6.7
08EA8:  BSF    FA6.2
08EAA:  MOVF   FF2,W
08EAC:  MOVWF  00
08EAE:  BCF    FF2.6
08EB0:  BCF    FF2.7
08EB2:  MOVLB  F
08EB4:  MOVLW  55
08EB6:  MOVWF  FA7
08EB8:  MOVLW  AA
08EBA:  MOVWF  FA7
08EBC:  BSF    FA6.1
08EBE:  BTFSC  FA6.1
08EC0:  BRA    8EBE
08EC2:  BCF    FA6.2
08EC4:  MOVF   00,W
08EC6:  IORWF  FF2,F
....................                   delay_ms(10); 
08EC8:  MOVLW  0A
08ECA:  MOVLB  7
08ECC:  MOVWF  xC0
08ECE:  MOVLB  0
08ED0:  CALL   1E8C
....................                   write_eeprom(102+((CicloLibre-1)*8),sEstp); 
08ED4:  MOVLW  01
08ED6:  MOVLB  3
08ED8:  SUBWF  x2B,W
08EDA:  MULLW  08
08EDC:  MOVF   FF3,W
08EDE:  ADDLW  66
08EE0:  MOVLB  7
08EE2:  MOVWF  xB0
08EE4:  CLRF   FAA
08EE6:  MOVFF  7B0,FA9
08EEA:  MOVFF  BB,FA8
08EEE:  BCF    FA6.6
08EF0:  BCF    FA6.7
08EF2:  BSF    FA6.2
08EF4:  MOVF   FF2,W
08EF6:  MOVWF  00
08EF8:  BCF    FF2.6
08EFA:  BCF    FF2.7
08EFC:  MOVLB  F
08EFE:  MOVLW  55
08F00:  MOVWF  FA7
08F02:  MOVLW  AA
08F04:  MOVWF  FA7
08F06:  BSF    FA6.1
08F08:  BTFSC  FA6.1
08F0A:  BRA    8F08
08F0C:  BCF    FA6.2
08F0E:  MOVF   00,W
08F10:  IORWF  FF2,F
....................                   delay_ms(10); 
08F12:  MOVLW  0A
08F14:  MOVLB  7
08F16:  MOVWF  xC0
08F18:  MOVLB  0
08F1A:  CALL   1E8C
....................                   mEst=mEstp; 
08F1E:  MOVFF  BC,B8
....................                   sEst=sEstp; 
08F22:  MOVFF  BB,B7
....................                   GuardaEEPROM=ON; 
08F26:  BSF    xA2.6
....................                } 
....................          } 
....................           
....................          if(RX_Buffer[4]==0x0c || RX_Buffer[4]==0x0d){//Tecla arriba Oprimida 
08F28:  MOVF   34,W
08F2A:  SUBLW  0C
08F2C:  BZ    8F34
08F2E:  MOVF   34,W
08F30:  SUBLW  0D
08F32:  BNZ   8F44
....................             if(Segundos){ 
08F34:  BTFSS  xA2.5
08F36:  BRA    8F3A
....................                sEstp++; 
08F38:  INCF   xBB,F
....................             } 
....................             if(Minutos){ 
08F3A:  BTFSS  xA2.4
08F3C:  BRA    8F40
....................                mEstp++; 
08F3E:  INCF   xBC,F
....................             }   
....................             RX_Buffer[4]=0x00;   
08F40:  CLRF   34
....................             RX_Buffer2[4]=0x00; 
08F42:  CLRF   3F
....................          } 
....................           
....................          if(RX_Buffer[4]==0x0f || RX_Buffer[4]==0x0e){//Tecla abajo oprimida 
08F44:  MOVF   34,W
08F46:  SUBLW  0F
08F48:  BZ    8F50
08F4A:  MOVF   34,W
08F4C:  SUBLW  0E
08F4E:  BNZ   8F64
....................             if(Segundos && sEstp>0){ 
08F50:  BTFSS  xA2.5
08F52:  BRA    8F5A
08F54:  MOVF   xBB,F
08F56:  BZ    8F5A
....................                sEstp--; 
08F58:  DECF   xBB,F
....................             } 
....................             if(Minutos){ 
08F5A:  BTFSS  xA2.4
08F5C:  BRA    8F60
....................                mEstp--; 
08F5E:  DECF   xBC,F
....................             } 
....................             RX_Buffer[4]=0x00;   
08F60:  CLRF   34
....................             RX_Buffer2[4]=0x00; 
08F62:  CLRF   3F
....................          } 
....................           
....................          if(mEstp<1)mEstp=99; 
08F64:  MOVF   xBC,F
08F66:  BNZ   8F6C
08F68:  MOVLW  63
08F6A:  MOVWF  xBC
....................          if(mEstp>99)mEstp=1; 
08F6C:  MOVF   xBC,W
08F6E:  SUBLW  63
08F70:  BC    8F76
08F72:  MOVLW  01
08F74:  MOVWF  xBC
....................          if(sEstp>59)sEstp=0; 
08F76:  MOVF   xBB,W
08F78:  SUBLW  3B
08F7A:  BTFSS  FD8.0
08F7C:  CLRF   xBB
....................              
....................          printf("tminest.txt=\"%02u\"",mEstp); 
08F7E:  MOVLW  DC
08F80:  MOVWF  FF6
08F82:  MOVLW  0A
08F84:  MOVWF  FF7
08F86:  MOVLW  00
08F88:  MOVWF  FF8
08F8A:  MOVLW  0D
08F8C:  MOVLB  7
08F8E:  MOVWF  xB5
08F90:  MOVLB  0
08F92:  CALL   556C
08F96:  MOVFF  BC,7B5
08F9A:  MOVLW  01
08F9C:  MOVLB  7
08F9E:  MOVWF  xB6
08FA0:  MOVLB  0
08FA2:  CALL   5858
08FA6:  MOVLW  22
08FA8:  BTFSS  F9E.4
08FAA:  BRA    8FA8
08FAC:  MOVWF  FAD
....................          SendDataDisplay(); 
08FAE:  CALL   3E26
....................          printf("tsecest.txt=\"%02u\"",sEstp); 
08FB2:  MOVLW  F0
08FB4:  MOVWF  FF6
08FB6:  MOVLW  0A
08FB8:  MOVWF  FF7
08FBA:  MOVLW  00
08FBC:  MOVWF  FF8
08FBE:  MOVLW  0D
08FC0:  MOVLB  7
08FC2:  MOVWF  xB5
08FC4:  MOVLB  0
08FC6:  CALL   556C
08FCA:  MOVFF  BB,7B5
08FCE:  MOVLW  01
08FD0:  MOVLB  7
08FD2:  MOVWF  xB6
08FD4:  MOVLB  0
08FD6:  CALL   5858
08FDA:  MOVLW  22
08FDC:  BTFSS  F9E.4
08FDE:  BRA    8FDC
08FE0:  MOVWF  FAD
....................          SendDataDisplay(); 
08FE2:  CALL   3E26
08FE6:  MOVLB  3
....................     } 
.................... //_--------------------------------------------------------------------------------------------------------------------------------------------------------        
....................  
.................... //_-------------------------------------------------------------------------------------------------------------------------------------------------------- 
....................     if(Menu==3){ //Menu de Tiempo de Secado 
08FE8:  MOVF   x45,W
08FEA:  SUBLW  03
08FEC:  BTFSS  FD8.2
08FEE:  BRA    92E0
....................       printf("fecha.txt=\"T:%2.1fC Fecha:%02u/%02u/20%02u Hora:%02u:%02u:%02u\"",Temperatura,Dia,Mes,Year,Hora,Minuto,Segundo); 
08FF0:  MOVLW  04
08FF2:  MOVWF  FF6
08FF4:  MOVLW  0B
08FF6:  MOVWF  FF7
08FF8:  MOVLW  00
08FFA:  MOVWF  FF8
08FFC:  MOVLW  0D
08FFE:  MOVLB  7
09000:  MOVWF  xB5
09002:  MOVLB  0
09004:  CALL   556C
09008:  MOVLW  01
0900A:  MOVWF  FE9
0900C:  MOVFF  314,7B8
09010:  MOVFF  313,7B7
09014:  MOVFF  312,7B6
09018:  MOVFF  311,7B5
0901C:  MOVLB  7
0901E:  MOVWF  xB9
09020:  MOVLB  0
09022:  CALL   5688
09026:  MOVLW  16
09028:  MOVWF  FF6
0902A:  MOVLW  0B
0902C:  MOVWF  FF7
0902E:  MOVLW  00
09030:  MOVWF  FF8
09032:  MOVLW  09
09034:  MOVLB  7
09036:  MOVWF  xB5
09038:  MOVLB  0
0903A:  CALL   556C
0903E:  MOVFF  37D,7B5
09042:  MOVLW  01
09044:  MOVLB  7
09046:  MOVWF  xB6
09048:  MOVLB  0
0904A:  CALL   5858
0904E:  MOVLW  2F
09050:  BTFSS  F9E.4
09052:  BRA    9050
09054:  MOVWF  FAD
09056:  MOVFF  37C,7B5
0905A:  MOVLW  01
0905C:  MOVLB  7
0905E:  MOVWF  xB6
09060:  MOVLB  0
09062:  CALL   5858
09066:  MOVLW  2F
09068:  BTFSS  F9E.4
0906A:  BRA    9068
0906C:  MOVWF  FAD
0906E:  MOVLW  32
09070:  BTFSS  F9E.4
09072:  BRA    9070
09074:  MOVWF  FAD
09076:  MOVLW  30
09078:  BTFSS  F9E.4
0907A:  BRA    9078
0907C:  MOVWF  FAD
0907E:  MOVFF  37B,7B5
09082:  MOVLW  01
09084:  MOVLB  7
09086:  MOVWF  xB6
09088:  MOVLB  0
0908A:  CALL   5858
0908E:  MOVLW  2F
09090:  MOVWF  FF6
09092:  MOVLW  0B
09094:  MOVWF  FF7
09096:  MOVLW  00
09098:  MOVWF  FF8
0909A:  MOVLW  06
0909C:  MOVLB  7
0909E:  MOVWF  xB5
090A0:  MOVLB  0
090A2:  CALL   556C
090A6:  MOVFF  37E,7B5
090AA:  MOVLW  01
090AC:  MOVLB  7
090AE:  MOVWF  xB6
090B0:  MOVLB  0
090B2:  CALL   5858
090B6:  MOVLW  3A
090B8:  BTFSS  F9E.4
090BA:  BRA    90B8
090BC:  MOVWF  FAD
090BE:  MOVFF  37F,7B5
090C2:  MOVLW  01
090C4:  MOVLB  7
090C6:  MOVWF  xB6
090C8:  MOVLB  0
090CA:  CALL   5858
090CE:  MOVLW  3A
090D0:  BTFSS  F9E.4
090D2:  BRA    90D0
090D4:  MOVWF  FAD
090D6:  MOVFF  380,7B5
090DA:  MOVLW  01
090DC:  MOVLB  7
090DE:  MOVWF  xB6
090E0:  MOVLB  0
090E2:  CALL   5858
090E6:  MOVLW  22
090E8:  BTFSS  F9E.4
090EA:  BRA    90E8
090EC:  MOVWF  FAD
....................       SendDataDisplay();             
090EE:  CALL   3E26
....................              
....................          if(RX_Buffer[4]==0x0a){//Selecciono Minutos 
090F2:  MOVF   34,W
090F4:  SUBLW  0A
090F6:  BNZ   90FC
....................             Minutos=ON; 
090F8:  BSF    xA2.4
....................             Segundos=OFF; 
090FA:  BCF    xA2.5
....................          } 
....................           
....................          if(RX_Buffer[4]==0x0b){//Selecciono Segundos 
090FC:  MOVF   34,W
090FE:  SUBLW  0B
09100:  BNZ   9106
....................             Segundos=ON; 
09102:  BSF    xA2.5
....................             Minutos=OFF; 
09104:  BCF    xA2.4
....................          } 
....................           
....................          if(RX_Buffer[4]==0x11){//Selecciono Regresar 
09106:  MOVF   34,W
09108:  SUBLW  11
0910A:  BTFSS  FD8.2
0910C:  BRA    9220
....................             Segundos=OFF; 
0910E:  BCF    xA2.5
....................             Minutos=OFF; 
09110:  BCF    xA2.4
....................             printf("page CicloPersona"); 
09112:  MOVLW  46
09114:  MOVWF  FF6
09116:  MOVLW  0B
09118:  MOVWF  FF7
0911A:  MOVLW  00
0911C:  MOVWF  FF8
0911E:  CALL   3DF4
....................             SendDataDisplay();   
09122:  CALL   3E26
....................             if(!GuardaEEPROM){ 
09126:  BTFSC  xA2.6
09128:  BRA    9220
....................                CiclosPersonalizados[CicloLibre-1].Minutosec=mSecp; 
0912A:  MOVLW  01
0912C:  MOVLB  3
0912E:  SUBWF  x2B,W
09130:  MULLW  0A
09132:  MOVF   FF3,W
09134:  MOVLB  7
09136:  CLRF   xB1
09138:  MOVWF  xB0
0913A:  MOVLW  04
0913C:  ADDWF  xB0,W
0913E:  MOVWF  01
09140:  MOVLW  00
09142:  ADDWFC xB1,W
09144:  MOVWF  03
09146:  MOVF   01,W
09148:  ADDLW  C0
0914A:  MOVWF  FE9
0914C:  MOVLW  06
0914E:  ADDWFC 03,W
09150:  MOVWF  FEA
09152:  MOVFF  BE,FEF
....................                CiclosPersonalizados[CicloLibre-1].Segundosec=sSecp; 
09156:  MOVLW  01
09158:  MOVLB  3
0915A:  SUBWF  x2B,W
0915C:  MULLW  0A
0915E:  MOVF   FF3,W
09160:  MOVLB  7
09162:  CLRF   xB1
09164:  MOVWF  xB0
09166:  MOVLW  05
09168:  ADDWF  xB0,W
0916A:  MOVWF  01
0916C:  MOVLW  00
0916E:  ADDWFC xB1,W
09170:  MOVWF  03
09172:  MOVF   01,W
09174:  ADDLW  C0
09176:  MOVWF  FE9
09178:  MOVLW  06
0917A:  ADDWFC 03,W
0917C:  MOVWF  FEA
0917E:  MOVFF  BD,FEF
....................                write_eeprom(103+((CicloLibre-1)*8),mSecp); 
09182:  MOVLW  01
09184:  MOVLB  3
09186:  SUBWF  x2B,W
09188:  MULLW  08
0918A:  MOVF   FF3,W
0918C:  ADDLW  67
0918E:  MOVLB  7
09190:  MOVWF  xB0
09192:  CLRF   FAA
09194:  MOVFF  7B0,FA9
09198:  MOVFF  BE,FA8
0919C:  BCF    FA6.6
0919E:  BCF    FA6.7
091A0:  BSF    FA6.2
091A2:  MOVF   FF2,W
091A4:  MOVWF  00
091A6:  BCF    FF2.6
091A8:  BCF    FF2.7
091AA:  MOVLB  F
091AC:  MOVLW  55
091AE:  MOVWF  FA7
091B0:  MOVLW  AA
091B2:  MOVWF  FA7
091B4:  BSF    FA6.1
091B6:  BTFSC  FA6.1
091B8:  BRA    91B6
091BA:  BCF    FA6.2
091BC:  MOVF   00,W
091BE:  IORWF  FF2,F
....................                delay_ms(10); 
091C0:  MOVLW  0A
091C2:  MOVLB  7
091C4:  MOVWF  xC0
091C6:  MOVLB  0
091C8:  CALL   1E8C
....................                write_eeprom(104+((CicloLibre-1)*8),sSecp); 
091CC:  MOVLW  01
091CE:  MOVLB  3
091D0:  SUBWF  x2B,W
091D2:  MULLW  08
091D4:  MOVF   FF3,W
091D6:  ADDLW  68
091D8:  MOVLB  7
091DA:  MOVWF  xB0
091DC:  CLRF   FAA
091DE:  MOVFF  7B0,FA9
091E2:  MOVFF  BD,FA8
091E6:  BCF    FA6.6
091E8:  BCF    FA6.7
091EA:  BSF    FA6.2
091EC:  MOVF   FF2,W
091EE:  MOVWF  00
091F0:  BCF    FF2.6
091F2:  BCF    FF2.7
091F4:  MOVLB  F
091F6:  MOVLW  55
091F8:  MOVWF  FA7
091FA:  MOVLW  AA
091FC:  MOVWF  FA7
091FE:  BSF    FA6.1
09200:  BTFSC  FA6.1
09202:  BRA    9200
09204:  BCF    FA6.2
09206:  MOVF   00,W
09208:  IORWF  FF2,F
....................                delay_ms(10); 
0920A:  MOVLW  0A
0920C:  MOVLB  7
0920E:  MOVWF  xC0
09210:  MOVLB  0
09212:  CALL   1E8C
....................                mSec=mSecp; 
09216:  MOVFF  BE,BA
....................                sSec=sSecp; 
0921A:  MOVFF  BD,B9
....................                GuardaEEPROM=ON; 
0921E:  BSF    xA2.6
....................             } 
....................          } 
....................           
....................          if(RX_Buffer[4]==0x0c || RX_Buffer[4]==0x0d){//Tecla Derecha Oprimida 
09220:  MOVF   34,W
09222:  SUBLW  0C
09224:  BZ    922C
09226:  MOVF   34,W
09228:  SUBLW  0D
0922A:  BNZ   923C
....................             if(Segundos){ 
0922C:  BTFSS  xA2.5
0922E:  BRA    9232
....................                sSecp++; 
09230:  INCF   xBD,F
....................             } 
....................             if(Minutos){ 
09232:  BTFSS  xA2.4
09234:  BRA    9238
....................                mSecp++; 
09236:  INCF   xBE,F
....................             }   
....................             RX_Buffer[4]=0x00;   
09238:  CLRF   34
....................             RX_Buffer2[4]=0x00;  
0923A:  CLRF   3F
....................          } 
....................           
....................          if(RX_Buffer[4]==0x0f || RX_Buffer[4]==0x0e){//Tecla Izquierda Oprimida 
0923C:  MOVF   34,W
0923E:  SUBLW  0F
09240:  BZ    9248
09242:  MOVF   34,W
09244:  SUBLW  0E
09246:  BNZ   925C
....................             if(Segundos && sSecp>0){ 
09248:  BTFSS  xA2.5
0924A:  BRA    9252
0924C:  MOVF   xBD,F
0924E:  BZ    9252
....................                sSecp--; 
09250:  DECF   xBD,F
....................             } 
....................             if(Minutos){ 
09252:  BTFSS  xA2.4
09254:  BRA    9258
....................                mSecp--; 
09256:  DECF   xBE,F
....................             }  
....................             RX_Buffer[4]=0x00;   
09258:  CLRF   34
....................             RX_Buffer2[4]=0x00;             
0925A:  CLRF   3F
....................          } 
....................          if(mSecp<1)mSecp=99; 
0925C:  MOVF   xBE,F
0925E:  BNZ   9264
09260:  MOVLW  63
09262:  MOVWF  xBE
....................          if(mSecp>99)mSecp=1; 
09264:  MOVF   xBE,W
09266:  SUBLW  63
09268:  BC    926E
0926A:  MOVLW  01
0926C:  MOVWF  xBE
....................          if(sSecp>59)mSecp=0; 
0926E:  MOVF   xBD,W
09270:  SUBLW  3B
09272:  BTFSS  FD8.0
09274:  CLRF   xBE
....................              
....................       printf("tminsec.txt=\"%02u\"",mSecp); 
09276:  MOVLW  58
09278:  MOVWF  FF6
0927A:  MOVLW  0B
0927C:  MOVWF  FF7
0927E:  MOVLW  00
09280:  MOVWF  FF8
09282:  MOVLW  0D
09284:  MOVLB  7
09286:  MOVWF  xB5
09288:  MOVLB  0
0928A:  CALL   556C
0928E:  MOVFF  BE,7B5
09292:  MOVLW  01
09294:  MOVLB  7
09296:  MOVWF  xB6
09298:  MOVLB  0
0929A:  CALL   5858
0929E:  MOVLW  22
092A0:  BTFSS  F9E.4
092A2:  BRA    92A0
092A4:  MOVWF  FAD
....................       SendDataDisplay(); 
092A6:  CALL   3E26
....................       printf("tsecsec.txt=\"%02u\"",sSecp); 
092AA:  MOVLW  6C
092AC:  MOVWF  FF6
092AE:  MOVLW  0B
092B0:  MOVWF  FF7
092B2:  MOVLW  00
092B4:  MOVWF  FF8
092B6:  MOVLW  0D
092B8:  MOVLB  7
092BA:  MOVWF  xB5
092BC:  MOVLB  0
092BE:  CALL   556C
092C2:  MOVFF  BD,7B5
092C6:  MOVLW  01
092C8:  MOVLB  7
092CA:  MOVWF  xB6
092CC:  MOVLB  0
092CE:  CALL   5858
092D2:  MOVLW  22
092D4:  BTFSS  F9E.4
092D6:  BRA    92D4
092D8:  MOVWF  FAD
....................       SendDataDisplay(); 
092DA:  CALL   3E26
092DE:  MOVLB  3
....................     } 
.................... //_--------------------------------------------------------------------------------------------------------------------------------------------------------        
....................  
.................... //_-------------------------------------------------------------------------------------------------------------------------------------------------------- 
....................     if(Menu==4){ //Menu de Temperatura 
092E0:  MOVF   x45,W
092E2:  SUBLW  04
092E4:  BTFSS  FD8.2
092E6:  BRA    94EC
....................       printf("fecha.txt=\"T:%2.1fC Fecha:%02u/%02u/20%02u Hora:%02u:%02u:%02u\"",Temperatura,Dia,Mes,Year,Hora,Minuto,Segundo); 
092E8:  MOVLW  80
092EA:  MOVWF  FF6
092EC:  MOVLW  0B
092EE:  MOVWF  FF7
092F0:  MOVLW  00
092F2:  MOVWF  FF8
092F4:  MOVLW  0D
092F6:  MOVLB  7
092F8:  MOVWF  xB5
092FA:  MOVLB  0
092FC:  CALL   556C
09300:  MOVLW  01
09302:  MOVWF  FE9
09304:  MOVFF  314,7B8
09308:  MOVFF  313,7B7
0930C:  MOVFF  312,7B6
09310:  MOVFF  311,7B5
09314:  MOVLB  7
09316:  MOVWF  xB9
09318:  MOVLB  0
0931A:  CALL   5688
0931E:  MOVLW  92
09320:  MOVWF  FF6
09322:  MOVLW  0B
09324:  MOVWF  FF7
09326:  MOVLW  00
09328:  MOVWF  FF8
0932A:  MOVLW  09
0932C:  MOVLB  7
0932E:  MOVWF  xB5
09330:  MOVLB  0
09332:  CALL   556C
09336:  MOVFF  37D,7B5
0933A:  MOVLW  01
0933C:  MOVLB  7
0933E:  MOVWF  xB6
09340:  MOVLB  0
09342:  CALL   5858
09346:  MOVLW  2F
09348:  BTFSS  F9E.4
0934A:  BRA    9348
0934C:  MOVWF  FAD
0934E:  MOVFF  37C,7B5
09352:  MOVLW  01
09354:  MOVLB  7
09356:  MOVWF  xB6
09358:  MOVLB  0
0935A:  CALL   5858
0935E:  MOVLW  2F
09360:  BTFSS  F9E.4
09362:  BRA    9360
09364:  MOVWF  FAD
09366:  MOVLW  32
09368:  BTFSS  F9E.4
0936A:  BRA    9368
0936C:  MOVWF  FAD
0936E:  MOVLW  30
09370:  BTFSS  F9E.4
09372:  BRA    9370
09374:  MOVWF  FAD
09376:  MOVFF  37B,7B5
0937A:  MOVLW  01
0937C:  MOVLB  7
0937E:  MOVWF  xB6
09380:  MOVLB  0
09382:  CALL   5858
09386:  MOVLW  AB
09388:  MOVWF  FF6
0938A:  MOVLW  0B
0938C:  MOVWF  FF7
0938E:  MOVLW  00
09390:  MOVWF  FF8
09392:  MOVLW  06
09394:  MOVLB  7
09396:  MOVWF  xB5
09398:  MOVLB  0
0939A:  CALL   556C
0939E:  MOVFF  37E,7B5
093A2:  MOVLW  01
093A4:  MOVLB  7
093A6:  MOVWF  xB6
093A8:  MOVLB  0
093AA:  CALL   5858
093AE:  MOVLW  3A
093B0:  BTFSS  F9E.4
093B2:  BRA    93B0
093B4:  MOVWF  FAD
093B6:  MOVFF  37F,7B5
093BA:  MOVLW  01
093BC:  MOVLB  7
093BE:  MOVWF  xB6
093C0:  MOVLB  0
093C2:  CALL   5858
093C6:  MOVLW  3A
093C8:  BTFSS  F9E.4
093CA:  BRA    93C8
093CC:  MOVWF  FAD
093CE:  MOVFF  380,7B5
093D2:  MOVLW  01
093D4:  MOVLB  7
093D6:  MOVWF  xB6
093D8:  MOVLB  0
093DA:  CALL   5858
093DE:  MOVLW  22
093E0:  BTFSS  F9E.4
093E2:  BRA    93E0
093E4:  MOVWF  FAD
....................       SendDataDisplay(); 
093E6:  CALL   3E26
....................          if(Setpoint<105) 
093EA:  MOVLB  3
093EC:  MOVF   x4C,W
093EE:  SUBLW  68
093F0:  BNC   93F6
....................             Setpoint=134; 
093F2:  MOVLW  86
093F4:  MOVWF  x4C
....................          if(Setpoint>134) 
093F6:  MOVF   x4C,W
093F8:  SUBLW  86
093FA:  BC    9400
....................             Setpoint=105; 
093FC:  MOVLW  69
093FE:  MOVWF  x4C
....................           
....................          if(RX_Buffer[4]==0x11){//Selecciono Regresar 
09400:  MOVF   34,W
09402:  SUBLW  11
09404:  BNZ   949E
....................             Segundos=OFF; 
09406:  MOVLB  0
09408:  BCF    xA2.5
....................             Minutos=OFF; 
0940A:  BCF    xA2.4
....................             printf("page CicloPersona"); 
0940C:  MOVLW  C2
0940E:  MOVWF  FF6
09410:  MOVLW  0B
09412:  MOVWF  FF7
09414:  MOVLW  00
09416:  MOVWF  FF8
09418:  CALL   3DF4
....................             SendDataDisplay();   
0941C:  CALL   3E26
....................             PantallaPrincipal=1; 
09420:  MOVLW  01
09422:  MOVLB  2
09424:  MOVWF  xCD
....................             Op=OFF; 
09426:  MOVLB  0
09428:  BCF    xA2.2
....................             Op2=OFF; 
0942A:  BCF    xA2.3
....................             if(!GuardaEEPROM){ 
0942C:  BTFSC  xA2.6
0942E:  BRA    949C
....................                CiclosPersonalizados[CicloLibre-1].Temperatura=Setpoint; 
09430:  MOVLW  01
09432:  MOVLB  3
09434:  SUBWF  x2B,W
09436:  MULLW  0A
09438:  MOVF   FF3,W
0943A:  MOVLB  7
0943C:  CLRF   xB1
0943E:  MOVWF  xB0
09440:  MOVLW  C0
09442:  ADDWF  xB0,W
09444:  MOVWF  FE9
09446:  MOVLW  06
09448:  ADDWFC xB1,W
0944A:  MOVWF  FEA
0944C:  MOVFF  34C,FEF
....................                write_eeprom(100+((CicloLibre-1)*8),Setpoint); 
09450:  MOVLW  01
09452:  MOVLB  3
09454:  SUBWF  x2B,W
09456:  MULLW  08
09458:  MOVF   FF3,W
0945A:  ADDLW  64
0945C:  MOVLB  7
0945E:  MOVWF  xB0
09460:  CLRF   FAA
09462:  MOVFF  7B0,FA9
09466:  MOVFF  34C,FA8
0946A:  BCF    FA6.6
0946C:  BCF    FA6.7
0946E:  BSF    FA6.2
09470:  MOVF   FF2,W
09472:  MOVWF  00
09474:  BCF    FF2.6
09476:  BCF    FF2.7
09478:  MOVLB  F
0947A:  MOVLW  55
0947C:  MOVWF  FA7
0947E:  MOVLW  AA
09480:  MOVWF  FA7
09482:  BSF    FA6.1
09484:  BTFSC  FA6.1
09486:  BRA    9484
09488:  BCF    FA6.2
0948A:  MOVF   00,W
0948C:  IORWF  FF2,F
....................                delay_ms(10); 
0948E:  MOVLW  0A
09490:  MOVLB  7
09492:  MOVWF  xC0
09494:  MOVLB  0
09496:  CALL   1E8C
....................                GuardaEEPROM=ON; 
0949A:  BSF    xA2.6
0949C:  MOVLB  3
....................             } 
....................          } 
....................           
....................          if(RX_Buffer[4]==0x0d){//Tecla Arriba Oprimida 
0949E:  MOVF   34,W
094A0:  SUBLW  0D
094A2:  BNZ   94AA
....................             Setpoint++; 
094A4:  INCF   x4C,F
....................             RX_Buffer[4]=0x00;   
094A6:  CLRF   34
....................             RX_Buffer2[4]=0x00;             
094A8:  CLRF   3F
....................             //BorraBuffer(); 
....................          } 
....................           
....................          if(RX_Buffer[4]==0x0c){//Tecla Abajo Oprimida 
094AA:  MOVF   34,W
094AC:  SUBLW  0C
094AE:  BNZ   94B6
....................             Setpoint--; 
094B0:  DECF   x4C,F
....................             RX_Buffer[4]=0x00; 
094B2:  CLRF   34
....................             RX_Buffer2[4]=0x00;             
094B4:  CLRF   3F
....................             //BorraBuffer(); 
....................          } 
....................           
....................       printf("tsettem.txt=\"%03u\"",Setpoint); 
094B6:  MOVLW  D4
094B8:  MOVWF  FF6
094BA:  MOVLW  0B
094BC:  MOVWF  FF7
094BE:  MOVLW  00
094C0:  MOVWF  FF8
094C2:  MOVLW  0D
094C4:  MOVLB  7
094C6:  MOVWF  xB5
094C8:  MOVLB  0
094CA:  CALL   556C
094CE:  MOVFF  34C,7B5
094D2:  MOVLW  03
094D4:  MOVLB  7
094D6:  MOVWF  xB6
094D8:  MOVLB  0
094DA:  CALL   5858
094DE:  MOVLW  22
094E0:  BTFSS  F9E.4
094E2:  BRA    94E0
094E4:  MOVWF  FAD
....................       SendDataDisplay(); 
094E6:  CALL   3E26
094EA:  MOVLB  3
....................     } 
.................... //_--------------------------------------------------------------------------------------------------------------------------------------------------------        
....................  
.................... //_--------------------------------------------------------------------------------------------------------------------------------------------------------       
....................    if(Menu==5){//Menu de Nivel 
094EC:  MOVF   x45,W
094EE:  SUBLW  05
094F0:  BTFSS  FD8.2
094F2:  BRA    972A
....................       printf("fecha.txt=\"Fecha:%02u/%02u/20%02u    Hora: %02u:%02u:%02u\"",Dia,Mes,Year,Hora,Minuto,Segundo); 
094F4:  MOVLW  E8
094F6:  MOVWF  FF6
094F8:  MOVLW  0B
094FA:  MOVWF  FF7
094FC:  MOVLW  00
094FE:  MOVWF  FF8
09500:  MOVLW  11
09502:  MOVLB  7
09504:  MOVWF  xB5
09506:  MOVLB  0
09508:  CALL   556C
0950C:  MOVFF  37D,7B5
09510:  MOVLW  01
09512:  MOVLB  7
09514:  MOVWF  xB6
09516:  MOVLB  0
09518:  CALL   5858
0951C:  MOVLW  2F
0951E:  BTFSS  F9E.4
09520:  BRA    951E
09522:  MOVWF  FAD
09524:  MOVFF  37C,7B5
09528:  MOVLW  01
0952A:  MOVLB  7
0952C:  MOVWF  xB6
0952E:  MOVLB  0
09530:  CALL   5858
09534:  MOVLW  2F
09536:  BTFSS  F9E.4
09538:  BRA    9536
0953A:  MOVWF  FAD
0953C:  MOVLW  32
0953E:  BTFSS  F9E.4
09540:  BRA    953E
09542:  MOVWF  FAD
09544:  MOVLW  30
09546:  BTFSS  F9E.4
09548:  BRA    9546
0954A:  MOVWF  FAD
0954C:  MOVFF  37B,7B5
09550:  MOVLW  01
09552:  MOVLB  7
09554:  MOVWF  xB6
09556:  MOVLB  0
09558:  CALL   5858
0955C:  MOVLW  09
0955E:  MOVWF  FF6
09560:  MOVLW  0C
09562:  MOVWF  FF7
09564:  MOVLW  00
09566:  MOVWF  FF8
09568:  MOVLW  0A
0956A:  MOVLB  7
0956C:  MOVWF  xB5
0956E:  MOVLB  0
09570:  CALL   556C
09574:  MOVFF  37E,7B5
09578:  MOVLW  01
0957A:  MOVLB  7
0957C:  MOVWF  xB6
0957E:  MOVLB  0
09580:  CALL   5858
09584:  MOVLW  3A
09586:  BTFSS  F9E.4
09588:  BRA    9586
0958A:  MOVWF  FAD
0958C:  MOVFF  37F,7B5
09590:  MOVLW  01
09592:  MOVLB  7
09594:  MOVWF  xB6
09596:  MOVLB  0
09598:  CALL   5858
0959C:  MOVLW  3A
0959E:  BTFSS  F9E.4
095A0:  BRA    959E
095A2:  MOVWF  FAD
095A4:  MOVFF  380,7B5
095A8:  MOVLW  01
095AA:  MOVLB  7
095AC:  MOVWF  xB6
095AE:  MOVLB  0
095B0:  CALL   5858
095B4:  MOVLW  22
095B6:  BTFSS  F9E.4
095B8:  BRA    95B6
095BA:  MOVWF  FAD
....................       SendDataDisplay(); 
095BC:  CALL   3E26
....................          if(Nivel<25) 
095C0:  MOVLB  3
095C2:  MOVF   x5B,F
095C4:  BNZ   95D2
095C6:  MOVF   x5A,W
095C8:  SUBLW  18
095CA:  BNC   95D2
....................             Nivel=Atmosferica; 
095CC:  CLRF   x5B
095CE:  MOVFF  331,35A
....................          if(Nivel>Atmosferica) 
095D2:  MOVF   x5B,F
095D4:  BNZ   95DC
095D6:  MOVF   x5A,W
095D8:  SUBWF  x31,W
095DA:  BC    95E2
....................             Nivel=25; 
095DC:  CLRF   x5B
095DE:  MOVLW  19
095E0:  MOVWF  x5A
....................           
....................          if(RX_Buffer[4]==0x11 || LEFT){//Selecciono Regresar 
095E2:  MOVF   34,W
095E4:  SUBLW  11
095E6:  BZ    95F0
095E8:  MOVLB  0
095EA:  BTFSS  xA0.3
095EC:  BRA    968C
095EE:  MOVLB  3
....................             Segundos=OFF; 
095F0:  MOVLB  0
095F2:  BCF    xA2.5
....................             Minutos=OFF;             
095F4:  BCF    xA2.4
....................             tiempo_secado=0; 
095F6:  MOVLB  3
095F8:  CLRF   x50
....................             printf("page CicloPersona"); 
095FA:  MOVLW  24
095FC:  MOVWF  FF6
095FE:  MOVLW  0C
09600:  MOVWF  FF7
09602:  MOVLW  00
09604:  MOVWF  FF8
09606:  MOVLB  0
09608:  CALL   3DF4
....................             SendDataDisplay();  
0960C:  CALL   3E26
....................             if(!GuardaEEPROM){     
09610:  BTFSC  xA2.6
09612:  BRA    968C
....................                CiclosPersonalizados[CicloLibre-1].NivelVacio=Nivel; 
09614:  MOVLW  01
09616:  MOVLB  3
09618:  SUBWF  x2B,W
0961A:  MULLW  0A
0961C:  MOVF   FF3,W
0961E:  MOVLB  7
09620:  CLRF   xB1
09622:  MOVWF  xB0
09624:  MOVLW  07
09626:  ADDWF  xB0,W
09628:  MOVWF  01
0962A:  MOVLW  00
0962C:  ADDWFC xB1,W
0962E:  MOVWF  03
09630:  MOVF   01,W
09632:  ADDLW  C0
09634:  MOVWF  FE9
09636:  MOVLW  06
09638:  ADDWFC 03,W
0963A:  MOVWF  FEA
0963C:  MOVFF  35A,FEF
....................                write_eeprom(106+((CicloLibre-1)*8),Nivel); 
09640:  MOVLW  01
09642:  MOVLB  3
09644:  SUBWF  x2B,W
09646:  MULLW  08
09648:  MOVF   FF3,W
0964A:  ADDLW  6A
0964C:  MOVLB  7
0964E:  MOVWF  xB0
09650:  CLRF   FAA
09652:  MOVFF  7B0,FA9
09656:  MOVFF  35A,FA8
0965A:  BCF    FA6.6
0965C:  BCF    FA6.7
0965E:  BSF    FA6.2
09660:  MOVF   FF2,W
09662:  MOVWF  00
09664:  BCF    FF2.6
09666:  BCF    FF2.7
09668:  MOVLB  F
0966A:  MOVLW  55
0966C:  MOVWF  FA7
0966E:  MOVLW  AA
09670:  MOVWF  FA7
09672:  BSF    FA6.1
09674:  BTFSC  FA6.1
09676:  BRA    9674
09678:  BCF    FA6.2
0967A:  MOVF   00,W
0967C:  IORWF  FF2,F
....................                delay_ms(20);             
0967E:  MOVLW  14
09680:  MOVLB  7
09682:  MOVWF  xC0
09684:  MOVLB  0
09686:  CALL   1E8C
....................                GuardaEEPROM=ON; 
0968A:  BSF    xA2.6
....................             } 
....................          } 
....................           
....................          if(UP){ 
0968C:  BTFSS  xA0.0
0968E:  BRA    96AA
....................             delay_ms(200); 
09690:  MOVLW  C8
09692:  MOVLB  7
09694:  MOVWF  xC0
09696:  MOVLB  0
09698:  CALL   1E8C
....................             if(UP){ 
0969C:  BTFSS  xA0.0
0969E:  BRA    96AA
....................                Nivel++; 
096A0:  MOVLB  3
096A2:  INCF   x5A,F
096A4:  BTFSC  FD8.2
096A6:  INCF   x5B,F
096A8:  MOVLB  0
....................             } 
....................          } 
....................           
....................          if(DOWN){ 
096AA:  BTFSS  xA0.1
096AC:  BRA    96CA
....................             delay_ms(200); 
096AE:  MOVLW  C8
096B0:  MOVLB  7
096B2:  MOVWF  xC0
096B4:  MOVLB  0
096B6:  CALL   1E8C
....................             if(DOWN){ 
096BA:  BTFSS  xA0.1
096BC:  BRA    96CA
....................                Nivel--; 
096BE:  MOVLB  3
096C0:  MOVF   x5A,W
096C2:  BTFSC  FD8.2
096C4:  DECF   x5B,F
096C6:  DECF   x5A,F
096C8:  MOVLB  0
....................             } 
....................          } 
....................           
....................          if(RX_Buffer[4]==0x0d){//Tecla Arriba Oprimida 
096CA:  MOVF   34,W
096CC:  SUBLW  0D
096CE:  BNZ   96DE
....................             Nivel++;             
096D0:  MOVLB  3
096D2:  INCF   x5A,F
096D4:  BTFSC  FD8.2
096D6:  INCF   x5B,F
....................             RX_Buffer[4]=0x00;             
096D8:  CLRF   34
....................             RX_Buffer2[4]=0x00;             
096DA:  CLRF   3F
096DC:  MOVLB  0
....................          } 
....................           
....................          if(RX_Buffer[4]==0x0c){//Tecla Abajo Oprimida 
096DE:  MOVF   34,W
096E0:  SUBLW  0C
096E2:  BNZ   96F4
....................             Nivel--; 
096E4:  MOVLB  3
096E6:  MOVF   x5A,W
096E8:  BTFSC  FD8.2
096EA:  DECF   x5B,F
096EC:  DECF   x5A,F
....................             RX_Buffer[4]=0x00; 
096EE:  CLRF   34
....................             RX_Buffer2[4]=0x00;             
096F0:  CLRF   3F
096F2:  MOVLB  0
....................          } 
....................           
....................       printf("tnivel.txt=\"%02Lu\"",Nivel); 
096F4:  MOVLW  36
096F6:  MOVWF  FF6
096F8:  MOVLW  0C
096FA:  MOVWF  FF7
096FC:  MOVLW  00
096FE:  MOVWF  FF8
09700:  MOVLW  0C
09702:  MOVLB  7
09704:  MOVWF  xB5
09706:  MOVLB  0
09708:  CALL   556C
0970C:  MOVLW  0B
0970E:  MOVWF  FE9
09710:  MOVFF  35B,7B5
09714:  MOVFF  35A,7B4
09718:  CALL   594C
0971C:  MOVLW  22
0971E:  BTFSS  F9E.4
09720:  BRA    971E
09722:  MOVWF  FAD
....................       SendDataDisplay(); 
09724:  CALL   3E26
09728:  MOVLB  3
....................    } 
.................... //_--------------------------------------------------------------------------------------------------------------------------------------------------------       
....................  
.................... //_--------------------------------------------------------------------------------------------------------------------------------------------------------       
....................       if(Menu==6){ // Menu de Prueba de Componentes 
0972A:  MOVF   x45,W
0972C:  SUBLW  06
0972E:  BTFSS  FD8.2
09730:  GOTO   9EC4
....................          PruebaEstados=ON; 
09734:  MOVLB  0
09736:  BSF    xA2.0
....................           
....................          if(RX_Buffer[4]==0x01)//Oprimio EV Paso 
09738:  DECFSZ 34,W
0973A:  BRA    9742
....................          { 
....................             EstadoPaso=!EstadoPaso; 
0973C:  BTG    xA2.7
....................             RX_Buffer[4]=0x00; 
0973E:  CLRF   34
....................             RX_Buffer2[4]=0x00; 
09740:  CLRF   3F
....................          } 
....................           
....................          if(EstadoPaso){ 
09742:  BTFSS  xA2.7
09744:  BRA    9760
....................             printf("b0.bco=2016"); 
09746:  MOVLW  4A
09748:  MOVWF  FF6
0974A:  MOVLW  0C
0974C:  MOVWF  FF7
0974E:  MOVLW  00
09750:  MOVWF  FF8
09752:  CALL   3DF4
....................             SendDataDisplay();  
09756:  CALL   3E26
....................             Paso_on; 
0975A:  BCF    F8B.0
0975C:  BCF    F94.0
....................          }else{ 
0975E:  BRA    9778
....................             printf("b0.bco=63488"); 
09760:  MOVLW  56
09762:  MOVWF  FF6
09764:  MOVLW  0C
09766:  MOVWF  FF7
09768:  MOVLW  00
0976A:  MOVWF  FF8
0976C:  CALL   3DF4
....................             SendDataDisplay();  
09770:  CALL   3E26
....................             Paso_off; 
09774:  BSF    F8B.0
09776:  BCF    F94.0
....................          } 
....................           
....................          if(RX_Buffer[4]==0x02)//Oprimio EV Desfogue 
09778:  MOVF   34,W
0977A:  SUBLW  02
0977C:  BNZ   9784
....................          { 
....................             EstadoDesfogue=!EstadoDesfogue; 
0977E:  BTG    xA1.5
....................             RX_Buffer[4]=0x00; 
09780:  CLRF   34
....................             RX_Buffer2[4]=0x00; 
09782:  CLRF   3F
....................          } 
....................           
....................          if(EstadoDesfogue){ 
09784:  BTFSS  xA1.5
09786:  BRA    97A2
....................             printf("b1.bco=2016"); 
09788:  MOVLW  64
0978A:  MOVWF  FF6
0978C:  MOVLW  0C
0978E:  MOVWF  FF7
09790:  MOVLW  00
09792:  MOVWF  FF8
09794:  CALL   3DF4
....................             SendDataDisplay();  
09798:  CALL   3E26
....................             Desfogue_on; 
0979C:  BCF    F8B.1
0979E:  BCF    F94.1
....................          }else{ 
097A0:  BRA    97BA
....................             printf("b1.bco=63488"); 
097A2:  MOVLW  70
097A4:  MOVWF  FF6
097A6:  MOVLW  0C
097A8:  MOVWF  FF7
097AA:  MOVLW  00
097AC:  MOVWF  FF8
097AE:  CALL   3DF4
....................             SendDataDisplay();  
097B2:  CALL   3E26
....................             Desfogue_off; 
097B6:  BSF    F8B.1
097B8:  BCF    F94.1
....................          } 
....................           
....................          if(RX_Buffer[4]==0x03)//Oprimio EV Agua 
097BA:  MOVF   34,W
097BC:  SUBLW  03
097BE:  BNZ   97C6
....................          { 
....................             EstadoAgua=!EstadoAgua; 
097C0:  BTG    xA1.6
....................             RX_Buffer[4]=0x00; 
097C2:  CLRF   34
....................             RX_Buffer2[4]=0x00; 
097C4:  CLRF   3F
....................          } 
....................           
....................          if(EstadoAgua){ 
097C6:  BTFSS  xA1.6
097C8:  BRA    97E4
....................             printf("b2.bco=2016"); 
097CA:  MOVLW  7E
097CC:  MOVWF  FF6
097CE:  MOVLW  0C
097D0:  MOVWF  FF7
097D2:  MOVLW  00
097D4:  MOVWF  FF8
097D6:  CALL   3DF4
....................             SendDataDisplay();  
097DA:  CALL   3E26
....................             Agua_on; 
097DE:  BCF    F8B.2
097E0:  BCF    F94.2
....................          }else{ 
097E2:  BRA    97FC
....................             printf("b2.bco=63488"); 
097E4:  MOVLW  8A
097E6:  MOVWF  FF6
097E8:  MOVLW  0C
097EA:  MOVWF  FF7
097EC:  MOVLW  00
097EE:  MOVWF  FF8
097F0:  CALL   3DF4
....................             SendDataDisplay();  
097F4:  CALL   3E26
....................             Agua_off; 
097F8:  BSF    F8B.2
097FA:  BCF    F94.2
....................          } 
....................           
....................          if(RX_Buffer[4]==0x04)//Oprimio SSR1 
097FC:  MOVF   34,W
097FE:  SUBLW  04
09800:  BNZ   9808
....................          { 
....................             EstadoSSR=!EstadoSSR; 
09802:  BTG    xA1.7
....................             RX_Buffer[4]=0x00; 
09804:  CLRF   34
....................             RX_Buffer2[4]=0x00; 
09806:  CLRF   3F
....................          } 
....................           
....................          if(EstadoSSR){ 
09808:  BTFSS  xA1.7
0980A:  BRA    9826
....................             printf("b3.bco=2016"); 
0980C:  MOVLW  98
0980E:  MOVWF  FF6
09810:  MOVLW  0C
09812:  MOVWF  FF7
09814:  MOVLW  00
09816:  MOVWF  FF8
09818:  CALL   3DF4
....................             SendDataDisplay();  
0981C:  CALL   3E26
....................             SSR_on; 
09820:  BSF    F8D.1
09822:  BCF    F96.1
....................          }else{ 
09824:  BRA    983E
....................             printf("b3.bco=63488"); 
09826:  MOVLW  A4
09828:  MOVWF  FF6
0982A:  MOVLW  0C
0982C:  MOVWF  FF7
0982E:  MOVLW  00
09830:  MOVWF  FF8
09832:  CALL   3DF4
....................             SendDataDisplay();  
09836:  CALL   3E26
....................             SSR_off; 
0983A:  BCF    F8D.1
0983C:  BCF    F96.1
....................          } 
....................           
....................          if(RX_Buffer[4]==0x05)//Oprimio Abrir Puerta 
0983E:  MOVF   34,W
09840:  SUBLW  05
09842:  BNZ   984A
....................          { 
....................             //EstadoVacio=!EstadoVacio; 
....................             EstadoVacio=1; 
09844:  BSF    xA4.7
....................             RX_Buffer[4]=0x00; 
09846:  CLRF   34
....................             RX_Buffer2[4]=0x00; 
09848:  CLRF   3F
....................          } 
....................           
....................          if(EstadoVacio){ 
0984A:  BTFSS  xA4.7
0984C:  BRA    9868
....................             printf("b4.bco=2016"); 
0984E:  MOVLW  B2
09850:  MOVWF  FF6
09852:  MOVLW  0C
09854:  MOVWF  FF7
09856:  MOVLW  00
09858:  MOVWF  FF8
0985A:  CALL   3DF4
....................             SendDataDisplay();  
0985E:  CALL   3E26
....................             abrePuerta(); 
09862:  CALL   59F6
....................          }else{ 
09866:  BRA    987C
....................             printf("b4.bco=63488"); 
09868:  MOVLW  BE
0986A:  MOVWF  FF6
0986C:  MOVLW  0C
0986E:  MOVWF  FF7
09870:  MOVLW  00
09872:  MOVWF  FF8
09874:  CALL   3DF4
....................             SendDataDisplay();  
09878:  CALL   3E26
....................              
....................          } 
....................          
....................          if(RX_Buffer[4]==0x06)//Oprimio Cierra Puerta 
0987C:  MOVF   34,W
0987E:  SUBLW  06
09880:  BNZ   9888
....................          { 
....................             //EstadoAire=!EstadoAire; 
....................             EstadoAire=1; 
09882:  BSF    xA5.0
....................             RX_Buffer[4]=0x00; 
09884:  CLRF   34
....................             RX_Buffer2[4]=0x00; 
09886:  CLRF   3F
....................          } 
....................           
....................          if(EstadoAire){ 
09888:  BTFSS  xA5.0
0988A:  BRA    98A6
....................             printf("b5.bco=2016"); 
0988C:  MOVLW  CC
0988E:  MOVWF  FF6
09890:  MOVLW  0C
09892:  MOVWF  FF7
09894:  MOVLW  00
09896:  MOVWF  FF8
09898:  CALL   3DF4
....................             SendDataDisplay();  
0989C:  CALL   3E26
....................             cierraPuerta(); 
098A0:  CALL   5A66
....................          }else{ 
098A4:  BRA    98BA
....................             printf("b5.bco=63488"); 
098A6:  MOVLW  D8
098A8:  MOVWF  FF6
098AA:  MOVLW  0C
098AC:  MOVWF  FF7
098AE:  MOVLW  00
098B0:  MOVWF  FF8
098B2:  CALL   3DF4
....................             SendDataDisplay();  
098B6:  CALL   3E26
....................              
....................          } 
....................           
....................          if(RX_Buffer[4]==0x07)//Oprimio Detiene Puerta 
098BA:  MOVF   34,W
098BC:  SUBLW  07
098BE:  BNZ   98C6
....................          { 
....................             EstadoAireBomba=!EstadoAireBomba; 
098C0:  BTG    xA4.6
....................             RX_Buffer[4]=0x00; 
098C2:  CLRF   34
....................             RX_Buffer2[4]=0x00; 
098C4:  CLRF   3F
....................          } 
....................           
....................          if(EstadoAireBomba){ 
098C6:  BTFSS  xA4.6
098C8:  BRA    98E8
....................             printf("b6.bco=2016"); 
098CA:  MOVLW  E6
098CC:  MOVWF  FF6
098CE:  MOVLW  0C
098D0:  MOVWF  FF7
098D2:  MOVLW  00
098D4:  MOVWF  FF8
098D6:  CALL   3DF4
....................             SendDataDisplay(); 
098DA:  CALL   3E26
....................             EstadoAire=0; 
098DE:  BCF    xA5.0
....................             EstadoVacio=0; 
098E0:  BCF    xA4.7
....................             detienePuerta(); 
098E2:  CALL   4D44
....................              
....................          }else{ 
098E6:  BRA    98FC
....................             printf("b6.bco=63488"); 
098E8:  MOVLW  F2
098EA:  MOVWF  FF6
098EC:  MOVLW  0C
098EE:  MOVWF  FF7
098F0:  MOVLW  00
098F2:  MOVWF  FF8
098F4:  CALL   3DF4
....................             SendDataDisplay();  
098F8:  CALL   3E26
....................          } 
....................           
....................          if(RX_Buffer[4]==0x08)//Oprimio Buzzer 
098FC:  MOVF   34,W
098FE:  SUBLW  08
09900:  BNZ   9908
....................          { 
....................             EstadoBuzzer=!EstadoBuzzer; 
09902:  BTG    xA3.0
....................             RX_Buffer[4]=0x00; 
09904:  CLRF   34
....................             RX_Buffer2[4]=0x00; 
09906:  CLRF   3F
....................          } 
....................           
....................          if(EstadoBuzzer){ 
09908:  BTFSS  xA3.0
0990A:  BRA    9926
....................             printf("b7.bco=2016"); 
0990C:  MOVLW  00
0990E:  MOVWF  FF6
09910:  MOVLW  0D
09912:  MOVWF  FF7
09914:  MOVLW  00
09916:  MOVWF  FF8
09918:  CALL   3DF4
....................             SendDataDisplay();  
0991C:  CALL   3E26
....................             Buzzer_on; 
09920:  BSF    F8C.7
09922:  BCF    F95.7
....................          } 
....................          else{ 
09924:  BRA    993E
....................             printf("b7.bco=63488"); 
09926:  MOVLW  0C
09928:  MOVWF  FF6
0992A:  MOVLW  0D
0992C:  MOVWF  FF7
0992E:  MOVLW  00
09930:  MOVWF  FF8
09932:  CALL   3DF4
....................             SendDataDisplay();  
09936:  CALL   3E26
....................             Buzzer_off; 
0993A:  BCF    F8C.7
0993C:  BCF    F95.7
....................          } 
....................           
....................          if(RX_Buffer[4]==0x17)//Oprimio Abrir Cierre 
0993E:  MOVF   34,W
09940:  SUBLW  17
09942:  BNZ   994A
....................          { 
....................             EstadoACierre=!EstadoACierre; 
09944:  BTG    xA5.1
....................             RX_Buffer[4]=0x00; 
09946:  CLRF   34
....................             RX_Buffer2[4]=0x00; 
09948:  CLRF   3F
....................          } 
....................           
....................          if(EstadoACierre){ 
0994A:  BTFSS  xA5.1
0994C:  BRA    9968
....................             printf("b16.bco=2016"); 
0994E:  MOVLW  1A
09950:  MOVWF  FF6
09952:  MOVLW  0D
09954:  MOVWF  FF7
09956:  MOVLW  00
09958:  MOVWF  FF8
0995A:  CALL   3DF4
....................             SendDataDisplay();  
0995E:  CALL   3E26
....................             bloqueaPuerta(); 
09962:  CALL   5AB8
....................          } 
....................          else{ 
09966:  BRA    9980
....................             printf("b16.bco=63488"); 
09968:  MOVLW  28
0996A:  MOVWF  FF6
0996C:  MOVLW  0D
0996E:  MOVWF  FF7
09970:  MOVLW  00
09972:  MOVWF  FF8
09974:  CALL   3DF4
....................             SendDataDisplay();  
09978:  CALL   3E26
....................             desbloqueaPuerta(); 
0997C:  CALL   5B02
....................          } 
....................           
....................          if(DOOR){ 
09980:  BSF    F93.7
09982:  BTFSC  F81.7
09984:  BRA    999C
....................             printf("b8.bco=2016"); 
09986:  MOVLW  36
09988:  MOVWF  FF6
0998A:  MOVLW  0D
0998C:  MOVWF  FF7
0998E:  MOVLW  00
09990:  MOVWF  FF8
09992:  CALL   3DF4
....................             SendDataDisplay();  
09996:  CALL   3E26
....................          }else{ 
0999A:  BRA    99B0
....................             printf("b8.bco=63488"); 
0999C:  MOVLW  42
0999E:  MOVWF  FF6
099A0:  MOVLW  0D
099A2:  MOVWF  FF7
099A4:  MOVLW  00
099A6:  MOVWF  FF8
099A8:  CALL   3DF4
....................             SendDataDisplay();  
099AC:  CALL   3E26
....................          } 
....................           
....................          if(TERM){ 
099B0:  BSF    F93.4
099B2:  BTFSS  F81.4
099B4:  BRA    99CC
....................             printf("b9.bco=2016"); 
099B6:  MOVLW  50
099B8:  MOVWF  FF6
099BA:  MOVLW  0D
099BC:  MOVWF  FF7
099BE:  MOVLW  00
099C0:  MOVWF  FF8
099C2:  CALL   3DF4
....................             SendDataDisplay();  
099C6:  CALL   3E26
....................          }else{ 
099CA:  BRA    99E0
....................             printf("b9.bco=63488"); 
099CC:  MOVLW  5C
099CE:  MOVWF  FF6
099D0:  MOVLW  0D
099D2:  MOVWF  FF7
099D4:  MOVLW  00
099D6:  MOVWF  FF8
099D8:  CALL   3DF4
....................             SendDataDisplay();  
099DC:  CALL   3E26
....................          } 
....................           
....................          if(STOP){ 
099E0:  BSF    F93.5
099E2:  BTFSC  F81.5
099E4:  BRA    99FC
....................             printf("b10.bco=2016"); 
099E6:  MOVLW  6A
099E8:  MOVWF  FF6
099EA:  MOVLW  0D
099EC:  MOVWF  FF7
099EE:  MOVLW  00
099F0:  MOVWF  FF8
099F2:  CALL   3DF4
....................             SendDataDisplay();  
099F6:  CALL   3E26
....................          }else{ 
099FA:  BRA    9A10
....................             printf("b10.bco=63488"); 
099FC:  MOVLW  78
099FE:  MOVWF  FF6
09A00:  MOVLW  0D
09A02:  MOVWF  FF7
09A04:  MOVLW  00
09A06:  MOVWF  FF8
09A08:  CALL   3DF4
....................             SendDataDisplay();  
09A0C:  CALL   3E26
....................          } 
....................           
....................          if(SWBL){ 
09A10:  BSF    F93.6
09A12:  BTFSC  F81.6
09A14:  BRA    9A2C
....................             printf("b11.bco=2016"); 
09A16:  MOVLW  86
09A18:  MOVWF  FF6
09A1A:  MOVLW  0D
09A1C:  MOVWF  FF7
09A1E:  MOVLW  00
09A20:  MOVWF  FF8
09A22:  CALL   3DF4
....................             SendDataDisplay();  
09A26:  CALL   3E26
....................          }else{ 
09A2A:  BRA    9A40
....................             printf("b11.bco=63488"); 
09A2C:  MOVLW  94
09A2E:  MOVWF  FF6
09A30:  MOVLW  0D
09A32:  MOVWF  FF7
09A34:  MOVLW  00
09A36:  MOVWF  FF8
09A38:  CALL   3DF4
....................             SendDataDisplay();  
09A3C:  CALL   3E26
....................          } 
....................           
....................          if(LOW){ 
09A40:  BTFSS  xA5.3
09A42:  BRA    9A5A
....................             printf("b17.bco=2016"); 
09A44:  MOVLW  A2
09A46:  MOVWF  FF6
09A48:  MOVLW  0D
09A4A:  MOVWF  FF7
09A4C:  MOVLW  00
09A4E:  MOVWF  FF8
09A50:  CALL   3DF4
....................             SendDataDisplay();  
09A54:  CALL   3E26
....................          }else{ 
09A58:  BRA    9A6E
....................             printf("b17.bco=63488"); 
09A5A:  MOVLW  B0
09A5C:  MOVWF  FF6
09A5E:  MOVLW  0D
09A60:  MOVWF  FF7
09A62:  MOVLW  00
09A64:  MOVWF  FF8
09A66:  CALL   3DF4
....................             SendDataDisplay();  
09A6A:  CALL   3E26
....................          } 
....................           
....................          if(HIG){ 
09A6E:  BTFSS  xA5.4
09A70:  BRA    9A88
....................             printf("b21.bco=2016"); 
09A72:  MOVLW  BE
09A74:  MOVWF  FF6
09A76:  MOVLW  0D
09A78:  MOVWF  FF7
09A7A:  MOVLW  00
09A7C:  MOVWF  FF8
09A7E:  CALL   3DF4
....................             SendDataDisplay();  
09A82:  CALL   3E26
....................          }else{ 
09A86:  BRA    9A9C
....................             printf("b21.bco=63488"); 
09A88:  MOVLW  CC
09A8A:  MOVWF  FF6
09A8C:  MOVLW  0D
09A8E:  MOVWF  FF7
09A90:  MOVLW  00
09A92:  MOVWF  FF8
09A94:  CALL   3DF4
....................             SendDataDisplay();  
09A98:  CALL   3E26
....................          } 
....................           
....................          if(DOORO){ 
09A9C:  BSF    F93.3
09A9E:  BTFSC  F81.3
09AA0:  BRA    9AB8
....................             printf("b12.bco=2016"); 
09AA2:  MOVLW  DA
09AA4:  MOVWF  FF6
09AA6:  MOVLW  0D
09AA8:  MOVWF  FF7
09AAA:  MOVLW  00
09AAC:  MOVWF  FF8
09AAE:  CALL   3DF4
....................             SendDataDisplay();  
09AB2:  CALL   3E26
....................          }else{ 
09AB6:  BRA    9ACC
....................             printf("b12.bco=63488"); 
09AB8:  MOVLW  E8
09ABA:  MOVWF  FF6
09ABC:  MOVLW  0D
09ABE:  MOVWF  FF7
09AC0:  MOVLW  00
09AC2:  MOVWF  FF8
09AC4:  CALL   3DF4
....................             SendDataDisplay();  
09AC8:  CALL   3E26
....................          } 
....................           
....................          if(SWBLO){ 
09ACC:  BSF    F93.2
09ACE:  BTFSC  F81.2
09AD0:  BRA    9AE8
....................             printf("b19.bco=2016"); 
09AD2:  MOVLW  F6
09AD4:  MOVWF  FF6
09AD6:  MOVLW  0D
09AD8:  MOVWF  FF7
09ADA:  MOVLW  00
09ADC:  MOVWF  FF8
09ADE:  CALL   3DF4
....................             SendDataDisplay();  
09AE2:  CALL   3E26
....................          }else{ 
09AE6:  BRA    9AFC
....................             printf("b19.bco=63488"); 
09AE8:  MOVLW  04
09AEA:  MOVWF  FF6
09AEC:  MOVLW  0E
09AEE:  MOVWF  FF7
09AF0:  MOVLW  00
09AF2:  MOVWF  FF8
09AF4:  CALL   3DF4
....................             SendDataDisplay();  
09AF8:  CALL   3E26
....................          } 
....................           
....................          Lectura_I2C(0XC0, 0, conteoRx);    //Lectura por I2C 
09AFC:  MOVLW  C0
09AFE:  MOVLB  7
09B00:  MOVWF  xB0
09B02:  CLRF   xB1
....................          Lectura_I2C(0XC0, 1, comandoRx);    //Lectura por I2C 
*
09B9C:  MOVLW  C0
09B9E:  MOVLB  7
09BA0:  MOVWF  xB0
09BA2:  MOVLW  01
09BA4:  MOVWF  xB1
....................                    
....................          printf("b13.txt=\"ADC0:%3.0f\"",sensores(0));          
*
09C3E:  MOVLB  7
09C40:  CLRF   xB6
09C42:  MOVLB  0
09C44:  CALL   3E80
09C48:  MOVFF  00,7B0
09C4C:  MOVFF  01,7B1
09C50:  MOVFF  02,7B2
09C54:  MOVFF  03,7B3
09C58:  MOVLW  12
09C5A:  MOVWF  FF6
09C5C:  MOVLW  0E
09C5E:  MOVWF  FF7
09C60:  MOVLW  00
09C62:  MOVWF  FF8
09C64:  MOVLW  0E
09C66:  MOVLB  7
09C68:  MOVWF  xB5
09C6A:  MOVLB  0
09C6C:  CALL   556C
09C70:  MOVLW  02
09C72:  MOVWF  FE9
09C74:  MOVFF  7B3,7B8
09C78:  MOVFF  7B2,7B7
09C7C:  MOVFF  7B1,7B6
09C80:  MOVFF  7B0,7B5
09C84:  MOVLB  7
09C86:  CLRF   xB9
09C88:  MOVLB  0
09C8A:  CALL   5688
09C8E:  MOVLW  22
09C90:  BTFSS  F9E.4
09C92:  BRA    9C90
09C94:  MOVWF  FAD
....................          SendDataDisplay(); 
09C96:  CALL   3E26
....................          printf("b14.txt=\"ADC1:%3.0f\"",sensores(1));          
09C9A:  MOVLW  01
09C9C:  MOVLB  7
09C9E:  MOVWF  xB6
09CA0:  MOVLB  0
09CA2:  CALL   3E80
09CA6:  MOVFF  00,7B0
09CAA:  MOVFF  01,7B1
09CAE:  MOVFF  02,7B2
09CB2:  MOVFF  03,7B3
09CB6:  MOVLW  28
09CB8:  MOVWF  FF6
09CBA:  MOVLW  0E
09CBC:  MOVWF  FF7
09CBE:  MOVLW  00
09CC0:  MOVWF  FF8
09CC2:  MOVLW  0E
09CC4:  MOVLB  7
09CC6:  MOVWF  xB5
09CC8:  MOVLB  0
09CCA:  CALL   556C
09CCE:  MOVLW  02
09CD0:  MOVWF  FE9
09CD2:  MOVFF  7B3,7B8
09CD6:  MOVFF  7B2,7B7
09CDA:  MOVFF  7B1,7B6
09CDE:  MOVFF  7B0,7B5
09CE2:  MOVLB  7
09CE4:  CLRF   xB9
09CE6:  MOVLB  0
09CE8:  CALL   5688
09CEC:  MOVLW  22
09CEE:  BTFSS  F9E.4
09CF0:  BRA    9CEE
09CF2:  MOVWF  FAD
....................          SendDataDisplay(); 
09CF4:  CALL   3E26
....................          printf("b15.txt=\"A5:%3.0f %03Lu\"",sensores(5),PresionCamara); 
09CF8:  MOVLW  05
09CFA:  MOVLB  7
09CFC:  MOVWF  xB6
09CFE:  MOVLB  0
09D00:  CALL   3E80
09D04:  MOVFF  00,7B0
09D08:  MOVFF  01,7B1
09D0C:  MOVFF  02,7B2
09D10:  MOVFF  03,7B3
09D14:  MOVLW  3E
09D16:  MOVWF  FF6
09D18:  MOVLW  0E
09D1A:  MOVWF  FF7
09D1C:  MOVLW  00
09D1E:  MOVWF  FF8
09D20:  MOVLW  0C
09D22:  MOVLB  7
09D24:  MOVWF  xB5
09D26:  MOVLB  0
09D28:  CALL   556C
09D2C:  MOVLW  02
09D2E:  MOVWF  FE9
09D30:  MOVFF  7B3,7B8
09D34:  MOVFF  7B2,7B7
09D38:  MOVFF  7B1,7B6
09D3C:  MOVFF  7B0,7B5
09D40:  MOVLB  7
09D42:  CLRF   xB9
09D44:  MOVLB  0
09D46:  CALL   5688
09D4A:  MOVLW  20
09D4C:  BTFSS  F9E.4
09D4E:  BRA    9D4C
09D50:  MOVWF  FAD
09D52:  MOVLW  0A
09D54:  MOVWF  FE9
09D56:  MOVFF  35F,7B5
09D5A:  MOVFF  35E,7B4
09D5E:  CALL   594C
09D62:  MOVLW  22
09D64:  BTFSS  F9E.4
09D66:  BRA    9D64
09D68:  MOVWF  FAD
....................          SendDataDisplay(); 
09D6A:  CALL   3E26
....................          printf("b18.txt=\"A4:%3.0f %03Lu\"",sensores(4),PresionPreCamara); 
09D6E:  MOVLW  04
09D70:  MOVLB  7
09D72:  MOVWF  xB6
09D74:  MOVLB  0
09D76:  CALL   3E80
09D7A:  MOVFF  00,7B0
09D7E:  MOVFF  01,7B1
09D82:  MOVFF  02,7B2
09D86:  MOVFF  03,7B3
09D8A:  MOVLW  58
09D8C:  MOVWF  FF6
09D8E:  MOVLW  0E
09D90:  MOVWF  FF7
09D92:  MOVLW  00
09D94:  MOVWF  FF8
09D96:  MOVLW  0C
09D98:  MOVLB  7
09D9A:  MOVWF  xB5
09D9C:  MOVLB  0
09D9E:  CALL   556C
09DA2:  MOVLW  02
09DA4:  MOVWF  FE9
09DA6:  MOVFF  7B3,7B8
09DAA:  MOVFF  7B2,7B7
09DAE:  MOVFF  7B1,7B6
09DB2:  MOVFF  7B0,7B5
09DB6:  MOVLB  7
09DB8:  CLRF   xB9
09DBA:  MOVLB  0
09DBC:  CALL   5688
09DC0:  MOVLW  20
09DC2:  BTFSS  F9E.4
09DC4:  BRA    9DC2
09DC6:  MOVWF  FAD
09DC8:  MOVLW  0A
09DCA:  MOVWF  FE9
09DCC:  MOVFF  361,7B5
09DD0:  MOVFF  360,7B4
09DD4:  CALL   594C
09DD8:  MOVLW  22
09DDA:  BTFSS  F9E.4
09DDC:  BRA    9DDA
09DDE:  MOVWF  FAD
....................          SendDataDisplay(); 
09DE0:  CALL   3E26
....................          printf("b19.txt=\"%u %u\"",conteoRx,comandoRx); 
09DE4:  MOVLW  72
09DE6:  MOVWF  FF6
09DE8:  MOVLW  0E
09DEA:  MOVWF  FF7
09DEC:  MOVLW  00
09DEE:  MOVWF  FF8
09DF0:  MOVLW  09
09DF2:  MOVLB  7
09DF4:  MOVWF  xB5
09DF6:  MOVLB  0
09DF8:  CALL   556C
09DFC:  MOVFF  332,7B5
09E00:  MOVLW  1B
09E02:  MOVLB  7
09E04:  MOVWF  xB6
09E06:  MOVLB  0
09E08:  CALL   5858
09E0C:  MOVLW  20
09E0E:  BTFSS  F9E.4
09E10:  BRA    9E0E
09E12:  MOVWF  FAD
09E14:  MOVFF  333,7B5
09E18:  MOVLW  1B
09E1A:  MOVLB  7
09E1C:  MOVWF  xB6
09E1E:  MOVLB  0
09E20:  CALL   5858
09E24:  MOVLW  22
09E26:  BTFSS  F9E.4
09E28:  BRA    9E26
09E2A:  MOVWF  FAD
....................          SendDataDisplay(); 
09E2C:  CALL   3E26
....................          printf("b20.txt=\"%3.1f %3.1f\"",Temperatura,Sensor[0].Pt); 
09E30:  MOVLW  82
09E32:  MOVWF  FF6
09E34:  MOVLW  0E
09E36:  MOVWF  FF7
09E38:  MOVLW  00
09E3A:  MOVWF  FF8
09E3C:  MOVLW  09
09E3E:  MOVLB  7
09E40:  MOVWF  xB5
09E42:  MOVLB  0
09E44:  CALL   556C
09E48:  MOVLW  02
09E4A:  MOVWF  FE9
09E4C:  MOVFF  314,7B8
09E50:  MOVFF  313,7B7
09E54:  MOVFF  312,7B6
09E58:  MOVFF  311,7B5
09E5C:  MOVLW  01
09E5E:  MOVLB  7
09E60:  MOVWF  xB9
09E62:  MOVLB  0
09E64:  CALL   5688
09E68:  MOVLW  20
09E6A:  BTFSS  F9E.4
09E6C:  BRA    9E6A
09E6E:  MOVWF  FAD
09E70:  MOVLW  02
09E72:  MOVWF  FE9
09E74:  MOVFF  407,7B8
09E78:  MOVFF  406,7B7
09E7C:  MOVFF  405,7B6
09E80:  MOVFF  404,7B5
09E84:  MOVLW  01
09E86:  MOVLB  7
09E88:  MOVWF  xB9
09E8A:  MOVLB  0
09E8C:  CALL   5688
09E90:  MOVLW  22
09E92:  BTFSS  F9E.4
09E94:  BRA    9E92
09E96:  MOVWF  FAD
....................          SendDataDisplay(); 
09E98:  CALL   3E26
....................           
....................          if(RX_Buffer[4]==0x21){//Oprimio salir 
09E9C:  MOVF   34,W
09E9E:  SUBLW  21
09EA0:  BNZ   9EC2
....................             printf("page MenuPrincipal"); 
09EA2:  MOVLW  98
09EA4:  MOVWF  FF6
09EA6:  MOVLW  0E
09EA8:  MOVWF  FF7
09EAA:  MOVLW  00
09EAC:  MOVWF  FF8
09EAE:  CALL   3DF4
....................             SendDataDisplay(); 
09EB2:  CALL   3E26
....................             PantallaPrincipal=0; 
09EB6:  MOVLB  2
09EB8:  CLRF   xCD
....................             PruebaEstados=OFF; 
09EBA:  MOVLB  0
09EBC:  BCF    xA2.0
....................             ApagaSalidas(); 
09EBE:  CALL   3E5C
09EC2:  MOVLB  3
....................          } 
....................      } 
.................... //_--------------------------------------------------------------------------------------------------------------------------------------------------------     
....................  
.................... //_--------------------------------------------------------------------------------------------------------------------------------------------------------       
....................       if(Menu==7){ //Menu de Configuracin de Fecha y Hora 
09EC4:  MOVF   x45,W
09EC6:  SUBLW  07
09EC8:  BTFSS  FD8.2
09ECA:  BRA    A2E8
....................          if(RX_Buffer[4]==0x0a){//Selecciono Hora 
09ECC:  MOVF   34,W
09ECE:  SUBLW  0A
09ED0:  BNZ   9ED6
....................             Opcion=4; 
09ED2:  MOVLW  04
09ED4:  MOVWF  x4D
....................          } 
....................           
....................          if(RX_Buffer[4]==0x0b){//Selecciono Minuto 
09ED6:  MOVF   34,W
09ED8:  SUBLW  0B
09EDA:  BNZ   9EE0
....................             Opcion=5; 
09EDC:  MOVLW  05
09EDE:  MOVWF  x4D
....................          } 
....................           
....................          if(RX_Buffer[4]==0x0c){//Selecciono Dia 
09EE0:  MOVF   34,W
09EE2:  SUBLW  0C
09EE4:  BNZ   9EEA
....................             Opcion=1; 
09EE6:  MOVLW  01
09EE8:  MOVWF  x4D
....................          } 
....................           
....................          if(RX_Buffer[4]==0x0d){//Selecciono Hora 
09EEA:  MOVF   34,W
09EEC:  SUBLW  0D
09EEE:  BNZ   9EF4
....................             Opcion=2; 
09EF0:  MOVLW  02
09EF2:  MOVWF  x4D
....................          } 
....................           
....................          if(RX_Buffer[4]==0x0e){//Selecciono Year 
09EF4:  MOVF   34,W
09EF6:  SUBLW  0E
09EF8:  BNZ   9EFE
....................             Opcion=3; 
09EFA:  MOVLW  03
09EFC:  MOVWF  x4D
....................          } 
....................           
....................          if(RIGHT){ 
09EFE:  MOVLB  0
09F00:  BTFSS  xA0.2
09F02:  BRA    9F1A
....................             delay_ms(200); 
09F04:  MOVLW  C8
09F06:  MOVLB  7
09F08:  MOVWF  xC0
09F0A:  MOVLB  0
09F0C:  CALL   1E8C
....................             if(RIGHT){ 
09F10:  BTFSS  xA0.2
09F12:  BRA    9F1A
....................                Opcion++; 
09F14:  MOVLB  3
09F16:  INCF   x4D,F
09F18:  MOVLB  0
....................             } 
....................          } 
....................          if(Opcion>5) 
09F1A:  MOVLB  3
09F1C:  MOVF   x4D,W
09F1E:  SUBLW  05
09F20:  BC    9F26
....................             Opcion=1; 
09F22:  MOVLW  01
09F24:  MOVWF  x4D
....................          if(Opcion<1) 
09F26:  MOVF   x4D,F
09F28:  BNZ   9F2E
....................             Opcion=5; 
09F2A:  MOVLW  05
09F2C:  MOVWF  x4D
....................              
....................          if(RX_Buffer[4]==0x11 || LEFT){//Selecciono Regresar 
09F2E:  MOVF   34,W
09F30:  SUBLW  11
09F32:  BZ    9F3C
09F34:  MOVLB  0
09F36:  BTFSS  xA0.3
09F38:  BRA    A052
09F3A:  MOVLB  3
....................             printf("page MenuPrincipal"); 
09F3C:  MOVLW  AC
09F3E:  MOVWF  FF6
09F40:  MOVLW  0E
09F42:  MOVWF  FF7
09F44:  MOVLW  00
09F46:  MOVWF  FF8
09F48:  MOVLB  0
09F4A:  CALL   3DF4
....................             SendDataDisplay();   
09F4E:  CALL   3E26
....................             PantallaPrincipal=0; 
09F52:  MOVLB  2
09F54:  CLRF   xCD
....................             Op=OFF; 
09F56:  MOVLB  0
09F58:  BCF    xA2.2
....................             Op2=OFF; 
09F5A:  BCF    xA2.3
....................              
....................             if(esBisiesto(YearTx)) 
09F5C:  MOVFF  382,7B0
09F60:  CALL   5B9E
09F64:  MOVF   01,F
09F66:  BZ    9F82
....................                Modulo=Bisiesto[MesTx]; 
09F68:  CLRF   03
09F6A:  MOVLB  3
09F6C:  MOVF   x83,W
09F6E:  ADDLW  93
09F70:  MOVWF  FE9
09F72:  MOVLW  00
09F74:  ADDWFC 03,W
09F76:  MOVWF  FEA
09F78:  MOVFF  FEF,2CF
09F7C:  MOVLB  2
....................             else 
09F7E:  BRA    9F98
09F80:  MOVLB  0
....................                Modulo=Regular[MesTx]; 
09F82:  CLRF   03
09F84:  MOVLB  3
09F86:  MOVF   x83,W
09F88:  ADDLW  87
09F8A:  MOVWF  FE9
09F8C:  MOVLW  00
09F8E:  ADDWFC 03,W
09F90:  MOVWF  FEA
09F92:  MOVFF  FEF,2CF
09F96:  MOVLB  2
....................           
....................             dowTx=((YearTx-1)%7+((YearTx-1)/4-3*((YearTx-1)/100+1)/4)%7+Modulo+DiaTx%7)%7; 
09F98:  MOVLW  01
09F9A:  MOVLB  3
09F9C:  SUBWF  x82,W
09F9E:  MOVLB  7
09FA0:  MOVWF  xB1
09FA2:  MOVWF  xB9
09FA4:  MOVLW  07
09FA6:  MOVWF  xBA
09FA8:  MOVLB  0
09FAA:  CALL   582C
09FAE:  MOVFF  00,7B0
09FB2:  MOVLW  01
09FB4:  MOVLB  3
09FB6:  SUBWF  x82,W
09FB8:  MOVWF  00
09FBA:  RRCF   00,W
09FBC:  MOVLB  7
09FBE:  MOVWF  xB1
09FC0:  RRCF   xB1,F
09FC2:  MOVLW  3F
09FC4:  ANDWF  xB1,F
09FC6:  MOVLW  01
09FC8:  MOVLB  3
09FCA:  SUBWF  x82,W
09FCC:  MOVLB  7
09FCE:  MOVWF  xB3
09FD0:  MOVWF  xB9
09FD2:  MOVLW  64
09FD4:  MOVWF  xBA
09FD6:  MOVLB  0
09FD8:  CALL   582C
09FDC:  MOVLW  01
09FDE:  ADDWF  01,W
09FE0:  MULLW  03
09FE2:  MOVFF  FF3,00
09FE6:  RRCF   00,F
09FE8:  RRCF   00,F
09FEA:  MOVLW  3F
09FEC:  ANDWF  00,F
09FEE:  MOVF   00,W
09FF0:  MOVLB  7
09FF2:  SUBWF  xB1,W
09FF4:  MOVWF  xB2
09FF6:  MOVWF  xB9
09FF8:  MOVLW  07
09FFA:  MOVWF  xBA
09FFC:  MOVLB  0
09FFE:  CALL   582C
0A002:  MOVF   00,W
0A004:  MOVLB  7
0A006:  ADDWF  xB0,W
0A008:  MOVLB  2
0A00A:  ADDWF  xCF,W
0A00C:  MOVLB  7
0A00E:  MOVWF  xB0
0A010:  MOVFF  384,7B9
0A014:  MOVLW  07
0A016:  MOVWF  xBA
0A018:  MOVLB  0
0A01A:  CALL   582C
0A01E:  MOVF   00,W
0A020:  MOVLB  7
0A022:  ADDWF  xB0,W
0A024:  MOVWF  xB1
0A026:  MOVWF  xB9
0A028:  MOVLW  07
0A02A:  MOVWF  xBA
0A02C:  MOVLB  0
0A02E:  CALL   582C
0A032:  MOVFF  00,387
....................             rtc_set_datetime(DiaTx,MesTx,YearTx,dowTx,HoraTx,MinutoTx); 
0A036:  MOVFF  384,7B0
0A03A:  MOVFF  383,7B1
0A03E:  MOVFF  382,7B2
0A042:  MOVFF  387,7B3
0A046:  MOVFF  385,7B4
0A04A:  MOVFF  386,7B5
0A04E:  GOTO   5C20
....................          } 
....................           
....................          if((RX_Buffer[4]==0x2a)|| UP){//Tecla Arriba Oprimida 
0A052:  MOVF   34,W
0A054:  SUBLW  2A
0A056:  BZ    A05C
0A058:  BTFSS  xA0.0
0A05A:  BRA    A15A
....................             delay_ms(200); 
0A05C:  MOVLW  C8
0A05E:  MOVLB  7
0A060:  MOVWF  xC0
0A062:  MOVLB  0
0A064:  CALL   1E8C
....................             if((RX_Buffer[4]==0x2a)|| UP){    
0A068:  MOVF   34,W
0A06A:  SUBLW  2A
0A06C:  BZ    A072
0A06E:  BTFSS  xA0.0
0A070:  BRA    A15A
....................                if(Opcion==1){ 
0A072:  MOVLB  3
0A074:  DECFSZ x4D,W
0A076:  BRA    A104
....................                   if(MesTx==2){ 
0A078:  MOVF   x83,W
0A07A:  SUBLW  02
0A07C:  BNZ   A0B2
....................                      if(esBisiesto(YearTx)){ 
0A07E:  MOVFF  382,7B0
0A082:  MOVLB  0
0A084:  CALL   5B9E
0A088:  MOVF   01,F
0A08A:  BZ    A0A0
....................                         if(DiaTx<29) 
0A08C:  MOVLB  3
0A08E:  MOVF   x84,W
0A090:  SUBLW  1C
0A092:  BNC   A098
....................                            DiaTx++; 
0A094:  INCF   x84,F
....................                         else 
0A096:  BRA    A09C
....................                            DiaTx=1;    
0A098:  MOVLW  01
0A09A:  MOVWF  x84
....................                      }else{ 
0A09C:  BRA    A0B0
0A09E:  MOVLB  0
....................                         if(DiaTx<28) 
0A0A0:  MOVLB  3
0A0A2:  MOVF   x84,W
0A0A4:  SUBLW  1B
0A0A6:  BNC   A0AC
....................                            DiaTx++; 
0A0A8:  INCF   x84,F
....................                         else 
0A0AA:  BRA    A0B0
....................                            DiaTx=1;    
0A0AC:  MOVLW  01
0A0AE:  MOVWF  x84
....................                      } 
....................                   }else{ 
0A0B0:  BRA    A102
....................                      if(MesTx<=7){ 
0A0B2:  MOVF   x83,W
0A0B4:  SUBLW  07
0A0B6:  BNC   A0DE
....................                         if(MesTx % 2 ==0){ 
0A0B8:  MOVF   x83,W
0A0BA:  ANDLW  01
0A0BC:  BNZ   A0CE
....................                            if(DiaTx<30) 
0A0BE:  MOVF   x84,W
0A0C0:  SUBLW  1D
0A0C2:  BNC   A0C8
....................                               DiaTx++;     
0A0C4:  INCF   x84,F
....................                            else 
0A0C6:  BRA    A0CC
....................                               DiaTx=1;    
0A0C8:  MOVLW  01
0A0CA:  MOVWF  x84
....................                         }else{ 
0A0CC:  BRA    A0DC
....................                            if(DiaTx<31) 
0A0CE:  MOVF   x84,W
0A0D0:  SUBLW  1E
0A0D2:  BNC   A0D8
....................                               DiaTx++;     
0A0D4:  INCF   x84,F
....................                            else 
0A0D6:  BRA    A0DC
....................                               DiaTx=1;    
0A0D8:  MOVLW  01
0A0DA:  MOVWF  x84
....................                         }     
....................                      }else{ 
0A0DC:  BRA    A102
....................                         if(MesTx % 2 ==0){ 
0A0DE:  MOVF   x83,W
0A0E0:  ANDLW  01
0A0E2:  BNZ   A0F4
....................                            if(DiaTx<31) 
0A0E4:  MOVF   x84,W
0A0E6:  SUBLW  1E
0A0E8:  BNC   A0EE
....................                               DiaTx++;   
0A0EA:  INCF   x84,F
....................                            else 
0A0EC:  BRA    A0F2
....................                               DiaTx=1; 
0A0EE:  MOVLW  01
0A0F0:  MOVWF  x84
....................                         }else{ 
0A0F2:  BRA    A102
....................                            if(DiaTx<30) 
0A0F4:  MOVF   x84,W
0A0F6:  SUBLW  1D
0A0F8:  BNC   A0FE
....................                               DiaTx++;     
0A0FA:  INCF   x84,F
....................                            else 
0A0FC:  BRA    A102
....................                               DiaTx=1; 
0A0FE:  MOVLW  01
0A100:  MOVWF  x84
....................                         }     
....................                      } 
....................                   } 
....................                }else if(Opcion==2){ 
0A102:  BRA    A154
0A104:  MOVF   x4D,W
0A106:  SUBLW  02
0A108:  BNZ   A11A
....................                   if(MesTx<12) 
0A10A:  MOVF   x83,W
0A10C:  SUBLW  0B
0A10E:  BNC   A114
....................                      MesTx++; 
0A110:  INCF   x83,F
....................                   else 
0A112:  BRA    A118
....................                      MesTx=1; 
0A114:  MOVLW  01
0A116:  MOVWF  x83
....................                }else if(Opcion==3){ 
0A118:  BRA    A154
0A11A:  MOVF   x4D,W
0A11C:  SUBLW  03
0A11E:  BNZ   A12E
....................                   if(YearTx<99) 
0A120:  MOVF   x82,W
0A122:  SUBLW  62
0A124:  BNC   A12A
....................                      YearTx++; 
0A126:  INCF   x82,F
....................                   else  
0A128:  BRA    A12C
....................                      YearTx=0; 
0A12A:  CLRF   x82
....................                }else if(Opcion==4){ 
0A12C:  BRA    A154
0A12E:  MOVF   x4D,W
0A130:  SUBLW  04
0A132:  BNZ   A142
....................                   if(HoraTx<24) 
0A134:  MOVF   x85,W
0A136:  SUBLW  17
0A138:  BNC   A13E
....................                      HoraTx++; 
0A13A:  INCF   x85,F
....................                   else 
0A13C:  BRA    A140
....................                      HoraTx=0; 
0A13E:  CLRF   x85
....................                }else if(Opcion==5){ 
0A140:  BRA    A154
0A142:  MOVF   x4D,W
0A144:  SUBLW  05
0A146:  BNZ   A154
....................                   if(MinutoTx<59) 
0A148:  MOVF   x86,W
0A14A:  SUBLW  3A
0A14C:  BNC   A152
....................                      MinutoTx++; 
0A14E:  INCF   x86,F
....................                   else 
0A150:  BRA    A154
....................                      MinutoTx=0; 
0A152:  CLRF   x86
....................                } 
....................                RX_Buffer[4]=0x00; 
0A154:  CLRF   34
....................                RX_Buffer2[4]=0x00; 
0A156:  CLRF   3F
0A158:  MOVLB  0
....................             } 
....................          } 
....................           
....................          if(RX_Buffer[4]==0x2b || DOWN){//Tecla Abajo Oprimida 
0A15A:  MOVF   34,W
0A15C:  SUBLW  2B
0A15E:  BZ    A164
0A160:  BTFSS  xA0.1
0A162:  BRA    A1DE
....................             delay_ms(200); 
0A164:  MOVLW  C8
0A166:  MOVLB  7
0A168:  MOVWF  xC0
0A16A:  MOVLB  0
0A16C:  CALL   1E8C
....................             if(RX_Buffer[4]==0x2b || DOWN){    
0A170:  MOVF   34,W
0A172:  SUBLW  2B
0A174:  BZ    A17A
0A176:  BTFSS  xA0.1
0A178:  BRA    A1DE
....................                if(Opcion==1){ 
0A17A:  MOVLB  3
0A17C:  DECFSZ x4D,W
0A17E:  BRA    A188
....................                   if(DiaTx>0) 
0A180:  MOVF   x84,F
0A182:  BZ    A186
....................                      DiaTx--; 
0A184:  DECF   x84,F
....................                }else if(Opcion==2){ 
0A186:  BRA    A1D8
0A188:  MOVF   x4D,W
0A18A:  SUBLW  02
0A18C:  BNZ   A19E
....................                   if(MesTx>1) 
0A18E:  MOVF   x83,W
0A190:  SUBLW  01
0A192:  BC    A198
....................                      MesTx--; 
0A194:  DECF   x83,F
....................                   else 
0A196:  BRA    A19C
....................                      MesTx=12; 
0A198:  MOVLW  0C
0A19A:  MOVWF  x83
....................                }else if(Opcion==3){ 
0A19C:  BRA    A1D8
0A19E:  MOVF   x4D,W
0A1A0:  SUBLW  03
0A1A2:  BNZ   A1B2
....................                   if(YearTx>0) 
0A1A4:  MOVF   x82,F
0A1A6:  BZ    A1AC
....................                      YearTx--; 
0A1A8:  DECF   x82,F
....................                   else 
0A1AA:  BRA    A1B0
....................                      YearTx=99; 
0A1AC:  MOVLW  63
0A1AE:  MOVWF  x82
....................                }else if(Opcion==4){ 
0A1B0:  BRA    A1D8
0A1B2:  MOVF   x4D,W
0A1B4:  SUBLW  04
0A1B6:  BNZ   A1C6
....................                   if(HoraTx>0) 
0A1B8:  MOVF   x85,F
0A1BA:  BZ    A1C0
....................                      HoraTx--; 
0A1BC:  DECF   x85,F
....................                   else 
0A1BE:  BRA    A1C4
....................                      HoraTx=23; 
0A1C0:  MOVLW  17
0A1C2:  MOVWF  x85
....................                }else if(Opcion==5){ 
0A1C4:  BRA    A1D8
0A1C6:  MOVF   x4D,W
0A1C8:  SUBLW  05
0A1CA:  BNZ   A1D8
....................                   if(MinutoTx>0) 
0A1CC:  MOVF   x86,F
0A1CE:  BZ    A1D4
....................                      MinutoTx--; 
0A1D0:  DECF   x86,F
....................                   else 
0A1D2:  BRA    A1D8
....................                      MinutoTx=59; 
0A1D4:  MOVLW  3B
0A1D6:  MOVWF  x86
....................                } 
....................                RX_Buffer[4]=0x00; 
0A1D8:  CLRF   34
....................                RX_Buffer2[4]=0x00; 
0A1DA:  CLRF   3F
0A1DC:  MOVLB  0
....................             } 
....................          } 
....................        
....................       printf("thora.txt=\"%02u\"",HoraTx); 
0A1DE:  MOVLW  C0
0A1E0:  MOVWF  FF6
0A1E2:  MOVLW  0E
0A1E4:  MOVWF  FF7
0A1E6:  MOVLW  00
0A1E8:  MOVWF  FF8
0A1EA:  MOVLW  0B
0A1EC:  MOVLB  7
0A1EE:  MOVWF  xB5
0A1F0:  MOVLB  0
0A1F2:  CALL   556C
0A1F6:  MOVFF  385,7B5
0A1FA:  MOVLW  01
0A1FC:  MOVLB  7
0A1FE:  MOVWF  xB6
0A200:  MOVLB  0
0A202:  CALL   5858
0A206:  MOVLW  22
0A208:  BTFSS  F9E.4
0A20A:  BRA    A208
0A20C:  MOVWF  FAD
....................       SendDataDisplay(); 
0A20E:  CALL   3E26
....................       printf("tminutos.txt=\"%02u\"",MinutoTx); 
0A212:  MOVLW  D2
0A214:  MOVWF  FF6
0A216:  MOVLW  0E
0A218:  MOVWF  FF7
0A21A:  MOVLW  00
0A21C:  MOVWF  FF8
0A21E:  MOVLW  0E
0A220:  MOVLB  7
0A222:  MOVWF  xB5
0A224:  MOVLB  0
0A226:  CALL   556C
0A22A:  MOVFF  386,7B5
0A22E:  MOVLW  01
0A230:  MOVLB  7
0A232:  MOVWF  xB6
0A234:  MOVLB  0
0A236:  CALL   5858
0A23A:  MOVLW  22
0A23C:  BTFSS  F9E.4
0A23E:  BRA    A23C
0A240:  MOVWF  FAD
....................       SendDataDisplay(); 
0A242:  CALL   3E26
....................       printf("tdia.txt=\"%02u\"",DiaTx); 
0A246:  MOVLW  E6
0A248:  MOVWF  FF6
0A24A:  MOVLW  0E
0A24C:  MOVWF  FF7
0A24E:  MOVLW  00
0A250:  MOVWF  FF8
0A252:  MOVLW  0A
0A254:  MOVLB  7
0A256:  MOVWF  xB5
0A258:  MOVLB  0
0A25A:  CALL   556C
0A25E:  MOVFF  384,7B5
0A262:  MOVLW  01
0A264:  MOVLB  7
0A266:  MOVWF  xB6
0A268:  MOVLB  0
0A26A:  CALL   5858
0A26E:  MOVLW  22
0A270:  BTFSS  F9E.4
0A272:  BRA    A270
0A274:  MOVWF  FAD
....................       SendDataDisplay(); 
0A276:  CALL   3E26
....................       printf("tmes.txt=\"%02u\"",MesTx); 
0A27A:  MOVLW  F6
0A27C:  MOVWF  FF6
0A27E:  MOVLW  0E
0A280:  MOVWF  FF7
0A282:  MOVLW  00
0A284:  MOVWF  FF8
0A286:  MOVLW  0A
0A288:  MOVLB  7
0A28A:  MOVWF  xB5
0A28C:  MOVLB  0
0A28E:  CALL   556C
0A292:  MOVFF  383,7B5
0A296:  MOVLW  01
0A298:  MOVLB  7
0A29A:  MOVWF  xB6
0A29C:  MOVLB  0
0A29E:  CALL   5858
0A2A2:  MOVLW  22
0A2A4:  BTFSS  F9E.4
0A2A6:  BRA    A2A4
0A2A8:  MOVWF  FAD
....................       SendDataDisplay(); 
0A2AA:  CALL   3E26
....................       printf("tyear.txt=\"%02u\"",YearTx); 
0A2AE:  MOVLW  06
0A2B0:  MOVWF  FF6
0A2B2:  MOVLW  0F
0A2B4:  MOVWF  FF7
0A2B6:  MOVLW  00
0A2B8:  MOVWF  FF8
0A2BA:  MOVLW  0B
0A2BC:  MOVLB  7
0A2BE:  MOVWF  xB5
0A2C0:  MOVLB  0
0A2C2:  CALL   556C
0A2C6:  MOVFF  382,7B5
0A2CA:  MOVLW  01
0A2CC:  MOVLB  7
0A2CE:  MOVWF  xB6
0A2D0:  MOVLB  0
0A2D2:  CALL   5858
0A2D6:  MOVLW  22
0A2D8:  BTFSS  F9E.4
0A2DA:  BRA    A2D8
0A2DC:  MOVWF  FAD
....................       SendDataDisplay(); 
0A2DE:  CALL   3E26
....................       LimitaDia();   
0A2E2:  GOTO   5CDC
0A2E6:  MOVLB  3
....................     } 
.................... //_--------------------------------------------------------------------------------------------------------------------------------------------------------        
....................  
.................... //_-------------------------------------------------------------------------------------------------------------------------------------------------------- 
....................    if(Menu==8){ //Menu Ciclos Personalizados 
0A2E8:  MOVF   x45,W
0A2EA:  SUBLW  08
0A2EC:  BTFSS  FD8.2
0A2EE:  GOTO   AEF6
....................       printf("fecha.txt=\"T:%2.1fC Fecha:%02u/%02u/20%02u Hora:%02u:%02u:%02u\"",Temperatura,Dia,Mes,Year,Hora,Minuto,Segundo); 
0A2F2:  MOVLW  18
0A2F4:  MOVWF  FF6
0A2F6:  MOVLW  0F
0A2F8:  MOVWF  FF7
0A2FA:  MOVLW  00
0A2FC:  MOVWF  FF8
0A2FE:  MOVLW  0D
0A300:  MOVLB  7
0A302:  MOVWF  xB5
0A304:  MOVLB  0
0A306:  CALL   556C
0A30A:  MOVLW  01
0A30C:  MOVWF  FE9
0A30E:  MOVFF  314,7B8
0A312:  MOVFF  313,7B7
0A316:  MOVFF  312,7B6
0A31A:  MOVFF  311,7B5
0A31E:  MOVLB  7
0A320:  MOVWF  xB9
0A322:  MOVLB  0
0A324:  CALL   5688
0A328:  MOVLW  2A
0A32A:  MOVWF  FF6
0A32C:  MOVLW  0F
0A32E:  MOVWF  FF7
0A330:  MOVLW  00
0A332:  MOVWF  FF8
0A334:  MOVLW  09
0A336:  MOVLB  7
0A338:  MOVWF  xB5
0A33A:  MOVLB  0
0A33C:  CALL   556C
0A340:  MOVFF  37D,7B5
0A344:  MOVLW  01
0A346:  MOVLB  7
0A348:  MOVWF  xB6
0A34A:  MOVLB  0
0A34C:  CALL   5858
0A350:  MOVLW  2F
0A352:  BTFSS  F9E.4
0A354:  BRA    A352
0A356:  MOVWF  FAD
0A358:  MOVFF  37C,7B5
0A35C:  MOVLW  01
0A35E:  MOVLB  7
0A360:  MOVWF  xB6
0A362:  MOVLB  0
0A364:  CALL   5858
0A368:  MOVLW  2F
0A36A:  BTFSS  F9E.4
0A36C:  BRA    A36A
0A36E:  MOVWF  FAD
0A370:  MOVLW  32
0A372:  BTFSS  F9E.4
0A374:  BRA    A372
0A376:  MOVWF  FAD
0A378:  MOVLW  30
0A37A:  BTFSS  F9E.4
0A37C:  BRA    A37A
0A37E:  MOVWF  FAD
0A380:  MOVFF  37B,7B5
0A384:  MOVLW  01
0A386:  MOVLB  7
0A388:  MOVWF  xB6
0A38A:  MOVLB  0
0A38C:  CALL   5858
0A390:  MOVLW  43
0A392:  MOVWF  FF6
0A394:  MOVLW  0F
0A396:  MOVWF  FF7
0A398:  MOVLW  00
0A39A:  MOVWF  FF8
0A39C:  MOVLW  06
0A39E:  MOVLB  7
0A3A0:  MOVWF  xB5
0A3A2:  MOVLB  0
0A3A4:  CALL   556C
0A3A8:  MOVFF  37E,7B5
0A3AC:  MOVLW  01
0A3AE:  MOVLB  7
0A3B0:  MOVWF  xB6
0A3B2:  MOVLB  0
0A3B4:  CALL   5858
0A3B8:  MOVLW  3A
0A3BA:  BTFSS  F9E.4
0A3BC:  BRA    A3BA
0A3BE:  MOVWF  FAD
0A3C0:  MOVFF  37F,7B5
0A3C4:  MOVLW  01
0A3C6:  MOVLB  7
0A3C8:  MOVWF  xB6
0A3CA:  MOVLB  0
0A3CC:  CALL   5858
0A3D0:  MOVLW  3A
0A3D2:  BTFSS  F9E.4
0A3D4:  BRA    A3D2
0A3D6:  MOVWF  FAD
0A3D8:  MOVFF  380,7B5
0A3DC:  MOVLW  01
0A3DE:  MOVLB  7
0A3E0:  MOVWF  xB6
0A3E2:  MOVLB  0
0A3E4:  CALL   5858
0A3E8:  MOVLW  22
0A3EA:  BTFSS  F9E.4
0A3EC:  BRA    A3EA
0A3EE:  MOVWF  FAD
....................       SendDataDisplay(); 
0A3F0:  CALL   3E26
....................       GuardaEEPROM=OFF; 
0A3F4:  BCF    xA2.6
....................       printf("tuser.txt=\"%s\"",usuario); 
0A3F6:  MOVLW  5A
0A3F8:  MOVWF  FF6
0A3FA:  MOVLW  0F
0A3FC:  MOVWF  FF7
0A3FE:  MOVLW  00
0A400:  MOVWF  FF8
0A402:  MOVLW  0B
0A404:  MOVLB  7
0A406:  MOVWF  xB5
0A408:  MOVLB  0
0A40A:  CALL   556C
0A40E:  MOVLW  03
0A410:  MOVWF  FEA
0A412:  MOVLW  8E
0A414:  MOVWF  FE9
0A416:  CALL   559E
0A41A:  MOVLW  22
0A41C:  BTFSS  F9E.4
0A41E:  BRA    A41C
0A420:  MOVWF  FAD
....................       SendDataDisplay(); 
0A422:  CALL   3E26
....................        
....................       if(RX_Buffer[4]>0x00 && RX_Buffer[4]<0x15 && estados[RX_Buffer[4]-1]){//Personalizados 
0A426:  MOVF   34,F
0A428:  BTFSC  FD8.2
0A42A:  BRA    A69A
0A42C:  MOVF   34,W
0A42E:  SUBLW  14
0A430:  BTFSS  FD8.0
0A432:  BRA    A69A
0A434:  MOVLW  01
0A436:  SUBWF  34,W
0A438:  MOVLB  7
0A43A:  MOVWF  xB1
0A43C:  MOVLW  03
0A43E:  MOVWF  xB3
0A440:  MOVLW  F4
0A442:  MOVWF  xB2
0A444:  MOVLB  0
0A446:  CALL   1EF6
0A44A:  BTFSS  01.0
0A44C:  BRA    A69A
....................          printf("ciclo.txt=\"CICLO P%02u\"",RX_Buffer[4]+0x0a); 
0A44E:  MOVLW  0A
0A450:  ADDWF  34,W
0A452:  MOVLB  7
0A454:  MOVWF  xB0
0A456:  MOVLW  6A
0A458:  MOVWF  FF6
0A45A:  MOVLW  0F
0A45C:  MOVWF  FF7
0A45E:  MOVLW  00
0A460:  MOVWF  FF8
0A462:  MOVLW  12
0A464:  MOVWF  xB5
0A466:  MOVLB  0
0A468:  CALL   556C
0A46C:  MOVFF  7B0,7B5
0A470:  MOVLW  01
0A472:  MOVLB  7
0A474:  MOVWF  xB6
0A476:  MOVLB  0
0A478:  CALL   5858
0A47C:  MOVLW  22
0A47E:  BTFSS  F9E.4
0A480:  BRA    A47E
0A482:  MOVWF  FAD
....................          SendDataDisplay();           
0A484:  CALL   3E26
....................          printf("temp.txt=\"%u\"",CiclosPersonalizados[RX_Buffer[4]-1].Temperatura); 
0A488:  MOVLW  01
0A48A:  SUBWF  34,W
0A48C:  MULLW  0A
0A48E:  MOVF   FF3,W
0A490:  MOVLB  7
0A492:  CLRF   xB1
0A494:  MOVWF  xB0
0A496:  MOVLW  C0
0A498:  ADDWF  xB0,W
0A49A:  MOVWF  FE9
0A49C:  MOVLW  06
0A49E:  ADDWFC xB1,W
0A4A0:  MOVWF  FEA
0A4A2:  MOVFF  FEF,7B0
0A4A6:  MOVLW  82
0A4A8:  MOVWF  FF6
0A4AA:  MOVLW  0F
0A4AC:  MOVWF  FF7
0A4AE:  MOVLW  00
0A4B0:  MOVWF  FF8
0A4B2:  MOVLW  0A
0A4B4:  MOVWF  xB5
0A4B6:  MOVLB  0
0A4B8:  CALL   556C
0A4BC:  MOVFF  7B0,7B5
0A4C0:  MOVLW  1B
0A4C2:  MOVLB  7
0A4C4:  MOVWF  xB6
0A4C6:  MOVLB  0
0A4C8:  CALL   5858
0A4CC:  MOVLW  22
0A4CE:  BTFSS  F9E.4
0A4D0:  BRA    A4CE
0A4D2:  MOVWF  FAD
....................          SendDataDisplay(); 
0A4D4:  CALL   3E26
....................          printf("test.txt=\"%02u:%02u\"",CiclosPersonalizados[RX_Buffer[4]-1].Minutoest,CiclosPersonalizados[RX_Buffer[4]-1].Segundoest); 
0A4D8:  MOVLW  01
0A4DA:  SUBWF  34,W
0A4DC:  MULLW  0A
0A4DE:  MOVF   FF3,W
0A4E0:  MOVLB  7
0A4E2:  CLRF   xB1
0A4E4:  MOVWF  xB0
0A4E6:  MOVLW  09
0A4E8:  ADDWF  xB0,W
0A4EA:  MOVWF  01
0A4EC:  MOVLW  00
0A4EE:  ADDWFC xB1,W
0A4F0:  MOVWF  03
0A4F2:  MOVF   01,W
0A4F4:  ADDLW  C0
0A4F6:  MOVWF  FE9
0A4F8:  MOVLW  06
0A4FA:  ADDWFC 03,W
0A4FC:  MOVWF  FEA
0A4FE:  MOVFF  FEF,7B0
0A502:  MOVLW  01
0A504:  SUBWF  34,W
0A506:  MULLW  0A
0A508:  MOVF   FF3,W
0A50A:  CLRF   xB2
0A50C:  MOVWF  xB1
0A50E:  MOVLW  03
0A510:  ADDWF  xB1,W
0A512:  MOVWF  01
0A514:  MOVLW  00
0A516:  ADDWFC xB2,W
0A518:  MOVWF  03
0A51A:  MOVF   01,W
0A51C:  ADDLW  C0
0A51E:  MOVWF  FE9
0A520:  MOVLW  06
0A522:  ADDWFC 03,W
0A524:  MOVWF  FEA
0A526:  MOVFF  FEF,7B1
0A52A:  MOVLW  90
0A52C:  MOVWF  FF6
0A52E:  MOVLW  0F
0A530:  MOVWF  FF7
0A532:  MOVLW  00
0A534:  MOVWF  FF8
0A536:  MOVLW  0A
0A538:  MOVWF  xB5
0A53A:  MOVLB  0
0A53C:  CALL   556C
0A540:  MOVFF  7B0,7B5
0A544:  MOVLW  01
0A546:  MOVLB  7
0A548:  MOVWF  xB6
0A54A:  MOVLB  0
0A54C:  CALL   5858
0A550:  MOVLW  3A
0A552:  BTFSS  F9E.4
0A554:  BRA    A552
0A556:  MOVWF  FAD
0A558:  MOVFF  7B1,7B5
0A55C:  MOVLW  01
0A55E:  MOVLB  7
0A560:  MOVWF  xB6
0A562:  MOVLB  0
0A564:  CALL   5858
0A568:  MOVLW  22
0A56A:  BTFSS  F9E.4
0A56C:  BRA    A56A
0A56E:  MOVWF  FAD
....................          SendDataDisplay(); 
0A570:  CALL   3E26
....................          printf("tsec.txt=\"%02u:%02u\"",CiclosPersonalizados[RX_Buffer[4]-1].Minutosec,CiclosPersonalizados[RX_Buffer[4]-1].Segundosec); 
0A574:  MOVLW  01
0A576:  SUBWF  34,W
0A578:  MULLW  0A
0A57A:  MOVF   FF3,W
0A57C:  MOVLB  7
0A57E:  CLRF   xB1
0A580:  MOVWF  xB0
0A582:  MOVLW  04
0A584:  ADDWF  xB0,W
0A586:  MOVWF  01
0A588:  MOVLW  00
0A58A:  ADDWFC xB1,W
0A58C:  MOVWF  03
0A58E:  MOVF   01,W
0A590:  ADDLW  C0
0A592:  MOVWF  FE9
0A594:  MOVLW  06
0A596:  ADDWFC 03,W
0A598:  MOVWF  FEA
0A59A:  MOVFF  FEF,7B0
0A59E:  MOVLW  01
0A5A0:  SUBWF  34,W
0A5A2:  MULLW  0A
0A5A4:  MOVF   FF3,W
0A5A6:  CLRF   xB2
0A5A8:  MOVWF  xB1
0A5AA:  MOVLW  05
0A5AC:  ADDWF  xB1,W
0A5AE:  MOVWF  01
0A5B0:  MOVLW  00
0A5B2:  ADDWFC xB2,W
0A5B4:  MOVWF  03
0A5B6:  MOVF   01,W
0A5B8:  ADDLW  C0
0A5BA:  MOVWF  FE9
0A5BC:  MOVLW  06
0A5BE:  ADDWFC 03,W
0A5C0:  MOVWF  FEA
0A5C2:  MOVFF  FEF,7B1
0A5C6:  MOVLW  A6
0A5C8:  MOVWF  FF6
0A5CA:  MOVLW  0F
0A5CC:  MOVWF  FF7
0A5CE:  MOVLW  00
0A5D0:  MOVWF  FF8
0A5D2:  MOVLW  0A
0A5D4:  MOVWF  xB5
0A5D6:  MOVLB  0
0A5D8:  CALL   556C
0A5DC:  MOVFF  7B0,7B5
0A5E0:  MOVLW  01
0A5E2:  MOVLB  7
0A5E4:  MOVWF  xB6
0A5E6:  MOVLB  0
0A5E8:  CALL   5858
0A5EC:  MOVLW  3A
0A5EE:  BTFSS  F9E.4
0A5F0:  BRA    A5EE
0A5F2:  MOVWF  FAD
0A5F4:  MOVFF  7B1,7B5
0A5F8:  MOVLW  01
0A5FA:  MOVLB  7
0A5FC:  MOVWF  xB6
0A5FE:  MOVLB  0
0A600:  CALL   5858
0A604:  MOVLW  22
0A606:  BTFSS  F9E.4
0A608:  BRA    A606
0A60A:  MOVWF  FAD
....................          SendDataDisplay(); 
0A60C:  CALL   3E26
....................          //printf("pulsos.txt=\"%02u\"",CiclosPersonalizados[RX_Buffer[4]-1].PulsosVacio); 
....................          printf("pulsos.txt=\"--\""); 
0A610:  MOVLW  BC
0A612:  MOVWF  FF6
0A614:  MOVLW  0F
0A616:  MOVWF  FF7
0A618:  MOVLW  00
0A61A:  MOVWF  FF8
0A61C:  CALL   3DF4
....................          SendDataDisplay(); 
0A620:  CALL   3E26
....................          //printf("vacio.txt=\"%03u kPa\"",CiclosPersonalizados[RX_Buffer[4]-1].NivelVacio); 
....................          printf("vacio.txt=\"--\""); 
0A624:  MOVLW  CC
0A626:  MOVWF  FF6
0A628:  MOVLW  0F
0A62A:  MOVWF  FF7
0A62C:  MOVLW  00
0A62E:  MOVWF  FF8
0A630:  CALL   3DF4
....................          SendDataDisplay(); 
0A634:  CALL   3E26
....................          printf("desfogue.txt=\"%u\"",CiclosPersonalizados[RX_Buffer[4]-1].NivelDesfogue); 
0A638:  MOVLW  01
0A63A:  SUBWF  34,W
0A63C:  MULLW  0A
0A63E:  MOVF   FF3,W
0A640:  MOVLB  7
0A642:  CLRF   xB1
0A644:  MOVWF  xB0
0A646:  MOVLW  08
0A648:  ADDWF  xB0,W
0A64A:  MOVWF  01
0A64C:  MOVLW  00
0A64E:  ADDWFC xB1,W
0A650:  MOVWF  03
0A652:  MOVF   01,W
0A654:  ADDLW  C0
0A656:  MOVWF  FE9
0A658:  MOVLW  06
0A65A:  ADDWFC 03,W
0A65C:  MOVWF  FEA
0A65E:  MOVFF  FEF,7B0
0A662:  MOVLW  DC
0A664:  MOVWF  FF6
0A666:  MOVLW  0F
0A668:  MOVWF  FF7
0A66A:  MOVLW  00
0A66C:  MOVWF  FF8
0A66E:  MOVLW  0E
0A670:  MOVWF  xB5
0A672:  MOVLB  0
0A674:  CALL   556C
0A678:  MOVFF  7B0,7B5
0A67C:  MOVLW  1B
0A67E:  MOVLB  7
0A680:  MOVWF  xB6
0A682:  MOVLB  0
0A684:  CALL   5858
0A688:  MOVLW  22
0A68A:  BTFSS  F9E.4
0A68C:  BRA    A68A
0A68E:  MOVWF  FAD
....................          //printf("desfogue.txt=\"N/A\""); 
....................          SendDataDisplay(); 
0A690:  CALL   3E26
....................          CicloLibre=RX_Buffer[4]; 
0A694:  MOVFF  34,32B
....................       }else if(CicloLibre==0x00){ 
0A698:  BRA    A9B6
0A69A:  MOVLB  3
0A69C:  MOVF   x2B,F
0A69E:  BNZ   A732
....................          printf("ciclo.txt=\"CICLO P--\""); 
0A6A0:  MOVLW  EE
0A6A2:  MOVWF  FF6
0A6A4:  MOVLW  0F
0A6A6:  MOVWF  FF7
0A6A8:  MOVLW  00
0A6AA:  MOVWF  FF8
0A6AC:  MOVLB  0
0A6AE:  CALL   3DF4
....................          SendDataDisplay();           
0A6B2:  CALL   3E26
....................          printf("temp.txt=\"--\""); 
0A6B6:  MOVLW  04
0A6B8:  MOVWF  FF6
0A6BA:  MOVLW  10
0A6BC:  MOVWF  FF7
0A6BE:  MOVLW  00
0A6C0:  MOVWF  FF8
0A6C2:  CALL   3DF4
....................          SendDataDisplay(); 
0A6C6:  CALL   3E26
....................          printf("test.txt=\"--:--\""); 
0A6CA:  MOVLW  12
0A6CC:  MOVWF  FF6
0A6CE:  MOVLW  10
0A6D0:  MOVWF  FF7
0A6D2:  MOVLW  00
0A6D4:  MOVWF  FF8
0A6D6:  CALL   3DF4
....................          SendDataDisplay(); 
0A6DA:  CALL   3E26
....................          printf("tsec.txt=\"--:--\""); 
0A6DE:  MOVLW  24
0A6E0:  MOVWF  FF6
0A6E2:  MOVLW  10
0A6E4:  MOVWF  FF7
0A6E6:  MOVLW  00
0A6E8:  MOVWF  FF8
0A6EA:  CALL   3DF4
....................          SendDataDisplay(); 
0A6EE:  CALL   3E26
....................          printf("pulsos.txt=\"--\""); 
0A6F2:  MOVLW  36
0A6F4:  MOVWF  FF6
0A6F6:  MOVLW  10
0A6F8:  MOVWF  FF7
0A6FA:  MOVLW  00
0A6FC:  MOVWF  FF8
0A6FE:  CALL   3DF4
....................          SendDataDisplay(); 
0A702:  CALL   3E26
....................          printf("vacio.txt=\"--\""); 
0A706:  MOVLW  46
0A708:  MOVWF  FF6
0A70A:  MOVLW  10
0A70C:  MOVWF  FF7
0A70E:  MOVLW  00
0A710:  MOVWF  FF8
0A712:  CALL   3DF4
....................          SendDataDisplay(); 
0A716:  CALL   3E26
....................          printf("desfogue.txt=\"--\""); 
0A71A:  MOVLW  56
0A71C:  MOVWF  FF6
0A71E:  MOVLW  10
0A720:  MOVWF  FF7
0A722:  MOVLW  00
0A724:  MOVWF  FF8
0A726:  CALL   3DF4
....................          SendDataDisplay(); 
0A72A:  CALL   3E26
....................       }else if(CicloLibre>0 && CicloLibre<21 && estados[CicloLibre-1]){ 
0A72E:  BRA    A9B6
0A730:  MOVLB  3
0A732:  MOVF   x2B,F
0A734:  BTFSC  FD8.2
0A736:  BRA    A9B8
0A738:  MOVF   x2B,W
0A73A:  SUBLW  14
0A73C:  BTFSS  FD8.0
0A73E:  BRA    A9B8
0A740:  MOVLW  01
0A742:  SUBWF  x2B,W
0A744:  MOVLB  7
0A746:  MOVWF  xB1
0A748:  MOVLW  03
0A74A:  MOVWF  xB3
0A74C:  MOVLW  F4
0A74E:  MOVWF  xB2
0A750:  MOVLB  0
0A752:  CALL   1EF6
0A756:  BTFSC  01.0
0A758:  BRA    A75E
0A75A:  MOVLB  3
0A75C:  BRA    A9B8
....................          printf("ciclo.txt=\"CICLO P%02u\"",CicloLibre+0x0a); 
0A75E:  MOVLW  0A
0A760:  MOVLB  3
0A762:  ADDWF  x2B,W
0A764:  MOVLB  7
0A766:  MOVWF  xB0
0A768:  MOVLW  68
0A76A:  MOVWF  FF6
0A76C:  MOVLW  10
0A76E:  MOVWF  FF7
0A770:  MOVLW  00
0A772:  MOVWF  FF8
0A774:  MOVLW  12
0A776:  MOVWF  xB5
0A778:  MOVLB  0
0A77A:  CALL   556C
0A77E:  MOVFF  7B0,7B5
0A782:  MOVLW  01
0A784:  MOVLB  7
0A786:  MOVWF  xB6
0A788:  MOVLB  0
0A78A:  CALL   5858
0A78E:  MOVLW  22
0A790:  BTFSS  F9E.4
0A792:  BRA    A790
0A794:  MOVWF  FAD
....................          SendDataDisplay();           
0A796:  CALL   3E26
....................          printf("temp.txt=\"%u\"",CiclosPersonalizados[CicloLibre-1].Temperatura); 
0A79A:  MOVLW  01
0A79C:  MOVLB  3
0A79E:  SUBWF  x2B,W
0A7A0:  MULLW  0A
0A7A2:  MOVF   FF3,W
0A7A4:  MOVLB  7
0A7A6:  CLRF   xB1
0A7A8:  MOVWF  xB0
0A7AA:  MOVLW  C0
0A7AC:  ADDWF  xB0,W
0A7AE:  MOVWF  FE9
0A7B0:  MOVLW  06
0A7B2:  ADDWFC xB1,W
0A7B4:  MOVWF  FEA
0A7B6:  MOVFF  FEF,7B0
0A7BA:  MOVLW  80
0A7BC:  MOVWF  FF6
0A7BE:  MOVLW  10
0A7C0:  MOVWF  FF7
0A7C2:  MOVLW  00
0A7C4:  MOVWF  FF8
0A7C6:  MOVLW  0A
0A7C8:  MOVWF  xB5
0A7CA:  MOVLB  0
0A7CC:  CALL   556C
0A7D0:  MOVFF  7B0,7B5
0A7D4:  MOVLW  1B
0A7D6:  MOVLB  7
0A7D8:  MOVWF  xB6
0A7DA:  MOVLB  0
0A7DC:  CALL   5858
0A7E0:  MOVLW  22
0A7E2:  BTFSS  F9E.4
0A7E4:  BRA    A7E2
0A7E6:  MOVWF  FAD
....................          SendDataDisplay(); 
0A7E8:  CALL   3E26
....................          printf("test.txt=\"%02u:%02u\"",CiclosPersonalizados[CicloLibre-1].Minutoest,CiclosPersonalizados[CicloLibre-1].Segundoest); 
0A7EC:  MOVLW  01
0A7EE:  MOVLB  3
0A7F0:  SUBWF  x2B,W
0A7F2:  MULLW  0A
0A7F4:  MOVF   FF3,W
0A7F6:  MOVLB  7
0A7F8:  CLRF   xB1
0A7FA:  MOVWF  xB0
0A7FC:  MOVLW  09
0A7FE:  ADDWF  xB0,W
0A800:  MOVWF  01
0A802:  MOVLW  00
0A804:  ADDWFC xB1,W
0A806:  MOVWF  03
0A808:  MOVF   01,W
0A80A:  ADDLW  C0
0A80C:  MOVWF  FE9
0A80E:  MOVLW  06
0A810:  ADDWFC 03,W
0A812:  MOVWF  FEA
0A814:  MOVFF  FEF,7B0
0A818:  MOVLW  01
0A81A:  MOVLB  3
0A81C:  SUBWF  x2B,W
0A81E:  MULLW  0A
0A820:  MOVF   FF3,W
0A822:  MOVLB  7
0A824:  CLRF   xB2
0A826:  MOVWF  xB1
0A828:  MOVLW  03
0A82A:  ADDWF  xB1,W
0A82C:  MOVWF  01
0A82E:  MOVLW  00
0A830:  ADDWFC xB2,W
0A832:  MOVWF  03
0A834:  MOVF   01,W
0A836:  ADDLW  C0
0A838:  MOVWF  FE9
0A83A:  MOVLW  06
0A83C:  ADDWFC 03,W
0A83E:  MOVWF  FEA
0A840:  MOVFF  FEF,7B1
0A844:  MOVLW  8E
0A846:  MOVWF  FF6
0A848:  MOVLW  10
0A84A:  MOVWF  FF7
0A84C:  MOVLW  00
0A84E:  MOVWF  FF8
0A850:  MOVLW  0A
0A852:  MOVWF  xB5
0A854:  MOVLB  0
0A856:  CALL   556C
0A85A:  MOVFF  7B0,7B5
0A85E:  MOVLW  01
0A860:  MOVLB  7
0A862:  MOVWF  xB6
0A864:  MOVLB  0
0A866:  CALL   5858
0A86A:  MOVLW  3A
0A86C:  BTFSS  F9E.4
0A86E:  BRA    A86C
0A870:  MOVWF  FAD
0A872:  MOVFF  7B1,7B5
0A876:  MOVLW  01
0A878:  MOVLB  7
0A87A:  MOVWF  xB6
0A87C:  MOVLB  0
0A87E:  CALL   5858
0A882:  MOVLW  22
0A884:  BTFSS  F9E.4
0A886:  BRA    A884
0A888:  MOVWF  FAD
....................          SendDataDisplay(); 
0A88A:  CALL   3E26
....................          printf("tsec.txt=\"%02u:%02u\"",CiclosPersonalizados[CicloLibre-1].Minutosec,CiclosPersonalizados[CicloLibre-1].Segundosec); 
0A88E:  MOVLW  01
0A890:  MOVLB  3
0A892:  SUBWF  x2B,W
0A894:  MULLW  0A
0A896:  MOVF   FF3,W
0A898:  MOVLB  7
0A89A:  CLRF   xB1
0A89C:  MOVWF  xB0
0A89E:  MOVLW  04
0A8A0:  ADDWF  xB0,W
0A8A2:  MOVWF  01
0A8A4:  MOVLW  00
0A8A6:  ADDWFC xB1,W
0A8A8:  MOVWF  03
0A8AA:  MOVF   01,W
0A8AC:  ADDLW  C0
0A8AE:  MOVWF  FE9
0A8B0:  MOVLW  06
0A8B2:  ADDWFC 03,W
0A8B4:  MOVWF  FEA
0A8B6:  MOVFF  FEF,7B0
0A8BA:  MOVLW  01
0A8BC:  MOVLB  3
0A8BE:  SUBWF  x2B,W
0A8C0:  MULLW  0A
0A8C2:  MOVF   FF3,W
0A8C4:  MOVLB  7
0A8C6:  CLRF   xB2
0A8C8:  MOVWF  xB1
0A8CA:  MOVLW  05
0A8CC:  ADDWF  xB1,W
0A8CE:  MOVWF  01
0A8D0:  MOVLW  00
0A8D2:  ADDWFC xB2,W
0A8D4:  MOVWF  03
0A8D6:  MOVF   01,W
0A8D8:  ADDLW  C0
0A8DA:  MOVWF  FE9
0A8DC:  MOVLW  06
0A8DE:  ADDWFC 03,W
0A8E0:  MOVWF  FEA
0A8E2:  MOVFF  FEF,7B1
0A8E6:  MOVLW  A4
0A8E8:  MOVWF  FF6
0A8EA:  MOVLW  10
0A8EC:  MOVWF  FF7
0A8EE:  MOVLW  00
0A8F0:  MOVWF  FF8
0A8F2:  MOVLW  0A
0A8F4:  MOVWF  xB5
0A8F6:  MOVLB  0
0A8F8:  CALL   556C
0A8FC:  MOVFF  7B0,7B5
0A900:  MOVLW  01
0A902:  MOVLB  7
0A904:  MOVWF  xB6
0A906:  MOVLB  0
0A908:  CALL   5858
0A90C:  MOVLW  3A
0A90E:  BTFSS  F9E.4
0A910:  BRA    A90E
0A912:  MOVWF  FAD
0A914:  MOVFF  7B1,7B5
0A918:  MOVLW  01
0A91A:  MOVLB  7
0A91C:  MOVWF  xB6
0A91E:  MOVLB  0
0A920:  CALL   5858
0A924:  MOVLW  22
0A926:  BTFSS  F9E.4
0A928:  BRA    A926
0A92A:  MOVWF  FAD
....................          SendDataDisplay(); 
0A92C:  CALL   3E26
....................          //printf("pulsos.txt=\"%02u\"",CiclosPersonalizados[CicloLibre-1].PulsosVacio); 
....................          printf("pulsos.txt=\"--\""); 
0A930:  MOVLW  BA
0A932:  MOVWF  FF6
0A934:  MOVLW  10
0A936:  MOVWF  FF7
0A938:  MOVLW  00
0A93A:  MOVWF  FF8
0A93C:  CALL   3DF4
....................          SendDataDisplay(); 
0A940:  CALL   3E26
....................          //printf("vacio.txt=\"%03u kPa\"",CiclosPersonalizados[CicloLibre-1].NivelVacio); 
....................          printf("vacio.txt=\"--\""); 
0A944:  MOVLW  CA
0A946:  MOVWF  FF6
0A948:  MOVLW  10
0A94A:  MOVWF  FF7
0A94C:  MOVLW  00
0A94E:  MOVWF  FF8
0A950:  CALL   3DF4
....................          SendDataDisplay(); 
0A954:  CALL   3E26
....................          printf("desfogue.txt=\"%u\"",CiclosPersonalizados[CicloLibre-1].NivelDesfogue); 
0A958:  MOVLW  01
0A95A:  MOVLB  3
0A95C:  SUBWF  x2B,W
0A95E:  MULLW  0A
0A960:  MOVF   FF3,W
0A962:  MOVLB  7
0A964:  CLRF   xB1
0A966:  MOVWF  xB0
0A968:  MOVLW  08
0A96A:  ADDWF  xB0,W
0A96C:  MOVWF  01
0A96E:  MOVLW  00
0A970:  ADDWFC xB1,W
0A972:  MOVWF  03
0A974:  MOVF   01,W
0A976:  ADDLW  C0
0A978:  MOVWF  FE9
0A97A:  MOVLW  06
0A97C:  ADDWFC 03,W
0A97E:  MOVWF  FEA
0A980:  MOVFF  FEF,7B0
0A984:  MOVLW  DA
0A986:  MOVWF  FF6
0A988:  MOVLW  10
0A98A:  MOVWF  FF7
0A98C:  MOVLW  00
0A98E:  MOVWF  FF8
0A990:  MOVLW  0E
0A992:  MOVWF  xB5
0A994:  MOVLB  0
0A996:  CALL   556C
0A99A:  MOVFF  7B0,7B5
0A99E:  MOVLW  1B
0A9A0:  MOVLB  7
0A9A2:  MOVWF  xB6
0A9A4:  MOVLB  0
0A9A6:  CALL   5858
0A9AA:  MOVLW  22
0A9AC:  BTFSS  F9E.4
0A9AE:  BRA    A9AC
0A9B0:  MOVWF  FAD
....................          //printf("desfogue.txt=\"N/A\""); 
....................          SendDataDisplay(); 
0A9B2:  CALL   3E26
0A9B6:  MOVLB  3
....................       } 
....................        
....................       if(RX_Buffer[4]==0xa0){//a0, Menu Principal 
0A9B8:  MOVF   34,W
0A9BA:  SUBLW  A0
0A9BC:  BNZ   A9D6
....................          printf("page MenuPrincipal"); 
0A9BE:  MOVLW  EC
0A9C0:  MOVWF  FF6
0A9C2:  MOVLW  10
0A9C4:  MOVWF  FF7
0A9C6:  MOVLW  00
0A9C8:  MOVWF  FF8
0A9CA:  MOVLB  0
0A9CC:  CALL   3DF4
....................          SendDataDisplay();      
0A9D0:  CALL   3E26
0A9D4:  MOVLB  3
....................       } 
....................        
....................       if(RX_Buffer[4]==0xb0){//b0, Personalizados 
0A9D6:  MOVF   34,W
0A9D8:  SUBLW  B0
0A9DA:  BNZ   A9F4
....................          printf("page CicloPersona"); 
0A9DC:  MOVLW  00
0A9DE:  MOVWF  FF6
0A9E0:  MOVLW  11
0A9E2:  MOVWF  FF7
0A9E4:  MOVLW  00
0A9E6:  MOVWF  FF8
0A9E8:  MOVLB  0
0A9EA:  CALL   3DF4
....................          SendDataDisplay();      
0A9EE:  CALL   3E26
0A9F2:  MOVLB  3
....................       } 
....................        
....................       if(RX_Buffer[4]==0xc0){//c0, Configuraciones 
0A9F4:  MOVF   34,W
0A9F6:  SUBLW  C0
0A9F8:  BNZ   AA1C
....................          if(codigoUsuario==0 || codigoUsuario==9){   
0A9FA:  MOVLB  0
0A9FC:  MOVF   xC1,F
0A9FE:  BZ    AA06
0AA00:  MOVF   xC1,W
0AA02:  SUBLW  09
0AA04:  BNZ   AA1A
....................             printf("page Ajustes"); 
0AA06:  MOVLW  12
0AA08:  MOVWF  FF6
0AA0A:  MOVLW  11
0AA0C:  MOVWF  FF7
0AA0E:  MOVLW  00
0AA10:  MOVWF  FF8
0AA12:  CALL   3DF4
....................             SendDataDisplay();      
0AA16:  CALL   3E26
0AA1A:  MOVLB  3
....................          } 
....................       } 
....................        
....................       if(RX_Buffer[4]==0x20 && CicloLibre>0){//20, Temperatura 
0AA1C:  MOVF   34,W
0AA1E:  SUBLW  20
0AA20:  BNZ   AA68
0AA22:  MOVF   x2B,F
0AA24:  BZ    AA68
....................          if(codigoUsuario==0 || codigoUsuario==9){   
0AA26:  MOVLB  0
0AA28:  MOVF   xC1,F
0AA2A:  BZ    AA32
0AA2C:  MOVF   xC1,W
0AA2E:  SUBLW  09
0AA30:  BNZ   AA6A
....................             printf("page Temperatura"); 
0AA32:  MOVLW  20
0AA34:  MOVWF  FF6
0AA36:  MOVLW  11
0AA38:  MOVWF  FF7
0AA3A:  MOVLW  00
0AA3C:  MOVWF  FF8
0AA3E:  CALL   3DF4
....................             SendDataDisplay();      
0AA42:  CALL   3E26
....................             Setpoint=CiclosPersonalizados[CicloLibre-1].Temperatura; 
0AA46:  MOVLW  01
0AA48:  MOVLB  3
0AA4A:  SUBWF  x2B,W
0AA4C:  MULLW  0A
0AA4E:  MOVF   FF3,W
0AA50:  MOVLB  7
0AA52:  CLRF   xB1
0AA54:  MOVWF  xB0
0AA56:  MOVLW  C0
0AA58:  ADDWF  xB0,W
0AA5A:  MOVWF  FE9
0AA5C:  MOVLW  06
0AA5E:  ADDWFC xB1,W
0AA60:  MOVWF  FEA
0AA62:  MOVFF  FEF,34C
0AA66:  MOVLB  3
0AA68:  MOVLB  0
....................          } 
....................       } 
....................        
....................       if(RX_Buffer[4]==0x30 && CicloLibre>0){//30, Test 
0AA6A:  MOVF   34,W
0AA6C:  SUBLW  30
0AA6E:  BNZ   AAF8
0AA70:  MOVLB  3
0AA72:  MOVF   x2B,F
0AA74:  BTFSS  FD8.2
0AA76:  BRA    AA7C
0AA78:  MOVLB  0
0AA7A:  BRA    AAF8
....................          if(codigoUsuario==0 || codigoUsuario==9){   
0AA7C:  MOVLB  0
0AA7E:  MOVF   xC1,F
0AA80:  BZ    AA88
0AA82:  MOVF   xC1,W
0AA84:  SUBLW  09
0AA86:  BNZ   AAF8
....................             printf("page TiempoEst"); 
0AA88:  MOVLW  32
0AA8A:  MOVWF  FF6
0AA8C:  MOVLW  11
0AA8E:  MOVWF  FF7
0AA90:  MOVLW  00
0AA92:  MOVWF  FF8
0AA94:  CALL   3DF4
....................             SendDataDisplay();      
0AA98:  CALL   3E26
....................             mEstp=CiclosPersonalizados[CicloLibre-1].Minutoest; 
0AA9C:  MOVLW  01
0AA9E:  MOVLB  3
0AAA0:  SUBWF  x2B,W
0AAA2:  MULLW  0A
0AAA4:  MOVF   FF3,W
0AAA6:  MOVLB  7
0AAA8:  CLRF   xB1
0AAAA:  MOVWF  xB0
0AAAC:  MOVLW  09
0AAAE:  ADDWF  xB0,W
0AAB0:  MOVWF  01
0AAB2:  MOVLW  00
0AAB4:  ADDWFC xB1,W
0AAB6:  MOVWF  03
0AAB8:  MOVF   01,W
0AABA:  ADDLW  C0
0AABC:  MOVWF  FE9
0AABE:  MOVLW  06
0AAC0:  ADDWFC 03,W
0AAC2:  MOVWF  FEA
0AAC4:  MOVFF  FEF,BC
0AAC8:  MOVLB  0
....................             sEstp=CiclosPersonalizados[CicloLibre-1].Segundoest; 
0AACA:  MOVLW  01
0AACC:  MOVLB  3
0AACE:  SUBWF  x2B,W
0AAD0:  MULLW  0A
0AAD2:  MOVF   FF3,W
0AAD4:  MOVLB  7
0AAD6:  CLRF   xB1
0AAD8:  MOVWF  xB0
0AADA:  MOVLW  03
0AADC:  ADDWF  xB0,W
0AADE:  MOVWF  01
0AAE0:  MOVLW  00
0AAE2:  ADDWFC xB1,W
0AAE4:  MOVWF  03
0AAE6:  MOVF   01,W
0AAE8:  ADDLW  C0
0AAEA:  MOVWF  FE9
0AAEC:  MOVLW  06
0AAEE:  ADDWFC 03,W
0AAF0:  MOVWF  FEA
0AAF2:  MOVFF  FEF,BB
0AAF6:  MOVLB  0
....................          } 
....................       } 
....................        
....................       if(RX_Buffer[4]==0x40 && CicloLibre>0){//40, Tsec 
0AAF8:  MOVF   34,W
0AAFA:  SUBLW  40
0AAFC:  BNZ   AB86
0AAFE:  MOVLB  3
0AB00:  MOVF   x2B,F
0AB02:  BTFSS  FD8.2
0AB04:  BRA    AB0A
0AB06:  MOVLB  0
0AB08:  BRA    AB86
....................          if(codigoUsuario==0 || codigoUsuario==9){   
0AB0A:  MOVLB  0
0AB0C:  MOVF   xC1,F
0AB0E:  BZ    AB16
0AB10:  MOVF   xC1,W
0AB12:  SUBLW  09
0AB14:  BNZ   AB86
....................             printf("page TiempoSec"); 
0AB16:  MOVLW  42
0AB18:  MOVWF  FF6
0AB1A:  MOVLW  11
0AB1C:  MOVWF  FF7
0AB1E:  MOVLW  00
0AB20:  MOVWF  FF8
0AB22:  CALL   3DF4
....................             SendDataDisplay();    
0AB26:  CALL   3E26
....................             mSecp=CiclosPersonalizados[CicloLibre-1].Minutosec; 
0AB2A:  MOVLW  01
0AB2C:  MOVLB  3
0AB2E:  SUBWF  x2B,W
0AB30:  MULLW  0A
0AB32:  MOVF   FF3,W
0AB34:  MOVLB  7
0AB36:  CLRF   xB1
0AB38:  MOVWF  xB0
0AB3A:  MOVLW  04
0AB3C:  ADDWF  xB0,W
0AB3E:  MOVWF  01
0AB40:  MOVLW  00
0AB42:  ADDWFC xB1,W
0AB44:  MOVWF  03
0AB46:  MOVF   01,W
0AB48:  ADDLW  C0
0AB4A:  MOVWF  FE9
0AB4C:  MOVLW  06
0AB4E:  ADDWFC 03,W
0AB50:  MOVWF  FEA
0AB52:  MOVFF  FEF,BE
0AB56:  MOVLB  0
....................             sSecp=CiclosPersonalizados[CicloLibre-1].Segundosec; 
0AB58:  MOVLW  01
0AB5A:  MOVLB  3
0AB5C:  SUBWF  x2B,W
0AB5E:  MULLW  0A
0AB60:  MOVF   FF3,W
0AB62:  MOVLB  7
0AB64:  CLRF   xB1
0AB66:  MOVWF  xB0
0AB68:  MOVLW  05
0AB6A:  ADDWF  xB0,W
0AB6C:  MOVWF  01
0AB6E:  MOVLW  00
0AB70:  ADDWFC xB1,W
0AB72:  MOVWF  03
0AB74:  MOVF   01,W
0AB76:  ADDLW  C0
0AB78:  MOVWF  FE9
0AB7A:  MOVLW  06
0AB7C:  ADDWFC 03,W
0AB7E:  MOVWF  FEA
0AB80:  MOVFF  FEF,BD
0AB84:  MOVLB  0
....................          } 
....................       } 
....................        
....................       if(RX_Buffer[4]==0x50 && CicloLibre>0){//50, PulsosVacio 
0AB86:  MOVF   34,W
0AB88:  SUBLW  50
0AB8A:  BNZ   AB9A
0AB8C:  MOVLB  3
0AB8E:  MOVF   x2B,F
0AB90:  BTFSS  FD8.2
0AB92:  BRA    AB98
0AB94:  MOVLB  0
0AB96:  BRA    AB9A
0AB98:  MOVLB  0
....................          /* 
....................          if(codigoUsuario==0 || codigoUsuario==9){ 
....................             printf("page Pulsos"); 
....................             SendDataDisplay();      
....................             Pulsos=CiclosPersonalizados[CicloLibre-1].PulsosVacio; 
....................          } 
....................          */ 
....................       } 
....................        
....................       if(RX_Buffer[4]==0x60 && CicloLibre>0){//60, NivelVacio 
0AB9A:  MOVF   34,W
0AB9C:  SUBLW  60
0AB9E:  BNZ   ABAE
0ABA0:  MOVLB  3
0ABA2:  MOVF   x2B,F
0ABA4:  BTFSS  FD8.2
0ABA6:  BRA    ABAC
0ABA8:  MOVLB  0
0ABAA:  BRA    ABAE
0ABAC:  MOVLB  0
....................          /* 
....................          if(codigoUsuario==0 || codigoUsuario==9){ 
....................             printf("page Nivel"); 
....................             SendDataDisplay();      
....................             Nivel=CiclosPersonalizados[CicloLibre-1].NivelVacio; 
....................          } 
....................          */ 
....................       } 
....................        
....................       if(RX_Buffer[4]==0x80 && CicloLibre>0){//80, NivelDesfogue 
0ABAE:  MOVF   34,W
0ABB0:  SUBLW  80
0ABB2:  BNZ   AC16
0ABB4:  MOVLB  3
0ABB6:  MOVF   x2B,F
0ABB8:  BTFSS  FD8.2
0ABBA:  BRA    ABC0
0ABBC:  MOVLB  0
0ABBE:  BRA    AC16
....................          if(codigoUsuario==0 || codigoUsuario==9){   
0ABC0:  MOVLB  0
0ABC2:  MOVF   xC1,F
0ABC4:  BZ    ABCC
0ABC6:  MOVF   xC1,W
0ABC8:  SUBLW  09
0ABCA:  BNZ   AC16
....................             printf("page NivelDes"); 
0ABCC:  MOVLW  52
0ABCE:  MOVWF  FF6
0ABD0:  MOVLW  11
0ABD2:  MOVWF  FF7
0ABD4:  MOVLW  00
0ABD6:  MOVWF  FF8
0ABD8:  CALL   3DF4
....................             SendDataDisplay();      
0ABDC:  CALL   3E26
....................             NivelDes=CiclosPersonalizados[CicloLibre-1].NivelDesfogue; 
0ABE0:  MOVLW  01
0ABE2:  MOVLB  3
0ABE4:  SUBWF  x2B,W
0ABE6:  MULLW  0A
0ABE8:  MOVF   FF3,W
0ABEA:  MOVLB  7
0ABEC:  CLRF   xB1
0ABEE:  MOVWF  xB0
0ABF0:  MOVLW  08
0ABF2:  ADDWF  xB0,W
0ABF4:  MOVWF  01
0ABF6:  MOVLW  00
0ABF8:  ADDWFC xB1,W
0ABFA:  MOVWF  03
0ABFC:  MOVF   01,W
0ABFE:  ADDLW  C0
0AC00:  MOVWF  FE9
0AC02:  MOVLW  06
0AC04:  ADDWFC 03,W
0AC06:  MOVWF  FEA
0AC08:  MOVFF  FEF,C5
0AC0C:  MOVLB  0
....................             MenuAnt=1; 
0AC0E:  MOVLW  01
0AC10:  MOVLB  3
0AC12:  MOVWF  x46
0AC14:  MOVLB  0
....................          } 
....................       } 
....................        
....................       if(RX_Buffer[4]==0x70 && CicloLibre>0){//70, Iniciar Ciclo 
0AC16:  MOVF   34,W
0AC18:  SUBLW  70
0AC1A:  BTFSS  FD8.2
0AC1C:  BRA    AEF4
0AC1E:  MOVLB  3
0AC20:  MOVF   x2B,F
0AC22:  BTFSS  FD8.2
0AC24:  BRA    AC2A
0AC26:  MOVLB  0
0AC28:  BRA    AEF4
....................          printf("page Funcionamiento"); 
0AC2A:  MOVLW  60
0AC2C:  MOVWF  FF6
0AC2E:  MOVLW  11
0AC30:  MOVWF  FF7
0AC32:  MOVLW  00
0AC34:  MOVWF  FF8
0AC36:  MOVLB  0
0AC38:  CALL   3DF4
....................          SendDataDisplay();        
0AC3C:  CALL   3E26
....................          Libre=ON; 
0AC40:  BSF    xA3.6
....................          if(CiclosPersonalizados[CicloLibre-1].NivelDesfogue>5){ 
0AC42:  MOVLW  01
0AC44:  MOVLB  3
0AC46:  SUBWF  x2B,W
0AC48:  MULLW  0A
0AC4A:  MOVF   FF3,W
0AC4C:  MOVLB  7
0AC4E:  CLRF   xB1
0AC50:  MOVWF  xB0
0AC52:  MOVLW  08
0AC54:  ADDWF  xB0,W
0AC56:  MOVWF  01
0AC58:  MOVLW  00
0AC5A:  ADDWFC xB1,W
0AC5C:  MOVWF  03
0AC5E:  MOVF   01,W
0AC60:  ADDLW  C0
0AC62:  MOVWF  FE9
0AC64:  MOVLW  06
0AC66:  ADDWFC 03,W
0AC68:  MOVWF  FEA
0AC6A:  MOVF   FEF,W
0AC6C:  SUBLW  05
0AC6E:  BTFSC  FD8.0
0AC70:  BRA    AD76
....................             ConfiguraCiclo(CiclosPersonalizados[CicloLibre-1].Segundoest,CiclosPersonalizados[CicloLibre-1].Minutoest, 
....................             CiclosPersonalizados[CicloLibre-1].Segundosec,CiclosPersonalizados[CicloLibre-1].MinutoSec,0,CicloLibre+10, 
....................             CiclosPersonalizados[CicloLibre-1].Temperatura,0,0 
....................             ,0); 
0AC72:  MOVLW  01
0AC74:  MOVLB  3
0AC76:  SUBWF  x2B,W
0AC78:  MULLW  0A
0AC7A:  MOVF   FF3,W
0AC7C:  MOVLB  7
0AC7E:  CLRF   xB1
0AC80:  MOVWF  xB0
0AC82:  MOVLW  03
0AC84:  ADDWF  xB0,W
0AC86:  MOVWF  01
0AC88:  MOVLW  00
0AC8A:  ADDWFC xB1,W
0AC8C:  MOVWF  03
0AC8E:  MOVF   01,W
0AC90:  ADDLW  C0
0AC92:  MOVWF  FE9
0AC94:  MOVLW  06
0AC96:  ADDWFC 03,W
0AC98:  MOVWF  FEA
0AC9A:  MOVFF  FEF,7B0
0AC9E:  MOVLW  01
0ACA0:  MOVLB  3
0ACA2:  SUBWF  x2B,W
0ACA4:  MULLW  0A
0ACA6:  MOVF   FF3,W
0ACA8:  MOVLB  7
0ACAA:  CLRF   xB2
0ACAC:  MOVWF  xB1
0ACAE:  MOVLW  09
0ACB0:  ADDWF  xB1,W
0ACB2:  MOVWF  01
0ACB4:  MOVLW  00
0ACB6:  ADDWFC xB2,W
0ACB8:  MOVWF  03
0ACBA:  MOVF   01,W
0ACBC:  ADDLW  C0
0ACBE:  MOVWF  FE9
0ACC0:  MOVLW  06
0ACC2:  ADDWFC 03,W
0ACC4:  MOVWF  FEA
0ACC6:  MOVFF  FEF,7B1
0ACCA:  MOVLW  01
0ACCC:  MOVLB  3
0ACCE:  SUBWF  x2B,W
0ACD0:  MULLW  0A
0ACD2:  MOVF   FF3,W
0ACD4:  MOVLB  7
0ACD6:  CLRF   xB3
0ACD8:  MOVWF  xB2
0ACDA:  MOVLW  05
0ACDC:  ADDWF  xB2,W
0ACDE:  MOVWF  01
0ACE0:  MOVLW  00
0ACE2:  ADDWFC xB3,W
0ACE4:  MOVWF  03
0ACE6:  MOVF   01,W
0ACE8:  ADDLW  C0
0ACEA:  MOVWF  FE9
0ACEC:  MOVLW  06
0ACEE:  ADDWFC 03,W
0ACF0:  MOVWF  FEA
0ACF2:  MOVFF  FEF,7B2
0ACF6:  MOVLW  01
0ACF8:  MOVLB  3
0ACFA:  SUBWF  x2B,W
0ACFC:  MULLW  0A
0ACFE:  MOVF   FF3,W
0AD00:  MOVLB  7
0AD02:  CLRF   xB4
0AD04:  MOVWF  xB3
0AD06:  MOVLW  04
0AD08:  ADDWF  xB3,W
0AD0A:  MOVWF  01
0AD0C:  MOVLW  00
0AD0E:  ADDWFC xB4,W
0AD10:  MOVWF  03
0AD12:  MOVF   01,W
0AD14:  ADDLW  C0
0AD16:  MOVWF  FE9
0AD18:  MOVLW  06
0AD1A:  ADDWFC 03,W
0AD1C:  MOVWF  FEA
0AD1E:  MOVFF  FEF,7B3
0AD22:  MOVLW  0A
0AD24:  MOVLB  3
0AD26:  ADDWF  x2B,W
0AD28:  MOVLB  7
0AD2A:  MOVWF  xB4
0AD2C:  MOVLW  01
0AD2E:  MOVLB  3
0AD30:  SUBWF  x2B,W
0AD32:  MULLW  0A
0AD34:  MOVF   FF3,W
0AD36:  MOVLB  7
0AD38:  CLRF   xB6
0AD3A:  MOVWF  xB5
0AD3C:  MOVLW  C0
0AD3E:  ADDWF  xB5,W
0AD40:  MOVWF  FE9
0AD42:  MOVLW  06
0AD44:  ADDWFC xB6,W
0AD46:  MOVWF  FEA
0AD48:  MOVFF  FEF,7B5
0AD4C:  MOVFF  7B0,7B6
0AD50:  MOVFF  7B1,7B7
0AD54:  MOVFF  7B2,7B8
0AD58:  MOVFF  7B3,7B9
0AD5C:  CLRF   xBA
0AD5E:  MOVFF  7B4,7BB
0AD62:  MOVFF  7B5,7BC
0AD66:  CLRF   xBD
0AD68:  CLRF   xBE
0AD6A:  CLRF   xBF
0AD6C:  MOVLB  0
0AD6E:  CALL   58D6
....................          }else{ 
0AD72:  BRA    AEC0
0AD74:  MOVLB  7
....................             ConfiguraCiclo(CiclosPersonalizados[CicloLibre-1].Segundoest,CiclosPersonalizados[CicloLibre-1].Minutoest, 
....................             CiclosPersonalizados[CicloLibre-1].Segundosec,CiclosPersonalizados[CicloLibre-1].MinutoSec,1,CicloLibre+10, 
....................             CiclosPersonalizados[CicloLibre-1].Temperatura,0,0 
....................             ,0); 
0AD76:  MOVLW  01
0AD78:  MOVLB  3
0AD7A:  SUBWF  x2B,W
0AD7C:  MULLW  0A
0AD7E:  MOVF   FF3,W
0AD80:  MOVLB  7
0AD82:  CLRF   xB1
0AD84:  MOVWF  xB0
0AD86:  MOVLW  03
0AD88:  ADDWF  xB0,W
0AD8A:  MOVWF  01
0AD8C:  MOVLW  00
0AD8E:  ADDWFC xB1,W
0AD90:  MOVWF  03
0AD92:  MOVF   01,W
0AD94:  ADDLW  C0
0AD96:  MOVWF  FE9
0AD98:  MOVLW  06
0AD9A:  ADDWFC 03,W
0AD9C:  MOVWF  FEA
0AD9E:  MOVFF  FEF,7B0
0ADA2:  MOVLW  01
0ADA4:  MOVLB  3
0ADA6:  SUBWF  x2B,W
0ADA8:  MULLW  0A
0ADAA:  MOVF   FF3,W
0ADAC:  MOVLB  7
0ADAE:  CLRF   xB2
0ADB0:  MOVWF  xB1
0ADB2:  MOVLW  09
0ADB4:  ADDWF  xB1,W
0ADB6:  MOVWF  01
0ADB8:  MOVLW  00
0ADBA:  ADDWFC xB2,W
0ADBC:  MOVWF  03
0ADBE:  MOVF   01,W
0ADC0:  ADDLW  C0
0ADC2:  MOVWF  FE9
0ADC4:  MOVLW  06
0ADC6:  ADDWFC 03,W
0ADC8:  MOVWF  FEA
0ADCA:  MOVFF  FEF,7B1
0ADCE:  MOVLW  01
0ADD0:  MOVLB  3
0ADD2:  SUBWF  x2B,W
0ADD4:  MULLW  0A
0ADD6:  MOVF   FF3,W
0ADD8:  MOVLB  7
0ADDA:  CLRF   xB3
0ADDC:  MOVWF  xB2
0ADDE:  MOVLW  05
0ADE0:  ADDWF  xB2,W
0ADE2:  MOVWF  01
0ADE4:  MOVLW  00
0ADE6:  ADDWFC xB3,W
0ADE8:  MOVWF  03
0ADEA:  MOVF   01,W
0ADEC:  ADDLW  C0
0ADEE:  MOVWF  FE9
0ADF0:  MOVLW  06
0ADF2:  ADDWFC 03,W
0ADF4:  MOVWF  FEA
0ADF6:  MOVFF  FEF,7B2
0ADFA:  MOVLW  01
0ADFC:  MOVLB  3
0ADFE:  SUBWF  x2B,W
0AE00:  MULLW  0A
0AE02:  MOVF   FF3,W
0AE04:  MOVLB  7
0AE06:  CLRF   xB4
0AE08:  MOVWF  xB3
0AE0A:  MOVLW  04
0AE0C:  ADDWF  xB3,W
0AE0E:  MOVWF  01
0AE10:  MOVLW  00
0AE12:  ADDWFC xB4,W
0AE14:  MOVWF  03
0AE16:  MOVF   01,W
0AE18:  ADDLW  C0
0AE1A:  MOVWF  FE9
0AE1C:  MOVLW  06
0AE1E:  ADDWFC 03,W
0AE20:  MOVWF  FEA
0AE22:  MOVFF  FEF,7B3
0AE26:  MOVLW  0A
0AE28:  MOVLB  3
0AE2A:  ADDWF  x2B,W
0AE2C:  MOVLB  7
0AE2E:  MOVWF  xB4
0AE30:  MOVLW  01
0AE32:  MOVLB  3
0AE34:  SUBWF  x2B,W
0AE36:  MULLW  0A
0AE38:  MOVF   FF3,W
0AE3A:  MOVLB  7
0AE3C:  CLRF   xB6
0AE3E:  MOVWF  xB5
0AE40:  MOVLW  C0
0AE42:  ADDWF  xB5,W
0AE44:  MOVWF  FE9
0AE46:  MOVLW  06
0AE48:  ADDWFC xB6,W
0AE4A:  MOVWF  FEA
0AE4C:  MOVFF  FEF,7B5
0AE50:  MOVFF  7B0,7B6
0AE54:  MOVFF  7B1,7B7
0AE58:  MOVFF  7B2,7B8
0AE5C:  MOVFF  7B3,7B9
0AE60:  MOVLW  01
0AE62:  MOVWF  xBA
0AE64:  MOVFF  7B4,7BB
0AE68:  MOVFF  7B5,7BC
0AE6C:  CLRF   xBD
0AE6E:  CLRF   xBE
0AE70:  CLRF   xBF
0AE72:  MOVLB  0
0AE74:  CALL   58D6
....................             NivelSeleccionado=4995*CiclosPersonalizados[CicloLibre-1].NivelDesfogue; 
0AE78:  MOVLW  01
0AE7A:  MOVLB  3
0AE7C:  SUBWF  x2B,W
0AE7E:  MULLW  0A
0AE80:  MOVF   FF3,W
0AE82:  MOVLB  7
0AE84:  CLRF   xB1
0AE86:  MOVWF  xB0
0AE88:  MOVLW  08
0AE8A:  ADDWF  xB0,W
0AE8C:  MOVWF  01
0AE8E:  MOVLW  00
0AE90:  ADDWFC xB1,W
0AE92:  MOVWF  03
0AE94:  MOVF   01,W
0AE96:  ADDLW  C0
0AE98:  MOVWF  FE9
0AE9A:  MOVLW  06
0AE9C:  ADDWFC 03,W
0AE9E:  MOVWF  FEA
0AEA0:  MOVFF  FEF,7B0
0AEA4:  MOVLW  13
0AEA6:  MOVWF  xBB
0AEA8:  MOVLW  83
0AEAA:  MOVWF  xBA
0AEAC:  CLRF   xBD
0AEAE:  MOVFF  7B0,7BC
0AEB2:  MOVLB  0
0AEB4:  CALL   1F28
0AEB8:  MOVFF  02,B6
0AEBC:  MOVFF  01,B5
....................          } 
....................          NivelVacio=CiclosPersonalizados[CicloLibre-1].NivelVacio; 
0AEC0:  MOVLW  01
0AEC2:  MOVLB  3
0AEC4:  SUBWF  x2B,W
0AEC6:  MULLW  0A
0AEC8:  MOVF   FF3,W
0AECA:  MOVLB  7
0AECC:  CLRF   xB1
0AECE:  MOVWF  xB0
0AED0:  MOVLW  07
0AED2:  ADDWF  xB0,W
0AED4:  MOVWF  01
0AED6:  MOVLW  00
0AED8:  ADDWFC xB1,W
0AEDA:  MOVWF  03
0AEDC:  MOVF   01,W
0AEDE:  ADDLW  C0
0AEE0:  MOVWF  FE9
0AEE2:  MOVLW  06
0AEE4:  ADDWFC 03,W
0AEE6:  MOVWF  FEA
0AEE8:  MOVFF  FEF,32D
0AEEC:  MOVLB  3
....................          CantidadPulsos=0; 
0AEEE:  CLRF   x2C
....................          Fugas=OFF; 
0AEF0:  MOVLB  0
0AEF2:  BCF    xA4.0
0AEF4:  MOVLB  3
....................       } 
....................    } 
.................... //_--------------------------------------------------------------------------------------------------------------------------------------------------------        
....................  
.................... //_--------------------------------------------------------------------------------------------------------------------------------------------------------       
....................    if(Menu==9){//Menu de Pulsos de Vacio 
0AEF6:  MOVF   x45,W
0AEF8:  SUBLW  09
0AEFA:  BTFSS  FD8.2
0AEFC:  BRA    B0CC
....................       printf("fecha.txt=\"Fecha:%02u/%02u/20%02u    Hora: %02u:%02u:%02u\"",Dia,Mes,Year,Hora,Minuto,Segundo); 
0AEFE:  MOVLW  74
0AF00:  MOVWF  FF6
0AF02:  MOVLW  11
0AF04:  MOVWF  FF7
0AF06:  MOVLW  00
0AF08:  MOVWF  FF8
0AF0A:  MOVLW  11
0AF0C:  MOVLB  7
0AF0E:  MOVWF  xB5
0AF10:  MOVLB  0
0AF12:  CALL   556C
0AF16:  MOVFF  37D,7B5
0AF1A:  MOVLW  01
0AF1C:  MOVLB  7
0AF1E:  MOVWF  xB6
0AF20:  MOVLB  0
0AF22:  CALL   5858
0AF26:  MOVLW  2F
0AF28:  BTFSS  F9E.4
0AF2A:  BRA    AF28
0AF2C:  MOVWF  FAD
0AF2E:  MOVFF  37C,7B5
0AF32:  MOVLW  01
0AF34:  MOVLB  7
0AF36:  MOVWF  xB6
0AF38:  MOVLB  0
0AF3A:  CALL   5858
0AF3E:  MOVLW  2F
0AF40:  BTFSS  F9E.4
0AF42:  BRA    AF40
0AF44:  MOVWF  FAD
0AF46:  MOVLW  32
0AF48:  BTFSS  F9E.4
0AF4A:  BRA    AF48
0AF4C:  MOVWF  FAD
0AF4E:  MOVLW  30
0AF50:  BTFSS  F9E.4
0AF52:  BRA    AF50
0AF54:  MOVWF  FAD
0AF56:  MOVFF  37B,7B5
0AF5A:  MOVLW  01
0AF5C:  MOVLB  7
0AF5E:  MOVWF  xB6
0AF60:  MOVLB  0
0AF62:  CALL   5858
0AF66:  MOVLW  95
0AF68:  MOVWF  FF6
0AF6A:  MOVLW  11
0AF6C:  MOVWF  FF7
0AF6E:  MOVLW  00
0AF70:  MOVWF  FF8
0AF72:  MOVLW  0A
0AF74:  MOVLB  7
0AF76:  MOVWF  xB5
0AF78:  MOVLB  0
0AF7A:  CALL   556C
0AF7E:  MOVFF  37E,7B5
0AF82:  MOVLW  01
0AF84:  MOVLB  7
0AF86:  MOVWF  xB6
0AF88:  MOVLB  0
0AF8A:  CALL   5858
0AF8E:  MOVLW  3A
0AF90:  BTFSS  F9E.4
0AF92:  BRA    AF90
0AF94:  MOVWF  FAD
0AF96:  MOVFF  37F,7B5
0AF9A:  MOVLW  01
0AF9C:  MOVLB  7
0AF9E:  MOVWF  xB6
0AFA0:  MOVLB  0
0AFA2:  CALL   5858
0AFA6:  MOVLW  3A
0AFA8:  BTFSS  F9E.4
0AFAA:  BRA    AFA8
0AFAC:  MOVWF  FAD
0AFAE:  MOVFF  380,7B5
0AFB2:  MOVLW  01
0AFB4:  MOVLB  7
0AFB6:  MOVWF  xB6
0AFB8:  MOVLB  0
0AFBA:  CALL   5858
0AFBE:  MOVLW  22
0AFC0:  BTFSS  F9E.4
0AFC2:  BRA    AFC0
0AFC4:  MOVWF  FAD
....................       SendDataDisplay(); 
0AFC6:  CALL   3E26
....................          if(Pulsos<2) 
0AFCA:  MOVLB  3
0AFCC:  MOVF   x2E,W
0AFCE:  SUBLW  01
0AFD0:  BNC   AFD6
....................             Pulsos=8; 
0AFD2:  MOVLW  08
0AFD4:  MOVWF  x2E
....................          if(Pulsos>8) 
0AFD6:  MOVF   x2E,W
0AFD8:  SUBLW  08
0AFDA:  BC    AFE0
....................             Pulsos=2; 
0AFDC:  MOVLW  02
0AFDE:  MOVWF  x2E
....................           
....................          if(RX_Buffer[4]==0x11){//Selecciono Regresar 
0AFE0:  MOVF   34,W
0AFE2:  SUBLW  11
0AFE4:  BNZ   B07E
....................             Segundos=OFF; 
0AFE6:  MOVLB  0
0AFE8:  BCF    xA2.5
....................             Minutos=OFF;             
0AFEA:  BCF    xA2.4
....................             printf("page CicloPersona"); 
0AFEC:  MOVLW  B0
0AFEE:  MOVWF  FF6
0AFF0:  MOVLW  11
0AFF2:  MOVWF  FF7
0AFF4:  MOVLW  00
0AFF6:  MOVWF  FF8
0AFF8:  CALL   3DF4
....................             SendDataDisplay();   
0AFFC:  CALL   3E26
....................             if(!GuardaEEPROM){     
0B000:  BTFSC  xA2.6
0B002:  BRA    B07C
....................                CiclosPersonalizados[CicloLibre-1].PulsosVacio=Pulsos; 
0B004:  MOVLW  01
0B006:  MOVLB  3
0B008:  SUBWF  x2B,W
0B00A:  MULLW  0A
0B00C:  MOVF   FF3,W
0B00E:  MOVLB  7
0B010:  CLRF   xB1
0B012:  MOVWF  xB0
0B014:  MOVLW  06
0B016:  ADDWF  xB0,W
0B018:  MOVWF  01
0B01A:  MOVLW  00
0B01C:  ADDWFC xB1,W
0B01E:  MOVWF  03
0B020:  MOVF   01,W
0B022:  ADDLW  C0
0B024:  MOVWF  FE9
0B026:  MOVLW  06
0B028:  ADDWFC 03,W
0B02A:  MOVWF  FEA
0B02C:  MOVFF  32E,FEF
....................                write_eeprom(105+((CicloLibre-1)*8),Pulsos); 
0B030:  MOVLW  01
0B032:  MOVLB  3
0B034:  SUBWF  x2B,W
0B036:  MULLW  08
0B038:  MOVF   FF3,W
0B03A:  ADDLW  69
0B03C:  MOVLB  7
0B03E:  MOVWF  xB0
0B040:  CLRF   FAA
0B042:  MOVFF  7B0,FA9
0B046:  MOVFF  32E,FA8
0B04A:  BCF    FA6.6
0B04C:  BCF    FA6.7
0B04E:  BSF    FA6.2
0B050:  MOVF   FF2,W
0B052:  MOVWF  00
0B054:  BCF    FF2.6
0B056:  BCF    FF2.7
0B058:  MOVLB  F
0B05A:  MOVLW  55
0B05C:  MOVWF  FA7
0B05E:  MOVLW  AA
0B060:  MOVWF  FA7
0B062:  BSF    FA6.1
0B064:  BTFSC  FA6.1
0B066:  BRA    B064
0B068:  BCF    FA6.2
0B06A:  MOVF   00,W
0B06C:  IORWF  FF2,F
....................                delay_ms(20);                            
0B06E:  MOVLW  14
0B070:  MOVLB  7
0B072:  MOVWF  xC0
0B074:  MOVLB  0
0B076:  CALL   1E8C
....................                GuardaEEPROM=ON; 
0B07A:  BSF    xA2.6
0B07C:  MOVLB  3
....................             } 
....................          } 
....................           
....................          if(RX_Buffer[4]==0x0d){//Tecla Arriba Oprimida 
0B07E:  MOVF   34,W
0B080:  SUBLW  0D
0B082:  BNZ   B08A
....................             Pulsos++; 
0B084:  INCF   x2E,F
....................             RX_Buffer[4]=0x00;             
0B086:  CLRF   34
....................             RX_Buffer2[4]=0x00;             
0B088:  CLRF   3F
....................          } 
....................           
....................          if(RX_Buffer[4]==0x0c){//Tecla Abajo Oprimida 
0B08A:  MOVF   34,W
0B08C:  SUBLW  0C
0B08E:  BNZ   B096
....................             Pulsos--; 
0B090:  DECF   x2E,F
....................             RX_Buffer[4]=0x00; 
0B092:  CLRF   34
....................             RX_Buffer2[4]=0x00;                         
0B094:  CLRF   3F
....................          } 
....................           
....................       printf("tpulsos.txt=\"%u\"",Pulsos); 
0B096:  MOVLW  C2
0B098:  MOVWF  FF6
0B09A:  MOVLW  11
0B09C:  MOVWF  FF7
0B09E:  MOVLW  00
0B0A0:  MOVWF  FF8
0B0A2:  MOVLW  0D
0B0A4:  MOVLB  7
0B0A6:  MOVWF  xB5
0B0A8:  MOVLB  0
0B0AA:  CALL   556C
0B0AE:  MOVFF  32E,7B5
0B0B2:  MOVLW  1B
0B0B4:  MOVLB  7
0B0B6:  MOVWF  xB6
0B0B8:  MOVLB  0
0B0BA:  CALL   5858
0B0BE:  MOVLW  22
0B0C0:  BTFSS  F9E.4
0B0C2:  BRA    B0C0
0B0C4:  MOVWF  FAD
....................       SendDataDisplay(); 
0B0C6:  CALL   3E26
0B0CA:  MOVLB  3
....................    } 
.................... //_--------------------------------------------------------------------------------------------------------------------------------------------------------       
....................  
.................... //_--------------------------------------------------------------------------------------------------------------------------------------------------------       
....................    if(Menu==10){//Menu de Usuarios 
0B0CC:  MOVF   x45,W
0B0CE:  SUBLW  0A
0B0D0:  BTFSS  FD8.2
0B0D2:  BRA    B590
....................       printf("fecha.txt=\"T:%2.1fC Fecha:%02u/%02u/20%02u Hora:%02u:%02u:%02u\"",Temperatura,Dia,Mes,Year,Hora,Minuto,Segundo); 
0B0D4:  MOVLW  D4
0B0D6:  MOVWF  FF6
0B0D8:  MOVLW  11
0B0DA:  MOVWF  FF7
0B0DC:  MOVLW  00
0B0DE:  MOVWF  FF8
0B0E0:  MOVLW  0D
0B0E2:  MOVLB  7
0B0E4:  MOVWF  xB5
0B0E6:  MOVLB  0
0B0E8:  CALL   556C
0B0EC:  MOVLW  01
0B0EE:  MOVWF  FE9
0B0F0:  MOVFF  314,7B8
0B0F4:  MOVFF  313,7B7
0B0F8:  MOVFF  312,7B6
0B0FC:  MOVFF  311,7B5
0B100:  MOVLB  7
0B102:  MOVWF  xB9
0B104:  MOVLB  0
0B106:  CALL   5688
0B10A:  MOVLW  E6
0B10C:  MOVWF  FF6
0B10E:  MOVLW  11
0B110:  MOVWF  FF7
0B112:  MOVLW  00
0B114:  MOVWF  FF8
0B116:  MOVLW  09
0B118:  MOVLB  7
0B11A:  MOVWF  xB5
0B11C:  MOVLB  0
0B11E:  CALL   556C
0B122:  MOVFF  37D,7B5
0B126:  MOVLW  01
0B128:  MOVLB  7
0B12A:  MOVWF  xB6
0B12C:  MOVLB  0
0B12E:  CALL   5858
0B132:  MOVLW  2F
0B134:  BTFSS  F9E.4
0B136:  BRA    B134
0B138:  MOVWF  FAD
0B13A:  MOVFF  37C,7B5
0B13E:  MOVLW  01
0B140:  MOVLB  7
0B142:  MOVWF  xB6
0B144:  MOVLB  0
0B146:  CALL   5858
0B14A:  MOVLW  2F
0B14C:  BTFSS  F9E.4
0B14E:  BRA    B14C
0B150:  MOVWF  FAD
0B152:  MOVLW  32
0B154:  BTFSS  F9E.4
0B156:  BRA    B154
0B158:  MOVWF  FAD
0B15A:  MOVLW  30
0B15C:  BTFSS  F9E.4
0B15E:  BRA    B15C
0B160:  MOVWF  FAD
0B162:  MOVFF  37B,7B5
0B166:  MOVLW  01
0B168:  MOVLB  7
0B16A:  MOVWF  xB6
0B16C:  MOVLB  0
0B16E:  CALL   5858
0B172:  MOVLW  FF
0B174:  MOVWF  FF6
0B176:  MOVLW  11
0B178:  MOVWF  FF7
0B17A:  MOVLW  00
0B17C:  MOVWF  FF8
0B17E:  MOVLW  06
0B180:  MOVLB  7
0B182:  MOVWF  xB5
0B184:  MOVLB  0
0B186:  CALL   556C
0B18A:  MOVFF  37E,7B5
0B18E:  MOVLW  01
0B190:  MOVLB  7
0B192:  MOVWF  xB6
0B194:  MOVLB  0
0B196:  CALL   5858
0B19A:  MOVLW  3A
0B19C:  BTFSS  F9E.4
0B19E:  BRA    B19C
0B1A0:  MOVWF  FAD
0B1A2:  MOVFF  37F,7B5
0B1A6:  MOVLW  01
0B1A8:  MOVLB  7
0B1AA:  MOVWF  xB6
0B1AC:  MOVLB  0
0B1AE:  CALL   5858
0B1B2:  MOVLW  3A
0B1B4:  BTFSS  F9E.4
0B1B6:  BRA    B1B4
0B1B8:  MOVWF  FAD
0B1BA:  MOVFF  380,7B5
0B1BE:  MOVLW  01
0B1C0:  MOVLB  7
0B1C2:  MOVWF  xB6
0B1C4:  MOVLB  0
0B1C6:  CALL   5858
0B1CA:  MOVLW  22
0B1CC:  BTFSS  F9E.4
0B1CE:  BRA    B1CC
0B1D0:  MOVWF  FAD
....................       SendDataDisplay(); 
0B1D2:  CALL   3E26
....................       GuardaEEPROM=OFF; 
0B1D6:  BCF    xA2.6
....................       if(ingreso) 
0B1D8:  BTFSS  xA6.1
0B1DA:  BRA    B1E4
....................          TipoClave=2; 
0B1DC:  MOVLW  02
0B1DE:  MOVLB  2
0B1E0:  MOVWF  xCE
....................       else 
0B1E2:  BRA    B1E8
....................          TipoClave=0; 
0B1E4:  MOVLB  2
0B1E6:  CLRF   xCE
....................        
....................       if(RX_Buffer[4]==0x01){//01, Admin 
0B1E8:  DECFSZ 34,W
0B1EA:  BRA    B23C
....................          printf("page Clave"); 
0B1EC:  MOVLW  16
0B1EE:  MOVWF  FF6
0B1F0:  MOVLW  12
0B1F2:  MOVWF  FF7
0B1F4:  MOVLW  00
0B1F6:  MOVWF  FF8
0B1F8:  MOVLB  0
0B1FA:  CALL   3DF4
....................          SendDataDisplay();        
0B1FE:  CALL   3E26
....................          if(!ingreso){ 
0B202:  BTFSC  xA6.1
0B204:  BRA    B236
....................             usuario="Admin"; 
0B206:  MOVLW  03
0B208:  MOVWF  FEA
0B20A:  MOVLW  8E
0B20C:  MOVWF  FE9
0B20E:  MOVFF  FF2,7B0
0B212:  BCF    FF2.6
0B214:  BCF    FF2.7
0B216:  MOVLW  00
0B218:  CALL   0150
0B21C:  TBLRD*-
0B21E:  TBLRD*+
0B220:  MOVF   FF5,W
0B222:  MOVWF  FEE
0B224:  IORLW  00
0B226:  BNZ   B21E
0B228:  MOVLB  7
0B22A:  BTFSC  xB0.6
0B22C:  BSF    FF2.6
0B22E:  BTFSC  xB0.7
0B230:  BSF    FF2.7
....................             codigoUsuario=0; 
0B232:  MOVLB  0
0B234:  CLRF   xC1
....................          } 
....................          codigoUsuario2=0; 
0B236:  CLRF   xC3
....................       }else if(RX_Buffer[4]==0x02){//02, Operador 1 
0B238:  BRA    B562
0B23A:  MOVLB  2
0B23C:  MOVF   34,W
0B23E:  SUBLW  02
0B240:  BNZ   B296
....................          printf("page Clave"); 
0B242:  MOVLW  22
0B244:  MOVWF  FF6
0B246:  MOVLW  12
0B248:  MOVWF  FF7
0B24A:  MOVLW  00
0B24C:  MOVWF  FF8
0B24E:  MOVLB  0
0B250:  CALL   3DF4
....................          SendDataDisplay();        
0B254:  CALL   3E26
....................          if(!ingreso){ 
0B258:  BTFSC  xA6.1
0B25A:  BRA    B28E
....................             usuario="Operador 1"; 
0B25C:  MOVLW  03
0B25E:  MOVWF  FEA
0B260:  MOVLW  8E
0B262:  MOVWF  FE9
0B264:  MOVFF  FF2,7B0
0B268:  BCF    FF2.6
0B26A:  BCF    FF2.7
0B26C:  MOVLW  00
0B26E:  CALL   017A
0B272:  TBLRD*-
0B274:  TBLRD*+
0B276:  MOVF   FF5,W
0B278:  MOVWF  FEE
0B27A:  IORLW  00
0B27C:  BNZ   B274
0B27E:  MOVLB  7
0B280:  BTFSC  xB0.6
0B282:  BSF    FF2.6
0B284:  BTFSC  xB0.7
0B286:  BSF    FF2.7
....................             codigoUsuario=1; 
0B288:  MOVLW  01
0B28A:  MOVLB  0
0B28C:  MOVWF  xC1
....................          } 
....................          codigoUsuario2=1; 
0B28E:  MOVLW  01
0B290:  MOVWF  xC3
....................       }else if(RX_Buffer[4]==0x03){//03, Operador 2 
0B292:  BRA    B562
0B294:  MOVLB  2
0B296:  MOVF   34,W
0B298:  SUBLW  03
0B29A:  BNZ   B2F0
....................          printf("page Clave"); 
0B29C:  MOVLW  2E
0B29E:  MOVWF  FF6
0B2A0:  MOVLW  12
0B2A2:  MOVWF  FF7
0B2A4:  MOVLW  00
0B2A6:  MOVWF  FF8
0B2A8:  MOVLB  0
0B2AA:  CALL   3DF4
....................          SendDataDisplay();        
0B2AE:  CALL   3E26
....................          if(!ingreso){ 
0B2B2:  BTFSC  xA6.1
0B2B4:  BRA    B2E8
....................             usuario="Operador 2"; 
0B2B6:  MOVLW  03
0B2B8:  MOVWF  FEA
0B2BA:  MOVLW  8E
0B2BC:  MOVWF  FE9
0B2BE:  MOVFF  FF2,7B0
0B2C2:  BCF    FF2.6
0B2C4:  BCF    FF2.7
0B2C6:  MOVLW  00
0B2C8:  CALL   01AA
0B2CC:  TBLRD*-
0B2CE:  TBLRD*+
0B2D0:  MOVF   FF5,W
0B2D2:  MOVWF  FEE
0B2D4:  IORLW  00
0B2D6:  BNZ   B2CE
0B2D8:  MOVLB  7
0B2DA:  BTFSC  xB0.6
0B2DC:  BSF    FF2.6
0B2DE:  BTFSC  xB0.7
0B2E0:  BSF    FF2.7
....................             codigoUsuario=2; 
0B2E2:  MOVLW  02
0B2E4:  MOVLB  0
0B2E6:  MOVWF  xC1
....................          } 
....................          codigoUsuario2=2; 
0B2E8:  MOVLW  02
0B2EA:  MOVWF  xC3
....................       }else if(RX_Buffer[4]==0x04){//04, Operador 3 
0B2EC:  BRA    B562
0B2EE:  MOVLB  2
0B2F0:  MOVF   34,W
0B2F2:  SUBLW  04
0B2F4:  BNZ   B34A
....................          printf("page Clave"); 
0B2F6:  MOVLW  3A
0B2F8:  MOVWF  FF6
0B2FA:  MOVLW  12
0B2FC:  MOVWF  FF7
0B2FE:  MOVLW  00
0B300:  MOVWF  FF8
0B302:  MOVLB  0
0B304:  CALL   3DF4
....................          SendDataDisplay();        
0B308:  CALL   3E26
....................          if(!ingreso){ 
0B30C:  BTFSC  xA6.1
0B30E:  BRA    B342
....................             usuario="Operador 3"; 
0B310:  MOVLW  03
0B312:  MOVWF  FEA
0B314:  MOVLW  8E
0B316:  MOVWF  FE9
0B318:  MOVFF  FF2,7B0
0B31C:  BCF    FF2.6
0B31E:  BCF    FF2.7
0B320:  MOVLW  00
0B322:  CALL   01DA
0B326:  TBLRD*-
0B328:  TBLRD*+
0B32A:  MOVF   FF5,W
0B32C:  MOVWF  FEE
0B32E:  IORLW  00
0B330:  BNZ   B328
0B332:  MOVLB  7
0B334:  BTFSC  xB0.6
0B336:  BSF    FF2.6
0B338:  BTFSC  xB0.7
0B33A:  BSF    FF2.7
....................             codigoUsuario=3; 
0B33C:  MOVLW  03
0B33E:  MOVLB  0
0B340:  MOVWF  xC1
....................          } 
....................          codigoUsuario2=3; 
0B342:  MOVLW  03
0B344:  MOVWF  xC3
....................       }else if(RX_Buffer[4]==0x05){//05, Operador 4 
0B346:  BRA    B562
0B348:  MOVLB  2
0B34A:  MOVF   34,W
0B34C:  SUBLW  05
0B34E:  BNZ   B3A4
....................          printf("page Clave"); 
0B350:  MOVLW  46
0B352:  MOVWF  FF6
0B354:  MOVLW  12
0B356:  MOVWF  FF7
0B358:  MOVLW  00
0B35A:  MOVWF  FF8
0B35C:  MOVLB  0
0B35E:  CALL   3DF4
....................          SendDataDisplay();        
0B362:  CALL   3E26
....................          if(!ingreso){ 
0B366:  BTFSC  xA6.1
0B368:  BRA    B39C
....................             usuario="Operador 4"; 
0B36A:  MOVLW  03
0B36C:  MOVWF  FEA
0B36E:  MOVLW  8E
0B370:  MOVWF  FE9
0B372:  MOVFF  FF2,7B0
0B376:  BCF    FF2.6
0B378:  BCF    FF2.7
0B37A:  MOVLW  00
0B37C:  CALL   020A
0B380:  TBLRD*-
0B382:  TBLRD*+
0B384:  MOVF   FF5,W
0B386:  MOVWF  FEE
0B388:  IORLW  00
0B38A:  BNZ   B382
0B38C:  MOVLB  7
0B38E:  BTFSC  xB0.6
0B390:  BSF    FF2.6
0B392:  BTFSC  xB0.7
0B394:  BSF    FF2.7
....................             codigoUsuario=4; 
0B396:  MOVLW  04
0B398:  MOVLB  0
0B39A:  MOVWF  xC1
....................          } 
....................          codigoUsuario2=4; 
0B39C:  MOVLW  04
0B39E:  MOVWF  xC3
....................       }else if(RX_Buffer[4]==0x06){//06, Operador 5 
0B3A0:  BRA    B562
0B3A2:  MOVLB  2
0B3A4:  MOVF   34,W
0B3A6:  SUBLW  06
0B3A8:  BNZ   B3FE
....................          printf("page Clave"); 
0B3AA:  MOVLW  52
0B3AC:  MOVWF  FF6
0B3AE:  MOVLW  12
0B3B0:  MOVWF  FF7
0B3B2:  MOVLW  00
0B3B4:  MOVWF  FF8
0B3B6:  MOVLB  0
0B3B8:  CALL   3DF4
....................          SendDataDisplay();        
0B3BC:  CALL   3E26
....................          if(!ingreso){ 
0B3C0:  BTFSC  xA6.1
0B3C2:  BRA    B3F6
....................             usuario="Operador 5"; 
0B3C4:  MOVLW  03
0B3C6:  MOVWF  FEA
0B3C8:  MOVLW  8E
0B3CA:  MOVWF  FE9
0B3CC:  MOVFF  FF2,7B0
0B3D0:  BCF    FF2.6
0B3D2:  BCF    FF2.7
0B3D4:  MOVLW  00
0B3D6:  CALL   023A
0B3DA:  TBLRD*-
0B3DC:  TBLRD*+
0B3DE:  MOVF   FF5,W
0B3E0:  MOVWF  FEE
0B3E2:  IORLW  00
0B3E4:  BNZ   B3DC
0B3E6:  MOVLB  7
0B3E8:  BTFSC  xB0.6
0B3EA:  BSF    FF2.6
0B3EC:  BTFSC  xB0.7
0B3EE:  BSF    FF2.7
....................             codigoUsuario=5; 
0B3F0:  MOVLW  05
0B3F2:  MOVLB  0
0B3F4:  MOVWF  xC1
....................          } 
....................          codigoUsuario2=5; 
0B3F6:  MOVLW  05
0B3F8:  MOVWF  xC3
....................       }else if(RX_Buffer[4]==0x07){//07, Operador 6 
0B3FA:  BRA    B562
0B3FC:  MOVLB  2
0B3FE:  MOVF   34,W
0B400:  SUBLW  07
0B402:  BNZ   B458
....................          printf("page Clave"); 
0B404:  MOVLW  5E
0B406:  MOVWF  FF6
0B408:  MOVLW  12
0B40A:  MOVWF  FF7
0B40C:  MOVLW  00
0B40E:  MOVWF  FF8
0B410:  MOVLB  0
0B412:  CALL   3DF4
....................          SendDataDisplay();        
0B416:  CALL   3E26
....................          if(!ingreso){ 
0B41A:  BTFSC  xA6.1
0B41C:  BRA    B450
....................             usuario="Operador 6"; 
0B41E:  MOVLW  03
0B420:  MOVWF  FEA
0B422:  MOVLW  8E
0B424:  MOVWF  FE9
0B426:  MOVFF  FF2,7B0
0B42A:  BCF    FF2.6
0B42C:  BCF    FF2.7
0B42E:  MOVLW  00
0B430:  CALL   026A
0B434:  TBLRD*-
0B436:  TBLRD*+
0B438:  MOVF   FF5,W
0B43A:  MOVWF  FEE
0B43C:  IORLW  00
0B43E:  BNZ   B436
0B440:  MOVLB  7
0B442:  BTFSC  xB0.6
0B444:  BSF    FF2.6
0B446:  BTFSC  xB0.7
0B448:  BSF    FF2.7
....................             codigoUsuario=6; 
0B44A:  MOVLW  06
0B44C:  MOVLB  0
0B44E:  MOVWF  xC1
....................          } 
....................          codigoUsuario2=6; 
0B450:  MOVLW  06
0B452:  MOVWF  xC3
....................       }else if(RX_Buffer[4]==0x08){//08, Operador 7 
0B454:  BRA    B562
0B456:  MOVLB  2
0B458:  MOVF   34,W
0B45A:  SUBLW  08
0B45C:  BNZ   B4B2
....................          printf("page Clave"); 
0B45E:  MOVLW  6A
0B460:  MOVWF  FF6
0B462:  MOVLW  12
0B464:  MOVWF  FF7
0B466:  MOVLW  00
0B468:  MOVWF  FF8
0B46A:  MOVLB  0
0B46C:  CALL   3DF4
....................          SendDataDisplay();        
0B470:  CALL   3E26
....................          if(!ingreso){ 
0B474:  BTFSC  xA6.1
0B476:  BRA    B4AA
....................             usuario="Operador 7"; 
0B478:  MOVLW  03
0B47A:  MOVWF  FEA
0B47C:  MOVLW  8E
0B47E:  MOVWF  FE9
0B480:  MOVFF  FF2,7B0
0B484:  BCF    FF2.6
0B486:  BCF    FF2.7
0B488:  MOVLW  00
0B48A:  CALL   029A
0B48E:  TBLRD*-
0B490:  TBLRD*+
0B492:  MOVF   FF5,W
0B494:  MOVWF  FEE
0B496:  IORLW  00
0B498:  BNZ   B490
0B49A:  MOVLB  7
0B49C:  BTFSC  xB0.6
0B49E:  BSF    FF2.6
0B4A0:  BTFSC  xB0.7
0B4A2:  BSF    FF2.7
....................             codigoUsuario=7; 
0B4A4:  MOVLW  07
0B4A6:  MOVLB  0
0B4A8:  MOVWF  xC1
....................          } 
....................          codigoUsuario2=7; 
0B4AA:  MOVLW  07
0B4AC:  MOVWF  xC3
....................       }else if(RX_Buffer[4]==0x09){//09, Operador 8 
0B4AE:  BRA    B562
0B4B0:  MOVLB  2
0B4B2:  MOVF   34,W
0B4B4:  SUBLW  09
0B4B6:  BNZ   B50C
....................          printf("page Clave"); 
0B4B8:  MOVLW  76
0B4BA:  MOVWF  FF6
0B4BC:  MOVLW  12
0B4BE:  MOVWF  FF7
0B4C0:  MOVLW  00
0B4C2:  MOVWF  FF8
0B4C4:  MOVLB  0
0B4C6:  CALL   3DF4
....................          SendDataDisplay();        
0B4CA:  CALL   3E26
....................          if(!ingreso){ 
0B4CE:  BTFSC  xA6.1
0B4D0:  BRA    B504
....................             usuario="Operador 8"; 
0B4D2:  MOVLW  03
0B4D4:  MOVWF  FEA
0B4D6:  MOVLW  8E
0B4D8:  MOVWF  FE9
0B4DA:  MOVFF  FF2,7B0
0B4DE:  BCF    FF2.6
0B4E0:  BCF    FF2.7
0B4E2:  MOVLW  00
0B4E4:  CALL   02CA
0B4E8:  TBLRD*-
0B4EA:  TBLRD*+
0B4EC:  MOVF   FF5,W
0B4EE:  MOVWF  FEE
0B4F0:  IORLW  00
0B4F2:  BNZ   B4EA
0B4F4:  MOVLB  7
0B4F6:  BTFSC  xB0.6
0B4F8:  BSF    FF2.6
0B4FA:  BTFSC  xB0.7
0B4FC:  BSF    FF2.7
....................             codigoUsuario=8; 
0B4FE:  MOVLW  08
0B500:  MOVLB  0
0B502:  MOVWF  xC1
....................          } 
....................          codigoUsuario2=8; 
0B504:  MOVLW  08
0B506:  MOVWF  xC3
....................       }else if(RX_Buffer[4]==0x0a){//0a, Tecnico 
0B508:  BRA    B562
0B50A:  MOVLB  2
0B50C:  MOVF   34,W
0B50E:  SUBLW  0A
0B510:  BNZ   B564
....................          printf("page Clave"); 
0B512:  MOVLW  82
0B514:  MOVWF  FF6
0B516:  MOVLW  12
0B518:  MOVWF  FF7
0B51A:  MOVLW  00
0B51C:  MOVWF  FF8
0B51E:  MOVLB  0
0B520:  CALL   3DF4
....................          SendDataDisplay();        
0B524:  CALL   3E26
....................          if(!ingreso){ 
0B528:  BTFSC  xA6.1
0B52A:  BRA    B55E
....................             usuario="Tecnico"; 
0B52C:  MOVLW  03
0B52E:  MOVWF  FEA
0B530:  MOVLW  8E
0B532:  MOVWF  FE9
0B534:  MOVFF  FF2,7B0
0B538:  BCF    FF2.6
0B53A:  BCF    FF2.7
0B53C:  MOVLW  00
0B53E:  CALL   02FA
0B542:  TBLRD*-
0B544:  TBLRD*+
0B546:  MOVF   FF5,W
0B548:  MOVWF  FEE
0B54A:  IORLW  00
0B54C:  BNZ   B544
0B54E:  MOVLB  7
0B550:  BTFSC  xB0.6
0B552:  BSF    FF2.6
0B554:  BTFSC  xB0.7
0B556:  BSF    FF2.7
....................             codigoUsuario=9; 
0B558:  MOVLW  09
0B55A:  MOVLB  0
0B55C:  MOVWF  xC1
....................          } 
....................          codigoUsuario2=9; 
0B55E:  MOVLW  09
0B560:  MOVWF  xC3
0B562:  MOVLB  2
....................       } 
....................        
....................       if(RX_Buffer[4]==0xaa && ingreso){//aa, Regresar 
0B564:  MOVF   34,W
0B566:  SUBLW  AA
0B568:  BNZ   B58E
0B56A:  MOVLB  0
0B56C:  BTFSC  xA6.1
0B56E:  BRA    B574
0B570:  MOVLB  2
0B572:  BRA    B58E
....................          printf("page Ajustes"); 
0B574:  MOVLW  8E
0B576:  MOVWF  FF6
0B578:  MOVLW  12
0B57A:  MOVWF  FF7
0B57C:  MOVLW  00
0B57E:  MOVWF  FF8
0B580:  CALL   3DF4
....................          SendDataDisplay();        
0B584:  CALL   3E26
....................          codigoUsuario2=10; 
0B588:  MOVLW  0A
0B58A:  MOVWF  xC3
0B58C:  MOVLB  2
0B58E:  MOVLB  3
....................       } 
....................    } 
.................... //_--------------------------------------------------------------------------------------------------------------------------------------------------------       
....................  
.................... //_--------------------------------------------------------------------------------------------------------------------------------------------------------       
....................    if(Menu==11){//Menu de Configuraciones 
0B590:  MOVF   x45,W
0B592:  SUBLW  0B
0B594:  BTFSS  FD8.2
0B596:  BRA    B802
....................       printf("fecha.txt=\"T:%2.1fC Fecha:%02u/%02u/20%02u Hora:%02u:%02u:%02u\"",Temperatura,Dia,Mes,Year,Hora,Minuto,Segundo); 
0B598:  MOVLW  9C
0B59A:  MOVWF  FF6
0B59C:  MOVLW  12
0B59E:  MOVWF  FF7
0B5A0:  MOVLW  00
0B5A2:  MOVWF  FF8
0B5A4:  MOVLW  0D
0B5A6:  MOVLB  7
0B5A8:  MOVWF  xB5
0B5AA:  MOVLB  0
0B5AC:  CALL   556C
0B5B0:  MOVLW  01
0B5B2:  MOVWF  FE9
0B5B4:  MOVFF  314,7B8
0B5B8:  MOVFF  313,7B7
0B5BC:  MOVFF  312,7B6
0B5C0:  MOVFF  311,7B5
0B5C4:  MOVLB  7
0B5C6:  MOVWF  xB9
0B5C8:  MOVLB  0
0B5CA:  CALL   5688
0B5CE:  MOVLW  AE
0B5D0:  MOVWF  FF6
0B5D2:  MOVLW  12
0B5D4:  MOVWF  FF7
0B5D6:  MOVLW  00
0B5D8:  MOVWF  FF8
0B5DA:  MOVLW  09
0B5DC:  MOVLB  7
0B5DE:  MOVWF  xB5
0B5E0:  MOVLB  0
0B5E2:  CALL   556C
0B5E6:  MOVFF  37D,7B5
0B5EA:  MOVLW  01
0B5EC:  MOVLB  7
0B5EE:  MOVWF  xB6
0B5F0:  MOVLB  0
0B5F2:  CALL   5858
0B5F6:  MOVLW  2F
0B5F8:  BTFSS  F9E.4
0B5FA:  BRA    B5F8
0B5FC:  MOVWF  FAD
0B5FE:  MOVFF  37C,7B5
0B602:  MOVLW  01
0B604:  MOVLB  7
0B606:  MOVWF  xB6
0B608:  MOVLB  0
0B60A:  CALL   5858
0B60E:  MOVLW  2F
0B610:  BTFSS  F9E.4
0B612:  BRA    B610
0B614:  MOVWF  FAD
0B616:  MOVLW  32
0B618:  BTFSS  F9E.4
0B61A:  BRA    B618
0B61C:  MOVWF  FAD
0B61E:  MOVLW  30
0B620:  BTFSS  F9E.4
0B622:  BRA    B620
0B624:  MOVWF  FAD
0B626:  MOVFF  37B,7B5
0B62A:  MOVLW  01
0B62C:  MOVLB  7
0B62E:  MOVWF  xB6
0B630:  MOVLB  0
0B632:  CALL   5858
0B636:  MOVLW  C7
0B638:  MOVWF  FF6
0B63A:  MOVLW  12
0B63C:  MOVWF  FF7
0B63E:  MOVLW  00
0B640:  MOVWF  FF8
0B642:  MOVLW  06
0B644:  MOVLB  7
0B646:  MOVWF  xB5
0B648:  MOVLB  0
0B64A:  CALL   556C
0B64E:  MOVFF  37E,7B5
0B652:  MOVLW  01
0B654:  MOVLB  7
0B656:  MOVWF  xB6
0B658:  MOVLB  0
0B65A:  CALL   5858
0B65E:  MOVLW  3A
0B660:  BTFSS  F9E.4
0B662:  BRA    B660
0B664:  MOVWF  FAD
0B666:  MOVFF  37F,7B5
0B66A:  MOVLW  01
0B66C:  MOVLB  7
0B66E:  MOVWF  xB6
0B670:  MOVLB  0
0B672:  CALL   5858
0B676:  MOVLW  3A
0B678:  BTFSS  F9E.4
0B67A:  BRA    B678
0B67C:  MOVWF  FAD
0B67E:  MOVFF  380,7B5
0B682:  MOVLW  01
0B684:  MOVLB  7
0B686:  MOVWF  xB6
0B688:  MOVLB  0
0B68A:  CALL   5858
0B68E:  MOVLW  22
0B690:  BTFSS  F9E.4
0B692:  BRA    B690
0B694:  MOVWF  FAD
....................       SendDataDisplay(); 
0B696:  CALL   3E26
....................       GuardaEEPROM=OFF; 
0B69A:  BCF    xA2.6
....................       printf("tuser.txt=\"%s\"",usuario); 
0B69C:  MOVLW  DE
0B69E:  MOVWF  FF6
0B6A0:  MOVLW  12
0B6A2:  MOVWF  FF7
0B6A4:  MOVLW  00
0B6A6:  MOVWF  FF8
0B6A8:  MOVLW  0B
0B6AA:  MOVLB  7
0B6AC:  MOVWF  xB5
0B6AE:  MOVLB  0
0B6B0:  CALL   556C
0B6B4:  MOVLW  03
0B6B6:  MOVWF  FEA
0B6B8:  MOVLW  8E
0B6BA:  MOVWF  FE9
0B6BC:  CALL   559E
0B6C0:  MOVLW  22
0B6C2:  BTFSS  F9E.4
0B6C4:  BRA    B6C2
0B6C6:  MOVWF  FAD
....................       SendDataDisplay(); 
0B6C8:  CALL   3E26
....................       TipoClave=0; 
0B6CC:  MOVLB  2
0B6CE:  CLRF   xCE
....................        
....................       if(RX_Buffer[4]==0x01){//01, Ciclos 
0B6D0:  DECFSZ 34,W
0B6D2:  BRA    B6EC
....................          printf("page Ciclos"); 
0B6D4:  MOVLW  EE
0B6D6:  MOVWF  FF6
0B6D8:  MOVLW  12
0B6DA:  MOVWF  FF7
0B6DC:  MOVLW  00
0B6DE:  MOVWF  FF8
0B6E0:  MOVLB  0
0B6E2:  CALL   3DF4
....................          SendDataDisplay();      
0B6E6:  CALL   3E26
0B6EA:  MOVLB  2
....................       } 
....................        
....................       if(RX_Buffer[4]==0x02){//02, Test de Componentes 
0B6EC:  MOVF   34,W
0B6EE:  SUBLW  02
0B6F0:  BNZ   B70A
....................          printf("page Test"); 
0B6F2:  MOVLW  FA
0B6F4:  MOVWF  FF6
0B6F6:  MOVLW  12
0B6F8:  MOVWF  FF7
0B6FA:  MOVLW  00
0B6FC:  MOVWF  FF8
0B6FE:  MOVLB  0
0B700:  CALL   3DF4
....................          SendDataDisplay();      
0B704:  CALL   3E26
0B708:  MOVLB  2
....................       } 
....................        
....................       if(RX_Buffer[4]==0x03){//03, Modificacin de clave Usuarios 
0B70A:  MOVF   34,W
0B70C:  SUBLW  03
0B70E:  BNZ   B728
....................          printf("page Usuarios"); 
0B710:  MOVLW  04
0B712:  MOVWF  FF6
0B714:  MOVLW  13
0B716:  MOVWF  FF7
0B718:  MOVLW  00
0B71A:  MOVWF  FF8
0B71C:  MOVLB  0
0B71E:  CALL   3DF4
....................          SendDataDisplay();      
0B722:  CALL   3E26
0B726:  MOVLB  2
....................       } 
....................        
....................       if(RX_Buffer[4]==0x04){//03, Modificacin de clave Usuarios 
0B728:  MOVF   34,W
0B72A:  SUBLW  04
0B72C:  BNZ   B746
....................          printf("page Activa"); 
0B72E:  MOVLW  12
0B730:  MOVWF  FF6
0B732:  MOVLW  13
0B734:  MOVWF  FF7
0B736:  MOVLW  00
0B738:  MOVWF  FF8
0B73A:  MOVLB  0
0B73C:  CALL   3DF4
....................          SendDataDisplay();      
0B740:  CALL   3E26
0B744:  MOVLB  2
....................       } 
....................        
....................       if(RX_Buffer[4]==0x11 && CodigoUsuario==9){//11, Menu Oculto Tecnico 
0B746:  MOVF   34,W
0B748:  SUBLW  11
0B74A:  BNZ   B774
0B74C:  MOVLB  0
0B74E:  MOVF   xC1,W
0B750:  SUBLW  09
0B752:  BTFSC  FD8.2
0B754:  BRA    B75A
0B756:  MOVLB  2
0B758:  BRA    B774
....................          printf("page Clave"); 
0B75A:  MOVLW  1E
0B75C:  MOVWF  FF6
0B75E:  MOVLW  13
0B760:  MOVWF  FF7
0B762:  MOVLW  00
0B764:  MOVWF  FF8
0B766:  CALL   3DF4
....................          SendDataDisplay();  
0B76A:  CALL   3E26
....................          TipoClave=1; 
0B76E:  MOVLW  01
0B770:  MOVLB  2
0B772:  MOVWF  xCE
....................       } 
....................        
....................       if(RX_Buffer[4]==0x05){//05, Hora y Fecha 
0B774:  MOVF   34,W
0B776:  SUBLW  05
0B778:  BNZ   B7A6
....................          printf("page Fecha"); 
0B77A:  MOVLW  2A
0B77C:  MOVWF  FF6
0B77E:  MOVLW  13
0B780:  MOVWF  FF7
0B782:  MOVLW  00
0B784:  MOVWF  FF8
0B786:  MOVLB  0
0B788:  CALL   3DF4
....................          SendDataDisplay();      
0B78C:  CALL   3E26
....................          DiaTx=Dia; 
0B790:  MOVFF  37D,384
....................          MesTx=Mes; 
0B794:  MOVFF  37C,383
....................          YearTx=Year; 
0B798:  MOVFF  37B,382
....................          HoraTx=Hora; 
0B79C:  MOVFF  37E,385
....................          MinutoTx=Minuto; 
0B7A0:  MOVFF  37F,386
0B7A4:  MOVLB  2
....................       } 
....................        
....................       if(RX_Buffer[4]==0xa0){//a0, Menu Principal 
0B7A6:  MOVF   34,W
0B7A8:  SUBLW  A0
0B7AA:  BNZ   B7C4
....................          printf("page MenuPrincipal"); 
0B7AC:  MOVLW  36
0B7AE:  MOVWF  FF6
0B7B0:  MOVLW  13
0B7B2:  MOVWF  FF7
0B7B4:  MOVLW  00
0B7B6:  MOVWF  FF8
0B7B8:  MOVLB  0
0B7BA:  CALL   3DF4
....................          SendDataDisplay();      
0B7BE:  CALL   3E26
0B7C2:  MOVLB  2
....................       } 
....................        
....................       if(RX_Buffer[4]==0xb0){//b0, Personalizados 
0B7C4:  MOVF   34,W
0B7C6:  SUBLW  B0
0B7C8:  BNZ   B7E2
....................          printf("page CicloPersona"); 
0B7CA:  MOVLW  4A
0B7CC:  MOVWF  FF6
0B7CE:  MOVLW  13
0B7D0:  MOVWF  FF7
0B7D2:  MOVLW  00
0B7D4:  MOVWF  FF8
0B7D6:  MOVLB  0
0B7D8:  CALL   3DF4
....................          SendDataDisplay();      
0B7DC:  CALL   3E26
0B7E0:  MOVLB  2
....................       } 
....................        
....................       if(RX_Buffer[4]==0xc0){//c0, Configuraciones 
0B7E2:  MOVF   34,W
0B7E4:  SUBLW  C0
0B7E6:  BNZ   B800
....................          printf("page Ajustes"); 
0B7E8:  MOVLW  5C
0B7EA:  MOVWF  FF6
0B7EC:  MOVLW  13
0B7EE:  MOVWF  FF7
0B7F0:  MOVLW  00
0B7F2:  MOVWF  FF8
0B7F4:  MOVLB  0
0B7F6:  CALL   3DF4
....................          SendDataDisplay();      
0B7FA:  CALL   3E26
0B7FE:  MOVLB  2
0B800:  MOVLB  3
....................       } 
....................    } 
.................... //_--------------------------------------------------------------------------------------------------------------------------------------------------------       
....................  
.................... //_--------------------------------------------------------------------------------------------------------------------------------------------------------       
....................    if(Menu==12){//Menu de Visualizacion de Ciclos Realizados 
0B802:  MOVF   x45,W
0B804:  SUBLW  0C
0B806:  BTFSS  FD8.2
0B808:  GOTO   C308
....................       //printf("fecha.txt=\"Fecha:%02u/%02u/20%02u    Hora: %02u:%02u\"",Dia,Mes,Year,Hora,Minuto); 
....................       //SendDataDisplay(); 
....................       GuardaEEPROM=OFF; 
0B80C:  MOVLB  0
0B80E:  BCF    xA2.6
....................       /*  
....................       i2c_start();            // Comienzo de la comunicacin 
....................       i2c_write(0xA0);   // Direccin del esclavo en el bus I2C 
....................       i2c_write(9);    // Posicin de donde se leer el dato en el esclavo 
....................       i2c_write(0);    // Posicin de donde se leer el dato en el esclavo 
....................       i2c_start();            // Reinicio 
....................       i2c_write(direccion+1); // Direccin del esclavo en modo lectura 
....................       dato=i2c_read(0);       // Lectura del dato 
....................       i2c_stop(); 
....................       */       
....................       printf("estado.txt=\"----\""); 
0B810:  MOVLW  6A
0B812:  MOVWF  FF6
0B814:  MOVLW  13
0B816:  MOVWF  FF7
0B818:  MOVLW  00
0B81A:  MOVWF  FF8
0B81C:  CALL   3DF4
....................       SendDataDisplay();    
0B820:  CALL   3E26
....................        
....................       if(RX_Buffer[6]==0x01){//01, Ciclos 
0B824:  DECFSZ 36,W
0B826:  BRA    B83C
....................          printf("page Ajustes"); 
0B828:  MOVLW  7C
0B82A:  MOVWF  FF6
0B82C:  MOVLW  13
0B82E:  MOVWF  FF7
0B830:  MOVLW  00
0B832:  MOVWF  FF8
0B834:  CALL   3DF4
....................          SendDataDisplay();      
0B838:  CALL   3E26
....................       } 
....................        
....................       if(RX_Buffer[6]==0x02){//02, Exportar 
0B83C:  MOVF   36,W
0B83E:  SUBLW  02
0B840:  BNZ   B84A
....................          RX_Buffer[6]=0x00;   
0B842:  CLRF   36
....................          RX_Buffer2[6]=0x00; 
0B844:  CLRF   41
....................          exportarData(); 
0B846:  GOTO   5D70
....................       } 
....................        
....................       if(RX_Buffer[4]>0x00 && RX_Buffer[5]>0x00){ 
0B84A:  MOVF   34,F
0B84C:  BTFSC  FD8.2
0B84E:  BRA    BF1A
0B850:  MOVF   35,F
0B852:  BTFSC  FD8.2
0B854:  BRA    BF1A
....................          cicloVisualizado=RX_Buffer[4]-1; 
0B856:  MOVLW  01
0B858:  SUBWF  34,W
0B85A:  MOVWF  xC2
....................          cicloVisto=RX_Buffer[5]-1; 
0B85C:  MOVLW  01
0B85E:  SUBWF  35,W
0B860:  MOVWF  xC0
....................          RX_Buffer[4]=0x00; 
0B862:  CLRF   34
....................          RX_Buffer[5]=0x00; 
0B864:  CLRF   35
....................          RX_Buffer2[4]=0x00; 
0B866:  CLRF   3F
....................          RX_Buffer2[5]=0x00; 
0B868:  CLRF   40
....................          diaCiclos=read_ext_eeprom(2+(cicloVisto*320)); 
0B86A:  MOVLB  7
0B86C:  CLRF   xBB
0B86E:  MOVFF  C0,7BA
0B872:  MOVLW  01
0B874:  MOVWF  xBD
0B876:  MOVLW  40
0B878:  MOVWF  xBC
0B87A:  MOVLB  0
0B87C:  CALL   1F28
0B880:  MOVFF  02,03
0B884:  MOVF   01,W
0B886:  ADDLW  02
0B888:  MOVLB  7
0B88A:  MOVWF  xB0
0B88C:  MOVLW  00
0B88E:  ADDWFC 02,W
0B890:  MOVWF  xB1
0B892:  MOVWF  xB6
0B894:  MOVFF  7B0,7B5
0B898:  MOVLB  0
0B89A:  CALL   202A
0B89E:  MOVFF  01,3EF
....................          if(diaCiclos>31) 
0B8A2:  MOVLB  3
0B8A4:  MOVF   xEF,W
0B8A6:  SUBLW  1F
0B8A8:  BC    B8AE
....................             diaCiclos=1; 
0B8AA:  MOVLW  01
0B8AC:  MOVWF  xEF
....................          mesCiclos=read_ext_eeprom(3+(cicloVisto*320)); 
0B8AE:  MOVLB  7
0B8B0:  CLRF   xBB
0B8B2:  MOVFF  C0,7BA
0B8B6:  MOVLW  01
0B8B8:  MOVWF  xBD
0B8BA:  MOVLW  40
0B8BC:  MOVWF  xBC
0B8BE:  MOVLB  0
0B8C0:  CALL   1F28
0B8C4:  MOVFF  02,03
0B8C8:  MOVF   01,W
0B8CA:  ADDLW  03
0B8CC:  MOVLB  7
0B8CE:  MOVWF  xB0
0B8D0:  MOVLW  00
0B8D2:  ADDWFC 02,W
0B8D4:  MOVWF  xB1
0B8D6:  MOVWF  xB6
0B8D8:  MOVFF  7B0,7B5
0B8DC:  MOVLB  0
0B8DE:  CALL   202A
0B8E2:  MOVFF  01,3F0
....................          if(mesCiclos>12) 
0B8E6:  MOVLB  3
0B8E8:  MOVF   xF0,W
0B8EA:  SUBLW  0C
0B8EC:  BC    B8F2
....................             mesCiclos=1; 
0B8EE:  MOVLW  01
0B8F0:  MOVWF  xF0
....................          yearCiclos=read_ext_eeprom(4+(cicloVisto*320)); 
0B8F2:  MOVLB  7
0B8F4:  CLRF   xBB
0B8F6:  MOVFF  C0,7BA
0B8FA:  MOVLW  01
0B8FC:  MOVWF  xBD
0B8FE:  MOVLW  40
0B900:  MOVWF  xBC
0B902:  MOVLB  0
0B904:  CALL   1F28
0B908:  MOVFF  02,03
0B90C:  MOVF   01,W
0B90E:  ADDLW  04
0B910:  MOVLB  7
0B912:  MOVWF  xB0
0B914:  MOVLW  00
0B916:  ADDWFC 02,W
0B918:  MOVWF  xB1
0B91A:  MOVWF  xB6
0B91C:  MOVFF  7B0,7B5
0B920:  MOVLB  0
0B922:  CALL   202A
0B926:  MOVFF  01,3F1
....................          if(yearCiclos>99) 
0B92A:  MOVLB  3
0B92C:  MOVF   xF1,W
0B92E:  SUBLW  63
0B930:  BC    B936
....................             yearCiclos=19; 
0B932:  MOVLW  13
0B934:  MOVWF  xF1
....................          cicloCiclos=read_ext_eeprom(1+(cicloVisto*320)); 
0B936:  MOVLB  7
0B938:  CLRF   xBB
0B93A:  MOVFF  C0,7BA
0B93E:  MOVLW  01
0B940:  MOVWF  xBD
0B942:  MOVLW  40
0B944:  MOVWF  xBC
0B946:  MOVLB  0
0B948:  CALL   1F28
0B94C:  MOVFF  02,03
0B950:  MOVF   01,W
0B952:  ADDLW  01
0B954:  MOVLB  7
0B956:  MOVWF  xB0
0B958:  MOVLW  00
0B95A:  ADDWFC 02,W
0B95C:  MOVWF  xB1
0B95E:  MOVWF  xB6
0B960:  MOVFF  7B0,7B5
0B964:  MOVLB  0
0B966:  CALL   202A
0B96A:  MOVFF  01,3F3
....................          if(cicloCiclos>20) 
0B96E:  MOVLB  3
0B970:  MOVF   xF3,W
0B972:  SUBLW  14
0B974:  BC    B97A
....................             cicloCiclos=1; 
0B976:  MOVLW  01
0B978:  MOVWF  xF3
....................          usuarioCiclos=read_ext_eeprom((cicloVisto*320)); 
0B97A:  MOVLB  7
0B97C:  CLRF   xBB
0B97E:  MOVFF  C0,7BA
0B982:  MOVLW  01
0B984:  MOVWF  xBD
0B986:  MOVLW  40
0B988:  MOVWF  xBC
0B98A:  MOVLB  0
0B98C:  CALL   1F28
0B990:  MOVFF  02,7B1
0B994:  MOVFF  01,7B0
0B998:  MOVFF  02,7B6
0B99C:  MOVFF  01,7B5
0B9A0:  CALL   202A
0B9A4:  MOVFF  01,3F2
....................          if(usuarioCiclos>10) 
0B9A8:  MOVLB  3
0B9AA:  MOVF   xF2,W
0B9AC:  SUBLW  0A
0B9AE:  BC    B9B4
....................             usuarioCiclos=1; 
0B9B0:  MOVLW  01
0B9B2:  MOVWF  xF2
....................          for(i=0;i<7;i++){//Lee Valores para completar la Tabla 
0B9B4:  CLRF   x48
0B9B6:  MOVF   x48,W
0B9B8:  SUBLW  06
0B9BA:  BTFSS  FD8.0
0B9BC:  BRA    BF18
....................             horaCiclos[i]=read_ext_eeprom((cicloVisto*320)+11+((cicloVisualizado+i)*9)); 
0B9BE:  CLRF   03
0B9C0:  MOVF   x48,W
0B9C2:  ADDLW  DA
0B9C4:  MOVWF  01
0B9C6:  MOVLW  03
0B9C8:  ADDWFC 03,F
0B9CA:  MOVFF  01,7B0
0B9CE:  MOVLB  7
0B9D0:  MOVFF  03,7B1
0B9D4:  CLRF   xBB
0B9D6:  MOVFF  C0,7BA
0B9DA:  MOVLW  01
0B9DC:  MOVWF  xBD
0B9DE:  MOVLW  40
0B9E0:  MOVWF  xBC
0B9E2:  MOVLB  0
0B9E4:  CALL   1F28
0B9E8:  MOVFF  02,7B3
0B9EC:  MOVFF  01,7B2
0B9F0:  MOVLW  0B
0B9F2:  MOVLB  7
0B9F4:  ADDWF  xB2,F
0B9F6:  MOVLW  00
0B9F8:  ADDWFC xB3,F
0B9FA:  MOVLB  3
0B9FC:  MOVF   x48,W
0B9FE:  MOVLB  0
0BA00:  ADDWF  xC2,W
0BA02:  MULLW  09
0BA04:  MOVF   FF3,W
0BA06:  MOVLB  7
0BA08:  ADDWF  xB2,F
0BA0A:  MOVLW  00
0BA0C:  ADDWFC xB3,F
0BA0E:  MOVFF  7B3,7B6
0BA12:  MOVFF  7B2,7B5
0BA16:  MOVLB  0
0BA18:  CALL   202A
0BA1C:  MOVFF  7B1,FEA
0BA20:  MOVFF  7B0,FE9
0BA24:  MOVFF  01,FEF
....................             if(horaCiclos[i]>24) 
0BA28:  CLRF   03
0BA2A:  MOVLB  3
0BA2C:  MOVF   x48,W
0BA2E:  ADDLW  DA
0BA30:  MOVWF  FE9
0BA32:  MOVLW  03
0BA34:  ADDWFC 03,W
0BA36:  MOVWF  FEA
0BA38:  MOVF   FEF,W
0BA3A:  SUBLW  18
0BA3C:  BC    BA4E
....................                horaCiclos[i]=0; 
0BA3E:  CLRF   03
0BA40:  MOVF   x48,W
0BA42:  ADDLW  DA
0BA44:  MOVWF  FE9
0BA46:  MOVLW  03
0BA48:  ADDWFC 03,W
0BA4A:  MOVWF  FEA
0BA4C:  CLRF   FEF
....................             minutoCiclos[i]=read_ext_eeprom((cicloVisto*320)+12+((cicloVisualizado+i)*9)); 
0BA4E:  CLRF   03
0BA50:  MOVF   x48,W
0BA52:  ADDLW  E1
0BA54:  MOVWF  01
0BA56:  MOVLW  03
0BA58:  ADDWFC 03,F
0BA5A:  MOVFF  01,7B0
0BA5E:  MOVLB  7
0BA60:  MOVFF  03,7B1
0BA64:  CLRF   xBB
0BA66:  MOVFF  C0,7BA
0BA6A:  MOVLW  01
0BA6C:  MOVWF  xBD
0BA6E:  MOVLW  40
0BA70:  MOVWF  xBC
0BA72:  MOVLB  0
0BA74:  CALL   1F28
0BA78:  MOVFF  02,7B3
0BA7C:  MOVFF  01,7B2
0BA80:  MOVLW  0C
0BA82:  MOVLB  7
0BA84:  ADDWF  xB2,F
0BA86:  MOVLW  00
0BA88:  ADDWFC xB3,F
0BA8A:  MOVLB  3
0BA8C:  MOVF   x48,W
0BA8E:  MOVLB  0
0BA90:  ADDWF  xC2,W
0BA92:  MULLW  09
0BA94:  MOVF   FF3,W
0BA96:  MOVLB  7
0BA98:  ADDWF  xB2,F
0BA9A:  MOVLW  00
0BA9C:  ADDWFC xB3,F
0BA9E:  MOVFF  7B3,7B6
0BAA2:  MOVFF  7B2,7B5
0BAA6:  MOVLB  0
0BAA8:  CALL   202A
0BAAC:  MOVFF  7B1,FEA
0BAB0:  MOVFF  7B0,FE9
0BAB4:  MOVFF  01,FEF
....................             if(minutoCiclos[i]>59) 
0BAB8:  CLRF   03
0BABA:  MOVLB  3
0BABC:  MOVF   x48,W
0BABE:  ADDLW  E1
0BAC0:  MOVWF  FE9
0BAC2:  MOVLW  03
0BAC4:  ADDWFC 03,W
0BAC6:  MOVWF  FEA
0BAC8:  MOVF   FEF,W
0BACA:  SUBLW  3B
0BACC:  BC    BADE
....................                minutoCiclos[i]=0; 
0BACE:  CLRF   03
0BAD0:  MOVF   x48,W
0BAD2:  ADDLW  E1
0BAD4:  MOVWF  FE9
0BAD6:  MOVLW  03
0BAD8:  ADDWFC 03,W
0BADA:  MOVWF  FEA
0BADC:  CLRF   FEF
....................             TCiclos[i]=read_ext_eeprom((cicloVisto*320)+5+((cicloVisualizado+i)*9))+inttofloat(read_ext_eeprom((cicloVisto*320)+6+((cicloVisualizado+i)*9))); 
0BADE:  MOVF   x48,W
0BAE0:  MULLW  04
0BAE2:  MOVF   FF3,W
0BAE4:  CLRF   03
0BAE6:  ADDLW  A2
0BAE8:  MOVWF  01
0BAEA:  MOVLW  03
0BAEC:  ADDWFC 03,F
0BAEE:  MOVFF  01,7B0
0BAF2:  MOVLB  7
0BAF4:  MOVFF  03,7B1
0BAF8:  CLRF   xBB
0BAFA:  MOVFF  C0,7BA
0BAFE:  MOVLW  01
0BB00:  MOVWF  xBD
0BB02:  MOVLW  40
0BB04:  MOVWF  xBC
0BB06:  MOVLB  0
0BB08:  CALL   1F28
0BB0C:  MOVFF  02,7B3
0BB10:  MOVFF  01,7B2
0BB14:  MOVLW  05
0BB16:  MOVLB  7
0BB18:  ADDWF  xB2,F
0BB1A:  MOVLW  00
0BB1C:  ADDWFC xB3,F
0BB1E:  MOVLB  3
0BB20:  MOVF   x48,W
0BB22:  MOVLB  0
0BB24:  ADDWF  xC2,W
0BB26:  MULLW  09
0BB28:  MOVF   FF3,W
0BB2A:  MOVLB  7
0BB2C:  ADDWF  xB2,F
0BB2E:  MOVLW  00
0BB30:  ADDWFC xB3,F
0BB32:  MOVFF  7B3,7B6
0BB36:  MOVFF  7B2,7B5
0BB3A:  MOVLB  0
0BB3C:  CALL   202A
0BB40:  MOVFF  01,7B2
0BB44:  MOVLB  7
0BB46:  CLRF   xBB
0BB48:  MOVFF  C0,7BA
0BB4C:  MOVLW  01
0BB4E:  MOVWF  xBD
0BB50:  MOVLW  40
0BB52:  MOVWF  xBC
0BB54:  MOVLB  0
0BB56:  CALL   1F28
0BB5A:  MOVFF  02,7B4
0BB5E:  MOVFF  01,7B3
0BB62:  MOVLW  06
0BB64:  MOVLB  7
0BB66:  ADDWF  xB3,F
0BB68:  MOVLW  00
0BB6A:  ADDWFC xB4,F
0BB6C:  MOVLB  3
0BB6E:  MOVF   x48,W
0BB70:  MOVLB  0
0BB72:  ADDWF  xC2,W
0BB74:  MULLW  09
0BB76:  MOVF   FF3,W
0BB78:  MOVLB  7
0BB7A:  ADDWF  xB3,F
0BB7C:  MOVLW  00
0BB7E:  ADDWFC xB4,F
0BB80:  MOVFF  7B4,7B6
0BB84:  MOVFF  7B3,7B5
0BB88:  MOVLB  0
0BB8A:  CALL   202A
0BB8E:  MOVFF  01,7B3
0BB92:  MOVFF  01,7B4
0BB96:  CALL   2230
0BB9A:  MOVFF  00,7B3
0BB9E:  MOVFF  01,7B4
0BBA2:  MOVFF  02,7B5
0BBA6:  MOVFF  03,7B6
0BBAA:  MOVLB  7
0BBAC:  CLRF   xC3
0BBAE:  MOVFF  7B2,7C2
0BBB2:  MOVLB  0
0BBB4:  CALL   1E56
0BBB8:  MOVFF  FEA,7B8
0BBBC:  MOVFF  FE9,7B7
0BBC0:  BCF    FD8.1
0BBC2:  MOVFF  03,7C5
0BBC6:  MOVFF  02,7C4
0BBCA:  MOVFF  01,7C3
0BBCE:  MOVFF  00,7C2
0BBD2:  MOVFF  7B6,7C9
0BBD6:  MOVFF  7B5,7C8
0BBDA:  MOVFF  7B4,7C7
0BBDE:  MOVFF  7B3,7C6
0BBE2:  CALL   2270
0BBE6:  MOVFF  7B8,FEA
0BBEA:  MOVFF  7B7,FE9
0BBEE:  MOVFF  7B1,FEA
0BBF2:  MOVFF  7B0,FE9
0BBF6:  MOVFF  00,FEF
0BBFA:  MOVFF  01,FEC
0BBFE:  MOVFF  02,FEC
0BC02:  MOVFF  03,FEC
....................             if(TCiclos[i]>150) 
0BC06:  MOVLB  3
0BC08:  MOVF   x48,W
0BC0A:  MULLW  04
0BC0C:  MOVF   FF3,W
0BC0E:  CLRF   03
0BC10:  ADDLW  A2
0BC12:  MOVWF  FE9
0BC14:  MOVLW  03
0BC16:  ADDWFC 03,W
0BC18:  MOVWF  FEA
0BC1A:  MOVFF  FEF,7B0
0BC1E:  MOVFF  FEC,7B1
0BC22:  MOVFF  FEC,7B2
0BC26:  MOVFF  FEC,7B3
0BC2A:  MOVLB  7
0BC2C:  CLRF   xB9
0BC2E:  CLRF   xB8
0BC30:  MOVLW  16
0BC32:  MOVWF  xB7
0BC34:  MOVLW  86
0BC36:  MOVWF  xB6
0BC38:  MOVFF  7B3,7BD
0BC3C:  MOVFF  7B2,7BC
0BC40:  MOVFF  7B1,7BB
0BC44:  MOVFF  7B0,7BA
0BC48:  MOVLB  0
0BC4A:  CALL   24E8
0BC4E:  BNC   BC6E
....................                TCiclos[i]=0; 
0BC50:  MOVLB  3
0BC52:  MOVF   x48,W
0BC54:  MULLW  04
0BC56:  MOVF   FF3,W
0BC58:  CLRF   03
0BC5A:  ADDLW  A2
0BC5C:  MOVWF  FE9
0BC5E:  MOVLW  03
0BC60:  ADDWFC 03,W
0BC62:  MOVWF  FEA
0BC64:  CLRF   FEF
0BC66:  CLRF   FEC
0BC68:  CLRF   FEC
0BC6A:  CLRF   FEC
0BC6C:  MOVLB  0
....................             PcCiclos[i]=make16(read_ext_eeprom((cicloVisto*320)+7+((cicloVisualizado+i)*9)),read_ext_eeprom((cicloVisto*320)+8+((cicloVisualizado+i)*9))); 
0BC6E:  BCF    FD8.0
0BC70:  MOVLB  3
0BC72:  RLCF   x48,W
0BC74:  CLRF   03
0BC76:  ADDLW  BE
0BC78:  MOVWF  01
0BC7A:  MOVLW  03
0BC7C:  ADDWFC 03,F
0BC7E:  MOVFF  01,7B0
0BC82:  MOVLB  7
0BC84:  MOVFF  03,7B1
0BC88:  CLRF   xBB
0BC8A:  MOVFF  C0,7BA
0BC8E:  MOVLW  01
0BC90:  MOVWF  xBD
0BC92:  MOVLW  40
0BC94:  MOVWF  xBC
0BC96:  MOVLB  0
0BC98:  CALL   1F28
0BC9C:  MOVFF  02,7B3
0BCA0:  MOVFF  01,7B2
0BCA4:  MOVLW  07
0BCA6:  MOVLB  7
0BCA8:  ADDWF  xB2,F
0BCAA:  MOVLW  00
0BCAC:  ADDWFC xB3,F
0BCAE:  MOVLB  3
0BCB0:  MOVF   x48,W
0BCB2:  MOVLB  0
0BCB4:  ADDWF  xC2,W
0BCB6:  MULLW  09
0BCB8:  MOVF   FF3,W
0BCBA:  MOVLB  7
0BCBC:  ADDWF  xB2,F
0BCBE:  MOVLW  00
0BCC0:  ADDWFC xB3,F
0BCC2:  MOVFF  7B3,7B6
0BCC6:  MOVFF  7B2,7B5
0BCCA:  MOVLB  0
0BCCC:  CALL   202A
0BCD0:  MOVFF  01,7B2
0BCD4:  MOVLB  7
0BCD6:  CLRF   xBB
0BCD8:  MOVFF  C0,7BA
0BCDC:  MOVLW  01
0BCDE:  MOVWF  xBD
0BCE0:  MOVLW  40
0BCE2:  MOVWF  xBC
0BCE4:  MOVLB  0
0BCE6:  CALL   1F28
0BCEA:  MOVFF  02,7B4
0BCEE:  MOVFF  01,7B3
0BCF2:  MOVLW  08
0BCF4:  MOVLB  7
0BCF6:  ADDWF  xB3,F
0BCF8:  MOVLW  00
0BCFA:  ADDWFC xB4,F
0BCFC:  MOVLB  3
0BCFE:  MOVF   x48,W
0BD00:  MOVLB  0
0BD02:  ADDWF  xC2,W
0BD04:  MULLW  09
0BD06:  MOVF   FF3,W
0BD08:  MOVLB  7
0BD0A:  ADDWF  xB3,F
0BD0C:  MOVLW  00
0BD0E:  ADDWFC xB4,F
0BD10:  MOVFF  7B4,7B6
0BD14:  MOVFF  7B3,7B5
0BD18:  MOVLB  0
0BD1A:  CALL   202A
0BD1E:  MOVFF  7B1,FEA
0BD22:  MOVFF  7B0,FE9
0BD26:  MOVFF  7B2,FEC
0BD2A:  MOVF   FED,F
0BD2C:  MOVFF  01,FEF
....................             if(PcCiclos[i]>400) 
0BD30:  BCF    FD8.0
0BD32:  MOVLB  3
0BD34:  RLCF   x48,W
0BD36:  CLRF   03
0BD38:  ADDLW  BE
0BD3A:  MOVWF  FE9
0BD3C:  MOVLW  03
0BD3E:  ADDWFC 03,W
0BD40:  MOVWF  FEA
0BD42:  MOVFF  FEC,7B1
0BD46:  MOVF   FED,F
0BD48:  MOVFF  FEF,7B0
0BD4C:  MOVLB  7
0BD4E:  MOVF   xB1,W
0BD50:  SUBLW  00
0BD52:  BC    BD78
0BD54:  XORLW  FF
0BD56:  BNZ   BD5E
0BD58:  MOVF   xB0,W
0BD5A:  SUBLW  90
0BD5C:  BC    BD78
....................                PcCiclos[i]=0; 
0BD5E:  BCF    FD8.0
0BD60:  MOVLB  3
0BD62:  RLCF   x48,W
0BD64:  CLRF   03
0BD66:  ADDLW  BE
0BD68:  MOVWF  FE9
0BD6A:  MOVLW  03
0BD6C:  ADDWFC 03,W
0BD6E:  MOVWF  FEA
0BD70:  CLRF   FEC
0BD72:  MOVF   FED,F
0BD74:  CLRF   FEF
0BD76:  MOVLB  7
....................             PpcCiclos[i]=make16(read_ext_eeprom((cicloVisto*320)+9+((cicloVisualizado+i)*9)),read_ext_eeprom((cicloVisto*320)+10+((cicloVisualizado+i)*9))); 
0BD78:  BCF    FD8.0
0BD7A:  MOVLB  3
0BD7C:  RLCF   x48,W
0BD7E:  CLRF   03
0BD80:  ADDLW  CC
0BD82:  MOVWF  01
0BD84:  MOVLW  03
0BD86:  ADDWFC 03,F
0BD88:  MOVFF  01,7B0
0BD8C:  MOVLB  7
0BD8E:  MOVFF  03,7B1
0BD92:  CLRF   xBB
0BD94:  MOVFF  C0,7BA
0BD98:  MOVLW  01
0BD9A:  MOVWF  xBD
0BD9C:  MOVLW  40
0BD9E:  MOVWF  xBC
0BDA0:  MOVLB  0
0BDA2:  CALL   1F28
0BDA6:  MOVFF  02,7B3
0BDAA:  MOVFF  01,7B2
0BDAE:  MOVLW  09
0BDB0:  MOVLB  7
0BDB2:  ADDWF  xB2,F
0BDB4:  MOVLW  00
0BDB6:  ADDWFC xB3,F
0BDB8:  MOVLB  3
0BDBA:  MOVF   x48,W
0BDBC:  MOVLB  0
0BDBE:  ADDWF  xC2,W
0BDC0:  MULLW  09
0BDC2:  MOVF   FF3,W
0BDC4:  MOVLB  7
0BDC6:  ADDWF  xB2,F
0BDC8:  MOVLW  00
0BDCA:  ADDWFC xB3,F
0BDCC:  MOVFF  7B3,7B6
0BDD0:  MOVFF  7B2,7B5
0BDD4:  MOVLB  0
0BDD6:  CALL   202A
0BDDA:  MOVFF  01,7B2
0BDDE:  MOVLB  7
0BDE0:  CLRF   xBB
0BDE2:  MOVFF  C0,7BA
0BDE6:  MOVLW  01
0BDE8:  MOVWF  xBD
0BDEA:  MOVLW  40
0BDEC:  MOVWF  xBC
0BDEE:  MOVLB  0
0BDF0:  CALL   1F28
0BDF4:  MOVFF  02,7B4
0BDF8:  MOVFF  01,7B3
0BDFC:  MOVLW  0A
0BDFE:  MOVLB  7
0BE00:  ADDWF  xB3,F
0BE02:  MOVLW  00
0BE04:  ADDWFC xB4,F
0BE06:  MOVLB  3
0BE08:  MOVF   x48,W
0BE0A:  MOVLB  0
0BE0C:  ADDWF  xC2,W
0BE0E:  MULLW  09
0BE10:  MOVF   FF3,W
0BE12:  MOVLB  7
0BE14:  ADDWF  xB3,F
0BE16:  MOVLW  00
0BE18:  ADDWFC xB4,F
0BE1A:  MOVFF  7B4,7B6
0BE1E:  MOVFF  7B3,7B5
0BE22:  MOVLB  0
0BE24:  CALL   202A
0BE28:  MOVFF  7B1,FEA
0BE2C:  MOVFF  7B0,FE9
0BE30:  MOVFF  7B2,FEC
0BE34:  MOVF   FED,F
0BE36:  MOVFF  01,FEF
....................             if(PpcCiclos[i]>400) 
0BE3A:  BCF    FD8.0
0BE3C:  MOVLB  3
0BE3E:  RLCF   x48,W
0BE40:  CLRF   03
0BE42:  ADDLW  CC
0BE44:  MOVWF  FE9
0BE46:  MOVLW  03
0BE48:  ADDWFC 03,W
0BE4A:  MOVWF  FEA
0BE4C:  MOVFF  FEC,7B1
0BE50:  MOVF   FED,F
0BE52:  MOVFF  FEF,7B0
0BE56:  MOVLB  7
0BE58:  MOVF   xB1,W
0BE5A:  SUBLW  00
0BE5C:  BC    BE82
0BE5E:  XORLW  FF
0BE60:  BNZ   BE68
0BE62:  MOVF   xB0,W
0BE64:  SUBLW  90
0BE66:  BC    BE82
....................                PpcCiclos[i]=0; 
0BE68:  BCF    FD8.0
0BE6A:  MOVLB  3
0BE6C:  RLCF   x48,W
0BE6E:  CLRF   03
0BE70:  ADDLW  CC
0BE72:  MOVWF  FE9
0BE74:  MOVLW  03
0BE76:  ADDWFC 03,W
0BE78:  MOVWF  FEA
0BE7A:  CLRF   FEC
0BE7C:  MOVF   FED,F
0BE7E:  CLRF   FEF
0BE80:  MOVLB  7
....................             ACiclos[i]=read_ext_eeprom((cicloVisto*320)+13+((cicloVisualizado+i)*9)); 
0BE82:  CLRF   03
0BE84:  MOVLB  3
0BE86:  MOVF   x48,W
0BE88:  ADDLW  E8
0BE8A:  MOVWF  01
0BE8C:  MOVLW  03
0BE8E:  ADDWFC 03,F
0BE90:  MOVFF  01,7B0
0BE94:  MOVLB  7
0BE96:  MOVFF  03,7B1
0BE9A:  CLRF   xBB
0BE9C:  MOVFF  C0,7BA
0BEA0:  MOVLW  01
0BEA2:  MOVWF  xBD
0BEA4:  MOVLW  40
0BEA6:  MOVWF  xBC
0BEA8:  MOVLB  0
0BEAA:  CALL   1F28
0BEAE:  MOVFF  02,7B3
0BEB2:  MOVFF  01,7B2
0BEB6:  MOVLW  0D
0BEB8:  MOVLB  7
0BEBA:  ADDWF  xB2,F
0BEBC:  MOVLW  00
0BEBE:  ADDWFC xB3,F
0BEC0:  MOVLB  3
0BEC2:  MOVF   x48,W
0BEC4:  MOVLB  0
0BEC6:  ADDWF  xC2,W
0BEC8:  MULLW  09
0BECA:  MOVF   FF3,W
0BECC:  MOVLB  7
0BECE:  ADDWF  xB2,F
0BED0:  MOVLW  00
0BED2:  ADDWFC xB3,F
0BED4:  MOVFF  7B3,7B6
0BED8:  MOVFF  7B2,7B5
0BEDC:  MOVLB  0
0BEDE:  CALL   202A
0BEE2:  MOVFF  7B1,FEA
0BEE6:  MOVFF  7B0,FE9
0BEEA:  MOVFF  01,FEF
....................             if(ACiclos[i]>30) 
0BEEE:  CLRF   03
0BEF0:  MOVLB  3
0BEF2:  MOVF   x48,W
0BEF4:  ADDLW  E8
0BEF6:  MOVWF  FE9
0BEF8:  MOVLW  03
0BEFA:  ADDWFC 03,W
0BEFC:  MOVWF  FEA
0BEFE:  MOVF   FEF,W
0BF00:  SUBLW  1E
0BF02:  BC    BF14
....................                ACiclos[i]=0; 
0BF04:  CLRF   03
0BF06:  MOVF   x48,W
0BF08:  ADDLW  E8
0BF0A:  MOVWF  FE9
0BF0C:  MOVLW  03
0BF0E:  ADDWFC 03,W
0BF10:  MOVWF  FEA
0BF12:  CLRF   FEF
....................          } 
0BF14:  INCF   x48,F
0BF16:  BRA    B9B6
0BF18:  MOVLB  0
....................       } 
....................        
....................       //Imprime Valores Estaticos 
....................       printf("fecha.txt=\"%02u/%02u/%02u\"",diaCiclos,mesCiclos,yearCiclos); 
0BF1A:  MOVLW  8A
0BF1C:  MOVWF  FF6
0BF1E:  MOVLW  13
0BF20:  MOVWF  FF7
0BF22:  MOVLW  00
0BF24:  MOVWF  FF8
0BF26:  MOVLW  0B
0BF28:  MOVLB  7
0BF2A:  MOVWF  xB5
0BF2C:  MOVLB  0
0BF2E:  CALL   556C
0BF32:  MOVFF  3EF,7B5
0BF36:  MOVLW  01
0BF38:  MOVLB  7
0BF3A:  MOVWF  xB6
0BF3C:  MOVLB  0
0BF3E:  CALL   5858
0BF42:  MOVLW  2F
0BF44:  BTFSS  F9E.4
0BF46:  BRA    BF44
0BF48:  MOVWF  FAD
0BF4A:  MOVFF  3F0,7B5
0BF4E:  MOVLW  01
0BF50:  MOVLB  7
0BF52:  MOVWF  xB6
0BF54:  MOVLB  0
0BF56:  CALL   5858
0BF5A:  MOVLW  2F
0BF5C:  BTFSS  F9E.4
0BF5E:  BRA    BF5C
0BF60:  MOVWF  FAD
0BF62:  MOVFF  3F1,7B5
0BF66:  MOVLW  01
0BF68:  MOVLB  7
0BF6A:  MOVWF  xB6
0BF6C:  MOVLB  0
0BF6E:  CALL   5858
0BF72:  MOVLW  22
0BF74:  BTFSS  F9E.4
0BF76:  BRA    BF74
0BF78:  MOVWF  FAD
....................       SendDataDisplay(); 
0BF7A:  CALL   3E26
....................        
....................       printf("ciclo.txt=\"%02u\"",cicloCiclos); 
0BF7E:  MOVLW  A6
0BF80:  MOVWF  FF6
0BF82:  MOVLW  13
0BF84:  MOVWF  FF7
0BF86:  MOVLW  00
0BF88:  MOVWF  FF8
0BF8A:  MOVLW  0B
0BF8C:  MOVLB  7
0BF8E:  MOVWF  xB5
0BF90:  MOVLB  0
0BF92:  CALL   556C
0BF96:  MOVFF  3F3,7B5
0BF9A:  MOVLW  01
0BF9C:  MOVLB  7
0BF9E:  MOVWF  xB6
0BFA0:  MOVLB  0
0BFA2:  CALL   5858
0BFA6:  MOVLW  22
0BFA8:  BTFSS  F9E.4
0BFAA:  BRA    BFA8
0BFAC:  MOVWF  FAD
....................       SendDataDisplay(); 
0BFAE:  CALL   3E26
....................        
....................       printf("t0.txt=\"Ciclo %02u\"",cicloVisto); 
0BFB2:  MOVLW  B8
0BFB4:  MOVWF  FF6
0BFB6:  MOVLW  13
0BFB8:  MOVWF  FF7
0BFBA:  MOVLW  00
0BFBC:  MOVWF  FF8
0BFBE:  MOVLW  0E
0BFC0:  MOVLB  7
0BFC2:  MOVWF  xB5
0BFC4:  MOVLB  0
0BFC6:  CALL   556C
0BFCA:  MOVFF  C0,7B5
0BFCE:  MOVLW  01
0BFD0:  MOVLB  7
0BFD2:  MOVWF  xB6
0BFD4:  MOVLB  0
0BFD6:  CALL   5858
0BFDA:  MOVLW  22
0BFDC:  BTFSS  F9E.4
0BFDE:  BRA    BFDC
0BFE0:  MOVWF  FAD
....................       SendDataDisplay(); 
0BFE2:  CALL   3E26
....................        
....................       if(usuarioCiclos==0){ 
0BFE6:  MOVLB  3
0BFE8:  MOVF   xF2,F
0BFEA:  BNZ   C006
....................          printf("usuario.txt=\"Admin\""); 
0BFEC:  MOVLW  CC
0BFEE:  MOVWF  FF6
0BFF0:  MOVLW  13
0BFF2:  MOVWF  FF7
0BFF4:  MOVLW  00
0BFF6:  MOVWF  FF8
0BFF8:  MOVLB  0
0BFFA:  CALL   3DF4
....................          SendDataDisplay(); 
0BFFE:  CALL   3E26
....................       }else if(usuarioCiclos>0 && usuarioCiclos<9){ 
0C002:  BRA    C064
0C004:  MOVLB  3
0C006:  MOVF   xF2,F
0C008:  BZ    C048
0C00A:  MOVF   xF2,W
0C00C:  SUBLW  08
0C00E:  BNC   C048
....................          printf("usuario.txt=\"Operador%u\"",usuarioCiclos); 
0C010:  MOVLW  E0
0C012:  MOVWF  FF6
0C014:  MOVLW  13
0C016:  MOVWF  FF7
0C018:  MOVLW  00
0C01A:  MOVWF  FF8
0C01C:  MOVLW  15
0C01E:  MOVLB  7
0C020:  MOVWF  xB5
0C022:  MOVLB  0
0C024:  CALL   556C
0C028:  MOVFF  3F2,7B5
0C02C:  MOVLW  1B
0C02E:  MOVLB  7
0C030:  MOVWF  xB6
0C032:  MOVLB  0
0C034:  CALL   5858
0C038:  MOVLW  22
0C03A:  BTFSS  F9E.4
0C03C:  BRA    C03A
0C03E:  MOVWF  FAD
....................          SendDataDisplay(); 
0C040:  CALL   3E26
....................       }else if(usuarioCiclos==9){ 
0C044:  BRA    C064
0C046:  MOVLB  3
0C048:  MOVF   xF2,W
0C04A:  SUBLW  09
0C04C:  BNZ   C066
....................          printf("usuario.txt=\"Tecnico\""); 
0C04E:  MOVLW  FA
0C050:  MOVWF  FF6
0C052:  MOVLW  13
0C054:  MOVWF  FF7
0C056:  MOVLW  00
0C058:  MOVWF  FF8
0C05A:  MOVLB  0
0C05C:  CALL   3DF4
....................          SendDataDisplay(); 
0C060:  CALL   3E26
0C064:  MOVLB  3
....................       } 
....................        
....................       //Imprime Valores Dinamicos 
....................       for(i=0;i<7;i++){ 
0C066:  CLRF   x48
0C068:  MOVF   x48,W
0C06A:  SUBLW  06
0C06C:  BTFSS  FD8.0
0C06E:  BRA    C308
....................          printf("hora%u.txt=\"%02u.  %02u:%02u\"",i+1,cicloVisualizado+i+1,horaCiclos[i],minutoCiclos[i]); 
0C070:  MOVLW  01
0C072:  ADDWF  x48,W
0C074:  MOVLB  7
0C076:  MOVWF  xB0
0C078:  MOVLB  3
0C07A:  MOVF   x48,W
0C07C:  MOVLB  0
0C07E:  ADDWF  xC2,W
0C080:  ADDLW  01
0C082:  MOVLB  7
0C084:  MOVWF  xB1
0C086:  CLRF   03
0C088:  MOVLB  3
0C08A:  MOVF   x48,W
0C08C:  ADDLW  DA
0C08E:  MOVWF  FE9
0C090:  MOVLW  03
0C092:  ADDWFC 03,W
0C094:  MOVWF  FEA
0C096:  MOVFF  FEF,7B2
0C09A:  CLRF   03
0C09C:  MOVF   x48,W
0C09E:  ADDLW  E1
0C0A0:  MOVWF  FE9
0C0A2:  MOVLW  03
0C0A4:  ADDWFC 03,W
0C0A6:  MOVWF  FEA
0C0A8:  MOVFF  FEF,7B3
0C0AC:  MOVLW  10
0C0AE:  MOVWF  FF6
0C0B0:  MOVLW  14
0C0B2:  MOVWF  FF7
0C0B4:  MOVLW  00
0C0B6:  MOVWF  FF8
0C0B8:  MOVLW  04
0C0BA:  MOVLB  7
0C0BC:  MOVWF  xB5
0C0BE:  MOVLB  0
0C0C0:  CALL   556C
0C0C4:  MOVFF  7B0,7B5
0C0C8:  MOVLW  1B
0C0CA:  MOVLB  7
0C0CC:  MOVWF  xB6
0C0CE:  MOVLB  0
0C0D0:  CALL   5858
0C0D4:  MOVLW  16
0C0D6:  MOVWF  FF6
0C0D8:  MOVLW  14
0C0DA:  MOVWF  FF7
0C0DC:  MOVLW  00
0C0DE:  MOVWF  FF8
0C0E0:  MOVLW  06
0C0E2:  MOVLB  7
0C0E4:  MOVWF  xB5
0C0E6:  MOVLB  0
0C0E8:  CALL   556C
0C0EC:  MOVFF  7B1,7B5
0C0F0:  MOVLW  01
0C0F2:  MOVLB  7
0C0F4:  MOVWF  xB6
0C0F6:  MOVLB  0
0C0F8:  CALL   5858
0C0FC:  MOVLW  2E
0C0FE:  BTFSS  F9E.4
0C100:  BRA    C0FE
0C102:  MOVWF  FAD
0C104:  MOVLW  20
0C106:  BTFSS  F9E.4
0C108:  BRA    C106
0C10A:  MOVWF  FAD
0C10C:  MOVLW  20
0C10E:  BTFSS  F9E.4
0C110:  BRA    C10E
0C112:  MOVWF  FAD
0C114:  MOVFF  7B2,7B5
0C118:  MOVLW  01
0C11A:  MOVLB  7
0C11C:  MOVWF  xB6
0C11E:  MOVLB  0
0C120:  CALL   5858
0C124:  MOVLW  3A
0C126:  BTFSS  F9E.4
0C128:  BRA    C126
0C12A:  MOVWF  FAD
0C12C:  MOVFF  7B3,7B5
0C130:  MOVLW  01
0C132:  MOVLB  7
0C134:  MOVWF  xB6
0C136:  MOVLB  0
0C138:  CALL   5858
0C13C:  MOVLW  22
0C13E:  BTFSS  F9E.4
0C140:  BRA    C13E
0C142:  MOVWF  FAD
....................          SendDataDisplay(); 
0C144:  CALL   3E26
....................          printf("T%u.txt=\"%3.1fC\"",i+1,TCiclos[i]); 
0C148:  MOVLW  01
0C14A:  MOVLB  3
0C14C:  ADDWF  x48,W
0C14E:  MOVLB  7
0C150:  MOVWF  xB0
0C152:  MOVLB  3
0C154:  MOVF   x48,W
0C156:  MULLW  04
0C158:  MOVF   FF3,W
0C15A:  CLRF   03
0C15C:  ADDLW  A2
0C15E:  MOVWF  FE9
0C160:  MOVLW  03
0C162:  ADDWFC 03,W
0C164:  MOVWF  FEA
0C166:  MOVFF  FEF,7B1
0C16A:  MOVFF  FEC,7B2
0C16E:  MOVFF  FEC,7B3
0C172:  MOVFF  FEC,7B4
0C176:  MOVLW  54
0C178:  BTFSS  F9E.4
0C17A:  BRA    C178
0C17C:  MOVWF  FAD
0C17E:  MOVFF  7B0,7B5
0C182:  MOVLW  1B
0C184:  MOVLB  7
0C186:  MOVWF  xB6
0C188:  MOVLB  0
0C18A:  CALL   5858
0C18E:  MOVLW  31
0C190:  MOVWF  FF6
0C192:  MOVLW  14
0C194:  MOVWF  FF7
0C196:  MOVLW  00
0C198:  MOVWF  FF8
0C19A:  MOVLW  06
0C19C:  MOVLB  7
0C19E:  MOVWF  xB5
0C1A0:  MOVLB  0
0C1A2:  CALL   556C
0C1A6:  MOVLW  02
0C1A8:  MOVWF  FE9
0C1AA:  MOVFF  7B4,7B8
0C1AE:  MOVFF  7B3,7B7
0C1B2:  MOVFF  7B2,7B6
0C1B6:  MOVFF  7B1,7B5
0C1BA:  MOVLW  01
0C1BC:  MOVLB  7
0C1BE:  MOVWF  xB9
0C1C0:  MOVLB  0
0C1C2:  CALL   5688
0C1C6:  MOVLW  B0
0C1C8:  BTFSS  F9E.4
0C1CA:  BRA    C1C8
0C1CC:  MOVWF  FAD
0C1CE:  MOVLW  43
0C1D0:  BTFSS  F9E.4
0C1D2:  BRA    C1D0
0C1D4:  MOVWF  FAD
0C1D6:  MOVLW  22
0C1D8:  BTFSS  F9E.4
0C1DA:  BRA    C1D8
0C1DC:  MOVWF  FAD
....................          SendDataDisplay(); 
0C1DE:  CALL   3E26
....................          printf("Pc%u.txt=\"%03LukPa\"",i+1,PcCiclos[i]); 
0C1E2:  MOVLW  01
0C1E4:  MOVLB  3
0C1E6:  ADDWF  x48,W
0C1E8:  MOVLB  7
0C1EA:  MOVWF  xB0
0C1EC:  BCF    FD8.0
0C1EE:  MOVLB  3
0C1F0:  RLCF   x48,W
0C1F2:  CLRF   03
0C1F4:  ADDLW  BE
0C1F6:  MOVWF  FE9
0C1F8:  MOVLW  03
0C1FA:  ADDWFC 03,W
0C1FC:  MOVWF  FEA
0C1FE:  MOVFF  FEC,7B2
0C202:  MOVF   FED,F
0C204:  MOVFF  FEF,7B1
0C208:  MOVLW  50
0C20A:  BTFSS  F9E.4
0C20C:  BRA    C20A
0C20E:  MOVWF  FAD
0C210:  MOVLW  63
0C212:  BTFSS  F9E.4
0C214:  BRA    C212
0C216:  MOVWF  FAD
0C218:  MOVFF  7B0,7B5
0C21C:  MOVLW  1B
0C21E:  MOVLB  7
0C220:  MOVWF  xB6
0C222:  MOVLB  0
0C224:  CALL   5858
0C228:  MOVLW  44
0C22A:  MOVWF  FF6
0C22C:  MOVLW  14
0C22E:  MOVWF  FF7
0C230:  MOVLW  00
0C232:  MOVWF  FF8
0C234:  MOVLW  06
0C236:  MOVLB  7
0C238:  MOVWF  xB5
0C23A:  MOVLB  0
0C23C:  CALL   556C
0C240:  MOVLW  0A
0C242:  MOVWF  FE9
0C244:  MOVFF  7B2,7B5
0C248:  MOVFF  7B1,7B4
0C24C:  CALL   594C
0C250:  MOVLW  4F
0C252:  MOVWF  FF6
0C254:  MOVLW  14
0C256:  MOVWF  FF7
0C258:  MOVLW  00
0C25A:  MOVWF  FF8
0C25C:  MOVLW  04
0C25E:  MOVLB  7
0C260:  MOVWF  xB5
0C262:  MOVLB  0
0C264:  CALL   556C
....................          SendDataDisplay(); 
0C268:  CALL   3E26
....................          printf("Ppc%u.txt=\"%03LukPa\"",i+1,PpcCiclos[i]); 
0C26C:  MOVLW  01
0C26E:  MOVLB  3
0C270:  ADDWF  x48,W
0C272:  MOVLB  7
0C274:  MOVWF  xB0
0C276:  BCF    FD8.0
0C278:  MOVLB  3
0C27A:  RLCF   x48,W
0C27C:  CLRF   03
0C27E:  ADDLW  CC
0C280:  MOVWF  FE9
0C282:  MOVLW  03
0C284:  ADDWFC 03,W
0C286:  MOVWF  FEA
0C288:  MOVFF  FEC,7B2
0C28C:  MOVF   FED,F
0C28E:  MOVFF  FEF,7B1
0C292:  MOVLW  50
0C294:  BTFSS  F9E.4
0C296:  BRA    C294
0C298:  MOVWF  FAD
0C29A:  MOVLW  70
0C29C:  BTFSS  F9E.4
0C29E:  BRA    C29C
0C2A0:  MOVWF  FAD
0C2A2:  MOVLW  63
0C2A4:  BTFSS  F9E.4
0C2A6:  BRA    C2A4
0C2A8:  MOVWF  FAD
0C2AA:  MOVFF  7B0,7B5
0C2AE:  MOVLW  1B
0C2B0:  MOVLB  7
0C2B2:  MOVWF  xB6
0C2B4:  MOVLB  0
0C2B6:  CALL   5858
0C2BA:  MOVLW  59
0C2BC:  MOVWF  FF6
0C2BE:  MOVLW  14
0C2C0:  MOVWF  FF7
0C2C2:  MOVLW  00
0C2C4:  MOVWF  FF8
0C2C6:  MOVLW  06
0C2C8:  MOVLB  7
0C2CA:  MOVWF  xB5
0C2CC:  MOVLB  0
0C2CE:  CALL   556C
0C2D2:  MOVLW  0A
0C2D4:  MOVWF  FE9
0C2D6:  MOVFF  7B2,7B5
0C2DA:  MOVFF  7B1,7B4
0C2DE:  CALL   594C
0C2E2:  MOVLW  64
0C2E4:  MOVWF  FF6
0C2E6:  MOVLW  14
0C2E8:  MOVWF  FF7
0C2EA:  MOVLW  00
0C2EC:  MOVWF  FF8
0C2EE:  MOVLW  04
0C2F0:  MOVLB  7
0C2F2:  MOVWF  xB5
0C2F4:  MOVLB  0
0C2F6:  CALL   556C
....................          SendDataDisplay();          
0C2FA:  CALL   3E26
....................          codificaAlarma(); 
0C2FE:  GOTO   6116
....................       }   
0C302:  MOVLB  3
0C304:  INCF   x48,F
0C306:  BRA    C068
....................    } 
.................... //_--------------------------------------------------------------------------------------------------------------------------------------------------------       
....................  
.................... //_--------------------------------------------------------------------------------------------------------------------------------------------------------       
....................     if(Menu==13){//Menu de Nivel de Desfogue 
0C308:  MOVF   x45,W
0C30A:  SUBLW  0D
0C30C:  BTFSS  FD8.2
0C30E:  BRA    C58C
....................       printf("fecha.txt=\"T:%2.1fC Fecha:%02u/%02u/20%02u Hora:%02u:%02u:%02u\"",Temperatura,Dia,Mes,Year,Hora,Minuto,Segundo); 
0C310:  MOVLW  6A
0C312:  MOVWF  FF6
0C314:  MOVLW  14
0C316:  MOVWF  FF7
0C318:  MOVLW  00
0C31A:  MOVWF  FF8
0C31C:  MOVLW  0D
0C31E:  MOVLB  7
0C320:  MOVWF  xB5
0C322:  MOVLB  0
0C324:  CALL   556C
0C328:  MOVLW  01
0C32A:  MOVWF  FE9
0C32C:  MOVFF  314,7B8
0C330:  MOVFF  313,7B7
0C334:  MOVFF  312,7B6
0C338:  MOVFF  311,7B5
0C33C:  MOVLB  7
0C33E:  MOVWF  xB9
0C340:  MOVLB  0
0C342:  CALL   5688
0C346:  MOVLW  7C
0C348:  MOVWF  FF6
0C34A:  MOVLW  14
0C34C:  MOVWF  FF7
0C34E:  MOVLW  00
0C350:  MOVWF  FF8
0C352:  MOVLW  09
0C354:  MOVLB  7
0C356:  MOVWF  xB5
0C358:  MOVLB  0
0C35A:  CALL   556C
0C35E:  MOVFF  37D,7B5
0C362:  MOVLW  01
0C364:  MOVLB  7
0C366:  MOVWF  xB6
0C368:  MOVLB  0
0C36A:  CALL   5858
0C36E:  MOVLW  2F
0C370:  BTFSS  F9E.4
0C372:  BRA    C370
0C374:  MOVWF  FAD
0C376:  MOVFF  37C,7B5
0C37A:  MOVLW  01
0C37C:  MOVLB  7
0C37E:  MOVWF  xB6
0C380:  MOVLB  0
0C382:  CALL   5858
0C386:  MOVLW  2F
0C388:  BTFSS  F9E.4
0C38A:  BRA    C388
0C38C:  MOVWF  FAD
0C38E:  MOVLW  32
0C390:  BTFSS  F9E.4
0C392:  BRA    C390
0C394:  MOVWF  FAD
0C396:  MOVLW  30
0C398:  BTFSS  F9E.4
0C39A:  BRA    C398
0C39C:  MOVWF  FAD
0C39E:  MOVFF  37B,7B5
0C3A2:  MOVLW  01
0C3A4:  MOVLB  7
0C3A6:  MOVWF  xB6
0C3A8:  MOVLB  0
0C3AA:  CALL   5858
0C3AE:  MOVLW  95
0C3B0:  MOVWF  FF6
0C3B2:  MOVLW  14
0C3B4:  MOVWF  FF7
0C3B6:  MOVLW  00
0C3B8:  MOVWF  FF8
0C3BA:  MOVLW  06
0C3BC:  MOVLB  7
0C3BE:  MOVWF  xB5
0C3C0:  MOVLB  0
0C3C2:  CALL   556C
0C3C6:  MOVFF  37E,7B5
0C3CA:  MOVLW  01
0C3CC:  MOVLB  7
0C3CE:  MOVWF  xB6
0C3D0:  MOVLB  0
0C3D2:  CALL   5858
0C3D6:  MOVLW  3A
0C3D8:  BTFSS  F9E.4
0C3DA:  BRA    C3D8
0C3DC:  MOVWF  FAD
0C3DE:  MOVFF  37F,7B5
0C3E2:  MOVLW  01
0C3E4:  MOVLB  7
0C3E6:  MOVWF  xB6
0C3E8:  MOVLB  0
0C3EA:  CALL   5858
0C3EE:  MOVLW  3A
0C3F0:  BTFSS  F9E.4
0C3F2:  BRA    C3F0
0C3F4:  MOVWF  FAD
0C3F6:  MOVFF  380,7B5
0C3FA:  MOVLW  01
0C3FC:  MOVLB  7
0C3FE:  MOVWF  xB6
0C400:  MOVLB  0
0C402:  CALL   5858
0C406:  MOVLW  22
0C408:  BTFSS  F9E.4
0C40A:  BRA    C408
0C40C:  MOVWF  FAD
....................       SendDataDisplay(); 
0C40E:  CALL   3E26
....................          if(NivelDes<1) 
0C412:  MOVF   xC5,F
0C414:  BNZ   C41A
....................             NivelDes=6; 
0C416:  MOVLW  06
0C418:  MOVWF  xC5
....................          if(NivelDes>6) 
0C41A:  MOVF   xC5,W
0C41C:  SUBLW  06
0C41E:  BC    C424
....................             NivelDes=1; 
0C420:  MOVLW  01
0C422:  MOVWF  xC5
....................           
....................          if(RX_Buffer[4]==0x11){//Selecciono Regresar 
0C424:  MOVF   34,W
0C426:  SUBLW  11
0C428:  BTFSS  FD8.2
0C42A:  BRA    C53E
....................             Segundos=OFF; 
0C42C:  BCF    xA2.5
....................             Minutos=OFF;             
0C42E:  BCF    xA2.4
....................             tiempo_secado=0; 
0C430:  MOVLB  3
0C432:  CLRF   x50
....................             if(!GuardaEEPROM){     
0C434:  MOVLB  0
0C436:  BTFSC  xA2.6
0C438:  BRA    C4B2
....................                CiclosPersonalizados[CicloLibre-1].NivelDesfogue=NivelDes; 
0C43A:  MOVLW  01
0C43C:  MOVLB  3
0C43E:  SUBWF  x2B,W
0C440:  MULLW  0A
0C442:  MOVF   FF3,W
0C444:  MOVLB  7
0C446:  CLRF   xB1
0C448:  MOVWF  xB0
0C44A:  MOVLW  08
0C44C:  ADDWF  xB0,W
0C44E:  MOVWF  01
0C450:  MOVLW  00
0C452:  ADDWFC xB1,W
0C454:  MOVWF  03
0C456:  MOVF   01,W
0C458:  ADDLW  C0
0C45A:  MOVWF  FE9
0C45C:  MOVLW  06
0C45E:  ADDWFC 03,W
0C460:  MOVWF  FEA
0C462:  MOVFF  C5,FEF
....................                write_eeprom(107+((CicloLibre-1)*8),NivelDes); 
0C466:  MOVLW  01
0C468:  MOVLB  3
0C46A:  SUBWF  x2B,W
0C46C:  MULLW  08
0C46E:  MOVF   FF3,W
0C470:  ADDLW  6B
0C472:  MOVLB  7
0C474:  MOVWF  xB0
0C476:  CLRF   FAA
0C478:  MOVFF  7B0,FA9
0C47C:  MOVFF  C5,FA8
0C480:  BCF    FA6.6
0C482:  BCF    FA6.7
0C484:  BSF    FA6.2
0C486:  MOVF   FF2,W
0C488:  MOVWF  00
0C48A:  BCF    FF2.6
0C48C:  BCF    FF2.7
0C48E:  MOVLB  F
0C490:  MOVLW  55
0C492:  MOVWF  FA7
0C494:  MOVLW  AA
0C496:  MOVWF  FA7
0C498:  BSF    FA6.1
0C49A:  BTFSC  FA6.1
0C49C:  BRA    C49A
0C49E:  BCF    FA6.2
0C4A0:  MOVF   00,W
0C4A2:  IORWF  FF2,F
....................                delay_ms(20);             
0C4A4:  MOVLW  14
0C4A6:  MOVLB  7
0C4A8:  MOVWF  xC0
0C4AA:  MOVLB  0
0C4AC:  CALL   1E8C
....................                GuardaEEPROM=ON; 
0C4B0:  BSF    xA2.6
....................             } 
....................              
....................             if(Nivel<6) 
0C4B2:  MOVLB  3
0C4B4:  MOVF   x5B,F
0C4B6:  BNZ   C4C4
0C4B8:  MOVF   x5A,W
0C4BA:  SUBLW  05
0C4BC:  BNC   C4C4
....................                desfoguelento=1; 
0C4BE:  MOVLB  0
0C4C0:  BSF    xA6.7
....................             else             
0C4C2:  BRA    C4C8
....................                desfoguelento=0; 
0C4C4:  MOVLB  0
0C4C6:  BCF    xA6.7
....................             if(flagLiquidos){ 
0C4C8:  BTFSS  xA6.4
0C4CA:  BRA    C52A
....................                printf("page Funcionamiento"); 
0C4CC:  MOVLW  AC
0C4CE:  MOVWF  FF6
0C4D0:  MOVLW  14
0C4D2:  MOVWF  FF7
0C4D4:  MOVLW  00
0C4D6:  MOVWF  FF8
0C4D8:  CALL   3DF4
....................                SendDataDisplay();  
0C4DC:  CALL   3E26
....................                NivelSeleccionado=4995*CiclosPersonalizados[CicloLibre-1].NivelDesfogue; 
0C4E0:  MOVLW  01
0C4E2:  MOVLB  3
0C4E4:  SUBWF  x2B,W
0C4E6:  MULLW  0A
0C4E8:  MOVF   FF3,W
0C4EA:  MOVLB  7
0C4EC:  CLRF   xB1
0C4EE:  MOVWF  xB0
0C4F0:  MOVLW  08
0C4F2:  ADDWF  xB0,W
0C4F4:  MOVWF  01
0C4F6:  MOVLW  00
0C4F8:  ADDWFC xB1,W
0C4FA:  MOVWF  03
0C4FC:  MOVF   01,W
0C4FE:  ADDLW  C0
0C500:  MOVWF  FE9
0C502:  MOVLW  06
0C504:  ADDWFC 03,W
0C506:  MOVWF  FEA
0C508:  MOVFF  FEF,7B0
0C50C:  MOVLW  13
0C50E:  MOVWF  xBB
0C510:  MOVLW  83
0C512:  MOVWF  xBA
0C514:  CLRF   xBD
0C516:  MOVFF  7B0,7BC
0C51A:  MOVLB  0
0C51C:  CALL   1F28
0C520:  MOVFF  02,B6
0C524:  MOVFF  01,B5
....................             }else{ 
0C528:  BRA    C53E
....................                printf("page CicloPersona"); 
0C52A:  MOVLW  C0
0C52C:  MOVWF  FF6
0C52E:  MOVLW  14
0C530:  MOVWF  FF7
0C532:  MOVLW  00
0C534:  MOVWF  FF8
0C536:  CALL   3DF4
....................                SendDataDisplay();  
0C53A:  CALL   3E26
....................             } 
....................          } 
....................           
....................          if(RX_Buffer[4]==0x0d){//Tecla Arriba Oprimida 
0C53E:  MOVF   34,W
0C540:  SUBLW  0D
0C542:  BNZ   C54A
....................             NivelDes++; 
0C544:  INCF   xC5,F
....................             RX_Buffer[4]=0x00;             
0C546:  CLRF   34
....................             RX_Buffer2[4]=0x00;                        
0C548:  CLRF   3F
....................          } 
....................           
....................          if(RX_Buffer[4]==0x0c){//Tecla Abajo Oprimida 
0C54A:  MOVF   34,W
0C54C:  SUBLW  0C
0C54E:  BNZ   C556
....................             NivelDes--; 
0C550:  DECF   xC5,F
....................             RX_Buffer[4]=0x00; 
0C552:  CLRF   34
....................             RX_Buffer2[4]=0x00;                         
0C554:  CLRF   3F
....................          } 
....................           
....................       printf("tnivel.txt=\"%u\"",NivelDes); 
0C556:  MOVLW  D2
0C558:  MOVWF  FF6
0C55A:  MOVLW  14
0C55C:  MOVWF  FF7
0C55E:  MOVLW  00
0C560:  MOVWF  FF8
0C562:  MOVLW  0C
0C564:  MOVLB  7
0C566:  MOVWF  xB5
0C568:  MOVLB  0
0C56A:  CALL   556C
0C56E:  MOVFF  C5,7B5
0C572:  MOVLW  1B
0C574:  MOVLB  7
0C576:  MOVWF  xB6
0C578:  MOVLB  0
0C57A:  CALL   5858
0C57E:  MOVLW  22
0C580:  BTFSS  F9E.4
0C582:  BRA    C580
0C584:  MOVWF  FAD
....................       SendDataDisplay(); 
0C586:  CALL   3E26
0C58A:  MOVLB  3
....................    } 
.................... //_--------------------------------------------------------------------------------------------------------------------------------------------------------       
....................  
.................... //_--------------------------------------------------------------------------------------------------------------------------------------------------------       
....................     if(Menu==14){//Menu de Activacion de Ciclos 
0C58C:  MOVF   x45,W
0C58E:  SUBLW  0E
0C590:  BTFSS  FD8.2
0C592:  BRA    C7F2
....................       printf("fecha.txt=\"T:%2.1fC Fecha:%02u/%02u/20%02u Hora:%02u:%02u:%02u\"",Temperatura,Dia,Mes,Year,Hora,Minuto,Segundo); 
0C594:  MOVLW  E2
0C596:  MOVWF  FF6
0C598:  MOVLW  14
0C59A:  MOVWF  FF7
0C59C:  MOVLW  00
0C59E:  MOVWF  FF8
0C5A0:  MOVLW  0D
0C5A2:  MOVLB  7
0C5A4:  MOVWF  xB5
0C5A6:  MOVLB  0
0C5A8:  CALL   556C
0C5AC:  MOVLW  01
0C5AE:  MOVWF  FE9
0C5B0:  MOVFF  314,7B8
0C5B4:  MOVFF  313,7B7
0C5B8:  MOVFF  312,7B6
0C5BC:  MOVFF  311,7B5
0C5C0:  MOVLB  7
0C5C2:  MOVWF  xB9
0C5C4:  MOVLB  0
0C5C6:  CALL   5688
0C5CA:  MOVLW  F4
0C5CC:  MOVWF  FF6
0C5CE:  MOVLW  14
0C5D0:  MOVWF  FF7
0C5D2:  MOVLW  00
0C5D4:  MOVWF  FF8
0C5D6:  MOVLW  09
0C5D8:  MOVLB  7
0C5DA:  MOVWF  xB5
0C5DC:  MOVLB  0
0C5DE:  CALL   556C
0C5E2:  MOVFF  37D,7B5
0C5E6:  MOVLW  01
0C5E8:  MOVLB  7
0C5EA:  MOVWF  xB6
0C5EC:  MOVLB  0
0C5EE:  CALL   5858
0C5F2:  MOVLW  2F
0C5F4:  BTFSS  F9E.4
0C5F6:  BRA    C5F4
0C5F8:  MOVWF  FAD
0C5FA:  MOVFF  37C,7B5
0C5FE:  MOVLW  01
0C600:  MOVLB  7
0C602:  MOVWF  xB6
0C604:  MOVLB  0
0C606:  CALL   5858
0C60A:  MOVLW  2F
0C60C:  BTFSS  F9E.4
0C60E:  BRA    C60C
0C610:  MOVWF  FAD
0C612:  MOVLW  32
0C614:  BTFSS  F9E.4
0C616:  BRA    C614
0C618:  MOVWF  FAD
0C61A:  MOVLW  30
0C61C:  BTFSS  F9E.4
0C61E:  BRA    C61C
0C620:  MOVWF  FAD
0C622:  MOVFF  37B,7B5
0C626:  MOVLW  01
0C628:  MOVLB  7
0C62A:  MOVWF  xB6
0C62C:  MOVLB  0
0C62E:  CALL   5858
0C632:  MOVLW  0D
0C634:  MOVWF  FF6
0C636:  MOVLW  15
0C638:  MOVWF  FF7
0C63A:  MOVLW  00
0C63C:  MOVWF  FF8
0C63E:  MOVLW  06
0C640:  MOVLB  7
0C642:  MOVWF  xB5
0C644:  MOVLB  0
0C646:  CALL   556C
0C64A:  MOVFF  37E,7B5
0C64E:  MOVLW  01
0C650:  MOVLB  7
0C652:  MOVWF  xB6
0C654:  MOVLB  0
0C656:  CALL   5858
0C65A:  MOVLW  3A
0C65C:  BTFSS  F9E.4
0C65E:  BRA    C65C
0C660:  MOVWF  FAD
0C662:  MOVFF  37F,7B5
0C666:  MOVLW  01
0C668:  MOVLB  7
0C66A:  MOVWF  xB6
0C66C:  MOVLB  0
0C66E:  CALL   5858
0C672:  MOVLW  3A
0C674:  BTFSS  F9E.4
0C676:  BRA    C674
0C678:  MOVWF  FAD
0C67A:  MOVFF  380,7B5
0C67E:  MOVLW  01
0C680:  MOVLB  7
0C682:  MOVWF  xB6
0C684:  MOVLB  0
0C686:  CALL   5858
0C68A:  MOVLW  22
0C68C:  BTFSS  F9E.4
0C68E:  BRA    C68C
0C690:  MOVWF  FAD
....................       SendDataDisplay(); 
0C692:  CALL   3E26
....................        
....................       if(RX_Buffer[4]==0xaa){ 
0C696:  MOVF   34,W
0C698:  SUBLW  AA
0C69A:  BNZ   C724
....................          for(i=0;i<30;i++){ 
0C69C:  MOVLB  3
0C69E:  CLRF   x48
0C6A0:  MOVF   x48,W
0C6A2:  SUBLW  1D
0C6A4:  BNC   C70A
....................             write_eeprom(50+i,estados[i]); 
0C6A6:  MOVLW  32
0C6A8:  ADDWF  x48,W
0C6AA:  MOVLB  7
0C6AC:  MOVWF  xB0
0C6AE:  MOVFF  348,7B1
0C6B2:  MOVLW  03
0C6B4:  MOVWF  xB3
0C6B6:  MOVLW  F4
0C6B8:  MOVWF  xB2
0C6BA:  MOVLB  0
0C6BC:  CALL   1EF6
0C6C0:  MOVLW  00
0C6C2:  BTFSC  01.0
0C6C4:  MOVLW  01
0C6C6:  MOVLB  7
0C6C8:  MOVWF  xB1
0C6CA:  CLRF   FAA
0C6CC:  MOVFF  7B0,FA9
0C6D0:  MOVFF  7B1,FA8
0C6D4:  BCF    FA6.6
0C6D6:  BCF    FA6.7
0C6D8:  BSF    FA6.2
0C6DA:  MOVF   FF2,W
0C6DC:  MOVWF  00
0C6DE:  BCF    FF2.6
0C6E0:  BCF    FF2.7
0C6E2:  MOVLB  F
0C6E4:  MOVLW  55
0C6E6:  MOVWF  FA7
0C6E8:  MOVLW  AA
0C6EA:  MOVWF  FA7
0C6EC:  BSF    FA6.1
0C6EE:  BTFSC  FA6.1
0C6F0:  BRA    C6EE
0C6F2:  BCF    FA6.2
0C6F4:  MOVF   00,W
0C6F6:  IORWF  FF2,F
....................             delay_ms(10); 
0C6F8:  MOVLW  0A
0C6FA:  MOVLB  7
0C6FC:  MOVWF  xC0
0C6FE:  MOVLB  0
0C700:  CALL   1E8C
....................          } 
0C704:  MOVLB  3
0C706:  INCF   x48,F
0C708:  BRA    C6A0
....................          printf("page Ajustes"); 
0C70A:  MOVLW  24
0C70C:  MOVWF  FF6
0C70E:  MOVLW  15
0C710:  MOVWF  FF7
0C712:  MOVLW  00
0C714:  MOVWF  FF8
0C716:  MOVLB  0
0C718:  CALL   3DF4
....................          SendDataDisplay();  
0C71C:  CALL   3E26
....................          RX_Buffer[4]=0x00; 
0C720:  CLRF   34
....................          RX_Buffer2[4]=0x00; 
0C722:  CLRF   3F
....................       } 
....................        
....................       for(i=0;i<30;i++){ 
0C724:  MOVLB  3
0C726:  CLRF   x48
0C728:  MOVF   x48,W
0C72A:  SUBLW  1D
0C72C:  BNC   C7F2
....................          if(RX_Buffer[4]==i+1){ 
0C72E:  MOVLW  01
0C730:  ADDWF  x48,W
0C732:  SUBWF  34,W
0C734:  BNZ   C76A
....................             estados[i]=!estados[i]; 
0C736:  MOVFF  348,7B1
0C73A:  MOVLW  03
0C73C:  MOVLB  7
0C73E:  MOVWF  xB3
0C740:  MOVLW  F4
0C742:  MOVWF  xB2
0C744:  MOVLB  0
0C746:  CALL   1EF6
0C74A:  MOVLW  00
0C74C:  BTFSS  01.0
0C74E:  MOVLW  01
0C750:  MOVFF  348,7B2
0C754:  MOVLB  7
0C756:  MOVWF  xB3
0C758:  MOVLW  03
0C75A:  MOVWF  xB5
0C75C:  MOVLW  F4
0C75E:  MOVWF  xB4
0C760:  MOVLB  0
0C762:  CALL   1EB4
....................             RX_Buffer[4]=0x00; 
0C766:  CLRF   34
....................             RX_Buffer2[4]=0x00; 
0C768:  CLRF   3F
....................          } 
....................           
....................          if(estados[i]){ 
0C76A:  MOVFF  348,7B1
0C76E:  MOVLW  03
0C770:  MOVLB  7
0C772:  MOVWF  xB3
0C774:  MOVLW  F4
0C776:  MOVWF  xB2
0C778:  MOVLB  0
0C77A:  CALL   1EF6
0C77E:  BTFSS  01.0
0C780:  BRA    C7B8
....................             printf("b%u.bco=2016",i); 
0C782:  MOVLW  62
0C784:  BTFSS  F9E.4
0C786:  BRA    C784
0C788:  MOVWF  FAD
0C78A:  MOVFF  348,7B5
0C78E:  MOVLW  1B
0C790:  MOVLB  7
0C792:  MOVWF  xB6
0C794:  MOVLB  0
0C796:  CALL   5858
0C79A:  MOVLW  35
0C79C:  MOVWF  FF6
0C79E:  MOVLW  15
0C7A0:  MOVWF  FF7
0C7A2:  MOVLW  00
0C7A4:  MOVWF  FF8
0C7A6:  MOVLW  09
0C7A8:  MOVLB  7
0C7AA:  MOVWF  xB5
0C7AC:  MOVLB  0
0C7AE:  CALL   556C
....................             SendDataDisplay();              
0C7B2:  CALL   3E26
....................          }else{ 
0C7B6:  BRA    C7EC
....................             printf("b%u.bco=63488",i); 
0C7B8:  MOVLW  62
0C7BA:  BTFSS  F9E.4
0C7BC:  BRA    C7BA
0C7BE:  MOVWF  FAD
0C7C0:  MOVFF  348,7B5
0C7C4:  MOVLW  1B
0C7C6:  MOVLB  7
0C7C8:  MOVWF  xB6
0C7CA:  MOVLB  0
0C7CC:  CALL   5858
0C7D0:  MOVLW  43
0C7D2:  MOVWF  FF6
0C7D4:  MOVLW  15
0C7D6:  MOVWF  FF7
0C7D8:  MOVLW  00
0C7DA:  MOVWF  FF8
0C7DC:  MOVLW  0A
0C7DE:  MOVLB  7
0C7E0:  MOVWF  xB5
0C7E2:  MOVLB  0
0C7E4:  CALL   556C
....................             SendDataDisplay();  
0C7E8:  CALL   3E26
....................          } 
....................       } 
0C7EC:  MOVLB  3
0C7EE:  INCF   x48,F
0C7F0:  BRA    C728
....................    } 
.................... //_--------------------------------------------------------------------------------------------------------------------------------------------------------       
....................  
.................... //_--------------------------------------------------------------------------------------------------------------------------------------------------------       
....................     if(Menu==15){//Menu de Clave Correcta 
0C7F2:  MOVF   x45,W
0C7F4:  SUBLW  0F
0C7F6:  BNZ   C82E
....................       if(!entro){ 
0C7F8:  MOVLB  0
0C7FA:  BTFSC  xA5.2
0C7FC:  BRA    C818
....................          delay_ms(2000); 
0C7FE:  MOVLW  08
0C800:  MOVLB  7
0C802:  MOVWF  xB0
0C804:  MOVLW  FA
0C806:  MOVWF  xC0
0C808:  MOVLB  0
0C80A:  CALL   1E8C
0C80E:  MOVLB  7
0C810:  DECFSZ xB0,F
0C812:  BRA    C804
....................          entro=ON; 
0C814:  MOVLB  0
0C816:  BSF    xA5.2
....................       } 
....................       printf("page MenuPrincipal"); 
0C818:  MOVLW  4E
0C81A:  MOVWF  FF6
0C81C:  MOVLW  15
0C81E:  MOVWF  FF7
0C820:  MOVLW  00
0C822:  MOVWF  FF8
0C824:  CALL   3DF4
....................       SendDataDisplay(); 
0C828:  CALL   3E26
0C82C:  MOVLB  3
....................    } 
.................... //_--------------------------------------------------------------------------------------------------------------------------------------------------------       
....................  
.................... //_--------------------------------------------------------------------------------------------------------------------------------------------------------       
....................     if(Menu==16){//Menu de Clave InCorrecta 
0C82E:  MOVF   x45,W
0C830:  SUBLW  10
0C832:  BNZ   C86A
....................       if(!entro){ 
0C834:  MOVLB  0
0C836:  BTFSC  xA5.2
0C838:  BRA    C854
....................          delay_ms(2000); 
0C83A:  MOVLW  08
0C83C:  MOVLB  7
0C83E:  MOVWF  xB0
0C840:  MOVLW  FA
0C842:  MOVWF  xC0
0C844:  MOVLB  0
0C846:  CALL   1E8C
0C84A:  MOVLB  7
0C84C:  DECFSZ xB0,F
0C84E:  BRA    C840
....................          entro=ON; 
0C850:  MOVLB  0
0C852:  BSF    xA5.2
....................       } 
....................       printf("page Clave"); 
0C854:  MOVLW  62
0C856:  MOVWF  FF6
0C858:  MOVLW  15
0C85A:  MOVWF  FF7
0C85C:  MOVLW  00
0C85E:  MOVWF  FF8
0C860:  CALL   3DF4
....................       SendDataDisplay(); 
0C864:  CALL   3E26
0C868:  MOVLB  3
....................    } 
.................... //_--------------------------------------------------------------------------------------------------------------------------------------------------------       
....................  
.................... //_--------------------------------------------------------------------------------------------------------------------------------------------------------     
....................    if(Menu==20){ // Este es el menu de cuando el proceso se inicio. 
0C86A:  MOVF   x45,W
0C86C:  SUBLW  14
0C86E:  BTFSS  FD8.2
0C870:  GOTO   D8A8
....................    GuardaDatoEstatico(); 
0C874:  MOVLB  0
0C876:  GOTO   6840
....................    guardaCiclo=ON; 
0C87A:  BSF    xA4.2
....................    if(!Libre){ 
0C87C:  BTFSC  xA3.6
0C87E:  BRA    C918
....................       printf("t2f.txt=\"%u\"",CicloSeleccionado); 
0C880:  MOVLW  6E
0C882:  MOVWF  FF6
0C884:  MOVLW  15
0C886:  MOVWF  FF7
0C888:  MOVLW  00
0C88A:  MOVWF  FF8
0C88C:  MOVLW  09
0C88E:  MOVLB  7
0C890:  MOVWF  xB5
0C892:  MOVLB  0
0C894:  CALL   556C
0C898:  MOVFF  34B,7B5
0C89C:  MOVLW  1B
0C89E:  MOVLB  7
0C8A0:  MOVWF  xB6
0C8A2:  MOVLB  0
0C8A4:  CALL   5858
0C8A8:  MOVLW  22
0C8AA:  BTFSS  F9E.4
0C8AC:  BRA    C8AA
0C8AE:  MOVWF  FAD
....................       SendDataDisplay(); 
0C8B0:  CALL   3E26
....................       printf("t3f.txt=\"%s\"",Texto[CicloSeleccionado-1]); 
0C8B4:  MOVLW  01
0C8B6:  MOVLB  3
0C8B8:  SUBWF  x4B,W
0C8BA:  MOVLB  7
0C8BC:  MOVWF  xB1
0C8BE:  CLRF   xBB
0C8C0:  MOVWF  xBA
0C8C2:  CLRF   xBD
0C8C4:  MOVLW  18
0C8C6:  MOVWF  xBC
0C8C8:  MOVLB  0
0C8CA:  CALL   1F28
0C8CE:  MOVFF  02,7B1
0C8D2:  MOVLB  7
0C8D4:  MOVFF  01,7B0
0C8D8:  MOVLW  7C
0C8DA:  MOVWF  FF6
0C8DC:  MOVLW  15
0C8DE:  MOVWF  FF7
0C8E0:  MOVLW  00
0C8E2:  MOVWF  FF8
0C8E4:  MOVLW  09
0C8E6:  MOVWF  xB5
0C8E8:  MOVLB  0
0C8EA:  CALL   556C
0C8EE:  MOVLW  26
0C8F0:  MOVWF  FF6
0C8F2:  MOVLW  03
0C8F4:  MOVWF  FF7
0C8F6:  MOVLW  00
0C8F8:  MOVWF  FF8
0C8FA:  MOVLB  7
0C8FC:  MOVF   xB0,W
0C8FE:  ADDWF  FF6,F
0C900:  MOVF   xB1,W
0C902:  ADDWFC FF7,F
0C904:  MOVLB  0
0C906:  CALL   3DF4
0C90A:  MOVLW  22
0C90C:  BTFSS  F9E.4
0C90E:  BRA    C90C
0C910:  MOVWF  FAD
....................       SendDataDisplay(); 
0C912:  CALL   3E26
....................    }else{ 
0C916:  BRA    C968
....................       printf("t2f.txt=\"%u\"",CicloLibre+10); 
0C918:  MOVLW  0A
0C91A:  MOVLB  3
0C91C:  ADDWF  x2B,W
0C91E:  MOVLB  7
0C920:  MOVWF  xB0
0C922:  MOVLW  8A
0C924:  MOVWF  FF6
0C926:  MOVLW  15
0C928:  MOVWF  FF7
0C92A:  MOVLW  00
0C92C:  MOVWF  FF8
0C92E:  MOVLW  09
0C930:  MOVWF  xB5
0C932:  MOVLB  0
0C934:  CALL   556C
0C938:  MOVFF  7B0,7B5
0C93C:  MOVLW  1B
0C93E:  MOVLB  7
0C940:  MOVWF  xB6
0C942:  MOVLB  0
0C944:  CALL   5858
0C948:  MOVLW  22
0C94A:  BTFSS  F9E.4
0C94C:  BRA    C94A
0C94E:  MOVWF  FAD
....................       SendDataDisplay(); 
0C950:  CALL   3E26
....................       printf("t3f.txt=\"Personalizado\""); 
0C954:  MOVLW  98
0C956:  MOVWF  FF6
0C958:  MOVLW  15
0C95A:  MOVWF  FF7
0C95C:  MOVLW  00
0C95E:  MOVWF  FF8
0C960:  CALL   3DF4
....................       SendDataDisplay(); 
0C964:  CALL   3E26
....................    } 
....................     
....................    //if(!Finalizo && !Secando){ 
....................       if(pulsoSubir) 
0C968:  BTFSS  xA6.5
0C96A:  BRA    C972
....................          abrePuerta(); 
0C96C:  CALL   59F6
....................       else if(pulsoBajar) 
0C970:  BRA    C980
0C972:  BTFSS  xA6.6
0C974:  BRA    C97C
....................         cierraPuerta();  
0C976:  CALL   5A66
....................       else  
0C97A:  BRA    C980
....................          detienePuerta(); 
0C97C:  CALL   4D44
....................    //} 
....................           
....................    if(UPD){//Oprimio Subir Puerta 
0C980:  BSF    F93.0
0C982:  BTFSC  F81.0
0C984:  BRA    C98A
....................       pulsoSubir=ON; 
0C986:  BSF    xA6.5
....................       pulsoBajar=OFF; 
0C988:  BCF    xA6.6
....................    } 
....................     
....................    if(!DND && !UPD){//Solto Botones 
0C98A:  BSF    F93.1
0C98C:  BTFSS  F81.1
0C98E:  BRA    C99A
0C990:  BSF    F93.0
0C992:  BTFSS  F81.0
0C994:  BRA    C99A
....................       pulsoSubir=OFF; 
0C996:  BCF    xA6.5
....................       pulsoBajar=OFF; 
0C998:  BCF    xA6.6
....................    } 
....................     
....................    if(DND){//Oprimio Bajar Puerta 
0C99A:  BSF    F93.1
0C99C:  BTFSC  F81.1
0C99E:  BRA    C9A4
....................       pulsoSubir=OFF; 
0C9A0:  BCF    xA6.5
....................       pulsoBajar=ON; 
0C9A2:  BSF    xA6.6
....................    } 
....................        
....................    if(PresionPreCamara>280 || PresionCamara>280){ 
0C9A4:  MOVLB  3
0C9A6:  MOVF   x61,W
0C9A8:  SUBLW  00
0C9AA:  BC    C9B6
0C9AC:  XORLW  FF
0C9AE:  BNZ   C9C6
0C9B0:  MOVF   x60,W
0C9B2:  SUBLW  18
0C9B4:  BNC   C9C6
0C9B6:  MOVF   x5F,W
0C9B8:  SUBLW  00
0C9BA:  BC    C9CA
0C9BC:  XORLW  FF
0C9BE:  BNZ   C9C6
0C9C0:  MOVF   x5E,W
0C9C2:  SUBLW  18
0C9C4:  BC    C9CA
....................       AlarmaPresion=ON; 
0C9C6:  MOVLB  0
0C9C8:  BSF    xA3.5
....................    } 
....................     
....................    if(TiempoCiclo>1800 && !Fugas){//ANALIZAR BIEN ESTA ALARMA 
0C9CA:  MOVLB  0
0C9CC:  MOVF   xA8,W
0C9CE:  SUBLW  06
0C9D0:  BC    CA08
0C9D2:  XORLW  FF
0C9D4:  BNZ   C9DC
0C9D6:  MOVF   xA7,W
0C9D8:  SUBLW  08
0C9DA:  BC    CA08
0C9DC:  BTFSC  xA4.0
0C9DE:  BRA    CA08
....................       if(TiempoCiclo>3600){ 
0C9E0:  MOVF   xA8,W
0C9E2:  SUBLW  0D
0C9E4:  BC    C9F2
0C9E6:  XORLW  FF
0C9E8:  BNZ   C9F0
0C9EA:  MOVF   xA7,W
0C9EC:  SUBLW  10
0C9EE:  BC    C9F2
....................          AlarmaTiempoProlongado=ON; 
0C9F0:  BSF    x9F.0
....................       } 
....................       if(PresionPrecamara<10){ 
0C9F2:  MOVLB  3
0C9F4:  MOVF   x61,F
0C9F6:  BNZ   CA04
0C9F8:  MOVF   x60,W
0C9FA:  SUBLW  09
0C9FC:  BNC   CA04
....................          AlarmaTiempoProlongado=ON; 
0C9FE:  MOVLB  0
0CA00:  BSF    x9F.0
0CA02:  MOVLB  3
....................       } 
....................    }else{ 
0CA04:  BRA    CA0A
0CA06:  MOVLB  0
....................       AlarmaTiempoProlongado=OFF; 
0CA08:  BCF    x9F.0
....................    } 
....................     
....................    if(Temperatura>Setpoint+4.0 && !Fugas){ 
0CA0A:  MOVLB  7
0CA0C:  CLRF   xC3
0CA0E:  MOVFF  34C,7C2
0CA12:  MOVLB  0
0CA14:  CALL   1E56
0CA18:  BCF    FD8.1
0CA1A:  MOVFF  03,7C5
0CA1E:  MOVFF  02,7C4
0CA22:  MOVFF  01,7C3
0CA26:  MOVFF  00,7C2
0CA2A:  MOVLB  7
0CA2C:  CLRF   xC9
0CA2E:  CLRF   xC8
0CA30:  CLRF   xC7
0CA32:  MOVLW  81
0CA34:  MOVWF  xC6
0CA36:  MOVLB  0
0CA38:  CALL   2270
0CA3C:  MOVFF  03,7B9
0CA40:  MOVFF  02,7B8
0CA44:  MOVFF  01,7B7
0CA48:  MOVFF  00,7B6
0CA4C:  MOVFF  314,7BD
0CA50:  MOVFF  313,7BC
0CA54:  MOVFF  312,7BB
0CA58:  MOVFF  311,7BA
0CA5C:  CALL   24E8
0CA60:  BNC   CA68
0CA62:  BTFSC  xA4.0
0CA64:  BRA    CA68
....................       AlarmaSobreTemperatura=ON; 
0CA66:  BSF    x9F.1
....................    } 
....................     
....................    if(!TERM){ 
0CA68:  BSF    F93.4
0CA6A:  BTFSC  F81.4
0CA6C:  BRA    CA8E
....................       delay_ms(1000); 
0CA6E:  MOVLW  04
0CA70:  MOVLB  7
0CA72:  MOVWF  xB0
0CA74:  MOVLW  FA
0CA76:  MOVWF  xC0
0CA78:  MOVLB  0
0CA7A:  CALL   1E8C
0CA7E:  MOVLB  7
0CA80:  DECFSZ xB0,F
0CA82:  BRA    CA74
....................       if(!TERM){ 
0CA84:  BSF    F93.4
0CA86:  BTFSC  F81.4
0CA88:  BRA    CA90
....................          AlarmaTermostato=ON; 
0CA8A:  MOVLB  0
0CA8C:  BSF    x9F.3
0CA8E:  MOVLB  7
....................       } 
....................    } 
....................     
....................    if(!DOOR){ 
0CA90:  BSF    F93.7
0CA92:  BTFSS  F81.7
0CA94:  BRA    CAAE
....................       Paso_off; 
0CA96:  BSF    F8B.0
0CA98:  BCF    F94.0
....................       if(!Secando && !Finalizo && !Desfogando){ 
0CA9A:  MOVLB  0
0CA9C:  BTFSC  xA1.1
0CA9E:  BRA    CAAA
0CAA0:  BTFSC  xA3.4
0CAA2:  BRA    CAAA
0CAA4:  BTFSC  xA1.3
0CAA6:  BRA    CAAA
....................          AlarmaPuerta=ON; 
0CAA8:  BSF    x9F.4
....................       } 
....................    }else{ 
0CAAA:  BRA    CABE
0CAAC:  MOVLB  7
....................       AlarmaPuerta=OFF; 
0CAAE:  MOVLB  0
0CAB0:  BCF    x9F.4
....................       if(!Finalizo || !Secando){ 
0CAB2:  BTFSS  xA3.4
0CAB4:  BRA    CABA
0CAB6:  BTFSC  xA1.1
0CAB8:  BRA    CABE
....................          bloqueaPuerta(); 
0CABA:  CALL   5AB8
....................       } 
....................    } 
....................  
....................    if(!STOP){ 
0CABE:  BSF    F93.5
0CAC0:  BTFSS  F81.5
0CAC2:  BRA    CAC6
....................       AlarmaEmergencia=ON; 
0CAC4:  BSF    x9F.5
....................    } 
....................     
....................    if(AlarmaPuerta || AlarmaTermostato || AlarmaSobreTemperatura || AlarmaTiempoProlongado || AlarmaEmergencia || AlarmaPresion || AlarmaBomba  
....................          || AlarmaVacio || AlarmaLlenado){ 
0CAC6:  BTFSC  x9F.4
0CAC8:  BRA    CAEA
0CACA:  BTFSC  x9F.3
0CACC:  BRA    CAEA
0CACE:  BTFSC  x9F.1
0CAD0:  BRA    CAEA
0CAD2:  BTFSC  x9F.0
0CAD4:  BRA    CAEA
0CAD6:  BTFSC  x9F.5
0CAD8:  BRA    CAEA
0CADA:  BTFSC  xA3.5
0CADC:  BRA    CAEA
0CADE:  BTFSC  x9F.6
0CAE0:  BRA    CAEA
0CAE2:  BTFSC  x9F.7
0CAE4:  BRA    CAEA
0CAE6:  BTFSS  x9F.2
0CAE8:  BRA    CEA0
....................       ActivaAlarma(1); 
0CAEA:  MOVLW  01
0CAEC:  MOVLB  7
0CAEE:  MOVWF  xB0
0CAF0:  MOVLB  0
0CAF2:  CALL   541A
....................       if(AlarmaEmergencia){ 
0CAF6:  BTFSS  x9F.5
0CAF8:  BRA    CB86
....................          codigoAlarma=1; 
0CAFA:  MOVLW  01
0CAFC:  MOVLB  3
0CAFE:  MOVWF  x30
....................          printf("Funcionamiento.t4f.txt=\" Parada de Emergencia\""); 
0CB00:  MOVLW  B0
0CB02:  MOVWF  FF6
0CB04:  MOVLW  15
0CB06:  MOVWF  FF7
0CB08:  MOVLW  00
0CB0A:  MOVWF  FF8
0CB0C:  MOVLB  0
0CB0E:  CALL   3DF4
....................          SendDataDisplay(); 
0CB12:  CALL   3E26
....................          printf("Funcionamiento.t5f.txt=\" Cancelado\""); 
0CB16:  MOVLW  E0
0CB18:  MOVWF  FF6
0CB1A:  MOVLW  15
0CB1C:  MOVWF  FF7
0CB1E:  MOVLW  00
0CB20:  MOVWF  FF8
0CB22:  CALL   3DF4
....................          SendDataDisplay(); 
0CB26:  CALL   3E26
....................          Desfogue_on; 
0CB2A:  BCF    F8B.1
0CB2C:  BCF    F94.1
....................          Paso_off; 
0CB2E:  BSF    F8B.0
0CB30:  BCF    F94.0
....................          Agua_off; 
0CB32:  BSF    F8B.2
0CB34:  BCF    F94.2
....................          SSR_off; 
0CB36:  BCF    F8D.1
0CB38:  BCF    F96.1
....................          SSR2_off; 
0CB3A:  BCF    F8D.2
0CB3C:  BCF    F96.2
....................          Esterilizando=OFF; 
0CB3E:  BCF    xA1.0
....................          Desfogando=OFF; 
0CB40:  BCF    xA1.3
....................          DesfogueSuave=OFF; 
0CB42:  BCF    xA1.4
....................          IniciaCiclo=OFF; 
0CB44:  BCF    xA0.7
....................          Controlando=0; 
0CB46:  MOVLB  3
0CB48:  CLRF   x3E
....................          if(codigoAnt!=codigoAlarma){ 
0CB4A:  MOVF   x30,W
0CB4C:  SUBWF  x73,W
0CB4E:  BZ    CB60
....................             codigoAnt=codigoAlarma; 
0CB50:  MOVFF  330,373
....................             GuardaDatoCiclo(); 
0CB54:  MOVLB  0
0CB56:  CALL   6AF8
....................             incrementaCiclos(); 
0CB5A:  CALL   6E9C
0CB5E:  MOVLB  3
....................          } 
....................          if(!flagImprimir){ 
0CB60:  BTFSC  x3B.5
0CB62:  BRA    CB82
....................             Imprime=20; 
0CB64:  MOVLW  14
0CB66:  MOVWF  x89
....................             Envio_Esclavos(); 
0CB68:  MOVLB  0
0CB6A:  CALL   50F6
....................             delay_ms(100); 
0CB6E:  MOVLW  64
0CB70:  MOVLB  7
0CB72:  MOVWF  xC0
0CB74:  MOVLB  0
0CB76:  CALL   1E8C
....................             Imprime=10; 
0CB7A:  MOVLW  0A
0CB7C:  MOVLB  3
0CB7E:  MOVWF  x89
....................             flagImprimir=1; 
0CB80:  BSF    x3B.5
....................          } 
....................       }else if(AlarmaPuerta){ 
0CB82:  BRA    CE9C
0CB84:  MOVLB  0
0CB86:  BTFSS  x9F.4
0CB88:  BRA    CBE8
....................          codigoAlarma=2; 
0CB8A:  MOVLW  02
0CB8C:  MOVLB  3
0CB8E:  MOVWF  x30
....................          printf("Funcionamiento.t4f.txt=\" Puerta Abierta\""); 
0CB90:  MOVLW  04
0CB92:  MOVWF  FF6
0CB94:  MOVLW  16
0CB96:  MOVWF  FF7
0CB98:  MOVLW  00
0CB9A:  MOVWF  FF8
0CB9C:  MOVLB  0
0CB9E:  CALL   3DF4
....................          SendDataDisplay(); 
0CBA2:  CALL   3E26
....................          printf("Funcionamiento.t5f.txt=\" Pausado\""); 
0CBA6:  MOVLW  2E
0CBA8:  MOVWF  FF6
0CBAA:  MOVLW  16
0CBAC:  MOVWF  FF7
0CBAE:  MOVLW  00
0CBB0:  MOVWF  FF8
0CBB2:  CALL   3DF4
....................          SendDataDisplay(); 
0CBB6:  CALL   3E26
....................          Desfogue_off; 
0CBBA:  BSF    F8B.1
0CBBC:  BCF    F94.1
....................          Paso_off; 
0CBBE:  BSF    F8B.0
0CBC0:  BCF    F94.0
....................          //Agua_off; 
....................          SSR_off; 
0CBC2:  BCF    F8D.1
0CBC4:  BCF    F96.1
....................          SSR2_off; 
0CBC6:  BCF    F8D.2
0CBC8:  BCF    F96.2
....................          IniciaLlenado=OFF; 
0CBCA:  BCF    xA0.5
....................          IniciaCiclo=OFF; 
0CBCC:  BCF    xA0.7
....................          Controlando=0; 
0CBCE:  MOVLB  3
0CBD0:  CLRF   x3E
....................          if(codigoAnt!=codigoAlarma){ 
0CBD2:  MOVF   x30,W
0CBD4:  SUBWF  x73,W
0CBD6:  BZ    CBE4
....................             codigoAnt=codigoAlarma; 
0CBD8:  MOVFF  330,373
....................             GuardaDatoCiclo(); 
0CBDC:  MOVLB  0
0CBDE:  CALL   6AF8
0CBE2:  MOVLB  3
....................          } 
....................       }else if(AlarmaLlenado){ 
0CBE4:  BRA    CE9C
0CBE6:  MOVLB  0
0CBE8:  BTFSS  x9F.2
0CBEA:  BRA    CC58
....................             printf("Funcionamiento.t4f.txt=\" Tiempo Llenado\""); 
0CBEC:  MOVLW  50
0CBEE:  MOVWF  FF6
0CBF0:  MOVLW  16
0CBF2:  MOVWF  FF7
0CBF4:  MOVLW  00
0CBF6:  MOVWF  FF8
0CBF8:  CALL   3DF4
....................             SendDataDisplay(); 
0CBFC:  CALL   3E26
....................             printf("Funcionamiento.t5f.txt=\" Cancelado\""); 
0CC00:  MOVLW  7A
0CC02:  MOVWF  FF6
0CC04:  MOVLW  16
0CC06:  MOVWF  FF7
0CC08:  MOVLW  00
0CC0A:  MOVWF  FF8
0CC0C:  CALL   3DF4
....................             SendDataDisplay(); 
0CC10:  CALL   3E26
....................             Desfogue_off; 
0CC14:  BSF    F8B.1
0CC16:  BCF    F94.1
....................             Paso_off; 
0CC18:  BSF    F8B.0
0CC1A:  BCF    F94.0
....................             Agua_off; 
0CC1C:  BSF    F8B.2
0CC1E:  BCF    F94.2
....................             SSR_off; 
0CC20:  BCF    F8D.1
0CC22:  BCF    F96.1
....................             SSR2_off; 
0CC24:  BCF    F8D.2
0CC26:  BCF    F96.2
....................             IniciaLlenado=OFF; 
0CC28:  BCF    xA0.5
....................             IniciaCiclo=OFF; 
0CC2A:  BCF    xA0.7
....................             Esterilizando=OFF; 
0CC2C:  BCF    xA1.0
....................             Controlando=0; 
0CC2E:  MOVLB  3
0CC30:  CLRF   x3E
....................             if(!flagImprimir){ 
0CC32:  BTFSC  x3B.5
0CC34:  BRA    CC54
....................                Imprime=21; 
0CC36:  MOVLW  15
0CC38:  MOVWF  x89
....................                Envio_Esclavos(); 
0CC3A:  MOVLB  0
0CC3C:  CALL   50F6
....................                delay_ms(100); 
0CC40:  MOVLW  64
0CC42:  MOVLB  7
0CC44:  MOVWF  xC0
0CC46:  MOVLB  0
0CC48:  CALL   1E8C
....................                Imprime=10; 
0CC4C:  MOVLW  0A
0CC4E:  MOVLB  3
0CC50:  MOVWF  x89
....................                flagImprimir=1; 
0CC52:  BSF    x3B.5
....................             } 
....................       }else if(AlarmaTermostato){ 
0CC54:  BRA    CE9C
0CC56:  MOVLB  0
0CC58:  BTFSS  x9F.3
0CC5A:  BRA    CCEA
....................          codigoAlarma=3; 
0CC5C:  MOVLW  03
0CC5E:  MOVLB  3
0CC60:  MOVWF  x30
....................          tiempo_esterilizacion=0;tiempo_secado=0;          
0CC62:  CLRF   x4F
0CC64:  CLRF   x50
....................          printf("Funcionamiento.t4f.txt=\" Termostato\""); 
0CC66:  MOVLW  9E
0CC68:  MOVWF  FF6
0CC6A:  MOVLW  16
0CC6C:  MOVWF  FF7
0CC6E:  MOVLW  00
0CC70:  MOVWF  FF8
0CC72:  MOVLB  0
0CC74:  CALL   3DF4
....................          SendDataDisplay(); 
0CC78:  CALL   3E26
....................          printf("Funcionamiento.t5f.txt=\" Cancelado\""); 
0CC7C:  MOVLW  C4
0CC7E:  MOVWF  FF6
0CC80:  MOVLW  16
0CC82:  MOVWF  FF7
0CC84:  MOVLW  00
0CC86:  MOVWF  FF8
0CC88:  CALL   3DF4
....................          SendDataDisplay(); 
0CC8C:  CALL   3E26
....................          Desfogue_on; 
0CC90:  BCF    F8B.1
0CC92:  BCF    F94.1
....................          Paso_off;          
0CC94:  BSF    F8B.0
0CC96:  BCF    F94.0
....................          Agua_off; 
0CC98:  BSF    F8B.2
0CC9A:  BCF    F94.2
....................          SSR_off; 
0CC9C:  BCF    F8D.1
0CC9E:  BCF    F96.1
....................          SSR2_off; 
0CCA0:  BCF    F8D.2
0CCA2:  BCF    F96.2
....................          Esterilizando=OFF; 
0CCA4:  BCF    xA1.0
....................          Desfogando=OFF; 
0CCA6:  BCF    xA1.3
....................          IniciaCiclo=OFF; 
0CCA8:  BCF    xA0.7
....................          Controlando=0; 
0CCAA:  MOVLB  3
0CCAC:  CLRF   x3E
....................          if(codigoAnt!=codigoAlarma){ 
0CCAE:  MOVF   x30,W
0CCB0:  SUBWF  x73,W
0CCB2:  BZ    CCC4
....................             codigoAnt=codigoAlarma; 
0CCB4:  MOVFF  330,373
....................             GuardaDatoCiclo(); 
0CCB8:  MOVLB  0
0CCBA:  CALL   6AF8
....................             incrementaCiclos(); 
0CCBE:  CALL   6E9C
0CCC2:  MOVLB  3
....................          } 
....................          if(!flagImprimir){ 
0CCC4:  BTFSC  x3B.5
0CCC6:  BRA    CCE6
....................             Imprime=22; 
0CCC8:  MOVLW  16
0CCCA:  MOVWF  x89
....................             Envio_Esclavos(); 
0CCCC:  MOVLB  0
0CCCE:  CALL   50F6
....................             delay_ms(100); 
0CCD2:  MOVLW  64
0CCD4:  MOVLB  7
0CCD6:  MOVWF  xC0
0CCD8:  MOVLB  0
0CCDA:  CALL   1E8C
....................             Imprime=10; 
0CCDE:  MOVLW  0A
0CCE0:  MOVLB  3
0CCE2:  MOVWF  x89
....................             flagImprimir=1; 
0CCE4:  BSF    x3B.5
....................          } 
....................       }else if(AlarmaSobreTemperatura){                   
0CCE6:  BRA    CE9C
0CCE8:  MOVLB  0
0CCEA:  BTFSS  x9F.1
0CCEC:  BRA    CD76
....................          codigoAlarma=4; 
0CCEE:  MOVLW  04
0CCF0:  MOVLB  3
0CCF2:  MOVWF  x30
....................          tiempo_esterilizacion=0;tiempo_secado=0;          
0CCF4:  CLRF   x4F
0CCF6:  CLRF   x50
....................          printf("Funcionamiento.t4f.txt=\" Sobretemperatura\""); 
0CCF8:  MOVLW  E8
0CCFA:  MOVWF  FF6
0CCFC:  MOVLW  16
0CCFE:  MOVWF  FF7
0CD00:  MOVLW  00
0CD02:  MOVWF  FF8
0CD04:  MOVLB  0
0CD06:  CALL   3DF4
....................          SendDataDisplay(); 
0CD0A:  CALL   3E26
....................          printf("Funcionamiento.t5f.txt=\" Cancelado\""); 
0CD0E:  MOVLW  14
0CD10:  MOVWF  FF6
0CD12:  MOVLW  17
0CD14:  MOVWF  FF7
0CD16:  MOVLW  00
0CD18:  MOVWF  FF8
0CD1A:  CALL   3DF4
....................          SendDataDisplay();   
0CD1E:  CALL   3E26
....................          Desfogue_on; 
0CD22:  BCF    F8B.1
0CD24:  BCF    F94.1
....................          Paso_off; 
0CD26:  BSF    F8B.0
0CD28:  BCF    F94.0
....................          Agua_off; 
0CD2A:  BSF    F8B.2
0CD2C:  BCF    F94.2
....................          SSR_off; 
0CD2E:  BCF    F8D.1
0CD30:  BCF    F96.1
....................          SSR2_off; 
0CD32:  BCF    F8D.2
0CD34:  BCF    F96.2
....................          Controlando=0; 
0CD36:  MOVLB  3
0CD38:  CLRF   x3E
....................          if(codigoAnt!=codigoAlarma){ 
0CD3A:  MOVF   x30,W
0CD3C:  SUBWF  x73,W
0CD3E:  BZ    CD50
....................             codigoAnt=codigoAlarma; 
0CD40:  MOVFF  330,373
....................             GuardaDatoCiclo(); 
0CD44:  MOVLB  0
0CD46:  CALL   6AF8
....................             incrementaCiclos(); 
0CD4A:  CALL   6E9C
0CD4E:  MOVLB  3
....................          } 
....................          if(!flagImprimir){ 
0CD50:  BTFSC  x3B.5
0CD52:  BRA    CD72
....................             Imprime=23; 
0CD54:  MOVLW  17
0CD56:  MOVWF  x89
....................             Envio_Esclavos(); 
0CD58:  MOVLB  0
0CD5A:  CALL   50F6
....................             delay_ms(100); 
0CD5E:  MOVLW  64
0CD60:  MOVLB  7
0CD62:  MOVWF  xC0
0CD64:  MOVLB  0
0CD66:  CALL   1E8C
....................             Imprime=10; 
0CD6A:  MOVLW  0A
0CD6C:  MOVLB  3
0CD6E:  MOVWF  x89
....................             flagImprimir=1; 
0CD70:  BSF    x3B.5
....................          } 
....................       }else if(AlarmaTiempoProlongado){ 
0CD72:  BRA    CE9C
0CD74:  MOVLB  0
0CD76:  BTFSS  x9F.0
0CD78:  BRA    CDFE
....................          codigoAlarma=5; 
0CD7A:  MOVLW  05
0CD7C:  MOVLB  3
0CD7E:  MOVWF  x30
....................          printf("Funcionamiento.t4f.txt=\" Tiempo Prolongado\""); 
0CD80:  MOVLW  38
0CD82:  MOVWF  FF6
0CD84:  MOVLW  17
0CD86:  MOVWF  FF7
0CD88:  MOVLW  00
0CD8A:  MOVWF  FF8
0CD8C:  MOVLB  0
0CD8E:  CALL   3DF4
....................          SendDataDisplay(); 
0CD92:  CALL   3E26
....................          printf("Funcionamiento.t5f.txt=\" Cancelado\""); 
0CD96:  MOVLW  64
0CD98:  MOVWF  FF6
0CD9A:  MOVLW  17
0CD9C:  MOVWF  FF7
0CD9E:  MOVLW  00
0CDA0:  MOVWF  FF8
0CDA2:  CALL   3DF4
....................          SendDataDisplay(); 
0CDA6:  CALL   3E26
....................          Desfogue_on; 
0CDAA:  BCF    F8B.1
0CDAC:  BCF    F94.1
....................          Paso_off; 
0CDAE:  BSF    F8B.0
0CDB0:  BCF    F94.0
....................          Agua_off; 
0CDB2:  BSF    F8B.2
0CDB4:  BCF    F94.2
....................          SSR_off; 
0CDB6:  BCF    F8D.1
0CDB8:  BCF    F96.1
....................          SSR2_off; 
0CDBA:  BCF    F8D.2
0CDBC:  BCF    F96.2
....................          Controlando=0; 
0CDBE:  MOVLB  3
0CDC0:  CLRF   x3E
....................          if(codigoAnt!=codigoAlarma){ 
0CDC2:  MOVF   x30,W
0CDC4:  SUBWF  x73,W
0CDC6:  BZ    CDD8
....................             codigoAnt=codigoAlarma; 
0CDC8:  MOVFF  330,373
....................             GuardaDatoCiclo(); 
0CDCC:  MOVLB  0
0CDCE:  CALL   6AF8
....................             incrementaCiclos(); 
0CDD2:  CALL   6E9C
0CDD6:  MOVLB  3
....................          } 
....................          if(!flagImprimir){ 
0CDD8:  BTFSC  x3B.5
0CDDA:  BRA    CDFA
....................             Imprime=24; 
0CDDC:  MOVLW  18
0CDDE:  MOVWF  x89
....................             Envio_Esclavos(); 
0CDE0:  MOVLB  0
0CDE2:  CALL   50F6
....................             delay_ms(100); 
0CDE6:  MOVLW  64
0CDE8:  MOVLB  7
0CDEA:  MOVWF  xC0
0CDEC:  MOVLB  0
0CDEE:  CALL   1E8C
....................             Imprime=10; 
0CDF2:  MOVLW  0A
0CDF4:  MOVLB  3
0CDF6:  MOVWF  x89
....................             flagImprimir=1; 
0CDF8:  BSF    x3B.5
....................          } 
....................       }else if(AlarmaPresion){ // Alarma de Error de SobrePresion: Error por exceso de Presion. 
0CDFA:  BRA    CE9C
0CDFC:  MOVLB  0
0CDFE:  BTFSS  xA3.5
0CE00:  BRA    CE9E
....................          codigoAlarma=6; 
0CE02:  MOVLW  06
0CE04:  MOVLB  3
0CE06:  MOVWF  x30
....................          printf("Funcionamiento.t4f.txt=\" SobrePresion\""); 
0CE08:  MOVLW  88
0CE0A:  MOVWF  FF6
0CE0C:  MOVLW  17
0CE0E:  MOVWF  FF7
0CE10:  MOVLW  00
0CE12:  MOVWF  FF8
0CE14:  MOVLB  0
0CE16:  CALL   3DF4
....................          SendDataDisplay(); 
0CE1A:  CALL   3E26
....................          printf("Funcionamiento.t5f.txt=\" Cancelado\""); 
0CE1E:  MOVLW  B0
0CE20:  MOVWF  FF6
0CE22:  MOVLW  17
0CE24:  MOVWF  FF7
0CE26:  MOVLW  00
0CE28:  MOVWF  FF8
0CE2A:  CALL   3DF4
....................          SendDataDisplay(); 
0CE2E:  CALL   3E26
....................          Desfogue_on; 
0CE32:  BCF    F8B.1
0CE34:  BCF    F94.1
....................          Agua_off; 
0CE36:  BSF    F8B.2
0CE38:  BCF    F94.2
....................          SSR_off; 
0CE3A:  BCF    F8D.1
0CE3C:  BCF    F96.1
....................          SSR2_off; 
0CE3E:  BCF    F8D.2
0CE40:  BCF    F96.2
....................          if(PresionCamara>(Atmosferica+4) && DOOR) 
0CE42:  MOVLW  04
0CE44:  MOVLB  3
0CE46:  ADDWF  x31,W
0CE48:  MOVF   x5F,F
0CE4A:  BNZ   CE52
0CE4C:  SUBWF  x5E,W
0CE4E:  BZ    CE5E
0CE50:  BNC   CE5E
0CE52:  BSF    F93.7
0CE54:  BTFSC  F81.7
0CE56:  BRA    CE5E
....................             Paso_on; 
0CE58:  BCF    F8B.0
0CE5A:  BCF    F94.0
....................          else 
0CE5C:  BRA    CE62
....................             Paso_off; 
0CE5E:  BSF    F8B.0
0CE60:  BCF    F94.0
....................          Controlando=0; 
0CE62:  CLRF   x3E
....................          if(codigoAnt!=codigoAlarma){ 
0CE64:  MOVF   x30,W
0CE66:  SUBWF  x73,W
0CE68:  BZ    CE7A
....................             codigoAnt=codigoAlarma; 
0CE6A:  MOVFF  330,373
....................             GuardaDatoCiclo(); 
0CE6E:  MOVLB  0
0CE70:  CALL   6AF8
....................             incrementaCiclos(); 
0CE74:  CALL   6E9C
0CE78:  MOVLB  3
....................          } 
....................          if(!flagImprimir){ 
0CE7A:  BTFSC  x3B.5
0CE7C:  BRA    CE9C
....................             Imprime=25; 
0CE7E:  MOVLW  19
0CE80:  MOVWF  x89
....................             Envio_Esclavos(); 
0CE82:  MOVLB  0
0CE84:  CALL   50F6
....................             delay_ms(100); 
0CE88:  MOVLW  64
0CE8A:  MOVLB  7
0CE8C:  MOVWF  xC0
0CE8E:  MOVLB  0
0CE90:  CALL   1E8C
....................             Imprime=10; 
0CE94:  MOVLW  0A
0CE96:  MOVLB  3
0CE98:  MOVWF  x89
....................             flagImprimir=1; 
0CE9A:  BSF    x3B.5
0CE9C:  MOVLB  0
....................          } 
....................       } 
....................    }else{ 
0CE9E:  BRA    D43C
....................       if(!Fugas){//Si selecciono un ciclo diferente al test de fugas 
0CEA0:  BTFSC  xA4.0
0CEA2:  BRA    D43C
....................          Buzzer_off; 
0CEA4:  BCF    F8C.7
0CEA6:  BCF    F95.7
....................          IniciaCiclo=ON; 
0CEA8:  BSF    xA0.7
....................        
....................       if(flagImprime){ 
0CEAA:  MOVLB  3
0CEAC:  BTFSS  x3B.4
0CEAE:  BRA    CECE
....................          Imprime=5; 
0CEB0:  MOVLW  05
0CEB2:  MOVWF  x89
....................          Envio_Esclavos(); 
0CEB4:  MOVLB  0
0CEB6:  CALL   50F6
....................          delay_ms(100); 
0CEBA:  MOVLW  64
0CEBC:  MOVLB  7
0CEBE:  MOVWF  xC0
0CEC0:  MOVLB  0
0CEC2:  CALL   1E8C
....................          Imprime=10; 
0CEC6:  MOVLW  0A
0CEC8:  MOVLB  3
0CECA:  MOVWF  x89
....................          flagImprime=0; 
0CECC:  BCF    x3B.4
....................       } 
....................         
....................       if(!CalderinLleno){ 
0CECE:  MOVLB  0
0CED0:  BTFSC  xA0.6
0CED2:  BRA    CF1C
....................          printf("Funcionamiento.t4f.txt=\" Ninguna\""); 
0CED4:  MOVLW  D4
0CED6:  MOVWF  FF6
0CED8:  MOVLW  17
0CEDA:  MOVWF  FF7
0CEDC:  MOVLW  00
0CEDE:  MOVWF  FF8
0CEE0:  CALL   3DF4
....................          SendDataDisplay(); 
0CEE4:  CALL   3E26
....................          printf("Funcionamiento.t5f.txt=\" Llenado Generador\""); 
0CEE8:  MOVLW  F6
0CEEA:  MOVWF  FF6
0CEEC:  MOVLW  17
0CEEE:  MOVWF  FF7
0CEF0:  MOVLW  00
0CEF2:  MOVWF  FF8
0CEF4:  CALL   3DF4
....................          SendDataDisplay(); 
0CEF8:  CALL   3E26
....................          Control=0; 
0CEFC:  MOVLB  3
0CEFE:  CLRF   x3C
....................          IniciaLlenado=ON; 
0CF00:  MOVLB  0
0CF02:  BSF    xA0.5
....................          Controlando=0; 
0CF04:  MOVLB  3
0CF06:  CLRF   x3E
....................          Desfogue_off; 
0CF08:  BSF    F8B.1
0CF0A:  BCF    F94.1
....................          Paso_off; 
0CF0C:  BSF    F8B.0
0CF0E:  BCF    F94.0
....................          SSR_off; 
0CF10:  BCF    F8D.1
0CF12:  BCF    F96.1
....................          SSR2_off; 
0CF14:  BCF    F8D.2
0CF16:  BCF    F96.2
....................       }else if(!Precalentamiento){ 
0CF18:  BRA    D43E
0CF1A:  MOVLB  0
0CF1C:  BTFSC  xA4.3
0CF1E:  BRA    CF76
....................          printf("Funcionamiento.t4f.txt=\" Ninguna\""); 
0CF20:  MOVLW  22
0CF22:  MOVWF  FF6
0CF24:  MOVLW  18
0CF26:  MOVWF  FF7
0CF28:  MOVLW  00
0CF2A:  MOVWF  FF8
0CF2C:  CALL   3DF4
....................          SendDataDisplay(); 
0CF30:  CALL   3E26
....................          printf("Funcionamiento.t5f.txt=\" PreCalentando\""); 
0CF34:  MOVLW  44
0CF36:  MOVWF  FF6
0CF38:  MOVLW  18
0CF3A:  MOVWF  FF7
0CF3C:  MOVLW  00
0CF3E:  MOVWF  FF8
0CF40:  CALL   3DF4
....................          SendDataDisplay(); 
0CF44:  CALL   3E26
....................          ControlaPresion();  
0CF48:  CALL   6F28
....................          Control=0; 
0CF4C:  MOVLB  3
0CF4E:  CLRF   x3C
....................          codigoAlarma=10; 
0CF50:  MOVLW  0A
0CF52:  MOVWF  x30
....................          if(codigoAnt!=codigoAlarma){ 
0CF54:  MOVF   x30,W
0CF56:  SUBWF  x73,W
0CF58:  BZ    CF66
....................             codigoAnt=codigoAlarma; 
0CF5A:  MOVFF  330,373
....................             GuardaDatoCiclo(); 
0CF5E:  MOVLB  0
0CF60:  CALL   6AF8
0CF64:  MOVLB  3
....................          } 
....................          Desfogue_off; 
0CF66:  BSF    F8B.1
0CF68:  BCF    F94.1
....................          Agua_off; 
0CF6A:  BSF    F8B.2
0CF6C:  BCF    F94.2
....................          Paso_off; 
0CF6E:  BSF    F8B.0
0CF70:  BCF    F94.0
....................       }else{ 
0CF72:  BRA    D43E
0CF74:  MOVLB  0
....................             if(!Esterilizando){ 
0CF76:  BTFSC  xA1.0
0CF78:  BRA    D084
....................                if(Temperatura>=((float)Setpoint-0.3)){ 
0CF7A:  MOVLB  7
0CF7C:  CLRF   xC3
0CF7E:  MOVFF  34C,7C2
0CF82:  MOVLB  0
0CF84:  CALL   1E56
0CF88:  MOVFF  00,7B0
0CF8C:  MOVFF  01,7B1
0CF90:  MOVFF  02,7B2
0CF94:  MOVFF  03,7B3
0CF98:  BSF    FD8.1
0CF9A:  MOVFF  03,7C5
0CF9E:  MOVFF  02,7C4
0CFA2:  MOVFF  01,7C3
0CFA6:  MOVFF  00,7C2
0CFAA:  MOVLW  9A
0CFAC:  MOVLB  7
0CFAE:  MOVWF  xC9
0CFB0:  MOVLW  99
0CFB2:  MOVWF  xC8
0CFB4:  MOVLW  19
0CFB6:  MOVWF  xC7
0CFB8:  MOVLW  7D
0CFBA:  MOVWF  xC6
0CFBC:  MOVLB  0
0CFBE:  CALL   2270
0CFC2:  MOVFF  03,7B9
0CFC6:  MOVFF  02,7B8
0CFCA:  MOVFF  01,7B7
0CFCE:  MOVFF  00,7B6
0CFD2:  MOVFF  314,7BD
0CFD6:  MOVFF  313,7BC
0CFDA:  MOVFF  312,7BB
0CFDE:  MOVFF  311,7BA
0CFE2:  CALL   24E8
0CFE6:  BC    CFEA
0CFE8:  BNZ   CFEC
....................                   Esterilizando=ON; 
0CFEA:  BSF    xA1.0
....................                } 
....................                codigoAlarma=12; 
0CFEC:  MOVLW  0C
0CFEE:  MOVLB  3
0CFF0:  MOVWF  x30
....................                if(codigoAnt!=codigoAlarma){ 
0CFF2:  MOVF   x30,W
0CFF4:  SUBWF  x73,W
0CFF6:  BZ    D004
....................                   codigoAnt=codigoAlarma; 
0CFF8:  MOVFF  330,373
....................                   GuardaDatoCiclo();                   
0CFFC:  MOVLB  0
0CFFE:  CALL   6AF8
0D002:  MOVLB  3
....................                } 
....................                printf("Funcionamiento.t4f.txt=\" Ninguna\""); 
0D004:  MOVLW  6C
0D006:  MOVWF  FF6
0D008:  MOVLW  18
0D00A:  MOVWF  FF7
0D00C:  MOVLW  00
0D00E:  MOVWF  FF8
0D010:  MOVLB  0
0D012:  CALL   3DF4
....................                SendDataDisplay(); 
0D016:  CALL   3E26
....................                printf("Funcionamiento.t5f.txt=\" Calentando\""); 
0D01A:  MOVLW  8E
0D01C:  MOVWF  FF6
0D01E:  MOVLW  18
0D020:  MOVWF  FF7
0D022:  MOVLW  00
0D024:  MOVWF  FF8
0D026:  CALL   3DF4
....................                SendDataDisplay(); 
0D02A:  CALL   3E26
....................                Control=1; 
0D02E:  MOVLW  01
0D030:  MOVLB  3
0D032:  MOVWF  x3C
....................                Controla(); 
0D034:  MOVLB  0
0D036:  CALL   7012
....................                Paso_on; 
0D03A:  BCF    F8B.0
0D03C:  BCF    F94.0
....................                if(Temperatura<=TTrampa){ 
0D03E:  MOVLB  7
0D040:  CLRF   xC3
0D042:  MOVFF  C7,7C2
0D046:  MOVLB  0
0D048:  CALL   1E56
0D04C:  MOVFF  314,7B9
0D050:  MOVFF  313,7B8
0D054:  MOVFF  312,7B7
0D058:  MOVFF  311,7B6
0D05C:  MOVFF  03,7BD
0D060:  MOVFF  02,7BC
0D064:  MOVFF  01,7BB
0D068:  MOVFF  00,7BA
0D06C:  CALL   24E8
0D070:  BC    D074
0D072:  BNZ   D07A
....................                   Desfogue_on; 
0D074:  BCF    F8B.1
0D076:  BCF    F94.1
....................                }else{ 
0D078:  BRA    D07E
....................                   Desfogue_off; 
0D07A:  BSF    F8B.1
0D07C:  BCF    F94.1
....................                } 
....................                Agua_off; 
0D07E:  BSF    F8B.2
0D080:  BCF    F94.2
....................             }else{ 
0D082:  BRA    D43C
....................                TiempoCiclo=0; 
0D084:  CLRF   xA8
0D086:  CLRF   xA7
....................                if(mEst==0 && sEst==0){  
0D088:  MOVF   xB8,F
0D08A:  BTFSS  FD8.2
0D08C:  BRA    D36E
0D08E:  MOVF   xB7,F
0D090:  BTFSS  FD8.2
0D092:  BRA    D36E
....................                   if(desfoguelento){ 
0D094:  BTFSS  xA6.7
0D096:  BRA    D1E6
....................                      Controlando=0; 
0D098:  MOVLB  3
0D09A:  CLRF   x3E
....................                      if(PresionCamara<=20){ 
0D09C:  MOVF   x5F,F
0D09E:  BTFSS  FD8.2
0D0A0:  BRA    D182
0D0A2:  MOVF   x5E,W
0D0A4:  SUBLW  14
0D0A6:  BNC   D182
....................                         Secando=OFF; 
0D0A8:  MOVLB  0
0D0AA:  BCF    xA1.1
....................                         DesfogueSuave=OFF; 
0D0AC:  BCF    xA1.4
....................                         Desfogue_on; 
0D0AE:  BCF    F8B.1
0D0B0:  BCF    F94.1
....................                         Paso_off;                         
0D0B2:  BSF    F8B.0
0D0B4:  BCF    F94.0
....................                         Agua_off; 
0D0B6:  BSF    F8B.2
0D0B8:  BCF    F94.2
....................                         SSR2_off; 
0D0BA:  BCF    F8D.2
0D0BC:  BCF    F96.2
....................                         SSR_off; 
0D0BE:  BCF    F8D.1
0D0C0:  BCF    F96.1
....................                         if(PresionCamara<=2){ 
0D0C2:  MOVLB  3
0D0C4:  MOVF   x5F,F
0D0C6:  BNZ   D180
0D0C8:  MOVF   x5E,W
0D0CA:  SUBLW  02
0D0CC:  BNC   D180
....................                            if(Temperatura<=Tapertura){ 
0D0CE:  MOVLB  7
0D0D0:  CLRF   xC3
0D0D2:  MOVFF  2D0,7C2
0D0D6:  MOVLB  0
0D0D8:  CALL   1E56
0D0DC:  MOVFF  314,7B9
0D0E0:  MOVFF  313,7B8
0D0E4:  MOVFF  312,7B7
0D0E8:  MOVFF  311,7B6
0D0EC:  MOVFF  03,7BD
0D0F0:  MOVFF  02,7BC
0D0F4:  MOVFF  01,7BB
0D0F8:  MOVFF  00,7BA
0D0FC:  CALL   24E8
0D100:  BC    D104
0D102:  BNZ   D17E
....................                               ActivaAlarma(2); 
0D104:  MOVLW  02
0D106:  MOVLB  7
0D108:  MOVWF  xB0
0D10A:  MOVLB  0
0D10C:  CALL   541A
....................                               printf("Funcionamiento.t4f.txt=\" Ninguna\""); 
0D110:  MOVLW  B4
0D112:  MOVWF  FF6
0D114:  MOVLW  18
0D116:  MOVWF  FF7
0D118:  MOVLW  00
0D11A:  MOVWF  FF8
0D11C:  CALL   3DF4
....................                               SendDataDisplay(); 
0D120:  CALL   3E26
....................                               printf("Funcionamiento.t5f.txt=\" Finalizado\""); 
0D124:  MOVLW  D6
0D126:  MOVWF  FF6
0D128:  MOVLW  18
0D12A:  MOVWF  FF7
0D12C:  MOVLW  00
0D12E:  MOVWF  FF8
0D130:  CALL   3DF4
....................                               SendDataDisplay(); 
0D134:  CALL   3E26
....................                               Finalizo=ON; 
0D138:  BSF    xA3.4
....................                               codigoAlarma=14; 
0D13A:  MOVLW  0E
0D13C:  MOVLB  3
0D13E:  MOVWF  x30
....................                                  if(codigoAnt!=codigoAlarma){ 
0D140:  MOVF   x30,W
0D142:  SUBWF  x73,W
0D144:  BZ    D152
....................                                     codigoAnt=codigoAlarma; 
0D146:  MOVFF  330,373
....................                                     GuardaDatoCiclo();                   
0D14A:  MOVLB  0
0D14C:  CALL   6AF8
0D150:  MOVLB  3
....................                                  }  
....................                                  if(!flagImprimir){ 
0D152:  BTFSC  x3B.5
0D154:  BRA    D174
....................                                     Imprime=28; 
0D156:  MOVLW  1C
0D158:  MOVWF  x89
....................                                     Envio_Esclavos(); 
0D15A:  MOVLB  0
0D15C:  CALL   50F6
....................                                     delay_ms(200); 
0D160:  MOVLW  C8
0D162:  MOVLB  7
0D164:  MOVWF  xC0
0D166:  MOVLB  0
0D168:  CALL   1E8C
....................                                     Imprime=10; 
0D16C:  MOVLW  0A
0D16E:  MOVLB  3
0D170:  MOVWF  x89
....................                                     flagImprimir=1; 
0D172:  BSF    x3B.5
....................                                  } 
....................                               //if(!SWBL && SWBLO){ 
....................                                 // abrePuerta(); 
....................                               //}else{ 
....................                                  desbloqueaPuerta(); 
0D174:  MOVLB  0
0D176:  CALL   5B02
....................                               //} 
....................                               incrementaCiclos(); 
0D17A:  CALL   6E9C
0D17E:  MOVLB  3
....................                            } 
....................                         } 
....................                      }else if(PresionCamara>20){ 
0D180:  BRA    D1E2
0D182:  MOVF   x5F,F
0D184:  BNZ   D18C
0D186:  MOVF   x5E,W
0D188:  SUBLW  14
0D18A:  BC    D1E2
....................                         codigoAlarma=13; 
0D18C:  MOVLW  0D
0D18E:  MOVWF  x30
....................                         if(codigoAnt!=codigoAlarma){ 
0D190:  MOVF   x30,W
0D192:  SUBWF  x73,W
0D194:  BZ    D1A0
....................                            codigoAnt=codigoAlarma; 
0D196:  MOVFF  330,373
....................                            GuardaDatoCiclo();                   
0D19A:  MOVLB  0
0D19C:  CALL   6AF8
....................                         } 
....................                         Desfogando=ON; 
0D1A0:  MOVLB  0
0D1A2:  BSF    xA1.3
....................                         DesfogueSuave=ON; 
0D1A4:  BSF    xA1.4
....................                         printf("Funcionamiento.t4f.txt=\" Ninguna\""); 
0D1A6:  MOVLW  FC
0D1A8:  MOVWF  FF6
0D1AA:  MOVLW  18
0D1AC:  MOVWF  FF7
0D1AE:  MOVLW  00
0D1B0:  MOVWF  FF8
0D1B2:  CALL   3DF4
....................                         SendDataDisplay(); 
0D1B6:  CALL   3E26
....................                         printf("Funcionamiento.t5f.txt=\" Despresurizando\""); 
0D1BA:  MOVLW  1E
0D1BC:  MOVWF  FF6
0D1BE:  MOVLW  19
0D1C0:  MOVWF  FF7
0D1C2:  MOVLW  00
0D1C4:  MOVWF  FF8
0D1C6:  CALL   3DF4
....................                         SendDataDisplay(); 
0D1CA:  CALL   3E26
....................                         Control=0; 
0D1CE:  MOVLB  3
0D1D0:  CLRF   x3C
....................                         //Desfogue_on; 
....................                         Paso_on; 
0D1D2:  BCF    F8B.0
0D1D4:  BCF    F94.0
....................                         Agua_off; 
0D1D6:  BSF    F8B.2
0D1D8:  BCF    F94.2
....................                         SSR2_off; 
0D1DA:  BCF    F8D.2
0D1DC:  BCF    F96.2
....................                         SSR_off; 
0D1DE:  BCF    F8D.1
0D1E0:  BCF    F96.1
....................                      } 
....................                   }else{                      
0D1E2:  BRA    D36A
0D1E4:  MOVLB  0
....................                      Paso_off; 
0D1E6:  BSF    F8B.0
0D1E8:  BCF    F94.0
....................                      Controlando=0; 
0D1EA:  MOVLB  3
0D1EC:  CLRF   x3E
....................                      Control=0; 
0D1EE:  CLRF   x3C
....................                      if(PresionCamara<=2){   
0D1F0:  MOVF   x5F,F
0D1F2:  BTFSS  FD8.2
0D1F4:  BRA    D306
0D1F6:  MOVF   x5E,W
0D1F8:  SUBLW  02
0D1FA:  BTFSS  FD8.0
0D1FC:  BRA    D306
....................                         if(sSec==0 && mSec==0){                           
0D1FE:  MOVLB  0
0D200:  MOVF   xB9,F
0D202:  BNZ   D2C4
0D204:  MOVF   xBA,F
0D206:  BNZ   D2C4
....................                            codigoAlarma=15; 
0D208:  MOVLW  0F
0D20A:  MOVLB  3
0D20C:  MOVWF  x30
....................                            if(codigoAnt!=codigoAlarma){ 
0D20E:  MOVF   x30,W
0D210:  SUBWF  x73,W
0D212:  BZ    D220
....................                               codigoAnt=codigoAlarma; 
0D214:  MOVFF  330,373
....................                               GuardaDatoCiclo();                   
0D218:  MOVLB  0
0D21A:  CALL   6AF8
0D21E:  MOVLB  3
....................                            } 
....................                            Agua_off; 
0D220:  BSF    F8B.2
0D222:  BCF    F94.2
....................                            Desfogue_on; 
0D224:  BCF    F8B.1
0D226:  BCF    F94.1
....................                            Paso_off; 
0D228:  BSF    F8B.0
0D22A:  BCF    F94.0
....................                            SSR2_off; 
0D22C:  BCF    F8D.2
0D22E:  BCF    F96.2
....................                            SSR_off; 
0D230:  BCF    F8D.1
0D232:  BCF    F96.1
....................                            Secando=OFF; 
0D234:  MOVLB  0
0D236:  BCF    xA1.1
....................                            if(PresionCamara<=1){ 
0D238:  MOVLB  3
0D23A:  MOVF   x5F,F
0D23C:  BNZ   D2BA
0D23E:  MOVF   x5E,W
0D240:  SUBLW  01
0D242:  BNC   D2BA
....................                               ActivaAlarma(2); 
0D244:  MOVLW  02
0D246:  MOVLB  7
0D248:  MOVWF  xB0
0D24A:  MOVLB  0
0D24C:  CALL   541A
....................                               printf("Funcionamiento.t4f.txt=\" Ninguna\""); 
0D250:  MOVLW  48
0D252:  MOVWF  FF6
0D254:  MOVLW  19
0D256:  MOVWF  FF7
0D258:  MOVLW  00
0D25A:  MOVWF  FF8
0D25C:  CALL   3DF4
....................                               SendDataDisplay(); 
0D260:  CALL   3E26
....................                               printf("Funcionamiento.t5f.txt=\" Finalizado\""); 
0D264:  MOVLW  6A
0D266:  MOVWF  FF6
0D268:  MOVLW  19
0D26A:  MOVWF  FF7
0D26C:  MOVLW  00
0D26E:  MOVWF  FF8
0D270:  CALL   3DF4
....................                               SendDataDisplay(); 
0D274:  CALL   3E26
....................                               Finalizo=ON; 
0D278:  BSF    xA3.4
....................                               codigoAlarma=14; 
0D27A:  MOVLW  0E
0D27C:  MOVLB  3
0D27E:  MOVWF  x30
....................                               if(codigoAnt!=codigoAlarma){ 
0D280:  MOVF   x30,W
0D282:  SUBWF  x73,W
0D284:  BZ    D292
....................                                  codigoAnt=codigoAlarma; 
0D286:  MOVFF  330,373
....................                                  GuardaDatoCiclo();                   
0D28A:  MOVLB  0
0D28C:  CALL   6AF8
0D290:  MOVLB  3
....................                               } 
....................                               if(!flagImprimir){ 
0D292:  BTFSC  x3B.5
0D294:  BRA    D2B4
....................                                  Imprime=28; 
0D296:  MOVLW  1C
0D298:  MOVWF  x89
....................                                  Envio_Esclavos(); 
0D29A:  MOVLB  0
0D29C:  CALL   50F6
....................                                  delay_ms(200); 
0D2A0:  MOVLW  C8
0D2A2:  MOVLB  7
0D2A4:  MOVWF  xC0
0D2A6:  MOVLB  0
0D2A8:  CALL   1E8C
....................                                  Imprime=10; 
0D2AC:  MOVLW  0A
0D2AE:  MOVLB  3
0D2B0:  MOVWF  x89
....................                                  flagImprimir=1; 
0D2B2:  BSF    x3B.5
....................                               } 
....................                               desbloqueaPuerta(); 
0D2B4:  MOVLB  0
0D2B6:  CALL   5B02
....................                            } 
....................                            incrementaCiclos(); 
0D2BA:  MOVLB  0
0D2BC:  CALL   6E9C
....................                            Secando=OFF; 
0D2C0:  BCF    xA1.1
....................                         }else{ 
0D2C2:  BRA    D302
....................                            /* 
....................                            if(!SWBL && SWBLO){ 
....................                               if(tAbreSecado<=5){ 
....................                                  abrePuerta(); 
....................                                  flagAbreSecado=1; 
....................                               }else{ 
....................                                  flagAbreSecado=0; 
....................                                  detienePuerta(); 
....................                               } 
....................                            }else{ 
....................                               desbloqueaPuerta(); 
....................                            } 
....................                            */ 
....................                            desbloqueaPuerta(); 
0D2C4:  CALL   5B02
....................                            Secando=ON; 
0D2C8:  BSF    xA1.1
....................                            if(Secando){ 
0D2CA:  BTFSS  xA1.1
0D2CC:  BRA    D2F6
....................                               printf("Funcionamiento.t4f.txt=\" Ninguna\""); 
0D2CE:  MOVLW  90
0D2D0:  MOVWF  FF6
0D2D2:  MOVLW  19
0D2D4:  MOVWF  FF7
0D2D6:  MOVLW  00
0D2D8:  MOVWF  FF8
0D2DA:  CALL   3DF4
....................                               SendDataDisplay(); 
0D2DE:  CALL   3E26
....................                               printf("Funcionamiento.t5f.txt=\" Secando\""); 
0D2E2:  MOVLW  B2
0D2E4:  MOVWF  FF6
0D2E6:  MOVLW  19
0D2E8:  MOVWF  FF7
0D2EA:  MOVLW  00
0D2EC:  MOVWF  FF8
0D2EE:  CALL   3DF4
....................                               SendDataDisplay(); 
0D2F2:  CALL   3E26
....................                            } 
....................                            ControlaPresion(); 
0D2F6:  CALL   6F28
....................                            SSR2_on; 
0D2FA:  BSF    F8D.2
0D2FC:  BCF    F96.2
....................                            Paso_off; 
0D2FE:  BSF    F8B.0
0D300:  BCF    F94.0
....................                         } 
....................                      }else if(PresionCamara>15){ 
0D302:  BRA    D36C
0D304:  MOVLB  3
0D306:  MOVF   x5F,F
0D308:  BNZ   D310
0D30A:  MOVF   x5E,W
0D30C:  SUBLW  0F
0D30E:  BC    D36A
....................                         codigoAlarma=13; 
0D310:  MOVLW  0D
0D312:  MOVWF  x30
....................                         if(codigoAnt!=codigoAlarma){ 
0D314:  MOVF   x30,W
0D316:  SUBWF  x73,W
0D318:  BZ    D324
....................                            codigoAnt=codigoAlarma; 
0D31A:  MOVFF  330,373
....................                            GuardaDatoCiclo();                   
0D31E:  MOVLB  0
0D320:  CALL   6AF8
....................                         } 
....................                         Desfogando=ON; 
0D324:  MOVLB  0
0D326:  BSF    xA1.3
....................                         printf("Funcionamiento.t4f.txt=\" Ninguna\""); 
0D328:  MOVLW  D4
0D32A:  MOVWF  FF6
0D32C:  MOVLW  19
0D32E:  MOVWF  FF7
0D330:  MOVLW  00
0D332:  MOVWF  FF8
0D334:  CALL   3DF4
....................                         SendDataDisplay(); 
0D338:  CALL   3E26
....................                         printf("Funcionamiento.t5f.txt=\" Despresurizando\""); 
0D33C:  MOVLW  F6
0D33E:  MOVWF  FF6
0D340:  MOVLW  19
0D342:  MOVWF  FF7
0D344:  MOVLW  00
0D346:  MOVWF  FF8
0D348:  CALL   3DF4
....................                         SendDataDisplay(); 
0D34C:  CALL   3E26
....................                         Control=0; 
0D350:  MOVLB  3
0D352:  CLRF   x3C
....................                         Controlando=0; 
0D354:  CLRF   x3E
....................                         Desfogue_on; 
0D356:  BCF    F8B.1
0D358:  BCF    F94.1
....................                         Paso_off; 
0D35A:  BSF    F8B.0
0D35C:  BCF    F94.0
....................                         Agua_off;  
0D35E:  BSF    F8B.2
0D360:  BCF    F94.2
....................                         SSR2_on; 
0D362:  BSF    F8D.2
0D364:  BCF    F96.2
....................                         SSR_off;    
0D366:  BCF    F8D.1
0D368:  BCF    F96.1
0D36A:  MOVLB  0
....................                      } 
....................                   } 
....................                }else{ 
0D36C:  BRA    D43C
....................                   if(Temperatura<((float)Setpoint-0.9) && !Desfogando){ 
0D36E:  MOVLB  7
0D370:  CLRF   xC3
0D372:  MOVFF  34C,7C2
0D376:  MOVLB  0
0D378:  CALL   1E56
0D37C:  MOVFF  00,7B0
0D380:  MOVFF  01,7B1
0D384:  MOVFF  02,7B2
0D388:  MOVFF  03,7B3
0D38C:  BSF    FD8.1
0D38E:  MOVFF  03,7C5
0D392:  MOVFF  02,7C4
0D396:  MOVFF  01,7C3
0D39A:  MOVFF  00,7C2
0D39E:  MOVLW  66
0D3A0:  MOVLB  7
0D3A2:  MOVWF  xC9
0D3A4:  MOVWF  xC8
0D3A6:  MOVWF  xC7
0D3A8:  MOVLW  7E
0D3AA:  MOVWF  xC6
0D3AC:  MOVLB  0
0D3AE:  CALL   2270
0D3B2:  MOVFF  314,7B9
0D3B6:  MOVFF  313,7B8
0D3BA:  MOVFF  312,7B7
0D3BE:  MOVFF  311,7B6
0D3C2:  MOVFF  03,7BD
0D3C6:  MOVFF  02,7BC
0D3CA:  MOVFF  01,7BB
0D3CE:  MOVFF  00,7BA
0D3D2:  CALL   24E8
0D3D6:  BNC   D3DE
0D3D8:  BTFSC  xA1.3
0D3DA:  BRA    D3DE
....................                      Esterilizando=OFF; 
0D3DC:  BCF    xA1.0
....................                   } 
....................                   codigoAlarma=16; 
0D3DE:  MOVLW  10
0D3E0:  MOVLB  3
0D3E2:  MOVWF  x30
....................                   if(codigoAnt!=codigoAlarma){ 
0D3E4:  MOVF   x30,W
0D3E6:  SUBWF  x73,W
0D3E8:  BZ    D3F6
....................                      codigoAnt=codigoAlarma; 
0D3EA:  MOVFF  330,373
....................                      GuardaDatoCiclo();                   
0D3EE:  MOVLB  0
0D3F0:  CALL   6AF8
0D3F4:  MOVLB  3
....................                   } 
....................                   printf("Funcionamiento.t4f.txt=\" Ninguna\""); 
0D3F6:  MOVLW  20
0D3F8:  MOVWF  FF6
0D3FA:  MOVLW  1A
0D3FC:  MOVWF  FF7
0D3FE:  MOVLW  00
0D400:  MOVWF  FF8
0D402:  MOVLB  0
0D404:  CALL   3DF4
....................                   SendDataDisplay(); 
0D408:  CALL   3E26
....................                   printf("Funcionamiento.t5f.txt=\" Esterilizando\""); 
0D40C:  MOVLW  42
0D40E:  MOVWF  FF6
0D410:  MOVLW  1A
0D412:  MOVWF  FF7
0D414:  MOVLW  00
0D416:  MOVWF  FF8
0D418:  CALL   3DF4
....................                   SendDataDisplay(); 
0D41C:  CALL   3E26
....................                   Paso_on; 
0D420:  BCF    F8B.0
0D422:  BCF    F94.0
....................                   Desfogue_off; 
0D424:  BSF    F8B.1
0D426:  BCF    F94.1
....................                   Agua_off; 
0D428:  BSF    F8B.2
0D42A:  BCF    F94.2
....................                   SSR2_off; 
0D42C:  BCF    F8D.2
0D42E:  BCF    F96.2
....................                   Control=1; 
0D430:  MOVLW  01
0D432:  MOVLB  3
0D434:  MOVWF  x3C
....................                   Controla(); 
0D436:  MOVLB  0
0D438:  CALL   7012
0D43C:  MOVLB  3
....................                } 
....................             } 
....................          } 
....................       } 
....................    } 
....................  
....................    if(tguarda>=180){ 
0D43E:  MOVF   x38,F
0D440:  BNZ   D448
0D442:  MOVF   x37,W
0D444:  SUBLW  B3
0D446:  BC    D458
....................       if(!Ciclo) 
0D448:  MOVLB  0
0D44A:  BTFSC  xA2.1
0D44C:  BRA    D452
....................          GuardaDatoCiclo(); 
0D44E:  CALL   6AF8
....................       tguarda=0; 
0D452:  MOVLB  3
0D454:  CLRF   x38
0D456:  CLRF   x37
....................    } 
....................  
....................    if(Grafica==1){ 
0D458:  BTFSS  x3B.1
0D45A:  BRA    D5CE
....................       printf("add 14,0,%1.0f",Temperatura*0.6); 
0D45C:  MOVFF  314,7C9
0D460:  MOVFF  313,7C8
0D464:  MOVFF  312,7C7
0D468:  MOVFF  311,7C6
0D46C:  MOVLW  9A
0D46E:  MOVLB  7
0D470:  MOVWF  xCD
0D472:  MOVLW  99
0D474:  MOVWF  xCC
0D476:  MOVLW  19
0D478:  MOVWF  xCB
0D47A:  MOVLW  7E
0D47C:  MOVWF  xCA
0D47E:  MOVLB  0
0D480:  CALL   3ED8
0D484:  MOVFF  00,7B0
0D488:  MOVFF  01,7B1
0D48C:  MOVFF  02,7B2
0D490:  MOVFF  03,7B3
0D494:  MOVLW  6A
0D496:  MOVWF  FF6
0D498:  MOVLW  1A
0D49A:  MOVWF  FF7
0D49C:  MOVLW  00
0D49E:  MOVWF  FF8
0D4A0:  MOVLW  09
0D4A2:  MOVLB  7
0D4A4:  MOVWF  xB5
0D4A6:  MOVLB  0
0D4A8:  CALL   556C
0D4AC:  MOVLW  00
0D4AE:  MOVWF  FE9
0D4B0:  MOVFF  7B3,7B8
0D4B4:  MOVFF  7B2,7B7
0D4B8:  MOVFF  7B1,7B6
0D4BC:  MOVFF  7B0,7B5
0D4C0:  MOVLB  7
0D4C2:  CLRF   xB9
0D4C4:  MOVLB  0
0D4C6:  CALL   5688
....................       SendDataDisplay(); 
0D4CA:  CALL   3E26
....................       printf("add 14,1,%1.0f",PresionCamara*0.6); 
0D4CE:  MOVFF  35F,7C3
0D4D2:  MOVFF  35E,7C2
0D4D6:  CALL   1E56
0D4DA:  MOVFF  03,7C9
0D4DE:  MOVFF  02,7C8
0D4E2:  MOVFF  01,7C7
0D4E6:  MOVFF  00,7C6
0D4EA:  MOVLW  9A
0D4EC:  MOVLB  7
0D4EE:  MOVWF  xCD
0D4F0:  MOVLW  99
0D4F2:  MOVWF  xCC
0D4F4:  MOVLW  19
0D4F6:  MOVWF  xCB
0D4F8:  MOVLW  7E
0D4FA:  MOVWF  xCA
0D4FC:  MOVLB  0
0D4FE:  CALL   3ED8
0D502:  MOVFF  00,7B0
0D506:  MOVFF  01,7B1
0D50A:  MOVFF  02,7B2
0D50E:  MOVFF  03,7B3
0D512:  MOVLW  7A
0D514:  MOVWF  FF6
0D516:  MOVLW  1A
0D518:  MOVWF  FF7
0D51A:  MOVLW  00
0D51C:  MOVWF  FF8
0D51E:  MOVLW  09
0D520:  MOVLB  7
0D522:  MOVWF  xB5
0D524:  MOVLB  0
0D526:  CALL   556C
0D52A:  MOVLW  00
0D52C:  MOVWF  FE9
0D52E:  MOVFF  7B3,7B8
0D532:  MOVFF  7B2,7B7
0D536:  MOVFF  7B1,7B6
0D53A:  MOVFF  7B0,7B5
0D53E:  MOVLB  7
0D540:  CLRF   xB9
0D542:  MOVLB  0
0D544:  CALL   5688
....................       SendDataDisplay(); 
0D548:  CALL   3E26
....................       printf("add 14,2,%1.0f",PresionPreCamara*0.6); 
0D54C:  MOVFF  361,7C3
0D550:  MOVFF  360,7C2
0D554:  CALL   1E56
0D558:  MOVFF  03,7C9
0D55C:  MOVFF  02,7C8
0D560:  MOVFF  01,7C7
0D564:  MOVFF  00,7C6
0D568:  MOVLW  9A
0D56A:  MOVLB  7
0D56C:  MOVWF  xCD
0D56E:  MOVLW  99
0D570:  MOVWF  xCC
0D572:  MOVLW  19
0D574:  MOVWF  xCB
0D576:  MOVLW  7E
0D578:  MOVWF  xCA
0D57A:  MOVLB  0
0D57C:  CALL   3ED8
0D580:  MOVFF  00,7B0
0D584:  MOVFF  01,7B1
0D588:  MOVFF  02,7B2
0D58C:  MOVFF  03,7B3
0D590:  MOVLW  8A
0D592:  MOVWF  FF6
0D594:  MOVLW  1A
0D596:  MOVWF  FF7
0D598:  MOVLW  00
0D59A:  MOVWF  FF8
0D59C:  MOVLW  09
0D59E:  MOVLB  7
0D5A0:  MOVWF  xB5
0D5A2:  MOVLB  0
0D5A4:  CALL   556C
0D5A8:  MOVLW  00
0D5AA:  MOVWF  FE9
0D5AC:  MOVFF  7B3,7B8
0D5B0:  MOVFF  7B2,7B7
0D5B4:  MOVFF  7B1,7B6
0D5B8:  MOVFF  7B0,7B5
0D5BC:  MOVLB  7
0D5BE:  CLRF   xB9
0D5C0:  MOVLB  0
0D5C2:  CALL   5688
....................       SendDataDisplay(); 
0D5C6:  CALL   3E26
....................       Grafica=0; 
0D5CA:  MOVLB  3
0D5CC:  BCF    x3B.1
....................    } 
....................    if(Lectura==1)// Utilizado para visualizar la lectura de la temperatura 
0D5CE:  BTFSS  x3B.0
0D5D0:  BRA    D8A8
....................    {                       
....................       Lectura=0; 
0D5D2:  BCF    x3B.0
....................       printf("tuser.txt=\"%s\"",1); 
0D5D4:  MOVLW  9A
0D5D6:  MOVWF  FF6
0D5D8:  MOVLW  1A
0D5DA:  MOVWF  FF7
0D5DC:  MOVLW  00
0D5DE:  MOVWF  FF8
0D5E0:  MOVLW  0B
0D5E2:  MOVLB  7
0D5E4:  MOVWF  xB5
0D5E6:  MOVLB  0
0D5E8:  CALL   556C
0D5EC:  CLRF   FEA
0D5EE:  MOVLW  01
0D5F0:  MOVWF  FE9
0D5F2:  CALL   559E
0D5F6:  MOVLW  22
0D5F8:  BTFSS  F9E.4
0D5FA:  BRA    D5F8
0D5FC:  MOVWF  FAD
....................       SendDataDisplay(); 
0D5FE:  CALL   3E26
....................       printf("t6f.txt=\"%3.1f\"",Temperatura); 
0D602:  MOVLW  AA
0D604:  MOVWF  FF6
0D606:  MOVLW  1A
0D608:  MOVWF  FF7
0D60A:  MOVLW  00
0D60C:  MOVWF  FF8
0D60E:  MOVLW  09
0D610:  MOVLB  7
0D612:  MOVWF  xB5
0D614:  MOVLB  0
0D616:  CALL   556C
0D61A:  MOVLW  02
0D61C:  MOVWF  FE9
0D61E:  MOVFF  314,7B8
0D622:  MOVFF  313,7B7
0D626:  MOVFF  312,7B6
0D62A:  MOVFF  311,7B5
0D62E:  MOVLW  01
0D630:  MOVLB  7
0D632:  MOVWF  xB9
0D634:  MOVLB  0
0D636:  CALL   5688
0D63A:  MOVLW  B0
0D63C:  BTFSS  F9E.4
0D63E:  BRA    D63C
0D640:  MOVWF  FAD
0D642:  MOVLW  22
0D644:  BTFSS  F9E.4
0D646:  BRA    D644
0D648:  MOVWF  FAD
....................       SendDataDisplay(); 
0D64A:  CALL   3E26
....................       printf("Funcionamiento.t7f.txt=\"%03LukPa\"",PresionCamara); 
0D64E:  MOVLW  BC
0D650:  MOVWF  FF6
0D652:  MOVLW  1A
0D654:  MOVWF  FF7
0D656:  MOVLW  00
0D658:  MOVWF  FF8
0D65A:  MOVLW  18
0D65C:  MOVLB  7
0D65E:  MOVWF  xB5
0D660:  MOVLB  0
0D662:  CALL   556C
0D666:  MOVLW  0A
0D668:  MOVWF  FE9
0D66A:  MOVFF  35F,7B5
0D66E:  MOVFF  35E,7B4
0D672:  CALL   594C
0D676:  MOVLW  D9
0D678:  MOVWF  FF6
0D67A:  MOVLW  1A
0D67C:  MOVWF  FF7
0D67E:  MOVLW  00
0D680:  MOVWF  FF8
0D682:  MOVLW  04
0D684:  MOVLB  7
0D686:  MOVWF  xB5
0D688:  MOVLB  0
0D68A:  CALL   556C
....................       SendDataDisplay(); 
0D68E:  CALL   3E26
....................       printf("Funcionamiento.t12f.txt=\"%03LukPa\"",PresionPreCamara); 
0D692:  MOVLW  DE
0D694:  MOVWF  FF6
0D696:  MOVLW  1A
0D698:  MOVWF  FF7
0D69A:  MOVLW  00
0D69C:  MOVWF  FF8
0D69E:  MOVLW  19
0D6A0:  MOVLB  7
0D6A2:  MOVWF  xB5
0D6A4:  MOVLB  0
0D6A6:  CALL   556C
0D6AA:  MOVLW  0A
0D6AC:  MOVWF  FE9
0D6AE:  MOVFF  361,7B5
0D6B2:  MOVFF  360,7B4
0D6B6:  CALL   594C
0D6BA:  MOVLW  FC
0D6BC:  MOVWF  FF6
0D6BE:  MOVLW  1A
0D6C0:  MOVWF  FF7
0D6C2:  MOVLW  00
0D6C4:  MOVWF  FF8
0D6C6:  MOVLW  04
0D6C8:  MOVLB  7
0D6CA:  MOVWF  xB5
0D6CC:  MOVLB  0
0D6CE:  CALL   556C
....................       SendDataDisplay(); 
0D6D2:  CALL   3E26
....................       printf("Funcionamiento.t9f.txt=\"%03u\"",Setpoint); 
0D6D6:  MOVLW  02
0D6D8:  MOVWF  FF6
0D6DA:  MOVLW  1B
0D6DC:  MOVWF  FF7
0D6DE:  MOVLW  00
0D6E0:  MOVWF  FF8
0D6E2:  MOVLW  18
0D6E4:  MOVLB  7
0D6E6:  MOVWF  xB5
0D6E8:  MOVLB  0
0D6EA:  CALL   556C
0D6EE:  MOVFF  34C,7B5
0D6F2:  MOVLW  03
0D6F4:  MOVLB  7
0D6F6:  MOVWF  xB6
0D6F8:  MOVLB  0
0D6FA:  CALL   5858
0D6FE:  MOVLW  22
0D700:  BTFSS  F9E.4
0D702:  BRA    D700
0D704:  MOVWF  FAD
....................       SendDataDisplay();       
0D706:  CALL   3E26
....................       printf("Funcionamiento.t10f.txt=\"%02u\"",mEst); 
0D70A:  MOVLW  20
0D70C:  MOVWF  FF6
0D70E:  MOVLW  1B
0D710:  MOVWF  FF7
0D712:  MOVLW  00
0D714:  MOVWF  FF8
0D716:  MOVLW  19
0D718:  MOVLB  7
0D71A:  MOVWF  xB5
0D71C:  MOVLB  0
0D71E:  CALL   556C
0D722:  MOVFF  B8,7B5
0D726:  MOVLW  01
0D728:  MOVLB  7
0D72A:  MOVWF  xB6
0D72C:  MOVLB  0
0D72E:  CALL   5858
0D732:  MOVLW  22
0D734:  BTFSS  F9E.4
0D736:  BRA    D734
0D738:  MOVWF  FAD
....................       SendDataDisplay();       
0D73A:  CALL   3E26
....................       printf("Funcionamiento.t13f.txt=\"%02u\"",sEst); 
0D73E:  MOVLW  40
0D740:  MOVWF  FF6
0D742:  MOVLW  1B
0D744:  MOVWF  FF7
0D746:  MOVLW  00
0D748:  MOVWF  FF8
0D74A:  MOVLW  19
0D74C:  MOVLB  7
0D74E:  MOVWF  xB5
0D750:  MOVLB  0
0D752:  CALL   556C
0D756:  MOVFF  B7,7B5
0D75A:  MOVLW  01
0D75C:  MOVLB  7
0D75E:  MOVWF  xB6
0D760:  MOVLB  0
0D762:  CALL   5858
0D766:  MOVLW  22
0D768:  BTFSS  F9E.4
0D76A:  BRA    D768
0D76C:  MOVWF  FAD
....................       SendDataDisplay();       
0D76E:  CALL   3E26
....................       printf("Funcionamiento.t11f.txt=\"%02u\"",mSec); 
0D772:  MOVLW  60
0D774:  MOVWF  FF6
0D776:  MOVLW  1B
0D778:  MOVWF  FF7
0D77A:  MOVLW  00
0D77C:  MOVWF  FF8
0D77E:  MOVLW  19
0D780:  MOVLB  7
0D782:  MOVWF  xB5
0D784:  MOVLB  0
0D786:  CALL   556C
0D78A:  MOVFF  BA,7B5
0D78E:  MOVLW  01
0D790:  MOVLB  7
0D792:  MOVWF  xB6
0D794:  MOVLB  0
0D796:  CALL   5858
0D79A:  MOVLW  22
0D79C:  BTFSS  F9E.4
0D79E:  BRA    D79C
0D7A0:  MOVWF  FAD
....................       SendDataDisplay();       
0D7A2:  CALL   3E26
....................       printf("Funcionamiento.t16f.txt=\"%02u\"",sSec); 
0D7A6:  MOVLW  80
0D7A8:  MOVWF  FF6
0D7AA:  MOVLW  1B
0D7AC:  MOVWF  FF7
0D7AE:  MOVLW  00
0D7B0:  MOVWF  FF8
0D7B2:  MOVLW  19
0D7B4:  MOVLB  7
0D7B6:  MOVWF  xB5
0D7B8:  MOVLB  0
0D7BA:  CALL   556C
0D7BE:  MOVFF  B9,7B5
0D7C2:  MOVLW  01
0D7C4:  MOVLB  7
0D7C6:  MOVWF  xB6
0D7C8:  MOVLB  0
0D7CA:  CALL   5858
0D7CE:  MOVLW  22
0D7D0:  BTFSS  F9E.4
0D7D2:  BRA    D7D0
0D7D4:  MOVWF  FAD
....................       SendDataDisplay();       
0D7D6:  CALL   3E26
....................        
....................       printf("fecha.txt=\"Fecha:%02u/%02u/20%02u    Hora: %02u:%02u:%02u\"",Dia,Mes,Year,Hora,Minuto,Segundo); 
0D7DA:  MOVLW  A0
0D7DC:  MOVWF  FF6
0D7DE:  MOVLW  1B
0D7E0:  MOVWF  FF7
0D7E2:  MOVLW  00
0D7E4:  MOVWF  FF8
0D7E6:  MOVLW  11
0D7E8:  MOVLB  7
0D7EA:  MOVWF  xB5
0D7EC:  MOVLB  0
0D7EE:  CALL   556C
0D7F2:  MOVFF  37D,7B5
0D7F6:  MOVLW  01
0D7F8:  MOVLB  7
0D7FA:  MOVWF  xB6
0D7FC:  MOVLB  0
0D7FE:  CALL   5858
0D802:  MOVLW  2F
0D804:  BTFSS  F9E.4
0D806:  BRA    D804
0D808:  MOVWF  FAD
0D80A:  MOVFF  37C,7B5
0D80E:  MOVLW  01
0D810:  MOVLB  7
0D812:  MOVWF  xB6
0D814:  MOVLB  0
0D816:  CALL   5858
0D81A:  MOVLW  2F
0D81C:  BTFSS  F9E.4
0D81E:  BRA    D81C
0D820:  MOVWF  FAD
0D822:  MOVLW  32
0D824:  BTFSS  F9E.4
0D826:  BRA    D824
0D828:  MOVWF  FAD
0D82A:  MOVLW  30
0D82C:  BTFSS  F9E.4
0D82E:  BRA    D82C
0D830:  MOVWF  FAD
0D832:  MOVFF  37B,7B5
0D836:  MOVLW  01
0D838:  MOVLB  7
0D83A:  MOVWF  xB6
0D83C:  MOVLB  0
0D83E:  CALL   5858
0D842:  MOVLW  C1
0D844:  MOVWF  FF6
0D846:  MOVLW  1B
0D848:  MOVWF  FF7
0D84A:  MOVLW  00
0D84C:  MOVWF  FF8
0D84E:  MOVLW  0A
0D850:  MOVLB  7
0D852:  MOVWF  xB5
0D854:  MOVLB  0
0D856:  CALL   556C
0D85A:  MOVFF  37E,7B5
0D85E:  MOVLW  01
0D860:  MOVLB  7
0D862:  MOVWF  xB6
0D864:  MOVLB  0
0D866:  CALL   5858
0D86A:  MOVLW  3A
0D86C:  BTFSS  F9E.4
0D86E:  BRA    D86C
0D870:  MOVWF  FAD
0D872:  MOVFF  37F,7B5
0D876:  MOVLW  01
0D878:  MOVLB  7
0D87A:  MOVWF  xB6
0D87C:  MOVLB  0
0D87E:  CALL   5858
0D882:  MOVLW  3A
0D884:  BTFSS  F9E.4
0D886:  BRA    D884
0D888:  MOVWF  FAD
0D88A:  MOVFF  380,7B5
0D88E:  MOVLW  01
0D890:  MOVLB  7
0D892:  MOVWF  xB6
0D894:  MOVLB  0
0D896:  CALL   5858
0D89A:  MOVLW  22
0D89C:  BTFSS  F9E.4
0D89E:  BRA    D89C
0D8A0:  MOVWF  FAD
....................       SendDataDisplay(); 
0D8A2:  CALL   3E26
0D8A6:  MOVLB  3
....................       //printf("fecha.font=2"); 
....................       //SendDataDisplay(); 
....................    } 
.................... } 
.................... //_-------------------------------------------------------------------------------------------------------------------------------------------------------- 
....................  
.................... //_-------------------------------------------------------------------------------------------------------------------------------------------------------- 
....................       if(Menu==100){ //Menu de Configuracin de Parametros de Control 
0D8A8:  MOVF   x45,W
0D8AA:  SUBLW  64
0D8AC:  BTFSS  FD8.2
0D8AE:  GOTO   E508
....................       
....................       if(Opcion2>13) 
0D8B2:  MOVF   x4E,W
0D8B4:  SUBLW  0D
0D8B6:  BC    D8BC
....................          Opcion2=1; 
0D8B8:  MOVLW  01
0D8BA:  MOVWF  x4E
....................       if(Opcion2<1) 
0D8BC:  MOVF   x4E,F
0D8BE:  BNZ   D8C4
....................          Opcion2=13; 
0D8C0:  MOVLW  0D
0D8C2:  MOVWF  x4E
....................        
....................       if(Opcion2==1){ 
0D8C4:  DECFSZ x4E,W
0D8C6:  BRA    DA06
....................          printf("Config.t2c.txt=\"Proporcional\""); 
0D8C8:  MOVLW  DC
0D8CA:  MOVWF  FF6
0D8CC:  MOVLW  1B
0D8CE:  MOVWF  FF7
0D8D0:  MOVLW  00
0D8D2:  MOVWF  FF8
0D8D4:  MOVLB  0
0D8D6:  CALL   3DF4
....................          SendDataDisplay();       
0D8DA:  CALL   3E26
....................          printf("t3c.txt=\"%2.0f\"",Ganancia); 
0D8DE:  MOVLW  FA
0D8E0:  MOVWF  FF6
0D8E2:  MOVLW  1B
0D8E4:  MOVWF  FF7
0D8E6:  MOVLW  00
0D8E8:  MOVWF  FF8
0D8EA:  MOVLW  09
0D8EC:  MOVLB  7
0D8EE:  MOVWF  xB5
0D8F0:  MOVLB  0
0D8F2:  CALL   556C
0D8F6:  MOVLW  01
0D8F8:  MOVWF  FE9
0D8FA:  MOVFF  2F4,7B8
0D8FE:  MOVFF  2F3,7B7
0D902:  MOVFF  2F2,7B6
0D906:  MOVFF  2F1,7B5
0D90A:  MOVLB  7
0D90C:  CLRF   xB9
0D90E:  MOVLB  0
0D910:  CALL   5688
0D914:  MOVLW  22
0D916:  BTFSS  F9E.4
0D918:  BRA    D916
0D91A:  MOVWF  FAD
....................          SendDataDisplay(); 
0D91C:  CALL   3E26
....................          if(RX_Buffer[4]==0x0a){//Tecla Arriba Oprimida 
0D920:  MOVF   34,W
0D922:  SUBLW  0A
0D924:  BNZ   D95E
....................                Ganancia+=1.0; 
0D926:  BCF    FD8.1
0D928:  MOVFF  2F4,7C5
0D92C:  MOVFF  2F3,7C4
0D930:  MOVFF  2F2,7C3
0D934:  MOVFF  2F1,7C2
0D938:  MOVLB  7
0D93A:  CLRF   xC9
0D93C:  CLRF   xC8
0D93E:  CLRF   xC7
0D940:  MOVLW  7F
0D942:  MOVWF  xC6
0D944:  MOVLB  0
0D946:  CALL   2270
0D94A:  MOVFF  03,2F4
0D94E:  MOVFF  02,2F3
0D952:  MOVFF  01,2F2
0D956:  MOVFF  00,2F1
....................                RX_Buffer[4]=0x00;   
0D95A:  CLRF   34
....................                RX_Buffer2[4]=0x00;             
0D95C:  CLRF   3F
....................                //BorraBuffer(); 
....................          } 
....................              
....................          if(RX_Buffer[4]==0x0b){//Tecla Abajo Oprimida 
0D95E:  MOVF   34,W
0D960:  SUBLW  0B
0D962:  BNZ   D99C
....................                Ganancia-=1.0; 
0D964:  BSF    FD8.1
0D966:  MOVFF  2F4,7C5
0D96A:  MOVFF  2F3,7C4
0D96E:  MOVFF  2F2,7C3
0D972:  MOVFF  2F1,7C2
0D976:  MOVLB  7
0D978:  CLRF   xC9
0D97A:  CLRF   xC8
0D97C:  CLRF   xC7
0D97E:  MOVLW  7F
0D980:  MOVWF  xC6
0D982:  MOVLB  0
0D984:  CALL   2270
0D988:  MOVFF  03,2F4
0D98C:  MOVFF  02,2F3
0D990:  MOVFF  01,2F2
0D994:  MOVFF  00,2F1
....................                RX_Buffer[4]=0x00; 
0D998:  CLRF   34
....................                RX_Buffer2[4]=0x00;             
0D99A:  CLRF   3F
....................                //BorraBuffer(); 
....................          } 
....................           
....................          if(Ganancia>40) 
0D99C:  MOVLB  7
0D99E:  CLRF   xB9
0D9A0:  CLRF   xB8
0D9A2:  MOVLW  20
0D9A4:  MOVWF  xB7
0D9A6:  MOVLW  84
0D9A8:  MOVWF  xB6
0D9AA:  MOVFF  2F4,7BD
0D9AE:  MOVFF  2F3,7BC
0D9B2:  MOVFF  2F2,7BB
0D9B6:  MOVFF  2F1,7BA
0D9BA:  MOVLB  0
0D9BC:  CALL   24E8
0D9C0:  BNC   D9CE
....................             Ganancia=1; 
0D9C2:  MOVLB  2
0D9C4:  CLRF   xF4
0D9C6:  CLRF   xF3
0D9C8:  CLRF   xF2
0D9CA:  MOVLW  7F
0D9CC:  MOVWF  xF1
....................          if(Ganancia<1) 
0D9CE:  MOVFF  2F4,7B9
0D9D2:  MOVFF  2F3,7B8
0D9D6:  MOVFF  2F2,7B7
0D9DA:  MOVFF  2F1,7B6
0D9DE:  MOVLB  7
0D9E0:  CLRF   xBD
0D9E2:  CLRF   xBC
0D9E4:  CLRF   xBB
0D9E6:  MOVLW  7F
0D9E8:  MOVWF  xBA
0D9EA:  MOVLB  0
0D9EC:  CALL   24E8
0D9F0:  BNC   DA02
....................             Ganancia=40; 
0D9F2:  MOVLB  2
0D9F4:  CLRF   xF4
0D9F6:  CLRF   xF3
0D9F8:  MOVLW  20
0D9FA:  MOVWF  xF2
0D9FC:  MOVLW  84
0D9FE:  MOVWF  xF1
0DA00:  MOVLB  0
....................       }else if(Opcion2==2){ 
0DA02:  BRA    E0CC
0DA04:  MOVLB  3
0DA06:  MOVF   x4E,W
0DA08:  SUBLW  02
0DA0A:  BTFSS  FD8.2
0DA0C:  BRA    DB50
....................          printf("Config.t2c.txt=\"Tciclo\""); 
0DA0E:  MOVLW  0A
0DA10:  MOVWF  FF6
0DA12:  MOVLW  1C
0DA14:  MOVWF  FF7
0DA16:  MOVLW  00
0DA18:  MOVWF  FF8
0DA1A:  MOVLB  0
0DA1C:  CALL   3DF4
....................          SendDataDisplay();       
0DA20:  CALL   3E26
....................          printf("t3c.txt=\"%2.0f\"",Tciclo); 
0DA24:  MOVLW  22
0DA26:  MOVWF  FF6
0DA28:  MOVLW  1C
0DA2A:  MOVWF  FF7
0DA2C:  MOVLW  00
0DA2E:  MOVWF  FF8
0DA30:  MOVLW  09
0DA32:  MOVLB  7
0DA34:  MOVWF  xB5
0DA36:  MOVLB  0
0DA38:  CALL   556C
0DA3C:  MOVLW  01
0DA3E:  MOVWF  FE9
0DA40:  MOVFF  2DC,7B8
0DA44:  MOVFF  2DB,7B7
0DA48:  MOVFF  2DA,7B6
0DA4C:  MOVFF  2D9,7B5
0DA50:  MOVLB  7
0DA52:  CLRF   xB9
0DA54:  MOVLB  0
0DA56:  CALL   5688
0DA5A:  MOVLW  22
0DA5C:  BTFSS  F9E.4
0DA5E:  BRA    DA5C
0DA60:  MOVWF  FAD
....................          SendDataDisplay(); 
0DA62:  CALL   3E26
....................          if(RX_Buffer[4]==0x0a){//Tecla Arriba Oprimida 
0DA66:  MOVF   34,W
0DA68:  SUBLW  0A
0DA6A:  BNZ   DAA4
....................                Tciclo+=1.0; 
0DA6C:  BCF    FD8.1
0DA6E:  MOVFF  2DC,7C5
0DA72:  MOVFF  2DB,7C4
0DA76:  MOVFF  2DA,7C3
0DA7A:  MOVFF  2D9,7C2
0DA7E:  MOVLB  7
0DA80:  CLRF   xC9
0DA82:  CLRF   xC8
0DA84:  CLRF   xC7
0DA86:  MOVLW  7F
0DA88:  MOVWF  xC6
0DA8A:  MOVLB  0
0DA8C:  CALL   2270
0DA90:  MOVFF  03,2DC
0DA94:  MOVFF  02,2DB
0DA98:  MOVFF  01,2DA
0DA9C:  MOVFF  00,2D9
....................                RX_Buffer[4]=0x00;   
0DAA0:  CLRF   34
....................                RX_Buffer2[4]=0x00;             
0DAA2:  CLRF   3F
....................                //BorraBuffer(); 
....................          } 
....................              
....................          if(RX_Buffer[4]==0x0b){//Tecla Abajo Oprimida             
0DAA4:  MOVF   34,W
0DAA6:  SUBLW  0B
0DAA8:  BNZ   DAE2
....................                Tciclo-=1.0; 
0DAAA:  BSF    FD8.1
0DAAC:  MOVFF  2DC,7C5
0DAB0:  MOVFF  2DB,7C4
0DAB4:  MOVFF  2DA,7C3
0DAB8:  MOVFF  2D9,7C2
0DABC:  MOVLB  7
0DABE:  CLRF   xC9
0DAC0:  CLRF   xC8
0DAC2:  CLRF   xC7
0DAC4:  MOVLW  7F
0DAC6:  MOVWF  xC6
0DAC8:  MOVLB  0
0DACA:  CALL   2270
0DACE:  MOVFF  03,2DC
0DAD2:  MOVFF  02,2DB
0DAD6:  MOVFF  01,2DA
0DADA:  MOVFF  00,2D9
....................                RX_Buffer[4]=0x00; 
0DADE:  CLRF   34
....................                RX_Buffer2[4]=0x00;             
0DAE0:  CLRF   3F
....................                //BorraBuffer(); 
....................          } 
....................           
....................          if(Tciclo>20) 
0DAE2:  MOVLB  7
0DAE4:  CLRF   xB9
0DAE6:  CLRF   xB8
0DAE8:  MOVLW  20
0DAEA:  MOVWF  xB7
0DAEC:  MOVLW  83
0DAEE:  MOVWF  xB6
0DAF0:  MOVFF  2DC,7BD
0DAF4:  MOVFF  2DB,7BC
0DAF8:  MOVFF  2DA,7BB
0DAFC:  MOVFF  2D9,7BA
0DB00:  MOVLB  0
0DB02:  CALL   24E8
0DB06:  BNC   DB16
....................             Tciclo=5; 
0DB08:  MOVLB  2
0DB0A:  CLRF   xDC
0DB0C:  CLRF   xDB
0DB0E:  MOVLW  20
0DB10:  MOVWF  xDA
0DB12:  MOVLW  81
0DB14:  MOVWF  xD9
....................          if(Tciclo<5) 
0DB16:  MOVFF  2DC,7B9
0DB1A:  MOVFF  2DB,7B8
0DB1E:  MOVFF  2DA,7B7
0DB22:  MOVFF  2D9,7B6
0DB26:  MOVLB  7
0DB28:  CLRF   xBD
0DB2A:  CLRF   xBC
0DB2C:  MOVLW  20
0DB2E:  MOVWF  xBB
0DB30:  MOVLW  81
0DB32:  MOVWF  xBA
0DB34:  MOVLB  0
0DB36:  CALL   24E8
0DB3A:  BNC   DB4C
....................             Tciclo=20; 
0DB3C:  MOVLB  2
0DB3E:  CLRF   xDC
0DB40:  CLRF   xDB
0DB42:  MOVLW  20
0DB44:  MOVWF  xDA
0DB46:  MOVLW  83
0DB48:  MOVWF  xD9
0DB4A:  MOVLB  0
....................       }else if(Opcion2==3){ 
0DB4C:  BRA    E0CC
0DB4E:  MOVLB  3
0DB50:  MOVF   x4E,W
0DB52:  SUBLW  03
0DB54:  BNZ   DBCE
....................          printf("Config.t2c.txt=\"Ajuste +\""); 
0DB56:  MOVLW  32
0DB58:  MOVWF  FF6
0DB5A:  MOVLW  1C
0DB5C:  MOVWF  FF7
0DB5E:  MOVLW  00
0DB60:  MOVWF  FF8
0DB62:  MOVLB  0
0DB64:  CALL   3DF4
....................          SendDataDisplay();       
0DB68:  CALL   3E26
....................          printf("t3c.txt=\"%u\"",Sensor[0].Ajuste); 
0DB6C:  MOVLW  4C
0DB6E:  MOVWF  FF6
0DB70:  MOVLW  1C
0DB72:  MOVWF  FF7
0DB74:  MOVLW  00
0DB76:  MOVWF  FF8
0DB78:  MOVLW  09
0DB7A:  MOVLB  7
0DB7C:  MOVWF  xB5
0DB7E:  MOVLB  0
0DB80:  CALL   556C
0DB84:  MOVFF  416,7B5
0DB88:  MOVLW  1B
0DB8A:  MOVLB  7
0DB8C:  MOVWF  xB6
0DB8E:  MOVLB  0
0DB90:  CALL   5858
0DB94:  MOVLW  22
0DB96:  BTFSS  F9E.4
0DB98:  BRA    DB96
0DB9A:  MOVWF  FAD
....................          SendDataDisplay(); 
0DB9C:  CALL   3E26
....................          if(RX_Buffer[4]==0x0a){//Tecla Arriba Oprimida             
0DBA0:  MOVF   34,W
0DBA2:  SUBLW  0A
0DBA4:  BNZ   DBB6
....................                if(Sensor[0].Ajuste<40) 
0DBA6:  MOVLB  4
0DBA8:  MOVF   x16,W
0DBAA:  SUBLW  27
0DBAC:  BNC   DBB0
....................                   Sensor[0].Ajuste++; 
0DBAE:  INCF   x16,F
....................                RX_Buffer[4]=0x00;   
0DBB0:  CLRF   34
....................                RX_Buffer2[4]=0x00;             
0DBB2:  CLRF   3F
0DBB4:  MOVLB  0
....................                //BorraBuffer();             
....................          } 
....................              
....................          if(RX_Buffer[4]==0x0b){//Tecla Abajo Oprimida             
0DBB6:  MOVF   34,W
0DBB8:  SUBLW  0B
0DBBA:  BNZ   DBCA
....................                if(Sensor[0].Ajuste>0) 
0DBBC:  MOVLB  4
0DBBE:  MOVF   x16,F
0DBC0:  BZ    DBC4
....................                   Sensor[0].Ajuste--; 
0DBC2:  DECF   x16,F
....................                RX_Buffer[4]=0x00; 
0DBC4:  CLRF   34
....................                RX_Buffer2[4]=0x00;             
0DBC6:  CLRF   3F
0DBC8:  MOVLB  0
....................                //BorraBuffer(); 
....................          } 
....................       }else if(Opcion2==4){ 
0DBCA:  BRA    E0CC
0DBCC:  MOVLB  3
0DBCE:  MOVF   x4E,W
0DBD0:  SUBLW  04
0DBD2:  BNZ   DC4C
....................          printf("Config.t2c.txt=\"Ajuste -\""); 
0DBD4:  MOVLW  5A
0DBD6:  MOVWF  FF6
0DBD8:  MOVLW  1C
0DBDA:  MOVWF  FF7
0DBDC:  MOVLW  00
0DBDE:  MOVWF  FF8
0DBE0:  MOVLB  0
0DBE2:  CALL   3DF4
....................          SendDataDisplay();       
0DBE6:  CALL   3E26
....................          printf("t3c.txt=\"%u\"",Sensor[0].Ajusten); 
0DBEA:  MOVLW  74
0DBEC:  MOVWF  FF6
0DBEE:  MOVLW  1C
0DBF0:  MOVWF  FF7
0DBF2:  MOVLW  00
0DBF4:  MOVWF  FF8
0DBF6:  MOVLW  09
0DBF8:  MOVLB  7
0DBFA:  MOVWF  xB5
0DBFC:  MOVLB  0
0DBFE:  CALL   556C
0DC02:  MOVFF  417,7B5
0DC06:  MOVLW  1B
0DC08:  MOVLB  7
0DC0A:  MOVWF  xB6
0DC0C:  MOVLB  0
0DC0E:  CALL   5858
0DC12:  MOVLW  22
0DC14:  BTFSS  F9E.4
0DC16:  BRA    DC14
0DC18:  MOVWF  FAD
....................          SendDataDisplay(); 
0DC1A:  CALL   3E26
....................          if(RX_Buffer[4]==0x0a){//Tecla Arriba Oprimida             
0DC1E:  MOVF   34,W
0DC20:  SUBLW  0A
0DC22:  BNZ   DC34
....................                if(Sensor[0].Ajusten<40) 
0DC24:  MOVLB  4
0DC26:  MOVF   x17,W
0DC28:  SUBLW  27
0DC2A:  BNC   DC2E
....................                   Sensor[0].Ajusten++; 
0DC2C:  INCF   x17,F
....................                RX_Buffer[4]=0x00;   
0DC2E:  CLRF   34
....................                RX_Buffer2[4]=0x00;             
0DC30:  CLRF   3F
0DC32:  MOVLB  0
....................                //BorraBuffer();             
....................          } 
....................              
....................          if(RX_Buffer[4]==0x0b){//Tecla Abajo Oprimida             
0DC34:  MOVF   34,W
0DC36:  SUBLW  0B
0DC38:  BNZ   DC48
....................                if(Sensor[0].Ajusten>0) 
0DC3A:  MOVLB  4
0DC3C:  MOVF   x17,F
0DC3E:  BZ    DC42
....................                   Sensor[0].Ajusten--; 
0DC40:  DECF   x17,F
....................                RX_Buffer[4]=0x00; 
0DC42:  CLRF   34
....................                RX_Buffer2[4]=0x00;             
0DC44:  CLRF   3F
0DC46:  MOVLB  0
....................                //BorraBuffer(); 
....................          } 
....................       }else if(Opcion2==5){ 
0DC48:  BRA    E0CC
0DC4A:  MOVLB  3
0DC4C:  MOVF   x4E,W
0DC4E:  SUBLW  05
0DC50:  BNZ   DCCA
....................          printf("Config.t2c.txt=\"Ajuste2 +\""); 
0DC52:  MOVLW  82
0DC54:  MOVWF  FF6
0DC56:  MOVLW  1C
0DC58:  MOVWF  FF7
0DC5A:  MOVLW  00
0DC5C:  MOVWF  FF8
0DC5E:  MOVLB  0
0DC60:  CALL   3DF4
....................          SendDataDisplay();       
0DC64:  CALL   3E26
....................          printf("t3c.txt=\"%u\"",Sensor[1].Ajuste); 
0DC68:  MOVLW  9E
0DC6A:  MOVWF  FF6
0DC6C:  MOVLW  1C
0DC6E:  MOVWF  FF7
0DC70:  MOVLW  00
0DC72:  MOVWF  FF8
0DC74:  MOVLW  09
0DC76:  MOVLB  7
0DC78:  MOVWF  xB5
0DC7A:  MOVLB  0
0DC7C:  CALL   556C
0DC80:  MOVFF  57A,7B5
0DC84:  MOVLW  1B
0DC86:  MOVLB  7
0DC88:  MOVWF  xB6
0DC8A:  MOVLB  0
0DC8C:  CALL   5858
0DC90:  MOVLW  22
0DC92:  BTFSS  F9E.4
0DC94:  BRA    DC92
0DC96:  MOVWF  FAD
....................          SendDataDisplay(); 
0DC98:  CALL   3E26
....................          if(RX_Buffer[4]==0x0a){//Tecla Arriba Oprimida 
0DC9C:  MOVF   34,W
0DC9E:  SUBLW  0A
0DCA0:  BNZ   DCB2
....................                if(Sensor[1].Ajuste<40) 
0DCA2:  MOVLB  5
0DCA4:  MOVF   x7A,W
0DCA6:  SUBLW  27
0DCA8:  BNC   DCAC
....................                   Sensor[1].Ajuste++; 
0DCAA:  INCF   x7A,F
....................                RX_Buffer[4]=0x00;   
0DCAC:  CLRF   34
....................                RX_Buffer2[4]=0x00;             
0DCAE:  CLRF   3F
0DCB0:  MOVLB  0
....................                //BorraBuffer(); 
....................          } 
....................              
....................          if(RX_Buffer[4]==0x0b){//Tecla Abajo Oprimida 
0DCB2:  MOVF   34,W
0DCB4:  SUBLW  0B
0DCB6:  BNZ   DCC6
....................                if(Sensor[1].Ajuste>0) 
0DCB8:  MOVLB  5
0DCBA:  MOVF   x7A,F
0DCBC:  BZ    DCC0
....................                   Sensor[1].Ajuste--; 
0DCBE:  DECF   x7A,F
....................                RX_Buffer[4]=0x00; 
0DCC0:  CLRF   34
....................                RX_Buffer2[4]=0x00;             
0DCC2:  CLRF   3F
0DCC4:  MOVLB  0
....................                //BorraBuffer();             
....................          } 
....................       }else if(Opcion2==6){ 
0DCC6:  BRA    E0CC
0DCC8:  MOVLB  3
0DCCA:  MOVF   x4E,W
0DCCC:  SUBLW  06
0DCCE:  BNZ   DD48
....................          printf("Config.t2c.txt=\"Ajuste2 -\""); 
0DCD0:  MOVLW  AC
0DCD2:  MOVWF  FF6
0DCD4:  MOVLW  1C
0DCD6:  MOVWF  FF7
0DCD8:  MOVLW  00
0DCDA:  MOVWF  FF8
0DCDC:  MOVLB  0
0DCDE:  CALL   3DF4
....................          SendDataDisplay();       
0DCE2:  CALL   3E26
....................          printf("t3c.txt=\"%u\"",Sensor[1].Ajusten); 
0DCE6:  MOVLW  C8
0DCE8:  MOVWF  FF6
0DCEA:  MOVLW  1C
0DCEC:  MOVWF  FF7
0DCEE:  MOVLW  00
0DCF0:  MOVWF  FF8
0DCF2:  MOVLW  09
0DCF4:  MOVLB  7
0DCF6:  MOVWF  xB5
0DCF8:  MOVLB  0
0DCFA:  CALL   556C
0DCFE:  MOVFF  57B,7B5
0DD02:  MOVLW  1B
0DD04:  MOVLB  7
0DD06:  MOVWF  xB6
0DD08:  MOVLB  0
0DD0A:  CALL   5858
0DD0E:  MOVLW  22
0DD10:  BTFSS  F9E.4
0DD12:  BRA    DD10
0DD14:  MOVWF  FAD
....................          SendDataDisplay(); 
0DD16:  CALL   3E26
....................          if(RX_Buffer[4]==0x0a){//Tecla Arriba Oprimida             
0DD1A:  MOVF   34,W
0DD1C:  SUBLW  0A
0DD1E:  BNZ   DD30
....................                if(Sensor[1].Ajusten<40) 
0DD20:  MOVLB  5
0DD22:  MOVF   x7B,W
0DD24:  SUBLW  27
0DD26:  BNC   DD2A
....................                   Sensor[1].Ajusten++; 
0DD28:  INCF   x7B,F
....................                RX_Buffer[4]=0x00;   
0DD2A:  CLRF   34
....................                RX_Buffer2[4]=0x00;             
0DD2C:  CLRF   3F
0DD2E:  MOVLB  0
....................                //BorraBuffer(); 
....................          } 
....................              
....................          if(RX_Buffer[4]==0x0b){//Tecla Abajo Oprimida             
0DD30:  MOVF   34,W
0DD32:  SUBLW  0B
0DD34:  BNZ   DD44
....................                if(Sensor[1].Ajusten>0) 
0DD36:  MOVLB  5
0DD38:  MOVF   x7B,F
0DD3A:  BZ    DD3E
....................                   Sensor[1].Ajusten--; 
0DD3C:  DECF   x7B,F
....................                RX_Buffer[4]=0x00; 
0DD3E:  CLRF   34
....................                RX_Buffer2[4]=0x00;             
0DD40:  CLRF   3F
0DD42:  MOVLB  0
....................                //BorraBuffer(); 
....................          } 
....................       }else if(Opcion2==7){ 
0DD44:  BRA    E0CC
0DD46:  MOVLB  3
0DD48:  MOVF   x4E,W
0DD4A:  SUBLW  07
0DD4C:  BNZ   DDC8
....................          printf("Config.t2c.txt=\"Media\""); 
0DD4E:  MOVLW  D6
0DD50:  MOVWF  FF6
0DD52:  MOVLW  1C
0DD54:  MOVWF  FF7
0DD56:  MOVLW  00
0DD58:  MOVWF  FF8
0DD5A:  MOVLB  0
0DD5C:  CALL   3DF4
....................          SendDataDisplay();       
0DD60:  CALL   3E26
....................          printf("t3c.txt=\"%u\"",MediaMovil); 
0DD64:  MOVLW  EE
0DD66:  MOVWF  FF6
0DD68:  MOVLW  1C
0DD6A:  MOVWF  FF7
0DD6C:  MOVLW  00
0DD6E:  MOVWF  FF8
0DD70:  MOVLW  09
0DD72:  MOVLB  7
0DD74:  MOVWF  xB5
0DD76:  MOVLB  0
0DD78:  CALL   556C
0DD7C:  MOVFF  2CC,7B5
0DD80:  MOVLW  1B
0DD82:  MOVLB  7
0DD84:  MOVWF  xB6
0DD86:  MOVLB  0
0DD88:  CALL   5858
0DD8C:  MOVLW  22
0DD8E:  BTFSS  F9E.4
0DD90:  BRA    DD8E
0DD92:  MOVWF  FAD
....................          SendDataDisplay(); 
0DD94:  CALL   3E26
....................          if(RX_Buffer[4]==0x0a){//Tecla Arriba Oprimida 
0DD98:  MOVF   34,W
0DD9A:  SUBLW  0A
0DD9C:  BNZ   DDAE
....................                if(MediaMovil<80) 
0DD9E:  MOVLB  2
0DDA0:  MOVF   xCC,W
0DDA2:  SUBLW  4F
0DDA4:  BNC   DDA8
....................                   MediaMovil++; 
0DDA6:  INCF   xCC,F
....................                RX_Buffer[4]=0x00;   
0DDA8:  CLRF   34
....................                RX_Buffer2[4]=0x00;             
0DDAA:  CLRF   3F
0DDAC:  MOVLB  0
....................                //BorraBuffer(); 
....................          } 
....................              
....................          if(RX_Buffer[4]==0x0b){//Tecla Abajo Oprimida 
0DDAE:  MOVF   34,W
0DDB0:  SUBLW  0B
0DDB2:  BNZ   DDC4
....................                if(MediaMovil>10) 
0DDB4:  MOVLB  2
0DDB6:  MOVF   xCC,W
0DDB8:  SUBLW  0A
0DDBA:  BC    DDBE
....................                   MediaMovil--; 
0DDBC:  DECF   xCC,F
....................                RX_Buffer[4]=0x00; 
0DDBE:  CLRF   34
....................                RX_Buffer2[4]=0x00;             
0DDC0:  CLRF   3F
0DDC2:  MOVLB  0
....................                //BorraBuffer();             
....................          } 
....................       }else if(Opcion2==8){ 
0DDC4:  BRA    E0CC
0DDC6:  MOVLB  3
0DDC8:  MOVF   x4E,W
0DDCA:  SUBLW  08
0DDCC:  BNZ   DE4C
....................          printf("Config.t2c.txt=\"Derivativo\""); 
0DDCE:  MOVLW  FC
0DDD0:  MOVWF  FF6
0DDD2:  MOVLW  1C
0DDD4:  MOVWF  FF7
0DDD6:  MOVLW  00
0DDD8:  MOVWF  FF8
0DDDA:  MOVLB  0
0DDDC:  CALL   3DF4
....................          SendDataDisplay();       
0DDE0:  CALL   3E26
....................          printf("t3c.txt=\"%02u\"",Derivativo); 
0DDE4:  MOVLW  18
0DDE6:  MOVWF  FF6
0DDE8:  MOVLW  1D
0DDEA:  MOVWF  FF7
0DDEC:  MOVLW  00
0DDEE:  MOVWF  FF8
0DDF0:  MOVLW  09
0DDF2:  MOVLB  7
0DDF4:  MOVWF  xB5
0DDF6:  MOVLB  0
0DDF8:  CALL   556C
0DDFC:  MOVFF  32A,7B5
0DE00:  MOVLW  01
0DE02:  MOVLB  7
0DE04:  MOVWF  xB6
0DE06:  MOVLB  0
0DE08:  CALL   5858
0DE0C:  MOVLW  22
0DE0E:  BTFSS  F9E.4
0DE10:  BRA    DE0E
0DE12:  MOVWF  FAD
....................          SendDataDisplay(); 
0DE14:  CALL   3E26
....................          if(RX_Buffer[4]==0x0a ){//Tecla Arriba Oprimida 
0DE18:  MOVF   34,W
0DE1A:  SUBLW  0A
0DE1C:  BNZ   DE28
....................                Derivativo++; 
0DE1E:  MOVLB  3
0DE20:  INCF   x2A,F
....................                RX_Buffer[4]=0x00;   
0DE22:  CLRF   34
....................                RX_Buffer2[4]=0x00;             
0DE24:  CLRF   3F
0DE26:  MOVLB  0
....................                //BorraBuffer();  
....................          } 
....................              
....................          if(RX_Buffer[4]==0x0b){//Tecla Abajo Oprimida 
0DE28:  MOVF   34,W
0DE2A:  SUBLW  0B
0DE2C:  BNZ   DE36
....................                Derivativo--; 
0DE2E:  MOVLB  3
0DE30:  DECF   x2A,F
....................                RX_Buffer[4]=0x00; 
0DE32:  CLRF   34
....................                RX_Buffer2[4]=0x00;             
0DE34:  CLRF   3F
....................          } 
....................           
....................           
....................          if(Derivativo>40) 
0DE36:  MOVLB  3
0DE38:  MOVF   x2A,W
0DE3A:  SUBLW  28
0DE3C:  BC    DE42
....................             Derivativo=1; 
0DE3E:  MOVLW  01
0DE40:  MOVWF  x2A
....................          if(Derivativo<1) 
0DE42:  MOVF   x2A,F
0DE44:  BNZ   DE4A
....................             Derivativo=40; 
0DE46:  MOVLW  28
0DE48:  MOVWF  x2A
....................       }else if(Opcion2==9){ 
0DE4A:  BRA    E0CE
0DE4C:  MOVF   x4E,W
0DE4E:  SUBLW  09
0DE50:  BNZ   DED0
....................          printf("Config.t2c.txt=\"Integral\""); 
0DE52:  MOVLW  28
0DE54:  MOVWF  FF6
0DE56:  MOVLW  1D
0DE58:  MOVWF  FF7
0DE5A:  MOVLW  00
0DE5C:  MOVWF  FF8
0DE5E:  MOVLB  0
0DE60:  CALL   3DF4
....................          SendDataDisplay();       
0DE64:  CALL   3E26
....................          printf("t3c.txt=\"%02u\"",Integral); 
0DE68:  MOVLW  42
0DE6A:  MOVWF  FF6
0DE6C:  MOVLW  1D
0DE6E:  MOVWF  FF7
0DE70:  MOVLW  00
0DE72:  MOVWF  FF8
0DE74:  MOVLW  09
0DE76:  MOVLB  7
0DE78:  MOVWF  xB5
0DE7A:  MOVLB  0
0DE7C:  CALL   556C
0DE80:  MOVFF  329,7B5
0DE84:  MOVLW  01
0DE86:  MOVLB  7
0DE88:  MOVWF  xB6
0DE8A:  MOVLB  0
0DE8C:  CALL   5858
0DE90:  MOVLW  22
0DE92:  BTFSS  F9E.4
0DE94:  BRA    DE92
0DE96:  MOVWF  FAD
....................          SendDataDisplay(); 
0DE98:  CALL   3E26
....................          if(RX_Buffer[4]==0x0a){//Tecla Arriba Oprimida 
0DE9C:  MOVF   34,W
0DE9E:  SUBLW  0A
0DEA0:  BNZ   DEAC
....................                Integral++; 
0DEA2:  MOVLB  3
0DEA4:  INCF   x29,F
....................                RX_Buffer[4]=0x00;   
0DEA6:  CLRF   34
....................                RX_Buffer2[4]=0x00;             
0DEA8:  CLRF   3F
0DEAA:  MOVLB  0
....................                //BorraBuffer(); 
....................          } 
....................              
....................          if(RX_Buffer[4]==0x0b){//Tecla Abajo Oprimida 
0DEAC:  MOVF   34,W
0DEAE:  SUBLW  0B
0DEB0:  BNZ   DEBA
....................                Integral--; 
0DEB2:  MOVLB  3
0DEB4:  DECF   x29,F
....................                RX_Buffer[4]=0x00; 
0DEB6:  CLRF   34
....................                RX_Buffer2[4]=0x00;             
0DEB8:  CLRF   3F
....................                //BorraBuffer(); 
....................          } 
....................           
....................          if(Integral>40) 
0DEBA:  MOVLB  3
0DEBC:  MOVF   x29,W
0DEBE:  SUBLW  28
0DEC0:  BC    DEC6
....................             Integral=1; 
0DEC2:  MOVLW  01
0DEC4:  MOVWF  x29
....................          if(Integral<1) 
0DEC6:  MOVF   x29,F
0DEC8:  BNZ   DECE
....................             Integral=40; 
0DECA:  MOVLW  28
0DECC:  MOVWF  x29
....................       }else if(Opcion2==10){ 
0DECE:  BRA    E0CE
0DED0:  MOVF   x4E,W
0DED2:  SUBLW  0A
0DED4:  BNZ   DF24
....................          printf("Config.t2c.txt=\"Ciclos\""); 
0DED6:  MOVLW  52
0DED8:  MOVWF  FF6
0DEDA:  MOVLW  1D
0DEDC:  MOVWF  FF7
0DEDE:  MOVLW  00
0DEE0:  MOVWF  FF8
0DEE2:  MOVLB  0
0DEE4:  CALL   3DF4
....................          SendDataDisplay();       
0DEE8:  CALL   3E26
....................          printf("t3c.txt=\"%03Lu\"",Ciclos); 
0DEEC:  MOVLW  6A
0DEEE:  MOVWF  FF6
0DEF0:  MOVLW  1D
0DEF2:  MOVWF  FF7
0DEF4:  MOVLW  00
0DEF6:  MOVWF  FF8
0DEF8:  MOVLW  09
0DEFA:  MOVLB  7
0DEFC:  MOVWF  xB5
0DEFE:  MOVLB  0
0DF00:  CALL   556C
0DF04:  MOVLW  0A
0DF06:  MOVWF  FE9
0DF08:  MOVFF  363,7B5
0DF0C:  MOVFF  362,7B4
0DF10:  CALL   594C
0DF14:  MOVLW  22
0DF16:  BTFSS  F9E.4
0DF18:  BRA    DF16
0DF1A:  MOVWF  FAD
....................          SendDataDisplay(); 
0DF1C:  CALL   3E26
....................       }else if(Opcion2==11){ 
0DF20:  BRA    E0CC
0DF22:  MOVLB  3
0DF24:  MOVF   x4E,W
0DF26:  SUBLW  0B
0DF28:  BNZ   DFA4
....................          printf("Config.t2c.txt=\"Atmosferica\""); 
0DF2A:  MOVLW  7A
0DF2C:  MOVWF  FF6
0DF2E:  MOVLW  1D
0DF30:  MOVWF  FF7
0DF32:  MOVLW  00
0DF34:  MOVWF  FF8
0DF36:  MOVLB  0
0DF38:  CALL   3DF4
....................          SendDataDisplay();       
0DF3C:  CALL   3E26
....................          printf("t3c.txt=\"%03u\"",Atmosferica); 
0DF40:  MOVLW  98
0DF42:  MOVWF  FF6
0DF44:  MOVLW  1D
0DF46:  MOVWF  FF7
0DF48:  MOVLW  00
0DF4A:  MOVWF  FF8
0DF4C:  MOVLW  09
0DF4E:  MOVLB  7
0DF50:  MOVWF  xB5
0DF52:  MOVLB  0
0DF54:  CALL   556C
0DF58:  MOVFF  331,7B5
0DF5C:  MOVLW  03
0DF5E:  MOVLB  7
0DF60:  MOVWF  xB6
0DF62:  MOVLB  0
0DF64:  CALL   5858
0DF68:  MOVLW  22
0DF6A:  BTFSS  F9E.4
0DF6C:  BRA    DF6A
0DF6E:  MOVWF  FAD
....................          SendDataDisplay(); 
0DF70:  CALL   3E26
....................          if(RX_Buffer[4]==0x0a){//Tecla Arriba Oprimida 
0DF74:  MOVF   34,W
0DF76:  SUBLW  0A
0DF78:  BNZ   DF8A
....................                if(Atmosferica<100) 
0DF7A:  MOVLB  3
0DF7C:  MOVF   x31,W
0DF7E:  SUBLW  63
0DF80:  BNC   DF84
....................                   ++Atmosferica; 
0DF82:  INCF   x31,F
....................                RX_Buffer[4]=0x00;   
0DF84:  CLRF   34
....................                RX_Buffer2[4]=0x00;             
0DF86:  CLRF   3F
0DF88:  MOVLB  0
....................                //BorraBuffer(); 
....................          } 
....................              
....................          if(RX_Buffer[4]==0x0b){//Tecla Abajo Oprimida 
0DF8A:  MOVF   34,W
0DF8C:  SUBLW  0B
0DF8E:  BNZ   DFA0
....................                if(Atmosferica>50) 
0DF90:  MOVLB  3
0DF92:  MOVF   x31,W
0DF94:  SUBLW  32
0DF96:  BC    DF9A
....................                   --Atmosferica; 
0DF98:  DECF   x31,F
....................                RX_Buffer[4]=0x00; 
0DF9A:  CLRF   34
....................                RX_Buffer2[4]=0x00;             
0DF9C:  CLRF   3F
0DF9E:  MOVLB  0
....................                //BorraBuffer(); 
....................          } 
....................       }else if(Opcion2==12){ 
0DFA0:  BRA    E0CC
0DFA2:  MOVLB  3
0DFA4:  MOVF   x4E,W
0DFA6:  SUBLW  0C
0DFA8:  BNZ   E024
....................          printf("Config.t2c.txt=\"T. Apertura\""); 
0DFAA:  MOVLW  A8
0DFAC:  MOVWF  FF6
0DFAE:  MOVLW  1D
0DFB0:  MOVWF  FF7
0DFB2:  MOVLW  00
0DFB4:  MOVWF  FF8
0DFB6:  MOVLB  0
0DFB8:  CALL   3DF4
....................          SendDataDisplay();       
0DFBC:  CALL   3E26
....................          printf("t3c.txt=\"%03u\"",Tapertura); 
0DFC0:  MOVLW  C6
0DFC2:  MOVWF  FF6
0DFC4:  MOVLW  1D
0DFC6:  MOVWF  FF7
0DFC8:  MOVLW  00
0DFCA:  MOVWF  FF8
0DFCC:  MOVLW  09
0DFCE:  MOVLB  7
0DFD0:  MOVWF  xB5
0DFD2:  MOVLB  0
0DFD4:  CALL   556C
0DFD8:  MOVFF  2D0,7B5
0DFDC:  MOVLW  03
0DFDE:  MOVLB  7
0DFE0:  MOVWF  xB6
0DFE2:  MOVLB  0
0DFE4:  CALL   5858
0DFE8:  MOVLW  22
0DFEA:  BTFSS  F9E.4
0DFEC:  BRA    DFEA
0DFEE:  MOVWF  FAD
....................          SendDataDisplay(); 
0DFF0:  CALL   3E26
....................          if(RX_Buffer[4]==0x0a){//Tecla Arriba Oprimida 
0DFF4:  MOVF   34,W
0DFF6:  SUBLW  0A
0DFF8:  BNZ   E00A
....................                if(Tapertura<100) 
0DFFA:  MOVLB  2
0DFFC:  MOVF   xD0,W
0DFFE:  SUBLW  63
0E000:  BNC   E004
....................                   ++Tapertura; 
0E002:  INCF   xD0,F
....................                RX_Buffer[4]=0x00;   
0E004:  CLRF   34
....................                RX_Buffer2[4]=0x00;             
0E006:  CLRF   3F
0E008:  MOVLB  0
....................                //BorraBuffer(); 
....................          } 
....................              
....................          if(RX_Buffer[4]==0x0b){//Tecla Abajo Oprimida 
0E00A:  MOVF   34,W
0E00C:  SUBLW  0B
0E00E:  BNZ   E020
....................                if(Tapertura>50) 
0E010:  MOVLB  2
0E012:  MOVF   xD0,W
0E014:  SUBLW  32
0E016:  BC    E01A
....................                   --Tapertura; 
0E018:  DECF   xD0,F
....................                RX_Buffer[4]=0x00; 
0E01A:  CLRF   34
....................                RX_Buffer2[4]=0x00;             
0E01C:  CLRF   3F
0E01E:  MOVLB  0
....................                //BorraBuffer();            
....................          } 
....................       }else if(Opcion2==13){ 
0E020:  BRA    E0CC
0E022:  MOVLB  3
0E024:  MOVF   x4E,W
0E026:  SUBLW  0D
0E028:  BNZ   E0CE
....................          printf("Config.t2c.txt=\"TTrampa\""); 
0E02A:  MOVLW  D6
0E02C:  MOVWF  FF6
0E02E:  MOVLW  1D
0E030:  MOVWF  FF7
0E032:  MOVLW  00
0E034:  MOVWF  FF8
0E036:  MOVLB  0
0E038:  CALL   3DF4
....................          SendDataDisplay();       
0E03C:  CALL   3E26
....................          printf("t3c.txt=\"%02u\"",TTrampa); 
0E040:  MOVLW  F0
0E042:  MOVWF  FF6
0E044:  MOVLW  1D
0E046:  MOVWF  FF7
0E048:  MOVLW  00
0E04A:  MOVWF  FF8
0E04C:  MOVLW  09
0E04E:  MOVLB  7
0E050:  MOVWF  xB5
0E052:  MOVLB  0
0E054:  CALL   556C
0E058:  MOVFF  C7,7B5
0E05C:  MOVLW  01
0E05E:  MOVLB  7
0E060:  MOVWF  xB6
0E062:  MOVLB  0
0E064:  CALL   5858
0E068:  MOVLW  22
0E06A:  BTFSS  F9E.4
0E06C:  BRA    E06A
0E06E:  MOVWF  FAD
....................          SendDataDisplay(); 
0E070:  CALL   3E26
....................          if(RX_Buffer[4]==0x0a || UP){//Tecla Arriba Oprimida 
0E074:  MOVF   34,W
0E076:  SUBLW  0A
0E078:  BZ    E07E
0E07A:  BTFSS  xA0.0
0E07C:  BRA    E0A0
....................             delay_ms(20); 
0E07E:  MOVLW  14
0E080:  MOVLB  7
0E082:  MOVWF  xC0
0E084:  MOVLB  0
0E086:  CALL   1E8C
....................             if(RX_Buffer[4]==0x0a || UP){ 
0E08A:  MOVF   34,W
0E08C:  SUBLW  0A
0E08E:  BZ    E094
0E090:  BTFSS  xA0.0
0E092:  BRA    E0A0
....................                if(TTrampa<100) 
0E094:  MOVF   xC7,W
0E096:  SUBLW  63
0E098:  BNC   E09C
....................                   TTrampa++; 
0E09A:  INCF   xC7,F
....................                RX_Buffer[4]=0x00;   
0E09C:  CLRF   34
....................                RX_Buffer2[4]=0x00;             
0E09E:  CLRF   3F
....................                //BorraBuffer(); 
....................             } 
....................          } 
....................              
....................          if(RX_Buffer[4]==0x0b || DOWN){//Tecla Abajo Oprimida 
0E0A0:  MOVF   34,W
0E0A2:  SUBLW  0B
0E0A4:  BZ    E0AA
0E0A6:  BTFSS  xA0.1
0E0A8:  BRA    E0CC
....................             delay_ms(20); 
0E0AA:  MOVLW  14
0E0AC:  MOVLB  7
0E0AE:  MOVWF  xC0
0E0B0:  MOVLB  0
0E0B2:  CALL   1E8C
....................             if(RX_Buffer[4]==0x0b || DOWN){ 
0E0B6:  MOVF   34,W
0E0B8:  SUBLW  0B
0E0BA:  BZ    E0C0
0E0BC:  BTFSS  xA0.1
0E0BE:  BRA    E0CC
....................                if(TTrampa>50) 
0E0C0:  MOVF   xC7,W
0E0C2:  SUBLW  32
0E0C4:  BC    E0C8
....................                   TTrampa--; 
0E0C6:  DECF   xC7,F
....................                RX_Buffer[4]=0x00; 
0E0C8:  CLRF   34
....................                RX_Buffer2[4]=0x00;             
0E0CA:  CLRF   3F
0E0CC:  MOVLB  3
....................                //BorraBuffer(); 
....................             } 
....................          } 
....................       } 
....................        
....................       if(RX_Buffer[4]==0x0c){//Tecla Izquierda Oprimida 
0E0CE:  MOVF   34,W
0E0D0:  SUBLW  0C
0E0D2:  BNZ   E0DA
....................             Opcion2++; 
0E0D4:  INCF   x4E,F
....................             RX_Buffer[4]=0x00;   
0E0D6:  CLRF   34
....................             RX_Buffer2[4]=0x00;             
0E0D8:  CLRF   3F
....................             //BorraBuffer();    
....................       } 
....................           
....................       if(RX_Buffer[4]==0x0d){//Tecla Derecha Oprimida          
0E0DA:  MOVF   34,W
0E0DC:  SUBLW  0D
0E0DE:  BNZ   E0E6
....................             Opcion2--; 
0E0E0:  DECF   x4E,F
....................             RX_Buffer[4]=0x00; 
0E0E2:  CLRF   34
....................             RX_Buffer2[4]=0x00;             
0E0E4:  CLRF   3F
....................             //BorraBuffer(); 
....................       } 
....................        
....................       if(RX_Buffer[4]==0x11){//Tecla Regresar 
0E0E6:  MOVF   34,W
0E0E8:  SUBLW  11
0E0EA:  BTFSS  FD8.2
0E0EC:  BRA    E406
....................          delay_ms(20); 
0E0EE:  MOVLW  14
0E0F0:  MOVLB  7
0E0F2:  MOVWF  xC0
0E0F4:  MOVLB  0
0E0F6:  CALL   1E8C
....................          if(RX_Buffer[4]==0x11){ 
0E0FA:  MOVF   34,W
0E0FC:  SUBLW  11
0E0FE:  BTFSS  FD8.2
0E100:  BRA    E404
....................             if(!GuardaEEPROM){ 
0E102:  BTFSC  xA2.6
0E104:  BRA    E3F0
....................                write_eeprom(20,(int8)Ganancia); 
0E106:  MOVFF  2F4,7C5
0E10A:  MOVFF  2F3,7C4
0E10E:  MOVFF  2F2,7C3
0E112:  MOVFF  2F1,7C2
0E116:  CALL   4AAC
0E11A:  MOVFF  01,7B0
0E11E:  CLRF   FAA
0E120:  MOVLW  14
0E122:  MOVWF  FA9
0E124:  MOVFF  7B0,FA8
0E128:  BCF    FA6.6
0E12A:  BCF    FA6.7
0E12C:  BSF    FA6.2
0E12E:  MOVF   FF2,W
0E130:  MOVWF  00
0E132:  BCF    FF2.6
0E134:  BCF    FF2.7
0E136:  MOVLB  F
0E138:  MOVLW  55
0E13A:  MOVWF  FA7
0E13C:  MOVLW  AA
0E13E:  MOVWF  FA7
0E140:  BSF    FA6.1
0E142:  BTFSC  FA6.1
0E144:  BRA    E142
0E146:  BCF    FA6.2
0E148:  MOVF   00,W
0E14A:  IORWF  FF2,F
....................                delay_ms(10); 
0E14C:  MOVLW  0A
0E14E:  MOVLB  7
0E150:  MOVWF  xC0
0E152:  MOVLB  0
0E154:  CALL   1E8C
....................                write_eeprom(21,Sensor[0].Ajuste); 
0E158:  CLRF   FAA
0E15A:  MOVLW  15
0E15C:  MOVWF  FA9
0E15E:  MOVFF  416,FA8
0E162:  BCF    FA6.6
0E164:  BCF    FA6.7
0E166:  BSF    FA6.2
0E168:  MOVF   FF2,W
0E16A:  MOVWF  00
0E16C:  BCF    FF2.6
0E16E:  BCF    FF2.7
0E170:  MOVLB  F
0E172:  MOVLW  55
0E174:  MOVWF  FA7
0E176:  MOVLW  AA
0E178:  MOVWF  FA7
0E17A:  BSF    FA6.1
0E17C:  BTFSC  FA6.1
0E17E:  BRA    E17C
0E180:  BCF    FA6.2
0E182:  MOVF   00,W
0E184:  IORWF  FF2,F
....................                delay_ms(10); 
0E186:  MOVLW  0A
0E188:  MOVLB  7
0E18A:  MOVWF  xC0
0E18C:  MOVLB  0
0E18E:  CALL   1E8C
....................                write_eeprom(22,Sensor[0].Ajusten); 
0E192:  CLRF   FAA
0E194:  MOVLW  16
0E196:  MOVWF  FA9
0E198:  MOVFF  417,FA8
0E19C:  BCF    FA6.6
0E19E:  BCF    FA6.7
0E1A0:  BSF    FA6.2
0E1A2:  MOVF   FF2,W
0E1A4:  MOVWF  00
0E1A6:  BCF    FF2.6
0E1A8:  BCF    FF2.7
0E1AA:  MOVLB  F
0E1AC:  MOVLW  55
0E1AE:  MOVWF  FA7
0E1B0:  MOVLW  AA
0E1B2:  MOVWF  FA7
0E1B4:  BSF    FA6.1
0E1B6:  BTFSC  FA6.1
0E1B8:  BRA    E1B6
0E1BA:  BCF    FA6.2
0E1BC:  MOVF   00,W
0E1BE:  IORWF  FF2,F
....................                delay_ms(10); 
0E1C0:  MOVLW  0A
0E1C2:  MOVLB  7
0E1C4:  MOVWF  xC0
0E1C6:  MOVLB  0
0E1C8:  CALL   1E8C
....................                write_eeprom(23,Sensor[1].Ajuste); 
0E1CC:  CLRF   FAA
0E1CE:  MOVLW  17
0E1D0:  MOVWF  FA9
0E1D2:  MOVFF  57A,FA8
0E1D6:  BCF    FA6.6
0E1D8:  BCF    FA6.7
0E1DA:  BSF    FA6.2
0E1DC:  MOVF   FF2,W
0E1DE:  MOVWF  00
0E1E0:  BCF    FF2.6
0E1E2:  BCF    FF2.7
0E1E4:  MOVLB  F
0E1E6:  MOVLW  55
0E1E8:  MOVWF  FA7
0E1EA:  MOVLW  AA
0E1EC:  MOVWF  FA7
0E1EE:  BSF    FA6.1
0E1F0:  BTFSC  FA6.1
0E1F2:  BRA    E1F0
0E1F4:  BCF    FA6.2
0E1F6:  MOVF   00,W
0E1F8:  IORWF  FF2,F
....................                delay_ms(10); 
0E1FA:  MOVLW  0A
0E1FC:  MOVLB  7
0E1FE:  MOVWF  xC0
0E200:  MOVLB  0
0E202:  CALL   1E8C
....................                write_eeprom(24,Sensor[1].Ajusten); 
0E206:  CLRF   FAA
0E208:  MOVLW  18
0E20A:  MOVWF  FA9
0E20C:  MOVFF  57B,FA8
0E210:  BCF    FA6.6
0E212:  BCF    FA6.7
0E214:  BSF    FA6.2
0E216:  MOVF   FF2,W
0E218:  MOVWF  00
0E21A:  BCF    FF2.6
0E21C:  BCF    FF2.7
0E21E:  MOVLB  F
0E220:  MOVLW  55
0E222:  MOVWF  FA7
0E224:  MOVLW  AA
0E226:  MOVWF  FA7
0E228:  BSF    FA6.1
0E22A:  BTFSC  FA6.1
0E22C:  BRA    E22A
0E22E:  BCF    FA6.2
0E230:  MOVF   00,W
0E232:  IORWF  FF2,F
....................                delay_ms(10); 
0E234:  MOVLW  0A
0E236:  MOVLB  7
0E238:  MOVWF  xC0
0E23A:  MOVLB  0
0E23C:  CALL   1E8C
....................                write_eeprom(25,(int8)MediaMovil); 
0E240:  CLRF   FAA
0E242:  MOVLW  19
0E244:  MOVWF  FA9
0E246:  MOVFF  2CC,FA8
0E24A:  BCF    FA6.6
0E24C:  BCF    FA6.7
0E24E:  BSF    FA6.2
0E250:  MOVF   FF2,W
0E252:  MOVWF  00
0E254:  BCF    FF2.6
0E256:  BCF    FF2.7
0E258:  MOVLB  F
0E25A:  MOVLW  55
0E25C:  MOVWF  FA7
0E25E:  MOVLW  AA
0E260:  MOVWF  FA7
0E262:  BSF    FA6.1
0E264:  BTFSC  FA6.1
0E266:  BRA    E264
0E268:  BCF    FA6.2
0E26A:  MOVF   00,W
0E26C:  IORWF  FF2,F
....................                delay_ms(10); 
0E26E:  MOVLW  0A
0E270:  MOVLB  7
0E272:  MOVWF  xC0
0E274:  MOVLB  0
0E276:  CALL   1E8C
....................                write_eeprom(26,(int8)Tciclo); 
0E27A:  MOVFF  2DC,7C5
0E27E:  MOVFF  2DB,7C4
0E282:  MOVFF  2DA,7C3
0E286:  MOVFF  2D9,7C2
0E28A:  CALL   4AAC
0E28E:  MOVFF  01,7B0
0E292:  CLRF   FAA
0E294:  MOVLW  1A
0E296:  MOVWF  FA9
0E298:  MOVFF  7B0,FA8
0E29C:  BCF    FA6.6
0E29E:  BCF    FA6.7
0E2A0:  BSF    FA6.2
0E2A2:  MOVF   FF2,W
0E2A4:  MOVWF  00
0E2A6:  BCF    FF2.6
0E2A8:  BCF    FF2.7
0E2AA:  MOVLB  F
0E2AC:  MOVLW  55
0E2AE:  MOVWF  FA7
0E2B0:  MOVLW  AA
0E2B2:  MOVWF  FA7
0E2B4:  BSF    FA6.1
0E2B6:  BTFSC  FA6.1
0E2B8:  BRA    E2B6
0E2BA:  BCF    FA6.2
0E2BC:  MOVF   00,W
0E2BE:  IORWF  FF2,F
....................                delay_ms(10); 
0E2C0:  MOVLW  0A
0E2C2:  MOVLB  7
0E2C4:  MOVWF  xC0
0E2C6:  MOVLB  0
0E2C8:  CALL   1E8C
....................                write_eeprom(27,(int8)Integral); 
0E2CC:  CLRF   FAA
0E2CE:  MOVLW  1B
0E2D0:  MOVWF  FA9
0E2D2:  MOVFF  329,FA8
0E2D6:  BCF    FA6.6
0E2D8:  BCF    FA6.7
0E2DA:  BSF    FA6.2
0E2DC:  MOVF   FF2,W
0E2DE:  MOVWF  00
0E2E0:  BCF    FF2.6
0E2E2:  BCF    FF2.7
0E2E4:  MOVLB  F
0E2E6:  MOVLW  55
0E2E8:  MOVWF  FA7
0E2EA:  MOVLW  AA
0E2EC:  MOVWF  FA7
0E2EE:  BSF    FA6.1
0E2F0:  BTFSC  FA6.1
0E2F2:  BRA    E2F0
0E2F4:  BCF    FA6.2
0E2F6:  MOVF   00,W
0E2F8:  IORWF  FF2,F
....................                delay_ms(10); 
0E2FA:  MOVLW  0A
0E2FC:  MOVLB  7
0E2FE:  MOVWF  xC0
0E300:  MOVLB  0
0E302:  CALL   1E8C
....................                write_eeprom(28,(int8)Derivativo); 
0E306:  CLRF   FAA
0E308:  MOVLW  1C
0E30A:  MOVWF  FA9
0E30C:  MOVFF  32A,FA8
0E310:  BCF    FA6.6
0E312:  BCF    FA6.7
0E314:  BSF    FA6.2
0E316:  MOVF   FF2,W
0E318:  MOVWF  00
0E31A:  BCF    FF2.6
0E31C:  BCF    FF2.7
0E31E:  MOVLB  F
0E320:  MOVLW  55
0E322:  MOVWF  FA7
0E324:  MOVLW  AA
0E326:  MOVWF  FA7
0E328:  BSF    FA6.1
0E32A:  BTFSC  FA6.1
0E32C:  BRA    E32A
0E32E:  BCF    FA6.2
0E330:  MOVF   00,W
0E332:  IORWF  FF2,F
....................                delay_ms(10); 
0E334:  MOVLW  0A
0E336:  MOVLB  7
0E338:  MOVWF  xC0
0E33A:  MOVLB  0
0E33C:  CALL   1E8C
....................                write_eeprom(31,Atmosferica); 
0E340:  CLRF   FAA
0E342:  MOVLW  1F
0E344:  MOVWF  FA9
0E346:  MOVFF  331,FA8
0E34A:  BCF    FA6.6
0E34C:  BCF    FA6.7
0E34E:  BSF    FA6.2
0E350:  MOVF   FF2,W
0E352:  MOVWF  00
0E354:  BCF    FF2.6
0E356:  BCF    FF2.7
0E358:  MOVLB  F
0E35A:  MOVLW  55
0E35C:  MOVWF  FA7
0E35E:  MOVLW  AA
0E360:  MOVWF  FA7
0E362:  BSF    FA6.1
0E364:  BTFSC  FA6.1
0E366:  BRA    E364
0E368:  BCF    FA6.2
0E36A:  MOVF   00,W
0E36C:  IORWF  FF2,F
....................                delay_ms(10); 
0E36E:  MOVLW  0A
0E370:  MOVLB  7
0E372:  MOVWF  xC0
0E374:  MOVLB  0
0E376:  CALL   1E8C
....................                write_eeprom(32,Tapertura); 
0E37A:  CLRF   FAA
0E37C:  MOVLW  20
0E37E:  MOVWF  FA9
0E380:  MOVFF  2D0,FA8
0E384:  BCF    FA6.6
0E386:  BCF    FA6.7
0E388:  BSF    FA6.2
0E38A:  MOVF   FF2,W
0E38C:  MOVWF  00
0E38E:  BCF    FF2.6
0E390:  BCF    FF2.7
0E392:  MOVLB  F
0E394:  MOVLW  55
0E396:  MOVWF  FA7
0E398:  MOVLW  AA
0E39A:  MOVWF  FA7
0E39C:  BSF    FA6.1
0E39E:  BTFSC  FA6.1
0E3A0:  BRA    E39E
0E3A2:  BCF    FA6.2
0E3A4:  MOVF   00,W
0E3A6:  IORWF  FF2,F
....................                delay_ms(10); 
0E3A8:  MOVLW  0A
0E3AA:  MOVLB  7
0E3AC:  MOVWF  xC0
0E3AE:  MOVLB  0
0E3B0:  CALL   1E8C
....................                write_eeprom(39,TTrampa); 
0E3B4:  CLRF   FAA
0E3B6:  MOVLW  27
0E3B8:  MOVWF  FA9
0E3BA:  MOVFF  C7,FA8
0E3BE:  BCF    FA6.6
0E3C0:  BCF    FA6.7
0E3C2:  BSF    FA6.2
0E3C4:  MOVF   FF2,W
0E3C6:  MOVWF  00
0E3C8:  BCF    FF2.6
0E3CA:  BCF    FF2.7
0E3CC:  MOVLB  F
0E3CE:  MOVLW  55
0E3D0:  MOVWF  FA7
0E3D2:  MOVLW  AA
0E3D4:  MOVWF  FA7
0E3D6:  BSF    FA6.1
0E3D8:  BTFSC  FA6.1
0E3DA:  BRA    E3D8
0E3DC:  BCF    FA6.2
0E3DE:  MOVF   00,W
0E3E0:  IORWF  FF2,F
....................                delay_ms(10); 
0E3E2:  MOVLW  0A
0E3E4:  MOVLB  7
0E3E6:  MOVWF  xC0
0E3E8:  MOVLB  0
0E3EA:  CALL   1E8C
....................                GuardaEEPROM=ON; 
0E3EE:  BSF    xA2.6
....................             } 
....................             printf("page MenuPrincipal"); 
0E3F0:  MOVLW  00
0E3F2:  MOVWF  FF6
0E3F4:  MOVLW  1E
0E3F6:  MOVWF  FF7
0E3F8:  MOVLW  00
0E3FA:  MOVWF  FF8
0E3FC:  CALL   3DF4
....................             SendDataDisplay(); 
0E400:  CALL   3E26
0E404:  MOVLB  3
....................             //BorraBuffer(); 
....................          } 
....................       } 
....................       printf("fecha.txt=\"T:%2.1fC Fecha:%02u/%02u/20%02u Hora:%02u:%02u:%02u\"",Temperatura,Dia,Mes,Year,Hora,Minuto,Segundo); 
0E406:  MOVLW  14
0E408:  MOVWF  FF6
0E40A:  MOVLW  1E
0E40C:  MOVWF  FF7
0E40E:  MOVLW  00
0E410:  MOVWF  FF8
0E412:  MOVLW  0D
0E414:  MOVLB  7
0E416:  MOVWF  xB5
0E418:  MOVLB  0
0E41A:  CALL   556C
0E41E:  MOVLW  01
0E420:  MOVWF  FE9
0E422:  MOVFF  314,7B8
0E426:  MOVFF  313,7B7
0E42A:  MOVFF  312,7B6
0E42E:  MOVFF  311,7B5
0E432:  MOVLB  7
0E434:  MOVWF  xB9
0E436:  MOVLB  0
0E438:  CALL   5688
0E43C:  MOVLW  26
0E43E:  MOVWF  FF6
0E440:  MOVLW  1E
0E442:  MOVWF  FF7
0E444:  MOVLW  00
0E446:  MOVWF  FF8
0E448:  MOVLW  09
0E44A:  MOVLB  7
0E44C:  MOVWF  xB5
0E44E:  MOVLB  0
0E450:  CALL   556C
0E454:  MOVFF  37D,7B5
0E458:  MOVLW  01
0E45A:  MOVLB  7
0E45C:  MOVWF  xB6
0E45E:  MOVLB  0
0E460:  CALL   5858
0E464:  MOVLW  2F
0E466:  BTFSS  F9E.4
0E468:  BRA    E466
0E46A:  MOVWF  FAD
0E46C:  MOVFF  37C,7B5
0E470:  MOVLW  01
0E472:  MOVLB  7
0E474:  MOVWF  xB6
0E476:  MOVLB  0
0E478:  CALL   5858
0E47C:  MOVLW  2F
0E47E:  BTFSS  F9E.4
0E480:  BRA    E47E
0E482:  MOVWF  FAD
0E484:  MOVLW  32
0E486:  BTFSS  F9E.4
0E488:  BRA    E486
0E48A:  MOVWF  FAD
0E48C:  MOVLW  30
0E48E:  BTFSS  F9E.4
0E490:  BRA    E48E
0E492:  MOVWF  FAD
0E494:  MOVFF  37B,7B5
0E498:  MOVLW  01
0E49A:  MOVLB  7
0E49C:  MOVWF  xB6
0E49E:  MOVLB  0
0E4A0:  CALL   5858
0E4A4:  MOVLW  3F
0E4A6:  MOVWF  FF6
0E4A8:  MOVLW  1E
0E4AA:  MOVWF  FF7
0E4AC:  MOVLW  00
0E4AE:  MOVWF  FF8
0E4B0:  MOVLW  06
0E4B2:  MOVLB  7
0E4B4:  MOVWF  xB5
0E4B6:  MOVLB  0
0E4B8:  CALL   556C
0E4BC:  MOVFF  37E,7B5
0E4C0:  MOVLW  01
0E4C2:  MOVLB  7
0E4C4:  MOVWF  xB6
0E4C6:  MOVLB  0
0E4C8:  CALL   5858
0E4CC:  MOVLW  3A
0E4CE:  BTFSS  F9E.4
0E4D0:  BRA    E4CE
0E4D2:  MOVWF  FAD
0E4D4:  MOVFF  37F,7B5
0E4D8:  MOVLW  01
0E4DA:  MOVLB  7
0E4DC:  MOVWF  xB6
0E4DE:  MOVLB  0
0E4E0:  CALL   5858
0E4E4:  MOVLW  3A
0E4E6:  BTFSS  F9E.4
0E4E8:  BRA    E4E6
0E4EA:  MOVWF  FAD
0E4EC:  MOVFF  380,7B5
0E4F0:  MOVLW  01
0E4F2:  MOVLB  7
0E4F4:  MOVWF  xB6
0E4F6:  MOVLB  0
0E4F8:  CALL   5858
0E4FC:  MOVLW  22
0E4FE:  BTFSS  F9E.4
0E500:  BRA    E4FE
0E502:  MOVWF  FAD
....................       SendDataDisplay();  
0E504:  CALL   3E26
....................     } 
.................... //_--------------------------------------------------------------------------------------------------------------------------------------------------------        
....................    } 
0E508:  MOVLB  0
0E50A:  GOTO   7ED4
.................... } 
0E50E:  SLEEP 

Configuration Fuses:
   Word  1: 0200   HS NOIESO NOFCMEN
   Word  2: 1B1F   BROWNOUT WDT BORV20 NOPUT WDT8192
   Word  3: 0000   NOPBADEN NOLPT1OSC NOMCLR
   Word  4: 00B0   NOSTVREN NODEBUG NOLVP NOXINST BBSIZ4K
   Word  5: C03F   NOPROTECT NOCPD NOCPB
   Word  6: E03F   NOWRT NOWRTD NOWRTC NOWRTB
   Word  7: 403F   NOEBTR NOEBTRB
