CCS PCH C Compiler, Version 4.104, 5967               19-abr.-21 08:07

               Filename: D:\Laboratorio\Autoclave\Autoclave Horizontal\Con Precamara\2021\Autoclave 85L Instituo Oftalmologico Salamanca OP202160 #004588569\FirmwareV3.0.1-Pulsos-Alarmas-NivelVacio\NextionController\GLCD_Controller.lst

               ROM used: 63984 bytes (65%)
                         Largest free fragment is 32768
               RAM used: 1752 (53%) at main() level
                         1779 (53%) worst case
               Stack:    5 worst case (4 in main + 1 for interrupts)

*
00000:  GOTO   7AC8
*
00008:  GOTO   00AE
0000C:  NOP   
0000E:  NOP   
00010:  NOP   
00012:  NOP   
00014:  NOP   
00016:  NOP   
00018:  MOVWF  04
0001A:  MOVFF  FD8,05
0001E:  MOVFF  FE0,06
00022:  MOVLB  0
00024:  MOVFF  FE9,0C
00028:  MOVFF  FEA,07
0002C:  MOVFF  FE1,08
00030:  MOVFF  FE2,09
00034:  MOVFF  FD9,0A
00038:  MOVFF  FDA,0B
0003C:  MOVFF  FF3,12
00040:  MOVFF  FF4,13
00044:  MOVFF  FFA,14
00048:  MOVFF  FFB,15
0004C:  MOVFF  00,0E
00050:  MOVFF  01,0F
00054:  MOVFF  02,10
00058:  MOVFF  03,11
0005C:  BTFSS  F9D.0
0005E:  GOTO   0068
00062:  BTFSC  F9E.0
00064:  GOTO   05CC
00068:  MOVFF  0E,00
0006C:  MOVFF  0F,01
00070:  MOVFF  10,02
00074:  MOVFF  11,03
00078:  MOVFF  0C,FE9
0007C:  MOVFF  07,FEA
00080:  BSF    07.7
00082:  MOVFF  08,FE1
00086:  MOVFF  09,FE2
0008A:  MOVFF  0A,FD9
0008E:  MOVFF  0B,FDA
00092:  MOVFF  12,FF3
00096:  MOVFF  13,FF4
0009A:  MOVFF  14,FFA
0009E:  MOVFF  15,FFB
000A2:  MOVF   04,W
000A4:  MOVFF  06,FE0
000A8:  MOVFF  05,FD8
000AC:  RETFIE 0
000AE:  MOVWF  17
000B0:  MOVFF  FD8,18
000B4:  MOVFF  FE0,19
000B8:  MOVLB  0
000BA:  MOVFF  FE9,1F
000BE:  MOVFF  FEA,1A
000C2:  MOVFF  FE1,1B
000C6:  MOVFF  FE2,1C
000CA:  MOVFF  FD9,1D
000CE:  MOVFF  FDA,1E
000D2:  MOVFF  FF3,25
000D6:  MOVFF  FF4,26
000DA:  MOVFF  FFA,27
000DE:  MOVFF  FFB,28
000E2:  MOVFF  00,21
000E6:  MOVFF  01,22
000EA:  MOVFF  02,23
000EE:  MOVFF  03,24
000F2:  BTFSS  F9D.5
000F4:  GOTO   00FE
000F8:  BTFSC  F9E.5
000FA:  GOTO   0568
000FE:  MOVFF  21,00
00102:  MOVFF  22,01
00106:  MOVFF  23,02
0010A:  MOVFF  24,03
0010E:  MOVFF  1F,FE9
00112:  MOVFF  1A,FEA
00116:  BSF    1A.7
00118:  MOVFF  1B,FE1
0011C:  MOVFF  1C,FE2
00120:  MOVFF  1D,FD9
00124:  MOVFF  1E,FDA
00128:  MOVFF  25,FF3
0012C:  MOVFF  26,FF4
00130:  MOVFF  27,FFA
00134:  MOVFF  28,FFB
00138:  MOVF   17,W
0013A:  MOVFF  19,FE0
0013E:  MOVFF  18,FD8
00142:  RETFIE 0
.................... //Falta crear menu de ajuste de variables y de norma CFR21 
.................... //Falta revisar niveles de agua con variable calderin lleno de bomba de agua 
....................  
.................... #include <18F4685.h> 
.................... //////// Standard Header file for the PIC18F4685 device //////////////// 
.................... #device PIC18F4685 
.................... #list 
....................  
.................... #device adc=10 
.................... #device HIGH_INTS=TRUE //Activamos niveles de prioridad 
.................... #fuses HS,WDT8192,NOPROTECT,NOLVP,NODEBUG,NOSTVREN,NOPUT,NOCPD,NOWRT,NOIESO,NOFCMEN,NOPBADEN,NOWRTC,NOWRTB,NOEBTR,NOEBTRB,NOCPB,NOXINST,NOLPT1OSC,NOMCLR,NOBROWNOUT 
.................... #use delay(clock=20000000) 
*
021DE:  MOVLW  06
021E0:  MOVWF  FEA
021E2:  MOVLW  E1
021E4:  MOVWF  FE9
021E6:  MOVF   FEF,W
021E8:  BZ    2204
021EA:  MOVLW  06
021EC:  MOVWF  01
021EE:  CLRF   00
021F0:  DECFSZ 00,F
021F2:  BRA    21F0
021F4:  DECFSZ 01,F
021F6:  BRA    21EE
021F8:  MOVLW  7B
021FA:  MOVWF  00
021FC:  DECFSZ 00,F
021FE:  BRA    21FC
02200:  DECFSZ FEF,F
02202:  BRA    21EA
02204:  RETLW  00
.................... #use i2c(Master,slow,sda=PIN_C4,scl=PIN_C3) 
.................... #use rs232(baud=9600, xmit=PIN_C6, rcv=PIN_C7, bits=8, parity=N) 
*
04426:  BTFSS  F9E.4
04428:  BRA    4426
0442A:  MOVWF  FAD
0442C:  RETLW  00
.................... #include <stdio.h> 
.................... /////////////////////////////////////////////////////////////////////////// 
.................... ////        (C) Copyright 1996,2003 Custom Computer Services           //// 
.................... //// This source code may only be used by licensed users of the CCS C  //// 
.................... //// compiler.  This source code may only be distributed to other      //// 
.................... //// licensed users of the CCS C compiler.  No other use, reproduction //// 
.................... //// or distribution is permitted without written permission.          //// 
.................... //// Derivative programs created using this software in object code    //// 
.................... //// form are not restricted in any way.                               //// 
.................... /////////////////////////////////////////////////////////////////////////// 
....................  
.................... #ifndef _STDIO 
.................... #define _STDIO 
.................... #include <string.h> 
.................... //////////////////////////////////////////////////////////////////////////// 
.................... ////        (C) Copyright 1996,2008 Custom Computer Services            //// 
.................... //// This source code may only be used by licensed users of the CCS C   //// 
.................... //// compiler.  This source code may only be distributed to other       //// 
.................... //// licensed users of the CCS C compiler.  No other use, reproduction  //// 
.................... //// or distribution is permitted without written permission.           //// 
.................... //// Derivative programs created using this software in object code     //// 
.................... //// form are not restricted in any way.                                //// 
.................... //////////////////////////////////////////////////////////////////////////// 
....................  
.................... #ifndef _STRING 
.................... #define _STRING 
.................... #include <stddef.h> 
.................... /////////////////////////////////////////////////////////////////////////// 
.................... ////        (C) Copyright 1996,2003 Custom Computer Services           //// 
.................... //// This source code may only be used by licensed users of the CCS C  //// 
.................... //// compiler.  This source code may only be distributed to other      //// 
.................... //// licensed users of the CCS C compiler.  No other use, reproduction //// 
.................... //// or distribution is permitted without written permission.          //// 
.................... //// Derivative programs created using this software in object code    //// 
.................... //// form are not restricted in any way.                               //// 
.................... /////////////////////////////////////////////////////////////////////////// 
....................  
.................... #ifndef _STDDEF 
....................  
.................... #define _STDDEF 
....................  
.................... #if sizeof(unsigned int8 *)==1 
.................... #define ptrdiff_t unsigned int8 
.................... #else 
.................... #define ptrdiff_t unsigned int16 
.................... #endif 
....................  
.................... #define size_t unsigned int8 
.................... #define wchar_t char 
.................... #define NULL 0 
....................  
.................... #define offsetof(s,f) (offsetofbit(s,f)/8) 
....................  
.................... #endif 
....................  
.................... #include <ctype.h> 
.................... //////////////////////////////////////////////////////////////////////////// 
.................... ////        (C) Copyright 1996,2003 Custom Computer Services            //// 
.................... //// This source code may only be used by licensed users of the CCS C   //// 
.................... //// compiler.  This source code may only be distributed to other       //// 
.................... //// licensed users of the CCS C compiler.  No other use, reproduction  //// 
.................... //// or distribution is permitted without written permission.           //// 
.................... //// Derivative programs created using this software in object code     //// 
.................... //// form are not restricted in any way.                                //// 
.................... //////////////////////////////////////////////////////////////////////////// 
....................  
.................... #ifndef _CTYPE 
.................... #define _CTYPE 
....................  
.................... #define islower(x)  isamong(x,"abcdefghijklmnopqrstuvwxyz") 
.................... #define isupper(x)  isamong(x,"ABCDEFGHIJKLMNOPQRSTUVWXYZ") 
.................... #define isalnum(x)  isamong(x,"0123456789ABCDEFGHIJKLMNOPQRSTUVWXYZabcdefghijklmnopqrstuvwxyz") 
.................... #define isalpha(x)  isamong(x,"ABCDEFGHIJKLMNOPQRSTUVWXYZabcdefghijklmnopqrstuvwxyz") 
.................... #define isdigit(x)  isamong(x,"0123456789") 
.................... #define isspace(x)  ((x)==' ') 
.................... #define isxdigit(x) isamong(x,"0123456789ABCDEFabcdef") 
.................... #define iscntrl(x)  ((x)<' ') 
.................... #define isprint(x)  ((x)>=' ') 
.................... #define isgraph(x)  ((x)>' ') 
.................... #define ispunct(x)  (((x)>' ')&&!isalnum(x)) 
....................  
.................... #endif 
....................  
....................  
....................  
....................  
....................  
.................... ////////////////////////////////////////////// 
.................... //// Uncomment the following define to    //// 
.................... //// allow some functions to use a        //// 
.................... //// quicker algorithm, but use more ROM  //// 
.................... ////                                      //// 
.................... //// #define FASTER_BUT_MORE_ROM          //// 
.................... ////////////////////////////////////////////// 
....................  
....................  
....................  
.................... /*Copying functions*/ 
.................... /* standard template: 
....................    void *memmove(void *s1, void *s2, size_t n). 
....................    Copies max of n characters safely (not following ending '\0') 
....................    from s2 in s1; if s2 has less than n characters, appends 0 */ 
....................  
.................... char *memmove(void *s1,char *s2,size_t n) 
.................... { 
....................    char *sc1; 
....................    char *sc2; 
....................    sc1=s1; 
....................    sc2=s2; 
....................    if(sc2<sc1 && sc1 <sc2 +n) 
....................       for(sc1+=n,sc2+=n;0<n;--n) 
....................          *--sc1=*--sc2; 
....................    else 
....................       for(;0<n;--n) 
....................          *sc1++=*sc2++; 
....................   return s1; 
....................   } 
....................  
.................... /* Standard template: char *strcpy(char *s1, const char *s2) 
....................    copies the string s2 including the null character to s1. 
....................    This is a compiler built in to handle the different address 
....................    spaces */ 
....................  
.................... #define strcopy strcpy 
....................  
.................... /* standard template: 
....................    char *strncpy(char *s1, const char *s2, size_t n). 
....................    Copies max of n characters (not following ending '\0') 
....................    from s2 in s1; if s2 has less than n characters, appends 0 */ 
....................  
.................... char *strncpy(char *s1, char *s2, size_t n) 
.................... { 
....................   char *s; 
....................  
....................   for (s = s1; n > 0 && *s2 != '\0'; n--) 
....................      *s++ = *s2++; 
....................   for (; n > 0; n--) 
....................      *s++ = '\0'; 
....................  
....................   return(s1); 
.................... } 
.................... /***********************************************************/ 
....................  
.................... /*concatenation functions*/ 
.................... /* standard template: char *strcat(char *s1, const char *s2) 
.................... appends s2 to s1*/ 
....................  
.................... char *strcat(char *s1, char *s2) 
.................... { 
....................    char *s; 
....................  
....................    for (s = s1; *s != '\0'; ++s); 
....................    while(*s2 != '\0') 
....................    { 
....................       *s = *s2; 
....................       ++s; 
....................       ++s2; 
....................    } 
....................  
....................    *s = '\0'; 
....................    return(s1); 
.................... } 
.................... /* standard template: char *strncat(char *s1, char *s2,size_t n) 
.................... appends not more than n characters from s2 to s1*/ 
....................  
.................... char *strncat(char *s1, char *s2, size_t n) 
.................... { 
....................    char *s; 
....................  
....................    for (s = s1; *s != '\0'; ++s); 
....................    while(*s2 != '\0' && 0<n) 
....................    { 
....................       *s = *s2; 
....................       ++s; 
....................       ++s2; 
....................       --n; 
....................    } 
....................  
....................    *s = '\0'; 
....................    return(s1); 
.................... } 
....................  
.................... /***********************************************************/ 
....................  
....................  
.................... /*comparison functions*/ 
.................... /* standard template: signed int memcmp(void *s1, void *s2). 
....................    Compares s1 & s2; returns -1 if s1<s2, 0 if s1=s2, 1 if s1>s2 */ 
....................  
.................... signed int8 memcmp(void * s1,char *s2,size_t n) 
.................... { 
.................... char *su1, *su2; 
.................... for(su1=s1, su2=s2; 0<n; ++su1, ++su2, --n) 
.................... { 
....................    if(*su1!=*su2) 
....................       return ((*su1<*su2)?-1:+1); 
.................... } 
.................... return 0; 
.................... } 
....................  
.................... /* standard template: int strcmp(const char *s1, const char *s2). 
....................    Compares s1 & s2; returns -1 if s1<s2, 0 if s1=s2, 1 if s1>s2 */ 
....................  
.................... signed int8 strcmp(char *s1, char *s2) 
.................... { 
....................    for (; *s1 == *s2; s1++, s2++) 
....................       if (*s1 == '\0') 
....................          return(0); 
....................    return((*s1 < *s2) ? -1: 1); 
.................... } 
.................... /* standard template: int strcoll(const char *s1, const char *s2). 
....................    Compares s1 & s2; returns -1 if s1<s2, 0 if s1=s2, 1 if s1>s2 */ 
....................  
.................... signed int8 strcoll(char *s1, char *s2) 
.................... { 
....................    for (; *s1 == *s2; s1++, s2++) 
....................       if (*s1 == '\0') 
....................          return(0); 
....................    return((*s1 < *s2) ? -1: 1); 
.................... } 
....................  
.................... /* standard template: 
....................    int strncmp(const char *s1, const char *s2, size_t n). 
....................    Compares max of n characters (not following 0) from s1 to s2; 
....................    returns same as strcmp */ 
....................  
.................... signed int8 strncmp(char *s1, char *s2, size_t n) 
.................... { 
....................    for (; n > 0; s1++, s2++, n--) 
....................       if (*s1 != *s2) 
....................          return((*s1 <*s2) ? -1: 1); 
....................       else if (*s1 == '\0') 
....................          return(0); 
....................    return(0); 
.................... } 
.................... /* standard template: 
....................    int strxfrm(const char *s1, const char *s2, size_t n). 
....................    transforms maximum of n characters from s2 and places them into s1*/ 
.................... size_t strxfrm(char *s1, char *s2, size_t n) 
.................... { 
....................   char *s; 
....................   unsigned int8 n1; 
....................   n1=n; 
....................   for (s = s1; n > 0 && *s2 != '\0'; n--) 
....................      *s++ = *s2++; 
....................   for (; n > 0; n--) 
....................      *s++ = '\0'; 
....................  
....................   return(n1); 
.................... } 
....................  
....................  
....................  
....................  
....................  
.................... /***********************************************************/ 
.................... /*Search functions*/ 
.................... /* standard template: void *memchr(const char *s, int c). 
....................    Finds first occurrence of c in n characters of s */ 
....................  
.................... char *memchr(void *s,unsigned int8 c,size_t n) 
.................... { 
....................    char uc; 
....................    char *su; 
....................    uc=c; 
....................    for(su=s;0<n;++su,--n) 
....................       if(*su==uc) 
....................       return su; 
....................    return NULL; 
.................... } 
....................  
.................... /* standard template: char *strchr(const char *s, int c). 
....................    Finds first occurrence of c in s */ 
....................  
.................... char *strchr(char *s, unsigned int8 c) 
.................... { 
....................    for (; *s != c; s++) 
....................       if (*s == '\0') 
....................          return(0); 
....................    return(s); 
.................... } 
.................... /* standard template: 
....................    size_t strcspn(const char *s1, const char *s2). 
....................    Computes length of max initial segment of s1 that 
....................    consists entirely of characters NOT from s2*/ 
....................  
.................... unsigned int8  strcspn(char *s1, char *s2) 
.................... { 
....................    char *sc1, *sc2; 
....................  
....................    for (sc1 = s1; *sc1 != 0; sc1++) 
....................       for (sc2 = s2; *sc2 != 0; sc2++) 
....................          if (*sc1 == *sc2) 
....................             return(sc1 - s1); 
....................    return(sc1 - s1); 
.................... } 
.................... /* standard template: 
....................    char *strpbrk(const char *s1, const char *s2). 
....................    Locates first occurence of any character from s2 in s1; 
....................    returns s1 if s2 is empty string */ 
....................  
.................... char *strpbrk(char *s1, char *s2) 
.................... { 
....................    char *sc1, *sc2; 
....................  
....................    for (sc1 = s1; *sc1 != 0; sc1++) 
....................       for (sc2 = s2; *sc2 != 0; sc2++) 
....................          if (*sc1 == *sc2) 
....................             return(sc1); 
....................    return(0); 
.................... } 
....................  
....................  
.................... /* standard template: char *strrchr(const char *s, int c). 
....................    Finds last occurrence of c in s */ 
....................  
.................... char *strrchr(char *s, unsigned int8 c) 
.................... { 
....................    char *p; 
....................  
....................    for (p = 0; ; s++) 
....................    { 
....................       if (*s == c) 
....................          p = s; 
....................       if (*s == '\0') 
....................          return(p); 
....................    } 
.................... } 
.................... /* computes length of max initial segment of s1 consisting 
....................    entirely of characters from s2 */ 
....................  
.................... unsigned int8  strspn(char *s1, char *s2) 
.................... { 
....................    char *sc1, *sc2; 
....................  
....................    for (sc1 = s1; *sc1 != 0; sc1++) 
....................       for (sc2 = s2; ; sc2++) 
....................     if (*sc2 == '\0') 
....................        return(sc1 - s1); 
....................          else if (*sc1 == *sc2) 
....................             break; 
....................    return(sc1 - s1); 
.................... } 
.................... /* standard template: 
....................    char *strstr(const char *s1, const char *s2); 
....................    Locates first occurence of character sequence s2 in s1; 
....................    returns 0 if s2 is empty string 
....................  
....................    Uncomment #define FASTER_BUT_MORE_ROM at the top of the 
....................    file to use the faster algorithm */ 
.................... char *strstr(char *s1, char *s2) 
.................... { 
....................    char *s, *t; 
....................  
....................    #ifdef FASTER_BUT_MORE_ROM 
....................    if (*s2 == '\0') 
....................          return(s1); 
....................    #endif 
....................  
....................    while (*s1) 
....................    { 
....................       for(s = s1, t = s2; *t && (*s == *t); ++s, ++t); 
....................  
....................       if (*t == '\0') 
....................          return s1; 
....................       ++s1; 
....................       #ifdef FASTER_BUT_MORE_ROM 
....................          while(*s1 != '\0' && *s1 != *s2) 
....................             ++s1; 
....................       #endif 
....................    } 
....................    return 0; 
.................... } 
....................  
.................... /* standard template: char *strtok(char *s1, const char *s2). 
....................  
....................    Finds next token in s1 delimited by a character from separator 
....................    string s2 (which can be different from call to call).  First call 
....................    starts at beginning of s1 searching for first character NOT 
....................    contained in s2; returns 0 if none is found. 
....................    If one is found, it is the start of first token (return value). 
....................    Function then searches from there for a character contained in s2. 
....................    If none is found, current token extends to end of s1, and subsequent 
....................    searches for a token will return 0.  If one is found, it is 
....................    overwritten by '\0', which terminates current token.  Function saves 
....................    pointer to following character from which next search will start. 
....................    Each subsequent call, with 0 as first argument, starts searching 
....................    from saved pointer */ 
....................  
.................... char *strtok(char *s1, char *s2) 
.................... { 
....................    char *beg, *end; 
....................    static char *save; 
....................  
....................    beg = (s1)? s1: save; 
....................    beg += strspn(beg, s2); 
....................    if (*beg == '\0') 
....................    { 
....................       *save = ' '; 
....................       return(0); 
....................    } 
....................    end = strpbrk(beg, s2); 
....................    if (*end != '\0') 
....................    { 
....................       *end = '\0'; 
....................       end++; 
....................    } 
....................    save = end; 
....................    return(beg); 
.................... } 
....................  
.................... /*****************************************************************/ 
.................... /*Miscellaneous functions*/ 
.................... /* standard template 
.................... maps error number in errnum to an error message string 
.................... Returns: Pointer to string 
.................... */ 
.................... #ifdef _ERRNO 
.................... char * strerror(unsigned int8 errnum) 
.................... { 
.................... char s[15]; 
.................... switch( errnum) 
.................... { 
.................... case 0: 
....................    strcpy(s,"no errors"); 
....................    return s; 
.................... case EDOM : 
....................    strcpy(s,"domain error"); 
....................    return s; 
.................... case ERANGE: 
....................    strcpy(s,"range error"); 
....................    return s; 
.................... } 
.................... } 
.................... #ENDIF 
.................... /* standard template: size_t strlen(const char *s). 
....................    Computes length of s1 (preceding terminating 0) */ 
....................  
.................... unsigned int8 strlen(char *s) 
.................... { 
....................    char *sc; 
....................  
....................    for (sc = s; *sc != 0; sc++); 
....................    return(sc - s); 
.................... } 
....................  
.................... /* standard template: size_t stricmp(const char *s1, const char *s2). 
....................    Compares s1 to s2 ignoring case (upper vs. lower) */ 
....................  
.................... signed int8 stricmp(char *s1, char *s2) 
.................... { 
....................  for(; *s1==*s2||(isalpha(*s1)&&isalpha(*s2)&&(*s1==*s2+32||*s2==*s1+32)); 
....................     s1++, s2++) 
....................     if (*s1 == '\0') 
....................        return(0); 
....................  return((*s1 < *s2) ? -1: 1); 
.................... } 
....................  
....................  
.................... /* standard template: char *strlwr(char *s). 
....................    Replaces uppercase letters by lowercase; 
....................    returns pointer to new string s */ 
....................  
.................... char *strlwr(char *s) 
.................... { 
....................    char *p; 
....................  
....................    for (p = s; *p != '\0'; p++) 
....................       if (*p >= 'A' && *p <='Z') 
....................          *p += 'a' - 'A'; 
....................    return(s); 
.................... } 
....................  
....................  
.................... /************************************************************/ 
....................  
....................  
.................... #endif 
....................  
.................... #ifndef getc 
.................... #define getc getch 
.................... #define getchar getch 
.................... #define puts(s) {printf(s); putchar(13); putchar(10);} 
.................... #define putc putchar 
.................... #endif 
.................... /* maps error number to an error message. Writes a sequence of characters to 
.................... stderr stream thus: if s is not null then string pointed to by s follwed by 
.................... a colon (:) and a space and the appropriate error message returned by strerror 
.................... function with argument errno 
....................  
.................... Returns: no value 
.................... */ 
....................  
.................... #ifdef _ERRNO 
.................... void perror(char *s) 
.................... { 
....................   if(s) 
....................   fprintf(STDERR,"%s: ",s); 
....................   fprintf(STDERR,"%s\r\n",strerror(errno)); 
.................... } 
.................... #endif 
.................... #endif 
....................  
.................... #include <string.h> 
.................... //////////////////////////////////////////////////////////////////////////// 
.................... ////        (C) Copyright 1996,2008 Custom Computer Services            //// 
.................... //// This source code may only be used by licensed users of the CCS C   //// 
.................... //// compiler.  This source code may only be distributed to other       //// 
.................... //// licensed users of the CCS C compiler.  No other use, reproduction  //// 
.................... //// or distribution is permitted without written permission.           //// 
.................... //// Derivative programs created using this software in object code     //// 
.................... //// form are not restricted in any way.                                //// 
.................... //////////////////////////////////////////////////////////////////////////// 
....................  
.................... #ifndef _STRING 
.................... #define _STRING 
.................... #include <stddef.h> 
.................... #include <ctype.h> 
....................  
....................  
....................  
.................... ////////////////////////////////////////////// 
.................... //// Uncomment the following define to    //// 
.................... //// allow some functions to use a        //// 
.................... //// quicker algorithm, but use more ROM  //// 
.................... ////                                      //// 
.................... //// #define FASTER_BUT_MORE_ROM          //// 
.................... ////////////////////////////////////////////// 
....................  
....................  
....................  
.................... /*Copying functions*/ 
.................... /* standard template: 
....................    void *memmove(void *s1, void *s2, size_t n). 
....................    Copies max of n characters safely (not following ending '\0') 
....................    from s2 in s1; if s2 has less than n characters, appends 0 */ 
....................  
.................... char *memmove(void *s1,char *s2,size_t n) 
.................... { 
....................    char *sc1; 
....................    char *sc2; 
....................    sc1=s1; 
....................    sc2=s2; 
....................    if(sc2<sc1 && sc1 <sc2 +n) 
....................       for(sc1+=n,sc2+=n;0<n;--n) 
....................          *--sc1=*--sc2; 
....................    else 
....................       for(;0<n;--n) 
....................          *sc1++=*sc2++; 
....................   return s1; 
....................   } 
....................  
.................... /* Standard template: char *strcpy(char *s1, const char *s2) 
....................    copies the string s2 including the null character to s1. 
....................    This is a compiler built in to handle the different address 
....................    spaces */ 
....................  
.................... #define strcopy strcpy 
....................  
.................... /* standard template: 
....................    char *strncpy(char *s1, const char *s2, size_t n). 
....................    Copies max of n characters (not following ending '\0') 
....................    from s2 in s1; if s2 has less than n characters, appends 0 */ 
....................  
.................... char *strncpy(char *s1, char *s2, size_t n) 
.................... { 
....................   char *s; 
....................  
....................   for (s = s1; n > 0 && *s2 != '\0'; n--) 
....................      *s++ = *s2++; 
....................   for (; n > 0; n--) 
....................      *s++ = '\0'; 
....................  
....................   return(s1); 
.................... } 
.................... /***********************************************************/ 
....................  
.................... /*concatenation functions*/ 
.................... /* standard template: char *strcat(char *s1, const char *s2) 
.................... appends s2 to s1*/ 
....................  
.................... char *strcat(char *s1, char *s2) 
.................... { 
....................    char *s; 
....................  
....................    for (s = s1; *s != '\0'; ++s); 
....................    while(*s2 != '\0') 
....................    { 
....................       *s = *s2; 
....................       ++s; 
....................       ++s2; 
....................    } 
....................  
....................    *s = '\0'; 
....................    return(s1); 
.................... } 
.................... /* standard template: char *strncat(char *s1, char *s2,size_t n) 
.................... appends not more than n characters from s2 to s1*/ 
....................  
.................... char *strncat(char *s1, char *s2, size_t n) 
.................... { 
....................    char *s; 
....................  
....................    for (s = s1; *s != '\0'; ++s); 
....................    while(*s2 != '\0' && 0<n) 
....................    { 
....................       *s = *s2; 
....................       ++s; 
....................       ++s2; 
....................       --n; 
....................    } 
....................  
....................    *s = '\0'; 
....................    return(s1); 
.................... } 
....................  
.................... /***********************************************************/ 
....................  
....................  
.................... /*comparison functions*/ 
.................... /* standard template: signed int memcmp(void *s1, void *s2). 
....................    Compares s1 & s2; returns -1 if s1<s2, 0 if s1=s2, 1 if s1>s2 */ 
....................  
.................... signed int8 memcmp(void * s1,char *s2,size_t n) 
.................... { 
.................... char *su1, *su2; 
.................... for(su1=s1, su2=s2; 0<n; ++su1, ++su2, --n) 
.................... { 
....................    if(*su1!=*su2) 
....................       return ((*su1<*su2)?-1:+1); 
.................... } 
.................... return 0; 
.................... } 
....................  
.................... /* standard template: int strcmp(const char *s1, const char *s2). 
....................    Compares s1 & s2; returns -1 if s1<s2, 0 if s1=s2, 1 if s1>s2 */ 
....................  
.................... signed int8 strcmp(char *s1, char *s2) 
.................... { 
....................    for (; *s1 == *s2; s1++, s2++) 
....................       if (*s1 == '\0') 
....................          return(0); 
....................    return((*s1 < *s2) ? -1: 1); 
.................... } 
.................... /* standard template: int strcoll(const char *s1, const char *s2). 
....................    Compares s1 & s2; returns -1 if s1<s2, 0 if s1=s2, 1 if s1>s2 */ 
....................  
.................... signed int8 strcoll(char *s1, char *s2) 
.................... { 
....................    for (; *s1 == *s2; s1++, s2++) 
....................       if (*s1 == '\0') 
....................          return(0); 
....................    return((*s1 < *s2) ? -1: 1); 
.................... } 
....................  
.................... /* standard template: 
....................    int strncmp(const char *s1, const char *s2, size_t n). 
....................    Compares max of n characters (not following 0) from s1 to s2; 
....................    returns same as strcmp */ 
....................  
.................... signed int8 strncmp(char *s1, char *s2, size_t n) 
.................... { 
....................    for (; n > 0; s1++, s2++, n--) 
....................       if (*s1 != *s2) 
....................          return((*s1 <*s2) ? -1: 1); 
....................       else if (*s1 == '\0') 
....................          return(0); 
....................    return(0); 
.................... } 
.................... /* standard template: 
....................    int strxfrm(const char *s1, const char *s2, size_t n). 
....................    transforms maximum of n characters from s2 and places them into s1*/ 
.................... size_t strxfrm(char *s1, char *s2, size_t n) 
.................... { 
....................   char *s; 
....................   unsigned int8 n1; 
....................   n1=n; 
....................   for (s = s1; n > 0 && *s2 != '\0'; n--) 
....................      *s++ = *s2++; 
....................   for (; n > 0; n--) 
....................      *s++ = '\0'; 
....................  
....................   return(n1); 
.................... } 
....................  
....................  
....................  
....................  
....................  
.................... /***********************************************************/ 
.................... /*Search functions*/ 
.................... /* standard template: void *memchr(const char *s, int c). 
....................    Finds first occurrence of c in n characters of s */ 
....................  
.................... char *memchr(void *s,unsigned int8 c,size_t n) 
.................... { 
....................    char uc; 
....................    char *su; 
....................    uc=c; 
....................    for(su=s;0<n;++su,--n) 
....................       if(*su==uc) 
....................       return su; 
....................    return NULL; 
.................... } 
....................  
.................... /* standard template: char *strchr(const char *s, int c). 
....................    Finds first occurrence of c in s */ 
....................  
.................... char *strchr(char *s, unsigned int8 c) 
.................... { 
....................    for (; *s != c; s++) 
....................       if (*s == '\0') 
....................          return(0); 
....................    return(s); 
.................... } 
.................... /* standard template: 
....................    size_t strcspn(const char *s1, const char *s2). 
....................    Computes length of max initial segment of s1 that 
....................    consists entirely of characters NOT from s2*/ 
....................  
.................... unsigned int8  strcspn(char *s1, char *s2) 
.................... { 
....................    char *sc1, *sc2; 
....................  
....................    for (sc1 = s1; *sc1 != 0; sc1++) 
....................       for (sc2 = s2; *sc2 != 0; sc2++) 
....................          if (*sc1 == *sc2) 
....................             return(sc1 - s1); 
....................    return(sc1 - s1); 
.................... } 
.................... /* standard template: 
....................    char *strpbrk(const char *s1, const char *s2). 
....................    Locates first occurence of any character from s2 in s1; 
....................    returns s1 if s2 is empty string */ 
....................  
.................... char *strpbrk(char *s1, char *s2) 
.................... { 
....................    char *sc1, *sc2; 
....................  
....................    for (sc1 = s1; *sc1 != 0; sc1++) 
....................       for (sc2 = s2; *sc2 != 0; sc2++) 
....................          if (*sc1 == *sc2) 
....................             return(sc1); 
....................    return(0); 
.................... } 
....................  
....................  
.................... /* standard template: char *strrchr(const char *s, int c). 
....................    Finds last occurrence of c in s */ 
....................  
.................... char *strrchr(char *s, unsigned int8 c) 
.................... { 
....................    char *p; 
....................  
....................    for (p = 0; ; s++) 
....................    { 
....................       if (*s == c) 
....................          p = s; 
....................       if (*s == '\0') 
....................          return(p); 
....................    } 
.................... } 
.................... /* computes length of max initial segment of s1 consisting 
....................    entirely of characters from s2 */ 
....................  
.................... unsigned int8  strspn(char *s1, char *s2) 
.................... { 
....................    char *sc1, *sc2; 
....................  
....................    for (sc1 = s1; *sc1 != 0; sc1++) 
....................       for (sc2 = s2; ; sc2++) 
....................     if (*sc2 == '\0') 
....................        return(sc1 - s1); 
....................          else if (*sc1 == *sc2) 
....................             break; 
....................    return(sc1 - s1); 
.................... } 
.................... /* standard template: 
....................    char *strstr(const char *s1, const char *s2); 
....................    Locates first occurence of character sequence s2 in s1; 
....................    returns 0 if s2 is empty string 
....................  
....................    Uncomment #define FASTER_BUT_MORE_ROM at the top of the 
....................    file to use the faster algorithm */ 
.................... char *strstr(char *s1, char *s2) 
.................... { 
....................    char *s, *t; 
....................  
....................    #ifdef FASTER_BUT_MORE_ROM 
....................    if (*s2 == '\0') 
....................          return(s1); 
....................    #endif 
....................  
....................    while (*s1) 
....................    { 
....................       for(s = s1, t = s2; *t && (*s == *t); ++s, ++t); 
....................  
....................       if (*t == '\0') 
....................          return s1; 
....................       ++s1; 
....................       #ifdef FASTER_BUT_MORE_ROM 
....................          while(*s1 != '\0' && *s1 != *s2) 
....................             ++s1; 
....................       #endif 
....................    } 
....................    return 0; 
.................... } 
....................  
.................... /* standard template: char *strtok(char *s1, const char *s2). 
....................  
....................    Finds next token in s1 delimited by a character from separator 
....................    string s2 (which can be different from call to call).  First call 
....................    starts at beginning of s1 searching for first character NOT 
....................    contained in s2; returns 0 if none is found. 
....................    If one is found, it is the start of first token (return value). 
....................    Function then searches from there for a character contained in s2. 
....................    If none is found, current token extends to end of s1, and subsequent 
....................    searches for a token will return 0.  If one is found, it is 
....................    overwritten by '\0', which terminates current token.  Function saves 
....................    pointer to following character from which next search will start. 
....................    Each subsequent call, with 0 as first argument, starts searching 
....................    from saved pointer */ 
....................  
.................... char *strtok(char *s1, char *s2) 
.................... { 
....................    char *beg, *end; 
....................    static char *save; 
....................  
....................    beg = (s1)? s1: save; 
....................    beg += strspn(beg, s2); 
....................    if (*beg == '\0') 
....................    { 
....................       *save = ' '; 
....................       return(0); 
....................    } 
....................    end = strpbrk(beg, s2); 
....................    if (*end != '\0') 
....................    { 
....................       *end = '\0'; 
....................       end++; 
....................    } 
....................    save = end; 
....................    return(beg); 
.................... } 
....................  
.................... /*****************************************************************/ 
.................... /*Miscellaneous functions*/ 
.................... /* standard template 
.................... maps error number in errnum to an error message string 
.................... Returns: Pointer to string 
.................... */ 
.................... #ifdef _ERRNO 
.................... char * strerror(unsigned int8 errnum) 
.................... { 
.................... char s[15]; 
.................... switch( errnum) 
.................... { 
.................... case 0: 
....................    strcpy(s,"no errors"); 
....................    return s; 
.................... case EDOM : 
....................    strcpy(s,"domain error"); 
....................    return s; 
.................... case ERANGE: 
....................    strcpy(s,"range error"); 
....................    return s; 
.................... } 
.................... } 
.................... #ENDIF 
.................... /* standard template: size_t strlen(const char *s). 
....................    Computes length of s1 (preceding terminating 0) */ 
....................  
.................... unsigned int8 strlen(char *s) 
.................... { 
....................    char *sc; 
....................  
....................    for (sc = s; *sc != 0; sc++); 
....................    return(sc - s); 
.................... } 
....................  
.................... /* standard template: size_t stricmp(const char *s1, const char *s2). 
....................    Compares s1 to s2 ignoring case (upper vs. lower) */ 
....................  
.................... signed int8 stricmp(char *s1, char *s2) 
.................... { 
....................  for(; *s1==*s2||(isalpha(*s1)&&isalpha(*s2)&&(*s1==*s2+32||*s2==*s1+32)); 
....................     s1++, s2++) 
....................     if (*s1 == '\0') 
....................        return(0); 
....................  return((*s1 < *s2) ? -1: 1); 
.................... } 
....................  
....................  
.................... /* standard template: char *strlwr(char *s). 
....................    Replaces uppercase letters by lowercase; 
....................    returns pointer to new string s */ 
....................  
.................... char *strlwr(char *s) 
.................... { 
....................    char *p; 
....................  
....................    for (p = s; *p != '\0'; p++) 
....................       if (*p >= 'A' && *p <='Z') 
....................          *p += 'a' - 'A'; 
....................    return(s); 
.................... } 
....................  
....................  
.................... /************************************************************/ 
....................  
....................  
.................... #endif 
....................  
.................... #include <stdlib.h> 
.................... /////////////////////////////////////////////////////////////////////////// 
.................... ////        (C) Copyright 1996,2007 Custom Computer Services           //// 
.................... //// This source code may only be used by licensed users of the CCS C  //// 
.................... //// compiler.  This source code may only be distributed to other      //// 
.................... //// licensed users of the CCS C compiler.  No other use, reproduction //// 
.................... //// or distribution is permitted without written permission.          //// 
.................... //// Derivative programs created using this software in object code    //// 
.................... //// form are not restricted in any way.                               //// 
.................... /////////////////////////////////////////////////////////////////////////// 
....................  
.................... #ifndef _STDLIB 
.................... #define _STDLIB 
....................  
.................... //--------------------------------------------------------------------------- 
.................... // Definitions and types 
.................... //--------------------------------------------------------------------------- 
....................  
.................... #ifndef RAND_MAX 
.................... #define RAND_MAX  32767    // The value of which is the maximum value 
....................                            // ... returned by the rand function 
.................... #endif 
....................  
....................  
.................... #IF (sizeof(int16*)>1) 
.................... #DEFINE LONG_POINTERS 1 
.................... #ELSE  
.................... #DEFINE LONG_POINTERS 0 
.................... #ENDIF 
....................  
.................... typedef struct { 
....................    signed int quot; 
....................    signed int rem; 
.................... } div_t; 
....................  
.................... typedef struct { 
....................    signed long quot; 
....................    signed long rem; 
.................... } ldiv_t; 
....................  
.................... #include <stddef.h> 
.................... /////////////////////////////////////////////////////////////////////////// 
.................... ////        (C) Copyright 1996,2003 Custom Computer Services           //// 
.................... //// This source code may only be used by licensed users of the CCS C  //// 
.................... //// compiler.  This source code may only be distributed to other      //// 
.................... //// licensed users of the CCS C compiler.  No other use, reproduction //// 
.................... //// or distribution is permitted without written permission.          //// 
.................... //// Derivative programs created using this software in object code    //// 
.................... //// form are not restricted in any way.                               //// 
.................... /////////////////////////////////////////////////////////////////////////// 
....................  
.................... #ifndef _STDDEF 
....................  
.................... #define _STDDEF 
....................  
.................... #if sizeof(unsigned int8 *)==1 
.................... #define ptrdiff_t unsigned int8 
.................... #else 
.................... #define ptrdiff_t unsigned int16 
.................... #endif 
....................  
.................... #define size_t unsigned int8 
.................... #define wchar_t char 
.................... #define NULL 0 
....................  
.................... #define offsetof(s,f) (offsetofbit(s,f)/8) 
....................  
.................... #endif 
....................  
....................  
.................... //--------------------------------------------------------------------------- 
.................... // String conversion functions 
.................... //--------------------------------------------------------------------------- 
....................  
.................... /* Standard template: signed int  atoi(char * s) 
....................  * converts the initial portion of the string s to a signed int 
....................  * returns the converted value if any, 0 otherwise 
....................  */ 
.................... signed int atoi(char *s); 
....................  
.................... /* Syntax: signed int32  atoi32(char * s) 
....................    converts the initial portion of the string s to a signed int32 
....................    returns the converted value if any, 0 otherwise*/ 
.................... #if (sizeof(long)==4) 
....................  #define atoi32(s) atol(s) 
.................... #else  
....................  signed int32 atoi32(char *s); 
.................... #endif 
....................  
.................... #if defined(__PCD__) 
.................... // The following functions only work on the 24 bit compiler 
.................... // for the 30F, 33F, 24F and 24H parts 
.................... /* Syntax: signed int48  atoi48(char * s) 
....................    converts the initial portion of the string s to a signed int48 
....................    returns the converted value if any, 0 otherwise*/ 
....................     
.................... signed int48 atoi48(char *s); 
....................  
.................... /* Syntax: signed int64  atoi64(char * s) 
....................    converts the initial portion of the string s to a signed int64 
....................    returns the converted value if any, 0 otherwise*/ 
.................... signed int64 atoi64(char *s); 
.................... #endif 
....................  
.................... /* Syntax: char *  itoa(signed int32 num, int8 base, char * s) 
....................    converts the signed int32 to a string and 
....................    returns the converted value if any, 0 otherwise*/ 
.................... char * itoa(signed int32 num, unsigned int base, char * s); 
....................  
.................... /* Standard template: signed int16  atol(char * s) 
....................  * converts the initial portion of the string s to a signed int16 
....................  * returns the converted value if any, 0 otherwise 
....................  */ 
.................... signed long atol(char *s); 
....................  
.................... /* Standard template: int16 strtoul(char * s,char *endptr,signed int base) 
....................  * converts the initial portion of the string s, represented as an 
....................  * integral value of radix base  to a signed long. 
....................  * Returns the converted value if any, 0 otherwise 
....................  * the final string is returned in the endptr, if endptr is not null 
....................  */ 
.................... signed long strtol(char *s,char *endptr, signed int base); 
....................  
.................... /* Standard template: int16 strtoul(char * s,char *endptr,signed int base) 
....................  * converts the initial portion of the string s, represented as an 
....................  * integral value of radix base to a unsigned long. 
....................  * returns the converted value if any, 0 otherwise 
....................  * the final string is returned in the endptr, if endptr is not null 
....................  */ 
.................... unsigned long strtoul(char *s,char *endptr, signed int base); 
....................  
.................... /* Standart template: float strtof(char * s,char *endptr) 
....................                       float48 strtof48(char *s,char *endptr); 
....................                       float64 strtod(char *s,char *endptr); 
....................  * converts the initial portion of the string s to a float32, float48 or float64, 
....................  * returns the converted value if any, 0 otherwise 
....................  * the final string is returned in the endptr, if endptr is not null                    
.................... */ 
.................... float strtof(char *s,char *endptr); 
.................... #if defined(__PCD__) 
.................... float48 strtof48(char *s,char *endptr); 
.................... float64 strtod(char *s,char *endptr); 
.................... #else 
.................... //provided for compatibility 
.................... #define strtof48(s, e) strtof(s, e) 
.................... #define strtod(s, e) strtof(s, e) 
.................... #endif 
....................  
.................... /* Standard template: float32 atof(char * s) 
....................  * converts the initial portion of the string s to a float. 
....................  * returns the converted value if any, 0 otherwise 
....................  */ 
.................... #define atof(s)   strtof(s, 0) 
....................  
.................... #if defined(__PCD__) 
.................... // The following functions only work on the 24 bit compiler 
.................... // for the 30F, 33F, 24F and 24H parts 
....................  
.................... /* Standard template: float48 atof48(char * s) 
....................  * converts the initial portion of the string s to a float. 
....................  * returns the converted value if any, 0 otherwise 
....................  */ 
.................... #define atof48(s) strtof48(s, 0) 
....................  
.................... /* Standard template: float64 atof64(char * s) 
....................  * converts the initial portion of the string s to a float. 
....................  * returns the converted value if any, 0 otherwise 
....................  */ 
.................... #define atof64(s) strtod(s, 0) 
.................... #endif 
....................  
.................... /* Standard template: float32 atoe(char * s) 
....................  * converts the initial portion of the string s to a float. 
....................  * returns the converted value if any, 0 otherwise 
....................  * also handles E format numbers 
....................  */ 
.................... #if !defined(__PCD__) 
.................... float atoe(char * s); 
.................... #endif 
....................  
.................... #if defined(__PCD__) 
.................... float32 atoe(char * s); 
.................... #endif 
....................  
.................... //--------------------------------------------------------------------------- 
.................... // Pseudo-random sequence generation functions 
.................... //--------------------------------------------------------------------------- 
....................  
.................... /* The rand function computes a sequence of pseudo-random integers in 
....................  * the range 0 to RAND_MAX 
....................  * 
....................  * Parameters: 
....................  *       (none) 
....................  * 
....................  * Returns: 
....................  *       The pseudo-random integer 
....................  */ 
.................... unsigned int16 rand(void); 
....................  
.................... /* The srand function uses the argument as a seed for a new sequence of 
....................  * pseudo-random numbers to be returned by subsequent calls to rand. 
....................  * 
....................  * Parameters: 
....................  *       [in] seed: The seed value to start from. You might need to pass 
....................  * 
....................  * Returns: 
....................  *       (none) 
....................  * 
....................  * Remarks 
....................  *          The srand function sets the starting point for generating 
....................  *       a series of pseudorandom integers. To reinitialize the 
....................  *       generator, use 1 as the seed argument. Any other value for 
....................  *       seed sets the generator to a random starting point. rand 
....................  *       retrieves the pseudorandom numbers that are generated. 
....................  *       Calling rand before any call to srand generates the same 
....................  *       sequence as calling srand with seed passed as 1. 
....................  *          Usually, you need to pass a time here from outer source 
....................  *       so that the numbers will be different every time you run. 
....................  */ 
.................... void srand(unsigned int32 seed); 
....................  
.................... //--------------------------------------------------------------------------- 
.................... // Memory management functions 
.................... //--------------------------------------------------------------------------- 
....................  
.................... // Comming soon 
....................  
.................... //--------------------------------------------------------------------------- 
.................... // Communication with the environment 
.................... //--------------------------------------------------------------------------- 
....................  
.................... /* The function returns 0 always 
....................  */ 
.................... signed int8 system(char *string); 
....................  
.................... //--------------------------------------------------------------------------- 
.................... // Searching and sorting utilities 
.................... //--------------------------------------------------------------------------- 
....................  
.................... /* Performs a binary search of a sorted array.. 
....................  * 
....................  * Parameters: 
....................  *       [in] key: Object to search for 
....................  *       [in] base: Pointer to base of search data 
....................  *       [in] num: Number of elements 
....................  *       [in] width: Width of elements 
....................  *       [in] compare: Function that compares two elements 
....................  * 
....................  * Returns: 
....................  *       bsearch returns a pointer to an occurrence of key in the array pointed 
....................  *       to by base. If key is not found, the function returns NULL. If the 
....................  *       array is not in order or contains duplicate records with identical keys, 
....................  *       the result is unpredictable. 
....................  */ 
.................... //void *bsearch(const void *key, const void *base, size_t num, size_t width, 
.................... //              int (*compare)(const void *, const void *)); 
....................  
.................... /* Performs the shell-metzner sort (not the quick sort algorithm). The contents 
....................  * of the array are sorted into ascending order according to a comparison 
....................  * function pointed to by compar. 
....................  * 
....................  * Parameters: 
....................  *       [in] base: Pointer to base of search data 
....................  *       [in] num: Number of elements 
....................  *       [in] width: Width of elements 
....................  *       [in] compare: Function that compares two elements 
....................  * 
....................  * Returns: 
....................  *       (none) 
....................  */ 
.................... //void *qsort(const void *base, size_t num, size_t width, 
.................... //              int (*compare)(const void *, const void *)); 
....................  
.................... //--------------------------------------------------------------------------- 
.................... // Integer arithmetic functions 
.................... //--------------------------------------------------------------------------- 
....................  
.................... #define labs abs 
....................  
.................... div_t div(signed int numer, signed int denom); 
.................... ldiv_t ldiv(signed long numer, signed long denom); 
....................  
.................... //--------------------------------------------------------------------------- 
.................... // Multibyte character functions 
.................... //--------------------------------------------------------------------------- 
....................  
.................... // Not supported 
....................  
.................... //--------------------------------------------------------------------------- 
.................... // Multibyte string functions 
.................... //--------------------------------------------------------------------------- 
....................  
.................... // Not supported 
....................  
....................  
.................... //--------------------------------------------------------------------------- 
.................... // Internal implementation 
.................... //--------------------------------------------------------------------------- 
....................  
.................... #include <stddef.h> 
.................... /////////////////////////////////////////////////////////////////////////// 
.................... ////        (C) Copyright 1996,2003 Custom Computer Services           //// 
.................... //// This source code may only be used by licensed users of the CCS C  //// 
.................... //// compiler.  This source code may only be distributed to other      //// 
.................... //// licensed users of the CCS C compiler.  No other use, reproduction //// 
.................... //// or distribution is permitted without written permission.          //// 
.................... //// Derivative programs created using this software in object code    //// 
.................... //// form are not restricted in any way.                               //// 
.................... /////////////////////////////////////////////////////////////////////////// 
....................  
.................... #ifndef _STDDEF 
....................  
.................... #define _STDDEF 
....................  
.................... #if sizeof(unsigned int8 *)==1 
.................... #define ptrdiff_t unsigned int8 
.................... #else 
.................... #define ptrdiff_t unsigned int16 
.................... #endif 
....................  
.................... #define size_t unsigned int8 
.................... #define wchar_t char 
.................... #define NULL 0 
....................  
.................... #define offsetof(s,f) (offsetofbit(s,f)/8) 
....................  
.................... #endif 
....................  
.................... #include <string.h> 
.................... //////////////////////////////////////////////////////////////////////////// 
.................... ////        (C) Copyright 1996,2008 Custom Computer Services            //// 
.................... //// This source code may only be used by licensed users of the CCS C   //// 
.................... //// compiler.  This source code may only be distributed to other       //// 
.................... //// licensed users of the CCS C compiler.  No other use, reproduction  //// 
.................... //// or distribution is permitted without written permission.           //// 
.................... //// Derivative programs created using this software in object code     //// 
.................... //// form are not restricted in any way.                                //// 
.................... //////////////////////////////////////////////////////////////////////////// 
....................  
.................... #ifndef _STRING 
.................... #define _STRING 
.................... #include <stddef.h> 
.................... #include <ctype.h> 
....................  
....................  
....................  
.................... ////////////////////////////////////////////// 
.................... //// Uncomment the following define to    //// 
.................... //// allow some functions to use a        //// 
.................... //// quicker algorithm, but use more ROM  //// 
.................... ////                                      //// 
.................... //// #define FASTER_BUT_MORE_ROM          //// 
.................... ////////////////////////////////////////////// 
....................  
....................  
....................  
.................... /*Copying functions*/ 
.................... /* standard template: 
....................    void *memmove(void *s1, void *s2, size_t n). 
....................    Copies max of n characters safely (not following ending '\0') 
....................    from s2 in s1; if s2 has less than n characters, appends 0 */ 
....................  
.................... char *memmove(void *s1,char *s2,size_t n) 
.................... { 
....................    char *sc1; 
....................    char *sc2; 
....................    sc1=s1; 
....................    sc2=s2; 
....................    if(sc2<sc1 && sc1 <sc2 +n) 
....................       for(sc1+=n,sc2+=n;0<n;--n) 
....................          *--sc1=*--sc2; 
....................    else 
....................       for(;0<n;--n) 
....................          *sc1++=*sc2++; 
....................   return s1; 
....................   } 
....................  
.................... /* Standard template: char *strcpy(char *s1, const char *s2) 
....................    copies the string s2 including the null character to s1. 
....................    This is a compiler built in to handle the different address 
....................    spaces */ 
....................  
.................... #define strcopy strcpy 
....................  
.................... /* standard template: 
....................    char *strncpy(char *s1, const char *s2, size_t n). 
....................    Copies max of n characters (not following ending '\0') 
....................    from s2 in s1; if s2 has less than n characters, appends 0 */ 
....................  
.................... char *strncpy(char *s1, char *s2, size_t n) 
.................... { 
....................   char *s; 
....................  
....................   for (s = s1; n > 0 && *s2 != '\0'; n--) 
....................      *s++ = *s2++; 
....................   for (; n > 0; n--) 
....................      *s++ = '\0'; 
....................  
....................   return(s1); 
.................... } 
.................... /***********************************************************/ 
....................  
.................... /*concatenation functions*/ 
.................... /* standard template: char *strcat(char *s1, const char *s2) 
.................... appends s2 to s1*/ 
....................  
.................... char *strcat(char *s1, char *s2) 
.................... { 
....................    char *s; 
....................  
....................    for (s = s1; *s != '\0'; ++s); 
....................    while(*s2 != '\0') 
....................    { 
....................       *s = *s2; 
....................       ++s; 
....................       ++s2; 
....................    } 
....................  
....................    *s = '\0'; 
....................    return(s1); 
.................... } 
.................... /* standard template: char *strncat(char *s1, char *s2,size_t n) 
.................... appends not more than n characters from s2 to s1*/ 
....................  
.................... char *strncat(char *s1, char *s2, size_t n) 
.................... { 
....................    char *s; 
....................  
....................    for (s = s1; *s != '\0'; ++s); 
....................    while(*s2 != '\0' && 0<n) 
....................    { 
....................       *s = *s2; 
....................       ++s; 
....................       ++s2; 
....................       --n; 
....................    } 
....................  
....................    *s = '\0'; 
....................    return(s1); 
.................... } 
....................  
.................... /***********************************************************/ 
....................  
....................  
.................... /*comparison functions*/ 
.................... /* standard template: signed int memcmp(void *s1, void *s2). 
....................    Compares s1 & s2; returns -1 if s1<s2, 0 if s1=s2, 1 if s1>s2 */ 
....................  
.................... signed int8 memcmp(void * s1,char *s2,size_t n) 
.................... { 
.................... char *su1, *su2; 
.................... for(su1=s1, su2=s2; 0<n; ++su1, ++su2, --n) 
.................... { 
....................    if(*su1!=*su2) 
....................       return ((*su1<*su2)?-1:+1); 
.................... } 
.................... return 0; 
.................... } 
....................  
.................... /* standard template: int strcmp(const char *s1, const char *s2). 
....................    Compares s1 & s2; returns -1 if s1<s2, 0 if s1=s2, 1 if s1>s2 */ 
....................  
.................... signed int8 strcmp(char *s1, char *s2) 
.................... { 
....................    for (; *s1 == *s2; s1++, s2++) 
....................       if (*s1 == '\0') 
....................          return(0); 
....................    return((*s1 < *s2) ? -1: 1); 
.................... } 
.................... /* standard template: int strcoll(const char *s1, const char *s2). 
....................    Compares s1 & s2; returns -1 if s1<s2, 0 if s1=s2, 1 if s1>s2 */ 
....................  
.................... signed int8 strcoll(char *s1, char *s2) 
.................... { 
....................    for (; *s1 == *s2; s1++, s2++) 
....................       if (*s1 == '\0') 
....................          return(0); 
....................    return((*s1 < *s2) ? -1: 1); 
.................... } 
....................  
.................... /* standard template: 
....................    int strncmp(const char *s1, const char *s2, size_t n). 
....................    Compares max of n characters (not following 0) from s1 to s2; 
....................    returns same as strcmp */ 
....................  
.................... signed int8 strncmp(char *s1, char *s2, size_t n) 
.................... { 
....................    for (; n > 0; s1++, s2++, n--) 
....................       if (*s1 != *s2) 
....................          return((*s1 <*s2) ? -1: 1); 
....................       else if (*s1 == '\0') 
....................          return(0); 
....................    return(0); 
.................... } 
.................... /* standard template: 
....................    int strxfrm(const char *s1, const char *s2, size_t n). 
....................    transforms maximum of n characters from s2 and places them into s1*/ 
.................... size_t strxfrm(char *s1, char *s2, size_t n) 
.................... { 
....................   char *s; 
....................   unsigned int8 n1; 
....................   n1=n; 
....................   for (s = s1; n > 0 && *s2 != '\0'; n--) 
....................      *s++ = *s2++; 
....................   for (; n > 0; n--) 
....................      *s++ = '\0'; 
....................  
....................   return(n1); 
.................... } 
....................  
....................  
....................  
....................  
....................  
.................... /***********************************************************/ 
.................... /*Search functions*/ 
.................... /* standard template: void *memchr(const char *s, int c). 
....................    Finds first occurrence of c in n characters of s */ 
....................  
.................... char *memchr(void *s,unsigned int8 c,size_t n) 
.................... { 
....................    char uc; 
....................    char *su; 
....................    uc=c; 
....................    for(su=s;0<n;++su,--n) 
....................       if(*su==uc) 
....................       return su; 
....................    return NULL; 
.................... } 
....................  
.................... /* standard template: char *strchr(const char *s, int c). 
....................    Finds first occurrence of c in s */ 
....................  
.................... char *strchr(char *s, unsigned int8 c) 
.................... { 
....................    for (; *s != c; s++) 
....................       if (*s == '\0') 
....................          return(0); 
....................    return(s); 
.................... } 
.................... /* standard template: 
....................    size_t strcspn(const char *s1, const char *s2). 
....................    Computes length of max initial segment of s1 that 
....................    consists entirely of characters NOT from s2*/ 
....................  
.................... unsigned int8  strcspn(char *s1, char *s2) 
.................... { 
....................    char *sc1, *sc2; 
....................  
....................    for (sc1 = s1; *sc1 != 0; sc1++) 
....................       for (sc2 = s2; *sc2 != 0; sc2++) 
....................          if (*sc1 == *sc2) 
....................             return(sc1 - s1); 
....................    return(sc1 - s1); 
.................... } 
.................... /* standard template: 
....................    char *strpbrk(const char *s1, const char *s2). 
....................    Locates first occurence of any character from s2 in s1; 
....................    returns s1 if s2 is empty string */ 
....................  
.................... char *strpbrk(char *s1, char *s2) 
.................... { 
....................    char *sc1, *sc2; 
....................  
....................    for (sc1 = s1; *sc1 != 0; sc1++) 
....................       for (sc2 = s2; *sc2 != 0; sc2++) 
....................          if (*sc1 == *sc2) 
....................             return(sc1); 
....................    return(0); 
.................... } 
....................  
....................  
.................... /* standard template: char *strrchr(const char *s, int c). 
....................    Finds last occurrence of c in s */ 
....................  
.................... char *strrchr(char *s, unsigned int8 c) 
.................... { 
....................    char *p; 
....................  
....................    for (p = 0; ; s++) 
....................    { 
....................       if (*s == c) 
....................          p = s; 
....................       if (*s == '\0') 
....................          return(p); 
....................    } 
.................... } 
.................... /* computes length of max initial segment of s1 consisting 
....................    entirely of characters from s2 */ 
....................  
.................... unsigned int8  strspn(char *s1, char *s2) 
.................... { 
....................    char *sc1, *sc2; 
....................  
....................    for (sc1 = s1; *sc1 != 0; sc1++) 
....................       for (sc2 = s2; ; sc2++) 
....................     if (*sc2 == '\0') 
....................        return(sc1 - s1); 
....................          else if (*sc1 == *sc2) 
....................             break; 
....................    return(sc1 - s1); 
.................... } 
.................... /* standard template: 
....................    char *strstr(const char *s1, const char *s2); 
....................    Locates first occurence of character sequence s2 in s1; 
....................    returns 0 if s2 is empty string 
....................  
....................    Uncomment #define FASTER_BUT_MORE_ROM at the top of the 
....................    file to use the faster algorithm */ 
.................... char *strstr(char *s1, char *s2) 
.................... { 
....................    char *s, *t; 
....................  
....................    #ifdef FASTER_BUT_MORE_ROM 
....................    if (*s2 == '\0') 
....................          return(s1); 
....................    #endif 
....................  
....................    while (*s1) 
....................    { 
....................       for(s = s1, t = s2; *t && (*s == *t); ++s, ++t); 
....................  
....................       if (*t == '\0') 
....................          return s1; 
....................       ++s1; 
....................       #ifdef FASTER_BUT_MORE_ROM 
....................          while(*s1 != '\0' && *s1 != *s2) 
....................             ++s1; 
....................       #endif 
....................    } 
....................    return 0; 
.................... } 
....................  
.................... /* standard template: char *strtok(char *s1, const char *s2). 
....................  
....................    Finds next token in s1 delimited by a character from separator 
....................    string s2 (which can be different from call to call).  First call 
....................    starts at beginning of s1 searching for first character NOT 
....................    contained in s2; returns 0 if none is found. 
....................    If one is found, it is the start of first token (return value). 
....................    Function then searches from there for a character contained in s2. 
....................    If none is found, current token extends to end of s1, and subsequent 
....................    searches for a token will return 0.  If one is found, it is 
....................    overwritten by '\0', which terminates current token.  Function saves 
....................    pointer to following character from which next search will start. 
....................    Each subsequent call, with 0 as first argument, starts searching 
....................    from saved pointer */ 
....................  
.................... char *strtok(char *s1, char *s2) 
.................... { 
....................    char *beg, *end; 
....................    static char *save; 
....................  
....................    beg = (s1)? s1: save; 
....................    beg += strspn(beg, s2); 
....................    if (*beg == '\0') 
....................    { 
....................       *save = ' '; 
....................       return(0); 
....................    } 
....................    end = strpbrk(beg, s2); 
....................    if (*end != '\0') 
....................    { 
....................       *end = '\0'; 
....................       end++; 
....................    } 
....................    save = end; 
....................    return(beg); 
.................... } 
....................  
.................... /*****************************************************************/ 
.................... /*Miscellaneous functions*/ 
.................... /* standard template 
.................... maps error number in errnum to an error message string 
.................... Returns: Pointer to string 
.................... */ 
.................... #ifdef _ERRNO 
.................... char * strerror(unsigned int8 errnum) 
.................... { 
.................... char s[15]; 
.................... switch( errnum) 
.................... { 
.................... case 0: 
....................    strcpy(s,"no errors"); 
....................    return s; 
.................... case EDOM : 
....................    strcpy(s,"domain error"); 
....................    return s; 
.................... case ERANGE: 
....................    strcpy(s,"range error"); 
....................    return s; 
.................... } 
.................... } 
.................... #ENDIF 
.................... /* standard template: size_t strlen(const char *s). 
....................    Computes length of s1 (preceding terminating 0) */ 
....................  
.................... unsigned int8 strlen(char *s) 
.................... { 
....................    char *sc; 
....................  
....................    for (sc = s; *sc != 0; sc++); 
....................    return(sc - s); 
.................... } 
....................  
.................... /* standard template: size_t stricmp(const char *s1, const char *s2). 
....................    Compares s1 to s2 ignoring case (upper vs. lower) */ 
....................  
.................... signed int8 stricmp(char *s1, char *s2) 
.................... { 
....................  for(; *s1==*s2||(isalpha(*s1)&&isalpha(*s2)&&(*s1==*s2+32||*s2==*s1+32)); 
....................     s1++, s2++) 
....................     if (*s1 == '\0') 
....................        return(0); 
....................  return((*s1 < *s2) ? -1: 1); 
.................... } 
....................  
....................  
.................... /* standard template: char *strlwr(char *s). 
....................    Replaces uppercase letters by lowercase; 
....................    returns pointer to new string s */ 
....................  
.................... char *strlwr(char *s) 
.................... { 
....................    char *p; 
....................  
....................    for (p = s; *p != '\0'; p++) 
....................       if (*p >= 'A' && *p <='Z') 
....................          *p += 'a' - 'A'; 
....................    return(s); 
.................... } 
....................  
....................  
.................... /************************************************************/ 
....................  
....................  
.................... #endif 
....................  
....................  
.................... div_t div(signed int numer, signed int denom) 
.................... { 
....................    div_t val; 
....................    val.quot = numer / denom; 
....................    val.rem = numer - (denom * val.quot); 
....................    return (val); 
.................... } 
....................  
.................... ldiv_t ldiv(signed long numer, signed long denom) 
.................... { 
....................    ldiv_t val; 
....................  
....................    val.quot = numer / denom; 
....................    val.rem = numer - (denom * val.quot); 
....................    return (val); 
.................... } 
....................  
.................... #if defined(__PCD__) 
.................... float32 atoe(char * s) 
.................... { 
....................    float32 pow10 = 1.0; 
....................    float32 result = 0.0; 
....................    unsigned int8 sign = 0; 
....................    unsigned int8 expsign = 0; 
....................    char c; 
....................    unsigned int8 ptr = 0; 
....................    unsigned int8 i; 
....................    float32 exp = 1.0; 
....................    unsigned int8 expcnt = 0; 
....................  
....................    c = s[ptr++]; 
....................  
....................    if ((c>='0' && c<='9') || c=='+' || c=='-' || c=='.' || c=='E' || c=='e') { 
....................       if(c == '-') { 
....................          sign = 1; 
....................          c = s[ptr++]; 
....................       } 
....................       if(c == '+') 
....................          c = s[ptr++]; 
....................  
....................       while((c >= '0' && c <= '9')) { 
....................          result = 10*result + c - '0'; 
....................          c = s[ptr++]; 
....................       } 
....................  
....................       if (c == '.') { 
....................          c = s[ptr++]; 
....................          while((c >= '0' && c <= '9')) { 
....................              pow10 = pow10*10; 
....................              result += (c - '0')/pow10; 
....................              c = s[ptr++]; 
....................          } 
....................       } 
....................  
....................       // Handling the exponent 
....................       if (c=='e' || c=='E') { 
....................          c = s[ptr++]; 
....................  
....................          if(c == '-') { 
....................             expsign = 1; 
....................             c = s[ptr++]; 
....................          } 
....................          if(c == '+') 
....................             c = s[ptr++]; 
....................  
....................          while((c >= '0' && c <= '9')) { 
....................             expcnt = 10*expcnt + c - '0'; 
....................             c = s[ptr++]; 
....................          } 
....................  
....................          for(i=0;i<expcnt;i++) 
....................             exp*=10; 
....................  
....................          if(expsign==1) 
....................             result/=exp; 
....................          else 
....................             result*=exp; 
....................       } 
....................    } 
....................  
....................    if (sign == 1) 
....................       result = -1*result; 
....................    return(result); 
.................... } 
.................... #endif 
....................  
.................... #if !defined(__PCD__) 
.................... float atoe(char * s) 
.................... { 
....................    float pow10 = 1.0; 
....................    float result = 0.0; 
....................    unsigned int8 sign = 0; 
....................    unsigned int8 expsign = 0; 
....................    char c; 
....................    unsigned int8 ptr = 0; 
....................    unsigned int8 i; 
....................    float exp = 1.0; 
....................    unsigned int8 expcnt = 0; 
....................  
....................    c = s[ptr++]; 
....................  
....................    if ((c>='0' && c<='9') || c=='+' || c=='-' || c=='.' || c=='E' || c=='e') { 
....................       if(c == '-') { 
....................          sign = 1; 
....................          c = s[ptr++]; 
....................       } 
....................       if(c == '+') 
....................          c = s[ptr++]; 
....................  
....................       while((c >= '0' && c <= '9')) { 
....................          result = 10*result + c - '0'; 
....................          c = s[ptr++]; 
....................       } 
....................  
....................       if (c == '.') { 
....................          c = s[ptr++]; 
....................          while((c >= '0' && c <= '9')) { 
....................              pow10 = pow10*10; 
....................              result += (c - '0')/pow10; 
....................              c = s[ptr++]; 
....................          } 
....................       } 
....................  
....................       // Handling the exponent 
....................       if (c=='e' || c=='E') { 
....................          c = s[ptr++]; 
....................  
....................          if(c == '-') { 
....................             expsign = 1; 
....................             c = s[ptr++]; 
....................          } 
....................          if(c == '+') 
....................             c = s[ptr++]; 
....................  
....................          while((c >= '0' && c <= '9')) { 
....................             expcnt = 10*expcnt + c - '0'; 
....................             c = s[ptr++]; 
....................          } 
....................  
....................          for(i=0;i<expcnt;i++) 
....................             exp*=10; 
....................  
....................          if(expsign==1) 
....................             result/=exp; 
....................          else 
....................             result*=exp; 
....................       } 
....................    } 
....................  
....................    if (sign == 1) 
....................       result = -1*result; 
....................    return(result); 
.................... } 
.................... #endif 
....................  
.................... signed int atoi(char *s) 
.................... { 
....................    signed int result; 
....................    unsigned int sign, base, index; 
....................    char c; 
....................  
....................    index = 0; 
....................    sign = 0; 
....................    base = 10; 
....................    result = 0; 
....................  
....................    if (!s) 
....................       return 0; 
....................    // Omit all preceeding alpha characters 
....................    c = s[index++]; 
....................  
....................    // increase index if either positive or negative sign is detected 
....................    if (c == '-') 
....................    { 
....................       sign = 1;         // Set the sign to negative 
....................       c = s[index++]; 
....................    } 
....................    else if (c == '+') 
....................    { 
....................       c = s[index++]; 
....................    } 
....................  
....................    if (c >= '0' && c <= '9') 
....................    { 
....................  
....................       // Check for hexa number 
....................       if (c == '0' && (s[index] == 'x' || s[index] == 'X')) 
....................       { 
....................          base = 16; 
....................          index++; 
....................          c = s[index++]; 
....................       } 
....................  
....................       // The number is a decimal number 
....................       if (base == 10) 
....................       { 
....................          while (c >= '0' && c <= '9') 
....................          { 
....................             result = 10*result + (c - '0'); 
....................             c = s[index++]; 
....................          } 
....................       } 
....................       else if (base == 16)    // The number is a hexa number 
....................       { 
....................          c = toupper(c); 
....................          while ( (c >= '0' && c <= '9') || (c >= 'A' && c<='F')) 
....................          { 
....................             if (c >= '0' && c <= '9') 
....................                result = (result << 4) + (c - '0'); 
....................             else 
....................                result = (result << 4) + (c - 'A' + 10); 
....................  
....................             c = s[index++]; 
....................             c = toupper(c); 
....................          } 
....................       } 
....................    } 
....................  
....................    if (sign == 1 && base == 10) 
....................        result = -result; 
....................  
....................    return(result); 
.................... } 
....................  
.................... signed long atol(char *s) 
.................... { 
....................    signed long result; 
....................    unsigned int sign, base, index; 
....................    char c; 
....................  
....................    index = 0; 
....................    sign = 0; 
....................    base = 10; 
....................    result = 0; 
....................  
....................    if (!s) 
....................       return 0; 
....................    c = s[index++]; 
....................  
....................    // increase index if either positive or negative sign is detected 
....................    if (c == '-') 
....................    { 
....................       sign = 1;         // Set the sign to negative 
....................       c = s[index++]; 
....................    } 
....................    else if (c == '+') 
....................    { 
....................       c = s[index++]; 
....................    } 
....................  
....................    if (c >= '0' && c <= '9') 
....................    { 
....................       if (c == '0' && (s[index] == 'x' || s[index] == 'X')) 
....................       { 
....................          base = 16; 
....................          index++; 
....................          c = s[index++]; 
....................       } 
....................  
....................       // The number is a decimal number 
....................       if (base == 10) 
....................       { 
....................          while (c >= '0' && c <= '9') 
....................          { 
....................             result = 10*result + (c - '0'); 
....................             c = s[index++]; 
....................          } 
....................       } 
....................       else if (base == 16)    // The number is a hexa number 
....................       { 
....................          c = toupper(c); 
....................          while ( (c >= '0' && c <= '9') || (c >= 'A' && c <='F')) 
....................          { 
....................             if (c >= '0' && c <= '9') 
....................                result = (result << 4) + (c - '0'); 
....................             else 
....................                result = (result << 4) + (c - 'A' + 10); 
....................  
....................             c = s[index++];c = toupper(c); 
....................          } 
....................       } 
....................    } 
....................  
....................    if (base == 10 && sign == 1) 
....................       result = -result; 
....................  
....................    return(result); 
.................... } 
....................  
.................... /* A fast routine to multiply by 10 
....................  */ 
.................... signed int32 mult_with10(int32 num) 
.................... { 
....................    return ( (num << 1) + (num << 3) ); 
.................... } 
....................  
.................... #if sizeof(long)==2 
.................... signed int32 atoi32(char *s) 
.................... { 
....................    signed int32 result; 
....................    int8 sign, base, index; 
....................    char c; 
....................  
....................    index = 0; 
....................    sign = 0; 
....................    base = 10; 
....................    result = 0; 
....................  
....................    if (!s) 
....................       return 0; 
....................    c = s[index++]; 
....................  
....................    // increase index if either positive or negative sign is detected 
....................    if (c == '-') 
....................    { 
....................       sign = 1;         // Set the sign to negative 
....................       c = s[index++]; 
....................    } 
....................    else if (c == '+') 
....................    { 
....................       c = s[index++]; 
....................    } 
....................  
....................    if (c >= '0' && c <= '9') 
....................    { 
....................       if (c == '0' && (s[index] == 'x' || s[index] == 'X')) 
....................       { 
....................          base = 16; 
....................          index++; 
....................          c = s[index++]; 
....................       } 
....................  
....................       // The number is a decimal number 
....................       if (base == 10) 
....................       { 
....................          while (c >= '0' && c <= '9') { 
....................             result = (result << 1) + (result << 3);  // result *= 10; 
....................             result += (c - '0'); 
....................             c = s[index++]; 
....................          } 
....................       } 
....................       else if (base == 16)    // The number is a hexa number 
....................       { 
....................          c = toupper(c); 
....................          while ((c >= '0' && c <= '9') || (c >= 'A' && c <='F')) 
....................          { 
....................             if (c >= '0' && c <= '9') 
....................                result = (result << 4) + (c - '0'); 
....................             else 
....................                result = (result << 4) + (c - 'A' + 10); 
....................  
....................             c = s[index++];c = toupper(c); 
....................          } 
....................       } 
....................    } 
....................  
....................    if (base == 10 && sign == 1) 
....................       result = -result; 
....................  
....................    return(result); 
.................... } 
.................... #endif 
....................  
.................... #if defined(__PCD__) 
....................  
.................... signed int48 atoi48(char *s) 
.................... { 
....................    signed int48 result; 
....................    int8 sign, base, index; 
....................    char c; 
....................  
....................    index = 0; 
....................    sign = 0; 
....................    base = 10; 
....................    result = 0; 
....................  
....................    if (!s) 
....................       return 0; 
....................    c = s[index++]; 
....................  
....................    // increase index if either positive or negative sign is detected 
....................    if (c == '-') 
....................    { 
....................       sign = 1;         // Set the sign to negative 
....................       c = s[index++]; 
....................    } 
....................    else if (c == '+') 
....................    { 
....................       c = s[index++]; 
....................    } 
....................  
....................    if (c >= '0' && c <= '9') 
....................    { 
....................       if (c == '0' && (s[index] == 'x' || s[index] == 'X')) 
....................       { 
....................          base = 16; 
....................          index++; 
....................          c = s[index++]; 
....................       } 
....................  
....................       // The number is a decimal number 
....................       if (base == 10) 
....................       { 
....................          while (c >= '0' && c <= '9') { 
....................             result = (result << 1) + (result << 3);  // result *= 10; 
....................             result += (c - '0'); 
....................             c = s[index++]; 
....................          } 
....................       } 
....................       else if (base == 16)    // The number is a hexa number 
....................       { 
....................          c = toupper(c); 
....................          while ((c >= '0' && c <= '9') || (c >= 'A' && c <='F')) 
....................          { 
....................             if (c >= '0' && c <= '9') 
....................                result = (result << 4) + (c - '0'); 
....................             else 
....................                result = (result << 4) + (c - 'A' + 10); 
....................  
....................             c = s[index++];c = toupper(c); 
....................          } 
....................       } 
....................    } 
....................  
....................    if (base == 10 && sign == 1) 
....................       result = -result; 
....................  
....................    return(result); 
.................... } 
....................  
.................... signed int64 atoi64(char *s) 
.................... { 
....................    signed int64 result; 
....................    int8 sign, base, index; 
....................    char c; 
....................  
....................    index = 0; 
....................    sign = 0; 
....................    base = 10; 
....................    result = 0; 
....................  
....................    if (!s) 
....................       return 0; 
....................    c = s[index++]; 
....................  
....................    // increase index if either positive or negative sign is detected 
....................    if (c == '-') 
....................    { 
....................       sign = 1;         // Set the sign to negative 
....................       c = s[index++]; 
....................    } 
....................    else if (c == '+') 
....................    { 
....................       c = s[index++]; 
....................    } 
....................  
....................    if (c >= '0' && c <= '9') 
....................    { 
....................       if (c == '0' && (s[index] == 'x' || s[index] == 'X')) 
....................       { 
....................          base = 16; 
....................          index++; 
....................          c = s[index++]; 
....................       } 
....................  
....................       // The number is a decimal number 
....................       if (base == 10) 
....................       { 
....................          while (c >= '0' && c <= '9') { 
....................             result = (result << 1) + (result << 3);  // result *= 10; 
....................             result += (c - '0'); 
....................             c = s[index++]; 
....................          } 
....................       } 
....................       else if (base == 16)    // The number is a hexa number 
....................       { 
....................          c = toupper(c); 
....................          while ((c >= '0' && c <= '9') || (c >= 'A' && c <='F')) 
....................          { 
....................             if (c >= '0' && c <= '9') 
....................                result = (result << 4) + (c - '0'); 
....................             else 
....................                result = (result << 4) + (c - 'A' + 10); 
....................  
....................             c = s[index++];c = toupper(c); 
....................          } 
....................       } 
....................    } 
....................  
....................    if (base == 10 && sign == 1) 
....................       result = -result; 
....................  
....................    return(result); 
.................... } 
.................... #endif 
....................  
.................... char * itoa(signed int32 num, unsigned int base, char * s) 
.................... { 
....................      unsigned int32 temp=1; 
....................      unsigned int8 i,sign=0,cnt=0; 
....................      char c; 
....................  
....................      if(num<0) { 
....................          sign=1;        // Check for negative number 
....................          num*=-1; 
....................      } 
....................  
....................      while(temp>0) { 
....................          temp=(num/base); 
....................          s[cnt]=(num%base)+'0';    // Conversion 
....................  
....................          if(s[cnt]>0x39) 
....................             s[cnt]+=0x7; 
....................  
....................          cnt++; 
....................          num=temp; 
....................      } 
....................  
....................      if(sign==1) { 
....................          s[cnt]=0x2D;      // Negative sign 
....................          cnt++; 
....................      } 
....................  
....................      for(i = 0;i<(int8)(cnt/2);i++) { 
....................  
....................          c=s[i]; 
....................          s[i]=s[cnt-i-1];        // Reverse the number 
....................          s[cnt-i-1]=c; 
....................      } 
....................      s[cnt]='\0';     // End the string 
....................      return s; 
.................... } 
....................  
.................... float strtof(char *s, char *endptr) 
.................... { 
....................    float pow10 = 1.0; 
....................    float result = 0.0; 
....................    int1 skip = 1, sign = 0, point = 0; 
....................    char c; 
....................    unsigned int8 ptr = 0; 
....................  
....................    if (!s) 
....................       return 0; 
....................  
....................    for(c=s[ptr++]; c!=0; c=s[ptr++]) 
....................    { 
....................       if (skip && !isspace(c)) 
....................       { 
....................          skip = 0; 
....................          if (c == '+') 
....................          { 
....................             sign = 0; 
....................             continue; 
....................          }             
....................          else if (c == '-') 
....................          { 
....................             sign = 1; 
....................             continue; 
....................          } 
....................       } 
....................       if (!skip && (c == '.') && !point) 
....................          point = 1; 
....................       else if (!skip && isdigit(c)) 
....................       { 
....................          c -= '0'; 
....................          if (point) 
....................          { 
....................             pow10 = pow10 * 10.0; 
....................             result += (float)c / pow10;    
....................          } 
....................          else 
....................          { 
....................             result = 10.0 * result + (float)c; 
....................          } 
....................       } 
....................       else if (!skip) 
....................          break; 
....................    } 
....................  
....................    if (sign) 
....................       result = -1*result; 
....................        
....................    if(endptr) 
....................    { 
....................       if (ptr) { 
....................          ptr--; 
....................        #IF LONG_POINTERS  
....................          *((long *)endptr)= s+ptr;  
....................        #ELSE 
....................          *((char *)endptr)=s+ptr; 
....................        #ENDIF 
....................       } 
....................       else 
....................       { 
....................       #IF LONG_POINTERS 
....................       *((long *)endptr)= s;  
....................       #ELSE 
....................       *((char *)endptr)=s; 
....................       #ENDIF 
....................       } 
....................    } 
....................  
....................    return(result); 
.................... } 
....................  
.................... #if defined(__PCD__) 
.................... float48 strtof48(char *s, char *endptr) 
.................... { 
....................    float48 pow10 = 1.0; 
....................    float48 result = 0.0; 
....................    int1 skip = 1, sign = 0, point = 0; 
....................    char c; 
....................    unsigned int8 ptr = 0; 
....................  
....................    if (!s) 
....................       return 0; 
....................  
....................    for(c=s[ptr++]; c!=0; c=s[ptr++]) 
....................    { 
....................       if (skip && !isspace(c)) 
....................       { 
....................          skip = 0; 
....................          if (c == '+') 
....................          { 
....................             sign = 0; 
....................             continue; 
....................          }             
....................          else if (c == '-') 
....................          { 
....................             sign = 1; 
....................             continue; 
....................          } 
....................       } 
....................       if (!skip && (c == '.') && !point) 
....................          point = 1; 
....................       else if (!skip && isdigit(c)) 
....................       { 
....................          c -= '0'; 
....................          if (point) 
....................          { 
....................             pow10 = pow10 * 10.0; 
....................             result += (float48)c / pow10;    
....................          } 
....................          else 
....................          { 
....................             result = 10.0 * result + (float48)c; 
....................          } 
....................       } 
....................       else if (!skip) 
....................          break; 
....................    } 
....................  
....................    if (sign) 
....................       result = -1*result; 
....................        
....................    if(endptr) 
....................    { 
....................       if (ptr) { 
....................          ptr--; 
....................        #IF LONG_POINTERS  
....................          *((long *)endptr)= s+ptr;  
....................        #ELSE 
....................          *((char *)endptr)=s+ptr; 
....................        #ENDIF 
....................       } 
....................       else 
....................       { 
....................       #IF LONG_POINTERS 
....................       *((long *)endptr)= s;  
....................       #ELSE 
....................       *((char *)endptr)=s; 
....................       #ENDIF 
....................       } 
....................    } 
....................  
....................    return(result); 
.................... } 
....................  
.................... float64 strtod(char *s, char *endptr) 
.................... { 
....................    float64 pow10 = 1.0; 
....................    float64 result = 0.0; 
....................    int1 skip = 1, sign = 0, point = 0; 
....................    char c; 
....................    unsigned int8 ptr = 0; 
....................  
....................    if (!s) 
....................       return 0; 
....................  
....................    for(c=s[ptr++]; c!=0; c=s[ptr++]) 
....................    { 
....................       if (skip && !isspace(c)) 
....................       { 
....................          skip = 0; 
....................          if (c == '+') 
....................          { 
....................             sign = 0; 
....................             continue; 
....................          }             
....................          else if (c == '-') 
....................          { 
....................             sign = 1; 
....................             continue; 
....................          } 
....................       } 
....................       if (!skip && (c == '.') && !point) 
....................          point = 1; 
....................       else if (!skip && isdigit(c)) 
....................       { 
....................          c -= '0'; 
....................          if (point) 
....................          { 
....................             pow10 = pow10 * 10.0; 
....................             result += (float64)c / pow10;    
....................          } 
....................          else 
....................          { 
....................             result = 10.0 * result + (float64)c; 
....................          } 
....................       } 
....................       else if (!skip) 
....................          break; 
....................    } 
....................  
....................    if (sign) 
....................       result = -1*result; 
....................        
....................    if(endptr) 
....................    { 
....................       if (ptr) { 
....................          ptr--; 
....................        #IF LONG_POINTERS  
....................          *((long *)endptr)= s+ptr;  
....................        #ELSE 
....................          *((char *)endptr)=s+ptr; 
....................        #ENDIF 
....................       } 
....................       else 
....................       { 
....................       #IF LONG_POINTERS 
....................       *((long *)endptr)= s;  
....................       #ELSE 
....................       *((char *)endptr)=s; 
....................       #ENDIF 
....................       } 
....................    } 
....................  
....................    return(result); 
.................... } 
.................... #endif 
....................  
.................... unsigned long strtoul(char *s, char *endptr, signed int base) 
.................... { 
....................    char *sc,*s1,*sd; 
....................    unsigned long x=0; 
....................    char sign; 
....................    char digits[]="0123456789abcdefghijklmnopqstuvwxyz"; 
....................    for(sc=s;isspace(*sc);++sc); 
....................    sign=*sc=='-'||*sc=='+'?*sc++:'+'; 
....................    if(sign=='-' || base <0 || base ==1|| base >36) // invalid base 
....................    goto StrtoulGO; 
....................  
....................    else if (base) 
....................    { 
....................       if(base==16 && *sc =='0'&&(sc[1]=='x' || sc[1]=='X')) 
....................          sc+=2; 
....................       if(base==8 && *sc =='0') 
....................          sc+=1; 
....................       if(base==2 && *sc =='0'&&sc[1]=='b') 
....................          sc+=2; 
....................  
....................    } 
....................    else if(*sc!='0') // base is 0, find base 
....................       base=10; 
....................    else if (sc[1]=='x' || sc[1]=='X') 
....................       base =16,sc+=2; 
....................    else if(sc[1]=='b') 
....................       base=2,sc+=2; 
....................    else 
....................       base=8; 
....................    for (s1=sc;*sc=='0';++sc);// skip leading zeroes 
....................    sd=memchr(digits,tolower(*sc),base); 
....................    for(; sd!=0; ) 
....................    { 
....................       x=x*base+(int16)(sd-digits); 
....................       ++sc; 
....................       sd=memchr(digits,tolower(*sc),base); 
....................    } 
....................    if(s1==sc) 
....................    { 
....................    StrtoulGO: 
....................       if (endptr) 
....................       { 
....................          #IF LONG_POINTERS 
....................          *((long *)endptr)= s;  
....................          #ELSE 
....................          *((char *)endptr)=s; 
....................          #ENDIF 
....................          } 
....................    return 0; 
....................    } 
....................    if (endptr) 
....................    { 
....................          #IF LONG_POINTERS 
....................          *((long *)endptr)= sc;  
....................          #ELSE 
....................          *((char *)endptr)=sc;  
....................          #ENDIF 
....................    } 
....................    return x; 
.................... } 
....................  
....................  
.................... signed long strtol(char *s,char *endptr, signed int base) 
.................... { 
....................    char *sc,*s1,*sd; 
....................    signed long x=0; 
....................    char sign; 
....................    char digits[]="0123456789abcdefghijklmnopqstuvwxyz"; 
....................    for(sc=s;isspace(*sc);++sc); 
....................    sign=*sc=='-'||*sc=='+'?*sc++:'+'; 
....................    if (base <0 || base ==1|| base >36) // invalid base 
....................    goto StrtolGO; 
....................    else if (base) 
....................    { 
....................       if(base==16 && *sc =='0'&&(sc[1]=='x' || sc[1]=='X')) 
....................          sc+=2; 
....................       if(base==8 && *sc =='0') 
....................          sc+=1; 
....................       if(base==2 && *sc =='0'&&sc[1]=='b') 
....................          sc+=2; 
....................  
....................    } 
....................    else if(*sc!='0') // base is 0, find base 
....................       base=10; 
....................    else if (sc[1]=='x' || sc[1]=='X') 
....................       base =16,sc+=2; 
....................    else if(sc[1]=='b') 
....................       base=2,sc+=2; 
....................    else 
....................       base=8; 
....................    for (s1=sc;*sc=='0';++sc);// skip leading zeroes 
....................  
....................    sd=memchr(digits,tolower(*sc),base); 
....................    for(;sd!=0;) 
....................    { 
....................       x=x*base+(int16)(sd-digits); 
....................       ++sc; 
....................       sd=memchr(digits,tolower(*sc),base); 
....................    } 
....................    if(s1==sc) 
....................    { 
....................    StrtolGO: 
....................       if (endptr) 
....................       { 
....................          #IF LONG_POINTERS 
....................          *((long *)endptr)= s;  
....................          #ELSE 
....................          *((char *)endptr)=s; 
....................          #ENDIF 
....................       } 
....................    return 0; 
....................    } 
....................    if(sign=='-') 
....................       x  =-x; 
....................    if (endptr) 
....................    { 
....................         #IF LONG_POINTERS 
....................          *((long *)endptr)= sc;  
....................         #ELSE 
....................         *((char *)endptr)=sc; 
....................         #ENDIF 
....................    } 
....................    return x; 
.................... } 
....................  
.................... signed int8 system(char *string) 
.................... { 
....................    return 0; 
.................... } 
....................  
.................... int8 mblen(char *s,size_t n) 
.................... { 
....................    return strlen(s); 
.................... } 
....................  
.................... int8 mbtowc(wchar_t *pwc,char *s,size_t n) 
.................... { 
....................    *pwc=*s; 
....................    return 1; 
.................... } 
....................  
.................... int8 wctomb(char *s,wchar_t wchar) 
.................... { 
....................    *s=wchar; 
....................    return 1; 
.................... } 
....................  
.................... size_t mbstowcs(wchar_t *pwcs,char *s,size_t n) 
.................... { 
....................    strncpy(pwcs,s,n); 
....................    return strlen(pwcs); 
.................... } 
....................  
.................... size_t wcstombs(char *s,wchar_t *pwcs,size_t n) 
.................... { 
....................    strncpy(s,pwcs,n); 
....................    return strlen(s); 
.................... } 
....................  
.................... //--------------------------------------------------------------------------- 
.................... // The random number implementation 
.................... //--------------------------------------------------------------------------- 
....................  
.................... unsigned int32 _Randseed; 
....................  
.................... unsigned int16 rand(void) 
.................... { 
....................    _Randseed = _Randseed * 1103515245 + 12345; 
....................    return ((unsigned int16)(_Randseed >> 16) % RAND_MAX); 
.................... } 
....................  
.................... void srand(unsigned int32 seed) 
.................... { 
....................    _Randseed = seed; 
.................... } 
....................  
.................... //--------------------------------------------------------------------------- 
.................... // Searching and sorting utilities implementation 
.................... //--------------------------------------------------------------------------- 
....................  
.................... #if !defined(__PCD__) 
.................... typedef signed int8 (*_Cmpfun)(char * p1,char * p2);  
.................... #else  
.................... typedef signed int16 (*_Cmpfun)(char * p1,char * p2);  
.................... #endif 
....................  
....................  
....................  
.................... void qsort(char * qdata, unsigned int qitems, unsigned int qsize, _Cmpfun cmp) { 
....................    unsigned int m,j,i,l; 
....................    int1 done; 
....................    unsigned int8 t[16]; 
....................  
....................    m = qitems/2; 
....................    while( m > 0 ) { 
....................      for(j=0; j<(qitems-m); ++j) { 
....................         i = j; 
....................         do 
....................         { 
....................            done=1; 
....................            l = i+m; 
....................            if( (*cmp)(qdata+i*qsize, qdata+l*qsize) > 0 ) { 
....................               memcpy(t, qdata+i*qsize, qsize); 
....................               memcpy(qdata+i*qsize, qdata+l*qsize, qsize); 
....................               memcpy(qdata+l*qsize, t, qsize); 
....................               if(m <= i) 
....................                 i -= m; 
....................                 done = 0; 
....................            } 
....................         } while(!done); 
....................      } 
....................      m = m/2; 
....................    } 
.................... } 
....................  
....................  
.................... char *bsearch(char *key, char *base, size_t num, size_t width,_Cmpfun cmp) 
.................... { 
....................    char *p, *q; 
....................    size_t n; 
....................    size_t pivot; 
....................    signed int val; 
....................  
....................    p = base; 
....................    n = num; 
....................  
....................    while (n > 0) 
....................    { 
....................       pivot = n >> 1; 
....................       q = p + width * pivot; 
....................  
....................       val = (*cmp)(key, q); 
....................  
....................       if (val < 0) 
....................          n = pivot; 
....................       else if (val == 0) 
....................          return ((char *)q); 
....................       else { 
....................          p = q + width; 
....................          n -= pivot + 1; 
....................       } 
....................    } 
....................  
....................    return NULL;      // There's no match 
.................... } 
....................  
....................  
.................... #endif 
....................  
.................... #include <DS1302.c> 
.................... ////////////////////////////////////////////////////////////////////////// 
.................... ////                               DS1302.C                           //// 
.................... ////                     Driver for Real Time Clock                   //// 
.................... ////                                                                  //// 
.................... ////  rtc_init()                                   Call after power up//// 
.................... ////                                                                  //// 
.................... ////  rtc_set_datetime(day,mth,year,dow,hour,min)  Set the date/time  //// 
.................... ////                                                                  //// 
.................... ////  rtc_get_date(day,mth,year,dow)               Get the date       //// 
.................... ////                                                                  //// 
.................... ////  rtc_get_time(hr,min,sec)                     Get the time       //// 
.................... ////                                                                  //// 
.................... ////  rtc_write_nvr(address,data)                  Write to NVR       //// 
.................... ////                                                                  //// 
.................... ////  data = rtc_read_nvr(address)                 Read from NVR      //// 
.................... ////                                                                  //// 
.................... ////  get_bcd(data)                              Convert data to BCD  //// 
.................... ////                                                                  //// 
.................... ////  rm_bcd(data)                               Convert data to int  //// 
.................... ////                                                                  //// 
.................... ////////////////////////////////////////////////////////////////////////// 
.................... ////        (C) Copyright 1996,2003 Custom Computer Services          //// 
.................... //// This source code may only be used by licensed users of the CCS C //// 
.................... //// compiler.  This source code may only be distributed to other     //// 
.................... //// licensed users of the CCS C compiler.  No other use, reproduction//// 
.................... //// or distribution is permitted without written permission.         //// 
.................... //// Derivative programs created using this software in object code   //// 
.................... //// form are not restricted in any way.                              //// 
.................... ////////////////////////////////////////////////////////////////////////// 
....................  
.................... //#ifndef RTC_SCLK 
....................  
.................... #define RTC_SCLK PIN_C0 
.................... #define RTC_IO   PIN_C1 
.................... #define RTC_RST  PIN_C2 
....................  
.................... //#endif 
....................  
.................... void write_ds1302_byte(BYTE cmd) { 
....................    BYTE i; 
....................  
....................    for(i=0;i<=7;++i) { 
*
03C40:  MOVLB  6
03C42:  CLRF   xD9
03C44:  MOVF   xD9,W
03C46:  SUBLW  07
03C48:  BNC   3C64
....................       output_bit(RTC_IO, shift_right(&cmd,1,0) ); 
03C4A:  BCF    FD8.0
03C4C:  RRCF   xD8,F
03C4E:  BC    3C54
03C50:  BCF    F8B.1
03C52:  BRA    3C56
03C54:  BSF    F8B.1
03C56:  BCF    F94.1
....................       output_high(RTC_SCLK); 
03C58:  BCF    F94.0
03C5A:  BSF    F8B.0
....................       output_low(RTC_SCLK); 
03C5C:  BCF    F94.0
03C5E:  BCF    F8B.0
....................    } 
03C60:  INCF   xD9,F
03C62:  BRA    3C44
.................... } 
03C64:  MOVLB  0
03C66:  RETLW  00
....................  
.................... void write_ds1302(BYTE cmd, BYTE data) { 
....................  
....................    output_high(RTC_RST); 
03C68:  BCF    F94.2
03C6A:  BSF    F8B.2
....................    write_ds1302_byte(cmd); 
03C6C:  MOVFF  6D6,6D8
03C70:  RCALL  3C40
....................    write_ds1302_byte(data); 
03C72:  MOVFF  6D7,6D8
03C76:  RCALL  3C40
....................    output_low(RTC_RST); 
03C78:  BCF    F94.2
03C7A:  BCF    F8B.2
.................... } 
03C7C:  RETLW  00
....................  
.................... BYTE read_ds1302(BYTE cmd) { 
....................    BYTE i,data; 
....................  
....................    output_high(RTC_RST); 
03C7E:  BCF    F94.2
03C80:  BSF    F8B.2
....................    write_ds1302_byte(cmd); 
03C82:  MOVFF  6D3,6D8
03C86:  RCALL  3C40
....................     
....................    input(RTC_IO); 
03C88:  BSF    F94.1
....................    delay_us(10); 
03C8A:  MOVLW  10
03C8C:  MOVWF  00
03C8E:  DECFSZ 00,F
03C90:  BRA    3C8E
03C92:  NOP   
....................           
....................    for(i=0;i<=7;++i) { 
03C94:  MOVLB  6
03C96:  CLRF   xD4
03C98:  MOVF   xD4,W
03C9A:  SUBLW  07
03C9C:  BNC   3CC8
....................       shift_right(&data,1,input(RTC_IO)); 
03C9E:  BSF    F94.1
03CA0:  BTFSC  F82.1
03CA2:  BRA    3CA8
03CA4:  BCF    FD8.0
03CA6:  BRA    3CAA
03CA8:  BSF    FD8.0
03CAA:  RRCF   xD5,F
....................       output_high(RTC_SCLK); 
03CAC:  BCF    F94.0
03CAE:  BSF    F8B.0
....................       delay_us(20); 
03CB0:  MOVLW  21
03CB2:  MOVWF  00
03CB4:  DECFSZ 00,F
03CB6:  BRA    3CB4
....................       output_low(RTC_SCLK); 
03CB8:  BCF    F94.0
03CBA:  BCF    F8B.0
....................       delay_us(20); 
03CBC:  MOVLW  21
03CBE:  MOVWF  00
03CC0:  DECFSZ 00,F
03CC2:  BRA    3CC0
....................    } 
03CC4:  INCF   xD4,F
03CC6:  BRA    3C98
....................    output_low(RTC_RST); 
03CC8:  BCF    F94.2
03CCA:  BCF    F8B.2
....................  
....................    return(data); 
03CCC:  MOVFF  6D5,01
.................... } 
03CD0:  MOVLB  0
03CD2:  RETLW  00
....................  
.................... void rtc_init() { 
....................    BYTE x; 
....................    output_low(RTC_RST); 
03CD4:  BCF    F94.2
03CD6:  BCF    F8B.2
....................    delay_us(20); 
03CD8:  MOVLW  21
03CDA:  MOVWF  00
03CDC:  DECFSZ 00,F
03CDE:  BRA    3CDC
....................    output_low(RTC_SCLK); 
03CE0:  BCF    F94.0
03CE2:  BCF    F8B.0
....................    write_ds1302(0x8e,0); 
03CE4:  MOVLW  8E
03CE6:  MOVLB  6
03CE8:  MOVWF  xD6
03CEA:  CLRF   xD7
03CEC:  MOVLB  0
03CEE:  RCALL  3C68
....................    write_ds1302(0x90,0xa4); 
03CF0:  MOVLW  90
03CF2:  MOVLB  6
03CF4:  MOVWF  xD6
03CF6:  MOVLW  A4
03CF8:  MOVWF  xD7
03CFA:  MOVLB  0
03CFC:  RCALL  3C68
....................    x=read_ds1302(0x81); 
03CFE:  MOVLW  81
03D00:  MOVLB  6
03D02:  MOVWF  xD3
03D04:  MOVLB  0
03D06:  RCALL  3C7E
03D08:  MOVFF  01,6CF
....................    if((x & 0x80)!=0) 
03D0C:  MOVLB  6
03D0E:  MOVF   xCF,W
03D10:  ANDLW  80
03D12:  BZ    3D20
....................      write_ds1302(0x80,0); 
03D14:  MOVLW  80
03D16:  MOVWF  xD6
03D18:  CLRF   xD7
03D1A:  MOVLB  0
03D1C:  RCALL  3C68
03D1E:  MOVLB  6
.................... } 
03D20:  MOVLB  0
03D22:  GOTO   8098 (RETURN)
....................  
.................... byte get_bcd(BYTE data) 
.................... { 
....................    byte nibh; 
....................    byte nibl; 
....................  
....................    nibh=data/10; 
*
063BA:  MOVFF  6D5,6D8
063BE:  MOVLW  0A
063C0:  MOVLB  6
063C2:  MOVWF  xD9
063C4:  MOVLB  0
063C6:  RCALL  5EEE
063C8:  MOVFF  01,6D6
....................    nibl=data-(nibh*10); 
063CC:  MOVLB  6
063CE:  MOVF   xD6,W
063D0:  MULLW  0A
063D2:  MOVF   FF3,W
063D4:  SUBWF  xD5,W
063D6:  MOVWF  xD7
....................  
....................    return((nibh<<4)|nibl); 
063D8:  SWAPF  xD6,W
063DA:  MOVWF  00
063DC:  MOVLW  F0
063DE:  ANDWF  00,F
063E0:  MOVF   00,W
063E2:  IORWF  xD7,W
063E4:  MOVWF  01
.................... } 
063E6:  MOVLB  0
063E8:  RETLW  00
....................  
.................... byte rm_bcd(BYTE data) 
.................... { 
....................    byte i; 
....................  
....................    i=data; 
*
05C24:  MOVFF  6D4,6D5
....................    data=(i>>4)*10; 
05C28:  MOVLB  6
05C2A:  SWAPF  xD5,W
05C2C:  MOVWF  00
05C2E:  MOVLW  0F
05C30:  ANDWF  00,F
05C32:  MOVF   00,W
05C34:  MULLW  0A
05C36:  MOVFF  FF3,6D4
....................    data=data+(i<<4>>4); 
05C3A:  SWAPF  xD5,W
05C3C:  MOVWF  00
05C3E:  MOVLW  F0
05C40:  ANDWF  00,F
05C42:  MOVF   00,W
05C44:  SWAPF  00,F
05C46:  MOVLW  0F
05C48:  ANDWF  00,F
05C4A:  MOVF   00,W
05C4C:  ADDWF  xD4,F
....................  
....................    return data; 
05C4E:  MOVFF  6D4,01
.................... } 
05C52:  MOVLB  0
05C54:  RETLW  00
....................  
.................... void rtc_set_datetime(BYTE day, BYTE mth, BYTE year, BYTE dow, BYTE hr, BYTE min) { 
....................  
....................    write_ds1302(0x86,get_bcd(day)); 
*
063EA:  MOVFF  6CF,6D5
063EE:  RCALL  63BA
063F0:  MOVFF  01,6D5
063F4:  MOVLW  86
063F6:  MOVLB  6
063F8:  MOVWF  xD6
063FA:  MOVFF  01,6D7
063FE:  MOVLB  0
06400:  CALL   3C68
....................    write_ds1302(0x88,get_bcd(mth)); 
06404:  MOVFF  6D0,6D5
06408:  RCALL  63BA
0640A:  MOVFF  01,6D5
0640E:  MOVLW  88
06410:  MOVLB  6
06412:  MOVWF  xD6
06414:  MOVFF  01,6D7
06418:  MOVLB  0
0641A:  CALL   3C68
....................    write_ds1302(0x8c,get_bcd(year)); 
0641E:  MOVFF  6D1,6D5
06422:  RCALL  63BA
06424:  MOVFF  01,6D5
06428:  MOVLW  8C
0642A:  MOVLB  6
0642C:  MOVWF  xD6
0642E:  MOVFF  01,6D7
06432:  MOVLB  0
06434:  CALL   3C68
....................    write_ds1302(0x8a,get_bcd(dow)); 
06438:  MOVFF  6D2,6D5
0643C:  RCALL  63BA
0643E:  MOVFF  01,6D5
06442:  MOVLW  8A
06444:  MOVLB  6
06446:  MOVWF  xD6
06448:  MOVFF  01,6D7
0644C:  MOVLB  0
0644E:  CALL   3C68
....................    write_ds1302(0x84,get_bcd(hr)); 
06452:  MOVFF  6D3,6D5
06456:  RCALL  63BA
06458:  MOVFF  01,6D5
0645C:  MOVLW  84
0645E:  MOVLB  6
06460:  MOVWF  xD6
06462:  MOVFF  01,6D7
06466:  MOVLB  0
06468:  CALL   3C68
....................    write_ds1302(0x82,get_bcd(min)); 
0646C:  MOVFF  6D4,6D5
06470:  RCALL  63BA
06472:  MOVFF  01,6D5
06476:  MOVLW  82
06478:  MOVLB  6
0647A:  MOVWF  xD6
0647C:  MOVFF  01,6D7
06480:  MOVLB  0
06482:  CALL   3C68
....................    write_ds1302(0x80,get_bcd(0)); 
06486:  MOVLB  6
06488:  CLRF   xD5
0648A:  MOVLB  0
0648C:  RCALL  63BA
0648E:  MOVFF  01,6D5
06492:  MOVLW  80
06494:  MOVLB  6
06496:  MOVWF  xD6
06498:  MOVFF  01,6D7
0649C:  MOVLB  0
0649E:  CALL   3C68
.................... } 
064A2:  GOTO   A49A (RETURN)
....................  
.................... void rtc_get_date(BYTE& day, BYTE& mth, BYTE& year, BYTE& dow) { 
....................    day = rm_bcd(read_ds1302(0x87)); 
*
08216:  MOVLW  87
08218:  MOVLB  6
0821A:  MOVWF  xD3
0821C:  MOVLB  0
0821E:  CALL   3C7E
08222:  MOVFF  01,6CF
08226:  MOVFF  01,6D4
0822A:  CALL   5C24
0822E:  MOVFF  01,2BA
....................    mth = rm_bcd(read_ds1302(0x89)); 
08232:  MOVLW  89
08234:  MOVLB  6
08236:  MOVWF  xD3
08238:  MOVLB  0
0823A:  CALL   3C7E
0823E:  MOVFF  01,6CF
08242:  MOVFF  01,6D4
08246:  CALL   5C24
0824A:  MOVFF  01,2B9
....................    year = rm_bcd(read_ds1302(0x8d)); 
0824E:  MOVLW  8D
08250:  MOVLB  6
08252:  MOVWF  xD3
08254:  MOVLB  0
08256:  CALL   3C7E
0825A:  MOVFF  01,6CF
0825E:  MOVFF  01,6D4
08262:  CALL   5C24
08266:  MOVFF  01,2B8
....................    dow = rm_bcd(read_ds1302(0x8b)); 
0826A:  MOVLW  8B
0826C:  MOVLB  6
0826E:  MOVWF  xD3
08270:  MOVLB  0
08272:  CALL   3C7E
08276:  MOVFF  01,6CF
0827A:  MOVFF  01,6D4
0827E:  CALL   5C24
08282:  MOVFF  01,2BE
.................... } 
....................  
.................... void rtc_get_time(BYTE& hr, BYTE& min, BYTE& sec) { 
....................    hr = rm_bcd(read_ds1302(0x85)); 
08286:  MOVLW  85
08288:  MOVLB  6
0828A:  MOVWF  xD3
0828C:  MOVLB  0
0828E:  CALL   3C7E
08292:  MOVFF  01,6CF
08296:  MOVFF  01,6D4
0829A:  CALL   5C24
0829E:  MOVFF  01,2BB
....................    min = rm_bcd(read_ds1302(0x83)); 
082A2:  MOVLW  83
082A4:  MOVLB  6
082A6:  MOVWF  xD3
082A8:  MOVLB  0
082AA:  CALL   3C7E
082AE:  MOVFF  01,6CF
082B2:  MOVFF  01,6D4
082B6:  CALL   5C24
082BA:  MOVFF  01,2BC
....................    sec = rm_bcd(read_ds1302(0x81)); 
082BE:  MOVLW  81
082C0:  MOVLB  6
082C2:  MOVWF  xD3
082C4:  MOVLB  0
082C6:  CALL   3C7E
082CA:  MOVFF  01,6CF
082CE:  MOVFF  01,6D4
082D2:  CALL   5C24
082D6:  MOVFF  01,2BD
.................... } 
....................  
.................... void rtc_write_nvr(BYTE address, BYTE data) { 
....................    write_ds1302(address|0xc0,data); 
.................... } 
....................  
.................... BYTE rtc_read_nvr(BYTE address) { 
....................     return(read_ds1302(address|0xc1)); 
.................... } 
....................  
.................... #include <24512.c> 
.................... /////////////////////////////////////////////////////////////////////////// 
.................... ////   Library for a 24LC512 serial EEPROM                             //// 
.................... ////                                                                   //// 
.................... ////   init_ext_eeprom();    Call before the other functions are used  //// 
.................... ////                                                                   //// 
.................... ////   write_ext_eeprom(a, d);  Write the byte d to the address a      //// 
.................... ////                                                                   //// 
.................... ////   d = read_ext_eeprom(a);   Read the byte d from the address a    //// 
.................... ////                                                                   //// 
.................... ////   The main program may define eeprom_sda                          //// 
.................... ////   and eeprom_scl to override the defaults below.                  //// 
.................... ////                                                                   //// 
.................... /////////////////////////////////////////////////////////////////////////// 
.................... ////        (C) Copyright 1996,2003 Custom Computer Services           //// 
.................... //// This source code may only be used by licensed users of the CCS C  //// 
.................... //// compiler.  This source code may only be distributed to other      //// 
.................... //// licensed users of the CCS C compiler.  No other use, reproduction //// 
.................... //// or distribution is permitted without written permission.          //// 
.................... //// Derivative programs created using this software in object code    //// 
.................... //// form are not restricted in any way.                               //// 
.................... /////////////////////////////////////////////////////////////////////////// 
....................  
.................... #ifndef EEPROM_SDA 
....................  
.................... #define EEPROM_SDA  PIN_C4 
.................... #define EEPROM_SCL  PIN_C3 
....................  
.................... #endif 
....................  
.................... #use i2c(master, sda=EEPROM_SDA, scl=EEPROM_SCL) 
*
02672:  MOVLW  08
02674:  MOVWF  01
02676:  MOVLW  05
02678:  MOVWF  00
0267A:  DECFSZ 00,F
0267C:  BRA    267A
0267E:  BCF    F8B.3
02680:  BCF    F94.3
02682:  MOVLW  06
02684:  MOVWF  00
02686:  DECFSZ 00,F
02688:  BRA    2686
0268A:  MOVLB  6
0268C:  RLCF   xE5,F
0268E:  BCF    F8B.4
02690:  BTFSC  FD8.0
02692:  BSF    F94.4
02694:  BTFSS  FD8.0
02696:  BCF    F94.4
02698:  BSF    F94.3
0269A:  BTFSS  F82.3
0269C:  BRA    269A
0269E:  DECFSZ 01,F
026A0:  BRA    26A4
026A2:  BRA    26A8
026A4:  MOVLB  0
026A6:  BRA    2676
026A8:  MOVLW  05
026AA:  MOVWF  00
026AC:  DECFSZ 00,F
026AE:  BRA    26AC
026B0:  BCF    F8B.3
026B2:  BCF    F94.3
026B4:  NOP   
026B6:  BSF    F94.4
026B8:  MOVLW  06
026BA:  MOVWF  00
026BC:  DECFSZ 00,F
026BE:  BRA    26BC
026C0:  MOVLW  06
026C2:  MOVWF  00
026C4:  DECFSZ 00,F
026C6:  BRA    26C4
026C8:  BSF    F94.3
026CA:  BTFSS  F82.3
026CC:  BRA    26CA
026CE:  CLRF   01
026D0:  MOVLW  06
026D2:  MOVWF  00
026D4:  DECFSZ 00,F
026D6:  BRA    26D4
026D8:  BTFSC  F82.4
026DA:  BSF    01.0
026DC:  BCF    F8B.3
026DE:  BCF    F94.3
026E0:  BCF    F8B.4
026E2:  BCF    F94.4
026E4:  MOVLB  0
026E6:  RETLW  00
026E8:  MOVLW  08
026EA:  MOVLB  6
026EC:  MOVWF  xD8
026EE:  MOVFF  00,6D9
026F2:  BSF    F94.4
026F4:  MOVLW  06
026F6:  MOVWF  00
026F8:  DECFSZ 00,F
026FA:  BRA    26F8
026FC:  BSF    F94.3
026FE:  BTFSS  F82.3
02700:  BRA    26FE
02702:  BTFSC  F82.4
02704:  BSF    FD8.0
02706:  BTFSS  F82.4
02708:  BCF    FD8.0
0270A:  RLCF   01,F
0270C:  MOVLW  05
0270E:  MOVWF  00
02710:  DECFSZ 00,F
02712:  BRA    2710
02714:  BCF    F94.3
02716:  BCF    F8B.3
02718:  DECFSZ xD8,F
0271A:  BRA    26F2
0271C:  BSF    F94.4
0271E:  MOVLW  06
02720:  MOVWF  00
02722:  DECFSZ 00,F
02724:  BRA    2722
02726:  BCF    F8B.4
02728:  MOVF   xD9,W
0272A:  BTFSS  FD8.2
0272C:  BCF    F94.4
0272E:  NOP   
02730:  BSF    F94.3
02732:  BTFSS  F82.3
02734:  BRA    2732
02736:  MOVLW  05
02738:  MOVWF  00
0273A:  DECFSZ 00,F
0273C:  BRA    273A
0273E:  BCF    F8B.3
02740:  BCF    F94.3
02742:  MOVLW  06
02744:  MOVWF  00
02746:  DECFSZ 00,F
02748:  BRA    2746
0274A:  BCF    F8B.4
0274C:  BCF    F94.4
0274E:  MOVLB  0
02750:  RETLW  00
....................  
.................... #define EEPROM_ADDRESS long int 
.................... #define EEPROM_SIZE   65535 
....................  
.................... void init_ext_eeprom() 
.................... { 
....................    output_float(EEPROM_SCL); 
....................    output_float(EEPROM_SDA); 
....................  
.................... } 
....................  
.................... void write_ext_eeprom(long int address, BYTE data) 
.................... { 
....................    short int status; 
....................    i2c_start(); 
*
06E00:  BSF    F94.4
06E02:  MOVLW  05
06E04:  MOVWF  00
06E06:  DECFSZ 00,F
06E08:  BRA    6E06
06E0A:  BSF    F94.3
06E0C:  MOVLW  06
06E0E:  MOVWF  00
06E10:  DECFSZ 00,F
06E12:  BRA    6E10
06E14:  BCF    F8B.4
06E16:  BCF    F94.4
06E18:  MOVLW  05
06E1A:  MOVWF  00
06E1C:  DECFSZ 00,F
06E1E:  BRA    6E1C
06E20:  BCF    F8B.3
06E22:  BCF    F94.3
....................    i2c_write(0xa0); 
06E24:  MOVLW  A0
06E26:  MOVLB  6
06E28:  MOVWF  xE5
06E2A:  MOVLB  0
06E2C:  CALL   2672
....................    i2c_write(address>>8); 
06E30:  MOVFF  6D7,6DA
06E34:  MOVLB  6
06E36:  CLRF   xDB
06E38:  MOVFF  6D7,6E5
06E3C:  MOVLB  0
06E3E:  CALL   2672
....................    i2c_write(address); 
06E42:  MOVFF  6D6,6E5
06E46:  CALL   2672
....................    i2c_write(data); 
06E4A:  MOVFF  6D8,6E5
06E4E:  CALL   2672
....................    i2c_stop(); 
06E52:  BCF    F94.4
06E54:  NOP   
06E56:  BSF    F94.3
06E58:  BTFSS  F82.3
06E5A:  BRA    6E58
06E5C:  MOVLW  05
06E5E:  MOVWF  00
06E60:  DECFSZ 00,F
06E62:  BRA    6E60
06E64:  BRA    6E66
06E66:  NOP   
06E68:  BSF    F94.4
06E6A:  MOVLW  05
06E6C:  MOVWF  00
06E6E:  DECFSZ 00,F
06E70:  BRA    6E6E
....................    i2c_start(); 
06E72:  BSF    F94.4
06E74:  MOVLW  05
06E76:  MOVWF  00
06E78:  DECFSZ 00,F
06E7A:  BRA    6E78
06E7C:  BSF    F94.3
06E7E:  MOVLW  06
06E80:  MOVWF  00
06E82:  DECFSZ 00,F
06E84:  BRA    6E82
06E86:  BCF    F8B.4
06E88:  BCF    F94.4
06E8A:  MOVLW  05
06E8C:  MOVWF  00
06E8E:  DECFSZ 00,F
06E90:  BRA    6E8E
06E92:  BCF    F8B.3
06E94:  BCF    F94.3
....................    status=i2c_write(0xa0); 
06E96:  MOVLW  A0
06E98:  MOVLB  6
06E9A:  MOVWF  xE5
06E9C:  MOVLB  0
06E9E:  CALL   2672
06EA2:  MOVF   01,W
06EA4:  MOVLB  6
06EA6:  BCF    xD9.0
06EA8:  BTFSC  01.0
06EAA:  BSF    xD9.0
....................    //while(status==1) 
....................    //{ 
....................       i2c_start(); 
06EAC:  BSF    F94.4
06EAE:  MOVLW  05
06EB0:  MOVWF  00
06EB2:  DECFSZ 00,F
06EB4:  BRA    6EB2
06EB6:  BSF    F94.3
06EB8:  MOVLW  06
06EBA:  MOVWF  00
06EBC:  DECFSZ 00,F
06EBE:  BRA    6EBC
06EC0:  BTFSS  F82.3
06EC2:  BRA    6EC0
06EC4:  BCF    F8B.4
06EC6:  BCF    F94.4
06EC8:  MOVLW  05
06ECA:  MOVWF  00
06ECC:  DECFSZ 00,F
06ECE:  BRA    6ECC
06ED0:  BCF    F8B.3
06ED2:  BCF    F94.3
....................       status=i2c_write(0xa0); 
06ED4:  MOVLW  A0
06ED6:  MOVWF  xE5
06ED8:  MOVLB  0
06EDA:  CALL   2672
06EDE:  MOVF   01,W
06EE0:  MOVLB  6
06EE2:  BCF    xD9.0
06EE4:  BTFSC  01.0
06EE6:  BSF    xD9.0
....................    //} 
....................    i2c_stop(); 
06EE8:  BCF    F94.4
06EEA:  NOP   
06EEC:  BSF    F94.3
06EEE:  BTFSS  F82.3
06EF0:  BRA    6EEE
06EF2:  MOVLW  05
06EF4:  MOVWF  00
06EF6:  DECFSZ 00,F
06EF8:  BRA    6EF6
06EFA:  BRA    6EFC
06EFC:  NOP   
06EFE:  BSF    F94.4
06F00:  MOVLW  05
06F02:  MOVWF  00
06F04:  DECFSZ 00,F
06F06:  BRA    6F04
.................... } 
06F08:  MOVLB  0
06F0A:  RETLW  00
....................  
.................... BYTE read_ext_eeprom(long int address) { 
....................    BYTE data; 
....................    i2c_start(); 
*
02752:  BSF    F94.4
02754:  MOVLW  05
02756:  MOVWF  00
02758:  DECFSZ 00,F
0275A:  BRA    2758
0275C:  BSF    F94.3
0275E:  MOVLW  06
02760:  MOVWF  00
02762:  DECFSZ 00,F
02764:  BRA    2762
02766:  BCF    F8B.4
02768:  BCF    F94.4
0276A:  MOVLW  05
0276C:  MOVWF  00
0276E:  DECFSZ 00,F
02770:  BRA    276E
02772:  BCF    F8B.3
02774:  BCF    F94.3
....................    i2c_write(0xa0); 
02776:  MOVLW  A0
02778:  MOVLB  6
0277A:  MOVWF  xE5
0277C:  MOVLB  0
0277E:  RCALL  2672
....................    i2c_write(address>>8); 
02780:  MOVFF  6D5,6D7
02784:  MOVLB  6
02786:  CLRF   xD8
02788:  MOVFF  6D5,6E5
0278C:  MOVLB  0
0278E:  RCALL  2672
....................    i2c_write(address); 
02790:  MOVFF  6D4,6E5
02794:  RCALL  2672
....................    i2c_start(); 
02796:  BSF    F94.4
02798:  MOVLW  05
0279A:  MOVWF  00
0279C:  DECFSZ 00,F
0279E:  BRA    279C
027A0:  BSF    F94.3
027A2:  MOVLW  06
027A4:  MOVWF  00
027A6:  DECFSZ 00,F
027A8:  BRA    27A6
027AA:  BTFSS  F82.3
027AC:  BRA    27AA
027AE:  BCF    F8B.4
027B0:  BCF    F94.4
027B2:  MOVLW  05
027B4:  MOVWF  00
027B6:  DECFSZ 00,F
027B8:  BRA    27B6
027BA:  BCF    F8B.3
027BC:  BCF    F94.3
....................    i2c_write(0xa1); 
027BE:  MOVLW  A1
027C0:  MOVLB  6
027C2:  MOVWF  xE5
027C4:  MOVLB  0
027C6:  RCALL  2672
....................    data=i2c_read(0); 
027C8:  CLRF   00
027CA:  RCALL  26E8
027CC:  MOVFF  01,6D6
....................    i2c_stop(); 
027D0:  BCF    F94.4
027D2:  NOP   
027D4:  BSF    F94.3
027D6:  BTFSS  F82.3
027D8:  BRA    27D6
027DA:  MOVLW  05
027DC:  MOVWF  00
027DE:  DECFSZ 00,F
027E0:  BRA    27DE
027E2:  BRA    27E4
027E4:  NOP   
027E6:  BSF    F94.4
027E8:  MOVLW  05
027EA:  MOVWF  00
027EC:  DECFSZ 00,F
027EE:  BRA    27EC
....................    return(data); 
027F0:  MOVLB  6
027F2:  MOVFF  6D6,01
.................... } 
027F6:  MOVLB  0
027F8:  RETLW  00
....................  
....................  
.................... #define   STOP          !input(PIN_B0) 
.................... #define   DOORS         !input(PIN_B1) 
.................... #define   LOWB          !input(PIN_B2) 
.................... #define   EMPAQUES      !input(PIN_B3) 
....................  
.................... #define   UP            !input(PIN_B4) 
.................... #define   DOWN          !input(PIN_B5) 
.................... #define   RIGHT         !input(PIN_B6) 
.................... #define   LEFT          !input(PIN_B7) 
....................  
.................... //#define   EMPAQUEL      !input(PIN_B4) 
.................... //#define   DOORL         !input(PIN_B5) 
.................... //#define   BLOQUEOS      !input(PIN_B6) 
.................... //#define   BLOQUEOL      !input(PIN_B7) 
....................  
.................... // Variables creada para no eliminar entradas creadas del programa anterior 
.................... short EMPAQUEL,DOORL,BLOQUEOS,BLOQUEOL; 
.................... #define OFF 0 
.................... #define ON  1 
.................... #define RX_BUFFER_SIZE  10 
.................... char Rx_Buffer[RX_BUFFER_SIZE+1]; 
.................... char Rx_Buffer2[RX_BUFFER_SIZE+1]; 
.................... char RX_Wr_Index=0; 
....................  
.................... //Comunicacion//------------------------ 
.................... byte txbuf[0X25]; 
.................... byte SlaveB0Tx[0X26]; 
.................... byte SlaveC0Tx[0X25]; 
.................... byte SlaveC0Rx[0X25]; 
.................... byte dato=0;            //Contendr la informacin a enviar o recibir 
.................... byte direccion=0;       //Contendr la direccin del esclavo en el bus I2C 
.................... byte posicion=0;        //Contendr la posicin en el buffer de memoria del esclavo donde se almacenar o de donde se recuperar el dato 
.................... //byte ByteConfig1=0,ByteConfig2=0,ByteConfig3=0; 
....................  
.................... /* Tabla de Modulos, Primera Fila Ao Regular y el siguiente ao Bisiesto 
.................... E   F   M   A   M   J   J   A   S   O   N   D 
.................... 0   3   3   6   1   4   6   2   5   0   3   5 
.................... 0   3   4   0   2   5   0   3   6   1   4   6 
.................... */ 
.................... int8 Regular[12]={0,3,3,6,1,4,6,2,5,0,3,5}; 
.................... int8 Bisiesto[12]={0,3,4,0,2,5,0,3,6,1,4,6}; 
....................  
.................... //Salidas//------------------------ 
.................... short suministroAire=OFF,aguaEnfriador=OFF,bombaVacio=OFF,empaqueLimpio=OFF,empaqueSucio=OFF,suministroVapor=OFF,Paso=OFF,outVacio=OFF,Desfogue=OFF,Aire=OFF,cilindroSucio=OFF,cilindroLimpio=OFF,Aux=OFF; 
.................... short seguroValvula=OFF,seguroValvula2=OFF,EstadoAux1=OFF,EstadoAux2=OFF; 
....................  
.................... //Alarmas//--------------------- 
.................... short AlarmaTiempoProlongado=OFF,AlarmaSobreTemperatura=OFF,AlarmaTermostato=OFF,AlarmaPuertaS=OFF,AlarmaPuertaL=OFF,AlarmaEmergencia=OFF,AlarmaVacio=OFF,AlarmaEmpaqueL=OFF,AlarmaEmpaqueS=OFF; 
.................... short AlarmaBomba=OFF,guardaCiclo=OFF,Cilindro=OFF,AlarmaLlenado=OFF,cerroSucio=OFF,cerroLimpio=OFF,pulsoSubirS=OFF,pulsoSubirL=OFF,vacioEmpaqueL=OFF,vacioEmpaqueS=OFF,abrirPuertaL=OFF,abrirPuertaS=OFF,pulsoBajarS=OFF; 
.................... int16 TiempoVacio=600,tVacioEmpaqueS=0,tVacioEmpaqueL=0; 
....................  
.................... //Banderas//-------------------- 
.................... short EstadoAguaEnfriador=OFF,EstadoSuministroV=OFF,EstadoCilindrosL=OFF,EstadoCilindrosS=OFF,EstadoEmpaqueL=OFF,EstadoEmpaqueS=OFF,oprimioIniciar=OFF,oprimioCiclo=OFF,oprimioCicloP=OFF,oprimioConfig=OFF; 
.................... short IniciaLlenado=OFF,IniciaCiclo=OFF,Esterilizando=OFF,Secando=OFF,SensadoNivel=OFF,Desfogando=OFF,DesfogueSuave=OFF,CalderinLleno=OFF,Start=OFF; 
.................... short EstadoDesfogue=OFF,EstadoSuministro=OFF,EstadoAire=OFF,PruebaEstados=OFF,disp_Guarda=OFF,Ciclo=OFF,EstadoAgua2=OFF; 
.................... short Op=OFF,Op2=OFF,Minutos=OFF,Segundos=OFF,GuardaEEPROM=OFF,EstadoPaso=OFF,EstadoVacio=OFF,EstadoBuzzer=OFF,flagAlarma=OFF; 
.................... short flagBuzzer=OFF,flagSilencio=OFF,Finalizo=OFF,AlarmaPresion=OFF,EstadoACierre=OFF,EstadoBomba=OFF,Libre=OFF,ingreso=OFF,Fugas=OFF; 
.................... short PreCalentamiento=OFF,IniciaVacio=OFF,IniciaVacio2=OFF,Vacio=OFF,flag_vac=OFF,flag_vacio=OFF,flag_pulso=OFF,EstadoAireBomba=OFF; 
.................... short SensadoNivelL=OFF,NivelBajo=OFF,onBomba=OFF,flagBombaAgua=OFF,flagBombaAguaOff=OFF,flagImprimir=OFF,entro=OFF; 
.................... short EstadoEmpaque=OFF,EstadoSSR1=OFF,EstadoSSR2=OFF,ReservorioLleno=OFF,SensadoNivelR=OFF; 
....................  
.................... //Tiempos//--------------------- 
.................... int16 TiempoCiclo=0,TiempoSensadoNivel=0,Tp=0,Tc=0,tguarda=0,tNivelBajo=0,tIniciar=0,tCiclof=0,tCicloP=0,tConfig=0,TiempoLlenado=OFF; 
.................... int8 sEst=0,mEst=0,sSec=0,mSec=0,sEstp=0,mEstp=0,sSecp=0,mSecp=0;// Tiempo transcurrido 
....................  
.................... //Control//------------------------ 
.................... float PromPresion[20]={0.0,0.0,0.0,0.0,0.0,0.0,0.0,0.0,0.0,0.0,0.0,0.0,0.0,0.0,0.0,0.0,0.0,0.0,0.0,0.0}; 
.................... float PromPresionp[20]={0.0,0.0,0.0,0.0,0.0,0.0,0.0,0.0,0.0,0.0,0.0,0.0,0.0,0.0,0.0,0.0,0.0,0.0,0.0,0.0}; 
.................... float Temporal=0.0,Aumento=0.0,tmp2=0.0; 
.................... float K=0.0012858; 
.................... float R10=6800,AN=0,BN=0; 
.................... float X[2]={0.0,0.0}; 
.................... float promediopresion=0.0,promediopresionp=0.0; 
.................... int8 h=0,l=0,MediaMovil=20,PantallaPrincipal=0,TipoClave=0,Modulo=0,TiempoSensadoNivelR=0,subirPuertaLimpio=0,cerroSucioInt=0,cerroLimpioInt=0; 
.................... float V0=0.0,Pt,Tciclo=10.0,Tpulso=0.0,error=0.0,Prom=0.0,Temperature=0.0,tmp=0.0,Ganancia=25.0,Ganancia2=20.0,desvio=1.0; 
.................... float V1=0.0,Presion=0.0,V2=0.0,Presionp=0.0; 
.................... float Temperatura=0.0,Temperatura2=0.0; 
.................... float a=0.0011,b=2.3302,c=-244.0723; 
.................... int8 Integral=0,Derivativo=0,CicloLibre=0,pulsosConfigurados=6,vacioTest=17,vacioCiclo=25; 
.................... float p1=0.0000011617,p2=-0.0010575,p3=0.44114,p4=65.043,Tactual=0.0; 
.................... //float p1=-0.00036062,p2=0.30947,p3=72.816,Tactual=0.0; 
....................  
.................... //Varios//-------------------------------- 
.................... short desfoguelento=0,Lectura=0,Grafica=0; 
.................... short disp_Stop=0,flagTC=0,flagImprime=0; 
.................... int8 Control=0,tiemporecta=0,Controlando=0,timpresion=2,CalculoImpresion=0,Inicio=1,Dato_Exitoso=0,Dato2=0,Codigo=0; 
.................... int8 Menu=0, MenuAnt=0,MenuAntt=240,i=0,CiclosL=0,CiclosH=0,CicloSeleccionado=0,Tapertura=0; 
.................... int16 CantidadPulsos=4,tEmpaqueS=0,tEmpaqueL=0,tEnfriador=0; 
.................... int8 Setpoint=0,Opcion=1,Opcion2=1,tiempo_esterilizacion=0,tiempo_secado=0; 
.................... int16 tiempos=0,tiempos2=0,tiempos3=0,tiempoctrl=0,Nivel=0,tinicio=0,PresionCamara=0,PresionPreCamara=0,Ciclos=0,tbomba=0,tvacio=0,tiempoImpresion=0,PresionFinal=0; 
.................... signed int  Password[4]={0,0,0,0};        // Contrasena Almacenada de 4 digitos 
.................... int8 r=0,t=0,r22=0,t2=0,TiempoControl=0,NivelDes=0; 
.................... int8 y=0,ConteoBuzzer=0,posicionDato=0,codigoAlarma=0,codigoAnt=0,codigoUsuario2=0; 
.................... int16 tbuzzer=0,tsilencio=0,tStop=0; 
.................... int8 Year=18,Mes=9,Dia=13,Hora=0,Minuto=0,Segundo=0,dow=0,cicloVisualizado=0,cicloVisto=0,NivelVacio=25,Atmosferica=75,PulsoPositivo=10,PulsosVacio=0; 
.................... int8 YearTx=0,MesTx=0,DiaTx=0,HoraTx=0,MinutoTx=0,dowTx=0,SetTime=0,Imprime=0,Pulsos=0,j=0,codigoUsuario=0,codigoUsuarioant=0; 
.................... signed int8 G1=0,G2=0,sg1=0,sg2=0; 
.................... const char Texto[12][20]={"CALENTAMIENTO","NO ENVUELTOS 134","NO ENVUELTOS 121","ENVUELTOS 134","ENVUELTOS 121","ENVUELTO DOBLE 1", 
.................... "ENVUELTO DOBLE 2","PRION","BOWIE & DICK","TEST DE FUGAS","TEST DE COMPONENTES","HORA Y FECHA"}; 
....................  
.................... //Textil & Instrumental 134C, 5m,15m 
.................... //Prion 134C, 20m,15m 
.................... //Caucho 121C, 25m,15m 
.................... //Contenedores 134C, 5m,25m 
.................... //Rapid 134C, 5m,8m 
....................  
.................... char usuario[20]; 
.................... float TCiclos[7]; 
.................... int16 PcCiclos[7]; 
.................... int16 PpcCiclos[7]; 
.................... int8 horaCiclos[7]; 
.................... int8 minutoCiclos[7]; 
.................... int8 ACiclos[7]; 
.................... int8 diaCiclos=0,mesCiclos=0,yearCiclos=0,usuarioCiclos=0,cicloCiclos=0; 
.................... short estados[30]={0,0,0,0,0,0,0,0,0,0,0,0,0,0,0,0,0,0,0,0,0,0,0,0,0,0,0,0,0,0}; 
....................  
.................... typedef struct{ 
....................    int8 Password[4]; 
.................... }Claves; 
....................  
.................... typedef struct{ 
....................    int8 Temperatura; 
....................    int8 Minutoest; 
....................    int8 Segundoest; 
....................    int8 Minutosec; 
....................    int8 Segundosec; 
....................    int8 PulsosVacio; 
....................    int8 NivelVacio; 
....................    int8 NivelDesfogue; 
.................... }Personalizado; 
....................  
.................... typedef struct{ 
....................    float BN; 
....................    float AN; 
....................    float V0; 
....................    float Pt; 
....................    float RPT100; 
....................    int8 l; 
....................    int8 h; 
....................    float Prom; 
....................    float Temperature; 
....................    int8 Ajuste; 
....................    int8 Ajusten; 
....................    float promedio[80]; 
....................    float Gain; 
.................... }SensorPT100; 
....................  
.................... SensorPT100 Sensor[2]; 
.................... Personalizado CiclosPersonalizados[20]; 
.................... Claves Clave[10]; 
....................  
.................... #include "Funciones.h" 
....................  
.................... void BorraBuffer(void){ 
.................... RX_Buffer[0]=0; 
*
05DE6:  CLRF   31
.................... RX_Buffer[1]=0; 
05DE8:  CLRF   32
.................... RX_Buffer[2]=0; 
05DEA:  CLRF   33
.................... RX_Buffer[3]=0; 
05DEC:  CLRF   34
.................... RX_Buffer[4]=0; 
05DEE:  CLRF   35
.................... RX_Buffer[5]=0; 
05DF0:  CLRF   36
.................... RX_Buffer[6]=0; 
05DF2:  CLRF   37
.................... RX_Buffer[7]=0; 
05DF4:  CLRF   38
.................... RX_Buffer[8]=0; 
05DF6:  CLRF   39
.................... RX_Buffer[9]=0; 
05DF8:  CLRF   3A
....................  
.................... RX_Buffer2[0]=0; 
05DFA:  CLRF   3C
.................... RX_Buffer2[1]=0; 
05DFC:  CLRF   3D
.................... RX_Buffer2[2]=0; 
05DFE:  CLRF   3E
.................... RX_Buffer2[3]=0; 
05E00:  CLRF   3F
.................... RX_Buffer2[4]=0; 
05E02:  CLRF   40
.................... RX_Buffer2[5]=0; 
05E04:  CLRF   41
.................... RX_Buffer2[6]=0; 
05E06:  CLRF   42
.................... RX_Buffer2[7]=0; 
05E08:  CLRF   43
.................... RX_Buffer2[8]=0; 
05E0A:  CLRF   44
.................... RX_Buffer2[9]=0; 
05E0C:  CLRF   45
.................... } 
05E0E:  GOTO   5E86 (RETURN)
....................  
.................... void SendDataDisplay(void){ 
.................... delay_us(10); 
*
0442E:  MOVLW  10
04430:  MOVWF  00
04432:  DECFSZ 00,F
04434:  BRA    4432
04436:  NOP   
.................... putc(0xFF); 
04438:  MOVLW  FF
0443A:  RCALL  4426
.................... delay_us(10); 
0443C:  MOVLW  10
0443E:  MOVWF  00
04440:  DECFSZ 00,F
04442:  BRA    4440
04444:  NOP   
.................... putc(0xFF); 
04446:  MOVLW  FF
04448:  RCALL  4426
.................... delay_us(10); 
0444A:  MOVLW  10
0444C:  MOVWF  00
0444E:  DECFSZ 00,F
04450:  BRA    444E
04452:  NOP   
.................... putc(0xFF); 
04454:  MOVLW  FF
04456:  RCALL  4426
.................... delay_us(10); 
04458:  MOVLW  10
0445A:  MOVWF  00
0445C:  DECFSZ 00,F
0445E:  BRA    445C
04460:  NOP   
.................... } 
04462:  RETLW  00
....................  
.................... short esBisiesto(int8 year) { 
....................      return ((year % 4 == 0 && year % 100 != 0) || year % 400 == 0); 
*
06368:  MOVLB  6
0636A:  MOVF   xCF,W
0636C:  ANDLW  03
0636E:  BNZ   6382
06370:  MOVFF  6CF,6D8
06374:  MOVLW  64
06376:  MOVWF  xD9
06378:  MOVLB  0
0637A:  RCALL  5EEE
0637C:  MOVF   00,F
0637E:  BNZ   63B0
06380:  MOVLB  6
06382:  CLRF   xD4
06384:  MOVFF  6CF,6D3
06388:  MOVLW  01
0638A:  MOVWF  xD6
0638C:  MOVLW  90
0638E:  MOVWF  xD5
06390:  MOVLB  0
06392:  RCALL  6322
06394:  MOVFF  00,6D0
06398:  MOVLB  6
0639A:  MOVFF  03,6D1
0639E:  MOVF   xD0,F
063A0:  BNZ   63AC
063A2:  MOVF   xD1,F
063A4:  BTFSS  FD8.2
063A6:  BRA    63AC
063A8:  MOVLB  0
063AA:  BRA    63B0
063AC:  MOVLW  00
063AE:  BRA    63B4
063B0:  MOVLW  01
063B2:  MOVLB  6
063B4:  MOVWF  01
.................... } 
063B6:  MOVLB  0
063B8:  RETLW  00
....................  
.................... void LimitaDia(){ 
....................    if(MesTx>12) 
*
064A6:  MOVLB  2
064A8:  MOVF   xC6,W
064AA:  SUBLW  0C
064AC:  BC    64B2
....................       MesTx=10; 
064AE:  MOVLW  0A
064B0:  MOVWF  xC6
....................    if(DiaTx>31) 
064B2:  MOVF   xC7,W
064B4:  SUBLW  1F
064B6:  BC    64BC
....................       DiaTx=16; 
064B8:  MOVLW  10
064BA:  MOVWF  xC7
....................    if(YearTx>99) 
064BC:  MOVF   xC5,W
064BE:  SUBLW  63
064C0:  BC    64C6
....................       YearTx=18;    
064C2:  MOVLW  12
064C4:  MOVWF  xC5
....................    if(HoraTx>24) 
064C6:  MOVF   xC8,W
064C8:  SUBLW  18
064CA:  BC    64D0
....................       HoraTx=11;       
064CC:  MOVLW  0B
064CE:  MOVWF  xC8
....................    if(MinutoTx>59) 
064D0:  MOVF   xC9,W
064D2:  SUBLW  3B
064D4:  BC    64DA
....................       MinutoTx=30;       
064D6:  MOVLW  1E
064D8:  MOVWF  xC9
....................     
....................       if(MesTx==2){ 
064DA:  MOVF   xC6,W
064DC:  SUBLW  02
064DE:  BNZ   650A
....................          if(esBisiesto(YearTx)){ 
064E0:  MOVFF  2C5,6CF
064E4:  MOVLB  0
064E6:  RCALL  6368
064E8:  MOVF   01,F
064EA:  BZ    64FC
....................             if(DiaTx>29){ 
064EC:  MOVLB  2
064EE:  MOVF   xC7,W
064F0:  SUBLW  1D
064F2:  BC    64F8
....................                DiaTx=29; 
064F4:  MOVLW  1D
064F6:  MOVWF  xC7
....................                //glcd_fillScreen(OFF); 
....................             } 
....................          }else{ 
064F8:  BRA    6508
064FA:  MOVLB  0
....................             if(DiaTx>28){ 
064FC:  MOVLB  2
064FE:  MOVF   xC7,W
06500:  SUBLW  1C
06502:  BC    6508
....................                DiaTx=28; 
06504:  MOVLW  1C
06506:  MOVWF  xC7
....................                //glcd_fillScreen(OFF); 
....................             } 
....................          } 
....................       }else{ 
06508:  BRA    6534
....................          if(MesTx<=7){ 
0650A:  MOVF   xC6,W
0650C:  SUBLW  07
0650E:  BNC   6522
....................             if(MesTx % 2 ==0){ 
06510:  MOVF   xC6,W
06512:  ANDLW  01
06514:  BNZ   6520
....................                if(DiaTx>30){ 
06516:  MOVF   xC7,W
06518:  SUBLW  1E
0651A:  BC    6520
....................                   DiaTx=30;  
0651C:  MOVLW  1E
0651E:  MOVWF  xC7
....................                   //glcd_fillScreen(OFF); 
....................                } 
....................             } 
....................          }else{ 
06520:  BRA    6534
....................             if(MesTx % 2 ==1){ 
06522:  MOVF   xC6,W
06524:  ANDLW  01
06526:  SUBLW  01
06528:  BNZ   6534
....................                if(DiaTx>30){ 
0652A:  MOVF   xC7,W
0652C:  SUBLW  1E
0652E:  BC    6534
....................                   DiaTx=30;  
06530:  MOVLW  1E
06532:  MOVWF  xC7
....................                   //glcd_fillScreen(OFF); 
....................                } 
....................             } 
....................          } 
....................       } 
.................... } 
06534:  MOVLB  0
06536:  GOTO   A6F6 (RETURN)
....................  
.................... void ActualizaRecta(){ 
....................    X[y]=Temperature; 
....................    y++; 
....................    if(y>=2){ 
....................       y=0; 
....................       Aumento=X[1]-X[0]; 
....................    } 
.................... } 
....................  
.................... // Funcion para conversor analogo-digital 
.................... float sensores(int x){ 
.................... float y;set_adc_channel(x);delay_ms(1);y=read_adc();return (y); 
*
0446C:  MOVLB  6
0446E:  RLCF   xD5,W
04470:  MOVWF  00
04472:  RLCF   00,F
04474:  MOVLW  FC
04476:  ANDWF  00,F
04478:  MOVFF  00,01
0447C:  MOVF   FC2,W
0447E:  ANDLW  C3
04480:  IORWF  00,W
04482:  MOVWF  FC2
04484:  MOVLW  01
04486:  MOVWF  xE1
04488:  MOVLB  0
0448A:  CALL   21DE
0448E:  BSF    FC2.1
04490:  BTFSC  FC2.1
04492:  BRA    4490
04494:  MOVFF  FC4,6E2
04498:  MOVFF  FC3,6E1
0449C:  MOVLB  0
0449E:  CALL   21A8
044A2:  MOVFF  03,6D9
044A6:  MOVFF  02,6D8
044AA:  MOVFF  01,6D7
044AE:  MOVFF  00,6D6
044B2:  MOVFF  6D6,00
044B6:  MOVFF  6D7,01
044BA:  MOVFF  6D8,02
044BE:  MOVFF  6D9,03
.................... } 
044C2:  RETLW  00
....................  
.................... float LeerPT100(int8 canal,int media) 
.................... { 
....................    Prom=0.0;  
*
045BA:  MOVLB  2
045BC:  CLRF   x16
045BE:  CLRF   x15
045C0:  CLRF   x14
045C2:  CLRF   x13
....................    Sensor[canal].V0 = sensores(canal);   //Lectura de Divisor de Voltaje de PT100 con resistencia de 6.18k (+-2%) 
045C4:  MOVLB  6
045C6:  CLRF   xDA
045C8:  MOVFF  6D1,6D9
045CC:  MOVLW  01
045CE:  MOVWF  xDC
045D0:  MOVLW  64
045D2:  MOVWF  xDB
045D4:  MOVLB  0
045D6:  CALL   2650
045DA:  MOVFF  01,6D3
045DE:  MOVLW  08
045E0:  MOVLB  6
045E2:  ADDWF  01,W
045E4:  MOVWF  01
045E6:  MOVLW  00
045E8:  ADDWFC 02,W
045EA:  MOVWF  03
045EC:  MOVF   01,W
045EE:  ADDLW  3F
045F0:  MOVWF  01
045F2:  MOVLW  03
045F4:  ADDWFC 03,F
045F6:  MOVFF  01,6D3
045FA:  MOVFF  03,6D4
045FE:  MOVFF  6D1,6D5
04602:  MOVLB  0
04604:  RCALL  446C
04606:  MOVFF  6D4,FEA
0460A:  MOVFF  6D3,FE9
0460E:  MOVFF  00,FEF
04612:  MOVFF  01,FEC
04616:  MOVFF  02,FEC
0461A:  MOVFF  03,FEC
....................    Sensor[canal].V0 = Sensor[canal].V0/Sensor[canal].Gain; // Se elimina la ganancia 
0461E:  MOVLB  6
04620:  CLRF   xDA
04622:  MOVFF  6D1,6D9
04626:  MOVLW  01
04628:  MOVWF  xDC
0462A:  MOVLW  64
0462C:  MOVWF  xDB
0462E:  MOVLB  0
04630:  CALL   2650
04634:  MOVFF  01,6D3
04638:  MOVLW  08
0463A:  MOVLB  6
0463C:  ADDWF  01,W
0463E:  MOVWF  01
04640:  MOVLW  00
04642:  ADDWFC 02,W
04644:  MOVWF  03
04646:  MOVF   01,W
04648:  ADDLW  3F
0464A:  MOVWF  01
0464C:  MOVLW  03
0464E:  ADDWFC 03,F
04650:  MOVFF  01,6D3
04654:  MOVFF  03,6D4
04658:  CLRF   xDA
0465A:  MOVFF  6D1,6D9
0465E:  MOVLW  01
04660:  MOVWF  xDC
04662:  MOVLW  64
04664:  MOVWF  xDB
04666:  MOVLB  0
04668:  CALL   2650
0466C:  MOVFF  01,6D5
04670:  MOVLW  08
04672:  MOVLB  6
04674:  ADDWF  01,W
04676:  MOVWF  01
04678:  MOVLW  00
0467A:  ADDWFC 02,W
0467C:  MOVWF  03
0467E:  MOVF   01,W
04680:  ADDLW  3F
04682:  MOVWF  FE9
04684:  MOVLW  03
04686:  ADDWFC 03,W
04688:  MOVWF  FEA
0468A:  MOVFF  FEF,6D5
0468E:  MOVFF  FEC,6D6
04692:  MOVFF  FEC,6D7
04696:  MOVFF  FEC,6D8
0469A:  CLRF   xDA
0469C:  MOVFF  6D1,6D9
046A0:  MOVLW  01
046A2:  MOVWF  xDC
046A4:  MOVLW  64
046A6:  MOVWF  xDB
046A8:  MOVLB  0
046AA:  CALL   2650
046AE:  MOVFF  02,6DA
046B2:  MOVFF  01,6D9
046B6:  MOVLW  60
046B8:  MOVLB  6
046BA:  ADDWF  01,W
046BC:  MOVWF  01
046BE:  MOVLW  01
046C0:  ADDWFC 02,W
046C2:  MOVWF  03
046C4:  MOVF   01,W
046C6:  ADDLW  3F
046C8:  MOVWF  FE9
046CA:  MOVLW  03
046CC:  ADDWFC 03,W
046CE:  MOVWF  FEA
046D0:  MOVFF  FEF,00
046D4:  MOVFF  FEC,01
046D8:  MOVFF  FEC,02
046DC:  MOVFF  FEC,03
046E0:  MOVFF  6D8,6DE
046E4:  MOVFF  6D7,6DD
046E8:  MOVFF  6D6,6DC
046EC:  MOVFF  6D5,6DB
046F0:  MOVFF  03,6E2
046F4:  MOVFF  02,6E1
046F8:  MOVFF  01,6E0
046FC:  MOVFF  00,6DF
04700:  MOVLB  0
04702:  CALL   2206
04706:  MOVFF  6D4,FEA
0470A:  MOVFF  6D3,FE9
0470E:  MOVFF  00,FEF
04712:  MOVFF  01,FEC
04716:  MOVFF  02,FEC
0471A:  MOVFF  03,FEC
....................    Sensor[canal].V0 = Sensor[canal].V0+14.83; // Se suma voltaje de divisor fijo 
0471E:  MOVLB  6
04720:  CLRF   xDA
04722:  MOVFF  6D1,6D9
04726:  MOVLW  01
04728:  MOVWF  xDC
0472A:  MOVLW  64
0472C:  MOVWF  xDB
0472E:  MOVLB  0
04730:  CALL   2650
04734:  MOVFF  01,6D3
04738:  MOVLW  08
0473A:  MOVLB  6
0473C:  ADDWF  01,W
0473E:  MOVWF  01
04740:  MOVLW  00
04742:  ADDWFC 02,W
04744:  MOVWF  03
04746:  MOVF   01,W
04748:  ADDLW  3F
0474A:  MOVWF  01
0474C:  MOVLW  03
0474E:  ADDWFC 03,F
04750:  MOVFF  01,6D3
04754:  MOVFF  03,6D4
04758:  CLRF   xDA
0475A:  MOVFF  6D1,6D9
0475E:  MOVLW  01
04760:  MOVWF  xDC
04762:  MOVLW  64
04764:  MOVWF  xDB
04766:  MOVLB  0
04768:  CALL   2650
0476C:  MOVFF  01,6D5
04770:  MOVLW  08
04772:  MOVLB  6
04774:  ADDWF  01,W
04776:  MOVWF  01
04778:  MOVLW  00
0477A:  ADDWFC 02,W
0477C:  MOVWF  03
0477E:  MOVF   01,W
04780:  ADDLW  3F
04782:  MOVWF  FE9
04784:  MOVLW  03
04786:  ADDWFC 03,W
04788:  MOVWF  FEA
0478A:  MOVFF  FEF,6D5
0478E:  MOVFF  FEC,6D6
04792:  MOVFF  FEC,6D7
04796:  MOVFF  FEC,6D8
0479A:  MOVFF  FEA,6DA
0479E:  MOVFF  FE9,6D9
047A2:  BCF    FD8.1
047A4:  MOVFF  6D8,6E4
047A8:  MOVFF  6D7,6E3
047AC:  MOVFF  6D6,6E2
047B0:  MOVFF  6D5,6E1
047B4:  MOVLW  AE
047B6:  MOVWF  xE8
047B8:  MOVLW  47
047BA:  MOVWF  xE7
047BC:  MOVLW  6D
047BE:  MOVWF  xE6
047C0:  MOVLW  82
047C2:  MOVWF  xE5
047C4:  MOVLB  0
047C6:  CALL   2364
047CA:  MOVFF  6DA,FEA
047CE:  MOVFF  6D9,FE9
047D2:  MOVFF  6D4,FEA
047D6:  MOVFF  6D3,FE9
047DA:  MOVFF  00,FEF
047DE:  MOVFF  01,FEC
047E2:  MOVFF  02,FEC
047E6:  MOVFF  03,FEC
....................    //Sensor[canal].BN=(Sensor[canal].V0*(R8+R9))+(1023*R9); 
....................    Sensor[canal].Pt = R10/((1023/Sensor[canal].V0)-1); 
047EA:  MOVLB  6
047EC:  CLRF   xDA
047EE:  MOVFF  6D1,6D9
047F2:  MOVLW  01
047F4:  MOVWF  xDC
047F6:  MOVLW  64
047F8:  MOVWF  xDB
047FA:  MOVLB  0
047FC:  CALL   2650
04800:  MOVFF  01,6D3
04804:  MOVLW  0C
04806:  MOVLB  6
04808:  ADDWF  01,W
0480A:  MOVWF  01
0480C:  MOVLW  00
0480E:  ADDWFC 02,W
04810:  MOVWF  03
04812:  MOVF   01,W
04814:  ADDLW  3F
04816:  MOVWF  01
04818:  MOVLW  03
0481A:  ADDWFC 03,F
0481C:  MOVFF  01,6D3
04820:  MOVFF  03,6D4
04824:  CLRF   xDA
04826:  MOVFF  6D1,6D9
0482A:  MOVLW  01
0482C:  MOVWF  xDC
0482E:  MOVLW  64
04830:  MOVWF  xDB
04832:  MOVLB  0
04834:  CALL   2650
04838:  MOVFF  02,6D6
0483C:  MOVFF  01,6D5
04840:  MOVLW  08
04842:  MOVLB  6
04844:  ADDWF  01,W
04846:  MOVWF  01
04848:  MOVLW  00
0484A:  ADDWFC 02,W
0484C:  MOVWF  03
0484E:  MOVF   01,W
04850:  ADDLW  3F
04852:  MOVWF  FE9
04854:  MOVLW  03
04856:  ADDWFC 03,W
04858:  MOVWF  FEA
0485A:  MOVFF  FEF,00
0485E:  MOVFF  FEC,01
04862:  MOVFF  FEC,02
04866:  MOVFF  FEC,03
0486A:  CLRF   xDE
0486C:  MOVLW  C0
0486E:  MOVWF  xDD
04870:  MOVLW  7F
04872:  MOVWF  xDC
04874:  MOVLW  88
04876:  MOVWF  xDB
04878:  MOVFF  03,6E2
0487C:  MOVFF  02,6E1
04880:  MOVFF  01,6E0
04884:  MOVFF  00,6DF
04888:  MOVLB  0
0488A:  CALL   2206
0488E:  MOVFF  00,6D5
04892:  MOVFF  01,6D6
04896:  MOVFF  02,6D7
0489A:  MOVFF  03,6D8
0489E:  MOVFF  FEA,6DA
048A2:  MOVFF  FE9,6D9
048A6:  BSF    FD8.1
048A8:  MOVFF  03,6E4
048AC:  MOVFF  02,6E3
048B0:  MOVFF  01,6E2
048B4:  MOVFF  00,6E1
048B8:  MOVLB  6
048BA:  CLRF   xE8
048BC:  CLRF   xE7
048BE:  CLRF   xE6
048C0:  MOVLW  7F
048C2:  MOVWF  xE5
048C4:  MOVLB  0
048C6:  CALL   2364
048CA:  MOVFF  6DA,FEA
048CE:  MOVFF  6D9,FE9
048D2:  MOVFF  1DC,6DE
048D6:  MOVFF  1DB,6DD
048DA:  MOVFF  1DA,6DC
048DE:  MOVFF  1D9,6DB
048E2:  MOVFF  03,6E2
048E6:  MOVFF  02,6E1
048EA:  MOVFF  01,6E0
048EE:  MOVFF  00,6DF
048F2:  CALL   2206
048F6:  MOVFF  6D4,FEA
048FA:  MOVFF  6D3,FE9
048FE:  MOVFF  00,FEF
04902:  MOVFF  01,FEC
04906:  MOVFF  02,FEC
0490A:  MOVFF  03,FEC
....................    //Sensor[canal].Pt=Sensor[canal].Pt-Sensor[canal].RPT100; //Ajuste de impedancia de cableado de PT100    
....................              
....................    if(Sensor[canal].l>(media-1)) 
0490E:  MOVLB  6
04910:  CLRF   xDA
04912:  MOVFF  6D1,6D9
04916:  MOVLW  01
04918:  MOVWF  xDC
0491A:  MOVLW  64
0491C:  MOVWF  xDB
0491E:  MOVLB  0
04920:  CALL   2650
04924:  MOVFF  02,6D4
04928:  MOVFF  01,6D3
0492C:  MOVLW  14
0492E:  MOVLB  6
04930:  ADDWF  01,W
04932:  MOVWF  01
04934:  MOVLW  00
04936:  ADDWFC 02,W
04938:  MOVWF  03
0493A:  MOVF   01,W
0493C:  ADDLW  3F
0493E:  MOVWF  FE9
04940:  MOVLW  03
04942:  ADDWFC 03,W
04944:  MOVWF  FEA
04946:  MOVFF  FEF,6D3
0494A:  MOVLW  01
0494C:  SUBWF  xD2,W
0494E:  SUBWF  xD3,W
04950:  BZ    4988
04952:  BNC   4988
....................    {Sensor[canal].l=0;} 
04954:  CLRF   xDA
04956:  MOVFF  6D1,6D9
0495A:  MOVLW  01
0495C:  MOVWF  xDC
0495E:  MOVLW  64
04960:  MOVWF  xDB
04962:  MOVLB  0
04964:  CALL   2650
04968:  MOVFF  01,6D3
0496C:  MOVLW  14
0496E:  MOVLB  6
04970:  ADDWF  01,W
04972:  MOVWF  01
04974:  MOVLW  00
04976:  ADDWFC 02,W
04978:  MOVWF  03
0497A:  MOVF   01,W
0497C:  ADDLW  3F
0497E:  MOVWF  FE9
04980:  MOVLW  03
04982:  ADDWFC 03,W
04984:  MOVWF  FEA
04986:  CLRF   FEF
....................     
....................    Sensor[canal].promedio[Sensor[canal].l]=Sensor[canal].Pt;Sensor[canal].l++; 
04988:  CLRF   xDA
0498A:  MOVFF  6D1,6D9
0498E:  MOVLW  01
04990:  MOVWF  xDC
04992:  MOVLW  64
04994:  MOVWF  xDB
04996:  MOVLB  0
04998:  CALL   2650
0499C:  MOVFF  02,6D4
049A0:  MOVFF  01,6D3
049A4:  MOVLW  20
049A6:  MOVLB  6
049A8:  ADDWF  xD3,F
049AA:  MOVLW  00
049AC:  ADDWFC xD4,F
049AE:  CLRF   xDA
049B0:  MOVFF  6D1,6D9
049B4:  MOVLW  01
049B6:  MOVWF  xDC
049B8:  MOVLW  64
049BA:  MOVWF  xDB
049BC:  MOVLB  0
049BE:  CALL   2650
049C2:  MOVFF  02,6D6
049C6:  MOVFF  01,6D5
049CA:  MOVLW  14
049CC:  MOVLB  6
049CE:  ADDWF  01,W
049D0:  MOVWF  01
049D2:  MOVLW  00
049D4:  ADDWFC 02,W
049D6:  MOVWF  03
049D8:  MOVF   01,W
049DA:  ADDLW  3F
049DC:  MOVWF  FE9
049DE:  MOVLW  03
049E0:  ADDWFC 03,W
049E2:  MOVWF  FEA
049E4:  CLRF   xDA
049E6:  MOVFF  FEF,6D9
049EA:  CLRF   xDC
049EC:  MOVLW  04
049EE:  MOVWF  xDB
049F0:  MOVLB  0
049F2:  CALL   2650
049F6:  MOVFF  02,03
049FA:  MOVF   01,W
049FC:  MOVLB  6
049FE:  ADDWF  xD3,W
04A00:  MOVWF  01
04A02:  MOVF   xD4,W
04A04:  ADDWFC 03,F
04A06:  MOVF   01,W
04A08:  ADDLW  3F
04A0A:  MOVWF  01
04A0C:  MOVLW  03
04A0E:  ADDWFC 03,F
04A10:  MOVFF  01,6D3
04A14:  MOVFF  03,6D4
04A18:  CLRF   xDA
04A1A:  MOVFF  6D1,6D9
04A1E:  MOVLW  01
04A20:  MOVWF  xDC
04A22:  MOVLW  64
04A24:  MOVWF  xDB
04A26:  MOVLB  0
04A28:  CALL   2650
04A2C:  MOVFF  02,6D6
04A30:  MOVFF  01,6D5
04A34:  MOVLW  0C
04A36:  MOVLB  6
04A38:  ADDWF  01,W
04A3A:  MOVWF  01
04A3C:  MOVLW  00
04A3E:  ADDWFC 02,W
04A40:  MOVWF  03
04A42:  MOVF   01,W
04A44:  ADDLW  3F
04A46:  MOVWF  FE9
04A48:  MOVLW  03
04A4A:  ADDWFC 03,W
04A4C:  MOVWF  FEA
04A4E:  MOVFF  FEF,00
04A52:  MOVFF  FEC,01
04A56:  MOVFF  FEC,02
04A5A:  MOVFF  FEC,03
04A5E:  MOVFF  6D4,FEA
04A62:  MOVFF  6D3,FE9
04A66:  MOVFF  00,FEF
04A6A:  MOVFF  01,FEC
04A6E:  MOVFF  02,FEC
04A72:  MOVFF  03,FEC
04A76:  CLRF   xDA
04A78:  MOVFF  6D1,6D9
04A7C:  MOVLW  01
04A7E:  MOVWF  xDC
04A80:  MOVLW  64
04A82:  MOVWF  xDB
04A84:  MOVLB  0
04A86:  CALL   2650
04A8A:  MOVFF  01,6D3
04A8E:  MOVLW  14
04A90:  MOVLB  6
04A92:  ADDWF  01,W
04A94:  MOVWF  01
04A96:  MOVLW  00
04A98:  ADDWFC 02,W
04A9A:  MOVWF  03
04A9C:  MOVF   01,W
04A9E:  ADDLW  3F
04AA0:  MOVWF  FE9
04AA2:  MOVLW  03
04AA4:  ADDWFC 03,W
04AA6:  MOVWF  FEA
04AA8:  INCF   FEF,F
....................           
....................    for(Sensor[canal].h=0;Sensor[canal].h<media;Sensor[canal].h++) 
04AAA:  CLRF   xDA
04AAC:  MOVFF  6D1,6D9
04AB0:  MOVLW  01
04AB2:  MOVWF  xDC
04AB4:  MOVLW  64
04AB6:  MOVWF  xDB
04AB8:  MOVLB  0
04ABA:  CALL   2650
04ABE:  MOVFF  02,6D4
04AC2:  MOVFF  01,6D3
04AC6:  MOVLW  15
04AC8:  MOVLB  6
04ACA:  ADDWF  01,W
04ACC:  MOVWF  01
04ACE:  MOVLW  00
04AD0:  ADDWFC 02,W
04AD2:  MOVWF  03
04AD4:  MOVF   01,W
04AD6:  ADDLW  3F
04AD8:  MOVWF  FE9
04ADA:  MOVLW  03
04ADC:  ADDWFC 03,W
04ADE:  MOVWF  FEA
04AE0:  CLRF   FEF
04AE2:  CLRF   xDA
04AE4:  MOVFF  6D1,6D9
04AE8:  MOVLW  01
04AEA:  MOVWF  xDC
04AEC:  MOVLW  64
04AEE:  MOVWF  xDB
04AF0:  MOVLB  0
04AF2:  CALL   2650
04AF6:  MOVFF  02,6D4
04AFA:  MOVFF  01,6D3
04AFE:  MOVLW  15
04B00:  MOVLB  6
04B02:  ADDWF  01,W
04B04:  MOVWF  01
04B06:  MOVLW  00
04B08:  ADDWFC 02,W
04B0A:  MOVWF  03
04B0C:  MOVF   01,W
04B0E:  ADDLW  3F
04B10:  MOVWF  FE9
04B12:  MOVLW  03
04B14:  ADDWFC 03,W
04B16:  MOVWF  FEA
04B18:  MOVF   xD2,W
04B1A:  SUBWF  FEF,W
04B1C:  BTFSC  FD8.0
04B1E:  BRA    4C3E
....................    { 
....................       Prom+=Sensor[canal].promedio[Sensor[canal].h]; 
04B20:  CLRF   xDA
04B22:  MOVFF  6D1,6D9
04B26:  MOVLW  01
04B28:  MOVWF  xDC
04B2A:  MOVLW  64
04B2C:  MOVWF  xDB
04B2E:  MOVLB  0
04B30:  CALL   2650
04B34:  MOVFF  02,6D4
04B38:  MOVFF  01,6D3
04B3C:  MOVLW  20
04B3E:  MOVLB  6
04B40:  ADDWF  xD3,F
04B42:  MOVLW  00
04B44:  ADDWFC xD4,F
04B46:  CLRF   xDA
04B48:  MOVFF  6D1,6D9
04B4C:  MOVLW  01
04B4E:  MOVWF  xDC
04B50:  MOVLW  64
04B52:  MOVWF  xDB
04B54:  MOVLB  0
04B56:  CALL   2650
04B5A:  MOVFF  02,6D6
04B5E:  MOVFF  01,6D5
04B62:  MOVLW  15
04B64:  MOVLB  6
04B66:  ADDWF  01,W
04B68:  MOVWF  01
04B6A:  MOVLW  00
04B6C:  ADDWFC 02,W
04B6E:  MOVWF  03
04B70:  MOVF   01,W
04B72:  ADDLW  3F
04B74:  MOVWF  FE9
04B76:  MOVLW  03
04B78:  ADDWFC 03,W
04B7A:  MOVWF  FEA
04B7C:  CLRF   xDA
04B7E:  MOVFF  FEF,6D9
04B82:  CLRF   xDC
04B84:  MOVLW  04
04B86:  MOVWF  xDB
04B88:  MOVLB  0
04B8A:  CALL   2650
04B8E:  MOVFF  02,03
04B92:  MOVF   01,W
04B94:  MOVLB  6
04B96:  ADDWF  xD3,W
04B98:  MOVWF  01
04B9A:  MOVF   xD4,W
04B9C:  ADDWFC 03,F
04B9E:  MOVF   01,W
04BA0:  ADDLW  3F
04BA2:  MOVWF  FE9
04BA4:  MOVLW  03
04BA6:  ADDWFC 03,W
04BA8:  MOVWF  FEA
04BAA:  MOVFF  FEF,00
04BAE:  MOVFF  FEC,01
04BB2:  MOVFF  FEC,02
04BB6:  MOVFF  FEC,03
04BBA:  MOVFF  FEA,6D4
04BBE:  MOVFF  FE9,6D3
04BC2:  BCF    FD8.1
04BC4:  MOVFF  216,6E4
04BC8:  MOVFF  215,6E3
04BCC:  MOVFF  214,6E2
04BD0:  MOVFF  213,6E1
04BD4:  MOVFF  03,6E8
04BD8:  MOVFF  02,6E7
04BDC:  MOVFF  01,6E6
04BE0:  MOVFF  00,6E5
04BE4:  MOVLB  0
04BE6:  CALL   2364
04BEA:  MOVFF  6D4,FEA
04BEE:  MOVFF  6D3,FE9
04BF2:  MOVFF  03,216
04BF6:  MOVFF  02,215
04BFA:  MOVFF  01,214
04BFE:  MOVFF  00,213
....................    }  
04C02:  MOVLB  6
04C04:  CLRF   xDA
04C06:  MOVFF  6D1,6D9
04C0A:  MOVLW  01
04C0C:  MOVWF  xDC
04C0E:  MOVLW  64
04C10:  MOVWF  xDB
04C12:  MOVLB  0
04C14:  CALL   2650
04C18:  MOVFF  02,6D4
04C1C:  MOVFF  01,6D3
04C20:  MOVLW  15
04C22:  MOVLB  6
04C24:  ADDWF  01,W
04C26:  MOVWF  01
04C28:  MOVLW  00
04C2A:  ADDWFC 02,W
04C2C:  MOVWF  03
04C2E:  MOVF   01,W
04C30:  ADDLW  3F
04C32:  MOVWF  FE9
04C34:  MOVLW  03
04C36:  ADDWFC 03,W
04C38:  MOVWF  FEA
04C3A:  INCF   FEF,F
04C3C:  BRA    4AE2
....................    Prom=Prom/media;    
04C3E:  CLRF   xE2
04C40:  MOVFF  6D2,6E1
04C44:  MOVLB  0
04C46:  CALL   21A8
04C4A:  MOVFF  216,6DE
04C4E:  MOVFF  215,6DD
04C52:  MOVFF  214,6DC
04C56:  MOVFF  213,6DB
04C5A:  MOVFF  03,6E2
04C5E:  MOVFF  02,6E1
04C62:  MOVFF  01,6E0
04C66:  MOVFF  00,6DF
04C6A:  CALL   2206
04C6E:  MOVFF  03,216
04C72:  MOVFF  02,215
04C76:  MOVFF  01,214
04C7A:  MOVFF  00,213
....................    //Temperature=(Prom-100.0)/(0.385);  // Ecuacin determinada por linealizacin en Matlab. Revisar este polinomio.   
....................    Temperature=((Prom*Prom)*a)+(Prom*b)+c;  // Ecuacin determinada por linealizacin en Matlab. Revisar este polinomio. 
04C7E:  MOVFF  216,6E8
04C82:  MOVFF  215,6E7
04C86:  MOVFF  214,6E6
04C8A:  MOVFF  213,6E5
04C8E:  MOVFF  216,6EC
04C92:  MOVFF  215,6EB
04C96:  MOVFF  214,6EA
04C9A:  MOVFF  213,6E9
04C9E:  RCALL  44C4
04CA0:  MOVFF  00,6D3
04CA4:  MOVFF  01,6D4
04CA8:  MOVFF  02,6D5
04CAC:  MOVFF  03,6D6
04CB0:  MOVFF  03,6E8
04CB4:  MOVFF  02,6E7
04CB8:  MOVFF  01,6E6
04CBC:  MOVFF  00,6E5
04CC0:  MOVFF  246,6EC
04CC4:  MOVFF  245,6EB
04CC8:  MOVFF  244,6EA
04CCC:  MOVFF  243,6E9
04CD0:  CALL   44C4
04CD4:  MOVFF  00,6D3
04CD8:  MOVFF  01,6D4
04CDC:  MOVFF  02,6D5
04CE0:  MOVFF  03,6D6
04CE4:  MOVFF  216,6E8
04CE8:  MOVFF  215,6E7
04CEC:  MOVFF  214,6E6
04CF0:  MOVFF  213,6E5
04CF4:  MOVFF  24A,6EC
04CF8:  MOVFF  249,6EB
04CFC:  MOVFF  248,6EA
04D00:  MOVFF  247,6E9
04D04:  CALL   44C4
04D08:  BCF    FD8.1
04D0A:  MOVFF  6D6,6E4
04D0E:  MOVFF  6D5,6E3
04D12:  MOVFF  6D4,6E2
04D16:  MOVFF  6D3,6E1
04D1A:  MOVFF  03,6E8
04D1E:  MOVFF  02,6E7
04D22:  MOVFF  01,6E6
04D26:  MOVFF  00,6E5
04D2A:  CALL   2364
04D2E:  MOVFF  00,6D3
04D32:  MOVFF  01,6D4
04D36:  MOVFF  02,6D5
04D3A:  MOVFF  03,6D6
04D3E:  BCF    FD8.1
04D40:  MOVFF  03,6E4
04D44:  MOVFF  02,6E3
04D48:  MOVFF  01,6E2
04D4C:  MOVFF  00,6E1
04D50:  MOVFF  24E,6E8
04D54:  MOVFF  24D,6E7
04D58:  MOVFF  24C,6E6
04D5C:  MOVFF  24B,6E5
04D60:  CALL   2364
04D64:  MOVFF  03,21A
04D68:  MOVFF  02,219
04D6C:  MOVFF  01,218
04D70:  MOVFF  00,217
....................    Temperature+=((float)Sensor[canal].Ajuste-(float)Sensor[canal].Ajusten); 
04D74:  MOVLB  6
04D76:  CLRF   xDA
04D78:  MOVFF  6D1,6D9
04D7C:  MOVLW  01
04D7E:  MOVWF  xDC
04D80:  MOVLW  64
04D82:  MOVWF  xDB
04D84:  MOVLB  0
04D86:  CALL   2650
04D8A:  MOVFF  02,6D4
04D8E:  MOVFF  01,6D3
04D92:  MOVLW  1E
04D94:  MOVLB  6
04D96:  ADDWF  01,W
04D98:  MOVWF  01
04D9A:  MOVLW  00
04D9C:  ADDWFC 02,W
04D9E:  MOVWF  03
04DA0:  MOVF   01,W
04DA2:  ADDLW  3F
04DA4:  MOVWF  FE9
04DA6:  MOVLW  03
04DA8:  ADDWFC 03,W
04DAA:  MOVWF  FEA
04DAC:  MOVF   FEF,W
04DAE:  CLRF   xE2
04DB0:  MOVWF  xE1
04DB2:  MOVLB  0
04DB4:  CALL   21A8
04DB8:  MOVFF  00,6D3
04DBC:  MOVFF  01,6D4
04DC0:  MOVFF  02,6D5
04DC4:  MOVFF  03,6D6
04DC8:  MOVLB  6
04DCA:  CLRF   xDA
04DCC:  MOVFF  6D1,6D9
04DD0:  MOVLW  01
04DD2:  MOVWF  xDC
04DD4:  MOVLW  64
04DD6:  MOVWF  xDB
04DD8:  MOVLB  0
04DDA:  CALL   2650
04DDE:  MOVFF  02,6D8
04DE2:  MOVFF  01,6D7
04DE6:  MOVLW  1F
04DE8:  MOVLB  6
04DEA:  ADDWF  01,W
04DEC:  MOVWF  01
04DEE:  MOVLW  00
04DF0:  ADDWFC 02,W
04DF2:  MOVWF  03
04DF4:  MOVF   01,W
04DF6:  ADDLW  3F
04DF8:  MOVWF  FE9
04DFA:  MOVLW  03
04DFC:  ADDWFC 03,W
04DFE:  MOVWF  FEA
04E00:  MOVF   FEF,W
04E02:  CLRF   xE2
04E04:  MOVWF  xE1
04E06:  MOVLB  0
04E08:  CALL   21A8
04E0C:  MOVFF  FEA,6D8
04E10:  MOVFF  FE9,6D7
04E14:  BSF    FD8.1
04E16:  MOVFF  6D6,6E4
04E1A:  MOVFF  6D5,6E3
04E1E:  MOVFF  6D4,6E2
04E22:  MOVFF  6D3,6E1
04E26:  MOVFF  03,6E8
04E2A:  MOVFF  02,6E7
04E2E:  MOVFF  01,6E6
04E32:  MOVFF  00,6E5
04E36:  CALL   2364
04E3A:  MOVFF  6D8,FEA
04E3E:  MOVFF  6D7,FE9
04E42:  MOVFF  FEA,6D4
04E46:  MOVFF  FE9,6D3
04E4A:  BCF    FD8.1
04E4C:  MOVFF  21A,6E4
04E50:  MOVFF  219,6E3
04E54:  MOVFF  218,6E2
04E58:  MOVFF  217,6E1
04E5C:  MOVFF  03,6E8
04E60:  MOVFF  02,6E7
04E64:  MOVFF  01,6E6
04E68:  MOVFF  00,6E5
04E6C:  CALL   2364
04E70:  MOVFF  6D4,FEA
04E74:  MOVFF  6D3,FE9
04E78:  MOVFF  03,21A
04E7C:  MOVFF  02,219
04E80:  MOVFF  01,218
04E84:  MOVFF  00,217
....................     
....................    return Temperature; 
04E88:  MOVFF  217,00
04E8C:  MOVFF  218,01
04E90:  MOVFF  219,02
04E94:  MOVFF  21A,03
.................... } 
04E98:  RETLW  00
....................  
.................... float Leer_Sensor_Presion_Camara(int8 media){ 
....................    promediopresion=0.0; 
04E9A:  MOVLB  1
04E9C:  CLRF   xF0
04E9E:  CLRF   xEF
04EA0:  CLRF   xEE
04EA2:  CLRF   xED
....................    V1 = sensores(5);   //Lectura de Divisor de Voltaje de PT100 con resistencia de 1k (+-10%) 
04EA4:  MOVLW  05
04EA6:  MOVLB  6
04EA8:  MOVWF  xD5
04EAA:  MOVLB  0
04EAC:  CALL   446C
04EB0:  MOVFF  03,22E
04EB4:  MOVFF  02,22D
04EB8:  MOVFF  01,22C
04EBC:  MOVFF  00,22B
....................    //V1 = V1*(5.0/1024.0); 
....................    //Presion=(V1-0.2)/(K); 
....................    Presion=(((V1)/1023)-0.04)/K; 
04EC0:  MOVFF  22E,6DE
04EC4:  MOVFF  22D,6DD
04EC8:  MOVFF  22C,6DC
04ECC:  MOVFF  22B,6DB
04ED0:  MOVLB  6
04ED2:  CLRF   xE2
04ED4:  MOVLW  C0
04ED6:  MOVWF  xE1
04ED8:  MOVLW  7F
04EDA:  MOVWF  xE0
04EDC:  MOVLW  88
04EDE:  MOVWF  xDF
04EE0:  MOVLB  0
04EE2:  CALL   2206
04EE6:  MOVFF  00,6D2
04EEA:  MOVFF  01,6D3
04EEE:  MOVFF  02,6D4
04EF2:  MOVFF  03,6D5
04EF6:  BSF    FD8.1
04EF8:  MOVFF  03,6E4
04EFC:  MOVFF  02,6E3
04F00:  MOVFF  01,6E2
04F04:  MOVFF  00,6E1
04F08:  MOVLW  0A
04F0A:  MOVLB  6
04F0C:  MOVWF  xE8
04F0E:  MOVLW  D7
04F10:  MOVWF  xE7
04F12:  MOVLW  23
04F14:  MOVWF  xE6
04F16:  MOVLW  7A
04F18:  MOVWF  xE5
04F1A:  MOVLB  0
04F1C:  CALL   2364
04F20:  MOVFF  00,6D2
04F24:  MOVFF  01,6D3
04F28:  MOVFF  02,6D4
04F2C:  MOVFF  03,6D5
04F30:  MOVFF  03,6DE
04F34:  MOVFF  02,6DD
04F38:  MOVFF  01,6DC
04F3C:  MOVFF  00,6DB
04F40:  MOVFF  1D8,6E2
04F44:  MOVFF  1D7,6E1
04F48:  MOVFF  1D6,6E0
04F4C:  MOVFF  1D5,6DF
04F50:  CALL   2206
04F54:  MOVFF  03,232
04F58:  MOVFF  02,231
04F5C:  MOVFF  01,230
04F60:  MOVFF  00,22F
....................     
....................    if(Presion<0.0) 
04F64:  MOVFF  232,6D6
04F68:  MOVFF  231,6D5
04F6C:  MOVFF  230,6D4
04F70:  MOVFF  22F,6D3
04F74:  MOVLB  6
04F76:  CLRF   xDA
04F78:  CLRF   xD9
04F7A:  CLRF   xD8
04F7C:  CLRF   xD7
04F7E:  MOVLB  0
04F80:  CALL   283A
04F84:  BNC   4F90
....................       Presion=0.0; 
04F86:  MOVLB  2
04F88:  CLRF   x32
04F8A:  CLRF   x31
04F8C:  CLRF   x30
04F8E:  CLRF   x2F
....................     
....................    if(r>media-1) 
04F90:  MOVLW  01
04F92:  MOVLB  6
04F94:  SUBWF  xD1,W
04F96:  MOVLB  2
04F98:  SUBWF  xA6,W
04F9A:  BZ    4FA0
04F9C:  BNC   4FA0
....................       r=0; 
04F9E:  CLRF   xA6
....................    PromPresion[r]=Presion;r++; 
04FA0:  MOVF   xA6,W
04FA2:  MULLW  04
04FA4:  MOVF   FF3,W
04FA6:  CLRF   03
04FA8:  ADDLW  29
04FAA:  MOVWF  FE9
04FAC:  MOVLW  01
04FAE:  ADDWFC 03,W
04FB0:  MOVWF  FEA
04FB2:  MOVFF  22F,FEF
04FB6:  MOVFF  230,FEC
04FBA:  MOVFF  231,FEC
04FBE:  MOVFF  232,FEC
04FC2:  INCF   xA6,F
....................           
....................    for(t=0;t<=(media-1);t++) 
04FC4:  CLRF   xA7
04FC6:  MOVLW  01
04FC8:  MOVLB  6
04FCA:  SUBWF  xD1,W
04FCC:  MOVLB  2
04FCE:  SUBWF  xA7,W
04FD0:  BZ    4FD4
04FD2:  BC    5044
....................       promediopresion+=PromPresion[t]; 
04FD4:  MOVF   xA7,W
04FD6:  MULLW  04
04FD8:  MOVF   FF3,W
04FDA:  CLRF   03
04FDC:  ADDLW  29
04FDE:  MOVWF  FE9
04FE0:  MOVLW  01
04FE2:  ADDWFC 03,W
04FE4:  MOVWF  FEA
04FE6:  MOVFF  FEF,00
04FEA:  MOVFF  FEC,01
04FEE:  MOVFF  FEC,02
04FF2:  MOVFF  FEC,03
04FF6:  MOVFF  FEA,6D3
04FFA:  MOVFF  FE9,6D2
04FFE:  BCF    FD8.1
05000:  MOVFF  1F0,6E4
05004:  MOVFF  1EF,6E3
05008:  MOVFF  1EE,6E2
0500C:  MOVFF  1ED,6E1
05010:  MOVFF  03,6E8
05014:  MOVFF  02,6E7
05018:  MOVFF  01,6E6
0501C:  MOVFF  00,6E5
05020:  MOVLB  0
05022:  CALL   2364
05026:  MOVFF  6D3,FEA
0502A:  MOVFF  6D2,FE9
0502E:  MOVFF  03,1F0
05032:  MOVFF  02,1EF
05036:  MOVFF  01,1EE
0503A:  MOVFF  00,1ED
0503E:  MOVLB  2
05040:  INCF   xA7,F
05042:  BRA    4FC6
....................      
....................    promediopresion=promediopresion/media;    
05044:  MOVLB  6
05046:  CLRF   xE2
05048:  MOVFF  6D1,6E1
0504C:  MOVLB  0
0504E:  CALL   21A8
05052:  MOVFF  1F0,6DE
05056:  MOVFF  1EF,6DD
0505A:  MOVFF  1EE,6DC
0505E:  MOVFF  1ED,6DB
05062:  MOVFF  03,6E2
05066:  MOVFF  02,6E1
0506A:  MOVFF  01,6E0
0506E:  MOVFF  00,6DF
05072:  CALL   2206
05076:  MOVFF  03,1F0
0507A:  MOVFF  02,1EF
0507E:  MOVFF  01,1EE
05082:  MOVFF  00,1ED
....................     
....................    return promediopresion; 
05086:  MOVFF  1ED,00
0508A:  MOVFF  1EE,01
0508E:  MOVFF  1EF,02
05092:  MOVFF  1F0,03
.................... } 
05096:  RETLW  00
....................  
.................... float Leer_Sensor_Presion_PreCamara(int8 media){ 
....................    promediopresionp=0.0; 
*
050D4:  MOVLB  1
050D6:  CLRF   xF4
050D8:  CLRF   xF3
050DA:  CLRF   xF2
050DC:  CLRF   xF1
....................    V2 = sensores(4);   //Lectura de Divisor de Voltaje de PT100 con resistencia de 1k (+-10%) 
050DE:  MOVLW  04
050E0:  MOVLB  6
050E2:  MOVWF  xD5
050E4:  MOVLB  0
050E6:  CALL   446C
050EA:  MOVFF  03,236
050EE:  MOVFF  02,235
050F2:  MOVFF  01,234
050F6:  MOVFF  00,233
....................    //V2 = V2*(5.0/1024.0); 
....................    //Presionp=(V2-0.2)/(K); 
....................    Presionp=(((V2)/1023)-0.04)/K; 
050FA:  MOVFF  236,6DE
050FE:  MOVFF  235,6DD
05102:  MOVFF  234,6DC
05106:  MOVFF  233,6DB
0510A:  MOVLB  6
0510C:  CLRF   xE2
0510E:  MOVLW  C0
05110:  MOVWF  xE1
05112:  MOVLW  7F
05114:  MOVWF  xE0
05116:  MOVLW  88
05118:  MOVWF  xDF
0511A:  MOVLB  0
0511C:  CALL   2206
05120:  MOVFF  00,6D2
05124:  MOVFF  01,6D3
05128:  MOVFF  02,6D4
0512C:  MOVFF  03,6D5
05130:  BSF    FD8.1
05132:  MOVFF  03,6E4
05136:  MOVFF  02,6E3
0513A:  MOVFF  01,6E2
0513E:  MOVFF  00,6E1
05142:  MOVLW  0A
05144:  MOVLB  6
05146:  MOVWF  xE8
05148:  MOVLW  D7
0514A:  MOVWF  xE7
0514C:  MOVLW  23
0514E:  MOVWF  xE6
05150:  MOVLW  7A
05152:  MOVWF  xE5
05154:  MOVLB  0
05156:  CALL   2364
0515A:  MOVFF  00,6D2
0515E:  MOVFF  01,6D3
05162:  MOVFF  02,6D4
05166:  MOVFF  03,6D5
0516A:  MOVFF  03,6DE
0516E:  MOVFF  02,6DD
05172:  MOVFF  01,6DC
05176:  MOVFF  00,6DB
0517A:  MOVFF  1D8,6E2
0517E:  MOVFF  1D7,6E1
05182:  MOVFF  1D6,6E0
05186:  MOVFF  1D5,6DF
0518A:  CALL   2206
0518E:  MOVFF  03,23A
05192:  MOVFF  02,239
05196:  MOVFF  01,238
0519A:  MOVFF  00,237
....................     
....................    if(Presionp<0.0) 
0519E:  MOVFF  23A,6D6
051A2:  MOVFF  239,6D5
051A6:  MOVFF  238,6D4
051AA:  MOVFF  237,6D3
051AE:  MOVLB  6
051B0:  CLRF   xDA
051B2:  CLRF   xD9
051B4:  CLRF   xD8
051B6:  CLRF   xD7
051B8:  MOVLB  0
051BA:  CALL   283A
051BE:  BNC   51CA
....................       Presionp=0.0; 
051C0:  MOVLB  2
051C2:  CLRF   x3A
051C4:  CLRF   x39
051C6:  CLRF   x38
051C8:  CLRF   x37
....................     
....................    if(r22>media-1) 
051CA:  MOVLW  01
051CC:  MOVLB  6
051CE:  SUBWF  xD1,W
051D0:  MOVLB  2
051D2:  SUBWF  xA8,W
051D4:  BZ    51DA
051D6:  BNC   51DA
....................       r22=0; 
051D8:  CLRF   xA8
....................    PromPresionp[r22]=Presionp;r22++; 
051DA:  MOVF   xA8,W
051DC:  MULLW  04
051DE:  MOVF   FF3,W
051E0:  CLRF   03
051E2:  ADDLW  79
051E4:  MOVWF  FE9
051E6:  MOVLW  01
051E8:  ADDWFC 03,W
051EA:  MOVWF  FEA
051EC:  MOVFF  237,FEF
051F0:  MOVFF  238,FEC
051F4:  MOVFF  239,FEC
051F8:  MOVFF  23A,FEC
051FC:  INCF   xA8,F
....................           
....................    for(t2=0;t2<=(media-1);t2++) 
051FE:  CLRF   xA9
05200:  MOVLW  01
05202:  MOVLB  6
05204:  SUBWF  xD1,W
05206:  MOVLB  2
05208:  SUBWF  xA9,W
0520A:  BZ    520E
0520C:  BC    527E
....................       promediopresionp+=PromPresionp[t2];  
0520E:  MOVF   xA9,W
05210:  MULLW  04
05212:  MOVF   FF3,W
05214:  CLRF   03
05216:  ADDLW  79
05218:  MOVWF  FE9
0521A:  MOVLW  01
0521C:  ADDWFC 03,W
0521E:  MOVWF  FEA
05220:  MOVFF  FEF,00
05224:  MOVFF  FEC,01
05228:  MOVFF  FEC,02
0522C:  MOVFF  FEC,03
05230:  MOVFF  FEA,6D3
05234:  MOVFF  FE9,6D2
05238:  BCF    FD8.1
0523A:  MOVFF  1F4,6E4
0523E:  MOVFF  1F3,6E3
05242:  MOVFF  1F2,6E2
05246:  MOVFF  1F1,6E1
0524A:  MOVFF  03,6E8
0524E:  MOVFF  02,6E7
05252:  MOVFF  01,6E6
05256:  MOVFF  00,6E5
0525A:  MOVLB  0
0525C:  CALL   2364
05260:  MOVFF  6D3,FEA
05264:  MOVFF  6D2,FE9
05268:  MOVFF  03,1F4
0526C:  MOVFF  02,1F3
05270:  MOVFF  01,1F2
05274:  MOVFF  00,1F1
05278:  MOVLB  2
0527A:  INCF   xA9,F
0527C:  BRA    5200
....................        
....................    promediopresionp=promediopresionp/media;    
0527E:  MOVLB  6
05280:  CLRF   xE2
05282:  MOVFF  6D1,6E1
05286:  MOVLB  0
05288:  CALL   21A8
0528C:  MOVFF  1F4,6DE
05290:  MOVFF  1F3,6DD
05294:  MOVFF  1F2,6DC
05298:  MOVFF  1F1,6DB
0529C:  MOVFF  03,6E2
052A0:  MOVFF  02,6E1
052A4:  MOVFF  01,6E0
052A8:  MOVFF  00,6DF
052AC:  CALL   2206
052B0:  MOVFF  03,1F4
052B4:  MOVFF  02,1F3
052B8:  MOVFF  01,1F2
052BC:  MOVFF  00,1F1
....................     
....................    return promediopresionp; 
052C0:  MOVFF  1F1,00
052C4:  MOVFF  1F2,01
052C8:  MOVFF  1F3,02
052CC:  MOVFF  1F4,03
.................... } 
052D0:  RETLW  00
....................  
.................... void Controla(){ 
*
0781C:  MOVLB  6
0781E:  CLRF   xD2
07820:  CLRF   xD1
07822:  CLRF   xD0
07824:  CLRF   xCF
....................    float prc=0.0;    
....................    /* 
....................    // Control por temperatura 
....................    if(Temperatura>Setpoint+0.3){ 
....................       suministroVapor=OFF; 
....................       Paso=ON; 
....................    }else if(Temperatura<=Setpoint+0.2){ 
....................       suministroVapor=ON; 
....................       Paso=ON; 
....................    } 
....................    //////////////////////////// 
....................    */ 
....................    //Control por presin 
....................    prc=(float)PresionCamara; 
07826:  MOVFF  295,6E2
0782A:  MOVFF  294,6E1
0782E:  MOVLB  0
07830:  CALL   21A8
07834:  MOVFF  03,6D2
07838:  MOVFF  02,6D1
0783C:  MOVFF  01,6D0
07840:  MOVFF  00,6CF
....................    Tactual=((prc)*(prc)*(prc)*p1)+((prc)*(prc)*p2)+(p3*prc)+p4; 
07844:  MOVFF  6D2,6E8
07848:  MOVFF  6D1,6E7
0784C:  MOVFF  6D0,6E6
07850:  MOVFF  6CF,6E5
07854:  MOVFF  6D2,6EC
07858:  MOVFF  6D1,6EB
0785C:  MOVFF  6D0,6EA
07860:  MOVFF  6CF,6E9
07864:  CALL   44C4
07868:  MOVFF  00,6D3
0786C:  MOVFF  01,6D4
07870:  MOVFF  02,6D5
07874:  MOVFF  03,6D6
07878:  MOVFF  03,6E8
0787C:  MOVFF  02,6E7
07880:  MOVFF  01,6E6
07884:  MOVFF  00,6E5
07888:  MOVFF  6D2,6EC
0788C:  MOVFF  6D1,6EB
07890:  MOVFF  6D0,6EA
07894:  MOVFF  6CF,6E9
07898:  CALL   44C4
0789C:  MOVFF  00,6D3
078A0:  MOVFF  01,6D4
078A4:  MOVFF  02,6D5
078A8:  MOVFF  03,6D6
078AC:  MOVFF  03,6E8
078B0:  MOVFF  02,6E7
078B4:  MOVFF  01,6E6
078B8:  MOVFF  00,6E5
078BC:  MOVFF  258,6EC
078C0:  MOVFF  257,6EB
078C4:  MOVFF  256,6EA
078C8:  MOVFF  255,6E9
078CC:  CALL   44C4
078D0:  MOVFF  00,6D3
078D4:  MOVFF  01,6D4
078D8:  MOVFF  02,6D5
078DC:  MOVFF  03,6D6
078E0:  MOVFF  6D2,6E8
078E4:  MOVFF  6D1,6E7
078E8:  MOVFF  6D0,6E6
078EC:  MOVFF  6CF,6E5
078F0:  MOVFF  6D2,6EC
078F4:  MOVFF  6D1,6EB
078F8:  MOVFF  6D0,6EA
078FC:  MOVFF  6CF,6E9
07900:  CALL   44C4
07904:  MOVFF  00,6D7
07908:  MOVFF  01,6D8
0790C:  MOVFF  02,6D9
07910:  MOVFF  03,6DA
07914:  MOVFF  03,6E8
07918:  MOVFF  02,6E7
0791C:  MOVFF  01,6E6
07920:  MOVFF  00,6E5
07924:  MOVFF  25C,6EC
07928:  MOVFF  25B,6EB
0792C:  MOVFF  25A,6EA
07930:  MOVFF  259,6E9
07934:  CALL   44C4
07938:  BCF    FD8.1
0793A:  MOVFF  6D6,6E4
0793E:  MOVFF  6D5,6E3
07942:  MOVFF  6D4,6E2
07946:  MOVFF  6D3,6E1
0794A:  MOVFF  03,6E8
0794E:  MOVFF  02,6E7
07952:  MOVFF  01,6E6
07956:  MOVFF  00,6E5
0795A:  CALL   2364
0795E:  MOVFF  00,6D3
07962:  MOVFF  01,6D4
07966:  MOVFF  02,6D5
0796A:  MOVFF  03,6D6
0796E:  MOVFF  260,6E8
07972:  MOVFF  25F,6E7
07976:  MOVFF  25E,6E6
0797A:  MOVFF  25D,6E5
0797E:  MOVFF  6D2,6EC
07982:  MOVFF  6D1,6EB
07986:  MOVFF  6D0,6EA
0798A:  MOVFF  6CF,6E9
0798E:  CALL   44C4
07992:  BCF    FD8.1
07994:  MOVFF  6D6,6E4
07998:  MOVFF  6D5,6E3
0799C:  MOVFF  6D4,6E2
079A0:  MOVFF  6D3,6E1
079A4:  MOVFF  03,6E8
079A8:  MOVFF  02,6E7
079AC:  MOVFF  01,6E6
079B0:  MOVFF  00,6E5
079B4:  CALL   2364
079B8:  MOVFF  00,6D3
079BC:  MOVFF  01,6D4
079C0:  MOVFF  02,6D5
079C4:  MOVFF  03,6D6
079C8:  BCF    FD8.1
079CA:  MOVFF  03,6E4
079CE:  MOVFF  02,6E3
079D2:  MOVFF  01,6E2
079D6:  MOVFF  00,6E1
079DA:  MOVFF  264,6E8
079DE:  MOVFF  263,6E7
079E2:  MOVFF  262,6E6
079E6:  MOVFF  261,6E5
079EA:  CALL   2364
079EE:  MOVFF  03,268
079F2:  MOVFF  02,267
079F6:  MOVFF  01,266
079FA:  MOVFF  00,265
....................    if(Tactual>Setpoint+0.3){ 
079FE:  MOVLB  6
07A00:  CLRF   xE2
07A02:  MOVFF  283,6E1
07A06:  MOVLB  0
07A08:  CALL   21A8
07A0C:  BCF    FD8.1
07A0E:  MOVFF  03,6E4
07A12:  MOVFF  02,6E3
07A16:  MOVFF  01,6E2
07A1A:  MOVFF  00,6E1
07A1E:  MOVLW  9A
07A20:  MOVLB  6
07A22:  MOVWF  xE8
07A24:  MOVLW  99
07A26:  MOVWF  xE7
07A28:  MOVLW  19
07A2A:  MOVWF  xE6
07A2C:  MOVLW  7D
07A2E:  MOVWF  xE5
07A30:  MOVLB  0
07A32:  CALL   2364
07A36:  MOVFF  03,6D6
07A3A:  MOVFF  02,6D5
07A3E:  MOVFF  01,6D4
07A42:  MOVFF  00,6D3
07A46:  MOVFF  268,6DA
07A4A:  MOVFF  267,6D9
07A4E:  MOVFF  266,6D8
07A52:  MOVFF  265,6D7
07A56:  CALL   283A
07A5A:  BNC   7A62
....................       suministroVapor=OFF; 
07A5C:  BCF    xF8.1
....................       Paso=ON; 
07A5E:  BSF    xF8.2
....................    }else if(Tactual<=Setpoint+0.2){ 
07A60:  BRA    7AC6
07A62:  MOVLB  6
07A64:  CLRF   xE2
07A66:  MOVFF  283,6E1
07A6A:  MOVLB  0
07A6C:  CALL   21A8
07A70:  BCF    FD8.1
07A72:  MOVFF  03,6E4
07A76:  MOVFF  02,6E3
07A7A:  MOVFF  01,6E2
07A7E:  MOVFF  00,6E1
07A82:  MOVLW  CD
07A84:  MOVLB  6
07A86:  MOVWF  xE8
07A88:  MOVLW  CC
07A8A:  MOVWF  xE7
07A8C:  MOVLW  4C
07A8E:  MOVWF  xE6
07A90:  MOVLW  7C
07A92:  MOVWF  xE5
07A94:  MOVLB  0
07A96:  CALL   2364
07A9A:  MOVFF  268,6D6
07A9E:  MOVFF  267,6D5
07AA2:  MOVFF  266,6D4
07AA6:  MOVFF  265,6D3
07AAA:  MOVFF  03,6DA
07AAE:  MOVFF  02,6D9
07AB2:  MOVFF  01,6D8
07AB6:  MOVFF  00,6D7
07ABA:  CALL   283A
07ABE:  BC    7AC2
07AC0:  BNZ   7AC6
....................       suministroVapor=ON; 
07AC2:  BSF    xF8.1
....................       Paso=ON; 
07AC4:  BSF    xF8.2
....................    } 
....................    //////////////////////////////////// 
.................... //--------------------------------------------------------------------------------------------------------------------//    
.................... } 
07AC6:  RETLW  00
....................  
.................... void Envio_I2C(direccion, posicion, dato){ 
....................    i2c_start();            // Comienzo comunicacin 
*
0597A:  BSF    F94.4
0597C:  MOVLW  05
0597E:  MOVWF  00
05980:  DECFSZ 00,F
05982:  BRA    5980
05984:  BSF    F94.3
05986:  MOVLW  06
05988:  MOVWF  00
0598A:  DECFSZ 00,F
0598C:  BRA    598A
0598E:  BCF    F8B.4
05990:  BCF    F94.4
05992:  MOVLW  05
05994:  MOVWF  00
05996:  DECFSZ 00,F
05998:  BRA    5996
0599A:  BCF    F8B.3
0599C:  BCF    F94.3
....................    i2c_write(direccion);   // Direccin del esclavo en el bus I2C 
0599E:  MOVFF  6E2,6E5
059A2:  CALL   2672
....................    i2c_write(posicion);    // Posicin donde se guardara el dato transmitido 
059A6:  MOVFF  6E3,6E5
059AA:  CALL   2672
....................    i2c_write(dato);        // Dato a transmitir 
059AE:  MOVFF  6E4,6E5
059B2:  CALL   2672
....................    i2c_stop();             // Fin comunicacin 
059B6:  BCF    F94.4
059B8:  NOP   
059BA:  BSF    F94.3
059BC:  BTFSS  F82.3
059BE:  BRA    59BC
059C0:  MOVLW  05
059C2:  MOVWF  00
059C4:  DECFSZ 00,F
059C6:  BRA    59C4
059C8:  BRA    59CA
059CA:  NOP   
059CC:  BSF    F94.4
059CE:  MOVLW  05
059D0:  MOVWF  00
059D2:  DECFSZ 00,F
059D4:  BRA    59D2
....................  } 
059D6:  GOTO   5AA0 (RETURN)
....................  
.................... void Lectura_I2C (byte direccion, byte posicion, byte &dato) { 
....................  
....................    i2c_start();            // Comienzo de la comunicacin 
*
05AC6:  BSF    F94.4
05AC8:  MOVLW  05
05ACA:  MOVWF  00
05ACC:  DECFSZ 00,F
05ACE:  BRA    5ACC
05AD0:  BSF    F94.3
05AD2:  MOVLW  06
05AD4:  MOVWF  00
05AD6:  DECFSZ 00,F
05AD8:  BRA    5AD6
05ADA:  BCF    F8B.4
05ADC:  BCF    F94.4
05ADE:  MOVLW  05
05AE0:  MOVWF  00
05AE2:  DECFSZ 00,F
05AE4:  BRA    5AE2
05AE6:  BCF    F8B.3
05AE8:  BCF    F94.3
*
05B7C:  BSF    F94.4
05B7E:  MOVLW  05
05B80:  MOVWF  00
05B82:  DECFSZ 00,F
05B84:  BRA    5B82
05B86:  BSF    F94.3
05B88:  MOVLW  06
05B8A:  MOVWF  00
05B8C:  DECFSZ 00,F
05B8E:  BRA    5B8C
05B90:  BCF    F8B.4
05B92:  BCF    F94.4
05B94:  MOVLW  05
05B96:  MOVWF  00
05B98:  DECFSZ 00,F
05B9A:  BRA    5B98
05B9C:  BCF    F8B.3
05B9E:  BCF    F94.3
....................    i2c_write(direccion);   // Direccin del esclavo en el bus I2C 
*
05AEA:  MOVFF  6CF,6E5
05AEE:  CALL   2672
*
05BA0:  MOVFF  6CF,6E5
05BA4:  MOVLB  0
05BA6:  CALL   2672
....................    i2c_write(posicion);    // Posicin de donde se leer el dato en el esclavo 
*
05AF2:  MOVFF  6D0,6E5
05AF6:  CALL   2672
*
05BAA:  MOVFF  6D0,6E5
05BAE:  CALL   2672
....................    i2c_start();            // Reinicio 
*
05AFA:  BSF    F94.4
05AFC:  MOVLW  05
05AFE:  MOVWF  00
05B00:  DECFSZ 00,F
05B02:  BRA    5B00
05B04:  BSF    F94.3
05B06:  MOVLW  06
05B08:  MOVWF  00
05B0A:  DECFSZ 00,F
05B0C:  BRA    5B0A
05B0E:  BTFSS  F82.3
05B10:  BRA    5B0E
05B12:  BCF    F8B.4
05B14:  BCF    F94.4
05B16:  MOVLW  05
05B18:  MOVWF  00
05B1A:  DECFSZ 00,F
05B1C:  BRA    5B1A
05B1E:  BCF    F8B.3
05B20:  BCF    F94.3
*
05BB2:  BSF    F94.4
05BB4:  MOVLW  05
05BB6:  MOVWF  00
05BB8:  DECFSZ 00,F
05BBA:  BRA    5BB8
05BBC:  BSF    F94.3
05BBE:  MOVLW  06
05BC0:  MOVWF  00
05BC2:  DECFSZ 00,F
05BC4:  BRA    5BC2
05BC6:  BTFSS  F82.3
05BC8:  BRA    5BC6
05BCA:  BCF    F8B.4
05BCC:  BCF    F94.4
05BCE:  MOVLW  05
05BD0:  MOVWF  00
05BD2:  DECFSZ 00,F
05BD4:  BRA    5BD2
05BD6:  BCF    F8B.3
05BD8:  BCF    F94.3
....................    i2c_write(direccion+1); // Direccin del esclavo en modo lectura 
*
05B22:  MOVLW  01
05B24:  MOVLB  6
05B26:  ADDWF  xCF,W
05B28:  MOVWF  xD1
05B2A:  MOVWF  xE5
05B2C:  MOVLB  0
05B2E:  CALL   2672
*
05BDA:  MOVLW  01
05BDC:  MOVLB  6
05BDE:  ADDWF  xCF,W
05BE0:  MOVWF  xD1
05BE2:  MOVWF  xE5
05BE4:  MOVLB  0
05BE6:  CALL   2672
....................    dato=i2c_read(0);       // Lectura del dato 
*
05B32:  CLRF   00
05B34:  CALL   26E8
05B38:  MOVFF  01,DD
*
05BEA:  CLRF   00
05BEC:  CALL   26E8
05BF0:  MOVFF  01,DD
....................    i2c_stop();             // Fin comunicacin 
*
05B3C:  BCF    F94.4
05B3E:  NOP   
05B40:  BSF    F94.3
05B42:  BTFSS  F82.3
05B44:  BRA    5B42
05B46:  MOVLW  05
05B48:  MOVWF  00
05B4A:  DECFSZ 00,F
05B4C:  BRA    5B4A
05B4E:  BRA    5B50
05B50:  NOP   
05B52:  BSF    F94.4
05B54:  MOVLW  05
05B56:  MOVWF  00
05B58:  DECFSZ 00,F
05B5A:  BRA    5B58
*
05BF4:  BCF    F94.4
05BF6:  NOP   
05BF8:  BSF    F94.3
05BFA:  BTFSS  F82.3
05BFC:  BRA    5BFA
05BFE:  MOVLW  05
05C00:  MOVWF  00
05C02:  DECFSZ 00,F
05C04:  BRA    5C02
05C06:  BRA    5C08
05C08:  NOP   
05C0A:  BSF    F94.4
05C0C:  MOVLW  05
05C0E:  MOVWF  00
05C10:  DECFSZ 00,F
05C12:  BRA    5C10
.................... } 
....................  
.................... void Carga_Vector(void){ 
....................    SlaveB0Tx[0]=(int8)Temperatura; 
*
056A2:  MOVFF  23E,6E4
056A6:  MOVFF  23D,6E3
056AA:  MOVFF  23C,6E2
056AE:  MOVFF  23B,6E1
056B2:  RCALL  5098
056B4:  MOVFF  01,6D
....................    SlaveB0Tx[1]=(Temperatura-((int8)Temperatura))*10; 
056B8:  MOVFF  23E,6E4
056BC:  MOVFF  23D,6E3
056C0:  MOVFF  23C,6E2
056C4:  MOVFF  23B,6E1
056C8:  RCALL  5098
056CA:  MOVLB  6
056CC:  CLRF   xE2
056CE:  MOVFF  01,6E1
056D2:  MOVLB  0
056D4:  CALL   21A8
056D8:  BSF    FD8.1
056DA:  MOVFF  23E,6E4
056DE:  MOVFF  23D,6E3
056E2:  MOVFF  23C,6E2
056E6:  MOVFF  23B,6E1
056EA:  MOVFF  03,6E8
056EE:  MOVFF  02,6E7
056F2:  MOVFF  01,6E6
056F6:  MOVFF  00,6E5
056FA:  CALL   2364
056FE:  MOVFF  00,6E1
05702:  MOVFF  01,6E2
05706:  MOVFF  02,6E3
0570A:  MOVFF  03,6E4
0570E:  MOVFF  03,6E8
05712:  MOVFF  02,6E7
05716:  MOVFF  01,6E6
0571A:  MOVFF  00,6E5
0571E:  MOVLB  6
05720:  CLRF   xEC
05722:  CLRF   xEB
05724:  MOVLW  20
05726:  MOVWF  xEA
05728:  MOVLW  82
0572A:  MOVWF  xE9
0572C:  MOVLB  0
0572E:  CALL   44C4
05732:  MOVFF  03,6E4
05736:  MOVFF  02,6E3
0573A:  MOVFF  01,6E2
0573E:  MOVFF  00,6E1
05742:  RCALL  5098
05744:  MOVFF  01,6E
....................    SlaveB0Tx[2]=make8((int16)PresionCamara,0); 
05748:  MOVFF  294,6F
0574C:  MOVLB  0
....................    SlaveB0Tx[3]=make8((int16)PresionCamara,1); 
0574E:  MOVFF  295,70
05752:  MOVLB  0
....................    SlaveB0Tx[4]=make8((int16)PresionPreCamara,0); 
05754:  MOVFF  296,71
05758:  MOVLB  0
....................    SlaveB0Tx[5]=make8((int16)PresionPreCamara,1); 
0575A:  MOVFF  297,72
0575E:  MOVLB  0
....................    SlaveB0Tx[6]=(int8)Tpulso*10; 
05760:  MOVFF  20E,6E4
05764:  MOVFF  20D,6E3
05768:  MOVFF  20C,6E2
0576C:  MOVFF  20B,6E1
05770:  RCALL  5098
05772:  MOVF   01,W
05774:  MULLW  0A
05776:  MOVFF  FF3,73
....................    SlaveB0Tx[7]=seguroValvula; 
0577A:  CLRF   x74
0577C:  BTFSC  xF9.1
0577E:  INCF   x74,F
....................    SlaveB0Tx[8]=seguroValvula2; 
05780:  CLRF   x75
05782:  BTFSC  xF9.2
05784:  INCF   x75,F
....................    //SlaveB0Tx[9]=TERM; 
....................    //SlaveB0Tx[10]=DOOR; 
....................    SlaveB0Tx[11]=STOP; 
05786:  BSF    F93.0
05788:  CLRF   x78
0578A:  BTFSS  F81.0
0578C:  INCF   x78,F
....................    SlaveB0Tx[12]=(int8)error; 
0578E:  MOVFF  212,6E4
05792:  MOVFF  211,6E3
05796:  MOVFF  210,6E2
0579A:  MOVFF  20F,6E1
0579E:  RCALL  5098
057A0:  MOVFF  01,79
....................    SlaveB0Tx[13]=CicloSeleccionado; 
057A4:  MOVFF  279,7A
....................    SlaveB0Tx[14]=SetTime; 
057A8:  MOVFF  2CB,7B
....................    SlaveB0Tx[15]=Dia; 
057AC:  MOVFF  2BA,7C
....................    SlaveB0Tx[16]=Mes; 
057B0:  MOVFF  2B9,7D
....................    SlaveB0Tx[17]=Year; 
057B4:  MOVFF  2B8,7E
....................    SlaveB0Tx[18]=Hora; 
057B8:  MOVFF  2BB,7F
....................    SlaveB0Tx[19]=Minuto; 
057BC:  MOVFF  2BC,80
....................    SlaveB0Tx[20]=Segundo; 
057C0:  MOVFF  2BD,81
....................    SlaveB0Tx[21]=Imprime; 
057C4:  MOVFF  2CC,82
....................    SlaveB0Tx[22]=make8(Ciclos,0); 
057C8:  MOVFF  298,83
057CC:  MOVLB  0
....................    SlaveB0Tx[23]=make8(Ciclos,1); 
057CE:  MOVFF  299,84
057D2:  MOVLB  0
....................    SlaveB0Tx[24]=EstadoBuzzer; 
057D4:  CLRF   x85
057D6:  MOVLB  1
057D8:  BTFSS  x06.4
057DA:  BRA    57E2
057DC:  MOVLB  0
057DE:  INCF   x85,F
057E0:  MOVLB  1
....................    SlaveB0Tx[25]=suministroAire; 
057E2:  MOVLB  0
057E4:  CLRF   x86
057E6:  BTFSC  30.4
057E8:  INCF   x86,F
....................    SlaveB0Tx[26]=AguaEnfriador; 
057EA:  CLRF   x87
057EC:  BTFSC  30.5
057EE:  INCF   x87,F
....................    SlaveB0Tx[27]=BombaVacio; 
057F0:  CLRF   x88
057F2:  BTFSC  30.6
057F4:  INCF   x88,F
....................    SlaveB0Tx[28]=empaqueLimpio; 
057F6:  CLRF   x89
057F8:  BTFSC  30.7
057FA:  INCF   x89,F
....................    SlaveB0Tx[29]=empaqueSucio; 
057FC:  CLRF   x8A
057FE:  BTFSC  xF8.0
05800:  INCF   x8A,F
....................    SlaveB0Tx[30]=cilindroSucio; 
05802:  CLRF   x8B
05804:  BTFSC  xF8.6
05806:  INCF   x8B,F
....................    SlaveB0Tx[31]=cilindroLimpio; 
05808:  CLRF   x8C
0580A:  BTFSC  xF8.7
0580C:  INCF   x8C,F
....................    SlaveB0Tx[32]=suministroVapor; 
0580E:  CLRF   x8D
05810:  BTFSC  xF8.1
05812:  INCF   x8D,F
....................    SlaveB0Tx[33]=Paso; 
05814:  CLRF   x8E
05816:  BTFSC  xF8.2
05818:  INCF   x8E,F
....................    SlaveB0Tx[34]=outVacio; 
0581A:  CLRF   x8F
0581C:  BTFSC  xF8.3
0581E:  INCF   x8F,F
....................    SlaveB0Tx[35]=Desfogue; 
05820:  CLRF   x90
05822:  BTFSC  xF8.4
05824:  INCF   x90,F
....................    SlaveB0Tx[36]=Aire; 
05826:  CLRF   x91
05828:  BTFSC  xF8.5
0582A:  INCF   x91,F
....................    SlaveB0Tx[37]=Aux; 
0582C:  CLRF   x92
0582E:  BTFSC  xF9.0
05830:  INCF   x92,F
....................     
....................    SlaveC0Tx[0]=(int8)Temperatura; 
05832:  MOVFF  23E,6E4
05836:  MOVFF  23D,6E3
0583A:  MOVFF  23C,6E2
0583E:  MOVFF  23B,6E1
05842:  RCALL  5098
05844:  MOVFF  01,93
....................    SlaveC0Tx[1]=(Temperatura-((int8)Temperatura))*10; 
05848:  MOVFF  23E,6E4
0584C:  MOVFF  23D,6E3
05850:  MOVFF  23C,6E2
05854:  MOVFF  23B,6E1
05858:  RCALL  5098
0585A:  MOVLB  6
0585C:  CLRF   xE2
0585E:  MOVFF  01,6E1
05862:  MOVLB  0
05864:  CALL   21A8
05868:  BSF    FD8.1
0586A:  MOVFF  23E,6E4
0586E:  MOVFF  23D,6E3
05872:  MOVFF  23C,6E2
05876:  MOVFF  23B,6E1
0587A:  MOVFF  03,6E8
0587E:  MOVFF  02,6E7
05882:  MOVFF  01,6E6
05886:  MOVFF  00,6E5
0588A:  CALL   2364
0588E:  MOVFF  00,6E1
05892:  MOVFF  01,6E2
05896:  MOVFF  02,6E3
0589A:  MOVFF  03,6E4
0589E:  MOVFF  03,6E8
058A2:  MOVFF  02,6E7
058A6:  MOVFF  01,6E6
058AA:  MOVFF  00,6E5
058AE:  MOVLB  6
058B0:  CLRF   xEC
058B2:  CLRF   xEB
058B4:  MOVLW  20
058B6:  MOVWF  xEA
058B8:  MOVLW  82
058BA:  MOVWF  xE9
058BC:  MOVLB  0
058BE:  CALL   44C4
058C2:  MOVFF  03,6E4
058C6:  MOVFF  02,6E3
058CA:  MOVFF  01,6E2
058CE:  MOVFF  00,6E1
058D2:  CALL   5098
058D6:  MOVFF  01,94
....................    SlaveC0Tx[2]=make8((int16)PresionCamara,0); 
058DA:  MOVFF  294,95
058DE:  MOVLB  0
....................    SlaveC0Tx[3]=make8((int16)PresionCamara,1); 
058E0:  MOVFF  295,96
058E4:  MOVLB  0
....................    SlaveC0Tx[4]=make8((int16)PresionPreCamara,0); 
058E6:  MOVFF  296,97
058EA:  MOVLB  0
....................    SlaveC0Tx[5]=make8((int16)PresionPreCamara,1); 
058EC:  MOVFF  297,98
058F0:  MOVLB  0
....................    SlaveC0Tx[6]=(int8)Tpulso*10; 
058F2:  MOVFF  20E,6E4
058F6:  MOVFF  20D,6E3
058FA:  MOVFF  20C,6E2
058FE:  MOVFF  20B,6E1
05902:  CALL   5098
05906:  MOVF   01,W
05908:  MULLW  0A
0590A:  MOVFF  FF3,99
....................    //SlaveC0Tx[7]=HIG; 
....................    //SlaveC0Tx[8]=LOW; 
....................    //SlaveC0Tx[9]=TERM; 
....................    //SlaveC0Tx[10]=DOOR; 
....................    SlaveC0Tx[11]=STOP; 
0590E:  BSF    F93.0
05910:  CLRF   x9E
05912:  BTFSS  F81.0
05914:  INCF   x9E,F
....................    SlaveC0Tx[12]=(int8)error; 
05916:  MOVFF  212,6E4
0591A:  MOVFF  211,6E3
0591E:  MOVFF  210,6E2
05922:  MOVFF  20F,6E1
05926:  CALL   5098
0592A:  MOVFF  01,9F
....................    SlaveC0Tx[13]=CicloSeleccionado; 
0592E:  MOVFF  279,A0
....................    SlaveC0Tx[14]=SetTime; 
05932:  MOVFF  2CB,A1
....................    SlaveC0Tx[15]=Dia; 
05936:  MOVFF  2BA,A2
....................    SlaveC0Tx[16]=Mes; 
0593A:  MOVFF  2B9,A3
....................    SlaveC0Tx[17]=Year; 
0593E:  MOVFF  2B8,A4
....................    SlaveC0Tx[18]=Hora; 
05942:  MOVFF  2BB,A5
....................    SlaveC0Tx[19]=Minuto; 
05946:  MOVFF  2BC,A6
....................    SlaveC0Tx[20]=Segundo; 
0594A:  MOVFF  2BD,A7
....................    SlaveC0Tx[21]=mEst; 
0594E:  MOVFF  122,A8
....................    SlaveC0Tx[22]=sEst; 
05952:  MOVFF  121,A9
....................    SlaveC0Tx[23]=mSec; 
05956:  MOVFF  124,AA
....................    SlaveC0Tx[24]=sSec; 
0595A:  MOVFF  123,AB
....................    SlaveC0Tx[25]=Menu; 
0595E:  MOVFF  273,AC
....................    SlaveC0Tx[26]=Setpoint; 
05962:  MOVFF  283,AD
....................    SlaveC0Tx[27]=codigoAlarma; 
05966:  MOVFF  2AF,AE
....................    SlaveC0Tx[28]=255; 
0596A:  MOVLW  FF
0596C:  MOVWF  xAF
....................    SlaveC0Tx[29]=128; 
0596E:  MOVLW  80
05970:  MOVWF  xB0
....................    SlaveC0Tx[30]=50; 
05972:  MOVLW  32
05974:  MOVWF  xB1
.................... } 
05976:  GOTO   59DC (RETURN)
....................  
.................... void Lee_Vector(void){ 
....................    //Dia=txbuf[0];    
.................... } 
*
00004:  GOTO   5C20 (RETURN)
....................  
.................... void Envio_Esclavos(void){ 
....................    Carga_Vector(); 
*
059DA:  BRA    56A2
....................    for(i=0;i<38;i++){ 
059DC:  MOVLB  2
059DE:  CLRF   x76
059E0:  MOVF   x76,W
059E2:  SUBLW  25
059E4:  BNC   5A6E
....................       direccion=0xB0; 
059E6:  MOVLW  B0
059E8:  MOVLB  0
059EA:  MOVWF  xDE
....................       i2c_start();            // Comienzo comunicacin 
059EC:  BSF    F94.4
059EE:  MOVLW  05
059F0:  MOVWF  00
059F2:  DECFSZ 00,F
059F4:  BRA    59F2
059F6:  BSF    F94.3
059F8:  MOVLW  06
059FA:  MOVWF  00
059FC:  DECFSZ 00,F
059FE:  BRA    59FC
05A00:  BCF    F8B.4
05A02:  BCF    F94.4
05A04:  MOVLW  05
05A06:  MOVWF  00
05A08:  DECFSZ 00,F
05A0A:  BRA    5A08
05A0C:  BCF    F8B.3
05A0E:  BCF    F94.3
....................       i2c_write(direccion);   // Direccin del esclavo en el bus I2C 
05A10:  MOVFF  DE,6E5
05A14:  CALL   2672
....................       i2c_write(i);   // Direccin del esclavo en el bus I2C 
05A18:  MOVFF  276,6E5
05A1C:  CALL   2672
....................       i2c_write(0);    // Posicin donde se guardara el dato transmitido 
05A20:  MOVLB  6
05A22:  CLRF   xE5
05A24:  MOVLB  0
05A26:  CALL   2672
....................       i2c_write(SlaveB0Tx[i]); // Dato a transmitir 
05A2A:  CLRF   03
05A2C:  MOVLB  2
05A2E:  MOVF   x76,W
05A30:  ADDLW  6D
05A32:  MOVWF  FE9
05A34:  MOVLW  00
05A36:  ADDWFC 03,W
05A38:  MOVWF  FEA
05A3A:  MOVFF  FEF,6E1
05A3E:  MOVFF  6E1,6E5
05A42:  MOVLB  0
05A44:  CALL   2672
....................       i2c_stop();  
05A48:  BCF    F94.4
05A4A:  NOP   
05A4C:  BSF    F94.3
05A4E:  BTFSS  F82.3
05A50:  BRA    5A4E
05A52:  MOVLW  05
05A54:  MOVWF  00
05A56:  DECFSZ 00,F
05A58:  BRA    5A56
05A5A:  BRA    5A5C
05A5C:  NOP   
05A5E:  BSF    F94.4
05A60:  MOVLW  05
05A62:  MOVWF  00
05A64:  DECFSZ 00,F
05A66:  BRA    5A64
....................       //Envio_I2C(direccion,i,SlaveB0Tx[i]); 
....................    }  
05A68:  MOVLB  2
05A6A:  INCF   x76,F
05A6C:  BRA    59E0
....................     
....................    for(i=0;i<31;i++){ 
05A6E:  CLRF   x76
05A70:  MOVF   x76,W
05A72:  SUBLW  1E
05A74:  BNC   5AA6
....................       direccion=0xC0; 
05A76:  MOVLW  C0
05A78:  MOVLB  0
05A7A:  MOVWF  xDE
....................       Envio_I2C(direccion,i,SlaveC0Tx[i]); 
05A7C:  CLRF   03
05A7E:  MOVLB  2
05A80:  MOVF   x76,W
05A82:  ADDLW  93
05A84:  MOVWF  FE9
05A86:  MOVLW  00
05A88:  ADDWFC 03,W
05A8A:  MOVWF  FEA
05A8C:  MOVFF  FEF,6E1
05A90:  MOVFF  DE,6E2
05A94:  MOVFF  276,6E3
05A98:  MOVFF  6E1,6E4
05A9C:  MOVLB  0
05A9E:  BRA    597A
....................    } 
05AA0:  MOVLB  2
05AA2:  INCF   x76,F
05AA4:  BRA    5A70
.................... } 
05AA6:  MOVLB  0
05AA8:  RETLW  00
.................... void Lectura_Esclavos(void){ 
....................    for(i=0;i<9;i++){ 
05AAA:  MOVLB  2
05AAC:  CLRF   x76
05AAE:  MOVF   x76,W
05AB0:  SUBLW  08
05AB2:  BNC   5B74
....................       direccion=0xB0;                        //Direccin en el bus I2c 
05AB4:  MOVLW  B0
05AB6:  MOVLB  0
05AB8:  MOVWF  xDE
....................       posicion=i;                         //Posicin de memoria a leer 
05ABA:  MOVFF  276,DF
....................       Lectura_I2C(direccion, posicion, dato);    //Lectura por I2C 
05ABE:  MOVFF  DE,6CF
05AC2:  MOVFF  DF,6D0
....................       txbuf[i]=(int8)dato; 
*
05B5C:  CLRF   03
05B5E:  MOVLB  2
05B60:  MOVF   x76,W
05B62:  ADDLW  48
05B64:  MOVWF  FE9
05B66:  MOVLW  00
05B68:  ADDWFC 03,W
05B6A:  MOVWF  FEA
05B6C:  MOVFF  DD,FEF
....................    } 
05B70:  INCF   x76,F
05B72:  BRA    5AAE
....................    Lectura_I2C(0XC0, 0, dato);    //Lectura por I2C 
05B74:  MOVLW  C0
05B76:  MOVLB  6
05B78:  MOVWF  xCF
05B7A:  CLRF   xD0
....................    SlaveC0Rx[0]=(int8)dato; 
*
05C14:  MOVFF  DD,B8
....................    subirPuertaLimpio=SlaveC0Rx[0]; 
05C18:  MOVFF  B8,1FC
....................    Lee_Vector(); 
05C1C:  GOTO   0004
.................... } 
05C20:  GOTO   8216 (RETURN)
....................  
.................... int8 extraeDecimal(float data){ 
*
07284:  MOVLB  6
07286:  CLRF   xDC
07288:  CLRF   xDB
0728A:  CLRF   xDA
0728C:  CLRF   xD9
0728E:  CLRF   xE0
07290:  CLRF   xDF
07292:  CLRF   xDE
07294:  CLRF   xDD
....................    float entero=0; 
....................    float tmp=0.0; 
....................     
....................    entero=(int8)data; 
07296:  MOVFF  6D8,6E4
0729A:  MOVFF  6D7,6E3
0729E:  MOVFF  6D6,6E2
072A2:  MOVFF  6D5,6E1
072A6:  MOVLB  0
072A8:  CALL   5098
072AC:  MOVLB  6
072AE:  CLRF   xE2
072B0:  MOVFF  01,6E1
072B4:  MOVLB  0
072B6:  CALL   21A8
072BA:  MOVFF  03,6DC
072BE:  MOVFF  02,6DB
072C2:  MOVFF  01,6DA
072C6:  MOVFF  00,6D9
....................    tmp=(data-entero)*10; 
072CA:  BSF    FD8.1
072CC:  MOVFF  6D8,6E4
072D0:  MOVFF  6D7,6E3
072D4:  MOVFF  6D6,6E2
072D8:  MOVFF  6D5,6E1
072DC:  MOVFF  6DC,6E8
072E0:  MOVFF  6DB,6E7
072E4:  MOVFF  6DA,6E6
072E8:  MOVFF  6D9,6E5
072EC:  CALL   2364
072F0:  MOVFF  00,6E1
072F4:  MOVFF  01,6E2
072F8:  MOVFF  02,6E3
072FC:  MOVFF  03,6E4
07300:  MOVFF  03,6E8
07304:  MOVFF  02,6E7
07308:  MOVFF  01,6E6
0730C:  MOVFF  00,6E5
07310:  MOVLB  6
07312:  CLRF   xEC
07314:  CLRF   xEB
07316:  MOVLW  20
07318:  MOVWF  xEA
0731A:  MOVLW  82
0731C:  MOVWF  xE9
0731E:  MOVLB  0
07320:  CALL   44C4
07324:  MOVFF  03,6E0
07328:  MOVFF  02,6DF
0732C:  MOVFF  01,6DE
07330:  MOVFF  00,6DD
....................    return (int8)tmp; 
07334:  MOVFF  6E0,6E4
07338:  MOVFF  6DF,6E3
0733C:  MOVFF  6DE,6E2
07340:  MOVFF  6DD,6E1
07344:  CALL   5098
07348:  MOVF   01,W
.................... } 
0734A:  GOTO   745E (RETURN)
....................  
.................... float inttofloat(int8 decimal){ 
....................    float tmp; 
....................    tmp=decimal; 
*
027FA:  MOVLB  6
027FC:  CLRF   xE2
027FE:  MOVFF  6D3,6E1
02802:  MOVLB  0
02804:  RCALL  21A8
02806:  MOVFF  03,6D7
0280A:  MOVFF  02,6D6
0280E:  MOVFF  01,6D5
02812:  MOVFF  00,6D4
....................    return tmp/10; 
02816:  MOVFF  6D7,6DE
0281A:  MOVFF  6D6,6DD
0281E:  MOVFF  6D5,6DC
02822:  MOVFF  6D4,6DB
02826:  MOVLB  6
02828:  CLRF   xE2
0282A:  CLRF   xE1
0282C:  MOVLW  20
0282E:  MOVWF  xE0
02830:  MOVLW  82
02832:  MOVWF  xDF
02834:  MOVLB  0
02836:  RCALL  2206
.................... } 
02838:  RETLW  00
....................  
.................... void LeeEEPROM(){ 
.................... //Lectura EEPROM//-------------------------- 
....................    Ganancia=read_eeprom(20); 
*
028B4:  MOVFF  FF2,6CF
028B8:  BCF    FF2.6
028BA:  BCF    FF2.7
028BC:  CLRF   FAA
028BE:  MOVLW  14
028C0:  MOVWF  FA9
028C2:  BCF    FA6.6
028C4:  BCF    FA6.7
028C6:  BSF    FA6.0
028C8:  MOVF   FA8,W
028CA:  MOVLB  6
028CC:  BTFSC  xCF.6
028CE:  BSF    FF2.6
028D0:  BTFSC  xCF.7
028D2:  BSF    FF2.7
028D4:  CLRF   xE2
028D6:  MOVWF  xE1
028D8:  MOVLB  0
028DA:  RCALL  21A8
028DC:  MOVFF  03,222
028E0:  MOVFF  02,221
028E4:  MOVFF  01,220
028E8:  MOVFF  00,21F
....................    delay_ms(10); 
028EC:  MOVLW  0A
028EE:  MOVLB  6
028F0:  MOVWF  xE1
028F2:  MOVLB  0
028F4:  RCALL  21DE
....................    Sensor[0].Ajuste=read_eeprom(21); 
028F6:  MOVFF  FF2,6CF
028FA:  BCF    FF2.6
028FC:  BCF    FF2.7
028FE:  CLRF   FAA
02900:  MOVLW  15
02902:  MOVWF  FA9
02904:  BCF    FA6.6
02906:  BCF    FA6.7
02908:  BSF    FA6.0
0290A:  MOVF   FA8,W
0290C:  MOVLB  6
0290E:  BTFSC  xCF.6
02910:  BSF    FF2.6
02912:  BTFSC  xCF.7
02914:  BSF    FF2.7
02916:  MOVLB  3
02918:  MOVWF  x5D
....................    delay_ms(10); 
0291A:  MOVLW  0A
0291C:  MOVLB  6
0291E:  MOVWF  xE1
02920:  MOVLB  0
02922:  RCALL  21DE
....................    Sensor[0].Ajusten=read_eeprom(22); 
02924:  MOVFF  FF2,6CF
02928:  BCF    FF2.6
0292A:  BCF    FF2.7
0292C:  CLRF   FAA
0292E:  MOVLW  16
02930:  MOVWF  FA9
02932:  BCF    FA6.6
02934:  BCF    FA6.7
02936:  BSF    FA6.0
02938:  MOVF   FA8,W
0293A:  MOVLB  6
0293C:  BTFSC  xCF.6
0293E:  BSF    FF2.6
02940:  BTFSC  xCF.7
02942:  BSF    FF2.7
02944:  MOVLB  3
02946:  MOVWF  x5E
....................    delay_ms(10); 
02948:  MOVLW  0A
0294A:  MOVLB  6
0294C:  MOVWF  xE1
0294E:  MOVLB  0
02950:  RCALL  21DE
....................    Sensor[1].Ajuste=read_eeprom(23); 
02952:  MOVFF  FF2,6CF
02956:  BCF    FF2.6
02958:  BCF    FF2.7
0295A:  CLRF   FAA
0295C:  MOVLW  17
0295E:  MOVWF  FA9
02960:  BCF    FA6.6
02962:  BCF    FA6.7
02964:  BSF    FA6.0
02966:  MOVF   FA8,W
02968:  MOVLB  6
0296A:  BTFSC  xCF.6
0296C:  BSF    FF2.6
0296E:  BTFSC  xCF.7
02970:  BSF    FF2.7
02972:  MOVLB  4
02974:  MOVWF  xC1
....................    delay_ms(10); 
02976:  MOVLW  0A
02978:  MOVLB  6
0297A:  MOVWF  xE1
0297C:  MOVLB  0
0297E:  RCALL  21DE
....................    Sensor[1].Ajusten=read_eeprom(24); 
02980:  MOVFF  FF2,6CF
02984:  BCF    FF2.6
02986:  BCF    FF2.7
02988:  CLRF   FAA
0298A:  MOVLW  18
0298C:  MOVWF  FA9
0298E:  BCF    FA6.6
02990:  BCF    FA6.7
02992:  BSF    FA6.0
02994:  MOVF   FA8,W
02996:  MOVLB  6
02998:  BTFSC  xCF.6
0299A:  BSF    FF2.6
0299C:  BTFSC  xCF.7
0299E:  BSF    FF2.7
029A0:  MOVLB  4
029A2:  MOVWF  xC2
....................    delay_ms(10);    
029A4:  MOVLW  0A
029A6:  MOVLB  6
029A8:  MOVWF  xE1
029AA:  MOVLB  0
029AC:  RCALL  21DE
....................    MediaMovil=read_eeprom(25); 
029AE:  MOVFF  FF2,6CF
029B2:  BCF    FF2.6
029B4:  BCF    FF2.7
029B6:  CLRF   FAA
029B8:  MOVLW  19
029BA:  MOVWF  FA9
029BC:  BCF    FA6.6
029BE:  BCF    FA6.7
029C0:  BSF    FA6.0
029C2:  MOVF   FA8,W
029C4:  MOVLB  6
029C6:  BTFSC  xCF.6
029C8:  BSF    FF2.6
029CA:  BTFSC  xCF.7
029CC:  BSF    FF2.7
029CE:  MOVLB  1
029D0:  MOVWF  xF7
....................    delay_ms(10); 
029D2:  MOVLW  0A
029D4:  MOVLB  6
029D6:  MOVWF  xE1
029D8:  MOVLB  0
029DA:  RCALL  21DE
....................    Tciclo=read_eeprom(26); 
029DC:  MOVFF  FF2,6CF
029E0:  BCF    FF2.6
029E2:  BCF    FF2.7
029E4:  CLRF   FAA
029E6:  MOVLW  1A
029E8:  MOVWF  FA9
029EA:  BCF    FA6.6
029EC:  BCF    FA6.7
029EE:  BSF    FA6.0
029F0:  MOVF   FA8,W
029F2:  MOVLB  6
029F4:  BTFSC  xCF.6
029F6:  BSF    FF2.6
029F8:  BTFSC  xCF.7
029FA:  BSF    FF2.7
029FC:  CLRF   xE2
029FE:  MOVWF  xE1
02A00:  MOVLB  0
02A02:  CALL   21A8
02A06:  MOVFF  03,20A
02A0A:  MOVFF  02,209
02A0E:  MOVFF  01,208
02A12:  MOVFF  00,207
....................    delay_ms(10); 
02A16:  MOVLW  0A
02A18:  MOVLB  6
02A1A:  MOVWF  xE1
02A1C:  MOVLB  0
02A1E:  CALL   21DE
....................    Temporal=read_eeprom(27); 
02A22:  MOVFF  FF2,6CF
02A26:  BCF    FF2.6
02A28:  BCF    FF2.7
02A2A:  CLRF   FAA
02A2C:  MOVLW  1B
02A2E:  MOVWF  FA9
02A30:  BCF    FA6.6
02A32:  BCF    FA6.7
02A34:  BSF    FA6.0
02A36:  MOVF   FA8,W
02A38:  MOVLB  6
02A3A:  BTFSC  xCF.6
02A3C:  BSF    FF2.6
02A3E:  BTFSC  xCF.7
02A40:  BSF    FF2.7
02A42:  CLRF   xE2
02A44:  MOVWF  xE1
02A46:  MOVLB  0
02A48:  CALL   21A8
02A4C:  MOVFF  03,1CC
02A50:  MOVFF  02,1CB
02A54:  MOVFF  01,1CA
02A58:  MOVFF  00,1C9
....................    Temporal=Temporal/10.0; 
02A5C:  MOVFF  1CC,6DE
02A60:  MOVFF  1CB,6DD
02A64:  MOVFF  1CA,6DC
02A68:  MOVFF  1C9,6DB
02A6C:  MOVLB  6
02A6E:  CLRF   xE2
02A70:  CLRF   xE1
02A72:  MOVLW  20
02A74:  MOVWF  xE0
02A76:  MOVLW  82
02A78:  MOVWF  xDF
02A7A:  MOVLB  0
02A7C:  CALL   2206
02A80:  MOVFF  03,1CC
02A84:  MOVFF  02,1CB
02A88:  MOVFF  01,1CA
02A8C:  MOVFF  00,1C9
....................    delay_ms(10); 
02A90:  MOVLW  0A
02A92:  MOVLB  6
02A94:  MOVWF  xE1
02A96:  MOVLB  0
02A98:  CALL   21DE
....................    Sensor[0].RPT100=read_eeprom(28)+Temporal; 
02A9C:  MOVFF  FF2,6CF
02AA0:  BCF    FF2.6
02AA2:  BCF    FF2.7
02AA4:  CLRF   FAA
02AA6:  MOVLW  1C
02AA8:  MOVWF  FA9
02AAA:  BCF    FA6.6
02AAC:  BCF    FA6.7
02AAE:  BSF    FA6.0
02AB0:  MOVF   FA8,W
02AB2:  MOVLB  6
02AB4:  BTFSC  xCF.6
02AB6:  BSF    FF2.6
02AB8:  BTFSC  xCF.7
02ABA:  BSF    FF2.7
02ABC:  CLRF   xE2
02ABE:  MOVWF  xE1
02AC0:  MOVLB  0
02AC2:  CALL   21A8
02AC6:  BCF    FD8.1
02AC8:  MOVFF  03,6E4
02ACC:  MOVFF  02,6E3
02AD0:  MOVFF  01,6E2
02AD4:  MOVFF  00,6E1
02AD8:  MOVFF  1CC,6E8
02ADC:  MOVFF  1CB,6E7
02AE0:  MOVFF  1CA,6E6
02AE4:  MOVFF  1C9,6E5
02AE8:  RCALL  2364
02AEA:  MOVFF  03,352
02AEE:  MOVFF  02,351
02AF2:  MOVFF  01,350
02AF6:  MOVFF  00,34F
....................    delay_ms(10); 
02AFA:  MOVLW  0A
02AFC:  MOVLB  6
02AFE:  MOVWF  xE1
02B00:  MOVLB  0
02B02:  CALL   21DE
....................    Temporal=read_eeprom(29); 
02B06:  MOVFF  FF2,6CF
02B0A:  BCF    FF2.6
02B0C:  BCF    FF2.7
02B0E:  CLRF   FAA
02B10:  MOVLW  1D
02B12:  MOVWF  FA9
02B14:  BCF    FA6.6
02B16:  BCF    FA6.7
02B18:  BSF    FA6.0
02B1A:  MOVF   FA8,W
02B1C:  MOVLB  6
02B1E:  BTFSC  xCF.6
02B20:  BSF    FF2.6
02B22:  BTFSC  xCF.7
02B24:  BSF    FF2.7
02B26:  CLRF   xE2
02B28:  MOVWF  xE1
02B2A:  MOVLB  0
02B2C:  CALL   21A8
02B30:  MOVFF  03,1CC
02B34:  MOVFF  02,1CB
02B38:  MOVFF  01,1CA
02B3C:  MOVFF  00,1C9
....................    Temporal=Temporal/10.0; 
02B40:  MOVFF  1CC,6DE
02B44:  MOVFF  1CB,6DD
02B48:  MOVFF  1CA,6DC
02B4C:  MOVFF  1C9,6DB
02B50:  MOVLB  6
02B52:  CLRF   xE2
02B54:  CLRF   xE1
02B56:  MOVLW  20
02B58:  MOVWF  xE0
02B5A:  MOVLW  82
02B5C:  MOVWF  xDF
02B5E:  MOVLB  0
02B60:  CALL   2206
02B64:  MOVFF  03,1CC
02B68:  MOVFF  02,1CB
02B6C:  MOVFF  01,1CA
02B70:  MOVFF  00,1C9
....................    delay_ms(10); 
02B74:  MOVLW  0A
02B76:  MOVLB  6
02B78:  MOVWF  xE1
02B7A:  MOVLB  0
02B7C:  CALL   21DE
....................    Sensor[1].RPT100=read_eeprom(30)+Temporal; 
02B80:  MOVFF  FF2,6CF
02B84:  BCF    FF2.6
02B86:  BCF    FF2.7
02B88:  CLRF   FAA
02B8A:  MOVLW  1E
02B8C:  MOVWF  FA9
02B8E:  BCF    FA6.6
02B90:  BCF    FA6.7
02B92:  BSF    FA6.0
02B94:  MOVF   FA8,W
02B96:  MOVLB  6
02B98:  BTFSC  xCF.6
02B9A:  BSF    FF2.6
02B9C:  BTFSC  xCF.7
02B9E:  BSF    FF2.7
02BA0:  CLRF   xE2
02BA2:  MOVWF  xE1
02BA4:  MOVLB  0
02BA6:  CALL   21A8
02BAA:  BCF    FD8.1
02BAC:  MOVFF  03,6E4
02BB0:  MOVFF  02,6E3
02BB4:  MOVFF  01,6E2
02BB8:  MOVFF  00,6E1
02BBC:  MOVFF  1CC,6E8
02BC0:  MOVFF  1CB,6E7
02BC4:  MOVFF  1CA,6E6
02BC8:  MOVFF  1C9,6E5
02BCC:  CALL   2364
02BD0:  MOVFF  03,4B6
02BD4:  MOVFF  02,4B5
02BD8:  MOVFF  01,4B4
02BDC:  MOVFF  00,4B3
....................    delay_ms(10); 
02BE0:  MOVLW  0A
02BE2:  MOVLB  6
02BE4:  MOVWF  xE1
02BE6:  MOVLB  0
02BE8:  CALL   21DE
....................    Atmosferica=read_eeprom(31); 
02BEC:  MOVFF  FF2,6CF
02BF0:  BCF    FF2.6
02BF2:  BCF    FF2.7
02BF4:  CLRF   FAA
02BF6:  MOVLW  1F
02BF8:  MOVWF  FA9
02BFA:  BCF    FA6.6
02BFC:  BCF    FA6.7
02BFE:  BSF    FA6.0
02C00:  MOVF   FA8,W
02C02:  MOVLB  6
02C04:  BTFSC  xCF.6
02C06:  BSF    FF2.6
02C08:  BTFSC  xCF.7
02C0A:  BSF    FF2.7
02C0C:  MOVLB  2
02C0E:  MOVWF  xC2
....................    delay_ms(10); 
02C10:  MOVLW  0A
02C12:  MOVLB  6
02C14:  MOVWF  xE1
02C16:  MOVLB  0
02C18:  CALL   21DE
....................    Tapertura=read_eeprom(32); 
02C1C:  MOVFF  FF2,6CF
02C20:  BCF    FF2.6
02C22:  BCF    FF2.7
02C24:  CLRF   FAA
02C26:  MOVLW  20
02C28:  MOVWF  FA9
02C2A:  BCF    FA6.6
02C2C:  BCF    FA6.7
02C2E:  BSF    FA6.0
02C30:  MOVF   FA8,W
02C32:  MOVLB  6
02C34:  BTFSC  xCF.6
02C36:  BSF    FF2.6
02C38:  BTFSC  xCF.7
02C3A:  BSF    FF2.7
02C3C:  MOVLB  2
02C3E:  MOVWF  x7A
....................    delay_ms(10); 
02C40:  MOVLW  0A
02C42:  MOVLB  6
02C44:  MOVWF  xE1
02C46:  MOVLB  0
02C48:  CALL   21DE
....................    CiclosL=read_eeprom(37); 
02C4C:  MOVFF  FF2,6CF
02C50:  BCF    FF2.6
02C52:  BCF    FF2.7
02C54:  CLRF   FAA
02C56:  MOVLW  25
02C58:  MOVWF  FA9
02C5A:  BCF    FA6.6
02C5C:  BCF    FA6.7
02C5E:  BSF    FA6.0
02C60:  MOVF   FA8,W
02C62:  MOVLB  6
02C64:  BTFSC  xCF.6
02C66:  BSF    FF2.6
02C68:  BTFSC  xCF.7
02C6A:  BSF    FF2.7
02C6C:  MOVLB  2
02C6E:  MOVWF  x77
....................    delay_ms(10); 
02C70:  MOVLW  0A
02C72:  MOVLB  6
02C74:  MOVWF  xE1
02C76:  MOVLB  0
02C78:  CALL   21DE
....................    CiclosH=read_eeprom(38); 
02C7C:  MOVFF  FF2,6CF
02C80:  BCF    FF2.6
02C82:  BCF    FF2.7
02C84:  CLRF   FAA
02C86:  MOVLW  26
02C88:  MOVWF  FA9
02C8A:  BCF    FA6.6
02C8C:  BCF    FA6.7
02C8E:  BSF    FA6.0
02C90:  MOVF   FA8,W
02C92:  MOVLB  6
02C94:  BTFSC  xCF.6
02C96:  BSF    FF2.6
02C98:  BTFSC  xCF.7
02C9A:  BSF    FF2.7
02C9C:  MOVLB  2
02C9E:  MOVWF  x78
....................    delay_ms(10); 
02CA0:  MOVLW  0A
02CA2:  MOVLB  6
02CA4:  MOVWF  xE1
02CA6:  MOVLB  0
02CA8:  CALL   21DE
....................    Ciclos=make16(CiclosH,CiclosL); 
02CAC:  MOVFF  278,299
02CB0:  MOVFF  277,298
....................    delay_ms(10); 
02CB4:  MOVLW  0A
02CB6:  MOVLB  6
02CB8:  MOVWF  xE1
02CBA:  MOVLB  0
02CBC:  CALL   21DE
....................    G1=read_eeprom(42); 
02CC0:  MOVFF  FF2,6CF
02CC4:  BCF    FF2.6
02CC6:  BCF    FF2.7
02CC8:  CLRF   FAA
02CCA:  MOVLW  2A
02CCC:  MOVWF  FA9
02CCE:  BCF    FA6.6
02CD0:  BCF    FA6.7
02CD2:  BSF    FA6.0
02CD4:  MOVF   FA8,W
02CD6:  MOVLB  6
02CD8:  BTFSC  xCF.6
02CDA:  BSF    FF2.6
02CDC:  BTFSC  xCF.7
02CDE:  BSF    FF2.7
02CE0:  MOVLB  2
02CE2:  MOVWF  xD1
....................    delay_ms(10); 
02CE4:  MOVLW  0A
02CE6:  MOVLB  6
02CE8:  MOVWF  xE1
02CEA:  MOVLB  0
02CEC:  CALL   21DE
....................    G2=read_eeprom(43); 
02CF0:  MOVFF  FF2,6CF
02CF4:  BCF    FF2.6
02CF6:  BCF    FF2.7
02CF8:  CLRF   FAA
02CFA:  MOVLW  2B
02CFC:  MOVWF  FA9
02CFE:  BCF    FA6.6
02D00:  BCF    FA6.7
02D02:  BSF    FA6.0
02D04:  MOVF   FA8,W
02D06:  MOVLB  6
02D08:  BTFSC  xCF.6
02D0A:  BSF    FF2.6
02D0C:  BTFSC  xCF.7
02D0E:  BSF    FF2.7
02D10:  MOVLB  2
02D12:  MOVWF  xD2
....................    delay_ms(10); 
02D14:  MOVLW  0A
02D16:  MOVLB  6
02D18:  MOVWF  xE1
02D1A:  MOVLB  0
02D1C:  CALL   21DE
....................    sg1=read_eeprom(44); 
02D20:  MOVFF  FF2,6CF
02D24:  BCF    FF2.6
02D26:  BCF    FF2.7
02D28:  CLRF   FAA
02D2A:  MOVLW  2C
02D2C:  MOVWF  FA9
02D2E:  BCF    FA6.6
02D30:  BCF    FA6.7
02D32:  BSF    FA6.0
02D34:  MOVF   FA8,W
02D36:  MOVLB  6
02D38:  BTFSC  xCF.6
02D3A:  BSF    FF2.6
02D3C:  BTFSC  xCF.7
02D3E:  BSF    FF2.7
02D40:  MOVLB  2
02D42:  MOVWF  xD3
....................    delay_ms(10); 
02D44:  MOVLW  0A
02D46:  MOVLB  6
02D48:  MOVWF  xE1
02D4A:  MOVLB  0
02D4C:  CALL   21DE
....................    sg2=read_eeprom(45); 
02D50:  MOVFF  FF2,6CF
02D54:  BCF    FF2.6
02D56:  BCF    FF2.7
02D58:  CLRF   FAA
02D5A:  MOVLW  2D
02D5C:  MOVWF  FA9
02D5E:  BCF    FA6.6
02D60:  BCF    FA6.7
02D62:  BSF    FA6.0
02D64:  MOVF   FA8,W
02D66:  MOVLB  6
02D68:  BTFSC  xCF.6
02D6A:  BSF    FF2.6
02D6C:  BTFSC  xCF.7
02D6E:  BSF    FF2.7
02D70:  MOVLB  2
02D72:  MOVWF  xD4
....................    delay_ms(10); 
02D74:  MOVLW  0A
02D76:  MOVLB  6
02D78:  MOVWF  xE1
02D7A:  MOVLB  0
02D7C:  CALL   21DE
....................    cerroSucioInt=read_eeprom(46); 
02D80:  MOVFF  FF2,6CF
02D84:  BCF    FF2.6
02D86:  BCF    FF2.7
02D88:  CLRF   FAA
02D8A:  MOVLW  2E
02D8C:  MOVWF  FA9
02D8E:  BCF    FA6.6
02D90:  BCF    FA6.7
02D92:  BSF    FA6.0
02D94:  MOVF   FA8,W
02D96:  MOVLB  6
02D98:  BTFSC  xCF.6
02D9A:  BSF    FF2.6
02D9C:  BTFSC  xCF.7
02D9E:  BSF    FF2.7
02DA0:  MOVLB  1
02DA2:  MOVWF  xFD
....................    delay_ms(10); 
02DA4:  MOVLW  0A
02DA6:  MOVLB  6
02DA8:  MOVWF  xE1
02DAA:  MOVLB  0
02DAC:  CALL   21DE
....................    cerroLimpioInt=read_eeprom(47); 
02DB0:  MOVFF  FF2,6CF
02DB4:  BCF    FF2.6
02DB6:  BCF    FF2.7
02DB8:  CLRF   FAA
02DBA:  MOVLW  2F
02DBC:  MOVWF  FA9
02DBE:  BCF    FA6.6
02DC0:  BCF    FA6.7
02DC2:  BSF    FA6.0
02DC4:  MOVF   FA8,W
02DC6:  MOVLB  6
02DC8:  BTFSC  xCF.6
02DCA:  BSF    FF2.6
02DCC:  BTFSC  xCF.7
02DCE:  BSF    FF2.7
02DD0:  MOVLB  1
02DD2:  MOVWF  xFE
....................    delay_ms(10); 
02DD4:  MOVLW  0A
02DD6:  MOVLB  6
02DD8:  MOVWF  xE1
02DDA:  MOVLB  0
02DDC:  CALL   21DE
....................    pulsosConfigurados=read_eeprom(50); 
02DE0:  MOVFF  FF2,6CF
02DE4:  BCF    FF2.6
02DE6:  BCF    FF2.7
02DE8:  CLRF   FAA
02DEA:  MOVLW  32
02DEC:  MOVWF  FA9
02DEE:  BCF    FA6.6
02DF0:  BCF    FA6.7
02DF2:  BSF    FA6.0
02DF4:  MOVF   FA8,W
02DF6:  MOVLB  6
02DF8:  BTFSC  xCF.6
02DFA:  BSF    FF2.6
02DFC:  BTFSC  xCF.7
02DFE:  BSF    FF2.7
02E00:  MOVLB  2
02E02:  MOVWF  x52
....................    delay_ms(10); 
02E04:  MOVLW  0A
02E06:  MOVLB  6
02E08:  MOVWF  xE1
02E0A:  MOVLB  0
02E0C:  CALL   21DE
....................    vacioTest=read_eeprom(51); 
02E10:  MOVFF  FF2,6CF
02E14:  BCF    FF2.6
02E16:  BCF    FF2.7
02E18:  CLRF   FAA
02E1A:  MOVLW  33
02E1C:  MOVWF  FA9
02E1E:  BCF    FA6.6
02E20:  BCF    FA6.7
02E22:  BSF    FA6.0
02E24:  MOVF   FA8,W
02E26:  MOVLB  6
02E28:  BTFSC  xCF.6
02E2A:  BSF    FF2.6
02E2C:  BTFSC  xCF.7
02E2E:  BSF    FF2.7
02E30:  MOVLB  2
02E32:  MOVWF  x53
....................    delay_ms(10); 
02E34:  MOVLW  0A
02E36:  MOVLB  6
02E38:  MOVWF  xE1
02E3A:  MOVLB  0
02E3C:  CALL   21DE
....................    vacioCiclo=read_eeprom(52); 
02E40:  MOVFF  FF2,6CF
02E44:  BCF    FF2.6
02E46:  BCF    FF2.7
02E48:  CLRF   FAA
02E4A:  MOVLW  34
02E4C:  MOVWF  FA9
02E4E:  BCF    FA6.6
02E50:  BCF    FA6.7
02E52:  BSF    FA6.0
02E54:  MOVF   FA8,W
02E56:  MOVLB  6
02E58:  BTFSC  xCF.6
02E5A:  BSF    FF2.6
02E5C:  BTFSC  xCF.7
02E5E:  BSF    FF2.7
02E60:  MOVLB  2
02E62:  MOVWF  x54
....................     
....................    for(i=0;i<30;i++){ 
02E64:  CLRF   x76
02E66:  MOVF   x76,W
02E68:  SUBLW  1D
02E6A:  BNC   2EE4
....................       estados[i]=read_eeprom(i+50); 
02E6C:  MOVLW  32
02E6E:  ADDWF  x76,W
02E70:  MOVLB  6
02E72:  MOVWF  xCF
02E74:  MOVFF  FF2,6D0
02E78:  BCF    FF2.6
02E7A:  BCF    FF2.7
02E7C:  CLRF   FAA
02E7E:  MOVFF  6CF,FA9
02E82:  BCF    FA6.6
02E84:  BCF    FA6.7
02E86:  BSF    FA6.0
02E88:  MOVF   FA8,W
02E8A:  BTFSC  xD0.6
02E8C:  BSF    FF2.6
02E8E:  BTFSC  xD0.7
02E90:  BSF    FF2.7
02E92:  MOVFF  276,6D1
02E96:  MOVWF  xD2
02E98:  MOVLW  03
02E9A:  MOVWF  xD4
02E9C:  MOVLW  3B
02E9E:  MOVWF  xD3
02EA0:  MOVLB  0
02EA2:  CALL   25DC
....................       if(estados[i]>1) 
02EA6:  MOVFF  276,6D0
02EAA:  MOVLW  03
02EAC:  MOVLB  6
02EAE:  MOVWF  xD2
02EB0:  MOVLW  3B
02EB2:  MOVWF  xD1
02EB4:  MOVLB  0
02EB6:  CALL   261E
02EBA:  MOVLW  00
02EBC:  BTFSC  01.0
02EBE:  MOVLW  01
02EC0:  ANDLW  01
02EC2:  SUBLW  01
02EC4:  BC    2EDE
....................          estados[i]=1; 
02EC6:  MOVFF  276,6D1
02ECA:  MOVLW  01
02ECC:  MOVLB  6
02ECE:  MOVWF  xD2
02ED0:  MOVLW  03
02ED2:  MOVWF  xD4
02ED4:  MOVLW  3B
02ED6:  MOVWF  xD3
02ED8:  MOVLB  0
02EDA:  CALL   25DC
....................    } 
02EDE:  MOVLB  2
02EE0:  INCF   x76,F
02EE2:  BRA    2E66
....................     
....................    for(i=0;i<20;i++){//Lee valores almacenados de ciclos personalizados 
02EE4:  CLRF   x76
02EE6:  MOVF   x76,W
02EE8:  SUBLW  13
02EEA:  BTFSS  FD8.0
02EEC:  BRA    34BA
....................       CiclosPersonalizados[i].Temperatura=read_eeprom(100+(i*8));  
02EEE:  MOVF   x76,W
02EF0:  MULLW  08
02EF2:  MOVF   FF3,W
02EF4:  MOVLB  6
02EF6:  CLRF   xD0
02EF8:  MOVWF  xCF
02EFA:  MOVLW  07
02EFC:  ADDWF  xCF,W
02EFE:  MOVWF  FE9
02F00:  MOVLW  06
02F02:  ADDWFC xD0,W
02F04:  MOVWF  FEA
02F06:  MOVLB  2
02F08:  MOVF   x76,W
02F0A:  MULLW  08
02F0C:  MOVF   FF3,W
02F0E:  ADDLW  64
02F10:  MOVLB  6
02F12:  MOVWF  xD1
02F14:  MOVFF  FF2,6D2
02F18:  BCF    FF2.6
02F1A:  BCF    FF2.7
02F1C:  CLRF   FAA
02F1E:  MOVFF  6D1,FA9
02F22:  BCF    FA6.6
02F24:  BCF    FA6.7
02F26:  BSF    FA6.0
02F28:  MOVF   FA8,W
02F2A:  BTFSC  xD2.6
02F2C:  BSF    FF2.6
02F2E:  BTFSC  xD2.7
02F30:  BSF    FF2.7
02F32:  MOVWF  FEF
....................       CiclosPersonalizados[i].Minutoest=read_eeprom(101+(i*8));  
02F34:  MOVLB  2
02F36:  MOVF   x76,W
02F38:  MULLW  08
02F3A:  MOVF   FF3,W
02F3C:  MOVLB  6
02F3E:  CLRF   xD0
02F40:  MOVWF  xCF
02F42:  MOVLW  01
02F44:  ADDWF  xCF,W
02F46:  MOVWF  01
02F48:  MOVLW  00
02F4A:  ADDWFC xD0,W
02F4C:  MOVWF  03
02F4E:  MOVF   01,W
02F50:  ADDLW  07
02F52:  MOVWF  FE9
02F54:  MOVLW  06
02F56:  ADDWFC 03,W
02F58:  MOVWF  FEA
02F5A:  MOVLB  2
02F5C:  MOVF   x76,W
02F5E:  MULLW  08
02F60:  MOVF   FF3,W
02F62:  ADDLW  65
02F64:  MOVLB  6
02F66:  MOVWF  xD1
02F68:  MOVFF  FF2,6D2
02F6C:  BCF    FF2.6
02F6E:  BCF    FF2.7
02F70:  CLRF   FAA
02F72:  MOVFF  6D1,FA9
02F76:  BCF    FA6.6
02F78:  BCF    FA6.7
02F7A:  BSF    FA6.0
02F7C:  MOVF   FA8,W
02F7E:  BTFSC  xD2.6
02F80:  BSF    FF2.6
02F82:  BTFSC  xD2.7
02F84:  BSF    FF2.7
02F86:  MOVWF  FEF
....................       CiclosPersonalizados[i].Segundoest=read_eeprom(102+(i*8));  
02F88:  MOVLB  2
02F8A:  MOVF   x76,W
02F8C:  MULLW  08
02F8E:  MOVF   FF3,W
02F90:  MOVLB  6
02F92:  CLRF   xD0
02F94:  MOVWF  xCF
02F96:  MOVLW  02
02F98:  ADDWF  xCF,W
02F9A:  MOVWF  01
02F9C:  MOVLW  00
02F9E:  ADDWFC xD0,W
02FA0:  MOVWF  03
02FA2:  MOVF   01,W
02FA4:  ADDLW  07
02FA6:  MOVWF  FE9
02FA8:  MOVLW  06
02FAA:  ADDWFC 03,W
02FAC:  MOVWF  FEA
02FAE:  MOVLB  2
02FB0:  MOVF   x76,W
02FB2:  MULLW  08
02FB4:  MOVF   FF3,W
02FB6:  ADDLW  66
02FB8:  MOVLB  6
02FBA:  MOVWF  xD1
02FBC:  MOVFF  FF2,6D2
02FC0:  BCF    FF2.6
02FC2:  BCF    FF2.7
02FC4:  CLRF   FAA
02FC6:  MOVFF  6D1,FA9
02FCA:  BCF    FA6.6
02FCC:  BCF    FA6.7
02FCE:  BSF    FA6.0
02FD0:  MOVF   FA8,W
02FD2:  BTFSC  xD2.6
02FD4:  BSF    FF2.6
02FD6:  BTFSC  xD2.7
02FD8:  BSF    FF2.7
02FDA:  MOVWF  FEF
....................       CiclosPersonalizados[i].Minutosec=read_eeprom(103+(i*8));  
02FDC:  MOVLB  2
02FDE:  MOVF   x76,W
02FE0:  MULLW  08
02FE2:  MOVF   FF3,W
02FE4:  MOVLB  6
02FE6:  CLRF   xD0
02FE8:  MOVWF  xCF
02FEA:  MOVLW  03
02FEC:  ADDWF  xCF,W
02FEE:  MOVWF  01
02FF0:  MOVLW  00
02FF2:  ADDWFC xD0,W
02FF4:  MOVWF  03
02FF6:  MOVF   01,W
02FF8:  ADDLW  07
02FFA:  MOVWF  FE9
02FFC:  MOVLW  06
02FFE:  ADDWFC 03,W
03000:  MOVWF  FEA
03002:  MOVLB  2
03004:  MOVF   x76,W
03006:  MULLW  08
03008:  MOVF   FF3,W
0300A:  ADDLW  67
0300C:  MOVLB  6
0300E:  MOVWF  xD1
03010:  MOVFF  FF2,6D2
03014:  BCF    FF2.6
03016:  BCF    FF2.7
03018:  CLRF   FAA
0301A:  MOVFF  6D1,FA9
0301E:  BCF    FA6.6
03020:  BCF    FA6.7
03022:  BSF    FA6.0
03024:  MOVF   FA8,W
03026:  BTFSC  xD2.6
03028:  BSF    FF2.6
0302A:  BTFSC  xD2.7
0302C:  BSF    FF2.7
0302E:  MOVWF  FEF
....................       CiclosPersonalizados[i].Segundosec=read_eeprom(104+(i*8));  
03030:  MOVLB  2
03032:  MOVF   x76,W
03034:  MULLW  08
03036:  MOVF   FF3,W
03038:  MOVLB  6
0303A:  CLRF   xD0
0303C:  MOVWF  xCF
0303E:  MOVLW  04
03040:  ADDWF  xCF,W
03042:  MOVWF  01
03044:  MOVLW  00
03046:  ADDWFC xD0,W
03048:  MOVWF  03
0304A:  MOVF   01,W
0304C:  ADDLW  07
0304E:  MOVWF  FE9
03050:  MOVLW  06
03052:  ADDWFC 03,W
03054:  MOVWF  FEA
03056:  MOVLB  2
03058:  MOVF   x76,W
0305A:  MULLW  08
0305C:  MOVF   FF3,W
0305E:  ADDLW  68
03060:  MOVLB  6
03062:  MOVWF  xD1
03064:  MOVFF  FF2,6D2
03068:  BCF    FF2.6
0306A:  BCF    FF2.7
0306C:  CLRF   FAA
0306E:  MOVFF  6D1,FA9
03072:  BCF    FA6.6
03074:  BCF    FA6.7
03076:  BSF    FA6.0
03078:  MOVF   FA8,W
0307A:  BTFSC  xD2.6
0307C:  BSF    FF2.6
0307E:  BTFSC  xD2.7
03080:  BSF    FF2.7
03082:  MOVWF  FEF
....................       CiclosPersonalizados[i].PulsosVacio=read_eeprom(105+(i*8));  
03084:  MOVLB  2
03086:  MOVF   x76,W
03088:  MULLW  08
0308A:  MOVF   FF3,W
0308C:  MOVLB  6
0308E:  CLRF   xD0
03090:  MOVWF  xCF
03092:  MOVLW  05
03094:  ADDWF  xCF,W
03096:  MOVWF  01
03098:  MOVLW  00
0309A:  ADDWFC xD0,W
0309C:  MOVWF  03
0309E:  MOVF   01,W
030A0:  ADDLW  07
030A2:  MOVWF  FE9
030A4:  MOVLW  06
030A6:  ADDWFC 03,W
030A8:  MOVWF  FEA
030AA:  MOVLB  2
030AC:  MOVF   x76,W
030AE:  MULLW  08
030B0:  MOVF   FF3,W
030B2:  ADDLW  69
030B4:  MOVLB  6
030B6:  MOVWF  xD1
030B8:  MOVFF  FF2,6D2
030BC:  BCF    FF2.6
030BE:  BCF    FF2.7
030C0:  CLRF   FAA
030C2:  MOVFF  6D1,FA9
030C6:  BCF    FA6.6
030C8:  BCF    FA6.7
030CA:  BSF    FA6.0
030CC:  MOVF   FA8,W
030CE:  BTFSC  xD2.6
030D0:  BSF    FF2.6
030D2:  BTFSC  xD2.7
030D4:  BSF    FF2.7
030D6:  MOVWF  FEF
....................       CiclosPersonalizados[i].NivelVacio=read_eeprom(106+(i*8));  
030D8:  MOVLB  2
030DA:  MOVF   x76,W
030DC:  MULLW  08
030DE:  MOVF   FF3,W
030E0:  MOVLB  6
030E2:  CLRF   xD0
030E4:  MOVWF  xCF
030E6:  MOVLW  06
030E8:  ADDWF  xCF,W
030EA:  MOVWF  01
030EC:  MOVLW  00
030EE:  ADDWFC xD0,W
030F0:  MOVWF  03
030F2:  MOVF   01,W
030F4:  ADDLW  07
030F6:  MOVWF  FE9
030F8:  MOVLW  06
030FA:  ADDWFC 03,W
030FC:  MOVWF  FEA
030FE:  MOVLB  2
03100:  MOVF   x76,W
03102:  MULLW  08
03104:  MOVF   FF3,W
03106:  ADDLW  6A
03108:  MOVLB  6
0310A:  MOVWF  xD1
0310C:  MOVFF  FF2,6D2
03110:  BCF    FF2.6
03112:  BCF    FF2.7
03114:  CLRF   FAA
03116:  MOVFF  6D1,FA9
0311A:  BCF    FA6.6
0311C:  BCF    FA6.7
0311E:  BSF    FA6.0
03120:  MOVF   FA8,W
03122:  BTFSC  xD2.6
03124:  BSF    FF2.6
03126:  BTFSC  xD2.7
03128:  BSF    FF2.7
0312A:  MOVWF  FEF
....................       CiclosPersonalizados[i].NivelDesfogue=read_eeprom(107+(i*8));  
0312C:  MOVLB  2
0312E:  MOVF   x76,W
03130:  MULLW  08
03132:  MOVF   FF3,W
03134:  MOVLB  6
03136:  CLRF   xD0
03138:  MOVWF  xCF
0313A:  MOVLW  07
0313C:  ADDWF  xCF,W
0313E:  MOVWF  01
03140:  MOVLW  00
03142:  ADDWFC xD0,W
03144:  MOVWF  03
03146:  MOVF   01,W
03148:  ADDLW  07
0314A:  MOVWF  FE9
0314C:  MOVLW  06
0314E:  ADDWFC 03,W
03150:  MOVWF  FEA
03152:  MOVLB  2
03154:  MOVF   x76,W
03156:  MULLW  08
03158:  MOVF   FF3,W
0315A:  ADDLW  6B
0315C:  MOVLB  6
0315E:  MOVWF  xD1
03160:  MOVFF  FF2,6D2
03164:  BCF    FF2.6
03166:  BCF    FF2.7
03168:  CLRF   FAA
0316A:  MOVFF  6D1,FA9
0316E:  BCF    FA6.6
03170:  BCF    FA6.7
03172:  BSF    FA6.0
03174:  MOVF   FA8,W
03176:  BTFSC  xD2.6
03178:  BSF    FF2.6
0317A:  BTFSC  xD2.7
0317C:  BSF    FF2.7
0317E:  MOVWF  FEF
....................        
....................       if(CiclosPersonalizados[i].Temperatura>138 || CiclosPersonalizados[i].Temperatura<110) 
03180:  MOVLB  2
03182:  MOVF   x76,W
03184:  MULLW  08
03186:  MOVF   FF3,W
03188:  MOVLB  6
0318A:  CLRF   xD0
0318C:  MOVWF  xCF
0318E:  MOVLW  07
03190:  ADDWF  xCF,W
03192:  MOVWF  FE9
03194:  MOVLW  06
03196:  ADDWFC xD0,W
03198:  MOVWF  FEA
0319A:  MOVF   FEF,W
0319C:  SUBLW  8A
0319E:  BNC   31C0
031A0:  MOVLB  2
031A2:  MOVF   x76,W
031A4:  MULLW  08
031A6:  MOVF   FF3,W
031A8:  MOVLB  6
031AA:  CLRF   xD0
031AC:  MOVWF  xCF
031AE:  MOVLW  07
031B0:  ADDWF  xCF,W
031B2:  MOVWF  FE9
031B4:  MOVLW  06
031B6:  ADDWFC xD0,W
031B8:  MOVWF  FEA
031BA:  MOVF   FEF,W
031BC:  SUBLW  6D
031BE:  BNC   31DE
....................          CiclosPersonalizados[i].Temperatura=121; 
031C0:  MOVLB  2
031C2:  MOVF   x76,W
031C4:  MULLW  08
031C6:  MOVF   FF3,W
031C8:  MOVLB  6
031CA:  CLRF   xD0
031CC:  MOVWF  xCF
031CE:  MOVLW  07
031D0:  ADDWF  xCF,W
031D2:  MOVWF  FE9
031D4:  MOVLW  06
031D6:  ADDWFC xD0,W
031D8:  MOVWF  FEA
031DA:  MOVLW  79
031DC:  MOVWF  FEF
....................       if(CiclosPersonalizados[i].Minutoest>99 || CiclosPersonalizados[i].Minutoest<1) 
031DE:  MOVLB  2
031E0:  MOVF   x76,W
031E2:  MULLW  08
031E4:  MOVF   FF3,W
031E6:  MOVLB  6
031E8:  CLRF   xD0
031EA:  MOVWF  xCF
031EC:  MOVLW  01
031EE:  ADDWF  xCF,W
031F0:  MOVWF  01
031F2:  MOVLW  00
031F4:  ADDWFC xD0,W
031F6:  MOVWF  03
031F8:  MOVF   01,W
031FA:  ADDLW  07
031FC:  MOVWF  FE9
031FE:  MOVLW  06
03200:  ADDWFC 03,W
03202:  MOVWF  FEA
03204:  MOVF   FEF,W
03206:  SUBLW  63
03208:  BNC   3234
0320A:  MOVLB  2
0320C:  MOVF   x76,W
0320E:  MULLW  08
03210:  MOVF   FF3,W
03212:  MOVLB  6
03214:  CLRF   xD0
03216:  MOVWF  xCF
03218:  MOVLW  01
0321A:  ADDWF  xCF,W
0321C:  MOVWF  01
0321E:  MOVLW  00
03220:  ADDWFC xD0,W
03222:  MOVWF  03
03224:  MOVF   01,W
03226:  ADDLW  07
03228:  MOVWF  FE9
0322A:  MOVLW  06
0322C:  ADDWFC 03,W
0322E:  MOVWF  FEA
03230:  MOVF   FEF,F
03232:  BNZ   325E
....................          CiclosPersonalizados[i].Minutoest=3; 
03234:  MOVLB  2
03236:  MOVF   x76,W
03238:  MULLW  08
0323A:  MOVF   FF3,W
0323C:  MOVLB  6
0323E:  CLRF   xD0
03240:  MOVWF  xCF
03242:  MOVLW  01
03244:  ADDWF  xCF,W
03246:  MOVWF  01
03248:  MOVLW  00
0324A:  ADDWFC xD0,W
0324C:  MOVWF  03
0324E:  MOVF   01,W
03250:  ADDLW  07
03252:  MOVWF  FE9
03254:  MOVLW  06
03256:  ADDWFC 03,W
03258:  MOVWF  FEA
0325A:  MOVLW  03
0325C:  MOVWF  FEF
....................       if(CiclosPersonalizados[i].Minutosec>99 || CiclosPersonalizados[i].Minutosec<1) 
0325E:  MOVLB  2
03260:  MOVF   x76,W
03262:  MULLW  08
03264:  MOVF   FF3,W
03266:  MOVLB  6
03268:  CLRF   xD0
0326A:  MOVWF  xCF
0326C:  MOVLW  03
0326E:  ADDWF  xCF,W
03270:  MOVWF  01
03272:  MOVLW  00
03274:  ADDWFC xD0,W
03276:  MOVWF  03
03278:  MOVF   01,W
0327A:  ADDLW  07
0327C:  MOVWF  FE9
0327E:  MOVLW  06
03280:  ADDWFC 03,W
03282:  MOVWF  FEA
03284:  MOVF   FEF,W
03286:  SUBLW  63
03288:  BNC   32B4
0328A:  MOVLB  2
0328C:  MOVF   x76,W
0328E:  MULLW  08
03290:  MOVF   FF3,W
03292:  MOVLB  6
03294:  CLRF   xD0
03296:  MOVWF  xCF
03298:  MOVLW  03
0329A:  ADDWF  xCF,W
0329C:  MOVWF  01
0329E:  MOVLW  00
032A0:  ADDWFC xD0,W
032A2:  MOVWF  03
032A4:  MOVF   01,W
032A6:  ADDLW  07
032A8:  MOVWF  FE9
032AA:  MOVLW  06
032AC:  ADDWFC 03,W
032AE:  MOVWF  FEA
032B0:  MOVF   FEF,F
032B2:  BNZ   32DE
....................          CiclosPersonalizados[i].Minutosec=1;    
032B4:  MOVLB  2
032B6:  MOVF   x76,W
032B8:  MULLW  08
032BA:  MOVF   FF3,W
032BC:  MOVLB  6
032BE:  CLRF   xD0
032C0:  MOVWF  xCF
032C2:  MOVLW  03
032C4:  ADDWF  xCF,W
032C6:  MOVWF  01
032C8:  MOVLW  00
032CA:  ADDWFC xD0,W
032CC:  MOVWF  03
032CE:  MOVF   01,W
032D0:  ADDLW  07
032D2:  MOVWF  FE9
032D4:  MOVLW  06
032D6:  ADDWFC 03,W
032D8:  MOVWF  FEA
032DA:  MOVLW  01
032DC:  MOVWF  FEF
....................       if(CiclosPersonalizados[i].Segundoest>59) 
032DE:  MOVLB  2
032E0:  MOVF   x76,W
032E2:  MULLW  08
032E4:  MOVF   FF3,W
032E6:  MOVLB  6
032E8:  CLRF   xD0
032EA:  MOVWF  xCF
032EC:  MOVLW  02
032EE:  ADDWF  xCF,W
032F0:  MOVWF  01
032F2:  MOVLW  00
032F4:  ADDWFC xD0,W
032F6:  MOVWF  03
032F8:  MOVF   01,W
032FA:  ADDLW  07
032FC:  MOVWF  FE9
032FE:  MOVLW  06
03300:  ADDWFC 03,W
03302:  MOVWF  FEA
03304:  MOVF   FEF,W
03306:  SUBLW  3B
03308:  BC    3332
....................          CiclosPersonalizados[i].Segundoest=0; 
0330A:  MOVLB  2
0330C:  MOVF   x76,W
0330E:  MULLW  08
03310:  MOVF   FF3,W
03312:  MOVLB  6
03314:  CLRF   xD0
03316:  MOVWF  xCF
03318:  MOVLW  02
0331A:  ADDWF  xCF,W
0331C:  MOVWF  01
0331E:  MOVLW  00
03320:  ADDWFC xD0,W
03322:  MOVWF  03
03324:  MOVF   01,W
03326:  ADDLW  07
03328:  MOVWF  FE9
0332A:  MOVLW  06
0332C:  ADDWFC 03,W
0332E:  MOVWF  FEA
03330:  CLRF   FEF
....................       if(CiclosPersonalizados[i].Segundosec>59) 
03332:  MOVLB  2
03334:  MOVF   x76,W
03336:  MULLW  08
03338:  MOVF   FF3,W
0333A:  MOVLB  6
0333C:  CLRF   xD0
0333E:  MOVWF  xCF
03340:  MOVLW  04
03342:  ADDWF  xCF,W
03344:  MOVWF  01
03346:  MOVLW  00
03348:  ADDWFC xD0,W
0334A:  MOVWF  03
0334C:  MOVF   01,W
0334E:  ADDLW  07
03350:  MOVWF  FE9
03352:  MOVLW  06
03354:  ADDWFC 03,W
03356:  MOVWF  FEA
03358:  MOVF   FEF,W
0335A:  SUBLW  3B
0335C:  BC    3386
....................          CiclosPersonalizados[i].Segundosec=0;       
0335E:  MOVLB  2
03360:  MOVF   x76,W
03362:  MULLW  08
03364:  MOVF   FF3,W
03366:  MOVLB  6
03368:  CLRF   xD0
0336A:  MOVWF  xCF
0336C:  MOVLW  04
0336E:  ADDWF  xCF,W
03370:  MOVWF  01
03372:  MOVLW  00
03374:  ADDWFC xD0,W
03376:  MOVWF  03
03378:  MOVF   01,W
0337A:  ADDLW  07
0337C:  MOVWF  FE9
0337E:  MOVLW  06
03380:  ADDWFC 03,W
03382:  MOVWF  FEA
03384:  CLRF   FEF
....................       if(CiclosPersonalizados[i].PulsosVacio>15) 
03386:  MOVLB  2
03388:  MOVF   x76,W
0338A:  MULLW  08
0338C:  MOVF   FF3,W
0338E:  MOVLB  6
03390:  CLRF   xD0
03392:  MOVWF  xCF
03394:  MOVLW  05
03396:  ADDWF  xCF,W
03398:  MOVWF  01
0339A:  MOVLW  00
0339C:  ADDWFC xD0,W
0339E:  MOVWF  03
033A0:  MOVF   01,W
033A2:  ADDLW  07
033A4:  MOVWF  FE9
033A6:  MOVLW  06
033A8:  ADDWFC 03,W
033AA:  MOVWF  FEA
033AC:  MOVF   FEF,W
033AE:  SUBLW  0F
033B0:  BC    33DC
....................          CiclosPersonalizados[i].PulsosVacio=4; 
033B2:  MOVLB  2
033B4:  MOVF   x76,W
033B6:  MULLW  08
033B8:  MOVF   FF3,W
033BA:  MOVLB  6
033BC:  CLRF   xD0
033BE:  MOVWF  xCF
033C0:  MOVLW  05
033C2:  ADDWF  xCF,W
033C4:  MOVWF  01
033C6:  MOVLW  00
033C8:  ADDWFC xD0,W
033CA:  MOVWF  03
033CC:  MOVF   01,W
033CE:  ADDLW  07
033D0:  MOVWF  FE9
033D2:  MOVLW  06
033D4:  ADDWFC 03,W
033D6:  MOVWF  FEA
033D8:  MOVLW  04
033DA:  MOVWF  FEF
....................       if(CiclosPersonalizados[i].NivelVacio>100 || CiclosPersonalizados[i].NivelVacio<10) 
033DC:  MOVLB  2
033DE:  MOVF   x76,W
033E0:  MULLW  08
033E2:  MOVF   FF3,W
033E4:  MOVLB  6
033E6:  CLRF   xD0
033E8:  MOVWF  xCF
033EA:  MOVLW  06
033EC:  ADDWF  xCF,W
033EE:  MOVWF  01
033F0:  MOVLW  00
033F2:  ADDWFC xD0,W
033F4:  MOVWF  03
033F6:  MOVF   01,W
033F8:  ADDLW  07
033FA:  MOVWF  FE9
033FC:  MOVLW  06
033FE:  ADDWFC 03,W
03400:  MOVWF  FEA
03402:  MOVF   FEF,W
03404:  SUBLW  64
03406:  BNC   3434
03408:  MOVLB  2
0340A:  MOVF   x76,W
0340C:  MULLW  08
0340E:  MOVF   FF3,W
03410:  MOVLB  6
03412:  CLRF   xD0
03414:  MOVWF  xCF
03416:  MOVLW  06
03418:  ADDWF  xCF,W
0341A:  MOVWF  01
0341C:  MOVLW  00
0341E:  ADDWFC xD0,W
03420:  MOVWF  03
03422:  MOVF   01,W
03424:  ADDLW  07
03426:  MOVWF  FE9
03428:  MOVLW  06
0342A:  ADDWFC 03,W
0342C:  MOVWF  FEA
0342E:  MOVF   FEF,W
03430:  SUBLW  09
03432:  BNC   345E
....................          CiclosPersonalizados[i].NivelVacio=25;    
03434:  MOVLB  2
03436:  MOVF   x76,W
03438:  MULLW  08
0343A:  MOVF   FF3,W
0343C:  MOVLB  6
0343E:  CLRF   xD0
03440:  MOVWF  xCF
03442:  MOVLW  06
03444:  ADDWF  xCF,W
03446:  MOVWF  01
03448:  MOVLW  00
0344A:  ADDWFC xD0,W
0344C:  MOVWF  03
0344E:  MOVF   01,W
03450:  ADDLW  07
03452:  MOVWF  FE9
03454:  MOVLW  06
03456:  ADDWFC 03,W
03458:  MOVWF  FEA
0345A:  MOVLW  19
0345C:  MOVWF  FEF
....................       if(CiclosPersonalizados[i].NivelDesfogue>6) 
0345E:  MOVLB  2
03460:  MOVF   x76,W
03462:  MULLW  08
03464:  MOVF   FF3,W
03466:  MOVLB  6
03468:  CLRF   xD0
0346A:  MOVWF  xCF
0346C:  MOVLW  07
0346E:  ADDWF  xCF,W
03470:  MOVWF  01
03472:  MOVLW  00
03474:  ADDWFC xD0,W
03476:  MOVWF  03
03478:  MOVF   01,W
0347A:  ADDLW  07
0347C:  MOVWF  FE9
0347E:  MOVLW  06
03480:  ADDWFC 03,W
03482:  MOVWF  FEA
03484:  MOVF   FEF,W
03486:  SUBLW  06
03488:  BC    34B4
....................          CiclosPersonalizados[i].NivelDesfogue=6; 
0348A:  MOVLB  2
0348C:  MOVF   x76,W
0348E:  MULLW  08
03490:  MOVF   FF3,W
03492:  MOVLB  6
03494:  CLRF   xD0
03496:  MOVWF  xCF
03498:  MOVLW  07
0349A:  ADDWF  xCF,W
0349C:  MOVWF  01
0349E:  MOVLW  00
034A0:  ADDWFC xD0,W
034A2:  MOVWF  03
034A4:  MOVF   01,W
034A6:  ADDLW  07
034A8:  MOVWF  FE9
034AA:  MOVLW  06
034AC:  ADDWFC 03,W
034AE:  MOVWF  FEA
034B0:  MOVLW  06
034B2:  MOVWF  FEF
....................    } 
034B4:  MOVLB  2
034B6:  INCF   x76,F
034B8:  BRA    2EE6
....................     
....................    for(i=0;i<10;i++){//Lee contraseas de usuarios 
034BA:  CLRF   x76
034BC:  MOVF   x76,W
034BE:  SUBLW  09
034C0:  BNC   359C
....................       for(j=0;j<4;j++){ 
034C2:  CLRF   xCE
034C4:  MOVF   xCE,W
034C6:  SUBLW  03
034C8:  BNC   3598
....................          Clave[i].Password[j]=read_eeprom((300+j)+(i*4)); 
034CA:  MOVF   x76,W
034CC:  MULLW  04
034CE:  MOVF   FF3,W
034D0:  MOVLB  6
034D2:  CLRF   xD0
034D4:  MOVWF  xCF
034D6:  CLRF   03
034D8:  MOVLB  2
034DA:  MOVF   xCE,W
034DC:  MOVLB  6
034DE:  ADDWF  xCF,W
034E0:  MOVWF  01
034E2:  MOVF   xD0,W
034E4:  ADDWFC 03,F
034E6:  MOVF   01,W
034E8:  ADDLW  A7
034EA:  MOVWF  FE9
034EC:  MOVLW  06
034EE:  ADDWFC 03,W
034F0:  MOVWF  FEA
034F2:  MOVLW  2C
034F4:  MOVLB  2
034F6:  ADDWF  xCE,W
034F8:  MOVLB  6
034FA:  MOVWF  xD1
034FC:  MOVLW  01
034FE:  MOVWF  xD2
03500:  BTFSC  FD8.0
03502:  INCF   xD2,F
03504:  MOVLB  2
03506:  MOVF   x76,W
03508:  MULLW  04
0350A:  MOVF   FF3,W
0350C:  MOVLB  6
0350E:  ADDWF  xD1,F
03510:  MOVLW  00
03512:  ADDWFC xD2,F
03514:  MOVFF  FF2,6D3
03518:  BCF    FF2.6
0351A:  BCF    FF2.7
0351C:  MOVFF  6D2,FAA
03520:  MOVFF  6D1,FA9
03524:  BCF    FA6.6
03526:  BCF    FA6.7
03528:  BSF    FA6.0
0352A:  MOVF   FA8,W
0352C:  BTFSC  xD3.6
0352E:  BSF    FF2.6
03530:  BTFSC  xD3.7
03532:  BSF    FF2.7
03534:  MOVWF  FEF
....................          if(Clave[i].Password[j]>9) 
03536:  MOVLB  2
03538:  MOVF   x76,W
0353A:  MULLW  04
0353C:  MOVF   FF3,W
0353E:  MOVLB  6
03540:  CLRF   xD0
03542:  MOVWF  xCF
03544:  CLRF   03
03546:  MOVLB  2
03548:  MOVF   xCE,W
0354A:  MOVLB  6
0354C:  ADDWF  xCF,W
0354E:  MOVWF  01
03550:  MOVF   xD0,W
03552:  ADDWFC 03,F
03554:  MOVF   01,W
03556:  ADDLW  A7
03558:  MOVWF  FE9
0355A:  MOVLW  06
0355C:  ADDWFC 03,W
0355E:  MOVWF  FEA
03560:  MOVF   FEF,W
03562:  SUBLW  09
03564:  BC    3592
....................             Clave[i].Password[j]=0; 
03566:  MOVLB  2
03568:  MOVF   x76,W
0356A:  MULLW  04
0356C:  MOVF   FF3,W
0356E:  MOVLB  6
03570:  CLRF   xD0
03572:  MOVWF  xCF
03574:  CLRF   03
03576:  MOVLB  2
03578:  MOVF   xCE,W
0357A:  MOVLB  6
0357C:  ADDWF  xCF,W
0357E:  MOVWF  01
03580:  MOVF   xD0,W
03582:  ADDWFC 03,F
03584:  MOVF   01,W
03586:  ADDLW  A7
03588:  MOVWF  FE9
0358A:  MOVLW  06
0358C:  ADDWFC 03,W
0358E:  MOVWF  FEA
03590:  CLRF   FEF
....................       } 
03592:  MOVLB  2
03594:  INCF   xCE,F
03596:  BRA    34C4
....................    } 
03598:  INCF   x76,F
0359A:  BRA    34BC
....................     
....................    diaCiclos=read_ext_eeprom(2+(cicloVisto*320)); 
0359C:  MOVLB  6
0359E:  CLRF   xDA
035A0:  MOVFF  2C0,6D9
035A4:  MOVLW  01
035A6:  MOVWF  xDC
035A8:  MOVLW  40
035AA:  MOVWF  xDB
035AC:  MOVLB  0
035AE:  CALL   2650
035B2:  MOVFF  02,03
035B6:  MOVF   01,W
035B8:  ADDLW  02
035BA:  MOVLB  6
035BC:  MOVWF  xCF
035BE:  MOVLW  00
035C0:  ADDWFC 02,W
035C2:  MOVWF  xD0
035C4:  MOVWF  xD5
035C6:  MOVFF  6CF,6D4
035CA:  MOVLB  0
035CC:  CALL   2752
035D0:  MOVFF  01,336
....................    if(diaCiclos>31) 
035D4:  MOVLB  3
035D6:  MOVF   x36,W
035D8:  SUBLW  1F
035DA:  BC    35E0
....................       diaCiclos=1; 
035DC:  MOVLW  01
035DE:  MOVWF  x36
....................    mesCiclos=read_ext_eeprom(3+(cicloVisto*320)); 
035E0:  MOVLB  6
035E2:  CLRF   xDA
035E4:  MOVFF  2C0,6D9
035E8:  MOVLW  01
035EA:  MOVWF  xDC
035EC:  MOVLW  40
035EE:  MOVWF  xDB
035F0:  MOVLB  0
035F2:  CALL   2650
035F6:  MOVFF  02,03
035FA:  MOVF   01,W
035FC:  ADDLW  03
035FE:  MOVLB  6
03600:  MOVWF  xCF
03602:  MOVLW  00
03604:  ADDWFC 02,W
03606:  MOVWF  xD0
03608:  MOVWF  xD5
0360A:  MOVFF  6CF,6D4
0360E:  MOVLB  0
03610:  CALL   2752
03614:  MOVFF  01,337
....................    if(mesCiclos>12) 
03618:  MOVLB  3
0361A:  MOVF   x37,W
0361C:  SUBLW  0C
0361E:  BC    3624
....................       mesCiclos=1; 
03620:  MOVLW  01
03622:  MOVWF  x37
....................    yearCiclos=read_ext_eeprom(4+(cicloVisto*320)); 
03624:  MOVLB  6
03626:  CLRF   xDA
03628:  MOVFF  2C0,6D9
0362C:  MOVLW  01
0362E:  MOVWF  xDC
03630:  MOVLW  40
03632:  MOVWF  xDB
03634:  MOVLB  0
03636:  CALL   2650
0363A:  MOVFF  02,03
0363E:  MOVF   01,W
03640:  ADDLW  04
03642:  MOVLB  6
03644:  MOVWF  xCF
03646:  MOVLW  00
03648:  ADDWFC 02,W
0364A:  MOVWF  xD0
0364C:  MOVWF  xD5
0364E:  MOVFF  6CF,6D4
03652:  MOVLB  0
03654:  CALL   2752
03658:  MOVFF  01,338
....................    if(yearCiclos>99) 
0365C:  MOVLB  3
0365E:  MOVF   x38,W
03660:  SUBLW  63
03662:  BC    3668
....................       yearCiclos=19; 
03664:  MOVLW  13
03666:  MOVWF  x38
....................    cicloCiclos=read_ext_eeprom(1+(cicloVisto*320)); 
03668:  MOVLB  6
0366A:  CLRF   xDA
0366C:  MOVFF  2C0,6D9
03670:  MOVLW  01
03672:  MOVWF  xDC
03674:  MOVLW  40
03676:  MOVWF  xDB
03678:  MOVLB  0
0367A:  CALL   2650
0367E:  MOVFF  02,03
03682:  MOVF   01,W
03684:  ADDLW  01
03686:  MOVLB  6
03688:  MOVWF  xCF
0368A:  MOVLW  00
0368C:  ADDWFC 02,W
0368E:  MOVWF  xD0
03690:  MOVWF  xD5
03692:  MOVFF  6CF,6D4
03696:  MOVLB  0
03698:  CALL   2752
0369C:  MOVFF  01,33A
....................    if(cicloCiclos>20) 
036A0:  MOVLB  3
036A2:  MOVF   x3A,W
036A4:  SUBLW  14
036A6:  BC    36AC
....................       cicloCiclos=1; 
036A8:  MOVLW  01
036AA:  MOVWF  x3A
....................    usuarioCiclos=read_ext_eeprom((cicloVisto*320)); 
036AC:  MOVLB  6
036AE:  CLRF   xDA
036B0:  MOVFF  2C0,6D9
036B4:  MOVLW  01
036B6:  MOVWF  xDC
036B8:  MOVLW  40
036BA:  MOVWF  xDB
036BC:  MOVLB  0
036BE:  CALL   2650
036C2:  MOVFF  02,6D0
036C6:  MOVFF  01,6CF
036CA:  MOVFF  02,6D5
036CE:  MOVFF  01,6D4
036D2:  CALL   2752
036D6:  MOVFF  01,339
....................    if(usuarioCiclos>10) 
036DA:  MOVLB  3
036DC:  MOVF   x39,W
036DE:  SUBLW  0A
036E0:  BC    36E6
....................       usuarioCiclos=1; 
036E2:  MOVLW  01
036E4:  MOVWF  x39
....................    for(i=0;i<7;i++){//Lee Valores para completar la Tabla 
036E6:  MOVLB  2
036E8:  CLRF   x76
036EA:  MOVF   x76,W
036EC:  SUBLW  06
036EE:  BTFSS  FD8.0
036F0:  BRA    3C3A
....................       horaCiclos[i]=read_ext_eeprom((cicloVisto*320)+11+((cicloVisualizado+i)*9)); 
036F2:  CLRF   03
036F4:  MOVF   x76,W
036F6:  ADDLW  21
036F8:  MOVWF  01
036FA:  MOVLW  03
036FC:  ADDWFC 03,F
036FE:  MOVFF  01,6CF
03702:  MOVLB  6
03704:  MOVFF  03,6D0
03708:  CLRF   xDA
0370A:  MOVFF  2C0,6D9
0370E:  MOVLW  01
03710:  MOVWF  xDC
03712:  MOVLW  40
03714:  MOVWF  xDB
03716:  MOVLB  0
03718:  CALL   2650
0371C:  MOVFF  02,6D2
03720:  MOVFF  01,6D1
03724:  MOVLW  0B
03726:  MOVLB  6
03728:  ADDWF  xD1,F
0372A:  MOVLW  00
0372C:  ADDWFC xD2,F
0372E:  MOVLB  2
03730:  MOVF   x76,W
03732:  ADDWF  xBF,W
03734:  MULLW  09
03736:  MOVF   FF3,W
03738:  MOVLB  6
0373A:  ADDWF  xD1,F
0373C:  MOVLW  00
0373E:  ADDWFC xD2,F
03740:  MOVFF  6D2,6D5
03744:  MOVFF  6D1,6D4
03748:  MOVLB  0
0374A:  CALL   2752
0374E:  MOVFF  6D0,FEA
03752:  MOVFF  6CF,FE9
03756:  MOVFF  01,FEF
....................       if(horaCiclos[i]>24) 
0375A:  CLRF   03
0375C:  MOVLB  2
0375E:  MOVF   x76,W
03760:  ADDLW  21
03762:  MOVWF  FE9
03764:  MOVLW  03
03766:  ADDWFC 03,W
03768:  MOVWF  FEA
0376A:  MOVF   FEF,W
0376C:  SUBLW  18
0376E:  BC    3780
....................          horaCiclos[i]=0; 
03770:  CLRF   03
03772:  MOVF   x76,W
03774:  ADDLW  21
03776:  MOVWF  FE9
03778:  MOVLW  03
0377A:  ADDWFC 03,W
0377C:  MOVWF  FEA
0377E:  CLRF   FEF
....................       minutoCiclos[i]=read_ext_eeprom((cicloVisto*320)+12+((cicloVisualizado+i)*9)); 
03780:  CLRF   03
03782:  MOVF   x76,W
03784:  ADDLW  28
03786:  MOVWF  01
03788:  MOVLW  03
0378A:  ADDWFC 03,F
0378C:  MOVFF  01,6CF
03790:  MOVLB  6
03792:  MOVFF  03,6D0
03796:  CLRF   xDA
03798:  MOVFF  2C0,6D9
0379C:  MOVLW  01
0379E:  MOVWF  xDC
037A0:  MOVLW  40
037A2:  MOVWF  xDB
037A4:  MOVLB  0
037A6:  CALL   2650
037AA:  MOVFF  02,6D2
037AE:  MOVFF  01,6D1
037B2:  MOVLW  0C
037B4:  MOVLB  6
037B6:  ADDWF  xD1,F
037B8:  MOVLW  00
037BA:  ADDWFC xD2,F
037BC:  MOVLB  2
037BE:  MOVF   x76,W
037C0:  ADDWF  xBF,W
037C2:  MULLW  09
037C4:  MOVF   FF3,W
037C6:  MOVLB  6
037C8:  ADDWF  xD1,F
037CA:  MOVLW  00
037CC:  ADDWFC xD2,F
037CE:  MOVFF  6D2,6D5
037D2:  MOVFF  6D1,6D4
037D6:  MOVLB  0
037D8:  CALL   2752
037DC:  MOVFF  6D0,FEA
037E0:  MOVFF  6CF,FE9
037E4:  MOVFF  01,FEF
....................       if(minutoCiclos[i]>59) 
037E8:  CLRF   03
037EA:  MOVLB  2
037EC:  MOVF   x76,W
037EE:  ADDLW  28
037F0:  MOVWF  FE9
037F2:  MOVLW  03
037F4:  ADDWFC 03,W
037F6:  MOVWF  FEA
037F8:  MOVF   FEF,W
037FA:  SUBLW  3B
037FC:  BC    380E
....................          minutoCiclos[i]=0; 
037FE:  CLRF   03
03800:  MOVF   x76,W
03802:  ADDLW  28
03804:  MOVWF  FE9
03806:  MOVLW  03
03808:  ADDWFC 03,W
0380A:  MOVWF  FEA
0380C:  CLRF   FEF
....................       TCiclos[i]=read_ext_eeprom((cicloVisto*320)+5+((cicloVisualizado+i)*9))+inttofloat(read_ext_eeprom((cicloVisto*320)+6+((cicloVisualizado+i)*9))); 
0380E:  MOVF   x76,W
03810:  MULLW  04
03812:  MOVF   FF3,W
03814:  CLRF   03
03816:  ADDLW  E9
03818:  MOVWF  01
0381A:  MOVLW  02
0381C:  ADDWFC 03,F
0381E:  MOVFF  01,6CF
03822:  MOVLB  6
03824:  MOVFF  03,6D0
03828:  CLRF   xDA
0382A:  MOVFF  2C0,6D9
0382E:  MOVLW  01
03830:  MOVWF  xDC
03832:  MOVLW  40
03834:  MOVWF  xDB
03836:  MOVLB  0
03838:  CALL   2650
0383C:  MOVFF  02,6D2
03840:  MOVFF  01,6D1
03844:  MOVLW  05
03846:  MOVLB  6
03848:  ADDWF  xD1,F
0384A:  MOVLW  00
0384C:  ADDWFC xD2,F
0384E:  MOVLB  2
03850:  MOVF   x76,W
03852:  ADDWF  xBF,W
03854:  MULLW  09
03856:  MOVF   FF3,W
03858:  MOVLB  6
0385A:  ADDWF  xD1,F
0385C:  MOVLW  00
0385E:  ADDWFC xD2,F
03860:  MOVFF  6D2,6D5
03864:  MOVFF  6D1,6D4
03868:  MOVLB  0
0386A:  CALL   2752
0386E:  MOVFF  01,6D1
03872:  MOVLB  6
03874:  CLRF   xDA
03876:  MOVFF  2C0,6D9
0387A:  MOVLW  01
0387C:  MOVWF  xDC
0387E:  MOVLW  40
03880:  MOVWF  xDB
03882:  MOVLB  0
03884:  CALL   2650
03888:  MOVFF  02,6D3
0388C:  MOVFF  01,6D2
03890:  MOVLW  06
03892:  MOVLB  6
03894:  ADDWF  xD2,F
03896:  MOVLW  00
03898:  ADDWFC xD3,F
0389A:  MOVLB  2
0389C:  MOVF   x76,W
0389E:  ADDWF  xBF,W
038A0:  MULLW  09
038A2:  MOVF   FF3,W
038A4:  MOVLB  6
038A6:  ADDWF  xD2,F
038A8:  MOVLW  00
038AA:  ADDWFC xD3,F
038AC:  MOVFF  6D3,6D5
038B0:  MOVFF  6D2,6D4
038B4:  MOVLB  0
038B6:  CALL   2752
038BA:  MOVFF  01,6D2
038BE:  MOVFF  01,6D3
038C2:  CALL   27FA
038C6:  MOVFF  00,6D2
038CA:  MOVFF  01,6D3
038CE:  MOVFF  02,6D4
038D2:  MOVFF  03,6D5
038D6:  MOVLB  6
038D8:  CLRF   xE2
038DA:  MOVFF  6D1,6E1
038DE:  MOVLB  0
038E0:  CALL   21A8
038E4:  MOVFF  FEA,6D7
038E8:  MOVFF  FE9,6D6
038EC:  BCF    FD8.1
038EE:  MOVFF  03,6E4
038F2:  MOVFF  02,6E3
038F6:  MOVFF  01,6E2
038FA:  MOVFF  00,6E1
038FE:  MOVFF  6D5,6E8
03902:  MOVFF  6D4,6E7
03906:  MOVFF  6D3,6E6
0390A:  MOVFF  6D2,6E5
0390E:  CALL   2364
03912:  MOVFF  6D7,FEA
03916:  MOVFF  6D6,FE9
0391A:  MOVFF  6D0,FEA
0391E:  MOVFF  6CF,FE9
03922:  MOVFF  00,FEF
03926:  MOVFF  01,FEC
0392A:  MOVFF  02,FEC
0392E:  MOVFF  03,FEC
....................       if(TCiclos[i]>200) 
03932:  MOVLB  2
03934:  MOVF   x76,W
03936:  MULLW  04
03938:  MOVF   FF3,W
0393A:  CLRF   03
0393C:  ADDLW  E9
0393E:  MOVWF  FE9
03940:  MOVLW  02
03942:  ADDWFC 03,W
03944:  MOVWF  FEA
03946:  MOVFF  FEF,6CF
0394A:  MOVFF  FEC,6D0
0394E:  MOVFF  FEC,6D1
03952:  MOVFF  FEC,6D2
03956:  MOVLB  6
03958:  CLRF   xD6
0395A:  CLRF   xD5
0395C:  MOVLW  48
0395E:  MOVWF  xD4
03960:  MOVLW  86
03962:  MOVWF  xD3
03964:  MOVFF  6D2,6DA
03968:  MOVFF  6D1,6D9
0396C:  MOVFF  6D0,6D8
03970:  MOVFF  6CF,6D7
03974:  MOVLB  0
03976:  CALL   283A
0397A:  BNC   399A
....................          TCiclos[i]=0; 
0397C:  MOVLB  2
0397E:  MOVF   x76,W
03980:  MULLW  04
03982:  MOVF   FF3,W
03984:  CLRF   03
03986:  ADDLW  E9
03988:  MOVWF  FE9
0398A:  MOVLW  02
0398C:  ADDWFC 03,W
0398E:  MOVWF  FEA
03990:  CLRF   FEF
03992:  CLRF   FEC
03994:  CLRF   FEC
03996:  CLRF   FEC
03998:  MOVLB  0
....................       PcCiclos[i]=make16(read_ext_eeprom((cicloVisto*320)+7+((cicloVisualizado+i)*9)),read_ext_eeprom((cicloVisto*320)+8+((cicloVisualizado+i)*9))); 
0399A:  BCF    FD8.0
0399C:  MOVLB  2
0399E:  RLCF   x76,W
039A0:  CLRF   03
039A2:  ADDLW  05
039A4:  MOVWF  01
039A6:  MOVLW  03
039A8:  ADDWFC 03,F
039AA:  MOVFF  01,6CF
039AE:  MOVLB  6
039B0:  MOVFF  03,6D0
039B4:  CLRF   xDA
039B6:  MOVFF  2C0,6D9
039BA:  MOVLW  01
039BC:  MOVWF  xDC
039BE:  MOVLW  40
039C0:  MOVWF  xDB
039C2:  MOVLB  0
039C4:  CALL   2650
039C8:  MOVFF  02,6D2
039CC:  MOVFF  01,6D1
039D0:  MOVLW  07
039D2:  MOVLB  6
039D4:  ADDWF  xD1,F
039D6:  MOVLW  00
039D8:  ADDWFC xD2,F
039DA:  MOVLB  2
039DC:  MOVF   x76,W
039DE:  ADDWF  xBF,W
039E0:  MULLW  09
039E2:  MOVF   FF3,W
039E4:  MOVLB  6
039E6:  ADDWF  xD1,F
039E8:  MOVLW  00
039EA:  ADDWFC xD2,F
039EC:  MOVFF  6D2,6D5
039F0:  MOVFF  6D1,6D4
039F4:  MOVLB  0
039F6:  CALL   2752
039FA:  MOVFF  01,6D1
039FE:  MOVLB  6
03A00:  CLRF   xDA
03A02:  MOVFF  2C0,6D9
03A06:  MOVLW  01
03A08:  MOVWF  xDC
03A0A:  MOVLW  40
03A0C:  MOVWF  xDB
03A0E:  MOVLB  0
03A10:  CALL   2650
03A14:  MOVFF  02,6D3
03A18:  MOVFF  01,6D2
03A1C:  MOVLW  08
03A1E:  MOVLB  6
03A20:  ADDWF  xD2,F
03A22:  MOVLW  00
03A24:  ADDWFC xD3,F
03A26:  MOVLB  2
03A28:  MOVF   x76,W
03A2A:  ADDWF  xBF,W
03A2C:  MULLW  09
03A2E:  MOVF   FF3,W
03A30:  MOVLB  6
03A32:  ADDWF  xD2,F
03A34:  MOVLW  00
03A36:  ADDWFC xD3,F
03A38:  MOVFF  6D3,6D5
03A3C:  MOVFF  6D2,6D4
03A40:  MOVLB  0
03A42:  CALL   2752
03A46:  MOVFF  6D0,FEA
03A4A:  MOVFF  6CF,FE9
03A4E:  MOVFF  6D1,FEC
03A52:  MOVF   FED,F
03A54:  MOVFF  01,FEF
....................       if(PcCiclos[i]>500) 
03A58:  BCF    FD8.0
03A5A:  MOVLB  2
03A5C:  RLCF   x76,W
03A5E:  CLRF   03
03A60:  ADDLW  05
03A62:  MOVWF  FE9
03A64:  MOVLW  03
03A66:  ADDWFC 03,W
03A68:  MOVWF  FEA
03A6A:  MOVFF  FEC,6D0
03A6E:  MOVF   FED,F
03A70:  MOVFF  FEF,6CF
03A74:  MOVLB  6
03A76:  MOVF   xD0,W
03A78:  SUBLW  00
03A7A:  BC    3AA0
03A7C:  XORLW  FF
03A7E:  BNZ   3A86
03A80:  MOVF   xCF,W
03A82:  SUBLW  F4
03A84:  BC    3AA0
....................          PcCiclos[i]=0; 
03A86:  BCF    FD8.0
03A88:  MOVLB  2
03A8A:  RLCF   x76,W
03A8C:  CLRF   03
03A8E:  ADDLW  05
03A90:  MOVWF  FE9
03A92:  MOVLW  03
03A94:  ADDWFC 03,W
03A96:  MOVWF  FEA
03A98:  CLRF   FEC
03A9A:  MOVF   FED,F
03A9C:  CLRF   FEF
03A9E:  MOVLB  6
....................       PpcCiclos[i]=make16(read_ext_eeprom((cicloVisto*320)+9+((cicloVisualizado+i)*9)),read_ext_eeprom((cicloVisto*320)+10+((cicloVisualizado+i)*9))); 
03AA0:  BCF    FD8.0
03AA2:  MOVLB  2
03AA4:  RLCF   x76,W
03AA6:  CLRF   03
03AA8:  ADDLW  13
03AAA:  MOVWF  01
03AAC:  MOVLW  03
03AAE:  ADDWFC 03,F
03AB0:  MOVFF  01,6CF
03AB4:  MOVLB  6
03AB6:  MOVFF  03,6D0
03ABA:  CLRF   xDA
03ABC:  MOVFF  2C0,6D9
03AC0:  MOVLW  01
03AC2:  MOVWF  xDC
03AC4:  MOVLW  40
03AC6:  MOVWF  xDB
03AC8:  MOVLB  0
03ACA:  CALL   2650
03ACE:  MOVFF  02,6D2
03AD2:  MOVFF  01,6D1
03AD6:  MOVLW  09
03AD8:  MOVLB  6
03ADA:  ADDWF  xD1,F
03ADC:  MOVLW  00
03ADE:  ADDWFC xD2,F
03AE0:  MOVLB  2
03AE2:  MOVF   x76,W
03AE4:  ADDWF  xBF,W
03AE6:  MULLW  09
03AE8:  MOVF   FF3,W
03AEA:  MOVLB  6
03AEC:  ADDWF  xD1,F
03AEE:  MOVLW  00
03AF0:  ADDWFC xD2,F
03AF2:  MOVFF  6D2,6D5
03AF6:  MOVFF  6D1,6D4
03AFA:  MOVLB  0
03AFC:  CALL   2752
03B00:  MOVFF  01,6D1
03B04:  MOVLB  6
03B06:  CLRF   xDA
03B08:  MOVFF  2C0,6D9
03B0C:  MOVLW  01
03B0E:  MOVWF  xDC
03B10:  MOVLW  40
03B12:  MOVWF  xDB
03B14:  MOVLB  0
03B16:  CALL   2650
03B1A:  MOVFF  02,6D3
03B1E:  MOVFF  01,6D2
03B22:  MOVLW  0A
03B24:  MOVLB  6
03B26:  ADDWF  xD2,F
03B28:  MOVLW  00
03B2A:  ADDWFC xD3,F
03B2C:  MOVLB  2
03B2E:  MOVF   x76,W
03B30:  ADDWF  xBF,W
03B32:  MULLW  09
03B34:  MOVF   FF3,W
03B36:  MOVLB  6
03B38:  ADDWF  xD2,F
03B3A:  MOVLW  00
03B3C:  ADDWFC xD3,F
03B3E:  MOVFF  6D3,6D5
03B42:  MOVFF  6D2,6D4
03B46:  MOVLB  0
03B48:  CALL   2752
03B4C:  MOVFF  6D0,FEA
03B50:  MOVFF  6CF,FE9
03B54:  MOVFF  6D1,FEC
03B58:  MOVF   FED,F
03B5A:  MOVFF  01,FEF
....................       if(PpcCiclos[i]>500) 
03B5E:  BCF    FD8.0
03B60:  MOVLB  2
03B62:  RLCF   x76,W
03B64:  CLRF   03
03B66:  ADDLW  13
03B68:  MOVWF  FE9
03B6A:  MOVLW  03
03B6C:  ADDWFC 03,W
03B6E:  MOVWF  FEA
03B70:  MOVFF  FEC,6D0
03B74:  MOVF   FED,F
03B76:  MOVFF  FEF,6CF
03B7A:  MOVLB  6
03B7C:  MOVF   xD0,W
03B7E:  SUBLW  00
03B80:  BC    3BA6
03B82:  XORLW  FF
03B84:  BNZ   3B8C
03B86:  MOVF   xCF,W
03B88:  SUBLW  F4
03B8A:  BC    3BA6
....................          PpcCiclos[i]=0; 
03B8C:  BCF    FD8.0
03B8E:  MOVLB  2
03B90:  RLCF   x76,W
03B92:  CLRF   03
03B94:  ADDLW  13
03B96:  MOVWF  FE9
03B98:  MOVLW  03
03B9A:  ADDWFC 03,W
03B9C:  MOVWF  FEA
03B9E:  CLRF   FEC
03BA0:  MOVF   FED,F
03BA2:  CLRF   FEF
03BA4:  MOVLB  6
....................       ACiclos[i]=read_ext_eeprom((cicloVisto*320)+13+((cicloVisualizado+i)*9)); 
03BA6:  CLRF   03
03BA8:  MOVLB  2
03BAA:  MOVF   x76,W
03BAC:  ADDLW  2F
03BAE:  MOVWF  01
03BB0:  MOVLW  03
03BB2:  ADDWFC 03,F
03BB4:  MOVFF  01,6CF
03BB8:  MOVLB  6
03BBA:  MOVFF  03,6D0
03BBE:  CLRF   xDA
03BC0:  MOVFF  2C0,6D9
03BC4:  MOVLW  01
03BC6:  MOVWF  xDC
03BC8:  MOVLW  40
03BCA:  MOVWF  xDB
03BCC:  MOVLB  0
03BCE:  CALL   2650
03BD2:  MOVFF  02,6D2
03BD6:  MOVFF  01,6D1
03BDA:  MOVLW  0D
03BDC:  MOVLB  6
03BDE:  ADDWF  xD1,F
03BE0:  MOVLW  00
03BE2:  ADDWFC xD2,F
03BE4:  MOVLB  2
03BE6:  MOVF   x76,W
03BE8:  ADDWF  xBF,W
03BEA:  MULLW  09
03BEC:  MOVF   FF3,W
03BEE:  MOVLB  6
03BF0:  ADDWF  xD1,F
03BF2:  MOVLW  00
03BF4:  ADDWFC xD2,F
03BF6:  MOVFF  6D2,6D5
03BFA:  MOVFF  6D1,6D4
03BFE:  MOVLB  0
03C00:  CALL   2752
03C04:  MOVFF  6D0,FEA
03C08:  MOVFF  6CF,FE9
03C0C:  MOVFF  01,FEF
....................       if(ACiclos[i]>10) 
03C10:  CLRF   03
03C12:  MOVLB  2
03C14:  MOVF   x76,W
03C16:  ADDLW  2F
03C18:  MOVWF  FE9
03C1A:  MOVLW  03
03C1C:  ADDWFC 03,W
03C1E:  MOVWF  FEA
03C20:  MOVF   FEF,W
03C22:  SUBLW  0A
03C24:  BC    3C36
....................          ACiclos[i]=0; 
03C26:  CLRF   03
03C28:  MOVF   x76,W
03C2A:  ADDLW  2F
03C2C:  MOVWF  FE9
03C2E:  MOVLW  03
03C30:  ADDWFC 03,W
03C32:  MOVWF  FEA
03C34:  CLRF   FEF
....................    } 
03C36:  INCF   x76,F
03C38:  BRA    36EA
.................... } 
03C3A:  MOVLB  0
03C3C:  GOTO   8094 (RETURN)
....................  
.................... void LimitaValores(){ 
....................    if(Ganancia>20.0){ 
*
03D74:  MOVLB  6
03D76:  CLRF   xD6
03D78:  CLRF   xD5
03D7A:  MOVLW  20
03D7C:  MOVWF  xD4
03D7E:  MOVLW  83
03D80:  MOVWF  xD3
03D82:  MOVFF  222,6DA
03D86:  MOVFF  221,6D9
03D8A:  MOVFF  220,6D8
03D8E:  MOVFF  21F,6D7
03D92:  MOVLB  0
03D94:  CALL   283A
03D98:  BNC   3DE2
....................       Ganancia=15.0; 
03D9A:  MOVLB  2
03D9C:  CLRF   x22
03D9E:  CLRF   x21
03DA0:  MOVLW  70
03DA2:  MOVWF  x20
03DA4:  MOVLW  82
03DA6:  MOVWF  x1F
....................       write_eeprom(20,15); 
03DA8:  CLRF   FAA
03DAA:  MOVLW  14
03DAC:  MOVWF  FA9
03DAE:  MOVLW  0F
03DB0:  MOVWF  FA8
03DB2:  BCF    FA6.6
03DB4:  BCF    FA6.7
03DB6:  BSF    FA6.2
03DB8:  MOVF   FF2,W
03DBA:  MOVWF  00
03DBC:  BCF    FF2.6
03DBE:  BCF    FF2.7
03DC0:  MOVLB  F
03DC2:  MOVLW  55
03DC4:  MOVWF  FA7
03DC6:  MOVLW  AA
03DC8:  MOVWF  FA7
03DCA:  BSF    FA6.1
03DCC:  BTFSC  FA6.1
03DCE:  BRA    3DCC
03DD0:  BCF    FA6.2
03DD2:  MOVF   00,W
03DD4:  IORWF  FF2,F
....................       delay_ms(10); 
03DD6:  MOVLW  0A
03DD8:  MOVLB  6
03DDA:  MOVWF  xE1
03DDC:  MOVLB  0
03DDE:  CALL   21DE
....................    } 
....................    if(Sensor[0].Ajuste>20){ 
03DE2:  MOVLB  3
03DE4:  MOVF   x5D,W
03DE6:  SUBLW  14
03DE8:  BC    3E26
....................       Sensor[0].Ajuste=0; 
03DEA:  CLRF   x5D
....................       write_eeprom(21,0); 
03DEC:  CLRF   FAA
03DEE:  MOVLW  15
03DF0:  MOVWF  FA9
03DF2:  CLRF   FA8
03DF4:  BCF    FA6.6
03DF6:  BCF    FA6.7
03DF8:  BSF    FA6.2
03DFA:  MOVF   FF2,W
03DFC:  MOVWF  00
03DFE:  BCF    FF2.6
03E00:  BCF    FF2.7
03E02:  MOVLB  F
03E04:  MOVLW  55
03E06:  MOVWF  FA7
03E08:  MOVLW  AA
03E0A:  MOVWF  FA7
03E0C:  BSF    FA6.1
03E0E:  BTFSC  FA6.1
03E10:  BRA    3E0E
03E12:  BCF    FA6.2
03E14:  MOVF   00,W
03E16:  IORWF  FF2,F
....................       delay_ms(10); 
03E18:  MOVLW  0A
03E1A:  MOVLB  6
03E1C:  MOVWF  xE1
03E1E:  MOVLB  0
03E20:  CALL   21DE
03E24:  MOVLB  3
....................    } 
....................    if(Sensor[0].Ajusten>20){ 
03E26:  MOVF   x5E,W
03E28:  SUBLW  14
03E2A:  BC    3E66
....................       Sensor[0].Ajusten=0; 
03E2C:  CLRF   x5E
....................       write_eeprom(22,0); 
03E2E:  CLRF   FAA
03E30:  MOVLW  16
03E32:  MOVWF  FA9
03E34:  CLRF   FA8
03E36:  BCF    FA6.6
03E38:  BCF    FA6.7
03E3A:  BSF    FA6.2
03E3C:  MOVF   FF2,W
03E3E:  MOVWF  00
03E40:  BCF    FF2.6
03E42:  BCF    FF2.7
03E44:  MOVLB  F
03E46:  MOVLW  55
03E48:  MOVWF  FA7
03E4A:  MOVLW  AA
03E4C:  MOVWF  FA7
03E4E:  BSF    FA6.1
03E50:  BTFSC  FA6.1
03E52:  BRA    3E50
03E54:  BCF    FA6.2
03E56:  MOVF   00,W
03E58:  IORWF  FF2,F
....................       delay_ms(10); 
03E5A:  MOVLW  0A
03E5C:  MOVLB  6
03E5E:  MOVWF  xE1
03E60:  MOVLB  0
03E62:  CALL   21DE
....................    } 
....................    if(Sensor[1].Ajuste>20){ 
03E66:  MOVLB  4
03E68:  MOVF   xC1,W
03E6A:  SUBLW  14
03E6C:  BC    3EAA
....................       Sensor[1].Ajuste=0; 
03E6E:  CLRF   xC1
....................       write_eeprom(23,0); 
03E70:  CLRF   FAA
03E72:  MOVLW  17
03E74:  MOVWF  FA9
03E76:  CLRF   FA8
03E78:  BCF    FA6.6
03E7A:  BCF    FA6.7
03E7C:  BSF    FA6.2
03E7E:  MOVF   FF2,W
03E80:  MOVWF  00
03E82:  BCF    FF2.6
03E84:  BCF    FF2.7
03E86:  MOVLB  F
03E88:  MOVLW  55
03E8A:  MOVWF  FA7
03E8C:  MOVLW  AA
03E8E:  MOVWF  FA7
03E90:  BSF    FA6.1
03E92:  BTFSC  FA6.1
03E94:  BRA    3E92
03E96:  BCF    FA6.2
03E98:  MOVF   00,W
03E9A:  IORWF  FF2,F
....................       delay_ms(10); 
03E9C:  MOVLW  0A
03E9E:  MOVLB  6
03EA0:  MOVWF  xE1
03EA2:  MOVLB  0
03EA4:  CALL   21DE
03EA8:  MOVLB  4
....................    } 
....................    if(Sensor[1].Ajusten>20){ 
03EAA:  MOVF   xC2,W
03EAC:  SUBLW  14
03EAE:  BC    3EEA
....................       Sensor[1].Ajusten=0; 
03EB0:  CLRF   xC2
....................       write_eeprom(24,0); 
03EB2:  CLRF   FAA
03EB4:  MOVLW  18
03EB6:  MOVWF  FA9
03EB8:  CLRF   FA8
03EBA:  BCF    FA6.6
03EBC:  BCF    FA6.7
03EBE:  BSF    FA6.2
03EC0:  MOVF   FF2,W
03EC2:  MOVWF  00
03EC4:  BCF    FF2.6
03EC6:  BCF    FF2.7
03EC8:  MOVLB  F
03ECA:  MOVLW  55
03ECC:  MOVWF  FA7
03ECE:  MOVLW  AA
03ED0:  MOVWF  FA7
03ED2:  BSF    FA6.1
03ED4:  BTFSC  FA6.1
03ED6:  BRA    3ED4
03ED8:  BCF    FA6.2
03EDA:  MOVF   00,W
03EDC:  IORWF  FF2,F
....................       delay_ms(10); 
03EDE:  MOVLW  0A
03EE0:  MOVLB  6
03EE2:  MOVWF  xE1
03EE4:  MOVLB  0
03EE6:  CALL   21DE
....................    } 
....................    if(MediaMovil>80 || MediaMovil<10){ 
03EEA:  MOVLB  1
03EEC:  MOVF   xF7,W
03EEE:  SUBLW  50
03EF0:  BNC   3EF8
03EF2:  MOVF   xF7,W
03EF4:  SUBLW  09
03EF6:  BNC   3F36
....................       MediaMovil=40; 
03EF8:  MOVLW  28
03EFA:  MOVWF  xF7
....................       write_eeprom(25,40); 
03EFC:  CLRF   FAA
03EFE:  MOVLW  19
03F00:  MOVWF  FA9
03F02:  MOVLW  28
03F04:  MOVWF  FA8
03F06:  BCF    FA6.6
03F08:  BCF    FA6.7
03F0A:  BSF    FA6.2
03F0C:  MOVF   FF2,W
03F0E:  MOVWF  00
03F10:  BCF    FF2.6
03F12:  BCF    FF2.7
03F14:  MOVLB  F
03F16:  MOVLW  55
03F18:  MOVWF  FA7
03F1A:  MOVLW  AA
03F1C:  MOVWF  FA7
03F1E:  BSF    FA6.1
03F20:  BTFSC  FA6.1
03F22:  BRA    3F20
03F24:  BCF    FA6.2
03F26:  MOVF   00,W
03F28:  IORWF  FF2,F
....................       delay_ms(10); 
03F2A:  MOVLW  0A
03F2C:  MOVLB  6
03F2E:  MOVWF  xE1
03F30:  MOVLB  0
03F32:  CALL   21DE
....................    } 
....................    if(Tciclo>10 || Tciclo<5){ 
03F36:  MOVLB  6
03F38:  CLRF   xD6
03F3A:  CLRF   xD5
03F3C:  MOVLW  20
03F3E:  MOVWF  xD4
03F40:  MOVLW  82
03F42:  MOVWF  xD3
03F44:  MOVFF  20A,6DA
03F48:  MOVFF  209,6D9
03F4C:  MOVFF  208,6D8
03F50:  MOVFF  207,6D7
03F54:  MOVLB  0
03F56:  CALL   283A
03F5A:  BC    3F82
03F5C:  MOVFF  20A,6D6
03F60:  MOVFF  209,6D5
03F64:  MOVFF  208,6D4
03F68:  MOVFF  207,6D3
03F6C:  MOVLB  6
03F6E:  CLRF   xDA
03F70:  CLRF   xD9
03F72:  MOVLW  20
03F74:  MOVWF  xD8
03F76:  MOVLW  81
03F78:  MOVWF  xD7
03F7A:  MOVLB  0
03F7C:  CALL   283A
03F80:  BNC   3FCA
....................       Tciclo=10; 
03F82:  MOVLB  2
03F84:  CLRF   x0A
03F86:  CLRF   x09
03F88:  MOVLW  20
03F8A:  MOVWF  x08
03F8C:  MOVLW  82
03F8E:  MOVWF  x07
....................       write_eeprom(26,10); 
03F90:  CLRF   FAA
03F92:  MOVLW  1A
03F94:  MOVWF  FA9
03F96:  MOVLW  0A
03F98:  MOVWF  FA8
03F9A:  BCF    FA6.6
03F9C:  BCF    FA6.7
03F9E:  BSF    FA6.2
03FA0:  MOVF   FF2,W
03FA2:  MOVWF  00
03FA4:  BCF    FF2.6
03FA6:  BCF    FF2.7
03FA8:  MOVLB  F
03FAA:  MOVLW  55
03FAC:  MOVWF  FA7
03FAE:  MOVLW  AA
03FB0:  MOVWF  FA7
03FB2:  BSF    FA6.1
03FB4:  BTFSC  FA6.1
03FB6:  BRA    3FB4
03FB8:  BCF    FA6.2
03FBA:  MOVF   00,W
03FBC:  IORWF  FF2,F
....................       delay_ms(10); 
03FBE:  MOVLW  0A
03FC0:  MOVLB  6
03FC2:  MOVWF  xE1
03FC4:  MOVLB  0
03FC6:  CALL   21DE
....................    } 
....................    if(Sensor[0].RPT100>2.0){ 
03FCA:  MOVLB  6
03FCC:  CLRF   xD6
03FCE:  CLRF   xD5
03FD0:  CLRF   xD4
03FD2:  MOVLW  80
03FD4:  MOVWF  xD3
03FD6:  MOVFF  352,6DA
03FDA:  MOVFF  351,6D9
03FDE:  MOVFF  350,6D8
03FE2:  MOVFF  34F,6D7
03FE6:  MOVLB  0
03FE8:  CALL   283A
03FEC:  BNC   406C
....................       Sensor[0].RPT100=0.5; 
03FEE:  MOVLB  3
03FF0:  CLRF   x52
03FF2:  CLRF   x51
03FF4:  CLRF   x50
03FF6:  MOVLW  7E
03FF8:  MOVWF  x4F
....................       write_eeprom(28,0); 
03FFA:  CLRF   FAA
03FFC:  MOVLW  1C
03FFE:  MOVWF  FA9
04000:  CLRF   FA8
04002:  BCF    FA6.6
04004:  BCF    FA6.7
04006:  BSF    FA6.2
04008:  MOVF   FF2,W
0400A:  MOVWF  00
0400C:  BCF    FF2.6
0400E:  BCF    FF2.7
04010:  MOVLB  F
04012:  MOVLW  55
04014:  MOVWF  FA7
04016:  MOVLW  AA
04018:  MOVWF  FA7
0401A:  BSF    FA6.1
0401C:  BTFSC  FA6.1
0401E:  BRA    401C
04020:  BCF    FA6.2
04022:  MOVF   00,W
04024:  IORWF  FF2,F
....................       delay_ms(10); 
04026:  MOVLW  0A
04028:  MOVLB  6
0402A:  MOVWF  xE1
0402C:  MOVLB  0
0402E:  CALL   21DE
....................       write_eeprom(27,5); 
04032:  CLRF   FAA
04034:  MOVLW  1B
04036:  MOVWF  FA9
04038:  MOVLW  05
0403A:  MOVWF  FA8
0403C:  BCF    FA6.6
0403E:  BCF    FA6.7
04040:  BSF    FA6.2
04042:  MOVF   FF2,W
04044:  MOVWF  00
04046:  BCF    FF2.6
04048:  BCF    FF2.7
0404A:  MOVLB  F
0404C:  MOVLW  55
0404E:  MOVWF  FA7
04050:  MOVLW  AA
04052:  MOVWF  FA7
04054:  BSF    FA6.1
04056:  BTFSC  FA6.1
04058:  BRA    4056
0405A:  BCF    FA6.2
0405C:  MOVF   00,W
0405E:  IORWF  FF2,F
....................       delay_ms(10); 
04060:  MOVLW  0A
04062:  MOVLB  6
04064:  MOVWF  xE1
04066:  MOVLB  0
04068:  CALL   21DE
....................    } 
....................    if(Sensor[1].RPT100>2.0){ 
0406C:  MOVLB  6
0406E:  CLRF   xD6
04070:  CLRF   xD5
04072:  CLRF   xD4
04074:  MOVLW  80
04076:  MOVWF  xD3
04078:  MOVFF  4B6,6DA
0407C:  MOVFF  4B5,6D9
04080:  MOVFF  4B4,6D8
04084:  MOVFF  4B3,6D7
04088:  MOVLB  0
0408A:  CALL   283A
0408E:  BNC   410E
....................       Sensor[1].RPT100=0.5; 
04090:  MOVLB  4
04092:  CLRF   xB6
04094:  CLRF   xB5
04096:  CLRF   xB4
04098:  MOVLW  7E
0409A:  MOVWF  xB3
....................       write_eeprom(30,0); 
0409C:  CLRF   FAA
0409E:  MOVLW  1E
040A0:  MOVWF  FA9
040A2:  CLRF   FA8
040A4:  BCF    FA6.6
040A6:  BCF    FA6.7
040A8:  BSF    FA6.2
040AA:  MOVF   FF2,W
040AC:  MOVWF  00
040AE:  BCF    FF2.6
040B0:  BCF    FF2.7
040B2:  MOVLB  F
040B4:  MOVLW  55
040B6:  MOVWF  FA7
040B8:  MOVLW  AA
040BA:  MOVWF  FA7
040BC:  BSF    FA6.1
040BE:  BTFSC  FA6.1
040C0:  BRA    40BE
040C2:  BCF    FA6.2
040C4:  MOVF   00,W
040C6:  IORWF  FF2,F
....................       delay_ms(10); 
040C8:  MOVLW  0A
040CA:  MOVLB  6
040CC:  MOVWF  xE1
040CE:  MOVLB  0
040D0:  CALL   21DE
....................       write_eeprom(29,5); 
040D4:  CLRF   FAA
040D6:  MOVLW  1D
040D8:  MOVWF  FA9
040DA:  MOVLW  05
040DC:  MOVWF  FA8
040DE:  BCF    FA6.6
040E0:  BCF    FA6.7
040E2:  BSF    FA6.2
040E4:  MOVF   FF2,W
040E6:  MOVWF  00
040E8:  BCF    FF2.6
040EA:  BCF    FF2.7
040EC:  MOVLB  F
040EE:  MOVLW  55
040F0:  MOVWF  FA7
040F2:  MOVLW  AA
040F4:  MOVWF  FA7
040F6:  BSF    FA6.1
040F8:  BTFSC  FA6.1
040FA:  BRA    40F8
040FC:  BCF    FA6.2
040FE:  MOVF   00,W
04100:  IORWF  FF2,F
....................       delay_ms(10); 
04102:  MOVLW  0A
04104:  MOVLB  6
04106:  MOVWF  xE1
04108:  MOVLB  0
0410A:  CALL   21DE
....................    } 
....................    if(Atmosferica>100 || Atmosferica<60){ 
0410E:  MOVLB  2
04110:  MOVF   xC2,W
04112:  SUBLW  64
04114:  BNC   411C
04116:  MOVF   xC2,W
04118:  SUBLW  3B
0411A:  BNC   415C
....................       Atmosferica=72; 
0411C:  MOVLW  48
0411E:  MOVWF  xC2
....................       write_eeprom(31,72); 
04120:  CLRF   FAA
04122:  MOVLW  1F
04124:  MOVWF  FA9
04126:  MOVLW  48
04128:  MOVWF  FA8
0412A:  BCF    FA6.6
0412C:  BCF    FA6.7
0412E:  BSF    FA6.2
04130:  MOVF   FF2,W
04132:  MOVWF  00
04134:  BCF    FF2.6
04136:  BCF    FF2.7
04138:  MOVLB  F
0413A:  MOVLW  55
0413C:  MOVWF  FA7
0413E:  MOVLW  AA
04140:  MOVWF  FA7
04142:  BSF    FA6.1
04144:  BTFSC  FA6.1
04146:  BRA    4144
04148:  BCF    FA6.2
0414A:  MOVF   00,W
0414C:  IORWF  FF2,F
....................       delay_ms(10); 
0414E:  MOVLW  0A
04150:  MOVLB  6
04152:  MOVWF  xE1
04154:  MOVLB  0
04156:  CALL   21DE
0415A:  MOVLB  2
....................    } 
....................    if(Tapertura>100 || Tapertura<80){ 
0415C:  MOVF   x7A,W
0415E:  SUBLW  64
04160:  BNC   4168
04162:  MOVF   x7A,W
04164:  SUBLW  4F
04166:  BNC   41A8
....................       Tapertura=85; 
04168:  MOVLW  55
0416A:  MOVWF  x7A
....................       write_eeprom(32,85); 
0416C:  CLRF   FAA
0416E:  MOVLW  20
04170:  MOVWF  FA9
04172:  MOVLW  55
04174:  MOVWF  FA8
04176:  BCF    FA6.6
04178:  BCF    FA6.7
0417A:  BSF    FA6.2
0417C:  MOVF   FF2,W
0417E:  MOVWF  00
04180:  BCF    FF2.6
04182:  BCF    FF2.7
04184:  MOVLB  F
04186:  MOVLW  55
04188:  MOVWF  FA7
0418A:  MOVLW  AA
0418C:  MOVWF  FA7
0418E:  BSF    FA6.1
04190:  BTFSC  FA6.1
04192:  BRA    4190
04194:  BCF    FA6.2
04196:  MOVF   00,W
04198:  IORWF  FF2,F
....................       delay_ms(10); 
0419A:  MOVLW  0A
0419C:  MOVLB  6
0419E:  MOVWF  xE1
041A0:  MOVLB  0
041A2:  CALL   21DE
041A6:  MOVLB  2
....................    } 
....................    if(Ciclos>60000){ 
041A8:  MOVF   x99,W
041AA:  SUBLW  E9
041AC:  BC    422E
041AE:  XORLW  FF
041B0:  BNZ   41B8
041B2:  MOVF   x98,W
041B4:  SUBLW  60
041B6:  BC    422E
....................       Ciclos=0; 
041B8:  CLRF   x99
041BA:  CLRF   x98
....................       write_eeprom(37,0); 
041BC:  CLRF   FAA
041BE:  MOVLW  25
041C0:  MOVWF  FA9
041C2:  CLRF   FA8
041C4:  BCF    FA6.6
041C6:  BCF    FA6.7
041C8:  BSF    FA6.2
041CA:  MOVF   FF2,W
041CC:  MOVWF  00
041CE:  BCF    FF2.6
041D0:  BCF    FF2.7
041D2:  MOVLB  F
041D4:  MOVLW  55
041D6:  MOVWF  FA7
041D8:  MOVLW  AA
041DA:  MOVWF  FA7
041DC:  BSF    FA6.1
041DE:  BTFSC  FA6.1
041E0:  BRA    41DE
041E2:  BCF    FA6.2
041E4:  MOVF   00,W
041E6:  IORWF  FF2,F
....................       delay_ms(10); 
041E8:  MOVLW  0A
041EA:  MOVLB  6
041EC:  MOVWF  xE1
041EE:  MOVLB  0
041F0:  CALL   21DE
....................       write_eeprom(38,0); 
041F4:  CLRF   FAA
041F6:  MOVLW  26
041F8:  MOVWF  FA9
041FA:  CLRF   FA8
041FC:  BCF    FA6.6
041FE:  BCF    FA6.7
04200:  BSF    FA6.2
04202:  MOVF   FF2,W
04204:  MOVWF  00
04206:  BCF    FF2.6
04208:  BCF    FF2.7
0420A:  MOVLB  F
0420C:  MOVLW  55
0420E:  MOVWF  FA7
04210:  MOVLW  AA
04212:  MOVWF  FA7
04214:  BSF    FA6.1
04216:  BTFSC  FA6.1
04218:  BRA    4216
0421A:  BCF    FA6.2
0421C:  MOVF   00,W
0421E:  IORWF  FF2,F
....................       delay_ms(10); 
04220:  MOVLW  0A
04222:  MOVLB  6
04224:  MOVWF  xE1
04226:  MOVLB  0
04228:  CALL   21DE
0422C:  MOVLB  2
....................    } 
....................    if(sg1==10){ 
0422E:  MOVF   xD3,W
04230:  SUBLW  0A
04232:  BNZ   4248
....................       G1=G1*(-1); 
04234:  MOVFF  2D1,6CF
04238:  MOVLW  FF
0423A:  MOVLB  6
0423C:  MOVWF  xD0
0423E:  MOVLB  0
04240:  RCALL  3D26
04242:  MOVFF  01,2D1
04246:  MOVLB  2
....................    } 
....................    if(sg2==10){ 
04248:  MOVF   xD4,W
0424A:  SUBLW  0A
0424C:  BNZ   4260
....................       G2=G2*(-1); 
0424E:  MOVFF  2D2,6CF
04252:  MOVLW  FF
04254:  MOVLB  6
04256:  MOVWF  xD0
04258:  MOVLB  0
0425A:  RCALL  3D26
0425C:  MOVFF  01,2D2
....................    } 
....................    if(cerroSucioInt>1){ 
04260:  MOVLB  1
04262:  MOVF   xFD,W
04264:  SUBLW  01
04266:  BC    42A6
....................       cerroSucioInt=0; 
04268:  CLRF   xFD
....................       write_eeprom(46,0); 
0426A:  CLRF   FAA
0426C:  MOVLW  2E
0426E:  MOVWF  FA9
04270:  CLRF   FA8
04272:  BCF    FA6.6
04274:  BCF    FA6.7
04276:  BSF    FA6.2
04278:  MOVF   FF2,W
0427A:  MOVWF  00
0427C:  BCF    FF2.6
0427E:  BCF    FF2.7
04280:  MOVLB  F
04282:  MOVLW  55
04284:  MOVWF  FA7
04286:  MOVLW  AA
04288:  MOVWF  FA7
0428A:  BSF    FA6.1
0428C:  BTFSC  FA6.1
0428E:  BRA    428C
04290:  BCF    FA6.2
04292:  MOVF   00,W
04294:  IORWF  FF2,F
....................       delay_ms(10); 
04296:  MOVLW  0A
04298:  MOVLB  6
0429A:  MOVWF  xE1
0429C:  MOVLB  0
0429E:  CALL   21DE
....................       cerroSucio=OFF; 
042A2:  BCF    xFB.2
042A4:  MOVLB  1
....................    } 
....................    if(cerroLimpioInt>1){ 
042A6:  MOVF   xFE,W
042A8:  SUBLW  01
042AA:  BC    42EA
....................       cerroLimpioInt=0; 
042AC:  CLRF   xFE
....................       write_eeprom(47,0); 
042AE:  CLRF   FAA
042B0:  MOVLW  2F
042B2:  MOVWF  FA9
042B4:  CLRF   FA8
042B6:  BCF    FA6.6
042B8:  BCF    FA6.7
042BA:  BSF    FA6.2
042BC:  MOVF   FF2,W
042BE:  MOVWF  00
042C0:  BCF    FF2.6
042C2:  BCF    FF2.7
042C4:  MOVLB  F
042C6:  MOVLW  55
042C8:  MOVWF  FA7
042CA:  MOVLW  AA
042CC:  MOVWF  FA7
042CE:  BSF    FA6.1
042D0:  BTFSC  FA6.1
042D2:  BRA    42D0
042D4:  BCF    FA6.2
042D6:  MOVF   00,W
042D8:  IORWF  FF2,F
....................       delay_ms(10); 
042DA:  MOVLW  0A
042DC:  MOVLB  6
042DE:  MOVWF  xE1
042E0:  MOVLB  0
042E2:  CALL   21DE
....................       cerroLimpio=OFF; 
042E6:  BCF    xFB.3
042E8:  MOVLB  1
....................    } 
....................    if(cerroSucioInt==1) 
042EA:  DECFSZ xFD,W
042EC:  BRA    42F4
....................       cerroSucio=ON; 
042EE:  MOVLB  0
042F0:  BSF    xFB.2
042F2:  MOVLB  1
....................    if(cerroSucioInt==0) 
042F4:  MOVF   xFD,F
042F6:  BNZ   42FE
....................       cerroSucio=OFF;    
042F8:  MOVLB  0
042FA:  BCF    xFB.2
042FC:  MOVLB  1
....................    if(cerroLimpioInt==1) 
042FE:  DECFSZ xFE,W
04300:  BRA    4308
....................       cerroLimpio=ON; 
04302:  MOVLB  0
04304:  BSF    xFB.3
04306:  MOVLB  1
....................    if(cerroLimpioInt==0) 
04308:  MOVF   xFE,F
0430A:  BNZ   4310
....................       cerroLimpio=OFF;   
0430C:  MOVLB  0
0430E:  BCF    xFB.3
....................        
....................    if(pulsosConfigurados>8 || pulsosConfigurados<2){ 
04310:  MOVLB  2
04312:  MOVF   x52,W
04314:  SUBLW  08
04316:  BNC   431E
04318:  MOVF   x52,W
0431A:  SUBLW  01
0431C:  BNC   435E
....................       pulsosConfigurados=4; 
0431E:  MOVLW  04
04320:  MOVWF  x52
....................       write_eeprom(50,4); 
04322:  CLRF   FAA
04324:  MOVLW  32
04326:  MOVWF  FA9
04328:  MOVLW  04
0432A:  MOVWF  FA8
0432C:  BCF    FA6.6
0432E:  BCF    FA6.7
04330:  BSF    FA6.2
04332:  MOVF   FF2,W
04334:  MOVWF  00
04336:  BCF    FF2.6
04338:  BCF    FF2.7
0433A:  MOVLB  F
0433C:  MOVLW  55
0433E:  MOVWF  FA7
04340:  MOVLW  AA
04342:  MOVWF  FA7
04344:  BSF    FA6.1
04346:  BTFSC  FA6.1
04348:  BRA    4346
0434A:  BCF    FA6.2
0434C:  MOVF   00,W
0434E:  IORWF  FF2,F
....................       delay_ms(10); 
04350:  MOVLW  0A
04352:  MOVLB  6
04354:  MOVWF  xE1
04356:  MOVLB  0
04358:  CALL   21DE
0435C:  MOVLB  2
....................    } 
....................    if(vacioTest>30 || vacioTest<17){ 
0435E:  MOVF   x53,W
04360:  SUBLW  1E
04362:  BNC   436A
04364:  MOVF   x53,W
04366:  SUBLW  10
04368:  BNC   43AA
....................       vacioTest=17; 
0436A:  MOVLW  11
0436C:  MOVWF  x53
....................       write_eeprom(51,17); 
0436E:  CLRF   FAA
04370:  MOVLW  33
04372:  MOVWF  FA9
04374:  MOVLW  11
04376:  MOVWF  FA8
04378:  BCF    FA6.6
0437A:  BCF    FA6.7
0437C:  BSF    FA6.2
0437E:  MOVF   FF2,W
04380:  MOVWF  00
04382:  BCF    FF2.6
04384:  BCF    FF2.7
04386:  MOVLB  F
04388:  MOVLW  55
0438A:  MOVWF  FA7
0438C:  MOVLW  AA
0438E:  MOVWF  FA7
04390:  BSF    FA6.1
04392:  BTFSC  FA6.1
04394:  BRA    4392
04396:  BCF    FA6.2
04398:  MOVF   00,W
0439A:  IORWF  FF2,F
....................       delay_ms(10); 
0439C:  MOVLW  0A
0439E:  MOVLB  6
043A0:  MOVWF  xE1
043A2:  MOVLB  0
043A4:  CALL   21DE
043A8:  MOVLB  2
....................    } 
....................    if(vacioCiclo>40 || vacioCiclo<17){ 
043AA:  MOVF   x54,W
043AC:  SUBLW  28
043AE:  BNC   43B6
043B0:  MOVF   x54,W
043B2:  SUBLW  10
043B4:  BNC   43F6
....................       vacioCiclo=25; 
043B6:  MOVLW  19
043B8:  MOVWF  x54
....................       write_eeprom(52,25); 
043BA:  CLRF   FAA
043BC:  MOVLW  34
043BE:  MOVWF  FA9
043C0:  MOVLW  19
043C2:  MOVWF  FA8
043C4:  BCF    FA6.6
043C6:  BCF    FA6.7
043C8:  BSF    FA6.2
043CA:  MOVF   FF2,W
043CC:  MOVWF  00
043CE:  BCF    FF2.6
043D0:  BCF    FF2.7
043D2:  MOVLB  F
043D4:  MOVLW  55
043D6:  MOVWF  FA7
043D8:  MOVLW  AA
043DA:  MOVWF  FA7
043DC:  BSF    FA6.1
043DE:  BTFSC  FA6.1
043E0:  BRA    43DE
043E2:  BCF    FA6.2
043E4:  MOVF   00,W
043E6:  IORWF  FF2,F
....................       delay_ms(10); 
043E8:  MOVLW  0A
043EA:  MOVLB  6
043EC:  MOVWF  xE1
043EE:  MOVLB  0
043F0:  CALL   21DE
043F4:  MOVLB  2
....................    }     
.................... } 
043F6:  MOVLB  0
043F8:  GOTO   80A8 (RETURN)
....................  
.................... void LeeDisplay(void){ 
....................    if(Dato_Exitoso==5){ 
*
054B2:  MOVLB  2
054B4:  MOVF   x70,W
054B6:  SUBLW  05
054B8:  BTFSS  FD8.2
054BA:  BRA    569C
....................          RX_Buffer[0]=RX_Buffer2[0]; 
054BC:  MOVFF  3C,31
....................          RX_Buffer[1]=RX_Buffer2[1]; 
054C0:  MOVFF  3D,32
....................          RX_Buffer[2]=RX_Buffer2[2]; 
054C4:  MOVFF  3E,33
....................          RX_Buffer[3]=RX_Buffer2[3]; 
054C8:  MOVFF  3F,34
....................          RX_Buffer[4]=RX_Buffer2[4]; 
054CC:  MOVFF  40,35
....................          RX_Buffer[5]=RX_Buffer2[5]; 
054D0:  MOVFF  41,36
....................          RX_Buffer[6]=RX_Buffer2[6]; 
054D4:  MOVFF  42,37
....................          RX_Buffer[7]=RX_Buffer2[7]; 
054D8:  MOVFF  43,38
....................          RX_Buffer[8]=RX_Buffer2[8]; 
054DC:  MOVFF  44,39
....................          RX_Buffer[9]=RX_Buffer2[9]; 
054E0:  MOVFF  45,3A
....................           
....................       if(RX_Buffer[3]==0x01){// Pregunta por la pagina en la que esta el display,01 es Contrasea de Acceso 
054E4:  DECFSZ 34,W
054E6:  BRA    54F6
....................          Menu=0; 
054E8:  CLRF   x73
....................          if(MenuAntt!=Menu) 
054EA:  MOVF   x73,W
054EC:  SUBWF  x75,W
054EE:  BZ    54F4
....................             MenuAntt=Menu; 
054F0:  MOVFF  273,275
....................       }else if(RX_Buffer[3]==0x02){//02 es Ciclos Fijos 
054F4:  BRA    569C
054F6:  MOVF   34,W
054F8:  SUBLW  02
054FA:  BNZ   550C
....................          Menu=1; 
054FC:  MOVLW  01
054FE:  MOVWF  x73
....................          if(MenuAntt!=Menu) 
05500:  MOVF   x73,W
05502:  SUBWF  x75,W
05504:  BZ    550A
....................             MenuAntt=Menu; 
05506:  MOVFF  273,275
....................       }else if(RX_Buffer[3]==0x03){//03 es Tiempo Esterilizacion 
0550A:  BRA    569C
0550C:  MOVF   34,W
0550E:  SUBLW  03
05510:  BNZ   5522
....................          Menu=2; 
05512:  MOVLW  02
05514:  MOVWF  x73
....................          if(MenuAntt!=Menu) 
05516:  MOVF   x73,W
05518:  SUBWF  x75,W
0551A:  BZ    5520
....................             MenuAntt=Menu; 
0551C:  MOVFF  273,275
....................       }else if(RX_Buffer[3]==0x04){//04 es Tiempo de Secado 
05520:  BRA    569C
05522:  MOVF   34,W
05524:  SUBLW  04
05526:  BNZ   5538
....................          Menu=3; 
05528:  MOVLW  03
0552A:  MOVWF  x73
....................          if(MenuAntt!=Menu) 
0552C:  MOVF   x73,W
0552E:  SUBWF  x75,W
05530:  BZ    5536
....................             MenuAntt=Menu; 
05532:  MOVFF  273,275
....................       }else if(RX_Buffer[3]==0x05){//05 es Temperatura 
05536:  BRA    569C
05538:  MOVF   34,W
0553A:  SUBLW  05
0553C:  BNZ   554E
....................          Menu=4; 
0553E:  MOVLW  04
05540:  MOVWF  x73
....................          if(MenuAntt!=Menu) 
05542:  MOVF   x73,W
05544:  SUBWF  x75,W
05546:  BZ    554C
....................             MenuAntt=Menu; 
05548:  MOVFF  273,275
....................       }else if(RX_Buffer[3]==0x06){//06 es Nivel de Vacio 
0554C:  BRA    569C
0554E:  MOVF   34,W
05550:  SUBLW  06
05552:  BNZ   5564
....................          Menu=5; 
05554:  MOVLW  05
05556:  MOVWF  x73
....................          if(MenuAntt!=Menu) 
05558:  MOVF   x73,W
0555A:  SUBWF  x75,W
0555C:  BZ    5562
....................             MenuAntt=Menu; 
0555E:  MOVFF  273,275
....................       }else if(RX_Buffer[3]==0x07){//07 es Test de Componentes 
05562:  BRA    569C
05564:  MOVF   34,W
05566:  SUBLW  07
05568:  BNZ   557A
....................          Menu=6; 
0556A:  MOVLW  06
0556C:  MOVWF  x73
....................          if(MenuAntt!=Menu) 
0556E:  MOVF   x73,W
05570:  SUBWF  x75,W
05572:  BZ    5578
....................             MenuAntt=Menu; 
05574:  MOVFF  273,275
....................       }else if(RX_Buffer[3]==0x08){//08 es Fecha y hora 
05578:  BRA    569C
0557A:  MOVF   34,W
0557C:  SUBLW  08
0557E:  BNZ   5590
....................          Menu=7; 
05580:  MOVLW  07
05582:  MOVWF  x73
....................          if(MenuAntt!=Menu) 
05584:  MOVF   x73,W
05586:  SUBWF  x75,W
05588:  BZ    558E
....................             MenuAntt=Menu; 
0558A:  MOVFF  273,275
....................       }else if(RX_Buffer[3]==0x09){//09 es Ciclos Personalizados 
0558E:  BRA    569C
05590:  MOVF   34,W
05592:  SUBLW  09
05594:  BNZ   55A6
....................          Menu=8; 
05596:  MOVLW  08
05598:  MOVWF  x73
....................          if(MenuAntt!=Menu) 
0559A:  MOVF   x73,W
0559C:  SUBWF  x75,W
0559E:  BZ    55A4
....................             MenuAntt=Menu; 
055A0:  MOVFF  273,275
....................       }else if(RX_Buffer[3]==0x0a){//0a es Pulsos de Vacio 
055A4:  BRA    569C
055A6:  MOVF   34,W
055A8:  SUBLW  0A
055AA:  BNZ   55BC
....................          Menu=9; 
055AC:  MOVLW  09
055AE:  MOVWF  x73
....................          if(MenuAntt!=Menu) 
055B0:  MOVF   x73,W
055B2:  SUBWF  x75,W
055B4:  BZ    55BA
....................             MenuAntt=Menu; 
055B6:  MOVFF  273,275
....................       }else if(RX_Buffer[3]==0x0b){//0b es Usuarios 
055BA:  BRA    569C
055BC:  MOVF   34,W
055BE:  SUBLW  0B
055C0:  BNZ   55D2
....................          Menu=10; 
055C2:  MOVLW  0A
055C4:  MOVWF  x73
....................          if(MenuAntt!=Menu) 
055C6:  MOVF   x73,W
055C8:  SUBWF  x75,W
055CA:  BZ    55D0
....................             MenuAntt=Menu; 
055CC:  MOVFF  273,275
....................       }else if(RX_Buffer[3]==0x0c){//0c es Configuraciones 
055D0:  BRA    569C
055D2:  MOVF   34,W
055D4:  SUBLW  0C
055D6:  BNZ   55E8
....................          Menu=11; 
055D8:  MOVLW  0B
055DA:  MOVWF  x73
....................          if(MenuAntt!=Menu) 
055DC:  MOVF   x73,W
055DE:  SUBWF  x75,W
055E0:  BZ    55E6
....................             MenuAntt=Menu; 
055E2:  MOVFF  273,275
....................       }else if(RX_Buffer[3]==0x0d){//0d es Ciclos 
055E6:  BRA    569C
055E8:  MOVF   34,W
055EA:  SUBLW  0D
055EC:  BNZ   55FE
....................          Menu=12; 
055EE:  MOVLW  0C
055F0:  MOVWF  x73
....................          if(MenuAntt!=Menu) 
055F2:  MOVF   x73,W
055F4:  SUBWF  x75,W
055F6:  BZ    55FC
....................             MenuAntt=Menu; 
055F8:  MOVFF  273,275
....................       }else if(RX_Buffer[3]==0x0e){//0d es Activacion de Ciclos 
055FC:  BRA    569C
055FE:  MOVF   34,W
05600:  SUBLW  0E
05602:  BNZ   5614
....................          Menu=14; 
05604:  MOVLW  0E
05606:  MOVWF  x73
....................          if(MenuAntt!=Menu) 
05608:  MOVF   x73,W
0560A:  SUBWF  x75,W
0560C:  BZ    5612
....................             MenuAntt=Menu; 
0560E:  MOVFF  273,275
....................       }else if(RX_Buffer[3]==0x10){//10 es Nivel de Desfogue 
05612:  BRA    569C
05614:  MOVF   34,W
05616:  SUBLW  10
05618:  BNZ   562A
....................          Menu=13; 
0561A:  MOVLW  0D
0561C:  MOVWF  x73
....................          if(MenuAntt!=Menu) 
0561E:  MOVF   x73,W
05620:  SUBWF  x75,W
05622:  BZ    5628
....................             MenuAntt=Menu; 
05624:  MOVFF  273,275
....................       }else if(RX_Buffer[3]==0x0f){//0f es Recibe caracteres de contrasea desde display 
05628:  BRA    569C
0562A:  MOVF   34,W
0562C:  SUBLW  0F
0562E:  BNZ   5632
....................           
....................       }else if(RX_Buffer[3]==0x1a){//1a es Menu de Funcionamiento 
05630:  BRA    569C
05632:  MOVF   34,W
05634:  SUBLW  1A
05636:  BNZ   5648
....................          Menu=20; 
05638:  MOVLW  14
0563A:  MOVWF  x73
....................          if(MenuAntt!=Menu) 
0563C:  MOVF   x73,W
0563E:  SUBWF  x75,W
05640:  BZ    5646
....................             MenuAntt=Menu; 
05642:  MOVFF  273,275
....................       }else if(RX_Buffer[3]==0x1b){//1b es Menu de clave correcta 
05646:  BRA    569C
05648:  MOVF   34,W
0564A:  SUBLW  1B
0564C:  BNZ   565E
....................          Menu=15; 
0564E:  MOVLW  0F
05650:  MOVWF  x73
....................          if(MenuAntt!=Menu) 
05652:  MOVF   x73,W
05654:  SUBWF  x75,W
05656:  BZ    565C
....................             MenuAntt=Menu; 
05658:  MOVFF  273,275
....................       }else if(RX_Buffer[3]==0x1c){//1c es Menu de clave incorrecta 
0565C:  BRA    569C
0565E:  MOVF   34,W
05660:  SUBLW  1C
05662:  BNZ   5674
....................          Menu=16; 
05664:  MOVLW  10
05666:  MOVWF  x73
....................          if(MenuAntt!=Menu) 
05668:  MOVF   x73,W
0566A:  SUBWF  x75,W
0566C:  BZ    5672
....................             MenuAntt=Menu; 
0566E:  MOVFF  273,275
....................       }else if(RX_Buffer[3]==0x2c){//2c es Menu de Configuracion de Parametros 
05672:  BRA    569C
05674:  MOVF   34,W
05676:  SUBLW  2C
05678:  BNZ   568A
....................          Menu=100; 
0567A:  MOVLW  64
0567C:  MOVWF  x73
....................          if(MenuAntt!=Menu) 
0567E:  MOVF   x73,W
05680:  SUBWF  x75,W
05682:  BZ    5688
....................             MenuAntt=Menu; 
05684:  MOVFF  273,275
....................       }else if(RX_Buffer[3]==0xcc){//cc es Menu de Bienvenida 
05688:  BRA    569C
0568A:  MOVF   34,W
0568C:  SUBLW  CC
0568E:  BNZ   569C
....................          Menu=240; 
05690:  MOVLW  F0
05692:  MOVWF  x73
....................          if(MenuAntt!=240) 
05694:  MOVF   x75,W
05696:  SUBLW  F0
05698:  BZ    569C
....................             reset_cpu(); 
0569A:  RESET
....................       } 
....................    } 
.................... } 
0569C:  MOVLB  0
0569E:  GOTO   8202 (RETURN)
....................  
.................... void ConfiguraCiclo(int8 segest,minest,segsec,minsec,liquidos,ciclo,temperatura,pulsos,nvacio,fug){ 
....................    sEstp=segest; 
*
05F98:  MOVFF  6D7,125
....................    mEstp=minest; 
05F9C:  MOVFF  6D8,126
....................    sSecp=segsec; 
05FA0:  MOVFF  6D9,127
....................    mSecp=minsec; 
05FA4:  MOVFF  6DA,128
....................    Setpoint=temperatura;                
05FA8:  MOVFF  6DD,283
....................    tiempo_secado=0; 
05FAC:  MOVLB  2
05FAE:  CLRF   x87
....................    desfoguelento=liquidos; 
05FB0:  MOVLB  1
05FB2:  BCF    x0A.3
05FB4:  MOVLB  6
05FB6:  BTFSS  xDB.0
05FB8:  BRA    5FC0
05FBA:  MOVLB  1
05FBC:  BSF    x0A.3
05FBE:  MOVLB  6
....................    CicloSeleccionado=ciclo; 
05FC0:  MOVFF  6DC,279
....................    sEst=sEstp; 
05FC4:  MOVFF  125,121
....................    mEst=mEstp; 
05FC8:  MOVFF  126,122
....................    sSec=sSecp; 
05FCC:  MOVFF  127,123
....................    mSec=mSecp; 
05FD0:  MOVFF  128,124
....................    CantidadPulsos=pulsos; 
05FD4:  MOVLB  2
05FD6:  CLRF   x7C
05FD8:  MOVFF  6DE,27B
....................    NivelVacio=nvacio; 
05FDC:  MOVFF  6DF,2C1
....................    Fugas=fug; 
05FE0:  MOVLB  1
05FE2:  BCF    x07.6
05FE4:  MOVLB  6
05FE6:  BTFSS  xE0.0
05FE8:  BRA    5FF0
05FEA:  MOVLB  1
05FEC:  BSF    x07.6
05FEE:  MOVLB  6
....................    //TiempoVacio=CantidadPulsos*180; 
....................    Imprime=15; 
05FF0:  MOVLW  0F
05FF2:  MOVLB  2
05FF4:  MOVWF  xCC
....................    Envio_Esclavos(); 
05FF6:  MOVLB  0
05FF8:  RCALL  59DA
....................    delay_ms(10); 
05FFA:  MOVLW  0A
05FFC:  MOVLB  6
05FFE:  MOVWF  xE1
06000:  MOVLB  0
06002:  CALL   21DE
....................    Imprime=10; 
06006:  MOVLW  0A
06008:  MOVLB  2
0600A:  MOVWF  xCC
.................... } 
0600C:  MOVLB  0
0600E:  RETLW  00
....................  
.................... void ActivaAlarma(int8 Tipo){ 
....................     
....................    if(tsilencio>12000){ 
*
05D52:  MOVLB  2
05D54:  MOVF   xB5,W
05D56:  SUBLW  2D
05D58:  BC    5D6C
05D5A:  XORLW  FF
05D5C:  BNZ   5D64
05D5E:  MOVF   xB4,W
05D60:  SUBLW  E0
05D62:  BC    5D6C
....................       tsilencio=0; 
05D64:  CLRF   xB5
05D66:  CLRF   xB4
....................       flagSilencio=OFF; 
05D68:  MOVLB  1
05D6A:  BCF    x06.7
....................    } 
....................     
....................    if(Tipo==1){ // Alarma por Error 
05D6C:  MOVLB  6
05D6E:  DECFSZ xCF,W
05D70:  BRA    5DA6
....................        
....................       if(!flagSilencio){ 
05D72:  MOVLB  1
05D74:  BTFSC  x06.7
05D76:  BRA    5D9E
....................          flagAlarma=1; 
05D78:  BSF    x06.5
....................          if(tbuzzer>200){ 
05D7A:  MOVLB  2
05D7C:  MOVF   xB3,F
05D7E:  BNZ   5D86
05D80:  MOVF   xB2,W
05D82:  SUBLW  C8
05D84:  BC    5D9A
....................             tbuzzer=0; 
05D86:  CLRF   xB3
05D88:  CLRF   xB2
....................             flagBuzzer=!flagBuzzer; 
05D8A:  MOVLB  1
05D8C:  BTG    x06.6
....................             if(flagBuzzer) 
05D8E:  BTFSS  x06.6
05D90:  BRA    5D96
....................                EstadoBuzzer=ON; 
05D92:  BSF    x06.4
....................             else 
05D94:  BRA    5D98
....................                EstadoBuzzer=OFF; 
05D96:  BCF    x06.4
05D98:  MOVLB  2
....................          } 
....................       }else{ 
05D9A:  BRA    5DA2
05D9C:  MOVLB  1
....................          EstadoBuzzer=OFF; 
05D9E:  BCF    x06.4
05DA0:  MOVLB  2
....................       } 
....................    }else if(Tipo==2){  
05DA2:  BRA    5DE0
05DA4:  MOVLB  6
05DA6:  MOVF   xCF,W
05DA8:  SUBLW  02
05DAA:  BNZ   5DE2
....................       flagAlarma=1; 
05DAC:  MOVLB  1
05DAE:  BSF    x06.5
....................       if(ConteoBuzzer<20){    
05DB0:  MOVLB  2
05DB2:  MOVF   xAD,W
05DB4:  SUBLW  13
05DB6:  BNC   5DDA
....................          if(tbuzzer>100){ 
05DB8:  MOVF   xB3,F
05DBA:  BNZ   5DC2
05DBC:  MOVF   xB2,W
05DBE:  SUBLW  64
05DC0:  BC    5DD8
....................             tbuzzer=0; 
05DC2:  CLRF   xB3
05DC4:  CLRF   xB2
....................             flagBuzzer=!flagBuzzer; 
05DC6:  MOVLB  1
05DC8:  BTG    x06.6
....................             if(flagBuzzer) 
05DCA:  BTFSS  x06.6
05DCC:  BRA    5DD2
....................                EstadoBuzzer=ON; 
05DCE:  BSF    x06.4
....................             else 
05DD0:  BRA    5DD4
....................                EstadoBuzzer=OFF; 
05DD2:  BCF    x06.4
....................                 
....................             ConteoBuzzer++;    
05DD4:  MOVLB  2
05DD6:  INCF   xAD,F
....................          } 
....................       }else{ 
05DD8:  BRA    5DE0
....................          EstadoBuzzer=OFF; 
05DDA:  MOVLB  1
05DDC:  BCF    x06.4
05DDE:  MOVLB  2
05DE0:  MOVLB  6
....................       } 
....................    } 
.................... } 
05DE2:  MOVLB  0
05DE4:  RETLW  00
....................  
.................... void ControlaPresion(){ 
....................    if(Setpoint>125){ 
*
0778E:  MOVLB  2
07790:  MOVF   x83,W
07792:  SUBLW  7D
07794:  BC    77EC
....................       if(PresionPrecamara>=(300-Atmosferica)){ 
07796:  MOVLW  2C
07798:  BSF    FD8.0
0779A:  SUBFWB xC2,W
0779C:  MOVWF  00
0779E:  MOVLW  01
077A0:  BTFSS  FD8.0
077A2:  DECF   FE8,F
077A4:  MOVWF  03
077A6:  MOVFF  00,01
077AA:  MOVF   03,W
077AC:  SUBWF  x97,W
077AE:  BNC   77C2
077B0:  BNZ   77B8
077B2:  MOVF   01,W
077B4:  SUBWF  x96,W
077B6:  BNC   77C2
....................          suministroVapor=OFF; 
077B8:  MOVLB  0
077BA:  BCF    xF8.1
....................          Precalentamiento=ON; 
077BC:  MOVLB  1
077BE:  BSF    x07.7
077C0:  MOVLB  2
....................       } 
....................       if(PresionPrecamara<(290-Atmosferica)) 
077C2:  MOVLW  22
077C4:  BSF    FD8.0
077C6:  SUBFWB xC2,W
077C8:  MOVWF  00
077CA:  MOVLW  01
077CC:  BTFSS  FD8.0
077CE:  DECF   FE8,F
077D0:  MOVWF  03
077D2:  MOVFF  00,01
077D6:  MOVF   x97,W
077D8:  SUBWF  03,W
077DA:  BNC   77EA
077DC:  BNZ   77E4
077DE:  MOVF   01,W
077E0:  SUBWF  x96,W
077E2:  BC    77EA
....................          suministroVapor=ON; 
077E4:  MOVLB  0
077E6:  BSF    xF8.1
077E8:  MOVLB  2
....................    }else{ 
077EA:  BRA    7818
....................       if(PresionPrecamara>=(230-Atmosferica)){ 
077EC:  MOVLW  E6
077EE:  BSF    FD8.0
077F0:  SUBFWB xC2,W
077F2:  MOVF   x97,F
077F4:  BNZ   77FA
077F6:  SUBWF  x96,W
077F8:  BNC   7804
....................          suministroVapor=OFF; 
077FA:  MOVLB  0
077FC:  BCF    xF8.1
....................          Precalentamiento=ON; 
077FE:  MOVLB  1
07800:  BSF    x07.7
07802:  MOVLB  2
....................       } 
....................       if(PresionPrecamara<(220-Atmosferica)) 
07804:  MOVLW  DC
07806:  BSF    FD8.0
07808:  SUBFWB xC2,W
0780A:  MOVF   x97,F
0780C:  BNZ   7818
0780E:  SUBWF  x96,W
07810:  BC    7818
....................          suministroVapor=ON; 
07812:  MOVLB  0
07814:  BSF    xF8.1
07816:  MOVLB  2
....................    } 
.................... } 
07818:  MOVLB  0
0781A:  RETLW  00
....................  
.................... void GuardaDatoEstatico(){ 
*
06F0C:  MOVLB  6
06F0E:  CLRF   xD0
06F10:  CLRF   xCF
06F12:  CLRF   xD2
06F14:  CLRF   xD1
....................    int16 posCiclo=0,cicloMemoria=0; 
....................    posCiclo=Ciclos/200; 
06F16:  MOVFF  299,6D4
06F1A:  MOVFF  298,6D3
06F1E:  CLRF   xD6
06F20:  MOVLW  C8
06F22:  MOVWF  xD5
06F24:  MOVLB  0
06F26:  CALL   6322
06F2A:  MOVFF  02,6D0
06F2E:  MOVFF  01,6CF
....................    cicloMemoria=Ciclos-(posCiclo*200); 
06F32:  MOVFF  6D0,6DA
06F36:  MOVFF  6CF,6D9
06F3A:  MOVLB  6
06F3C:  CLRF   xDC
06F3E:  MOVLW  C8
06F40:  MOVWF  xDB
06F42:  MOVLB  0
06F44:  CALL   2650
06F48:  MOVF   01,W
06F4A:  MOVLB  2
06F4C:  SUBWF  x98,W
06F4E:  MOVLB  6
06F50:  MOVWF  xD1
06F52:  MOVF   02,W
06F54:  MOVLB  2
06F56:  SUBWFB x99,W
06F58:  MOVLB  6
06F5A:  MOVWF  xD2
....................    if(!disp_Guarda){ 
06F5C:  MOVLB  1
06F5E:  BTFSC  x05.2
06F60:  BRA    70FA
....................       write_ext_eeprom(cicloMemoria*320,codigoUsuario); 
06F62:  MOVFF  6D2,6DA
06F66:  MOVFF  6D1,6D9
06F6A:  MOVLW  01
06F6C:  MOVLB  6
06F6E:  MOVWF  xDC
06F70:  MOVLW  40
06F72:  MOVWF  xDB
06F74:  MOVLB  0
06F76:  CALL   2650
06F7A:  MOVFF  02,6D4
06F7E:  MOVFF  01,6D3
06F82:  MOVFF  02,6D7
06F86:  MOVFF  01,6D6
06F8A:  MOVFF  2CF,6D8
06F8E:  RCALL  6E00
....................       delay_ms(10); 
06F90:  MOVLW  0A
06F92:  MOVLB  6
06F94:  MOVWF  xE1
06F96:  MOVLB  0
06F98:  CALL   21DE
....................       if(!Libre) 
06F9C:  MOVLB  1
06F9E:  BTFSC  x07.4
06FA0:  BRA    6FDC
....................          write_ext_eeprom(1+(cicloMemoria*320),CicloSeleccionado); 
06FA2:  MOVFF  6D2,6DA
06FA6:  MOVFF  6D1,6D9
06FAA:  MOVLW  01
06FAC:  MOVLB  6
06FAE:  MOVWF  xDC
06FB0:  MOVLW  40
06FB2:  MOVWF  xDB
06FB4:  MOVLB  0
06FB6:  CALL   2650
06FBA:  MOVFF  02,03
06FBE:  MOVF   01,W
06FC0:  ADDLW  01
06FC2:  MOVLB  6
06FC4:  MOVWF  xD3
06FC6:  MOVLW  00
06FC8:  ADDWFC 02,W
06FCA:  MOVWF  xD4
06FCC:  MOVWF  xD7
06FCE:  MOVFF  6D3,6D6
06FD2:  MOVFF  279,6D8
06FD6:  MOVLB  0
06FD8:  RCALL  6E00
....................       else 
06FDA:  BRA    701E
....................          write_ext_eeprom(1+(cicloMemoria*320),CicloLibre+10); 
06FDC:  MOVFF  6D2,6DA
06FE0:  MOVFF  6D1,6D9
06FE4:  MOVLW  01
06FE6:  MOVLB  6
06FE8:  MOVWF  xDC
06FEA:  MOVLW  40
06FEC:  MOVWF  xDB
06FEE:  MOVLB  0
06FF0:  CALL   2650
06FF4:  MOVFF  02,03
06FF8:  MOVF   01,W
06FFA:  ADDLW  01
06FFC:  MOVLB  6
06FFE:  MOVWF  xD3
07000:  MOVLW  00
07002:  ADDWFC 02,W
07004:  MOVWF  xD4
07006:  MOVLW  0A
07008:  MOVLB  2
0700A:  ADDWF  x51,W
0700C:  MOVLB  6
0700E:  MOVWF  xD5
07010:  MOVFF  6D4,6D7
07014:  MOVFF  6D3,6D6
07018:  MOVWF  xD8
0701A:  MOVLB  0
0701C:  RCALL  6E00
....................       delay_ms(10); 
0701E:  MOVLW  0A
07020:  MOVLB  6
07022:  MOVWF  xE1
07024:  MOVLB  0
07026:  CALL   21DE
....................       write_ext_eeprom(2+(cicloMemoria*320),Dia); 
0702A:  MOVFF  6D2,6DA
0702E:  MOVFF  6D1,6D9
07032:  MOVLW  01
07034:  MOVLB  6
07036:  MOVWF  xDC
07038:  MOVLW  40
0703A:  MOVWF  xDB
0703C:  MOVLB  0
0703E:  CALL   2650
07042:  MOVFF  02,03
07046:  MOVF   01,W
07048:  ADDLW  02
0704A:  MOVLB  6
0704C:  MOVWF  xD3
0704E:  MOVLW  00
07050:  ADDWFC 02,W
07052:  MOVWF  xD4
07054:  MOVWF  xD7
07056:  MOVFF  6D3,6D6
0705A:  MOVFF  2BA,6D8
0705E:  MOVLB  0
07060:  RCALL  6E00
....................       delay_ms(10); 
07062:  MOVLW  0A
07064:  MOVLB  6
07066:  MOVWF  xE1
07068:  MOVLB  0
0706A:  CALL   21DE
....................       write_ext_eeprom(3+(cicloMemoria*320),Mes); 
0706E:  MOVFF  6D2,6DA
07072:  MOVFF  6D1,6D9
07076:  MOVLW  01
07078:  MOVLB  6
0707A:  MOVWF  xDC
0707C:  MOVLW  40
0707E:  MOVWF  xDB
07080:  MOVLB  0
07082:  CALL   2650
07086:  MOVFF  02,03
0708A:  MOVF   01,W
0708C:  ADDLW  03
0708E:  MOVLB  6
07090:  MOVWF  xD3
07092:  MOVLW  00
07094:  ADDWFC 02,W
07096:  MOVWF  xD4
07098:  MOVWF  xD7
0709A:  MOVFF  6D3,6D6
0709E:  MOVFF  2B9,6D8
070A2:  MOVLB  0
070A4:  RCALL  6E00
....................       delay_ms(10); 
070A6:  MOVLW  0A
070A8:  MOVLB  6
070AA:  MOVWF  xE1
070AC:  MOVLB  0
070AE:  CALL   21DE
....................       write_ext_eeprom(4+(cicloMemoria*320),Year); 
070B2:  MOVFF  6D2,6DA
070B6:  MOVFF  6D1,6D9
070BA:  MOVLW  01
070BC:  MOVLB  6
070BE:  MOVWF  xDC
070C0:  MOVLW  40
070C2:  MOVWF  xDB
070C4:  MOVLB  0
070C6:  CALL   2650
070CA:  MOVFF  02,03
070CE:  MOVF   01,W
070D0:  ADDLW  04
070D2:  MOVLB  6
070D4:  MOVWF  xD3
070D6:  MOVLW  00
070D8:  ADDWFC 02,W
070DA:  MOVWF  xD4
070DC:  MOVWF  xD7
070DE:  MOVFF  6D3,6D6
070E2:  MOVFF  2B8,6D8
070E6:  MOVLB  0
070E8:  RCALL  6E00
....................       delay_ms(10);  
070EA:  MOVLW  0A
070EC:  MOVLB  6
070EE:  MOVWF  xE1
070F0:  MOVLB  0
070F2:  CALL   21DE
....................       disp_Guarda=1; 
070F6:  MOVLB  1
070F8:  BSF    x05.2
....................    }    
.................... } 
070FA:  MOVLB  0
070FC:  GOTO   CD06 (RETURN)
....................  
.................... void GuardaDatoCiclo(){ 
*
0734E:  MOVLB  6
07350:  CLRF   xD0
07352:  CLRF   xCF
07354:  CLRF   xD2
07356:  CLRF   xD1
....................    int16 posCiclo=0,cicloMemoria=0; 
....................    posCiclo=Ciclos/200; 
07358:  MOVFF  299,6D4
0735C:  MOVFF  298,6D3
07360:  CLRF   xD6
07362:  MOVLW  C8
07364:  MOVWF  xD5
07366:  MOVLB  0
07368:  CALL   6322
0736C:  MOVFF  02,6D0
07370:  MOVFF  01,6CF
....................    if(!Ciclo){ 
07374:  MOVLB  1
07376:  BTFSC  x05.3
07378:  BRA    76F8
....................       cicloMemoria=Ciclos-(posCiclo*200); 
0737A:  MOVFF  6D0,6DA
0737E:  MOVFF  6CF,6D9
07382:  MOVLB  6
07384:  CLRF   xDC
07386:  MOVLW  C8
07388:  MOVWF  xDB
0738A:  MOVLB  0
0738C:  CALL   2650
07390:  MOVF   01,W
07392:  MOVLB  2
07394:  SUBWF  x98,W
07396:  MOVLB  6
07398:  MOVWF  xD1
0739A:  MOVF   02,W
0739C:  MOVLB  2
0739E:  SUBWFB x99,W
073A0:  MOVLB  6
073A2:  MOVWF  xD2
....................       write_ext_eeprom(5+(cicloMemoria*320)+(posicionDato*9),(int8)Temperatura); 
073A4:  MOVFF  6D2,6DA
073A8:  MOVFF  6D1,6D9
073AC:  MOVLW  01
073AE:  MOVWF  xDC
073B0:  MOVLW  40
073B2:  MOVWF  xDB
073B4:  MOVLB  0
073B6:  CALL   2650
073BA:  MOVFF  02,03
073BE:  MOVF   01,W
073C0:  ADDLW  05
073C2:  MOVLB  6
073C4:  MOVWF  xD3
073C6:  MOVLW  00
073C8:  ADDWFC 02,W
073CA:  MOVWF  xD4
073CC:  MOVLB  2
073CE:  MOVF   xAE,W
073D0:  MULLW  09
073D2:  MOVF   FF3,W
073D4:  MOVLB  6
073D6:  ADDWF  xD3,F
073D8:  MOVLW  00
073DA:  ADDWFC xD4,F
073DC:  MOVFF  23E,6E4
073E0:  MOVFF  23D,6E3
073E4:  MOVFF  23C,6E2
073E8:  MOVFF  23B,6E1
073EC:  MOVLB  0
073EE:  CALL   5098
073F2:  MOVFF  01,6D5
073F6:  MOVFF  6D4,6D7
073FA:  MOVFF  6D3,6D6
073FE:  MOVFF  01,6D8
07402:  RCALL  6E00
....................       delay_ms(10); 
07404:  MOVLW  0A
07406:  MOVLB  6
07408:  MOVWF  xE1
0740A:  MOVLB  0
0740C:  CALL   21DE
....................       write_ext_eeprom(6+(cicloMemoria*320)+(posicionDato*9),extraeDecimal(Temperatura)); 
07410:  MOVFF  6D2,6DA
07414:  MOVFF  6D1,6D9
07418:  MOVLW  01
0741A:  MOVLB  6
0741C:  MOVWF  xDC
0741E:  MOVLW  40
07420:  MOVWF  xDB
07422:  MOVLB  0
07424:  CALL   2650
07428:  MOVFF  02,03
0742C:  MOVF   01,W
0742E:  ADDLW  06
07430:  MOVLB  6
07432:  MOVWF  xD3
07434:  MOVLW  00
07436:  ADDWFC 02,W
07438:  MOVWF  xD4
0743A:  MOVLB  2
0743C:  MOVF   xAE,W
0743E:  MULLW  09
07440:  MOVF   FF3,W
07442:  MOVLB  6
07444:  ADDWF  xD3,F
07446:  MOVLW  00
07448:  ADDWFC xD4,F
0744A:  MOVFF  23E,6D8
0744E:  MOVFF  23D,6D7
07452:  MOVFF  23C,6D6
07456:  MOVFF  23B,6D5
0745A:  MOVLB  0
0745C:  BRA    7284
0745E:  MOVFF  01,6D5
07462:  MOVFF  6D4,6D7
07466:  MOVFF  6D3,6D6
0746A:  MOVFF  01,6D8
0746E:  RCALL  6E00
....................       delay_ms(10); 
07470:  MOVLW  0A
07472:  MOVLB  6
07474:  MOVWF  xE1
07476:  MOVLB  0
07478:  CALL   21DE
....................       write_ext_eeprom(7+(cicloMemoria*320)+(posicionDato*9),make8(PresionCamara,1)); 
0747C:  MOVFF  6D2,6DA
07480:  MOVFF  6D1,6D9
07484:  MOVLW  01
07486:  MOVLB  6
07488:  MOVWF  xDC
0748A:  MOVLW  40
0748C:  MOVWF  xDB
0748E:  MOVLB  0
07490:  CALL   2650
07494:  MOVFF  02,03
07498:  MOVF   01,W
0749A:  ADDLW  07
0749C:  MOVLB  6
0749E:  MOVWF  xD3
074A0:  MOVLW  00
074A2:  ADDWFC 02,W
074A4:  MOVWF  xD4
074A6:  MOVLB  2
074A8:  MOVF   xAE,W
074AA:  MULLW  09
074AC:  MOVF   FF3,W
074AE:  MOVLB  6
074B0:  ADDWF  xD3,F
074B2:  MOVLW  00
074B4:  ADDWFC xD4,F
074B6:  MOVFF  295,6D5
074BA:  MOVFF  6D4,6D7
074BE:  MOVFF  6D3,6D6
074C2:  MOVFF  295,6D8
074C6:  MOVLB  0
074C8:  RCALL  6E00
....................       delay_ms(10); 
074CA:  MOVLW  0A
074CC:  MOVLB  6
074CE:  MOVWF  xE1
074D0:  MOVLB  0
074D2:  CALL   21DE
....................       write_ext_eeprom(8+(cicloMemoria*320)+(posicionDato*9),make8(PresionCamara,0)); 
074D6:  MOVFF  6D2,6DA
074DA:  MOVFF  6D1,6D9
074DE:  MOVLW  01
074E0:  MOVLB  6
074E2:  MOVWF  xDC
074E4:  MOVLW  40
074E6:  MOVWF  xDB
074E8:  MOVLB  0
074EA:  CALL   2650
074EE:  MOVFF  02,03
074F2:  MOVF   01,W
074F4:  ADDLW  08
074F6:  MOVLB  6
074F8:  MOVWF  xD3
074FA:  MOVLW  00
074FC:  ADDWFC 02,W
074FE:  MOVWF  xD4
07500:  MOVLB  2
07502:  MOVF   xAE,W
07504:  MULLW  09
07506:  MOVF   FF3,W
07508:  MOVLB  6
0750A:  ADDWF  xD3,F
0750C:  MOVLW  00
0750E:  ADDWFC xD4,F
07510:  MOVFF  294,6D5
07514:  MOVFF  6D4,6D7
07518:  MOVFF  6D3,6D6
0751C:  MOVFF  294,6D8
07520:  MOVLB  0
07522:  RCALL  6E00
....................       delay_ms(10); 
07524:  MOVLW  0A
07526:  MOVLB  6
07528:  MOVWF  xE1
0752A:  MOVLB  0
0752C:  CALL   21DE
....................       write_ext_eeprom(9+(cicloMemoria*320)+(posicionDato*9),make8(PresionPreCamara,1)); 
07530:  MOVFF  6D2,6DA
07534:  MOVFF  6D1,6D9
07538:  MOVLW  01
0753A:  MOVLB  6
0753C:  MOVWF  xDC
0753E:  MOVLW  40
07540:  MOVWF  xDB
07542:  MOVLB  0
07544:  CALL   2650
07548:  MOVFF  02,03
0754C:  MOVF   01,W
0754E:  ADDLW  09
07550:  MOVLB  6
07552:  MOVWF  xD3
07554:  MOVLW  00
07556:  ADDWFC 02,W
07558:  MOVWF  xD4
0755A:  MOVLB  2
0755C:  MOVF   xAE,W
0755E:  MULLW  09
07560:  MOVF   FF3,W
07562:  MOVLB  6
07564:  ADDWF  xD3,F
07566:  MOVLW  00
07568:  ADDWFC xD4,F
0756A:  MOVFF  297,6D5
0756E:  MOVFF  6D4,6D7
07572:  MOVFF  6D3,6D6
07576:  MOVFF  297,6D8
0757A:  MOVLB  0
0757C:  RCALL  6E00
....................       delay_ms(10); 
0757E:  MOVLW  0A
07580:  MOVLB  6
07582:  MOVWF  xE1
07584:  MOVLB  0
07586:  CALL   21DE
....................       write_ext_eeprom(10+(cicloMemoria*320)+(posicionDato*9),make8(PresionPreCamara,0)); 
0758A:  MOVFF  6D2,6DA
0758E:  MOVFF  6D1,6D9
07592:  MOVLW  01
07594:  MOVLB  6
07596:  MOVWF  xDC
07598:  MOVLW  40
0759A:  MOVWF  xDB
0759C:  MOVLB  0
0759E:  CALL   2650
075A2:  MOVFF  02,03
075A6:  MOVF   01,W
075A8:  ADDLW  0A
075AA:  MOVLB  6
075AC:  MOVWF  xD3
075AE:  MOVLW  00
075B0:  ADDWFC 02,W
075B2:  MOVWF  xD4
075B4:  MOVLB  2
075B6:  MOVF   xAE,W
075B8:  MULLW  09
075BA:  MOVF   FF3,W
075BC:  MOVLB  6
075BE:  ADDWF  xD3,F
075C0:  MOVLW  00
075C2:  ADDWFC xD4,F
075C4:  MOVFF  296,6D5
075C8:  MOVFF  6D4,6D7
075CC:  MOVFF  6D3,6D6
075D0:  MOVFF  296,6D8
075D4:  MOVLB  0
075D6:  RCALL  6E00
....................       delay_ms(10); 
075D8:  MOVLW  0A
075DA:  MOVLB  6
075DC:  MOVWF  xE1
075DE:  MOVLB  0
075E0:  CALL   21DE
....................       write_ext_eeprom(11+(cicloMemoria*320)+(posicionDato*9),Hora); 
075E4:  MOVFF  6D2,6DA
075E8:  MOVFF  6D1,6D9
075EC:  MOVLW  01
075EE:  MOVLB  6
075F0:  MOVWF  xDC
075F2:  MOVLW  40
075F4:  MOVWF  xDB
075F6:  MOVLB  0
075F8:  CALL   2650
075FC:  MOVFF  02,03
07600:  MOVF   01,W
07602:  ADDLW  0B
07604:  MOVLB  6
07606:  MOVWF  xD3
07608:  MOVLW  00
0760A:  ADDWFC 02,W
0760C:  MOVWF  xD4
0760E:  MOVLB  2
07610:  MOVF   xAE,W
07612:  MULLW  09
07614:  MOVF   FF3,W
07616:  MOVLB  6
07618:  ADDWF  xD3,F
0761A:  MOVLW  00
0761C:  ADDWFC xD4,F
0761E:  MOVFF  6D4,6D7
07622:  MOVFF  6D3,6D6
07626:  MOVFF  2BB,6D8
0762A:  MOVLB  0
0762C:  CALL   6E00
....................       delay_ms(10); 
07630:  MOVLW  0A
07632:  MOVLB  6
07634:  MOVWF  xE1
07636:  MOVLB  0
07638:  CALL   21DE
....................       write_ext_eeprom(12+(cicloMemoria*320)+(posicionDato*9),Minuto); 
0763C:  MOVFF  6D2,6DA
07640:  MOVFF  6D1,6D9
07644:  MOVLW  01
07646:  MOVLB  6
07648:  MOVWF  xDC
0764A:  MOVLW  40
0764C:  MOVWF  xDB
0764E:  MOVLB  0
07650:  CALL   2650
07654:  MOVFF  02,03
07658:  MOVF   01,W
0765A:  ADDLW  0C
0765C:  MOVLB  6
0765E:  MOVWF  xD3
07660:  MOVLW  00
07662:  ADDWFC 02,W
07664:  MOVWF  xD4
07666:  MOVLB  2
07668:  MOVF   xAE,W
0766A:  MULLW  09
0766C:  MOVF   FF3,W
0766E:  MOVLB  6
07670:  ADDWF  xD3,F
07672:  MOVLW  00
07674:  ADDWFC xD4,F
07676:  MOVFF  6D4,6D7
0767A:  MOVFF  6D3,6D6
0767E:  MOVFF  2BC,6D8
07682:  MOVLB  0
07684:  CALL   6E00
....................       delay_ms(10); 
07688:  MOVLW  0A
0768A:  MOVLB  6
0768C:  MOVWF  xE1
0768E:  MOVLB  0
07690:  CALL   21DE
....................       write_ext_eeprom(13+(cicloMemoria*320)+(posicionDato*9),codigoAlarma); 
07694:  MOVFF  6D2,6DA
07698:  MOVFF  6D1,6D9
0769C:  MOVLW  01
0769E:  MOVLB  6
076A0:  MOVWF  xDC
076A2:  MOVLW  40
076A4:  MOVWF  xDB
076A6:  MOVLB  0
076A8:  CALL   2650
076AC:  MOVFF  02,03
076B0:  MOVF   01,W
076B2:  ADDLW  0D
076B4:  MOVLB  6
076B6:  MOVWF  xD3
076B8:  MOVLW  00
076BA:  ADDWFC 02,W
076BC:  MOVWF  xD4
076BE:  MOVLB  2
076C0:  MOVF   xAE,W
076C2:  MULLW  09
076C4:  MOVF   FF3,W
076C6:  MOVLB  6
076C8:  ADDWF  xD3,F
076CA:  MOVLW  00
076CC:  ADDWFC xD4,F
076CE:  MOVFF  6D4,6D7
076D2:  MOVFF  6D3,6D6
076D6:  MOVFF  2AF,6D8
076DA:  MOVLB  0
076DC:  CALL   6E00
....................       delay_ms(10); 
076E0:  MOVLW  0A
076E2:  MOVLB  6
076E4:  MOVWF  xE1
076E6:  MOVLB  0
076E8:  CALL   21DE
....................     
....................       if(posicionDato<35) 
076EC:  MOVLB  2
076EE:  MOVF   xAE,W
076F0:  SUBLW  22
076F2:  BNC   76F6
....................          ++posicionDato; 
076F4:  INCF   xAE,F
076F6:  MOVLB  1
....................    } 
.................... } 
076F8:  MOVLB  0
076FA:  RETLW  00
....................  
.................... void incrementaCiclos(){ 
....................    if(!Ciclo){ 
076FC:  MOVLB  1
076FE:  BTFSC  x05.3
07700:  BRA    778A
....................       Ciclo=ON; 
07702:  BSF    x05.3
....................       Ciclos++; 
07704:  MOVLB  2
07706:  INCF   x98,F
07708:  BTFSC  FD8.2
0770A:  INCF   x99,F
....................       CiclosL=make8(Ciclos,0); 
0770C:  MOVFF  298,277
....................       CiclosH=make8(Ciclos,1); 
07710:  MOVFF  299,278
....................       write_eeprom(37,CiclosL); 
07714:  CLRF   FAA
07716:  MOVLW  25
07718:  MOVWF  FA9
0771A:  MOVFF  277,FA8
0771E:  BCF    FA6.6
07720:  BCF    FA6.7
07722:  BSF    FA6.2
07724:  MOVF   FF2,W
07726:  MOVWF  00
07728:  BCF    FF2.6
0772A:  BCF    FF2.7
0772C:  MOVLB  F
0772E:  MOVLW  55
07730:  MOVWF  FA7
07732:  MOVLW  AA
07734:  MOVWF  FA7
07736:  BSF    FA6.1
07738:  BTFSC  FA6.1
0773A:  BRA    7738
0773C:  BCF    FA6.2
0773E:  MOVF   00,W
07740:  IORWF  FF2,F
....................       delay_ms(20); 
07742:  MOVLW  14
07744:  MOVLB  6
07746:  MOVWF  xE1
07748:  MOVLB  0
0774A:  CALL   21DE
....................       write_eeprom(38,CiclosH); 
0774E:  CLRF   FAA
07750:  MOVLW  26
07752:  MOVWF  FA9
07754:  MOVFF  278,FA8
07758:  BCF    FA6.6
0775A:  BCF    FA6.7
0775C:  BSF    FA6.2
0775E:  MOVF   FF2,W
07760:  MOVWF  00
07762:  BCF    FF2.6
07764:  BCF    FF2.7
07766:  MOVLB  F
07768:  MOVLW  55
0776A:  MOVWF  FA7
0776C:  MOVLW  AA
0776E:  MOVWF  FA7
07770:  BSF    FA6.1
07772:  BTFSC  FA6.1
07774:  BRA    7772
07776:  BCF    FA6.2
07778:  MOVF   00,W
0777A:  IORWF  FF2,F
....................       delay_ms(20); 
0777C:  MOVLW  14
0777E:  MOVLB  6
07780:  MOVWF  xE1
07782:  MOVLB  0
07784:  CALL   21DE
07788:  MOVLB  1
....................    } 
.................... } 
0778A:  MOVLB  0
0778C:  RETLW  00
....................  
.................... void exportarData(){ 
*
0653A:  MOVLB  6
0653C:  CLRF   xD0
0653E:  CLRF   xCF
06540:  CLRF   xD1
.................... int16 posicion=0; 
.................... int8 tmp=0; 
.................... posicion=40; 
06542:  CLRF   xD0
06544:  MOVLW  28
06546:  MOVWF  xCF
.................... direccion=0xB0; 
06548:  MOVLW  B0
0654A:  MOVLB  0
0654C:  MOVWF  xDE
.................... //Buzzer_on; 
.................... //Inicio de Transmision 
.................... i2c_start();            // Comienzo comunicacin 
0654E:  BSF    F94.4
06550:  MOVLW  05
06552:  MOVWF  00
06554:  DECFSZ 00,F
06556:  BRA    6554
06558:  BSF    F94.3
0655A:  MOVLW  06
0655C:  MOVWF  00
0655E:  DECFSZ 00,F
06560:  BRA    655E
06562:  BCF    F8B.4
06564:  BCF    F94.4
06566:  MOVLW  05
06568:  MOVWF  00
0656A:  DECFSZ 00,F
0656C:  BRA    656A
0656E:  BCF    F8B.3
06570:  BCF    F94.3
.................... i2c_write(direccion);   // Direccin del esclavo en el bus I2C 
06572:  MOVFF  DE,6E5
06576:  CALL   2672
.................... i2c_write(make8(posicion,0));    // Posicin donde se guardara el dato transmitido 
0657A:  MOVFF  6CF,6D2
0657E:  MOVFF  6CF,6E5
06582:  CALL   2672
.................... i2c_write(make8(posicion,1));    // Posicin donde se guardara el dato transmitido 
06586:  MOVFF  6D0,6D2
0658A:  MOVFF  6D0,6E5
0658E:  CALL   2672
.................... i2c_write(0xff);        // Dato a transmitir 
06592:  MOVLW  FF
06594:  MOVLB  6
06596:  MOVWF  xE5
06598:  MOVLB  0
0659A:  CALL   2672
.................... i2c_stop(); 
0659E:  BCF    F94.4
065A0:  NOP   
065A2:  BSF    F94.3
065A4:  BTFSS  F82.3
065A6:  BRA    65A4
065A8:  MOVLW  05
065AA:  MOVWF  00
065AC:  DECFSZ 00,F
065AE:  BRA    65AC
065B0:  BRA    65B2
065B2:  NOP   
065B4:  BSF    F94.4
065B6:  MOVLW  05
065B8:  MOVWF  00
065BA:  DECFSZ 00,F
065BC:  BRA    65BA
.................... ++posicion; 
065BE:  MOVLB  6
065C0:  INCF   xCF,F
065C2:  BTFSC  FD8.2
065C4:  INCF   xD0,F
.................... i2c_start();            // Comienzo comunicacin 
065C6:  BSF    F94.4
065C8:  MOVLW  05
065CA:  MOVWF  00
065CC:  DECFSZ 00,F
065CE:  BRA    65CC
065D0:  BSF    F94.3
065D2:  MOVLW  06
065D4:  MOVWF  00
065D6:  DECFSZ 00,F
065D8:  BRA    65D6
065DA:  BCF    F8B.4
065DC:  BCF    F94.4
065DE:  MOVLW  05
065E0:  MOVWF  00
065E2:  DECFSZ 00,F
065E4:  BRA    65E2
065E6:  BCF    F8B.3
065E8:  BCF    F94.3
.................... i2c_write(direccion);   // Direccin del esclavo en el bus I2C 
065EA:  MOVFF  DE,6E5
065EE:  MOVLB  0
065F0:  CALL   2672
.................... i2c_write(make8(posicion,0));    // Posicin donde se guardara el dato transmitido 
065F4:  MOVFF  6CF,6D2
065F8:  MOVFF  6CF,6E5
065FC:  CALL   2672
.................... i2c_write(make8(posicion,1));    // Posicin donde se guardara el dato transmitido 
06600:  MOVFF  6D0,6D2
06604:  MOVFF  6D0,6E5
06608:  CALL   2672
.................... i2c_write(0xff);        // Dato a transmitir 
0660C:  MOVLW  FF
0660E:  MOVLB  6
06610:  MOVWF  xE5
06612:  MOVLB  0
06614:  CALL   2672
.................... i2c_stop(); 
06618:  BCF    F94.4
0661A:  NOP   
0661C:  BSF    F94.3
0661E:  BTFSS  F82.3
06620:  BRA    661E
06622:  MOVLW  05
06624:  MOVWF  00
06626:  DECFSZ 00,F
06628:  BRA    6626
0662A:  BRA    662C
0662C:  NOP   
0662E:  BSF    F94.4
06630:  MOVLW  05
06632:  MOVWF  00
06634:  DECFSZ 00,F
06636:  BRA    6634
.................... ++posicion; 
06638:  MOVLB  6
0663A:  INCF   xCF,F
0663C:  BTFSC  FD8.2
0663E:  INCF   xD0,F
.................... //Se envian 2 veces ff para indicar que se inicia la transmision. 
....................  
....................    for(i=0;i<5;i++){ 
06640:  MOVLB  2
06642:  CLRF   x76
06644:  MOVF   x76,W
06646:  SUBLW  04
06648:  BNC   6700
....................       tmp=read_ext_eeprom((cicloVisto*320)+i); 
0664A:  MOVLB  6
0664C:  CLRF   xDA
0664E:  MOVFF  2C0,6D9
06652:  MOVLW  01
06654:  MOVWF  xDC
06656:  MOVLW  40
06658:  MOVWF  xDB
0665A:  MOVLB  0
0665C:  CALL   2650
06660:  MOVFF  02,6D3
06664:  MOVFF  01,6D2
06668:  MOVLB  2
0666A:  MOVF   x76,W
0666C:  MOVLB  6
0666E:  ADDWF  xD2,F
06670:  MOVLW  00
06672:  ADDWFC xD3,F
06674:  MOVFF  6D3,6D5
06678:  MOVFF  6D2,6D4
0667C:  MOVLB  0
0667E:  CALL   2752
06682:  MOVFF  01,6D1
....................       //if(tmp>250) 
....................       //   tmp=20; 
....................       i2c_start();            // Comienzo comunicacin 
06686:  BSF    F94.4
06688:  MOVLW  05
0668A:  MOVWF  00
0668C:  DECFSZ 00,F
0668E:  BRA    668C
06690:  BSF    F94.3
06692:  MOVLW  06
06694:  MOVWF  00
06696:  DECFSZ 00,F
06698:  BRA    6696
0669A:  BCF    F8B.4
0669C:  BCF    F94.4
0669E:  MOVLW  05
066A0:  MOVWF  00
066A2:  DECFSZ 00,F
066A4:  BRA    66A2
066A6:  BCF    F8B.3
066A8:  BCF    F94.3
....................       i2c_write(direccion);   // Direccin del esclavo en el bus I2C 
066AA:  MOVFF  DE,6E5
066AE:  CALL   2672
....................       i2c_write(make8(posicion,0));    // Posicin donde se guardara el dato transmitido 
066B2:  MOVFF  6CF,6D2
066B6:  MOVFF  6CF,6E5
066BA:  CALL   2672
....................       i2c_write(make8(posicion,1));    // Posicin donde se guardara el dato transmitido 
066BE:  MOVFF  6D0,6D2
066C2:  MOVFF  6D0,6E5
066C6:  CALL   2672
....................       i2c_write(tmp);        // Dato a transmitir 
066CA:  MOVFF  6D1,6E5
066CE:  CALL   2672
....................       i2c_stop();  
066D2:  BCF    F94.4
066D4:  NOP   
066D6:  BSF    F94.3
066D8:  BTFSS  F82.3
066DA:  BRA    66D8
066DC:  MOVLW  05
066DE:  MOVWF  00
066E0:  DECFSZ 00,F
066E2:  BRA    66E0
066E4:  BRA    66E6
066E6:  NOP   
066E8:  BSF    F94.4
066EA:  MOVLW  05
066EC:  MOVWF  00
066EE:  DECFSZ 00,F
066F0:  BRA    66EE
....................       ++posicion; 
066F2:  MOVLB  6
066F4:  INCF   xCF,F
066F6:  BTFSC  FD8.2
066F8:  INCF   xD0,F
....................    } 
066FA:  MOVLB  2
066FC:  INCF   x76,F
066FE:  BRA    6644
....................    for(i=0;i<35;i++){//Lee Valores para completar la Tabla 
06700:  CLRF   x76
06702:  MOVF   x76,W
06704:  SUBLW  22
06706:  BNC   67DC
....................       for(j=5;j<14;j++){//Lee Valores para completar la Tabla 
06708:  MOVLW  05
0670A:  MOVWF  xCE
0670C:  MOVF   xCE,W
0670E:  SUBLW  0D
06710:  BNC   67D8
....................          tmp=read_ext_eeprom((cicloVisto*320)+j+(i*9)); 
06712:  MOVLB  6
06714:  CLRF   xDA
06716:  MOVFF  2C0,6D9
0671A:  MOVLW  01
0671C:  MOVWF  xDC
0671E:  MOVLW  40
06720:  MOVWF  xDB
06722:  MOVLB  0
06724:  CALL   2650
06728:  MOVFF  02,6D3
0672C:  MOVFF  01,6D2
06730:  MOVLB  2
06732:  MOVF   xCE,W
06734:  MOVLB  6
06736:  ADDWF  xD2,F
06738:  MOVLW  00
0673A:  ADDWFC xD3,F
0673C:  MOVLB  2
0673E:  MOVF   x76,W
06740:  MULLW  09
06742:  MOVF   FF3,W
06744:  MOVLB  6
06746:  ADDWF  xD2,F
06748:  MOVLW  00
0674A:  ADDWFC xD3,F
0674C:  MOVFF  6D3,6D5
06750:  MOVFF  6D2,6D4
06754:  MOVLB  0
06756:  CALL   2752
0675A:  MOVFF  01,6D1
....................          //if(tmp>250) 
....................          //   tmp=20; 
....................          i2c_start();            // Comienzo comunicacin 
0675E:  BSF    F94.4
06760:  MOVLW  05
06762:  MOVWF  00
06764:  DECFSZ 00,F
06766:  BRA    6764
06768:  BSF    F94.3
0676A:  MOVLW  06
0676C:  MOVWF  00
0676E:  DECFSZ 00,F
06770:  BRA    676E
06772:  BCF    F8B.4
06774:  BCF    F94.4
06776:  MOVLW  05
06778:  MOVWF  00
0677A:  DECFSZ 00,F
0677C:  BRA    677A
0677E:  BCF    F8B.3
06780:  BCF    F94.3
....................          i2c_write(direccion);   // Direccin del esclavo en el bus I2C 
06782:  MOVFF  DE,6E5
06786:  CALL   2672
....................          i2c_write(make8(posicion,0));    // Posicin donde se guardara el dato transmitido 
0678A:  MOVFF  6CF,6D2
0678E:  MOVFF  6CF,6E5
06792:  CALL   2672
....................          i2c_write(make8(posicion,1));    // Posicin donde se guardara el dato transmitido 
06796:  MOVFF  6D0,6D2
0679A:  MOVFF  6D0,6E5
0679E:  CALL   2672
....................          i2c_write(tmp);        // Dato a transmitir 
067A2:  MOVFF  6D1,6E5
067A6:  CALL   2672
....................          i2c_stop();  
067AA:  BCF    F94.4
067AC:  NOP   
067AE:  BSF    F94.3
067B0:  BTFSS  F82.3
067B2:  BRA    67B0
067B4:  MOVLW  05
067B6:  MOVWF  00
067B8:  DECFSZ 00,F
067BA:  BRA    67B8
067BC:  BRA    67BE
067BE:  NOP   
067C0:  BSF    F94.4
067C2:  MOVLW  05
067C4:  MOVWF  00
067C6:  DECFSZ 00,F
067C8:  BRA    67C6
....................          ++posicion; 
067CA:  MOVLB  6
067CC:  INCF   xCF,F
067CE:  BTFSC  FD8.2
067D0:  INCF   xD0,F
....................       } 
067D2:  MOVLB  2
067D4:  INCF   xCE,F
067D6:  BRA    670C
....................    } 
067D8:  INCF   x76,F
067DA:  BRA    6702
....................  
.................... //Fin de Transmision 
.................... i2c_start();            // Comienzo comunicacin 
067DC:  BSF    F94.4
067DE:  MOVLW  05
067E0:  MOVWF  00
067E2:  DECFSZ 00,F
067E4:  BRA    67E2
067E6:  BSF    F94.3
067E8:  MOVLW  06
067EA:  MOVWF  00
067EC:  DECFSZ 00,F
067EE:  BRA    67EC
067F0:  BCF    F8B.4
067F2:  BCF    F94.4
067F4:  MOVLW  05
067F6:  MOVWF  00
067F8:  DECFSZ 00,F
067FA:  BRA    67F8
067FC:  BCF    F8B.3
067FE:  BCF    F94.3
.................... i2c_write(direccion);   // Direccin del esclavo en el bus I2C 
06800:  MOVFF  DE,6E5
06804:  MOVLB  0
06806:  CALL   2672
.................... i2c_write(make8(posicion,0));    // Posicin donde se guardara el dato transmitido 
0680A:  MOVFF  6CF,6D2
0680E:  MOVFF  6CF,6E5
06812:  CALL   2672
.................... i2c_write(make8(posicion,1));    // Posicin donde se guardara el dato transmitido 
06816:  MOVFF  6D0,6D2
0681A:  MOVFF  6D0,6E5
0681E:  CALL   2672
.................... i2c_write(0x1f);        // Dato a transmitir 
06822:  MOVLW  1F
06824:  MOVLB  6
06826:  MOVWF  xE5
06828:  MOVLB  0
0682A:  CALL   2672
.................... i2c_stop(); 
0682E:  BCF    F94.4
06830:  NOP   
06832:  BSF    F94.3
06834:  BTFSS  F82.3
06836:  BRA    6834
06838:  MOVLW  05
0683A:  MOVWF  00
0683C:  DECFSZ 00,F
0683E:  BRA    683C
06840:  BRA    6842
06842:  NOP   
06844:  BSF    F94.4
06846:  MOVLW  05
06848:  MOVWF  00
0684A:  DECFSZ 00,F
0684C:  BRA    684A
.................... ++posicion; 
0684E:  MOVLB  6
06850:  INCF   xCF,F
06852:  BTFSC  FD8.2
06854:  INCF   xD0,F
.................... i2c_start();            // Comienzo comunicacin 
06856:  BSF    F94.4
06858:  MOVLW  05
0685A:  MOVWF  00
0685C:  DECFSZ 00,F
0685E:  BRA    685C
06860:  BSF    F94.3
06862:  MOVLW  06
06864:  MOVWF  00
06866:  DECFSZ 00,F
06868:  BRA    6866
0686A:  BCF    F8B.4
0686C:  BCF    F94.4
0686E:  MOVLW  05
06870:  MOVWF  00
06872:  DECFSZ 00,F
06874:  BRA    6872
06876:  BCF    F8B.3
06878:  BCF    F94.3
.................... i2c_write(direccion);   // Direccin del esclavo en el bus I2C 
0687A:  MOVFF  DE,6E5
0687E:  MOVLB  0
06880:  CALL   2672
.................... i2c_write(make8(posicion,0));    // Posicin donde se guardara el dato transmitido 
06884:  MOVFF  6CF,6D2
06888:  MOVFF  6CF,6E5
0688C:  CALL   2672
.................... i2c_write(make8(posicion,1));    // Posicin donde se guardara el dato transmitido 
06890:  MOVFF  6D0,6D2
06894:  MOVFF  6D0,6E5
06898:  CALL   2672
.................... i2c_write(0x1f);        // Dato a transmitir 
0689C:  MOVLW  1F
0689E:  MOVLB  6
068A0:  MOVWF  xE5
068A2:  MOVLB  0
068A4:  CALL   2672
.................... i2c_stop(); 
068A8:  BCF    F94.4
068AA:  NOP   
068AC:  BSF    F94.3
068AE:  BTFSS  F82.3
068B0:  BRA    68AE
068B2:  MOVLW  05
068B4:  MOVWF  00
068B6:  DECFSZ 00,F
068B8:  BRA    68B6
068BA:  BRA    68BC
068BC:  NOP   
068BE:  BSF    F94.4
068C0:  MOVLW  05
068C2:  MOVWF  00
068C4:  DECFSZ 00,F
068C6:  BRA    68C4
.................... ++posicion; 
068C8:  MOVLB  6
068CA:  INCF   xCF,F
068CC:  BTFSC  FD8.2
068CE:  INCF   xD0,F
.................... //Se envian 2 veces 1f para indicar que se inicia la transmision. 
.................... delay_ms(200); 
068D0:  MOVLW  C8
068D2:  MOVWF  xE1
068D4:  MOVLB  0
068D6:  CALL   21DE
.................... //Buzzer_off; 
.................... } 
068DA:  GOTO   BCBA (RETURN)
....................  
.................... void codificaAlarma(){ 
....................    if(ACiclos[i]==0){ 
068DE:  CLRF   03
068E0:  MOVLB  2
068E2:  MOVF   x76,W
068E4:  ADDLW  2F
068E6:  MOVWF  FE9
068E8:  MOVLW  03
068EA:  ADDWFC 03,W
068EC:  MOVWF  FEA
068EE:  MOVF   FEF,F
068F0:  BNZ   6930
....................       printf("A%u.txt=\"----\"",i+1); 
068F2:  MOVLW  01
068F4:  ADDWF  x76,W
068F6:  MOVLB  6
068F8:  MOVWF  xCF
068FA:  MOVLW  41
068FC:  BTFSS  F9E.4
068FE:  BRA    68FC
06900:  MOVWF  FAD
06902:  MOVFF  6CF,6D4
06906:  MOVLW  1B
06908:  MOVWF  xD5
0690A:  MOVLB  0
0690C:  CALL   5F1A
06910:  MOVLW  07
06912:  MOVWF  FF6
06914:  MOVLW  04
06916:  MOVWF  FF7
06918:  MOVLW  00
0691A:  MOVWF  FF8
0691C:  MOVLW  0B
0691E:  MOVLB  6
06920:  MOVWF  xD4
06922:  MOVLB  0
06924:  CALL   5E96
....................       SendDataDisplay(); 
06928:  CALL   442E
....................    }else if(ACiclos[i]==1){ 
0692C:  BRA    6DF8
0692E:  MOVLB  2
06930:  CLRF   03
06932:  MOVF   x76,W
06934:  ADDLW  2F
06936:  MOVWF  FE9
06938:  MOVLW  03
0693A:  ADDWFC 03,W
0693C:  MOVWF  FEA
0693E:  DECFSZ FEF,W
06940:  BRA    6980
....................       printf("A%u.txt=\"Parada\"",i+1); 
06942:  MOVLW  01
06944:  ADDWF  x76,W
06946:  MOVLB  6
06948:  MOVWF  xCF
0694A:  MOVLW  41
0694C:  BTFSS  F9E.4
0694E:  BRA    694C
06950:  MOVWF  FAD
06952:  MOVFF  6CF,6D4
06956:  MOVLW  1B
06958:  MOVWF  xD5
0695A:  MOVLB  0
0695C:  CALL   5F1A
06960:  MOVLW  17
06962:  MOVWF  FF6
06964:  MOVLW  04
06966:  MOVWF  FF7
06968:  MOVLW  00
0696A:  MOVWF  FF8
0696C:  MOVLW  0D
0696E:  MOVLB  6
06970:  MOVWF  xD4
06972:  MOVLB  0
06974:  CALL   5E96
....................       SendDataDisplay(); 
06978:  CALL   442E
....................    }else if(ACiclos[i]==2){ 
0697C:  BRA    6DF8
0697E:  MOVLB  2
06980:  CLRF   03
06982:  MOVF   x76,W
06984:  ADDLW  2F
06986:  MOVWF  FE9
06988:  MOVLW  03
0698A:  ADDWFC 03,W
0698C:  MOVWF  FEA
0698E:  MOVF   FEF,W
06990:  SUBLW  02
06992:  BNZ   69D2
....................       printf("A%u.txt=\"Puerta\"",i+1); 
06994:  MOVLW  01
06996:  ADDWF  x76,W
06998:  MOVLB  6
0699A:  MOVWF  xCF
0699C:  MOVLW  41
0699E:  BTFSS  F9E.4
069A0:  BRA    699E
069A2:  MOVWF  FAD
069A4:  MOVFF  6CF,6D4
069A8:  MOVLW  1B
069AA:  MOVWF  xD5
069AC:  MOVLB  0
069AE:  CALL   5F1A
069B2:  MOVLW  29
069B4:  MOVWF  FF6
069B6:  MOVLW  04
069B8:  MOVWF  FF7
069BA:  MOVLW  00
069BC:  MOVWF  FF8
069BE:  MOVLW  0D
069C0:  MOVLB  6
069C2:  MOVWF  xD4
069C4:  MOVLB  0
069C6:  CALL   5E96
....................       SendDataDisplay(); 
069CA:  CALL   442E
....................    }else if(ACiclos[i]==3){ 
069CE:  BRA    6DF8
069D0:  MOVLB  2
069D2:  CLRF   03
069D4:  MOVF   x76,W
069D6:  ADDLW  2F
069D8:  MOVWF  FE9
069DA:  MOVLW  03
069DC:  ADDWFC 03,W
069DE:  MOVWF  FEA
069E0:  MOVF   FEF,W
069E2:  SUBLW  03
069E4:  BNZ   6A24
....................       printf("A%u.txt=\"Termostato\"",i+1); 
069E6:  MOVLW  01
069E8:  ADDWF  x76,W
069EA:  MOVLB  6
069EC:  MOVWF  xCF
069EE:  MOVLW  41
069F0:  BTFSS  F9E.4
069F2:  BRA    69F0
069F4:  MOVWF  FAD
069F6:  MOVFF  6CF,6D4
069FA:  MOVLW  1B
069FC:  MOVWF  xD5
069FE:  MOVLB  0
06A00:  CALL   5F1A
06A04:  MOVLW  3B
06A06:  MOVWF  FF6
06A08:  MOVLW  04
06A0A:  MOVWF  FF7
06A0C:  MOVLW  00
06A0E:  MOVWF  FF8
06A10:  MOVLW  11
06A12:  MOVLB  6
06A14:  MOVWF  xD4
06A16:  MOVLB  0
06A18:  CALL   5E96
....................       SendDataDisplay(); 
06A1C:  CALL   442E
....................    }else if(ACiclos[i]==4){ 
06A20:  BRA    6DF8
06A22:  MOVLB  2
06A24:  CLRF   03
06A26:  MOVF   x76,W
06A28:  ADDLW  2F
06A2A:  MOVWF  FE9
06A2C:  MOVLW  03
06A2E:  ADDWFC 03,W
06A30:  MOVWF  FEA
06A32:  MOVF   FEF,W
06A34:  SUBLW  04
06A36:  BNZ   6A76
....................       printf("A%u.txt=\"SobreT\"",i+1); 
06A38:  MOVLW  01
06A3A:  ADDWF  x76,W
06A3C:  MOVLB  6
06A3E:  MOVWF  xCF
06A40:  MOVLW  41
06A42:  BTFSS  F9E.4
06A44:  BRA    6A42
06A46:  MOVWF  FAD
06A48:  MOVFF  6CF,6D4
06A4C:  MOVLW  1B
06A4E:  MOVWF  xD5
06A50:  MOVLB  0
06A52:  CALL   5F1A
06A56:  MOVLW  51
06A58:  MOVWF  FF6
06A5A:  MOVLW  04
06A5C:  MOVWF  FF7
06A5E:  MOVLW  00
06A60:  MOVWF  FF8
06A62:  MOVLW  0D
06A64:  MOVLB  6
06A66:  MOVWF  xD4
06A68:  MOVLB  0
06A6A:  CALL   5E96
....................       SendDataDisplay(); 
06A6E:  CALL   442E
....................    }else if(ACiclos[i]==5){ 
06A72:  BRA    6DF8
06A74:  MOVLB  2
06A76:  CLRF   03
06A78:  MOVF   x76,W
06A7A:  ADDLW  2F
06A7C:  MOVWF  FE9
06A7E:  MOVLW  03
06A80:  ADDWFC 03,W
06A82:  MOVWF  FEA
06A84:  MOVF   FEF,W
06A86:  SUBLW  05
06A88:  BNZ   6AC8
....................       printf("A%u.txt=\"Tiempo\"",i+1); 
06A8A:  MOVLW  01
06A8C:  ADDWF  x76,W
06A8E:  MOVLB  6
06A90:  MOVWF  xCF
06A92:  MOVLW  41
06A94:  BTFSS  F9E.4
06A96:  BRA    6A94
06A98:  MOVWF  FAD
06A9A:  MOVFF  6CF,6D4
06A9E:  MOVLW  1B
06AA0:  MOVWF  xD5
06AA2:  MOVLB  0
06AA4:  CALL   5F1A
06AA8:  MOVLW  63
06AAA:  MOVWF  FF6
06AAC:  MOVLW  04
06AAE:  MOVWF  FF7
06AB0:  MOVLW  00
06AB2:  MOVWF  FF8
06AB4:  MOVLW  0D
06AB6:  MOVLB  6
06AB8:  MOVWF  xD4
06ABA:  MOVLB  0
06ABC:  CALL   5E96
....................       SendDataDisplay(); 
06AC0:  CALL   442E
....................    }else if(ACiclos[i]==6){ 
06AC4:  BRA    6DF8
06AC6:  MOVLB  2
06AC8:  CLRF   03
06ACA:  MOVF   x76,W
06ACC:  ADDLW  2F
06ACE:  MOVWF  FE9
06AD0:  MOVLW  03
06AD2:  ADDWFC 03,W
06AD4:  MOVWF  FEA
06AD6:  MOVF   FEF,W
06AD8:  SUBLW  06
06ADA:  BNZ   6B1A
....................       printf("A%u.txt=\"Presion\"",i+1); 
06ADC:  MOVLW  01
06ADE:  ADDWF  x76,W
06AE0:  MOVLB  6
06AE2:  MOVWF  xCF
06AE4:  MOVLW  41
06AE6:  BTFSS  F9E.4
06AE8:  BRA    6AE6
06AEA:  MOVWF  FAD
06AEC:  MOVFF  6CF,6D4
06AF0:  MOVLW  1B
06AF2:  MOVWF  xD5
06AF4:  MOVLB  0
06AF6:  CALL   5F1A
06AFA:  MOVLW  75
06AFC:  MOVWF  FF6
06AFE:  MOVLW  04
06B00:  MOVWF  FF7
06B02:  MOVLW  00
06B04:  MOVWF  FF8
06B06:  MOVLW  0E
06B08:  MOVLB  6
06B0A:  MOVWF  xD4
06B0C:  MOVLB  0
06B0E:  CALL   5E96
....................       SendDataDisplay(); 
06B12:  CALL   442E
....................    }else if(ACiclos[i]==7){ 
06B16:  BRA    6DF8
06B18:  MOVLB  2
06B1A:  CLRF   03
06B1C:  MOVF   x76,W
06B1E:  ADDLW  2F
06B20:  MOVWF  FE9
06B22:  MOVLW  03
06B24:  ADDWFC 03,W
06B26:  MOVWF  FEA
06B28:  MOVF   FEF,W
06B2A:  SUBLW  07
06B2C:  BNZ   6B6C
....................       printf("A%u.txt=\"Bomba\"",i+1); 
06B2E:  MOVLW  01
06B30:  ADDWF  x76,W
06B32:  MOVLB  6
06B34:  MOVWF  xCF
06B36:  MOVLW  41
06B38:  BTFSS  F9E.4
06B3A:  BRA    6B38
06B3C:  MOVWF  FAD
06B3E:  MOVFF  6CF,6D4
06B42:  MOVLW  1B
06B44:  MOVWF  xD5
06B46:  MOVLB  0
06B48:  CALL   5F1A
06B4C:  MOVLW  87
06B4E:  MOVWF  FF6
06B50:  MOVLW  04
06B52:  MOVWF  FF7
06B54:  MOVLW  00
06B56:  MOVWF  FF8
06B58:  MOVLW  0C
06B5A:  MOVLB  6
06B5C:  MOVWF  xD4
06B5E:  MOVLB  0
06B60:  CALL   5E96
....................       SendDataDisplay(); 
06B64:  CALL   442E
....................    }else if(ACiclos[i]==8){ 
06B68:  BRA    6DF8
06B6A:  MOVLB  2
06B6C:  CLRF   03
06B6E:  MOVF   x76,W
06B70:  ADDLW  2F
06B72:  MOVWF  FE9
06B74:  MOVLW  03
06B76:  ADDWFC 03,W
06B78:  MOVWF  FEA
06B7A:  MOVF   FEF,W
06B7C:  SUBLW  08
06B7E:  BNZ   6BBE
....................       printf("A%u.txt=\"ErrorVacio\"",i+1); 
06B80:  MOVLW  01
06B82:  ADDWF  x76,W
06B84:  MOVLB  6
06B86:  MOVWF  xCF
06B88:  MOVLW  41
06B8A:  BTFSS  F9E.4
06B8C:  BRA    6B8A
06B8E:  MOVWF  FAD
06B90:  MOVFF  6CF,6D4
06B94:  MOVLW  1B
06B96:  MOVWF  xD5
06B98:  MOVLB  0
06B9A:  CALL   5F1A
06B9E:  MOVLW  97
06BA0:  MOVWF  FF6
06BA2:  MOVLW  04
06BA4:  MOVWF  FF7
06BA6:  MOVLW  00
06BA8:  MOVWF  FF8
06BAA:  MOVLW  11
06BAC:  MOVLB  6
06BAE:  MOVWF  xD4
06BB0:  MOVLB  0
06BB2:  CALL   5E96
....................       SendDataDisplay(); 
06BB6:  CALL   442E
....................    }else if(ACiclos[i]==10){ 
06BBA:  BRA    6DF8
06BBC:  MOVLB  2
06BBE:  CLRF   03
06BC0:  MOVF   x76,W
06BC2:  ADDLW  2F
06BC4:  MOVWF  FE9
06BC6:  MOVLW  03
06BC8:  ADDWFC 03,W
06BCA:  MOVWF  FEA
06BCC:  MOVF   FEF,W
06BCE:  SUBLW  0A
06BD0:  BNZ   6C10
....................       printf("A%u.txt=\"PreCale\"",i+1); 
06BD2:  MOVLW  01
06BD4:  ADDWF  x76,W
06BD6:  MOVLB  6
06BD8:  MOVWF  xCF
06BDA:  MOVLW  41
06BDC:  BTFSS  F9E.4
06BDE:  BRA    6BDC
06BE0:  MOVWF  FAD
06BE2:  MOVFF  6CF,6D4
06BE6:  MOVLW  1B
06BE8:  MOVWF  xD5
06BEA:  MOVLB  0
06BEC:  CALL   5F1A
06BF0:  MOVLW  AD
06BF2:  MOVWF  FF6
06BF4:  MOVLW  04
06BF6:  MOVWF  FF7
06BF8:  MOVLW  00
06BFA:  MOVWF  FF8
06BFC:  MOVLW  0E
06BFE:  MOVLB  6
06C00:  MOVWF  xD4
06C02:  MOVLB  0
06C04:  CALL   5E96
....................       SendDataDisplay(); 
06C08:  CALL   442E
....................    }else if(ACiclos[i]==11){ 
06C0C:  BRA    6DF8
06C0E:  MOVLB  2
06C10:  CLRF   03
06C12:  MOVF   x76,W
06C14:  ADDLW  2F
06C16:  MOVWF  FE9
06C18:  MOVLW  03
06C1A:  ADDWFC 03,W
06C1C:  MOVWF  FEA
06C1E:  MOVF   FEF,W
06C20:  SUBLW  0B
06C22:  BNZ   6C62
....................       printf("A%u.txt=\"Vacio\"",i+1); 
06C24:  MOVLW  01
06C26:  ADDWF  x76,W
06C28:  MOVLB  6
06C2A:  MOVWF  xCF
06C2C:  MOVLW  41
06C2E:  BTFSS  F9E.4
06C30:  BRA    6C2E
06C32:  MOVWF  FAD
06C34:  MOVFF  6CF,6D4
06C38:  MOVLW  1B
06C3A:  MOVWF  xD5
06C3C:  MOVLB  0
06C3E:  CALL   5F1A
06C42:  MOVLW  BF
06C44:  MOVWF  FF6
06C46:  MOVLW  04
06C48:  MOVWF  FF7
06C4A:  MOVLW  00
06C4C:  MOVWF  FF8
06C4E:  MOVLW  0C
06C50:  MOVLB  6
06C52:  MOVWF  xD4
06C54:  MOVLB  0
06C56:  CALL   5E96
....................       SendDataDisplay(); 
06C5A:  CALL   442E
....................    }else if(ACiclos[i]==12){ 
06C5E:  BRA    6DF8
06C60:  MOVLB  2
06C62:  CLRF   03
06C64:  MOVF   x76,W
06C66:  ADDLW  2F
06C68:  MOVWF  FE9
06C6A:  MOVLW  03
06C6C:  ADDWFC 03,W
06C6E:  MOVWF  FEA
06C70:  MOVF   FEF,W
06C72:  SUBLW  0C
06C74:  BNZ   6CB4
....................       printf("A%u.txt=\"Calen\"",i+1); 
06C76:  MOVLW  01
06C78:  ADDWF  x76,W
06C7A:  MOVLB  6
06C7C:  MOVWF  xCF
06C7E:  MOVLW  41
06C80:  BTFSS  F9E.4
06C82:  BRA    6C80
06C84:  MOVWF  FAD
06C86:  MOVFF  6CF,6D4
06C8A:  MOVLW  1B
06C8C:  MOVWF  xD5
06C8E:  MOVLB  0
06C90:  CALL   5F1A
06C94:  MOVLW  CF
06C96:  MOVWF  FF6
06C98:  MOVLW  04
06C9A:  MOVWF  FF7
06C9C:  MOVLW  00
06C9E:  MOVWF  FF8
06CA0:  MOVLW  0C
06CA2:  MOVLB  6
06CA4:  MOVWF  xD4
06CA6:  MOVLB  0
06CA8:  CALL   5E96
....................       SendDataDisplay(); 
06CAC:  CALL   442E
....................    }else if(ACiclos[i]==13){ 
06CB0:  BRA    6DF8
06CB2:  MOVLB  2
06CB4:  CLRF   03
06CB6:  MOVF   x76,W
06CB8:  ADDLW  2F
06CBA:  MOVWF  FE9
06CBC:  MOVLW  03
06CBE:  ADDWFC 03,W
06CC0:  MOVWF  FEA
06CC2:  MOVF   FEF,W
06CC4:  SUBLW  0D
06CC6:  BNZ   6D06
....................       printf("A%u.txt=\"Desfoga\"",i+1); 
06CC8:  MOVLW  01
06CCA:  ADDWF  x76,W
06CCC:  MOVLB  6
06CCE:  MOVWF  xCF
06CD0:  MOVLW  41
06CD2:  BTFSS  F9E.4
06CD4:  BRA    6CD2
06CD6:  MOVWF  FAD
06CD8:  MOVFF  6CF,6D4
06CDC:  MOVLW  1B
06CDE:  MOVWF  xD5
06CE0:  MOVLB  0
06CE2:  CALL   5F1A
06CE6:  MOVLW  DF
06CE8:  MOVWF  FF6
06CEA:  MOVLW  04
06CEC:  MOVWF  FF7
06CEE:  MOVLW  00
06CF0:  MOVWF  FF8
06CF2:  MOVLW  0E
06CF4:  MOVLB  6
06CF6:  MOVWF  xD4
06CF8:  MOVLB  0
06CFA:  CALL   5E96
....................       SendDataDisplay(); 
06CFE:  CALL   442E
....................    }else if(ACiclos[i]==14){ 
06D02:  BRA    6DF8
06D04:  MOVLB  2
06D06:  CLRF   03
06D08:  MOVF   x76,W
06D0A:  ADDLW  2F
06D0C:  MOVWF  FE9
06D0E:  MOVLW  03
06D10:  ADDWFC 03,W
06D12:  MOVWF  FEA
06D14:  MOVF   FEF,W
06D16:  SUBLW  0E
06D18:  BNZ   6D58
....................       printf("A%u.txt=\"Finalizado\"",i+1); 
06D1A:  MOVLW  01
06D1C:  ADDWF  x76,W
06D1E:  MOVLB  6
06D20:  MOVWF  xCF
06D22:  MOVLW  41
06D24:  BTFSS  F9E.4
06D26:  BRA    6D24
06D28:  MOVWF  FAD
06D2A:  MOVFF  6CF,6D4
06D2E:  MOVLW  1B
06D30:  MOVWF  xD5
06D32:  MOVLB  0
06D34:  CALL   5F1A
06D38:  MOVLW  F1
06D3A:  MOVWF  FF6
06D3C:  MOVLW  04
06D3E:  MOVWF  FF7
06D40:  MOVLW  00
06D42:  MOVWF  FF8
06D44:  MOVLW  11
06D46:  MOVLB  6
06D48:  MOVWF  xD4
06D4A:  MOVLB  0
06D4C:  CALL   5E96
....................       SendDataDisplay(); 
06D50:  CALL   442E
....................    }else if(ACiclos[i]==15){ 
06D54:  BRA    6DF8
06D56:  MOVLB  2
06D58:  CLRF   03
06D5A:  MOVF   x76,W
06D5C:  ADDLW  2F
06D5E:  MOVWF  FE9
06D60:  MOVLW  03
06D62:  ADDWFC 03,W
06D64:  MOVWF  FEA
06D66:  MOVF   FEF,W
06D68:  SUBLW  0F
06D6A:  BNZ   6DAA
....................       printf("A%u.txt=\"Secando\"",i+1); 
06D6C:  MOVLW  01
06D6E:  ADDWF  x76,W
06D70:  MOVLB  6
06D72:  MOVWF  xCF
06D74:  MOVLW  41
06D76:  BTFSS  F9E.4
06D78:  BRA    6D76
06D7A:  MOVWF  FAD
06D7C:  MOVFF  6CF,6D4
06D80:  MOVLW  1B
06D82:  MOVWF  xD5
06D84:  MOVLB  0
06D86:  CALL   5F1A
06D8A:  MOVLW  07
06D8C:  MOVWF  FF6
06D8E:  MOVLW  05
06D90:  MOVWF  FF7
06D92:  MOVLW  00
06D94:  MOVWF  FF8
06D96:  MOVLW  0E
06D98:  MOVLB  6
06D9A:  MOVWF  xD4
06D9C:  MOVLB  0
06D9E:  CALL   5E96
....................       SendDataDisplay(); 
06DA2:  CALL   442E
....................    }else if(ACiclos[i]==16){ 
06DA6:  BRA    6DF8
06DA8:  MOVLB  2
06DAA:  CLRF   03
06DAC:  MOVF   x76,W
06DAE:  ADDLW  2F
06DB0:  MOVWF  FE9
06DB2:  MOVLW  03
06DB4:  ADDWFC 03,W
06DB6:  MOVWF  FEA
06DB8:  MOVF   FEF,W
06DBA:  SUBLW  10
06DBC:  BNZ   6DFA
....................       printf("A%u.txt=\"Esterilizando\"",i+1); 
06DBE:  MOVLW  01
06DC0:  ADDWF  x76,W
06DC2:  MOVLB  6
06DC4:  MOVWF  xCF
06DC6:  MOVLW  41
06DC8:  BTFSS  F9E.4
06DCA:  BRA    6DC8
06DCC:  MOVWF  FAD
06DCE:  MOVFF  6CF,6D4
06DD2:  MOVLW  1B
06DD4:  MOVWF  xD5
06DD6:  MOVLB  0
06DD8:  CALL   5F1A
06DDC:  MOVLW  19
06DDE:  MOVWF  FF6
06DE0:  MOVLW  05
06DE2:  MOVWF  FF7
06DE4:  MOVLW  00
06DE6:  MOVWF  FF8
06DE8:  MOVLW  14
06DEA:  MOVLB  6
06DEC:  MOVWF  xD4
06DEE:  MOVLB  0
06DF0:  CALL   5E96
....................       SendDataDisplay(); 
06DF4:  CALL   442E
06DF8:  MOVLB  2
....................    } 
.................... } 
06DFA:  MOVLB  0
06DFC:  GOTO   C852 (RETURN)
....................  
.................... void graficaCurva(int16 tGrafica){ 
....................    if(tiempos2>=tGrafica){ 
*
05C56:  MOVLB  6
05C58:  MOVF   xD0,W
05C5A:  MOVLB  2
05C5C:  SUBWF  x8B,W
05C5E:  BNC   5C76
05C60:  BNZ   5C6C
05C62:  MOVLB  6
05C64:  MOVF   xCF,W
05C66:  MOVLB  2
05C68:  SUBWF  x8A,W
05C6A:  BNC   5C76
....................       Grafica=1; 
05C6C:  MOVLB  1
05C6E:  BSF    x0A.5
....................       tiempos2=0; 
05C70:  MOVLB  2
05C72:  CLRF   x8B
05C74:  CLRF   x8A
....................    } 
.................... } 
05C76:  MOVLB  0
05C78:  GOTO   8306 (RETURN)
....................  
.................... void muestreo(int16 tmuestreo){ 
....................    if(tiempos3>=tmuestreo){ 
05C7C:  MOVLB  6
05C7E:  MOVF   xD0,W
05C80:  MOVLB  2
05C82:  SUBWF  x8D,W
05C84:  BNC   5D26
05C86:  BNZ   5C92
05C88:  MOVLB  6
05C8A:  MOVF   xCF,W
05C8C:  MOVLB  2
05C8E:  SUBWF  x8C,W
05C90:  BNC   5D26
....................       Temperatura=LeerPt100(0,MediaMovil); 
05C92:  MOVLB  6
05C94:  CLRF   xD1
05C96:  MOVFF  1F7,6D2
05C9A:  MOVLB  0
05C9C:  CALL   45BA
05CA0:  MOVFF  03,23E
05CA4:  MOVFF  02,23D
05CA8:  MOVFF  01,23C
05CAC:  MOVFF  00,23B
....................       Temperatura2=LeerPt100(1,MediaMovil); 
05CB0:  MOVLW  01
05CB2:  MOVLB  6
05CB4:  MOVWF  xD1
05CB6:  MOVFF  1F7,6D2
05CBA:  MOVLB  0
05CBC:  CALL   45BA
05CC0:  MOVFF  03,242
05CC4:  MOVFF  02,241
05CC8:  MOVFF  01,240
05CCC:  MOVFF  00,23F
....................       PresionCamara=Leer_Sensor_Presion_Camara(10); 
05CD0:  MOVLW  0A
05CD2:  MOVLB  6
05CD4:  MOVWF  xD1
05CD6:  MOVLB  0
05CD8:  CALL   4E9A
05CDC:  MOVFF  03,6E4
05CE0:  MOVFF  02,6E3
05CE4:  MOVFF  01,6E2
05CE8:  MOVFF  00,6E1
05CEC:  CALL   5098
05CF0:  MOVFF  02,295
05CF4:  MOVFF  01,294
....................       PresionPreCamara=Leer_Sensor_Presion_PreCamara(20); 
05CF8:  MOVLW  14
05CFA:  MOVLB  6
05CFC:  MOVWF  xD1
05CFE:  MOVLB  0
05D00:  CALL   50D4
05D04:  MOVFF  03,6E4
05D08:  MOVFF  02,6E3
05D0C:  MOVFF  01,6E2
05D10:  MOVFF  00,6E1
05D14:  CALL   5098
05D18:  MOVFF  02,297
05D1C:  MOVFF  01,296
....................       tiempos3=0; 
05D20:  MOVLB  2
05D22:  CLRF   x8D
05D24:  CLRF   x8C
....................    } 
.................... } 
05D26:  MOVLB  0
05D28:  GOTO   8314 (RETURN)
....................  
.................... void monitoreaAgua(){ 
....................    if(LOWB){ 
05D2C:  BSF    F93.2
05D2E:  BTFSC  F81.2
05D30:  BRA    5D44
....................       SensadoNivelR=ON; 
05D32:  MOVLB  1
05D34:  BSF    x0A.2
....................       if(TiempoSensadoNivelR>2){ 
05D36:  MOVF   xFB,W
05D38:  SUBLW  02
05D3A:  BC    5D40
....................          SensadoNivelR=OFF; 
05D3C:  BCF    x0A.2
....................          ReservorioLleno=ON; 
05D3E:  BSF    x0A.1
....................       } 
....................    }else{ 
05D40:  BRA    5D4C
05D42:  MOVLB  0
....................       SensadoNivelR=OFF; 
05D44:  MOVLB  1
05D46:  BCF    x0A.2
....................       TiempoSensadoNivelR=0; 
05D48:  CLRF   xFB
....................       ReservorioLleno=OFF; 
05D4A:  BCF    x0A.1
....................    }  
.................... } 
05D4C:  MOVLB  0
05D4E:  GOTO   8318 (RETURN)
....................  
.................... void monitoreaStop(){ 
....................       if(!STOP && !IniciaCiclo && !PruebaEstados){ 
*
05E12:  BSF    F93.0
05E14:  BTFSS  F81.0
05E16:  BRA    5E88
05E18:  MOVLB  1
05E1A:  BTFSS  x03.6
05E1C:  BRA    5E22
05E1E:  MOVLB  0
05E20:  BRA    5E88
05E22:  BTFSS  x05.1
05E24:  BRA    5E2A
05E26:  MOVLB  0
05E28:  BRA    5E88
....................          if(!disp_Stop){ 
05E2A:  BTFSC  x0A.6
05E2C:  BRA    5E36
....................             disp_Stop=1;Menu=255; 
05E2E:  BSF    x0A.6
05E30:  MOVLW  FF
05E32:  MOVLB  2
05E34:  MOVWF  x73
....................          } 
....................          codigoAlarma=200; 
05E36:  MOVLW  C8
05E38:  MOVLB  2
05E3A:  MOVWF  xAF
....................          Controlando=0; 
05E3C:  CLRF   x6C
....................          Desfogue=ON; 
05E3E:  MOVLB  0
05E40:  BSF    xF8.4
....................          Paso=OFF; 
05E42:  BCF    xF8.2
....................          //Suministro_off; 
....................          if(PresionCamara<Atmosferica) 
05E44:  MOVLB  2
05E46:  MOVF   x95,F
05E48:  BNZ   5E56
05E4A:  MOVF   xC2,W
05E4C:  SUBWF  x94,W
05E4E:  BC    5E56
....................             Aire=ON; 
05E50:  MOVLB  0
05E52:  BSF    xF8.5
....................          else 
05E54:  BRA    5E5A
....................             Aire=ON; 
05E56:  MOVLB  0
05E58:  BSF    xF8.5
....................          outVacio=OFF;    
05E5A:  BCF    xF8.3
....................          aguaEnfriador=OFF; 
05E5C:  BCF    30.5
....................          bombaVacio=OFF; 
05E5E:  BCF    30.6
....................          DesfogueSuave=OFF; 
05E60:  MOVLB  1
05E62:  BCF    x04.3
....................          printf("page Emergencia"); 
05E64:  MOVLW  2E
05E66:  MOVWF  FF6
05E68:  MOVLW  05
05E6A:  MOVWF  FF7
05E6C:  MOVLW  00
05E6E:  MOVWF  FF8
05E70:  MOVLB  0
05E72:  CALL   43FC
....................          SendDataDisplay(); 
05E76:  CALL   442E
....................          ActivaAlarma(1); 
05E7A:  MOVLW  01
05E7C:  MOVLB  6
05E7E:  MOVWF  xCF
05E80:  MOVLB  0
05E82:  RCALL  5D52
....................          BorraBuffer(); 
05E84:  BRA    5DE6
....................       }else{ 
05E86:  BRA    5E90
....................          if(disp_Stop){ 
05E88:  MOVLB  1
05E8A:  BTFSS  x0A.6
05E8C:  BRA    5E90
....................             reset_cpu(); 
05E8E:  RESET
05E90:  MOVLB  0
....................          } 
....................       }           
.................... } 
05E92:  GOTO   831C (RETURN)
....................  
.................... void cierraPuertaS(){// Aadir logica de puertas 
....................    abrirPuertaS=OFF; 
*
0533C:  BCF    xFC.1
....................    tVacioEmpaqueS=0; 
0533E:  MOVLB  1
05340:  CLRF   x00
05342:  MOVLB  0
05344:  CLRF   xFF
....................    if(!BLOQUEOS){ 
05346:  BTFSC  30.2
05348:  BRA    535C
....................       cilindroSucio=OFF; 
0534A:  BCF    xF8.6
....................       estadoCilindrosS=ON; 
0534C:  BSF    xFC.6
....................       if(DOORS){ 
0534E:  BSF    F93.1
05350:  BTFSC  F81.1
05352:  BRA    5358
....................          empaqueSucio=ON; 
05354:  BSF    xF8.0
....................          //cerroSucio=ON; 
....................       }else{ 
05356:  BRA    535A
....................          empaqueSucio=OFF; 
05358:  BCF    xF8.0
....................       } 
....................    }else{ 
0535A:  BRA    5368
....................       if(!DOORS){ 
0535C:  BSF    F93.1
0535E:  BTFSS  F81.1
05360:  BRA    5368
....................          cilindroSucio=ON; 
05362:  BSF    xF8.6
....................          estadoCilindrosS=OFF; 
05364:  BCF    xFC.6
....................          pulsoSubirS=OFF; 
05366:  BCF    xFB.4
....................       } 
....................    } 
....................    suministroAire=ON; 
05368:  BSF    30.4
....................    seguroValvula=OFF; 
0536A:  BCF    xF9.1
....................    seguroValvula2=OFF; 
0536C:  BCF    xF9.2
....................    estadoSuministro=ON; 
0536E:  MOVLB  1
05370:  BSF    x04.7
.................... } 
05372:  MOVLB  0
05374:  GOTO   81F0 (RETURN)
....................  
.................... void abrePuertaS(){ 
....................    abrirPuertaS=ON; 
*
052D2:  BSF    xFC.1
....................    if(PresionCamara<=Atmosferica+15 && PresionCamara>Atmosferica-10){ 
052D4:  MOVLW  0F
052D6:  MOVLB  2
052D8:  ADDWF  xC2,W
052DA:  MOVF   x95,F
052DC:  BNZ   5330
052DE:  SUBWF  x94,W
052E0:  BZ    52E4
052E2:  BC    5330
052E4:  MOVLW  0A
052E6:  SUBWF  xC2,W
052E8:  MOVF   x95,F
052EA:  BNZ   52F2
052EC:  SUBWF  x94,W
052EE:  BZ    5330
052F0:  BNC   5330
....................       empaqueSucio=OFF; 
052F2:  MOVLB  0
052F4:  BCF    xF8.0
....................       seguroValvula=ON; 
052F6:  BSF    xF9.1
....................       seguroValvula2=OFF; 
052F8:  BCF    xF9.2
....................       if(DOORS){ 
052FA:  BSF    F93.1
052FC:  BTFSC  F81.1
052FE:  BRA    5322
....................          if(tVacioEmpaqueS>=10){ 
05300:  MOVLB  1
05302:  MOVF   x00,F
05304:  BNZ   5310
05306:  MOVLB  0
05308:  MOVF   xFF,W
0530A:  SUBLW  09
0530C:  BC    531C
0530E:  MOVLB  1
....................             cilindroSucio=ON; 
05310:  MOVLB  0
05312:  BSF    xF8.6
....................             cerroSucio=OFF; 
05314:  BCF    xFB.2
....................             vacioEmpaqueS=OFF; 
05316:  BCF    xFB.7
....................             BombaVacio=OFF; 
05318:  BCF    30.6
....................          }else{ 
0531A:  BRA    5320
....................             BombaVacio=ON; 
0531C:  BSF    30.6
....................             vacioEmpaqueS=ON; 
0531E:  BSF    xFB.7
....................          } 
....................       }else{ 
05320:  BRA    532E
....................          cilindroSucio=ON; 
05322:  BSF    xF8.6
....................          estadoCilindrosS=OFF; 
05324:  BCF    xFC.6
....................          cerroSucio=OFF; 
05326:  BCF    xFB.2
....................          vacioEmpaqueS=OFF; 
05328:  BCF    xFB.7
....................          BombaVacio=OFF; 
0532A:  BCF    30.6
....................          pulsoBajarS=OFF; 
0532C:  BCF    xFC.2
0532E:  MOVLB  2
....................       } 
....................    } 
....................    suministroAire=ON; 
05330:  BSF    30.4
....................    estadoSuministro=ON; 
05332:  MOVLB  1
05334:  BSF    x04.7
.................... } 
05336:  MOVLB  0
05338:  GOTO   81EA (RETURN)
....................  
.................... void cierraPuertaL(){// Aadir logica de puertas 
....................    abrirPuertaL=OFF; 
*
05378:  BCF    xFC.0
....................    tVacioEmpaqueL=0; 
0537A:  MOVLB  1
0537C:  CLRF   x02
0537E:  CLRF   x01
....................    if(!BLOQUEOL){ 
05380:  BTFSC  30.3
05382:  BRA    5398
....................       cilindroLimpio=OFF; 
05384:  MOVLB  0
05386:  BCF    xF8.7
....................       estadoCilindrosL=ON; 
05388:  BSF    xFC.5
....................       if(DOORL){ 
0538A:  BTFSS  30.1
0538C:  BRA    5392
....................          empaqueLimpio=ON; 
0538E:  BSF    30.7
....................          //cerroLimpio=ON; 
....................       }else{ 
05390:  BRA    5394
....................          empaqueLimpio=OFF; 
05392:  BCF    30.7
....................       } 
....................    }else{ 
05394:  BRA    53A4
05396:  MOVLB  1
....................       if(!DOORL){ 
05398:  BTFSC  30.1
0539A:  BRA    53A6
....................          cilindroLimpio=ON; 
0539C:  MOVLB  0
0539E:  BSF    xF8.7
....................          estadoCilindrosL=OFF; 
053A0:  BCF    xFC.5
....................          pulsoSubirL=OFF; 
053A2:  BCF    xFB.5
053A4:  MOVLB  1
....................       } 
....................    } 
....................    seguroValvula2=OFF; 
053A6:  MOVLB  0
053A8:  BCF    xF9.2
....................    seguroValvula=OFF; 
053AA:  BCF    xF9.1
....................    suministroAire=ON; 
053AC:  BSF    30.4
....................    estadoSuministro=ON; 
053AE:  MOVLB  1
053B0:  BSF    x04.7
.................... } 
053B2:  MOVLB  0
053B4:  RETLW  00
....................  
.................... void abrePuertaL(){ 
....................    abrirPuertaL=ON; 
053B6:  BSF    xFC.0
....................    if(PresionCamara<=Atmosferica+15 && PresionCamara>Atmosferica-10){ 
053B8:  MOVLW  0F
053BA:  MOVLB  2
053BC:  ADDWF  xC2,W
053BE:  MOVF   x95,F
053C0:  BNZ   5410
053C2:  SUBWF  x94,W
053C4:  BZ    53C8
053C6:  BC    5410
053C8:  MOVLW  0A
053CA:  SUBWF  xC2,W
053CC:  MOVF   x95,F
053CE:  BNZ   53D6
053D0:  SUBWF  x94,W
053D2:  BZ    5410
053D4:  BNC   5410
....................       empaqueLimpio=OFF; 
053D6:  BCF    30.7
....................       seguroValvula2=ON; 
053D8:  MOVLB  0
053DA:  BSF    xF9.2
....................       seguroValvula=OFF; 
053DC:  BCF    xF9.1
....................       if(DOORL){ 
053DE:  BTFSS  30.1
053E0:  BRA    5404
....................          if(tVacioEmpaqueL>=10){ 
053E2:  MOVLB  1
053E4:  MOVF   x02,F
053E6:  BNZ   53EE
053E8:  MOVF   x01,W
053EA:  SUBLW  09
053EC:  BC    53FC
....................             cilindroLimpio=ON; 
053EE:  MOVLB  0
053F0:  BSF    xF8.7
....................             cerroLimpio=OFF; 
053F2:  BCF    xFB.3
....................             vacioEmpaqueL=OFF; 
053F4:  BCF    xFB.6
....................             BombaVacio=OFF; 
053F6:  BCF    30.6
....................          }else{ 
053F8:  BRA    5402
053FA:  MOVLB  1
....................             BombaVacio=ON; 
053FC:  BSF    30.6
....................             vacioEmpaqueL=ON; 
053FE:  MOVLB  0
05400:  BSF    xFB.6
....................          } 
....................       }else{ 
05402:  BRA    540E
....................          cilindroLimpio=ON; 
05404:  BSF    xF8.7
....................          estadoCilindrosL=OFF; 
05406:  BCF    xFC.5
....................          cerroLimpio=OFF; 
05408:  BCF    xFB.3
....................          vacioEmpaqueL=OFF; 
0540A:  BCF    xFB.6
....................          BombaVacio=OFF; 
0540C:  BCF    30.6
0540E:  MOVLB  2
....................          //pulsoBajarL=OFF; 
....................       } 
....................    } 
....................    suministroAire=ON; 
05410:  BSF    30.4
....................    estadoSuministro=ON; 
05412:  MOVLB  1
05414:  BSF    x04.7
.................... } 
05416:  MOVLB  0
05418:  RETLW  00
....................  
.................... void monitoreaPuertaLimpio(){ 
....................    if(pulsoSubirL) 
0541A:  BTFSS  xFB.5
0541C:  BRA    5420
....................       cierraPuertaL(); 
0541E:  RCALL  5378
....................        
....................    if(subirPuertaLimpio==5){//Oprimio Subir Puerta Limpio 
05420:  MOVLB  1
05422:  MOVF   xFC,W
05424:  SUBLW  05
05426:  BNZ   5430
....................       //cierraPuertaL(); 
....................       pulsoSubirL=ON; 
05428:  MOVLB  0
0542A:  BSF    xFB.5
....................    }else if(subirPuertaLimpio==10){//Solto Subir Puerta Limpio 
0542C:  BRA    54AE
0542E:  MOVLB  1
05430:  MOVF   xFC,W
05432:  SUBLW  0A
05434:  BNZ   544C
....................       pulsoSubirL=OFF; 
05436:  MOVLB  0
05438:  BCF    xFB.5
....................       if(!DOORL && !EMPAQUEL) 
0543A:  BTFSC  30.1
0543C:  BRA    5446
0543E:  BTFSC  30.0
05440:  BRA    5446
....................          abrePuertaL(); 
05442:  RCALL  53B6
....................       else 
05444:  BRA    5448
....................          cierraPuertaL(); 
05446:  RCALL  5378
....................    }else if(subirPuertaLimpio==15){//Oprimio Bajar Puerta Limpio 
05448:  BRA    54AE
0544A:  MOVLB  1
0544C:  MOVF   xFC,W
0544E:  SUBLW  0F
05450:  BNZ   54A0
....................       pulsoSubirL=OFF; 
05452:  MOVLB  0
05454:  BCF    xFB.5
....................       if(Temperatura<Tapertura && Finalizo && cerroSucio) 
05456:  MOVLB  6
05458:  CLRF   xE2
0545A:  MOVFF  27A,6E1
0545E:  MOVLB  0
05460:  CALL   21A8
05464:  MOVFF  23E,6D6
05468:  MOVFF  23D,6D5
0546C:  MOVFF  23C,6D4
05470:  MOVFF  23B,6D3
05474:  MOVFF  03,6DA
05478:  MOVFF  02,6D9
0547C:  MOVFF  01,6D8
05480:  MOVFF  00,6D7
05484:  CALL   283A
05488:  BNC   549C
0548A:  MOVLB  1
0548C:  BTFSC  x07.0
0548E:  BRA    5494
05490:  MOVLB  0
05492:  BRA    549C
05494:  MOVLB  0
05496:  BTFSS  xFB.2
05498:  BRA    549C
....................       //if(Temperatura<Tapertura && cerroSucio) 
....................          abrePuertaL(); 
0549A:  RCALL  53B6
....................    }else{ 
0549C:  BRA    54AE
0549E:  MOVLB  1
....................       if(!DOORL) 
054A0:  BTFSC  30.1
054A2:  BRA    54AA
....................          abrePuertaL(); 
054A4:  MOVLB  0
054A6:  RCALL  53B6
....................       else 
054A8:  BRA    54AE
....................          cierraPuertaL(); 
054AA:  MOVLB  0
054AC:  RCALL  5378
....................    }   
.................... } 
054AE:  GOTO   81F8 (RETURN)
....................  
.................... void ApagaSalidas(){ 
....................     
....................    Controlando=0; 
*
04464:  MOVLB  2
04466:  CLRF   x6C
.................... } 
04468:  MOVLB  0
0446A:  RETLW  00
....................  
.................... void borraVariables(){ 
....................    disp_Guarda=0; 
*
07100:  MOVLB  1
07102:  BCF    x05.2
....................    posicionDato=0; 
07104:  MOVLB  2
07106:  CLRF   xAE
....................    Ciclo=OFF; 
07108:  MOVLB  1
0710A:  BCF    x05.3
....................    flag_pulso=0; 
0710C:  BCF    x08.5
....................    Start=OFF; 
0710E:  BCF    x04.5
....................    codigoAlarma=0; 
07110:  MOVLB  2
07112:  CLRF   xAF
....................    Desfogue=OFF; 
07114:  MOVLB  0
07116:  BCF    xF8.4
....................    suministroVapor=OFF; 
07118:  BCF    xF8.1
....................    BombaVacio=OFF; 
0711A:  BCF    30.6
....................    Aire=OFF; 
0711C:  BCF    xF8.5
....................    aguaEnfriador=OFF; 
0711E:  BCF    30.5
....................    outVacio=OFF; 
07120:  BCF    xF8.3
....................    Controlando=0; 
07122:  MOVLB  2
07124:  CLRF   x6C
....................    EstadoBuzzer=OFF; 
07126:  MOVLB  1
07128:  BCF    x06.4
....................    Precalentamiento=OFF; 
0712A:  BCF    x07.7
....................    IniciaVacio=OFF; 
0712C:  BCF    x08.0
....................    IniciaVacio2=OFF; 
0712E:  BCF    x08.1
....................    Vacio=OFF; 
07130:  BCF    x08.2
....................    flag_vac=OFF; 
07132:  BCF    x08.3
....................    PulsoPositivo=10; 
07134:  MOVLW  0A
07136:  MOVLB  2
07138:  MOVWF  xC3
....................    PulsosVacio=0; 
0713A:  CLRF   xC4
....................    tvacio=0; 
0713C:  CLRF   x9D
0713E:  CLRF   x9C
....................    Esterilizando=OFF; 
07140:  MOVLB  1
07142:  BCF    x03.7
....................    Desfogando=OFF; 
07144:  BCF    x04.2
....................    mEst=0; 
07146:  CLRF   x22
....................    sEst=0; 
07148:  CLRF   x21
....................    Secando=OFF; 
0714A:  BCF    x04.0
....................    DesfogueSuave=OFF; 
0714C:  BCF    x04.3
....................    Secando=OFF; 
0714E:  BCF    x04.0
....................    mSec=0; 
07150:  CLRF   x24
....................    sSec=0; 
07152:  CLRF   x23
....................    Control=0; 
07154:  MOVLB  2
07156:  CLRF   x6A
....................    Finalizo=OFF; 
07158:  MOVLB  1
0715A:  BCF    x07.0
....................    AlarmaLlenado=OFF; 
0715C:  MOVLB  0
0715E:  BCF    xFB.1
....................    AlarmaSobreTemperatura=OFF; 
07160:  BCF    xF9.6
....................    AlarmaTiempoProlongado=OFF; 
07162:  BCF    xF9.5
....................    AlarmaPresion=OFF; 
07164:  MOVLB  1
07166:  BCF    x07.1
....................    AlarmaEmergencia=OFF; 
07168:  MOVLB  0
0716A:  BCF    xFA.2
....................    AlarmaEmpaqueS=OFF; 
0716C:  BCF    xFA.5
....................    AlarmaEmpaqueL=OFF; 
0716E:  BCF    xFA.4
....................    AlarmaVacio=OFF; 
07170:  BCF    xFA.3
....................    AlarmaBomba=OFF; 
07172:  BCF    xFA.6
....................    AlarmaTermostato=OFF; 
07174:  BCF    xF9.7
....................    TiempoLlenado=0; 
07176:  MOVLB  1
07178:  CLRF   x20
0717A:  CLRF   x1F
....................    TiempoCiclo=0; 
0717C:  CLRF   x0C
0717E:  CLRF   x0B
....................    tEmpaqueS=0; 
07180:  MOVLB  2
07182:  CLRF   x7E
07184:  CLRF   x7D
....................    tEmpaqueL=0; 
07186:  CLRF   x80
07188:  CLRF   x7F
....................    tBomba=0; 
0718A:  CLRF   x9B
0718C:  CLRF   x9A
....................    tvacio=0; 
0718E:  CLRF   x9D
07190:  CLRF   x9C
....................    IniciaCiclo=OFF; 
07192:  MOVLB  1
07194:  BCF    x03.6
....................    flagImprimir=0; 
07196:  BCF    x09.4
....................    flagImprime=0; 
07198:  MOVLB  2
0719A:  BCF    x69.0
....................    tiempoImpresion=0; 
0719C:  CLRF   x9F
0719E:  CLRF   x9E
....................    ingreso=OFF; 
071A0:  MOVLB  1
071A2:  BCF    x07.5
....................    ConteoBuzzer=0; 
071A4:  MOVLB  2
071A6:  CLRF   xAD
....................    tbuzzer=0; 
071A8:  CLRF   xB3
071AA:  CLRF   xB2
....................    tEnfriador=0; 
071AC:  CLRF   x82
071AE:  CLRF   x81
....................    EstadoAgua2=OFF; 
071B0:  MOVLB  1
071B2:  BCF    x05.4
.................... } 
071B4:  MOVLB  0
071B6:  RETLW  00
....................  
.................... void leePulsadores(){ 
....................    if(tIniciar>=2){ 
071B8:  MOVLB  1
071BA:  MOVF   x18,F
071BC:  BNZ   71C4
071BE:  MOVF   x17,W
071C0:  SUBLW  01
071C2:  BC    71CC
....................       Start=!Start; 
071C4:  BTG    x04.5
....................       oprimioIniciar=OFF; 
071C6:  BCF    x03.1
....................       tIniciar=0; 
071C8:  CLRF   x18
071CA:  CLRF   x17
....................    } 
....................     
....................    if(tCiclof>=3){ 
071CC:  MOVF   x1A,F
071CE:  BNZ   71D6
071D0:  MOVF   x19,W
071D2:  SUBLW  02
071D4:  BC    71F6
....................       //printf("page Menu"); 
....................       printf("page Usuarios"); 
071D6:  MOVLW  3E
071D8:  MOVWF  FF6
071DA:  MOVLW  05
071DC:  MOVWF  FF7
071DE:  MOVLW  00
071E0:  MOVWF  FF8
071E2:  MOVLB  0
071E4:  CALL   43FC
....................       SendDataDisplay(); 
071E8:  CALL   442E
....................       oprimioCiclo=OFF;       
071EC:  MOVLB  1
071EE:  BCF    x03.2
....................       borraVariables(); 
071F0:  MOVLB  0
071F2:  RCALL  7100
071F4:  MOVLB  1
....................    } 
....................     
....................    if(tCicloP>=3){ 
071F6:  MOVF   x1C,F
071F8:  BNZ   7200
071FA:  MOVF   x1B,W
071FC:  SUBLW  02
071FE:  BC    7220
....................       //printf("page CicloPersona"); 
....................       printf("page Usuarios"); 
07200:  MOVLW  4C
07202:  MOVWF  FF6
07204:  MOVLW  05
07206:  MOVWF  FF7
07208:  MOVLW  00
0720A:  MOVWF  FF8
0720C:  MOVLB  0
0720E:  CALL   43FC
....................       SendDataDisplay(); 
07212:  CALL   442E
....................       oprimioCicloP=OFF; 
07216:  MOVLB  1
07218:  BCF    x03.3
....................       borraVariables(); 
0721A:  MOVLB  0
0721C:  RCALL  7100
0721E:  MOVLB  1
....................    } 
....................     
....................    if(tConfig>=3){ 
07220:  MOVF   x1E,F
07222:  BNZ   722A
07224:  MOVF   x1D,W
07226:  SUBLW  02
07228:  BC    724A
....................       //printf("page Ajustes"); 
....................       printf("page Usuarios"); 
0722A:  MOVLW  5A
0722C:  MOVWF  FF6
0722E:  MOVLW  05
07230:  MOVWF  FF7
07232:  MOVLW  00
07234:  MOVWF  FF8
07236:  MOVLB  0
07238:  CALL   43FC
....................       SendDataDisplay(); 
0723C:  CALL   442E
....................       oprimioConfig=OFF; 
07240:  MOVLB  1
07242:  BCF    x03.4
....................       borraVariables(); 
07244:  MOVLB  0
07246:  RCALL  7100
07248:  MOVLB  1
....................    } 
....................     
....................    if(RX_Buffer[4]==0x10){//Oprimio Iniciar Ciclo 
0724A:  MOVF   35,W
0724C:  SUBLW  10
0724E:  BNZ   7254
....................       oprimioIniciar=ON; 
07250:  BSF    x03.1
....................       RX_Buffer[4]=0x00; 
07252:  CLRF   35
....................       //RX_Buffer2[4]=0x00;                        
....................    } 
....................     
....................    if(RX_Buffer[4]==0x11){//Solto Iniciar Ciclo 
07254:  MOVF   35,W
07256:  SUBLW  11
07258:  BNZ   7262
....................       oprimioIniciar=OFF; 
0725A:  BCF    x03.1
....................       tIniciar=0; 
0725C:  CLRF   x18
0725E:  CLRF   x17
....................       RX_Buffer[4]=0x00; 
07260:  CLRF   35
....................       //RX_Buffer2[4]=0x00;                        
....................    } 
....................     
....................    if(RX_Buffer[4]==0x20){//Oprimio Seleccionar Ciclo 
07262:  MOVF   35,W
07264:  SUBLW  20
07266:  BNZ   7274
....................       if(!Start || Finalizo) 
07268:  BTFSS  x04.5
0726A:  BRA    7270
0726C:  BTFSS  x07.0
0726E:  BRA    7272
....................          oprimioCiclo=ON; 
07270:  BSF    x03.2
....................       RX_Buffer[4]=0x00; 
07272:  CLRF   35
....................       //RX_Buffer2[4]=0x00;                        
....................    } 
....................     
....................    if(RX_Buffer[4]==0x21){//Solto Seleccionar Ciclo 
07274:  MOVF   35,W
07276:  SUBLW  21
07278:  BNZ   727E
....................       oprimioCiclo=OFF; 
0727A:  BCF    x03.2
....................       RX_Buffer[4]=0x00; 
0727C:  CLRF   35
....................       //RX_Buffer2[4]=0x00;                        
....................    } 
....................    /* 
....................    if(RX_Buffer[4]==0x30){//Oprimio Ciclos Libres 
....................       if(!Start || Finalizo) 
....................          oprimioCicloP=ON; 
....................       RX_Buffer[4]=0x00; 
....................       //RX_Buffer2[4]=0x00;                        
....................    } 
....................     
....................    if(RX_Buffer[4]==0x31){//Solto Ciclos Libres 
....................       oprimioCicloP=OFF; 
....................       RX_Buffer[4]=0x00; 
....................       //RX_Buffer2[4]=0x00;                        
....................    } 
....................     
....................    if(RX_Buffer[4]==0x40){//Oprimio Configuraciones 
....................       if(!Start || Finalizo) 
....................          oprimioConfig=ON; 
....................       RX_Buffer[4]=0x00; 
....................       //RX_Buffer2[4]=0x00;                        
....................    } 
....................     
....................    if(RX_Buffer[4]==0x41){//Solto Configuraciones 
....................       oprimioConfig=OFF; 
....................       RX_Buffer[4]=0x00; 
....................       //RX_Buffer2[4]=0x00;                        
....................    } 
....................    */ 
.................... } 
0727E:  MOVLB  0
07280:  GOTO   CDE8 (RETURN)
....................  
....................  
.................... #int_rda HIGH 
.................... void serial_rx_isr(){ 
....................    Dato2=fgetc(); 
*
00568:  BTFSS  F9E.5
0056A:  BRA    0568
0056C:  MOVFF  FAE,271
00570:  MOVLB  2
....................    if(Dato2==0x65){//Inicio Comunicacion 
00572:  MOVF   x71,W
00574:  SUBLW  65
00576:  BNZ   057E
....................       Inicio=1; 
00578:  MOVLW  01
0057A:  MOVWF  x6F
....................       RX_Wr_Index =0; 
0057C:  CLRF   47
....................    } 
....................     
....................    if(Inicio==1){ 
0057E:  DECFSZ x6F,W
00580:  BRA    0596
....................       Rx_Buffer2[RX_Wr_Index] = Dato2; 
00582:  CLRF   03
00584:  MOVF   47,W
00586:  ADDLW  3C
00588:  MOVWF  FE9
0058A:  MOVLW  00
0058C:  ADDWFC 03,W
0058E:  MOVWF  FEA
00590:  MOVFF  271,FEF
....................       RX_Wr_Index++; 
00594:  INCF   47,F
....................    } 
....................    if(RX_Wr_Index >= RX_BUFFER_SIZE){ 
00596:  MOVF   47,W
00598:  SUBLW  09
0059A:  BC    05A0
....................       RX_Wr_Index =0; 
0059C:  CLRF   47
....................       Inicio=0; 
0059E:  CLRF   x6F
....................    } 
....................  
....................    if(RX_Wr_Index==0){ 
005A0:  MOVF   47,F
005A2:  BNZ   05C4
....................       if(Rx_Buffer2[0]==0x65 && Rx_Buffer2[1]==0xff && Rx_Buffer2[2]==0xff && Rx_Buffer2[8]==0x00 && Rx_Buffer2[9]==0xff ){ 
005A4:  MOVF   3C,W
005A6:  SUBLW  65
005A8:  BNZ   05C0
005AA:  INCFSZ 3D,W
005AC:  BRA    05C0
005AE:  INCFSZ 3E,W
005B0:  BRA    05C0
005B2:  MOVF   44,F
005B4:  BNZ   05C0
005B6:  INCFSZ 45,W
005B8:  BRA    05C0
....................          Dato_Exitoso=5; 
005BA:  MOVLW  05
005BC:  MOVWF  x70
....................       }else{ 
005BE:  BRA    05C4
....................          Dato_Exitoso=10; 
005C0:  MOVLW  0A
005C2:  MOVWF  x70
....................       } 
....................    } 
.................... } 
....................  
005C4:  BCF    F9E.5
005C6:  MOVLB  0
005C8:  GOTO   00FE
.................... #int_TIMER1 
.................... void temp1s(void){ 
....................    set_timer1(40536); // Se repite cada 5ms 
005CC:  MOVLW  9E
005CE:  MOVWF  FCF
005D0:  MOVLW  58
005D2:  MOVWF  FCE
....................    tiempos++; 
005D4:  MOVLB  2
005D6:  INCF   x88,F
005D8:  BTFSC  FD8.2
005DA:  INCF   x89,F
....................    tiempos2++; 
005DC:  INCF   x8A,F
005DE:  BTFSC  FD8.2
005E0:  INCF   x8B,F
....................    tiempos3++; 
005E2:  INCF   x8C,F
005E4:  BTFSC  FD8.2
005E6:  INCF   x8D,F
....................    tiempoctrl++; 
005E8:  INCF   x8E,F
005EA:  BTFSC  FD8.2
005EC:  INCF   x8F,F
....................     
....................    if(!STOP){ 
005EE:  BSF    F93.0
005F0:  BTFSS  F81.0
005F2:  BRA    05FC
....................       tStop++; 
005F4:  INCF   xB6,F
005F6:  BTFSC  FD8.2
005F8:  INCF   xB7,F
....................    }else{ 
005FA:  BRA    0600
....................       tStop=0; 
005FC:  CLRF   xB7
005FE:  CLRF   xB6
....................    } 
....................     
....................    if(flagAlarma) 
00600:  MOVLB  1
00602:  BTFSS  x06.5
00604:  BRA    0610
....................       tbuzzer++; 
00606:  MOVLB  2
00608:  INCF   xB2,F
0060A:  BTFSC  FD8.2
0060C:  INCF   xB3,F
0060E:  MOVLB  1
....................        
....................    if(flagSilencio)    
00610:  BTFSS  x06.7
00612:  BRA    061C
....................       tsilencio++; 
00614:  MOVLB  2
00616:  INCF   xB4,F
00618:  BTFSC  FD8.2
0061A:  INCF   xB5,F
....................  
....................    if(tiempos>=200){  // 12000 para que incremente cada minuto, 200para que incremente cada segundo. 
0061C:  MOVLB  2
0061E:  MOVF   x89,F
00620:  BNZ   062A
00622:  MOVF   x88,W
00624:  SUBLW  C7
00626:  BTFSC  FD8.0
00628:  BRA    07E2
....................       if(flagTC) 
0062A:  MOVLB  1
0062C:  BTFSS  x0A.7
0062E:  BRA    0634
....................          TiempoControl++; 
00630:  MOVLB  2
00632:  INCF   xAA,F
....................        
....................       tiemporecta++; 
00634:  MOVLB  2
00636:  INCF   x6B,F
....................        
....................       if(IniciaCiclo && tiempoImpresion<CalculoImpresion){ 
00638:  MOVLB  1
0063A:  BTFSS  x03.6
0063C:  BRA    065E
0063E:  MOVLB  2
00640:  MOVF   x9F,F
00642:  BTFSC  FD8.2
00644:  BRA    064A
00646:  MOVLB  1
00648:  BRA    065E
0064A:  MOVF   x6E,W
0064C:  SUBWF  x9E,W
0064E:  BTFSS  FD8.0
00650:  BRA    0656
00652:  MOVLB  1
00654:  BRA    065E
....................          tiempoImpresion++; 
00656:  INCF   x9E,F
00658:  BTFSC  FD8.2
0065A:  INCF   x9F,F
....................       }else if(tiempoImpresion>=CalculoImpresion){ 
0065C:  BRA    0670
0065E:  MOVLB  2
00660:  MOVF   x9F,F
00662:  BNZ   066A
00664:  MOVF   x6E,W
00666:  SUBWF  x9E,W
00668:  BNC   0670
....................          flagImprime=1; 
0066A:  BSF    x69.0
....................          tiempoImpresion=0; 
0066C:  CLRF   x9F
0066E:  CLRF   x9E
....................       } 
....................        
....................       if(oprimioIniciar) 
00670:  MOVLB  1
00672:  BTFSS  x03.1
00674:  BRA    067E
....................          tIniciar++; 
00676:  INCF   x17,F
00678:  BTFSC  FD8.2
0067A:  INCF   x18,F
....................       else 
0067C:  BRA    0682
....................          tIniciar=0; 
0067E:  CLRF   x18
00680:  CLRF   x17
....................           
....................       if(oprimioCiclo) 
00682:  BTFSS  x03.2
00684:  BRA    068E
....................          tCiclof++; 
00686:  INCF   x19,F
00688:  BTFSC  FD8.2
0068A:  INCF   x1A,F
....................       else 
0068C:  BRA    0692
....................          tCiclof=0; 
0068E:  CLRF   x1A
00690:  CLRF   x19
....................        
....................       if(oprimioCicloP) 
00692:  BTFSS  x03.3
00694:  BRA    069E
....................          tCicloP++; 
00696:  INCF   x1B,F
00698:  BTFSC  FD8.2
0069A:  INCF   x1C,F
....................       else 
0069C:  BRA    06A2
....................          tCicloP=0; 
0069E:  CLRF   x1C
006A0:  CLRF   x1B
....................           
....................       if(oprimioConfig) 
006A2:  BTFSS  x03.4
006A4:  BRA    06AE
....................          tConfig++; 
006A6:  INCF   x1D,F
006A8:  BTFSC  FD8.2
006AA:  INCF   x1E,F
....................       else 
006AC:  BRA    06B2
....................          tConfig=0; 
006AE:  CLRF   x1E
006B0:  CLRF   x1D
....................        
....................       if(vacioEmpaqueL) 
006B2:  MOVLB  0
006B4:  BTFSS  xFB.6
006B6:  BRA    06C2
....................          tVacioEmpaqueL++; 
006B8:  MOVLB  1
006BA:  INCF   x01,F
006BC:  BTFSC  FD8.2
006BE:  INCF   x02,F
....................       else 
006C0:  BRA    06C8
....................          tVacioEmpaqueL=0; 
006C2:  MOVLB  1
006C4:  CLRF   x02
006C6:  CLRF   x01
....................        
....................       if(vacioEmpaqueS) 
006C8:  MOVLB  0
006CA:  BTFSS  xFB.7
006CC:  BRA    06DC
....................          tVacioEmpaqueS++; 
006CE:  INCF   xFF,F
006D0:  BTFSS  FD8.2
006D2:  BRA    06DA
006D4:  MOVLB  1
006D6:  INCF   x00,F
006D8:  MOVLB  0
....................       else 
006DA:  BRA    06E4
....................          tVacioEmpaqueS=0; 
006DC:  MOVLB  1
006DE:  CLRF   x00
006E0:  MOVLB  0
006E2:  CLRF   xFF
....................           
....................       if(empaqueLimpio && !EMPAQUEL) 
006E4:  BTFSS  30.7
006E6:  BRA    06F6
006E8:  BTFSC  30.0
006EA:  BRA    06F6
....................          tEmpaqueL++; 
006EC:  MOVLB  2
006EE:  INCF   x7F,F
006F0:  BTFSC  FD8.2
006F2:  INCF   x80,F
....................       else 
006F4:  BRA    06FC
....................          tEmpaqueL=0; 
006F6:  MOVLB  2
006F8:  CLRF   x80
006FA:  CLRF   x7F
....................        
....................       if(empaqueSucio && !EMPAQUES) 
006FC:  MOVLB  0
006FE:  BTFSS  xF8.0
00700:  BRA    0712
00702:  BSF    F93.3
00704:  BTFSS  F81.3
00706:  BRA    0712
....................          tEmpaqueS++; 
00708:  MOVLB  2
0070A:  INCF   x7D,F
0070C:  BTFSC  FD8.2
0070E:  INCF   x7E,F
....................       else 
00710:  BRA    0718
....................          tEmpaqueS=0; 
00712:  MOVLB  2
00714:  CLRF   x7E
00716:  CLRF   x7D
....................        
....................       if(IniciaLlenado && !CalderinLleno) 
00718:  MOVLB  1
0071A:  BTFSS  x03.5
0071C:  BRA    0728
0071E:  BTFSC  x04.4
00720:  BRA    0728
....................          TiempoLlenado++; 
00722:  INCF   x1F,F
00724:  BTFSC  FD8.2
00726:  INCF   x20,F
....................        
....................       if(SensadoNivel) 
00728:  BTFSS  x04.1
0072A:  BRA    0732
....................          TiempoSensadoNivel++; 
0072C:  INCF   x0D,F
0072E:  BTFSC  FD8.2
00730:  INCF   x0E,F
....................           
....................       if(SensadoNivelR) 
00732:  BTFSS  x0A.2
00734:  BRA    0738
....................          TiempoSensadoNivelR++;    
00736:  INCF   xFB,F
....................        
....................       if(guardaCiclo) 
00738:  MOVLB  0
0073A:  BTFSS  xFA.7
0073C:  BRA    0746
....................          tguarda++; 
0073E:  MOVLB  1
00740:  INCF   x13,F
00742:  BTFSC  FD8.2
00744:  INCF   x14,F
....................        
....................       if(IniciaCiclo && !Esterilizando && DOORS && DOORL) 
00746:  MOVLB  1
00748:  BTFSS  x03.6
0074A:  BRA    0760
0074C:  BTFSC  x03.7
0074E:  BRA    0760
00750:  BSF    F93.1
00752:  BTFSC  F81.1
00754:  BRA    0760
00756:  BTFSS  30.1
00758:  BRA    0760
....................          TiempoCiclo++; 
0075A:  INCF   x0B,F
0075C:  BTFSC  FD8.2
0075E:  INCF   x0C,F
....................        
....................       if(SensadoNivel) 
00760:  BTFSS  x04.1
00762:  BRA    076A
....................          TiempoSensadoNivel++; 
00764:  INCF   x0D,F
00766:  BTFSC  FD8.2
00768:  INCF   x0E,F
....................           
....................       if(SensadoNivelL) 
0076A:  BTFSS  x08.7
0076C:  BRA    0774
....................          tNivelBajo++; 
0076E:  INCF   x15,F
00770:  BTFSC  FD8.2
00772:  INCF   x16,F
....................        
....................       if(IniciaVacio) 
00774:  BTFSS  x08.0
00776:  BRA    0782
....................          tvacio++;          
00778:  MOVLB  2
0077A:  INCF   x9C,F
0077C:  BTFSC  FD8.2
0077E:  INCF   x9D,F
00780:  MOVLB  1
....................        
....................       if(IniciaVacio2) 
00782:  BTFSS  x08.1
00784:  BRA    0790
....................          tbomba++; 
00786:  MOVLB  2
00788:  INCF   x9A,F
0078A:  BTFSC  FD8.2
0078C:  INCF   x9B,F
0078E:  MOVLB  1
....................           
....................       if(EstadoAgua2)    
00790:  BTFSS  x05.4
00792:  BRA    079C
....................          tEnfriador++; 
00794:  MOVLB  2
00796:  INCF   x81,F
00798:  BTFSC  FD8.2
0079A:  INCF   x82,F
....................        
....................       tiempos=0;Lectura=1;tinicio++; 
0079C:  MOVLB  2
0079E:  CLRF   x89
007A0:  CLRF   x88
007A2:  MOVLB  1
007A4:  BSF    x0A.4
007A6:  MOVLB  2
007A8:  INCF   x92,F
007AA:  BTFSC  FD8.2
007AC:  INCF   x93,F
....................     
....................       if(Esterilizando && !Desfogando){                
007AE:  MOVLB  1
007B0:  BTFSS  x03.7
007B2:  BRA    07CA
007B4:  BTFSC  x04.2
007B6:  BRA    07CA
....................          if(sEst>0){ 
007B8:  MOVF   x21,F
007BA:  BZ    07C0
....................             sEst--; 
007BC:  DECF   x21,F
....................          }else if(mEst>0){ 
007BE:  BRA    07CA
007C0:  MOVF   x22,F
007C2:  BZ    07CA
....................             mEst--; 
007C4:  DECF   x22,F
....................             sEst=59; 
007C6:  MOVLW  3B
007C8:  MOVWF  x21
....................          } 
....................       } 
....................       if(Secando){ 
007CA:  BTFSS  x04.0
007CC:  BRA    07E0
....................          if(sSec>0){ 
007CE:  MOVF   x23,F
007D0:  BZ    07D6
....................             sSec--; 
007D2:  DECF   x23,F
....................          }else if(mSec>0){ 
007D4:  BRA    07E0
007D6:  MOVF   x24,F
007D8:  BZ    07E0
....................             mSec--; 
007DA:  DECF   x24,F
....................             sSec=59; 
007DC:  MOVLW  3B
007DE:  MOVWF  x23
007E0:  MOVLB  2
....................          } 
....................       } 
....................    } 
.................... } 
....................  
007E2:  BCF    F9E.0
007E4:  MOVLB  0
007E6:  GOTO   0068
.................... void main() 
.................... { 
*
07AC8:  CLRF   FF8
07ACA:  BCF    F9F.0
07ACC:  BSF    F9F.5
07ACE:  BSF    FD0.7
07AD0:  BSF    07.7
07AD2:  CLRF   FEA
07AD4:  CLRF   FE9
07AD6:  BSF    FB8.3
07AD8:  MOVLW  08
07ADA:  MOVWF  FAF
07ADC:  MOVLW  02
07ADE:  MOVWF  FB0
07AE0:  MOVLW  A6
07AE2:  MOVWF  FAC
07AE4:  MOVLW  90
07AE6:  MOVWF  FAB
07AE8:  CLRF   47
07AEA:  CLRF   xDD
07AEC:  CLRF   xDE
07AEE:  CLRF   xDF
07AF0:  BCF    30.4
07AF2:  BCF    30.5
07AF4:  BCF    30.6
07AF6:  BCF    30.7
07AF8:  BCF    xF8.0
07AFA:  BCF    xF8.1
07AFC:  BCF    xF8.2
07AFE:  BCF    xF8.3
07B00:  BCF    xF8.4
07B02:  BCF    xF8.5
07B04:  BCF    xF8.6
07B06:  BCF    xF8.7
07B08:  BCF    xF9.0
07B0A:  BCF    xF9.1
07B0C:  BCF    xF9.2
07B0E:  BCF    xF9.3
07B10:  BCF    xF9.4
07B12:  BCF    xF9.5
07B14:  BCF    xF9.6
07B16:  BCF    xF9.7
07B18:  BCF    xFA.0
07B1A:  BCF    xFA.1
07B1C:  BCF    xFA.2
07B1E:  BCF    xFA.3
07B20:  BCF    xFA.4
07B22:  BCF    xFA.5
07B24:  BCF    xFA.6
07B26:  BCF    xFA.7
07B28:  BCF    xFB.0
07B2A:  BCF    xFB.1
07B2C:  BCF    xFB.2
07B2E:  BCF    xFB.3
07B30:  BCF    xFB.4
07B32:  BCF    xFB.5
07B34:  BCF    xFB.6
07B36:  BCF    xFB.7
07B38:  BCF    xFC.0
07B3A:  BCF    xFC.1
07B3C:  BCF    xFC.2
07B3E:  MOVLW  02
07B40:  MOVWF  xFE
07B42:  MOVLW  58
07B44:  MOVWF  xFD
07B46:  MOVLB  1
07B48:  CLRF   x00
07B4A:  MOVLB  0
07B4C:  CLRF   xFF
07B4E:  MOVLB  1
07B50:  CLRF   x02
07B52:  CLRF   x01
07B54:  MOVLB  0
07B56:  BCF    xFC.3
07B58:  BCF    xFC.4
07B5A:  BCF    xFC.5
07B5C:  BCF    xFC.6
07B5E:  BCF    xFC.7
07B60:  MOVLB  1
07B62:  BCF    x03.0
07B64:  BCF    x03.1
07B66:  BCF    x03.2
07B68:  BCF    x03.3
07B6A:  BCF    x03.4
07B6C:  BCF    x03.5
07B6E:  BCF    x03.6
07B70:  BCF    x03.7
07B72:  BCF    x04.0
07B74:  BCF    x04.1
07B76:  BCF    x04.2
07B78:  BCF    x04.3
07B7A:  BCF    x04.4
07B7C:  BCF    x04.5
07B7E:  BCF    x04.6
07B80:  BCF    x04.7
07B82:  BCF    x05.0
07B84:  BCF    x05.1
07B86:  BCF    x05.2
07B88:  BCF    x05.3
07B8A:  BCF    x05.4
07B8C:  BCF    x05.5
07B8E:  BCF    x05.6
07B90:  BCF    x05.7
07B92:  BCF    x06.0
07B94:  BCF    x06.1
07B96:  BCF    x06.2
07B98:  BCF    x06.3
07B9A:  BCF    x06.4
07B9C:  BCF    x06.5
07B9E:  BCF    x06.6
07BA0:  BCF    x06.7
07BA2:  BCF    x07.0
07BA4:  BCF    x07.1
07BA6:  BCF    x07.2
07BA8:  BCF    x07.3
07BAA:  BCF    x07.4
07BAC:  BCF    x07.5
07BAE:  BCF    x07.6
07BB0:  BCF    x07.7
07BB2:  BCF    x08.0
07BB4:  BCF    x08.1
07BB6:  BCF    x08.2
07BB8:  BCF    x08.3
07BBA:  BCF    x08.4
07BBC:  BCF    x08.5
07BBE:  BCF    x08.6
07BC0:  BCF    x08.7
07BC2:  BCF    x09.0
07BC4:  BCF    x09.1
07BC6:  BCF    x09.2
07BC8:  BCF    x09.3
07BCA:  BCF    x09.4
07BCC:  BCF    x09.5
07BCE:  BCF    x09.6
07BD0:  BCF    x09.7
07BD2:  BCF    x0A.0
07BD4:  BCF    x0A.1
07BD6:  BCF    x0A.2
07BD8:  CLRF   x0C
07BDA:  CLRF   x0B
07BDC:  CLRF   x0E
07BDE:  CLRF   x0D
07BE0:  CLRF   x10
07BE2:  CLRF   x0F
07BE4:  CLRF   x12
07BE6:  CLRF   x11
07BE8:  CLRF   x14
07BEA:  CLRF   x13
07BEC:  CLRF   x16
07BEE:  CLRF   x15
07BF0:  CLRF   x18
07BF2:  CLRF   x17
07BF4:  CLRF   x1A
07BF6:  CLRF   x19
07BF8:  CLRF   x1C
07BFA:  CLRF   x1B
07BFC:  CLRF   x1E
07BFE:  CLRF   x1D
07C00:  CLRF   x20
07C02:  CLRF   x1F
07C04:  CLRF   x21
07C06:  CLRF   x22
07C08:  CLRF   x23
07C0A:  CLRF   x24
07C0C:  CLRF   x25
07C0E:  CLRF   x26
07C10:  CLRF   x27
07C12:  CLRF   x28
07C14:  CLRF   xCC
07C16:  CLRF   xCB
07C18:  CLRF   xCA
07C1A:  CLRF   xC9
07C1C:  CLRF   xD0
07C1E:  CLRF   xCF
07C20:  CLRF   xCE
07C22:  CLRF   xCD
07C24:  CLRF   xD4
07C26:  CLRF   xD3
07C28:  CLRF   xD2
07C2A:  CLRF   xD1
07C2C:  MOVLW  4A
07C2E:  MOVWF  xD8
07C30:  MOVLW  88
07C32:  MOVWF  xD7
07C34:  MOVLW  28
07C36:  MOVWF  xD6
07C38:  MOVLW  75
07C3A:  MOVWF  xD5
07C3C:  CLRF   xDC
07C3E:  MOVLW  80
07C40:  MOVWF  xDB
07C42:  MOVLW  54
07C44:  MOVWF  xDA
07C46:  MOVLW  8B
07C48:  MOVWF  xD9
07C4A:  CLRF   xE0
07C4C:  CLRF   xDF
07C4E:  CLRF   xDE
07C50:  CLRF   xDD
07C52:  CLRF   xE4
07C54:  CLRF   xE3
07C56:  CLRF   xE2
07C58:  CLRF   xE1
07C5A:  CLRF   xF0
07C5C:  CLRF   xEF
07C5E:  CLRF   xEE
07C60:  CLRF   xED
07C62:  CLRF   xF4
07C64:  CLRF   xF3
07C66:  CLRF   xF2
07C68:  CLRF   xF1
07C6A:  CLRF   xF5
07C6C:  CLRF   xF6
07C6E:  MOVLW  14
07C70:  MOVWF  xF7
07C72:  CLRF   xF8
07C74:  CLRF   xF9
07C76:  CLRF   xFA
07C78:  CLRF   xFB
07C7A:  CLRF   xFC
07C7C:  CLRF   xFD
07C7E:  CLRF   xFE
07C80:  MOVLB  2
07C82:  CLRF   x02
07C84:  CLRF   x01
07C86:  CLRF   x00
07C88:  MOVLB  1
07C8A:  CLRF   xFF
07C8C:  MOVLB  2
07C8E:  CLRF   x0A
07C90:  CLRF   x09
07C92:  MOVLW  20
07C94:  MOVWF  x08
07C96:  MOVLW  82
07C98:  MOVWF  x07
07C9A:  CLRF   x0E
07C9C:  CLRF   x0D
07C9E:  CLRF   x0C
07CA0:  CLRF   x0B
07CA2:  CLRF   x12
07CA4:  CLRF   x11
07CA6:  CLRF   x10
07CA8:  CLRF   x0F
07CAA:  CLRF   x16
07CAC:  CLRF   x15
07CAE:  CLRF   x14
07CB0:  CLRF   x13
07CB2:  CLRF   x1A
07CB4:  CLRF   x19
07CB6:  CLRF   x18
07CB8:  CLRF   x17
07CBA:  CLRF   x1E
07CBC:  CLRF   x1D
07CBE:  CLRF   x1C
07CC0:  CLRF   x1B
07CC2:  CLRF   x22
07CC4:  CLRF   x21
07CC6:  MOVLW  48
07CC8:  MOVWF  x20
07CCA:  MOVLW  83
07CCC:  MOVWF  x1F
07CCE:  CLRF   x26
07CD0:  CLRF   x25
07CD2:  MOVLW  20
07CD4:  MOVWF  x24
07CD6:  MOVLW  83
07CD8:  MOVWF  x23
07CDA:  CLRF   x2A
07CDC:  CLRF   x29
07CDE:  CLRF   x28
07CE0:  MOVLW  7F
07CE2:  MOVWF  x27
07CE4:  CLRF   x2E
07CE6:  CLRF   x2D
07CE8:  CLRF   x2C
07CEA:  CLRF   x2B
07CEC:  CLRF   x32
07CEE:  CLRF   x31
07CF0:  CLRF   x30
07CF2:  CLRF   x2F
07CF4:  CLRF   x36
07CF6:  CLRF   x35
07CF8:  CLRF   x34
07CFA:  CLRF   x33
07CFC:  CLRF   x3A
07CFE:  CLRF   x39
07D00:  CLRF   x38
07D02:  CLRF   x37
07D04:  CLRF   x3E
07D06:  CLRF   x3D
07D08:  CLRF   x3C
07D0A:  CLRF   x3B
07D0C:  CLRF   x42
07D0E:  CLRF   x41
07D10:  CLRF   x40
07D12:  CLRF   x3F
07D14:  MOVLW  E0
07D16:  MOVWF  x46
07D18:  MOVLW  2D
07D1A:  MOVWF  x45
07D1C:  MOVLW  10
07D1E:  MOVWF  x44
07D20:  MOVLW  75
07D22:  MOVWF  x43
07D24:  MOVLW  FF
07D26:  MOVWF  x4A
07D28:  MOVLW  21
07D2A:  MOVWF  x49
07D2C:  MOVLW  15
07D2E:  MOVWF  x48
07D30:  MOVLW  80
07D32:  MOVWF  x47
07D34:  MOVLW  82
07D36:  MOVWF  x4E
07D38:  MOVLW  12
07D3A:  MOVWF  x4D
07D3C:  MOVLW  F4
07D3E:  MOVWF  x4C
07D40:  MOVLW  86
07D42:  MOVWF  x4B
07D44:  CLRF   x4F
07D46:  CLRF   x50
07D48:  CLRF   x51
07D4A:  MOVLW  06
07D4C:  MOVWF  x52
07D4E:  MOVLW  11
07D50:  MOVWF  x53
07D52:  MOVLW  19
07D54:  MOVWF  x54
07D56:  MOVLW  B5
07D58:  MOVWF  x58
07D5A:  MOVLW  EB
07D5C:  MOVWF  x57
07D5E:  MOVLW  1B
07D60:  MOVWF  x56
07D62:  MOVLW  6B
07D64:  MOVWF  x55
07D66:  MOVLW  D0
07D68:  MOVWF  x5C
07D6A:  MOVLW  9B
07D6C:  MOVWF  x5B
07D6E:  MOVLW  8A
07D70:  MOVWF  x5A
07D72:  MOVLW  75
07D74:  MOVWF  x59
07D76:  MOVLW  1A
07D78:  MOVWF  x60
07D7A:  MOVLW  DD
07D7C:  MOVWF  x5F
07D7E:  MOVLW  61
07D80:  MOVWF  x5E
07D82:  MOVLW  7D
07D84:  MOVWF  x5D
07D86:  MOVLW  04
07D88:  MOVWF  x64
07D8A:  MOVLW  16
07D8C:  MOVWF  x63
07D8E:  MOVLW  02
07D90:  MOVWF  x62
07D92:  MOVLW  85
07D94:  MOVWF  x61
07D96:  CLRF   x68
07D98:  CLRF   x67
07D9A:  CLRF   x66
07D9C:  CLRF   x65
07D9E:  MOVLB  1
07DA0:  BCF    x0A.3
07DA2:  BCF    x0A.4
07DA4:  BCF    x0A.5
07DA6:  BCF    x0A.6
07DA8:  BCF    x0A.7
07DAA:  MOVLB  2
07DAC:  BCF    x69.0
07DAE:  CLRF   x6A
07DB0:  CLRF   x6B
07DB2:  CLRF   x6C
07DB4:  MOVLW  02
07DB6:  MOVWF  x6D
07DB8:  CLRF   x6E
07DBA:  MOVLW  01
07DBC:  MOVWF  x6F
07DBE:  CLRF   x70
07DC0:  CLRF   x71
07DC2:  CLRF   x72
07DC4:  CLRF   x73
07DC6:  CLRF   x74
07DC8:  MOVLW  F0
07DCA:  MOVWF  x75
07DCC:  CLRF   x76
07DCE:  CLRF   x77
07DD0:  CLRF   x78
07DD2:  CLRF   x79
07DD4:  CLRF   x7A
07DD6:  CLRF   x7C
07DD8:  MOVLW  04
07DDA:  MOVWF  x7B
07DDC:  CLRF   x7E
07DDE:  CLRF   x7D
07DE0:  CLRF   x80
07DE2:  CLRF   x7F
07DE4:  CLRF   x82
07DE6:  CLRF   x81
07DE8:  CLRF   x83
07DEA:  MOVLW  01
07DEC:  MOVWF  x84
07DEE:  MOVWF  x85
07DF0:  CLRF   x86
07DF2:  CLRF   x87
07DF4:  CLRF   x89
07DF6:  CLRF   x88
07DF8:  CLRF   x8B
07DFA:  CLRF   x8A
07DFC:  CLRF   x8D
07DFE:  CLRF   x8C
07E00:  CLRF   x8F
07E02:  CLRF   x8E
07E04:  CLRF   x91
07E06:  CLRF   x90
07E08:  CLRF   x93
07E0A:  CLRF   x92
07E0C:  CLRF   x95
07E0E:  CLRF   x94
07E10:  CLRF   x97
07E12:  CLRF   x96
07E14:  CLRF   x99
07E16:  CLRF   x98
07E18:  CLRF   x9B
07E1A:  CLRF   x9A
07E1C:  CLRF   x9D
07E1E:  CLRF   x9C
07E20:  CLRF   x9F
07E22:  CLRF   x9E
07E24:  CLRF   xA1
07E26:  CLRF   xA0
07E28:  CLRF   xA6
07E2A:  CLRF   xA7
07E2C:  CLRF   xA8
07E2E:  CLRF   xA9
07E30:  CLRF   xAA
07E32:  CLRF   xAB
07E34:  CLRF   xAC
07E36:  CLRF   xAD
07E38:  CLRF   xAE
07E3A:  CLRF   xAF
07E3C:  CLRF   xB0
07E3E:  CLRF   xB1
07E40:  CLRF   xB3
07E42:  CLRF   xB2
07E44:  CLRF   xB5
07E46:  CLRF   xB4
07E48:  CLRF   xB7
07E4A:  CLRF   xB6
07E4C:  MOVLW  12
07E4E:  MOVWF  xB8
07E50:  MOVLW  09
07E52:  MOVWF  xB9
07E54:  MOVLW  0D
07E56:  MOVWF  xBA
07E58:  CLRF   xBB
07E5A:  CLRF   xBC
07E5C:  CLRF   xBD
07E5E:  CLRF   xBE
07E60:  CLRF   xBF
07E62:  CLRF   xC0
07E64:  MOVLW  19
07E66:  MOVWF  xC1
07E68:  MOVLW  4B
07E6A:  MOVWF  xC2
07E6C:  MOVLW  0A
07E6E:  MOVWF  xC3
07E70:  CLRF   xC4
07E72:  CLRF   xC5
07E74:  CLRF   xC6
07E76:  CLRF   xC7
07E78:  CLRF   xC8
07E7A:  CLRF   xC9
07E7C:  CLRF   xCA
07E7E:  CLRF   xCB
07E80:  CLRF   xCC
07E82:  CLRF   xCD
07E84:  CLRF   xCE
07E86:  CLRF   xCF
07E88:  CLRF   xD0
07E8A:  CLRF   xD1
07E8C:  CLRF   xD2
07E8E:  CLRF   xD3
07E90:  CLRF   xD4
07E92:  MOVLB  3
07E94:  CLRF   x36
07E96:  CLRF   x37
07E98:  CLRF   x38
07E9A:  CLRF   x39
07E9C:  CLRF   x3A
07E9E:  MOVF   FC1,W
07EA0:  ANDLW  C0
07EA2:  IORLW  0F
07EA4:  MOVWF  FC1
07EA6:  MOVLW  07
07EA8:  MOVWF  FB4
07EAA:  CLRF   2A
07EAC:  CLRF   2B
07EAE:  MOVLB  0
07EB0:  CLRF   xE0
07EB2:  MOVLW  03
07EB4:  MOVWF  xE1
07EB6:  MOVWF  xE2
07EB8:  MOVLW  06
07EBA:  MOVWF  xE3
07EBC:  MOVLW  01
07EBE:  MOVWF  xE4
07EC0:  MOVLW  04
07EC2:  MOVWF  xE5
07EC4:  MOVLW  06
07EC6:  MOVWF  xE6
07EC8:  MOVLW  02
07ECA:  MOVWF  xE7
07ECC:  MOVLW  05
07ECE:  MOVWF  xE8
07ED0:  CLRF   xE9
07ED2:  MOVLW  03
07ED4:  MOVWF  xEA
07ED6:  MOVLW  05
07ED8:  MOVWF  xEB
07EDA:  CLRF   xEC
07EDC:  MOVLW  03
07EDE:  MOVWF  xED
07EE0:  MOVLW  04
07EE2:  MOVWF  xEE
07EE4:  CLRF   xEF
07EE6:  MOVLW  02
07EE8:  MOVWF  xF0
07EEA:  MOVLW  05
07EEC:  MOVWF  xF1
07EEE:  CLRF   xF2
07EF0:  MOVLW  03
07EF2:  MOVWF  xF3
07EF4:  MOVLW  06
07EF6:  MOVWF  xF4
07EF8:  MOVLW  01
07EFA:  MOVWF  xF5
07EFC:  MOVLW  04
07EFE:  MOVWF  xF6
07F00:  MOVLW  06
07F02:  MOVWF  xF7
07F04:  MOVLB  1
07F06:  CLRF   x29
07F08:  CLRF   x2A
07F0A:  CLRF   x2B
07F0C:  CLRF   x2C
07F0E:  CLRF   x2D
07F10:  CLRF   x2E
07F12:  CLRF   x2F
07F14:  CLRF   x30
07F16:  CLRF   x31
07F18:  CLRF   x32
07F1A:  CLRF   x33
07F1C:  CLRF   x34
07F1E:  CLRF   x35
07F20:  CLRF   x36
07F22:  CLRF   x37
07F24:  CLRF   x38
07F26:  CLRF   x39
07F28:  CLRF   x3A
07F2A:  CLRF   x3B
07F2C:  CLRF   x3C
07F2E:  CLRF   x3D
07F30:  CLRF   x3E
07F32:  CLRF   x3F
07F34:  CLRF   x40
07F36:  CLRF   x41
07F38:  CLRF   x42
07F3A:  CLRF   x43
07F3C:  CLRF   x44
07F3E:  CLRF   x45
07F40:  CLRF   x46
07F42:  CLRF   x47
07F44:  CLRF   x48
07F46:  CLRF   x49
07F48:  CLRF   x4A
07F4A:  CLRF   x4B
07F4C:  CLRF   x4C
07F4E:  CLRF   x4D
07F50:  CLRF   x4E
07F52:  CLRF   x4F
07F54:  CLRF   x50
07F56:  CLRF   x51
07F58:  CLRF   x52
07F5A:  CLRF   x53
07F5C:  CLRF   x54
07F5E:  CLRF   x55
07F60:  CLRF   x56
07F62:  CLRF   x57
07F64:  CLRF   x58
07F66:  CLRF   x59
07F68:  CLRF   x5A
07F6A:  CLRF   x5B
07F6C:  CLRF   x5C
07F6E:  CLRF   x5D
07F70:  CLRF   x5E
07F72:  CLRF   x5F
07F74:  CLRF   x60
07F76:  CLRF   x61
07F78:  CLRF   x62
07F7A:  CLRF   x63
07F7C:  CLRF   x64
07F7E:  CLRF   x65
07F80:  CLRF   x66
07F82:  CLRF   x67
07F84:  CLRF   x68
07F86:  CLRF   x69
07F88:  CLRF   x6A
07F8A:  CLRF   x6B
07F8C:  CLRF   x6C
07F8E:  CLRF   x6D
07F90:  CLRF   x6E
07F92:  CLRF   x6F
07F94:  CLRF   x70
07F96:  CLRF   x71
07F98:  CLRF   x72
07F9A:  CLRF   x73
07F9C:  CLRF   x74
07F9E:  CLRF   x75
07FA0:  CLRF   x76
07FA2:  CLRF   x77
07FA4:  CLRF   x78
07FA6:  CLRF   x79
07FA8:  CLRF   x7A
07FAA:  CLRF   x7B
07FAC:  CLRF   x7C
07FAE:  CLRF   x7D
07FB0:  CLRF   x7E
07FB2:  CLRF   x7F
07FB4:  CLRF   x80
07FB6:  CLRF   x81
07FB8:  CLRF   x82
07FBA:  CLRF   x83
07FBC:  CLRF   x84
07FBE:  CLRF   x85
07FC0:  CLRF   x86
07FC2:  CLRF   x87
07FC4:  CLRF   x88
07FC6:  CLRF   x89
07FC8:  CLRF   x8A
07FCA:  CLRF   x8B
07FCC:  CLRF   x8C
07FCE:  CLRF   x8D
07FD0:  CLRF   x8E
07FD2:  CLRF   x8F
07FD4:  CLRF   x90
07FD6:  CLRF   x91
07FD8:  CLRF   x92
07FDA:  CLRF   x93
07FDC:  CLRF   x94
07FDE:  CLRF   x95
07FE0:  CLRF   x96
07FE2:  CLRF   x97
07FE4:  CLRF   x98
07FE6:  CLRF   x99
07FE8:  CLRF   x9A
07FEA:  CLRF   x9B
07FEC:  CLRF   x9C
07FEE:  CLRF   x9D
07FF0:  CLRF   x9E
07FF2:  CLRF   x9F
07FF4:  CLRF   xA0
07FF6:  CLRF   xA1
07FF8:  CLRF   xA2
07FFA:  CLRF   xA3
07FFC:  CLRF   xA4
07FFE:  CLRF   xA5
08000:  CLRF   xA6
08002:  CLRF   xA7
08004:  CLRF   xA8
08006:  CLRF   xA9
08008:  CLRF   xAA
0800A:  CLRF   xAB
0800C:  CLRF   xAC
0800E:  CLRF   xAD
08010:  CLRF   xAE
08012:  CLRF   xAF
08014:  CLRF   xB0
08016:  CLRF   xB1
08018:  CLRF   xB2
0801A:  CLRF   xB3
0801C:  CLRF   xB4
0801E:  CLRF   xB5
08020:  CLRF   xB6
08022:  CLRF   xB7
08024:  CLRF   xB8
08026:  CLRF   xB9
08028:  CLRF   xBA
0802A:  CLRF   xBB
0802C:  CLRF   xBC
0802E:  CLRF   xBD
08030:  CLRF   xBE
08032:  CLRF   xBF
08034:  CLRF   xC0
08036:  CLRF   xC1
08038:  CLRF   xC2
0803A:  CLRF   xC3
0803C:  CLRF   xC4
0803E:  CLRF   xC5
08040:  CLRF   xC6
08042:  CLRF   xC7
08044:  CLRF   xC8
08046:  CLRF   xE5
08048:  CLRF   xE6
0804A:  CLRF   xE7
0804C:  CLRF   xE8
0804E:  CLRF   xE9
08050:  CLRF   xEA
08052:  CLRF   xEB
08054:  CLRF   xEC
08056:  MOVLB  2
08058:  CLRF   xA2
0805A:  CLRF   xA3
0805C:  CLRF   xA4
0805E:  CLRF   xA5
08060:  MOVLB  3
08062:  CLRF   x3B
08064:  CLRF   x3C
08066:  CLRF   x3D
08068:  CLRF   x3E
....................    setup_timer_1(T1_INTERNAL|T1_DIV_BY_1); 
0806A:  MOVLW  85
0806C:  MOVWF  FCD
....................    enable_interrupts(INT_TIMER1); 
0806E:  BSF    F9D.0
....................    setup_adc(ADC_CLOCK_DIV_64); 
08070:  MOVF   FC0,W
08072:  ANDLW  C0
08074:  IORLW  06
08076:  MOVWF  FC0
08078:  BSF    FC0.7
0807A:  BSF    FC2.0
....................    setup_adc_ports(AN0_TO_AN5); 
0807C:  MOVF   FC1,W
0807E:  ANDLW  C0
08080:  IORLW  09
08082:  MOVWF  FC1
....................    port_b_pullups(true); 
08084:  BCF    FF1.7
....................    enable_interrupts(int_rda); 
08086:  BSF    F9D.5
....................    setup_wdt(WDT_ON); 
08088:  BSF    FD1.0
....................    enable_interrupts(global); 
0808A:  MOVLW  C0
0808C:  IORWF  FF2,F
....................    LeeEEPROM(); 
0808E:  MOVLB  0
08090:  GOTO   28B4
....................    rtc_init(); 
08094:  GOTO   3CD4
....................    delay_ms(1); 
08098:  MOVLW  01
0809A:  MOVLB  6
0809C:  MOVWF  xE1
0809E:  MOVLB  0
080A0:  CALL   21DE
....................    LimitaValores(); 
080A4:  GOTO   3D74
....................    printf("page Bienvenida"); 
080A8:  MOVLW  EA
080AA:  MOVWF  FF6
080AC:  MOVLW  07
080AE:  MOVWF  FF7
080B0:  MOVLW  00
080B2:  MOVWF  FF8
080B4:  CALL   43FC
....................    SendDataDisplay(); 
080B8:  CALL   442E
....................    printf("bkcmd=0"); 
080BC:  MOVLW  FA
080BE:  MOVWF  FF6
080C0:  MOVLW  07
080C2:  MOVWF  FF7
080C4:  MOVLW  00
080C6:  MOVWF  FF8
080C8:  CALL   43FC
....................    SendDataDisplay(); 
080CC:  CALL   442E
....................    delay_ms(3500);  
080D0:  MOVLW  0E
080D2:  MOVLB  6
080D4:  MOVWF  xCF
080D6:  MOVLW  FA
080D8:  MOVWF  xE1
080DA:  MOVLB  0
080DC:  CALL   21DE
080E0:  MOVLB  6
080E2:  DECFSZ xCF,F
080E4:  BRA    80D6
....................    printf("page Usuarios"); 
080E6:  MOVLW  02
080E8:  MOVWF  FF6
080EA:  MOVLW  08
080EC:  MOVWF  FF7
080EE:  MOVLW  00
080F0:  MOVWF  FF8
080F2:  MOVLB  0
080F4:  CALL   43FC
....................    SendDataDisplay(); 
080F8:  CALL   442E
....................    ApagaSalidas();    
080FC:  CALL   4464
....................    TiempoVacio=840;  
08100:  MOVLW  03
08102:  MOVWF  xFE
08104:  MOVLW  48
08106:  MOVWF  xFD
....................    Sensor[0].Gain=106.07; 
08108:  MOVLW  D7
0810A:  MOVLB  4
0810C:  MOVWF  xA2
0810E:  MOVLW  23
08110:  MOVWF  xA1
08112:  MOVLW  54
08114:  MOVWF  xA0
08116:  MOVLW  85
08118:  MOVWF  x9F
....................    Sensor[1].Gain=106.07; 
0811A:  MOVLW  D7
0811C:  MOVLB  6
0811E:  MOVWF  x06
08120:  MOVLW  23
08122:  MOVWF  x05
08124:  MOVLW  54
08126:  MOVWF  x04
08128:  MOVLW  85
0812A:  MOVWF  x03
....................    Imprime=10; 
0812C:  MOVLW  0A
0812E:  MOVLB  2
08130:  MOVWF  xCC
....................    CalculoImpresion=timpresion*60; 
08132:  MOVF   x6D,W
08134:  MULLW  3C
08136:  MOVFF  FF3,26E
....................     
....................    for(i=0;i<MediaMovil;i++){ 
0813A:  CLRF   x76
0813C:  MOVLB  1
0813E:  MOVF   xF7,W
08140:  MOVLB  2
08142:  SUBWF  x76,W
08144:  BC    81DA
....................       Temperatura=LeerPT100(0,MediaMovil); 
08146:  MOVLB  6
08148:  CLRF   xD1
0814A:  MOVFF  1F7,6D2
0814E:  MOVLB  0
08150:  CALL   45BA
08154:  MOVFF  03,23E
08158:  MOVFF  02,23D
0815C:  MOVFF  01,23C
08160:  MOVFF  00,23B
....................       Temperatura2=LeerPT100(1,MediaMovil); 
08164:  MOVLW  01
08166:  MOVLB  6
08168:  MOVWF  xD1
0816A:  MOVFF  1F7,6D2
0816E:  MOVLB  0
08170:  CALL   45BA
08174:  MOVFF  03,242
08178:  MOVFF  02,241
0817C:  MOVFF  01,240
08180:  MOVFF  00,23F
....................       PresionCamara=Leer_Sensor_Presion_Camara(20); 
08184:  MOVLW  14
08186:  MOVLB  6
08188:  MOVWF  xD1
0818A:  MOVLB  0
0818C:  CALL   4E9A
08190:  MOVFF  03,6E4
08194:  MOVFF  02,6E3
08198:  MOVFF  01,6E2
0819C:  MOVFF  00,6E1
081A0:  CALL   5098
081A4:  MOVFF  02,295
081A8:  MOVFF  01,294
....................       PresionPreCamara=Leer_Sensor_Presion_PreCamara(20); 
081AC:  MOVLW  14
081AE:  MOVLB  6
081B0:  MOVWF  xD1
081B2:  MOVLB  0
081B4:  CALL   50D4
081B8:  MOVFF  03,6E4
081BC:  MOVFF  02,6E3
081C0:  MOVFF  01,6E2
081C4:  MOVFF  00,6E1
081C8:  CALL   5098
081CC:  MOVFF  02,297
081D0:  MOVFF  01,296
....................    } 
081D4:  MOVLB  2
081D6:  INCF   x76,F
081D8:  BRA    813C
....................    seguroValvula=OFF; 
081DA:  MOVLB  0
081DC:  BCF    xF9.1
....................    seguroValvula2=OFF; 
081DE:  BCF    xF9.2
....................    if(!DOORS){ 
081E0:  BSF    F93.1
081E2:  BTFSS  F81.1
081E4:  BRA    81EC
....................       abrePuertaS(); 
081E6:  GOTO   52D2
....................    }else{ 
081EA:  BRA    81F0
....................       cierraPuertaS(); 
081EC:  GOTO   533C
....................    } 
....................           
....................    //if(ingreso){ 
....................    if(!DOORL){ 
081F0:  BTFSC  30.1
081F2:  BRA    81FA
....................       //abrePuertaL(); 
....................       monitoreaPuertaLimpio(); 
081F4:  GOTO   541A
....................    }else{ 
081F8:  BRA    81FE
....................       cierraPuertaL(); 
081FA:  CALL   5378
....................    } 
....................     
....................    while(true){ 
....................        
....................       LeeDisplay(); 
081FE:  GOTO   54B2
....................       Envio_Esclavos(); 
08202:  CALL   59DA
....................       delay_ms(10); 
08206:  MOVLW  0A
08208:  MOVLB  6
0820A:  MOVWF  xE1
0820C:  MOVLB  0
0820E:  CALL   21DE
....................       Lectura_Esclavos(); 
08212:  GOTO   5AAA
....................       rtc_get_date(Dia,Mes,Year,dow); 
....................       rtc_get_time(Hora,Minuto,Segundo); 
....................       restart_wdt(); 
*
082DA:  CLRWDT
....................       if(!Esterilizando || Desfogando){ 
082DC:  MOVLB  1
082DE:  BTFSS  x03.7
082E0:  BRA    82E6
082E2:  BTFSS  x04.2
082E4:  BRA    82F0
....................          CalculoImpresion=180; 
082E6:  MOVLW  B4
082E8:  MOVLB  2
082EA:  MOVWF  x6E
....................       }else{ 
082EC:  BRA    82F6
082EE:  MOVLB  1
....................          CalculoImpresion=60; 
082F0:  MOVLW  3C
082F2:  MOVLB  2
082F4:  MOVWF  x6E
....................       } 
....................        
....................       graficaCurva(2000); 
082F6:  MOVLW  07
082F8:  MOVLB  6
082FA:  MOVWF  xD0
082FC:  MOVLW  D0
082FE:  MOVWF  xCF
08300:  MOVLB  0
08302:  GOTO   5C56
....................       muestreo(20); 
08306:  MOVLB  6
08308:  CLRF   xD0
0830A:  MOVLW  14
0830C:  MOVWF  xCF
0830E:  MOVLB  0
08310:  GOTO   5C7C
....................       monitoreaAgua(); 
08314:  GOTO   5D2C
....................       monitoreaStop(); 
08318:  GOTO   5E12
....................        
....................       /* 
....................       if(Menu!=20 && !PruebaEstados){ 
....................          if(!DOORS){ 
....................             abrePuertaS(); 
....................          }else{ 
....................             cierraPuertaS(); 
....................          } 
....................           
....................          //if(ingreso){ 
....................             if(!DOORL){ 
....................                //abrePuertaL(); 
....................                monitoreaPuertaLimpio(); 
....................             }else{ 
....................                cierraPuertaL(); 
....................             } 
....................          //} 
....................       } 
....................        
....................       if(ingreso && !PruebaEstados) 
....................          monitoreaPuertaLimpio(); 
....................           
....................       if(PresionCamara>Atmosferica+15){ 
....................          cierraPuertaS(); 
....................          cierraPuertaL(); 
....................       } 
....................       */ 
....................  
....................  
.................... //_-------------------------------------------------------------------------------------------------------------------------------------------------------- 
....................    if(Menu==240){ //Menu de Bienvenida. 
0831C:  MOVLB  2
0831E:  MOVF   x73,W
08320:  SUBLW  F0
08322:  BNZ   8370
....................       printf("bkcmd=0"); 
08324:  MOVLW  10
08326:  MOVWF  FF6
08328:  MOVLW  08
0832A:  MOVWF  FF7
0832C:  MOVLW  00
0832E:  MOVWF  FF8
08330:  MOVLB  0
08332:  CALL   43FC
....................       SendDataDisplay(); 
08336:  CALL   442E
....................       delay_ms(1500); 
0833A:  MOVLW  06
0833C:  MOVLB  6
0833E:  MOVWF  xCF
08340:  MOVLW  FA
08342:  MOVWF  xE1
08344:  MOVLB  0
08346:  CALL   21DE
0834A:  MOVLB  6
0834C:  DECFSZ xCF,F
0834E:  BRA    8340
....................       printf("page Usuarios"); 
08350:  MOVLW  18
08352:  MOVWF  FF6
08354:  MOVLW  08
08356:  MOVWF  FF7
08358:  MOVLW  00
0835A:  MOVWF  FF8
0835C:  MOVLB  0
0835E:  CALL   43FC
....................       SendDataDisplay(); 
08362:  CALL   442E
....................       ApagaSalidas(); 
08366:  CALL   4464
....................    }else if(Menu==0){ //Menu de Contrasea de acceso. 
0836A:  GOTO   F9E8
0836E:  MOVLB  2
08370:  MOVF   x73,F
08372:  BTFSS  FD8.2
08374:  BRA    89AC
....................       entro=OFF; 
08376:  MOVLB  1
08378:  BCF    x09.5
....................       ApagaSalidas(); 
0837A:  MOVLB  0
0837C:  CALL   4464
....................       //printf("bkcmd=0"); 
....................       //SendDataDisplay(); 
....................       if(RX_Buffer[4]==0x11){//11 
08380:  MOVF   35,W
08382:  SUBLW  11
08384:  BNZ   83A6
....................          if(TipoClave!=0){ 
08386:  MOVLB  1
08388:  MOVF   xF9,F
0838A:  BZ    83A6
....................             printf("page Menu"); 
0838C:  MOVLW  26
0838E:  MOVWF  FF6
08390:  MOVLW  08
08392:  MOVWF  FF7
08394:  MOVLW  00
08396:  MOVWF  FF8
08398:  MOVLB  0
0839A:  CALL   43FC
....................             SendDataDisplay(); 
0839E:  CALL   442E
....................             PantallaPrincipal=0; 
083A2:  MOVLB  1
083A4:  CLRF   xF8
....................          } 
....................       } 
....................        
....................       if(TipoClave==3){ 
083A6:  MOVLB  1
083A8:  MOVF   xF9,W
083AA:  SUBLW  03
083AC:  BNZ   83C6
....................          printf("titulo.txt=\"Clave Nueva\""); 
083AE:  MOVLW  30
083B0:  MOVWF  FF6
083B2:  MOVLW  08
083B4:  MOVWF  FF7
083B6:  MOVLW  00
083B8:  MOVWF  FF8
083BA:  MOVLB  0
083BC:  CALL   43FC
....................          SendDataDisplay(); 
083C0:  CALL   442E
083C4:  MOVLB  1
....................       } 
....................        
....................       if(TipoClave==2){ 
083C6:  MOVF   xF9,W
083C8:  SUBLW  02
083CA:  BNZ   83E4
....................          printf("titulo.txt=\"Clave Actual\""); 
083CC:  MOVLW  4A
083CE:  MOVWF  FF6
083D0:  MOVLW  08
083D2:  MOVWF  FF7
083D4:  MOVLW  00
083D6:  MOVWF  FF8
083D8:  MOVLB  0
083DA:  CALL   43FC
....................          SendDataDisplay();         
083DE:  CALL   442E
083E2:  MOVLB  1
....................       } 
....................        
....................       if(TipoClave==1){ 
083E4:  DECFSZ xF9,W
083E6:  BRA    8400
....................          printf("titulo.txt=\"Clave Tecnico\""); 
083E8:  MOVLW  64
083EA:  MOVWF  FF6
083EC:  MOVLW  08
083EE:  MOVWF  FF7
083F0:  MOVLW  00
083F2:  MOVWF  FF8
083F4:  MOVLB  0
083F6:  CALL   43FC
....................          SendDataDisplay(); 
083FA:  CALL   442E
083FE:  MOVLB  1
....................       } 
....................        
....................       if(TipoClave==0){ 
08400:  MOVF   xF9,F
08402:  BNZ   8436
....................          printf("titulo.txt=\"%s\"",usuario); 
08404:  MOVLW  80
08406:  MOVWF  FF6
08408:  MOVLW  08
0840A:  MOVWF  FF7
0840C:  MOVLW  00
0840E:  MOVWF  FF8
08410:  MOVLW  0C
08412:  MOVLB  6
08414:  MOVWF  xD4
08416:  MOVLB  0
08418:  CALL   5E96
0841C:  MOVLW  02
0841E:  MOVWF  FEA
08420:  MOVLW  D5
08422:  MOVWF  FE9
08424:  CALL   5EC8
08428:  MOVLW  22
0842A:  BTFSS  F9E.4
0842C:  BRA    842A
0842E:  MOVWF  FAD
....................          SendDataDisplay(); 
08430:  CALL   442E
08434:  MOVLB  1
....................       } 
....................        
....................       if(RX_Buffer[4]==0x11){//11, Regresar 
08436:  MOVF   35,W
08438:  SUBLW  11
0843A:  BNZ   8472
....................          if(TipoClave==1){ 
0843C:  DECFSZ xF9,W
0843E:  BRA    845A
....................             printf("page Ajustes"); 
08440:  MOVLW  90
08442:  MOVWF  FF6
08444:  MOVLW  08
08446:  MOVWF  FF7
08448:  MOVLW  00
0844A:  MOVWF  FF8
0844C:  MOVLB  0
0844E:  CALL   43FC
....................             SendDataDisplay();        
08452:  CALL   442E
....................          }else{ 
08456:  BRA    8470
08458:  MOVLB  1
....................             printf("page Usuarios"); 
0845A:  MOVLW  9E
0845C:  MOVWF  FF6
0845E:  MOVLW  08
08460:  MOVWF  FF7
08462:  MOVLW  00
08464:  MOVWF  FF8
08466:  MOVLB  0
08468:  CALL   43FC
....................             SendDataDisplay();        
0846C:  CALL   442E
08470:  MOVLB  1
....................          } 
....................       } 
....................        
....................       if(RX_Buffer[3]==0x0f){//0f, recibe caracteres ingresados desde el Display 
08472:  MOVF   34,W
08474:  SUBLW  0F
08476:  BTFSS  FD8.2
08478:  BRA    89A4
....................          delay_ms(800); 
0847A:  MOVLW  04
0847C:  MOVLB  6
0847E:  MOVWF  xCF
08480:  MOVLW  C8
08482:  MOVWF  xE1
08484:  MOVLB  0
08486:  CALL   21DE
0848A:  MOVLB  6
0848C:  DECFSZ xCF,F
0848E:  BRA    8480
....................          if(TipoClave==0){ 
08490:  MOVLB  1
08492:  MOVF   xF9,F
08494:  BTFSS  FD8.2
08496:  BRA    864A
....................             if(RX_Buffer[4]==0x33&&RX_Buffer[5]==0x38&&RX_Buffer[6]==0x39&&RX_Buffer[7]==0x32 &&RX_Buffer[8]==0x00 &&RX_Buffer[9]==0xff){ // Si Ingresa clave para reset general del sistema. 
08498:  MOVF   35,W
0849A:  SUBLW  33
0849C:  BNZ   8516
0849E:  MOVF   36,W
084A0:  SUBLW  38
084A2:  BNZ   8516
084A4:  MOVF   37,W
084A6:  SUBLW  39
084A8:  BNZ   8516
084AA:  MOVF   38,W
084AC:  SUBLW  32
084AE:  BNZ   8516
084B0:  MOVF   39,F
084B2:  BNZ   8516
084B4:  INCFSZ 3A,W
084B6:  BRA    8516
....................                for(i=0;i<40;i++){//Lee contraseas de usuarios 
084B8:  MOVLB  2
084BA:  CLRF   x76
084BC:  MOVF   x76,W
084BE:  SUBLW  27
084C0:  BNC   8512
....................                   write_eeprom(300+i,0);delay_ms(20); 
084C2:  MOVLW  2C
084C4:  ADDWF  x76,W
084C6:  MOVLB  6
084C8:  MOVWF  xCF
084CA:  MOVLW  01
084CC:  MOVWF  xD0
084CE:  BTFSC  FD8.0
084D0:  INCF   xD0,F
084D2:  MOVFF  6D0,FAA
084D6:  MOVFF  6CF,FA9
084DA:  CLRF   FA8
084DC:  BCF    FA6.6
084DE:  BCF    FA6.7
084E0:  BSF    FA6.2
084E2:  MOVF   FF2,W
084E4:  MOVWF  00
084E6:  BCF    FF2.6
084E8:  BCF    FF2.7
084EA:  MOVLB  F
084EC:  MOVLW  55
084EE:  MOVWF  FA7
084F0:  MOVLW  AA
084F2:  MOVWF  FA7
084F4:  BSF    FA6.1
084F6:  BTFSC  FA6.1
084F8:  BRA    84F6
084FA:  BCF    FA6.2
084FC:  MOVF   00,W
084FE:  IORWF  FF2,F
08500:  MOVLW  14
08502:  MOVLB  6
08504:  MOVWF  xE1
08506:  MOVLB  0
08508:  CALL   21DE
....................                } 
0850C:  MOVLB  2
0850E:  INCF   x76,F
08510:  BRA    84BC
....................                reset_cpu(); 
08512:  RESET
08514:  MOVLB  1
....................             } 
....................              
....................             if(RX_Buffer[4]>=0x30 && RX_Buffer[5]>=0x30 && RX_Buffer[6]>=0x30 && RX_Buffer[7]>=0x30 
....................             && RX_Buffer[4]<=0x39 && RX_Buffer[5]<=0x39 && RX_Buffer[6]<=0x39 && RX_Buffer[7]<=0x39){ 
08516:  MOVF   35,W
08518:  SUBLW  2F
0851A:  BTFSC  FD8.0
0851C:  BRA    8648
0851E:  MOVF   36,W
08520:  SUBLW  2F
08522:  BTFSC  FD8.0
08524:  BRA    8648
08526:  MOVF   37,W
08528:  SUBLW  2F
0852A:  BTFSC  FD8.0
0852C:  BRA    8648
0852E:  MOVF   38,W
08530:  SUBLW  2F
08532:  BTFSC  FD8.0
08534:  BRA    8648
08536:  MOVF   35,W
08538:  SUBLW  39
0853A:  BTFSS  FD8.0
0853C:  BRA    8648
0853E:  MOVF   36,W
08540:  SUBLW  39
08542:  BTFSS  FD8.0
08544:  BRA    8648
08546:  MOVF   37,W
08548:  SUBLW  39
0854A:  BTFSS  FD8.0
0854C:  BRA    8648
0854E:  MOVF   38,W
08550:  SUBLW  39
08552:  BTFSS  FD8.0
08554:  BRA    8648
....................                if((RX_Buffer[4]==Clave[codigoUsuario].Password[0]+0x30)&&(RX_Buffer[5]==Clave[codigoUsuario].Password[1]+0x30)&& 
....................                (RX_Buffer[6]==Clave[codigoUsuario].Password[2]+0x30)&&(RX_Buffer[7]==Clave[codigoUsuario].Password[3]+0x30) 
....................                &&RX_Buffer[8]==0x00 &&RX_Buffer[9]==0xff){ 
08556:  MOVLB  2
08558:  MOVF   xCF,W
0855A:  MULLW  04
0855C:  MOVF   FF3,W
0855E:  MOVLB  6
08560:  CLRF   xD0
08562:  MOVWF  xCF
08564:  MOVLW  A7
08566:  ADDWF  xCF,W
08568:  MOVWF  FE9
0856A:  MOVLW  06
0856C:  ADDWFC xD0,W
0856E:  MOVWF  FEA
08570:  MOVLW  30
08572:  ADDWF  FEF,W
08574:  SUBWF  35,W
08576:  BNZ   862C
08578:  MOVLB  2
0857A:  MOVF   xCF,W
0857C:  MULLW  04
0857E:  MOVF   FF3,W
08580:  MOVLB  6
08582:  CLRF   xD0
08584:  MOVWF  xCF
08586:  MOVLW  01
08588:  ADDWF  xCF,W
0858A:  MOVWF  01
0858C:  MOVLW  00
0858E:  ADDWFC xD0,W
08590:  MOVWF  03
08592:  MOVF   01,W
08594:  ADDLW  A7
08596:  MOVWF  FE9
08598:  MOVLW  06
0859A:  ADDWFC 03,W
0859C:  MOVWF  FEA
0859E:  MOVLW  30
085A0:  ADDWF  FEF,W
085A2:  SUBWF  36,W
085A4:  BNZ   862C
085A6:  MOVLB  2
085A8:  MOVF   xCF,W
085AA:  MULLW  04
085AC:  MOVF   FF3,W
085AE:  MOVLB  6
085B0:  CLRF   xD0
085B2:  MOVWF  xCF
085B4:  MOVLW  02
085B6:  ADDWF  xCF,W
085B8:  MOVWF  01
085BA:  MOVLW  00
085BC:  ADDWFC xD0,W
085BE:  MOVWF  03
085C0:  MOVF   01,W
085C2:  ADDLW  A7
085C4:  MOVWF  FE9
085C6:  MOVLW  06
085C8:  ADDWFC 03,W
085CA:  MOVWF  FEA
085CC:  MOVLW  30
085CE:  ADDWF  FEF,W
085D0:  SUBWF  37,W
085D2:  BNZ   862C
085D4:  MOVLB  2
085D6:  MOVF   xCF,W
085D8:  MULLW  04
085DA:  MOVF   FF3,W
085DC:  MOVLB  6
085DE:  CLRF   xD0
085E0:  MOVWF  xCF
085E2:  MOVLW  03
085E4:  ADDWF  xCF,W
085E6:  MOVWF  01
085E8:  MOVLW  00
085EA:  ADDWFC xD0,W
085EC:  MOVWF  03
085EE:  MOVF   01,W
085F0:  ADDLW  A7
085F2:  MOVWF  FE9
085F4:  MOVLW  06
085F6:  ADDWFC 03,W
085F8:  MOVWF  FEA
085FA:  MOVLW  30
085FC:  ADDWF  FEF,W
085FE:  SUBWF  38,W
08600:  BNZ   862C
08602:  MOVF   39,F
08604:  BNZ   862C
08606:  INCFSZ 3A,W
08608:  BRA    862C
....................                   printf("page ClaveCorrecta"); 
0860A:  MOVLW  AC
0860C:  MOVWF  FF6
0860E:  MOVLW  08
08610:  MOVWF  FF7
08612:  MOVLW  00
08614:  MOVWF  FF8
08616:  MOVLB  0
08618:  CALL   43FC
....................                   SendDataDisplay(); 
0861C:  CALL   442E
....................                   ingreso=ON; 
08620:  MOVLB  1
08622:  BSF    x07.5
....................                   RX_Buffer[3]=0x00;RX_Buffer2[3]=0x00;   
08624:  CLRF   34
08626:  CLRF   3F
....................                }else{ 
08628:  BRA    8648
0862A:  MOVLB  6
....................                   printf("page ClaveBad"); 
0862C:  MOVLW  C0
0862E:  MOVWF  FF6
08630:  MOVLW  08
08632:  MOVWF  FF7
08634:  MOVLW  00
08636:  MOVWF  FF8
08638:  MOVLB  0
0863A:  CALL   43FC
....................                   SendDataDisplay(); 
0863E:  CALL   442E
....................                   RX_Buffer[3]=0x00;RX_Buffer2[3]=0x00;   
08642:  CLRF   34
08644:  CLRF   3F
08646:  MOVLB  1
....................                }  
....................             } 
....................          }else if(TipoClave==1){ 
08648:  BRA    89A4
0864A:  DECFSZ xF9,W
0864C:  BRA    86AA
....................             if(RX_Buffer[4]==0x34&&RX_Buffer[5]==0x34&&RX_Buffer[6]==0x34&&RX_Buffer[7]==0x34&&RX_Buffer[8]==0x00 &&RX_Buffer[9]==0xff){ // Si Ingresa clave de Servicio Tecnico 
0864E:  MOVF   35,W
08650:  SUBLW  34
08652:  BNZ   868C
08654:  MOVF   36,W
08656:  SUBLW  34
08658:  BNZ   868C
0865A:  MOVF   37,W
0865C:  SUBLW  34
0865E:  BNZ   868C
08660:  MOVF   38,W
08662:  SUBLW  34
08664:  BNZ   868C
08666:  MOVF   39,F
08668:  BNZ   868C
0866A:  INCFSZ 3A,W
0866C:  BRA    868C
....................                printf("page Config"); 
0866E:  MOVLW  CE
08670:  MOVWF  FF6
08672:  MOVLW  08
08674:  MOVWF  FF7
08676:  MOVLW  00
08678:  MOVWF  FF8
0867A:  MOVLB  0
0867C:  CALL   43FC
....................                SendDataDisplay(); 
08680:  CALL   442E
....................                RX_Buffer[3]=0x00;RX_Buffer2[3]=0x00;   
08684:  CLRF   34
08686:  CLRF   3F
....................             }else{ 
08688:  BRA    86A6
0868A:  MOVLB  1
....................                printf("page Menu"); 
0868C:  MOVLW  DA
0868E:  MOVWF  FF6
08690:  MOVLW  08
08692:  MOVWF  FF7
08694:  MOVLW  00
08696:  MOVWF  FF8
08698:  MOVLB  0
0869A:  CALL   43FC
....................                SendDataDisplay(); 
0869E:  CALL   442E
....................                RX_Buffer[3]=0x00;RX_Buffer2[3]=0x00;   
086A2:  CLRF   34
086A4:  CLRF   3F
....................             } 
....................          }else if(TipoClave==2){ 
086A6:  BRA    89A6
086A8:  MOVLB  1
086AA:  MOVF   xF9,W
086AC:  SUBLW  02
086AE:  BTFSS  FD8.2
086B0:  BRA    8800
....................             if(RX_Buffer[4]>=0x30 && RX_Buffer[5]>=0x30 && RX_Buffer[6]>=0x30 && RX_Buffer[7]>=0x30 
....................             && RX_Buffer[4]<=0x39 && RX_Buffer[5]<=0x39 && RX_Buffer[6]<=0x39 && RX_Buffer[7]<=0x39){ 
086B2:  MOVF   35,W
086B4:  SUBLW  2F
086B6:  BTFSC  FD8.0
086B8:  BRA    87FE
086BA:  MOVF   36,W
086BC:  SUBLW  2F
086BE:  BTFSC  FD8.0
086C0:  BRA    87FE
086C2:  MOVF   37,W
086C4:  SUBLW  2F
086C6:  BTFSC  FD8.0
086C8:  BRA    87FE
086CA:  MOVF   38,W
086CC:  SUBLW  2F
086CE:  BTFSC  FD8.0
086D0:  BRA    87FE
086D2:  MOVF   35,W
086D4:  SUBLW  39
086D6:  BTFSS  FD8.0
086D8:  BRA    87FE
086DA:  MOVF   36,W
086DC:  SUBLW  39
086DE:  BTFSS  FD8.0
086E0:  BRA    87FE
086E2:  MOVF   37,W
086E4:  SUBLW  39
086E6:  BTFSS  FD8.0
086E8:  BRA    87FE
086EA:  MOVF   38,W
086EC:  SUBLW  39
086EE:  BTFSS  FD8.0
086F0:  BRA    87FE
....................                if((RX_Buffer[4]==Clave[codigoUsuario2].Password[0]+0x30)&&(RX_Buffer[5]==Clave[codigoUsuario2].Password[1]+0x30)&& 
....................                (RX_Buffer[6]==Clave[codigoUsuario2].Password[2]+0x30)&&(RX_Buffer[7]==Clave[codigoUsuario2].Password[3]+0x30) 
....................                &&RX_Buffer[8]==0x00 &&RX_Buffer[9]==0xff){ 
086F2:  MOVLB  2
086F4:  MOVF   xB1,W
086F6:  MULLW  04
086F8:  MOVF   FF3,W
086FA:  MOVLB  6
086FC:  CLRF   xD0
086FE:  MOVWF  xCF
08700:  MOVLW  A7
08702:  ADDWF  xCF,W
08704:  MOVWF  FE9
08706:  MOVLW  06
08708:  ADDWFC xD0,W
0870A:  MOVWF  FEA
0870C:  MOVLW  30
0870E:  ADDWF  FEF,W
08710:  SUBWF  35,W
08712:  BNZ   87DE
08714:  MOVLB  2
08716:  MOVF   xB1,W
08718:  MULLW  04
0871A:  MOVF   FF3,W
0871C:  MOVLB  6
0871E:  CLRF   xD0
08720:  MOVWF  xCF
08722:  MOVLW  01
08724:  ADDWF  xCF,W
08726:  MOVWF  01
08728:  MOVLW  00
0872A:  ADDWFC xD0,W
0872C:  MOVWF  03
0872E:  MOVF   01,W
08730:  ADDLW  A7
08732:  MOVWF  FE9
08734:  MOVLW  06
08736:  ADDWFC 03,W
08738:  MOVWF  FEA
0873A:  MOVLW  30
0873C:  ADDWF  FEF,W
0873E:  SUBWF  36,W
08740:  BNZ   87DE
08742:  MOVLB  2
08744:  MOVF   xB1,W
08746:  MULLW  04
08748:  MOVF   FF3,W
0874A:  MOVLB  6
0874C:  CLRF   xD0
0874E:  MOVWF  xCF
08750:  MOVLW  02
08752:  ADDWF  xCF,W
08754:  MOVWF  01
08756:  MOVLW  00
08758:  ADDWFC xD0,W
0875A:  MOVWF  03
0875C:  MOVF   01,W
0875E:  ADDLW  A7
08760:  MOVWF  FE9
08762:  MOVLW  06
08764:  ADDWFC 03,W
08766:  MOVWF  FEA
08768:  MOVLW  30
0876A:  ADDWF  FEF,W
0876C:  SUBWF  37,W
0876E:  BNZ   87DE
08770:  MOVLB  2
08772:  MOVF   xB1,W
08774:  MULLW  04
08776:  MOVF   FF3,W
08778:  MOVLB  6
0877A:  CLRF   xD0
0877C:  MOVWF  xCF
0877E:  MOVLW  03
08780:  ADDWF  xCF,W
08782:  MOVWF  01
08784:  MOVLW  00
08786:  ADDWFC xD0,W
08788:  MOVWF  03
0878A:  MOVF   01,W
0878C:  ADDLW  A7
0878E:  MOVWF  FE9
08790:  MOVLW  06
08792:  ADDWFC 03,W
08794:  MOVWF  FEA
08796:  MOVLW  30
08798:  ADDWF  FEF,W
0879A:  SUBWF  38,W
0879C:  BNZ   87DE
0879E:  MOVF   39,F
087A0:  BNZ   87DE
087A2:  INCFSZ 3A,W
087A4:  BRA    87DE
....................                   printf("page Clave"); 
087A6:  MOVLW  E4
087A8:  MOVWF  FF6
087AA:  MOVLW  08
087AC:  MOVWF  FF7
087AE:  MOVLW  00
087B0:  MOVWF  FF8
087B2:  MOVLB  0
087B4:  CALL   43FC
....................                   SendDataDisplay(); 
087B8:  CALL   442E
....................                   printf("titulo.txt=\"Clave Nueva\""); 
087BC:  MOVLW  F0
087BE:  MOVWF  FF6
087C0:  MOVLW  08
087C2:  MOVWF  FF7
087C4:  MOVLW  00
087C6:  MOVWF  FF8
087C8:  CALL   43FC
....................                   SendDataDisplay(); 
087CC:  CALL   442E
....................                   TipoClave=3; 
087D0:  MOVLW  03
087D2:  MOVLB  1
087D4:  MOVWF  xF9
....................                   RX_Buffer[3]=0x00; 
087D6:  CLRF   34
....................                   RX_Buffer2[3]=0x00; 
087D8:  CLRF   3F
....................                }else{ 
087DA:  BRA    87FE
087DC:  MOVLB  6
....................                   printf("page Menu"); 
087DE:  MOVLW  0A
087E0:  MOVWF  FF6
087E2:  MOVLW  09
087E4:  MOVWF  FF7
087E6:  MOVLW  00
087E8:  MOVWF  FF8
087EA:  MOVLB  0
087EC:  CALL   43FC
....................                   SendDataDisplay(); 
087F0:  CALL   442E
....................                   RX_Buffer[3]=0x00; 
087F4:  CLRF   34
....................                   RX_Buffer2[3]=0x00; 
087F6:  CLRF   3F
....................                   codigoUsuario=codigoUsuarioant; 
087F8:  MOVFF  2D0,2CF
087FC:  MOVLB  1
....................                }  
....................             } 
....................          }else if(TipoClave==3){ 
087FE:  BRA    89A4
08800:  MOVF   xF9,W
08802:  SUBLW  03
08804:  BTFSS  FD8.2
08806:  BRA    89A4
....................             printf("titulo.txt=\"Clave Nueva\""); 
08808:  MOVLW  14
0880A:  MOVWF  FF6
0880C:  MOVLW  09
0880E:  MOVWF  FF7
08810:  MOVLW  00
08812:  MOVWF  FF8
08814:  MOVLB  0
08816:  CALL   43FC
....................             SendDataDisplay(); 
0881A:  CALL   442E
....................             printf("page Menu"); 
0881E:  MOVLW  2E
08820:  MOVWF  FF6
08822:  MOVLW  09
08824:  MOVWF  FF7
08826:  MOVLW  00
08828:  MOVWF  FF8
0882A:  CALL   43FC
....................             SendDataDisplay(); 
0882E:  CALL   442E
....................             if(!GuardaEEPROM){ 
08832:  MOVLB  1
08834:  BTFSC  x06.1
08836:  BRA    89A0
....................                write_eeprom(300+(codigoUsuario2*4),RX_Buffer[4]-0x30);delay_ms(20); 
08838:  MOVLB  2
0883A:  MOVF   xB1,W
0883C:  MULLW  04
0883E:  MOVF   FF3,W
08840:  ADDLW  2C
08842:  MOVLB  6
08844:  MOVWF  xCF
08846:  MOVLW  01
08848:  MOVWF  xD0
0884A:  BTFSC  FD8.0
0884C:  INCF   xD0,F
0884E:  MOVLW  30
08850:  SUBWF  35,W
08852:  MOVWF  xD1
08854:  MOVFF  6D0,FAA
08858:  MOVFF  6CF,FA9
0885C:  MOVFF  6D1,FA8
08860:  BCF    FA6.6
08862:  BCF    FA6.7
08864:  BSF    FA6.2
08866:  MOVF   FF2,W
08868:  MOVWF  00
0886A:  BCF    FF2.6
0886C:  BCF    FF2.7
0886E:  MOVLB  F
08870:  MOVLW  55
08872:  MOVWF  FA7
08874:  MOVLW  AA
08876:  MOVWF  FA7
08878:  BSF    FA6.1
0887A:  BTFSC  FA6.1
0887C:  BRA    887A
0887E:  BCF    FA6.2
08880:  MOVF   00,W
08882:  IORWF  FF2,F
08884:  MOVLW  14
08886:  MOVLB  6
08888:  MOVWF  xE1
0888A:  MOVLB  0
0888C:  CALL   21DE
....................                write_eeprom(301+(codigoUsuario2*4),RX_Buffer[5]-0x30);delay_ms(20); 
08890:  MOVLB  2
08892:  MOVF   xB1,W
08894:  MULLW  04
08896:  MOVF   FF3,W
08898:  ADDLW  2D
0889A:  MOVLB  6
0889C:  MOVWF  xCF
0889E:  MOVLW  01
088A0:  MOVWF  xD0
088A2:  BTFSC  FD8.0
088A4:  INCF   xD0,F
088A6:  MOVLW  30
088A8:  SUBWF  36,W
088AA:  MOVWF  xD1
088AC:  MOVFF  6D0,FAA
088B0:  MOVFF  6CF,FA9
088B4:  MOVFF  6D1,FA8
088B8:  BCF    FA6.6
088BA:  BCF    FA6.7
088BC:  BSF    FA6.2
088BE:  MOVF   FF2,W
088C0:  MOVWF  00
088C2:  BCF    FF2.6
088C4:  BCF    FF2.7
088C6:  MOVLB  F
088C8:  MOVLW  55
088CA:  MOVWF  FA7
088CC:  MOVLW  AA
088CE:  MOVWF  FA7
088D0:  BSF    FA6.1
088D2:  BTFSC  FA6.1
088D4:  BRA    88D2
088D6:  BCF    FA6.2
088D8:  MOVF   00,W
088DA:  IORWF  FF2,F
088DC:  MOVLW  14
088DE:  MOVLB  6
088E0:  MOVWF  xE1
088E2:  MOVLB  0
088E4:  CALL   21DE
....................                write_eeprom(302+(codigoUsuario2*4),RX_Buffer[6]-0x30);delay_ms(20); 
088E8:  MOVLB  2
088EA:  MOVF   xB1,W
088EC:  MULLW  04
088EE:  MOVF   FF3,W
088F0:  ADDLW  2E
088F2:  MOVLB  6
088F4:  MOVWF  xCF
088F6:  MOVLW  01
088F8:  MOVWF  xD0
088FA:  BTFSC  FD8.0
088FC:  INCF   xD0,F
088FE:  MOVLW  30
08900:  SUBWF  37,W
08902:  MOVWF  xD1
08904:  MOVFF  6D0,FAA
08908:  MOVFF  6CF,FA9
0890C:  MOVFF  6D1,FA8
08910:  BCF    FA6.6
08912:  BCF    FA6.7
08914:  BSF    FA6.2
08916:  MOVF   FF2,W
08918:  MOVWF  00
0891A:  BCF    FF2.6
0891C:  BCF    FF2.7
0891E:  MOVLB  F
08920:  MOVLW  55
08922:  MOVWF  FA7
08924:  MOVLW  AA
08926:  MOVWF  FA7
08928:  BSF    FA6.1
0892A:  BTFSC  FA6.1
0892C:  BRA    892A
0892E:  BCF    FA6.2
08930:  MOVF   00,W
08932:  IORWF  FF2,F
08934:  MOVLW  14
08936:  MOVLB  6
08938:  MOVWF  xE1
0893A:  MOVLB  0
0893C:  CALL   21DE
....................                write_eeprom(303+(codigoUsuario2*4),RX_Buffer[7]-0x30);delay_ms(20); 
08940:  MOVLB  2
08942:  MOVF   xB1,W
08944:  MULLW  04
08946:  MOVF   FF3,W
08948:  ADDLW  2F
0894A:  MOVLB  6
0894C:  MOVWF  xCF
0894E:  MOVLW  01
08950:  MOVWF  xD0
08952:  BTFSC  FD8.0
08954:  INCF   xD0,F
08956:  MOVLW  30
08958:  SUBWF  38,W
0895A:  MOVWF  xD1
0895C:  MOVFF  6D0,FAA
08960:  MOVFF  6CF,FA9
08964:  MOVFF  6D1,FA8
08968:  BCF    FA6.6
0896A:  BCF    FA6.7
0896C:  BSF    FA6.2
0896E:  MOVF   FF2,W
08970:  MOVWF  00
08972:  BCF    FF2.6
08974:  BCF    FF2.7
08976:  MOVLB  F
08978:  MOVLW  55
0897A:  MOVWF  FA7
0897C:  MOVLW  AA
0897E:  MOVWF  FA7
08980:  BSF    FA6.1
08982:  BTFSC  FA6.1
08984:  BRA    8982
08986:  BCF    FA6.2
08988:  MOVF   00,W
0898A:  IORWF  FF2,F
0898C:  MOVLW  14
0898E:  MOVLB  6
08990:  MOVWF  xE1
08992:  MOVLB  0
08994:  CALL   21DE
....................                GuardaEEPROM=ON; 
08998:  MOVLB  1
0899A:  BSF    x06.1
....................                codigoUsuario=codigoUsuarioant; 
0899C:  MOVFF  2D0,2CF
....................             } 
....................             RX_Buffer[3]=0x00; 
089A0:  CLRF   34
....................             RX_Buffer2[3]=0x00; 
089A2:  CLRF   3F
089A4:  MOVLB  0
....................          } 
....................       } 
....................     }else if(Menu==1){ //Menu Principal. 
089A6:  GOTO   F9E8
089AA:  MOVLB  2
089AC:  DECFSZ x73,W
089AE:  GOTO   9162
....................       tCiclof=0; 
089B2:  MOVLB  1
089B4:  CLRF   x1A
089B6:  CLRF   x19
....................       oprimioCiclo=OFF; 
089B8:  BCF    x03.2
....................       printf("fecha.txt=\"Fecha:%02u/%02u/20%02u Hora: %02u:%02u:%02u\"",Dia,Mes,Year,Hora,Minuto,Segundo); 
089BA:  MOVLW  38
089BC:  MOVWF  FF6
089BE:  MOVLW  09
089C0:  MOVWF  FF7
089C2:  MOVLW  00
089C4:  MOVWF  FF8
089C6:  MOVLW  11
089C8:  MOVLB  6
089CA:  MOVWF  xD4
089CC:  MOVLB  0
089CE:  CALL   5E96
089D2:  MOVFF  2BA,6D4
089D6:  MOVLW  01
089D8:  MOVLB  6
089DA:  MOVWF  xD5
089DC:  MOVLB  0
089DE:  CALL   5F1A
089E2:  MOVLW  2F
089E4:  BTFSS  F9E.4
089E6:  BRA    89E4
089E8:  MOVWF  FAD
089EA:  MOVFF  2B9,6D4
089EE:  MOVLW  01
089F0:  MOVLB  6
089F2:  MOVWF  xD5
089F4:  MOVLB  0
089F6:  CALL   5F1A
089FA:  MOVLW  2F
089FC:  BTFSS  F9E.4
089FE:  BRA    89FC
08A00:  MOVWF  FAD
08A02:  MOVLW  32
08A04:  BTFSS  F9E.4
08A06:  BRA    8A04
08A08:  MOVWF  FAD
08A0A:  MOVLW  30
08A0C:  BTFSS  F9E.4
08A0E:  BRA    8A0C
08A10:  MOVWF  FAD
08A12:  MOVFF  2B8,6D4
08A16:  MOVLW  01
08A18:  MOVLB  6
08A1A:  MOVWF  xD5
08A1C:  MOVLB  0
08A1E:  CALL   5F1A
08A22:  MOVLW  59
08A24:  MOVWF  FF6
08A26:  MOVLW  09
08A28:  MOVWF  FF7
08A2A:  MOVLW  00
08A2C:  MOVWF  FF8
08A2E:  MOVLW  07
08A30:  MOVLB  6
08A32:  MOVWF  xD4
08A34:  MOVLB  0
08A36:  CALL   5E96
08A3A:  MOVFF  2BB,6D4
08A3E:  MOVLW  01
08A40:  MOVLB  6
08A42:  MOVWF  xD5
08A44:  MOVLB  0
08A46:  CALL   5F1A
08A4A:  MOVLW  3A
08A4C:  BTFSS  F9E.4
08A4E:  BRA    8A4C
08A50:  MOVWF  FAD
08A52:  MOVFF  2BC,6D4
08A56:  MOVLW  01
08A58:  MOVLB  6
08A5A:  MOVWF  xD5
08A5C:  MOVLB  0
08A5E:  CALL   5F1A
08A62:  MOVLW  3A
08A64:  BTFSS  F9E.4
08A66:  BRA    8A64
08A68:  MOVWF  FAD
08A6A:  MOVFF  2BD,6D4
08A6E:  MOVLW  01
08A70:  MOVLB  6
08A72:  MOVWF  xD5
08A74:  MOVLB  0
08A76:  CALL   5F1A
08A7A:  MOVLW  22
08A7C:  BTFSS  F9E.4
08A7E:  BRA    8A7C
08A80:  MOVWF  FAD
....................       SendDataDisplay(); 
08A82:  CALL   442E
....................       GuardaEEPROM=OFF; 
08A86:  MOVLB  1
08A88:  BCF    x06.1
....................       printf("tuser.txt=\"%s\"",usuario); 
08A8A:  MOVLW  70
08A8C:  MOVWF  FF6
08A8E:  MOVLW  09
08A90:  MOVWF  FF7
08A92:  MOVLW  00
08A94:  MOVWF  FF8
08A96:  MOVLW  0B
08A98:  MOVLB  6
08A9A:  MOVWF  xD4
08A9C:  MOVLB  0
08A9E:  CALL   5E96
08AA2:  MOVLW  02
08AA4:  MOVWF  FEA
08AA6:  MOVLW  D5
08AA8:  MOVWF  FE9
08AAA:  CALL   5EC8
08AAE:  MOVLW  22
08AB0:  BTFSS  F9E.4
08AB2:  BRA    8AB0
08AB4:  MOVWF  FAD
....................       SendDataDisplay(); 
08AB6:  CALL   442E
....................       codigoUsuarioant=codigoUsuario; 
08ABA:  MOVFF  2CF,2D0
....................        
....................       if(RX_Buffer[4]==0x01 && RX_Buffer[5]==0x0f && estados[19+RX_Buffer[4]]){//01, Calentamiento 
08ABE:  DECFSZ 35,W
08AC0:  BRA    8B5A
08AC2:  MOVF   36,W
08AC4:  SUBLW  0F
08AC6:  BNZ   8B5A
08AC8:  MOVLW  13
08ACA:  ADDWF  35,W
08ACC:  MOVLB  6
08ACE:  MOVWF  xD0
08AD0:  MOVLW  03
08AD2:  MOVWF  xD2
08AD4:  MOVLW  3B
08AD6:  MOVWF  xD1
08AD8:  MOVLB  0
08ADA:  CALL   261E
08ADE:  BTFSS  01.0
08AE0:  BRA    8B5A
....................          delay_ms(5); 
08AE2:  MOVLW  05
08AE4:  MOVLB  6
08AE6:  MOVWF  xE1
08AE8:  MOVLB  0
08AEA:  CALL   21DE
....................          if(RX_Buffer[4]==0x01 && RX_Buffer[5]==0x0f && estados[19+RX_Buffer[4]]){//01, Calentamiento 
08AEE:  DECFSZ 35,W
08AF0:  BRA    8B5A
08AF2:  MOVF   36,W
08AF4:  SUBLW  0F
08AF6:  BNZ   8B5A
08AF8:  MOVLW  13
08AFA:  ADDWF  35,W
08AFC:  MOVLB  6
08AFE:  MOVWF  xD0
08B00:  MOVLW  03
08B02:  MOVWF  xD2
08B04:  MOVLW  3B
08B06:  MOVWF  xD1
08B08:  MOVLB  0
08B0A:  CALL   261E
08B0E:  BTFSS  01.0
08B10:  BRA    8B5A
....................             printf("page Funcionamiento"); 
08B12:  MOVLW  80
08B14:  MOVWF  FF6
08B16:  MOVLW  09
08B18:  MOVWF  FF7
08B1A:  MOVLW  00
08B1C:  MOVWF  FF8
08B1E:  CALL   43FC
....................             SendDataDisplay(); 
08B22:  CALL   442E
....................             ConfiguraCiclo(0,15,0,1,0,1,121,pulsosConfigurados,vacioCiclo,0); 
08B26:  MOVLB  6
08B28:  CLRF   xD7
08B2A:  MOVLW  0F
08B2C:  MOVWF  xD8
08B2E:  CLRF   xD9
08B30:  MOVLW  01
08B32:  MOVWF  xDA
08B34:  CLRF   xDB
08B36:  MOVWF  xDC
08B38:  MOVLW  79
08B3A:  MOVWF  xDD
08B3C:  MOVFF  252,6DE
08B40:  MOVFF  254,6DF
08B44:  CLRF   xE0
08B46:  MOVLB  0
08B48:  CALL   5F98
....................             Op=OFF; 
08B4C:  MOVLB  1
08B4E:  BCF    x05.5
....................             Op2=OFF; 
08B50:  BCF    x05.6
....................             MenuAnt=Menu; 
08B52:  MOVFF  273,274
....................             Fugas=OFF; 
08B56:  BCF    x07.6
08B58:  MOVLB  0
....................             //TiempoVacio=CantidadPulsos*180; 
....................          } 
....................       } 
....................        
....................       if(RX_Buffer[4]==0x02 && RX_Buffer[5]==0x0f && estados[19+RX_Buffer[4]]){//02, No Envueltos 134 
08B5A:  MOVF   35,W
08B5C:  SUBLW  02
08B5E:  BNZ   8BFC
08B60:  MOVF   36,W
08B62:  SUBLW  0F
08B64:  BNZ   8BFC
08B66:  MOVLW  13
08B68:  ADDWF  35,W
08B6A:  MOVLB  6
08B6C:  MOVWF  xD0
08B6E:  MOVLW  03
08B70:  MOVWF  xD2
08B72:  MOVLW  3B
08B74:  MOVWF  xD1
08B76:  MOVLB  0
08B78:  CALL   261E
08B7C:  BTFSS  01.0
08B7E:  BRA    8BFC
....................          delay_ms(5); 
08B80:  MOVLW  05
08B82:  MOVLB  6
08B84:  MOVWF  xE1
08B86:  MOVLB  0
08B88:  CALL   21DE
....................          if(RX_Buffer[4]==0x02 && RX_Buffer[5]==0x0f && estados[19+RX_Buffer[4]]){ 
08B8C:  MOVF   35,W
08B8E:  SUBLW  02
08B90:  BNZ   8BFC
08B92:  MOVF   36,W
08B94:  SUBLW  0F
08B96:  BNZ   8BFC
08B98:  MOVLW  13
08B9A:  ADDWF  35,W
08B9C:  MOVLB  6
08B9E:  MOVWF  xD0
08BA0:  MOVLW  03
08BA2:  MOVWF  xD2
08BA4:  MOVLW  3B
08BA6:  MOVWF  xD1
08BA8:  MOVLB  0
08BAA:  CALL   261E
08BAE:  BTFSS  01.0
08BB0:  BRA    8BFC
....................             printf("page Funcionamiento"); 
08BB2:  MOVLW  94
08BB4:  MOVWF  FF6
08BB6:  MOVLW  09
08BB8:  MOVWF  FF7
08BBA:  MOVLW  00
08BBC:  MOVWF  FF8
08BBE:  CALL   43FC
....................             SendDataDisplay();        
08BC2:  CALL   442E
....................             ConfiguraCiclo(0,3,0,1,0,2,134,pulsosConfigurados,vacioCiclo,0);             
08BC6:  MOVLB  6
08BC8:  CLRF   xD7
08BCA:  MOVLW  03
08BCC:  MOVWF  xD8
08BCE:  CLRF   xD9
08BD0:  MOVLW  01
08BD2:  MOVWF  xDA
08BD4:  CLRF   xDB
08BD6:  MOVLW  02
08BD8:  MOVWF  xDC
08BDA:  MOVLW  86
08BDC:  MOVWF  xDD
08BDE:  MOVFF  252,6DE
08BE2:  MOVFF  254,6DF
08BE6:  CLRF   xE0
08BE8:  MOVLB  0
08BEA:  CALL   5F98
....................             Op=OFF; 
08BEE:  MOVLB  1
08BF0:  BCF    x05.5
....................             Op2=OFF; 
08BF2:  BCF    x05.6
....................             MenuAnt=Menu; 
08BF4:  MOVFF  273,274
....................             Fugas=OFF; 
08BF8:  BCF    x07.6
08BFA:  MOVLB  0
....................             //TiempoVacio=CantidadPulsos*180; 
....................          } 
....................       } 
....................        
....................       if(RX_Buffer[4]==0x03  && RX_Buffer[5]==0x0f && estados[19+RX_Buffer[4]]){//03, No Envueltos 121 
08BFC:  MOVF   35,W
08BFE:  SUBLW  03
08C00:  BNZ   8C9E
08C02:  MOVF   36,W
08C04:  SUBLW  0F
08C06:  BNZ   8C9E
08C08:  MOVLW  13
08C0A:  ADDWF  35,W
08C0C:  MOVLB  6
08C0E:  MOVWF  xD0
08C10:  MOVLW  03
08C12:  MOVWF  xD2
08C14:  MOVLW  3B
08C16:  MOVWF  xD1
08C18:  MOVLB  0
08C1A:  CALL   261E
08C1E:  BTFSS  01.0
08C20:  BRA    8C9E
....................          delay_ms(5); 
08C22:  MOVLW  05
08C24:  MOVLB  6
08C26:  MOVWF  xE1
08C28:  MOVLB  0
08C2A:  CALL   21DE
....................          if(RX_Buffer[4]==0x03 && RX_Buffer[5]==0x0f && estados[19+RX_Buffer[4]]){ 
08C2E:  MOVF   35,W
08C30:  SUBLW  03
08C32:  BNZ   8C9E
08C34:  MOVF   36,W
08C36:  SUBLW  0F
08C38:  BNZ   8C9E
08C3A:  MOVLW  13
08C3C:  ADDWF  35,W
08C3E:  MOVLB  6
08C40:  MOVWF  xD0
08C42:  MOVLW  03
08C44:  MOVWF  xD2
08C46:  MOVLW  3B
08C48:  MOVWF  xD1
08C4A:  MOVLB  0
08C4C:  CALL   261E
08C50:  BTFSS  01.0
08C52:  BRA    8C9E
....................             printf("page Funcionamiento"); 
08C54:  MOVLW  A8
08C56:  MOVWF  FF6
08C58:  MOVLW  09
08C5A:  MOVWF  FF7
08C5C:  MOVLW  00
08C5E:  MOVWF  FF8
08C60:  CALL   43FC
....................             SendDataDisplay();      
08C64:  CALL   442E
....................             ConfiguraCiclo(0,15,0,1,0,3,121,pulsosConfigurados,vacioCiclo,0);   
08C68:  MOVLB  6
08C6A:  CLRF   xD7
08C6C:  MOVLW  0F
08C6E:  MOVWF  xD8
08C70:  CLRF   xD9
08C72:  MOVLW  01
08C74:  MOVWF  xDA
08C76:  CLRF   xDB
08C78:  MOVLW  03
08C7A:  MOVWF  xDC
08C7C:  MOVLW  79
08C7E:  MOVWF  xDD
08C80:  MOVFF  252,6DE
08C84:  MOVFF  254,6DF
08C88:  CLRF   xE0
08C8A:  MOVLB  0
08C8C:  CALL   5F98
....................             Op=OFF; 
08C90:  MOVLB  1
08C92:  BCF    x05.5
....................             Op2=OFF; 
08C94:  BCF    x05.6
....................             MenuAnt=Menu; 
08C96:  MOVFF  273,274
....................             Fugas=OFF; 
08C9A:  BCF    x07.6
08C9C:  MOVLB  0
....................             //TiempoVacio=CantidadPulsos*180; 
....................          } 
....................       } 
....................        
....................       if(RX_Buffer[4]==0x04 && RX_Buffer[5]==0x0f && estados[19+RX_Buffer[4]]){//04, Envueltos 134 
08C9E:  MOVF   35,W
08CA0:  SUBLW  04
08CA2:  BNZ   8D40
08CA4:  MOVF   36,W
08CA6:  SUBLW  0F
08CA8:  BNZ   8D40
08CAA:  MOVLW  13
08CAC:  ADDWF  35,W
08CAE:  MOVLB  6
08CB0:  MOVWF  xD0
08CB2:  MOVLW  03
08CB4:  MOVWF  xD2
08CB6:  MOVLW  3B
08CB8:  MOVWF  xD1
08CBA:  MOVLB  0
08CBC:  CALL   261E
08CC0:  BTFSS  01.0
08CC2:  BRA    8D40
....................          delay_ms(5); 
08CC4:  MOVLW  05
08CC6:  MOVLB  6
08CC8:  MOVWF  xE1
08CCA:  MOVLB  0
08CCC:  CALL   21DE
....................          if(RX_Buffer[4]==0x04 && RX_Buffer[5]==0x0f && estados[19+RX_Buffer[4]]){ 
08CD0:  MOVF   35,W
08CD2:  SUBLW  04
08CD4:  BNZ   8D40
08CD6:  MOVF   36,W
08CD8:  SUBLW  0F
08CDA:  BNZ   8D40
08CDC:  MOVLW  13
08CDE:  ADDWF  35,W
08CE0:  MOVLB  6
08CE2:  MOVWF  xD0
08CE4:  MOVLW  03
08CE6:  MOVWF  xD2
08CE8:  MOVLW  3B
08CEA:  MOVWF  xD1
08CEC:  MOVLB  0
08CEE:  CALL   261E
08CF2:  BTFSS  01.0
08CF4:  BRA    8D40
....................             printf("page Funcionamiento"); 
08CF6:  MOVLW  BC
08CF8:  MOVWF  FF6
08CFA:  MOVLW  09
08CFC:  MOVWF  FF7
08CFE:  MOVLW  00
08D00:  MOVWF  FF8
08D02:  CALL   43FC
....................             SendDataDisplay();        
08D06:  CALL   442E
....................             ConfiguraCiclo(0,4,0,15,0,4,134,pulsosConfigurados,vacioCiclo,0);   
08D0A:  MOVLB  6
08D0C:  CLRF   xD7
08D0E:  MOVLW  04
08D10:  MOVWF  xD8
08D12:  CLRF   xD9
08D14:  MOVLW  0F
08D16:  MOVWF  xDA
08D18:  CLRF   xDB
08D1A:  MOVLW  04
08D1C:  MOVWF  xDC
08D1E:  MOVLW  86
08D20:  MOVWF  xDD
08D22:  MOVFF  252,6DE
08D26:  MOVFF  254,6DF
08D2A:  CLRF   xE0
08D2C:  MOVLB  0
08D2E:  CALL   5F98
....................             Op=OFF; 
08D32:  MOVLB  1
08D34:  BCF    x05.5
....................             Op2=OFF; 
08D36:  BCF    x05.6
....................             MenuAnt=Menu; 
08D38:  MOVFF  273,274
....................             Fugas=OFF; 
08D3C:  BCF    x07.6
08D3E:  MOVLB  0
....................             //TiempoVacio=CantidadPulsos*180; 
....................          } 
....................       } 
....................        
....................       if(RX_Buffer[4]==0x05 && RX_Buffer[5]==0x0f && estados[19+RX_Buffer[4]]){//05, Envueltos 121 
08D40:  MOVF   35,W
08D42:  SUBLW  05
08D44:  BNZ   8DE0
08D46:  MOVF   36,W
08D48:  SUBLW  0F
08D4A:  BNZ   8DE0
08D4C:  MOVLW  13
08D4E:  ADDWF  35,W
08D50:  MOVLB  6
08D52:  MOVWF  xD0
08D54:  MOVLW  03
08D56:  MOVWF  xD2
08D58:  MOVLW  3B
08D5A:  MOVWF  xD1
08D5C:  MOVLB  0
08D5E:  CALL   261E
08D62:  BTFSS  01.0
08D64:  BRA    8DE0
....................          delay_ms(5); 
08D66:  MOVLW  05
08D68:  MOVLB  6
08D6A:  MOVWF  xE1
08D6C:  MOVLB  0
08D6E:  CALL   21DE
....................          if(RX_Buffer[4]==0x05 && RX_Buffer[5]==0x0f && estados[19+RX_Buffer[4]]){ 
08D72:  MOVF   35,W
08D74:  SUBLW  05
08D76:  BNZ   8DE0
08D78:  MOVF   36,W
08D7A:  SUBLW  0F
08D7C:  BNZ   8DE0
08D7E:  MOVLW  13
08D80:  ADDWF  35,W
08D82:  MOVLB  6
08D84:  MOVWF  xD0
08D86:  MOVLW  03
08D88:  MOVWF  xD2
08D8A:  MOVLW  3B
08D8C:  MOVWF  xD1
08D8E:  MOVLB  0
08D90:  CALL   261E
08D94:  BTFSS  01.0
08D96:  BRA    8DE0
....................             printf("page Funcionamiento"); 
08D98:  MOVLW  D0
08D9A:  MOVWF  FF6
08D9C:  MOVLW  09
08D9E:  MOVWF  FF7
08DA0:  MOVLW  00
08DA2:  MOVWF  FF8
08DA4:  CALL   43FC
....................             SendDataDisplay();        
08DA8:  CALL   442E
....................             ConfiguraCiclo(0,15,0,15,0,5,121,pulsosConfigurados,vacioCiclo,0);   
08DAC:  MOVLB  6
08DAE:  CLRF   xD7
08DB0:  MOVLW  0F
08DB2:  MOVWF  xD8
08DB4:  CLRF   xD9
08DB6:  MOVWF  xDA
08DB8:  CLRF   xDB
08DBA:  MOVLW  05
08DBC:  MOVWF  xDC
08DBE:  MOVLW  79
08DC0:  MOVWF  xDD
08DC2:  MOVFF  252,6DE
08DC6:  MOVFF  254,6DF
08DCA:  CLRF   xE0
08DCC:  MOVLB  0
08DCE:  CALL   5F98
....................             Op=OFF; 
08DD2:  MOVLB  1
08DD4:  BCF    x05.5
....................             Op2=OFF; 
08DD6:  BCF    x05.6
....................             MenuAnt=Menu; 
08DD8:  MOVFF  273,274
....................             Fugas=OFF; 
08DDC:  BCF    x07.6
08DDE:  MOVLB  0
....................             //TiempoVacio=CantidadPulsos*180; 
....................          } 
....................       } 
....................        
....................       if(RX_Buffer[4]==0x06 && RX_Buffer[5]==0x0f && estados[19+RX_Buffer[4]]){//06, Envuelto Doble 1 
08DE0:  MOVF   35,W
08DE2:  SUBLW  06
08DE4:  BNZ   8E82
08DE6:  MOVF   36,W
08DE8:  SUBLW  0F
08DEA:  BNZ   8E82
08DEC:  MOVLW  13
08DEE:  ADDWF  35,W
08DF0:  MOVLB  6
08DF2:  MOVWF  xD0
08DF4:  MOVLW  03
08DF6:  MOVWF  xD2
08DF8:  MOVLW  3B
08DFA:  MOVWF  xD1
08DFC:  MOVLB  0
08DFE:  CALL   261E
08E02:  BTFSS  01.0
08E04:  BRA    8E82
....................          delay_ms(5); 
08E06:  MOVLW  05
08E08:  MOVLB  6
08E0A:  MOVWF  xE1
08E0C:  MOVLB  0
08E0E:  CALL   21DE
....................          if(RX_Buffer[4]==0x06 && RX_Buffer[5]==0x0f && estados[19+RX_Buffer[4]]){ 
08E12:  MOVF   35,W
08E14:  SUBLW  06
08E16:  BNZ   8E82
08E18:  MOVF   36,W
08E1A:  SUBLW  0F
08E1C:  BNZ   8E82
08E1E:  MOVLW  13
08E20:  ADDWF  35,W
08E22:  MOVLB  6
08E24:  MOVWF  xD0
08E26:  MOVLW  03
08E28:  MOVWF  xD2
08E2A:  MOVLW  3B
08E2C:  MOVWF  xD1
08E2E:  MOVLB  0
08E30:  CALL   261E
08E34:  BTFSS  01.0
08E36:  BRA    8E82
....................             printf("page Funcionamiento"); 
08E38:  MOVLW  E4
08E3A:  MOVWF  FF6
08E3C:  MOVLW  09
08E3E:  MOVWF  FF7
08E40:  MOVLW  00
08E42:  MOVWF  FF8
08E44:  CALL   43FC
....................             SendDataDisplay();        
08E48:  CALL   442E
....................             ConfiguraCiclo(0,7,0,20,0,6,134,pulsosConfigurados,vacioCiclo,0);   
08E4C:  MOVLB  6
08E4E:  CLRF   xD7
08E50:  MOVLW  07
08E52:  MOVWF  xD8
08E54:  CLRF   xD9
08E56:  MOVLW  14
08E58:  MOVWF  xDA
08E5A:  CLRF   xDB
08E5C:  MOVLW  06
08E5E:  MOVWF  xDC
08E60:  MOVLW  86
08E62:  MOVWF  xDD
08E64:  MOVFF  252,6DE
08E68:  MOVFF  254,6DF
08E6C:  CLRF   xE0
08E6E:  MOVLB  0
08E70:  CALL   5F98
....................             Op=OFF; 
08E74:  MOVLB  1
08E76:  BCF    x05.5
....................             Op2=OFF; 
08E78:  BCF    x05.6
....................             MenuAnt=Menu; 
08E7A:  MOVFF  273,274
....................             Fugas=OFF; 
08E7E:  BCF    x07.6
08E80:  MOVLB  0
....................             //TiempoVacio=CantidadPulsos*180; 
....................          } 
....................       } 
....................        
....................       if(RX_Buffer[4]==0x07 && RX_Buffer[5]==0x0f && estados[19+RX_Buffer[4]]){//07, Envuelto Doble 2 
08E82:  MOVF   35,W
08E84:  SUBLW  07
08E86:  BNZ   8F24
08E88:  MOVF   36,W
08E8A:  SUBLW  0F
08E8C:  BNZ   8F24
08E8E:  MOVLW  13
08E90:  ADDWF  35,W
08E92:  MOVLB  6
08E94:  MOVWF  xD0
08E96:  MOVLW  03
08E98:  MOVWF  xD2
08E9A:  MOVLW  3B
08E9C:  MOVWF  xD1
08E9E:  MOVLB  0
08EA0:  CALL   261E
08EA4:  BTFSS  01.0
08EA6:  BRA    8F24
....................          delay_ms(5); 
08EA8:  MOVLW  05
08EAA:  MOVLB  6
08EAC:  MOVWF  xE1
08EAE:  MOVLB  0
08EB0:  CALL   21DE
....................          if(RX_Buffer[4]==0x07 && RX_Buffer[5]==0x0f && estados[19+RX_Buffer[4]]){ 
08EB4:  MOVF   35,W
08EB6:  SUBLW  07
08EB8:  BNZ   8F24
08EBA:  MOVF   36,W
08EBC:  SUBLW  0F
08EBE:  BNZ   8F24
08EC0:  MOVLW  13
08EC2:  ADDWF  35,W
08EC4:  MOVLB  6
08EC6:  MOVWF  xD0
08EC8:  MOVLW  03
08ECA:  MOVWF  xD2
08ECC:  MOVLW  3B
08ECE:  MOVWF  xD1
08ED0:  MOVLB  0
08ED2:  CALL   261E
08ED6:  BTFSS  01.0
08ED8:  BRA    8F24
....................             printf("page Funcionamiento"); 
08EDA:  MOVLW  F8
08EDC:  MOVWF  FF6
08EDE:  MOVLW  09
08EE0:  MOVWF  FF7
08EE2:  MOVLW  00
08EE4:  MOVWF  FF8
08EE6:  CALL   43FC
....................             SendDataDisplay();        
08EEA:  CALL   442E
....................             ConfiguraCiclo(0,7,0,30,0,7,134,pulsosConfigurados,vacioCiclo,0);   
08EEE:  MOVLB  6
08EF0:  CLRF   xD7
08EF2:  MOVLW  07
08EF4:  MOVWF  xD8
08EF6:  CLRF   xD9
08EF8:  MOVLW  1E
08EFA:  MOVWF  xDA
08EFC:  CLRF   xDB
08EFE:  MOVLW  07
08F00:  MOVWF  xDC
08F02:  MOVLW  86
08F04:  MOVWF  xDD
08F06:  MOVFF  252,6DE
08F0A:  MOVFF  254,6DF
08F0E:  CLRF   xE0
08F10:  MOVLB  0
08F12:  CALL   5F98
....................             Op=OFF; 
08F16:  MOVLB  1
08F18:  BCF    x05.5
....................             Op2=OFF; 
08F1A:  BCF    x05.6
....................             MenuAnt=Menu; 
08F1C:  MOVFF  273,274
....................             Fugas=OFF; 
08F20:  BCF    x07.6
08F22:  MOVLB  0
....................             //TiempoVacio=CantidadPulsos*180; 
....................          } 
....................       } 
....................        
....................       if(RX_Buffer[4]==0x08 && RX_Buffer[5]==0x0f && estados[19+RX_Buffer[4]]){//08, Prion 
08F24:  MOVF   35,W
08F26:  SUBLW  08
08F28:  BNZ   8FC6
08F2A:  MOVF   36,W
08F2C:  SUBLW  0F
08F2E:  BNZ   8FC6
08F30:  MOVLW  13
08F32:  ADDWF  35,W
08F34:  MOVLB  6
08F36:  MOVWF  xD0
08F38:  MOVLW  03
08F3A:  MOVWF  xD2
08F3C:  MOVLW  3B
08F3E:  MOVWF  xD1
08F40:  MOVLB  0
08F42:  CALL   261E
08F46:  BTFSS  01.0
08F48:  BRA    8FC6
....................          delay_ms(5); 
08F4A:  MOVLW  05
08F4C:  MOVLB  6
08F4E:  MOVWF  xE1
08F50:  MOVLB  0
08F52:  CALL   21DE
....................          if(RX_Buffer[4]==0x08 && RX_Buffer[5]==0x0f && estados[19+RX_Buffer[4]]){ 
08F56:  MOVF   35,W
08F58:  SUBLW  08
08F5A:  BNZ   8FC6
08F5C:  MOVF   36,W
08F5E:  SUBLW  0F
08F60:  BNZ   8FC6
08F62:  MOVLW  13
08F64:  ADDWF  35,W
08F66:  MOVLB  6
08F68:  MOVWF  xD0
08F6A:  MOVLW  03
08F6C:  MOVWF  xD2
08F6E:  MOVLW  3B
08F70:  MOVWF  xD1
08F72:  MOVLB  0
08F74:  CALL   261E
08F78:  BTFSS  01.0
08F7A:  BRA    8FC6
....................             printf("page Funcionamiento"); 
08F7C:  MOVLW  0C
08F7E:  MOVWF  FF6
08F80:  MOVLW  0A
08F82:  MOVWF  FF7
08F84:  MOVLW  00
08F86:  MOVWF  FF8
08F88:  CALL   43FC
....................             SendDataDisplay();        
08F8C:  CALL   442E
....................             ConfiguraCiclo(0,20,0,15,0,8,134,pulsosConfigurados,vacioCiclo,0);   
08F90:  MOVLB  6
08F92:  CLRF   xD7
08F94:  MOVLW  14
08F96:  MOVWF  xD8
08F98:  CLRF   xD9
08F9A:  MOVLW  0F
08F9C:  MOVWF  xDA
08F9E:  CLRF   xDB
08FA0:  MOVLW  08
08FA2:  MOVWF  xDC
08FA4:  MOVLW  86
08FA6:  MOVWF  xDD
08FA8:  MOVFF  252,6DE
08FAC:  MOVFF  254,6DF
08FB0:  CLRF   xE0
08FB2:  MOVLB  0
08FB4:  CALL   5F98
....................             Op=OFF; 
08FB8:  MOVLB  1
08FBA:  BCF    x05.5
....................             Op2=OFF; 
08FBC:  BCF    x05.6
....................             MenuAnt=Menu; 
08FBE:  MOVFF  273,274
....................             Fugas=OFF; 
08FC2:  BCF    x07.6
08FC4:  MOVLB  0
....................             //TiempoVacio=CantidadPulsos*180; 
....................          } 
....................       } 
....................        
....................       if(RX_Buffer[4]==0x09 && RX_Buffer[5]==0x0f && estados[19+RX_Buffer[4]]){//09, Bowie & Dick 
08FC6:  MOVF   35,W
08FC8:  SUBLW  09
08FCA:  BNZ   906A
08FCC:  MOVF   36,W
08FCE:  SUBLW  0F
08FD0:  BNZ   906A
08FD2:  MOVLW  13
08FD4:  ADDWF  35,W
08FD6:  MOVLB  6
08FD8:  MOVWF  xD0
08FDA:  MOVLW  03
08FDC:  MOVWF  xD2
08FDE:  MOVLW  3B
08FE0:  MOVWF  xD1
08FE2:  MOVLB  0
08FE4:  CALL   261E
08FE8:  BTFSS  01.0
08FEA:  BRA    906A
....................          delay_ms(5); 
08FEC:  MOVLW  05
08FEE:  MOVLB  6
08FF0:  MOVWF  xE1
08FF2:  MOVLB  0
08FF4:  CALL   21DE
....................          if(RX_Buffer[4]==0x09 && RX_Buffer[5]==0x0f && estados[19+RX_Buffer[4]]){ 
08FF8:  MOVF   35,W
08FFA:  SUBLW  09
08FFC:  BNZ   906A
08FFE:  MOVF   36,W
09000:  SUBLW  0F
09002:  BNZ   906A
09004:  MOVLW  13
09006:  ADDWF  35,W
09008:  MOVLB  6
0900A:  MOVWF  xD0
0900C:  MOVLW  03
0900E:  MOVWF  xD2
09010:  MOVLW  3B
09012:  MOVWF  xD1
09014:  MOVLB  0
09016:  CALL   261E
0901A:  BTFSS  01.0
0901C:  BRA    906A
....................             printf("page Funcionamiento"); 
0901E:  MOVLW  20
09020:  MOVWF  FF6
09022:  MOVLW  0A
09024:  MOVWF  FF7
09026:  MOVLW  00
09028:  MOVWF  FF8
0902A:  CALL   43FC
....................             SendDataDisplay();        
0902E:  CALL   442E
....................             ConfiguraCiclo(30,3,0,1,0,9,134,pulsosConfigurados,vacioCiclo,0);   
09032:  MOVLW  1E
09034:  MOVLB  6
09036:  MOVWF  xD7
09038:  MOVLW  03
0903A:  MOVWF  xD8
0903C:  CLRF   xD9
0903E:  MOVLW  01
09040:  MOVWF  xDA
09042:  CLRF   xDB
09044:  MOVLW  09
09046:  MOVWF  xDC
09048:  MOVLW  86
0904A:  MOVWF  xDD
0904C:  MOVFF  252,6DE
09050:  MOVFF  254,6DF
09054:  CLRF   xE0
09056:  MOVLB  0
09058:  CALL   5F98
....................             Op=OFF; 
0905C:  MOVLB  1
0905E:  BCF    x05.5
....................             Op2=OFF; 
09060:  BCF    x05.6
....................             MenuAnt=Menu; 
09062:  MOVFF  273,274
....................             Fugas=OFF; 
09066:  BCF    x07.6
09068:  MOVLB  0
....................             //TiempoVacio=CantidadPulsos*180; 
....................          } 
....................       } 
....................        
....................       if(RX_Buffer[4]==0x0a && RX_Buffer[5]==0x0f && estados[19+RX_Buffer[4]]){//0a, Test de Fugas 
0906A:  MOVF   35,W
0906C:  SUBLW  0A
0906E:  BNZ   9100
09070:  MOVF   36,W
09072:  SUBLW  0F
09074:  BNZ   9100
09076:  MOVLW  13
09078:  ADDWF  35,W
0907A:  MOVLB  6
0907C:  MOVWF  xD0
0907E:  MOVLW  03
09080:  MOVWF  xD2
09082:  MOVLW  3B
09084:  MOVWF  xD1
09086:  MOVLB  0
09088:  CALL   261E
0908C:  BTFSS  01.0
0908E:  BRA    9100
....................          delay_ms(5); 
09090:  MOVLW  05
09092:  MOVLB  6
09094:  MOVWF  xE1
09096:  MOVLB  0
09098:  CALL   21DE
....................          if(RX_Buffer[4]==0x0a && RX_Buffer[5]==0x0f && estados[19+RX_Buffer[4]]){ 
0909C:  MOVF   35,W
0909E:  SUBLW  0A
090A0:  BNZ   9100
090A2:  MOVF   36,W
090A4:  SUBLW  0F
090A6:  BNZ   9100
090A8:  MOVLW  13
090AA:  ADDWF  35,W
090AC:  MOVLB  6
090AE:  MOVWF  xD0
090B0:  MOVLW  03
090B2:  MOVWF  xD2
090B4:  MOVLW  3B
090B6:  MOVWF  xD1
090B8:  MOVLB  0
090BA:  CALL   261E
090BE:  BTFSS  01.0
090C0:  BRA    9100
....................             printf("page Funcionamiento"); 
090C2:  MOVLW  34
090C4:  MOVWF  FF6
090C6:  MOVLW  0A
090C8:  MOVWF  FF7
090CA:  MOVLW  00
090CC:  MOVWF  FF8
090CE:  CALL   43FC
....................             SendDataDisplay();        
090D2:  CALL   442E
....................             ConfiguraCiclo(0,15,0,0,0,10,30,1,vacioTest,1); 
090D6:  MOVLB  6
090D8:  CLRF   xD7
090DA:  MOVLW  0F
090DC:  MOVWF  xD8
090DE:  CLRF   xD9
090E0:  CLRF   xDA
090E2:  CLRF   xDB
090E4:  MOVLW  0A
090E6:  MOVWF  xDC
090E8:  MOVLW  1E
090EA:  MOVWF  xDD
090EC:  MOVLW  01
090EE:  MOVWF  xDE
090F0:  MOVFF  253,6DF
090F4:  MOVWF  xE0
090F6:  MOVLB  0
090F8:  CALL   5F98
....................             MenuAnt=Menu; 
090FC:  MOVFF  273,274
....................             //TiempoVacio=CantidadPulsos*180; 
....................          } 
....................       } 
....................        
....................       if(RX_Buffer[4]==0xa0){//a0, Ciclos Fijos 
09100:  MOVF   35,W
09102:  SUBLW  A0
09104:  BNZ   911A
....................          printf("page Menu"); 
09106:  MOVLW  48
09108:  MOVWF  FF6
0910A:  MOVLW  0A
0910C:  MOVWF  FF7
0910E:  MOVLW  00
09110:  MOVWF  FF8
09112:  CALL   43FC
....................          SendDataDisplay();      
09116:  CALL   442E
....................       } 
....................        
....................       if(RX_Buffer[4]==0xb0){//b0, Personalizados 
0911A:  MOVF   35,W
0911C:  SUBLW  B0
0911E:  BNZ   9134
....................          printf("page CicloPersona"); 
09120:  MOVLW  52
09122:  MOVWF  FF6
09124:  MOVLW  0A
09126:  MOVWF  FF7
09128:  MOVLW  00
0912A:  MOVWF  FF8
0912C:  CALL   43FC
....................          SendDataDisplay();      
09130:  CALL   442E
....................       } 
....................        
....................       if(RX_Buffer[4]==0xc0){//c0, Configuraciones 
09134:  MOVF   35,W
09136:  SUBLW  C0
09138:  BNZ   915C
....................          if(codigoUsuario==0 || codigoUsuario==9){        
0913A:  MOVLB  2
0913C:  MOVF   xCF,F
0913E:  BZ    9146
09140:  MOVF   xCF,W
09142:  SUBLW  09
09144:  BNZ   915E
....................             printf("page Ajustes"); 
09146:  MOVLW  64
09148:  MOVWF  FF6
0914A:  MOVLW  0A
0914C:  MOVWF  FF7
0914E:  MOVLW  00
09150:  MOVWF  FF8
09152:  MOVLB  0
09154:  CALL   43FC
....................             SendDataDisplay();      
09158:  CALL   442E
0915C:  MOVLB  2
....................          } 
....................       } 
....................    }else if(Menu==2){ //Menu de Tiempo Esterilizacion      
0915E:  GOTO   F9E8
09162:  MOVF   x73,W
09164:  SUBLW  02
09166:  BTFSS  FD8.2
09168:  BRA    9442
....................          printf("fecha.txt=\"Fecha:%02u/%02u/20%02u Hora: %02u:%02u:%02u\"",Dia,Mes,Year,Hora,Minuto,Segundo); 
0916A:  MOVLW  72
0916C:  MOVWF  FF6
0916E:  MOVLW  0A
09170:  MOVWF  FF7
09172:  MOVLW  00
09174:  MOVWF  FF8
09176:  MOVLW  11
09178:  MOVLB  6
0917A:  MOVWF  xD4
0917C:  MOVLB  0
0917E:  CALL   5E96
09182:  MOVFF  2BA,6D4
09186:  MOVLW  01
09188:  MOVLB  6
0918A:  MOVWF  xD5
0918C:  MOVLB  0
0918E:  CALL   5F1A
09192:  MOVLW  2F
09194:  BTFSS  F9E.4
09196:  BRA    9194
09198:  MOVWF  FAD
0919A:  MOVFF  2B9,6D4
0919E:  MOVLW  01
091A0:  MOVLB  6
091A2:  MOVWF  xD5
091A4:  MOVLB  0
091A6:  CALL   5F1A
091AA:  MOVLW  2F
091AC:  BTFSS  F9E.4
091AE:  BRA    91AC
091B0:  MOVWF  FAD
091B2:  MOVLW  32
091B4:  BTFSS  F9E.4
091B6:  BRA    91B4
091B8:  MOVWF  FAD
091BA:  MOVLW  30
091BC:  BTFSS  F9E.4
091BE:  BRA    91BC
091C0:  MOVWF  FAD
091C2:  MOVFF  2B8,6D4
091C6:  MOVLW  01
091C8:  MOVLB  6
091CA:  MOVWF  xD5
091CC:  MOVLB  0
091CE:  CALL   5F1A
091D2:  MOVLW  93
091D4:  MOVWF  FF6
091D6:  MOVLW  0A
091D8:  MOVWF  FF7
091DA:  MOVLW  00
091DC:  MOVWF  FF8
091DE:  MOVLW  07
091E0:  MOVLB  6
091E2:  MOVWF  xD4
091E4:  MOVLB  0
091E6:  CALL   5E96
091EA:  MOVFF  2BB,6D4
091EE:  MOVLW  01
091F0:  MOVLB  6
091F2:  MOVWF  xD5
091F4:  MOVLB  0
091F6:  CALL   5F1A
091FA:  MOVLW  3A
091FC:  BTFSS  F9E.4
091FE:  BRA    91FC
09200:  MOVWF  FAD
09202:  MOVFF  2BC,6D4
09206:  MOVLW  01
09208:  MOVLB  6
0920A:  MOVWF  xD5
0920C:  MOVLB  0
0920E:  CALL   5F1A
09212:  MOVLW  3A
09214:  BTFSS  F9E.4
09216:  BRA    9214
09218:  MOVWF  FAD
0921A:  MOVFF  2BD,6D4
0921E:  MOVLW  01
09220:  MOVLB  6
09222:  MOVWF  xD5
09224:  MOVLB  0
09226:  CALL   5F1A
0922A:  MOVLW  22
0922C:  BTFSS  F9E.4
0922E:  BRA    922C
09230:  MOVWF  FAD
....................          SendDataDisplay(); 
09232:  CALL   442E
....................          if(RX_Buffer[4]==0x0a){//Selecciono Minutos 
09236:  MOVF   35,W
09238:  SUBLW  0A
0923A:  BNZ   9244
....................             Minutos=ON; 
0923C:  MOVLB  1
0923E:  BSF    x05.7
....................             Segundos=OFF; 
09240:  BCF    x06.0
09242:  MOVLB  0
....................          } 
....................           
....................          if(RX_Buffer[4]==0x0b){//Selecciono Segundos 
09244:  MOVF   35,W
09246:  SUBLW  0B
09248:  BNZ   9252
....................             Segundos=ON; 
0924A:  MOVLB  1
0924C:  BSF    x06.0
....................             Minutos=OFF; 
0924E:  BCF    x05.7
09250:  MOVLB  0
....................          }            
....................           
....................          if(RX_Buffer[4]==0x11){//Selecciono Regresar             
09252:  MOVF   35,W
09254:  SUBLW  11
09256:  BTFSS  FD8.2
09258:  BRA    9376
....................                Segundos=OFF; 
0925A:  MOVLB  1
0925C:  BCF    x06.0
....................                Minutos=OFF; 
0925E:  BCF    x05.7
....................                printf("page CicloPersona"); 
09260:  MOVLW  AA
09262:  MOVWF  FF6
09264:  MOVLW  0A
09266:  MOVWF  FF7
09268:  MOVLW  00
0926A:  MOVWF  FF8
0926C:  MOVLB  0
0926E:  CALL   43FC
....................                SendDataDisplay();   
09272:  CALL   442E
....................                if(!GuardaEEPROM){ 
09276:  MOVLB  1
09278:  BTFSC  x06.1
0927A:  BRA    9374
....................                   CiclosPersonalizados[CicloLibre-1].Minutoest=mEstp; 
0927C:  MOVLW  01
0927E:  MOVLB  2
09280:  SUBWF  x51,W
09282:  MULLW  08
09284:  MOVF   FF3,W
09286:  MOVLB  6
09288:  CLRF   xD0
0928A:  MOVWF  xCF
0928C:  MOVLW  01
0928E:  ADDWF  xCF,W
09290:  MOVWF  01
09292:  MOVLW  00
09294:  ADDWFC xD0,W
09296:  MOVWF  03
09298:  MOVF   01,W
0929A:  ADDLW  07
0929C:  MOVWF  FE9
0929E:  MOVLW  06
092A0:  ADDWFC 03,W
092A2:  MOVWF  FEA
092A4:  MOVFF  126,FEF
....................                   CiclosPersonalizados[CicloLibre-1].Segundoest=sEstp; 
092A8:  MOVLW  01
092AA:  MOVLB  2
092AC:  SUBWF  x51,W
092AE:  MULLW  08
092B0:  MOVF   FF3,W
092B2:  MOVLB  6
092B4:  CLRF   xD0
092B6:  MOVWF  xCF
092B8:  MOVLW  02
092BA:  ADDWF  xCF,W
092BC:  MOVWF  01
092BE:  MOVLW  00
092C0:  ADDWFC xD0,W
092C2:  MOVWF  03
092C4:  MOVF   01,W
092C6:  ADDLW  07
092C8:  MOVWF  FE9
092CA:  MOVLW  06
092CC:  ADDWFC 03,W
092CE:  MOVWF  FEA
092D0:  MOVFF  125,FEF
....................                   write_eeprom(101+((CicloLibre-1)*8),mEstp); 
092D4:  MOVLW  01
092D6:  MOVLB  2
092D8:  SUBWF  x51,W
092DA:  MULLW  08
092DC:  MOVF   FF3,W
092DE:  ADDLW  65
092E0:  MOVLB  6
092E2:  MOVWF  xCF
092E4:  CLRF   FAA
092E6:  MOVFF  6CF,FA9
092EA:  MOVFF  126,FA8
092EE:  BCF    FA6.6
092F0:  BCF    FA6.7
092F2:  BSF    FA6.2
092F4:  MOVF   FF2,W
092F6:  MOVWF  00
092F8:  BCF    FF2.6
092FA:  BCF    FF2.7
092FC:  MOVLB  F
092FE:  MOVLW  55
09300:  MOVWF  FA7
09302:  MOVLW  AA
09304:  MOVWF  FA7
09306:  BSF    FA6.1
09308:  BTFSC  FA6.1
0930A:  BRA    9308
0930C:  BCF    FA6.2
0930E:  MOVF   00,W
09310:  IORWF  FF2,F
....................                   delay_ms(10); 
09312:  MOVLW  0A
09314:  MOVLB  6
09316:  MOVWF  xE1
09318:  MOVLB  0
0931A:  CALL   21DE
....................                   write_eeprom(102+((CicloLibre-1)*8),sEstp); 
0931E:  MOVLW  01
09320:  MOVLB  2
09322:  SUBWF  x51,W
09324:  MULLW  08
09326:  MOVF   FF3,W
09328:  ADDLW  66
0932A:  MOVLB  6
0932C:  MOVWF  xCF
0932E:  CLRF   FAA
09330:  MOVFF  6CF,FA9
09334:  MOVFF  125,FA8
09338:  BCF    FA6.6
0933A:  BCF    FA6.7
0933C:  BSF    FA6.2
0933E:  MOVF   FF2,W
09340:  MOVWF  00
09342:  BCF    FF2.6
09344:  BCF    FF2.7
09346:  MOVLB  F
09348:  MOVLW  55
0934A:  MOVWF  FA7
0934C:  MOVLW  AA
0934E:  MOVWF  FA7
09350:  BSF    FA6.1
09352:  BTFSC  FA6.1
09354:  BRA    9352
09356:  BCF    FA6.2
09358:  MOVF   00,W
0935A:  IORWF  FF2,F
....................                   delay_ms(10); 
0935C:  MOVLW  0A
0935E:  MOVLB  6
09360:  MOVWF  xE1
09362:  MOVLB  0
09364:  CALL   21DE
....................                   mEst=mEstp; 
09368:  MOVFF  126,122
....................                   sEst=sEstp; 
0936C:  MOVFF  125,121
....................                   GuardaEEPROM=ON; 
09370:  MOVLB  1
09372:  BSF    x06.1
09374:  MOVLB  0
....................                } 
....................          } 
....................           
....................          if(RX_Buffer[4]==0x0c || RX_Buffer[4]==0x0d){//Tecla arriba Oprimida 
09376:  MOVF   35,W
09378:  SUBLW  0C
0937A:  BZ    9382
0937C:  MOVF   35,W
0937E:  SUBLW  0D
09380:  BNZ   9396
....................             if(Segundos){ 
09382:  MOVLB  1
09384:  BTFSS  x06.0
09386:  BRA    938A
....................                sEstp++; 
09388:  INCF   x25,F
....................             } 
....................             if(Minutos){ 
0938A:  BTFSS  x05.7
0938C:  BRA    9390
....................                mEstp++; 
0938E:  INCF   x26,F
....................             }   
....................             RX_Buffer[4]=0x00;   
09390:  CLRF   35
....................             RX_Buffer2[4]=0x00; 
09392:  CLRF   40
09394:  MOVLB  0
....................          } 
....................           
....................          if(RX_Buffer[4]==0x0f || RX_Buffer[4]==0x0e){//Tecla abajo oprimida 
09396:  MOVF   35,W
09398:  SUBLW  0F
0939A:  BZ    93A2
0939C:  MOVF   35,W
0939E:  SUBLW  0E
093A0:  BNZ   93B8
....................             if(Segundos && sEstp>0){ 
093A2:  MOVLB  1
093A4:  BTFSS  x06.0
093A6:  BRA    93AE
093A8:  MOVF   x25,F
093AA:  BZ    93AE
....................                sEstp--; 
093AC:  DECF   x25,F
....................             } 
....................             if(Minutos){ 
093AE:  BTFSS  x05.7
093B0:  BRA    93B4
....................                mEstp--; 
093B2:  DECF   x26,F
....................             } 
....................             RX_Buffer[4]=0x00;   
093B4:  CLRF   35
....................             RX_Buffer2[4]=0x00; 
093B6:  CLRF   40
....................          } 
....................           
....................          if(mEstp<1)mEstp=99; 
093B8:  MOVLB  1
093BA:  MOVF   x26,F
093BC:  BNZ   93C2
093BE:  MOVLW  63
093C0:  MOVWF  x26
....................          if(mEstp>99)mEstp=1; 
093C2:  MOVF   x26,W
093C4:  SUBLW  63
093C6:  BC    93CC
093C8:  MOVLW  01
093CA:  MOVWF  x26
....................          if(sEstp>59)sEstp=0; 
093CC:  MOVF   x25,W
093CE:  SUBLW  3B
093D0:  BTFSS  FD8.0
093D2:  CLRF   x25
....................              
....................          printf("tminest.txt=\"%02u\"",mEstp); 
093D4:  MOVLW  BC
093D6:  MOVWF  FF6
093D8:  MOVLW  0A
093DA:  MOVWF  FF7
093DC:  MOVLW  00
093DE:  MOVWF  FF8
093E0:  MOVLW  0D
093E2:  MOVLB  6
093E4:  MOVWF  xD4
093E6:  MOVLB  0
093E8:  CALL   5E96
093EC:  MOVFF  126,6D4
093F0:  MOVLW  01
093F2:  MOVLB  6
093F4:  MOVWF  xD5
093F6:  MOVLB  0
093F8:  CALL   5F1A
093FC:  MOVLW  22
093FE:  BTFSS  F9E.4
09400:  BRA    93FE
09402:  MOVWF  FAD
....................          SendDataDisplay(); 
09404:  CALL   442E
....................          printf("tsecest.txt=\"%02u\"",sEstp); 
09408:  MOVLW  D0
0940A:  MOVWF  FF6
0940C:  MOVLW  0A
0940E:  MOVWF  FF7
09410:  MOVLW  00
09412:  MOVWF  FF8
09414:  MOVLW  0D
09416:  MOVLB  6
09418:  MOVWF  xD4
0941A:  MOVLB  0
0941C:  CALL   5E96
09420:  MOVFF  125,6D4
09424:  MOVLW  01
09426:  MOVLB  6
09428:  MOVWF  xD5
0942A:  MOVLB  0
0942C:  CALL   5F1A
09430:  MOVLW  22
09432:  BTFSS  F9E.4
09434:  BRA    9432
09436:  MOVWF  FAD
....................          SendDataDisplay(); 
09438:  CALL   442E
....................     }else if(Menu==3){ //Menu de Tiempo de Secado 
0943C:  GOTO   F9E8
09440:  MOVLB  2
09442:  MOVF   x73,W
09444:  SUBLW  03
09446:  BTFSS  FD8.2
09448:  BRA    9722
....................       printf("fecha.txt=\"Fecha:%02u/%02u/20%02u Hora: %02u:%02u:%02u\"",Dia,Mes,Year,Hora,Minuto,Segundo); 
0944A:  MOVLW  E4
0944C:  MOVWF  FF6
0944E:  MOVLW  0A
09450:  MOVWF  FF7
09452:  MOVLW  00
09454:  MOVWF  FF8
09456:  MOVLW  11
09458:  MOVLB  6
0945A:  MOVWF  xD4
0945C:  MOVLB  0
0945E:  CALL   5E96
09462:  MOVFF  2BA,6D4
09466:  MOVLW  01
09468:  MOVLB  6
0946A:  MOVWF  xD5
0946C:  MOVLB  0
0946E:  CALL   5F1A
09472:  MOVLW  2F
09474:  BTFSS  F9E.4
09476:  BRA    9474
09478:  MOVWF  FAD
0947A:  MOVFF  2B9,6D4
0947E:  MOVLW  01
09480:  MOVLB  6
09482:  MOVWF  xD5
09484:  MOVLB  0
09486:  CALL   5F1A
0948A:  MOVLW  2F
0948C:  BTFSS  F9E.4
0948E:  BRA    948C
09490:  MOVWF  FAD
09492:  MOVLW  32
09494:  BTFSS  F9E.4
09496:  BRA    9494
09498:  MOVWF  FAD
0949A:  MOVLW  30
0949C:  BTFSS  F9E.4
0949E:  BRA    949C
094A0:  MOVWF  FAD
094A2:  MOVFF  2B8,6D4
094A6:  MOVLW  01
094A8:  MOVLB  6
094AA:  MOVWF  xD5
094AC:  MOVLB  0
094AE:  CALL   5F1A
094B2:  MOVLW  05
094B4:  MOVWF  FF6
094B6:  MOVLW  0B
094B8:  MOVWF  FF7
094BA:  MOVLW  00
094BC:  MOVWF  FF8
094BE:  MOVLW  07
094C0:  MOVLB  6
094C2:  MOVWF  xD4
094C4:  MOVLB  0
094C6:  CALL   5E96
094CA:  MOVFF  2BB,6D4
094CE:  MOVLW  01
094D0:  MOVLB  6
094D2:  MOVWF  xD5
094D4:  MOVLB  0
094D6:  CALL   5F1A
094DA:  MOVLW  3A
094DC:  BTFSS  F9E.4
094DE:  BRA    94DC
094E0:  MOVWF  FAD
094E2:  MOVFF  2BC,6D4
094E6:  MOVLW  01
094E8:  MOVLB  6
094EA:  MOVWF  xD5
094EC:  MOVLB  0
094EE:  CALL   5F1A
094F2:  MOVLW  3A
094F4:  BTFSS  F9E.4
094F6:  BRA    94F4
094F8:  MOVWF  FAD
094FA:  MOVFF  2BD,6D4
094FE:  MOVLW  01
09500:  MOVLB  6
09502:  MOVWF  xD5
09504:  MOVLB  0
09506:  CALL   5F1A
0950A:  MOVLW  22
0950C:  BTFSS  F9E.4
0950E:  BRA    950C
09510:  MOVWF  FAD
....................       SendDataDisplay();             
09512:  CALL   442E
....................              
....................          if(RX_Buffer[4]==0x0a){//Selecciono Minutos 
09516:  MOVF   35,W
09518:  SUBLW  0A
0951A:  BNZ   9524
....................             Minutos=ON; 
0951C:  MOVLB  1
0951E:  BSF    x05.7
....................             Segundos=OFF; 
09520:  BCF    x06.0
09522:  MOVLB  0
....................          } 
....................           
....................          if(RX_Buffer[4]==0x0b){//Selecciono Segundos 
09524:  MOVF   35,W
09526:  SUBLW  0B
09528:  BNZ   9532
....................             Segundos=ON; 
0952A:  MOVLB  1
0952C:  BSF    x06.0
....................             Minutos=OFF; 
0952E:  BCF    x05.7
09530:  MOVLB  0
....................          } 
....................           
....................          if(RX_Buffer[4]==0x11){//Selecciono Regresar 
09532:  MOVF   35,W
09534:  SUBLW  11
09536:  BTFSS  FD8.2
09538:  BRA    9656
....................             Segundos=OFF; 
0953A:  MOVLB  1
0953C:  BCF    x06.0
....................             Minutos=OFF; 
0953E:  BCF    x05.7
....................             printf("page CicloPersona"); 
09540:  MOVLW  1C
09542:  MOVWF  FF6
09544:  MOVLW  0B
09546:  MOVWF  FF7
09548:  MOVLW  00
0954A:  MOVWF  FF8
0954C:  MOVLB  0
0954E:  CALL   43FC
....................             SendDataDisplay();   
09552:  CALL   442E
....................             if(!GuardaEEPROM){ 
09556:  MOVLB  1
09558:  BTFSC  x06.1
0955A:  BRA    9654
....................                CiclosPersonalizados[CicloLibre-1].Minutosec=mSecp; 
0955C:  MOVLW  01
0955E:  MOVLB  2
09560:  SUBWF  x51,W
09562:  MULLW  08
09564:  MOVF   FF3,W
09566:  MOVLB  6
09568:  CLRF   xD0
0956A:  MOVWF  xCF
0956C:  MOVLW  03
0956E:  ADDWF  xCF,W
09570:  MOVWF  01
09572:  MOVLW  00
09574:  ADDWFC xD0,W
09576:  MOVWF  03
09578:  MOVF   01,W
0957A:  ADDLW  07
0957C:  MOVWF  FE9
0957E:  MOVLW  06
09580:  ADDWFC 03,W
09582:  MOVWF  FEA
09584:  MOVFF  128,FEF
....................                CiclosPersonalizados[CicloLibre-1].Segundosec=sSecp; 
09588:  MOVLW  01
0958A:  MOVLB  2
0958C:  SUBWF  x51,W
0958E:  MULLW  08
09590:  MOVF   FF3,W
09592:  MOVLB  6
09594:  CLRF   xD0
09596:  MOVWF  xCF
09598:  MOVLW  04
0959A:  ADDWF  xCF,W
0959C:  MOVWF  01
0959E:  MOVLW  00
095A0:  ADDWFC xD0,W
095A2:  MOVWF  03
095A4:  MOVF   01,W
095A6:  ADDLW  07
095A8:  MOVWF  FE9
095AA:  MOVLW  06
095AC:  ADDWFC 03,W
095AE:  MOVWF  FEA
095B0:  MOVFF  127,FEF
....................                write_eeprom(103+((CicloLibre-1)*8),mSecp); 
095B4:  MOVLW  01
095B6:  MOVLB  2
095B8:  SUBWF  x51,W
095BA:  MULLW  08
095BC:  MOVF   FF3,W
095BE:  ADDLW  67
095C0:  MOVLB  6
095C2:  MOVWF  xCF
095C4:  CLRF   FAA
095C6:  MOVFF  6CF,FA9
095CA:  MOVFF  128,FA8
095CE:  BCF    FA6.6
095D0:  BCF    FA6.7
095D2:  BSF    FA6.2
095D4:  MOVF   FF2,W
095D6:  MOVWF  00
095D8:  BCF    FF2.6
095DA:  BCF    FF2.7
095DC:  MOVLB  F
095DE:  MOVLW  55
095E0:  MOVWF  FA7
095E2:  MOVLW  AA
095E4:  MOVWF  FA7
095E6:  BSF    FA6.1
095E8:  BTFSC  FA6.1
095EA:  BRA    95E8
095EC:  BCF    FA6.2
095EE:  MOVF   00,W
095F0:  IORWF  FF2,F
....................                delay_ms(10); 
095F2:  MOVLW  0A
095F4:  MOVLB  6
095F6:  MOVWF  xE1
095F8:  MOVLB  0
095FA:  CALL   21DE
....................                write_eeprom(104+((CicloLibre-1)*8),sSecp); 
095FE:  MOVLW  01
09600:  MOVLB  2
09602:  SUBWF  x51,W
09604:  MULLW  08
09606:  MOVF   FF3,W
09608:  ADDLW  68
0960A:  MOVLB  6
0960C:  MOVWF  xCF
0960E:  CLRF   FAA
09610:  MOVFF  6CF,FA9
09614:  MOVFF  127,FA8
09618:  BCF    FA6.6
0961A:  BCF    FA6.7
0961C:  BSF    FA6.2
0961E:  MOVF   FF2,W
09620:  MOVWF  00
09622:  BCF    FF2.6
09624:  BCF    FF2.7
09626:  MOVLB  F
09628:  MOVLW  55
0962A:  MOVWF  FA7
0962C:  MOVLW  AA
0962E:  MOVWF  FA7
09630:  BSF    FA6.1
09632:  BTFSC  FA6.1
09634:  BRA    9632
09636:  BCF    FA6.2
09638:  MOVF   00,W
0963A:  IORWF  FF2,F
....................                delay_ms(10); 
0963C:  MOVLW  0A
0963E:  MOVLB  6
09640:  MOVWF  xE1
09642:  MOVLB  0
09644:  CALL   21DE
....................                mSec=mSecp; 
09648:  MOVFF  128,124
....................                sSec=sSecp; 
0964C:  MOVFF  127,123
....................                GuardaEEPROM=ON; 
09650:  MOVLB  1
09652:  BSF    x06.1
09654:  MOVLB  0
....................             } 
....................          } 
....................           
....................          if(RX_Buffer[4]==0x0c || RX_Buffer[4]==0x0d){//Tecla Derecha Oprimida 
09656:  MOVF   35,W
09658:  SUBLW  0C
0965A:  BZ    9662
0965C:  MOVF   35,W
0965E:  SUBLW  0D
09660:  BNZ   9676
....................             if(Segundos){ 
09662:  MOVLB  1
09664:  BTFSS  x06.0
09666:  BRA    966A
....................                sSecp++; 
09668:  INCF   x27,F
....................             } 
....................             if(Minutos){ 
0966A:  BTFSS  x05.7
0966C:  BRA    9670
....................                mSecp++; 
0966E:  INCF   x28,F
....................             }   
....................             RX_Buffer[4]=0x00;   
09670:  CLRF   35
....................             RX_Buffer2[4]=0x00;  
09672:  CLRF   40
09674:  MOVLB  0
....................          } 
....................           
....................          if(RX_Buffer[4]==0x0f || RX_Buffer[4]==0x0e){//Tecla Izquierda Oprimida 
09676:  MOVF   35,W
09678:  SUBLW  0F
0967A:  BZ    9682
0967C:  MOVF   35,W
0967E:  SUBLW  0E
09680:  BNZ   9698
....................             if(Segundos && sSecp>0){ 
09682:  MOVLB  1
09684:  BTFSS  x06.0
09686:  BRA    968E
09688:  MOVF   x27,F
0968A:  BZ    968E
....................                sSecp--; 
0968C:  DECF   x27,F
....................             } 
....................             if(Minutos){ 
0968E:  BTFSS  x05.7
09690:  BRA    9694
....................                mSecp--; 
09692:  DECF   x28,F
....................             }  
....................             RX_Buffer[4]=0x00;   
09694:  CLRF   35
....................             RX_Buffer2[4]=0x00;             
09696:  CLRF   40
....................          } 
....................          if(mSecp<1)mSecp=99; 
09698:  MOVLB  1
0969A:  MOVF   x28,F
0969C:  BNZ   96A2
0969E:  MOVLW  63
096A0:  MOVWF  x28
....................          if(mSecp>99)mSecp=1; 
096A2:  MOVF   x28,W
096A4:  SUBLW  63
096A6:  BC    96AC
096A8:  MOVLW  01
096AA:  MOVWF  x28
....................          if(sSecp>59)mSecp=0; 
096AC:  MOVF   x27,W
096AE:  SUBLW  3B
096B0:  BTFSS  FD8.0
096B2:  CLRF   x28
....................              
....................       printf("tminsec.txt=\"%02u\"",mSecp); 
096B4:  MOVLW  2E
096B6:  MOVWF  FF6
096B8:  MOVLW  0B
096BA:  MOVWF  FF7
096BC:  MOVLW  00
096BE:  MOVWF  FF8
096C0:  MOVLW  0D
096C2:  MOVLB  6
096C4:  MOVWF  xD4
096C6:  MOVLB  0
096C8:  CALL   5E96
096CC:  MOVFF  128,6D4
096D0:  MOVLW  01
096D2:  MOVLB  6
096D4:  MOVWF  xD5
096D6:  MOVLB  0
096D8:  CALL   5F1A
096DC:  MOVLW  22
096DE:  BTFSS  F9E.4
096E0:  BRA    96DE
096E2:  MOVWF  FAD
....................       SendDataDisplay(); 
096E4:  CALL   442E
....................       printf("tsecsec.txt=\"%02u\"",sSecp); 
096E8:  MOVLW  42
096EA:  MOVWF  FF6
096EC:  MOVLW  0B
096EE:  MOVWF  FF7
096F0:  MOVLW  00
096F2:  MOVWF  FF8
096F4:  MOVLW  0D
096F6:  MOVLB  6
096F8:  MOVWF  xD4
096FA:  MOVLB  0
096FC:  CALL   5E96
09700:  MOVFF  127,6D4
09704:  MOVLW  01
09706:  MOVLB  6
09708:  MOVWF  xD5
0970A:  MOVLB  0
0970C:  CALL   5F1A
09710:  MOVLW  22
09712:  BTFSS  F9E.4
09714:  BRA    9712
09716:  MOVWF  FAD
....................       SendDataDisplay(); 
09718:  CALL   442E
....................     }else if(Menu==4){ //Menu de Temperatura 
0971C:  GOTO   F9E8
09720:  MOVLB  2
09722:  MOVF   x73,W
09724:  SUBLW  04
09726:  BTFSS  FD8.2
09728:  BRA    98FE
....................       printf("fecha.txt=\"Fecha:%02u/%02u/20%02u Hora: %02u:%02u:%02u\"",Dia,Mes,Year,Hora,Minuto,Segundo); 
0972A:  MOVLW  56
0972C:  MOVWF  FF6
0972E:  MOVLW  0B
09730:  MOVWF  FF7
09732:  MOVLW  00
09734:  MOVWF  FF8
09736:  MOVLW  11
09738:  MOVLB  6
0973A:  MOVWF  xD4
0973C:  MOVLB  0
0973E:  CALL   5E96
09742:  MOVFF  2BA,6D4
09746:  MOVLW  01
09748:  MOVLB  6
0974A:  MOVWF  xD5
0974C:  MOVLB  0
0974E:  CALL   5F1A
09752:  MOVLW  2F
09754:  BTFSS  F9E.4
09756:  BRA    9754
09758:  MOVWF  FAD
0975A:  MOVFF  2B9,6D4
0975E:  MOVLW  01
09760:  MOVLB  6
09762:  MOVWF  xD5
09764:  MOVLB  0
09766:  CALL   5F1A
0976A:  MOVLW  2F
0976C:  BTFSS  F9E.4
0976E:  BRA    976C
09770:  MOVWF  FAD
09772:  MOVLW  32
09774:  BTFSS  F9E.4
09776:  BRA    9774
09778:  MOVWF  FAD
0977A:  MOVLW  30
0977C:  BTFSS  F9E.4
0977E:  BRA    977C
09780:  MOVWF  FAD
09782:  MOVFF  2B8,6D4
09786:  MOVLW  01
09788:  MOVLB  6
0978A:  MOVWF  xD5
0978C:  MOVLB  0
0978E:  CALL   5F1A
09792:  MOVLW  77
09794:  MOVWF  FF6
09796:  MOVLW  0B
09798:  MOVWF  FF7
0979A:  MOVLW  00
0979C:  MOVWF  FF8
0979E:  MOVLW  07
097A0:  MOVLB  6
097A2:  MOVWF  xD4
097A4:  MOVLB  0
097A6:  CALL   5E96
097AA:  MOVFF  2BB,6D4
097AE:  MOVLW  01
097B0:  MOVLB  6
097B2:  MOVWF  xD5
097B4:  MOVLB  0
097B6:  CALL   5F1A
097BA:  MOVLW  3A
097BC:  BTFSS  F9E.4
097BE:  BRA    97BC
097C0:  MOVWF  FAD
097C2:  MOVFF  2BC,6D4
097C6:  MOVLW  01
097C8:  MOVLB  6
097CA:  MOVWF  xD5
097CC:  MOVLB  0
097CE:  CALL   5F1A
097D2:  MOVLW  3A
097D4:  BTFSS  F9E.4
097D6:  BRA    97D4
097D8:  MOVWF  FAD
097DA:  MOVFF  2BD,6D4
097DE:  MOVLW  01
097E0:  MOVLB  6
097E2:  MOVWF  xD5
097E4:  MOVLB  0
097E6:  CALL   5F1A
097EA:  MOVLW  22
097EC:  BTFSS  F9E.4
097EE:  BRA    97EC
097F0:  MOVWF  FAD
....................       SendDataDisplay(); 
097F2:  CALL   442E
....................          if(Setpoint<110) 
097F6:  MOVLB  2
097F8:  MOVF   x83,W
097FA:  SUBLW  6D
097FC:  BNC   9802
....................             Setpoint=138; 
097FE:  MOVLW  8A
09800:  MOVWF  x83
....................          if(Setpoint>138) 
09802:  MOVF   x83,W
09804:  SUBLW  8A
09806:  BC    980C
....................             Setpoint=110; 
09808:  MOVLW  6E
0980A:  MOVWF  x83
....................           
....................          if(RX_Buffer[4]==0x11){//Selecciono Regresar 
0980C:  MOVF   35,W
0980E:  SUBLW  11
09810:  BNZ   98AC
....................             Segundos=OFF; 
09812:  MOVLB  1
09814:  BCF    x06.0
....................             Minutos=OFF; 
09816:  BCF    x05.7
....................             printf("page CicloPersona"); 
09818:  MOVLW  8E
0981A:  MOVWF  FF6
0981C:  MOVLW  0B
0981E:  MOVWF  FF7
09820:  MOVLW  00
09822:  MOVWF  FF8
09824:  MOVLB  0
09826:  CALL   43FC
....................             SendDataDisplay();   
0982A:  CALL   442E
....................             PantallaPrincipal=1; 
0982E:  MOVLW  01
09830:  MOVLB  1
09832:  MOVWF  xF8
....................             Op=OFF; 
09834:  BCF    x05.5
....................             Op2=OFF; 
09836:  BCF    x05.6
....................             if(!GuardaEEPROM){ 
09838:  BTFSC  x06.1
0983A:  BRA    98AA
....................                CiclosPersonalizados[CicloLibre-1].Temperatura=Setpoint; 
0983C:  MOVLW  01
0983E:  MOVLB  2
09840:  SUBWF  x51,W
09842:  MULLW  08
09844:  MOVF   FF3,W
09846:  MOVLB  6
09848:  CLRF   xD0
0984A:  MOVWF  xCF
0984C:  MOVLW  07
0984E:  ADDWF  xCF,W
09850:  MOVWF  FE9
09852:  MOVLW  06
09854:  ADDWFC xD0,W
09856:  MOVWF  FEA
09858:  MOVFF  283,FEF
....................                write_eeprom(100+((CicloLibre-1)*8),Setpoint); 
0985C:  MOVLW  01
0985E:  MOVLB  2
09860:  SUBWF  x51,W
09862:  MULLW  08
09864:  MOVF   FF3,W
09866:  ADDLW  64
09868:  MOVLB  6
0986A:  MOVWF  xCF
0986C:  CLRF   FAA
0986E:  MOVFF  6CF,FA9
09872:  MOVFF  283,FA8
09876:  BCF    FA6.6
09878:  BCF    FA6.7
0987A:  BSF    FA6.2
0987C:  MOVF   FF2,W
0987E:  MOVWF  00
09880:  BCF    FF2.6
09882:  BCF    FF2.7
09884:  MOVLB  F
09886:  MOVLW  55
09888:  MOVWF  FA7
0988A:  MOVLW  AA
0988C:  MOVWF  FA7
0988E:  BSF    FA6.1
09890:  BTFSC  FA6.1
09892:  BRA    9890
09894:  BCF    FA6.2
09896:  MOVF   00,W
09898:  IORWF  FF2,F
....................                delay_ms(10); 
0989A:  MOVLW  0A
0989C:  MOVLB  6
0989E:  MOVWF  xE1
098A0:  MOVLB  0
098A2:  CALL   21DE
....................                GuardaEEPROM=ON; 
098A6:  MOVLB  1
098A8:  BSF    x06.1
098AA:  MOVLB  2
....................             } 
....................          } 
....................           
....................          if(RX_Buffer[4]==0x0d){//Tecla Arriba Oprimida 
098AC:  MOVF   35,W
098AE:  SUBLW  0D
098B0:  BNZ   98B8
....................             Setpoint++; 
098B2:  INCF   x83,F
....................             RX_Buffer[4]=0x00;   
098B4:  CLRF   35
....................             RX_Buffer2[4]=0x00;             
098B6:  CLRF   40
....................             //BorraBuffer(); 
....................          } 
....................           
....................          if(RX_Buffer[4]==0x0c){//Tecla Abajo Oprimida 
098B8:  MOVF   35,W
098BA:  SUBLW  0C
098BC:  BNZ   98C4
....................             Setpoint--; 
098BE:  DECF   x83,F
....................             RX_Buffer[4]=0x00; 
098C0:  CLRF   35
....................             RX_Buffer2[4]=0x00;             
098C2:  CLRF   40
....................             //BorraBuffer(); 
....................          } 
....................           
....................       printf("tsettem.txt=\"%03u\"",Setpoint); 
098C4:  MOVLW  A0
098C6:  MOVWF  FF6
098C8:  MOVLW  0B
098CA:  MOVWF  FF7
098CC:  MOVLW  00
098CE:  MOVWF  FF8
098D0:  MOVLW  0D
098D2:  MOVLB  6
098D4:  MOVWF  xD4
098D6:  MOVLB  0
098D8:  CALL   5E96
098DC:  MOVFF  283,6D4
098E0:  MOVLW  03
098E2:  MOVLB  6
098E4:  MOVWF  xD5
098E6:  MOVLB  0
098E8:  CALL   5F1A
098EC:  MOVLW  22
098EE:  BTFSS  F9E.4
098F0:  BRA    98EE
098F2:  MOVWF  FAD
....................       SendDataDisplay(); 
098F4:  CALL   442E
....................     }else if(Menu==5){//Menu de Nivel de Vacio 
098F8:  GOTO   F9E8
098FC:  MOVLB  2
098FE:  MOVF   x73,W
09900:  SUBLW  05
09902:  BTFSS  FD8.2
09904:  BRA    9AF8
....................       printf("fecha.txt=\"Fecha:%02u/%02u/20%02u Hora: %02u:%02u:%02u\"",Dia,Mes,Year,Hora,Minuto,Segundo); 
09906:  MOVLW  B4
09908:  MOVWF  FF6
0990A:  MOVLW  0B
0990C:  MOVWF  FF7
0990E:  MOVLW  00
09910:  MOVWF  FF8
09912:  MOVLW  11
09914:  MOVLB  6
09916:  MOVWF  xD4
09918:  MOVLB  0
0991A:  CALL   5E96
0991E:  MOVFF  2BA,6D4
09922:  MOVLW  01
09924:  MOVLB  6
09926:  MOVWF  xD5
09928:  MOVLB  0
0992A:  CALL   5F1A
0992E:  MOVLW  2F
09930:  BTFSS  F9E.4
09932:  BRA    9930
09934:  MOVWF  FAD
09936:  MOVFF  2B9,6D4
0993A:  MOVLW  01
0993C:  MOVLB  6
0993E:  MOVWF  xD5
09940:  MOVLB  0
09942:  CALL   5F1A
09946:  MOVLW  2F
09948:  BTFSS  F9E.4
0994A:  BRA    9948
0994C:  MOVWF  FAD
0994E:  MOVLW  32
09950:  BTFSS  F9E.4
09952:  BRA    9950
09954:  MOVWF  FAD
09956:  MOVLW  30
09958:  BTFSS  F9E.4
0995A:  BRA    9958
0995C:  MOVWF  FAD
0995E:  MOVFF  2B8,6D4
09962:  MOVLW  01
09964:  MOVLB  6
09966:  MOVWF  xD5
09968:  MOVLB  0
0996A:  CALL   5F1A
0996E:  MOVLW  D5
09970:  MOVWF  FF6
09972:  MOVLW  0B
09974:  MOVWF  FF7
09976:  MOVLW  00
09978:  MOVWF  FF8
0997A:  MOVLW  07
0997C:  MOVLB  6
0997E:  MOVWF  xD4
09980:  MOVLB  0
09982:  CALL   5E96
09986:  MOVFF  2BB,6D4
0998A:  MOVLW  01
0998C:  MOVLB  6
0998E:  MOVWF  xD5
09990:  MOVLB  0
09992:  CALL   5F1A
09996:  MOVLW  3A
09998:  BTFSS  F9E.4
0999A:  BRA    9998
0999C:  MOVWF  FAD
0999E:  MOVFF  2BC,6D4
099A2:  MOVLW  01
099A4:  MOVLB  6
099A6:  MOVWF  xD5
099A8:  MOVLB  0
099AA:  CALL   5F1A
099AE:  MOVLW  3A
099B0:  BTFSS  F9E.4
099B2:  BRA    99B0
099B4:  MOVWF  FAD
099B6:  MOVFF  2BD,6D4
099BA:  MOVLW  01
099BC:  MOVLB  6
099BE:  MOVWF  xD5
099C0:  MOVLB  0
099C2:  CALL   5F1A
099C6:  MOVLW  22
099C8:  BTFSS  F9E.4
099CA:  BRA    99C8
099CC:  MOVWF  FAD
....................       SendDataDisplay(); 
099CE:  CALL   442E
....................          if(Nivel<25) 
099D2:  MOVLB  2
099D4:  MOVF   x91,F
099D6:  BNZ   99E4
099D8:  MOVF   x90,W
099DA:  SUBLW  18
099DC:  BNC   99E4
....................             Nivel=100; 
099DE:  CLRF   x91
099E0:  MOVLW  64
099E2:  MOVWF  x90
....................          if(Nivel>100) 
099E4:  MOVF   x91,F
099E6:  BNZ   99EE
099E8:  MOVF   x90,W
099EA:  SUBLW  64
099EC:  BC    99F4
....................             Nivel=25; 
099EE:  CLRF   x91
099F0:  MOVLW  19
099F2:  MOVWF  x90
....................           
....................          if(RX_Buffer[4]==0x11){//Selecciono Regresar 
099F4:  MOVF   35,W
099F6:  SUBLW  11
099F8:  BNZ   9A9C
....................             Segundos=OFF; 
099FA:  MOVLB  1
099FC:  BCF    x06.0
....................             Minutos=OFF;             
099FE:  BCF    x05.7
....................             tiempo_secado=0; 
09A00:  MOVLB  2
09A02:  CLRF   x87
....................             printf("page CicloPersona"); 
09A04:  MOVLW  EC
09A06:  MOVWF  FF6
09A08:  MOVLW  0B
09A0A:  MOVWF  FF7
09A0C:  MOVLW  00
09A0E:  MOVWF  FF8
09A10:  MOVLB  0
09A12:  CALL   43FC
....................             SendDataDisplay();   
09A16:  CALL   442E
....................             if(!GuardaEEPROM){     
09A1A:  MOVLB  1
09A1C:  BTFSC  x06.1
09A1E:  BRA    9A9A
....................                CiclosPersonalizados[CicloLibre-1].NivelVacio=Nivel; 
09A20:  MOVLW  01
09A22:  MOVLB  2
09A24:  SUBWF  x51,W
09A26:  MULLW  08
09A28:  MOVF   FF3,W
09A2A:  MOVLB  6
09A2C:  CLRF   xD0
09A2E:  MOVWF  xCF
09A30:  MOVLW  06
09A32:  ADDWF  xCF,W
09A34:  MOVWF  01
09A36:  MOVLW  00
09A38:  ADDWFC xD0,W
09A3A:  MOVWF  03
09A3C:  MOVF   01,W
09A3E:  ADDLW  07
09A40:  MOVWF  FE9
09A42:  MOVLW  06
09A44:  ADDWFC 03,W
09A46:  MOVWF  FEA
09A48:  MOVFF  290,FEF
....................                write_eeprom(106+((CicloLibre-1)*8),Nivel); 
09A4C:  MOVLW  01
09A4E:  MOVLB  2
09A50:  SUBWF  x51,W
09A52:  MULLW  08
09A54:  MOVF   FF3,W
09A56:  ADDLW  6A
09A58:  MOVLB  6
09A5A:  MOVWF  xCF
09A5C:  CLRF   FAA
09A5E:  MOVFF  6CF,FA9
09A62:  MOVFF  290,FA8
09A66:  BCF    FA6.6
09A68:  BCF    FA6.7
09A6A:  BSF    FA6.2
09A6C:  MOVF   FF2,W
09A6E:  MOVWF  00
09A70:  BCF    FF2.6
09A72:  BCF    FF2.7
09A74:  MOVLB  F
09A76:  MOVLW  55
09A78:  MOVWF  FA7
09A7A:  MOVLW  AA
09A7C:  MOVWF  FA7
09A7E:  BSF    FA6.1
09A80:  BTFSC  FA6.1
09A82:  BRA    9A80
09A84:  BCF    FA6.2
09A86:  MOVF   00,W
09A88:  IORWF  FF2,F
....................                delay_ms(20);             
09A8A:  MOVLW  14
09A8C:  MOVLB  6
09A8E:  MOVWF  xE1
09A90:  MOVLB  0
09A92:  CALL   21DE
....................                GuardaEEPROM=ON; 
09A96:  MOVLB  1
09A98:  BSF    x06.1
09A9A:  MOVLB  2
....................             } 
....................          } 
....................           
....................          if(RX_Buffer[4]==0x0d){//Tecla Arriba Oprimida 
09A9C:  MOVF   35,W
09A9E:  SUBLW  0D
09AA0:  BNZ   9AAC
....................             Nivel++; 
09AA2:  INCF   x90,F
09AA4:  BTFSC  FD8.2
09AA6:  INCF   x91,F
....................             RX_Buffer[4]=0x00;             
09AA8:  CLRF   35
....................             RX_Buffer2[4]=0x00;             
09AAA:  CLRF   40
....................             //BorraBuffer(); 
....................          } 
....................           
....................          if(RX_Buffer[4]==0x0c){//Tecla Abajo Oprimida 
09AAC:  MOVF   35,W
09AAE:  SUBLW  0C
09AB0:  BNZ   9ABE
....................             Nivel--; 
09AB2:  MOVF   x90,W
09AB4:  BTFSC  FD8.2
09AB6:  DECF   x91,F
09AB8:  DECF   x90,F
....................             RX_Buffer[4]=0x00; 
09ABA:  CLRF   35
....................             RX_Buffer2[4]=0x00;             
09ABC:  CLRF   40
....................             //BorraBuffer(); 
....................          } 
....................           
....................       printf("tnivel.txt=\"%Lu\"",Nivel); 
09ABE:  MOVLW  FE
09AC0:  MOVWF  FF6
09AC2:  MOVLW  0B
09AC4:  MOVWF  FF7
09AC6:  MOVLW  00
09AC8:  MOVWF  FF8
09ACA:  MOVLW  0C
09ACC:  MOVLB  6
09ACE:  MOVWF  xD4
09AD0:  MOVLB  0
09AD2:  CALL   5E96
09AD6:  MOVLW  10
09AD8:  MOVWF  FE9
09ADA:  MOVFF  291,6D4
09ADE:  MOVFF  290,6D3
09AE2:  CALL   6010
09AE6:  MOVLW  22
09AE8:  BTFSS  F9E.4
09AEA:  BRA    9AE8
09AEC:  MOVWF  FAD
....................       SendDataDisplay(); 
09AEE:  CALL   442E
....................    }else if(Menu==6){ // Menu de Prueba de Componentes 
09AF2:  GOTO   F9E8
09AF6:  MOVLB  2
09AF8:  MOVF   x73,W
09AFA:  SUBLW  06
09AFC:  BTFSS  FD8.2
09AFE:  GOTO   A310
....................          PruebaEstados=ON; 
09B02:  MOVLB  1
09B04:  BSF    x05.1
....................           
....................          printf("t0.txt=\"Test %02u\"",Codigo); 
09B06:  MOVLW  10
09B08:  MOVWF  FF6
09B0A:  MOVLW  0C
09B0C:  MOVWF  FF7
09B0E:  MOVLW  00
09B10:  MOVWF  FF8
09B12:  MOVLW  0D
09B14:  MOVLB  6
09B16:  MOVWF  xD4
09B18:  MOVLB  0
09B1A:  CALL   5E96
09B1E:  MOVFF  272,6D4
09B22:  MOVLW  01
09B24:  MOVLB  6
09B26:  MOVWF  xD5
09B28:  MOVLB  0
09B2A:  CALL   5F1A
09B2E:  MOVLW  22
09B30:  BTFSS  F9E.4
09B32:  BRA    9B30
09B34:  MOVWF  FAD
....................          SendDataDisplay(); 
09B36:  CALL   442E
....................           
....................          if(RX_Buffer[4]==0x01){//Oprimio EV Suministro 
09B3A:  DECFSZ 35,W
09B3C:  BRA    9B46
....................             EstadoSuministro=!EstadoSuministro; 
09B3E:  MOVLB  1
09B40:  BTG    x04.7
....................             RX_Buffer[4]=0x00; 
09B42:  CLRF   35
....................             RX_Buffer2[4]=0x00; 
09B44:  CLRF   40
....................          } 
....................           
....................          if(EstadoSuministro){ 
09B46:  MOVLB  1
09B48:  BTFSS  x04.7
09B4A:  BRA    9B68
....................             printf("b0.bco=2016"); 
09B4C:  MOVLW  24
09B4E:  MOVWF  FF6
09B50:  MOVLW  0C
09B52:  MOVWF  FF7
09B54:  MOVLW  00
09B56:  MOVWF  FF8
09B58:  MOVLB  0
09B5A:  CALL   43FC
....................             SendDataDisplay();  
09B5E:  CALL   442E
....................             suministroAire=ON; 
09B62:  BSF    30.4
....................          }else{ 
09B64:  BRA    9B80
09B66:  MOVLB  1
....................             printf("b0.bco=63488"); 
09B68:  MOVLW  30
09B6A:  MOVWF  FF6
09B6C:  MOVLW  0C
09B6E:  MOVWF  FF7
09B70:  MOVLW  00
09B72:  MOVWF  FF8
09B74:  MOVLB  0
09B76:  CALL   43FC
....................             SendDataDisplay();  
09B7A:  CALL   442E
....................             suministroAire=OFF; 
09B7E:  BCF    30.4
....................          } 
....................           
....................          if(RX_Buffer[4]==0x02){//Oprimio EV Desfogue 
09B80:  MOVF   35,W
09B82:  SUBLW  02
09B84:  BNZ   9B8E
....................             EstadoDesfogue=!EstadoDesfogue; 
09B86:  MOVLB  1
09B88:  BTG    x04.6
....................             RX_Buffer[4]=0x00; 
09B8A:  CLRF   35
....................             RX_Buffer2[4]=0x00; 
09B8C:  CLRF   40
....................          } 
....................           
....................          if(EstadoDesfogue){ 
09B8E:  MOVLB  1
09B90:  BTFSS  x04.6
09B92:  BRA    9BB0
....................             printf("b1.bco=2016"); 
09B94:  MOVLW  3E
09B96:  MOVWF  FF6
09B98:  MOVLW  0C
09B9A:  MOVWF  FF7
09B9C:  MOVLW  00
09B9E:  MOVWF  FF8
09BA0:  MOVLB  0
09BA2:  CALL   43FC
....................             SendDataDisplay();  
09BA6:  CALL   442E
....................             Desfogue=ON; 
09BAA:  BSF    xF8.4
....................          }else{ 
09BAC:  BRA    9BC8
09BAE:  MOVLB  1
....................             printf("b1.bco=63488"); 
09BB0:  MOVLW  4A
09BB2:  MOVWF  FF6
09BB4:  MOVLW  0C
09BB6:  MOVWF  FF7
09BB8:  MOVLW  00
09BBA:  MOVWF  FF8
09BBC:  MOVLB  0
09BBE:  CALL   43FC
....................             SendDataDisplay();  
09BC2:  CALL   442E
....................             Desfogue=OFF; 
09BC6:  BCF    xF8.4
....................          } 
....................           
....................          if(RX_Buffer[4]==0x03){//Oprimio EV Paso 
09BC8:  MOVF   35,W
09BCA:  SUBLW  03
09BCC:  BNZ   9BD6
....................             EstadoPaso=!EstadoPaso; 
09BCE:  MOVLB  1
09BD0:  BTG    x06.2
....................             RX_Buffer[4]=0x00; 
09BD2:  CLRF   35
....................             RX_Buffer2[4]=0x00; 
09BD4:  CLRF   40
....................          } 
....................           
....................          if(EstadoPaso){ 
09BD6:  MOVLB  1
09BD8:  BTFSS  x06.2
09BDA:  BRA    9BF8
....................             printf("b2.bco=2016"); 
09BDC:  MOVLW  58
09BDE:  MOVWF  FF6
09BE0:  MOVLW  0C
09BE2:  MOVWF  FF7
09BE4:  MOVLW  00
09BE6:  MOVWF  FF8
09BE8:  MOVLB  0
09BEA:  CALL   43FC
....................             SendDataDisplay();  
09BEE:  CALL   442E
....................             Paso=ON; 
09BF2:  BSF    xF8.2
....................          }else{ 
09BF4:  BRA    9C10
09BF6:  MOVLB  1
....................             printf("b2.bco=63488"); 
09BF8:  MOVLW  64
09BFA:  MOVWF  FF6
09BFC:  MOVLW  0C
09BFE:  MOVWF  FF7
09C00:  MOVLW  00
09C02:  MOVWF  FF8
09C04:  MOVLB  0
09C06:  CALL   43FC
....................             SendDataDisplay();  
09C0A:  CALL   442E
....................             Paso=OFF; 
09C0E:  BCF    xF8.2
....................          } 
....................          
....................          if(RX_Buffer[4]==0x04){//Oprimio Vacio 
09C10:  MOVF   35,W
09C12:  SUBLW  04
09C14:  BNZ   9C1E
....................             EstadoVacio=!EstadoVacio; 
09C16:  MOVLB  1
09C18:  BTG    x06.3
....................             RX_Buffer[4]=0x00; 
09C1A:  CLRF   35
....................             RX_Buffer2[4]=0x00; 
09C1C:  CLRF   40
....................          } 
....................           
....................          if(EstadoVacio){ 
09C1E:  MOVLB  1
09C20:  BTFSS  x06.3
09C22:  BRA    9C40
....................             printf("b3.bco=2016"); 
09C24:  MOVLW  72
09C26:  MOVWF  FF6
09C28:  MOVLW  0C
09C2A:  MOVWF  FF7
09C2C:  MOVLW  00
09C2E:  MOVWF  FF8
09C30:  MOVLB  0
09C32:  CALL   43FC
....................             SendDataDisplay();  
09C36:  CALL   442E
....................             outVacio=ON; 
09C3A:  BSF    xF8.3
....................          }else{ 
09C3C:  BRA    9C58
09C3E:  MOVLB  1
....................             printf("b3.bco=63488"); 
09C40:  MOVLW  7E
09C42:  MOVWF  FF6
09C44:  MOVLW  0C
09C46:  MOVWF  FF7
09C48:  MOVLW  00
09C4A:  MOVWF  FF8
09C4C:  MOVLB  0
09C4E:  CALL   43FC
....................             SendDataDisplay();  
09C52:  CALL   442E
....................             outVacio=OFF; 
09C56:  BCF    xF8.3
....................          } 
....................           
....................          if(RX_Buffer[4]==0x05){//Oprimio Aire 
09C58:  MOVF   35,W
09C5A:  SUBLW  05
09C5C:  BNZ   9C66
....................             EstadoAire=!EstadoAire; 
09C5E:  MOVLB  1
09C60:  BTG    x05.0
....................             RX_Buffer[4]=0x00; 
09C62:  CLRF   35
....................             RX_Buffer2[4]=0x00; 
09C64:  CLRF   40
....................          } 
....................           
....................          if(EstadoAire){ 
09C66:  MOVLB  1
09C68:  BTFSS  x05.0
09C6A:  BRA    9C88
....................             printf("b4.bco=2016"); 
09C6C:  MOVLW  8C
09C6E:  MOVWF  FF6
09C70:  MOVLW  0C
09C72:  MOVWF  FF7
09C74:  MOVLW  00
09C76:  MOVWF  FF8
09C78:  MOVLB  0
09C7A:  CALL   43FC
....................             SendDataDisplay();  
09C7E:  CALL   442E
....................             Aire=ON; 
09C82:  BSF    xF8.5
....................          }else{ 
09C84:  BRA    9CA0
09C86:  MOVLB  1
....................             printf("b4.bco=63488"); 
09C88:  MOVLW  98
09C8A:  MOVWF  FF6
09C8C:  MOVLW  0C
09C8E:  MOVWF  FF7
09C90:  MOVLW  00
09C92:  MOVWF  FF8
09C94:  MOVLB  0
09C96:  CALL   43FC
....................             SendDataDisplay();  
09C9A:  CALL   442E
....................             Aire=OFF; 
09C9E:  BCF    xF8.5
....................          } 
....................           
....................          if(RX_Buffer[4]==0x06){//Oprimio Bomba Vacio 
09CA0:  MOVF   35,W
09CA2:  SUBLW  06
09CA4:  BNZ   9CAE
....................             EstadoBomba=!EstadoBomba; 
09CA6:  MOVLB  1
09CA8:  BTG    x07.3
....................             RX_Buffer[4]=0x00; 
09CAA:  CLRF   35
....................             RX_Buffer2[4]=0x00; 
09CAC:  CLRF   40
....................          } 
....................           
....................          if(EstadoBomba){ 
09CAE:  MOVLB  1
09CB0:  BTFSS  x07.3
09CB2:  BRA    9CD8
....................             printf("b5.bco=2016"); 
09CB4:  MOVLW  A6
09CB6:  MOVWF  FF6
09CB8:  MOVLW  0C
09CBA:  MOVWF  FF7
09CBC:  MOVLW  00
09CBE:  MOVWF  FF8
09CC0:  MOVLB  0
09CC2:  CALL   43FC
....................             SendDataDisplay();  
09CC6:  CALL   442E
....................             if(ReservorioLleno) 
09CCA:  MOVLB  1
09CCC:  BTFSS  x0A.1
09CCE:  BRA    9CD4
....................                bombaVacio=ON; 
09CD0:  BSF    30.6
....................             else 
09CD2:  BRA    9CD6
....................                bombaVacio=OFF; 
09CD4:  BCF    30.6
....................          }else{ 
09CD6:  BRA    9CF2
....................             printf("b5.bco=63488"); 
09CD8:  MOVLW  B2
09CDA:  MOVWF  FF6
09CDC:  MOVLW  0C
09CDE:  MOVWF  FF7
09CE0:  MOVLW  00
09CE2:  MOVWF  FF8
09CE4:  MOVLB  0
09CE6:  CALL   43FC
....................             SendDataDisplay();  
09CEA:  CALL   442E
....................             bombaVacio=OFF; 
09CEE:  BCF    30.6
09CF0:  MOVLB  1
....................          } 
....................           
....................          if(RX_Buffer[4]==0x07){//Oprimio EV Agua 
09CF2:  MOVF   35,W
09CF4:  SUBLW  07
09CF6:  BNZ   9D00
....................             EstadoAguaEnfriador=!EstadoAguaEnfriador; 
09CF8:  MOVLB  0
09CFA:  BTG    xFC.3
....................             RX_Buffer[4]=0x00; 
09CFC:  CLRF   35
....................             RX_Buffer2[4]=0x00; 
09CFE:  CLRF   40
....................          } 
....................           
....................          if(EstadoAguaEnfriador){ 
09D00:  MOVLB  0
09D02:  BTFSS  xFC.3
09D04:  BRA    9D1E
....................             printf("b7.bco=2016"); 
09D06:  MOVLW  C0
09D08:  MOVWF  FF6
09D0A:  MOVLW  0C
09D0C:  MOVWF  FF7
09D0E:  MOVLW  00
09D10:  MOVWF  FF8
09D12:  CALL   43FC
....................             SendDataDisplay();  
09D16:  CALL   442E
....................             aguaEnfriador=ON; 
09D1A:  BSF    30.5
....................          }else{ 
09D1C:  BRA    9D34
....................             printf("b7.bco=63488"); 
09D1E:  MOVLW  CC
09D20:  MOVWF  FF6
09D22:  MOVLW  0C
09D24:  MOVWF  FF7
09D26:  MOVLW  00
09D28:  MOVWF  FF8
09D2A:  CALL   43FC
....................             SendDataDisplay();  
09D2E:  CALL   442E
....................             aguaEnfriador=OFF; 
09D32:  BCF    30.5
....................          } 
....................           
....................          if(RX_Buffer[4]==0x08){//Oprimio EV Suministro Vapor 
09D34:  MOVF   35,W
09D36:  SUBLW  08
09D38:  BNZ   9D40
....................             EstadoSuministroV=!EstadoSuministroV; 
09D3A:  BTG    xFC.4
....................             RX_Buffer[4]=0x00; 
09D3C:  CLRF   35
....................             RX_Buffer2[4]=0x00; 
09D3E:  CLRF   40
....................          } 
....................           
....................          if(EstadoSuministroV){ 
09D40:  BTFSS  xFC.4
09D42:  BRA    9D5C
....................             printf("b6.bco=2016"); 
09D44:  MOVLW  DA
09D46:  MOVWF  FF6
09D48:  MOVLW  0C
09D4A:  MOVWF  FF7
09D4C:  MOVLW  00
09D4E:  MOVWF  FF8
09D50:  CALL   43FC
....................             SendDataDisplay();  
09D54:  CALL   442E
....................             suministroVapor=ON; 
09D58:  BSF    xF8.1
....................          }else{ 
09D5A:  BRA    9D72
....................             printf("b6.bco=63488"); 
09D5C:  MOVLW  E6
09D5E:  MOVWF  FF6
09D60:  MOVLW  0C
09D62:  MOVWF  FF7
09D64:  MOVLW  00
09D66:  MOVWF  FF8
09D68:  CALL   43FC
....................             SendDataDisplay();  
09D6C:  CALL   442E
....................             suministroVapor=OFF; 
09D70:  BCF    xF8.1
....................          } 
....................           
....................          if(RX_Buffer[4]==0x09){//Oprimio Abrir Cierre 
09D72:  MOVF   35,W
09D74:  SUBLW  09
09D76:  BNZ   9D7E
....................             EstadoCilindrosL=!EstadoCilindrosL; 
09D78:  BTG    xFC.5
....................             RX_Buffer[4]=0x00; 
09D7A:  CLRF   35
....................             RX_Buffer2[4]=0x00; 
09D7C:  CLRF   40
....................          } 
....................           
....................          if(EstadoCilindrosL){ 
09D7E:  BTFSS  xFC.5
09D80:  BRA    9D9A
....................             printf("b12.bco=2016"); 
09D82:  MOVLW  F4
09D84:  MOVWF  FF6
09D86:  MOVLW  0C
09D88:  MOVWF  FF7
09D8A:  MOVLW  00
09D8C:  MOVWF  FF8
09D8E:  CALL   43FC
....................             SendDataDisplay();  
09D92:  CALL   442E
....................             cilindroLimpio=OFF; 
09D96:  BCF    xF8.7
....................          }else{ 
09D98:  BRA    9DB0
....................             printf("b12.bco=63488"); 
09D9A:  MOVLW  02
09D9C:  MOVWF  FF6
09D9E:  MOVLW  0D
09DA0:  MOVWF  FF7
09DA2:  MOVLW  00
09DA4:  MOVWF  FF8
09DA6:  CALL   43FC
....................             SendDataDisplay();  
09DAA:  CALL   442E
....................             cilindroLimpio=ON; 
09DAE:  BSF    xF8.7
....................          } 
....................           
....................          if(RX_Buffer[4]==0x0a){//Oprimio Empaque 
09DB0:  MOVF   35,W
09DB2:  SUBLW  0A
09DB4:  BNZ   9DBC
....................             EstadoEmpaqueL=!EstadoEmpaqueL; 
09DB6:  BTG    xFC.7
....................             RX_Buffer[4]=0x00; 
09DB8:  CLRF   35
....................             RX_Buffer2[4]=0x00; 
09DBA:  CLRF   40
....................          } 
....................           
....................          if(EstadoEmpaqueL && DOORL){ 
09DBC:  BTFSS  xFC.7
09DBE:  BRA    9DDC
09DC0:  BTFSS  30.1
09DC2:  BRA    9DDC
....................             printf("b16.bco=2016"); 
09DC4:  MOVLW  10
09DC6:  MOVWF  FF6
09DC8:  MOVLW  0D
09DCA:  MOVWF  FF7
09DCC:  MOVLW  00
09DCE:  MOVWF  FF8
09DD0:  CALL   43FC
....................             SendDataDisplay();  
09DD4:  CALL   442E
....................             empaqueLimpio=ON;             
09DD8:  BSF    30.7
....................          }else{ 
09DDA:  BRA    9DF2
....................             printf("b16.bco=63488"); 
09DDC:  MOVLW  1E
09DDE:  MOVWF  FF6
09DE0:  MOVLW  0D
09DE2:  MOVWF  FF7
09DE4:  MOVLW  00
09DE6:  MOVWF  FF8
09DE8:  CALL   43FC
....................             SendDataDisplay();  
09DEC:  CALL   442E
....................             empaqueLimpio=OFF; 
09DF0:  BCF    30.7
....................          } 
....................           
....................          if(RX_Buffer[4]==0x0b){//Oprimio Abrir Cierre 
09DF2:  MOVF   35,W
09DF4:  SUBLW  0B
09DF6:  BNZ   9DFE
....................             EstadoCilindrosS=!EstadoCilindrosS; 
09DF8:  BTG    xFC.6
....................             RX_Buffer[4]=0x00; 
09DFA:  CLRF   35
....................             RX_Buffer2[4]=0x00; 
09DFC:  CLRF   40
....................          } 
....................           
....................          if(EstadoCilindrosS){ 
09DFE:  BTFSS  xFC.6
09E00:  BRA    9E1A
....................             printf("b17.bco=2016"); 
09E02:  MOVLW  2C
09E04:  MOVWF  FF6
09E06:  MOVLW  0D
09E08:  MOVWF  FF7
09E0A:  MOVLW  00
09E0C:  MOVWF  FF8
09E0E:  CALL   43FC
....................             SendDataDisplay();  
09E12:  CALL   442E
....................             cilindroSucio=OFF; 
09E16:  BCF    xF8.6
....................          }else{ 
09E18:  BRA    9E30
....................             printf("b17.bco=63488"); 
09E1A:  MOVLW  3A
09E1C:  MOVWF  FF6
09E1E:  MOVLW  0D
09E20:  MOVWF  FF7
09E22:  MOVLW  00
09E24:  MOVWF  FF8
09E26:  CALL   43FC
....................             SendDataDisplay();  
09E2A:  CALL   442E
....................             cilindroSucio=ON; 
09E2E:  BSF    xF8.6
....................          } 
....................           
....................          if(RX_Buffer[4]==0x0c){//Oprimio Empaque 
09E30:  MOVF   35,W
09E32:  SUBLW  0C
09E34:  BNZ   9E3E
....................             EstadoEmpaqueS=!EstadoEmpaqueS; 
09E36:  MOVLB  1
09E38:  BTG    x03.0
....................             RX_Buffer[4]=0x00; 
09E3A:  CLRF   35
....................             RX_Buffer2[4]=0x00; 
09E3C:  CLRF   40
....................          } 
....................           
....................          if(EstadoEmpaqueS && DOORS){ 
09E3E:  MOVLB  1
09E40:  BTFSS  x03.0
09E42:  BRA    9E66
09E44:  BSF    F93.1
09E46:  BTFSC  F81.1
09E48:  BRA    9E66
....................             printf("b25.bco=2016"); 
09E4A:  MOVLW  48
09E4C:  MOVWF  FF6
09E4E:  MOVLW  0D
09E50:  MOVWF  FF7
09E52:  MOVLW  00
09E54:  MOVWF  FF8
09E56:  MOVLB  0
09E58:  CALL   43FC
....................             SendDataDisplay();  
09E5C:  CALL   442E
....................             empaqueSucio=ON;             
09E60:  BSF    xF8.0
....................          }else{ 
09E62:  BRA    9E7E
09E64:  MOVLB  1
....................             printf("b25.bco=63488"); 
09E66:  MOVLW  56
09E68:  MOVWF  FF6
09E6A:  MOVLW  0D
09E6C:  MOVWF  FF7
09E6E:  MOVLW  00
09E70:  MOVWF  FF8
09E72:  MOVLB  0
09E74:  CALL   43FC
....................             SendDataDisplay();  
09E78:  CALL   442E
....................             empaqueSucio=OFF; 
09E7C:  BCF    xF8.0
....................          } 
....................           
....................          if(RX_Buffer[4]==0x0d){//Oprimio Buzzer 
09E7E:  MOVF   35,W
09E80:  SUBLW  0D
09E82:  BNZ   9E8C
....................             EstadoBuzzer=!EstadoBuzzer; 
09E84:  MOVLB  1
09E86:  BTG    x06.4
....................             RX_Buffer[4]=0x00; 
09E88:  CLRF   35
....................             RX_Buffer2[4]=0x00; 
09E8A:  CLRF   40
....................          } 
....................           
....................          if(EstadoBuzzer){ 
09E8C:  MOVLB  1
09E8E:  BTFSS  x06.4
09E90:  BRA    9EAC
....................             printf("b21.bco=2016"); 
09E92:  MOVLW  64
09E94:  MOVWF  FF6
09E96:  MOVLW  0D
09E98:  MOVWF  FF7
09E9A:  MOVLW  00
09E9C:  MOVWF  FF8
09E9E:  MOVLB  0
09EA0:  CALL   43FC
....................             SendDataDisplay();  
09EA4:  CALL   442E
....................          }else{ 
09EA8:  BRA    9EC2
09EAA:  MOVLB  1
....................             printf("b21.bco=63488"); 
09EAC:  MOVLW  72
09EAE:  MOVWF  FF6
09EB0:  MOVLW  0D
09EB2:  MOVWF  FF7
09EB4:  MOVLW  00
09EB6:  MOVWF  FF8
09EB8:  MOVLB  0
09EBA:  CALL   43FC
....................             SendDataDisplay();  
09EBE:  CALL   442E
....................          } 
....................           
....................          if(RX_Buffer[4]==0x0e){//Oprimio Aux1 
09EC2:  MOVF   35,W
09EC4:  SUBLW  0E
09EC6:  BNZ   9ECE
....................             EstadoAux1=!EstadoAux1; 
09EC8:  BTG    xF9.3
....................             RX_Buffer[4]=0x00; 
09ECA:  CLRF   35
....................             RX_Buffer2[4]=0x00; 
09ECC:  CLRF   40
....................          } 
....................           
....................          if(EstadoAux1){ 
09ECE:  BTFSS  xF9.3
09ED0:  BRA    9EEA
....................             seguroValvula=ON; 
09ED2:  BSF    xF9.1
....................             printf("b22.bco=2016"); 
09ED4:  MOVLW  80
09ED6:  MOVWF  FF6
09ED8:  MOVLW  0D
09EDA:  MOVWF  FF7
09EDC:  MOVLW  00
09EDE:  MOVWF  FF8
09EE0:  CALL   43FC
....................             SendDataDisplay();  
09EE4:  CALL   442E
....................          }else{ 
09EE8:  BRA    9F00
....................             seguroValvula=OFF; 
09EEA:  BCF    xF9.1
....................             printf("b22.bco=63488"); 
09EEC:  MOVLW  8E
09EEE:  MOVWF  FF6
09EF0:  MOVLW  0D
09EF2:  MOVWF  FF7
09EF4:  MOVLW  00
09EF6:  MOVWF  FF8
09EF8:  CALL   43FC
....................             SendDataDisplay();  
09EFC:  CALL   442E
....................          } 
....................           
....................          if(RX_Buffer[4]==0x0f){//Oprimio Aux2 
09F00:  MOVF   35,W
09F02:  SUBLW  0F
09F04:  BNZ   9F0C
....................             EstadoAux2=!EstadoAux2; 
09F06:  BTG    xF9.4
....................             RX_Buffer[4]=0x00; 
09F08:  CLRF   35
....................             RX_Buffer2[4]=0x00; 
09F0A:  CLRF   40
....................          } 
....................           
....................          if(EstadoAux2){ 
09F0C:  BTFSS  xF9.4
09F0E:  BRA    9F28
....................             seguroValvula2=ON; 
09F10:  BSF    xF9.2
....................             printf("b28.bco=2016"); 
09F12:  MOVLW  9C
09F14:  MOVWF  FF6
09F16:  MOVLW  0D
09F18:  MOVWF  FF7
09F1A:  MOVLW  00
09F1C:  MOVWF  FF8
09F1E:  CALL   43FC
....................             SendDataDisplay();  
09F22:  CALL   442E
....................          }else{ 
09F26:  BRA    9F3E
....................             seguroValvula2=OFF; 
09F28:  BCF    xF9.2
....................             printf("b28.bco=63488"); 
09F2A:  MOVLW  AA
09F2C:  MOVWF  FF6
09F2E:  MOVLW  0D
09F30:  MOVWF  FF7
09F32:  MOVLW  00
09F34:  MOVWF  FF8
09F36:  CALL   43FC
....................             SendDataDisplay();  
09F3A:  CALL   442E
....................          } 
....................           
....................          if(DOORS){ 
09F3E:  BSF    F93.1
09F40:  BTFSC  F81.1
09F42:  BRA    9F5A
....................             printf("b8.bco=2016"); 
09F44:  MOVLW  B8
09F46:  MOVWF  FF6
09F48:  MOVLW  0D
09F4A:  MOVWF  FF7
09F4C:  MOVLW  00
09F4E:  MOVWF  FF8
09F50:  CALL   43FC
....................             SendDataDisplay();  
09F54:  CALL   442E
....................          }else{ 
09F58:  BRA    9F6E
....................             printf("b8.bco=63488"); 
09F5A:  MOVLW  C4
09F5C:  MOVWF  FF6
09F5E:  MOVLW  0D
09F60:  MOVWF  FF7
09F62:  MOVLW  00
09F64:  MOVWF  FF8
09F66:  CALL   43FC
....................             SendDataDisplay();  
09F6A:  CALL   442E
....................          } 
....................           
....................          if(DOORL){ 
09F6E:  BTFSS  30.1
09F70:  BRA    9F88
....................             printf("b26.bco=2016"); 
09F72:  MOVLW  D2
09F74:  MOVWF  FF6
09F76:  MOVLW  0D
09F78:  MOVWF  FF7
09F7A:  MOVLW  00
09F7C:  MOVWF  FF8
09F7E:  CALL   43FC
....................             SendDataDisplay();  
09F82:  CALL   442E
....................          }else{ 
09F86:  BRA    9F9C
....................             printf("b26.bco=63488"); 
09F88:  MOVLW  E0
09F8A:  MOVWF  FF6
09F8C:  MOVLW  0D
09F8E:  MOVWF  FF7
09F90:  MOVLW  00
09F92:  MOVWF  FF8
09F94:  CALL   43FC
....................             SendDataDisplay();  
09F98:  CALL   442E
....................          } 
....................           
....................          if(EMPAQUEL){ 
09F9C:  BTFSS  30.0
09F9E:  BRA    9FB6
....................             printf("b9.bco=2016"); 
09FA0:  MOVLW  EE
09FA2:  MOVWF  FF6
09FA4:  MOVLW  0D
09FA6:  MOVWF  FF7
09FA8:  MOVLW  00
09FAA:  MOVWF  FF8
09FAC:  CALL   43FC
....................             SendDataDisplay();  
09FB0:  CALL   442E
....................          }else{ 
09FB4:  BRA    9FCA
....................             printf("b9.bco=63488"); 
09FB6:  MOVLW  FA
09FB8:  MOVWF  FF6
09FBA:  MOVLW  0D
09FBC:  MOVWF  FF7
09FBE:  MOVLW  00
09FC0:  MOVWF  FF8
09FC2:  CALL   43FC
....................             SendDataDisplay();  
09FC6:  CALL   442E
....................          } 
....................           
....................          if(EMPAQUES){ 
09FCA:  BSF    F93.3
09FCC:  BTFSC  F81.3
09FCE:  BRA    9FE6
....................             printf("b11.bco=2016"); 
09FD0:  MOVLW  08
09FD2:  MOVWF  FF6
09FD4:  MOVLW  0E
09FD6:  MOVWF  FF7
09FD8:  MOVLW  00
09FDA:  MOVWF  FF8
09FDC:  CALL   43FC
....................             SendDataDisplay();  
09FE0:  CALL   442E
....................          }else{ 
09FE4:  BRA    9FFA
....................             printf("b11.bco=63488"); 
09FE6:  MOVLW  16
09FE8:  MOVWF  FF6
09FEA:  MOVLW  0E
09FEC:  MOVWF  FF7
09FEE:  MOVLW  00
09FF0:  MOVWF  FF8
09FF2:  CALL   43FC
....................             SendDataDisplay();  
09FF6:  CALL   442E
....................          } 
....................           
....................          if(STOP){ 
09FFA:  BSF    F93.0
09FFC:  BTFSC  F81.0
09FFE:  BRA    A016
....................             printf("b10.bco=2016"); 
0A000:  MOVLW  24
0A002:  MOVWF  FF6
0A004:  MOVLW  0E
0A006:  MOVWF  FF7
0A008:  MOVLW  00
0A00A:  MOVWF  FF8
0A00C:  CALL   43FC
....................             SendDataDisplay();  
0A010:  CALL   442E
....................          }else{ 
0A014:  BRA    A02A
....................             printf("b10.bco=63488"); 
0A016:  MOVLW  32
0A018:  MOVWF  FF6
0A01A:  MOVLW  0E
0A01C:  MOVWF  FF7
0A01E:  MOVLW  00
0A020:  MOVWF  FF8
0A022:  CALL   43FC
....................             SendDataDisplay();  
0A026:  CALL   442E
....................          } 
....................           
....................          if(LOWB){ 
0A02A:  BSF    F93.2
0A02C:  BTFSC  F81.2
0A02E:  BRA    A046
....................             printf("b23.bco=2016"); 
0A030:  MOVLW  40
0A032:  MOVWF  FF6
0A034:  MOVLW  0E
0A036:  MOVWF  FF7
0A038:  MOVLW  00
0A03A:  MOVWF  FF8
0A03C:  CALL   43FC
....................             SendDataDisplay();  
0A040:  CALL   442E
....................          }else{ 
0A044:  BRA    A05A
....................             printf("b23.bco=63488"); 
0A046:  MOVLW  4E
0A048:  MOVWF  FF6
0A04A:  MOVLW  0E
0A04C:  MOVWF  FF7
0A04E:  MOVLW  00
0A050:  MOVWF  FF8
0A052:  CALL   43FC
....................             SendDataDisplay();  
0A056:  CALL   442E
....................          } 
....................           
....................          if(BLOQUEOL){ 
0A05A:  BTFSS  30.3
0A05C:  BRA    A074
....................             printf("b24.bco=2016"); 
0A05E:  MOVLW  5C
0A060:  MOVWF  FF6
0A062:  MOVLW  0E
0A064:  MOVWF  FF7
0A066:  MOVLW  00
0A068:  MOVWF  FF8
0A06A:  CALL   43FC
....................             SendDataDisplay();  
0A06E:  CALL   442E
....................          }else{ 
0A072:  BRA    A088
....................             printf("b24.bco=63488"); 
0A074:  MOVLW  6A
0A076:  MOVWF  FF6
0A078:  MOVLW  0E
0A07A:  MOVWF  FF7
0A07C:  MOVLW  00
0A07E:  MOVWF  FF8
0A080:  CALL   43FC
....................             SendDataDisplay();  
0A084:  CALL   442E
....................          } 
....................           
....................          if(BLOQUEOS){ 
0A088:  BTFSS  30.2
0A08A:  BRA    A0A2
....................             printf("b27.bco=2016"); 
0A08C:  MOVLW  78
0A08E:  MOVWF  FF6
0A090:  MOVLW  0E
0A092:  MOVWF  FF7
0A094:  MOVLW  00
0A096:  MOVWF  FF8
0A098:  CALL   43FC
....................             SendDataDisplay();  
0A09C:  CALL   442E
....................          }else{ 
0A0A0:  BRA    A0B6
....................             printf("b27.bco=63488"); 
0A0A2:  MOVLW  86
0A0A4:  MOVWF  FF6
0A0A6:  MOVLW  0E
0A0A8:  MOVWF  FF7
0A0AA:  MOVLW  00
0A0AC:  MOVWF  FF8
0A0AE:  CALL   43FC
....................             SendDataDisplay();  
0A0B2:  CALL   442E
....................          }          
....................                    
....................          printf("b13.txt=\"ADC0:%3.0f\"",sensores(0));          
0A0B6:  MOVLB  6
0A0B8:  CLRF   xD5
0A0BA:  MOVLB  0
0A0BC:  CALL   446C
0A0C0:  MOVFF  00,6CF
0A0C4:  MOVFF  01,6D0
0A0C8:  MOVFF  02,6D1
0A0CC:  MOVFF  03,6D2
0A0D0:  MOVLW  94
0A0D2:  MOVWF  FF6
0A0D4:  MOVLW  0E
0A0D6:  MOVWF  FF7
0A0D8:  MOVLW  00
0A0DA:  MOVWF  FF8
0A0DC:  MOVLW  0E
0A0DE:  MOVLB  6
0A0E0:  MOVWF  xD4
0A0E2:  MOVLB  0
0A0E4:  CALL   5E96
0A0E8:  MOVLW  02
0A0EA:  MOVWF  FE9
0A0EC:  MOVFF  6D2,6D7
0A0F0:  MOVFF  6D1,6D6
0A0F4:  MOVFF  6D0,6D5
0A0F8:  MOVFF  6CF,6D4
0A0FC:  MOVLB  6
0A0FE:  CLRF   xD8
0A100:  MOVLB  0
0A102:  CALL   617E
0A106:  MOVLW  22
0A108:  BTFSS  F9E.4
0A10A:  BRA    A108
0A10C:  MOVWF  FAD
....................          SendDataDisplay(); 
0A10E:  CALL   442E
....................          printf("b14.txt=\"ADC1:%3.0f\"",sensores(1));          
0A112:  MOVLW  01
0A114:  MOVLB  6
0A116:  MOVWF  xD5
0A118:  MOVLB  0
0A11A:  CALL   446C
0A11E:  MOVFF  00,6CF
0A122:  MOVFF  01,6D0
0A126:  MOVFF  02,6D1
0A12A:  MOVFF  03,6D2
0A12E:  MOVLW  AA
0A130:  MOVWF  FF6
0A132:  MOVLW  0E
0A134:  MOVWF  FF7
0A136:  MOVLW  00
0A138:  MOVWF  FF8
0A13A:  MOVLW  0E
0A13C:  MOVLB  6
0A13E:  MOVWF  xD4
0A140:  MOVLB  0
0A142:  CALL   5E96
0A146:  MOVLW  02
0A148:  MOVWF  FE9
0A14A:  MOVFF  6D2,6D7
0A14E:  MOVFF  6D1,6D6
0A152:  MOVFF  6D0,6D5
0A156:  MOVFF  6CF,6D4
0A15A:  MOVLB  6
0A15C:  CLRF   xD8
0A15E:  MOVLB  0
0A160:  CALL   617E
0A164:  MOVLW  22
0A166:  BTFSS  F9E.4
0A168:  BRA    A166
0A16A:  MOVWF  FAD
....................          SendDataDisplay(); 
0A16C:  CALL   442E
....................          printf("b15.txt=\"A4:%3.0f %03Lu\"",sensores(4),PresionPreCamara); 
0A170:  MOVLW  04
0A172:  MOVLB  6
0A174:  MOVWF  xD5
0A176:  MOVLB  0
0A178:  CALL   446C
0A17C:  MOVFF  00,6CF
0A180:  MOVFF  01,6D0
0A184:  MOVFF  02,6D1
0A188:  MOVFF  03,6D2
0A18C:  MOVLW  C0
0A18E:  MOVWF  FF6
0A190:  MOVLW  0E
0A192:  MOVWF  FF7
0A194:  MOVLW  00
0A196:  MOVWF  FF8
0A198:  MOVLW  0C
0A19A:  MOVLB  6
0A19C:  MOVWF  xD4
0A19E:  MOVLB  0
0A1A0:  CALL   5E96
0A1A4:  MOVLW  02
0A1A6:  MOVWF  FE9
0A1A8:  MOVFF  6D2,6D7
0A1AC:  MOVFF  6D1,6D6
0A1B0:  MOVFF  6D0,6D5
0A1B4:  MOVFF  6CF,6D4
0A1B8:  MOVLB  6
0A1BA:  CLRF   xD8
0A1BC:  MOVLB  0
0A1BE:  CALL   617E
0A1C2:  MOVLW  20
0A1C4:  BTFSS  F9E.4
0A1C6:  BRA    A1C4
0A1C8:  MOVWF  FAD
0A1CA:  MOVLW  0A
0A1CC:  MOVWF  FE9
0A1CE:  MOVFF  297,6D4
0A1D2:  MOVFF  296,6D3
0A1D6:  CALL   6010
0A1DA:  MOVLW  22
0A1DC:  BTFSS  F9E.4
0A1DE:  BRA    A1DC
0A1E0:  MOVWF  FAD
....................          SendDataDisplay(); 
0A1E2:  CALL   442E
....................          printf("b18.txt=\"A5:%3.0f %03Lu\"",sensores(5),PresionCamara); 
0A1E6:  MOVLW  05
0A1E8:  MOVLB  6
0A1EA:  MOVWF  xD5
0A1EC:  MOVLB  0
0A1EE:  CALL   446C
0A1F2:  MOVFF  00,6CF
0A1F6:  MOVFF  01,6D0
0A1FA:  MOVFF  02,6D1
0A1FE:  MOVFF  03,6D2
0A202:  MOVLW  DA
0A204:  MOVWF  FF6
0A206:  MOVLW  0E
0A208:  MOVWF  FF7
0A20A:  MOVLW  00
0A20C:  MOVWF  FF8
0A20E:  MOVLW  0C
0A210:  MOVLB  6
0A212:  MOVWF  xD4
0A214:  MOVLB  0
0A216:  CALL   5E96
0A21A:  MOVLW  02
0A21C:  MOVWF  FE9
0A21E:  MOVFF  6D2,6D7
0A222:  MOVFF  6D1,6D6
0A226:  MOVFF  6D0,6D5
0A22A:  MOVFF  6CF,6D4
0A22E:  MOVLB  6
0A230:  CLRF   xD8
0A232:  MOVLB  0
0A234:  CALL   617E
0A238:  MOVLW  20
0A23A:  BTFSS  F9E.4
0A23C:  BRA    A23A
0A23E:  MOVWF  FAD
0A240:  MOVLW  0A
0A242:  MOVWF  FE9
0A244:  MOVFF  295,6D4
0A248:  MOVFF  294,6D3
0A24C:  CALL   6010
0A250:  MOVLW  22
0A252:  BTFSS  F9E.4
0A254:  BRA    A252
0A256:  MOVWF  FAD
....................          SendDataDisplay(); 
0A258:  CALL   442E
....................          printf("b19.txt=\"T2:%3.1f\"",Temperatura2); 
0A25C:  MOVLW  F4
0A25E:  MOVWF  FF6
0A260:  MOVLW  0E
0A262:  MOVWF  FF7
0A264:  MOVLW  00
0A266:  MOVWF  FF8
0A268:  MOVLW  0C
0A26A:  MOVLB  6
0A26C:  MOVWF  xD4
0A26E:  MOVLB  0
0A270:  CALL   5E96
0A274:  MOVLW  02
0A276:  MOVWF  FE9
0A278:  MOVFF  242,6D7
0A27C:  MOVFF  241,6D6
0A280:  MOVFF  240,6D5
0A284:  MOVFF  23F,6D4
0A288:  MOVLW  01
0A28A:  MOVLB  6
0A28C:  MOVWF  xD8
0A28E:  MOVLB  0
0A290:  CALL   617E
0A294:  MOVLW  22
0A296:  BTFSS  F9E.4
0A298:  BRA    A296
0A29A:  MOVWF  FAD
....................          SendDataDisplay(); 
0A29C:  CALL   442E
....................          printf("b20.txt=\"T1:%3.1f\"",Temperatura); 
0A2A0:  MOVLW  08
0A2A2:  MOVWF  FF6
0A2A4:  MOVLW  0F
0A2A6:  MOVWF  FF7
0A2A8:  MOVLW  00
0A2AA:  MOVWF  FF8
0A2AC:  MOVLW  0C
0A2AE:  MOVLB  6
0A2B0:  MOVWF  xD4
0A2B2:  MOVLB  0
0A2B4:  CALL   5E96
0A2B8:  MOVLW  02
0A2BA:  MOVWF  FE9
0A2BC:  MOVFF  23E,6D7
0A2C0:  MOVFF  23D,6D6
0A2C4:  MOVFF  23C,6D5
0A2C8:  MOVFF  23B,6D4
0A2CC:  MOVLW  01
0A2CE:  MOVLB  6
0A2D0:  MOVWF  xD8
0A2D2:  MOVLB  0
0A2D4:  CALL   617E
0A2D8:  MOVLW  22
0A2DA:  BTFSS  F9E.4
0A2DC:  BRA    A2DA
0A2DE:  MOVWF  FAD
....................          SendDataDisplay(); 
0A2E0:  CALL   442E
....................           
....................          if(RX_Buffer[4]==0x21)//Oprimio salir 
0A2E4:  MOVF   35,W
0A2E6:  SUBLW  21
0A2E8:  BNZ   A30A
....................          { 
....................             printf("page Menu"); 
0A2EA:  MOVLW  1C
0A2EC:  MOVWF  FF6
0A2EE:  MOVLW  0F
0A2F0:  MOVWF  FF7
0A2F2:  MOVLW  00
0A2F4:  MOVWF  FF8
0A2F6:  CALL   43FC
....................             SendDataDisplay(); 
0A2FA:  CALL   442E
....................             PantallaPrincipal=0; 
0A2FE:  MOVLB  1
0A300:  CLRF   xF8
....................             PruebaEstados=OFF; 
0A302:  BCF    x05.1
....................             ApagaSalidas(); 
0A304:  MOVLB  0
0A306:  CALL   4464
....................             // Falta apagar Todo 
....................          } 
....................      }else if(Menu==7){ //Menu de Configuracin de Fecha y Hora 
0A30A:  GOTO   F9E8
0A30E:  MOVLB  2
0A310:  MOVF   x73,W
0A312:  SUBLW  07
0A314:  BTFSS  FD8.2
0A316:  BRA    A6FC
....................        
....................          if(RX_Buffer[4]==0x0a)//Selecciono Hora 
0A318:  MOVF   35,W
0A31A:  SUBLW  0A
0A31C:  BNZ   A322
....................             Opcion=4; 
0A31E:  MOVLW  04
0A320:  MOVWF  x84
....................           
....................          if(RX_Buffer[4]==0x0b)//Selecciono Minuto 
0A322:  MOVF   35,W
0A324:  SUBLW  0B
0A326:  BNZ   A32C
....................             Opcion=5; 
0A328:  MOVLW  05
0A32A:  MOVWF  x84
....................           
....................          if(RX_Buffer[4]==0x0c)//Selecciono Dia 
0A32C:  MOVF   35,W
0A32E:  SUBLW  0C
0A330:  BNZ   A336
....................             Opcion=1; 
0A332:  MOVLW  01
0A334:  MOVWF  x84
....................           
....................          if(RX_Buffer[4]==0x0d)//Selecciono Hora 
0A336:  MOVF   35,W
0A338:  SUBLW  0D
0A33A:  BNZ   A340
....................             Opcion=2; 
0A33C:  MOVLW  02
0A33E:  MOVWF  x84
....................           
....................          if(RX_Buffer[4]==0x0e)//Selecciono Year 
0A340:  MOVF   35,W
0A342:  SUBLW  0E
0A344:  BNZ   A34A
....................             Opcion=3; 
0A346:  MOVLW  03
0A348:  MOVWF  x84
....................           
....................          if(Opcion>5) 
0A34A:  MOVF   x84,W
0A34C:  SUBLW  05
0A34E:  BC    A354
....................             Opcion=1; 
0A350:  MOVLW  01
0A352:  MOVWF  x84
....................          if(Opcion<1) 
0A354:  MOVF   x84,F
0A356:  BNZ   A35C
....................             Opcion=5; 
0A358:  MOVLW  05
0A35A:  MOVWF  x84
....................              
....................          if(RX_Buffer[4]==0x11){//Selecciono Regresar 
0A35C:  MOVF   35,W
0A35E:  SUBLW  11
0A360:  BTFSS  FD8.2
0A362:  BRA    A49C
....................             printf("page Menu"); 
0A364:  MOVLW  26
0A366:  MOVWF  FF6
0A368:  MOVLW  0F
0A36A:  MOVWF  FF7
0A36C:  MOVLW  00
0A36E:  MOVWF  FF8
0A370:  MOVLB  0
0A372:  CALL   43FC
....................             SendDataDisplay();   
0A376:  CALL   442E
....................             PantallaPrincipal=0; 
0A37A:  MOVLB  1
0A37C:  CLRF   xF8
....................             Op=OFF; 
0A37E:  BCF    x05.5
....................             Op2=OFF; 
0A380:  BCF    x05.6
....................              
....................             if(esBisiesto(YearTx)) 
0A382:  MOVFF  2C5,6CF
0A386:  MOVLB  0
0A388:  CALL   6368
0A38C:  MOVF   01,F
0A38E:  BZ    A3AA
....................                Modulo=Bisiesto[MesTx]; 
0A390:  CLRF   03
0A392:  MOVLB  2
0A394:  MOVF   xC6,W
0A396:  ADDLW  EC
0A398:  MOVWF  FE9
0A39A:  MOVLW  00
0A39C:  ADDWFC 03,W
0A39E:  MOVWF  FEA
0A3A0:  MOVFF  FEF,1FA
0A3A4:  MOVLB  1
....................             else 
0A3A6:  BRA    A3C0
0A3A8:  MOVLB  0
....................                Modulo=Regular[MesTx]; 
0A3AA:  CLRF   03
0A3AC:  MOVLB  2
0A3AE:  MOVF   xC6,W
0A3B0:  ADDLW  E0
0A3B2:  MOVWF  FE9
0A3B4:  MOVLW  00
0A3B6:  ADDWFC 03,W
0A3B8:  MOVWF  FEA
0A3BA:  MOVFF  FEF,1FA
0A3BE:  MOVLB  1
....................           
....................             dowTx=((YearTx-1)%7+((YearTx-1)/4-3*((YearTx-1)/100+1)/4)%7+Modulo+DiaTx%7)%7; 
0A3C0:  MOVLW  01
0A3C2:  MOVLB  2
0A3C4:  SUBWF  xC5,W
0A3C6:  MOVLB  6
0A3C8:  MOVWF  xD0
0A3CA:  MOVWF  xD8
0A3CC:  MOVLW  07
0A3CE:  MOVWF  xD9
0A3D0:  MOVLB  0
0A3D2:  CALL   5EEE
0A3D6:  MOVFF  00,6CF
0A3DA:  MOVLW  01
0A3DC:  MOVLB  2
0A3DE:  SUBWF  xC5,W
0A3E0:  MOVWF  00
0A3E2:  RRCF   00,W
0A3E4:  MOVLB  6
0A3E6:  MOVWF  xD0
0A3E8:  RRCF   xD0,F
0A3EA:  MOVLW  3F
0A3EC:  ANDWF  xD0,F
0A3EE:  MOVLW  01
0A3F0:  MOVLB  2
0A3F2:  SUBWF  xC5,W
0A3F4:  MOVLB  6
0A3F6:  MOVWF  xD2
0A3F8:  MOVWF  xD8
0A3FA:  MOVLW  64
0A3FC:  MOVWF  xD9
0A3FE:  MOVLB  0
0A400:  CALL   5EEE
0A404:  MOVLW  01
0A406:  ADDWF  01,W
0A408:  MULLW  03
0A40A:  MOVFF  FF3,00
0A40E:  RRCF   00,F
0A410:  RRCF   00,F
0A412:  MOVLW  3F
0A414:  ANDWF  00,F
0A416:  MOVF   00,W
0A418:  MOVLB  6
0A41A:  SUBWF  xD0,W
0A41C:  MOVWF  xD1
0A41E:  MOVWF  xD8
0A420:  MOVLW  07
0A422:  MOVWF  xD9
0A424:  MOVLB  0
0A426:  CALL   5EEE
0A42A:  MOVF   00,W
0A42C:  MOVLB  6
0A42E:  ADDWF  xCF,W
0A430:  MOVLB  1
0A432:  ADDWF  xFA,W
0A434:  MOVLB  6
0A436:  MOVWF  xCF
0A438:  MOVFF  2C7,6D8
0A43C:  MOVLW  07
0A43E:  MOVWF  xD9
0A440:  MOVLB  0
0A442:  CALL   5EEE
0A446:  MOVF   00,W
0A448:  MOVLB  6
0A44A:  ADDWF  xCF,W
0A44C:  MOVWF  xD0
0A44E:  MOVWF  xD8
0A450:  MOVLW  07
0A452:  MOVWF  xD9
0A454:  MOVLB  0
0A456:  CALL   5EEE
0A45A:  MOVFF  00,2CA
....................             SetTime=5; 
0A45E:  MOVLW  05
0A460:  MOVLB  2
0A462:  MOVWF  xCB
....................             Envio_Esclavos(); 
0A464:  MOVLB  0
0A466:  CALL   59DA
....................             delay_ms(100);    
0A46A:  MOVLW  64
0A46C:  MOVLB  6
0A46E:  MOVWF  xE1
0A470:  MOVLB  0
0A472:  CALL   21DE
....................             SetTime=10; 
0A476:  MOVLW  0A
0A478:  MOVLB  2
0A47A:  MOVWF  xCB
....................             rtc_set_datetime(DiaTx,MesTx,YearTx,dowTx,HoraTx,MinutoTx); 
0A47C:  MOVFF  2C7,6CF
0A480:  MOVFF  2C6,6D0
0A484:  MOVFF  2C5,6D1
0A488:  MOVFF  2CA,6D2
0A48C:  MOVFF  2C8,6D3
0A490:  MOVFF  2C9,6D4
0A494:  MOVLB  0
0A496:  GOTO   63EA
0A49A:  MOVLB  2
....................          } 
....................           
....................          if(RX_Buffer[4]==0x2a){//Tecla Arriba Oprimida 
0A49C:  MOVF   35,W
0A49E:  SUBLW  2A
0A4A0:  BTFSS  FD8.2
0A4A2:  BRA    A588
....................                if(Opcion==1){ 
0A4A4:  DECFSZ x84,W
0A4A6:  BRA    A534
....................                   if(MesTx==2){ 
0A4A8:  MOVF   xC6,W
0A4AA:  SUBLW  02
0A4AC:  BNZ   A4E2
....................                      if(esBisiesto(YearTx)){ 
0A4AE:  MOVFF  2C5,6CF
0A4B2:  MOVLB  0
0A4B4:  CALL   6368
0A4B8:  MOVF   01,F
0A4BA:  BZ    A4D0
....................                         if(DiaTx<29) 
0A4BC:  MOVLB  2
0A4BE:  MOVF   xC7,W
0A4C0:  SUBLW  1C
0A4C2:  BNC   A4C8
....................                            DiaTx++; 
0A4C4:  INCF   xC7,F
....................                         else 
0A4C6:  BRA    A4CC
....................                            DiaTx=1;    
0A4C8:  MOVLW  01
0A4CA:  MOVWF  xC7
....................                      }else{ 
0A4CC:  BRA    A4E0
0A4CE:  MOVLB  0
....................                         if(DiaTx<28) 
0A4D0:  MOVLB  2
0A4D2:  MOVF   xC7,W
0A4D4:  SUBLW  1B
0A4D6:  BNC   A4DC
....................                            DiaTx++; 
0A4D8:  INCF   xC7,F
....................                         else 
0A4DA:  BRA    A4E0
....................                            DiaTx=1;    
0A4DC:  MOVLW  01
0A4DE:  MOVWF  xC7
....................                      } 
....................                   }else{ 
0A4E0:  BRA    A532
....................                      if(MesTx<=7){ 
0A4E2:  MOVF   xC6,W
0A4E4:  SUBLW  07
0A4E6:  BNC   A50E
....................                         if(MesTx % 2 ==0){ 
0A4E8:  MOVF   xC6,W
0A4EA:  ANDLW  01
0A4EC:  BNZ   A4FE
....................                            if(DiaTx<30) 
0A4EE:  MOVF   xC7,W
0A4F0:  SUBLW  1D
0A4F2:  BNC   A4F8
....................                               DiaTx++;     
0A4F4:  INCF   xC7,F
....................                            else 
0A4F6:  BRA    A4FC
....................                               DiaTx=1;    
0A4F8:  MOVLW  01
0A4FA:  MOVWF  xC7
....................                         }else{ 
0A4FC:  BRA    A50C
....................                            if(DiaTx<31) 
0A4FE:  MOVF   xC7,W
0A500:  SUBLW  1E
0A502:  BNC   A508
....................                               DiaTx++;     
0A504:  INCF   xC7,F
....................                            else 
0A506:  BRA    A50C
....................                               DiaTx=1;    
0A508:  MOVLW  01
0A50A:  MOVWF  xC7
....................                         }     
....................                      }else{ 
0A50C:  BRA    A532
....................                         if(MesTx % 2 ==0){ 
0A50E:  MOVF   xC6,W
0A510:  ANDLW  01
0A512:  BNZ   A524
....................                            if(DiaTx<31) 
0A514:  MOVF   xC7,W
0A516:  SUBLW  1E
0A518:  BNC   A51E
....................                               DiaTx++;   
0A51A:  INCF   xC7,F
....................                            else 
0A51C:  BRA    A522
....................                               DiaTx=1; 
0A51E:  MOVLW  01
0A520:  MOVWF  xC7
....................                         }else{ 
0A522:  BRA    A532
....................                            if(DiaTx<30) 
0A524:  MOVF   xC7,W
0A526:  SUBLW  1D
0A528:  BNC   A52E
....................                               DiaTx++;     
0A52A:  INCF   xC7,F
....................                            else 
0A52C:  BRA    A532
....................                               DiaTx=1; 
0A52E:  MOVLW  01
0A530:  MOVWF  xC7
....................                         }     
....................                      } 
....................                   } 
....................                }else if(Opcion==2){ 
0A532:  BRA    A584
0A534:  MOVF   x84,W
0A536:  SUBLW  02
0A538:  BNZ   A54A
....................                   if(MesTx<12) 
0A53A:  MOVF   xC6,W
0A53C:  SUBLW  0B
0A53E:  BNC   A544
....................                      MesTx++; 
0A540:  INCF   xC6,F
....................                   else 
0A542:  BRA    A548
....................                      MesTx=1; 
0A544:  MOVLW  01
0A546:  MOVWF  xC6
....................                }else if(Opcion==3){ 
0A548:  BRA    A584
0A54A:  MOVF   x84,W
0A54C:  SUBLW  03
0A54E:  BNZ   A55E
....................                   if(YearTx<99) 
0A550:  MOVF   xC5,W
0A552:  SUBLW  62
0A554:  BNC   A55A
....................                      YearTx++; 
0A556:  INCF   xC5,F
....................                   else  
0A558:  BRA    A55C
....................                      YearTx=0; 
0A55A:  CLRF   xC5
....................                }else if(Opcion==4){ 
0A55C:  BRA    A584
0A55E:  MOVF   x84,W
0A560:  SUBLW  04
0A562:  BNZ   A572
....................                   if(HoraTx<24) 
0A564:  MOVF   xC8,W
0A566:  SUBLW  17
0A568:  BNC   A56E
....................                      HoraTx++; 
0A56A:  INCF   xC8,F
....................                   else 
0A56C:  BRA    A570
....................                      HoraTx=0; 
0A56E:  CLRF   xC8
....................                }else if(Opcion==5){ 
0A570:  BRA    A584
0A572:  MOVF   x84,W
0A574:  SUBLW  05
0A576:  BNZ   A584
....................                   if(MinutoTx<59) 
0A578:  MOVF   xC9,W
0A57A:  SUBLW  3A
0A57C:  BNC   A582
....................                      MinutoTx++; 
0A57E:  INCF   xC9,F
....................                   else 
0A580:  BRA    A584
....................                      MinutoTx=0; 
0A582:  CLRF   xC9
....................                } 
....................                RX_Buffer[4]=0x00; 
0A584:  CLRF   35
....................                RX_Buffer2[4]=0x00; 
0A586:  CLRF   40
....................          } 
....................           
....................          if(RX_Buffer[4]==0x2b){//Tecla Abajo Oprimida  
0A588:  MOVF   35,W
0A58A:  SUBLW  2B
0A58C:  BNZ   A5EE
....................                if(Opcion==1){ 
0A58E:  DECFSZ x84,W
0A590:  BRA    A59A
....................                   if(DiaTx>0) 
0A592:  MOVF   xC7,F
0A594:  BZ    A598
....................                      DiaTx--; 
0A596:  DECF   xC7,F
....................                }else if(Opcion==2){ 
0A598:  BRA    A5EA
0A59A:  MOVF   x84,W
0A59C:  SUBLW  02
0A59E:  BNZ   A5B0
....................                   if(MesTx>1) 
0A5A0:  MOVF   xC6,W
0A5A2:  SUBLW  01
0A5A4:  BC    A5AA
....................                      MesTx--; 
0A5A6:  DECF   xC6,F
....................                   else 
0A5A8:  BRA    A5AE
....................                      MesTx=12; 
0A5AA:  MOVLW  0C
0A5AC:  MOVWF  xC6
....................                }else if(Opcion==3){ 
0A5AE:  BRA    A5EA
0A5B0:  MOVF   x84,W
0A5B2:  SUBLW  03
0A5B4:  BNZ   A5C4
....................                   if(YearTx>0) 
0A5B6:  MOVF   xC5,F
0A5B8:  BZ    A5BE
....................                      YearTx--; 
0A5BA:  DECF   xC5,F
....................                   else 
0A5BC:  BRA    A5C2
....................                      YearTx=99; 
0A5BE:  MOVLW  63
0A5C0:  MOVWF  xC5
....................                }else if(Opcion==4){ 
0A5C2:  BRA    A5EA
0A5C4:  MOVF   x84,W
0A5C6:  SUBLW  04
0A5C8:  BNZ   A5D8
....................                   if(HoraTx>0) 
0A5CA:  MOVF   xC8,F
0A5CC:  BZ    A5D2
....................                      HoraTx--; 
0A5CE:  DECF   xC8,F
....................                   else 
0A5D0:  BRA    A5D6
....................                      HoraTx=23; 
0A5D2:  MOVLW  17
0A5D4:  MOVWF  xC8
....................                }else if(Opcion==5){ 
0A5D6:  BRA    A5EA
0A5D8:  MOVF   x84,W
0A5DA:  SUBLW  05
0A5DC:  BNZ   A5EA
....................                   if(MinutoTx>0) 
0A5DE:  MOVF   xC9,F
0A5E0:  BZ    A5E6
....................                      MinutoTx--; 
0A5E2:  DECF   xC9,F
....................                   else 
0A5E4:  BRA    A5EA
....................                      MinutoTx=59; 
0A5E6:  MOVLW  3B
0A5E8:  MOVWF  xC9
....................                } 
....................                RX_Buffer[4]=0x00; 
0A5EA:  CLRF   35
....................                RX_Buffer2[4]=0x00; 
0A5EC:  CLRF   40
....................                //BorraBuffer(); 
....................          } 
....................        
....................       printf("thora.txt=\"%02u\"",HoraTx); 
0A5EE:  MOVLW  30
0A5F0:  MOVWF  FF6
0A5F2:  MOVLW  0F
0A5F4:  MOVWF  FF7
0A5F6:  MOVLW  00
0A5F8:  MOVWF  FF8
0A5FA:  MOVLW  0B
0A5FC:  MOVLB  6
0A5FE:  MOVWF  xD4
0A600:  MOVLB  0
0A602:  CALL   5E96
0A606:  MOVFF  2C8,6D4
0A60A:  MOVLW  01
0A60C:  MOVLB  6
0A60E:  MOVWF  xD5
0A610:  MOVLB  0
0A612:  CALL   5F1A
0A616:  MOVLW  22
0A618:  BTFSS  F9E.4
0A61A:  BRA    A618
0A61C:  MOVWF  FAD
....................       SendDataDisplay(); 
0A61E:  CALL   442E
....................       printf("tminutos.txt=\"%02u\"",MinutoTx); 
0A622:  MOVLW  42
0A624:  MOVWF  FF6
0A626:  MOVLW  0F
0A628:  MOVWF  FF7
0A62A:  MOVLW  00
0A62C:  MOVWF  FF8
0A62E:  MOVLW  0E
0A630:  MOVLB  6
0A632:  MOVWF  xD4
0A634:  MOVLB  0
0A636:  CALL   5E96
0A63A:  MOVFF  2C9,6D4
0A63E:  MOVLW  01
0A640:  MOVLB  6
0A642:  MOVWF  xD5
0A644:  MOVLB  0
0A646:  CALL   5F1A
0A64A:  MOVLW  22
0A64C:  BTFSS  F9E.4
0A64E:  BRA    A64C
0A650:  MOVWF  FAD
....................       SendDataDisplay(); 
0A652:  CALL   442E
....................       printf("tdia.txt=\"%02u\"",DiaTx); 
0A656:  MOVLW  56
0A658:  MOVWF  FF6
0A65A:  MOVLW  0F
0A65C:  MOVWF  FF7
0A65E:  MOVLW  00
0A660:  MOVWF  FF8
0A662:  MOVLW  0A
0A664:  MOVLB  6
0A666:  MOVWF  xD4
0A668:  MOVLB  0
0A66A:  CALL   5E96
0A66E:  MOVFF  2C7,6D4
0A672:  MOVLW  01
0A674:  MOVLB  6
0A676:  MOVWF  xD5
0A678:  MOVLB  0
0A67A:  CALL   5F1A
0A67E:  MOVLW  22
0A680:  BTFSS  F9E.4
0A682:  BRA    A680
0A684:  MOVWF  FAD
....................       SendDataDisplay(); 
0A686:  CALL   442E
....................       printf("tmes.txt=\"%02u\"",MesTx); 
0A68A:  MOVLW  66
0A68C:  MOVWF  FF6
0A68E:  MOVLW  0F
0A690:  MOVWF  FF7
0A692:  MOVLW  00
0A694:  MOVWF  FF8
0A696:  MOVLW  0A
0A698:  MOVLB  6
0A69A:  MOVWF  xD4
0A69C:  MOVLB  0
0A69E:  CALL   5E96
0A6A2:  MOVFF  2C6,6D4
0A6A6:  MOVLW  01
0A6A8:  MOVLB  6
0A6AA:  MOVWF  xD5
0A6AC:  MOVLB  0
0A6AE:  CALL   5F1A
0A6B2:  MOVLW  22
0A6B4:  BTFSS  F9E.4
0A6B6:  BRA    A6B4
0A6B8:  MOVWF  FAD
....................       SendDataDisplay(); 
0A6BA:  CALL   442E
....................       printf("tyear.txt=\"%02u\"",YearTx); 
0A6BE:  MOVLW  76
0A6C0:  MOVWF  FF6
0A6C2:  MOVLW  0F
0A6C4:  MOVWF  FF7
0A6C6:  MOVLW  00
0A6C8:  MOVWF  FF8
0A6CA:  MOVLW  0B
0A6CC:  MOVLB  6
0A6CE:  MOVWF  xD4
0A6D0:  MOVLB  0
0A6D2:  CALL   5E96
0A6D6:  MOVFF  2C5,6D4
0A6DA:  MOVLW  01
0A6DC:  MOVLB  6
0A6DE:  MOVWF  xD5
0A6E0:  MOVLB  0
0A6E2:  CALL   5F1A
0A6E6:  MOVLW  22
0A6E8:  BTFSS  F9E.4
0A6EA:  BRA    A6E8
0A6EC:  MOVWF  FAD
....................       SendDataDisplay(); 
0A6EE:  CALL   442E
....................       LimitaDia();   
0A6F2:  GOTO   64A6
....................     }else if(Menu==8){ //Menu Ciclos Personalizados 
0A6F6:  GOTO   F9E8
0A6FA:  MOVLB  2
0A6FC:  MOVF   x73,W
0A6FE:  SUBLW  08
0A700:  BTFSS  FD8.2
0A702:  GOTO   B2C0
....................       tCicloP=0; 
0A706:  MOVLB  1
0A708:  CLRF   x1C
0A70A:  CLRF   x1B
....................       oprimioCicloP=OFF; 
0A70C:  BCF    x03.3
....................       printf("fecha.txt=\"Fecha:%02u/%02u/20%02u Hora: %02u:%02u:%02u\"",Dia,Mes,Year,Hora,Minuto,Segundo); 
0A70E:  MOVLW  88
0A710:  MOVWF  FF6
0A712:  MOVLW  0F
0A714:  MOVWF  FF7
0A716:  MOVLW  00
0A718:  MOVWF  FF8
0A71A:  MOVLW  11
0A71C:  MOVLB  6
0A71E:  MOVWF  xD4
0A720:  MOVLB  0
0A722:  CALL   5E96
0A726:  MOVFF  2BA,6D4
0A72A:  MOVLW  01
0A72C:  MOVLB  6
0A72E:  MOVWF  xD5
0A730:  MOVLB  0
0A732:  CALL   5F1A
0A736:  MOVLW  2F
0A738:  BTFSS  F9E.4
0A73A:  BRA    A738
0A73C:  MOVWF  FAD
0A73E:  MOVFF  2B9,6D4
0A742:  MOVLW  01
0A744:  MOVLB  6
0A746:  MOVWF  xD5
0A748:  MOVLB  0
0A74A:  CALL   5F1A
0A74E:  MOVLW  2F
0A750:  BTFSS  F9E.4
0A752:  BRA    A750
0A754:  MOVWF  FAD
0A756:  MOVLW  32
0A758:  BTFSS  F9E.4
0A75A:  BRA    A758
0A75C:  MOVWF  FAD
0A75E:  MOVLW  30
0A760:  BTFSS  F9E.4
0A762:  BRA    A760
0A764:  MOVWF  FAD
0A766:  MOVFF  2B8,6D4
0A76A:  MOVLW  01
0A76C:  MOVLB  6
0A76E:  MOVWF  xD5
0A770:  MOVLB  0
0A772:  CALL   5F1A
0A776:  MOVLW  A9
0A778:  MOVWF  FF6
0A77A:  MOVLW  0F
0A77C:  MOVWF  FF7
0A77E:  MOVLW  00
0A780:  MOVWF  FF8
0A782:  MOVLW  07
0A784:  MOVLB  6
0A786:  MOVWF  xD4
0A788:  MOVLB  0
0A78A:  CALL   5E96
0A78E:  MOVFF  2BB,6D4
0A792:  MOVLW  01
0A794:  MOVLB  6
0A796:  MOVWF  xD5
0A798:  MOVLB  0
0A79A:  CALL   5F1A
0A79E:  MOVLW  3A
0A7A0:  BTFSS  F9E.4
0A7A2:  BRA    A7A0
0A7A4:  MOVWF  FAD
0A7A6:  MOVFF  2BC,6D4
0A7AA:  MOVLW  01
0A7AC:  MOVLB  6
0A7AE:  MOVWF  xD5
0A7B0:  MOVLB  0
0A7B2:  CALL   5F1A
0A7B6:  MOVLW  3A
0A7B8:  BTFSS  F9E.4
0A7BA:  BRA    A7B8
0A7BC:  MOVWF  FAD
0A7BE:  MOVFF  2BD,6D4
0A7C2:  MOVLW  01
0A7C4:  MOVLB  6
0A7C6:  MOVWF  xD5
0A7C8:  MOVLB  0
0A7CA:  CALL   5F1A
0A7CE:  MOVLW  22
0A7D0:  BTFSS  F9E.4
0A7D2:  BRA    A7D0
0A7D4:  MOVWF  FAD
....................       SendDataDisplay(); 
0A7D6:  CALL   442E
....................       GuardaEEPROM=OFF; 
0A7DA:  MOVLB  1
0A7DC:  BCF    x06.1
....................       printf("tuser.txt=\"%s\"",usuario); 
0A7DE:  MOVLW  C0
0A7E0:  MOVWF  FF6
0A7E2:  MOVLW  0F
0A7E4:  MOVWF  FF7
0A7E6:  MOVLW  00
0A7E8:  MOVWF  FF8
0A7EA:  MOVLW  0B
0A7EC:  MOVLB  6
0A7EE:  MOVWF  xD4
0A7F0:  MOVLB  0
0A7F2:  CALL   5E96
0A7F6:  MOVLW  02
0A7F8:  MOVWF  FEA
0A7FA:  MOVLW  D5
0A7FC:  MOVWF  FE9
0A7FE:  CALL   5EC8
0A802:  MOVLW  22
0A804:  BTFSS  F9E.4
0A806:  BRA    A804
0A808:  MOVWF  FAD
....................       SendDataDisplay(); 
0A80A:  CALL   442E
....................        
....................       if(RX_Buffer[4]>0x00 && RX_Buffer[4]<0x15 && estados[RX_Buffer[4]-1]){//Personalizados 
0A80E:  MOVF   35,F
0A810:  BTFSC  FD8.2
0A812:  BRA    AADA
0A814:  MOVF   35,W
0A816:  SUBLW  14
0A818:  BTFSS  FD8.0
0A81A:  BRA    AADA
0A81C:  MOVLW  01
0A81E:  SUBWF  35,W
0A820:  MOVLB  6
0A822:  MOVWF  xD0
0A824:  MOVLW  03
0A826:  MOVWF  xD2
0A828:  MOVLW  3B
0A82A:  MOVWF  xD1
0A82C:  MOVLB  0
0A82E:  CALL   261E
0A832:  BTFSS  01.0
0A834:  BRA    AADA
....................          printf("ciclo.txt=\"CICLO P%02u\"",RX_Buffer[4]+0x0a); 
0A836:  MOVLW  0A
0A838:  ADDWF  35,W
0A83A:  MOVLB  6
0A83C:  MOVWF  xCF
0A83E:  MOVLW  D0
0A840:  MOVWF  FF6
0A842:  MOVLW  0F
0A844:  MOVWF  FF7
0A846:  MOVLW  00
0A848:  MOVWF  FF8
0A84A:  MOVLW  12
0A84C:  MOVWF  xD4
0A84E:  MOVLB  0
0A850:  CALL   5E96
0A854:  MOVFF  6CF,6D4
0A858:  MOVLW  01
0A85A:  MOVLB  6
0A85C:  MOVWF  xD5
0A85E:  MOVLB  0
0A860:  CALL   5F1A
0A864:  MOVLW  22
0A866:  BTFSS  F9E.4
0A868:  BRA    A866
0A86A:  MOVWF  FAD
....................          SendDataDisplay();           
0A86C:  CALL   442E
....................          printf("temp.txt=\"%u\"",CiclosPersonalizados[RX_Buffer[4]-1].Temperatura); 
0A870:  MOVLW  01
0A872:  SUBWF  35,W
0A874:  MULLW  08
0A876:  MOVF   FF3,W
0A878:  MOVLB  6
0A87A:  CLRF   xD0
0A87C:  MOVWF  xCF
0A87E:  MOVLW  07
0A880:  ADDWF  xCF,W
0A882:  MOVWF  FE9
0A884:  MOVLW  06
0A886:  ADDWFC xD0,W
0A888:  MOVWF  FEA
0A88A:  MOVFF  FEF,6CF
0A88E:  MOVLW  E8
0A890:  MOVWF  FF6
0A892:  MOVLW  0F
0A894:  MOVWF  FF7
0A896:  MOVLW  00
0A898:  MOVWF  FF8
0A89A:  MOVLW  0A
0A89C:  MOVWF  xD4
0A89E:  MOVLB  0
0A8A0:  CALL   5E96
0A8A4:  MOVFF  6CF,6D4
0A8A8:  MOVLW  1B
0A8AA:  MOVLB  6
0A8AC:  MOVWF  xD5
0A8AE:  MOVLB  0
0A8B0:  CALL   5F1A
0A8B4:  MOVLW  22
0A8B6:  BTFSS  F9E.4
0A8B8:  BRA    A8B6
0A8BA:  MOVWF  FAD
....................          SendDataDisplay(); 
0A8BC:  CALL   442E
....................          printf("test.txt=\"%02u:%02u\"",CiclosPersonalizados[RX_Buffer[4]-1].Minutoest,CiclosPersonalizados[RX_Buffer[4]-1].Segundoest); 
0A8C0:  MOVLW  01
0A8C2:  SUBWF  35,W
0A8C4:  MULLW  08
0A8C6:  MOVF   FF3,W
0A8C8:  MOVLB  6
0A8CA:  CLRF   xD0
0A8CC:  MOVWF  xCF
0A8CE:  MOVLW  01
0A8D0:  ADDWF  xCF,W
0A8D2:  MOVWF  01
0A8D4:  MOVLW  00
0A8D6:  ADDWFC xD0,W
0A8D8:  MOVWF  03
0A8DA:  MOVF   01,W
0A8DC:  ADDLW  07
0A8DE:  MOVWF  FE9
0A8E0:  MOVLW  06
0A8E2:  ADDWFC 03,W
0A8E4:  MOVWF  FEA
0A8E6:  MOVFF  FEF,6CF
0A8EA:  MOVLW  01
0A8EC:  SUBWF  35,W
0A8EE:  MULLW  08
0A8F0:  MOVF   FF3,W
0A8F2:  CLRF   xD1
0A8F4:  MOVWF  xD0
0A8F6:  MOVLW  02
0A8F8:  ADDWF  xD0,W
0A8FA:  MOVWF  01
0A8FC:  MOVLW  00
0A8FE:  ADDWFC xD1,W
0A900:  MOVWF  03
0A902:  MOVF   01,W
0A904:  ADDLW  07
0A906:  MOVWF  FE9
0A908:  MOVLW  06
0A90A:  ADDWFC 03,W
0A90C:  MOVWF  FEA
0A90E:  MOVFF  FEF,6D0
0A912:  MOVLW  F6
0A914:  MOVWF  FF6
0A916:  MOVLW  0F
0A918:  MOVWF  FF7
0A91A:  MOVLW  00
0A91C:  MOVWF  FF8
0A91E:  MOVLW  0A
0A920:  MOVWF  xD4
0A922:  MOVLB  0
0A924:  CALL   5E96
0A928:  MOVFF  6CF,6D4
0A92C:  MOVLW  01
0A92E:  MOVLB  6
0A930:  MOVWF  xD5
0A932:  MOVLB  0
0A934:  CALL   5F1A
0A938:  MOVLW  3A
0A93A:  BTFSS  F9E.4
0A93C:  BRA    A93A
0A93E:  MOVWF  FAD
0A940:  MOVFF  6D0,6D4
0A944:  MOVLW  01
0A946:  MOVLB  6
0A948:  MOVWF  xD5
0A94A:  MOVLB  0
0A94C:  CALL   5F1A
0A950:  MOVLW  22
0A952:  BTFSS  F9E.4
0A954:  BRA    A952
0A956:  MOVWF  FAD
....................          SendDataDisplay(); 
0A958:  CALL   442E
....................          printf("tsec.txt=\"%02u:%02u\"",CiclosPersonalizados[RX_Buffer[4]-1].Minutosec,CiclosPersonalizados[RX_Buffer[4]-1].Segundosec); 
0A95C:  MOVLW  01
0A95E:  SUBWF  35,W
0A960:  MULLW  08
0A962:  MOVF   FF3,W
0A964:  MOVLB  6
0A966:  CLRF   xD0
0A968:  MOVWF  xCF
0A96A:  MOVLW  03
0A96C:  ADDWF  xCF,W
0A96E:  MOVWF  01
0A970:  MOVLW  00
0A972:  ADDWFC xD0,W
0A974:  MOVWF  03
0A976:  MOVF   01,W
0A978:  ADDLW  07
0A97A:  MOVWF  FE9
0A97C:  MOVLW  06
0A97E:  ADDWFC 03,W
0A980:  MOVWF  FEA
0A982:  MOVFF  FEF,6CF
0A986:  MOVLW  01
0A988:  SUBWF  35,W
0A98A:  MULLW  08
0A98C:  MOVF   FF3,W
0A98E:  CLRF   xD1
0A990:  MOVWF  xD0
0A992:  MOVLW  04
0A994:  ADDWF  xD0,W
0A996:  MOVWF  01
0A998:  MOVLW  00
0A99A:  ADDWFC xD1,W
0A99C:  MOVWF  03
0A99E:  MOVF   01,W
0A9A0:  ADDLW  07
0A9A2:  MOVWF  FE9
0A9A4:  MOVLW  06
0A9A6:  ADDWFC 03,W
0A9A8:  MOVWF  FEA
0A9AA:  MOVFF  FEF,6D0
0A9AE:  MOVLW  0C
0A9B0:  MOVWF  FF6
0A9B2:  MOVLW  10
0A9B4:  MOVWF  FF7
0A9B6:  MOVLW  00
0A9B8:  MOVWF  FF8
0A9BA:  MOVLW  0A
0A9BC:  MOVWF  xD4
0A9BE:  MOVLB  0
0A9C0:  CALL   5E96
0A9C4:  MOVFF  6CF,6D4
0A9C8:  MOVLW  01
0A9CA:  MOVLB  6
0A9CC:  MOVWF  xD5
0A9CE:  MOVLB  0
0A9D0:  CALL   5F1A
0A9D4:  MOVLW  3A
0A9D6:  BTFSS  F9E.4
0A9D8:  BRA    A9D6
0A9DA:  MOVWF  FAD
0A9DC:  MOVFF  6D0,6D4
0A9E0:  MOVLW  01
0A9E2:  MOVLB  6
0A9E4:  MOVWF  xD5
0A9E6:  MOVLB  0
0A9E8:  CALL   5F1A
0A9EC:  MOVLW  22
0A9EE:  BTFSS  F9E.4
0A9F0:  BRA    A9EE
0A9F2:  MOVWF  FAD
....................          SendDataDisplay(); 
0A9F4:  CALL   442E
....................          printf("pulsos.txt=\"%02u\"",CiclosPersonalizados[RX_Buffer[4]-1].PulsosVacio); 
0A9F8:  MOVLW  01
0A9FA:  SUBWF  35,W
0A9FC:  MULLW  08
0A9FE:  MOVF   FF3,W
0AA00:  MOVLB  6
0AA02:  CLRF   xD0
0AA04:  MOVWF  xCF
0AA06:  MOVLW  05
0AA08:  ADDWF  xCF,W
0AA0A:  MOVWF  01
0AA0C:  MOVLW  00
0AA0E:  ADDWFC xD0,W
0AA10:  MOVWF  03
0AA12:  MOVF   01,W
0AA14:  ADDLW  07
0AA16:  MOVWF  FE9
0AA18:  MOVLW  06
0AA1A:  ADDWFC 03,W
0AA1C:  MOVWF  FEA
0AA1E:  MOVFF  FEF,6CF
0AA22:  MOVLW  22
0AA24:  MOVWF  FF6
0AA26:  MOVLW  10
0AA28:  MOVWF  FF7
0AA2A:  MOVLW  00
0AA2C:  MOVWF  FF8
0AA2E:  MOVLW  0C
0AA30:  MOVWF  xD4
0AA32:  MOVLB  0
0AA34:  CALL   5E96
0AA38:  MOVFF  6CF,6D4
0AA3C:  MOVLW  01
0AA3E:  MOVLB  6
0AA40:  MOVWF  xD5
0AA42:  MOVLB  0
0AA44:  CALL   5F1A
0AA48:  MOVLW  22
0AA4A:  BTFSS  F9E.4
0AA4C:  BRA    AA4A
0AA4E:  MOVWF  FAD
....................          SendDataDisplay(); 
0AA50:  CALL   442E
....................          printf("vacio.txt=\"%03u kPa\"",CiclosPersonalizados[RX_Buffer[4]-1].NivelVacio); 
0AA54:  MOVLW  01
0AA56:  SUBWF  35,W
0AA58:  MULLW  08
0AA5A:  MOVF   FF3,W
0AA5C:  MOVLB  6
0AA5E:  CLRF   xD0
0AA60:  MOVWF  xCF
0AA62:  MOVLW  06
0AA64:  ADDWF  xCF,W
0AA66:  MOVWF  01
0AA68:  MOVLW  00
0AA6A:  ADDWFC xD0,W
0AA6C:  MOVWF  03
0AA6E:  MOVF   01,W
0AA70:  ADDLW  07
0AA72:  MOVWF  FE9
0AA74:  MOVLW  06
0AA76:  ADDWFC 03,W
0AA78:  MOVWF  FEA
0AA7A:  MOVFF  FEF,6CF
0AA7E:  MOVLW  34
0AA80:  MOVWF  FF6
0AA82:  MOVLW  10
0AA84:  MOVWF  FF7
0AA86:  MOVLW  00
0AA88:  MOVWF  FF8
0AA8A:  MOVLW  0B
0AA8C:  MOVWF  xD4
0AA8E:  MOVLB  0
0AA90:  CALL   5E96
0AA94:  MOVFF  6CF,6D4
0AA98:  MOVLW  03
0AA9A:  MOVLB  6
0AA9C:  MOVWF  xD5
0AA9E:  MOVLB  0
0AAA0:  CALL   5F1A
0AAA4:  MOVLW  43
0AAA6:  MOVWF  FF6
0AAA8:  MOVLW  10
0AAAA:  MOVWF  FF7
0AAAC:  MOVLW  00
0AAAE:  MOVWF  FF8
0AAB0:  MOVLW  05
0AAB2:  MOVLB  6
0AAB4:  MOVWF  xD4
0AAB6:  MOVLB  0
0AAB8:  CALL   5E96
....................          SendDataDisplay(); 
0AABC:  CALL   442E
....................          //printf("desfogue.txt=\"%u\"",CiclosPersonalizados[RX_Buffer[4]-1].NivelDesfogue); 
....................          printf("desfogue.txt=\"N/A\""); 
0AAC0:  MOVLW  4A
0AAC2:  MOVWF  FF6
0AAC4:  MOVLW  10
0AAC6:  MOVWF  FF7
0AAC8:  MOVLW  00
0AACA:  MOVWF  FF8
0AACC:  CALL   43FC
....................          SendDataDisplay(); 
0AAD0:  CALL   442E
....................          CicloLibre=RX_Buffer[4]; 
0AAD4:  MOVFF  35,251
....................       }else if(CicloLibre==0x00){ 
0AAD8:  BRA    AE50
0AADA:  MOVLB  2
0AADC:  MOVF   x51,F
0AADE:  BNZ   AB72
....................          printf("ciclo.txt=\"CICLO P--\""); 
0AAE0:  MOVLW  5E
0AAE2:  MOVWF  FF6
0AAE4:  MOVLW  10
0AAE6:  MOVWF  FF7
0AAE8:  MOVLW  00
0AAEA:  MOVWF  FF8
0AAEC:  MOVLB  0
0AAEE:  CALL   43FC
....................          SendDataDisplay();           
0AAF2:  CALL   442E
....................          printf("temp.txt=\"--\""); 
0AAF6:  MOVLW  74
0AAF8:  MOVWF  FF6
0AAFA:  MOVLW  10
0AAFC:  MOVWF  FF7
0AAFE:  MOVLW  00
0AB00:  MOVWF  FF8
0AB02:  CALL   43FC
....................          SendDataDisplay(); 
0AB06:  CALL   442E
....................          printf("test.txt=\"--:--\""); 
0AB0A:  MOVLW  82
0AB0C:  MOVWF  FF6
0AB0E:  MOVLW  10
0AB10:  MOVWF  FF7
0AB12:  MOVLW  00
0AB14:  MOVWF  FF8
0AB16:  CALL   43FC
....................          SendDataDisplay(); 
0AB1A:  CALL   442E
....................          printf("tsec.txt=\"--:--\""); 
0AB1E:  MOVLW  94
0AB20:  MOVWF  FF6
0AB22:  MOVLW  10
0AB24:  MOVWF  FF7
0AB26:  MOVLW  00
0AB28:  MOVWF  FF8
0AB2A:  CALL   43FC
....................          SendDataDisplay(); 
0AB2E:  CALL   442E
....................          printf("pulsos.txt=\"--\""); 
0AB32:  MOVLW  A6
0AB34:  MOVWF  FF6
0AB36:  MOVLW  10
0AB38:  MOVWF  FF7
0AB3A:  MOVLW  00
0AB3C:  MOVWF  FF8
0AB3E:  CALL   43FC
....................          SendDataDisplay(); 
0AB42:  CALL   442E
....................          printf("vacio.txt=\"--\""); 
0AB46:  MOVLW  B6
0AB48:  MOVWF  FF6
0AB4A:  MOVLW  10
0AB4C:  MOVWF  FF7
0AB4E:  MOVLW  00
0AB50:  MOVWF  FF8
0AB52:  CALL   43FC
....................          SendDataDisplay(); 
0AB56:  CALL   442E
....................          printf("desfogue.txt=\"--\""); 
0AB5A:  MOVLW  C6
0AB5C:  MOVWF  FF6
0AB5E:  MOVLW  10
0AB60:  MOVWF  FF7
0AB62:  MOVLW  00
0AB64:  MOVWF  FF8
0AB66:  CALL   43FC
....................          SendDataDisplay(); 
0AB6A:  CALL   442E
....................       }else if(CicloLibre>0 && CicloLibre<21 && estados[CicloLibre-1]){ 
0AB6E:  BRA    AE50
0AB70:  MOVLB  2
0AB72:  MOVF   x51,F
0AB74:  BTFSC  FD8.2
0AB76:  BRA    AE52
0AB78:  MOVF   x51,W
0AB7A:  SUBLW  14
0AB7C:  BTFSS  FD8.0
0AB7E:  BRA    AE52
0AB80:  MOVLW  01
0AB82:  SUBWF  x51,W
0AB84:  MOVLB  6
0AB86:  MOVWF  xD0
0AB88:  MOVLW  03
0AB8A:  MOVWF  xD2
0AB8C:  MOVLW  3B
0AB8E:  MOVWF  xD1
0AB90:  MOVLB  0
0AB92:  CALL   261E
0AB96:  BTFSC  01.0
0AB98:  BRA    AB9E
0AB9A:  MOVLB  2
0AB9C:  BRA    AE52
....................          printf("ciclo.txt=\"CICLO P%02u\"",CicloLibre+0x0a); 
0AB9E:  MOVLW  0A
0ABA0:  MOVLB  2
0ABA2:  ADDWF  x51,W
0ABA4:  MOVLB  6
0ABA6:  MOVWF  xCF
0ABA8:  MOVLW  D8
0ABAA:  MOVWF  FF6
0ABAC:  MOVLW  10
0ABAE:  MOVWF  FF7
0ABB0:  MOVLW  00
0ABB2:  MOVWF  FF8
0ABB4:  MOVLW  12
0ABB6:  MOVWF  xD4
0ABB8:  MOVLB  0
0ABBA:  CALL   5E96
0ABBE:  MOVFF  6CF,6D4
0ABC2:  MOVLW  01
0ABC4:  MOVLB  6
0ABC6:  MOVWF  xD5
0ABC8:  MOVLB  0
0ABCA:  CALL   5F1A
0ABCE:  MOVLW  22
0ABD0:  BTFSS  F9E.4
0ABD2:  BRA    ABD0
0ABD4:  MOVWF  FAD
....................          SendDataDisplay();           
0ABD6:  CALL   442E
....................          printf("temp.txt=\"%u\"",CiclosPersonalizados[CicloLibre-1].Temperatura); 
0ABDA:  MOVLW  01
0ABDC:  MOVLB  2
0ABDE:  SUBWF  x51,W
0ABE0:  MULLW  08
0ABE2:  MOVF   FF3,W
0ABE4:  MOVLB  6
0ABE6:  CLRF   xD0
0ABE8:  MOVWF  xCF
0ABEA:  MOVLW  07
0ABEC:  ADDWF  xCF,W
0ABEE:  MOVWF  FE9
0ABF0:  MOVLW  06
0ABF2:  ADDWFC xD0,W
0ABF4:  MOVWF  FEA
0ABF6:  MOVFF  FEF,6CF
0ABFA:  MOVLW  F0
0ABFC:  MOVWF  FF6
0ABFE:  MOVLW  10
0AC00:  MOVWF  FF7
0AC02:  MOVLW  00
0AC04:  MOVWF  FF8
0AC06:  MOVLW  0A
0AC08:  MOVWF  xD4
0AC0A:  MOVLB  0
0AC0C:  CALL   5E96
0AC10:  MOVFF  6CF,6D4
0AC14:  MOVLW  1B
0AC16:  MOVLB  6
0AC18:  MOVWF  xD5
0AC1A:  MOVLB  0
0AC1C:  CALL   5F1A
0AC20:  MOVLW  22
0AC22:  BTFSS  F9E.4
0AC24:  BRA    AC22
0AC26:  MOVWF  FAD
....................          SendDataDisplay(); 
0AC28:  CALL   442E
....................          printf("test.txt=\"%02u:%02u\"",CiclosPersonalizados[CicloLibre-1].Minutoest,CiclosPersonalizados[CicloLibre-1].Segundoest); 
0AC2C:  MOVLW  01
0AC2E:  MOVLB  2
0AC30:  SUBWF  x51,W
0AC32:  MULLW  08
0AC34:  MOVF   FF3,W
0AC36:  MOVLB  6
0AC38:  CLRF   xD0
0AC3A:  MOVWF  xCF
0AC3C:  MOVLW  01
0AC3E:  ADDWF  xCF,W
0AC40:  MOVWF  01
0AC42:  MOVLW  00
0AC44:  ADDWFC xD0,W
0AC46:  MOVWF  03
0AC48:  MOVF   01,W
0AC4A:  ADDLW  07
0AC4C:  MOVWF  FE9
0AC4E:  MOVLW  06
0AC50:  ADDWFC 03,W
0AC52:  MOVWF  FEA
0AC54:  MOVFF  FEF,6CF
0AC58:  MOVLW  01
0AC5A:  MOVLB  2
0AC5C:  SUBWF  x51,W
0AC5E:  MULLW  08
0AC60:  MOVF   FF3,W
0AC62:  MOVLB  6
0AC64:  CLRF   xD1
0AC66:  MOVWF  xD0
0AC68:  MOVLW  02
0AC6A:  ADDWF  xD0,W
0AC6C:  MOVWF  01
0AC6E:  MOVLW  00
0AC70:  ADDWFC xD1,W
0AC72:  MOVWF  03
0AC74:  MOVF   01,W
0AC76:  ADDLW  07
0AC78:  MOVWF  FE9
0AC7A:  MOVLW  06
0AC7C:  ADDWFC 03,W
0AC7E:  MOVWF  FEA
0AC80:  MOVFF  FEF,6D0
0AC84:  MOVLW  FE
0AC86:  MOVWF  FF6
0AC88:  MOVLW  10
0AC8A:  MOVWF  FF7
0AC8C:  MOVLW  00
0AC8E:  MOVWF  FF8
0AC90:  MOVLW  0A
0AC92:  MOVWF  xD4
0AC94:  MOVLB  0
0AC96:  CALL   5E96
0AC9A:  MOVFF  6CF,6D4
0AC9E:  MOVLW  01
0ACA0:  MOVLB  6
0ACA2:  MOVWF  xD5
0ACA4:  MOVLB  0
0ACA6:  CALL   5F1A
0ACAA:  MOVLW  3A
0ACAC:  BTFSS  F9E.4
0ACAE:  BRA    ACAC
0ACB0:  MOVWF  FAD
0ACB2:  MOVFF  6D0,6D4
0ACB6:  MOVLW  01
0ACB8:  MOVLB  6
0ACBA:  MOVWF  xD5
0ACBC:  MOVLB  0
0ACBE:  CALL   5F1A
0ACC2:  MOVLW  22
0ACC4:  BTFSS  F9E.4
0ACC6:  BRA    ACC4
0ACC8:  MOVWF  FAD
....................          SendDataDisplay(); 
0ACCA:  CALL   442E
....................          printf("tsec.txt=\"%02u:%02u\"",CiclosPersonalizados[CicloLibre-1].Minutosec,CiclosPersonalizados[CicloLibre-1].Segundosec); 
0ACCE:  MOVLW  01
0ACD0:  MOVLB  2
0ACD2:  SUBWF  x51,W
0ACD4:  MULLW  08
0ACD6:  MOVF   FF3,W
0ACD8:  MOVLB  6
0ACDA:  CLRF   xD0
0ACDC:  MOVWF  xCF
0ACDE:  MOVLW  03
0ACE0:  ADDWF  xCF,W
0ACE2:  MOVWF  01
0ACE4:  MOVLW  00
0ACE6:  ADDWFC xD0,W
0ACE8:  MOVWF  03
0ACEA:  MOVF   01,W
0ACEC:  ADDLW  07
0ACEE:  MOVWF  FE9
0ACF0:  MOVLW  06
0ACF2:  ADDWFC 03,W
0ACF4:  MOVWF  FEA
0ACF6:  MOVFF  FEF,6CF
0ACFA:  MOVLW  01
0ACFC:  MOVLB  2
0ACFE:  SUBWF  x51,W
0AD00:  MULLW  08
0AD02:  MOVF   FF3,W
0AD04:  MOVLB  6
0AD06:  CLRF   xD1
0AD08:  MOVWF  xD0
0AD0A:  MOVLW  04
0AD0C:  ADDWF  xD0,W
0AD0E:  MOVWF  01
0AD10:  MOVLW  00
0AD12:  ADDWFC xD1,W
0AD14:  MOVWF  03
0AD16:  MOVF   01,W
0AD18:  ADDLW  07
0AD1A:  MOVWF  FE9
0AD1C:  MOVLW  06
0AD1E:  ADDWFC 03,W
0AD20:  MOVWF  FEA
0AD22:  MOVFF  FEF,6D0
0AD26:  MOVLW  14
0AD28:  MOVWF  FF6
0AD2A:  MOVLW  11
0AD2C:  MOVWF  FF7
0AD2E:  MOVLW  00
0AD30:  MOVWF  FF8
0AD32:  MOVLW  0A
0AD34:  MOVWF  xD4
0AD36:  MOVLB  0
0AD38:  CALL   5E96
0AD3C:  MOVFF  6CF,6D4
0AD40:  MOVLW  01
0AD42:  MOVLB  6
0AD44:  MOVWF  xD5
0AD46:  MOVLB  0
0AD48:  CALL   5F1A
0AD4C:  MOVLW  3A
0AD4E:  BTFSS  F9E.4
0AD50:  BRA    AD4E
0AD52:  MOVWF  FAD
0AD54:  MOVFF  6D0,6D4
0AD58:  MOVLW  01
0AD5A:  MOVLB  6
0AD5C:  MOVWF  xD5
0AD5E:  MOVLB  0
0AD60:  CALL   5F1A
0AD64:  MOVLW  22
0AD66:  BTFSS  F9E.4
0AD68:  BRA    AD66
0AD6A:  MOVWF  FAD
....................          SendDataDisplay(); 
0AD6C:  CALL   442E
....................          printf("pulsos.txt=\"%02u\"",CiclosPersonalizados[CicloLibre-1].PulsosVacio); 
0AD70:  MOVLW  01
0AD72:  MOVLB  2
0AD74:  SUBWF  x51,W
0AD76:  MULLW  08
0AD78:  MOVF   FF3,W
0AD7A:  MOVLB  6
0AD7C:  CLRF   xD0
0AD7E:  MOVWF  xCF
0AD80:  MOVLW  05
0AD82:  ADDWF  xCF,W
0AD84:  MOVWF  01
0AD86:  MOVLW  00
0AD88:  ADDWFC xD0,W
0AD8A:  MOVWF  03
0AD8C:  MOVF   01,W
0AD8E:  ADDLW  07
0AD90:  MOVWF  FE9
0AD92:  MOVLW  06
0AD94:  ADDWFC 03,W
0AD96:  MOVWF  FEA
0AD98:  MOVFF  FEF,6CF
0AD9C:  MOVLW  2A
0AD9E:  MOVWF  FF6
0ADA0:  MOVLW  11
0ADA2:  MOVWF  FF7
0ADA4:  MOVLW  00
0ADA6:  MOVWF  FF8
0ADA8:  MOVLW  0C
0ADAA:  MOVWF  xD4
0ADAC:  MOVLB  0
0ADAE:  CALL   5E96
0ADB2:  MOVFF  6CF,6D4
0ADB6:  MOVLW  01
0ADB8:  MOVLB  6
0ADBA:  MOVWF  xD5
0ADBC:  MOVLB  0
0ADBE:  CALL   5F1A
0ADC2:  MOVLW  22
0ADC4:  BTFSS  F9E.4
0ADC6:  BRA    ADC4
0ADC8:  MOVWF  FAD
....................          SendDataDisplay(); 
0ADCA:  CALL   442E
....................          printf("vacio.txt=\"%03u kPa\"",CiclosPersonalizados[CicloLibre-1].NivelVacio); 
0ADCE:  MOVLW  01
0ADD0:  MOVLB  2
0ADD2:  SUBWF  x51,W
0ADD4:  MULLW  08
0ADD6:  MOVF   FF3,W
0ADD8:  MOVLB  6
0ADDA:  CLRF   xD0
0ADDC:  MOVWF  xCF
0ADDE:  MOVLW  06
0ADE0:  ADDWF  xCF,W
0ADE2:  MOVWF  01
0ADE4:  MOVLW  00
0ADE6:  ADDWFC xD0,W
0ADE8:  MOVWF  03
0ADEA:  MOVF   01,W
0ADEC:  ADDLW  07
0ADEE:  MOVWF  FE9
0ADF0:  MOVLW  06
0ADF2:  ADDWFC 03,W
0ADF4:  MOVWF  FEA
0ADF6:  MOVFF  FEF,6CF
0ADFA:  MOVLW  3C
0ADFC:  MOVWF  FF6
0ADFE:  MOVLW  11
0AE00:  MOVWF  FF7
0AE02:  MOVLW  00
0AE04:  MOVWF  FF8
0AE06:  MOVLW  0B
0AE08:  MOVWF  xD4
0AE0A:  MOVLB  0
0AE0C:  CALL   5E96
0AE10:  MOVFF  6CF,6D4
0AE14:  MOVLW  03
0AE16:  MOVLB  6
0AE18:  MOVWF  xD5
0AE1A:  MOVLB  0
0AE1C:  CALL   5F1A
0AE20:  MOVLW  4B
0AE22:  MOVWF  FF6
0AE24:  MOVLW  11
0AE26:  MOVWF  FF7
0AE28:  MOVLW  00
0AE2A:  MOVWF  FF8
0AE2C:  MOVLW  05
0AE2E:  MOVLB  6
0AE30:  MOVWF  xD4
0AE32:  MOVLB  0
0AE34:  CALL   5E96
....................          SendDataDisplay(); 
0AE38:  CALL   442E
....................          //printf("desfogue.txt=\"%u\"",CiclosPersonalizados[CicloLibre-1].NivelDesfogue); 
....................          printf("desfogue.txt=\"N/A\""); 
0AE3C:  MOVLW  52
0AE3E:  MOVWF  FF6
0AE40:  MOVLW  11
0AE42:  MOVWF  FF7
0AE44:  MOVLW  00
0AE46:  MOVWF  FF8
0AE48:  CALL   43FC
....................          SendDataDisplay(); 
0AE4C:  CALL   442E
0AE50:  MOVLB  2
....................       } 
....................        
....................       if(RX_Buffer[4]==0xa0){//a0, Menu Principal 
0AE52:  MOVF   35,W
0AE54:  SUBLW  A0
0AE56:  BNZ   AE70
....................          printf("page Menu"); 
0AE58:  MOVLW  66
0AE5A:  MOVWF  FF6
0AE5C:  MOVLW  11
0AE5E:  MOVWF  FF7
0AE60:  MOVLW  00
0AE62:  MOVWF  FF8
0AE64:  MOVLB  0
0AE66:  CALL   43FC
....................          SendDataDisplay();      
0AE6A:  CALL   442E
0AE6E:  MOVLB  2
....................       } 
....................        
....................       if(RX_Buffer[4]==0xb0){//b0, Personalizados 
0AE70:  MOVF   35,W
0AE72:  SUBLW  B0
0AE74:  BNZ   AE8E
....................          printf("page CicloPersona"); 
0AE76:  MOVLW  70
0AE78:  MOVWF  FF6
0AE7A:  MOVLW  11
0AE7C:  MOVWF  FF7
0AE7E:  MOVLW  00
0AE80:  MOVWF  FF8
0AE82:  MOVLB  0
0AE84:  CALL   43FC
....................          SendDataDisplay();      
0AE88:  CALL   442E
0AE8C:  MOVLB  2
....................       } 
....................        
....................       if(RX_Buffer[4]==0xc0){//c0, Configuraciones 
0AE8E:  MOVF   35,W
0AE90:  SUBLW  C0
0AE92:  BNZ   AEB6
....................          if(codigoUsuario==0 || codigoUsuario==9){   
0AE94:  MOVF   xCF,F
0AE96:  BZ    AE9E
0AE98:  MOVF   xCF,W
0AE9A:  SUBLW  09
0AE9C:  BNZ   AEB6
....................             printf("page Ajustes"); 
0AE9E:  MOVLW  82
0AEA0:  MOVWF  FF6
0AEA2:  MOVLW  11
0AEA4:  MOVWF  FF7
0AEA6:  MOVLW  00
0AEA8:  MOVWF  FF8
0AEAA:  MOVLB  0
0AEAC:  CALL   43FC
....................             SendDataDisplay();      
0AEB0:  CALL   442E
0AEB4:  MOVLB  2
....................          } 
....................       } 
....................        
....................       if(RX_Buffer[4]==0x20 && CicloLibre>0){//20, Temperatura 
0AEB6:  MOVF   35,W
0AEB8:  SUBLW  20
0AEBA:  BNZ   AF02
0AEBC:  MOVF   x51,F
0AEBE:  BZ    AF02
....................          if(codigoUsuario==0 || codigoUsuario==9){   
0AEC0:  MOVF   xCF,F
0AEC2:  BZ    AECA
0AEC4:  MOVF   xCF,W
0AEC6:  SUBLW  09
0AEC8:  BNZ   AF02
....................             printf("page Temperatura"); 
0AECA:  MOVLW  90
0AECC:  MOVWF  FF6
0AECE:  MOVLW  11
0AED0:  MOVWF  FF7
0AED2:  MOVLW  00
0AED4:  MOVWF  FF8
0AED6:  MOVLB  0
0AED8:  CALL   43FC
....................             SendDataDisplay();      
0AEDC:  CALL   442E
....................             Setpoint=CiclosPersonalizados[CicloLibre-1].Temperatura; 
0AEE0:  MOVLW  01
0AEE2:  MOVLB  2
0AEE4:  SUBWF  x51,W
0AEE6:  MULLW  08
0AEE8:  MOVF   FF3,W
0AEEA:  MOVLB  6
0AEEC:  CLRF   xD0
0AEEE:  MOVWF  xCF
0AEF0:  MOVLW  07
0AEF2:  ADDWF  xCF,W
0AEF4:  MOVWF  FE9
0AEF6:  MOVLW  06
0AEF8:  ADDWFC xD0,W
0AEFA:  MOVWF  FEA
0AEFC:  MOVFF  FEF,283
0AF00:  MOVLB  2
....................          } 
....................       } 
....................        
....................       if(RX_Buffer[4]==0x30 && CicloLibre>0){//30, Test 
0AF02:  MOVF   35,W
0AF04:  SUBLW  30
0AF06:  BNZ   AF8A
0AF08:  MOVF   x51,F
0AF0A:  BZ    AF8A
....................          if(codigoUsuario==0 || codigoUsuario==9){   
0AF0C:  MOVF   xCF,F
0AF0E:  BZ    AF16
0AF10:  MOVF   xCF,W
0AF12:  SUBLW  09
0AF14:  BNZ   AF8A
....................             printf("page TiempoEst"); 
0AF16:  MOVLW  A2
0AF18:  MOVWF  FF6
0AF1A:  MOVLW  11
0AF1C:  MOVWF  FF7
0AF1E:  MOVLW  00
0AF20:  MOVWF  FF8
0AF22:  MOVLB  0
0AF24:  CALL   43FC
....................             SendDataDisplay();      
0AF28:  CALL   442E
....................             mEstp=CiclosPersonalizados[CicloLibre-1].Minutoest; 
0AF2C:  MOVLW  01
0AF2E:  MOVLB  2
0AF30:  SUBWF  x51,W
0AF32:  MULLW  08
0AF34:  MOVF   FF3,W
0AF36:  MOVLB  6
0AF38:  CLRF   xD0
0AF3A:  MOVWF  xCF
0AF3C:  MOVLW  01
0AF3E:  ADDWF  xCF,W
0AF40:  MOVWF  01
0AF42:  MOVLW  00
0AF44:  ADDWFC xD0,W
0AF46:  MOVWF  03
0AF48:  MOVF   01,W
0AF4A:  ADDLW  07
0AF4C:  MOVWF  FE9
0AF4E:  MOVLW  06
0AF50:  ADDWFC 03,W
0AF52:  MOVWF  FEA
0AF54:  MOVFF  FEF,126
0AF58:  MOVLB  1
....................             sEstp=CiclosPersonalizados[CicloLibre-1].Segundoest; 
0AF5A:  MOVLW  01
0AF5C:  MOVLB  2
0AF5E:  SUBWF  x51,W
0AF60:  MULLW  08
0AF62:  MOVF   FF3,W
0AF64:  MOVLB  6
0AF66:  CLRF   xD0
0AF68:  MOVWF  xCF
0AF6A:  MOVLW  02
0AF6C:  ADDWF  xCF,W
0AF6E:  MOVWF  01
0AF70:  MOVLW  00
0AF72:  ADDWFC xD0,W
0AF74:  MOVWF  03
0AF76:  MOVF   01,W
0AF78:  ADDLW  07
0AF7A:  MOVWF  FE9
0AF7C:  MOVLW  06
0AF7E:  ADDWFC 03,W
0AF80:  MOVWF  FEA
0AF82:  MOVFF  FEF,125
0AF86:  MOVLB  1
0AF88:  MOVLB  2
....................          } 
....................       } 
....................        
....................       if(RX_Buffer[4]==0x40 && CicloLibre>0){//40, Tsec 
0AF8A:  MOVF   35,W
0AF8C:  SUBLW  40
0AF8E:  BNZ   B012
0AF90:  MOVF   x51,F
0AF92:  BZ    B012
....................          if(codigoUsuario==0 || codigoUsuario==9){   
0AF94:  MOVF   xCF,F
0AF96:  BZ    AF9E
0AF98:  MOVF   xCF,W
0AF9A:  SUBLW  09
0AF9C:  BNZ   B012
....................             printf("page TiempoSec"); 
0AF9E:  MOVLW  B2
0AFA0:  MOVWF  FF6
0AFA2:  MOVLW  11
0AFA4:  MOVWF  FF7
0AFA6:  MOVLW  00
0AFA8:  MOVWF  FF8
0AFAA:  MOVLB  0
0AFAC:  CALL   43FC
....................             SendDataDisplay();    
0AFB0:  CALL   442E
....................             mSecp=CiclosPersonalizados[CicloLibre-1].Minutosec; 
0AFB4:  MOVLW  01
0AFB6:  MOVLB  2
0AFB8:  SUBWF  x51,W
0AFBA:  MULLW  08
0AFBC:  MOVF   FF3,W
0AFBE:  MOVLB  6
0AFC0:  CLRF   xD0
0AFC2:  MOVWF  xCF
0AFC4:  MOVLW  03
0AFC6:  ADDWF  xCF,W
0AFC8:  MOVWF  01
0AFCA:  MOVLW  00
0AFCC:  ADDWFC xD0,W
0AFCE:  MOVWF  03
0AFD0:  MOVF   01,W
0AFD2:  ADDLW  07
0AFD4:  MOVWF  FE9
0AFD6:  MOVLW  06
0AFD8:  ADDWFC 03,W
0AFDA:  MOVWF  FEA
0AFDC:  MOVFF  FEF,128
0AFE0:  MOVLB  1
....................             sSecp=CiclosPersonalizados[CicloLibre-1].Segundosec; 
0AFE2:  MOVLW  01
0AFE4:  MOVLB  2
0AFE6:  SUBWF  x51,W
0AFE8:  MULLW  08
0AFEA:  MOVF   FF3,W
0AFEC:  MOVLB  6
0AFEE:  CLRF   xD0
0AFF0:  MOVWF  xCF
0AFF2:  MOVLW  04
0AFF4:  ADDWF  xCF,W
0AFF6:  MOVWF  01
0AFF8:  MOVLW  00
0AFFA:  ADDWFC xD0,W
0AFFC:  MOVWF  03
0AFFE:  MOVF   01,W
0B000:  ADDLW  07
0B002:  MOVWF  FE9
0B004:  MOVLW  06
0B006:  ADDWFC 03,W
0B008:  MOVWF  FEA
0B00A:  MOVFF  FEF,127
0B00E:  MOVLB  1
0B010:  MOVLB  2
....................          } 
....................       } 
....................        
....................       if(RX_Buffer[4]==0x50 && CicloLibre>0){//50, PulsosVacio 
0B012:  MOVF   35,W
0B014:  SUBLW  50
0B016:  BNZ   B06A
0B018:  MOVF   x51,F
0B01A:  BZ    B06A
....................          if(codigoUsuario==0 || codigoUsuario==9){   
0B01C:  MOVF   xCF,F
0B01E:  BZ    B026
0B020:  MOVF   xCF,W
0B022:  SUBLW  09
0B024:  BNZ   B06A
....................             printf("page Pulsos"); 
0B026:  MOVLW  C2
0B028:  MOVWF  FF6
0B02A:  MOVLW  11
0B02C:  MOVWF  FF7
0B02E:  MOVLW  00
0B030:  MOVWF  FF8
0B032:  MOVLB  0
0B034:  CALL   43FC
....................             SendDataDisplay();      
0B038:  CALL   442E
....................             Pulsos=CiclosPersonalizados[CicloLibre-1].PulsosVacio; 
0B03C:  MOVLW  01
0B03E:  MOVLB  2
0B040:  SUBWF  x51,W
0B042:  MULLW  08
0B044:  MOVF   FF3,W
0B046:  MOVLB  6
0B048:  CLRF   xD0
0B04A:  MOVWF  xCF
0B04C:  MOVLW  05
0B04E:  ADDWF  xCF,W
0B050:  MOVWF  01
0B052:  MOVLW  00
0B054:  ADDWFC xD0,W
0B056:  MOVWF  03
0B058:  MOVF   01,W
0B05A:  ADDLW  07
0B05C:  MOVWF  FE9
0B05E:  MOVLW  06
0B060:  ADDWFC 03,W
0B062:  MOVWF  FEA
0B064:  MOVFF  FEF,2CD
0B068:  MOVLB  2
....................          } 
....................       } 
....................        
....................       if(RX_Buffer[4]==0x60 && CicloLibre>0){//60, NivelVacio 
0B06A:  MOVF   35,W
0B06C:  SUBLW  60
0B06E:  BNZ   B0C8
0B070:  MOVF   x51,F
0B072:  BZ    B0C8
....................          if(codigoUsuario==0 || codigoUsuario==9){   
0B074:  MOVF   xCF,F
0B076:  BZ    B07E
0B078:  MOVF   xCF,W
0B07A:  SUBLW  09
0B07C:  BNZ   B0C8
....................             printf("page Nivel"); 
0B07E:  MOVLW  CE
0B080:  MOVWF  FF6
0B082:  MOVLW  11
0B084:  MOVWF  FF7
0B086:  MOVLW  00
0B088:  MOVWF  FF8
0B08A:  MOVLB  0
0B08C:  CALL   43FC
....................             SendDataDisplay();      
0B090:  CALL   442E
....................             Nivel=CiclosPersonalizados[CicloLibre-1].NivelVacio; 
0B094:  MOVLW  01
0B096:  MOVLB  2
0B098:  SUBWF  x51,W
0B09A:  MULLW  08
0B09C:  MOVF   FF3,W
0B09E:  MOVLB  6
0B0A0:  CLRF   xD0
0B0A2:  MOVWF  xCF
0B0A4:  MOVLW  06
0B0A6:  ADDWF  xCF,W
0B0A8:  MOVWF  01
0B0AA:  MOVLW  00
0B0AC:  ADDWFC xD0,W
0B0AE:  MOVWF  03
0B0B0:  MOVF   01,W
0B0B2:  ADDLW  07
0B0B4:  MOVWF  FE9
0B0B6:  MOVLW  06
0B0B8:  ADDWFC 03,W
0B0BA:  MOVWF  FEA
0B0BC:  MOVF   FEF,W
0B0BE:  CLRF   03
0B0C0:  MOVLB  2
0B0C2:  MOVWF  x90
0B0C4:  MOVFF  03,291
....................          } 
....................       } 
....................        
....................       if(RX_Buffer[4]==0x80 && CicloLibre>0){//80, NivelDesfogue 
0B0C8:  MOVF   35,W
0B0CA:  SUBLW  80
0B0CC:  BNZ   B0D2
0B0CE:  MOVF   x51,F
0B0D0:  BZ    B0D2
....................          //printf("page NivelDes"); 
....................          //SendDataDisplay();      
....................          //NivelDes=CiclosPersonalizados[CicloLibre-1].NivelDesfogue; 
....................       } 
....................        
....................       if(RX_Buffer[4]==0x70 && CicloLibre>0){//70, Iniciar Ciclo 
0B0D2:  MOVF   35,W
0B0D4:  SUBLW  70
0B0D6:  BTFSS  FD8.2
0B0D8:  BRA    B2BC
0B0DA:  MOVF   x51,F
0B0DC:  BTFSC  FD8.2
0B0DE:  BRA    B2BC
....................          printf("page Funcionamiento"); 
0B0E0:  MOVLW  DA
0B0E2:  MOVWF  FF6
0B0E4:  MOVLW  11
0B0E6:  MOVWF  FF7
0B0E8:  MOVLW  00
0B0EA:  MOVWF  FF8
0B0EC:  MOVLB  0
0B0EE:  CALL   43FC
....................          SendDataDisplay();        
0B0F2:  CALL   442E
....................          Libre=ON; 
0B0F6:  MOVLB  1
0B0F8:  BSF    x07.4
....................          ConfiguraCiclo(CiclosPersonalizados[CicloLibre-1].Segundoest,CiclosPersonalizados[CicloLibre-1].Minutoest, 
....................          CiclosPersonalizados[CicloLibre-1].Segundosec,CiclosPersonalizados[CicloLibre-1].MinutoSec,0,CicloLibre+10, 
....................          CiclosPersonalizados[CicloLibre-1].Temperatura,CiclosPersonalizados[CicloLibre-1].PulsosVacio,CiclosPersonalizados[CicloLibre-1].NivelVacio 
....................          ,0); 
0B0FA:  MOVLW  01
0B0FC:  MOVLB  2
0B0FE:  SUBWF  x51,W
0B100:  MULLW  08
0B102:  MOVF   FF3,W
0B104:  MOVLB  6
0B106:  CLRF   xD0
0B108:  MOVWF  xCF
0B10A:  MOVLW  02
0B10C:  ADDWF  xCF,W
0B10E:  MOVWF  01
0B110:  MOVLW  00
0B112:  ADDWFC xD0,W
0B114:  MOVWF  03
0B116:  MOVF   01,W
0B118:  ADDLW  07
0B11A:  MOVWF  FE9
0B11C:  MOVLW  06
0B11E:  ADDWFC 03,W
0B120:  MOVWF  FEA
0B122:  MOVFF  FEF,6CF
0B126:  MOVLW  01
0B128:  MOVLB  2
0B12A:  SUBWF  x51,W
0B12C:  MULLW  08
0B12E:  MOVF   FF3,W
0B130:  MOVLB  6
0B132:  CLRF   xD1
0B134:  MOVWF  xD0
0B136:  MOVLW  01
0B138:  ADDWF  xD0,W
0B13A:  MOVWF  01
0B13C:  MOVLW  00
0B13E:  ADDWFC xD1,W
0B140:  MOVWF  03
0B142:  MOVF   01,W
0B144:  ADDLW  07
0B146:  MOVWF  FE9
0B148:  MOVLW  06
0B14A:  ADDWFC 03,W
0B14C:  MOVWF  FEA
0B14E:  MOVFF  FEF,6D0
0B152:  MOVLW  01
0B154:  MOVLB  2
0B156:  SUBWF  x51,W
0B158:  MULLW  08
0B15A:  MOVF   FF3,W
0B15C:  MOVLB  6
0B15E:  CLRF   xD2
0B160:  MOVWF  xD1
0B162:  MOVLW  04
0B164:  ADDWF  xD1,W
0B166:  MOVWF  01
0B168:  MOVLW  00
0B16A:  ADDWFC xD2,W
0B16C:  MOVWF  03
0B16E:  MOVF   01,W
0B170:  ADDLW  07
0B172:  MOVWF  FE9
0B174:  MOVLW  06
0B176:  ADDWFC 03,W
0B178:  MOVWF  FEA
0B17A:  MOVFF  FEF,6D1
0B17E:  MOVLW  01
0B180:  MOVLB  2
0B182:  SUBWF  x51,W
0B184:  MULLW  08
0B186:  MOVF   FF3,W
0B188:  MOVLB  6
0B18A:  CLRF   xD3
0B18C:  MOVWF  xD2
0B18E:  MOVLW  03
0B190:  ADDWF  xD2,W
0B192:  MOVWF  01
0B194:  MOVLW  00
0B196:  ADDWFC xD3,W
0B198:  MOVWF  03
0B19A:  MOVF   01,W
0B19C:  ADDLW  07
0B19E:  MOVWF  FE9
0B1A0:  MOVLW  06
0B1A2:  ADDWFC 03,W
0B1A4:  MOVWF  FEA
0B1A6:  MOVFF  FEF,6D2
0B1AA:  MOVLW  0A
0B1AC:  MOVLB  2
0B1AE:  ADDWF  x51,W
0B1B0:  MOVLB  6
0B1B2:  MOVWF  xD3
0B1B4:  MOVLW  01
0B1B6:  MOVLB  2
0B1B8:  SUBWF  x51,W
0B1BA:  MULLW  08
0B1BC:  MOVF   FF3,W
0B1BE:  MOVLB  6
0B1C0:  CLRF   xD5
0B1C2:  MOVWF  xD4
0B1C4:  MOVLW  07
0B1C6:  ADDWF  xD4,W
0B1C8:  MOVWF  FE9
0B1CA:  MOVLW  06
0B1CC:  ADDWFC xD5,W
0B1CE:  MOVWF  FEA
0B1D0:  MOVFF  FEF,6D4
0B1D4:  MOVLW  01
0B1D6:  MOVLB  2
0B1D8:  SUBWF  x51,W
0B1DA:  MULLW  08
0B1DC:  MOVF   FF3,W
0B1DE:  MOVLB  6
0B1E0:  CLRF   xD6
0B1E2:  MOVWF  xD5
0B1E4:  MOVLW  05
0B1E6:  ADDWF  xD5,W
0B1E8:  MOVWF  01
0B1EA:  MOVLW  00
0B1EC:  ADDWFC xD6,W
0B1EE:  MOVWF  03
0B1F0:  MOVF   01,W
0B1F2:  ADDLW  07
0B1F4:  MOVWF  FE9
0B1F6:  MOVLW  06
0B1F8:  ADDWFC 03,W
0B1FA:  MOVWF  FEA
0B1FC:  MOVFF  FEF,6D5
0B200:  MOVLW  01
0B202:  MOVLB  2
0B204:  SUBWF  x51,W
0B206:  MULLW  08
0B208:  MOVF   FF3,W
0B20A:  MOVLB  6
0B20C:  CLRF   xD7
0B20E:  MOVWF  xD6
0B210:  MOVLW  06
0B212:  ADDWF  xD6,W
0B214:  MOVWF  01
0B216:  MOVLW  00
0B218:  ADDWFC xD7,W
0B21A:  MOVWF  03
0B21C:  MOVF   01,W
0B21E:  ADDLW  07
0B220:  MOVWF  FE9
0B222:  MOVLW  06
0B224:  ADDWFC 03,W
0B226:  MOVWF  FEA
0B228:  MOVFF  FEF,6D6
0B22C:  MOVFF  6CF,6D7
0B230:  MOVFF  6D0,6D8
0B234:  MOVFF  6D1,6D9
0B238:  MOVFF  6D2,6DA
0B23C:  CLRF   xDB
0B23E:  MOVFF  6D3,6DC
0B242:  MOVFF  6D4,6DD
0B246:  MOVFF  6D5,6DE
0B24A:  MOVFF  6D6,6DF
0B24E:  CLRF   xE0
0B250:  MOVLB  0
0B252:  CALL   5F98
....................          NivelVacio=CiclosPersonalizados[CicloLibre-1].NivelVacio; 
0B256:  MOVLW  01
0B258:  MOVLB  2
0B25A:  SUBWF  x51,W
0B25C:  MULLW  08
0B25E:  MOVF   FF3,W
0B260:  MOVLB  6
0B262:  CLRF   xD0
0B264:  MOVWF  xCF
0B266:  MOVLW  06
0B268:  ADDWF  xCF,W
0B26A:  MOVWF  01
0B26C:  MOVLW  00
0B26E:  ADDWFC xD0,W
0B270:  MOVWF  03
0B272:  MOVF   01,W
0B274:  ADDLW  07
0B276:  MOVWF  FE9
0B278:  MOVLW  06
0B27A:  ADDWFC 03,W
0B27C:  MOVWF  FEA
0B27E:  MOVFF  FEF,2C1
0B282:  MOVLB  2
....................          CantidadPulsos=CiclosPersonalizados[CicloLibre-1].PulsosVacio; 
0B284:  MOVLW  01
0B286:  SUBWF  x51,W
0B288:  MULLW  08
0B28A:  MOVF   FF3,W
0B28C:  MOVLB  6
0B28E:  CLRF   xD0
0B290:  MOVWF  xCF
0B292:  MOVLW  05
0B294:  ADDWF  xCF,W
0B296:  MOVWF  01
0B298:  MOVLW  00
0B29A:  ADDWFC xD0,W
0B29C:  MOVWF  03
0B29E:  MOVF   01,W
0B2A0:  ADDLW  07
0B2A2:  MOVWF  FE9
0B2A4:  MOVLW  06
0B2A6:  ADDWFC 03,W
0B2A8:  MOVWF  FEA
0B2AA:  MOVF   FEF,W
0B2AC:  CLRF   03
0B2AE:  MOVLB  2
0B2B0:  MOVWF  x7B
0B2B2:  MOVFF  03,27C
....................          Fugas=OFF; 
0B2B6:  MOVLB  1
0B2B8:  BCF    x07.6
0B2BA:  MOVLB  2
....................       } 
....................    }else if(Menu==9){//Menu de Pulsos de Vacio 
0B2BC:  GOTO   F9E8
0B2C0:  MOVF   x73,W
0B2C2:  SUBLW  09
0B2C4:  BTFSS  FD8.2
0B2C6:  BRA    B4A0
....................       printf("fecha.txt=\"Fecha:%02u/%02u/20%02u Hora: %02u:%02u:%02u\"",Dia,Mes,Year,Hora,Minuto,Segundo); 
0B2C8:  MOVLW  EE
0B2CA:  MOVWF  FF6
0B2CC:  MOVLW  11
0B2CE:  MOVWF  FF7
0B2D0:  MOVLW  00
0B2D2:  MOVWF  FF8
0B2D4:  MOVLW  11
0B2D6:  MOVLB  6
0B2D8:  MOVWF  xD4
0B2DA:  MOVLB  0
0B2DC:  CALL   5E96
0B2E0:  MOVFF  2BA,6D4
0B2E4:  MOVLW  01
0B2E6:  MOVLB  6
0B2E8:  MOVWF  xD5
0B2EA:  MOVLB  0
0B2EC:  CALL   5F1A
0B2F0:  MOVLW  2F
0B2F2:  BTFSS  F9E.4
0B2F4:  BRA    B2F2
0B2F6:  MOVWF  FAD
0B2F8:  MOVFF  2B9,6D4
0B2FC:  MOVLW  01
0B2FE:  MOVLB  6
0B300:  MOVWF  xD5
0B302:  MOVLB  0
0B304:  CALL   5F1A
0B308:  MOVLW  2F
0B30A:  BTFSS  F9E.4
0B30C:  BRA    B30A
0B30E:  MOVWF  FAD
0B310:  MOVLW  32
0B312:  BTFSS  F9E.4
0B314:  BRA    B312
0B316:  MOVWF  FAD
0B318:  MOVLW  30
0B31A:  BTFSS  F9E.4
0B31C:  BRA    B31A
0B31E:  MOVWF  FAD
0B320:  MOVFF  2B8,6D4
0B324:  MOVLW  01
0B326:  MOVLB  6
0B328:  MOVWF  xD5
0B32A:  MOVLB  0
0B32C:  CALL   5F1A
0B330:  MOVLW  0F
0B332:  MOVWF  FF6
0B334:  MOVLW  12
0B336:  MOVWF  FF7
0B338:  MOVLW  00
0B33A:  MOVWF  FF8
0B33C:  MOVLW  07
0B33E:  MOVLB  6
0B340:  MOVWF  xD4
0B342:  MOVLB  0
0B344:  CALL   5E96
0B348:  MOVFF  2BB,6D4
0B34C:  MOVLW  01
0B34E:  MOVLB  6
0B350:  MOVWF  xD5
0B352:  MOVLB  0
0B354:  CALL   5F1A
0B358:  MOVLW  3A
0B35A:  BTFSS  F9E.4
0B35C:  BRA    B35A
0B35E:  MOVWF  FAD
0B360:  MOVFF  2BC,6D4
0B364:  MOVLW  01
0B366:  MOVLB  6
0B368:  MOVWF  xD5
0B36A:  MOVLB  0
0B36C:  CALL   5F1A
0B370:  MOVLW  3A
0B372:  BTFSS  F9E.4
0B374:  BRA    B372
0B376:  MOVWF  FAD
0B378:  MOVFF  2BD,6D4
0B37C:  MOVLW  01
0B37E:  MOVLB  6
0B380:  MOVWF  xD5
0B382:  MOVLB  0
0B384:  CALL   5F1A
0B388:  MOVLW  22
0B38A:  BTFSS  F9E.4
0B38C:  BRA    B38A
0B38E:  MOVWF  FAD
....................       SendDataDisplay(); 
0B390:  CALL   442E
....................          if(Pulsos<4) 
0B394:  MOVLB  2
0B396:  MOVF   xCD,W
0B398:  SUBLW  03
0B39A:  BNC   B3A0
....................             Pulsos=15; 
0B39C:  MOVLW  0F
0B39E:  MOVWF  xCD
....................          if(Pulsos>15) 
0B3A0:  MOVF   xCD,W
0B3A2:  SUBLW  0F
0B3A4:  BC    B3AA
....................             Pulsos=4; 
0B3A6:  MOVLW  04
0B3A8:  MOVWF  xCD
....................           
....................          if(RX_Buffer[4]==0x11){//Selecciono Regresar 
0B3AA:  MOVF   35,W
0B3AC:  SUBLW  11
0B3AE:  BNZ   B44E
....................             Segundos=OFF; 
0B3B0:  MOVLB  1
0B3B2:  BCF    x06.0
....................             Minutos=OFF;             
0B3B4:  BCF    x05.7
....................             printf("page CicloPersona"); 
0B3B6:  MOVLW  26
0B3B8:  MOVWF  FF6
0B3BA:  MOVLW  12
0B3BC:  MOVWF  FF7
0B3BE:  MOVLW  00
0B3C0:  MOVWF  FF8
0B3C2:  MOVLB  0
0B3C4:  CALL   43FC
....................             SendDataDisplay();   
0B3C8:  CALL   442E
....................             if(!GuardaEEPROM){     
0B3CC:  MOVLB  1
0B3CE:  BTFSC  x06.1
0B3D0:  BRA    B44C
....................                CiclosPersonalizados[CicloLibre-1].PulsosVacio=Pulsos; 
0B3D2:  MOVLW  01
0B3D4:  MOVLB  2
0B3D6:  SUBWF  x51,W
0B3D8:  MULLW  08
0B3DA:  MOVF   FF3,W
0B3DC:  MOVLB  6
0B3DE:  CLRF   xD0
0B3E0:  MOVWF  xCF
0B3E2:  MOVLW  05
0B3E4:  ADDWF  xCF,W
0B3E6:  MOVWF  01
0B3E8:  MOVLW  00
0B3EA:  ADDWFC xD0,W
0B3EC:  MOVWF  03
0B3EE:  MOVF   01,W
0B3F0:  ADDLW  07
0B3F2:  MOVWF  FE9
0B3F4:  MOVLW  06
0B3F6:  ADDWFC 03,W
0B3F8:  MOVWF  FEA
0B3FA:  MOVFF  2CD,FEF
....................                write_eeprom(105+((CicloLibre-1)*8),Pulsos); 
0B3FE:  MOVLW  01
0B400:  MOVLB  2
0B402:  SUBWF  x51,W
0B404:  MULLW  08
0B406:  MOVF   FF3,W
0B408:  ADDLW  69
0B40A:  MOVLB  6
0B40C:  MOVWF  xCF
0B40E:  CLRF   FAA
0B410:  MOVFF  6CF,FA9
0B414:  MOVFF  2CD,FA8
0B418:  BCF    FA6.6
0B41A:  BCF    FA6.7
0B41C:  BSF    FA6.2
0B41E:  MOVF   FF2,W
0B420:  MOVWF  00
0B422:  BCF    FF2.6
0B424:  BCF    FF2.7
0B426:  MOVLB  F
0B428:  MOVLW  55
0B42A:  MOVWF  FA7
0B42C:  MOVLW  AA
0B42E:  MOVWF  FA7
0B430:  BSF    FA6.1
0B432:  BTFSC  FA6.1
0B434:  BRA    B432
0B436:  BCF    FA6.2
0B438:  MOVF   00,W
0B43A:  IORWF  FF2,F
....................                delay_ms(20);             
0B43C:  MOVLW  14
0B43E:  MOVLB  6
0B440:  MOVWF  xE1
0B442:  MOVLB  0
0B444:  CALL   21DE
....................                //NivelSeleccionado=9990*Nivel; 
....................                GuardaEEPROM=ON; 
0B448:  MOVLB  1
0B44A:  BSF    x06.1
0B44C:  MOVLB  2
....................             } 
....................          } 
....................           
....................          if(RX_Buffer[4]==0x0d){//Tecla Arriba Oprimida 
0B44E:  MOVF   35,W
0B450:  SUBLW  0D
0B452:  BNZ   B45A
....................             Pulsos++; 
0B454:  INCF   xCD,F
....................             RX_Buffer[4]=0x00;             
0B456:  CLRF   35
....................             RX_Buffer2[4]=0x00;             
0B458:  CLRF   40
....................             //BorraBuffer(); 
....................          } 
....................           
....................          if(RX_Buffer[4]==0x0c){//Tecla Abajo Oprimida 
0B45A:  MOVF   35,W
0B45C:  SUBLW  0C
0B45E:  BNZ   B466
....................             Pulsos--; 
0B460:  DECF   xCD,F
....................             RX_Buffer[4]=0x00; 
0B462:  CLRF   35
....................             RX_Buffer2[4]=0x00;             
0B464:  CLRF   40
....................             //BorraBuffer(); 
....................          } 
....................           
....................       printf("tnivel.txt=\"%u\"",Pulsos); 
0B466:  MOVLW  38
0B468:  MOVWF  FF6
0B46A:  MOVLW  12
0B46C:  MOVWF  FF7
0B46E:  MOVLW  00
0B470:  MOVWF  FF8
0B472:  MOVLW  0C
0B474:  MOVLB  6
0B476:  MOVWF  xD4
0B478:  MOVLB  0
0B47A:  CALL   5E96
0B47E:  MOVFF  2CD,6D4
0B482:  MOVLW  1B
0B484:  MOVLB  6
0B486:  MOVWF  xD5
0B488:  MOVLB  0
0B48A:  CALL   5F1A
0B48E:  MOVLW  22
0B490:  BTFSS  F9E.4
0B492:  BRA    B490
0B494:  MOVWF  FAD
....................       SendDataDisplay(); 
0B496:  CALL   442E
....................    }else if(Menu==10){//Menu de Usuarios 
0B49A:  GOTO   F9E8
0B49E:  MOVLB  2
0B4A0:  MOVF   x73,W
0B4A2:  SUBLW  0A
0B4A4:  BTFSS  FD8.2
0B4A6:  BRA    B96A
....................       printf("fecha.txt=\"Fecha:%02u/%02u/20%02u Hora: %02u:%02u:%02u\"",Dia,Mes,Year,Hora,Minuto,Segundo); 
0B4A8:  MOVLW  48
0B4AA:  MOVWF  FF6
0B4AC:  MOVLW  12
0B4AE:  MOVWF  FF7
0B4B0:  MOVLW  00
0B4B2:  MOVWF  FF8
0B4B4:  MOVLW  11
0B4B6:  MOVLB  6
0B4B8:  MOVWF  xD4
0B4BA:  MOVLB  0
0B4BC:  CALL   5E96
0B4C0:  MOVFF  2BA,6D4
0B4C4:  MOVLW  01
0B4C6:  MOVLB  6
0B4C8:  MOVWF  xD5
0B4CA:  MOVLB  0
0B4CC:  CALL   5F1A
0B4D0:  MOVLW  2F
0B4D2:  BTFSS  F9E.4
0B4D4:  BRA    B4D2
0B4D6:  MOVWF  FAD
0B4D8:  MOVFF  2B9,6D4
0B4DC:  MOVLW  01
0B4DE:  MOVLB  6
0B4E0:  MOVWF  xD5
0B4E2:  MOVLB  0
0B4E4:  CALL   5F1A
0B4E8:  MOVLW  2F
0B4EA:  BTFSS  F9E.4
0B4EC:  BRA    B4EA
0B4EE:  MOVWF  FAD
0B4F0:  MOVLW  32
0B4F2:  BTFSS  F9E.4
0B4F4:  BRA    B4F2
0B4F6:  MOVWF  FAD
0B4F8:  MOVLW  30
0B4FA:  BTFSS  F9E.4
0B4FC:  BRA    B4FA
0B4FE:  MOVWF  FAD
0B500:  MOVFF  2B8,6D4
0B504:  MOVLW  01
0B506:  MOVLB  6
0B508:  MOVWF  xD5
0B50A:  MOVLB  0
0B50C:  CALL   5F1A
0B510:  MOVLW  69
0B512:  MOVWF  FF6
0B514:  MOVLW  12
0B516:  MOVWF  FF7
0B518:  MOVLW  00
0B51A:  MOVWF  FF8
0B51C:  MOVLW  07
0B51E:  MOVLB  6
0B520:  MOVWF  xD4
0B522:  MOVLB  0
0B524:  CALL   5E96
0B528:  MOVFF  2BB,6D4
0B52C:  MOVLW  01
0B52E:  MOVLB  6
0B530:  MOVWF  xD5
0B532:  MOVLB  0
0B534:  CALL   5F1A
0B538:  MOVLW  3A
0B53A:  BTFSS  F9E.4
0B53C:  BRA    B53A
0B53E:  MOVWF  FAD
0B540:  MOVFF  2BC,6D4
0B544:  MOVLW  01
0B546:  MOVLB  6
0B548:  MOVWF  xD5
0B54A:  MOVLB  0
0B54C:  CALL   5F1A
0B550:  MOVLW  3A
0B552:  BTFSS  F9E.4
0B554:  BRA    B552
0B556:  MOVWF  FAD
0B558:  MOVFF  2BD,6D4
0B55C:  MOVLW  01
0B55E:  MOVLB  6
0B560:  MOVWF  xD5
0B562:  MOVLB  0
0B564:  CALL   5F1A
0B568:  MOVLW  22
0B56A:  BTFSS  F9E.4
0B56C:  BRA    B56A
0B56E:  MOVWF  FAD
....................       SendDataDisplay(); 
0B570:  CALL   442E
....................       GuardaEEPROM=OFF; 
0B574:  MOVLB  1
0B576:  BCF    x06.1
....................       if(ingreso) 
0B578:  BTFSS  x07.5
0B57A:  BRA    B582
....................          TipoClave=2; 
0B57C:  MOVLW  02
0B57E:  MOVWF  xF9
....................       else 
0B580:  BRA    B584
....................          TipoClave=0; 
0B582:  CLRF   xF9
....................        
....................       if(RX_Buffer[4]==0x01){//01, Admin 
0B584:  DECFSZ 35,W
0B586:  BRA    B5DE
....................          printf("page Clave"); 
0B588:  MOVLW  80
0B58A:  MOVWF  FF6
0B58C:  MOVLW  12
0B58E:  MOVWF  FF7
0B590:  MOVLW  00
0B592:  MOVWF  FF8
0B594:  MOVLB  0
0B596:  CALL   43FC
....................          SendDataDisplay();        
0B59A:  CALL   442E
....................          if(!ingreso){ 
0B59E:  MOVLB  1
0B5A0:  BTFSC  x07.5
0B5A2:  BRA    B5D6
....................             usuario="Admin"; 
0B5A4:  MOVLW  02
0B5A6:  MOVWF  FEA
0B5A8:  MOVLW  D5
0B5AA:  MOVWF  FE9
0B5AC:  MOVFF  FF2,6CF
0B5B0:  BCF    FF2.6
0B5B2:  BCF    FF2.7
0B5B4:  MOVLW  00
0B5B6:  MOVLB  0
0B5B8:  CALL   0144
0B5BC:  TBLRD*-
0B5BE:  TBLRD*+
0B5C0:  MOVF   FF5,W
0B5C2:  MOVWF  FEE
0B5C4:  IORLW  00
0B5C6:  BNZ   B5BE
0B5C8:  MOVLB  6
0B5CA:  BTFSC  xCF.6
0B5CC:  BSF    FF2.6
0B5CE:  BTFSC  xCF.7
0B5D0:  BSF    FF2.7
....................             codigoUsuario=0; 
0B5D2:  MOVLB  2
0B5D4:  CLRF   xCF
....................          } 
....................          codigoUsuario2=0; 
0B5D6:  MOVLB  2
0B5D8:  CLRF   xB1
....................       }else if(RX_Buffer[4]==0x02){//02, Operador 1 
0B5DA:  BRA    B93A
0B5DC:  MOVLB  1
0B5DE:  MOVF   35,W
0B5E0:  SUBLW  02
0B5E2:  BNZ   B63E
....................          printf("page Clave"); 
0B5E4:  MOVLW  8C
0B5E6:  MOVWF  FF6
0B5E8:  MOVLW  12
0B5EA:  MOVWF  FF7
0B5EC:  MOVLW  00
0B5EE:  MOVWF  FF8
0B5F0:  MOVLB  0
0B5F2:  CALL   43FC
....................          SendDataDisplay();        
0B5F6:  CALL   442E
....................          if(!ingreso){ 
0B5FA:  MOVLB  1
0B5FC:  BTFSC  x07.5
0B5FE:  BRA    B634
....................             usuario="Operador 1"; 
0B600:  MOVLW  02
0B602:  MOVWF  FEA
0B604:  MOVLW  D5
0B606:  MOVWF  FE9
0B608:  MOVFF  FF2,6CF
0B60C:  BCF    FF2.6
0B60E:  BCF    FF2.7
0B610:  MOVLW  00
0B612:  MOVLB  0
0B614:  CALL   016E
0B618:  TBLRD*-
0B61A:  TBLRD*+
0B61C:  MOVF   FF5,W
0B61E:  MOVWF  FEE
0B620:  IORLW  00
0B622:  BNZ   B61A
0B624:  MOVLB  6
0B626:  BTFSC  xCF.6
0B628:  BSF    FF2.6
0B62A:  BTFSC  xCF.7
0B62C:  BSF    FF2.7
....................             codigoUsuario=1; 
0B62E:  MOVLW  01
0B630:  MOVLB  2
0B632:  MOVWF  xCF
....................          } 
....................          codigoUsuario2=1; 
0B634:  MOVLW  01
0B636:  MOVLB  2
0B638:  MOVWF  xB1
....................       }else if(RX_Buffer[4]==0x03){//03, Operador 2 
0B63A:  BRA    B93A
0B63C:  MOVLB  1
0B63E:  MOVF   35,W
0B640:  SUBLW  03
0B642:  BNZ   B69E
....................          printf("page Clave"); 
0B644:  MOVLW  98
0B646:  MOVWF  FF6
0B648:  MOVLW  12
0B64A:  MOVWF  FF7
0B64C:  MOVLW  00
0B64E:  MOVWF  FF8
0B650:  MOVLB  0
0B652:  CALL   43FC
....................          SendDataDisplay();        
0B656:  CALL   442E
....................          if(!ingreso){ 
0B65A:  MOVLB  1
0B65C:  BTFSC  x07.5
0B65E:  BRA    B694
....................             usuario="Operador 2"; 
0B660:  MOVLW  02
0B662:  MOVWF  FEA
0B664:  MOVLW  D5
0B666:  MOVWF  FE9
0B668:  MOVFF  FF2,6CF
0B66C:  BCF    FF2.6
0B66E:  BCF    FF2.7
0B670:  MOVLW  00
0B672:  MOVLB  0
0B674:  CALL   019E
0B678:  TBLRD*-
0B67A:  TBLRD*+
0B67C:  MOVF   FF5,W
0B67E:  MOVWF  FEE
0B680:  IORLW  00
0B682:  BNZ   B67A
0B684:  MOVLB  6
0B686:  BTFSC  xCF.6
0B688:  BSF    FF2.6
0B68A:  BTFSC  xCF.7
0B68C:  BSF    FF2.7
....................             codigoUsuario=2; 
0B68E:  MOVLW  02
0B690:  MOVLB  2
0B692:  MOVWF  xCF
....................          } 
....................          codigoUsuario2=2; 
0B694:  MOVLW  02
0B696:  MOVLB  2
0B698:  MOVWF  xB1
....................       }else if(RX_Buffer[4]==0x04){//04, Operador 3 
0B69A:  BRA    B93A
0B69C:  MOVLB  1
0B69E:  MOVF   35,W
0B6A0:  SUBLW  04
0B6A2:  BNZ   B6FE
....................          printf("page Clave"); 
0B6A4:  MOVLW  A4
0B6A6:  MOVWF  FF6
0B6A8:  MOVLW  12
0B6AA:  MOVWF  FF7
0B6AC:  MOVLW  00
0B6AE:  MOVWF  FF8
0B6B0:  MOVLB  0
0B6B2:  CALL   43FC
....................          SendDataDisplay();        
0B6B6:  CALL   442E
....................          if(!ingreso){ 
0B6BA:  MOVLB  1
0B6BC:  BTFSC  x07.5
0B6BE:  BRA    B6F4
....................             usuario="Operador 3"; 
0B6C0:  MOVLW  02
0B6C2:  MOVWF  FEA
0B6C4:  MOVLW  D5
0B6C6:  MOVWF  FE9
0B6C8:  MOVFF  FF2,6CF
0B6CC:  BCF    FF2.6
0B6CE:  BCF    FF2.7
0B6D0:  MOVLW  00
0B6D2:  MOVLB  0
0B6D4:  CALL   01CE
0B6D8:  TBLRD*-
0B6DA:  TBLRD*+
0B6DC:  MOVF   FF5,W
0B6DE:  MOVWF  FEE
0B6E0:  IORLW  00
0B6E2:  BNZ   B6DA
0B6E4:  MOVLB  6
0B6E6:  BTFSC  xCF.6
0B6E8:  BSF    FF2.6
0B6EA:  BTFSC  xCF.7
0B6EC:  BSF    FF2.7
....................             codigoUsuario=3; 
0B6EE:  MOVLW  03
0B6F0:  MOVLB  2
0B6F2:  MOVWF  xCF
....................          } 
....................          codigoUsuario2=3; 
0B6F4:  MOVLW  03
0B6F6:  MOVLB  2
0B6F8:  MOVWF  xB1
....................       }else if(RX_Buffer[4]==0x05){//05, Operador 4 
0B6FA:  BRA    B93A
0B6FC:  MOVLB  1
0B6FE:  MOVF   35,W
0B700:  SUBLW  05
0B702:  BNZ   B75E
....................          printf("page Clave"); 
0B704:  MOVLW  B0
0B706:  MOVWF  FF6
0B708:  MOVLW  12
0B70A:  MOVWF  FF7
0B70C:  MOVLW  00
0B70E:  MOVWF  FF8
0B710:  MOVLB  0
0B712:  CALL   43FC
....................          SendDataDisplay();        
0B716:  CALL   442E
....................          if(!ingreso){ 
0B71A:  MOVLB  1
0B71C:  BTFSC  x07.5
0B71E:  BRA    B754
....................             usuario="Operador 4"; 
0B720:  MOVLW  02
0B722:  MOVWF  FEA
0B724:  MOVLW  D5
0B726:  MOVWF  FE9
0B728:  MOVFF  FF2,6CF
0B72C:  BCF    FF2.6
0B72E:  BCF    FF2.7
0B730:  MOVLW  00
0B732:  MOVLB  0
0B734:  CALL   01FE
0B738:  TBLRD*-
0B73A:  TBLRD*+
0B73C:  MOVF   FF5,W
0B73E:  MOVWF  FEE
0B740:  IORLW  00
0B742:  BNZ   B73A
0B744:  MOVLB  6
0B746:  BTFSC  xCF.6
0B748:  BSF    FF2.6
0B74A:  BTFSC  xCF.7
0B74C:  BSF    FF2.7
....................             codigoUsuario=4; 
0B74E:  MOVLW  04
0B750:  MOVLB  2
0B752:  MOVWF  xCF
....................          } 
....................          codigoUsuario2=4; 
0B754:  MOVLW  04
0B756:  MOVLB  2
0B758:  MOVWF  xB1
....................       }else if(RX_Buffer[4]==0x06){//06, Operador 5 
0B75A:  BRA    B93A
0B75C:  MOVLB  1
0B75E:  MOVF   35,W
0B760:  SUBLW  06
0B762:  BNZ   B7BE
....................          printf("page Clave"); 
0B764:  MOVLW  BC
0B766:  MOVWF  FF6
0B768:  MOVLW  12
0B76A:  MOVWF  FF7
0B76C:  MOVLW  00
0B76E:  MOVWF  FF8
0B770:  MOVLB  0
0B772:  CALL   43FC
....................          SendDataDisplay();        
0B776:  CALL   442E
....................          if(!ingreso){ 
0B77A:  MOVLB  1
0B77C:  BTFSC  x07.5
0B77E:  BRA    B7B4
....................             usuario="Operador 5"; 
0B780:  MOVLW  02
0B782:  MOVWF  FEA
0B784:  MOVLW  D5
0B786:  MOVWF  FE9
0B788:  MOVFF  FF2,6CF
0B78C:  BCF    FF2.6
0B78E:  BCF    FF2.7
0B790:  MOVLW  00
0B792:  MOVLB  0
0B794:  CALL   022E
0B798:  TBLRD*-
0B79A:  TBLRD*+
0B79C:  MOVF   FF5,W
0B79E:  MOVWF  FEE
0B7A0:  IORLW  00
0B7A2:  BNZ   B79A
0B7A4:  MOVLB  6
0B7A6:  BTFSC  xCF.6
0B7A8:  BSF    FF2.6
0B7AA:  BTFSC  xCF.7
0B7AC:  BSF    FF2.7
....................             codigoUsuario=5; 
0B7AE:  MOVLW  05
0B7B0:  MOVLB  2
0B7B2:  MOVWF  xCF
....................          } 
....................          codigoUsuario2=5; 
0B7B4:  MOVLW  05
0B7B6:  MOVLB  2
0B7B8:  MOVWF  xB1
....................       }else if(RX_Buffer[4]==0x07){//07, Operador 6 
0B7BA:  BRA    B93A
0B7BC:  MOVLB  1
0B7BE:  MOVF   35,W
0B7C0:  SUBLW  07
0B7C2:  BNZ   B81E
....................          printf("page Clave"); 
0B7C4:  MOVLW  C8
0B7C6:  MOVWF  FF6
0B7C8:  MOVLW  12
0B7CA:  MOVWF  FF7
0B7CC:  MOVLW  00
0B7CE:  MOVWF  FF8
0B7D0:  MOVLB  0
0B7D2:  CALL   43FC
....................          SendDataDisplay();        
0B7D6:  CALL   442E
....................          if(!ingreso){ 
0B7DA:  MOVLB  1
0B7DC:  BTFSC  x07.5
0B7DE:  BRA    B814
....................             usuario="Operador 6"; 
0B7E0:  MOVLW  02
0B7E2:  MOVWF  FEA
0B7E4:  MOVLW  D5
0B7E6:  MOVWF  FE9
0B7E8:  MOVFF  FF2,6CF
0B7EC:  BCF    FF2.6
0B7EE:  BCF    FF2.7
0B7F0:  MOVLW  00
0B7F2:  MOVLB  0
0B7F4:  CALL   025E
0B7F8:  TBLRD*-
0B7FA:  TBLRD*+
0B7FC:  MOVF   FF5,W
0B7FE:  MOVWF  FEE
0B800:  IORLW  00
0B802:  BNZ   B7FA
0B804:  MOVLB  6
0B806:  BTFSC  xCF.6
0B808:  BSF    FF2.6
0B80A:  BTFSC  xCF.7
0B80C:  BSF    FF2.7
....................             codigoUsuario=6; 
0B80E:  MOVLW  06
0B810:  MOVLB  2
0B812:  MOVWF  xCF
....................          } 
....................          codigoUsuario2=6; 
0B814:  MOVLW  06
0B816:  MOVLB  2
0B818:  MOVWF  xB1
....................       }else if(RX_Buffer[4]==0x08){//08, Operador 7 
0B81A:  BRA    B93A
0B81C:  MOVLB  1
0B81E:  MOVF   35,W
0B820:  SUBLW  08
0B822:  BNZ   B87E
....................          printf("page Clave"); 
0B824:  MOVLW  D4
0B826:  MOVWF  FF6
0B828:  MOVLW  12
0B82A:  MOVWF  FF7
0B82C:  MOVLW  00
0B82E:  MOVWF  FF8
0B830:  MOVLB  0
0B832:  CALL   43FC
....................          SendDataDisplay();        
0B836:  CALL   442E
....................          if(!ingreso){ 
0B83A:  MOVLB  1
0B83C:  BTFSC  x07.5
0B83E:  BRA    B874
....................             usuario="Operador 7"; 
0B840:  MOVLW  02
0B842:  MOVWF  FEA
0B844:  MOVLW  D5
0B846:  MOVWF  FE9
0B848:  MOVFF  FF2,6CF
0B84C:  BCF    FF2.6
0B84E:  BCF    FF2.7
0B850:  MOVLW  00
0B852:  MOVLB  0
0B854:  CALL   028E
0B858:  TBLRD*-
0B85A:  TBLRD*+
0B85C:  MOVF   FF5,W
0B85E:  MOVWF  FEE
0B860:  IORLW  00
0B862:  BNZ   B85A
0B864:  MOVLB  6
0B866:  BTFSC  xCF.6
0B868:  BSF    FF2.6
0B86A:  BTFSC  xCF.7
0B86C:  BSF    FF2.7
....................             codigoUsuario=7; 
0B86E:  MOVLW  07
0B870:  MOVLB  2
0B872:  MOVWF  xCF
....................          } 
....................          codigoUsuario2=7; 
0B874:  MOVLW  07
0B876:  MOVLB  2
0B878:  MOVWF  xB1
....................       }else if(RX_Buffer[4]==0x09){//09, Operador 8 
0B87A:  BRA    B93A
0B87C:  MOVLB  1
0B87E:  MOVF   35,W
0B880:  SUBLW  09
0B882:  BNZ   B8DE
....................          printf("page Clave"); 
0B884:  MOVLW  E0
0B886:  MOVWF  FF6
0B888:  MOVLW  12
0B88A:  MOVWF  FF7
0B88C:  MOVLW  00
0B88E:  MOVWF  FF8
0B890:  MOVLB  0
0B892:  CALL   43FC
....................          SendDataDisplay();        
0B896:  CALL   442E
....................          if(!ingreso){ 
0B89A:  MOVLB  1
0B89C:  BTFSC  x07.5
0B89E:  BRA    B8D4
....................             usuario="Operador 8"; 
0B8A0:  MOVLW  02
0B8A2:  MOVWF  FEA
0B8A4:  MOVLW  D5
0B8A6:  MOVWF  FE9
0B8A8:  MOVFF  FF2,6CF
0B8AC:  BCF    FF2.6
0B8AE:  BCF    FF2.7
0B8B0:  MOVLW  00
0B8B2:  MOVLB  0
0B8B4:  CALL   02BE
0B8B8:  TBLRD*-
0B8BA:  TBLRD*+
0B8BC:  MOVF   FF5,W
0B8BE:  MOVWF  FEE
0B8C0:  IORLW  00
0B8C2:  BNZ   B8BA
0B8C4:  MOVLB  6
0B8C6:  BTFSC  xCF.6
0B8C8:  BSF    FF2.6
0B8CA:  BTFSC  xCF.7
0B8CC:  BSF    FF2.7
....................             codigoUsuario=8; 
0B8CE:  MOVLW  08
0B8D0:  MOVLB  2
0B8D2:  MOVWF  xCF
....................          } 
....................          codigoUsuario2=8; 
0B8D4:  MOVLW  08
0B8D6:  MOVLB  2
0B8D8:  MOVWF  xB1
....................       }else if(RX_Buffer[4]==0x0a){//0a, Tecnico 
0B8DA:  BRA    B93A
0B8DC:  MOVLB  1
0B8DE:  MOVF   35,W
0B8E0:  SUBLW  0A
0B8E2:  BNZ   B93C
....................          printf("page Clave"); 
0B8E4:  MOVLW  EC
0B8E6:  MOVWF  FF6
0B8E8:  MOVLW  12
0B8EA:  MOVWF  FF7
0B8EC:  MOVLW  00
0B8EE:  MOVWF  FF8
0B8F0:  MOVLB  0
0B8F2:  CALL   43FC
....................          SendDataDisplay();        
0B8F6:  CALL   442E
....................          if(!ingreso){ 
0B8FA:  MOVLB  1
0B8FC:  BTFSC  x07.5
0B8FE:  BRA    B934
....................             usuario="Tecnico"; 
0B900:  MOVLW  02
0B902:  MOVWF  FEA
0B904:  MOVLW  D5
0B906:  MOVWF  FE9
0B908:  MOVFF  FF2,6CF
0B90C:  BCF    FF2.6
0B90E:  BCF    FF2.7
0B910:  MOVLW  00
0B912:  MOVLB  0
0B914:  CALL   02EE
0B918:  TBLRD*-
0B91A:  TBLRD*+
0B91C:  MOVF   FF5,W
0B91E:  MOVWF  FEE
0B920:  IORLW  00
0B922:  BNZ   B91A
0B924:  MOVLB  6
0B926:  BTFSC  xCF.6
0B928:  BSF    FF2.6
0B92A:  BTFSC  xCF.7
0B92C:  BSF    FF2.7
....................             codigoUsuario=9; 
0B92E:  MOVLW  09
0B930:  MOVLB  2
0B932:  MOVWF  xCF
....................          } 
....................          codigoUsuario2=9; 
0B934:  MOVLW  09
0B936:  MOVLB  2
0B938:  MOVWF  xB1
0B93A:  MOVLB  1
....................       } 
....................        
....................       if(RX_Buffer[4]==0xaa && ingreso){//aa, Regresar 
0B93C:  MOVF   35,W
0B93E:  SUBLW  AA
0B940:  BNZ   B964
0B942:  BTFSS  x07.5
0B944:  BRA    B964
....................          printf("page Ajustes"); 
0B946:  MOVLW  F8
0B948:  MOVWF  FF6
0B94A:  MOVLW  12
0B94C:  MOVWF  FF7
0B94E:  MOVLW  00
0B950:  MOVWF  FF8
0B952:  MOVLB  0
0B954:  CALL   43FC
....................          SendDataDisplay();        
0B958:  CALL   442E
....................          codigoUsuario2=10; 
0B95C:  MOVLW  0A
0B95E:  MOVLB  2
0B960:  MOVWF  xB1
0B962:  MOVLB  1
....................       } 
....................    }else if(Menu==11){//Menu de Configuraciones 
0B964:  GOTO   F9E8
0B968:  MOVLB  2
0B96A:  MOVF   x73,W
0B96C:  SUBLW  0B
0B96E:  BTFSS  FD8.2
0B970:  BRA    BBB6
....................       tConfig=0; 
0B972:  MOVLB  1
0B974:  CLRF   x1E
0B976:  CLRF   x1D
....................       oprimioConfig=OFF; 
0B978:  BCF    x03.4
....................       printf("fecha.txt=\"Fecha:%02u/%02u/20%02u Hora: %02u:%02u:%02u\"",Dia,Mes,Year,Hora,Minuto,Segundo); 
0B97A:  MOVLW  06
0B97C:  MOVWF  FF6
0B97E:  MOVLW  13
0B980:  MOVWF  FF7
0B982:  MOVLW  00
0B984:  MOVWF  FF8
0B986:  MOVLW  11
0B988:  MOVLB  6
0B98A:  MOVWF  xD4
0B98C:  MOVLB  0
0B98E:  CALL   5E96
0B992:  MOVFF  2BA,6D4
0B996:  MOVLW  01
0B998:  MOVLB  6
0B99A:  MOVWF  xD5
0B99C:  MOVLB  0
0B99E:  CALL   5F1A
0B9A2:  MOVLW  2F
0B9A4:  BTFSS  F9E.4
0B9A6:  BRA    B9A4
0B9A8:  MOVWF  FAD
0B9AA:  MOVFF  2B9,6D4
0B9AE:  MOVLW  01
0B9B0:  MOVLB  6
0B9B2:  MOVWF  xD5
0B9B4:  MOVLB  0
0B9B6:  CALL   5F1A
0B9BA:  MOVLW  2F
0B9BC:  BTFSS  F9E.4
0B9BE:  BRA    B9BC
0B9C0:  MOVWF  FAD
0B9C2:  MOVLW  32
0B9C4:  BTFSS  F9E.4
0B9C6:  BRA    B9C4
0B9C8:  MOVWF  FAD
0B9CA:  MOVLW  30
0B9CC:  BTFSS  F9E.4
0B9CE:  BRA    B9CC
0B9D0:  MOVWF  FAD
0B9D2:  MOVFF  2B8,6D4
0B9D6:  MOVLW  01
0B9D8:  MOVLB  6
0B9DA:  MOVWF  xD5
0B9DC:  MOVLB  0
0B9DE:  CALL   5F1A
0B9E2:  MOVLW  27
0B9E4:  MOVWF  FF6
0B9E6:  MOVLW  13
0B9E8:  MOVWF  FF7
0B9EA:  MOVLW  00
0B9EC:  MOVWF  FF8
0B9EE:  MOVLW  07
0B9F0:  MOVLB  6
0B9F2:  MOVWF  xD4
0B9F4:  MOVLB  0
0B9F6:  CALL   5E96
0B9FA:  MOVFF  2BB,6D4
0B9FE:  MOVLW  01
0BA00:  MOVLB  6
0BA02:  MOVWF  xD5
0BA04:  MOVLB  0
0BA06:  CALL   5F1A
0BA0A:  MOVLW  3A
0BA0C:  BTFSS  F9E.4
0BA0E:  BRA    BA0C
0BA10:  MOVWF  FAD
0BA12:  MOVFF  2BC,6D4
0BA16:  MOVLW  01
0BA18:  MOVLB  6
0BA1A:  MOVWF  xD5
0BA1C:  MOVLB  0
0BA1E:  CALL   5F1A
0BA22:  MOVLW  3A
0BA24:  BTFSS  F9E.4
0BA26:  BRA    BA24
0BA28:  MOVWF  FAD
0BA2A:  MOVFF  2BD,6D4
0BA2E:  MOVLW  01
0BA30:  MOVLB  6
0BA32:  MOVWF  xD5
0BA34:  MOVLB  0
0BA36:  CALL   5F1A
0BA3A:  MOVLW  22
0BA3C:  BTFSS  F9E.4
0BA3E:  BRA    BA3C
0BA40:  MOVWF  FAD
....................       SendDataDisplay(); 
0BA42:  CALL   442E
....................       GuardaEEPROM=OFF; 
0BA46:  MOVLB  1
0BA48:  BCF    x06.1
....................       printf("tuser.txt=\"%s\"",usuario); 
0BA4A:  MOVLW  3E
0BA4C:  MOVWF  FF6
0BA4E:  MOVLW  13
0BA50:  MOVWF  FF7
0BA52:  MOVLW  00
0BA54:  MOVWF  FF8
0BA56:  MOVLW  0B
0BA58:  MOVLB  6
0BA5A:  MOVWF  xD4
0BA5C:  MOVLB  0
0BA5E:  CALL   5E96
0BA62:  MOVLW  02
0BA64:  MOVWF  FEA
0BA66:  MOVLW  D5
0BA68:  MOVWF  FE9
0BA6A:  CALL   5EC8
0BA6E:  MOVLW  22
0BA70:  BTFSS  F9E.4
0BA72:  BRA    BA70
0BA74:  MOVWF  FAD
....................       SendDataDisplay(); 
0BA76:  CALL   442E
....................       TipoClave=0; 
0BA7A:  MOVLB  1
0BA7C:  CLRF   xF9
....................        
....................       if(RX_Buffer[4]==0x01){//01, Ciclos 
0BA7E:  DECFSZ 35,W
0BA80:  BRA    BA9A
....................          printf("page Ciclos"); 
0BA82:  MOVLW  4E
0BA84:  MOVWF  FF6
0BA86:  MOVLW  13
0BA88:  MOVWF  FF7
0BA8A:  MOVLW  00
0BA8C:  MOVWF  FF8
0BA8E:  MOVLB  0
0BA90:  CALL   43FC
....................          SendDataDisplay();      
0BA94:  CALL   442E
0BA98:  MOVLB  1
....................       } 
....................        
....................       if(RX_Buffer[4]==0x02){//02, Test de Componentes 
0BA9A:  MOVF   35,W
0BA9C:  SUBLW  02
0BA9E:  BNZ   BAB8
....................          printf("page Test"); 
0BAA0:  MOVLW  5A
0BAA2:  MOVWF  FF6
0BAA4:  MOVLW  13
0BAA6:  MOVWF  FF7
0BAA8:  MOVLW  00
0BAAA:  MOVWF  FF8
0BAAC:  MOVLB  0
0BAAE:  CALL   43FC
....................          SendDataDisplay();      
0BAB2:  CALL   442E
0BAB6:  MOVLB  1
....................       } 
....................        
....................       if(RX_Buffer[4]==0x03){//03, Modificacin de clave Usuarios 
0BAB8:  MOVF   35,W
0BABA:  SUBLW  03
0BABC:  BNZ   BAD6
....................          printf("page Usuarios"); 
0BABE:  MOVLW  64
0BAC0:  MOVWF  FF6
0BAC2:  MOVLW  13
0BAC4:  MOVWF  FF7
0BAC6:  MOVLW  00
0BAC8:  MOVWF  FF8
0BACA:  MOVLB  0
0BACC:  CALL   43FC
....................          SendDataDisplay();      
0BAD0:  CALL   442E
0BAD4:  MOVLB  1
....................       } 
....................        
....................       if(RX_Buffer[4]==0x04){//03, Modificacin de clave Usuarios 
0BAD6:  MOVF   35,W
0BAD8:  SUBLW  04
0BADA:  BNZ   BAF4
....................          printf("page Activa"); 
0BADC:  MOVLW  72
0BADE:  MOVWF  FF6
0BAE0:  MOVLW  13
0BAE2:  MOVWF  FF7
0BAE4:  MOVLW  00
0BAE6:  MOVWF  FF8
0BAE8:  MOVLB  0
0BAEA:  CALL   43FC
....................          SendDataDisplay();      
0BAEE:  CALL   442E
0BAF2:  MOVLB  1
....................       } 
....................        
....................       if(RX_Buffer[4]==0x11 && CodigoUsuario==9){//11, Menu Oculto Tecnico 
0BAF4:  MOVF   35,W
0BAF6:  SUBLW  11
0BAF8:  BNZ   BB24
0BAFA:  MOVLB  2
0BAFC:  MOVF   xCF,W
0BAFE:  SUBLW  09
0BB00:  BTFSC  FD8.2
0BB02:  BRA    BB08
0BB04:  MOVLB  1
0BB06:  BRA    BB24
....................          printf("page Clave"); 
0BB08:  MOVLW  7E
0BB0A:  MOVWF  FF6
0BB0C:  MOVLW  13
0BB0E:  MOVWF  FF7
0BB10:  MOVLW  00
0BB12:  MOVWF  FF8
0BB14:  MOVLB  0
0BB16:  CALL   43FC
....................          SendDataDisplay();  
0BB1A:  CALL   442E
....................          TipoClave=1; 
0BB1E:  MOVLW  01
0BB20:  MOVLB  1
0BB22:  MOVWF  xF9
....................       } 
....................        
....................       if(RX_Buffer[4]==0x05){//05, Hora y Fecha 
0BB24:  MOVF   35,W
0BB26:  SUBLW  05
0BB28:  BNZ   BB56
....................          printf("page Fecha"); 
0BB2A:  MOVLW  8A
0BB2C:  MOVWF  FF6
0BB2E:  MOVLW  13
0BB30:  MOVWF  FF7
0BB32:  MOVLW  00
0BB34:  MOVWF  FF8
0BB36:  MOVLB  0
0BB38:  CALL   43FC
....................          SendDataDisplay();      
0BB3C:  CALL   442E
....................          DiaTx=Dia; 
0BB40:  MOVFF  2BA,2C7
....................          MesTx=Mes; 
0BB44:  MOVFF  2B9,2C6
....................          YearTx=Year; 
0BB48:  MOVFF  2B8,2C5
....................          HoraTx=Hora; 
0BB4C:  MOVFF  2BB,2C8
....................          MinutoTx=Minuto; 
0BB50:  MOVFF  2BC,2C9
0BB54:  MOVLB  1
....................       } 
....................        
....................       if(RX_Buffer[4]==0xa0){//a0, Menu Principal 
0BB56:  MOVF   35,W
0BB58:  SUBLW  A0
0BB5A:  BNZ   BB74
....................          printf("page Menu"); 
0BB5C:  MOVLW  96
0BB5E:  MOVWF  FF6
0BB60:  MOVLW  13
0BB62:  MOVWF  FF7
0BB64:  MOVLW  00
0BB66:  MOVWF  FF8
0BB68:  MOVLB  0
0BB6A:  CALL   43FC
....................          SendDataDisplay();      
0BB6E:  CALL   442E
0BB72:  MOVLB  1
....................       } 
....................        
....................       if(RX_Buffer[4]==0xb0){//b0, Personalizados 
0BB74:  MOVF   35,W
0BB76:  SUBLW  B0
0BB78:  BNZ   BB92
....................          printf("page CicloPersona"); 
0BB7A:  MOVLW  A0
0BB7C:  MOVWF  FF6
0BB7E:  MOVLW  13
0BB80:  MOVWF  FF7
0BB82:  MOVLW  00
0BB84:  MOVWF  FF8
0BB86:  MOVLB  0
0BB88:  CALL   43FC
....................          SendDataDisplay();      
0BB8C:  CALL   442E
0BB90:  MOVLB  1
....................       } 
....................        
....................       if(RX_Buffer[4]==0xc0){//c0, Configuraciones 
0BB92:  MOVF   35,W
0BB94:  SUBLW  C0
0BB96:  BNZ   BBB0
....................          printf("page Ajustes"); 
0BB98:  MOVLW  B2
0BB9A:  MOVWF  FF6
0BB9C:  MOVLW  13
0BB9E:  MOVWF  FF7
0BBA0:  MOVLW  00
0BBA2:  MOVWF  FF8
0BBA4:  MOVLB  0
0BBA6:  CALL   43FC
....................          SendDataDisplay();      
0BBAA:  CALL   442E
0BBAE:  MOVLB  1
....................       } 
....................    }else if(Menu==12){//Menu de Visualizacion de Ciclos Realizados 
0BBB0:  GOTO   F9E8
0BBB4:  MOVLB  2
0BBB6:  MOVF   x73,W
0BBB8:  SUBLW  0C
0BBBA:  BTFSS  FD8.2
0BBBC:  GOTO   C85C
....................       //printf("fecha.txt=\"Fecha:%02u/%02u/20%02u    Hora: %02u:%02u\"",Dia,Mes,Year,Hora,Minuto); 
....................       //SendDataDisplay(); 
....................       GuardaEEPROM=OFF; 
0BBC0:  MOVLB  1
0BBC2:  BCF    x06.1
....................        
....................       i2c_start();            // Comienzo de la comunicacin 
0BBC4:  BSF    F94.4
0BBC6:  MOVLW  05
0BBC8:  MOVWF  00
0BBCA:  DECFSZ 00,F
0BBCC:  BRA    BBCA
0BBCE:  BSF    F94.3
0BBD0:  MOVLW  06
0BBD2:  MOVWF  00
0BBD4:  DECFSZ 00,F
0BBD6:  BRA    BBD4
0BBD8:  BCF    F8B.4
0BBDA:  BCF    F94.4
0BBDC:  MOVLW  05
0BBDE:  MOVWF  00
0BBE0:  DECFSZ 00,F
0BBE2:  BRA    BBE0
0BBE4:  BCF    F8B.3
0BBE6:  BCF    F94.3
....................       i2c_write(0xB0);   // Direccin del esclavo en el bus I2C 
0BBE8:  MOVLW  B0
0BBEA:  MOVLB  6
0BBEC:  MOVWF  xE5
0BBEE:  MOVLB  0
0BBF0:  CALL   2672
....................       i2c_write(9);    // Posicin de donde se leer el dato en el esclavo 
0BBF4:  MOVLW  09
0BBF6:  MOVLB  6
0BBF8:  MOVWF  xE5
0BBFA:  MOVLB  0
0BBFC:  CALL   2672
....................       i2c_write(0);    // Posicin de donde se leer el dato en el esclavo 
0BC00:  MOVLB  6
0BC02:  CLRF   xE5
0BC04:  MOVLB  0
0BC06:  CALL   2672
....................       i2c_start();            // Reinicio 
0BC0A:  BSF    F94.4
0BC0C:  MOVLW  05
0BC0E:  MOVWF  00
0BC10:  DECFSZ 00,F
0BC12:  BRA    BC10
0BC14:  BSF    F94.3
0BC16:  MOVLW  06
0BC18:  MOVWF  00
0BC1A:  DECFSZ 00,F
0BC1C:  BRA    BC1A
0BC1E:  BTFSS  F82.3
0BC20:  BRA    BC1E
0BC22:  BCF    F8B.4
0BC24:  BCF    F94.4
0BC26:  MOVLW  05
0BC28:  MOVWF  00
0BC2A:  DECFSZ 00,F
0BC2C:  BRA    BC2A
0BC2E:  BCF    F8B.3
0BC30:  BCF    F94.3
....................       i2c_write(direccion+1); // Direccin del esclavo en modo lectura 
0BC32:  MOVLW  01
0BC34:  ADDWF  xDE,W
0BC36:  MOVLB  6
0BC38:  MOVWF  xCF
0BC3A:  MOVWF  xE5
0BC3C:  MOVLB  0
0BC3E:  CALL   2672
....................       dato=i2c_read(0);       // Lectura del dato 
0BC42:  CLRF   00
0BC44:  CALL   26E8
0BC48:  MOVFF  01,DD
....................       i2c_stop(); 
0BC4C:  BCF    F94.4
0BC4E:  NOP   
0BC50:  BSF    F94.3
0BC52:  BTFSS  F82.3
0BC54:  BRA    BC52
0BC56:  MOVLW  05
0BC58:  MOVWF  00
0BC5A:  DECFSZ 00,F
0BC5C:  BRA    BC5A
0BC5E:  BRA    BC60
0BC60:  NOP   
0BC62:  BSF    F94.4
0BC64:  MOVLW  05
0BC66:  MOVWF  00
0BC68:  DECFSZ 00,F
0BC6A:  BRA    BC68
....................        
....................       printf("estado.txt=\"Oprima Exportar para imprimir\""); 
0BC6C:  MOVLW  C0
0BC6E:  MOVWF  FF6
0BC70:  MOVLW  13
0BC72:  MOVWF  FF7
0BC74:  MOVLW  00
0BC76:  MOVWF  FF8
0BC78:  CALL   43FC
....................       SendDataDisplay();      
0BC7C:  CALL   442E
....................        
....................       if(RX_Buffer[6]==0x01){//01, Ciclos 
0BC80:  DECFSZ 37,W
0BC82:  BRA    BC98
....................          printf("page Ajustes"); 
0BC84:  MOVLW  EC
0BC86:  MOVWF  FF6
0BC88:  MOVLW  13
0BC8A:  MOVWF  FF7
0BC8C:  MOVLW  00
0BC8E:  MOVWF  FF8
0BC90:  CALL   43FC
....................          SendDataDisplay();      
0BC94:  CALL   442E
....................       } 
....................        
....................       if(RX_Buffer[6]==0x02){//02, Exportar 
0BC98:  MOVF   37,W
0BC9A:  SUBLW  02
0BC9C:  BNZ   BCBA
....................          RX_Buffer[6]=0x00;   
0BC9E:  CLRF   37
....................          RX_Buffer2[6]=0x00; 
0BCA0:  CLRF   42
....................          printf("estado.txt=\"!Imprimiendo!\""); 
0BCA2:  MOVLW  FA
0BCA4:  MOVWF  FF6
0BCA6:  MOVLW  13
0BCA8:  MOVWF  FF7
0BCAA:  MOVLW  00
0BCAC:  MOVWF  FF8
0BCAE:  CALL   43FC
....................          SendDataDisplay(); 
0BCB2:  CALL   442E
....................          exportarData(); 
0BCB6:  GOTO   653A
....................       } 
....................        
....................       if(RX_Buffer[4]>0x00 || RX_Buffer[5]>0x00 || UP || DOWN || RIGHT || LEFT){ 
0BCBA:  MOVF   35,F
0BCBC:  BNZ   BCDA
0BCBE:  MOVF   36,F
0BCC0:  BNZ   BCDA
0BCC2:  BSF    F93.4
0BCC4:  BTFSS  F81.4
0BCC6:  BRA    BCDA
0BCC8:  BSF    F93.5
0BCCA:  BTFSS  F81.5
0BCCC:  BRA    BCDA
0BCCE:  BSF    F93.6
0BCD0:  BTFSS  F81.6
0BCD2:  BRA    BCDA
0BCD4:  BSF    F93.7
0BCD6:  BTFSC  F81.7
0BCD8:  BRA    C46C
....................          if(UP){ 
0BCDA:  BSF    F93.4
0BCDC:  BTFSC  F81.4
0BCDE:  BRA    BCF8
....................             if(cicloVisualizado<28){ 
0BCE0:  MOVLB  2
0BCE2:  MOVF   xBF,W
0BCE4:  SUBLW  1B
0BCE6:  BNC   BCEA
....................                cicloVisualizado++; 
0BCE8:  INCF   xBF,F
....................             } 
....................             delay_ms(20); 
0BCEA:  MOVLW  14
0BCEC:  MOVLB  6
0BCEE:  MOVWF  xE1
0BCF0:  MOVLB  0
0BCF2:  CALL   21DE
....................          }else if(DOWN){ 
0BCF6:  BRA    BD64
0BCF8:  BSF    F93.5
0BCFA:  BTFSC  F81.5
0BCFC:  BRA    BD14
....................             if(cicloVisualizado>0){ 
0BCFE:  MOVLB  2
0BD00:  MOVF   xBF,F
0BD02:  BZ    BD06
....................                cicloVisualizado--; 
0BD04:  DECF   xBF,F
....................             } 
....................             delay_ms(20); 
0BD06:  MOVLW  14
0BD08:  MOVLB  6
0BD0A:  MOVWF  xE1
0BD0C:  MOVLB  0
0BD0E:  CALL   21DE
....................          }else if(RIGHT){ 
0BD12:  BRA    BD64
0BD14:  BSF    F93.6
0BD16:  BTFSC  F81.6
0BD18:  BRA    BD32
....................             if(cicloVisto<200){ 
0BD1A:  MOVLB  2
0BD1C:  MOVF   xC0,W
0BD1E:  SUBLW  C7
0BD20:  BNC   BD24
....................                cicloVisto++; 
0BD22:  INCF   xC0,F
....................             } 
....................             delay_ms(20);             
0BD24:  MOVLW  14
0BD26:  MOVLB  6
0BD28:  MOVWF  xE1
0BD2A:  MOVLB  0
0BD2C:  CALL   21DE
....................          }else if(LEFT){ 
0BD30:  BRA    BD64
0BD32:  BSF    F93.7
0BD34:  BTFSC  F81.7
0BD36:  BRA    BD4E
....................             if(cicloVisto>0){ 
0BD38:  MOVLB  2
0BD3A:  MOVF   xC0,F
0BD3C:  BZ    BD40
....................                cicloVisto--; 
0BD3E:  DECF   xC0,F
....................             } 
....................             delay_ms(20); 
0BD40:  MOVLW  14
0BD42:  MOVLB  6
0BD44:  MOVWF  xE1
0BD46:  MOVLB  0
0BD48:  CALL   21DE
....................          }else{ 
0BD4C:  BRA    BD64
....................             cicloVisualizado=RX_Buffer[4]-1; 
0BD4E:  MOVLW  01
0BD50:  SUBWF  35,W
0BD52:  MOVLB  2
0BD54:  MOVWF  xBF
....................             cicloVisto=RX_Buffer[5]-1; 
0BD56:  MOVLW  01
0BD58:  SUBWF  36,W
0BD5A:  MOVWF  xC0
....................             RX_Buffer[4]=0x00; 
0BD5C:  CLRF   35
....................             RX_Buffer[5]=0x00; 
0BD5E:  CLRF   36
....................             RX_Buffer2[4]=0x00; 
0BD60:  CLRF   40
....................             RX_Buffer2[5]=0x00; 
0BD62:  CLRF   41
....................          } 
....................          printf("h0.val=%u",cicloVisto+1); 
0BD64:  MOVLW  01
0BD66:  MOVLB  2
0BD68:  ADDWF  xC0,W
0BD6A:  MOVLB  6
0BD6C:  MOVWF  xCF
0BD6E:  MOVLW  16
0BD70:  MOVWF  FF6
0BD72:  MOVLW  14
0BD74:  MOVWF  FF7
0BD76:  MOVLW  00
0BD78:  MOVWF  FF8
0BD7A:  MOVLW  07
0BD7C:  MOVWF  xD4
0BD7E:  MOVLB  0
0BD80:  CALL   5E96
0BD84:  MOVFF  6CF,6D4
0BD88:  MOVLW  1B
0BD8A:  MOVLB  6
0BD8C:  MOVWF  xD5
0BD8E:  MOVLB  0
0BD90:  CALL   5F1A
....................          SendDataDisplay();    
0BD94:  CALL   442E
....................          printf("h1.val=%u",cicloVisualizado+1); 
0BD98:  MOVLW  01
0BD9A:  MOVLB  2
0BD9C:  ADDWF  xBF,W
0BD9E:  MOVLB  6
0BDA0:  MOVWF  xCF
0BDA2:  MOVLW  20
0BDA4:  MOVWF  FF6
0BDA6:  MOVLW  14
0BDA8:  MOVWF  FF7
0BDAA:  MOVLW  00
0BDAC:  MOVWF  FF8
0BDAE:  MOVLW  07
0BDB0:  MOVWF  xD4
0BDB2:  MOVLB  0
0BDB4:  CALL   5E96
0BDB8:  MOVFF  6CF,6D4
0BDBC:  MOVLW  1B
0BDBE:  MOVLB  6
0BDC0:  MOVWF  xD5
0BDC2:  MOVLB  0
0BDC4:  CALL   5F1A
....................          SendDataDisplay();    
0BDC8:  CALL   442E
....................          diaCiclos=read_ext_eeprom(2+(cicloVisto*320)); 
0BDCC:  MOVLB  6
0BDCE:  CLRF   xDA
0BDD0:  MOVFF  2C0,6D9
0BDD4:  MOVLW  01
0BDD6:  MOVWF  xDC
0BDD8:  MOVLW  40
0BDDA:  MOVWF  xDB
0BDDC:  MOVLB  0
0BDDE:  CALL   2650
0BDE2:  MOVFF  02,03
0BDE6:  MOVF   01,W
0BDE8:  ADDLW  02
0BDEA:  MOVLB  6
0BDEC:  MOVWF  xCF
0BDEE:  MOVLW  00
0BDF0:  ADDWFC 02,W
0BDF2:  MOVWF  xD0
0BDF4:  MOVWF  xD5
0BDF6:  MOVFF  6CF,6D4
0BDFA:  MOVLB  0
0BDFC:  CALL   2752
0BE00:  MOVFF  01,336
....................          if(diaCiclos>31) 
0BE04:  MOVLB  3
0BE06:  MOVF   x36,W
0BE08:  SUBLW  1F
0BE0A:  BC    BE10
....................             diaCiclos=1; 
0BE0C:  MOVLW  01
0BE0E:  MOVWF  x36
....................          mesCiclos=read_ext_eeprom(3+(cicloVisto*320)); 
0BE10:  MOVLB  6
0BE12:  CLRF   xDA
0BE14:  MOVFF  2C0,6D9
0BE18:  MOVLW  01
0BE1A:  MOVWF  xDC
0BE1C:  MOVLW  40
0BE1E:  MOVWF  xDB
0BE20:  MOVLB  0
0BE22:  CALL   2650
0BE26:  MOVFF  02,03
0BE2A:  MOVF   01,W
0BE2C:  ADDLW  03
0BE2E:  MOVLB  6
0BE30:  MOVWF  xCF
0BE32:  MOVLW  00
0BE34:  ADDWFC 02,W
0BE36:  MOVWF  xD0
0BE38:  MOVWF  xD5
0BE3A:  MOVFF  6CF,6D4
0BE3E:  MOVLB  0
0BE40:  CALL   2752
0BE44:  MOVFF  01,337
....................          if(mesCiclos>12) 
0BE48:  MOVLB  3
0BE4A:  MOVF   x37,W
0BE4C:  SUBLW  0C
0BE4E:  BC    BE54
....................             mesCiclos=1; 
0BE50:  MOVLW  01
0BE52:  MOVWF  x37
....................          yearCiclos=read_ext_eeprom(4+(cicloVisto*320)); 
0BE54:  MOVLB  6
0BE56:  CLRF   xDA
0BE58:  MOVFF  2C0,6D9
0BE5C:  MOVLW  01
0BE5E:  MOVWF  xDC
0BE60:  MOVLW  40
0BE62:  MOVWF  xDB
0BE64:  MOVLB  0
0BE66:  CALL   2650
0BE6A:  MOVFF  02,03
0BE6E:  MOVF   01,W
0BE70:  ADDLW  04
0BE72:  MOVLB  6
0BE74:  MOVWF  xCF
0BE76:  MOVLW  00
0BE78:  ADDWFC 02,W
0BE7A:  MOVWF  xD0
0BE7C:  MOVWF  xD5
0BE7E:  MOVFF  6CF,6D4
0BE82:  MOVLB  0
0BE84:  CALL   2752
0BE88:  MOVFF  01,338
....................          if(yearCiclos>99) 
0BE8C:  MOVLB  3
0BE8E:  MOVF   x38,W
0BE90:  SUBLW  63
0BE92:  BC    BE98
....................             yearCiclos=19; 
0BE94:  MOVLW  13
0BE96:  MOVWF  x38
....................          cicloCiclos=read_ext_eeprom(1+(cicloVisto*320)); 
0BE98:  MOVLB  6
0BE9A:  CLRF   xDA
0BE9C:  MOVFF  2C0,6D9
0BEA0:  MOVLW  01
0BEA2:  MOVWF  xDC
0BEA4:  MOVLW  40
0BEA6:  MOVWF  xDB
0BEA8:  MOVLB  0
0BEAA:  CALL   2650
0BEAE:  MOVFF  02,03
0BEB2:  MOVF   01,W
0BEB4:  ADDLW  01
0BEB6:  MOVLB  6
0BEB8:  MOVWF  xCF
0BEBA:  MOVLW  00
0BEBC:  ADDWFC 02,W
0BEBE:  MOVWF  xD0
0BEC0:  MOVWF  xD5
0BEC2:  MOVFF  6CF,6D4
0BEC6:  MOVLB  0
0BEC8:  CALL   2752
0BECC:  MOVFF  01,33A
....................          if(cicloCiclos>20) 
0BED0:  MOVLB  3
0BED2:  MOVF   x3A,W
0BED4:  SUBLW  14
0BED6:  BC    BEDC
....................             cicloCiclos=1; 
0BED8:  MOVLW  01
0BEDA:  MOVWF  x3A
....................          usuarioCiclos=read_ext_eeprom((cicloVisto*320)); 
0BEDC:  MOVLB  6
0BEDE:  CLRF   xDA
0BEE0:  MOVFF  2C0,6D9
0BEE4:  MOVLW  01
0BEE6:  MOVWF  xDC
0BEE8:  MOVLW  40
0BEEA:  MOVWF  xDB
0BEEC:  MOVLB  0
0BEEE:  CALL   2650
0BEF2:  MOVFF  02,6D0
0BEF6:  MOVFF  01,6CF
0BEFA:  MOVFF  02,6D5
0BEFE:  MOVFF  01,6D4
0BF02:  CALL   2752
0BF06:  MOVFF  01,339
....................          if(usuarioCiclos>10) 
0BF0A:  MOVLB  3
0BF0C:  MOVF   x39,W
0BF0E:  SUBLW  0A
0BF10:  BC    BF16
....................             usuarioCiclos=1; 
0BF12:  MOVLW  01
0BF14:  MOVWF  x39
....................          for(i=0;i<7;i++){//Lee Valores para completar la Tabla 
0BF16:  MOVLB  2
0BF18:  CLRF   x76
0BF1A:  MOVF   x76,W
0BF1C:  SUBLW  06
0BF1E:  BTFSS  FD8.0
0BF20:  BRA    C46A
....................             horaCiclos[i]=read_ext_eeprom((cicloVisto*320)+11+((cicloVisualizado+i)*9)); 
0BF22:  CLRF   03
0BF24:  MOVF   x76,W
0BF26:  ADDLW  21
0BF28:  MOVWF  01
0BF2A:  MOVLW  03
0BF2C:  ADDWFC 03,F
0BF2E:  MOVFF  01,6CF
0BF32:  MOVLB  6
0BF34:  MOVFF  03,6D0
0BF38:  CLRF   xDA
0BF3A:  MOVFF  2C0,6D9
0BF3E:  MOVLW  01
0BF40:  MOVWF  xDC
0BF42:  MOVLW  40
0BF44:  MOVWF  xDB
0BF46:  MOVLB  0
0BF48:  CALL   2650
0BF4C:  MOVFF  02,6D2
0BF50:  MOVFF  01,6D1
0BF54:  MOVLW  0B
0BF56:  MOVLB  6
0BF58:  ADDWF  xD1,F
0BF5A:  MOVLW  00
0BF5C:  ADDWFC xD2,F
0BF5E:  MOVLB  2
0BF60:  MOVF   x76,W
0BF62:  ADDWF  xBF,W
0BF64:  MULLW  09
0BF66:  MOVF   FF3,W
0BF68:  MOVLB  6
0BF6A:  ADDWF  xD1,F
0BF6C:  MOVLW  00
0BF6E:  ADDWFC xD2,F
0BF70:  MOVFF  6D2,6D5
0BF74:  MOVFF  6D1,6D4
0BF78:  MOVLB  0
0BF7A:  CALL   2752
0BF7E:  MOVFF  6D0,FEA
0BF82:  MOVFF  6CF,FE9
0BF86:  MOVFF  01,FEF
....................             if(horaCiclos[i]>24) 
0BF8A:  CLRF   03
0BF8C:  MOVLB  2
0BF8E:  MOVF   x76,W
0BF90:  ADDLW  21
0BF92:  MOVWF  FE9
0BF94:  MOVLW  03
0BF96:  ADDWFC 03,W
0BF98:  MOVWF  FEA
0BF9A:  MOVF   FEF,W
0BF9C:  SUBLW  18
0BF9E:  BC    BFB0
....................                horaCiclos[i]=0; 
0BFA0:  CLRF   03
0BFA2:  MOVF   x76,W
0BFA4:  ADDLW  21
0BFA6:  MOVWF  FE9
0BFA8:  MOVLW  03
0BFAA:  ADDWFC 03,W
0BFAC:  MOVWF  FEA
0BFAE:  CLRF   FEF
....................             minutoCiclos[i]=read_ext_eeprom((cicloVisto*320)+12+((cicloVisualizado+i)*9)); 
0BFB0:  CLRF   03
0BFB2:  MOVF   x76,W
0BFB4:  ADDLW  28
0BFB6:  MOVWF  01
0BFB8:  MOVLW  03
0BFBA:  ADDWFC 03,F
0BFBC:  MOVFF  01,6CF
0BFC0:  MOVLB  6
0BFC2:  MOVFF  03,6D0
0BFC6:  CLRF   xDA
0BFC8:  MOVFF  2C0,6D9
0BFCC:  MOVLW  01
0BFCE:  MOVWF  xDC
0BFD0:  MOVLW  40
0BFD2:  MOVWF  xDB
0BFD4:  MOVLB  0
0BFD6:  CALL   2650
0BFDA:  MOVFF  02,6D2
0BFDE:  MOVFF  01,6D1
0BFE2:  MOVLW  0C
0BFE4:  MOVLB  6
0BFE6:  ADDWF  xD1,F
0BFE8:  MOVLW  00
0BFEA:  ADDWFC xD2,F
0BFEC:  MOVLB  2
0BFEE:  MOVF   x76,W
0BFF0:  ADDWF  xBF,W
0BFF2:  MULLW  09
0BFF4:  MOVF   FF3,W
0BFF6:  MOVLB  6
0BFF8:  ADDWF  xD1,F
0BFFA:  MOVLW  00
0BFFC:  ADDWFC xD2,F
0BFFE:  MOVFF  6D2,6D5
0C002:  MOVFF  6D1,6D4
0C006:  MOVLB  0
0C008:  CALL   2752
0C00C:  MOVFF  6D0,FEA
0C010:  MOVFF  6CF,FE9
0C014:  MOVFF  01,FEF
....................             if(minutoCiclos[i]>59) 
0C018:  CLRF   03
0C01A:  MOVLB  2
0C01C:  MOVF   x76,W
0C01E:  ADDLW  28
0C020:  MOVWF  FE9
0C022:  MOVLW  03
0C024:  ADDWFC 03,W
0C026:  MOVWF  FEA
0C028:  MOVF   FEF,W
0C02A:  SUBLW  3B
0C02C:  BC    C03E
....................                minutoCiclos[i]=0; 
0C02E:  CLRF   03
0C030:  MOVF   x76,W
0C032:  ADDLW  28
0C034:  MOVWF  FE9
0C036:  MOVLW  03
0C038:  ADDWFC 03,W
0C03A:  MOVWF  FEA
0C03C:  CLRF   FEF
....................             TCiclos[i]=read_ext_eeprom((cicloVisto*320)+5+((cicloVisualizado+i)*9))+inttofloat(read_ext_eeprom((cicloVisto*320)+6+((cicloVisualizado+i)*9))); 
0C03E:  MOVF   x76,W
0C040:  MULLW  04
0C042:  MOVF   FF3,W
0C044:  CLRF   03
0C046:  ADDLW  E9
0C048:  MOVWF  01
0C04A:  MOVLW  02
0C04C:  ADDWFC 03,F
0C04E:  MOVFF  01,6CF
0C052:  MOVLB  6
0C054:  MOVFF  03,6D0
0C058:  CLRF   xDA
0C05A:  MOVFF  2C0,6D9
0C05E:  MOVLW  01
0C060:  MOVWF  xDC
0C062:  MOVLW  40
0C064:  MOVWF  xDB
0C066:  MOVLB  0
0C068:  CALL   2650
0C06C:  MOVFF  02,6D2
0C070:  MOVFF  01,6D1
0C074:  MOVLW  05
0C076:  MOVLB  6
0C078:  ADDWF  xD1,F
0C07A:  MOVLW  00
0C07C:  ADDWFC xD2,F
0C07E:  MOVLB  2
0C080:  MOVF   x76,W
0C082:  ADDWF  xBF,W
0C084:  MULLW  09
0C086:  MOVF   FF3,W
0C088:  MOVLB  6
0C08A:  ADDWF  xD1,F
0C08C:  MOVLW  00
0C08E:  ADDWFC xD2,F
0C090:  MOVFF  6D2,6D5
0C094:  MOVFF  6D1,6D4
0C098:  MOVLB  0
0C09A:  CALL   2752
0C09E:  MOVFF  01,6D1
0C0A2:  MOVLB  6
0C0A4:  CLRF   xDA
0C0A6:  MOVFF  2C0,6D9
0C0AA:  MOVLW  01
0C0AC:  MOVWF  xDC
0C0AE:  MOVLW  40
0C0B0:  MOVWF  xDB
0C0B2:  MOVLB  0
0C0B4:  CALL   2650
0C0B8:  MOVFF  02,6D3
0C0BC:  MOVFF  01,6D2
0C0C0:  MOVLW  06
0C0C2:  MOVLB  6
0C0C4:  ADDWF  xD2,F
0C0C6:  MOVLW  00
0C0C8:  ADDWFC xD3,F
0C0CA:  MOVLB  2
0C0CC:  MOVF   x76,W
0C0CE:  ADDWF  xBF,W
0C0D0:  MULLW  09
0C0D2:  MOVF   FF3,W
0C0D4:  MOVLB  6
0C0D6:  ADDWF  xD2,F
0C0D8:  MOVLW  00
0C0DA:  ADDWFC xD3,F
0C0DC:  MOVFF  6D3,6D5
0C0E0:  MOVFF  6D2,6D4
0C0E4:  MOVLB  0
0C0E6:  CALL   2752
0C0EA:  MOVFF  01,6D2
0C0EE:  MOVFF  01,6D3
0C0F2:  CALL   27FA
0C0F6:  MOVFF  00,6D2
0C0FA:  MOVFF  01,6D3
0C0FE:  MOVFF  02,6D4
0C102:  MOVFF  03,6D5
0C106:  MOVLB  6
0C108:  CLRF   xE2
0C10A:  MOVFF  6D1,6E1
0C10E:  MOVLB  0
0C110:  CALL   21A8
0C114:  MOVFF  FEA,6D7
0C118:  MOVFF  FE9,6D6
0C11C:  BCF    FD8.1
0C11E:  MOVFF  03,6E4
0C122:  MOVFF  02,6E3
0C126:  MOVFF  01,6E2
0C12A:  MOVFF  00,6E1
0C12E:  MOVFF  6D5,6E8
0C132:  MOVFF  6D4,6E7
0C136:  MOVFF  6D3,6E6
0C13A:  MOVFF  6D2,6E5
0C13E:  CALL   2364
0C142:  MOVFF  6D7,FEA
0C146:  MOVFF  6D6,FE9
0C14A:  MOVFF  6D0,FEA
0C14E:  MOVFF  6CF,FE9
0C152:  MOVFF  00,FEF
0C156:  MOVFF  01,FEC
0C15A:  MOVFF  02,FEC
0C15E:  MOVFF  03,FEC
....................             if(TCiclos[i]>150) 
0C162:  MOVLB  2
0C164:  MOVF   x76,W
0C166:  MULLW  04
0C168:  MOVF   FF3,W
0C16A:  CLRF   03
0C16C:  ADDLW  E9
0C16E:  MOVWF  FE9
0C170:  MOVLW  02
0C172:  ADDWFC 03,W
0C174:  MOVWF  FEA
0C176:  MOVFF  FEF,6CF
0C17A:  MOVFF  FEC,6D0
0C17E:  MOVFF  FEC,6D1
0C182:  MOVFF  FEC,6D2
0C186:  MOVLB  6
0C188:  CLRF   xD6
0C18A:  CLRF   xD5
0C18C:  MOVLW  16
0C18E:  MOVWF  xD4
0C190:  MOVLW  86
0C192:  MOVWF  xD3
0C194:  MOVFF  6D2,6DA
0C198:  MOVFF  6D1,6D9
0C19C:  MOVFF  6D0,6D8
0C1A0:  MOVFF  6CF,6D7
0C1A4:  MOVLB  0
0C1A6:  CALL   283A
0C1AA:  BNC   C1CA
....................                TCiclos[i]=0; 
0C1AC:  MOVLB  2
0C1AE:  MOVF   x76,W
0C1B0:  MULLW  04
0C1B2:  MOVF   FF3,W
0C1B4:  CLRF   03
0C1B6:  ADDLW  E9
0C1B8:  MOVWF  FE9
0C1BA:  MOVLW  02
0C1BC:  ADDWFC 03,W
0C1BE:  MOVWF  FEA
0C1C0:  CLRF   FEF
0C1C2:  CLRF   FEC
0C1C4:  CLRF   FEC
0C1C6:  CLRF   FEC
0C1C8:  MOVLB  0
....................             PcCiclos[i]=make16(read_ext_eeprom((cicloVisto*320)+7+((cicloVisualizado+i)*9)),read_ext_eeprom((cicloVisto*320)+8+((cicloVisualizado+i)*9))); 
0C1CA:  BCF    FD8.0
0C1CC:  MOVLB  2
0C1CE:  RLCF   x76,W
0C1D0:  CLRF   03
0C1D2:  ADDLW  05
0C1D4:  MOVWF  01
0C1D6:  MOVLW  03
0C1D8:  ADDWFC 03,F
0C1DA:  MOVFF  01,6CF
0C1DE:  MOVLB  6
0C1E0:  MOVFF  03,6D0
0C1E4:  CLRF   xDA
0C1E6:  MOVFF  2C0,6D9
0C1EA:  MOVLW  01
0C1EC:  MOVWF  xDC
0C1EE:  MOVLW  40
0C1F0:  MOVWF  xDB
0C1F2:  MOVLB  0
0C1F4:  CALL   2650
0C1F8:  MOVFF  02,6D2
0C1FC:  MOVFF  01,6D1
0C200:  MOVLW  07
0C202:  MOVLB  6
0C204:  ADDWF  xD1,F
0C206:  MOVLW  00
0C208:  ADDWFC xD2,F
0C20A:  MOVLB  2
0C20C:  MOVF   x76,W
0C20E:  ADDWF  xBF,W
0C210:  MULLW  09
0C212:  MOVF   FF3,W
0C214:  MOVLB  6
0C216:  ADDWF  xD1,F
0C218:  MOVLW  00
0C21A:  ADDWFC xD2,F
0C21C:  MOVFF  6D2,6D5
0C220:  MOVFF  6D1,6D4
0C224:  MOVLB  0
0C226:  CALL   2752
0C22A:  MOVFF  01,6D1
0C22E:  MOVLB  6
0C230:  CLRF   xDA
0C232:  MOVFF  2C0,6D9
0C236:  MOVLW  01
0C238:  MOVWF  xDC
0C23A:  MOVLW  40
0C23C:  MOVWF  xDB
0C23E:  MOVLB  0
0C240:  CALL   2650
0C244:  MOVFF  02,6D3
0C248:  MOVFF  01,6D2
0C24C:  MOVLW  08
0C24E:  MOVLB  6
0C250:  ADDWF  xD2,F
0C252:  MOVLW  00
0C254:  ADDWFC xD3,F
0C256:  MOVLB  2
0C258:  MOVF   x76,W
0C25A:  ADDWF  xBF,W
0C25C:  MULLW  09
0C25E:  MOVF   FF3,W
0C260:  MOVLB  6
0C262:  ADDWF  xD2,F
0C264:  MOVLW  00
0C266:  ADDWFC xD3,F
0C268:  MOVFF  6D3,6D5
0C26C:  MOVFF  6D2,6D4
0C270:  MOVLB  0
0C272:  CALL   2752
0C276:  MOVFF  6D0,FEA
0C27A:  MOVFF  6CF,FE9
0C27E:  MOVFF  6D1,FEC
0C282:  MOVF   FED,F
0C284:  MOVFF  01,FEF
....................             if(PcCiclos[i]>400) 
0C288:  BCF    FD8.0
0C28A:  MOVLB  2
0C28C:  RLCF   x76,W
0C28E:  CLRF   03
0C290:  ADDLW  05
0C292:  MOVWF  FE9
0C294:  MOVLW  03
0C296:  ADDWFC 03,W
0C298:  MOVWF  FEA
0C29A:  MOVFF  FEC,6D0
0C29E:  MOVF   FED,F
0C2A0:  MOVFF  FEF,6CF
0C2A4:  MOVLB  6
0C2A6:  MOVF   xD0,W
0C2A8:  SUBLW  00
0C2AA:  BC    C2D0
0C2AC:  XORLW  FF
0C2AE:  BNZ   C2B6
0C2B0:  MOVF   xCF,W
0C2B2:  SUBLW  90
0C2B4:  BC    C2D0
....................                PcCiclos[i]=0; 
0C2B6:  BCF    FD8.0
0C2B8:  MOVLB  2
0C2BA:  RLCF   x76,W
0C2BC:  CLRF   03
0C2BE:  ADDLW  05
0C2C0:  MOVWF  FE9
0C2C2:  MOVLW  03
0C2C4:  ADDWFC 03,W
0C2C6:  MOVWF  FEA
0C2C8:  CLRF   FEC
0C2CA:  MOVF   FED,F
0C2CC:  CLRF   FEF
0C2CE:  MOVLB  6
....................             PpcCiclos[i]=make16(read_ext_eeprom((cicloVisto*320)+9+((cicloVisualizado+i)*9)),read_ext_eeprom((cicloVisto*320)+10+((cicloVisualizado+i)*9))); 
0C2D0:  BCF    FD8.0
0C2D2:  MOVLB  2
0C2D4:  RLCF   x76,W
0C2D6:  CLRF   03
0C2D8:  ADDLW  13
0C2DA:  MOVWF  01
0C2DC:  MOVLW  03
0C2DE:  ADDWFC 03,F
0C2E0:  MOVFF  01,6CF
0C2E4:  MOVLB  6
0C2E6:  MOVFF  03,6D0
0C2EA:  CLRF   xDA
0C2EC:  MOVFF  2C0,6D9
0C2F0:  MOVLW  01
0C2F2:  MOVWF  xDC
0C2F4:  MOVLW  40
0C2F6:  MOVWF  xDB
0C2F8:  MOVLB  0
0C2FA:  CALL   2650
0C2FE:  MOVFF  02,6D2
0C302:  MOVFF  01,6D1
0C306:  MOVLW  09
0C308:  MOVLB  6
0C30A:  ADDWF  xD1,F
0C30C:  MOVLW  00
0C30E:  ADDWFC xD2,F
0C310:  MOVLB  2
0C312:  MOVF   x76,W
0C314:  ADDWF  xBF,W
0C316:  MULLW  09
0C318:  MOVF   FF3,W
0C31A:  MOVLB  6
0C31C:  ADDWF  xD1,F
0C31E:  MOVLW  00
0C320:  ADDWFC xD2,F
0C322:  MOVFF  6D2,6D5
0C326:  MOVFF  6D1,6D4
0C32A:  MOVLB  0
0C32C:  CALL   2752
0C330:  MOVFF  01,6D1
0C334:  MOVLB  6
0C336:  CLRF   xDA
0C338:  MOVFF  2C0,6D9
0C33C:  MOVLW  01
0C33E:  MOVWF  xDC
0C340:  MOVLW  40
0C342:  MOVWF  xDB
0C344:  MOVLB  0
0C346:  CALL   2650
0C34A:  MOVFF  02,6D3
0C34E:  MOVFF  01,6D2
0C352:  MOVLW  0A
0C354:  MOVLB  6
0C356:  ADDWF  xD2,F
0C358:  MOVLW  00
0C35A:  ADDWFC xD3,F
0C35C:  MOVLB  2
0C35E:  MOVF   x76,W
0C360:  ADDWF  xBF,W
0C362:  MULLW  09
0C364:  MOVF   FF3,W
0C366:  MOVLB  6
0C368:  ADDWF  xD2,F
0C36A:  MOVLW  00
0C36C:  ADDWFC xD3,F
0C36E:  MOVFF  6D3,6D5
0C372:  MOVFF  6D2,6D4
0C376:  MOVLB  0
0C378:  CALL   2752
0C37C:  MOVFF  6D0,FEA
0C380:  MOVFF  6CF,FE9
0C384:  MOVFF  6D1,FEC
0C388:  MOVF   FED,F
0C38A:  MOVFF  01,FEF
....................             if(PpcCiclos[i]>400) 
0C38E:  BCF    FD8.0
0C390:  MOVLB  2
0C392:  RLCF   x76,W
0C394:  CLRF   03
0C396:  ADDLW  13
0C398:  MOVWF  FE9
0C39A:  MOVLW  03
0C39C:  ADDWFC 03,W
0C39E:  MOVWF  FEA
0C3A0:  MOVFF  FEC,6D0
0C3A4:  MOVF   FED,F
0C3A6:  MOVFF  FEF,6CF
0C3AA:  MOVLB  6
0C3AC:  MOVF   xD0,W
0C3AE:  SUBLW  00
0C3B0:  BC    C3D6
0C3B2:  XORLW  FF
0C3B4:  BNZ   C3BC
0C3B6:  MOVF   xCF,W
0C3B8:  SUBLW  90
0C3BA:  BC    C3D6
....................                PpcCiclos[i]=0; 
0C3BC:  BCF    FD8.0
0C3BE:  MOVLB  2
0C3C0:  RLCF   x76,W
0C3C2:  CLRF   03
0C3C4:  ADDLW  13
0C3C6:  MOVWF  FE9
0C3C8:  MOVLW  03
0C3CA:  ADDWFC 03,W
0C3CC:  MOVWF  FEA
0C3CE:  CLRF   FEC
0C3D0:  MOVF   FED,F
0C3D2:  CLRF   FEF
0C3D4:  MOVLB  6
....................             ACiclos[i]=read_ext_eeprom((cicloVisto*320)+13+((cicloVisualizado+i)*9)); 
0C3D6:  CLRF   03
0C3D8:  MOVLB  2
0C3DA:  MOVF   x76,W
0C3DC:  ADDLW  2F
0C3DE:  MOVWF  01
0C3E0:  MOVLW  03
0C3E2:  ADDWFC 03,F
0C3E4:  MOVFF  01,6CF
0C3E8:  MOVLB  6
0C3EA:  MOVFF  03,6D0
0C3EE:  CLRF   xDA
0C3F0:  MOVFF  2C0,6D9
0C3F4:  MOVLW  01
0C3F6:  MOVWF  xDC
0C3F8:  MOVLW  40
0C3FA:  MOVWF  xDB
0C3FC:  MOVLB  0
0C3FE:  CALL   2650
0C402:  MOVFF  02,6D2
0C406:  MOVFF  01,6D1
0C40A:  MOVLW  0D
0C40C:  MOVLB  6
0C40E:  ADDWF  xD1,F
0C410:  MOVLW  00
0C412:  ADDWFC xD2,F
0C414:  MOVLB  2
0C416:  MOVF   x76,W
0C418:  ADDWF  xBF,W
0C41A:  MULLW  09
0C41C:  MOVF   FF3,W
0C41E:  MOVLB  6
0C420:  ADDWF  xD1,F
0C422:  MOVLW  00
0C424:  ADDWFC xD2,F
0C426:  MOVFF  6D2,6D5
0C42A:  MOVFF  6D1,6D4
0C42E:  MOVLB  0
0C430:  CALL   2752
0C434:  MOVFF  6D0,FEA
0C438:  MOVFF  6CF,FE9
0C43C:  MOVFF  01,FEF
....................             if(ACiclos[i]>20) 
0C440:  CLRF   03
0C442:  MOVLB  2
0C444:  MOVF   x76,W
0C446:  ADDLW  2F
0C448:  MOVWF  FE9
0C44A:  MOVLW  03
0C44C:  ADDWFC 03,W
0C44E:  MOVWF  FEA
0C450:  MOVF   FEF,W
0C452:  SUBLW  14
0C454:  BC    C466
....................                ACiclos[i]=0; 
0C456:  CLRF   03
0C458:  MOVF   x76,W
0C45A:  ADDLW  2F
0C45C:  MOVWF  FE9
0C45E:  MOVLW  03
0C460:  ADDWFC 03,W
0C462:  MOVWF  FEA
0C464:  CLRF   FEF
....................          } 
0C466:  INCF   x76,F
0C468:  BRA    BF1A
0C46A:  MOVLB  0
....................           
....................       } 
....................        
....................       //Imprime Valores Estaticos 
....................       printf("fecha.txt=\"%02u/%02u/%02u\"",diaCiclos,mesCiclos,yearCiclos); 
0C46C:  MOVLW  2A
0C46E:  MOVWF  FF6
0C470:  MOVLW  14
0C472:  MOVWF  FF7
0C474:  MOVLW  00
0C476:  MOVWF  FF8
0C478:  MOVLW  0B
0C47A:  MOVLB  6
0C47C:  MOVWF  xD4
0C47E:  MOVLB  0
0C480:  CALL   5E96
0C484:  MOVFF  336,6D4
0C488:  MOVLW  01
0C48A:  MOVLB  6
0C48C:  MOVWF  xD5
0C48E:  MOVLB  0
0C490:  CALL   5F1A
0C494:  MOVLW  2F
0C496:  BTFSS  F9E.4
0C498:  BRA    C496
0C49A:  MOVWF  FAD
0C49C:  MOVFF  337,6D4
0C4A0:  MOVLW  01
0C4A2:  MOVLB  6
0C4A4:  MOVWF  xD5
0C4A6:  MOVLB  0
0C4A8:  CALL   5F1A
0C4AC:  MOVLW  2F
0C4AE:  BTFSS  F9E.4
0C4B0:  BRA    C4AE
0C4B2:  MOVWF  FAD
0C4B4:  MOVFF  338,6D4
0C4B8:  MOVLW  01
0C4BA:  MOVLB  6
0C4BC:  MOVWF  xD5
0C4BE:  MOVLB  0
0C4C0:  CALL   5F1A
0C4C4:  MOVLW  22
0C4C6:  BTFSS  F9E.4
0C4C8:  BRA    C4C6
0C4CA:  MOVWF  FAD
....................       SendDataDisplay(); 
0C4CC:  CALL   442E
....................        
....................       printf("ciclo.txt=\"%02u\"",cicloCiclos); 
0C4D0:  MOVLW  46
0C4D2:  MOVWF  FF6
0C4D4:  MOVLW  14
0C4D6:  MOVWF  FF7
0C4D8:  MOVLW  00
0C4DA:  MOVWF  FF8
0C4DC:  MOVLW  0B
0C4DE:  MOVLB  6
0C4E0:  MOVWF  xD4
0C4E2:  MOVLB  0
0C4E4:  CALL   5E96
0C4E8:  MOVFF  33A,6D4
0C4EC:  MOVLW  01
0C4EE:  MOVLB  6
0C4F0:  MOVWF  xD5
0C4F2:  MOVLB  0
0C4F4:  CALL   5F1A
0C4F8:  MOVLW  22
0C4FA:  BTFSS  F9E.4
0C4FC:  BRA    C4FA
0C4FE:  MOVWF  FAD
....................       SendDataDisplay(); 
0C500:  CALL   442E
....................        
....................       printf("t0.txt=\"Ciclo %02u\"",cicloVisto); 
0C504:  MOVLW  58
0C506:  MOVWF  FF6
0C508:  MOVLW  14
0C50A:  MOVWF  FF7
0C50C:  MOVLW  00
0C50E:  MOVWF  FF8
0C510:  MOVLW  0E
0C512:  MOVLB  6
0C514:  MOVWF  xD4
0C516:  MOVLB  0
0C518:  CALL   5E96
0C51C:  MOVFF  2C0,6D4
0C520:  MOVLW  01
0C522:  MOVLB  6
0C524:  MOVWF  xD5
0C526:  MOVLB  0
0C528:  CALL   5F1A
0C52C:  MOVLW  22
0C52E:  BTFSS  F9E.4
0C530:  BRA    C52E
0C532:  MOVWF  FAD
....................       SendDataDisplay(); 
0C534:  CALL   442E
....................        
....................       if(usuarioCiclos==0){ 
0C538:  MOVLB  3
0C53A:  MOVF   x39,F
0C53C:  BNZ   C558
....................          printf("usuario.txt=\"Admin\""); 
0C53E:  MOVLW  6C
0C540:  MOVWF  FF6
0C542:  MOVLW  14
0C544:  MOVWF  FF7
0C546:  MOVLW  00
0C548:  MOVWF  FF8
0C54A:  MOVLB  0
0C54C:  CALL   43FC
....................          SendDataDisplay(); 
0C550:  CALL   442E
....................       }else if(usuarioCiclos>0 && usuarioCiclos<9){ 
0C554:  BRA    C5B6
0C556:  MOVLB  3
0C558:  MOVF   x39,F
0C55A:  BZ    C59A
0C55C:  MOVF   x39,W
0C55E:  SUBLW  08
0C560:  BNC   C59A
....................          printf("usuario.txt=\"Operador%u\"",usuarioCiclos); 
0C562:  MOVLW  80
0C564:  MOVWF  FF6
0C566:  MOVLW  14
0C568:  MOVWF  FF7
0C56A:  MOVLW  00
0C56C:  MOVWF  FF8
0C56E:  MOVLW  15
0C570:  MOVLB  6
0C572:  MOVWF  xD4
0C574:  MOVLB  0
0C576:  CALL   5E96
0C57A:  MOVFF  339,6D4
0C57E:  MOVLW  1B
0C580:  MOVLB  6
0C582:  MOVWF  xD5
0C584:  MOVLB  0
0C586:  CALL   5F1A
0C58A:  MOVLW  22
0C58C:  BTFSS  F9E.4
0C58E:  BRA    C58C
0C590:  MOVWF  FAD
....................          SendDataDisplay(); 
0C592:  CALL   442E
....................       }else if(usuarioCiclos==9){ 
0C596:  BRA    C5B6
0C598:  MOVLB  3
0C59A:  MOVF   x39,W
0C59C:  SUBLW  09
0C59E:  BNZ   C5B6
....................          printf("usuario.txt=\"Tecnico\""); 
0C5A0:  MOVLW  9A
0C5A2:  MOVWF  FF6
0C5A4:  MOVLW  14
0C5A6:  MOVWF  FF7
0C5A8:  MOVLW  00
0C5AA:  MOVWF  FF8
0C5AC:  MOVLB  0
0C5AE:  CALL   43FC
....................          SendDataDisplay(); 
0C5B2:  CALL   442E
....................       } 
....................        
....................       //Imprime Valores Dinamicos 
....................       for(i=0;i<7;i++){ 
0C5B6:  MOVLB  2
0C5B8:  CLRF   x76
0C5BA:  MOVF   x76,W
0C5BC:  SUBLW  06
0C5BE:  BTFSS  FD8.0
0C5C0:  BRA    C858
....................          printf("hora%u.txt=\"%02u.  %02u:%02u\"",i+1,cicloVisualizado+i+1,horaCiclos[i],minutoCiclos[i]); 
0C5C2:  MOVLW  01
0C5C4:  ADDWF  x76,W
0C5C6:  MOVLB  6
0C5C8:  MOVWF  xCF
0C5CA:  MOVLB  2
0C5CC:  MOVF   x76,W
0C5CE:  ADDWF  xBF,W
0C5D0:  ADDLW  01
0C5D2:  MOVLB  6
0C5D4:  MOVWF  xD0
0C5D6:  CLRF   03
0C5D8:  MOVLB  2
0C5DA:  MOVF   x76,W
0C5DC:  ADDLW  21
0C5DE:  MOVWF  FE9
0C5E0:  MOVLW  03
0C5E2:  ADDWFC 03,W
0C5E4:  MOVWF  FEA
0C5E6:  MOVFF  FEF,6D1
0C5EA:  CLRF   03
0C5EC:  MOVF   x76,W
0C5EE:  ADDLW  28
0C5F0:  MOVWF  FE9
0C5F2:  MOVLW  03
0C5F4:  ADDWFC 03,W
0C5F6:  MOVWF  FEA
0C5F8:  MOVFF  FEF,6D2
0C5FC:  MOVLW  B0
0C5FE:  MOVWF  FF6
0C600:  MOVLW  14
0C602:  MOVWF  FF7
0C604:  MOVLW  00
0C606:  MOVWF  FF8
0C608:  MOVLW  04
0C60A:  MOVLB  6
0C60C:  MOVWF  xD4
0C60E:  MOVLB  0
0C610:  CALL   5E96
0C614:  MOVFF  6CF,6D4
0C618:  MOVLW  1B
0C61A:  MOVLB  6
0C61C:  MOVWF  xD5
0C61E:  MOVLB  0
0C620:  CALL   5F1A
0C624:  MOVLW  B6
0C626:  MOVWF  FF6
0C628:  MOVLW  14
0C62A:  MOVWF  FF7
0C62C:  MOVLW  00
0C62E:  MOVWF  FF8
0C630:  MOVLW  06
0C632:  MOVLB  6
0C634:  MOVWF  xD4
0C636:  MOVLB  0
0C638:  CALL   5E96
0C63C:  MOVFF  6D0,6D4
0C640:  MOVLW  01
0C642:  MOVLB  6
0C644:  MOVWF  xD5
0C646:  MOVLB  0
0C648:  CALL   5F1A
0C64C:  MOVLW  2E
0C64E:  BTFSS  F9E.4
0C650:  BRA    C64E
0C652:  MOVWF  FAD
0C654:  MOVLW  20
0C656:  BTFSS  F9E.4
0C658:  BRA    C656
0C65A:  MOVWF  FAD
0C65C:  MOVLW  20
0C65E:  BTFSS  F9E.4
0C660:  BRA    C65E
0C662:  MOVWF  FAD
0C664:  MOVFF  6D1,6D4
0C668:  MOVLW  01
0C66A:  MOVLB  6
0C66C:  MOVWF  xD5
0C66E:  MOVLB  0
0C670:  CALL   5F1A
0C674:  MOVLW  3A
0C676:  BTFSS  F9E.4
0C678:  BRA    C676
0C67A:  MOVWF  FAD
0C67C:  MOVFF  6D2,6D4
0C680:  MOVLW  01
0C682:  MOVLB  6
0C684:  MOVWF  xD5
0C686:  MOVLB  0
0C688:  CALL   5F1A
0C68C:  MOVLW  22
0C68E:  BTFSS  F9E.4
0C690:  BRA    C68E
0C692:  MOVWF  FAD
....................          SendDataDisplay(); 
0C694:  CALL   442E
....................          printf("T%u.txt=\"%3.1fC\"",i+1,TCiclos[i]); 
0C698:  MOVLW  01
0C69A:  MOVLB  2
0C69C:  ADDWF  x76,W
0C69E:  MOVLB  6
0C6A0:  MOVWF  xCF
0C6A2:  MOVLB  2
0C6A4:  MOVF   x76,W
0C6A6:  MULLW  04
0C6A8:  MOVF   FF3,W
0C6AA:  CLRF   03
0C6AC:  ADDLW  E9
0C6AE:  MOVWF  FE9
0C6B0:  MOVLW  02
0C6B2:  ADDWFC 03,W
0C6B4:  MOVWF  FEA
0C6B6:  MOVFF  FEF,6D0
0C6BA:  MOVFF  FEC,6D1
0C6BE:  MOVFF  FEC,6D2
0C6C2:  MOVFF  FEC,6D3
0C6C6:  MOVLW  54
0C6C8:  BTFSS  F9E.4
0C6CA:  BRA    C6C8
0C6CC:  MOVWF  FAD
0C6CE:  MOVFF  6CF,6D4
0C6D2:  MOVLW  1B
0C6D4:  MOVLB  6
0C6D6:  MOVWF  xD5
0C6D8:  MOVLB  0
0C6DA:  CALL   5F1A
0C6DE:  MOVLW  D1
0C6E0:  MOVWF  FF6
0C6E2:  MOVLW  14
0C6E4:  MOVWF  FF7
0C6E6:  MOVLW  00
0C6E8:  MOVWF  FF8
0C6EA:  MOVLW  06
0C6EC:  MOVLB  6
0C6EE:  MOVWF  xD4
0C6F0:  MOVLB  0
0C6F2:  CALL   5E96
0C6F6:  MOVLW  02
0C6F8:  MOVWF  FE9
0C6FA:  MOVFF  6D3,6D7
0C6FE:  MOVFF  6D2,6D6
0C702:  MOVFF  6D1,6D5
0C706:  MOVFF  6D0,6D4
0C70A:  MOVLW  01
0C70C:  MOVLB  6
0C70E:  MOVWF  xD8
0C710:  MOVLB  0
0C712:  CALL   617E
0C716:  MOVLW  B0
0C718:  BTFSS  F9E.4
0C71A:  BRA    C718
0C71C:  MOVWF  FAD
0C71E:  MOVLW  43
0C720:  BTFSS  F9E.4
0C722:  BRA    C720
0C724:  MOVWF  FAD
0C726:  MOVLW  22
0C728:  BTFSS  F9E.4
0C72A:  BRA    C728
0C72C:  MOVWF  FAD
....................          SendDataDisplay(); 
0C72E:  CALL   442E
....................          printf("Pc%u.txt=\"%03LukPa\"",i+1,PcCiclos[i]); 
0C732:  MOVLW  01
0C734:  MOVLB  2
0C736:  ADDWF  x76,W
0C738:  MOVLB  6
0C73A:  MOVWF  xCF
0C73C:  BCF    FD8.0
0C73E:  MOVLB  2
0C740:  RLCF   x76,W
0C742:  CLRF   03
0C744:  ADDLW  05
0C746:  MOVWF  FE9
0C748:  MOVLW  03
0C74A:  ADDWFC 03,W
0C74C:  MOVWF  FEA
0C74E:  MOVFF  FEC,6D1
0C752:  MOVF   FED,F
0C754:  MOVFF  FEF,6D0
0C758:  MOVLW  50
0C75A:  BTFSS  F9E.4
0C75C:  BRA    C75A
0C75E:  MOVWF  FAD
0C760:  MOVLW  63
0C762:  BTFSS  F9E.4
0C764:  BRA    C762
0C766:  MOVWF  FAD
0C768:  MOVFF  6CF,6D4
0C76C:  MOVLW  1B
0C76E:  MOVLB  6
0C770:  MOVWF  xD5
0C772:  MOVLB  0
0C774:  CALL   5F1A
0C778:  MOVLW  E4
0C77A:  MOVWF  FF6
0C77C:  MOVLW  14
0C77E:  MOVWF  FF7
0C780:  MOVLW  00
0C782:  MOVWF  FF8
0C784:  MOVLW  06
0C786:  MOVLB  6
0C788:  MOVWF  xD4
0C78A:  MOVLB  0
0C78C:  CALL   5E96
0C790:  MOVLW  0A
0C792:  MOVWF  FE9
0C794:  MOVFF  6D1,6D4
0C798:  MOVFF  6D0,6D3
0C79C:  CALL   6010
0C7A0:  MOVLW  EF
0C7A2:  MOVWF  FF6
0C7A4:  MOVLW  14
0C7A6:  MOVWF  FF7
0C7A8:  MOVLW  00
0C7AA:  MOVWF  FF8
0C7AC:  MOVLW  04
0C7AE:  MOVLB  6
0C7B0:  MOVWF  xD4
0C7B2:  MOVLB  0
0C7B4:  CALL   5E96
....................          SendDataDisplay(); 
0C7B8:  CALL   442E
....................          printf("Ppc%u.txt=\"%03LukPa\"",i+1,PpcCiclos[i]); 
0C7BC:  MOVLW  01
0C7BE:  MOVLB  2
0C7C0:  ADDWF  x76,W
0C7C2:  MOVLB  6
0C7C4:  MOVWF  xCF
0C7C6:  BCF    FD8.0
0C7C8:  MOVLB  2
0C7CA:  RLCF   x76,W
0C7CC:  CLRF   03
0C7CE:  ADDLW  13
0C7D0:  MOVWF  FE9
0C7D2:  MOVLW  03
0C7D4:  ADDWFC 03,W
0C7D6:  MOVWF  FEA
0C7D8:  MOVFF  FEC,6D1
0C7DC:  MOVF   FED,F
0C7DE:  MOVFF  FEF,6D0
0C7E2:  MOVLW  50
0C7E4:  BTFSS  F9E.4
0C7E6:  BRA    C7E4
0C7E8:  MOVWF  FAD
0C7EA:  MOVLW  70
0C7EC:  BTFSS  F9E.4
0C7EE:  BRA    C7EC
0C7F0:  MOVWF  FAD
0C7F2:  MOVLW  63
0C7F4:  BTFSS  F9E.4
0C7F6:  BRA    C7F4
0C7F8:  MOVWF  FAD
0C7FA:  MOVFF  6CF,6D4
0C7FE:  MOVLW  1B
0C800:  MOVLB  6
0C802:  MOVWF  xD5
0C804:  MOVLB  0
0C806:  CALL   5F1A
0C80A:  MOVLW  F9
0C80C:  MOVWF  FF6
0C80E:  MOVLW  14
0C810:  MOVWF  FF7
0C812:  MOVLW  00
0C814:  MOVWF  FF8
0C816:  MOVLW  06
0C818:  MOVLB  6
0C81A:  MOVWF  xD4
0C81C:  MOVLB  0
0C81E:  CALL   5E96
0C822:  MOVLW  0A
0C824:  MOVWF  FE9
0C826:  MOVFF  6D1,6D4
0C82A:  MOVFF  6D0,6D3
0C82E:  CALL   6010
0C832:  MOVLW  04
0C834:  MOVWF  FF6
0C836:  MOVLW  15
0C838:  MOVWF  FF7
0C83A:  MOVLW  00
0C83C:  MOVWF  FF8
0C83E:  MOVLW  04
0C840:  MOVLB  6
0C842:  MOVWF  xD4
0C844:  MOVLB  0
0C846:  CALL   5E96
....................          SendDataDisplay();          
0C84A:  CALL   442E
....................          codificaAlarma(); 
0C84E:  GOTO   68DE
....................       }   
0C852:  MOVLB  2
0C854:  INCF   x76,F
0C856:  BRA    C5BA
....................    }else if(Menu==13){//Menu de Nivel de Desfogue 
0C858:  GOTO   F9E8
0C85C:  MOVF   x73,W
0C85E:  SUBLW  0D
0C860:  BTFSS  FD8.2
0C862:  BRA    CA3E
....................       printf("fecha.txt=\"Fecha:%02u/%02u/20%02u Hora: %02u:%02u:%02u\"",Dia,Mes,Year,Hora,Minuto,Segundo); 
0C864:  MOVLW  0A
0C866:  MOVWF  FF6
0C868:  MOVLW  15
0C86A:  MOVWF  FF7
0C86C:  MOVLW  00
0C86E:  MOVWF  FF8
0C870:  MOVLW  11
0C872:  MOVLB  6
0C874:  MOVWF  xD4
0C876:  MOVLB  0
0C878:  CALL   5E96
0C87C:  MOVFF  2BA,6D4
0C880:  MOVLW  01
0C882:  MOVLB  6
0C884:  MOVWF  xD5
0C886:  MOVLB  0
0C888:  CALL   5F1A
0C88C:  MOVLW  2F
0C88E:  BTFSS  F9E.4
0C890:  BRA    C88E
0C892:  MOVWF  FAD
0C894:  MOVFF  2B9,6D4
0C898:  MOVLW  01
0C89A:  MOVLB  6
0C89C:  MOVWF  xD5
0C89E:  MOVLB  0
0C8A0:  CALL   5F1A
0C8A4:  MOVLW  2F
0C8A6:  BTFSS  F9E.4
0C8A8:  BRA    C8A6
0C8AA:  MOVWF  FAD
0C8AC:  MOVLW  32
0C8AE:  BTFSS  F9E.4
0C8B0:  BRA    C8AE
0C8B2:  MOVWF  FAD
0C8B4:  MOVLW  30
0C8B6:  BTFSS  F9E.4
0C8B8:  BRA    C8B6
0C8BA:  MOVWF  FAD
0C8BC:  MOVFF  2B8,6D4
0C8C0:  MOVLW  01
0C8C2:  MOVLB  6
0C8C4:  MOVWF  xD5
0C8C6:  MOVLB  0
0C8C8:  CALL   5F1A
0C8CC:  MOVLW  2B
0C8CE:  MOVWF  FF6
0C8D0:  MOVLW  15
0C8D2:  MOVWF  FF7
0C8D4:  MOVLW  00
0C8D6:  MOVWF  FF8
0C8D8:  MOVLW  07
0C8DA:  MOVLB  6
0C8DC:  MOVWF  xD4
0C8DE:  MOVLB  0
0C8E0:  CALL   5E96
0C8E4:  MOVFF  2BB,6D4
0C8E8:  MOVLW  01
0C8EA:  MOVLB  6
0C8EC:  MOVWF  xD5
0C8EE:  MOVLB  0
0C8F0:  CALL   5F1A
0C8F4:  MOVLW  3A
0C8F6:  BTFSS  F9E.4
0C8F8:  BRA    C8F6
0C8FA:  MOVWF  FAD
0C8FC:  MOVFF  2BC,6D4
0C900:  MOVLW  01
0C902:  MOVLB  6
0C904:  MOVWF  xD5
0C906:  MOVLB  0
0C908:  CALL   5F1A
0C90C:  MOVLW  3A
0C90E:  BTFSS  F9E.4
0C910:  BRA    C90E
0C912:  MOVWF  FAD
0C914:  MOVFF  2BD,6D4
0C918:  MOVLW  01
0C91A:  MOVLB  6
0C91C:  MOVWF  xD5
0C91E:  MOVLB  0
0C920:  CALL   5F1A
0C924:  MOVLW  22
0C926:  BTFSS  F9E.4
0C928:  BRA    C926
0C92A:  MOVWF  FAD
....................       SendDataDisplay(); 
0C92C:  CALL   442E
....................          if(NivelDes<1) 
0C930:  MOVLB  2
0C932:  MOVF   xAB,F
0C934:  BNZ   C93A
....................             NivelDes=6; 
0C936:  MOVLW  06
0C938:  MOVWF  xAB
....................          if(NivelDes>6) 
0C93A:  MOVF   xAB,W
0C93C:  SUBLW  06
0C93E:  BC    C944
....................             NivelDes=1; 
0C940:  MOVLW  01
0C942:  MOVWF  xAB
....................           
....................          if(RX_Buffer[4]==0x11){//Selecciono Regresar 
0C944:  MOVF   35,W
0C946:  SUBLW  11
0C948:  BNZ   C9EC
....................             Segundos=OFF; 
0C94A:  MOVLB  1
0C94C:  BCF    x06.0
....................             Minutos=OFF;             
0C94E:  BCF    x05.7
....................             tiempo_secado=0; 
0C950:  MOVLB  2
0C952:  CLRF   x87
....................             printf("page CicloPersona"); 
0C954:  MOVLW  42
0C956:  MOVWF  FF6
0C958:  MOVLW  15
0C95A:  MOVWF  FF7
0C95C:  MOVLW  00
0C95E:  MOVWF  FF8
0C960:  MOVLB  0
0C962:  CALL   43FC
....................             SendDataDisplay();   
0C966:  CALL   442E
....................             if(!GuardaEEPROM){     
0C96A:  MOVLB  1
0C96C:  BTFSC  x06.1
0C96E:  BRA    C9EA
....................                CiclosPersonalizados[CicloLibre-1].NivelDesfogue=NivelDes; 
0C970:  MOVLW  01
0C972:  MOVLB  2
0C974:  SUBWF  x51,W
0C976:  MULLW  08
0C978:  MOVF   FF3,W
0C97A:  MOVLB  6
0C97C:  CLRF   xD0
0C97E:  MOVWF  xCF
0C980:  MOVLW  07
0C982:  ADDWF  xCF,W
0C984:  MOVWF  01
0C986:  MOVLW  00
0C988:  ADDWFC xD0,W
0C98A:  MOVWF  03
0C98C:  MOVF   01,W
0C98E:  ADDLW  07
0C990:  MOVWF  FE9
0C992:  MOVLW  06
0C994:  ADDWFC 03,W
0C996:  MOVWF  FEA
0C998:  MOVFF  2AB,FEF
....................                write_eeprom(107+((CicloLibre-1)*8),NivelDes); 
0C99C:  MOVLW  01
0C99E:  MOVLB  2
0C9A0:  SUBWF  x51,W
0C9A2:  MULLW  08
0C9A4:  MOVF   FF3,W
0C9A6:  ADDLW  6B
0C9A8:  MOVLB  6
0C9AA:  MOVWF  xCF
0C9AC:  CLRF   FAA
0C9AE:  MOVFF  6CF,FA9
0C9B2:  MOVFF  2AB,FA8
0C9B6:  BCF    FA6.6
0C9B8:  BCF    FA6.7
0C9BA:  BSF    FA6.2
0C9BC:  MOVF   FF2,W
0C9BE:  MOVWF  00
0C9C0:  BCF    FF2.6
0C9C2:  BCF    FF2.7
0C9C4:  MOVLB  F
0C9C6:  MOVLW  55
0C9C8:  MOVWF  FA7
0C9CA:  MOVLW  AA
0C9CC:  MOVWF  FA7
0C9CE:  BSF    FA6.1
0C9D0:  BTFSC  FA6.1
0C9D2:  BRA    C9D0
0C9D4:  BCF    FA6.2
0C9D6:  MOVF   00,W
0C9D8:  IORWF  FF2,F
....................                delay_ms(20);             
0C9DA:  MOVLW  14
0C9DC:  MOVLB  6
0C9DE:  MOVWF  xE1
0C9E0:  MOVLB  0
0C9E2:  CALL   21DE
....................                GuardaEEPROM=ON; 
0C9E6:  MOVLB  1
0C9E8:  BSF    x06.1
0C9EA:  MOVLB  2
....................             } 
....................          } 
....................           
....................          if(RX_Buffer[4]==0x0d){//Tecla Arriba Oprimida 
0C9EC:  MOVF   35,W
0C9EE:  SUBLW  0D
0C9F0:  BNZ   C9F8
....................             NivelDes++; 
0C9F2:  INCF   xAB,F
....................             RX_Buffer[4]=0x00;             
0C9F4:  CLRF   35
....................             RX_Buffer2[4]=0x00;                        
0C9F6:  CLRF   40
....................          } 
....................           
....................          if(RX_Buffer[4]==0x0c){//Tecla Abajo Oprimida 
0C9F8:  MOVF   35,W
0C9FA:  SUBLW  0C
0C9FC:  BNZ   CA04
....................             NivelDes--; 
0C9FE:  DECF   xAB,F
....................             RX_Buffer[4]=0x00; 
0CA00:  CLRF   35
....................             RX_Buffer2[4]=0x00;                         
0CA02:  CLRF   40
....................          } 
....................           
....................       printf("tnivel.txt=\"%u\"",NivelDes); 
0CA04:  MOVLW  54
0CA06:  MOVWF  FF6
0CA08:  MOVLW  15
0CA0A:  MOVWF  FF7
0CA0C:  MOVLW  00
0CA0E:  MOVWF  FF8
0CA10:  MOVLW  0C
0CA12:  MOVLB  6
0CA14:  MOVWF  xD4
0CA16:  MOVLB  0
0CA18:  CALL   5E96
0CA1C:  MOVFF  2AB,6D4
0CA20:  MOVLW  1B
0CA22:  MOVLB  6
0CA24:  MOVWF  xD5
0CA26:  MOVLB  0
0CA28:  CALL   5F1A
0CA2C:  MOVLW  22
0CA2E:  BTFSS  F9E.4
0CA30:  BRA    CA2E
0CA32:  MOVWF  FAD
....................       SendDataDisplay(); 
0CA34:  CALL   442E
....................    }else if(Menu==14){//Menu de Activacion de Ciclos 
0CA38:  GOTO   F9E8
0CA3C:  MOVLB  2
0CA3E:  MOVF   x73,W
0CA40:  SUBLW  0E
0CA42:  BTFSS  FD8.2
0CA44:  BRA    CC72
....................       printf("fecha.txt=\"Fecha:%02u/%02u/20%02u Hora: %02u:%02u:%02u\"",Dia,Mes,Year,Hora,Minuto,Segundo); 
0CA46:  MOVLW  64
0CA48:  MOVWF  FF6
0CA4A:  MOVLW  15
0CA4C:  MOVWF  FF7
0CA4E:  MOVLW  00
0CA50:  MOVWF  FF8
0CA52:  MOVLW  11
0CA54:  MOVLB  6
0CA56:  MOVWF  xD4
0CA58:  MOVLB  0
0CA5A:  CALL   5E96
0CA5E:  MOVFF  2BA,6D4
0CA62:  MOVLW  01
0CA64:  MOVLB  6
0CA66:  MOVWF  xD5
0CA68:  MOVLB  0
0CA6A:  CALL   5F1A
0CA6E:  MOVLW  2F
0CA70:  BTFSS  F9E.4
0CA72:  BRA    CA70
0CA74:  MOVWF  FAD
0CA76:  MOVFF  2B9,6D4
0CA7A:  MOVLW  01
0CA7C:  MOVLB  6
0CA7E:  MOVWF  xD5
0CA80:  MOVLB  0
0CA82:  CALL   5F1A
0CA86:  MOVLW  2F
0CA88:  BTFSS  F9E.4
0CA8A:  BRA    CA88
0CA8C:  MOVWF  FAD
0CA8E:  MOVLW  32
0CA90:  BTFSS  F9E.4
0CA92:  BRA    CA90
0CA94:  MOVWF  FAD
0CA96:  MOVLW  30
0CA98:  BTFSS  F9E.4
0CA9A:  BRA    CA98
0CA9C:  MOVWF  FAD
0CA9E:  MOVFF  2B8,6D4
0CAA2:  MOVLW  01
0CAA4:  MOVLB  6
0CAA6:  MOVWF  xD5
0CAA8:  MOVLB  0
0CAAA:  CALL   5F1A
0CAAE:  MOVLW  85
0CAB0:  MOVWF  FF6
0CAB2:  MOVLW  15
0CAB4:  MOVWF  FF7
0CAB6:  MOVLW  00
0CAB8:  MOVWF  FF8
0CABA:  MOVLW  07
0CABC:  MOVLB  6
0CABE:  MOVWF  xD4
0CAC0:  MOVLB  0
0CAC2:  CALL   5E96
0CAC6:  MOVFF  2BB,6D4
0CACA:  MOVLW  01
0CACC:  MOVLB  6
0CACE:  MOVWF  xD5
0CAD0:  MOVLB  0
0CAD2:  CALL   5F1A
0CAD6:  MOVLW  3A
0CAD8:  BTFSS  F9E.4
0CADA:  BRA    CAD8
0CADC:  MOVWF  FAD
0CADE:  MOVFF  2BC,6D4
0CAE2:  MOVLW  01
0CAE4:  MOVLB  6
0CAE6:  MOVWF  xD5
0CAE8:  MOVLB  0
0CAEA:  CALL   5F1A
0CAEE:  MOVLW  3A
0CAF0:  BTFSS  F9E.4
0CAF2:  BRA    CAF0
0CAF4:  MOVWF  FAD
0CAF6:  MOVFF  2BD,6D4
0CAFA:  MOVLW  01
0CAFC:  MOVLB  6
0CAFE:  MOVWF  xD5
0CB00:  MOVLB  0
0CB02:  CALL   5F1A
0CB06:  MOVLW  22
0CB08:  BTFSS  F9E.4
0CB0A:  BRA    CB08
0CB0C:  MOVWF  FAD
....................       SendDataDisplay(); 
0CB0E:  CALL   442E
....................        
....................       if(RX_Buffer[4]==0xaa){ 
0CB12:  MOVF   35,W
0CB14:  SUBLW  AA
0CB16:  BNZ   CBA0
....................          for(i=0;i<30;i++){ 
0CB18:  MOVLB  2
0CB1A:  CLRF   x76
0CB1C:  MOVF   x76,W
0CB1E:  SUBLW  1D
0CB20:  BNC   CB86
....................             write_eeprom(50+i,estados[i]); 
0CB22:  MOVLW  32
0CB24:  ADDWF  x76,W
0CB26:  MOVLB  6
0CB28:  MOVWF  xCF
0CB2A:  MOVFF  276,6D0
0CB2E:  MOVLW  03
0CB30:  MOVWF  xD2
0CB32:  MOVLW  3B
0CB34:  MOVWF  xD1
0CB36:  MOVLB  0
0CB38:  CALL   261E
0CB3C:  MOVLW  00
0CB3E:  BTFSC  01.0
0CB40:  MOVLW  01
0CB42:  MOVLB  6
0CB44:  MOVWF  xD0
0CB46:  CLRF   FAA
0CB48:  MOVFF  6CF,FA9
0CB4C:  MOVFF  6D0,FA8
0CB50:  BCF    FA6.6
0CB52:  BCF    FA6.7
0CB54:  BSF    FA6.2
0CB56:  MOVF   FF2,W
0CB58:  MOVWF  00
0CB5A:  BCF    FF2.6
0CB5C:  BCF    FF2.7
0CB5E:  MOVLB  F
0CB60:  MOVLW  55
0CB62:  MOVWF  FA7
0CB64:  MOVLW  AA
0CB66:  MOVWF  FA7
0CB68:  BSF    FA6.1
0CB6A:  BTFSC  FA6.1
0CB6C:  BRA    CB6A
0CB6E:  BCF    FA6.2
0CB70:  MOVF   00,W
0CB72:  IORWF  FF2,F
....................             delay_ms(10); 
0CB74:  MOVLW  0A
0CB76:  MOVLB  6
0CB78:  MOVWF  xE1
0CB7A:  MOVLB  0
0CB7C:  CALL   21DE
....................          } 
0CB80:  MOVLB  2
0CB82:  INCF   x76,F
0CB84:  BRA    CB1C
....................          printf("page Ajustes"); 
0CB86:  MOVLW  9C
0CB88:  MOVWF  FF6
0CB8A:  MOVLW  15
0CB8C:  MOVWF  FF7
0CB8E:  MOVLW  00
0CB90:  MOVWF  FF8
0CB92:  MOVLB  0
0CB94:  CALL   43FC
....................          SendDataDisplay();  
0CB98:  CALL   442E
....................          RX_Buffer[4]=0x00; 
0CB9C:  CLRF   35
....................          RX_Buffer2[4]=0x00; 
0CB9E:  CLRF   40
....................       } 
....................        
....................       for(i=0;i<30;i++){ 
0CBA0:  MOVLB  2
0CBA2:  CLRF   x76
0CBA4:  MOVF   x76,W
0CBA6:  SUBLW  1D
0CBA8:  BNC   CC6E
....................          if(RX_Buffer[4]==i+1){ 
0CBAA:  MOVLW  01
0CBAC:  ADDWF  x76,W
0CBAE:  SUBWF  35,W
0CBB0:  BNZ   CBE6
....................             estados[i]=!estados[i]; 
0CBB2:  MOVFF  276,6D0
0CBB6:  MOVLW  03
0CBB8:  MOVLB  6
0CBBA:  MOVWF  xD2
0CBBC:  MOVLW  3B
0CBBE:  MOVWF  xD1
0CBC0:  MOVLB  0
0CBC2:  CALL   261E
0CBC6:  MOVLW  00
0CBC8:  BTFSS  01.0
0CBCA:  MOVLW  01
0CBCC:  MOVFF  276,6D1
0CBD0:  MOVLB  6
0CBD2:  MOVWF  xD2
0CBD4:  MOVLW  03
0CBD6:  MOVWF  xD4
0CBD8:  MOVLW  3B
0CBDA:  MOVWF  xD3
0CBDC:  MOVLB  0
0CBDE:  CALL   25DC
....................             RX_Buffer[4]=0x00; 
0CBE2:  CLRF   35
....................             RX_Buffer2[4]=0x00; 
0CBE4:  CLRF   40
....................          } 
....................           
....................          if(estados[i]){ 
0CBE6:  MOVFF  276,6D0
0CBEA:  MOVLW  03
0CBEC:  MOVLB  6
0CBEE:  MOVWF  xD2
0CBF0:  MOVLW  3B
0CBF2:  MOVWF  xD1
0CBF4:  MOVLB  0
0CBF6:  CALL   261E
0CBFA:  BTFSS  01.0
0CBFC:  BRA    CC34
....................             printf("b%u.bco=2016",i); 
0CBFE:  MOVLW  62
0CC00:  BTFSS  F9E.4
0CC02:  BRA    CC00
0CC04:  MOVWF  FAD
0CC06:  MOVFF  276,6D4
0CC0A:  MOVLW  1B
0CC0C:  MOVLB  6
0CC0E:  MOVWF  xD5
0CC10:  MOVLB  0
0CC12:  CALL   5F1A
0CC16:  MOVLW  AD
0CC18:  MOVWF  FF6
0CC1A:  MOVLW  15
0CC1C:  MOVWF  FF7
0CC1E:  MOVLW  00
0CC20:  MOVWF  FF8
0CC22:  MOVLW  09
0CC24:  MOVLB  6
0CC26:  MOVWF  xD4
0CC28:  MOVLB  0
0CC2A:  CALL   5E96
....................             SendDataDisplay();              
0CC2E:  CALL   442E
....................          }else{ 
0CC32:  BRA    CC68
....................             printf("b%u.bco=63488",i); 
0CC34:  MOVLW  62
0CC36:  BTFSS  F9E.4
0CC38:  BRA    CC36
0CC3A:  MOVWF  FAD
0CC3C:  MOVFF  276,6D4
0CC40:  MOVLW  1B
0CC42:  MOVLB  6
0CC44:  MOVWF  xD5
0CC46:  MOVLB  0
0CC48:  CALL   5F1A
0CC4C:  MOVLW  BB
0CC4E:  MOVWF  FF6
0CC50:  MOVLW  15
0CC52:  MOVWF  FF7
0CC54:  MOVLW  00
0CC56:  MOVWF  FF8
0CC58:  MOVLW  0A
0CC5A:  MOVLB  6
0CC5C:  MOVWF  xD4
0CC5E:  MOVLB  0
0CC60:  CALL   5E96
....................             SendDataDisplay();  
0CC64:  CALL   442E
....................          } 
....................       } 
0CC68:  MOVLB  2
0CC6A:  INCF   x76,F
0CC6C:  BRA    CBA4
....................    }else if(Menu==15){//Menu de Clave Correcta 
0CC6E:  GOTO   F9E8
0CC72:  MOVF   x73,W
0CC74:  SUBLW  0F
0CC76:  BNZ   CCB4
....................       if(!entro){ 
0CC78:  MOVLB  1
0CC7A:  BTFSC  x09.5
0CC7C:  BRA    CC98
....................          delay_ms(2000); 
0CC7E:  MOVLW  08
0CC80:  MOVLB  6
0CC82:  MOVWF  xCF
0CC84:  MOVLW  FA
0CC86:  MOVWF  xE1
0CC88:  MOVLB  0
0CC8A:  CALL   21DE
0CC8E:  MOVLB  6
0CC90:  DECFSZ xCF,F
0CC92:  BRA    CC84
....................          entro=ON; 
0CC94:  MOVLB  1
0CC96:  BSF    x09.5
....................       } 
....................       printf("page Menu"); 
0CC98:  MOVLW  C6
0CC9A:  MOVWF  FF6
0CC9C:  MOVLW  15
0CC9E:  MOVWF  FF7
0CCA0:  MOVLW  00
0CCA2:  MOVWF  FF8
0CCA4:  MOVLB  0
0CCA6:  CALL   43FC
....................       //printf("page Funcionamiento"); 
....................       SendDataDisplay(); 
0CCAA:  CALL   442E
....................    }else if(Menu==16){//Menu de Clave InCorrecta 
0CCAE:  GOTO   F9E8
0CCB2:  MOVLB  2
0CCB4:  MOVF   x73,W
0CCB6:  SUBLW  10
0CCB8:  BNZ   CCF6
....................       if(!entro){ 
0CCBA:  MOVLB  1
0CCBC:  BTFSC  x09.5
0CCBE:  BRA    CCDA
....................          delay_ms(2000); 
0CCC0:  MOVLW  08
0CCC2:  MOVLB  6
0CCC4:  MOVWF  xCF
0CCC6:  MOVLW  FA
0CCC8:  MOVWF  xE1
0CCCA:  MOVLB  0
0CCCC:  CALL   21DE
0CCD0:  MOVLB  6
0CCD2:  DECFSZ xCF,F
0CCD4:  BRA    CCC6
....................          entro=ON; 
0CCD6:  MOVLB  1
0CCD8:  BSF    x09.5
....................       } 
....................       printf("page Clave"); 
0CCDA:  MOVLW  D0
0CCDC:  MOVWF  FF6
0CCDE:  MOVLW  15
0CCE0:  MOVWF  FF7
0CCE2:  MOVLW  00
0CCE4:  MOVWF  FF8
0CCE6:  MOVLB  0
0CCE8:  CALL   43FC
....................       SendDataDisplay(); 
0CCEC:  CALL   442E
....................    }else if(Menu==20){ // Este es el menu de cuando el proceso se inicio.FUNCIONAMIENTO 
0CCF0:  GOTO   F9E8
0CCF4:  MOVLB  2
0CCF6:  MOVF   x73,W
0CCF8:  SUBLW  14
0CCFA:  BTFSS  FD8.2
0CCFC:  GOTO   E91E
....................     
....................    GuardaDatoEstatico(); 
0CD00:  MOVLB  0
0CD02:  GOTO   6F0C
....................    guardaCiclo=ON; 
0CD06:  BSF    xFA.7
....................    if(!Libre){ 
0CD08:  MOVLB  1
0CD0A:  BTFSC  x07.4
0CD0C:  BRA    CD94
....................       printf("t2f.txt=\"%u\"",CicloSeleccionado); 
0CD0E:  MOVLW  DC
0CD10:  MOVWF  FF6
0CD12:  MOVLW  15
0CD14:  MOVWF  FF7
0CD16:  MOVLW  00
0CD18:  MOVWF  FF8
0CD1A:  MOVLW  09
0CD1C:  MOVLB  6
0CD1E:  MOVWF  xD4
0CD20:  MOVLB  0
0CD22:  CALL   5E96
0CD26:  MOVFF  279,6D4
0CD2A:  MOVLW  1B
0CD2C:  MOVLB  6
0CD2E:  MOVWF  xD5
0CD30:  MOVLB  0
0CD32:  CALL   5F1A
0CD36:  MOVLW  22
0CD38:  BTFSS  F9E.4
0CD3A:  BRA    CD38
0CD3C:  MOVWF  FAD
....................       SendDataDisplay(); 
0CD3E:  CALL   442E
....................       printf("t3f.txt=\"%s\"",Texto[CicloSeleccionado-1]); 
0CD42:  MOVLW  01
0CD44:  MOVLB  2
0CD46:  SUBWF  x79,W
0CD48:  MULLW  14
0CD4A:  MOVF   FF3,W
0CD4C:  CLRF   03
0CD4E:  MOVLB  6
0CD50:  MOVWF  xCF
0CD52:  MOVLW  EA
0CD54:  MOVWF  FF6
0CD56:  MOVLW  15
0CD58:  MOVWF  FF7
0CD5A:  MOVLW  00
0CD5C:  MOVWF  FF8
0CD5E:  MOVLW  09
0CD60:  MOVWF  xD4
0CD62:  MOVLB  0
0CD64:  CALL   5E96
0CD68:  MOVLW  1A
0CD6A:  MOVWF  FF6
0CD6C:  MOVLW  03
0CD6E:  MOVWF  FF7
0CD70:  MOVLW  00
0CD72:  MOVWF  FF8
0CD74:  MOVLB  6
0CD76:  MOVF   xCF,W
0CD78:  ADDWF  FF6,F
0CD7A:  MOVLW  00
0CD7C:  ADDWFC FF7,F
0CD7E:  MOVLB  0
0CD80:  CALL   43FC
0CD84:  MOVLW  22
0CD86:  BTFSS  F9E.4
0CD88:  BRA    CD86
0CD8A:  MOVWF  FAD
....................       SendDataDisplay(); 
0CD8C:  CALL   442E
....................    }else{ 
0CD90:  BRA    CDE4
0CD92:  MOVLB  1
....................       printf("t2f.txt=\"%u\"",CicloLibre+10); 
0CD94:  MOVLW  0A
0CD96:  MOVLB  2
0CD98:  ADDWF  x51,W
0CD9A:  MOVLB  6
0CD9C:  MOVWF  xCF
0CD9E:  MOVLW  F8
0CDA0:  MOVWF  FF6
0CDA2:  MOVLW  15
0CDA4:  MOVWF  FF7
0CDA6:  MOVLW  00
0CDA8:  MOVWF  FF8
0CDAA:  MOVLW  09
0CDAC:  MOVWF  xD4
0CDAE:  MOVLB  0
0CDB0:  CALL   5E96
0CDB4:  MOVFF  6CF,6D4
0CDB8:  MOVLW  1B
0CDBA:  MOVLB  6
0CDBC:  MOVWF  xD5
0CDBE:  MOVLB  0
0CDC0:  CALL   5F1A
0CDC4:  MOVLW  22
0CDC6:  BTFSS  F9E.4
0CDC8:  BRA    CDC6
0CDCA:  MOVWF  FAD
....................       SendDataDisplay(); 
0CDCC:  CALL   442E
....................       printf("t3f.txt=\"Personalizado\""); 
0CDD0:  MOVLW  06
0CDD2:  MOVWF  FF6
0CDD4:  MOVLW  16
0CDD6:  MOVWF  FF7
0CDD8:  MOVLW  00
0CDDA:  MOVWF  FF8
0CDDC:  CALL   43FC
....................       SendDataDisplay(); 
0CDE0:  CALL   442E
....................    } 
....................     
....................    leePulsadores(); 
0CDE4:  GOTO   71B8
....................    /* 
....................    if(PresionCamara>Atmosferica+15){ 
....................       cierraPuertaS(); 
....................       cierraPuertaL(); 
....................    } 
....................    */ 
....................    if(!Start){ 
0CDE8:  MOVLB  1
0CDEA:  BTFSC  x04.5
0CDEC:  BRA    CDEE
....................     
....................       /* 
....................       if(pulsoSubirS) 
....................          cierraPuertaS(); 
....................        
....................       if(pulsoBajarS) 
....................          abrePuertaS(); 
....................           
....................       if(RX_Buffer[4]==0x0a){//Oprimio Subir Puerta 
....................          //cierraPuertaS(); 
....................          pulsoSubirS=ON; 
....................          pulsoBajarS=OFF; 
....................          RX_Buffer[4]=0x00; 
....................          //RX_Buffer2[4]=0x00;                        
....................       } 
....................        
....................       if(RX_Buffer[4]==0x0b){//Solto Subir Puerta 
....................          RX_Buffer[4]=0x00;             
....................          //RX_Buffer2[4]=0x00;            
....................          pulsoSubirS=OFF; 
....................          pulsoBajarS=OFF; 
....................          if(!DOORS && !EMPAQUES) 
....................             abrePuertaS(); 
....................          else 
....................             cierraPuertaS(); 
....................       } 
....................        
....................       if(RX_Buffer[4]==0x0c){//Oprimio Bajar Puerta 
....................          pulsoSubirS=OFF; 
....................          RX_Buffer[4]=0x00; 
....................          //RX_Buffer2[4]=0x00;  
....................          if(Temperatura<Tapertura && cerroLimpio) 
....................             pulsoBajarS=ON; 
....................       }    
....................        
....................       if(RX_Buffer[4]==0x0d){//Solto Bajar Puerta 
....................          RX_Buffer[4]=0x00;             
....................          //RX_Buffer2[4]=0x00;                        
....................       } 
....................       */ 
....................    } 
....................           
....................    if(PresionPreCamara>(350-(int16)Atmosferica) || PresionCamara>350){ 
0CDEE:  CLRF   03
0CDF0:  MOVLB  2
0CDF2:  MOVF   xC2,W
0CDF4:  XORLW  FF
0CDF6:  ADDLW  5F
0CDF8:  MOVWF  00
0CDFA:  MOVLW  01
0CDFC:  SUBFWB 03,F
0CDFE:  MOVFF  00,01
0CE02:  MOVF   03,W
0CE04:  SUBWF  x97,W
0CE06:  BNC   CE10
0CE08:  BNZ   CE20
0CE0A:  MOVF   x96,W
0CE0C:  SUBWF  01,W
0CE0E:  BNC   CE20
0CE10:  MOVF   x95,W
0CE12:  SUBLW  00
0CE14:  BC    CE24
0CE16:  XORLW  FF
0CE18:  BNZ   CE20
0CE1A:  MOVF   x94,W
0CE1C:  SUBLW  5E
0CE1E:  BC    CE24
....................       AlarmaPresion=ON; 
0CE20:  MOVLB  1
0CE22:  BSF    x07.1
....................    } 
....................     
....................    if(TiempoCiclo>1800 && !Fugas){//ANALIZAR BIEN ESTA ALARMA 
0CE24:  MOVLB  1
0CE26:  MOVF   x0C,W
0CE28:  SUBLW  06
0CE2A:  BC    CE64
0CE2C:  XORLW  FF
0CE2E:  BNZ   CE36
0CE30:  MOVF   x0B,W
0CE32:  SUBLW  08
0CE34:  BC    CE64
0CE36:  BTFSC  x07.6
0CE38:  BRA    CE64
....................       if(TiempoCiclo>5400){ 
0CE3A:  MOVF   x0C,W
0CE3C:  SUBLW  14
0CE3E:  BC    CE4E
0CE40:  XORLW  FF
0CE42:  BNZ   CE4A
0CE44:  MOVF   x0B,W
0CE46:  SUBLW  18
0CE48:  BC    CE4E
....................          AlarmaTiempoProlongado=ON; 
0CE4A:  MOVLB  0
0CE4C:  BSF    xF9.5
....................       } 
....................       if(PresionPrecamara<10){ 
0CE4E:  MOVLB  2
0CE50:  MOVF   x97,F
0CE52:  BNZ   CE60
0CE54:  MOVF   x96,W
0CE56:  SUBLW  09
0CE58:  BNC   CE60
....................          AlarmaTiempoProlongado=ON; 
0CE5A:  MOVLB  0
0CE5C:  BSF    xF9.5
0CE5E:  MOVLB  2
....................       } 
....................    }else{ 
0CE60:  BRA    CE68
0CE62:  MOVLB  1
....................       AlarmaTiempoProlongado=OFF; 
0CE64:  MOVLB  0
0CE66:  BCF    xF9.5
....................    } 
....................     
....................    if(Temperatura>Setpoint+4.0 && !Fugas){ 
0CE68:  MOVLB  6
0CE6A:  CLRF   xE2
0CE6C:  MOVFF  283,6E1
0CE70:  MOVLB  0
0CE72:  CALL   21A8
0CE76:  BCF    FD8.1
0CE78:  MOVFF  03,6E4
0CE7C:  MOVFF  02,6E3
0CE80:  MOVFF  01,6E2
0CE84:  MOVFF  00,6E1
0CE88:  MOVLB  6
0CE8A:  CLRF   xE8
0CE8C:  CLRF   xE7
0CE8E:  CLRF   xE6
0CE90:  MOVLW  81
0CE92:  MOVWF  xE5
0CE94:  MOVLB  0
0CE96:  CALL   2364
0CE9A:  MOVFF  03,6D6
0CE9E:  MOVFF  02,6D5
0CEA2:  MOVFF  01,6D4
0CEA6:  MOVFF  00,6D3
0CEAA:  MOVFF  23E,6DA
0CEAE:  MOVFF  23D,6D9
0CEB2:  MOVFF  23C,6D8
0CEB6:  MOVFF  23B,6D7
0CEBA:  CALL   283A
0CEBE:  BNC   CECE
0CEC0:  MOVLB  1
0CEC2:  BTFSS  x07.6
0CEC4:  BRA    CECA
0CEC6:  MOVLB  0
0CEC8:  BRA    CECE
....................       AlarmaSobreTemperatura=ON; 
0CECA:  MOVLB  0
0CECC:  BSF    xF9.6
....................    } 
....................     
....................    if(TiempoLlenado>600){ 
0CECE:  MOVLB  1
0CED0:  MOVF   x20,W
0CED2:  SUBLW  01
0CED4:  BC    CEE8
0CED6:  XORLW  FF
0CED8:  BNZ   CEE0
0CEDA:  MOVF   x1F,W
0CEDC:  SUBLW  58
0CEDE:  BC    CEE8
....................       AlarmaLlenado=ON; 
0CEE0:  MOVLB  0
0CEE2:  BSF    xFB.1
....................    }else{ 
0CEE4:  BRA    CEEC
0CEE6:  MOVLB  1
....................       AlarmaLlenado=OFF; 
0CEE8:  MOVLB  0
0CEEA:  BCF    xFB.1
....................    } 
....................     
....................    //if(!DOORS && !EMPAQUES){       
....................    if(!DOORS){       
0CEEC:  BSF    F93.1
0CEEE:  BTFSS  F81.1
0CEF0:  BRA    CF04
....................       Paso=OFF; 
0CEF2:  BCF    xF8.2
....................       //if(!Secando && !Finalizo && !Desfogando){ 
....................       if(!Finalizo){ 
0CEF4:  MOVLB  1
0CEF6:  BTFSC  x07.0
0CEF8:  BRA    CEFE
....................          AlarmaPuertaS=ON; 
0CEFA:  MOVLB  0
0CEFC:  BSF    xFA.0
....................       } 
....................       cerroSucio=OFF; 
0CEFE:  MOVLB  0
0CF00:  BCF    xFB.2
....................    }else{ 
0CF02:  BRA    CF08
....................       AlarmaPuertaS=OFF; 
0CF04:  BCF    xFA.0
....................       cerroSucio=ON; 
0CF06:  BSF    xFB.2
....................    } 
....................    /* 
....................    if(!DOORL && !EMPAQUEL){       
....................       Paso=OFF; 
....................       //if(!Secando && !Finalizo && !Desfogando){ 
....................       if(!Finalizo){ 
....................          AlarmaPuertaL=ON; 
....................       } 
....................       cerroLimpio=OFF; 
....................    }else{ 
....................       AlarmaPuertaL=OFF; 
....................       cerroLimpio=ON; 
....................    } 
....................    */ 
....................    if(tStop>=300){ 
0CF08:  MOVLB  2
0CF0A:  MOVF   xB7,W
0CF0C:  SUBLW  00
0CF0E:  BC    CF20
0CF10:  XORLW  FF
0CF12:  BNZ   CF1A
0CF14:  MOVF   xB6,W
0CF16:  SUBLW  2B
0CF18:  BC    CF20
....................       AlarmaEmergencia=ON; 
0CF1A:  MOVLB  0
0CF1C:  BSF    xFA.2
0CF1E:  MOVLB  2
....................    } 
....................    /* 
....................    if(tEmpaqueS>10) 
....................       AlarmaEmpaqueS=ON; 
....................        
....................    if(tEmpaqueL>10) 
....................       AlarmaEmpaqueL=ON;    
....................    */ 
....................    if(AlarmaPuertaS || AlarmaPuertaL || AlarmaTermostato || AlarmaSobreTemperatura || AlarmaTiempoProlongado || AlarmaEmergencia || AlarmaPresion || AlarmaBomba || AlarmaEmpaqueL || AlarmaEmpaqueS 
....................          || AlarmaVacio || AlarmaLlenado || !Start){ 
0CF20:  MOVLB  0
0CF22:  BTFSC  xFA.0
0CF24:  BRA    CF64
0CF26:  BTFSC  xFA.1
0CF28:  BRA    CF64
0CF2A:  BTFSC  xF9.7
0CF2C:  BRA    CF64
0CF2E:  BTFSC  xF9.6
0CF30:  BRA    CF64
0CF32:  BTFSC  xF9.5
0CF34:  BRA    CF64
0CF36:  BTFSC  xFA.2
0CF38:  BRA    CF64
0CF3A:  MOVLB  1
0CF3C:  BTFSS  x07.1
0CF3E:  BRA    CF44
0CF40:  MOVLB  0
0CF42:  BRA    CF64
0CF44:  MOVLB  0
0CF46:  BTFSC  xFA.6
0CF48:  BRA    CF64
0CF4A:  BTFSC  xFA.4
0CF4C:  BRA    CF64
0CF4E:  BTFSC  xFA.5
0CF50:  BRA    CF64
0CF52:  BTFSC  xFA.3
0CF54:  BRA    CF64
0CF56:  BTFSC  xFB.1
0CF58:  BRA    CF64
0CF5A:  MOVLB  1
0CF5C:  BTFSC  x04.5
0CF5E:  GOTO   D9FC
0CF62:  MOVLB  0
....................       Esterilizando=OFF; 
0CF64:  MOVLB  1
0CF66:  BCF    x03.7
....................       Secando=OFF; 
0CF68:  BCF    x04.0
....................       ActivaAlarma(1); 
0CF6A:  MOVLW  01
0CF6C:  MOVLB  6
0CF6E:  MOVWF  xCF
0CF70:  MOVLB  0
0CF72:  CALL   5D52
....................       printf("b2.pic=86"); 
0CF76:  MOVLW  1E
0CF78:  MOVWF  FF6
0CF7A:  MOVLW  16
0CF7C:  MOVWF  FF7
0CF7E:  MOVLW  00
0CF80:  MOVWF  FF8
0CF82:  CALL   43FC
....................       SendDataDisplay(); 
0CF86:  CALL   442E
....................       if(AlarmaEmergencia){ 
0CF8A:  BTFSS  xFA.2
0CF8C:  BRA    D0D2
....................          codigoAlarma=1; 
0CF8E:  MOVLW  01
0CF90:  MOVLB  2
0CF92:  MOVWF  xAF
....................          printf("Funcionamiento.t4f.txt=\" Parada de Emergencia\""); 
0CF94:  MOVLW  28
0CF96:  MOVWF  FF6
0CF98:  MOVLW  16
0CF9A:  MOVWF  FF7
0CF9C:  MOVLW  00
0CF9E:  MOVWF  FF8
0CFA0:  MOVLB  0
0CFA2:  CALL   43FC
....................          SendDataDisplay(); 
0CFA6:  CALL   442E
....................          printf("Funcionamiento.t5f.txt=\" Cancelado\""); 
0CFAA:  MOVLW  58
0CFAC:  MOVWF  FF6
0CFAE:  MOVLW  16
0CFB0:  MOVWF  FF7
0CFB2:  MOVLW  00
0CFB4:  MOVWF  FF8
0CFB6:  CALL   43FC
....................          SendDataDisplay(); 
0CFBA:  CALL   442E
....................          Desfogue=ON; 
0CFBE:  BSF    xF8.4
....................          Paso=OFF; 
0CFC0:  BCF    xF8.2
....................          suministroVapor=OFF; 
0CFC2:  BCF    xF8.1
....................          //if(!abrirPuertaL && !abrirPuertaS) 
....................             BombaVacio=OFF; 
0CFC4:  BCF    30.6
....................          aguaEnfriador=OFF; 
0CFC6:  BCF    30.5
....................          outVacio=OFF; 
0CFC8:  BCF    xF8.3
....................          if(!EMPAQUES && PresionCamara<Atmosferica+4) 
0CFCA:  BSF    F93.3
0CFCC:  BTFSS  F81.3
0CFCE:  BRA    CFEE
0CFD0:  MOVLW  04
0CFD2:  MOVLB  2
0CFD4:  ADDWF  xC2,W
0CFD6:  MOVF   x95,F
0CFD8:  BTFSC  FD8.2
0CFDA:  BRA    CFE0
0CFDC:  MOVLB  0
0CFDE:  BRA    CFEE
0CFE0:  SUBWF  x94,W
0CFE2:  BTFSS  FD8.0
0CFE4:  BRA    CFEA
0CFE6:  MOVLB  0
0CFE8:  BRA    CFEE
....................             empaqueSucio=OFF; 
0CFEA:  MOVLB  0
0CFEC:  BCF    xF8.0
....................           
....................          if(!EMPAQUEL && PresionCamara<Atmosferica+4) 
0CFEE:  BTFSC  30.0
0CFF0:  BRA    D00E
0CFF2:  MOVLW  04
0CFF4:  MOVLB  2
0CFF6:  ADDWF  xC2,W
0CFF8:  MOVF   x95,F
0CFFA:  BTFSC  FD8.2
0CFFC:  BRA    D002
0CFFE:  MOVLB  0
0D000:  BRA    D00E
0D002:  SUBWF  x94,W
0D004:  BTFSS  FD8.0
0D006:  BRA    D00C
0D008:  MOVLB  0
0D00A:  BRA    D00E
....................             empaqueLimpio=OFF; 
0D00C:  BCF    30.7
....................              
....................          if(PresionCamara<Atmosferica) 
0D00E:  MOVLB  2
0D010:  MOVF   x95,F
0D012:  BNZ   D020
0D014:  MOVF   xC2,W
0D016:  SUBWF  x94,W
0D018:  BC    D020
....................             Aire=ON; 
0D01A:  MOVLB  0
0D01C:  BSF    xF8.5
....................          else 
0D01E:  BRA    D024
....................             Aire=OFF; 
0D020:  MOVLB  0
0D022:  BCF    xF8.5
....................          Esterilizando=OFF; 
0D024:  MOVLB  1
0D026:  BCF    x03.7
....................          Desfogando=OFF; 
0D028:  BCF    x04.2
....................          DesfogueSuave=OFF; 
0D02A:  BCF    x04.3
....................          //IniciaCiclo=OFF; 
....................          Controlando=0; 
0D02C:  MOVLB  2
0D02E:  CLRF   x6C
....................          if(codigoAnt!=codigoAlarma){ 
0D030:  MOVF   xAF,W
0D032:  SUBWF  xB0,W
0D034:  BZ    D044
....................             codigoAnt=codigoAlarma; 
0D036:  MOVFF  2AF,2B0
....................             GuardaDatoCiclo(); 
0D03A:  MOVLB  0
0D03C:  CALL   734E
....................             incrementaCiclos(); 
0D040:  CALL   76FC
....................          } 
....................          if(!flagImprimir){ 
0D044:  MOVLB  1
0D046:  BTFSC  x09.4
0D048:  BRA    D06C
....................             Imprime=20; 
0D04A:  MOVLW  14
0D04C:  MOVLB  2
0D04E:  MOVWF  xCC
....................             Envio_Esclavos(); 
0D050:  MOVLB  0
0D052:  CALL   59DA
....................             delay_ms(100); 
0D056:  MOVLW  64
0D058:  MOVLB  6
0D05A:  MOVWF  xE1
0D05C:  MOVLB  0
0D05E:  CALL   21DE
....................             Imprime=10; 
0D062:  MOVLW  0A
0D064:  MOVLB  2
0D066:  MOVWF  xCC
....................             flagImprimir=1; 
0D068:  MOVLB  1
0D06A:  BSF    x09.4
....................          } 
....................          if(PresionCamara<=Atmosferica+15 && PresionCamara>Atmosferica-10 && Temperatura<=Tapertura) 
0D06C:  MOVLW  0F
0D06E:  MOVLB  2
0D070:  ADDWF  xC2,W
0D072:  MOVF   x95,F
0D074:  BNZ   D0CC
0D076:  SUBWF  x94,W
0D078:  BZ    D07C
0D07A:  BC    D0CC
0D07C:  MOVLW  0A
0D07E:  SUBWF  xC2,W
0D080:  MOVF   x95,F
0D082:  BNZ   D08A
0D084:  SUBWF  x94,W
0D086:  BZ    D0CC
0D088:  BNC   D0CC
0D08A:  MOVLB  6
0D08C:  CLRF   xE2
0D08E:  MOVFF  27A,6E1
0D092:  MOVLB  0
0D094:  CALL   21A8
0D098:  MOVFF  23E,6D6
0D09C:  MOVFF  23D,6D5
0D0A0:  MOVFF  23C,6D4
0D0A4:  MOVFF  23B,6D3
0D0A8:  MOVFF  03,6DA
0D0AC:  MOVFF  02,6D9
0D0B0:  MOVFF  01,6D8
0D0B4:  MOVFF  00,6D7
0D0B8:  CALL   283A
0D0BC:  BC    D0C6
0D0BE:  BTFSC  FD8.2
0D0C0:  BRA    D0C6
0D0C2:  MOVLB  2
0D0C4:  BRA    D0CC
....................             Start=OFF; 
0D0C6:  MOVLB  1
0D0C8:  BCF    x04.5
0D0CA:  MOVLB  2
....................       }else if(AlarmaPuertaS || AlarmaPuertaL){ 
0D0CC:  GOTO   D9F6
0D0D0:  MOVLB  0
0D0D2:  BTFSC  xFA.0
0D0D4:  BRA    D0DA
0D0D6:  BTFSS  xFA.1
0D0D8:  BRA    D1A0
....................          codigoAlarma=2; 
0D0DA:  MOVLW  02
0D0DC:  MOVLB  2
0D0DE:  MOVWF  xAF
....................          printf("Funcionamiento.t4f.txt=\" Puerta Abierta\""); 
0D0E0:  MOVLW  7C
0D0E2:  MOVWF  FF6
0D0E4:  MOVLW  16
0D0E6:  MOVWF  FF7
0D0E8:  MOVLW  00
0D0EA:  MOVWF  FF8
0D0EC:  MOVLB  0
0D0EE:  CALL   43FC
....................          SendDataDisplay(); 
0D0F2:  CALL   442E
....................          printf("Funcionamiento.t5f.txt=\" Pausado\""); 
0D0F6:  MOVLW  A6
0D0F8:  MOVWF  FF6
0D0FA:  MOVLW  16
0D0FC:  MOVWF  FF7
0D0FE:  MOVLW  00
0D100:  MOVWF  FF8
0D102:  CALL   43FC
....................          SendDataDisplay(); 
0D106:  CALL   442E
....................          Paso=OFF; 
0D10A:  BCF    xF8.2
....................          suministroVapor=OFF; 
0D10C:  BCF    xF8.1
....................          if(AlarmaEmpaqueL) 
0D10E:  BTFSS  xFA.4
0D110:  BRA    D114
....................             empaqueLimpio=OFF; 
0D112:  BCF    30.7
....................          if(AlarmaEmpaqueS) 
0D114:  BTFSS  xFA.5
0D116:  BRA    D11A
....................             empaqueSucio=OFF; 
0D118:  BCF    xF8.0
....................          //Suministro_off; 
....................          BombaVacio=OFF; 
0D11A:  BCF    30.6
....................          Aire=OFF; 
0D11C:  BCF    xF8.5
....................          aguaEnfriador=OFF; 
0D11E:  BCF    30.5
....................          outVacio=OFF; 
0D120:  BCF    xF8.3
....................          IniciaLlenado=OFF; 
0D122:  MOVLB  1
0D124:  BCF    x03.5
....................          Controlando=0; 
0D126:  MOVLB  2
0D128:  CLRF   x6C
....................          if(codigoAnt!=codigoAlarma){ 
0D12A:  MOVF   xAF,W
0D12C:  SUBWF  xB0,W
0D12E:  BZ    D13C
....................             codigoAnt=codigoAlarma; 
0D130:  MOVFF  2AF,2B0
....................             GuardaDatoCiclo(); 
0D134:  MOVLB  0
0D136:  CALL   734E
0D13A:  MOVLB  2
....................          } 
....................          if(PresionCamara<=Atmosferica+15 && PresionCamara>Atmosferica-10 && Temperatura<=Tapertura) 
0D13C:  MOVLW  0F
0D13E:  ADDWF  xC2,W
0D140:  MOVF   x95,F
0D142:  BNZ   D19A
0D144:  SUBWF  x94,W
0D146:  BZ    D14A
0D148:  BC    D19A
0D14A:  MOVLW  0A
0D14C:  SUBWF  xC2,W
0D14E:  MOVF   x95,F
0D150:  BNZ   D158
0D152:  SUBWF  x94,W
0D154:  BZ    D19A
0D156:  BNC   D19A
0D158:  MOVLB  6
0D15A:  CLRF   xE2
0D15C:  MOVFF  27A,6E1
0D160:  MOVLB  0
0D162:  CALL   21A8
0D166:  MOVFF  23E,6D6
0D16A:  MOVFF  23D,6D5
0D16E:  MOVFF  23C,6D4
0D172:  MOVFF  23B,6D3
0D176:  MOVFF  03,6DA
0D17A:  MOVFF  02,6D9
0D17E:  MOVFF  01,6D8
0D182:  MOVFF  00,6D7
0D186:  CALL   283A
0D18A:  BC    D194
0D18C:  BTFSC  FD8.2
0D18E:  BRA    D194
0D190:  MOVLB  2
0D192:  BRA    D19A
....................             Start=OFF; 
0D194:  MOVLB  1
0D196:  BCF    x04.5
0D198:  MOVLB  2
....................       }else if(AlarmaLlenado){ 
0D19A:  GOTO   D9F6
0D19E:  MOVLB  0
0D1A0:  BTFSS  xFB.1
0D1A2:  BRA    D290
....................          codigoAlarma=9; 
0D1A4:  MOVLW  09
0D1A6:  MOVLB  2
0D1A8:  MOVWF  xAF
....................          printf("Funcionamiento.t4f.txt=\" Tiempo Llenado\""); 
0D1AA:  MOVLW  C8
0D1AC:  MOVWF  FF6
0D1AE:  MOVLW  16
0D1B0:  MOVWF  FF7
0D1B2:  MOVLW  00
0D1B4:  MOVWF  FF8
0D1B6:  MOVLB  0
0D1B8:  CALL   43FC
....................          SendDataDisplay(); 
0D1BC:  CALL   442E
....................          printf("Funcionamiento.t5f.txt=\" Cancelado\""); 
0D1C0:  MOVLW  F2
0D1C2:  MOVWF  FF6
0D1C4:  MOVLW  16
0D1C6:  MOVWF  FF7
0D1C8:  MOVLW  00
0D1CA:  MOVWF  FF8
0D1CC:  CALL   43FC
....................          SendDataDisplay(); 
0D1D0:  CALL   442E
....................          suministroVapor=OFF; 
0D1D4:  BCF    xF8.1
....................          Aire=OFF; 
0D1D6:  BCF    xF8.5
....................          Desfogue=OFF; 
0D1D8:  BCF    xF8.4
....................          Paso=OFF; 
0D1DA:  BCF    xF8.2
....................          //if(!abrirPuertaL && !abrirPuertaS) 
....................             BombaVacio=OFF; 
0D1DC:  BCF    30.6
....................          aguaEnfriador=OFF; 
0D1DE:  BCF    30.5
....................          outVacio=OFF; 
0D1E0:  BCF    xF8.3
....................          IniciaLlenado=OFF; 
0D1E2:  MOVLB  1
0D1E4:  BCF    x03.5
....................          IniciaCiclo=OFF; 
0D1E6:  BCF    x03.6
....................          Esterilizando=OFF; 
0D1E8:  BCF    x03.7
....................          Controlando=0; 
0D1EA:  MOVLB  2
0D1EC:  CLRF   x6C
....................          if(codigoAnt!=codigoAlarma){ 
0D1EE:  MOVF   xAF,W
0D1F0:  SUBWF  xB0,W
0D1F2:  BZ    D202
....................             codigoAnt=codigoAlarma; 
0D1F4:  MOVFF  2AF,2B0
....................             GuardaDatoCiclo(); 
0D1F8:  MOVLB  0
0D1FA:  CALL   734E
....................             incrementaCiclos(); 
0D1FE:  CALL   76FC
....................          } 
....................          if(!flagImprimir){ 
0D202:  MOVLB  1
0D204:  BTFSC  x09.4
0D206:  BRA    D22A
....................             Imprime=21; 
0D208:  MOVLW  15
0D20A:  MOVLB  2
0D20C:  MOVWF  xCC
....................             Envio_Esclavos(); 
0D20E:  MOVLB  0
0D210:  CALL   59DA
....................             delay_ms(100); 
0D214:  MOVLW  64
0D216:  MOVLB  6
0D218:  MOVWF  xE1
0D21A:  MOVLB  0
0D21C:  CALL   21DE
....................             Imprime=10; 
0D220:  MOVLW  0A
0D222:  MOVLB  2
0D224:  MOVWF  xCC
....................             flagImprimir=1; 
0D226:  MOVLB  1
0D228:  BSF    x09.4
....................          } 
....................          if(PresionCamara<=Atmosferica+15 && PresionCamara>Atmosferica-10 && Temperatura<=Tapertura) 
0D22A:  MOVLW  0F
0D22C:  MOVLB  2
0D22E:  ADDWF  xC2,W
0D230:  MOVF   x95,F
0D232:  BNZ   D28A
0D234:  SUBWF  x94,W
0D236:  BZ    D23A
0D238:  BC    D28A
0D23A:  MOVLW  0A
0D23C:  SUBWF  xC2,W
0D23E:  MOVF   x95,F
0D240:  BNZ   D248
0D242:  SUBWF  x94,W
0D244:  BZ    D28A
0D246:  BNC   D28A
0D248:  MOVLB  6
0D24A:  CLRF   xE2
0D24C:  MOVFF  27A,6E1
0D250:  MOVLB  0
0D252:  CALL   21A8
0D256:  MOVFF  23E,6D6
0D25A:  MOVFF  23D,6D5
0D25E:  MOVFF  23C,6D4
0D262:  MOVFF  23B,6D3
0D266:  MOVFF  03,6DA
0D26A:  MOVFF  02,6D9
0D26E:  MOVFF  01,6D8
0D272:  MOVFF  00,6D7
0D276:  CALL   283A
0D27A:  BC    D284
0D27C:  BTFSC  FD8.2
0D27E:  BRA    D284
0D280:  MOVLB  2
0D282:  BRA    D28A
....................             Start=OFF; 
0D284:  MOVLB  1
0D286:  BCF    x04.5
0D288:  MOVLB  2
....................       }else if(AlarmaTermostato){ 
0D28A:  GOTO   D9F6
0D28E:  MOVLB  0
0D290:  BTFSS  xF9.7
0D292:  BRA    D396
....................          codigoAlarma=3; 
0D294:  MOVLW  03
0D296:  MOVLB  2
0D298:  MOVWF  xAF
....................          tiempo_esterilizacion=0;tiempo_secado=0;          
0D29A:  CLRF   x86
0D29C:  CLRF   x87
....................          printf("Funcionamiento.t4f.txt=\" Termostato\""); 
0D29E:  MOVLW  16
0D2A0:  MOVWF  FF6
0D2A2:  MOVLW  17
0D2A4:  MOVWF  FF7
0D2A6:  MOVLW  00
0D2A8:  MOVWF  FF8
0D2AA:  MOVLB  0
0D2AC:  CALL   43FC
....................          SendDataDisplay(); 
0D2B0:  CALL   442E
....................          printf("Funcionamiento.t5f.txt=\" Cancelado\""); 
0D2B4:  MOVLW  3C
0D2B6:  MOVWF  FF6
0D2B8:  MOVLW  17
0D2BA:  MOVWF  FF7
0D2BC:  MOVLW  00
0D2BE:  MOVWF  FF8
0D2C0:  CALL   43FC
....................          SendDataDisplay(); 
0D2C4:  CALL   442E
....................          suministroVapor=OFF; 
0D2C8:  BCF    xF8.1
....................          Desfogue=ON;                   
0D2CA:  BSF    xF8.4
....................          Paso=OFF; 
0D2CC:  BCF    xF8.2
....................          //if(!abrirPuertaL && !abrirPuertaS) 
....................             BombaVacio=OFF; 
0D2CE:  BCF    30.6
....................          if(PresionCamara<Atmosferica) 
0D2D0:  MOVLB  2
0D2D2:  MOVF   x95,F
0D2D4:  BNZ   D2E2
0D2D6:  MOVF   xC2,W
0D2D8:  SUBWF  x94,W
0D2DA:  BC    D2E2
....................             Aire=ON; 
0D2DC:  MOVLB  0
0D2DE:  BSF    xF8.5
....................          else 
0D2E0:  BRA    D2E6
....................             Aire=OFF; 
0D2E2:  MOVLB  0
0D2E4:  BCF    xF8.5
....................          aguaEnfriador=OFF; 
0D2E6:  BCF    30.5
....................          outVacio=OFF; 
0D2E8:  BCF    xF8.3
....................          Esterilizando=OFF; 
0D2EA:  MOVLB  1
0D2EC:  BCF    x03.7
....................          Desfogando=OFF; 
0D2EE:  BCF    x04.2
....................          IniciaCiclo=OFF; 
0D2F0:  BCF    x03.6
....................          Controlando=0; 
0D2F2:  MOVLB  2
0D2F4:  CLRF   x6C
....................          if(codigoAnt!=codigoAlarma){ 
0D2F6:  MOVF   xAF,W
0D2F8:  SUBWF  xB0,W
0D2FA:  BZ    D30A
....................             codigoAnt=codigoAlarma; 
0D2FC:  MOVFF  2AF,2B0
....................             GuardaDatoCiclo(); 
0D300:  MOVLB  0
0D302:  CALL   734E
....................             incrementaCiclos(); 
0D306:  CALL   76FC
....................          } 
....................          if(!flagImprimir){ 
0D30A:  MOVLB  1
0D30C:  BTFSC  x09.4
0D30E:  BRA    D332
....................             Imprime=22; 
0D310:  MOVLW  16
0D312:  MOVLB  2
0D314:  MOVWF  xCC
....................             Envio_Esclavos(); 
0D316:  MOVLB  0
0D318:  CALL   59DA
....................             delay_ms(100); 
0D31C:  MOVLW  64
0D31E:  MOVLB  6
0D320:  MOVWF  xE1
0D322:  MOVLB  0
0D324:  CALL   21DE
....................             Imprime=10; 
0D328:  MOVLW  0A
0D32A:  MOVLB  2
0D32C:  MOVWF  xCC
....................             flagImprimir=1; 
0D32E:  MOVLB  1
0D330:  BSF    x09.4
....................          } 
....................          if(PresionCamara<=Atmosferica+15 && PresionCamara>Atmosferica-10 && Temperatura<=Tapertura) 
0D332:  MOVLW  0F
0D334:  MOVLB  2
0D336:  ADDWF  xC2,W
0D338:  MOVF   x95,F
0D33A:  BNZ   D392
0D33C:  SUBWF  x94,W
0D33E:  BZ    D342
0D340:  BC    D392
0D342:  MOVLW  0A
0D344:  SUBWF  xC2,W
0D346:  MOVF   x95,F
0D348:  BNZ   D350
0D34A:  SUBWF  x94,W
0D34C:  BZ    D392
0D34E:  BNC   D392
0D350:  MOVLB  6
0D352:  CLRF   xE2
0D354:  MOVFF  27A,6E1
0D358:  MOVLB  0
0D35A:  CALL   21A8
0D35E:  MOVFF  23E,6D6
0D362:  MOVFF  23D,6D5
0D366:  MOVFF  23C,6D4
0D36A:  MOVFF  23B,6D3
0D36E:  MOVFF  03,6DA
0D372:  MOVFF  02,6D9
0D376:  MOVFF  01,6D8
0D37A:  MOVFF  00,6D7
0D37E:  CALL   283A
0D382:  BC    D38C
0D384:  BTFSC  FD8.2
0D386:  BRA    D38C
0D388:  MOVLB  2
0D38A:  BRA    D392
....................             Start=OFF; 
0D38C:  MOVLB  1
0D38E:  BCF    x04.5
0D390:  MOVLB  2
....................       }else if(AlarmaSobreTemperatura){                   
0D392:  BRA    D9F6
0D394:  MOVLB  0
0D396:  BTFSS  xF9.6
0D398:  BRA    D494
....................          codigoAlarma=4; 
0D39A:  MOVLW  04
0D39C:  MOVLB  2
0D39E:  MOVWF  xAF
....................          tiempo_esterilizacion=0;tiempo_secado=0;          
0D3A0:  CLRF   x86
0D3A2:  CLRF   x87
....................          printf("Funcionamiento.t4f.txt=\" Sobretemperatura\""); 
0D3A4:  MOVLW  60
0D3A6:  MOVWF  FF6
0D3A8:  MOVLW  17
0D3AA:  MOVWF  FF7
0D3AC:  MOVLW  00
0D3AE:  MOVWF  FF8
0D3B0:  MOVLB  0
0D3B2:  CALL   43FC
....................          SendDataDisplay(); 
0D3B6:  CALL   442E
....................          printf("Funcionamiento.t5f.txt=\" Cancelado\""); 
0D3BA:  MOVLW  8C
0D3BC:  MOVWF  FF6
0D3BE:  MOVLW  17
0D3C0:  MOVWF  FF7
0D3C2:  MOVLW  00
0D3C4:  MOVWF  FF8
0D3C6:  CALL   43FC
....................          SendDataDisplay();   
0D3CA:  CALL   442E
....................          suministroVapor=OFF; 
0D3CE:  BCF    xF8.1
....................          Desfogue=ON; 
0D3D0:  BSF    xF8.4
....................          Paso=OFF; 
0D3D2:  BCF    xF8.2
....................          //if(!abrirPuertaL && !abrirPuertaS) 
....................             BombaVacio=OFF; 
0D3D4:  BCF    30.6
....................          if(PresionCamara<Atmosferica) 
0D3D6:  MOVLB  2
0D3D8:  MOVF   x95,F
0D3DA:  BNZ   D3E8
0D3DC:  MOVF   xC2,W
0D3DE:  SUBWF  x94,W
0D3E0:  BC    D3E8
....................             Aire=ON; 
0D3E2:  MOVLB  0
0D3E4:  BSF    xF8.5
....................          else 
0D3E6:  BRA    D3EC
....................             Aire=OFF; 
0D3E8:  MOVLB  0
0D3EA:  BCF    xF8.5
....................          aguaEnfriador=OFF; 
0D3EC:  BCF    30.5
....................          outVacio=OFF; 
0D3EE:  BCF    xF8.3
....................          Controlando=0; 
0D3F0:  MOVLB  2
0D3F2:  CLRF   x6C
....................          if(codigoAnt!=codigoAlarma){ 
0D3F4:  MOVF   xAF,W
0D3F6:  SUBWF  xB0,W
0D3F8:  BZ    D408
....................             codigoAnt=codigoAlarma; 
0D3FA:  MOVFF  2AF,2B0
....................             GuardaDatoCiclo(); 
0D3FE:  MOVLB  0
0D400:  CALL   734E
....................             incrementaCiclos(); 
0D404:  CALL   76FC
....................          } 
....................          if(!flagImprimir){ 
0D408:  MOVLB  1
0D40A:  BTFSC  x09.4
0D40C:  BRA    D430
....................             Imprime=23; 
0D40E:  MOVLW  17
0D410:  MOVLB  2
0D412:  MOVWF  xCC
....................             Envio_Esclavos(); 
0D414:  MOVLB  0
0D416:  CALL   59DA
....................             delay_ms(100); 
0D41A:  MOVLW  64
0D41C:  MOVLB  6
0D41E:  MOVWF  xE1
0D420:  MOVLB  0
0D422:  CALL   21DE
....................             Imprime=10; 
0D426:  MOVLW  0A
0D428:  MOVLB  2
0D42A:  MOVWF  xCC
....................             flagImprimir=1; 
0D42C:  MOVLB  1
0D42E:  BSF    x09.4
....................          } 
....................          if(PresionCamara<=Atmosferica+15 && PresionCamara>Atmosferica-10 && Temperatura<=Tapertura) 
0D430:  MOVLW  0F
0D432:  MOVLB  2
0D434:  ADDWF  xC2,W
0D436:  MOVF   x95,F
0D438:  BNZ   D490
0D43A:  SUBWF  x94,W
0D43C:  BZ    D440
0D43E:  BC    D490
0D440:  MOVLW  0A
0D442:  SUBWF  xC2,W
0D444:  MOVF   x95,F
0D446:  BNZ   D44E
0D448:  SUBWF  x94,W
0D44A:  BZ    D490
0D44C:  BNC   D490
0D44E:  MOVLB  6
0D450:  CLRF   xE2
0D452:  MOVFF  27A,6E1
0D456:  MOVLB  0
0D458:  CALL   21A8
0D45C:  MOVFF  23E,6D6
0D460:  MOVFF  23D,6D5
0D464:  MOVFF  23C,6D4
0D468:  MOVFF  23B,6D3
0D46C:  MOVFF  03,6DA
0D470:  MOVFF  02,6D9
0D474:  MOVFF  01,6D8
0D478:  MOVFF  00,6D7
0D47C:  CALL   283A
0D480:  BC    D48A
0D482:  BTFSC  FD8.2
0D484:  BRA    D48A
0D486:  MOVLB  2
0D488:  BRA    D490
....................             Start=OFF; 
0D48A:  MOVLB  1
0D48C:  BCF    x04.5
0D48E:  MOVLB  2
....................       }else if(AlarmaTiempoProlongado){ 
0D490:  BRA    D9F6
0D492:  MOVLB  0
0D494:  BTFSS  xF9.5
0D496:  BRA    D58C
....................          codigoAlarma=5; 
0D498:  MOVLW  05
0D49A:  MOVLB  2
0D49C:  MOVWF  xAF
....................          printf("Funcionamiento.t4f.txt=\" Tiempo Prolongado\""); 
0D49E:  MOVLW  B0
0D4A0:  MOVWF  FF6
0D4A2:  MOVLW  17
0D4A4:  MOVWF  FF7
0D4A6:  MOVLW  00
0D4A8:  MOVWF  FF8
0D4AA:  MOVLB  0
0D4AC:  CALL   43FC
....................          SendDataDisplay(); 
0D4B0:  CALL   442E
....................          printf("Funcionamiento.t5f.txt=\" Cancelado\""); 
0D4B4:  MOVLW  DC
0D4B6:  MOVWF  FF6
0D4B8:  MOVLW  17
0D4BA:  MOVWF  FF7
0D4BC:  MOVLW  00
0D4BE:  MOVWF  FF8
0D4C0:  CALL   43FC
....................          SendDataDisplay(); 
0D4C4:  CALL   442E
....................          suministroVapor=OFF; 
0D4C8:  BCF    xF8.1
....................          //if(!abrirPuertaL && !abrirPuertaS) 
....................             BombaVacio=OFF; 
0D4CA:  BCF    30.6
....................          Desfogue=ON; 
0D4CC:  BSF    xF8.4
....................          Paso=OFF; 
0D4CE:  BCF    xF8.2
....................          if(PresionCamara<Atmosferica) 
0D4D0:  MOVLB  2
0D4D2:  MOVF   x95,F
0D4D4:  BNZ   D4E2
0D4D6:  MOVF   xC2,W
0D4D8:  SUBWF  x94,W
0D4DA:  BC    D4E2
....................             Aire=ON; 
0D4DC:  MOVLB  0
0D4DE:  BSF    xF8.5
....................          else 
0D4E0:  BRA    D4E6
....................             Aire=OFF; 
0D4E2:  MOVLB  0
0D4E4:  BCF    xF8.5
....................          aguaEnfriador=OFF; 
0D4E6:  BCF    30.5
....................          outVacio=OFF; 
0D4E8:  BCF    xF8.3
....................          Controlando=0; 
0D4EA:  MOVLB  2
0D4EC:  CLRF   x6C
....................          if(codigoAnt!=codigoAlarma){ 
0D4EE:  MOVF   xAF,W
0D4F0:  SUBWF  xB0,W
0D4F2:  BZ    D502
....................             codigoAnt=codigoAlarma; 
0D4F4:  MOVFF  2AF,2B0
....................             GuardaDatoCiclo(); 
0D4F8:  MOVLB  0
0D4FA:  CALL   734E
....................             incrementaCiclos(); 
0D4FE:  CALL   76FC
....................          } 
....................          if(!flagImprimir){ 
0D502:  MOVLB  1
0D504:  BTFSC  x09.4
0D506:  BRA    D52A
....................             Imprime=24; 
0D508:  MOVLW  18
0D50A:  MOVLB  2
0D50C:  MOVWF  xCC
....................             Envio_Esclavos(); 
0D50E:  MOVLB  0
0D510:  CALL   59DA
....................             delay_ms(100); 
0D514:  MOVLW  64
0D516:  MOVLB  6
0D518:  MOVWF  xE1
0D51A:  MOVLB  0
0D51C:  CALL   21DE
....................             Imprime=10; 
0D520:  MOVLW  0A
0D522:  MOVLB  2
0D524:  MOVWF  xCC
....................             flagImprimir=1; 
0D526:  MOVLB  1
0D528:  BSF    x09.4
....................          } 
....................          if(PresionCamara<=Atmosferica+15 && PresionCamara>Atmosferica-10 && Temperatura<=Tapertura) 
0D52A:  MOVLW  0F
0D52C:  MOVLB  2
0D52E:  ADDWF  xC2,W
0D530:  MOVF   x95,F
0D532:  BNZ   D58A
0D534:  SUBWF  x94,W
0D536:  BZ    D53A
0D538:  BC    D58A
0D53A:  MOVLW  0A
0D53C:  SUBWF  xC2,W
0D53E:  MOVF   x95,F
0D540:  BNZ   D548
0D542:  SUBWF  x94,W
0D544:  BZ    D58A
0D546:  BNC   D58A
0D548:  MOVLB  6
0D54A:  CLRF   xE2
0D54C:  MOVFF  27A,6E1
0D550:  MOVLB  0
0D552:  CALL   21A8
0D556:  MOVFF  23E,6D6
0D55A:  MOVFF  23D,6D5
0D55E:  MOVFF  23C,6D4
0D562:  MOVFF  23B,6D3
0D566:  MOVFF  03,6DA
0D56A:  MOVFF  02,6D9
0D56E:  MOVFF  01,6D8
0D572:  MOVFF  00,6D7
0D576:  CALL   283A
0D57A:  BC    D584
0D57C:  BTFSC  FD8.2
0D57E:  BRA    D584
0D580:  MOVLB  2
0D582:  BRA    D58A
....................             Start=OFF; 
0D584:  MOVLB  1
0D586:  BCF    x04.5
0D588:  MOVLB  2
....................       }else if(AlarmaPresion){ // Alarma de Error de SobrePresion: Error por exceso de Presion. 
0D58A:  BRA    D9F6
0D58C:  MOVLB  1
0D58E:  BTFSS  x07.1
0D590:  BRA    D690
....................          codigoAlarma=6; 
0D592:  MOVLW  06
0D594:  MOVLB  2
0D596:  MOVWF  xAF
....................          printf("Funcionamiento.t4f.txt=\" SobrePresion\""); 
0D598:  MOVLW  00
0D59A:  MOVWF  FF6
0D59C:  MOVLW  18
0D59E:  MOVWF  FF7
0D5A0:  MOVLW  00
0D5A2:  MOVWF  FF8
0D5A4:  MOVLB  0
0D5A6:  CALL   43FC
....................          SendDataDisplay(); 
0D5AA:  CALL   442E
....................          printf("Funcionamiento.t5f.txt=\" Cancelado\""); 
0D5AE:  MOVLW  28
0D5B0:  MOVWF  FF6
0D5B2:  MOVLW  18
0D5B4:  MOVWF  FF7
0D5B6:  MOVLW  00
0D5B8:  MOVWF  FF8
0D5BA:  CALL   43FC
....................          SendDataDisplay(); 
0D5BE:  CALL   442E
....................          Desfogue=ON; 
0D5C2:  BSF    xF8.4
....................          suministroVapor=OFF; 
0D5C4:  BCF    xF8.1
....................          //if(!abrirPuertaL && !abrirPuertaS) 
....................             BombaVacio=OFF; 
0D5C6:  BCF    30.6
....................          Aire=OFF; 
0D5C8:  BCF    xF8.5
....................          aguaEnfriador=OFF; 
0D5CA:  BCF    30.5
....................          outVacio=OFF; 
0D5CC:  BCF    xF8.3
....................          if(PresionPreCamara>(Atmosferica+4) && DOORS) 
0D5CE:  MOVLW  04
0D5D0:  MOVLB  2
0D5D2:  ADDWF  xC2,W
0D5D4:  MOVF   x97,F
0D5D6:  BNZ   D5DE
0D5D8:  SUBWF  x96,W
0D5DA:  BZ    D5EA
0D5DC:  BNC   D5EA
0D5DE:  BSF    F93.1
0D5E0:  BTFSC  F81.1
0D5E2:  BRA    D5EA
....................             Paso=ON; 
0D5E4:  MOVLB  0
0D5E6:  BSF    xF8.2
....................          else 
0D5E8:  BRA    D5EE
....................             Paso=OFF; 
0D5EA:  MOVLB  0
0D5EC:  BCF    xF8.2
....................          Controlando=0; 
0D5EE:  MOVLB  2
0D5F0:  CLRF   x6C
....................          if(codigoAnt!=codigoAlarma){ 
0D5F2:  MOVF   xAF,W
0D5F4:  SUBWF  xB0,W
0D5F6:  BZ    D606
....................             codigoAnt=codigoAlarma; 
0D5F8:  MOVFF  2AF,2B0
....................             GuardaDatoCiclo(); 
0D5FC:  MOVLB  0
0D5FE:  CALL   734E
....................             incrementaCiclos(); 
0D602:  CALL   76FC
....................          } 
....................          if(!flagImprimir){ 
0D606:  MOVLB  1
0D608:  BTFSC  x09.4
0D60A:  BRA    D62E
....................             Imprime=25; 
0D60C:  MOVLW  19
0D60E:  MOVLB  2
0D610:  MOVWF  xCC
....................             Envio_Esclavos(); 
0D612:  MOVLB  0
0D614:  CALL   59DA
....................             delay_ms(100); 
0D618:  MOVLW  64
0D61A:  MOVLB  6
0D61C:  MOVWF  xE1
0D61E:  MOVLB  0
0D620:  CALL   21DE
....................             Imprime=10; 
0D624:  MOVLW  0A
0D626:  MOVLB  2
0D628:  MOVWF  xCC
....................             flagImprimir=1; 
0D62A:  MOVLB  1
0D62C:  BSF    x09.4
....................          } 
....................          if(PresionCamara<=Atmosferica+15 && PresionCamara>Atmosferica-10 && Temperatura<=Tapertura) 
0D62E:  MOVLW  0F
0D630:  MOVLB  2
0D632:  ADDWF  xC2,W
0D634:  MOVF   x95,F
0D636:  BNZ   D68E
0D638:  SUBWF  x94,W
0D63A:  BZ    D63E
0D63C:  BC    D68E
0D63E:  MOVLW  0A
0D640:  SUBWF  xC2,W
0D642:  MOVF   x95,F
0D644:  BNZ   D64C
0D646:  SUBWF  x94,W
0D648:  BZ    D68E
0D64A:  BNC   D68E
0D64C:  MOVLB  6
0D64E:  CLRF   xE2
0D650:  MOVFF  27A,6E1
0D654:  MOVLB  0
0D656:  CALL   21A8
0D65A:  MOVFF  23E,6D6
0D65E:  MOVFF  23D,6D5
0D662:  MOVFF  23C,6D4
0D666:  MOVFF  23B,6D3
0D66A:  MOVFF  03,6DA
0D66E:  MOVFF  02,6D9
0D672:  MOVFF  01,6D8
0D676:  MOVFF  00,6D7
0D67A:  CALL   283A
0D67E:  BC    D688
0D680:  BTFSC  FD8.2
0D682:  BRA    D688
0D684:  MOVLB  2
0D686:  BRA    D68E
....................             Start=OFF; 
0D688:  MOVLB  1
0D68A:  BCF    x04.5
0D68C:  MOVLB  2
....................       }else if(AlarmaBomba){ // Alarma de Error de que bomba no ha arrancado. 
0D68E:  BRA    D9F6
0D690:  MOVLB  0
0D692:  BTFSS  xFA.6
0D694:  BRA    D78A
....................          codigoAlarma=7; 
0D696:  MOVLW  07
0D698:  MOVLB  2
0D69A:  MOVWF  xAF
....................          printf("Funcionamiento.t4f.txt=\" Error Bomba\""); 
0D69C:  MOVLW  4C
0D69E:  MOVWF  FF6
0D6A0:  MOVLW  18
0D6A2:  MOVWF  FF7
0D6A4:  MOVLW  00
0D6A6:  MOVWF  FF8
0D6A8:  MOVLB  0
0D6AA:  CALL   43FC
....................          SendDataDisplay(); 
0D6AE:  CALL   442E
....................          printf("Funcionamiento.t5f.txt=\" Cancelado\""); 
0D6B2:  MOVLW  72
0D6B4:  MOVWF  FF6
0D6B6:  MOVLW  18
0D6B8:  MOVWF  FF7
0D6BA:  MOVLW  00
0D6BC:  MOVWF  FF8
0D6BE:  CALL   43FC
....................          SendDataDisplay(); 
0D6C2:  CALL   442E
....................          Desfogue=ON; 
0D6C6:  BSF    xF8.4
....................          suministroVapor=OFF; 
0D6C8:  BCF    xF8.1
....................          //if(!abrirPuertaL && !abrirPuertaS) 
....................             BombaVacio=OFF; 
0D6CA:  BCF    30.6
....................          if(PresionCamara<Atmosferica) 
0D6CC:  MOVLB  2
0D6CE:  MOVF   x95,F
0D6D0:  BNZ   D6DE
0D6D2:  MOVF   xC2,W
0D6D4:  SUBWF  x94,W
0D6D6:  BC    D6DE
....................             Aire=ON; 
0D6D8:  MOVLB  0
0D6DA:  BSF    xF8.5
....................          else 
0D6DC:  BRA    D6E2
....................             Aire=OFF; 
0D6DE:  MOVLB  0
0D6E0:  BCF    xF8.5
....................          aguaEnfriador=OFF; 
0D6E2:  BCF    30.5
....................          outVacio=OFF; 
0D6E4:  BCF    xF8.3
....................          Controlando=0; 
0D6E6:  MOVLB  2
0D6E8:  CLRF   x6C
....................          if(codigoAnt!=codigoAlarma){ 
0D6EA:  MOVF   xAF,W
0D6EC:  SUBWF  xB0,W
0D6EE:  BZ    D6FE
....................             codigoAnt=codigoAlarma; 
0D6F0:  MOVFF  2AF,2B0
....................             GuardaDatoCiclo(); 
0D6F4:  MOVLB  0
0D6F6:  CALL   734E
....................             incrementaCiclos(); 
0D6FA:  CALL   76FC
....................          } 
....................          if(!flagImprimir){ 
0D6FE:  MOVLB  1
0D700:  BTFSC  x09.4
0D702:  BRA    D726
....................             Imprime=26; 
0D704:  MOVLW  1A
0D706:  MOVLB  2
0D708:  MOVWF  xCC
....................             Envio_Esclavos(); 
0D70A:  MOVLB  0
0D70C:  CALL   59DA
....................             delay_ms(100); 
0D710:  MOVLW  64
0D712:  MOVLB  6
0D714:  MOVWF  xE1
0D716:  MOVLB  0
0D718:  CALL   21DE
....................             Imprime=10; 
0D71C:  MOVLW  0A
0D71E:  MOVLB  2
0D720:  MOVWF  xCC
....................             flagImprimir=1; 
0D722:  MOVLB  1
0D724:  BSF    x09.4
....................          } 
....................          if(PresionCamara<=Atmosferica+15 && PresionCamara>Atmosferica-10 && Temperatura<=Tapertura) 
0D726:  MOVLW  0F
0D728:  MOVLB  2
0D72A:  ADDWF  xC2,W
0D72C:  MOVF   x95,F
0D72E:  BNZ   D786
0D730:  SUBWF  x94,W
0D732:  BZ    D736
0D734:  BC    D786
0D736:  MOVLW  0A
0D738:  SUBWF  xC2,W
0D73A:  MOVF   x95,F
0D73C:  BNZ   D744
0D73E:  SUBWF  x94,W
0D740:  BZ    D786
0D742:  BNC   D786
0D744:  MOVLB  6
0D746:  CLRF   xE2
0D748:  MOVFF  27A,6E1
0D74C:  MOVLB  0
0D74E:  CALL   21A8
0D752:  MOVFF  23E,6D6
0D756:  MOVFF  23D,6D5
0D75A:  MOVFF  23C,6D4
0D75E:  MOVFF  23B,6D3
0D762:  MOVFF  03,6DA
0D766:  MOVFF  02,6D9
0D76A:  MOVFF  01,6D8
0D76E:  MOVFF  00,6D7
0D772:  CALL   283A
0D776:  BC    D780
0D778:  BTFSC  FD8.2
0D77A:  BRA    D780
0D77C:  MOVLB  2
0D77E:  BRA    D786
....................             Start=OFF; 
0D780:  MOVLB  1
0D782:  BCF    x04.5
0D784:  MOVLB  2
....................       }else if(AlarmaVacio){ // Alarma de Error de que genera el Vacio en el tiempo estipulado. 
0D786:  BRA    D9F6
0D788:  MOVLB  0
0D78A:  BTFSS  xFA.3
0D78C:  BRA    D882
....................          codigoAlarma=8; 
0D78E:  MOVLW  08
0D790:  MOVLB  2
0D792:  MOVWF  xAF
....................          printf("Funcionamiento.t4f.txt=\" Error Vacio\""); 
0D794:  MOVLW  96
0D796:  MOVWF  FF6
0D798:  MOVLW  18
0D79A:  MOVWF  FF7
0D79C:  MOVLW  00
0D79E:  MOVWF  FF8
0D7A0:  MOVLB  0
0D7A2:  CALL   43FC
....................          SendDataDisplay(); 
0D7A6:  CALL   442E
....................          printf("Funcionamiento.t5f.txt=\" Cancelado\""); 
0D7AA:  MOVLW  BC
0D7AC:  MOVWF  FF6
0D7AE:  MOVLW  18
0D7B0:  MOVWF  FF7
0D7B2:  MOVLW  00
0D7B4:  MOVWF  FF8
0D7B6:  CALL   43FC
....................          SendDataDisplay(); 
0D7BA:  CALL   442E
....................          Desfogue=ON; 
0D7BE:  BSF    xF8.4
....................          suministroVapor=OFF; 
0D7C0:  BCF    xF8.1
....................          //if(!abrirPuertaL && !abrirPuertaS) 
....................             BombaVacio=OFF; 
0D7C2:  BCF    30.6
....................          if(PresionCamara<Atmosferica) 
0D7C4:  MOVLB  2
0D7C6:  MOVF   x95,F
0D7C8:  BNZ   D7D6
0D7CA:  MOVF   xC2,W
0D7CC:  SUBWF  x94,W
0D7CE:  BC    D7D6
....................             Aire=ON; 
0D7D0:  MOVLB  0
0D7D2:  BSF    xF8.5
....................          else 
0D7D4:  BRA    D7DA
....................             Aire=OFF; 
0D7D6:  MOVLB  0
0D7D8:  BCF    xF8.5
....................          aguaEnfriador=OFF; 
0D7DA:  BCF    30.5
....................          outVacio=OFF; 
0D7DC:  BCF    xF8.3
....................          Controlando=0; 
0D7DE:  MOVLB  2
0D7E0:  CLRF   x6C
....................          if(codigoAnt!=codigoAlarma){ 
0D7E2:  MOVF   xAF,W
0D7E4:  SUBWF  xB0,W
0D7E6:  BZ    D7F6
....................             codigoAnt=codigoAlarma; 
0D7E8:  MOVFF  2AF,2B0
....................             GuardaDatoCiclo(); 
0D7EC:  MOVLB  0
0D7EE:  CALL   734E
....................             incrementaCiclos(); 
0D7F2:  CALL   76FC
....................          } 
....................           
....................          if(!flagImprimir){ 
0D7F6:  MOVLB  1
0D7F8:  BTFSC  x09.4
0D7FA:  BRA    D81E
....................             Imprime=27; 
0D7FC:  MOVLW  1B
0D7FE:  MOVLB  2
0D800:  MOVWF  xCC
....................             Envio_Esclavos(); 
0D802:  MOVLB  0
0D804:  CALL   59DA
....................             delay_ms(100); 
0D808:  MOVLW  64
0D80A:  MOVLB  6
0D80C:  MOVWF  xE1
0D80E:  MOVLB  0
0D810:  CALL   21DE
....................             Imprime=10; 
0D814:  MOVLW  0A
0D816:  MOVLB  2
0D818:  MOVWF  xCC
....................             flagImprimir=1; 
0D81A:  MOVLB  1
0D81C:  BSF    x09.4
....................          } 
....................          if(PresionCamara<=Atmosferica+15 && PresionCamara>Atmosferica-10 && Temperatura<=Tapertura) 
0D81E:  MOVLW  0F
0D820:  MOVLB  2
0D822:  ADDWF  xC2,W
0D824:  MOVF   x95,F
0D826:  BNZ   D87E
0D828:  SUBWF  x94,W
0D82A:  BZ    D82E
0D82C:  BC    D87E
0D82E:  MOVLW  0A
0D830:  SUBWF  xC2,W
0D832:  MOVF   x95,F
0D834:  BNZ   D83C
0D836:  SUBWF  x94,W
0D838:  BZ    D87E
0D83A:  BNC   D87E
0D83C:  MOVLB  6
0D83E:  CLRF   xE2
0D840:  MOVFF  27A,6E1
0D844:  MOVLB  0
0D846:  CALL   21A8
0D84A:  MOVFF  23E,6D6
0D84E:  MOVFF  23D,6D5
0D852:  MOVFF  23C,6D4
0D856:  MOVFF  23B,6D3
0D85A:  MOVFF  03,6DA
0D85E:  MOVFF  02,6D9
0D862:  MOVFF  01,6D8
0D866:  MOVFF  00,6D7
0D86A:  CALL   283A
0D86E:  BC    D878
0D870:  BTFSC  FD8.2
0D872:  BRA    D878
0D874:  MOVLB  2
0D876:  BRA    D87E
....................             Start=OFF; 
0D878:  MOVLB  1
0D87A:  BCF    x04.5
0D87C:  MOVLB  2
....................       }else if(AlarmaEmpaqueS || AlarmaEmpaqueL){ // Alarma de Error de que el empaque no se presuriza 
0D87E:  BRA    D9F6
0D880:  MOVLB  0
0D882:  BTFSC  xFA.5
0D884:  BRA    D88A
0D886:  BTFSS  xFA.4
0D888:  BRA    D9AC
....................          codigoAlarma=9; 
0D88A:  MOVLW  09
0D88C:  MOVLB  2
0D88E:  MOVWF  xAF
....................          printf("Funcionamiento.t4f.txt=\" Error Empaque\""); 
0D890:  MOVLW  E0
0D892:  MOVWF  FF6
0D894:  MOVLW  18
0D896:  MOVWF  FF7
0D898:  MOVLW  00
0D89A:  MOVWF  FF8
0D89C:  MOVLB  0
0D89E:  CALL   43FC
....................          SendDataDisplay(); 
0D8A2:  CALL   442E
....................          printf("Funcionamiento.t5f.txt=\" Cancelado\""); 
0D8A6:  MOVLW  08
0D8A8:  MOVWF  FF6
0D8AA:  MOVLW  19
0D8AC:  MOVWF  FF7
0D8AE:  MOVLW  00
0D8B0:  MOVWF  FF8
0D8B2:  CALL   43FC
....................          SendDataDisplay(); 
0D8B6:  CALL   442E
....................          if(AlarmaEmpaqueL && PresionCamara<Atmosferica+4) 
0D8BA:  BTFSS  xFA.4
0D8BC:  BRA    D8DC
0D8BE:  MOVLW  04
0D8C0:  MOVLB  2
0D8C2:  ADDWF  xC2,W
0D8C4:  MOVF   x95,F
0D8C6:  BTFSC  FD8.2
0D8C8:  BRA    D8CE
0D8CA:  MOVLB  0
0D8CC:  BRA    D8DC
0D8CE:  SUBWF  x94,W
0D8D0:  BTFSS  FD8.0
0D8D2:  BRA    D8D8
0D8D4:  MOVLB  0
0D8D6:  BRA    D8DC
....................             empaqueLimpio=OFF; 
0D8D8:  BCF    30.7
0D8DA:  MOVLB  0
....................          if(AlarmaEmpaqueS && PresionCamara<Atmosferica+4) 
0D8DC:  BTFSS  xFA.5
0D8DE:  BRA    D8FE
0D8E0:  MOVLW  04
0D8E2:  MOVLB  2
0D8E4:  ADDWF  xC2,W
0D8E6:  MOVF   x95,F
0D8E8:  BTFSC  FD8.2
0D8EA:  BRA    D8F0
0D8EC:  MOVLB  0
0D8EE:  BRA    D8FE
0D8F0:  SUBWF  x94,W
0D8F2:  BTFSS  FD8.0
0D8F4:  BRA    D8FA
0D8F6:  MOVLB  0
0D8F8:  BRA    D8FE
....................             empaqueSucio=OFF; 
0D8FA:  MOVLB  0
0D8FC:  BCF    xF8.0
....................          Desfogue=ON; 
0D8FE:  BSF    xF8.4
....................          suministroVapor=OFF; 
0D900:  BCF    xF8.1
....................          //if(!abrirPuertaL && !abrirPuertaS) 
....................             BombaVacio=OFF; 
0D902:  BCF    30.6
....................          Aire=OFF; 
0D904:  BCF    xF8.5
....................          aguaEnfriador=OFF; 
0D906:  BCF    30.5
....................          outVacio=OFF; 
0D908:  BCF    xF8.3
....................          Controlando=0; 
0D90A:  MOVLB  2
0D90C:  CLRF   x6C
....................          if(codigoAnt!=codigoAlarma){ 
0D90E:  MOVF   xAF,W
0D910:  SUBWF  xB0,W
0D912:  BZ    D922
....................             codigoAnt=codigoAlarma; 
0D914:  MOVFF  2AF,2B0
....................             GuardaDatoCiclo(); 
0D918:  MOVLB  0
0D91A:  CALL   734E
....................             incrementaCiclos(); 
0D91E:  CALL   76FC
....................          } 
....................           
....................          if(!flagImprimir){ 
0D922:  MOVLB  1
0D924:  BTFSC  x09.4
0D926:  BRA    D94A
....................             Imprime=29; 
0D928:  MOVLW  1D
0D92A:  MOVLB  2
0D92C:  MOVWF  xCC
....................             Envio_Esclavos(); 
0D92E:  MOVLB  0
0D930:  CALL   59DA
....................             delay_ms(100); 
0D934:  MOVLW  64
0D936:  MOVLB  6
0D938:  MOVWF  xE1
0D93A:  MOVLB  0
0D93C:  CALL   21DE
....................             Imprime=10; 
0D940:  MOVLW  0A
0D942:  MOVLB  2
0D944:  MOVWF  xCC
....................             flagImprimir=1; 
0D946:  MOVLB  1
0D948:  BSF    x09.4
....................          } 
....................          if(PresionCamara<=Atmosferica+15 && PresionCamara>Atmosferica-10 && Temperatura<=Tapertura) 
0D94A:  MOVLW  0F
0D94C:  MOVLB  2
0D94E:  ADDWF  xC2,W
0D950:  MOVF   x95,F
0D952:  BNZ   D9AA
0D954:  SUBWF  x94,W
0D956:  BZ    D95A
0D958:  BC    D9AA
0D95A:  MOVLW  0A
0D95C:  SUBWF  xC2,W
0D95E:  MOVF   x95,F
0D960:  BNZ   D968
0D962:  SUBWF  x94,W
0D964:  BZ    D9AA
0D966:  BNC   D9AA
0D968:  MOVLB  6
0D96A:  CLRF   xE2
0D96C:  MOVFF  27A,6E1
0D970:  MOVLB  0
0D972:  CALL   21A8
0D976:  MOVFF  23E,6D6
0D97A:  MOVFF  23D,6D5
0D97E:  MOVFF  23C,6D4
0D982:  MOVFF  23B,6D3
0D986:  MOVFF  03,6DA
0D98A:  MOVFF  02,6D9
0D98E:  MOVFF  01,6D8
0D992:  MOVFF  00,6D7
0D996:  CALL   283A
0D99A:  BC    D9A4
0D99C:  BTFSC  FD8.2
0D99E:  BRA    D9A4
0D9A0:  MOVLB  2
0D9A2:  BRA    D9AA
....................             Start=OFF; 
0D9A4:  MOVLB  1
0D9A6:  BCF    x04.5
0D9A8:  MOVLB  2
....................       }else if(!Start){ // Inicio o pausa de Ciclo 
0D9AA:  BRA    D9F6
0D9AC:  MOVLB  1
0D9AE:  BTFSC  x04.5
0D9B0:  BRA    D9F8
....................          printf("Funcionamiento.t4f.txt=\" Ciclo no Iniciado\""); 
0D9B2:  MOVLW  2C
0D9B4:  MOVWF  FF6
0D9B6:  MOVLW  19
0D9B8:  MOVWF  FF7
0D9BA:  MOVLW  00
0D9BC:  MOVWF  FF8
0D9BE:  MOVLB  0
0D9C0:  CALL   43FC
....................          SendDataDisplay(); 
0D9C4:  CALL   442E
....................          printf("Funcionamiento.t5f.txt=\" Pausado\""); 
0D9C8:  MOVLW  58
0D9CA:  MOVWF  FF6
0D9CC:  MOVLW  19
0D9CE:  MOVWF  FF7
0D9D0:  MOVLW  00
0D9D2:  MOVWF  FF8
0D9D4:  CALL   43FC
....................          SendDataDisplay(); 
0D9D8:  CALL   442E
....................          Desfogue=OFF; 
0D9DC:  BCF    xF8.4
....................          suministroVapor=OFF; 
0D9DE:  BCF    xF8.1
....................          //if(!abrirPuertaL && !abrirPuertaS) 
....................             BombaVacio=OFF; 
0D9E0:  BCF    30.6
....................          Aire=OFF; 
0D9E2:  BCF    xF8.5
....................          aguaEnfriador=OFF; 
0D9E4:  BCF    30.5
....................          outVacio=OFF; 
0D9E6:  BCF    xF8.3
....................          Controlando=0; 
0D9E8:  MOVLB  2
0D9EA:  CLRF   x6C
....................          EstadoBuzzer=OFF; 
0D9EC:  MOVLB  1
0D9EE:  BCF    x06.4
....................          codigoAlarma=19; 
0D9F0:  MOVLW  13
0D9F2:  MOVLB  2
0D9F4:  MOVWF  xAF
0D9F6:  MOVLB  1
....................       } 
....................    }else if(Start){ 
0D9F8:  GOTO   E4B6
0D9FC:  BTFSS  x04.5
0D9FE:  GOTO   E4B6
....................       printf("b2.pic=85"); 
0DA02:  MOVLW  7A
0DA04:  MOVWF  FF6
0DA06:  MOVLW  19
0DA08:  MOVWF  FF7
0DA0A:  MOVLW  00
0DA0C:  MOVWF  FF8
0DA0E:  MOVLB  0
0DA10:  CALL   43FC
....................       SendDataDisplay(); 
0DA14:  CALL   442E
....................       if(flagImprime){ 
0DA18:  MOVLB  2
0DA1A:  BTFSS  x69.0
0DA1C:  BRA    DA3C
....................          Imprime=5; 
0DA1E:  MOVLW  05
0DA20:  MOVWF  xCC
....................          Envio_Esclavos(); 
0DA22:  MOVLB  0
0DA24:  CALL   59DA
....................          delay_ms(100); 
0DA28:  MOVLW  64
0DA2A:  MOVLB  6
0DA2C:  MOVWF  xE1
0DA2E:  MOVLB  0
0DA30:  CALL   21DE
....................          Imprime=10; 
0DA34:  MOVLW  0A
0DA36:  MOVLB  2
0DA38:  MOVWF  xCC
....................          flagImprime=0; 
0DA3A:  BCF    x69.0
....................       } 
....................        
....................       if(!Fugas){//Si selecciono un ciclo diferente al test de fugas 
0DA3C:  MOVLB  1
0DA3E:  BTFSC  x07.6
0DA40:  GOTO   E1AA
....................          EstadoBuzzer=OFF; 
0DA44:  BCF    x06.4
....................          IniciaCiclo=ON; 
0DA46:  BSF    x03.6
....................        
....................       if(!Precalentamiento){  
0DA48:  BTFSC  x07.7
0DA4A:  BRA    DAAA
....................          SuministroVapor=ON; 
0DA4C:  MOVLB  0
0DA4E:  BSF    xF8.1
....................          aguaEnfriador=OFF; 
0DA50:  BCF    30.5
....................          Paso=OFF; 
0DA52:  BCF    xF8.2
....................          Desfogue=OFF; 
0DA54:  BCF    xF8.4
....................          printf("Funcionamiento.t4f.txt=\" Ninguna\""); 
0DA56:  MOVLW  84
0DA58:  MOVWF  FF6
0DA5A:  MOVLW  19
0DA5C:  MOVWF  FF7
0DA5E:  MOVLW  00
0DA60:  MOVWF  FF8
0DA62:  CALL   43FC
....................          SendDataDisplay(); 
0DA66:  CALL   442E
....................          printf("Funcionamiento.t5f.txt=\" PreCalentando\""); 
0DA6A:  MOVLW  A6
0DA6C:  MOVWF  FF6
0DA6E:  MOVLW  19
0DA70:  MOVWF  FF7
0DA72:  MOVLW  00
0DA74:  MOVWF  FF8
0DA76:  CALL   43FC
....................          SendDataDisplay(); 
0DA7A:  CALL   442E
....................          ControlaPresion();  
0DA7E:  CALL   778E
....................          Controlando=0; 
0DA82:  MOVLB  2
0DA84:  CLRF   x6C
....................          IniciaVacio=OFF; 
0DA86:  MOVLB  1
0DA88:  BCF    x08.0
....................          IniciaVacio2=OFF; 
0DA8A:  BCF    x08.1
....................          codigoAlarma=10; 
0DA8C:  MOVLW  0A
0DA8E:  MOVLB  2
0DA90:  MOVWF  xAF
....................          if(codigoAnt!=codigoAlarma){ 
0DA92:  MOVF   xAF,W
0DA94:  SUBWF  xB0,W
0DA96:  BZ    DAA4
....................             codigoAnt=codigoAlarma; 
0DA98:  MOVFF  2AF,2B0
....................             GuardaDatoCiclo(); 
0DA9C:  MOVLB  0
0DA9E:  CALL   734E
0DAA2:  MOVLB  2
....................          } 
....................       }else{ 
0DAA4:  GOTO   E1A6
0DAA8:  MOVLB  1
....................          if(!Vacio){ //Si no ha realizado los pulsos de vacio 
0DAAA:  BTFSC  x08.2
0DAAC:  BRA    DC86
....................             codigoAlarma=11; 
0DAAE:  MOVLW  0B
0DAB0:  MOVLB  2
0DAB2:  MOVWF  xAF
....................             if(codigoAnt!=codigoAlarma){ 
0DAB4:  MOVF   xAF,W
0DAB6:  SUBWF  xB0,W
0DAB8:  BZ    DAC4
....................                codigoAnt=codigoAlarma; 
0DABA:  MOVFF  2AF,2B0
....................                GuardaDatoCiclo();                
0DABE:  MOVLB  0
0DAC0:  CALL   734E
....................             } 
....................             if(!flag_vac){//Ciclo inicial para purga de Bomba 
0DAC4:  MOVLB  1
0DAC6:  BTFSC  x08.3
0DAC8:  BRA    DAF8
....................                flag_vac=ON; 
0DACA:  BSF    x08.3
....................                outVacio=OFF; 
0DACC:  MOVLB  0
0DACE:  BCF    xF8.3
....................                Desfogue=OFF; 
0DAD0:  BCF    xF8.4
....................                Aire=OFF; 
0DAD2:  BCF    xF8.5
....................                //Paso=OFF; 
....................                aguaEnfriador=ON; 
0DAD4:  BSF    30.5
....................                delay_ms(70); 
0DAD6:  MOVLW  46
0DAD8:  MOVLB  6
0DADA:  MOVWF  xE1
0DADC:  MOVLB  0
0DADE:  CALL   21DE
....................                if(ReservorioLleno) 
0DAE2:  MOVLB  1
0DAE4:  BTFSS  x0A.1
0DAE6:  BRA    DAEC
....................                   BombaVacio=ON; 
0DAE8:  BSF    30.6
....................                else 
0DAEA:  BRA    DAEE
....................                   BombaVacio=OFF; 
0DAEC:  BCF    30.6
....................                IniciaVacio2=ON; 
0DAEE:  BSF    x08.1
....................                PulsoPositivo=10; //Prueba para ver rendimiento de bomba de vacio************ 
0DAF0:  MOVLW  0A
0DAF2:  MOVLB  2
0DAF4:  MOVWF  xC3
0DAF6:  MOVLB  1
....................             } 
....................             printf("Funcionamiento.t4f.txt=\" Ninguna\""); 
0DAF8:  MOVLW  CE
0DAFA:  MOVWF  FF6
0DAFC:  MOVLW  19
0DAFE:  MOVWF  FF7
0DB00:  MOVLW  00
0DB02:  MOVWF  FF8
0DB04:  MOVLB  0
0DB06:  CALL   43FC
....................             SendDataDisplay(); 
0DB0A:  CALL   442E
....................             ControlaPresion(); 
0DB0E:  CALL   778E
....................             IniciaVacio=ON; 
0DB12:  MOVLB  1
0DB14:  BSF    x08.0
....................                 
....................             if(PresionCamara>NivelVacio && PulsoPositivo==10){//Pulso Negativo 
0DB16:  MOVLB  2
0DB18:  MOVF   x95,F
0DB1A:  BNZ   DB22
0DB1C:  MOVF   x94,W
0DB1E:  SUBWF  xC1,W
0DB20:  BC    DB94
0DB22:  MOVF   xC3,W
0DB24:  SUBLW  0A
0DB26:  BNZ   DB94
....................                flag_vacio=1; 
0DB28:  MOVLB  1
0DB2A:  BSF    x08.4
....................                if(ReservorioLleno) 
0DB2C:  BTFSS  x0A.1
0DB2E:  BRA    DB34
....................                   BombaVacio=ON; 
0DB30:  BSF    30.6
....................                else 
0DB32:  BRA    DB36
....................                   BombaVacio=OFF; 
0DB34:  BCF    30.6
....................                outVacio=ON; 
0DB36:  MOVLB  0
0DB38:  BSF    xF8.3
....................                Desfogue=OFF; 
0DB3A:  BCF    xF8.4
....................                Aire=OFF;                      
0DB3C:  BCF    xF8.5
....................                Paso=OFF; 
0DB3E:  BCF    xF8.2
....................                if(PulsosVacio>=2) 
0DB40:  MOVLB  2
0DB42:  MOVF   xC4,W
0DB44:  SUBLW  01
0DB46:  BC    DB4C
....................                   aguaEnfriador=ON; 
0DB48:  BSF    30.5
....................                else 
0DB4A:  BRA    DB4E
....................                   aguaEnfriador=OFF; 
0DB4C:  BCF    30.5
....................                if(flag_pulso==0){ 
0DB4E:  MOVLB  1
0DB50:  BTFSC  x08.5
0DB52:  BRA    DB5C
....................                   PulsosVacio++; 
0DB54:  MOVLB  2
0DB56:  INCF   xC4,F
....................                   flag_pulso=1; 
0DB58:  MOVLB  1
0DB5A:  BSF    x08.5
....................                } 
....................                printf("Funcionamiento.t5f.txt=\" Pulso de Vacio %u\"",PulsosVacio); 
0DB5C:  MOVLW  F0
0DB5E:  MOVWF  FF6
0DB60:  MOVLW  19
0DB62:  MOVWF  FF7
0DB64:  MOVLW  00
0DB66:  MOVWF  FF8
0DB68:  MOVLW  28
0DB6A:  MOVLB  6
0DB6C:  MOVWF  xD4
0DB6E:  MOVLB  0
0DB70:  CALL   5E96
0DB74:  MOVFF  2C4,6D4
0DB78:  MOVLW  1B
0DB7A:  MOVLB  6
0DB7C:  MOVWF  xD5
0DB7E:  MOVLB  0
0DB80:  CALL   5F1A
0DB84:  MOVLW  22
0DB86:  BTFSS  F9E.4
0DB88:  BRA    DB86
0DB8A:  MOVWF  FAD
....................                SendDataDisplay(); 
0DB8C:  CALL   442E
....................             }else{ 
0DB90:  BRA    DB98
0DB92:  MOVLB  2
....................                PulsoPositivo=5; 
0DB94:  MOVLW  05
0DB96:  MOVWF  xC3
....................             } 
....................              
....................             if(PulsosVacio>=CantidadPulsos && PulsoPositivo==5){//Si realiza los pulsos de vacio, continua con el proceso de calentamiento 
0DB98:  MOVLB  2
0DB9A:  MOVF   x7C,F
0DB9C:  BNZ   DBCA
0DB9E:  MOVF   x7B,W
0DBA0:  SUBWF  xC4,W
0DBA2:  BNC   DBCA
0DBA4:  MOVF   xC3,W
0DBA6:  SUBLW  05
0DBA8:  BNZ   DBCA
....................                Vacio=ON; 
0DBAA:  MOVLB  1
0DBAC:  BSF    x08.2
....................                outVacio=OFF; 
0DBAE:  MOVLB  0
0DBB0:  BCF    xF8.3
....................                BombaVacio=OFF; 
0DBB2:  BCF    30.6
....................                outVacio=OFF; 
0DBB4:  BCF    xF8.3
....................                Desfogue=OFF; 
0DBB6:  BCF    xF8.4
....................                Aire=OFF;                                  
0DBB8:  BCF    xF8.5
....................                IniciaVacio=OFF; 
0DBBA:  MOVLB  1
0DBBC:  BCF    x08.0
....................                Paso=ON; 
0DBBE:  MOVLB  0
0DBC0:  BSF    xF8.2
....................                aguaEnfriador=OFF; 
0DBC2:  BCF    30.5
....................                PulsoPositivo=10; 
0DBC4:  MOVLW  0A
0DBC6:  MOVLB  2
0DBC8:  MOVWF  xC3
....................             } 
....................                
....................             if(PulsoPositivo==5){//Pulso Positivo 
0DBCA:  MOVF   xC3,W
0DBCC:  SUBLW  05
0DBCE:  BNZ   DC3C
....................                tvacio=0; 
0DBD0:  CLRF   x9D
0DBD2:  CLRF   x9C
....................                flag_pulso=0; 
0DBD4:  MOVLB  1
0DBD6:  BCF    x08.5
....................                printf("Funcionamiento.t5f.txt=\" Pulso Positivo %u\"",PulsosVacio); 
0DBD8:  MOVLW  1C
0DBDA:  MOVWF  FF6
0DBDC:  MOVLW  1A
0DBDE:  MOVWF  FF7
0DBE0:  MOVLW  00
0DBE2:  MOVWF  FF8
0DBE4:  MOVLW  28
0DBE6:  MOVLB  6
0DBE8:  MOVWF  xD4
0DBEA:  MOVLB  0
0DBEC:  CALL   5E96
0DBF0:  MOVFF  2C4,6D4
0DBF4:  MOVLW  1B
0DBF6:  MOVLB  6
0DBF8:  MOVWF  xD5
0DBFA:  MOVLB  0
0DBFC:  CALL   5F1A
0DC00:  MOVLW  22
0DC02:  BTFSS  F9E.4
0DC04:  BRA    DC02
0DC06:  MOVWF  FAD
....................                SendDataDisplay(); 
0DC08:  CALL   442E
....................                if(ReservorioLleno) 
0DC0C:  MOVLB  1
0DC0E:  BTFSS  x0A.1
0DC10:  BRA    DC16
....................                   BombaVacio=ON; 
0DC12:  BSF    30.6
....................                else 
0DC14:  BRA    DC18
....................                   BombaVacio=OFF; 
0DC16:  BCF    30.6
....................                outVacio=OFF; 
0DC18:  MOVLB  0
0DC1A:  BCF    xF8.3
....................                Desfogue=OFF; 
0DC1C:  BCF    xF8.4
....................                Aire=OFF;                      
0DC1E:  BCF    xF8.5
....................                Paso=ON;      
0DC20:  BSF    xF8.2
....................                AguaEnfriador=OFF; 
0DC22:  BCF    30.5
....................                if(PresionCamara>=Atmosferica+30){ 
0DC24:  MOVLW  1E
0DC26:  MOVLB  2
0DC28:  ADDWF  xC2,W
0DC2A:  MOVF   x95,F
0DC2C:  BNZ   DC32
0DC2E:  SUBWF  x94,W
0DC30:  BNC   DC3C
....................                   Paso=OFF; 
0DC32:  MOVLB  0
0DC34:  BCF    xF8.2
....................                   PulsoPositivo=10; 
0DC36:  MOVLW  0A
0DC38:  MOVLB  2
0DC3A:  MOVWF  xC3
....................                }   
....................             } 
....................                 
....................             if(tbomba>=120 && PulsosVacio==0){//Si no se ha generado ningun pulso de vacio despues de 120 segundos se genera alarma 
0DC3C:  MOVF   x9B,F
0DC3E:  BNZ   DC46
0DC40:  MOVF   x9A,W
0DC42:  SUBLW  77
0DC44:  BC    DC66
0DC46:  MOVF   xC4,F
0DC48:  BNZ   DC66
....................                if(PresionCamara>Atmosferica){ 
0DC4A:  MOVF   x95,F
0DC4C:  BNZ   DC54
0DC4E:  MOVF   x94,W
0DC50:  SUBWF  xC2,W
0DC52:  BC    DC5C
....................                   AlarmaBomba=ON; 
0DC54:  MOVLB  0
0DC56:  BSF    xFA.6
....................                }else{ 
0DC58:  BRA    DC66
0DC5A:  MOVLB  2
....................                   tbomba=0; 
0DC5C:  CLRF   x9B
0DC5E:  CLRF   x9A
....................                   IniciaVacio2=OFF; 
0DC60:  MOVLB  1
0DC62:  BCF    x08.1
0DC64:  MOVLB  0
....................                } 
....................              } 
....................                 
....................             if(tvacio>=TiempoVacio){//Si excede el tiempo maximo para generar los pulsos de vacio genera alarma             
0DC66:  MOVLB  0
0DC68:  MOVF   xFE,W
0DC6A:  MOVLB  2
0DC6C:  SUBWF  x9D,W
0DC6E:  BNC   DC82
0DC70:  BNZ   DC7C
0DC72:  MOVLB  0
0DC74:  MOVF   xFD,W
0DC76:  MOVLB  2
0DC78:  SUBWF  x9C,W
0DC7A:  BNC   DC82
....................                AlarmaVacio=ON; 
0DC7C:  MOVLB  0
0DC7E:  BSF    xFA.3
0DC80:  MOVLB  2
....................             } 
....................          }else{ 
0DC82:  BRA    E1A6
0DC84:  MOVLB  1
....................             IniciaVacio=OFF;         
0DC86:  BCF    x08.0
....................             if(Temperatura>=((float)Setpoint-0.3)){ 
0DC88:  MOVLB  6
0DC8A:  CLRF   xE2
0DC8C:  MOVFF  283,6E1
0DC90:  MOVLB  0
0DC92:  CALL   21A8
0DC96:  MOVFF  00,6CF
0DC9A:  MOVFF  01,6D0
0DC9E:  MOVFF  02,6D1
0DCA2:  MOVFF  03,6D2
0DCA6:  BSF    FD8.1
0DCA8:  MOVFF  03,6E4
0DCAC:  MOVFF  02,6E3
0DCB0:  MOVFF  01,6E2
0DCB4:  MOVFF  00,6E1
0DCB8:  MOVLW  9A
0DCBA:  MOVLB  6
0DCBC:  MOVWF  xE8
0DCBE:  MOVLW  99
0DCC0:  MOVWF  xE7
0DCC2:  MOVLW  19
0DCC4:  MOVWF  xE6
0DCC6:  MOVLW  7D
0DCC8:  MOVWF  xE5
0DCCA:  MOVLB  0
0DCCC:  CALL   2364
0DCD0:  MOVFF  03,6D6
0DCD4:  MOVFF  02,6D5
0DCD8:  MOVFF  01,6D4
0DCDC:  MOVFF  00,6D3
0DCE0:  MOVFF  23E,6DA
0DCE4:  MOVFF  23D,6D9
0DCE8:  MOVFF  23C,6D8
0DCEC:  MOVFF  23B,6D7
0DCF0:  CALL   283A
0DCF4:  BC    DCF8
0DCF6:  BNZ   DCFC
....................                Esterilizando=ON; 
0DCF8:  MOVLB  1
0DCFA:  BSF    x03.7
....................             } 
....................              
....................             if(Temperatura<((float)Setpoint-0.9) && !Desfogando){ 
0DCFC:  MOVLB  6
0DCFE:  CLRF   xE2
0DD00:  MOVFF  283,6E1
0DD04:  MOVLB  0
0DD06:  CALL   21A8
0DD0A:  MOVFF  00,6CF
0DD0E:  MOVFF  01,6D0
0DD12:  MOVFF  02,6D1
0DD16:  MOVFF  03,6D2
0DD1A:  BSF    FD8.1
0DD1C:  MOVFF  03,6E4
0DD20:  MOVFF  02,6E3
0DD24:  MOVFF  01,6E2
0DD28:  MOVFF  00,6E1
0DD2C:  MOVLW  66
0DD2E:  MOVLB  6
0DD30:  MOVWF  xE8
0DD32:  MOVWF  xE7
0DD34:  MOVWF  xE6
0DD36:  MOVLW  7E
0DD38:  MOVWF  xE5
0DD3A:  MOVLB  0
0DD3C:  CALL   2364
0DD40:  MOVFF  23E,6D6
0DD44:  MOVFF  23D,6D5
0DD48:  MOVFF  23C,6D4
0DD4C:  MOVFF  23B,6D3
0DD50:  MOVFF  03,6DA
0DD54:  MOVFF  02,6D9
0DD58:  MOVFF  01,6D8
0DD5C:  MOVFF  00,6D7
0DD60:  CALL   283A
0DD64:  BNC   DD72
0DD66:  MOVLB  1
0DD68:  BTFSS  x04.2
0DD6A:  BRA    DD70
0DD6C:  MOVLB  0
0DD6E:  BRA    DD72
....................                Esterilizando=OFF; 
0DD70:  BCF    x03.7
....................             } 
....................              
....................             if(!Esterilizando){ 
0DD72:  MOVLB  1
0DD74:  BTFSC  x03.7
0DD76:  BRA    DDD8
....................                codigoAlarma=12; 
0DD78:  MOVLW  0C
0DD7A:  MOVLB  2
0DD7C:  MOVWF  xAF
....................                if(codigoAnt!=codigoAlarma){ 
0DD7E:  MOVF   xAF,W
0DD80:  SUBWF  xB0,W
0DD82:  BZ    DD8E
....................                   codigoAnt=codigoAlarma; 
0DD84:  MOVFF  2AF,2B0
....................                   GuardaDatoCiclo();                   
0DD88:  MOVLB  0
0DD8A:  CALL   734E
....................                } 
....................                flag_vac=OFF; 
0DD8E:  MOVLB  1
0DD90:  BCF    x08.3
....................                printf("Funcionamiento.t4f.txt=\" Ninguna\""); 
0DD92:  MOVLW  48
0DD94:  MOVWF  FF6
0DD96:  MOVLW  1A
0DD98:  MOVWF  FF7
0DD9A:  MOVLW  00
0DD9C:  MOVWF  FF8
0DD9E:  MOVLB  0
0DDA0:  CALL   43FC
....................                SendDataDisplay(); 
0DDA4:  CALL   442E
....................                printf("Funcionamiento.t5f.txt=\" Calentando\""); 
0DDA8:  MOVLW  6A
0DDAA:  MOVWF  FF6
0DDAC:  MOVLW  1A
0DDAE:  MOVWF  FF7
0DDB0:  MOVLW  00
0DDB2:  MOVWF  FF8
0DDB4:  CALL   43FC
....................                SendDataDisplay(); 
0DDB8:  CALL   442E
....................                Controlando=1; 
0DDBC:  MOVLW  01
0DDBE:  MOVLB  2
0DDC0:  MOVWF  x6C
....................                Controla(); 
0DDC2:  MOVLB  0
0DDC4:  CALL   781C
....................                Paso=ON; 
0DDC8:  BSF    xF8.2
....................                BombaVacio=OFF; 
0DDCA:  BCF    30.6
....................                outVacio=OFF; 
0DDCC:  BCF    xF8.3
....................                Aire=OFF; 
0DDCE:  BCF    xF8.5
....................                Desfogue=OFF; 
0DDD0:  BCF    xF8.4
....................                aguaEnfriador=OFF; 
0DDD2:  BCF    30.5
....................             }else{ 
0DDD4:  BRA    E1A4
0DDD6:  MOVLB  1
....................                TiempoCiclo=0; 
0DDD8:  CLRF   x0C
0DDDA:  CLRF   x0B
....................                if(mEst==0 && sEst==0){  
0DDDC:  MOVF   x22,F
0DDDE:  BTFSS  FD8.2
0DDE0:  BRA    E156
0DDE2:  MOVF   x21,F
0DDE4:  BTFSS  FD8.2
0DDE6:  BRA    E156
....................                   if(desfoguelento){ 
0DDE8:  BTFSS  x0A.3
0DDEA:  BRA    DF32
....................                      Controlando=0; 
0DDEC:  MOVLB  2
0DDEE:  CLRF   x6C
....................                      if(PresionCamara<(Atmosferica+2)){ 
0DDF0:  MOVLW  02
0DDF2:  ADDWF  xC2,W
0DDF4:  MOVF   x95,F
0DDF6:  BNZ   DEC6
0DDF8:  SUBWF  x94,W
0DDFA:  BC    DEC6
....................                         Secando=OFF; 
0DDFC:  MOVLB  1
0DDFE:  BCF    x04.0
....................                         DesfogueSuave=OFF; 
0DE00:  BCF    x04.3
....................                         //if(!abrirPuertaL){ 
....................                            BombaVacio=OFF; 
0DE02:  BCF    30.6
....................                         //} 
....................                         outVacio=OFF; 
0DE04:  MOVLB  0
0DE06:  BCF    xF8.3
....................                         Aire=OFF; 
0DE08:  BCF    xF8.5
....................                         Desfogue=ON; 
0DE0A:  BSF    xF8.4
....................                         Paso=OFF; 
0DE0C:  BCF    xF8.2
....................                         //Suministro_off; 
....................                         aguaEnfriador=OFF; 
0DE0E:  BCF    30.5
....................                         if(Temperatura<=Tapertura){ 
0DE10:  MOVLB  6
0DE12:  CLRF   xE2
0DE14:  MOVFF  27A,6E1
0DE18:  MOVLB  0
0DE1A:  CALL   21A8
0DE1E:  MOVFF  23E,6D6
0DE22:  MOVFF  23D,6D5
0DE26:  MOVFF  23C,6D4
0DE2A:  MOVFF  23B,6D3
0DE2E:  MOVFF  03,6DA
0DE32:  MOVFF  02,6D9
0DE36:  MOVFF  01,6D8
0DE3A:  MOVFF  00,6D7
0DE3E:  CALL   283A
0DE42:  BC    DE46
0DE44:  BNZ   DEBE
....................                            ActivaAlarma(2); 
0DE46:  MOVLW  02
0DE48:  MOVLB  6
0DE4A:  MOVWF  xCF
0DE4C:  MOVLB  0
0DE4E:  CALL   5D52
....................                            printf("Funcionamiento.t4f.txt=\" Ninguna\""); 
0DE52:  MOVLW  90
0DE54:  MOVWF  FF6
0DE56:  MOVLW  1A
0DE58:  MOVWF  FF7
0DE5A:  MOVLW  00
0DE5C:  MOVWF  FF8
0DE5E:  CALL   43FC
....................                            SendDataDisplay(); 
0DE62:  CALL   442E
....................                            printf("Funcionamiento.t5f.txt=\" Finalizado\""); 
0DE66:  MOVLW  B2
0DE68:  MOVWF  FF6
0DE6A:  MOVLW  1A
0DE6C:  MOVWF  FF7
0DE6E:  MOVLW  00
0DE70:  MOVWF  FF8
0DE72:  CALL   43FC
....................                            SendDataDisplay(); 
0DE76:  CALL   442E
....................                            Finalizo=ON; 
0DE7A:  MOVLB  1
0DE7C:  BSF    x07.0
....................                            codigoAlarma=14; 
0DE7E:  MOVLW  0E
0DE80:  MOVLB  2
0DE82:  MOVWF  xAF
....................                            if(codigoAnt!=codigoAlarma){ 
0DE84:  MOVF   xAF,W
0DE86:  SUBWF  xB0,W
0DE88:  BZ    DE94
....................                               codigoAnt=codigoAlarma; 
0DE8A:  MOVFF  2AF,2B0
....................                               GuardaDatoCiclo();                   
0DE8E:  MOVLB  0
0DE90:  CALL   734E
....................                            }                           
....................                            if(!flagImprimir){//Imprime Ciclo Finalizado 
0DE94:  MOVLB  1
0DE96:  BTFSC  x09.4
0DE98:  BRA    DEBC
....................                               Imprime=28; 
0DE9A:  MOVLW  1C
0DE9C:  MOVLB  2
0DE9E:  MOVWF  xCC
....................                               Envio_Esclavos(); 
0DEA0:  MOVLB  0
0DEA2:  CALL   59DA
....................                               delay_ms(100); 
0DEA6:  MOVLW  64
0DEA8:  MOVLB  6
0DEAA:  MOVWF  xE1
0DEAC:  MOVLB  0
0DEAE:  CALL   21DE
....................                               Imprime=10; 
0DEB2:  MOVLW  0A
0DEB4:  MOVLB  2
0DEB6:  MOVWF  xCC
....................                               flagImprimir=1; 
0DEB8:  MOVLB  1
0DEBA:  BSF    x09.4
0DEBC:  MOVLB  0
....................                            } 
....................                         } 
....................                         incrementaCiclos(); 
0DEBE:  CALL   76FC
....................                      }else if(PresionCamara>(Atmosferica+10)){ 
0DEC2:  BRA    DF2C
0DEC4:  MOVLB  2
0DEC6:  MOVLW  0A
0DEC8:  ADDWF  xC2,W
0DECA:  MOVF   x95,F
0DECC:  BNZ   DED4
0DECE:  SUBWF  x94,W
0DED0:  BZ    DF2E
0DED2:  BNC   DF2E
....................                         codigoAlarma=13; 
0DED4:  MOVLW  0D
0DED6:  MOVWF  xAF
....................                         if(codigoAnt!=codigoAlarma){ 
0DED8:  MOVF   xAF,W
0DEDA:  SUBWF  xB0,W
0DEDC:  BZ    DEE8
....................                            codigoAnt=codigoAlarma; 
0DEDE:  MOVFF  2AF,2B0
....................                            GuardaDatoCiclo();                   
0DEE2:  MOVLB  0
0DEE4:  CALL   734E
....................                         } 
....................                         Desfogando=ON; 
0DEE8:  MOVLB  1
0DEEA:  BSF    x04.2
....................                         DesfogueSuave=ON; 
0DEEC:  BSF    x04.3
....................                         printf("Funcionamiento.t4f.txt=\" Ninguna\""); 
0DEEE:  MOVLW  D8
0DEF0:  MOVWF  FF6
0DEF2:  MOVLW  1A
0DEF4:  MOVWF  FF7
0DEF6:  MOVLW  00
0DEF8:  MOVWF  FF8
0DEFA:  MOVLB  0
0DEFC:  CALL   43FC
....................                         SendDataDisplay(); 
0DF00:  CALL   442E
....................                         printf("Funcionamiento.t5f.txt=\" Despresurizando\""); 
0DF04:  MOVLW  FA
0DF06:  MOVWF  FF6
0DF08:  MOVLW  1A
0DF0A:  MOVWF  FF7
0DF0C:  MOVLW  00
0DF0E:  MOVWF  FF8
0DF10:  CALL   43FC
....................                         SendDataDisplay(); 
0DF14:  CALL   442E
....................                         Controlando=0; 
0DF18:  MOVLB  2
0DF1A:  CLRF   x6C
....................                         Desfogue=ON; 
0DF1C:  MOVLB  0
0DF1E:  BSF    xF8.4
....................                         Paso=ON; 
0DF20:  BSF    xF8.2
....................                         BombaVacio=OFF; 
0DF22:  BCF    30.6
....................                         aguaEnfriador=OFF; 
0DF24:  BCF    30.5
....................                         outVacio=OFF; 
0DF26:  BCF    xF8.3
....................                         Aire=OFF;  
0DF28:  BCF    xF8.5
....................                         suministroVapor=OFF; 
0DF2A:  BCF    xF8.1
0DF2C:  MOVLB  2
....................                      } 
....................                   }else{                      
0DF2E:  BRA    E152
0DF30:  MOVLB  1
....................                      Paso=OFF; 
0DF32:  MOVLB  0
0DF34:  BCF    xF8.2
....................                      Controlando=0; 
0DF36:  MOVLB  2
0DF38:  CLRF   x6C
....................                      Control=0; 
0DF3A:  CLRF   x6A
....................                      if(PresionCamara<(Atmosferica+5)){   
0DF3C:  MOVLW  05
0DF3E:  ADDWF  xC2,W
0DF40:  MOVF   x95,F
0DF42:  BTFSS  FD8.2
0DF44:  BRA    E0E8
0DF46:  SUBWF  x94,W
0DF48:  BTFSC  FD8.0
0DF4A:  BRA    E0E8
....................                         if(sSec==0 && mSec==0){                           
0DF4C:  MOVLB  1
0DF4E:  MOVF   x23,F
0DF50:  BTFSS  FD8.2
0DF52:  BRA    E034
0DF54:  MOVF   x24,F
0DF56:  BNZ   E034
....................                            codigoAlarma=15; 
0DF58:  MOVLW  0F
0DF5A:  MOVLB  2
0DF5C:  MOVWF  xAF
....................                            if(codigoAnt!=codigoAlarma){ 
0DF5E:  MOVF   xAF,W
0DF60:  SUBWF  xB0,W
0DF62:  BZ    DF70
....................                               codigoAnt=codigoAlarma; 
0DF64:  MOVFF  2AF,2B0
....................                               GuardaDatoCiclo();                   
0DF68:  MOVLB  0
0DF6A:  CALL   734E
0DF6E:  MOVLB  2
....................                            } 
....................                            if(!DOORS){ 
0DF70:  BSF    F93.1
0DF72:  BTFSS  F81.1
0DF74:  BRA    DF80
....................                               Desfogue=OFF; 
0DF76:  MOVLB  0
0DF78:  BCF    xF8.4
....................                               Paso=OFF; 
0DF7A:  BCF    xF8.2
....................                            }else{ 
0DF7C:  BRA    DF86
0DF7E:  MOVLB  2
....................                               Desfogue=ON;                               
0DF80:  MOVLB  0
0DF82:  BSF    xF8.4
....................                               Paso=OFF; 
0DF84:  BCF    xF8.2
....................                            }     
....................  
....................                            BombaVacio=OFF; 
0DF86:  BCF    30.6
....................                            aguaEnfriador=OFF; 
0DF88:  BCF    30.5
....................                            outVacio=OFF; 
0DF8A:  BCF    xF8.3
....................                            if(PresionCamara<=Atmosferica-2){ 
0DF8C:  MOVLW  02
0DF8E:  MOVLB  2
0DF90:  SUBWF  xC2,W
0DF92:  MOVF   x95,F
0DF94:  BNZ   DFA4
0DF96:  SUBWF  x94,W
0DF98:  BZ    DF9C
0DF9A:  BC    DFA4
....................                               Aire=ON; 
0DF9C:  MOVLB  0
0DF9E:  BSF    xF8.5
....................                            }else{ 
0DFA0:  BRA    DFA8
0DFA2:  MOVLB  2
....................                               Aire=OFF; 
0DFA4:  MOVLB  0
0DFA6:  BCF    xF8.5
....................                            } 
....................                            Desfogue=ON; 
0DFA8:  BSF    xF8.4
....................                            Paso=OFF; 
0DFAA:  BCF    xF8.2
....................                            suministroVapor=OFF; 
0DFAC:  BCF    xF8.1
....................                            Secando=OFF; 
0DFAE:  MOVLB  1
0DFB0:  BCF    x04.0
....................                            //if(Temperatura<=Tapertura){ 
....................                               ActivaAlarma(2); 
0DFB2:  MOVLW  02
0DFB4:  MOVLB  6
0DFB6:  MOVWF  xCF
0DFB8:  MOVLB  0
0DFBA:  CALL   5D52
....................                               printf("Funcionamiento.t4f.txt=\" Ninguna\""); 
0DFBE:  MOVLW  24
0DFC0:  MOVWF  FF6
0DFC2:  MOVLW  1B
0DFC4:  MOVWF  FF7
0DFC6:  MOVLW  00
0DFC8:  MOVWF  FF8
0DFCA:  CALL   43FC
....................                               SendDataDisplay(); 
0DFCE:  CALL   442E
....................                               printf("Funcionamiento.t5f.txt=\" Finalizado\""); 
0DFD2:  MOVLW  46
0DFD4:  MOVWF  FF6
0DFD6:  MOVLW  1B
0DFD8:  MOVWF  FF7
0DFDA:  MOVLW  00
0DFDC:  MOVWF  FF8
0DFDE:  CALL   43FC
....................                               SendDataDisplay(); 
0DFE2:  CALL   442E
....................                               Finalizo=ON; 
0DFE6:  MOVLB  1
0DFE8:  BSF    x07.0
....................                               codigoAlarma=14; 
0DFEA:  MOVLW  0E
0DFEC:  MOVLB  2
0DFEE:  MOVWF  xAF
....................                               if(codigoAnt!=codigoAlarma){ 
0DFF0:  MOVF   xAF,W
0DFF2:  SUBWF  xB0,W
0DFF4:  BZ    E000
....................                                  codigoAnt=codigoAlarma; 
0DFF6:  MOVFF  2AF,2B0
....................                                  GuardaDatoCiclo();                   
0DFFA:  MOVLB  0
0DFFC:  CALL   734E
....................                               } 
....................                               if(!flagImprimir){//Imprime Ciclo Finalizado 
0E000:  MOVLB  1
0E002:  BTFSC  x09.4
0E004:  BRA    E028
....................                                  Imprime=28; 
0E006:  MOVLW  1C
0E008:  MOVLB  2
0E00A:  MOVWF  xCC
....................                                  Envio_Esclavos(); 
0E00C:  MOVLB  0
0E00E:  CALL   59DA
....................                                  delay_ms(100); 
0E012:  MOVLW  64
0E014:  MOVLB  6
0E016:  MOVWF  xE1
0E018:  MOVLB  0
0E01A:  CALL   21DE
....................                                  Imprime=10; 
0E01E:  MOVLW  0A
0E020:  MOVLB  2
0E022:  MOVWF  xCC
....................                                  flagImprimir=1; 
0E024:  MOVLB  1
0E026:  BSF    x09.4
....................                               } 
....................                            //} 
....................                            incrementaCiclos(); 
0E028:  MOVLB  0
0E02A:  CALL   76FC
....................                            Secando=OFF; 
0E02E:  MOVLB  1
0E030:  BCF    x04.0
....................                         }else{ 
0E032:  BRA    E0E4
....................                            if(Secando){ 
0E034:  BTFSS  x04.0
0E036:  BRA    E062
....................                               printf("Funcionamiento.t4f.txt=\" Ninguna\""); 
0E038:  MOVLW  6C
0E03A:  MOVWF  FF6
0E03C:  MOVLW  1B
0E03E:  MOVWF  FF7
0E040:  MOVLW  00
0E042:  MOVWF  FF8
0E044:  MOVLB  0
0E046:  CALL   43FC
....................                               SendDataDisplay(); 
0E04A:  CALL   442E
....................                               printf("Funcionamiento.t5f.txt=\" Secando\""); 
0E04E:  MOVLW  8E
0E050:  MOVWF  FF6
0E052:  MOVLW  1B
0E054:  MOVWF  FF7
0E056:  MOVLW  00
0E058:  MOVWF  FF8
0E05A:  CALL   43FC
....................                               SendDataDisplay(); 
0E05E:  CALL   442E
....................                            } 
....................                            ControlaPresion(); 
0E062:  MOVLB  0
0E064:  CALL   778E
....................                            Paso=OFF; 
0E068:  BCF    xF8.2
....................                             
....................                            if(PresionCamara>NivelVacio+5){//Si la presin de la camara es mayor al nivel de vacio 
0E06A:  MOVLW  05
0E06C:  MOVLB  2
0E06E:  ADDWF  xC1,W
0E070:  MOVF   x95,F
0E072:  BNZ   E07A
0E074:  SUBWF  x94,W
0E076:  BZ    E092
0E078:  BNC   E092
....................                               if(ReservorioLleno) 
0E07A:  MOVLB  1
0E07C:  BTFSS  x0A.1
0E07E:  BRA    E084
....................                                  BombaVacio=ON; 
0E080:  BSF    30.6
....................                               else 
0E082:  BRA    E086
....................                                  BombaVacio=ON; 
0E084:  BSF    30.6
....................                               outVacio=ON; 
0E086:  MOVLB  0
0E088:  BSF    xF8.3
....................                               //aguaEnfriador=ON; 
....................                               Desfogue=OFF; 
0E08A:  BCF    xF8.4
....................                               Aire=OFF; 
0E08C:  BCF    xF8.5
....................                               Paso=OFF; 
0E08E:  BCF    xF8.2
0E090:  MOVLB  2
....................                            } 
....................        
....................                            if(PresionCamara<=NivelVacio){//Si alcanzo el nivel de vacio requerido 
0E092:  MOVF   x95,F
0E094:  BNZ   E0CC
0E096:  MOVF   x94,W
0E098:  SUBWF  xC1,W
0E09A:  BNC   E0CC
....................                               codigoAlarma=15; 
0E09C:  MOVLW  0F
0E09E:  MOVWF  xAF
....................                               if(codigoAnt!=codigoAlarma){ 
0E0A0:  MOVF   xAF,W
0E0A2:  SUBWF  xB0,W
0E0A4:  BZ    E0B0
....................                                  codigoAnt=codigoAlarma; 
0E0A6:  MOVFF  2AF,2B0
....................                                  GuardaDatoCiclo();                   
0E0AA:  MOVLB  0
0E0AC:  CALL   734E
....................                               } 
....................                               Secando=ON; 
0E0B0:  MOVLB  1
0E0B2:  BSF    x04.0
....................                               EstadoAgua2=ON; 
0E0B4:  BSF    x05.4
....................                                
....................                               if(ReservorioLleno) 
0E0B6:  BTFSS  x0A.1
0E0B8:  BRA    E0BE
....................                                  BombaVacio=ON; 
0E0BA:  BSF    30.6
....................                               else 
0E0BC:  BRA    E0C0
....................                                  BombaVacio=OFF; 
0E0BE:  BCF    30.6
....................                               //aguaEnfriador=ON; 
....................                               outVacio=ON; 
0E0C0:  MOVLB  0
0E0C2:  BSF    xF8.3
....................                               Desfogue=OFF; 
0E0C4:  BCF    xF8.4
....................                               Aire=ON;                      
0E0C6:  BSF    xF8.5
....................                               Paso=OFF; 
0E0C8:  BCF    xF8.2
0E0CA:  MOVLB  2
....................                            } 
....................                             
....................                            if(tEnfriador>=100){ 
0E0CC:  MOVF   x82,F
0E0CE:  BNZ   E0D6
0E0D0:  MOVF   x81,W
0E0D2:  SUBLW  63
0E0D4:  BC    E0E0
....................                               aguaEnfriador=OFF; 
0E0D6:  BCF    30.5
....................                               estadoAgua2=OFF; 
0E0D8:  MOVLB  1
0E0DA:  BCF    x05.4
....................                            }else{ 
0E0DC:  BRA    E0E4
0E0DE:  MOVLB  2
....................                               aguaEnfriador=ON; 
0E0E0:  BSF    30.5
0E0E2:  MOVLB  1
....................                            } 
....................                         } 
....................                      }else if(PresionCamara>(Atmosferica+7)){ 
0E0E4:  BRA    E150
0E0E6:  MOVLB  2
0E0E8:  MOVLW  07
0E0EA:  ADDWF  xC2,W
0E0EC:  MOVF   x95,F
0E0EE:  BNZ   E0F6
0E0F0:  SUBWF  x94,W
0E0F2:  BZ    E14E
0E0F4:  BNC   E14E
....................                         codigoAlarma=13; 
0E0F6:  MOVLW  0D
0E0F8:  MOVWF  xAF
....................                         if(codigoAnt!=codigoAlarma){ 
0E0FA:  MOVF   xAF,W
0E0FC:  SUBWF  xB0,W
0E0FE:  BZ    E10A
....................                            codigoAnt=codigoAlarma; 
0E100:  MOVFF  2AF,2B0
....................                            GuardaDatoCiclo();                   
0E104:  MOVLB  0
0E106:  CALL   734E
....................                         } 
....................                         Desfogando=ON; 
0E10A:  MOVLB  1
0E10C:  BSF    x04.2
....................                         printf("Funcionamiento.t4f.txt=\" Ninguna\""); 
0E10E:  MOVLW  B0
0E110:  MOVWF  FF6
0E112:  MOVLW  1B
0E114:  MOVWF  FF7
0E116:  MOVLW  00
0E118:  MOVWF  FF8
0E11A:  MOVLB  0
0E11C:  CALL   43FC
....................                         SendDataDisplay(); 
0E120:  CALL   442E
....................                         printf("Funcionamiento.t5f.txt=\" Despresurizando\""); 
0E124:  MOVLW  D2
0E126:  MOVWF  FF6
0E128:  MOVLW  1B
0E12A:  MOVWF  FF7
0E12C:  MOVLW  00
0E12E:  MOVWF  FF8
0E130:  CALL   43FC
....................                         SendDataDisplay(); 
0E134:  CALL   442E
....................                         Control=0; 
0E138:  MOVLB  2
0E13A:  CLRF   x6A
....................                         Controlando=0; 
0E13C:  CLRF   x6C
....................                         Paso=OFF; 
0E13E:  MOVLB  0
0E140:  BCF    xF8.2
....................                         Desfogue=ON; 
0E142:  BSF    xF8.4
....................                         //if(ReservorioLleno) 
....................                         //   BombaVacio=ON; 
....................                         //else 
....................                            BombaVacio=OFF;    
0E144:  BCF    30.6
....................                         aguaEnfriador=ON; 
0E146:  BSF    30.5
....................                         outVacio=OFF; 
0E148:  BCF    xF8.3
....................                         Aire=OFF; 
0E14A:  BCF    xF8.5
....................                         suministroVapor=OFF; 
0E14C:  BCF    xF8.1
0E14E:  MOVLB  1
0E150:  MOVLB  2
....................                      } 
....................                   } 
....................                }else{ 
0E152:  BRA    E1A6
0E154:  MOVLB  1
....................                   codigoAlarma=16; 
0E156:  MOVLW  10
0E158:  MOVLB  2
0E15A:  MOVWF  xAF
....................                   if(codigoAnt!=codigoAlarma){ 
0E15C:  MOVF   xAF,W
0E15E:  SUBWF  xB0,W
0E160:  BZ    E16E
....................                      codigoAnt=codigoAlarma; 
0E162:  MOVFF  2AF,2B0
....................                      GuardaDatoCiclo();                   
0E166:  MOVLB  0
0E168:  CALL   734E
0E16C:  MOVLB  2
....................                   } 
....................                   printf("Funcionamiento.t4f.txt=\" Ninguna\""); 
0E16E:  MOVLW  FC
0E170:  MOVWF  FF6
0E172:  MOVLW  1B
0E174:  MOVWF  FF7
0E176:  MOVLW  00
0E178:  MOVWF  FF8
0E17A:  MOVLB  0
0E17C:  CALL   43FC
....................                   SendDataDisplay(); 
0E180:  CALL   442E
....................                   printf("Funcionamiento.t5f.txt=\" Esterilizando\""); 
0E184:  MOVLW  1E
0E186:  MOVWF  FF6
0E188:  MOVLW  1C
0E18A:  MOVWF  FF7
0E18C:  MOVLW  00
0E18E:  MOVWF  FF8
0E190:  CALL   43FC
....................                   SendDataDisplay(); 
0E194:  CALL   442E
....................                   //Paso_on; 
....................                   Control=1; 
0E198:  MOVLW  01
0E19A:  MOVLB  2
0E19C:  MOVWF  x6A
....................                   Controla(); 
0E19E:  MOVLB  0
0E1A0:  CALL   781C
0E1A4:  MOVLB  2
....................                } 
....................             } 
....................          } 
....................       }  
....................       }else{ 
0E1A6:  BRA    E4B8
0E1A8:  MOVLB  1
....................       EstadoBuzzer=OFF; 
0E1AA:  BCF    x06.4
....................       IniciaCiclo=ON; 
0E1AC:  BSF    x03.6
....................          if(!flag_vac){ 
0E1AE:  BTFSC  x08.3
0E1B0:  BRA    E1F6
....................             codigoAlarma=11; 
0E1B2:  MOVLW  0B
0E1B4:  MOVLB  2
0E1B6:  MOVWF  xAF
....................             if(codigoAnt!=codigoAlarma){ 
0E1B8:  MOVF   xAF,W
0E1BA:  SUBWF  xB0,W
0E1BC:  BZ    E1C8
....................                codigoAnt=codigoAlarma; 
0E1BE:  MOVFF  2AF,2B0
....................                GuardaDatoCiclo();                
0E1C2:  MOVLB  0
0E1C4:  CALL   734E
....................             } 
....................             flag_vac=ON; 
0E1C8:  MOVLB  1
0E1CA:  BSF    x08.3
....................             if(ReservorioLleno) 
0E1CC:  BTFSS  x0A.1
0E1CE:  BRA    E1D4
....................                BombaVacio=ON; 
0E1D0:  BSF    30.6
....................             else 
0E1D2:  BRA    E1D6
....................                BombaVacio=OFF; 
0E1D4:  BCF    30.6
....................             Desfogue=OFF; 
0E1D6:  MOVLB  0
0E1D8:  BCF    xF8.4
....................             Aire=OFF; 
0E1DA:  BCF    xF8.5
....................             aguaEnfriador=OFF; 
0E1DC:  BCF    30.5
....................             Paso=OFF; 
0E1DE:  BCF    xF8.2
....................             suministroVapor=OFF; 
0E1E0:  BCF    xF8.1
....................             delay_ms(70); 
0E1E2:  MOVLW  46
0E1E4:  MOVLB  6
0E1E6:  MOVWF  xE1
0E1E8:  MOVLB  0
0E1EA:  CALL   21DE
....................             IniciaVacio2=ON; 
0E1EE:  MOVLB  1
0E1F0:  BSF    x08.1
....................             outVacio=ON; 
0E1F2:  MOVLB  0
0E1F4:  BSF    xF8.3
....................          } 
....................           
....................          if(tbomba>=120){ 
0E1F6:  MOVLB  2
0E1F8:  MOVF   x9B,F
0E1FA:  BNZ   E202
0E1FC:  MOVF   x9A,W
0E1FE:  SUBLW  77
0E200:  BC    E21E
....................             if(PresionCamara>Atmosferica){ 
0E202:  MOVF   x95,F
0E204:  BNZ   E20C
0E206:  MOVF   x94,W
0E208:  SUBWF  xC2,W
0E20A:  BC    E214
....................                AlarmaBomba=ON; 
0E20C:  MOVLB  0
0E20E:  BSF    xFA.6
....................             }else{ 
0E210:  BRA    E21E
0E212:  MOVLB  2
....................                tbomba=0; 
0E214:  CLRF   x9B
0E216:  CLRF   x9A
....................                IniciaVacio2=OFF; 
0E218:  MOVLB  1
0E21A:  BCF    x08.1
0E21C:  MOVLB  0
....................             } 
....................          } 
....................           
....................          if(tvacio>=TiempoVacio){//Si excede el tiempo maximo para generar los pulsos de vacio genera alarma             
0E21E:  MOVLB  0
0E220:  MOVF   xFE,W
0E222:  MOVLB  2
0E224:  SUBWF  x9D,W
0E226:  BNC   E23A
0E228:  BNZ   E234
0E22A:  MOVLB  0
0E22C:  MOVF   xFD,W
0E22E:  MOVLB  2
0E230:  SUBWF  x9C,W
0E232:  BNC   E23A
....................                AlarmaVacio=ON; 
0E234:  MOVLB  0
0E236:  BSF    xFA.3
0E238:  MOVLB  2
....................          } 
....................           
....................          if(PresionCamara<vacioTest){ 
0E23A:  MOVF   x95,F
0E23C:  BNZ   E260
0E23E:  MOVF   x53,W
0E240:  SUBWF  x94,W
0E242:  BC    E260
....................             BombaVacio=OFF; 
0E244:  BCF    30.6
....................             outVacio=OFF; 
0E246:  MOVLB  0
0E248:  BCF    xF8.3
....................             Desfogue=OFF; 
0E24A:  BCF    xF8.4
....................             Aire=OFF; 
0E24C:  BCF    xF8.5
....................             aguaEnfriador=OFF; 
0E24E:  BCF    30.5
....................             Paso=OFF; 
0E250:  BCF    xF8.2
....................             suministroVapor=OFF; 
0E252:  BCF    xF8.1
....................             Esterilizando=ON; 
0E254:  MOVLB  1
0E256:  BSF    x03.7
....................             IniciaVacio=OFF; 
0E258:  BCF    x08.0
....................             tbomba=0; 
0E25A:  MOVLB  2
0E25C:  CLRF   x9B
0E25E:  CLRF   x9A
....................          }  
....................           
....................          if(!Finalizo){ 
0E260:  MOVLB  1
0E262:  BTFSC  x07.0
0E264:  BRA    E38C
....................             if(!Esterilizando){ 
0E266:  BTFSC  x03.7
0E268:  BRA    E2BC
....................                if(codigoAlarma==8){ 
0E26A:  MOVLB  2
0E26C:  MOVF   xAF,W
0E26E:  SUBLW  08
0E270:  BNZ   E282
....................                   ActivaAlarma(2); 
0E272:  MOVLW  02
0E274:  MOVLB  6
0E276:  MOVWF  xCF
0E278:  MOVLB  0
0E27A:  CALL   5D52
....................                }else{ 
0E27E:  BRA    E2B8
0E280:  MOVLB  2
....................                   if(ReservorioLleno) 
0E282:  MOVLB  1
0E284:  BTFSS  x0A.1
0E286:  BRA    E28C
....................                      BombaVacio=ON; 
0E288:  BSF    30.6
....................                   else 
0E28A:  BRA    E28E
....................                      BombaVacio=OFF; 
0E28C:  BCF    30.6
....................                    
....................                   printf("Funcionamiento.t4f.txt=\" Ninguna\""); 
0E28E:  MOVLW  46
0E290:  MOVWF  FF6
0E292:  MOVLW  1C
0E294:  MOVWF  FF7
0E296:  MOVLW  00
0E298:  MOVWF  FF8
0E29A:  MOVLB  0
0E29C:  CALL   43FC
....................                   SendDataDisplay(); 
0E2A0:  CALL   442E
....................                   printf("Funcionamiento.t5f.txt=\" Vacio\""); 
0E2A4:  MOVLW  68
0E2A6:  MOVWF  FF6
0E2A8:  MOVLW  1C
0E2AA:  MOVWF  FF7
0E2AC:  MOVLW  00
0E2AE:  MOVWF  FF8
0E2B0:  CALL   43FC
....................                   SendDataDisplay(); 
0E2B4:  CALL   442E
....................                } 
....................             }else{ 
0E2B8:  BRA    E38A
0E2BA:  MOVLB  1
....................                if(PresionCamara>40){ 
0E2BC:  MOVLB  2
0E2BE:  MOVF   x95,F
0E2C0:  BNZ   E2C8
0E2C2:  MOVF   x94,W
0E2C4:  SUBLW  28
0E2C6:  BC    E360
....................                   printf("Funcionamiento.t4f.txt=\" Error Ciclo\""); 
0E2C8:  MOVLW  88
0E2CA:  MOVWF  FF6
0E2CC:  MOVLW  1C
0E2CE:  MOVWF  FF7
0E2D0:  MOVLW  00
0E2D2:  MOVWF  FF8
0E2D4:  MOVLB  0
0E2D6:  CALL   43FC
....................                   SendDataDisplay(); 
0E2DA:  CALL   442E
....................                   printf("Funcionamiento.t5f.txt=\" Finalizado\""); 
0E2DE:  MOVLW  AE
0E2E0:  MOVWF  FF6
0E2E2:  MOVLW  1C
0E2E4:  MOVWF  FF7
0E2E6:  MOVLW  00
0E2E8:  MOVWF  FF8
0E2EA:  CALL   43FC
....................                   SendDataDisplay(); 
0E2EE:  CALL   442E
....................                   codigoAlarma=8; 
0E2F2:  MOVLW  08
0E2F4:  MOVLB  2
0E2F6:  MOVWF  xAF
....................                   if(codigoAnt!=codigoAlarma){ 
0E2F8:  MOVF   xAF,W
0E2FA:  SUBWF  xB0,W
0E2FC:  BZ    E308
....................                      codigoAnt=codigoAlarma; 
0E2FE:  MOVFF  2AF,2B0
....................                      GuardaDatoCiclo();                   
0E302:  MOVLB  0
0E304:  CALL   734E
....................                   } 
....................                   if(!flagImprimir){//Imprime Ciclo Finalizado 
0E308:  MOVLB  1
0E30A:  BTFSC  x09.4
0E30C:  BRA    E330
....................                      Imprime=26; 
0E30E:  MOVLW  1A
0E310:  MOVLB  2
0E312:  MOVWF  xCC
....................                      Envio_Esclavos(); 
0E314:  MOVLB  0
0E316:  CALL   59DA
....................                      delay_ms(100); 
0E31A:  MOVLW  64
0E31C:  MOVLB  6
0E31E:  MOVWF  xE1
0E320:  MOVLB  0
0E322:  CALL   21DE
....................                      Imprime=10; 
0E326:  MOVLW  0A
0E328:  MOVLB  2
0E32A:  MOVWF  xCC
....................                      flagImprimir=1; 
0E32C:  MOVLB  1
0E32E:  BSF    x09.4
....................                   } 
....................                   IniciaVacio=OFF; 
0E330:  BCF    x08.0
....................                   tbomba=0; 
0E332:  MOVLB  2
0E334:  CLRF   x9B
0E336:  CLRF   x9A
....................                   BombaVacio=OFF; 
0E338:  BCF    30.6
....................                   outVacio=OFF; 
0E33A:  MOVLB  0
0E33C:  BCF    xF8.3
....................                   Desfogue=OFF; 
0E33E:  BCF    xF8.4
....................                   Aire=ON; 
0E340:  BSF    xF8.5
....................                   Paso=OFF; 
0E342:  BCF    xF8.2
....................                   suministroVapor=OFF; 
0E344:  BCF    xF8.1
....................                   aguaEnfriador=OFF; 
0E346:  BCF    30.5
....................                   ActivaAlarma(2); 
0E348:  MOVLW  02
0E34A:  MOVLB  6
0E34C:  MOVWF  xCF
0E34E:  MOVLB  0
0E350:  CALL   5D52
....................                   incrementaCiclos(); 
0E354:  CALL   76FC
....................                   Esterilizando=OFF; 
0E358:  MOVLB  1
0E35A:  BCF    x03.7
....................                }else{ 
0E35C:  BRA    E38C
0E35E:  MOVLB  2
....................                   printf("Funcionamiento.t4f.txt=\" Ninguna\""); 
0E360:  MOVLW  D4
0E362:  MOVWF  FF6
0E364:  MOVLW  1C
0E366:  MOVWF  FF7
0E368:  MOVLW  00
0E36A:  MOVWF  FF8
0E36C:  MOVLB  0
0E36E:  CALL   43FC
....................                   SendDataDisplay(); 
0E372:  CALL   442E
....................                   printf("Funcionamiento.t5f.txt=\" Manteniendo Vacio\""); 
0E376:  MOVLW  F6
0E378:  MOVWF  FF6
0E37A:  MOVLW  1C
0E37C:  MOVWF  FF7
0E37E:  MOVLW  00
0E380:  MOVWF  FF8
0E382:  CALL   43FC
....................                   SendDataDisplay(); 
0E386:  CALL   442E
0E38A:  MOVLB  1
....................                } 
....................             } 
....................          } 
....................           
....................          if(mEst==0 && sEst==0){   
0E38C:  MOVF   x22,F
0E38E:  BTFSS  FD8.2
0E390:  BRA    E4B6
0E392:  MOVF   x21,F
0E394:  BTFSS  FD8.2
0E396:  BRA    E4B6
....................             if(PresionFinal<=40){ 
0E398:  MOVLB  2
0E39A:  MOVF   xA1,F
0E39C:  BNZ   E410
0E39E:  MOVF   xA0,W
0E3A0:  SUBLW  28
0E3A2:  BNC   E410
....................                printf("Funcionamiento.t4f.txt=\" Ninguna\""); 
0E3A4:  MOVLW  22
0E3A6:  MOVWF  FF6
0E3A8:  MOVLW  1D
0E3AA:  MOVWF  FF7
0E3AC:  MOVLW  00
0E3AE:  MOVWF  FF8
0E3B0:  MOVLB  0
0E3B2:  CALL   43FC
....................                SendDataDisplay(); 
0E3B6:  CALL   442E
....................                printf("Funcionamiento.t5f.txt=\" Finalizado\""); 
0E3BA:  MOVLW  44
0E3BC:  MOVWF  FF6
0E3BE:  MOVLW  1D
0E3C0:  MOVWF  FF7
0E3C2:  MOVLW  00
0E3C4:  MOVWF  FF8
0E3C6:  CALL   43FC
....................                SendDataDisplay(); 
0E3CA:  CALL   442E
....................                codigoAlarma=14; 
0E3CE:  MOVLW  0E
0E3D0:  MOVLB  2
0E3D2:  MOVWF  xAF
....................                if(codigoAnt!=codigoAlarma){ 
0E3D4:  MOVF   xAF,W
0E3D6:  SUBWF  xB0,W
0E3D8:  BZ    E3E4
....................                   codigoAnt=codigoAlarma; 
0E3DA:  MOVFF  2AF,2B0
....................                   GuardaDatoCiclo();                   
0E3DE:  MOVLB  0
0E3E0:  CALL   734E
....................                } 
....................                if(!flagImprimir){//Imprime Ciclo Finalizado 
0E3E4:  MOVLB  1
0E3E6:  BTFSC  x09.4
0E3E8:  BRA    E40C
....................                   Imprime=28; 
0E3EA:  MOVLW  1C
0E3EC:  MOVLB  2
0E3EE:  MOVWF  xCC
....................                   Envio_Esclavos(); 
0E3F0:  MOVLB  0
0E3F2:  CALL   59DA
....................                   delay_ms(100); 
0E3F6:  MOVLW  64
0E3F8:  MOVLB  6
0E3FA:  MOVWF  xE1
0E3FC:  MOVLB  0
0E3FE:  CALL   21DE
....................                   Imprime=10; 
0E402:  MOVLW  0A
0E404:  MOVLB  2
0E406:  MOVWF  xCC
....................                   flagImprimir=1; 
0E408:  MOVLB  1
0E40A:  BSF    x09.4
....................                } 
....................             }else{ 
0E40C:  BRA    E478
0E40E:  MOVLB  2
....................                printf("Funcionamiento.t4f.txt=\" Error Ciclo\""); 
0E410:  MOVLW  6A
0E412:  MOVWF  FF6
0E414:  MOVLW  1D
0E416:  MOVWF  FF7
0E418:  MOVLW  00
0E41A:  MOVWF  FF8
0E41C:  MOVLB  0
0E41E:  CALL   43FC
....................                SendDataDisplay(); 
0E422:  CALL   442E
....................                printf("Funcionamiento.t5f.txt=\" Finalizado\""); 
0E426:  MOVLW  90
0E428:  MOVWF  FF6
0E42A:  MOVLW  1D
0E42C:  MOVWF  FF7
0E42E:  MOVLW  00
0E430:  MOVWF  FF8
0E432:  CALL   43FC
....................                SendDataDisplay(); 
0E436:  CALL   442E
....................                codigoAlarma=8; 
0E43A:  MOVLW  08
0E43C:  MOVLB  2
0E43E:  MOVWF  xAF
....................                if(codigoAnt!=codigoAlarma){ 
0E440:  MOVF   xAF,W
0E442:  SUBWF  xB0,W
0E444:  BZ    E450
....................                   codigoAnt=codigoAlarma; 
0E446:  MOVFF  2AF,2B0
....................                   GuardaDatoCiclo();                   
0E44A:  MOVLB  0
0E44C:  CALL   734E
....................                } 
....................                if(!flagImprimir){//Imprime Ciclo Finalizado 
0E450:  MOVLB  1
0E452:  BTFSC  x09.4
0E454:  BRA    E478
....................                   Imprime=26; 
0E456:  MOVLW  1A
0E458:  MOVLB  2
0E45A:  MOVWF  xCC
....................                   Envio_Esclavos(); 
0E45C:  MOVLB  0
0E45E:  CALL   59DA
....................                   delay_ms(100); 
0E462:  MOVLW  64
0E464:  MOVLB  6
0E466:  MOVWF  xE1
0E468:  MOVLB  0
0E46A:  CALL   21DE
....................                   Imprime=10; 
0E46E:  MOVLW  0A
0E470:  MOVLB  2
0E472:  MOVWF  xCC
....................                   flagImprimir=1; 
0E474:  MOVLB  1
0E476:  BSF    x09.4
....................                } 
....................             } 
....................             IniciaVacio=OFF; 
0E478:  BCF    x08.0
....................             tbomba=0; 
0E47A:  MOVLB  2
0E47C:  CLRF   x9B
0E47E:  CLRF   x9A
....................             BombaVacio=OFF; 
0E480:  BCF    30.6
....................             outVacio=OFF; 
0E482:  MOVLB  0
0E484:  BCF    xF8.3
....................             Desfogue=OFF; 
0E486:  BCF    xF8.4
....................             Aire=ON; 
0E488:  BSF    xF8.5
....................             Paso=OFF; 
0E48A:  BCF    xF8.2
....................             suministroVapor=OFF; 
0E48C:  BCF    xF8.1
....................             aguaEnfriador=OFF; 
0E48E:  BCF    30.5
....................             ActivaAlarma(2); 
0E490:  MOVLW  02
0E492:  MOVLB  6
0E494:  MOVWF  xCF
0E496:  MOVLB  0
0E498:  CALL   5D52
....................             if(!Finalizo){ 
0E49C:  MOVLB  1
0E49E:  BTFSC  x07.0
0E4A0:  BRA    E4AC
....................                Finalizo=ON; 
0E4A2:  BSF    x07.0
....................                PresionFinal=PresionCamara; 
0E4A4:  MOVFF  295,2A1
0E4A8:  MOVFF  294,2A0
....................             } 
....................             incrementaCiclos(); 
0E4AC:  MOVLB  0
0E4AE:  CALL   76FC
....................             Esterilizando=OFF; 
0E4B2:  MOVLB  1
0E4B4:  BCF    x03.7
0E4B6:  MOVLB  2
....................          } 
....................       } 
....................    } 
....................  
....................    if(tguarda>=180){ 
0E4B8:  MOVLB  1
0E4BA:  MOVF   x14,F
0E4BC:  BNZ   E4C4
0E4BE:  MOVF   x13,W
0E4C0:  SUBLW  B3
0E4C2:  BC    E4D4
....................       if(!Ciclo) 
0E4C4:  BTFSC  x05.3
0E4C6:  BRA    E4D0
....................          GuardaDatoCiclo(); 
0E4C8:  MOVLB  0
0E4CA:  CALL   734E
0E4CE:  MOVLB  1
....................       tguarda=0; 
0E4D0:  CLRF   x14
0E4D2:  CLRF   x13
....................    } 
....................  
....................    if(Grafica==1){ 
0E4D4:  BTFSS  x0A.5
0E4D6:  BRA    E64A
....................       printf("add 12,0,%1.0f",Temperatura*0.66); 
0E4D8:  MOVFF  23E,6E8
0E4DC:  MOVFF  23D,6E7
0E4E0:  MOVFF  23C,6E6
0E4E4:  MOVFF  23B,6E5
0E4E8:  MOVLW  C3
0E4EA:  MOVLB  6
0E4EC:  MOVWF  xEC
0E4EE:  MOVLW  F5
0E4F0:  MOVWF  xEB
0E4F2:  MOVLW  28
0E4F4:  MOVWF  xEA
0E4F6:  MOVLW  7E
0E4F8:  MOVWF  xE9
0E4FA:  MOVLB  0
0E4FC:  CALL   44C4
0E500:  MOVFF  00,6CF
0E504:  MOVFF  01,6D0
0E508:  MOVFF  02,6D1
0E50C:  MOVFF  03,6D2
0E510:  MOVLW  B6
0E512:  MOVWF  FF6
0E514:  MOVLW  1D
0E516:  MOVWF  FF7
0E518:  MOVLW  00
0E51A:  MOVWF  FF8
0E51C:  MOVLW  09
0E51E:  MOVLB  6
0E520:  MOVWF  xD4
0E522:  MOVLB  0
0E524:  CALL   5E96
0E528:  MOVLW  00
0E52A:  MOVWF  FE9
0E52C:  MOVFF  6D2,6D7
0E530:  MOVFF  6D1,6D6
0E534:  MOVFF  6D0,6D5
0E538:  MOVFF  6CF,6D4
0E53C:  MOVLB  6
0E53E:  CLRF   xD8
0E540:  MOVLB  0
0E542:  CALL   617E
....................       SendDataDisplay(); 
0E546:  CALL   442E
....................       printf("add 12,1,%1.0f",PresionCamara*0.66); 
0E54A:  MOVFF  295,6E2
0E54E:  MOVFF  294,6E1
0E552:  CALL   21A8
0E556:  MOVFF  03,6E8
0E55A:  MOVFF  02,6E7
0E55E:  MOVFF  01,6E6
0E562:  MOVFF  00,6E5
0E566:  MOVLW  C3
0E568:  MOVLB  6
0E56A:  MOVWF  xEC
0E56C:  MOVLW  F5
0E56E:  MOVWF  xEB
0E570:  MOVLW  28
0E572:  MOVWF  xEA
0E574:  MOVLW  7E
0E576:  MOVWF  xE9
0E578:  MOVLB  0
0E57A:  CALL   44C4
0E57E:  MOVFF  00,6CF
0E582:  MOVFF  01,6D0
0E586:  MOVFF  02,6D1
0E58A:  MOVFF  03,6D2
0E58E:  MOVLW  C6
0E590:  MOVWF  FF6
0E592:  MOVLW  1D
0E594:  MOVWF  FF7
0E596:  MOVLW  00
0E598:  MOVWF  FF8
0E59A:  MOVLW  09
0E59C:  MOVLB  6
0E59E:  MOVWF  xD4
0E5A0:  MOVLB  0
0E5A2:  CALL   5E96
0E5A6:  MOVLW  00
0E5A8:  MOVWF  FE9
0E5AA:  MOVFF  6D2,6D7
0E5AE:  MOVFF  6D1,6D6
0E5B2:  MOVFF  6D0,6D5
0E5B6:  MOVFF  6CF,6D4
0E5BA:  MOVLB  6
0E5BC:  CLRF   xD8
0E5BE:  MOVLB  0
0E5C0:  CALL   617E
....................       SendDataDisplay(); 
0E5C4:  CALL   442E
....................       printf("add 12,2,%1.0f",PresionPreCamara*0.66); 
0E5C8:  MOVFF  297,6E2
0E5CC:  MOVFF  296,6E1
0E5D0:  CALL   21A8
0E5D4:  MOVFF  03,6E8
0E5D8:  MOVFF  02,6E7
0E5DC:  MOVFF  01,6E6
0E5E0:  MOVFF  00,6E5
0E5E4:  MOVLW  C3
0E5E6:  MOVLB  6
0E5E8:  MOVWF  xEC
0E5EA:  MOVLW  F5
0E5EC:  MOVWF  xEB
0E5EE:  MOVLW  28
0E5F0:  MOVWF  xEA
0E5F2:  MOVLW  7E
0E5F4:  MOVWF  xE9
0E5F6:  MOVLB  0
0E5F8:  CALL   44C4
0E5FC:  MOVFF  00,6CF
0E600:  MOVFF  01,6D0
0E604:  MOVFF  02,6D1
0E608:  MOVFF  03,6D2
0E60C:  MOVLW  D6
0E60E:  MOVWF  FF6
0E610:  MOVLW  1D
0E612:  MOVWF  FF7
0E614:  MOVLW  00
0E616:  MOVWF  FF8
0E618:  MOVLW  09
0E61A:  MOVLB  6
0E61C:  MOVWF  xD4
0E61E:  MOVLB  0
0E620:  CALL   5E96
0E624:  MOVLW  00
0E626:  MOVWF  FE9
0E628:  MOVFF  6D2,6D7
0E62C:  MOVFF  6D1,6D6
0E630:  MOVFF  6D0,6D5
0E634:  MOVFF  6CF,6D4
0E638:  MOVLB  6
0E63A:  CLRF   xD8
0E63C:  MOVLB  0
0E63E:  CALL   617E
....................       SendDataDisplay(); 
0E642:  CALL   442E
....................       Grafica=0; 
0E646:  MOVLB  1
0E648:  BCF    x0A.5
....................    } 
....................    if(Lectura==1)// Utilizado para visualizar la lectura de la temperatura 
0E64A:  BTFSS  x0A.4
0E64C:  BRA    E918
....................    {                       
....................       Lectura=0; 
0E64E:  BCF    x0A.4
....................       //printf("tuser.txt=\"%s\"",usuario); 
....................       //SendDataDisplay(); 
....................       printf("t6f.txt=\"%3.1fC\"",Temperatura); 
0E650:  MOVLW  E6
0E652:  MOVWF  FF6
0E654:  MOVLW  1D
0E656:  MOVWF  FF7
0E658:  MOVLW  00
0E65A:  MOVWF  FF8
0E65C:  MOVLW  09
0E65E:  MOVLB  6
0E660:  MOVWF  xD4
0E662:  MOVLB  0
0E664:  CALL   5E96
0E668:  MOVLW  02
0E66A:  MOVWF  FE9
0E66C:  MOVFF  23E,6D7
0E670:  MOVFF  23D,6D6
0E674:  MOVFF  23C,6D5
0E678:  MOVFF  23B,6D4
0E67C:  MOVLW  01
0E67E:  MOVLB  6
0E680:  MOVWF  xD8
0E682:  MOVLB  0
0E684:  CALL   617E
0E688:  MOVLW  B0
0E68A:  BTFSS  F9E.4
0E68C:  BRA    E68A
0E68E:  MOVWF  FAD
0E690:  MOVLW  43
0E692:  BTFSS  F9E.4
0E694:  BRA    E692
0E696:  MOVWF  FAD
0E698:  MOVLW  22
0E69A:  BTFSS  F9E.4
0E69C:  BRA    E69A
0E69E:  MOVWF  FAD
....................       SendDataDisplay(); 
0E6A0:  CALL   442E
....................       printf("Funcionamiento.t7f.txt=\"%03LukPa\"",PresionCamara); 
0E6A4:  MOVLW  F8
0E6A6:  MOVWF  FF6
0E6A8:  MOVLW  1D
0E6AA:  MOVWF  FF7
0E6AC:  MOVLW  00
0E6AE:  MOVWF  FF8
0E6B0:  MOVLW  18
0E6B2:  MOVLB  6
0E6B4:  MOVWF  xD4
0E6B6:  MOVLB  0
0E6B8:  CALL   5E96
0E6BC:  MOVLW  0A
0E6BE:  MOVWF  FE9
0E6C0:  MOVFF  295,6D4
0E6C4:  MOVFF  294,6D3
0E6C8:  CALL   6010
0E6CC:  MOVLW  15
0E6CE:  MOVWF  FF6
0E6D0:  MOVLW  1E
0E6D2:  MOVWF  FF7
0E6D4:  MOVLW  00
0E6D6:  MOVWF  FF8
0E6D8:  MOVLW  04
0E6DA:  MOVLB  6
0E6DC:  MOVWF  xD4
0E6DE:  MOVLB  0
0E6E0:  CALL   5E96
....................       SendDataDisplay(); 
0E6E4:  CALL   442E
....................       printf("Funcionamiento.t12f.txt=\"%03LukPa\"",PresionPreCamara); 
0E6E8:  MOVLW  1A
0E6EA:  MOVWF  FF6
0E6EC:  MOVLW  1E
0E6EE:  MOVWF  FF7
0E6F0:  MOVLW  00
0E6F2:  MOVWF  FF8
0E6F4:  MOVLW  19
0E6F6:  MOVLB  6
0E6F8:  MOVWF  xD4
0E6FA:  MOVLB  0
0E6FC:  CALL   5E96
0E700:  MOVLW  0A
0E702:  MOVWF  FE9
0E704:  MOVFF  297,6D4
0E708:  MOVFF  296,6D3
0E70C:  CALL   6010
0E710:  MOVLW  38
0E712:  MOVWF  FF6
0E714:  MOVLW  1E
0E716:  MOVWF  FF7
0E718:  MOVLW  00
0E71A:  MOVWF  FF8
0E71C:  MOVLW  04
0E71E:  MOVLB  6
0E720:  MOVWF  xD4
0E722:  MOVLB  0
0E724:  CALL   5E96
....................       SendDataDisplay(); 
0E728:  CALL   442E
....................       printf("Funcionamiento.t9f.txt=\"%03uC\"",Setpoint); 
0E72C:  MOVLW  3E
0E72E:  MOVWF  FF6
0E730:  MOVLW  1E
0E732:  MOVWF  FF7
0E734:  MOVLW  00
0E736:  MOVWF  FF8
0E738:  MOVLW  18
0E73A:  MOVLB  6
0E73C:  MOVWF  xD4
0E73E:  MOVLB  0
0E740:  CALL   5E96
0E744:  MOVFF  283,6D4
0E748:  MOVLW  03
0E74A:  MOVLB  6
0E74C:  MOVWF  xD5
0E74E:  MOVLB  0
0E750:  CALL   5F1A
0E754:  MOVLW  B0
0E756:  BTFSS  F9E.4
0E758:  BRA    E756
0E75A:  MOVWF  FAD
0E75C:  MOVLW  43
0E75E:  BTFSS  F9E.4
0E760:  BRA    E75E
0E762:  MOVWF  FAD
0E764:  MOVLW  22
0E766:  BTFSS  F9E.4
0E768:  BRA    E766
0E76A:  MOVWF  FAD
....................       SendDataDisplay();       
0E76C:  CALL   442E
....................       printf("Funcionamiento.t10f.txt=\"%02u:%02u\"",mEst,sEst); 
0E770:  MOVLW  5E
0E772:  MOVWF  FF6
0E774:  MOVLW  1E
0E776:  MOVWF  FF7
0E778:  MOVLW  00
0E77A:  MOVWF  FF8
0E77C:  MOVLW  19
0E77E:  MOVLB  6
0E780:  MOVWF  xD4
0E782:  MOVLB  0
0E784:  CALL   5E96
0E788:  MOVFF  122,6D4
0E78C:  MOVLW  01
0E78E:  MOVLB  6
0E790:  MOVWF  xD5
0E792:  MOVLB  0
0E794:  CALL   5F1A
0E798:  MOVLW  3A
0E79A:  BTFSS  F9E.4
0E79C:  BRA    E79A
0E79E:  MOVWF  FAD
0E7A0:  MOVFF  121,6D4
0E7A4:  MOVLW  01
0E7A6:  MOVLB  6
0E7A8:  MOVWF  xD5
0E7AA:  MOVLB  0
0E7AC:  CALL   5F1A
0E7B0:  MOVLW  22
0E7B2:  BTFSS  F9E.4
0E7B4:  BRA    E7B2
0E7B6:  MOVWF  FAD
....................       SendDataDisplay();       
0E7B8:  CALL   442E
....................       printf("Funcionamiento.t11f.txt=\"%02u:%02u\"",mSec,sSec); 
0E7BC:  MOVLW  82
0E7BE:  MOVWF  FF6
0E7C0:  MOVLW  1E
0E7C2:  MOVWF  FF7
0E7C4:  MOVLW  00
0E7C6:  MOVWF  FF8
0E7C8:  MOVLW  19
0E7CA:  MOVLB  6
0E7CC:  MOVWF  xD4
0E7CE:  MOVLB  0
0E7D0:  CALL   5E96
0E7D4:  MOVFF  124,6D4
0E7D8:  MOVLW  01
0E7DA:  MOVLB  6
0E7DC:  MOVWF  xD5
0E7DE:  MOVLB  0
0E7E0:  CALL   5F1A
0E7E4:  MOVLW  3A
0E7E6:  BTFSS  F9E.4
0E7E8:  BRA    E7E6
0E7EA:  MOVWF  FAD
0E7EC:  MOVFF  123,6D4
0E7F0:  MOVLW  01
0E7F2:  MOVLB  6
0E7F4:  MOVWF  xD5
0E7F6:  MOVLB  0
0E7F8:  CALL   5F1A
0E7FC:  MOVLW  22
0E7FE:  BTFSS  F9E.4
0E800:  BRA    E7FE
0E802:  MOVWF  FAD
....................       SendDataDisplay();       
0E804:  CALL   442E
....................        
....................       printf("fecha.txt=\"%s Fecha:%02u/%02u/20%02u  Hora:%02u:%02u %2.1fC\"",usuario,Dia,Mes,Year,Hora,Minuto,Tactual); 
0E808:  MOVLW  A6
0E80A:  MOVWF  FF6
0E80C:  MOVLW  1E
0E80E:  MOVWF  FF7
0E810:  MOVLW  00
0E812:  MOVWF  FF8
0E814:  MOVLW  0B
0E816:  MOVLB  6
0E818:  MOVWF  xD4
0E81A:  MOVLB  0
0E81C:  CALL   5E96
0E820:  MOVLW  02
0E822:  MOVWF  FEA
0E824:  MOVLW  D5
0E826:  MOVWF  FE9
0E828:  CALL   5EC8
0E82C:  MOVLW  B3
0E82E:  MOVWF  FF6
0E830:  MOVLW  1E
0E832:  MOVWF  FF7
0E834:  MOVLW  00
0E836:  MOVWF  FF8
0E838:  MOVLW  07
0E83A:  MOVLB  6
0E83C:  MOVWF  xD4
0E83E:  MOVLB  0
0E840:  CALL   5E96
0E844:  MOVFF  2BA,6D4
0E848:  MOVLW  01
0E84A:  MOVLB  6
0E84C:  MOVWF  xD5
0E84E:  MOVLB  0
0E850:  CALL   5F1A
0E854:  MOVLW  2F
0E856:  BTFSS  F9E.4
0E858:  BRA    E856
0E85A:  MOVWF  FAD
0E85C:  MOVFF  2B9,6D4
0E860:  MOVLW  01
0E862:  MOVLB  6
0E864:  MOVWF  xD5
0E866:  MOVLB  0
0E868:  CALL   5F1A
0E86C:  MOVLW  2F
0E86E:  BTFSS  F9E.4
0E870:  BRA    E86E
0E872:  MOVWF  FAD
0E874:  MOVLW  32
0E876:  BTFSS  F9E.4
0E878:  BRA    E876
0E87A:  MOVWF  FAD
0E87C:  MOVLW  30
0E87E:  BTFSS  F9E.4
0E880:  BRA    E87E
0E882:  MOVWF  FAD
0E884:  MOVFF  2B8,6D4
0E888:  MOVLW  01
0E88A:  MOVLB  6
0E88C:  MOVWF  xD5
0E88E:  MOVLB  0
0E890:  CALL   5F1A
0E894:  MOVLW  CA
0E896:  MOVWF  FF6
0E898:  MOVLW  1E
0E89A:  MOVWF  FF7
0E89C:  MOVLW  00
0E89E:  MOVWF  FF8
0E8A0:  MOVLW  07
0E8A2:  MOVLB  6
0E8A4:  MOVWF  xD4
0E8A6:  MOVLB  0
0E8A8:  CALL   5E96
0E8AC:  MOVFF  2BB,6D4
0E8B0:  MOVLW  01
0E8B2:  MOVLB  6
0E8B4:  MOVWF  xD5
0E8B6:  MOVLB  0
0E8B8:  CALL   5F1A
0E8BC:  MOVLW  3A
0E8BE:  BTFSS  F9E.4
0E8C0:  BRA    E8BE
0E8C2:  MOVWF  FAD
0E8C4:  MOVFF  2BC,6D4
0E8C8:  MOVLW  01
0E8CA:  MOVLB  6
0E8CC:  MOVWF  xD5
0E8CE:  MOVLB  0
0E8D0:  CALL   5F1A
0E8D4:  MOVLW  20
0E8D6:  BTFSS  F9E.4
0E8D8:  BRA    E8D6
0E8DA:  MOVWF  FAD
0E8DC:  MOVLW  01
0E8DE:  MOVWF  FE9
0E8E0:  MOVFF  268,6D7
0E8E4:  MOVFF  267,6D6
0E8E8:  MOVFF  266,6D5
0E8EC:  MOVFF  265,6D4
0E8F0:  MOVLB  6
0E8F2:  MOVWF  xD8
0E8F4:  MOVLB  0
0E8F6:  CALL   617E
0E8FA:  MOVLW  B0
0E8FC:  BTFSS  F9E.4
0E8FE:  BRA    E8FC
0E900:  MOVWF  FAD
0E902:  MOVLW  43
0E904:  BTFSS  F9E.4
0E906:  BRA    E904
0E908:  MOVWF  FAD
0E90A:  MOVLW  22
0E90C:  BTFSS  F9E.4
0E90E:  BRA    E90C
0E910:  MOVWF  FAD
....................       SendDataDisplay(); 
0E912:  CALL   442E
0E916:  MOVLB  1
....................    } 
....................  
.................... }else if(Menu==100){ //Menu de Configuracin de Parametros de Control 
0E918:  GOTO   F9E8
0E91C:  MOVLB  2
0E91E:  MOVF   x73,W
0E920:  SUBLW  64
0E922:  BTFSS  FD8.2
0E924:  GOTO   F9E8
....................       
....................       if(Opcion2>15) 
0E928:  MOVF   x85,W
0E92A:  SUBLW  0F
0E92C:  BC    E932
....................          Opcion2=1; 
0E92E:  MOVLW  01
0E930:  MOVWF  x85
....................       if(Opcion2<1) 
0E932:  MOVF   x85,F
0E934:  BNZ   E93A
....................          Opcion2=15; 
0E936:  MOVLW  0F
0E938:  MOVWF  x85
....................        
....................       if(Opcion2==1){ 
0E93A:  DECFSZ x85,W
0E93C:  BRA    EA7E
....................          printf("Config.t2c.txt=\"Proporcional\""); 
0E93E:  MOVLW  E4
0E940:  MOVWF  FF6
0E942:  MOVLW  1E
0E944:  MOVWF  FF7
0E946:  MOVLW  00
0E948:  MOVWF  FF8
0E94A:  MOVLB  0
0E94C:  CALL   43FC
....................          SendDataDisplay();       
0E950:  CALL   442E
....................          printf("t3c.txt=\"%2.0f\"",Ganancia); 
0E954:  MOVLW  02
0E956:  MOVWF  FF6
0E958:  MOVLW  1F
0E95A:  MOVWF  FF7
0E95C:  MOVLW  00
0E95E:  MOVWF  FF8
0E960:  MOVLW  09
0E962:  MOVLB  6
0E964:  MOVWF  xD4
0E966:  MOVLB  0
0E968:  CALL   5E96
0E96C:  MOVLW  01
0E96E:  MOVWF  FE9
0E970:  MOVFF  222,6D7
0E974:  MOVFF  221,6D6
0E978:  MOVFF  220,6D5
0E97C:  MOVFF  21F,6D4
0E980:  MOVLB  6
0E982:  CLRF   xD8
0E984:  MOVLB  0
0E986:  CALL   617E
0E98A:  MOVLW  22
0E98C:  BTFSS  F9E.4
0E98E:  BRA    E98C
0E990:  MOVWF  FAD
....................          SendDataDisplay(); 
0E992:  CALL   442E
....................          if(RX_Buffer[4]==0x0a){//Tecla Arriba Oprimida 
0E996:  MOVF   35,W
0E998:  SUBLW  0A
0E99A:  BNZ   E9D4
....................                Ganancia+=1.0; 
0E99C:  BCF    FD8.1
0E99E:  MOVFF  222,6E4
0E9A2:  MOVFF  221,6E3
0E9A6:  MOVFF  220,6E2
0E9AA:  MOVFF  21F,6E1
0E9AE:  MOVLB  6
0E9B0:  CLRF   xE8
0E9B2:  CLRF   xE7
0E9B4:  CLRF   xE6
0E9B6:  MOVLW  7F
0E9B8:  MOVWF  xE5
0E9BA:  MOVLB  0
0E9BC:  CALL   2364
0E9C0:  MOVFF  03,222
0E9C4:  MOVFF  02,221
0E9C8:  MOVFF  01,220
0E9CC:  MOVFF  00,21F
....................                RX_Buffer[4]=0x00;   
0E9D0:  CLRF   35
....................                RX_Buffer2[4]=0x00;             
0E9D2:  CLRF   40
....................                //BorraBuffer(); 
....................          } 
....................              
....................          if(RX_Buffer[4]==0x0b){//Tecla Abajo Oprimida 
0E9D4:  MOVF   35,W
0E9D6:  SUBLW  0B
0E9D8:  BNZ   EA12
....................                Ganancia-=1.0; 
0E9DA:  BSF    FD8.1
0E9DC:  MOVFF  222,6E4
0E9E0:  MOVFF  221,6E3
0E9E4:  MOVFF  220,6E2
0E9E8:  MOVFF  21F,6E1
0E9EC:  MOVLB  6
0E9EE:  CLRF   xE8
0E9F0:  CLRF   xE7
0E9F2:  CLRF   xE6
0E9F4:  MOVLW  7F
0E9F6:  MOVWF  xE5
0E9F8:  MOVLB  0
0E9FA:  CALL   2364
0E9FE:  MOVFF  03,222
0EA02:  MOVFF  02,221
0EA06:  MOVFF  01,220
0EA0A:  MOVFF  00,21F
....................                RX_Buffer[4]=0x00; 
0EA0E:  CLRF   35
....................                RX_Buffer2[4]=0x00;             
0EA10:  CLRF   40
....................                //BorraBuffer(); 
....................          } 
....................           
....................          if(Ganancia>40) 
0EA12:  MOVLB  6
0EA14:  CLRF   xD6
0EA16:  CLRF   xD5
0EA18:  MOVLW  20
0EA1A:  MOVWF  xD4
0EA1C:  MOVLW  84
0EA1E:  MOVWF  xD3
0EA20:  MOVFF  222,6DA
0EA24:  MOVFF  221,6D9
0EA28:  MOVFF  220,6D8
0EA2C:  MOVFF  21F,6D7
0EA30:  MOVLB  0
0EA32:  CALL   283A
0EA36:  BNC   EA44
....................             Ganancia=1; 
0EA38:  MOVLB  2
0EA3A:  CLRF   x22
0EA3C:  CLRF   x21
0EA3E:  CLRF   x20
0EA40:  MOVLW  7F
0EA42:  MOVWF  x1F
....................          if(Ganancia<1) 
0EA44:  MOVFF  222,6D6
0EA48:  MOVFF  221,6D5
0EA4C:  MOVFF  220,6D4
0EA50:  MOVFF  21F,6D3
0EA54:  MOVLB  6
0EA56:  CLRF   xDA
0EA58:  CLRF   xD9
0EA5A:  CLRF   xD8
0EA5C:  MOVLW  7F
0EA5E:  MOVWF  xD7
0EA60:  MOVLB  0
0EA62:  CALL   283A
0EA66:  BNC   EA78
....................             Ganancia=40; 
0EA68:  MOVLB  2
0EA6A:  CLRF   x22
0EA6C:  CLRF   x21
0EA6E:  MOVLW  20
0EA70:  MOVWF  x20
0EA72:  MOVLW  84
0EA74:  MOVWF  x1F
0EA76:  MOVLB  0
....................       }else if(Opcion2==2){ 
0EA78:  GOTO   F38E
0EA7C:  MOVLB  2
0EA7E:  MOVF   x85,W
0EA80:  SUBLW  02
0EA82:  BTFSS  FD8.2
0EA84:  BRA    EBCA
....................          printf("Config.t2c.txt=\"Tciclo\""); 
0EA86:  MOVLW  12
0EA88:  MOVWF  FF6
0EA8A:  MOVLW  1F
0EA8C:  MOVWF  FF7
0EA8E:  MOVLW  00
0EA90:  MOVWF  FF8
0EA92:  MOVLB  0
0EA94:  CALL   43FC
....................          SendDataDisplay();       
0EA98:  CALL   442E
....................          printf("t3c.txt=\"%2.0f\"",Tciclo); 
0EA9C:  MOVLW  2A
0EA9E:  MOVWF  FF6
0EAA0:  MOVLW  1F
0EAA2:  MOVWF  FF7
0EAA4:  MOVLW  00
0EAA6:  MOVWF  FF8
0EAA8:  MOVLW  09
0EAAA:  MOVLB  6
0EAAC:  MOVWF  xD4
0EAAE:  MOVLB  0
0EAB0:  CALL   5E96
0EAB4:  MOVLW  01
0EAB6:  MOVWF  FE9
0EAB8:  MOVFF  20A,6D7
0EABC:  MOVFF  209,6D6
0EAC0:  MOVFF  208,6D5
0EAC4:  MOVFF  207,6D4
0EAC8:  MOVLB  6
0EACA:  CLRF   xD8
0EACC:  MOVLB  0
0EACE:  CALL   617E
0EAD2:  MOVLW  22
0EAD4:  BTFSS  F9E.4
0EAD6:  BRA    EAD4
0EAD8:  MOVWF  FAD
....................          SendDataDisplay(); 
0EADA:  CALL   442E
....................          if(RX_Buffer[4]==0x0a){//Tecla Arriba Oprimida 
0EADE:  MOVF   35,W
0EAE0:  SUBLW  0A
0EAE2:  BNZ   EB1C
....................                Tciclo+=1.0; 
0EAE4:  BCF    FD8.1
0EAE6:  MOVFF  20A,6E4
0EAEA:  MOVFF  209,6E3
0EAEE:  MOVFF  208,6E2
0EAF2:  MOVFF  207,6E1
0EAF6:  MOVLB  6
0EAF8:  CLRF   xE8
0EAFA:  CLRF   xE7
0EAFC:  CLRF   xE6
0EAFE:  MOVLW  7F
0EB00:  MOVWF  xE5
0EB02:  MOVLB  0
0EB04:  CALL   2364
0EB08:  MOVFF  03,20A
0EB0C:  MOVFF  02,209
0EB10:  MOVFF  01,208
0EB14:  MOVFF  00,207
....................                RX_Buffer[4]=0x00;   
0EB18:  CLRF   35
....................                RX_Buffer2[4]=0x00;             
0EB1A:  CLRF   40
....................                //BorraBuffer(); 
....................          } 
....................              
....................          if(RX_Buffer[4]==0x0b){//Tecla Abajo Oprimida             
0EB1C:  MOVF   35,W
0EB1E:  SUBLW  0B
0EB20:  BNZ   EB5A
....................                Tciclo-=1.0; 
0EB22:  BSF    FD8.1
0EB24:  MOVFF  20A,6E4
0EB28:  MOVFF  209,6E3
0EB2C:  MOVFF  208,6E2
0EB30:  MOVFF  207,6E1
0EB34:  MOVLB  6
0EB36:  CLRF   xE8
0EB38:  CLRF   xE7
0EB3A:  CLRF   xE6
0EB3C:  MOVLW  7F
0EB3E:  MOVWF  xE5
0EB40:  MOVLB  0
0EB42:  CALL   2364
0EB46:  MOVFF  03,20A
0EB4A:  MOVFF  02,209
0EB4E:  MOVFF  01,208
0EB52:  MOVFF  00,207
....................                RX_Buffer[4]=0x00; 
0EB56:  CLRF   35
....................                RX_Buffer2[4]=0x00;             
0EB58:  CLRF   40
....................                //BorraBuffer(); 
....................          } 
....................           
....................          if(Tciclo>20) 
0EB5A:  MOVLB  6
0EB5C:  CLRF   xD6
0EB5E:  CLRF   xD5
0EB60:  MOVLW  20
0EB62:  MOVWF  xD4
0EB64:  MOVLW  83
0EB66:  MOVWF  xD3
0EB68:  MOVFF  20A,6DA
0EB6C:  MOVFF  209,6D9
0EB70:  MOVFF  208,6D8
0EB74:  MOVFF  207,6D7
0EB78:  MOVLB  0
0EB7A:  CALL   283A
0EB7E:  BNC   EB8E
....................             Tciclo=5; 
0EB80:  MOVLB  2
0EB82:  CLRF   x0A
0EB84:  CLRF   x09
0EB86:  MOVLW  20
0EB88:  MOVWF  x08
0EB8A:  MOVLW  81
0EB8C:  MOVWF  x07
....................          if(Tciclo<5) 
0EB8E:  MOVFF  20A,6D6
0EB92:  MOVFF  209,6D5
0EB96:  MOVFF  208,6D4
0EB9A:  MOVFF  207,6D3
0EB9E:  MOVLB  6
0EBA0:  CLRF   xDA
0EBA2:  CLRF   xD9
0EBA4:  MOVLW  20
0EBA6:  MOVWF  xD8
0EBA8:  MOVLW  81
0EBAA:  MOVWF  xD7
0EBAC:  MOVLB  0
0EBAE:  CALL   283A
0EBB2:  BNC   EBC4
....................             Tciclo=20; 
0EBB4:  MOVLB  2
0EBB6:  CLRF   x0A
0EBB8:  CLRF   x09
0EBBA:  MOVLW  20
0EBBC:  MOVWF  x08
0EBBE:  MOVLW  83
0EBC0:  MOVWF  x07
0EBC2:  MOVLB  0
....................       }else if(Opcion2==3){ 
0EBC4:  GOTO   F38E
0EBC8:  MOVLB  2
0EBCA:  MOVF   x85,W
0EBCC:  SUBLW  03
0EBCE:  BNZ   EC4A
....................          printf("Config.t2c.txt=\"Ajuste +\""); 
0EBD0:  MOVLW  3A
0EBD2:  MOVWF  FF6
0EBD4:  MOVLW  1F
0EBD6:  MOVWF  FF7
0EBD8:  MOVLW  00
0EBDA:  MOVWF  FF8
0EBDC:  MOVLB  0
0EBDE:  CALL   43FC
....................          SendDataDisplay();       
0EBE2:  CALL   442E
....................          printf("t3c.txt=\"%u\"",Sensor[0].Ajuste); 
0EBE6:  MOVLW  54
0EBE8:  MOVWF  FF6
0EBEA:  MOVLW  1F
0EBEC:  MOVWF  FF7
0EBEE:  MOVLW  00
0EBF0:  MOVWF  FF8
0EBF2:  MOVLW  09
0EBF4:  MOVLB  6
0EBF6:  MOVWF  xD4
0EBF8:  MOVLB  0
0EBFA:  CALL   5E96
0EBFE:  MOVFF  35D,6D4
0EC02:  MOVLW  1B
0EC04:  MOVLB  6
0EC06:  MOVWF  xD5
0EC08:  MOVLB  0
0EC0A:  CALL   5F1A
0EC0E:  MOVLW  22
0EC10:  BTFSS  F9E.4
0EC12:  BRA    EC10
0EC14:  MOVWF  FAD
....................          SendDataDisplay(); 
0EC16:  CALL   442E
....................          if(RX_Buffer[4]==0x0a){//Tecla Arriba Oprimida             
0EC1A:  MOVF   35,W
0EC1C:  SUBLW  0A
0EC1E:  BNZ   EC30
....................                if(Sensor[0].Ajuste<40) 
0EC20:  MOVLB  3
0EC22:  MOVF   x5D,W
0EC24:  SUBLW  27
0EC26:  BNC   EC2A
....................                   Sensor[0].Ajuste++; 
0EC28:  INCF   x5D,F
....................                RX_Buffer[4]=0x00;   
0EC2A:  CLRF   35
....................                RX_Buffer2[4]=0x00;             
0EC2C:  CLRF   40
0EC2E:  MOVLB  0
....................                //BorraBuffer();             
....................          } 
....................              
....................          if(RX_Buffer[4]==0x0b){//Tecla Abajo Oprimida             
0EC30:  MOVF   35,W
0EC32:  SUBLW  0B
0EC34:  BNZ   EC44
....................                if(Sensor[0].Ajuste>0) 
0EC36:  MOVLB  3
0EC38:  MOVF   x5D,F
0EC3A:  BZ    EC3E
....................                   Sensor[0].Ajuste--; 
0EC3C:  DECF   x5D,F
....................                RX_Buffer[4]=0x00; 
0EC3E:  CLRF   35
....................                RX_Buffer2[4]=0x00;             
0EC40:  CLRF   40
0EC42:  MOVLB  0
....................                //BorraBuffer(); 
....................          } 
....................       }else if(Opcion2==4){ 
0EC44:  GOTO   F38E
0EC48:  MOVLB  2
0EC4A:  MOVF   x85,W
0EC4C:  SUBLW  04
0EC4E:  BNZ   ECC8
....................          printf("Config.t2c.txt=\"Ajuste -\""); 
0EC50:  MOVLW  62
0EC52:  MOVWF  FF6
0EC54:  MOVLW  1F
0EC56:  MOVWF  FF7
0EC58:  MOVLW  00
0EC5A:  MOVWF  FF8
0EC5C:  MOVLB  0
0EC5E:  CALL   43FC
....................          SendDataDisplay();       
0EC62:  CALL   442E
....................          printf("t3c.txt=\"%u\"",Sensor[0].Ajusten); 
0EC66:  MOVLW  7C
0EC68:  MOVWF  FF6
0EC6A:  MOVLW  1F
0EC6C:  MOVWF  FF7
0EC6E:  MOVLW  00
0EC70:  MOVWF  FF8
0EC72:  MOVLW  09
0EC74:  MOVLB  6
0EC76:  MOVWF  xD4
0EC78:  MOVLB  0
0EC7A:  CALL   5E96
0EC7E:  MOVFF  35E,6D4
0EC82:  MOVLW  1B
0EC84:  MOVLB  6
0EC86:  MOVWF  xD5
0EC88:  MOVLB  0
0EC8A:  CALL   5F1A
0EC8E:  MOVLW  22
0EC90:  BTFSS  F9E.4
0EC92:  BRA    EC90
0EC94:  MOVWF  FAD
....................          SendDataDisplay(); 
0EC96:  CALL   442E
....................          if(RX_Buffer[4]==0x0a){//Tecla Arriba Oprimida             
0EC9A:  MOVF   35,W
0EC9C:  SUBLW  0A
0EC9E:  BNZ   ECB0
....................                if(Sensor[0].Ajusten<40) 
0ECA0:  MOVLB  3
0ECA2:  MOVF   x5E,W
0ECA4:  SUBLW  27
0ECA6:  BNC   ECAA
....................                   Sensor[0].Ajusten++; 
0ECA8:  INCF   x5E,F
....................                RX_Buffer[4]=0x00;   
0ECAA:  CLRF   35
....................                RX_Buffer2[4]=0x00;             
0ECAC:  CLRF   40
0ECAE:  MOVLB  0
....................                //BorraBuffer();             
....................          } 
....................              
....................          if(RX_Buffer[4]==0x0b){//Tecla Abajo Oprimida             
0ECB0:  MOVF   35,W
0ECB2:  SUBLW  0B
0ECB4:  BNZ   ECC4
....................                if(Sensor[0].Ajusten>0) 
0ECB6:  MOVLB  3
0ECB8:  MOVF   x5E,F
0ECBA:  BZ    ECBE
....................                   Sensor[0].Ajusten--; 
0ECBC:  DECF   x5E,F
....................                RX_Buffer[4]=0x00; 
0ECBE:  CLRF   35
....................                RX_Buffer2[4]=0x00;             
0ECC0:  CLRF   40
0ECC2:  MOVLB  0
....................                //BorraBuffer(); 
....................          } 
....................       }else if(Opcion2==5){ 
0ECC4:  BRA    F38E
0ECC6:  MOVLB  2
0ECC8:  MOVF   x85,W
0ECCA:  SUBLW  05
0ECCC:  BNZ   ED46
....................          printf("Config.t2c.txt=\"Ajuste2 +\""); 
0ECCE:  MOVLW  8A
0ECD0:  MOVWF  FF6
0ECD2:  MOVLW  1F
0ECD4:  MOVWF  FF7
0ECD6:  MOVLW  00
0ECD8:  MOVWF  FF8
0ECDA:  MOVLB  0
0ECDC:  CALL   43FC
....................          SendDataDisplay();       
0ECE0:  CALL   442E
....................          printf("t3c.txt=\"%u\"",Sensor[1].Ajuste); 
0ECE4:  MOVLW  A6
0ECE6:  MOVWF  FF6
0ECE8:  MOVLW  1F
0ECEA:  MOVWF  FF7
0ECEC:  MOVLW  00
0ECEE:  MOVWF  FF8
0ECF0:  MOVLW  09
0ECF2:  MOVLB  6
0ECF4:  MOVWF  xD4
0ECF6:  MOVLB  0
0ECF8:  CALL   5E96
0ECFC:  MOVFF  4C1,6D4
0ED00:  MOVLW  1B
0ED02:  MOVLB  6
0ED04:  MOVWF  xD5
0ED06:  MOVLB  0
0ED08:  CALL   5F1A
0ED0C:  MOVLW  22
0ED0E:  BTFSS  F9E.4
0ED10:  BRA    ED0E
0ED12:  MOVWF  FAD
....................          SendDataDisplay(); 
0ED14:  CALL   442E
....................          if(RX_Buffer[4]==0x0a){//Tecla Arriba Oprimida 
0ED18:  MOVF   35,W
0ED1A:  SUBLW  0A
0ED1C:  BNZ   ED2E
....................                if(Sensor[1].Ajuste<40) 
0ED1E:  MOVLB  4
0ED20:  MOVF   xC1,W
0ED22:  SUBLW  27
0ED24:  BNC   ED28
....................                   Sensor[1].Ajuste++; 
0ED26:  INCF   xC1,F
....................                RX_Buffer[4]=0x00;   
0ED28:  CLRF   35
....................                RX_Buffer2[4]=0x00;             
0ED2A:  CLRF   40
0ED2C:  MOVLB  0
....................                //BorraBuffer(); 
....................          } 
....................              
....................          if(RX_Buffer[4]==0x0b){//Tecla Abajo Oprimida 
0ED2E:  MOVF   35,W
0ED30:  SUBLW  0B
0ED32:  BNZ   ED42
....................                if(Sensor[1].Ajuste>0) 
0ED34:  MOVLB  4
0ED36:  MOVF   xC1,F
0ED38:  BZ    ED3C
....................                   Sensor[1].Ajuste--; 
0ED3A:  DECF   xC1,F
....................                RX_Buffer[4]=0x00; 
0ED3C:  CLRF   35
....................                RX_Buffer2[4]=0x00;             
0ED3E:  CLRF   40
0ED40:  MOVLB  0
....................                //BorraBuffer();             
....................          } 
....................       }else if(Opcion2==6){ 
0ED42:  BRA    F38E
0ED44:  MOVLB  2
0ED46:  MOVF   x85,W
0ED48:  SUBLW  06
0ED4A:  BNZ   EDC4
....................          printf("Config.t2c.txt=\"Ajuste2 -\""); 
0ED4C:  MOVLW  B4
0ED4E:  MOVWF  FF6
0ED50:  MOVLW  1F
0ED52:  MOVWF  FF7
0ED54:  MOVLW  00
0ED56:  MOVWF  FF8
0ED58:  MOVLB  0
0ED5A:  CALL   43FC
....................          SendDataDisplay();       
0ED5E:  CALL   442E
....................          printf("t3c.txt=\"%u\"",Sensor[1].Ajusten); 
0ED62:  MOVLW  D0
0ED64:  MOVWF  FF6
0ED66:  MOVLW  1F
0ED68:  MOVWF  FF7
0ED6A:  MOVLW  00
0ED6C:  MOVWF  FF8
0ED6E:  MOVLW  09
0ED70:  MOVLB  6
0ED72:  MOVWF  xD4
0ED74:  MOVLB  0
0ED76:  CALL   5E96
0ED7A:  MOVFF  4C2,6D4
0ED7E:  MOVLW  1B
0ED80:  MOVLB  6
0ED82:  MOVWF  xD5
0ED84:  MOVLB  0
0ED86:  CALL   5F1A
0ED8A:  MOVLW  22
0ED8C:  BTFSS  F9E.4
0ED8E:  BRA    ED8C
0ED90:  MOVWF  FAD
....................          SendDataDisplay(); 
0ED92:  CALL   442E
....................          if(RX_Buffer[4]==0x0a){//Tecla Arriba Oprimida             
0ED96:  MOVF   35,W
0ED98:  SUBLW  0A
0ED9A:  BNZ   EDAC
....................                if(Sensor[1].Ajusten<40) 
0ED9C:  MOVLB  4
0ED9E:  MOVF   xC2,W
0EDA0:  SUBLW  27
0EDA2:  BNC   EDA6
....................                   Sensor[1].Ajusten++; 
0EDA4:  INCF   xC2,F
....................                RX_Buffer[4]=0x00;   
0EDA6:  CLRF   35
....................                RX_Buffer2[4]=0x00;             
0EDA8:  CLRF   40
0EDAA:  MOVLB  0
....................                //BorraBuffer(); 
....................          } 
....................              
....................          if(RX_Buffer[4]==0x0b){//Tecla Abajo Oprimida             
0EDAC:  MOVF   35,W
0EDAE:  SUBLW  0B
0EDB0:  BNZ   EDC0
....................                if(Sensor[1].Ajusten>0) 
0EDB2:  MOVLB  4
0EDB4:  MOVF   xC2,F
0EDB6:  BZ    EDBA
....................                   Sensor[1].Ajusten--; 
0EDB8:  DECF   xC2,F
....................                RX_Buffer[4]=0x00; 
0EDBA:  CLRF   35
....................                RX_Buffer2[4]=0x00;             
0EDBC:  CLRF   40
0EDBE:  MOVLB  0
....................                //BorraBuffer(); 
....................          } 
....................       }else if(Opcion2==7){ 
0EDC0:  BRA    F38E
0EDC2:  MOVLB  2
0EDC4:  MOVF   x85,W
0EDC6:  SUBLW  07
0EDC8:  BNZ   EE44
....................          printf("Config.t2c.txt=\"Media\""); 
0EDCA:  MOVLW  DE
0EDCC:  MOVWF  FF6
0EDCE:  MOVLW  1F
0EDD0:  MOVWF  FF7
0EDD2:  MOVLW  00
0EDD4:  MOVWF  FF8
0EDD6:  MOVLB  0
0EDD8:  CALL   43FC
....................          SendDataDisplay();       
0EDDC:  CALL   442E
....................          printf("t3c.txt=\"%u\"",MediaMovil); 
0EDE0:  MOVLW  F6
0EDE2:  MOVWF  FF6
0EDE4:  MOVLW  1F
0EDE6:  MOVWF  FF7
0EDE8:  MOVLW  00
0EDEA:  MOVWF  FF8
0EDEC:  MOVLW  09
0EDEE:  MOVLB  6
0EDF0:  MOVWF  xD4
0EDF2:  MOVLB  0
0EDF4:  CALL   5E96
0EDF8:  MOVFF  1F7,6D4
0EDFC:  MOVLW  1B
0EDFE:  MOVLB  6
0EE00:  MOVWF  xD5
0EE02:  MOVLB  0
0EE04:  CALL   5F1A
0EE08:  MOVLW  22
0EE0A:  BTFSS  F9E.4
0EE0C:  BRA    EE0A
0EE0E:  MOVWF  FAD
....................          SendDataDisplay(); 
0EE10:  CALL   442E
....................          if(RX_Buffer[4]==0x0a){//Tecla Arriba Oprimida 
0EE14:  MOVF   35,W
0EE16:  SUBLW  0A
0EE18:  BNZ   EE2A
....................                if(MediaMovil<80) 
0EE1A:  MOVLB  1
0EE1C:  MOVF   xF7,W
0EE1E:  SUBLW  4F
0EE20:  BNC   EE24
....................                   MediaMovil++; 
0EE22:  INCF   xF7,F
....................                RX_Buffer[4]=0x00;   
0EE24:  CLRF   35
....................                RX_Buffer2[4]=0x00;             
0EE26:  CLRF   40
0EE28:  MOVLB  0
....................                //BorraBuffer(); 
....................          } 
....................              
....................          if(RX_Buffer[4]==0x0b){//Tecla Abajo Oprimida 
0EE2A:  MOVF   35,W
0EE2C:  SUBLW  0B
0EE2E:  BNZ   EE40
....................                if(MediaMovil>10) 
0EE30:  MOVLB  1
0EE32:  MOVF   xF7,W
0EE34:  SUBLW  0A
0EE36:  BC    EE3A
....................                   MediaMovil--; 
0EE38:  DECF   xF7,F
....................                RX_Buffer[4]=0x00; 
0EE3A:  CLRF   35
....................                RX_Buffer2[4]=0x00;             
0EE3C:  CLRF   40
0EE3E:  MOVLB  0
....................                //BorraBuffer();             
....................          } 
....................       }else if(Opcion2==8){ 
0EE40:  BRA    F38E
0EE42:  MOVLB  2
0EE44:  MOVF   x85,W
0EE46:  SUBLW  08
0EE48:  BTFSS  FD8.2
0EE4A:  BRA    EF76
....................          printf("Config.t2c.txt=\"RPT100B\""); 
0EE4C:  MOVLW  04
0EE4E:  MOVWF  FF6
0EE50:  MOVLW  20
0EE52:  MOVWF  FF7
0EE54:  MOVLW  00
0EE56:  MOVWF  FF8
0EE58:  MOVLB  0
0EE5A:  CALL   43FC
....................          SendDataDisplay();       
0EE5E:  CALL   442E
....................          printf("t3c.txt=\"%2.1f\"",Sensor[0].RPT100); 
0EE62:  MOVLW  1E
0EE64:  MOVWF  FF6
0EE66:  MOVLW  20
0EE68:  MOVWF  FF7
0EE6A:  MOVLW  00
0EE6C:  MOVWF  FF8
0EE6E:  MOVLW  09
0EE70:  MOVLB  6
0EE72:  MOVWF  xD4
0EE74:  MOVLB  0
0EE76:  CALL   5E96
0EE7A:  MOVLW  01
0EE7C:  MOVWF  FE9
0EE7E:  MOVFF  352,6D7
0EE82:  MOVFF  351,6D6
0EE86:  MOVFF  350,6D5
0EE8A:  MOVFF  34F,6D4
0EE8E:  MOVLB  6
0EE90:  MOVWF  xD8
0EE92:  MOVLB  0
0EE94:  CALL   617E
0EE98:  MOVLW  22
0EE9A:  BTFSS  F9E.4
0EE9C:  BRA    EE9A
0EE9E:  MOVWF  FAD
....................          SendDataDisplay(); 
0EEA0:  CALL   442E
....................          if(RX_Buffer[4]==0x0a){//Tecla Arriba Oprimida             
0EEA4:  MOVF   35,W
0EEA6:  SUBLW  0A
0EEA8:  BNZ   EF0C
....................                if(Sensor[0].RPT100<2.0) 
0EEAA:  MOVFF  352,6D6
0EEAE:  MOVFF  351,6D5
0EEB2:  MOVFF  350,6D4
0EEB6:  MOVFF  34F,6D3
0EEBA:  MOVLB  6
0EEBC:  CLRF   xDA
0EEBE:  CLRF   xD9
0EEC0:  CLRF   xD8
0EEC2:  MOVLW  80
0EEC4:  MOVWF  xD7
0EEC6:  MOVLB  0
0EEC8:  CALL   283A
0EECC:  BNC   EF08
....................                   Sensor[0].RPT100+=0.1; 
0EECE:  BCF    FD8.1
0EED0:  MOVFF  352,6E4
0EED4:  MOVFF  351,6E3
0EED8:  MOVFF  350,6E2
0EEDC:  MOVFF  34F,6E1
0EEE0:  MOVLW  CD
0EEE2:  MOVLB  6
0EEE4:  MOVWF  xE8
0EEE6:  MOVLW  CC
0EEE8:  MOVWF  xE7
0EEEA:  MOVLW  4C
0EEEC:  MOVWF  xE6
0EEEE:  MOVLW  7B
0EEF0:  MOVWF  xE5
0EEF2:  MOVLB  0
0EEF4:  CALL   2364
0EEF8:  MOVFF  03,352
0EEFC:  MOVFF  02,351
0EF00:  MOVFF  01,350
0EF04:  MOVFF  00,34F
....................                RX_Buffer[4]=0x00;   
0EF08:  CLRF   35
....................                RX_Buffer2[4]=0x00;             
0EF0A:  CLRF   40
....................                //BorraBuffer(); 
....................          } 
....................              
....................          if(RX_Buffer[4]==0x0b){//Tecla Abajo Oprimida 
0EF0C:  MOVF   35,W
0EF0E:  SUBLW  0B
0EF10:  BNZ   EF72
....................                if(Sensor[0].RPT100>0.0) 
0EF12:  MOVLB  6
0EF14:  CLRF   xD6
0EF16:  CLRF   xD5
0EF18:  CLRF   xD4
0EF1A:  CLRF   xD3
0EF1C:  MOVFF  352,6DA
0EF20:  MOVFF  351,6D9
0EF24:  MOVFF  350,6D8
0EF28:  MOVFF  34F,6D7
0EF2C:  MOVLB  0
0EF2E:  CALL   283A
0EF32:  BNC   EF6E
....................                   Sensor[0].RPT100-=0.1; 
0EF34:  BSF    FD8.1
0EF36:  MOVFF  352,6E4
0EF3A:  MOVFF  351,6E3
0EF3E:  MOVFF  350,6E2
0EF42:  MOVFF  34F,6E1
0EF46:  MOVLW  CD
0EF48:  MOVLB  6
0EF4A:  MOVWF  xE8
0EF4C:  MOVLW  CC
0EF4E:  MOVWF  xE7
0EF50:  MOVLW  4C
0EF52:  MOVWF  xE6
0EF54:  MOVLW  7B
0EF56:  MOVWF  xE5
0EF58:  MOVLB  0
0EF5A:  CALL   2364
0EF5E:  MOVFF  03,352
0EF62:  MOVFF  02,351
0EF66:  MOVFF  01,350
0EF6A:  MOVFF  00,34F
....................                RX_Buffer[4]=0x00; 
0EF6E:  CLRF   35
....................                RX_Buffer2[4]=0x00;             
0EF70:  CLRF   40
....................                //BorraBuffer(); 
....................          } 
....................       }else if(Opcion2==9){ 
0EF72:  BRA    F38E
0EF74:  MOVLB  2
0EF76:  MOVF   x85,W
0EF78:  SUBLW  09
0EF7A:  BTFSS  FD8.2
0EF7C:  BRA    F0A8
....................          printf("Config.t2c.txt=\"RPT100B 2\""); 
0EF7E:  MOVLW  2E
0EF80:  MOVWF  FF6
0EF82:  MOVLW  20
0EF84:  MOVWF  FF7
0EF86:  MOVLW  00
0EF88:  MOVWF  FF8
0EF8A:  MOVLB  0
0EF8C:  CALL   43FC
....................          SendDataDisplay();       
0EF90:  CALL   442E
....................          printf("t3c.txt=\"%2.1f\"",Sensor[1].RPT100); 
0EF94:  MOVLW  4A
0EF96:  MOVWF  FF6
0EF98:  MOVLW  20
0EF9A:  MOVWF  FF7
0EF9C:  MOVLW  00
0EF9E:  MOVWF  FF8
0EFA0:  MOVLW  09
0EFA2:  MOVLB  6
0EFA4:  MOVWF  xD4
0EFA6:  MOVLB  0
0EFA8:  CALL   5E96
0EFAC:  MOVLW  01
0EFAE:  MOVWF  FE9
0EFB0:  MOVFF  4B6,6D7
0EFB4:  MOVFF  4B5,6D6
0EFB8:  MOVFF  4B4,6D5
0EFBC:  MOVFF  4B3,6D4
0EFC0:  MOVLB  6
0EFC2:  MOVWF  xD8
0EFC4:  MOVLB  0
0EFC6:  CALL   617E
0EFCA:  MOVLW  22
0EFCC:  BTFSS  F9E.4
0EFCE:  BRA    EFCC
0EFD0:  MOVWF  FAD
....................          SendDataDisplay(); 
0EFD2:  CALL   442E
....................          if(RX_Buffer[4]==0x0a){//Tecla Arriba Oprimida 
0EFD6:  MOVF   35,W
0EFD8:  SUBLW  0A
0EFDA:  BNZ   F03E
....................                if(Sensor[1].RPT100<2.0) 
0EFDC:  MOVFF  4B6,6D6
0EFE0:  MOVFF  4B5,6D5
0EFE4:  MOVFF  4B4,6D4
0EFE8:  MOVFF  4B3,6D3
0EFEC:  MOVLB  6
0EFEE:  CLRF   xDA
0EFF0:  CLRF   xD9
0EFF2:  CLRF   xD8
0EFF4:  MOVLW  80
0EFF6:  MOVWF  xD7
0EFF8:  MOVLB  0
0EFFA:  CALL   283A
0EFFE:  BNC   F03A
....................                   Sensor[1].RPT100+=0.1; 
0F000:  BCF    FD8.1
0F002:  MOVFF  4B6,6E4
0F006:  MOVFF  4B5,6E3
0F00A:  MOVFF  4B4,6E2
0F00E:  MOVFF  4B3,6E1
0F012:  MOVLW  CD
0F014:  MOVLB  6
0F016:  MOVWF  xE8
0F018:  MOVLW  CC
0F01A:  MOVWF  xE7
0F01C:  MOVLW  4C
0F01E:  MOVWF  xE6
0F020:  MOVLW  7B
0F022:  MOVWF  xE5
0F024:  MOVLB  0
0F026:  CALL   2364
0F02A:  MOVFF  03,4B6
0F02E:  MOVFF  02,4B5
0F032:  MOVFF  01,4B4
0F036:  MOVFF  00,4B3
....................                RX_Buffer[4]=0x00;   
0F03A:  CLRF   35
....................                RX_Buffer2[4]=0x00;             
0F03C:  CLRF   40
....................                //BorraBuffer(); 
....................          } 
....................              
....................          if(RX_Buffer[4]==0x0b){//Tecla Abajo Oprimida 
0F03E:  MOVF   35,W
0F040:  SUBLW  0B
0F042:  BNZ   F0A4
....................                if(Sensor[1].RPT100>0.0) 
0F044:  MOVLB  6
0F046:  CLRF   xD6
0F048:  CLRF   xD5
0F04A:  CLRF   xD4
0F04C:  CLRF   xD3
0F04E:  MOVFF  4B6,6DA
0F052:  MOVFF  4B5,6D9
0F056:  MOVFF  4B4,6D8
0F05A:  MOVFF  4B3,6D7
0F05E:  MOVLB  0
0F060:  CALL   283A
0F064:  BNC   F0A0
....................                   Sensor[1].RPT100-=0.1; 
0F066:  BSF    FD8.1
0F068:  MOVFF  4B6,6E4
0F06C:  MOVFF  4B5,6E3
0F070:  MOVFF  4B4,6E2
0F074:  MOVFF  4B3,6E1
0F078:  MOVLW  CD
0F07A:  MOVLB  6
0F07C:  MOVWF  xE8
0F07E:  MOVLW  CC
0F080:  MOVWF  xE7
0F082:  MOVLW  4C
0F084:  MOVWF  xE6
0F086:  MOVLW  7B
0F088:  MOVWF  xE5
0F08A:  MOVLB  0
0F08C:  CALL   2364
0F090:  MOVFF  03,4B6
0F094:  MOVFF  02,4B5
0F098:  MOVFF  01,4B4
0F09C:  MOVFF  00,4B3
....................                RX_Buffer[4]=0x00; 
0F0A0:  CLRF   35
....................                RX_Buffer2[4]=0x00;             
0F0A2:  CLRF   40
....................                //BorraBuffer(); 
....................          } 
....................       }else if(Opcion2==10){ 
0F0A4:  BRA    F38E
0F0A6:  MOVLB  2
0F0A8:  MOVF   x85,W
0F0AA:  SUBLW  0A
0F0AC:  BNZ   F0FC
....................          printf("Config.t2c.txt=\"Ciclos\""); 
0F0AE:  MOVLW  5A
0F0B0:  MOVWF  FF6
0F0B2:  MOVLW  20
0F0B4:  MOVWF  FF7
0F0B6:  MOVLW  00
0F0B8:  MOVWF  FF8
0F0BA:  MOVLB  0
0F0BC:  CALL   43FC
....................          SendDataDisplay();       
0F0C0:  CALL   442E
....................          printf("t3c.txt=\"%03Lu\"",Ciclos); 
0F0C4:  MOVLW  72
0F0C6:  MOVWF  FF6
0F0C8:  MOVLW  20
0F0CA:  MOVWF  FF7
0F0CC:  MOVLW  00
0F0CE:  MOVWF  FF8
0F0D0:  MOVLW  09
0F0D2:  MOVLB  6
0F0D4:  MOVWF  xD4
0F0D6:  MOVLB  0
0F0D8:  CALL   5E96
0F0DC:  MOVLW  0A
0F0DE:  MOVWF  FE9
0F0E0:  MOVFF  299,6D4
0F0E4:  MOVFF  298,6D3
0F0E8:  CALL   6010
0F0EC:  MOVLW  22
0F0EE:  BTFSS  F9E.4
0F0F0:  BRA    F0EE
0F0F2:  MOVWF  FAD
....................          SendDataDisplay(); 
0F0F4:  CALL   442E
....................       }else if(Opcion2==11){ 
0F0F8:  BRA    F38E
0F0FA:  MOVLB  2
0F0FC:  MOVF   x85,W
0F0FE:  SUBLW  0B
0F100:  BNZ   F17C
....................          printf("Config.t2c.txt=\"Atmosferica\""); 
0F102:  MOVLW  82
0F104:  MOVWF  FF6
0F106:  MOVLW  20
0F108:  MOVWF  FF7
0F10A:  MOVLW  00
0F10C:  MOVWF  FF8
0F10E:  MOVLB  0
0F110:  CALL   43FC
....................          SendDataDisplay();       
0F114:  CALL   442E
....................          printf("t3c.txt=\"%03u\"",Atmosferica); 
0F118:  MOVLW  A0
0F11A:  MOVWF  FF6
0F11C:  MOVLW  20
0F11E:  MOVWF  FF7
0F120:  MOVLW  00
0F122:  MOVWF  FF8
0F124:  MOVLW  09
0F126:  MOVLB  6
0F128:  MOVWF  xD4
0F12A:  MOVLB  0
0F12C:  CALL   5E96
0F130:  MOVFF  2C2,6D4
0F134:  MOVLW  03
0F136:  MOVLB  6
0F138:  MOVWF  xD5
0F13A:  MOVLB  0
0F13C:  CALL   5F1A
0F140:  MOVLW  22
0F142:  BTFSS  F9E.4
0F144:  BRA    F142
0F146:  MOVWF  FAD
....................          SendDataDisplay(); 
0F148:  CALL   442E
....................          if(RX_Buffer[4]==0x0a){//Tecla Arriba Oprimida 
0F14C:  MOVF   35,W
0F14E:  SUBLW  0A
0F150:  BNZ   F162
....................                if(Atmosferica<100) 
0F152:  MOVLB  2
0F154:  MOVF   xC2,W
0F156:  SUBLW  63
0F158:  BNC   F15C
....................                   ++Atmosferica; 
0F15A:  INCF   xC2,F
....................                RX_Buffer[4]=0x00;   
0F15C:  CLRF   35
....................                RX_Buffer2[4]=0x00;             
0F15E:  CLRF   40
0F160:  MOVLB  0
....................                //BorraBuffer(); 
....................          } 
....................              
....................          if(RX_Buffer[4]==0x0b){//Tecla Abajo Oprimida 
0F162:  MOVF   35,W
0F164:  SUBLW  0B
0F166:  BNZ   F178
....................                if(Atmosferica>50) 
0F168:  MOVLB  2
0F16A:  MOVF   xC2,W
0F16C:  SUBLW  32
0F16E:  BC    F172
....................                   --Atmosferica; 
0F170:  DECF   xC2,F
....................                RX_Buffer[4]=0x00; 
0F172:  CLRF   35
....................                RX_Buffer2[4]=0x00;             
0F174:  CLRF   40
0F176:  MOVLB  0
....................                //BorraBuffer(); 
....................          } 
....................       }else if(Opcion2==12){ 
0F178:  BRA    F38E
0F17A:  MOVLB  2
0F17C:  MOVF   x85,W
0F17E:  SUBLW  0C
0F180:  BNZ   F1FC
....................          printf("Config.t2c.txt=\"T. Apertura\""); 
0F182:  MOVLW  B0
0F184:  MOVWF  FF6
0F186:  MOVLW  20
0F188:  MOVWF  FF7
0F18A:  MOVLW  00
0F18C:  MOVWF  FF8
0F18E:  MOVLB  0
0F190:  CALL   43FC
....................          SendDataDisplay();       
0F194:  CALL   442E
....................          printf("t3c.txt=\"%03u\"",Tapertura); 
0F198:  MOVLW  CE
0F19A:  MOVWF  FF6
0F19C:  MOVLW  20
0F19E:  MOVWF  FF7
0F1A0:  MOVLW  00
0F1A2:  MOVWF  FF8
0F1A4:  MOVLW  09
0F1A6:  MOVLB  6
0F1A8:  MOVWF  xD4
0F1AA:  MOVLB  0
0F1AC:  CALL   5E96
0F1B0:  MOVFF  27A,6D4
0F1B4:  MOVLW  03
0F1B6:  MOVLB  6
0F1B8:  MOVWF  xD5
0F1BA:  MOVLB  0
0F1BC:  CALL   5F1A
0F1C0:  MOVLW  22
0F1C2:  BTFSS  F9E.4
0F1C4:  BRA    F1C2
0F1C6:  MOVWF  FAD
....................          SendDataDisplay(); 
0F1C8:  CALL   442E
....................          if(RX_Buffer[4]==0x0a){//Tecla Arriba Oprimida 
0F1CC:  MOVF   35,W
0F1CE:  SUBLW  0A
0F1D0:  BNZ   F1E2
....................                if(Tapertura<100) 
0F1D2:  MOVLB  2
0F1D4:  MOVF   x7A,W
0F1D6:  SUBLW  63
0F1D8:  BNC   F1DC
....................                   ++Tapertura; 
0F1DA:  INCF   x7A,F
....................                RX_Buffer[4]=0x00;   
0F1DC:  CLRF   35
....................                RX_Buffer2[4]=0x00;             
0F1DE:  CLRF   40
0F1E0:  MOVLB  0
....................                //BorraBuffer(); 
....................          } 
....................              
....................          if(RX_Buffer[4]==0x0b){//Tecla Abajo Oprimida 
0F1E2:  MOVF   35,W
0F1E4:  SUBLW  0B
0F1E6:  BNZ   F1F8
....................                if(Tapertura>50) 
0F1E8:  MOVLB  2
0F1EA:  MOVF   x7A,W
0F1EC:  SUBLW  32
0F1EE:  BC    F1F2
....................                   --Tapertura; 
0F1F0:  DECF   x7A,F
....................                RX_Buffer[4]=0x00; 
0F1F2:  CLRF   35
....................                RX_Buffer2[4]=0x00;             
0F1F4:  CLRF   40
0F1F6:  MOVLB  0
....................                //BorraBuffer();            
....................          } 
....................       }else if(Opcion2==13){ 
0F1F8:  BRA    F38E
0F1FA:  MOVLB  2
0F1FC:  MOVF   x85,W
0F1FE:  SUBLW  0D
0F200:  BNZ   F282
....................          printf("Config.t2c.txt=\"Vacio Test\""); 
0F202:  MOVLW  DE
0F204:  MOVWF  FF6
0F206:  MOVLW  20
0F208:  MOVWF  FF7
0F20A:  MOVLW  00
0F20C:  MOVWF  FF8
0F20E:  MOVLB  0
0F210:  CALL   43FC
....................          SendDataDisplay();       
0F214:  CALL   442E
....................          printf("t3c.txt=\"%02u\"",vacioTest); 
0F218:  MOVLW  FA
0F21A:  MOVWF  FF6
0F21C:  MOVLW  20
0F21E:  MOVWF  FF7
0F220:  MOVLW  00
0F222:  MOVWF  FF8
0F224:  MOVLW  09
0F226:  MOVLB  6
0F228:  MOVWF  xD4
0F22A:  MOVLB  0
0F22C:  CALL   5E96
0F230:  MOVFF  253,6D4
0F234:  MOVLW  01
0F236:  MOVLB  6
0F238:  MOVWF  xD5
0F23A:  MOVLB  0
0F23C:  CALL   5F1A
0F240:  MOVLW  22
0F242:  BTFSS  F9E.4
0F244:  BRA    F242
0F246:  MOVWF  FAD
....................          SendDataDisplay(); 
0F248:  CALL   442E
....................           
....................             if(RX_Buffer[4]==0x0a){ 
0F24C:  MOVF   35,W
0F24E:  SUBLW  0A
0F250:  BNZ   F25C
....................                   ++vacioTest; 
0F252:  MOVLB  2
0F254:  INCF   x53,F
....................                RX_Buffer[4]=0x00;   
0F256:  CLRF   35
....................                RX_Buffer2[4]=0x00;             
0F258:  CLRF   40
0F25A:  MOVLB  0
....................             } 
....................           
....................             if(RX_Buffer[4]==0x0b){ 
0F25C:  MOVF   35,W
0F25E:  SUBLW  0B
0F260:  BNZ   F26A
....................                   --vacioTest; 
0F262:  MOVLB  2
0F264:  DECF   x53,F
....................                RX_Buffer[4]=0x00; 
0F266:  CLRF   35
....................                RX_Buffer2[4]=0x00;             
0F268:  CLRF   40
....................             } 
....................           
....................          if(vacioTest>30) 
0F26A:  MOVLB  2
0F26C:  MOVF   x53,W
0F26E:  SUBLW  1E
0F270:  BC    F276
....................             vacioTest=17; 
0F272:  MOVLW  11
0F274:  MOVWF  x53
....................          if(vacioTest<17) 
0F276:  MOVF   x53,W
0F278:  SUBLW  10
0F27A:  BNC   F280
....................             vacioTest=30; 
0F27C:  MOVLW  1E
0F27E:  MOVWF  x53
....................       }else if(Opcion2==14){ 
0F280:  BRA    F38C
0F282:  MOVF   x85,W
0F284:  SUBLW  0E
0F286:  BNZ   F308
....................          printf("Config.t2c.txt=\"Pulsos Config\""); 
0F288:  MOVLW  0A
0F28A:  MOVWF  FF6
0F28C:  MOVLW  21
0F28E:  MOVWF  FF7
0F290:  MOVLW  00
0F292:  MOVWF  FF8
0F294:  MOVLB  0
0F296:  CALL   43FC
....................          SendDataDisplay();       
0F29A:  CALL   442E
....................          printf("t3c.txt=\"%02u\"",pulsosConfigurados); 
0F29E:  MOVLW  2A
0F2A0:  MOVWF  FF6
0F2A2:  MOVLW  21
0F2A4:  MOVWF  FF7
0F2A6:  MOVLW  00
0F2A8:  MOVWF  FF8
0F2AA:  MOVLW  09
0F2AC:  MOVLB  6
0F2AE:  MOVWF  xD4
0F2B0:  MOVLB  0
0F2B2:  CALL   5E96
0F2B6:  MOVFF  252,6D4
0F2BA:  MOVLW  01
0F2BC:  MOVLB  6
0F2BE:  MOVWF  xD5
0F2C0:  MOVLB  0
0F2C2:  CALL   5F1A
0F2C6:  MOVLW  22
0F2C8:  BTFSS  F9E.4
0F2CA:  BRA    F2C8
0F2CC:  MOVWF  FAD
....................          SendDataDisplay(); 
0F2CE:  CALL   442E
....................           
....................             if(RX_Buffer[4]==0x0a){ 
0F2D2:  MOVF   35,W
0F2D4:  SUBLW  0A
0F2D6:  BNZ   F2E2
....................                   ++pulsosConfigurados; 
0F2D8:  MOVLB  2
0F2DA:  INCF   x52,F
....................                RX_Buffer[4]=0x00;   
0F2DC:  CLRF   35
....................                RX_Buffer2[4]=0x00;             
0F2DE:  CLRF   40
0F2E0:  MOVLB  0
....................             } 
....................              
....................             if(RX_Buffer[4]==0x0b){ 
0F2E2:  MOVF   35,W
0F2E4:  SUBLW  0B
0F2E6:  BNZ   F2F0
....................                   --pulsosConfigurados; 
0F2E8:  MOVLB  2
0F2EA:  DECF   x52,F
....................                RX_Buffer[4]=0x00; 
0F2EC:  CLRF   35
....................                RX_Buffer2[4]=0x00;             
0F2EE:  CLRF   40
....................             } 
....................           
....................          if(pulsosConfigurados>8) 
0F2F0:  MOVLB  2
0F2F2:  MOVF   x52,W
0F2F4:  SUBLW  08
0F2F6:  BC    F2FC
....................             pulsosConfigurados=2; 
0F2F8:  MOVLW  02
0F2FA:  MOVWF  x52
....................          if(pulsosConfigurados<2) 
0F2FC:  MOVF   x52,W
0F2FE:  SUBLW  01
0F300:  BNC   F306
....................             pulsosConfigurados=8; 
0F302:  MOVLW  08
0F304:  MOVWF  x52
....................       }else if(Opcion2==15){ 
0F306:  BRA    F38C
0F308:  MOVF   x85,W
0F30A:  SUBLW  0F
0F30C:  BNZ   F38C
....................          printf("Config.t2c.txt=\"Vacio Ciclo\""); 
0F30E:  MOVLW  3A
0F310:  MOVWF  FF6
0F312:  MOVLW  21
0F314:  MOVWF  FF7
0F316:  MOVLW  00
0F318:  MOVWF  FF8
0F31A:  MOVLB  0
0F31C:  CALL   43FC
....................          SendDataDisplay();       
0F320:  CALL   442E
....................          printf("t3c.txt=\"%02u\"",vacioCiclo); 
0F324:  MOVLW  58
0F326:  MOVWF  FF6
0F328:  MOVLW  21
0F32A:  MOVWF  FF7
0F32C:  MOVLW  00
0F32E:  MOVWF  FF8
0F330:  MOVLW  09
0F332:  MOVLB  6
0F334:  MOVWF  xD4
0F336:  MOVLB  0
0F338:  CALL   5E96
0F33C:  MOVFF  254,6D4
0F340:  MOVLW  01
0F342:  MOVLB  6
0F344:  MOVWF  xD5
0F346:  MOVLB  0
0F348:  CALL   5F1A
0F34C:  MOVLW  22
0F34E:  BTFSS  F9E.4
0F350:  BRA    F34E
0F352:  MOVWF  FAD
....................          SendDataDisplay(); 
0F354:  CALL   442E
....................           
....................             if(RX_Buffer[4]==0x0a){ 
0F358:  MOVF   35,W
0F35A:  SUBLW  0A
0F35C:  BNZ   F368
....................                   ++vacioCiclo; 
0F35E:  MOVLB  2
0F360:  INCF   x54,F
....................                RX_Buffer[4]=0x00;   
0F362:  CLRF   35
....................                RX_Buffer2[4]=0x00;             
0F364:  CLRF   40
0F366:  MOVLB  0
....................             } 
....................              
....................             if(RX_Buffer[4]==0x0b){ 
0F368:  MOVF   35,W
0F36A:  SUBLW  0B
0F36C:  BNZ   F376
....................                   --vacioCiclo; 
0F36E:  MOVLB  2
0F370:  DECF   x54,F
....................                RX_Buffer[4]=0x00; 
0F372:  CLRF   35
....................                RX_Buffer2[4]=0x00;             
0F374:  CLRF   40
....................             } 
....................           
....................          if(vacioCiclo>40) 
0F376:  MOVLB  2
0F378:  MOVF   x54,W
0F37A:  SUBLW  28
0F37C:  BC    F382
....................             vacioCiclo=17; 
0F37E:  MOVLW  11
0F380:  MOVWF  x54
....................          if(vacioCiclo<17) 
0F382:  MOVF   x54,W
0F384:  SUBLW  10
0F386:  BNC   F38C
....................             vacioCiclo=40; 
0F388:  MOVLW  28
0F38A:  MOVWF  x54
0F38C:  MOVLB  0
....................       } 
....................        
....................       if(RX_Buffer[4]==0x0c){//Tecla Izquierda Oprimida 
0F38E:  MOVF   35,W
0F390:  SUBLW  0C
0F392:  BNZ   F39E
....................             Opcion2++; 
0F394:  MOVLB  2
0F396:  INCF   x85,F
....................             RX_Buffer[4]=0x00;   
0F398:  CLRF   35
....................             RX_Buffer2[4]=0x00;             
0F39A:  CLRF   40
0F39C:  MOVLB  0
....................             //BorraBuffer();    
....................       } 
....................           
....................       if(RX_Buffer[4]==0x0d){//Tecla Derecha Oprimida          
0F39E:  MOVF   35,W
0F3A0:  SUBLW  0D
0F3A2:  BNZ   F3AE
....................             Opcion2--; 
0F3A4:  MOVLB  2
0F3A6:  DECF   x85,F
....................             RX_Buffer[4]=0x00; 
0F3A8:  CLRF   35
....................             RX_Buffer2[4]=0x00;             
0F3AA:  CLRF   40
0F3AC:  MOVLB  0
....................             //BorraBuffer(); 
....................       } 
....................        
....................       if(RX_Buffer[4]==0x11){//Tecla Regresar 
0F3AE:  MOVF   35,W
0F3B0:  SUBLW  11
0F3B2:  BTFSS  FD8.2
0F3B4:  BRA    F934
....................          delay_ms(20); 
0F3B6:  MOVLW  14
0F3B8:  MOVLB  6
0F3BA:  MOVWF  xE1
0F3BC:  MOVLB  0
0F3BE:  CALL   21DE
....................          if(RX_Buffer[4]==0x11){ 
0F3C2:  MOVF   35,W
0F3C4:  SUBLW  11
0F3C6:  BTFSS  FD8.2
0F3C8:  BRA    F934
....................             if(!GuardaEEPROM){ 
0F3CA:  MOVLB  1
0F3CC:  BTFSC  x06.1
0F3CE:  BRA    F91E
....................                write_eeprom(20,(int8)Ganancia); 
0F3D0:  MOVFF  222,6E4
0F3D4:  MOVFF  221,6E3
0F3D8:  MOVFF  220,6E2
0F3DC:  MOVFF  21F,6E1
0F3E0:  MOVLB  0
0F3E2:  CALL   5098
0F3E6:  MOVFF  01,6CF
0F3EA:  CLRF   FAA
0F3EC:  MOVLW  14
0F3EE:  MOVWF  FA9
0F3F0:  MOVFF  6CF,FA8
0F3F4:  BCF    FA6.6
0F3F6:  BCF    FA6.7
0F3F8:  BSF    FA6.2
0F3FA:  MOVF   FF2,W
0F3FC:  MOVWF  00
0F3FE:  BCF    FF2.6
0F400:  BCF    FF2.7
0F402:  MOVLB  F
0F404:  MOVLW  55
0F406:  MOVWF  FA7
0F408:  MOVLW  AA
0F40A:  MOVWF  FA7
0F40C:  BSF    FA6.1
0F40E:  BTFSC  FA6.1
0F410:  BRA    F40E
0F412:  BCF    FA6.2
0F414:  MOVF   00,W
0F416:  IORWF  FF2,F
....................                delay_ms(10); 
0F418:  MOVLW  0A
0F41A:  MOVLB  6
0F41C:  MOVWF  xE1
0F41E:  MOVLB  0
0F420:  CALL   21DE
....................                write_eeprom(21,Sensor[0].Ajuste); 
0F424:  CLRF   FAA
0F426:  MOVLW  15
0F428:  MOVWF  FA9
0F42A:  MOVFF  35D,FA8
0F42E:  BCF    FA6.6
0F430:  BCF    FA6.7
0F432:  BSF    FA6.2
0F434:  MOVF   FF2,W
0F436:  MOVWF  00
0F438:  BCF    FF2.6
0F43A:  BCF    FF2.7
0F43C:  MOVLB  F
0F43E:  MOVLW  55
0F440:  MOVWF  FA7
0F442:  MOVLW  AA
0F444:  MOVWF  FA7
0F446:  BSF    FA6.1
0F448:  BTFSC  FA6.1
0F44A:  BRA    F448
0F44C:  BCF    FA6.2
0F44E:  MOVF   00,W
0F450:  IORWF  FF2,F
....................                delay_ms(10); 
0F452:  MOVLW  0A
0F454:  MOVLB  6
0F456:  MOVWF  xE1
0F458:  MOVLB  0
0F45A:  CALL   21DE
....................                write_eeprom(22,Sensor[0].Ajusten); 
0F45E:  CLRF   FAA
0F460:  MOVLW  16
0F462:  MOVWF  FA9
0F464:  MOVFF  35E,FA8
0F468:  BCF    FA6.6
0F46A:  BCF    FA6.7
0F46C:  BSF    FA6.2
0F46E:  MOVF   FF2,W
0F470:  MOVWF  00
0F472:  BCF    FF2.6
0F474:  BCF    FF2.7
0F476:  MOVLB  F
0F478:  MOVLW  55
0F47A:  MOVWF  FA7
0F47C:  MOVLW  AA
0F47E:  MOVWF  FA7
0F480:  BSF    FA6.1
0F482:  BTFSC  FA6.1
0F484:  BRA    F482
0F486:  BCF    FA6.2
0F488:  MOVF   00,W
0F48A:  IORWF  FF2,F
....................                delay_ms(10); 
0F48C:  MOVLW  0A
0F48E:  MOVLB  6
0F490:  MOVWF  xE1
0F492:  MOVLB  0
0F494:  CALL   21DE
....................                write_eeprom(23,Sensor[1].Ajuste); 
0F498:  CLRF   FAA
0F49A:  MOVLW  17
0F49C:  MOVWF  FA9
0F49E:  MOVFF  4C1,FA8
0F4A2:  BCF    FA6.6
0F4A4:  BCF    FA6.7
0F4A6:  BSF    FA6.2
0F4A8:  MOVF   FF2,W
0F4AA:  MOVWF  00
0F4AC:  BCF    FF2.6
0F4AE:  BCF    FF2.7
0F4B0:  MOVLB  F
0F4B2:  MOVLW  55
0F4B4:  MOVWF  FA7
0F4B6:  MOVLW  AA
0F4B8:  MOVWF  FA7
0F4BA:  BSF    FA6.1
0F4BC:  BTFSC  FA6.1
0F4BE:  BRA    F4BC
0F4C0:  BCF    FA6.2
0F4C2:  MOVF   00,W
0F4C4:  IORWF  FF2,F
....................                delay_ms(10); 
0F4C6:  MOVLW  0A
0F4C8:  MOVLB  6
0F4CA:  MOVWF  xE1
0F4CC:  MOVLB  0
0F4CE:  CALL   21DE
....................                write_eeprom(24,Sensor[1].Ajusten); 
0F4D2:  CLRF   FAA
0F4D4:  MOVLW  18
0F4D6:  MOVWF  FA9
0F4D8:  MOVFF  4C2,FA8
0F4DC:  BCF    FA6.6
0F4DE:  BCF    FA6.7
0F4E0:  BSF    FA6.2
0F4E2:  MOVF   FF2,W
0F4E4:  MOVWF  00
0F4E6:  BCF    FF2.6
0F4E8:  BCF    FF2.7
0F4EA:  MOVLB  F
0F4EC:  MOVLW  55
0F4EE:  MOVWF  FA7
0F4F0:  MOVLW  AA
0F4F2:  MOVWF  FA7
0F4F4:  BSF    FA6.1
0F4F6:  BTFSC  FA6.1
0F4F8:  BRA    F4F6
0F4FA:  BCF    FA6.2
0F4FC:  MOVF   00,W
0F4FE:  IORWF  FF2,F
....................                delay_ms(10); 
0F500:  MOVLW  0A
0F502:  MOVLB  6
0F504:  MOVWF  xE1
0F506:  MOVLB  0
0F508:  CALL   21DE
....................                write_eeprom(25,(int8)MediaMovil); 
0F50C:  CLRF   FAA
0F50E:  MOVLW  19
0F510:  MOVWF  FA9
0F512:  MOVFF  1F7,FA8
0F516:  BCF    FA6.6
0F518:  BCF    FA6.7
0F51A:  BSF    FA6.2
0F51C:  MOVF   FF2,W
0F51E:  MOVWF  00
0F520:  BCF    FF2.6
0F522:  BCF    FF2.7
0F524:  MOVLB  F
0F526:  MOVLW  55
0F528:  MOVWF  FA7
0F52A:  MOVLW  AA
0F52C:  MOVWF  FA7
0F52E:  BSF    FA6.1
0F530:  BTFSC  FA6.1
0F532:  BRA    F530
0F534:  BCF    FA6.2
0F536:  MOVF   00,W
0F538:  IORWF  FF2,F
....................                delay_ms(10); 
0F53A:  MOVLW  0A
0F53C:  MOVLB  6
0F53E:  MOVWF  xE1
0F540:  MOVLB  0
0F542:  CALL   21DE
....................                write_eeprom(26,(int8)Tciclo); 
0F546:  MOVFF  20A,6E4
0F54A:  MOVFF  209,6E3
0F54E:  MOVFF  208,6E2
0F552:  MOVFF  207,6E1
0F556:  CALL   5098
0F55A:  MOVFF  01,6CF
0F55E:  CLRF   FAA
0F560:  MOVLW  1A
0F562:  MOVWF  FA9
0F564:  MOVFF  6CF,FA8
0F568:  BCF    FA6.6
0F56A:  BCF    FA6.7
0F56C:  BSF    FA6.2
0F56E:  MOVF   FF2,W
0F570:  MOVWF  00
0F572:  BCF    FF2.6
0F574:  BCF    FF2.7
0F576:  MOVLB  F
0F578:  MOVLW  55
0F57A:  MOVWF  FA7
0F57C:  MOVLW  AA
0F57E:  MOVWF  FA7
0F580:  BSF    FA6.1
0F582:  BTFSC  FA6.1
0F584:  BRA    F582
0F586:  BCF    FA6.2
0F588:  MOVF   00,W
0F58A:  IORWF  FF2,F
....................                delay_ms(10); 
0F58C:  MOVLW  0A
0F58E:  MOVLB  6
0F590:  MOVWF  xE1
0F592:  MOVLB  0
0F594:  CALL   21DE
....................                write_eeprom(28,(int8)Sensor[0].RPT100); 
0F598:  MOVFF  352,6E4
0F59C:  MOVFF  351,6E3
0F5A0:  MOVFF  350,6E2
0F5A4:  MOVFF  34F,6E1
0F5A8:  CALL   5098
0F5AC:  MOVFF  01,6CF
0F5B0:  CLRF   FAA
0F5B2:  MOVLW  1C
0F5B4:  MOVWF  FA9
0F5B6:  MOVFF  6CF,FA8
0F5BA:  BCF    FA6.6
0F5BC:  BCF    FA6.7
0F5BE:  BSF    FA6.2
0F5C0:  MOVF   FF2,W
0F5C2:  MOVWF  00
0F5C4:  BCF    FF2.6
0F5C6:  BCF    FF2.7
0F5C8:  MOVLB  F
0F5CA:  MOVLW  55
0F5CC:  MOVWF  FA7
0F5CE:  MOVLW  AA
0F5D0:  MOVWF  FA7
0F5D2:  BSF    FA6.1
0F5D4:  BTFSC  FA6.1
0F5D6:  BRA    F5D4
0F5D8:  BCF    FA6.2
0F5DA:  MOVF   00,W
0F5DC:  IORWF  FF2,F
....................                delay_ms(10); 
0F5DE:  MOVLW  0A
0F5E0:  MOVLB  6
0F5E2:  MOVWF  xE1
0F5E4:  MOVLB  0
0F5E6:  CALL   21DE
....................                Temporal=Sensor[0].RPT100-((int8)Sensor[0].RPT100); 
0F5EA:  MOVFF  352,6E4
0F5EE:  MOVFF  351,6E3
0F5F2:  MOVFF  350,6E2
0F5F6:  MOVFF  34F,6E1
0F5FA:  CALL   5098
0F5FE:  MOVLB  6
0F600:  CLRF   xE2
0F602:  MOVFF  01,6E1
0F606:  MOVLB  0
0F608:  CALL   21A8
0F60C:  BSF    FD8.1
0F60E:  MOVFF  352,6E4
0F612:  MOVFF  351,6E3
0F616:  MOVFF  350,6E2
0F61A:  MOVFF  34F,6E1
0F61E:  MOVFF  03,6E8
0F622:  MOVFF  02,6E7
0F626:  MOVFF  01,6E6
0F62A:  MOVFF  00,6E5
0F62E:  CALL   2364
0F632:  MOVFF  03,1CC
0F636:  MOVFF  02,1CB
0F63A:  MOVFF  01,1CA
0F63E:  MOVFF  00,1C9
....................                Temporal=Temporal*10; 
0F642:  MOVFF  1CC,6E8
0F646:  MOVFF  1CB,6E7
0F64A:  MOVFF  1CA,6E6
0F64E:  MOVFF  1C9,6E5
0F652:  MOVLB  6
0F654:  CLRF   xEC
0F656:  CLRF   xEB
0F658:  MOVLW  20
0F65A:  MOVWF  xEA
0F65C:  MOVLW  82
0F65E:  MOVWF  xE9
0F660:  MOVLB  0
0F662:  CALL   44C4
0F666:  MOVFF  03,1CC
0F66A:  MOVFF  02,1CB
0F66E:  MOVFF  01,1CA
0F672:  MOVFF  00,1C9
....................                write_eeprom(27,(int8)Temporal); 
0F676:  MOVFF  1CC,6E4
0F67A:  MOVFF  1CB,6E3
0F67E:  MOVFF  1CA,6E2
0F682:  MOVFF  1C9,6E1
0F686:  CALL   5098
0F68A:  MOVFF  01,6CF
0F68E:  CLRF   FAA
0F690:  MOVLW  1B
0F692:  MOVWF  FA9
0F694:  MOVFF  6CF,FA8
0F698:  BCF    FA6.6
0F69A:  BCF    FA6.7
0F69C:  BSF    FA6.2
0F69E:  MOVF   FF2,W
0F6A0:  MOVWF  00
0F6A2:  BCF    FF2.6
0F6A4:  BCF    FF2.7
0F6A6:  MOVLB  F
0F6A8:  MOVLW  55
0F6AA:  MOVWF  FA7
0F6AC:  MOVLW  AA
0F6AE:  MOVWF  FA7
0F6B0:  BSF    FA6.1
0F6B2:  BTFSC  FA6.1
0F6B4:  BRA    F6B2
0F6B6:  BCF    FA6.2
0F6B8:  MOVF   00,W
0F6BA:  IORWF  FF2,F
....................                delay_ms(10); 
0F6BC:  MOVLW  0A
0F6BE:  MOVLB  6
0F6C0:  MOVWF  xE1
0F6C2:  MOVLB  0
0F6C4:  CALL   21DE
....................                write_eeprom(30,(int8)Sensor[1].RPT100); 
0F6C8:  MOVFF  4B6,6E4
0F6CC:  MOVFF  4B5,6E3
0F6D0:  MOVFF  4B4,6E2
0F6D4:  MOVFF  4B3,6E1
0F6D8:  CALL   5098
0F6DC:  MOVFF  01,6CF
0F6E0:  CLRF   FAA
0F6E2:  MOVLW  1E
0F6E4:  MOVWF  FA9
0F6E6:  MOVFF  6CF,FA8
0F6EA:  BCF    FA6.6
0F6EC:  BCF    FA6.7
0F6EE:  BSF    FA6.2
0F6F0:  MOVF   FF2,W
0F6F2:  MOVWF  00
0F6F4:  BCF    FF2.6
0F6F6:  BCF    FF2.7
0F6F8:  MOVLB  F
0F6FA:  MOVLW  55
0F6FC:  MOVWF  FA7
0F6FE:  MOVLW  AA
0F700:  MOVWF  FA7
0F702:  BSF    FA6.1
0F704:  BTFSC  FA6.1
0F706:  BRA    F704
0F708:  BCF    FA6.2
0F70A:  MOVF   00,W
0F70C:  IORWF  FF2,F
....................                delay_ms(10); 
0F70E:  MOVLW  0A
0F710:  MOVLB  6
0F712:  MOVWF  xE1
0F714:  MOVLB  0
0F716:  CALL   21DE
....................                Temporal=Sensor[1].RPT100-((int8)Sensor[1].RPT100); 
0F71A:  MOVFF  4B6,6E4
0F71E:  MOVFF  4B5,6E3
0F722:  MOVFF  4B4,6E2
0F726:  MOVFF  4B3,6E1
0F72A:  CALL   5098
0F72E:  MOVLB  6
0F730:  CLRF   xE2
0F732:  MOVFF  01,6E1
0F736:  MOVLB  0
0F738:  CALL   21A8
0F73C:  BSF    FD8.1
0F73E:  MOVFF  4B6,6E4
0F742:  MOVFF  4B5,6E3
0F746:  MOVFF  4B4,6E2
0F74A:  MOVFF  4B3,6E1
0F74E:  MOVFF  03,6E8
0F752:  MOVFF  02,6E7
0F756:  MOVFF  01,6E6
0F75A:  MOVFF  00,6E5
0F75E:  CALL   2364
0F762:  MOVFF  03,1CC
0F766:  MOVFF  02,1CB
0F76A:  MOVFF  01,1CA
0F76E:  MOVFF  00,1C9
....................                Temporal=Temporal*10; 
0F772:  MOVFF  1CC,6E8
0F776:  MOVFF  1CB,6E7
0F77A:  MOVFF  1CA,6E6
0F77E:  MOVFF  1C9,6E5
0F782:  MOVLB  6
0F784:  CLRF   xEC
0F786:  CLRF   xEB
0F788:  MOVLW  20
0F78A:  MOVWF  xEA
0F78C:  MOVLW  82
0F78E:  MOVWF  xE9
0F790:  MOVLB  0
0F792:  CALL   44C4
0F796:  MOVFF  03,1CC
0F79A:  MOVFF  02,1CB
0F79E:  MOVFF  01,1CA
0F7A2:  MOVFF  00,1C9
....................                write_eeprom(29,(int8)Temporal); 
0F7A6:  MOVFF  1CC,6E4
0F7AA:  MOVFF  1CB,6E3
0F7AE:  MOVFF  1CA,6E2
0F7B2:  MOVFF  1C9,6E1
0F7B6:  CALL   5098
0F7BA:  MOVFF  01,6CF
0F7BE:  CLRF   FAA
0F7C0:  MOVLW  1D
0F7C2:  MOVWF  FA9
0F7C4:  MOVFF  6CF,FA8
0F7C8:  BCF    FA6.6
0F7CA:  BCF    FA6.7
0F7CC:  BSF    FA6.2
0F7CE:  MOVF   FF2,W
0F7D0:  MOVWF  00
0F7D2:  BCF    FF2.6
0F7D4:  BCF    FF2.7
0F7D6:  MOVLB  F
0F7D8:  MOVLW  55
0F7DA:  MOVWF  FA7
0F7DC:  MOVLW  AA
0F7DE:  MOVWF  FA7
0F7E0:  BSF    FA6.1
0F7E2:  BTFSC  FA6.1
0F7E4:  BRA    F7E2
0F7E6:  BCF    FA6.2
0F7E8:  MOVF   00,W
0F7EA:  IORWF  FF2,F
....................                delay_ms(10); 
0F7EC:  MOVLW  0A
0F7EE:  MOVLB  6
0F7F0:  MOVWF  xE1
0F7F2:  MOVLB  0
0F7F4:  CALL   21DE
....................                write_eeprom(31,Atmosferica); 
0F7F8:  CLRF   FAA
0F7FA:  MOVLW  1F
0F7FC:  MOVWF  FA9
0F7FE:  MOVFF  2C2,FA8
0F802:  BCF    FA6.6
0F804:  BCF    FA6.7
0F806:  BSF    FA6.2
0F808:  MOVF   FF2,W
0F80A:  MOVWF  00
0F80C:  BCF    FF2.6
0F80E:  BCF    FF2.7
0F810:  MOVLB  F
0F812:  MOVLW  55
0F814:  MOVWF  FA7
0F816:  MOVLW  AA
0F818:  MOVWF  FA7
0F81A:  BSF    FA6.1
0F81C:  BTFSC  FA6.1
0F81E:  BRA    F81C
0F820:  BCF    FA6.2
0F822:  MOVF   00,W
0F824:  IORWF  FF2,F
....................                delay_ms(10); 
0F826:  MOVLW  0A
0F828:  MOVLB  6
0F82A:  MOVWF  xE1
0F82C:  MOVLB  0
0F82E:  CALL   21DE
....................                write_eeprom(32,Tapertura); 
0F832:  CLRF   FAA
0F834:  MOVLW  20
0F836:  MOVWF  FA9
0F838:  MOVFF  27A,FA8
0F83C:  BCF    FA6.6
0F83E:  BCF    FA6.7
0F840:  BSF    FA6.2
0F842:  MOVF   FF2,W
0F844:  MOVWF  00
0F846:  BCF    FF2.6
0F848:  BCF    FF2.7
0F84A:  MOVLB  F
0F84C:  MOVLW  55
0F84E:  MOVWF  FA7
0F850:  MOVLW  AA
0F852:  MOVWF  FA7
0F854:  BSF    FA6.1
0F856:  BTFSC  FA6.1
0F858:  BRA    F856
0F85A:  BCF    FA6.2
0F85C:  MOVF   00,W
0F85E:  IORWF  FF2,F
....................                delay_ms(10); 
0F860:  MOVLW  0A
0F862:  MOVLB  6
0F864:  MOVWF  xE1
0F866:  MOVLB  0
0F868:  CALL   21DE
....................                write_eeprom(50,pulsosConfigurados); 
0F86C:  CLRF   FAA
0F86E:  MOVLW  32
0F870:  MOVWF  FA9
0F872:  MOVFF  252,FA8
0F876:  BCF    FA6.6
0F878:  BCF    FA6.7
0F87A:  BSF    FA6.2
0F87C:  MOVF   FF2,W
0F87E:  MOVWF  00
0F880:  BCF    FF2.6
0F882:  BCF    FF2.7
0F884:  MOVLB  F
0F886:  MOVLW  55
0F888:  MOVWF  FA7
0F88A:  MOVLW  AA
0F88C:  MOVWF  FA7
0F88E:  BSF    FA6.1
0F890:  BTFSC  FA6.1
0F892:  BRA    F890
0F894:  BCF    FA6.2
0F896:  MOVF   00,W
0F898:  IORWF  FF2,F
....................                delay_ms(10); 
0F89A:  MOVLW  0A
0F89C:  MOVLB  6
0F89E:  MOVWF  xE1
0F8A0:  MOVLB  0
0F8A2:  CALL   21DE
....................                write_eeprom(51,vacioTest); 
0F8A6:  CLRF   FAA
0F8A8:  MOVLW  33
0F8AA:  MOVWF  FA9
0F8AC:  MOVFF  253,FA8
0F8B0:  BCF    FA6.6
0F8B2:  BCF    FA6.7
0F8B4:  BSF    FA6.2
0F8B6:  MOVF   FF2,W
0F8B8:  MOVWF  00
0F8BA:  BCF    FF2.6
0F8BC:  BCF    FF2.7
0F8BE:  MOVLB  F
0F8C0:  MOVLW  55
0F8C2:  MOVWF  FA7
0F8C4:  MOVLW  AA
0F8C6:  MOVWF  FA7
0F8C8:  BSF    FA6.1
0F8CA:  BTFSC  FA6.1
0F8CC:  BRA    F8CA
0F8CE:  BCF    FA6.2
0F8D0:  MOVF   00,W
0F8D2:  IORWF  FF2,F
....................                delay_ms(10); 
0F8D4:  MOVLW  0A
0F8D6:  MOVLB  6
0F8D8:  MOVWF  xE1
0F8DA:  MOVLB  0
0F8DC:  CALL   21DE
....................                write_eeprom(52,vacioCiclo); 
0F8E0:  CLRF   FAA
0F8E2:  MOVLW  34
0F8E4:  MOVWF  FA9
0F8E6:  MOVFF  254,FA8
0F8EA:  BCF    FA6.6
0F8EC:  BCF    FA6.7
0F8EE:  BSF    FA6.2
0F8F0:  MOVF   FF2,W
0F8F2:  MOVWF  00
0F8F4:  BCF    FF2.6
0F8F6:  BCF    FF2.7
0F8F8:  MOVLB  F
0F8FA:  MOVLW  55
0F8FC:  MOVWF  FA7
0F8FE:  MOVLW  AA
0F900:  MOVWF  FA7
0F902:  BSF    FA6.1
0F904:  BTFSC  FA6.1
0F906:  BRA    F904
0F908:  BCF    FA6.2
0F90A:  MOVF   00,W
0F90C:  IORWF  FF2,F
....................                delay_ms(10); 
0F90E:  MOVLW  0A
0F910:  MOVLB  6
0F912:  MOVWF  xE1
0F914:  MOVLB  0
0F916:  CALL   21DE
....................                GuardaEEPROM=ON; 
0F91A:  MOVLB  1
0F91C:  BSF    x06.1
....................             } 
....................             printf("page Menu"); 
0F91E:  MOVLW  68
0F920:  MOVWF  FF6
0F922:  MOVLW  21
0F924:  MOVWF  FF7
0F926:  MOVLW  00
0F928:  MOVWF  FF8
0F92A:  MOVLB  0
0F92C:  CALL   43FC
....................             SendDataDisplay(); 
0F930:  CALL   442E
....................             //BorraBuffer(); 
....................          } 
....................       } 
....................       printf("fecha.txt=\"Fecha:%02u/%02u/20%02u    Hora: %02u:%02u\"",Dia,Mes,Year,Hora,Minuto); 
0F934:  MOVLW  72
0F936:  MOVWF  FF6
0F938:  MOVLW  21
0F93A:  MOVWF  FF7
0F93C:  MOVLW  00
0F93E:  MOVWF  FF8
0F940:  MOVLW  11
0F942:  MOVLB  6
0F944:  MOVWF  xD4
0F946:  MOVLB  0
0F948:  CALL   5E96
0F94C:  MOVFF  2BA,6D4
0F950:  MOVLW  01
0F952:  MOVLB  6
0F954:  MOVWF  xD5
0F956:  MOVLB  0
0F958:  CALL   5F1A
0F95C:  MOVLW  2F
0F95E:  BTFSS  F9E.4
0F960:  BRA    F95E
0F962:  MOVWF  FAD
0F964:  MOVFF  2B9,6D4
0F968:  MOVLW  01
0F96A:  MOVLB  6
0F96C:  MOVWF  xD5
0F96E:  MOVLB  0
0F970:  CALL   5F1A
0F974:  MOVLW  2F
0F976:  BTFSS  F9E.4
0F978:  BRA    F976
0F97A:  MOVWF  FAD
0F97C:  MOVLW  32
0F97E:  BTFSS  F9E.4
0F980:  BRA    F97E
0F982:  MOVWF  FAD
0F984:  MOVLW  30
0F986:  BTFSS  F9E.4
0F988:  BRA    F986
0F98A:  MOVWF  FAD
0F98C:  MOVFF  2B8,6D4
0F990:  MOVLW  01
0F992:  MOVLB  6
0F994:  MOVWF  xD5
0F996:  MOVLB  0
0F998:  CALL   5F1A
0F99C:  MOVLW  93
0F99E:  MOVWF  FF6
0F9A0:  MOVLW  21
0F9A2:  MOVWF  FF7
0F9A4:  MOVLW  00
0F9A6:  MOVWF  FF8
0F9A8:  MOVLW  0A
0F9AA:  MOVLB  6
0F9AC:  MOVWF  xD4
0F9AE:  MOVLB  0
0F9B0:  CALL   5E96
0F9B4:  MOVFF  2BB,6D4
0F9B8:  MOVLW  01
0F9BA:  MOVLB  6
0F9BC:  MOVWF  xD5
0F9BE:  MOVLB  0
0F9C0:  CALL   5F1A
0F9C4:  MOVLW  3A
0F9C6:  BTFSS  F9E.4
0F9C8:  BRA    F9C6
0F9CA:  MOVWF  FAD
0F9CC:  MOVFF  2BC,6D4
0F9D0:  MOVLW  01
0F9D2:  MOVLB  6
0F9D4:  MOVWF  xD5
0F9D6:  MOVLB  0
0F9D8:  CALL   5F1A
0F9DC:  MOVLW  22
0F9DE:  BTFSS  F9E.4
0F9E0:  BRA    F9DE
0F9E2:  MOVWF  FAD
....................       SendDataDisplay();  
0F9E4:  CALL   442E
....................     } 
.................... //_--------------------------------------------------------------------------------------------------------------------------------------------------------        
....................  
....................    } 
0F9E8:  MOVLB  0
0F9EA:  GOTO   81FE
.................... } 
0F9EE:  SLEEP 

Configuration Fuses:
   Word  1: 0200   HS NOIESO NOFCMEN
   Word  2: 1B19   NOBROWNOUT WDT BORV20 NOPUT WDT8192
   Word  3: 0000   NOPBADEN NOLPT1OSC NOMCLR
   Word  4: 00B0   NOSTVREN NODEBUG NOLVP NOXINST BBSIZ4K
   Word  5: C03F   NOPROTECT NOCPD NOCPB
   Word  6: E03F   NOWRT NOWRTD NOWRTC NOWRTB
   Word  7: 403F   NOEBTR NOEBTRB
