CCS PCH C Compiler, Version 4.104, 5967               12-jul.-21 16:50

               Filename: D:\Laboratorio\Autoclave\Autoclave Horizontal\Sin Precamara\2021\Autoclave 24L Artilab #004588646 OP2021129\Firmware V4.1.8 - Enfirador-200Ciclos-Impresora-Absoluta\GLCD_Controller_V3.0.1\GLCD_Controller.lst

               ROM used: 62204 bytes (63%)
                         Largest free fragment is 32768
               RAM used: 1109 (33%) at main() level
                         1137 (34%) worst case
               Stack:    5 worst case (4 in main + 1 for interrupts)

*
00000:  GOTO   8288
*
00008:  GOTO   00BA
0000C:  NOP   
0000E:  NOP   
00010:  NOP   
00012:  NOP   
00014:  NOP   
00016:  NOP   
00018:  MOVWF  04
0001A:  MOVFF  FD8,05
0001E:  MOVFF  FE0,06
00022:  MOVLB  0
00024:  MOVFF  FE9,0C
00028:  MOVFF  FEA,07
0002C:  MOVFF  FE1,08
00030:  MOVFF  FE2,09
00034:  MOVFF  FD9,0A
00038:  MOVFF  FDA,0B
0003C:  MOVFF  FF3,12
00040:  MOVFF  FF4,13
00044:  MOVFF  FFA,14
00048:  MOVFF  FFB,15
0004C:  MOVFF  00,0E
00050:  MOVFF  01,0F
00054:  MOVFF  02,10
00058:  MOVFF  03,11
0005C:  BTFSS  FF2.5
0005E:  GOTO   0068
00062:  BTFSC  FF2.2
00064:  GOTO   03B6
00068:  BTFSS  F9D.0
0006A:  GOTO   0074
0006E:  BTFSC  F9E.0
00070:  GOTO   040E
00074:  MOVFF  0E,00
00078:  MOVFF  0F,01
0007C:  MOVFF  10,02
00080:  MOVFF  11,03
00084:  MOVFF  0C,FE9
00088:  MOVFF  07,FEA
0008C:  BSF    07.7
0008E:  MOVFF  08,FE1
00092:  MOVFF  09,FE2
00096:  MOVFF  0A,FD9
0009A:  MOVFF  0B,FDA
0009E:  MOVFF  12,FF3
000A2:  MOVFF  13,FF4
000A6:  MOVFF  14,FFA
000AA:  MOVFF  15,FFB
000AE:  MOVF   04,W
000B0:  MOVFF  06,FE0
000B4:  MOVFF  05,FD8
000B8:  RETFIE 0
000BA:  MOVWF  17
000BC:  MOVFF  FD8,18
000C0:  MOVFF  FE0,19
000C4:  MOVLB  0
000C6:  MOVFF  FE9,1F
000CA:  MOVFF  FEA,1A
000CE:  MOVFF  FE1,1B
000D2:  MOVFF  FE2,1C
000D6:  MOVFF  FD9,1D
000DA:  MOVFF  FDA,1E
000DE:  MOVFF  FF3,25
000E2:  MOVFF  FF4,26
000E6:  MOVFF  FFA,27
000EA:  MOVFF  FFB,28
000EE:  MOVFF  00,21
000F2:  MOVFF  01,22
000F6:  MOVFF  02,23
000FA:  MOVFF  03,24
000FE:  BTFSS  F9D.5
00100:  GOTO   010A
00104:  BTFSC  F9E.5
00106:  GOTO   0348
0010A:  MOVFF  21,00
0010E:  MOVFF  22,01
00112:  MOVFF  23,02
00116:  MOVFF  24,03
0011A:  MOVFF  1F,FE9
0011E:  MOVFF  1A,FEA
00122:  BSF    1A.7
00124:  MOVFF  1B,FE1
00128:  MOVFF  1C,FE2
0012C:  MOVFF  1D,FD9
00130:  MOVFF  1E,FDA
00134:  MOVFF  25,FF3
00138:  MOVFF  26,FF4
0013C:  MOVFF  27,FFA
00140:  MOVFF  28,FFB
00144:  MOVF   17,W
00146:  MOVFF  19,FE0
0014A:  MOVFF  18,FD8
0014E:  RETFIE 0
.................... //Falta crear menu de ajuste de variables y de norma CFR21 
....................  
.................... #include <18F4685.h> 
.................... //////// Standard Header file for the PIC18F4685 device //////////////// 
.................... #device PIC18F4685 
.................... #list 
....................  
.................... #device adc=10 
.................... #device HIGH_INTS=TRUE //Activamos niveles de prioridad 
.................... #fuses HS,WDT8192,NOPROTECT,NOLVP,NODEBUG,NOSTVREN,PUT,NOCPD,NOWRT,NOIESO,NOFCMEN,NOPBADEN,NOWRTC,NOWRTB,NOEBTR,NOEBTRB,NOCPB,NOXINST,NOLPT1OSC,NOMCLR,NOBROWNOUT,BORV42 
.................... #use delay(clock=20000000) 
*
01A6C:  MOVLW  04
01A6E:  MOVWF  FEA
01A70:  MOVLW  63
01A72:  MOVWF  FE9
01A74:  MOVF   FEF,W
01A76:  BZ    1A92
01A78:  MOVLW  06
01A7A:  MOVWF  01
01A7C:  CLRF   00
01A7E:  DECFSZ 00,F
01A80:  BRA    1A7E
01A82:  DECFSZ 01,F
01A84:  BRA    1A7C
01A86:  MOVLW  7B
01A88:  MOVWF  00
01A8A:  DECFSZ 00,F
01A8C:  BRA    1A8A
01A8E:  DECFSZ FEF,F
01A90:  BRA    1A78
01A92:  RETLW  00
.................... #use i2c(Master,slow,sda=PIN_C4,scl=PIN_C3) 
*
048E4:  MOVLW  08
048E6:  MOVWF  01
048E8:  MOVLW  05
048EA:  MOVWF  00
048EC:  DECFSZ 00,F
048EE:  BRA    48EC
048F0:  BCF    F8B.3
048F2:  BCF    F94.3
048F4:  MOVLW  06
048F6:  MOVWF  00
048F8:  DECFSZ 00,F
048FA:  BRA    48F8
048FC:  MOVLB  4
048FE:  RLCF   x6B,F
04900:  BCF    F8B.4
04902:  BTFSC  FD8.0
04904:  BSF    F94.4
04906:  BTFSS  FD8.0
04908:  BCF    F94.4
0490A:  BSF    F94.3
0490C:  BTFSS  F82.3
0490E:  BRA    490C
04910:  DECFSZ 01,F
04912:  BRA    4916
04914:  BRA    491A
04916:  MOVLB  0
04918:  BRA    48E8
0491A:  MOVLW  05
0491C:  MOVWF  00
0491E:  DECFSZ 00,F
04920:  BRA    491E
04922:  BCF    F8B.3
04924:  BCF    F94.3
04926:  NOP   
04928:  BSF    F94.4
0492A:  MOVLW  06
0492C:  MOVWF  00
0492E:  DECFSZ 00,F
04930:  BRA    492E
04932:  MOVLW  06
04934:  MOVWF  00
04936:  DECFSZ 00,F
04938:  BRA    4936
0493A:  BSF    F94.3
0493C:  BTFSS  F82.3
0493E:  BRA    493C
04940:  CLRF   01
04942:  MOVLW  06
04944:  MOVWF  00
04946:  DECFSZ 00,F
04948:  BRA    4946
0494A:  BTFSC  F82.4
0494C:  BSF    01.0
0494E:  BCF    F8B.3
04950:  BCF    F94.3
04952:  BCF    F8B.4
04954:  BCF    F94.4
04956:  MOVLB  0
04958:  RETLW  00
*
057A8:  MOVLW  08
057AA:  MOVLB  4
057AC:  MOVWF  x53
057AE:  MOVFF  00,454
057B2:  BSF    F94.4
057B4:  MOVLW  06
057B6:  MOVWF  00
057B8:  DECFSZ 00,F
057BA:  BRA    57B8
057BC:  BSF    F94.3
057BE:  BTFSS  F82.3
057C0:  BRA    57BE
057C2:  BTFSC  F82.4
057C4:  BSF    FD8.0
057C6:  BTFSS  F82.4
057C8:  BCF    FD8.0
057CA:  RLCF   01,F
057CC:  MOVLW  05
057CE:  MOVWF  00
057D0:  DECFSZ 00,F
057D2:  BRA    57D0
057D4:  BCF    F94.3
057D6:  BCF    F8B.3
057D8:  DECFSZ x53,F
057DA:  BRA    57B2
057DC:  BSF    F94.4
057DE:  MOVLW  06
057E0:  MOVWF  00
057E2:  DECFSZ 00,F
057E4:  BRA    57E2
057E6:  BCF    F8B.4
057E8:  MOVF   x54,W
057EA:  BTFSS  FD8.2
057EC:  BCF    F94.4
057EE:  NOP   
057F0:  BSF    F94.3
057F2:  BTFSS  F82.3
057F4:  BRA    57F2
057F6:  MOVLW  05
057F8:  MOVWF  00
057FA:  DECFSZ 00,F
057FC:  BRA    57FA
057FE:  BCF    F8B.3
05800:  BCF    F94.3
05802:  MOVLW  06
05804:  MOVWF  00
05806:  DECFSZ 00,F
05808:  BRA    5806
0580A:  BCF    F8B.4
0580C:  BCF    F94.4
0580E:  MOVLB  0
05810:  GOTO   5896 (RETURN)
.................... #use rs232(baud=9600, xmit=PIN_C6, rcv=PIN_C7, bits=8, parity=N) 
*
03BDC:  BTFSS  F9E.4
03BDE:  BRA    3BDC
03BE0:  MOVWF  FAD
03BE2:  RETLW  00
.................... //#include "HDM64GS12.c" 
.................... //#include "GRAPHICS.c" 
.................... ///#include "imagen.h" 
.................... #include <stdio.h> 
.................... /////////////////////////////////////////////////////////////////////////// 
.................... ////        (C) Copyright 1996,2003 Custom Computer Services           //// 
.................... //// This source code may only be used by licensed users of the CCS C  //// 
.................... //// compiler.  This source code may only be distributed to other      //// 
.................... //// licensed users of the CCS C compiler.  No other use, reproduction //// 
.................... //// or distribution is permitted without written permission.          //// 
.................... //// Derivative programs created using this software in object code    //// 
.................... //// form are not restricted in any way.                               //// 
.................... /////////////////////////////////////////////////////////////////////////// 
....................  
.................... #ifndef _STDIO 
.................... #define _STDIO 
.................... #include <string.h> 
.................... //////////////////////////////////////////////////////////////////////////// 
.................... ////        (C) Copyright 1996,2008 Custom Computer Services            //// 
.................... //// This source code may only be used by licensed users of the CCS C   //// 
.................... //// compiler.  This source code may only be distributed to other       //// 
.................... //// licensed users of the CCS C compiler.  No other use, reproduction  //// 
.................... //// or distribution is permitted without written permission.           //// 
.................... //// Derivative programs created using this software in object code     //// 
.................... //// form are not restricted in any way.                                //// 
.................... //////////////////////////////////////////////////////////////////////////// 
....................  
.................... #ifndef _STRING 
.................... #define _STRING 
.................... #include <stddef.h> 
.................... /////////////////////////////////////////////////////////////////////////// 
.................... ////        (C) Copyright 1996,2003 Custom Computer Services           //// 
.................... //// This source code may only be used by licensed users of the CCS C  //// 
.................... //// compiler.  This source code may only be distributed to other      //// 
.................... //// licensed users of the CCS C compiler.  No other use, reproduction //// 
.................... //// or distribution is permitted without written permission.          //// 
.................... //// Derivative programs created using this software in object code    //// 
.................... //// form are not restricted in any way.                               //// 
.................... /////////////////////////////////////////////////////////////////////////// 
....................  
.................... #ifndef _STDDEF 
....................  
.................... #define _STDDEF 
....................  
.................... #if sizeof(unsigned int8 *)==1 
.................... #define ptrdiff_t unsigned int8 
.................... #else 
.................... #define ptrdiff_t unsigned int16 
.................... #endif 
....................  
.................... #define size_t unsigned int8 
.................... #define wchar_t char 
.................... #define NULL 0 
....................  
.................... #define offsetof(s,f) (offsetofbit(s,f)/8) 
....................  
.................... #endif 
....................  
.................... #include <ctype.h> 
.................... //////////////////////////////////////////////////////////////////////////// 
.................... ////        (C) Copyright 1996,2003 Custom Computer Services            //// 
.................... //// This source code may only be used by licensed users of the CCS C   //// 
.................... //// compiler.  This source code may only be distributed to other       //// 
.................... //// licensed users of the CCS C compiler.  No other use, reproduction  //// 
.................... //// or distribution is permitted without written permission.           //// 
.................... //// Derivative programs created using this software in object code     //// 
.................... //// form are not restricted in any way.                                //// 
.................... //////////////////////////////////////////////////////////////////////////// 
....................  
.................... #ifndef _CTYPE 
.................... #define _CTYPE 
....................  
.................... #define islower(x)  isamong(x,"abcdefghijklmnopqrstuvwxyz") 
.................... #define isupper(x)  isamong(x,"ABCDEFGHIJKLMNOPQRSTUVWXYZ") 
.................... #define isalnum(x)  isamong(x,"0123456789ABCDEFGHIJKLMNOPQRSTUVWXYZabcdefghijklmnopqrstuvwxyz") 
.................... #define isalpha(x)  isamong(x,"ABCDEFGHIJKLMNOPQRSTUVWXYZabcdefghijklmnopqrstuvwxyz") 
.................... #define isdigit(x)  isamong(x,"0123456789") 
.................... #define isspace(x)  ((x)==' ') 
.................... #define isxdigit(x) isamong(x,"0123456789ABCDEFabcdef") 
.................... #define iscntrl(x)  ((x)<' ') 
.................... #define isprint(x)  ((x)>=' ') 
.................... #define isgraph(x)  ((x)>' ') 
.................... #define ispunct(x)  (((x)>' ')&&!isalnum(x)) 
....................  
.................... #endif 
....................  
....................  
....................  
....................  
....................  
.................... ////////////////////////////////////////////// 
.................... //// Uncomment the following define to    //// 
.................... //// allow some functions to use a        //// 
.................... //// quicker algorithm, but use more ROM  //// 
.................... ////                                      //// 
.................... //// #define FASTER_BUT_MORE_ROM          //// 
.................... ////////////////////////////////////////////// 
....................  
....................  
....................  
.................... /*Copying functions*/ 
.................... /* standard template: 
....................    void *memmove(void *s1, void *s2, size_t n). 
....................    Copies max of n characters safely (not following ending '\0') 
....................    from s2 in s1; if s2 has less than n characters, appends 0 */ 
....................  
.................... char *memmove(void *s1,char *s2,size_t n) 
.................... { 
....................    char *sc1; 
....................    char *sc2; 
....................    sc1=s1; 
....................    sc2=s2; 
....................    if(sc2<sc1 && sc1 <sc2 +n) 
....................       for(sc1+=n,sc2+=n;0<n;--n) 
....................          *--sc1=*--sc2; 
....................    else 
....................       for(;0<n;--n) 
....................          *sc1++=*sc2++; 
....................   return s1; 
....................   } 
....................  
.................... /* Standard template: char *strcpy(char *s1, const char *s2) 
....................    copies the string s2 including the null character to s1. 
....................    This is a compiler built in to handle the different address 
....................    spaces */ 
....................  
.................... #define strcopy strcpy 
....................  
.................... /* standard template: 
....................    char *strncpy(char *s1, const char *s2, size_t n). 
....................    Copies max of n characters (not following ending '\0') 
....................    from s2 in s1; if s2 has less than n characters, appends 0 */ 
....................  
.................... char *strncpy(char *s1, char *s2, size_t n) 
.................... { 
....................   char *s; 
....................  
....................   for (s = s1; n > 0 && *s2 != '\0'; n--) 
....................      *s++ = *s2++; 
....................   for (; n > 0; n--) 
....................      *s++ = '\0'; 
....................  
....................   return(s1); 
.................... } 
.................... /***********************************************************/ 
....................  
.................... /*concatenation functions*/ 
.................... /* standard template: char *strcat(char *s1, const char *s2) 
.................... appends s2 to s1*/ 
....................  
.................... char *strcat(char *s1, char *s2) 
.................... { 
....................    char *s; 
....................  
....................    for (s = s1; *s != '\0'; ++s); 
....................    while(*s2 != '\0') 
....................    { 
....................       *s = *s2; 
....................       ++s; 
....................       ++s2; 
....................    } 
....................  
....................    *s = '\0'; 
....................    return(s1); 
.................... } 
.................... /* standard template: char *strncat(char *s1, char *s2,size_t n) 
.................... appends not more than n characters from s2 to s1*/ 
....................  
.................... char *strncat(char *s1, char *s2, size_t n) 
.................... { 
....................    char *s; 
....................  
....................    for (s = s1; *s != '\0'; ++s); 
....................    while(*s2 != '\0' && 0<n) 
....................    { 
....................       *s = *s2; 
....................       ++s; 
....................       ++s2; 
....................       --n; 
....................    } 
....................  
....................    *s = '\0'; 
....................    return(s1); 
.................... } 
....................  
.................... /***********************************************************/ 
....................  
....................  
.................... /*comparison functions*/ 
.................... /* standard template: signed int memcmp(void *s1, void *s2). 
....................    Compares s1 & s2; returns -1 if s1<s2, 0 if s1=s2, 1 if s1>s2 */ 
....................  
.................... signed int8 memcmp(void * s1,char *s2,size_t n) 
.................... { 
.................... char *su1, *su2; 
.................... for(su1=s1, su2=s2; 0<n; ++su1, ++su2, --n) 
.................... { 
....................    if(*su1!=*su2) 
....................       return ((*su1<*su2)?-1:+1); 
.................... } 
.................... return 0; 
.................... } 
....................  
.................... /* standard template: int strcmp(const char *s1, const char *s2). 
....................    Compares s1 & s2; returns -1 if s1<s2, 0 if s1=s2, 1 if s1>s2 */ 
....................  
.................... signed int8 strcmp(char *s1, char *s2) 
.................... { 
....................    for (; *s1 == *s2; s1++, s2++) 
....................       if (*s1 == '\0') 
....................          return(0); 
....................    return((*s1 < *s2) ? -1: 1); 
.................... } 
.................... /* standard template: int strcoll(const char *s1, const char *s2). 
....................    Compares s1 & s2; returns -1 if s1<s2, 0 if s1=s2, 1 if s1>s2 */ 
....................  
.................... signed int8 strcoll(char *s1, char *s2) 
.................... { 
....................    for (; *s1 == *s2; s1++, s2++) 
....................       if (*s1 == '\0') 
....................          return(0); 
....................    return((*s1 < *s2) ? -1: 1); 
.................... } 
....................  
.................... /* standard template: 
....................    int strncmp(const char *s1, const char *s2, size_t n). 
....................    Compares max of n characters (not following 0) from s1 to s2; 
....................    returns same as strcmp */ 
....................  
.................... signed int8 strncmp(char *s1, char *s2, size_t n) 
.................... { 
....................    for (; n > 0; s1++, s2++, n--) 
....................       if (*s1 != *s2) 
....................          return((*s1 <*s2) ? -1: 1); 
....................       else if (*s1 == '\0') 
....................          return(0); 
....................    return(0); 
.................... } 
.................... /* standard template: 
....................    int strxfrm(const char *s1, const char *s2, size_t n). 
....................    transforms maximum of n characters from s2 and places them into s1*/ 
.................... size_t strxfrm(char *s1, char *s2, size_t n) 
.................... { 
....................   char *s; 
....................   unsigned int8 n1; 
....................   n1=n; 
....................   for (s = s1; n > 0 && *s2 != '\0'; n--) 
....................      *s++ = *s2++; 
....................   for (; n > 0; n--) 
....................      *s++ = '\0'; 
....................  
....................   return(n1); 
.................... } 
....................  
....................  
....................  
....................  
....................  
.................... /***********************************************************/ 
.................... /*Search functions*/ 
.................... /* standard template: void *memchr(const char *s, int c). 
....................    Finds first occurrence of c in n characters of s */ 
....................  
.................... char *memchr(void *s,unsigned int8 c,size_t n) 
.................... { 
....................    char uc; 
....................    char *su; 
....................    uc=c; 
....................    for(su=s;0<n;++su,--n) 
....................       if(*su==uc) 
....................       return su; 
....................    return NULL; 
.................... } 
....................  
.................... /* standard template: char *strchr(const char *s, int c). 
....................    Finds first occurrence of c in s */ 
....................  
.................... char *strchr(char *s, unsigned int8 c) 
.................... { 
....................    for (; *s != c; s++) 
....................       if (*s == '\0') 
....................          return(0); 
....................    return(s); 
.................... } 
.................... /* standard template: 
....................    size_t strcspn(const char *s1, const char *s2). 
....................    Computes length of max initial segment of s1 that 
....................    consists entirely of characters NOT from s2*/ 
....................  
.................... unsigned int8  strcspn(char *s1, char *s2) 
.................... { 
....................    char *sc1, *sc2; 
....................  
....................    for (sc1 = s1; *sc1 != 0; sc1++) 
....................       for (sc2 = s2; *sc2 != 0; sc2++) 
....................          if (*sc1 == *sc2) 
....................             return(sc1 - s1); 
....................    return(sc1 - s1); 
.................... } 
.................... /* standard template: 
....................    char *strpbrk(const char *s1, const char *s2). 
....................    Locates first occurence of any character from s2 in s1; 
....................    returns s1 if s2 is empty string */ 
....................  
.................... char *strpbrk(char *s1, char *s2) 
.................... { 
....................    char *sc1, *sc2; 
....................  
....................    for (sc1 = s1; *sc1 != 0; sc1++) 
....................       for (sc2 = s2; *sc2 != 0; sc2++) 
....................          if (*sc1 == *sc2) 
....................             return(sc1); 
....................    return(0); 
.................... } 
....................  
....................  
.................... /* standard template: char *strrchr(const char *s, int c). 
....................    Finds last occurrence of c in s */ 
....................  
.................... char *strrchr(char *s, unsigned int8 c) 
.................... { 
....................    char *p; 
....................  
....................    for (p = 0; ; s++) 
....................    { 
....................       if (*s == c) 
....................          p = s; 
....................       if (*s == '\0') 
....................          return(p); 
....................    } 
.................... } 
.................... /* computes length of max initial segment of s1 consisting 
....................    entirely of characters from s2 */ 
....................  
.................... unsigned int8  strspn(char *s1, char *s2) 
.................... { 
....................    char *sc1, *sc2; 
....................  
....................    for (sc1 = s1; *sc1 != 0; sc1++) 
....................       for (sc2 = s2; ; sc2++) 
....................     if (*sc2 == '\0') 
....................        return(sc1 - s1); 
....................          else if (*sc1 == *sc2) 
....................             break; 
....................    return(sc1 - s1); 
.................... } 
.................... /* standard template: 
....................    char *strstr(const char *s1, const char *s2); 
....................    Locates first occurence of character sequence s2 in s1; 
....................    returns 0 if s2 is empty string 
....................  
....................    Uncomment #define FASTER_BUT_MORE_ROM at the top of the 
....................    file to use the faster algorithm */ 
.................... char *strstr(char *s1, char *s2) 
.................... { 
....................    char *s, *t; 
....................  
....................    #ifdef FASTER_BUT_MORE_ROM 
....................    if (*s2 == '\0') 
....................          return(s1); 
....................    #endif 
....................  
....................    while (*s1) 
....................    { 
....................       for(s = s1, t = s2; *t && (*s == *t); ++s, ++t); 
....................  
....................       if (*t == '\0') 
....................          return s1; 
....................       ++s1; 
....................       #ifdef FASTER_BUT_MORE_ROM 
....................          while(*s1 != '\0' && *s1 != *s2) 
....................             ++s1; 
....................       #endif 
....................    } 
....................    return 0; 
.................... } 
....................  
.................... /* standard template: char *strtok(char *s1, const char *s2). 
....................  
....................    Finds next token in s1 delimited by a character from separator 
....................    string s2 (which can be different from call to call).  First call 
....................    starts at beginning of s1 searching for first character NOT 
....................    contained in s2; returns 0 if none is found. 
....................    If one is found, it is the start of first token (return value). 
....................    Function then searches from there for a character contained in s2. 
....................    If none is found, current token extends to end of s1, and subsequent 
....................    searches for a token will return 0.  If one is found, it is 
....................    overwritten by '\0', which terminates current token.  Function saves 
....................    pointer to following character from which next search will start. 
....................    Each subsequent call, with 0 as first argument, starts searching 
....................    from saved pointer */ 
....................  
.................... char *strtok(char *s1, char *s2) 
.................... { 
....................    char *beg, *end; 
....................    static char *save; 
....................  
....................    beg = (s1)? s1: save; 
....................    beg += strspn(beg, s2); 
....................    if (*beg == '\0') 
....................    { 
....................       *save = ' '; 
....................       return(0); 
....................    } 
....................    end = strpbrk(beg, s2); 
....................    if (*end != '\0') 
....................    { 
....................       *end = '\0'; 
....................       end++; 
....................    } 
....................    save = end; 
....................    return(beg); 
.................... } 
....................  
.................... /*****************************************************************/ 
.................... /*Miscellaneous functions*/ 
.................... /* standard template 
.................... maps error number in errnum to an error message string 
.................... Returns: Pointer to string 
.................... */ 
.................... #ifdef _ERRNO 
.................... char * strerror(unsigned int8 errnum) 
.................... { 
.................... char s[15]; 
.................... switch( errnum) 
.................... { 
.................... case 0: 
....................    strcpy(s,"no errors"); 
....................    return s; 
.................... case EDOM : 
....................    strcpy(s,"domain error"); 
....................    return s; 
.................... case ERANGE: 
....................    strcpy(s,"range error"); 
....................    return s; 
.................... } 
.................... } 
.................... #ENDIF 
.................... /* standard template: size_t strlen(const char *s). 
....................    Computes length of s1 (preceding terminating 0) */ 
....................  
.................... unsigned int8 strlen(char *s) 
.................... { 
....................    char *sc; 
....................  
....................    for (sc = s; *sc != 0; sc++); 
....................    return(sc - s); 
.................... } 
....................  
.................... /* standard template: size_t stricmp(const char *s1, const char *s2). 
....................    Compares s1 to s2 ignoring case (upper vs. lower) */ 
....................  
.................... signed int8 stricmp(char *s1, char *s2) 
.................... { 
....................  for(; *s1==*s2||(isalpha(*s1)&&isalpha(*s2)&&(*s1==*s2+32||*s2==*s1+32)); 
....................     s1++, s2++) 
....................     if (*s1 == '\0') 
....................        return(0); 
....................  return((*s1 < *s2) ? -1: 1); 
.................... } 
....................  
....................  
.................... /* standard template: char *strlwr(char *s). 
....................    Replaces uppercase letters by lowercase; 
....................    returns pointer to new string s */ 
....................  
.................... char *strlwr(char *s) 
.................... { 
....................    char *p; 
....................  
....................    for (p = s; *p != '\0'; p++) 
....................       if (*p >= 'A' && *p <='Z') 
....................          *p += 'a' - 'A'; 
....................    return(s); 
.................... } 
....................  
....................  
.................... /************************************************************/ 
....................  
....................  
.................... #endif 
....................  
.................... #ifndef getc 
.................... #define getc getch 
.................... #define getchar getch 
.................... #define puts(s) {printf(s); putchar(13); putchar(10);} 
.................... #define putc putchar 
.................... #endif 
.................... /* maps error number to an error message. Writes a sequence of characters to 
.................... stderr stream thus: if s is not null then string pointed to by s follwed by 
.................... a colon (:) and a space and the appropriate error message returned by strerror 
.................... function with argument errno 
....................  
.................... Returns: no value 
.................... */ 
....................  
.................... #ifdef _ERRNO 
.................... void perror(char *s) 
.................... { 
....................   if(s) 
....................   fprintf(STDERR,"%s: ",s); 
....................   fprintf(STDERR,"%s\r\n",strerror(errno)); 
.................... } 
.................... #endif 
.................... #endif 
....................  
.................... #include <string.h> 
.................... //////////////////////////////////////////////////////////////////////////// 
.................... ////        (C) Copyright 1996,2008 Custom Computer Services            //// 
.................... //// This source code may only be used by licensed users of the CCS C   //// 
.................... //// compiler.  This source code may only be distributed to other       //// 
.................... //// licensed users of the CCS C compiler.  No other use, reproduction  //// 
.................... //// or distribution is permitted without written permission.           //// 
.................... //// Derivative programs created using this software in object code     //// 
.................... //// form are not restricted in any way.                                //// 
.................... //////////////////////////////////////////////////////////////////////////// 
....................  
.................... #ifndef _STRING 
.................... #define _STRING 
.................... #include <stddef.h> 
.................... #include <ctype.h> 
....................  
....................  
....................  
.................... ////////////////////////////////////////////// 
.................... //// Uncomment the following define to    //// 
.................... //// allow some functions to use a        //// 
.................... //// quicker algorithm, but use more ROM  //// 
.................... ////                                      //// 
.................... //// #define FASTER_BUT_MORE_ROM          //// 
.................... ////////////////////////////////////////////// 
....................  
....................  
....................  
.................... /*Copying functions*/ 
.................... /* standard template: 
....................    void *memmove(void *s1, void *s2, size_t n). 
....................    Copies max of n characters safely (not following ending '\0') 
....................    from s2 in s1; if s2 has less than n characters, appends 0 */ 
....................  
.................... char *memmove(void *s1,char *s2,size_t n) 
.................... { 
....................    char *sc1; 
....................    char *sc2; 
....................    sc1=s1; 
....................    sc2=s2; 
....................    if(sc2<sc1 && sc1 <sc2 +n) 
....................       for(sc1+=n,sc2+=n;0<n;--n) 
....................          *--sc1=*--sc2; 
....................    else 
....................       for(;0<n;--n) 
....................          *sc1++=*sc2++; 
....................   return s1; 
....................   } 
....................  
.................... /* Standard template: char *strcpy(char *s1, const char *s2) 
....................    copies the string s2 including the null character to s1. 
....................    This is a compiler built in to handle the different address 
....................    spaces */ 
....................  
.................... #define strcopy strcpy 
....................  
.................... /* standard template: 
....................    char *strncpy(char *s1, const char *s2, size_t n). 
....................    Copies max of n characters (not following ending '\0') 
....................    from s2 in s1; if s2 has less than n characters, appends 0 */ 
....................  
.................... char *strncpy(char *s1, char *s2, size_t n) 
.................... { 
....................   char *s; 
....................  
....................   for (s = s1; n > 0 && *s2 != '\0'; n--) 
....................      *s++ = *s2++; 
....................   for (; n > 0; n--) 
....................      *s++ = '\0'; 
....................  
....................   return(s1); 
.................... } 
.................... /***********************************************************/ 
....................  
.................... /*concatenation functions*/ 
.................... /* standard template: char *strcat(char *s1, const char *s2) 
.................... appends s2 to s1*/ 
....................  
.................... char *strcat(char *s1, char *s2) 
.................... { 
....................    char *s; 
....................  
....................    for (s = s1; *s != '\0'; ++s); 
....................    while(*s2 != '\0') 
....................    { 
....................       *s = *s2; 
....................       ++s; 
....................       ++s2; 
....................    } 
....................  
....................    *s = '\0'; 
....................    return(s1); 
.................... } 
.................... /* standard template: char *strncat(char *s1, char *s2,size_t n) 
.................... appends not more than n characters from s2 to s1*/ 
....................  
.................... char *strncat(char *s1, char *s2, size_t n) 
.................... { 
....................    char *s; 
....................  
....................    for (s = s1; *s != '\0'; ++s); 
....................    while(*s2 != '\0' && 0<n) 
....................    { 
....................       *s = *s2; 
....................       ++s; 
....................       ++s2; 
....................       --n; 
....................    } 
....................  
....................    *s = '\0'; 
....................    return(s1); 
.................... } 
....................  
.................... /***********************************************************/ 
....................  
....................  
.................... /*comparison functions*/ 
.................... /* standard template: signed int memcmp(void *s1, void *s2). 
....................    Compares s1 & s2; returns -1 if s1<s2, 0 if s1=s2, 1 if s1>s2 */ 
....................  
.................... signed int8 memcmp(void * s1,char *s2,size_t n) 
.................... { 
.................... char *su1, *su2; 
.................... for(su1=s1, su2=s2; 0<n; ++su1, ++su2, --n) 
.................... { 
....................    if(*su1!=*su2) 
....................       return ((*su1<*su2)?-1:+1); 
.................... } 
.................... return 0; 
.................... } 
....................  
.................... /* standard template: int strcmp(const char *s1, const char *s2). 
....................    Compares s1 & s2; returns -1 if s1<s2, 0 if s1=s2, 1 if s1>s2 */ 
....................  
.................... signed int8 strcmp(char *s1, char *s2) 
.................... { 
....................    for (; *s1 == *s2; s1++, s2++) 
....................       if (*s1 == '\0') 
....................          return(0); 
....................    return((*s1 < *s2) ? -1: 1); 
.................... } 
.................... /* standard template: int strcoll(const char *s1, const char *s2). 
....................    Compares s1 & s2; returns -1 if s1<s2, 0 if s1=s2, 1 if s1>s2 */ 
....................  
.................... signed int8 strcoll(char *s1, char *s2) 
.................... { 
....................    for (; *s1 == *s2; s1++, s2++) 
....................       if (*s1 == '\0') 
....................          return(0); 
....................    return((*s1 < *s2) ? -1: 1); 
.................... } 
....................  
.................... /* standard template: 
....................    int strncmp(const char *s1, const char *s2, size_t n). 
....................    Compares max of n characters (not following 0) from s1 to s2; 
....................    returns same as strcmp */ 
....................  
.................... signed int8 strncmp(char *s1, char *s2, size_t n) 
.................... { 
....................    for (; n > 0; s1++, s2++, n--) 
....................       if (*s1 != *s2) 
....................          return((*s1 <*s2) ? -1: 1); 
....................       else if (*s1 == '\0') 
....................          return(0); 
....................    return(0); 
.................... } 
.................... /* standard template: 
....................    int strxfrm(const char *s1, const char *s2, size_t n). 
....................    transforms maximum of n characters from s2 and places them into s1*/ 
.................... size_t strxfrm(char *s1, char *s2, size_t n) 
.................... { 
....................   char *s; 
....................   unsigned int8 n1; 
....................   n1=n; 
....................   for (s = s1; n > 0 && *s2 != '\0'; n--) 
....................      *s++ = *s2++; 
....................   for (; n > 0; n--) 
....................      *s++ = '\0'; 
....................  
....................   return(n1); 
.................... } 
....................  
....................  
....................  
....................  
....................  
.................... /***********************************************************/ 
.................... /*Search functions*/ 
.................... /* standard template: void *memchr(const char *s, int c). 
....................    Finds first occurrence of c in n characters of s */ 
....................  
.................... char *memchr(void *s,unsigned int8 c,size_t n) 
.................... { 
....................    char uc; 
....................    char *su; 
....................    uc=c; 
....................    for(su=s;0<n;++su,--n) 
....................       if(*su==uc) 
....................       return su; 
....................    return NULL; 
.................... } 
....................  
.................... /* standard template: char *strchr(const char *s, int c). 
....................    Finds first occurrence of c in s */ 
....................  
.................... char *strchr(char *s, unsigned int8 c) 
.................... { 
....................    for (; *s != c; s++) 
....................       if (*s == '\0') 
....................          return(0); 
....................    return(s); 
.................... } 
.................... /* standard template: 
....................    size_t strcspn(const char *s1, const char *s2). 
....................    Computes length of max initial segment of s1 that 
....................    consists entirely of characters NOT from s2*/ 
....................  
.................... unsigned int8  strcspn(char *s1, char *s2) 
.................... { 
....................    char *sc1, *sc2; 
....................  
....................    for (sc1 = s1; *sc1 != 0; sc1++) 
....................       for (sc2 = s2; *sc2 != 0; sc2++) 
....................          if (*sc1 == *sc2) 
....................             return(sc1 - s1); 
....................    return(sc1 - s1); 
.................... } 
.................... /* standard template: 
....................    char *strpbrk(const char *s1, const char *s2). 
....................    Locates first occurence of any character from s2 in s1; 
....................    returns s1 if s2 is empty string */ 
....................  
.................... char *strpbrk(char *s1, char *s2) 
.................... { 
....................    char *sc1, *sc2; 
....................  
....................    for (sc1 = s1; *sc1 != 0; sc1++) 
....................       for (sc2 = s2; *sc2 != 0; sc2++) 
....................          if (*sc1 == *sc2) 
....................             return(sc1); 
....................    return(0); 
.................... } 
....................  
....................  
.................... /* standard template: char *strrchr(const char *s, int c). 
....................    Finds last occurrence of c in s */ 
....................  
.................... char *strrchr(char *s, unsigned int8 c) 
.................... { 
....................    char *p; 
....................  
....................    for (p = 0; ; s++) 
....................    { 
....................       if (*s == c) 
....................          p = s; 
....................       if (*s == '\0') 
....................          return(p); 
....................    } 
.................... } 
.................... /* computes length of max initial segment of s1 consisting 
....................    entirely of characters from s2 */ 
....................  
.................... unsigned int8  strspn(char *s1, char *s2) 
.................... { 
....................    char *sc1, *sc2; 
....................  
....................    for (sc1 = s1; *sc1 != 0; sc1++) 
....................       for (sc2 = s2; ; sc2++) 
....................     if (*sc2 == '\0') 
....................        return(sc1 - s1); 
....................          else if (*sc1 == *sc2) 
....................             break; 
....................    return(sc1 - s1); 
.................... } 
.................... /* standard template: 
....................    char *strstr(const char *s1, const char *s2); 
....................    Locates first occurence of character sequence s2 in s1; 
....................    returns 0 if s2 is empty string 
....................  
....................    Uncomment #define FASTER_BUT_MORE_ROM at the top of the 
....................    file to use the faster algorithm */ 
.................... char *strstr(char *s1, char *s2) 
.................... { 
....................    char *s, *t; 
....................  
....................    #ifdef FASTER_BUT_MORE_ROM 
....................    if (*s2 == '\0') 
....................          return(s1); 
....................    #endif 
....................  
....................    while (*s1) 
....................    { 
....................       for(s = s1, t = s2; *t && (*s == *t); ++s, ++t); 
....................  
....................       if (*t == '\0') 
....................          return s1; 
....................       ++s1; 
....................       #ifdef FASTER_BUT_MORE_ROM 
....................          while(*s1 != '\0' && *s1 != *s2) 
....................             ++s1; 
....................       #endif 
....................    } 
....................    return 0; 
.................... } 
....................  
.................... /* standard template: char *strtok(char *s1, const char *s2). 
....................  
....................    Finds next token in s1 delimited by a character from separator 
....................    string s2 (which can be different from call to call).  First call 
....................    starts at beginning of s1 searching for first character NOT 
....................    contained in s2; returns 0 if none is found. 
....................    If one is found, it is the start of first token (return value). 
....................    Function then searches from there for a character contained in s2. 
....................    If none is found, current token extends to end of s1, and subsequent 
....................    searches for a token will return 0.  If one is found, it is 
....................    overwritten by '\0', which terminates current token.  Function saves 
....................    pointer to following character from which next search will start. 
....................    Each subsequent call, with 0 as first argument, starts searching 
....................    from saved pointer */ 
....................  
.................... char *strtok(char *s1, char *s2) 
.................... { 
....................    char *beg, *end; 
....................    static char *save; 
....................  
....................    beg = (s1)? s1: save; 
....................    beg += strspn(beg, s2); 
....................    if (*beg == '\0') 
....................    { 
....................       *save = ' '; 
....................       return(0); 
....................    } 
....................    end = strpbrk(beg, s2); 
....................    if (*end != '\0') 
....................    { 
....................       *end = '\0'; 
....................       end++; 
....................    } 
....................    save = end; 
....................    return(beg); 
.................... } 
....................  
.................... /*****************************************************************/ 
.................... /*Miscellaneous functions*/ 
.................... /* standard template 
.................... maps error number in errnum to an error message string 
.................... Returns: Pointer to string 
.................... */ 
.................... #ifdef _ERRNO 
.................... char * strerror(unsigned int8 errnum) 
.................... { 
.................... char s[15]; 
.................... switch( errnum) 
.................... { 
.................... case 0: 
....................    strcpy(s,"no errors"); 
....................    return s; 
.................... case EDOM : 
....................    strcpy(s,"domain error"); 
....................    return s; 
.................... case ERANGE: 
....................    strcpy(s,"range error"); 
....................    return s; 
.................... } 
.................... } 
.................... #ENDIF 
.................... /* standard template: size_t strlen(const char *s). 
....................    Computes length of s1 (preceding terminating 0) */ 
....................  
.................... unsigned int8 strlen(char *s) 
.................... { 
....................    char *sc; 
....................  
....................    for (sc = s; *sc != 0; sc++); 
....................    return(sc - s); 
.................... } 
....................  
.................... /* standard template: size_t stricmp(const char *s1, const char *s2). 
....................    Compares s1 to s2 ignoring case (upper vs. lower) */ 
....................  
.................... signed int8 stricmp(char *s1, char *s2) 
.................... { 
....................  for(; *s1==*s2||(isalpha(*s1)&&isalpha(*s2)&&(*s1==*s2+32||*s2==*s1+32)); 
....................     s1++, s2++) 
....................     if (*s1 == '\0') 
....................        return(0); 
....................  return((*s1 < *s2) ? -1: 1); 
.................... } 
....................  
....................  
.................... /* standard template: char *strlwr(char *s). 
....................    Replaces uppercase letters by lowercase; 
....................    returns pointer to new string s */ 
....................  
.................... char *strlwr(char *s) 
.................... { 
....................    char *p; 
....................  
....................    for (p = s; *p != '\0'; p++) 
....................       if (*p >= 'A' && *p <='Z') 
....................          *p += 'a' - 'A'; 
....................    return(s); 
.................... } 
....................  
....................  
.................... /************************************************************/ 
....................  
....................  
.................... #endif 
....................  
.................... #include <stdlib.h> 
.................... /////////////////////////////////////////////////////////////////////////// 
.................... ////        (C) Copyright 1996,2007 Custom Computer Services           //// 
.................... //// This source code may only be used by licensed users of the CCS C  //// 
.................... //// compiler.  This source code may only be distributed to other      //// 
.................... //// licensed users of the CCS C compiler.  No other use, reproduction //// 
.................... //// or distribution is permitted without written permission.          //// 
.................... //// Derivative programs created using this software in object code    //// 
.................... //// form are not restricted in any way.                               //// 
.................... /////////////////////////////////////////////////////////////////////////// 
....................  
.................... #ifndef _STDLIB 
.................... #define _STDLIB 
....................  
.................... //--------------------------------------------------------------------------- 
.................... // Definitions and types 
.................... //--------------------------------------------------------------------------- 
....................  
.................... #ifndef RAND_MAX 
.................... #define RAND_MAX  32767    // The value of which is the maximum value 
....................                            // ... returned by the rand function 
.................... #endif 
....................  
....................  
.................... #IF (sizeof(int16*)>1) 
.................... #DEFINE LONG_POINTERS 1 
.................... #ELSE  
.................... #DEFINE LONG_POINTERS 0 
.................... #ENDIF 
....................  
.................... typedef struct { 
....................    signed int quot; 
....................    signed int rem; 
.................... } div_t; 
....................  
.................... typedef struct { 
....................    signed long quot; 
....................    signed long rem; 
.................... } ldiv_t; 
....................  
.................... #include <stddef.h> 
.................... /////////////////////////////////////////////////////////////////////////// 
.................... ////        (C) Copyright 1996,2003 Custom Computer Services           //// 
.................... //// This source code may only be used by licensed users of the CCS C  //// 
.................... //// compiler.  This source code may only be distributed to other      //// 
.................... //// licensed users of the CCS C compiler.  No other use, reproduction //// 
.................... //// or distribution is permitted without written permission.          //// 
.................... //// Derivative programs created using this software in object code    //// 
.................... //// form are not restricted in any way.                               //// 
.................... /////////////////////////////////////////////////////////////////////////// 
....................  
.................... #ifndef _STDDEF 
....................  
.................... #define _STDDEF 
....................  
.................... #if sizeof(unsigned int8 *)==1 
.................... #define ptrdiff_t unsigned int8 
.................... #else 
.................... #define ptrdiff_t unsigned int16 
.................... #endif 
....................  
.................... #define size_t unsigned int8 
.................... #define wchar_t char 
.................... #define NULL 0 
....................  
.................... #define offsetof(s,f) (offsetofbit(s,f)/8) 
....................  
.................... #endif 
....................  
....................  
.................... //--------------------------------------------------------------------------- 
.................... // String conversion functions 
.................... //--------------------------------------------------------------------------- 
....................  
.................... /* Standard template: signed int  atoi(char * s) 
....................  * converts the initial portion of the string s to a signed int 
....................  * returns the converted value if any, 0 otherwise 
....................  */ 
.................... signed int atoi(char *s); 
....................  
.................... /* Syntax: signed int32  atoi32(char * s) 
....................    converts the initial portion of the string s to a signed int32 
....................    returns the converted value if any, 0 otherwise*/ 
.................... #if (sizeof(long)==4) 
....................  #define atoi32(s) atol(s) 
.................... #else  
....................  signed int32 atoi32(char *s); 
.................... #endif 
....................  
.................... #if defined(__PCD__) 
.................... // The following functions only work on the 24 bit compiler 
.................... // for the 30F, 33F, 24F and 24H parts 
.................... /* Syntax: signed int48  atoi48(char * s) 
....................    converts the initial portion of the string s to a signed int48 
....................    returns the converted value if any, 0 otherwise*/ 
....................     
.................... signed int48 atoi48(char *s); 
....................  
.................... /* Syntax: signed int64  atoi64(char * s) 
....................    converts the initial portion of the string s to a signed int64 
....................    returns the converted value if any, 0 otherwise*/ 
.................... signed int64 atoi64(char *s); 
.................... #endif 
....................  
.................... /* Syntax: char *  itoa(signed int32 num, int8 base, char * s) 
....................    converts the signed int32 to a string and 
....................    returns the converted value if any, 0 otherwise*/ 
.................... char * itoa(signed int32 num, unsigned int base, char * s); 
....................  
.................... /* Standard template: signed int16  atol(char * s) 
....................  * converts the initial portion of the string s to a signed int16 
....................  * returns the converted value if any, 0 otherwise 
....................  */ 
.................... signed long atol(char *s); 
....................  
.................... /* Standard template: int16 strtoul(char * s,char *endptr,signed int base) 
....................  * converts the initial portion of the string s, represented as an 
....................  * integral value of radix base  to a signed long. 
....................  * Returns the converted value if any, 0 otherwise 
....................  * the final string is returned in the endptr, if endptr is not null 
....................  */ 
.................... signed long strtol(char *s,char *endptr, signed int base); 
....................  
.................... /* Standard template: int16 strtoul(char * s,char *endptr,signed int base) 
....................  * converts the initial portion of the string s, represented as an 
....................  * integral value of radix base to a unsigned long. 
....................  * returns the converted value if any, 0 otherwise 
....................  * the final string is returned in the endptr, if endptr is not null 
....................  */ 
.................... unsigned long strtoul(char *s,char *endptr, signed int base); 
....................  
.................... /* Standart template: float strtof(char * s,char *endptr) 
....................                       float48 strtof48(char *s,char *endptr); 
....................                       float64 strtod(char *s,char *endptr); 
....................  * converts the initial portion of the string s to a float32, float48 or float64, 
....................  * returns the converted value if any, 0 otherwise 
....................  * the final string is returned in the endptr, if endptr is not null                    
.................... */ 
.................... float strtof(char *s,char *endptr); 
.................... #if defined(__PCD__) 
.................... float48 strtof48(char *s,char *endptr); 
.................... float64 strtod(char *s,char *endptr); 
.................... #else 
.................... //provided for compatibility 
.................... #define strtof48(s, e) strtof(s, e) 
.................... #define strtod(s, e) strtof(s, e) 
.................... #endif 
....................  
.................... /* Standard template: float32 atof(char * s) 
....................  * converts the initial portion of the string s to a float. 
....................  * returns the converted value if any, 0 otherwise 
....................  */ 
.................... #define atof(s)   strtof(s, 0) 
....................  
.................... #if defined(__PCD__) 
.................... // The following functions only work on the 24 bit compiler 
.................... // for the 30F, 33F, 24F and 24H parts 
....................  
.................... /* Standard template: float48 atof48(char * s) 
....................  * converts the initial portion of the string s to a float. 
....................  * returns the converted value if any, 0 otherwise 
....................  */ 
.................... #define atof48(s) strtof48(s, 0) 
....................  
.................... /* Standard template: float64 atof64(char * s) 
....................  * converts the initial portion of the string s to a float. 
....................  * returns the converted value if any, 0 otherwise 
....................  */ 
.................... #define atof64(s) strtod(s, 0) 
.................... #endif 
....................  
.................... /* Standard template: float32 atoe(char * s) 
....................  * converts the initial portion of the string s to a float. 
....................  * returns the converted value if any, 0 otherwise 
....................  * also handles E format numbers 
....................  */ 
.................... #if !defined(__PCD__) 
.................... float atoe(char * s); 
.................... #endif 
....................  
.................... #if defined(__PCD__) 
.................... float32 atoe(char * s); 
.................... #endif 
....................  
.................... //--------------------------------------------------------------------------- 
.................... // Pseudo-random sequence generation functions 
.................... //--------------------------------------------------------------------------- 
....................  
.................... /* The rand function computes a sequence of pseudo-random integers in 
....................  * the range 0 to RAND_MAX 
....................  * 
....................  * Parameters: 
....................  *       (none) 
....................  * 
....................  * Returns: 
....................  *       The pseudo-random integer 
....................  */ 
.................... unsigned int16 rand(void); 
....................  
.................... /* The srand function uses the argument as a seed for a new sequence of 
....................  * pseudo-random numbers to be returned by subsequent calls to rand. 
....................  * 
....................  * Parameters: 
....................  *       [in] seed: The seed value to start from. You might need to pass 
....................  * 
....................  * Returns: 
....................  *       (none) 
....................  * 
....................  * Remarks 
....................  *          The srand function sets the starting point for generating 
....................  *       a series of pseudorandom integers. To reinitialize the 
....................  *       generator, use 1 as the seed argument. Any other value for 
....................  *       seed sets the generator to a random starting point. rand 
....................  *       retrieves the pseudorandom numbers that are generated. 
....................  *       Calling rand before any call to srand generates the same 
....................  *       sequence as calling srand with seed passed as 1. 
....................  *          Usually, you need to pass a time here from outer source 
....................  *       so that the numbers will be different every time you run. 
....................  */ 
.................... void srand(unsigned int32 seed); 
....................  
.................... //--------------------------------------------------------------------------- 
.................... // Memory management functions 
.................... //--------------------------------------------------------------------------- 
....................  
.................... // Comming soon 
....................  
.................... //--------------------------------------------------------------------------- 
.................... // Communication with the environment 
.................... //--------------------------------------------------------------------------- 
....................  
.................... /* The function returns 0 always 
....................  */ 
.................... signed int8 system(char *string); 
....................  
.................... //--------------------------------------------------------------------------- 
.................... // Searching and sorting utilities 
.................... //--------------------------------------------------------------------------- 
....................  
.................... /* Performs a binary search of a sorted array.. 
....................  * 
....................  * Parameters: 
....................  *       [in] key: Object to search for 
....................  *       [in] base: Pointer to base of search data 
....................  *       [in] num: Number of elements 
....................  *       [in] width: Width of elements 
....................  *       [in] compare: Function that compares two elements 
....................  * 
....................  * Returns: 
....................  *       bsearch returns a pointer to an occurrence of key in the array pointed 
....................  *       to by base. If key is not found, the function returns NULL. If the 
....................  *       array is not in order or contains duplicate records with identical keys, 
....................  *       the result is unpredictable. 
....................  */ 
.................... //void *bsearch(const void *key, const void *base, size_t num, size_t width, 
.................... //              int (*compare)(const void *, const void *)); 
....................  
.................... /* Performs the shell-metzner sort (not the quick sort algorithm). The contents 
....................  * of the array are sorted into ascending order according to a comparison 
....................  * function pointed to by compar. 
....................  * 
....................  * Parameters: 
....................  *       [in] base: Pointer to base of search data 
....................  *       [in] num: Number of elements 
....................  *       [in] width: Width of elements 
....................  *       [in] compare: Function that compares two elements 
....................  * 
....................  * Returns: 
....................  *       (none) 
....................  */ 
.................... //void *qsort(const void *base, size_t num, size_t width, 
.................... //              int (*compare)(const void *, const void *)); 
....................  
.................... //--------------------------------------------------------------------------- 
.................... // Integer arithmetic functions 
.................... //--------------------------------------------------------------------------- 
....................  
.................... #define labs abs 
....................  
.................... div_t div(signed int numer, signed int denom); 
.................... ldiv_t ldiv(signed long numer, signed long denom); 
....................  
.................... //--------------------------------------------------------------------------- 
.................... // Multibyte character functions 
.................... //--------------------------------------------------------------------------- 
....................  
.................... // Not supported 
....................  
.................... //--------------------------------------------------------------------------- 
.................... // Multibyte string functions 
.................... //--------------------------------------------------------------------------- 
....................  
.................... // Not supported 
....................  
....................  
.................... //--------------------------------------------------------------------------- 
.................... // Internal implementation 
.................... //--------------------------------------------------------------------------- 
....................  
.................... #include <stddef.h> 
.................... /////////////////////////////////////////////////////////////////////////// 
.................... ////        (C) Copyright 1996,2003 Custom Computer Services           //// 
.................... //// This source code may only be used by licensed users of the CCS C  //// 
.................... //// compiler.  This source code may only be distributed to other      //// 
.................... //// licensed users of the CCS C compiler.  No other use, reproduction //// 
.................... //// or distribution is permitted without written permission.          //// 
.................... //// Derivative programs created using this software in object code    //// 
.................... //// form are not restricted in any way.                               //// 
.................... /////////////////////////////////////////////////////////////////////////// 
....................  
.................... #ifndef _STDDEF 
....................  
.................... #define _STDDEF 
....................  
.................... #if sizeof(unsigned int8 *)==1 
.................... #define ptrdiff_t unsigned int8 
.................... #else 
.................... #define ptrdiff_t unsigned int16 
.................... #endif 
....................  
.................... #define size_t unsigned int8 
.................... #define wchar_t char 
.................... #define NULL 0 
....................  
.................... #define offsetof(s,f) (offsetofbit(s,f)/8) 
....................  
.................... #endif 
....................  
.................... #include <string.h> 
.................... //////////////////////////////////////////////////////////////////////////// 
.................... ////        (C) Copyright 1996,2008 Custom Computer Services            //// 
.................... //// This source code may only be used by licensed users of the CCS C   //// 
.................... //// compiler.  This source code may only be distributed to other       //// 
.................... //// licensed users of the CCS C compiler.  No other use, reproduction  //// 
.................... //// or distribution is permitted without written permission.           //// 
.................... //// Derivative programs created using this software in object code     //// 
.................... //// form are not restricted in any way.                                //// 
.................... //////////////////////////////////////////////////////////////////////////// 
....................  
.................... #ifndef _STRING 
.................... #define _STRING 
.................... #include <stddef.h> 
.................... #include <ctype.h> 
....................  
....................  
....................  
.................... ////////////////////////////////////////////// 
.................... //// Uncomment the following define to    //// 
.................... //// allow some functions to use a        //// 
.................... //// quicker algorithm, but use more ROM  //// 
.................... ////                                      //// 
.................... //// #define FASTER_BUT_MORE_ROM          //// 
.................... ////////////////////////////////////////////// 
....................  
....................  
....................  
.................... /*Copying functions*/ 
.................... /* standard template: 
....................    void *memmove(void *s1, void *s2, size_t n). 
....................    Copies max of n characters safely (not following ending '\0') 
....................    from s2 in s1; if s2 has less than n characters, appends 0 */ 
....................  
.................... char *memmove(void *s1,char *s2,size_t n) 
.................... { 
....................    char *sc1; 
....................    char *sc2; 
....................    sc1=s1; 
....................    sc2=s2; 
....................    if(sc2<sc1 && sc1 <sc2 +n) 
....................       for(sc1+=n,sc2+=n;0<n;--n) 
....................          *--sc1=*--sc2; 
....................    else 
....................       for(;0<n;--n) 
....................          *sc1++=*sc2++; 
....................   return s1; 
....................   } 
....................  
.................... /* Standard template: char *strcpy(char *s1, const char *s2) 
....................    copies the string s2 including the null character to s1. 
....................    This is a compiler built in to handle the different address 
....................    spaces */ 
....................  
.................... #define strcopy strcpy 
....................  
.................... /* standard template: 
....................    char *strncpy(char *s1, const char *s2, size_t n). 
....................    Copies max of n characters (not following ending '\0') 
....................    from s2 in s1; if s2 has less than n characters, appends 0 */ 
....................  
.................... char *strncpy(char *s1, char *s2, size_t n) 
.................... { 
....................   char *s; 
....................  
....................   for (s = s1; n > 0 && *s2 != '\0'; n--) 
....................      *s++ = *s2++; 
....................   for (; n > 0; n--) 
....................      *s++ = '\0'; 
....................  
....................   return(s1); 
.................... } 
.................... /***********************************************************/ 
....................  
.................... /*concatenation functions*/ 
.................... /* standard template: char *strcat(char *s1, const char *s2) 
.................... appends s2 to s1*/ 
....................  
.................... char *strcat(char *s1, char *s2) 
.................... { 
....................    char *s; 
....................  
....................    for (s = s1; *s != '\0'; ++s); 
....................    while(*s2 != '\0') 
....................    { 
....................       *s = *s2; 
....................       ++s; 
....................       ++s2; 
....................    } 
....................  
....................    *s = '\0'; 
....................    return(s1); 
.................... } 
.................... /* standard template: char *strncat(char *s1, char *s2,size_t n) 
.................... appends not more than n characters from s2 to s1*/ 
....................  
.................... char *strncat(char *s1, char *s2, size_t n) 
.................... { 
....................    char *s; 
....................  
....................    for (s = s1; *s != '\0'; ++s); 
....................    while(*s2 != '\0' && 0<n) 
....................    { 
....................       *s = *s2; 
....................       ++s; 
....................       ++s2; 
....................       --n; 
....................    } 
....................  
....................    *s = '\0'; 
....................    return(s1); 
.................... } 
....................  
.................... /***********************************************************/ 
....................  
....................  
.................... /*comparison functions*/ 
.................... /* standard template: signed int memcmp(void *s1, void *s2). 
....................    Compares s1 & s2; returns -1 if s1<s2, 0 if s1=s2, 1 if s1>s2 */ 
....................  
.................... signed int8 memcmp(void * s1,char *s2,size_t n) 
.................... { 
.................... char *su1, *su2; 
.................... for(su1=s1, su2=s2; 0<n; ++su1, ++su2, --n) 
.................... { 
....................    if(*su1!=*su2) 
....................       return ((*su1<*su2)?-1:+1); 
.................... } 
.................... return 0; 
.................... } 
....................  
.................... /* standard template: int strcmp(const char *s1, const char *s2). 
....................    Compares s1 & s2; returns -1 if s1<s2, 0 if s1=s2, 1 if s1>s2 */ 
....................  
.................... signed int8 strcmp(char *s1, char *s2) 
.................... { 
....................    for (; *s1 == *s2; s1++, s2++) 
....................       if (*s1 == '\0') 
....................          return(0); 
....................    return((*s1 < *s2) ? -1: 1); 
.................... } 
.................... /* standard template: int strcoll(const char *s1, const char *s2). 
....................    Compares s1 & s2; returns -1 if s1<s2, 0 if s1=s2, 1 if s1>s2 */ 
....................  
.................... signed int8 strcoll(char *s1, char *s2) 
.................... { 
....................    for (; *s1 == *s2; s1++, s2++) 
....................       if (*s1 == '\0') 
....................          return(0); 
....................    return((*s1 < *s2) ? -1: 1); 
.................... } 
....................  
.................... /* standard template: 
....................    int strncmp(const char *s1, const char *s2, size_t n). 
....................    Compares max of n characters (not following 0) from s1 to s2; 
....................    returns same as strcmp */ 
....................  
.................... signed int8 strncmp(char *s1, char *s2, size_t n) 
.................... { 
....................    for (; n > 0; s1++, s2++, n--) 
....................       if (*s1 != *s2) 
....................          return((*s1 <*s2) ? -1: 1); 
....................       else if (*s1 == '\0') 
....................          return(0); 
....................    return(0); 
.................... } 
.................... /* standard template: 
....................    int strxfrm(const char *s1, const char *s2, size_t n). 
....................    transforms maximum of n characters from s2 and places them into s1*/ 
.................... size_t strxfrm(char *s1, char *s2, size_t n) 
.................... { 
....................   char *s; 
....................   unsigned int8 n1; 
....................   n1=n; 
....................   for (s = s1; n > 0 && *s2 != '\0'; n--) 
....................      *s++ = *s2++; 
....................   for (; n > 0; n--) 
....................      *s++ = '\0'; 
....................  
....................   return(n1); 
.................... } 
....................  
....................  
....................  
....................  
....................  
.................... /***********************************************************/ 
.................... /*Search functions*/ 
.................... /* standard template: void *memchr(const char *s, int c). 
....................    Finds first occurrence of c in n characters of s */ 
....................  
.................... char *memchr(void *s,unsigned int8 c,size_t n) 
.................... { 
....................    char uc; 
....................    char *su; 
....................    uc=c; 
....................    for(su=s;0<n;++su,--n) 
....................       if(*su==uc) 
....................       return su; 
....................    return NULL; 
.................... } 
....................  
.................... /* standard template: char *strchr(const char *s, int c). 
....................    Finds first occurrence of c in s */ 
....................  
.................... char *strchr(char *s, unsigned int8 c) 
.................... { 
....................    for (; *s != c; s++) 
....................       if (*s == '\0') 
....................          return(0); 
....................    return(s); 
.................... } 
.................... /* standard template: 
....................    size_t strcspn(const char *s1, const char *s2). 
....................    Computes length of max initial segment of s1 that 
....................    consists entirely of characters NOT from s2*/ 
....................  
.................... unsigned int8  strcspn(char *s1, char *s2) 
.................... { 
....................    char *sc1, *sc2; 
....................  
....................    for (sc1 = s1; *sc1 != 0; sc1++) 
....................       for (sc2 = s2; *sc2 != 0; sc2++) 
....................          if (*sc1 == *sc2) 
....................             return(sc1 - s1); 
....................    return(sc1 - s1); 
.................... } 
.................... /* standard template: 
....................    char *strpbrk(const char *s1, const char *s2). 
....................    Locates first occurence of any character from s2 in s1; 
....................    returns s1 if s2 is empty string */ 
....................  
.................... char *strpbrk(char *s1, char *s2) 
.................... { 
....................    char *sc1, *sc2; 
....................  
....................    for (sc1 = s1; *sc1 != 0; sc1++) 
....................       for (sc2 = s2; *sc2 != 0; sc2++) 
....................          if (*sc1 == *sc2) 
....................             return(sc1); 
....................    return(0); 
.................... } 
....................  
....................  
.................... /* standard template: char *strrchr(const char *s, int c). 
....................    Finds last occurrence of c in s */ 
....................  
.................... char *strrchr(char *s, unsigned int8 c) 
.................... { 
....................    char *p; 
....................  
....................    for (p = 0; ; s++) 
....................    { 
....................       if (*s == c) 
....................          p = s; 
....................       if (*s == '\0') 
....................          return(p); 
....................    } 
.................... } 
.................... /* computes length of max initial segment of s1 consisting 
....................    entirely of characters from s2 */ 
....................  
.................... unsigned int8  strspn(char *s1, char *s2) 
.................... { 
....................    char *sc1, *sc2; 
....................  
....................    for (sc1 = s1; *sc1 != 0; sc1++) 
....................       for (sc2 = s2; ; sc2++) 
....................     if (*sc2 == '\0') 
....................        return(sc1 - s1); 
....................          else if (*sc1 == *sc2) 
....................             break; 
....................    return(sc1 - s1); 
.................... } 
.................... /* standard template: 
....................    char *strstr(const char *s1, const char *s2); 
....................    Locates first occurence of character sequence s2 in s1; 
....................    returns 0 if s2 is empty string 
....................  
....................    Uncomment #define FASTER_BUT_MORE_ROM at the top of the 
....................    file to use the faster algorithm */ 
.................... char *strstr(char *s1, char *s2) 
.................... { 
....................    char *s, *t; 
....................  
....................    #ifdef FASTER_BUT_MORE_ROM 
....................    if (*s2 == '\0') 
....................          return(s1); 
....................    #endif 
....................  
....................    while (*s1) 
....................    { 
....................       for(s = s1, t = s2; *t && (*s == *t); ++s, ++t); 
....................  
....................       if (*t == '\0') 
....................          return s1; 
....................       ++s1; 
....................       #ifdef FASTER_BUT_MORE_ROM 
....................          while(*s1 != '\0' && *s1 != *s2) 
....................             ++s1; 
....................       #endif 
....................    } 
....................    return 0; 
.................... } 
....................  
.................... /* standard template: char *strtok(char *s1, const char *s2). 
....................  
....................    Finds next token in s1 delimited by a character from separator 
....................    string s2 (which can be different from call to call).  First call 
....................    starts at beginning of s1 searching for first character NOT 
....................    contained in s2; returns 0 if none is found. 
....................    If one is found, it is the start of first token (return value). 
....................    Function then searches from there for a character contained in s2. 
....................    If none is found, current token extends to end of s1, and subsequent 
....................    searches for a token will return 0.  If one is found, it is 
....................    overwritten by '\0', which terminates current token.  Function saves 
....................    pointer to following character from which next search will start. 
....................    Each subsequent call, with 0 as first argument, starts searching 
....................    from saved pointer */ 
....................  
.................... char *strtok(char *s1, char *s2) 
.................... { 
....................    char *beg, *end; 
....................    static char *save; 
....................  
....................    beg = (s1)? s1: save; 
....................    beg += strspn(beg, s2); 
....................    if (*beg == '\0') 
....................    { 
....................       *save = ' '; 
....................       return(0); 
....................    } 
....................    end = strpbrk(beg, s2); 
....................    if (*end != '\0') 
....................    { 
....................       *end = '\0'; 
....................       end++; 
....................    } 
....................    save = end; 
....................    return(beg); 
.................... } 
....................  
.................... /*****************************************************************/ 
.................... /*Miscellaneous functions*/ 
.................... /* standard template 
.................... maps error number in errnum to an error message string 
.................... Returns: Pointer to string 
.................... */ 
.................... #ifdef _ERRNO 
.................... char * strerror(unsigned int8 errnum) 
.................... { 
.................... char s[15]; 
.................... switch( errnum) 
.................... { 
.................... case 0: 
....................    strcpy(s,"no errors"); 
....................    return s; 
.................... case EDOM : 
....................    strcpy(s,"domain error"); 
....................    return s; 
.................... case ERANGE: 
....................    strcpy(s,"range error"); 
....................    return s; 
.................... } 
.................... } 
.................... #ENDIF 
.................... /* standard template: size_t strlen(const char *s). 
....................    Computes length of s1 (preceding terminating 0) */ 
....................  
.................... unsigned int8 strlen(char *s) 
.................... { 
....................    char *sc; 
....................  
....................    for (sc = s; *sc != 0; sc++); 
....................    return(sc - s); 
.................... } 
....................  
.................... /* standard template: size_t stricmp(const char *s1, const char *s2). 
....................    Compares s1 to s2 ignoring case (upper vs. lower) */ 
....................  
.................... signed int8 stricmp(char *s1, char *s2) 
.................... { 
....................  for(; *s1==*s2||(isalpha(*s1)&&isalpha(*s2)&&(*s1==*s2+32||*s2==*s1+32)); 
....................     s1++, s2++) 
....................     if (*s1 == '\0') 
....................        return(0); 
....................  return((*s1 < *s2) ? -1: 1); 
.................... } 
....................  
....................  
.................... /* standard template: char *strlwr(char *s). 
....................    Replaces uppercase letters by lowercase; 
....................    returns pointer to new string s */ 
....................  
.................... char *strlwr(char *s) 
.................... { 
....................    char *p; 
....................  
....................    for (p = s; *p != '\0'; p++) 
....................       if (*p >= 'A' && *p <='Z') 
....................          *p += 'a' - 'A'; 
....................    return(s); 
.................... } 
....................  
....................  
.................... /************************************************************/ 
....................  
....................  
.................... #endif 
....................  
....................  
.................... div_t div(signed int numer, signed int denom) 
.................... { 
....................    div_t val; 
....................    val.quot = numer / denom; 
....................    val.rem = numer - (denom * val.quot); 
....................    return (val); 
.................... } 
....................  
.................... ldiv_t ldiv(signed long numer, signed long denom) 
.................... { 
....................    ldiv_t val; 
....................  
....................    val.quot = numer / denom; 
....................    val.rem = numer - (denom * val.quot); 
....................    return (val); 
.................... } 
....................  
.................... #if defined(__PCD__) 
.................... float32 atoe(char * s) 
.................... { 
....................    float32 pow10 = 1.0; 
....................    float32 result = 0.0; 
....................    unsigned int8 sign = 0; 
....................    unsigned int8 expsign = 0; 
....................    char c; 
....................    unsigned int8 ptr = 0; 
....................    unsigned int8 i; 
....................    float32 exp = 1.0; 
....................    unsigned int8 expcnt = 0; 
....................  
....................    c = s[ptr++]; 
....................  
....................    if ((c>='0' && c<='9') || c=='+' || c=='-' || c=='.' || c=='E' || c=='e') { 
....................       if(c == '-') { 
....................          sign = 1; 
....................          c = s[ptr++]; 
....................       } 
....................       if(c == '+') 
....................          c = s[ptr++]; 
....................  
....................       while((c >= '0' && c <= '9')) { 
....................          result = 10*result + c - '0'; 
....................          c = s[ptr++]; 
....................       } 
....................  
....................       if (c == '.') { 
....................          c = s[ptr++]; 
....................          while((c >= '0' && c <= '9')) { 
....................              pow10 = pow10*10; 
....................              result += (c - '0')/pow10; 
....................              c = s[ptr++]; 
....................          } 
....................       } 
....................  
....................       // Handling the exponent 
....................       if (c=='e' || c=='E') { 
....................          c = s[ptr++]; 
....................  
....................          if(c == '-') { 
....................             expsign = 1; 
....................             c = s[ptr++]; 
....................          } 
....................          if(c == '+') 
....................             c = s[ptr++]; 
....................  
....................          while((c >= '0' && c <= '9')) { 
....................             expcnt = 10*expcnt + c - '0'; 
....................             c = s[ptr++]; 
....................          } 
....................  
....................          for(i=0;i<expcnt;i++) 
....................             exp*=10; 
....................  
....................          if(expsign==1) 
....................             result/=exp; 
....................          else 
....................             result*=exp; 
....................       } 
....................    } 
....................  
....................    if (sign == 1) 
....................       result = -1*result; 
....................    return(result); 
.................... } 
.................... #endif 
....................  
.................... #if !defined(__PCD__) 
.................... float atoe(char * s) 
.................... { 
....................    float pow10 = 1.0; 
....................    float result = 0.0; 
....................    unsigned int8 sign = 0; 
....................    unsigned int8 expsign = 0; 
....................    char c; 
....................    unsigned int8 ptr = 0; 
....................    unsigned int8 i; 
....................    float exp = 1.0; 
....................    unsigned int8 expcnt = 0; 
....................  
....................    c = s[ptr++]; 
....................  
....................    if ((c>='0' && c<='9') || c=='+' || c=='-' || c=='.' || c=='E' || c=='e') { 
....................       if(c == '-') { 
....................          sign = 1; 
....................          c = s[ptr++]; 
....................       } 
....................       if(c == '+') 
....................          c = s[ptr++]; 
....................  
....................       while((c >= '0' && c <= '9')) { 
....................          result = 10*result + c - '0'; 
....................          c = s[ptr++]; 
....................       } 
....................  
....................       if (c == '.') { 
....................          c = s[ptr++]; 
....................          while((c >= '0' && c <= '9')) { 
....................              pow10 = pow10*10; 
....................              result += (c - '0')/pow10; 
....................              c = s[ptr++]; 
....................          } 
....................       } 
....................  
....................       // Handling the exponent 
....................       if (c=='e' || c=='E') { 
....................          c = s[ptr++]; 
....................  
....................          if(c == '-') { 
....................             expsign = 1; 
....................             c = s[ptr++]; 
....................          } 
....................          if(c == '+') 
....................             c = s[ptr++]; 
....................  
....................          while((c >= '0' && c <= '9')) { 
....................             expcnt = 10*expcnt + c - '0'; 
....................             c = s[ptr++]; 
....................          } 
....................  
....................          for(i=0;i<expcnt;i++) 
....................             exp*=10; 
....................  
....................          if(expsign==1) 
....................             result/=exp; 
....................          else 
....................             result*=exp; 
....................       } 
....................    } 
....................  
....................    if (sign == 1) 
....................       result = -1*result; 
....................    return(result); 
.................... } 
.................... #endif 
....................  
.................... signed int atoi(char *s) 
.................... { 
....................    signed int result; 
....................    unsigned int sign, base, index; 
....................    char c; 
....................  
....................    index = 0; 
....................    sign = 0; 
....................    base = 10; 
....................    result = 0; 
....................  
....................    if (!s) 
....................       return 0; 
....................    // Omit all preceeding alpha characters 
....................    c = s[index++]; 
....................  
....................    // increase index if either positive or negative sign is detected 
....................    if (c == '-') 
....................    { 
....................       sign = 1;         // Set the sign to negative 
....................       c = s[index++]; 
....................    } 
....................    else if (c == '+') 
....................    { 
....................       c = s[index++]; 
....................    } 
....................  
....................    if (c >= '0' && c <= '9') 
....................    { 
....................  
....................       // Check for hexa number 
....................       if (c == '0' && (s[index] == 'x' || s[index] == 'X')) 
....................       { 
....................          base = 16; 
....................          index++; 
....................          c = s[index++]; 
....................       } 
....................  
....................       // The number is a decimal number 
....................       if (base == 10) 
....................       { 
....................          while (c >= '0' && c <= '9') 
....................          { 
....................             result = 10*result + (c - '0'); 
....................             c = s[index++]; 
....................          } 
....................       } 
....................       else if (base == 16)    // The number is a hexa number 
....................       { 
....................          c = toupper(c); 
....................          while ( (c >= '0' && c <= '9') || (c >= 'A' && c<='F')) 
....................          { 
....................             if (c >= '0' && c <= '9') 
....................                result = (result << 4) + (c - '0'); 
....................             else 
....................                result = (result << 4) + (c - 'A' + 10); 
....................  
....................             c = s[index++]; 
....................             c = toupper(c); 
....................          } 
....................       } 
....................    } 
....................  
....................    if (sign == 1 && base == 10) 
....................        result = -result; 
....................  
....................    return(result); 
.................... } 
....................  
.................... signed long atol(char *s) 
.................... { 
....................    signed long result; 
....................    unsigned int sign, base, index; 
....................    char c; 
....................  
....................    index = 0; 
....................    sign = 0; 
....................    base = 10; 
....................    result = 0; 
....................  
....................    if (!s) 
....................       return 0; 
....................    c = s[index++]; 
....................  
....................    // increase index if either positive or negative sign is detected 
....................    if (c == '-') 
....................    { 
....................       sign = 1;         // Set the sign to negative 
....................       c = s[index++]; 
....................    } 
....................    else if (c == '+') 
....................    { 
....................       c = s[index++]; 
....................    } 
....................  
....................    if (c >= '0' && c <= '9') 
....................    { 
....................       if (c == '0' && (s[index] == 'x' || s[index] == 'X')) 
....................       { 
....................          base = 16; 
....................          index++; 
....................          c = s[index++]; 
....................       } 
....................  
....................       // The number is a decimal number 
....................       if (base == 10) 
....................       { 
....................          while (c >= '0' && c <= '9') 
....................          { 
....................             result = 10*result + (c - '0'); 
....................             c = s[index++]; 
....................          } 
....................       } 
....................       else if (base == 16)    // The number is a hexa number 
....................       { 
....................          c = toupper(c); 
....................          while ( (c >= '0' && c <= '9') || (c >= 'A' && c <='F')) 
....................          { 
....................             if (c >= '0' && c <= '9') 
....................                result = (result << 4) + (c - '0'); 
....................             else 
....................                result = (result << 4) + (c - 'A' + 10); 
....................  
....................             c = s[index++];c = toupper(c); 
....................          } 
....................       } 
....................    } 
....................  
....................    if (base == 10 && sign == 1) 
....................       result = -result; 
....................  
....................    return(result); 
.................... } 
....................  
.................... /* A fast routine to multiply by 10 
....................  */ 
.................... signed int32 mult_with10(int32 num) 
.................... { 
....................    return ( (num << 1) + (num << 3) ); 
.................... } 
....................  
.................... #if sizeof(long)==2 
.................... signed int32 atoi32(char *s) 
.................... { 
....................    signed int32 result; 
....................    int8 sign, base, index; 
....................    char c; 
....................  
....................    index = 0; 
....................    sign = 0; 
....................    base = 10; 
....................    result = 0; 
....................  
....................    if (!s) 
....................       return 0; 
....................    c = s[index++]; 
....................  
....................    // increase index if either positive or negative sign is detected 
....................    if (c == '-') 
....................    { 
....................       sign = 1;         // Set the sign to negative 
....................       c = s[index++]; 
....................    } 
....................    else if (c == '+') 
....................    { 
....................       c = s[index++]; 
....................    } 
....................  
....................    if (c >= '0' && c <= '9') 
....................    { 
....................       if (c == '0' && (s[index] == 'x' || s[index] == 'X')) 
....................       { 
....................          base = 16; 
....................          index++; 
....................          c = s[index++]; 
....................       } 
....................  
....................       // The number is a decimal number 
....................       if (base == 10) 
....................       { 
....................          while (c >= '0' && c <= '9') { 
....................             result = (result << 1) + (result << 3);  // result *= 10; 
....................             result += (c - '0'); 
....................             c = s[index++]; 
....................          } 
....................       } 
....................       else if (base == 16)    // The number is a hexa number 
....................       { 
....................          c = toupper(c); 
....................          while ((c >= '0' && c <= '9') || (c >= 'A' && c <='F')) 
....................          { 
....................             if (c >= '0' && c <= '9') 
....................                result = (result << 4) + (c - '0'); 
....................             else 
....................                result = (result << 4) + (c - 'A' + 10); 
....................  
....................             c = s[index++];c = toupper(c); 
....................          } 
....................       } 
....................    } 
....................  
....................    if (base == 10 && sign == 1) 
....................       result = -result; 
....................  
....................    return(result); 
.................... } 
.................... #endif 
....................  
.................... #if defined(__PCD__) 
....................  
.................... signed int48 atoi48(char *s) 
.................... { 
....................    signed int48 result; 
....................    int8 sign, base, index; 
....................    char c; 
....................  
....................    index = 0; 
....................    sign = 0; 
....................    base = 10; 
....................    result = 0; 
....................  
....................    if (!s) 
....................       return 0; 
....................    c = s[index++]; 
....................  
....................    // increase index if either positive or negative sign is detected 
....................    if (c == '-') 
....................    { 
....................       sign = 1;         // Set the sign to negative 
....................       c = s[index++]; 
....................    } 
....................    else if (c == '+') 
....................    { 
....................       c = s[index++]; 
....................    } 
....................  
....................    if (c >= '0' && c <= '9') 
....................    { 
....................       if (c == '0' && (s[index] == 'x' || s[index] == 'X')) 
....................       { 
....................          base = 16; 
....................          index++; 
....................          c = s[index++]; 
....................       } 
....................  
....................       // The number is a decimal number 
....................       if (base == 10) 
....................       { 
....................          while (c >= '0' && c <= '9') { 
....................             result = (result << 1) + (result << 3);  // result *= 10; 
....................             result += (c - '0'); 
....................             c = s[index++]; 
....................          } 
....................       } 
....................       else if (base == 16)    // The number is a hexa number 
....................       { 
....................          c = toupper(c); 
....................          while ((c >= '0' && c <= '9') || (c >= 'A' && c <='F')) 
....................          { 
....................             if (c >= '0' && c <= '9') 
....................                result = (result << 4) + (c - '0'); 
....................             else 
....................                result = (result << 4) + (c - 'A' + 10); 
....................  
....................             c = s[index++];c = toupper(c); 
....................          } 
....................       } 
....................    } 
....................  
....................    if (base == 10 && sign == 1) 
....................       result = -result; 
....................  
....................    return(result); 
.................... } 
....................  
.................... signed int64 atoi64(char *s) 
.................... { 
....................    signed int64 result; 
....................    int8 sign, base, index; 
....................    char c; 
....................  
....................    index = 0; 
....................    sign = 0; 
....................    base = 10; 
....................    result = 0; 
....................  
....................    if (!s) 
....................       return 0; 
....................    c = s[index++]; 
....................  
....................    // increase index if either positive or negative sign is detected 
....................    if (c == '-') 
....................    { 
....................       sign = 1;         // Set the sign to negative 
....................       c = s[index++]; 
....................    } 
....................    else if (c == '+') 
....................    { 
....................       c = s[index++]; 
....................    } 
....................  
....................    if (c >= '0' && c <= '9') 
....................    { 
....................       if (c == '0' && (s[index] == 'x' || s[index] == 'X')) 
....................       { 
....................          base = 16; 
....................          index++; 
....................          c = s[index++]; 
....................       } 
....................  
....................       // The number is a decimal number 
....................       if (base == 10) 
....................       { 
....................          while (c >= '0' && c <= '9') { 
....................             result = (result << 1) + (result << 3);  // result *= 10; 
....................             result += (c - '0'); 
....................             c = s[index++]; 
....................          } 
....................       } 
....................       else if (base == 16)    // The number is a hexa number 
....................       { 
....................          c = toupper(c); 
....................          while ((c >= '0' && c <= '9') || (c >= 'A' && c <='F')) 
....................          { 
....................             if (c >= '0' && c <= '9') 
....................                result = (result << 4) + (c - '0'); 
....................             else 
....................                result = (result << 4) + (c - 'A' + 10); 
....................  
....................             c = s[index++];c = toupper(c); 
....................          } 
....................       } 
....................    } 
....................  
....................    if (base == 10 && sign == 1) 
....................       result = -result; 
....................  
....................    return(result); 
.................... } 
.................... #endif 
....................  
.................... char * itoa(signed int32 num, unsigned int base, char * s) 
.................... { 
....................      unsigned int32 temp=1; 
....................      unsigned int8 i,sign=0,cnt=0; 
....................      char c; 
....................  
....................      if(num<0) { 
....................          sign=1;        // Check for negative number 
....................          num*=-1; 
....................      } 
....................  
....................      while(temp>0) { 
....................          temp=(num/base); 
....................          s[cnt]=(num%base)+'0';    // Conversion 
....................  
....................          if(s[cnt]>0x39) 
....................             s[cnt]+=0x7; 
....................  
....................          cnt++; 
....................          num=temp; 
....................      } 
....................  
....................      if(sign==1) { 
....................          s[cnt]=0x2D;      // Negative sign 
....................          cnt++; 
....................      } 
....................  
....................      for(i = 0;i<(int8)(cnt/2);i++) { 
....................  
....................          c=s[i]; 
....................          s[i]=s[cnt-i-1];        // Reverse the number 
....................          s[cnt-i-1]=c; 
....................      } 
....................      s[cnt]='\0';     // End the string 
....................      return s; 
.................... } 
....................  
.................... float strtof(char *s, char *endptr) 
.................... { 
....................    float pow10 = 1.0; 
....................    float result = 0.0; 
....................    int1 skip = 1, sign = 0, point = 0; 
....................    char c; 
....................    unsigned int8 ptr = 0; 
....................  
....................    if (!s) 
....................       return 0; 
....................  
....................    for(c=s[ptr++]; c!=0; c=s[ptr++]) 
....................    { 
....................       if (skip && !isspace(c)) 
....................       { 
....................          skip = 0; 
....................          if (c == '+') 
....................          { 
....................             sign = 0; 
....................             continue; 
....................          }             
....................          else if (c == '-') 
....................          { 
....................             sign = 1; 
....................             continue; 
....................          } 
....................       } 
....................       if (!skip && (c == '.') && !point) 
....................          point = 1; 
....................       else if (!skip && isdigit(c)) 
....................       { 
....................          c -= '0'; 
....................          if (point) 
....................          { 
....................             pow10 = pow10 * 10.0; 
....................             result += (float)c / pow10;    
....................          } 
....................          else 
....................          { 
....................             result = 10.0 * result + (float)c; 
....................          } 
....................       } 
....................       else if (!skip) 
....................          break; 
....................    } 
....................  
....................    if (sign) 
....................       result = -1*result; 
....................        
....................    if(endptr) 
....................    { 
....................       if (ptr) { 
....................          ptr--; 
....................        #IF LONG_POINTERS  
....................          *((long *)endptr)= s+ptr;  
....................        #ELSE 
....................          *((char *)endptr)=s+ptr; 
....................        #ENDIF 
....................       } 
....................       else 
....................       { 
....................       #IF LONG_POINTERS 
....................       *((long *)endptr)= s;  
....................       #ELSE 
....................       *((char *)endptr)=s; 
....................       #ENDIF 
....................       } 
....................    } 
....................  
....................    return(result); 
.................... } 
....................  
.................... #if defined(__PCD__) 
.................... float48 strtof48(char *s, char *endptr) 
.................... { 
....................    float48 pow10 = 1.0; 
....................    float48 result = 0.0; 
....................    int1 skip = 1, sign = 0, point = 0; 
....................    char c; 
....................    unsigned int8 ptr = 0; 
....................  
....................    if (!s) 
....................       return 0; 
....................  
....................    for(c=s[ptr++]; c!=0; c=s[ptr++]) 
....................    { 
....................       if (skip && !isspace(c)) 
....................       { 
....................          skip = 0; 
....................          if (c == '+') 
....................          { 
....................             sign = 0; 
....................             continue; 
....................          }             
....................          else if (c == '-') 
....................          { 
....................             sign = 1; 
....................             continue; 
....................          } 
....................       } 
....................       if (!skip && (c == '.') && !point) 
....................          point = 1; 
....................       else if (!skip && isdigit(c)) 
....................       { 
....................          c -= '0'; 
....................          if (point) 
....................          { 
....................             pow10 = pow10 * 10.0; 
....................             result += (float48)c / pow10;    
....................          } 
....................          else 
....................          { 
....................             result = 10.0 * result + (float48)c; 
....................          } 
....................       } 
....................       else if (!skip) 
....................          break; 
....................    } 
....................  
....................    if (sign) 
....................       result = -1*result; 
....................        
....................    if(endptr) 
....................    { 
....................       if (ptr) { 
....................          ptr--; 
....................        #IF LONG_POINTERS  
....................          *((long *)endptr)= s+ptr;  
....................        #ELSE 
....................          *((char *)endptr)=s+ptr; 
....................        #ENDIF 
....................       } 
....................       else 
....................       { 
....................       #IF LONG_POINTERS 
....................       *((long *)endptr)= s;  
....................       #ELSE 
....................       *((char *)endptr)=s; 
....................       #ENDIF 
....................       } 
....................    } 
....................  
....................    return(result); 
.................... } 
....................  
.................... float64 strtod(char *s, char *endptr) 
.................... { 
....................    float64 pow10 = 1.0; 
....................    float64 result = 0.0; 
....................    int1 skip = 1, sign = 0, point = 0; 
....................    char c; 
....................    unsigned int8 ptr = 0; 
....................  
....................    if (!s) 
....................       return 0; 
....................  
....................    for(c=s[ptr++]; c!=0; c=s[ptr++]) 
....................    { 
....................       if (skip && !isspace(c)) 
....................       { 
....................          skip = 0; 
....................          if (c == '+') 
....................          { 
....................             sign = 0; 
....................             continue; 
....................          }             
....................          else if (c == '-') 
....................          { 
....................             sign = 1; 
....................             continue; 
....................          } 
....................       } 
....................       if (!skip && (c == '.') && !point) 
....................          point = 1; 
....................       else if (!skip && isdigit(c)) 
....................       { 
....................          c -= '0'; 
....................          if (point) 
....................          { 
....................             pow10 = pow10 * 10.0; 
....................             result += (float64)c / pow10;    
....................          } 
....................          else 
....................          { 
....................             result = 10.0 * result + (float64)c; 
....................          } 
....................       } 
....................       else if (!skip) 
....................          break; 
....................    } 
....................  
....................    if (sign) 
....................       result = -1*result; 
....................        
....................    if(endptr) 
....................    { 
....................       if (ptr) { 
....................          ptr--; 
....................        #IF LONG_POINTERS  
....................          *((long *)endptr)= s+ptr;  
....................        #ELSE 
....................          *((char *)endptr)=s+ptr; 
....................        #ENDIF 
....................       } 
....................       else 
....................       { 
....................       #IF LONG_POINTERS 
....................       *((long *)endptr)= s;  
....................       #ELSE 
....................       *((char *)endptr)=s; 
....................       #ENDIF 
....................       } 
....................    } 
....................  
....................    return(result); 
.................... } 
.................... #endif 
....................  
.................... unsigned long strtoul(char *s, char *endptr, signed int base) 
.................... { 
....................    char *sc,*s1,*sd; 
....................    unsigned long x=0; 
....................    char sign; 
....................    char digits[]="0123456789abcdefghijklmnopqstuvwxyz"; 
....................    for(sc=s;isspace(*sc);++sc); 
....................    sign=*sc=='-'||*sc=='+'?*sc++:'+'; 
....................    if(sign=='-' || base <0 || base ==1|| base >36) // invalid base 
....................    goto StrtoulGO; 
....................  
....................    else if (base) 
....................    { 
....................       if(base==16 && *sc =='0'&&(sc[1]=='x' || sc[1]=='X')) 
....................          sc+=2; 
....................       if(base==8 && *sc =='0') 
....................          sc+=1; 
....................       if(base==2 && *sc =='0'&&sc[1]=='b') 
....................          sc+=2; 
....................  
....................    } 
....................    else if(*sc!='0') // base is 0, find base 
....................       base=10; 
....................    else if (sc[1]=='x' || sc[1]=='X') 
....................       base =16,sc+=2; 
....................    else if(sc[1]=='b') 
....................       base=2,sc+=2; 
....................    else 
....................       base=8; 
....................    for (s1=sc;*sc=='0';++sc);// skip leading zeroes 
....................    sd=memchr(digits,tolower(*sc),base); 
....................    for(; sd!=0; ) 
....................    { 
....................       x=x*base+(int16)(sd-digits); 
....................       ++sc; 
....................       sd=memchr(digits,tolower(*sc),base); 
....................    } 
....................    if(s1==sc) 
....................    { 
....................    StrtoulGO: 
....................       if (endptr) 
....................       { 
....................          #IF LONG_POINTERS 
....................          *((long *)endptr)= s;  
....................          #ELSE 
....................          *((char *)endptr)=s; 
....................          #ENDIF 
....................          } 
....................    return 0; 
....................    } 
....................    if (endptr) 
....................    { 
....................          #IF LONG_POINTERS 
....................          *((long *)endptr)= sc;  
....................          #ELSE 
....................          *((char *)endptr)=sc;  
....................          #ENDIF 
....................    } 
....................    return x; 
.................... } 
....................  
....................  
.................... signed long strtol(char *s,char *endptr, signed int base) 
.................... { 
....................    char *sc,*s1,*sd; 
....................    signed long x=0; 
....................    char sign; 
....................    char digits[]="0123456789abcdefghijklmnopqstuvwxyz"; 
....................    for(sc=s;isspace(*sc);++sc); 
....................    sign=*sc=='-'||*sc=='+'?*sc++:'+'; 
....................    if (base <0 || base ==1|| base >36) // invalid base 
....................    goto StrtolGO; 
....................    else if (base) 
....................    { 
....................       if(base==16 && *sc =='0'&&(sc[1]=='x' || sc[1]=='X')) 
....................          sc+=2; 
....................       if(base==8 && *sc =='0') 
....................          sc+=1; 
....................       if(base==2 && *sc =='0'&&sc[1]=='b') 
....................          sc+=2; 
....................  
....................    } 
....................    else if(*sc!='0') // base is 0, find base 
....................       base=10; 
....................    else if (sc[1]=='x' || sc[1]=='X') 
....................       base =16,sc+=2; 
....................    else if(sc[1]=='b') 
....................       base=2,sc+=2; 
....................    else 
....................       base=8; 
....................    for (s1=sc;*sc=='0';++sc);// skip leading zeroes 
....................  
....................    sd=memchr(digits,tolower(*sc),base); 
....................    for(;sd!=0;) 
....................    { 
....................       x=x*base+(int16)(sd-digits); 
....................       ++sc; 
....................       sd=memchr(digits,tolower(*sc),base); 
....................    } 
....................    if(s1==sc) 
....................    { 
....................    StrtolGO: 
....................       if (endptr) 
....................       { 
....................          #IF LONG_POINTERS 
....................          *((long *)endptr)= s;  
....................          #ELSE 
....................          *((char *)endptr)=s; 
....................          #ENDIF 
....................       } 
....................    return 0; 
....................    } 
....................    if(sign=='-') 
....................       x  =-x; 
....................    if (endptr) 
....................    { 
....................         #IF LONG_POINTERS 
....................          *((long *)endptr)= sc;  
....................         #ELSE 
....................         *((char *)endptr)=sc; 
....................         #ENDIF 
....................    } 
....................    return x; 
.................... } 
....................  
.................... signed int8 system(char *string) 
.................... { 
....................    return 0; 
.................... } 
....................  
.................... int8 mblen(char *s,size_t n) 
.................... { 
....................    return strlen(s); 
.................... } 
....................  
.................... int8 mbtowc(wchar_t *pwc,char *s,size_t n) 
.................... { 
....................    *pwc=*s; 
....................    return 1; 
.................... } 
....................  
.................... int8 wctomb(char *s,wchar_t wchar) 
.................... { 
....................    *s=wchar; 
....................    return 1; 
.................... } 
....................  
.................... size_t mbstowcs(wchar_t *pwcs,char *s,size_t n) 
.................... { 
....................    strncpy(pwcs,s,n); 
....................    return strlen(pwcs); 
.................... } 
....................  
.................... size_t wcstombs(char *s,wchar_t *pwcs,size_t n) 
.................... { 
....................    strncpy(s,pwcs,n); 
....................    return strlen(s); 
.................... } 
....................  
.................... //--------------------------------------------------------------------------- 
.................... // The random number implementation 
.................... //--------------------------------------------------------------------------- 
....................  
.................... unsigned int32 _Randseed; 
....................  
.................... unsigned int16 rand(void) 
.................... { 
....................    _Randseed = _Randseed * 1103515245 + 12345; 
....................    return ((unsigned int16)(_Randseed >> 16) % RAND_MAX); 
.................... } 
....................  
.................... void srand(unsigned int32 seed) 
.................... { 
....................    _Randseed = seed; 
.................... } 
....................  
.................... //--------------------------------------------------------------------------- 
.................... // Searching and sorting utilities implementation 
.................... //--------------------------------------------------------------------------- 
....................  
.................... #if !defined(__PCD__) 
.................... typedef signed int8 (*_Cmpfun)(char * p1,char * p2);  
.................... #else  
.................... typedef signed int16 (*_Cmpfun)(char * p1,char * p2);  
.................... #endif 
....................  
....................  
....................  
.................... void qsort(char * qdata, unsigned int qitems, unsigned int qsize, _Cmpfun cmp) { 
....................    unsigned int m,j,i,l; 
....................    int1 done; 
....................    unsigned int8 t[16]; 
....................  
....................    m = qitems/2; 
....................    while( m > 0 ) { 
....................      for(j=0; j<(qitems-m); ++j) { 
....................         i = j; 
....................         do 
....................         { 
....................            done=1; 
....................            l = i+m; 
....................            if( (*cmp)(qdata+i*qsize, qdata+l*qsize) > 0 ) { 
....................               memcpy(t, qdata+i*qsize, qsize); 
....................               memcpy(qdata+i*qsize, qdata+l*qsize, qsize); 
....................               memcpy(qdata+l*qsize, t, qsize); 
....................               if(m <= i) 
....................                 i -= m; 
....................                 done = 0; 
....................            } 
....................         } while(!done); 
....................      } 
....................      m = m/2; 
....................    } 
.................... } 
....................  
....................  
.................... char *bsearch(char *key, char *base, size_t num, size_t width,_Cmpfun cmp) 
.................... { 
....................    char *p, *q; 
....................    size_t n; 
....................    size_t pivot; 
....................    signed int val; 
....................  
....................    p = base; 
....................    n = num; 
....................  
....................    while (n > 0) 
....................    { 
....................       pivot = n >> 1; 
....................       q = p + width * pivot; 
....................  
....................       val = (*cmp)(key, q); 
....................  
....................       if (val < 0) 
....................          n = pivot; 
....................       else if (val == 0) 
....................          return ((char *)q); 
....................       else { 
....................          p = q + width; 
....................          n -= pivot + 1; 
....................       } 
....................    } 
....................  
....................    return NULL;      // There's no match 
.................... } 
....................  
....................  
.................... #endif 
....................  
.................... #include <DS1302.c> 
.................... ////////////////////////////////////////////////////////////////////////// 
.................... ////                               DS1302.C                           //// 
.................... ////                     Driver for Real Time Clock                   //// 
.................... ////                                                                  //// 
.................... ////  rtc_init()                                   Call after power up//// 
.................... ////                                                                  //// 
.................... ////  rtc_set_datetime(day,mth,year,dow,hour,min)  Set the date/time  //// 
.................... ////                                                                  //// 
.................... ////  rtc_get_date(day,mth,year,dow)               Get the date       //// 
.................... ////                                                                  //// 
.................... ////  rtc_get_time(hr,min,sec)                     Get the time       //// 
.................... ////                                                                  //// 
.................... ////  rtc_write_nvr(address,data)                  Write to NVR       //// 
.................... ////                                                                  //// 
.................... ////  data = rtc_read_nvr(address)                 Read from NVR      //// 
.................... ////                                                                  //// 
.................... ////  get_bcd(data)                              Convert data to BCD  //// 
.................... ////                                                                  //// 
.................... ////  rm_bcd(data)                               Convert data to int  //// 
.................... ////                                                                  //// 
.................... ////////////////////////////////////////////////////////////////////////// 
.................... ////        (C) Copyright 1996,2003 Custom Computer Services          //// 
.................... //// This source code may only be used by licensed users of the CCS C //// 
.................... //// compiler.  This source code may only be distributed to other     //// 
.................... //// licensed users of the CCS C compiler.  No other use, reproduction//// 
.................... //// or distribution is permitted without written permission.         //// 
.................... //// Derivative programs created using this software in object code   //// 
.................... //// form are not restricted in any way.                              //// 
.................... ////////////////////////////////////////////////////////////////////////// 
....................  
.................... //#ifndef RTC_SCLK 
....................  
.................... #define RTC_SCLK PIN_D1 
.................... #define RTC_IO   PIN_D2 
.................... #define RTC_RST  PIN_D3 
....................  
.................... //#endif 
....................  
.................... void write_ds1302_byte(BYTE cmd) { 
....................    BYTE i; 
....................  
....................    for(i=0;i<=7;++i) { 
*
02F4C:  MOVLB  4
02F4E:  CLRF   x54
02F50:  MOVF   x54,W
02F52:  SUBLW  07
02F54:  BNC   2F70
....................       output_bit(RTC_IO, shift_right(&cmd,1,0) ); 
02F56:  BCF    FD8.0
02F58:  RRCF   x53,F
02F5A:  BC    2F60
02F5C:  BCF    F8C.2
02F5E:  BRA    2F62
02F60:  BSF    F8C.2
02F62:  BCF    F95.2
....................       output_high(RTC_SCLK); 
02F64:  BCF    F95.1
02F66:  BSF    F8C.1
....................       output_low(RTC_SCLK); 
02F68:  BCF    F95.1
02F6A:  BCF    F8C.1
....................    } 
02F6C:  INCF   x54,F
02F6E:  BRA    2F50
.................... } 
02F70:  MOVLB  0
02F72:  RETLW  00
....................  
.................... void write_ds1302(BYTE cmd, BYTE data) { 
....................  
....................    output_high(RTC_RST); 
02F74:  BCF    F95.3
02F76:  BSF    F8C.3
....................    write_ds1302_byte(cmd); 
02F78:  MOVFF  451,453
02F7C:  RCALL  2F4C
....................    write_ds1302_byte(data); 
02F7E:  MOVFF  452,453
02F82:  RCALL  2F4C
....................    output_low(RTC_RST); 
02F84:  BCF    F95.3
02F86:  BCF    F8C.3
.................... } 
02F88:  RETLW  00
....................  
.................... BYTE read_ds1302(BYTE cmd) { 
....................    BYTE i,data; 
....................  
....................    output_high(RTC_RST); 
02F8A:  BCF    F95.3
02F8C:  BSF    F8C.3
....................    write_ds1302_byte(cmd); 
02F8E:  MOVFF  44E,453
02F92:  RCALL  2F4C
....................     
....................    input(RTC_IO); 
02F94:  BSF    F95.2
....................    delay_us(10); 
02F96:  MOVLW  10
02F98:  MOVWF  00
02F9A:  DECFSZ 00,F
02F9C:  BRA    2F9A
02F9E:  NOP   
....................           
....................    for(i=0;i<=7;++i) { 
02FA0:  MOVLB  4
02FA2:  CLRF   x4F
02FA4:  MOVF   x4F,W
02FA6:  SUBLW  07
02FA8:  BNC   2FD4
....................       shift_right(&data,1,input(RTC_IO)); 
02FAA:  BSF    F95.2
02FAC:  BTFSC  F83.2
02FAE:  BRA    2FB4
02FB0:  BCF    FD8.0
02FB2:  BRA    2FB6
02FB4:  BSF    FD8.0
02FB6:  RRCF   x50,F
....................       output_high(RTC_SCLK); 
02FB8:  BCF    F95.1
02FBA:  BSF    F8C.1
....................       delay_us(20); 
02FBC:  MOVLW  21
02FBE:  MOVWF  00
02FC0:  DECFSZ 00,F
02FC2:  BRA    2FC0
....................       output_low(RTC_SCLK); 
02FC4:  BCF    F95.1
02FC6:  BCF    F8C.1
....................       delay_us(20); 
02FC8:  MOVLW  21
02FCA:  MOVWF  00
02FCC:  DECFSZ 00,F
02FCE:  BRA    2FCC
....................    } 
02FD0:  INCF   x4F,F
02FD2:  BRA    2FA4
....................    output_low(RTC_RST); 
02FD4:  BCF    F95.3
02FD6:  BCF    F8C.3
....................  
....................    return(data); 
02FD8:  MOVFF  450,01
.................... } 
02FDC:  MOVLB  0
02FDE:  RETLW  00
....................  
.................... void rtc_init() { 
....................    BYTE x; 
....................    output_low(RTC_RST); 
02FE0:  BCF    F95.3
02FE2:  BCF    F8C.3
....................    delay_us(20); 
02FE4:  MOVLW  21
02FE6:  MOVWF  00
02FE8:  DECFSZ 00,F
02FEA:  BRA    2FE8
....................    output_low(RTC_SCLK); 
02FEC:  BCF    F95.1
02FEE:  BCF    F8C.1
....................    write_ds1302(0x8e,0); 
02FF0:  MOVLW  8E
02FF2:  MOVLB  4
02FF4:  MOVWF  x51
02FF6:  CLRF   x52
02FF8:  MOVLB  0
02FFA:  RCALL  2F74
....................    write_ds1302(0x90,0xa4); 
02FFC:  MOVLW  90
02FFE:  MOVLB  4
03000:  MOVWF  x51
03002:  MOVLW  A4
03004:  MOVWF  x52
03006:  MOVLB  0
03008:  RCALL  2F74
....................    x=read_ds1302(0x81); 
0300A:  MOVLW  81
0300C:  MOVLB  4
0300E:  MOVWF  x4E
03010:  MOVLB  0
03012:  RCALL  2F8A
03014:  MOVFF  01,44A
....................    if((x & 0x80)!=0) 
03018:  MOVLB  4
0301A:  MOVF   x4A,W
0301C:  ANDLW  80
0301E:  BZ    302C
....................      write_ds1302(0x80,0); 
03020:  MOVLW  80
03022:  MOVWF  x51
03024:  CLRF   x52
03026:  MOVLB  0
03028:  RCALL  2F74
0302A:  MOVLB  4
.................... } 
0302C:  MOVLB  0
0302E:  GOTO   8AE0 (RETURN)
....................  
.................... byte get_bcd(BYTE data) 
.................... { 
....................    byte nibh; 
....................    byte nibl; 
....................  
....................    nibh=data/10; 
*
055F6:  MOVFF  450,454
055FA:  MOVLW  0A
055FC:  MOVLB  4
055FE:  MOVWF  x55
05600:  MOVLB  0
05602:  CALL   4B58
05606:  MOVFF  01,451
....................    nibl=data-(nibh*10); 
0560A:  MOVLB  4
0560C:  MOVF   x51,W
0560E:  MULLW  0A
05610:  MOVF   FF3,W
05612:  SUBWF  x50,W
05614:  MOVWF  x52
....................  
....................    return((nibh<<4)|nibl); 
05616:  SWAPF  x51,W
05618:  MOVWF  00
0561A:  MOVLW  F0
0561C:  ANDWF  00,F
0561E:  MOVF   00,W
05620:  IORWF  x52,W
05622:  MOVWF  01
.................... } 
05624:  MOVLB  0
05626:  RETLW  00
....................  
.................... byte rm_bcd(BYTE data) 
.................... { 
....................    byte i; 
....................  
....................    i=data; 
*
049F2:  MOVFF  44F,450
....................    data=(i>>4)*10; 
049F6:  MOVLB  4
049F8:  SWAPF  x50,W
049FA:  MOVWF  00
049FC:  MOVLW  0F
049FE:  ANDWF  00,F
04A00:  MOVF   00,W
04A02:  MULLW  0A
04A04:  MOVFF  FF3,44F
....................    data=data+(i<<4>>4); 
04A08:  SWAPF  x50,W
04A0A:  MOVWF  00
04A0C:  MOVLW  F0
04A0E:  ANDWF  00,F
04A10:  MOVF   00,W
04A12:  SWAPF  00,F
04A14:  MOVLW  0F
04A16:  ANDWF  00,F
04A18:  MOVF   00,W
04A1A:  ADDWF  x4F,F
....................  
....................    return data; 
04A1C:  MOVFF  44F,01
.................... } 
04A20:  MOVLB  0
04A22:  RETLW  00
....................  
.................... void rtc_set_datetime(BYTE day, BYTE mth, BYTE year, BYTE dow, BYTE hr, BYTE min) { 
....................  
....................    write_ds1302(0x86,get_bcd(day)); 
*
05628:  MOVFF  44A,450
0562C:  RCALL  55F6
0562E:  MOVFF  01,450
05632:  MOVLW  86
05634:  MOVLB  4
05636:  MOVWF  x51
05638:  MOVFF  01,452
0563C:  MOVLB  0
0563E:  CALL   2F74
....................    write_ds1302(0x88,get_bcd(mth)); 
05642:  MOVFF  44B,450
05646:  RCALL  55F6
05648:  MOVFF  01,450
0564C:  MOVLW  88
0564E:  MOVLB  4
05650:  MOVWF  x51
05652:  MOVFF  01,452
05656:  MOVLB  0
05658:  CALL   2F74
....................    write_ds1302(0x8c,get_bcd(year)); 
0565C:  MOVFF  44C,450
05660:  RCALL  55F6
05662:  MOVFF  01,450
05666:  MOVLW  8C
05668:  MOVLB  4
0566A:  MOVWF  x51
0566C:  MOVFF  01,452
05670:  MOVLB  0
05672:  CALL   2F74
....................    write_ds1302(0x8a,get_bcd(dow)); 
05676:  MOVFF  44D,450
0567A:  RCALL  55F6
0567C:  MOVFF  01,450
05680:  MOVLW  8A
05682:  MOVLB  4
05684:  MOVWF  x51
05686:  MOVFF  01,452
0568A:  MOVLB  0
0568C:  CALL   2F74
....................    write_ds1302(0x84,get_bcd(hr)); 
05690:  MOVFF  44E,450
05694:  RCALL  55F6
05696:  MOVFF  01,450
0569A:  MOVLW  84
0569C:  MOVLB  4
0569E:  MOVWF  x51
056A0:  MOVFF  01,452
056A4:  MOVLB  0
056A6:  CALL   2F74
....................    write_ds1302(0x82,get_bcd(min)); 
056AA:  MOVFF  44F,450
056AE:  RCALL  55F6
056B0:  MOVFF  01,450
056B4:  MOVLW  82
056B6:  MOVLB  4
056B8:  MOVWF  x51
056BA:  MOVFF  01,452
056BE:  MOVLB  0
056C0:  CALL   2F74
....................    write_ds1302(0x80,get_bcd(0)); 
056C4:  MOVLB  4
056C6:  CLRF   x50
056C8:  MOVLB  0
056CA:  RCALL  55F6
056CC:  MOVFF  01,450
056D0:  MOVLW  80
056D2:  MOVLB  4
056D4:  MOVWF  x51
056D6:  MOVFF  01,452
056DA:  MOVLB  0
056DC:  CALL   2F74
.................... } 
056E0:  GOTO   BC74 (RETURN)
....................  
.................... void rtc_get_date(BYTE& day, BYTE& mth, BYTE& year, BYTE& dow) { 
....................    day = rm_bcd(read_ds1302(0x87)); 
*
08E92:  MOVLW  87
08E94:  MOVLB  4
08E96:  MOVWF  x4E
08E98:  MOVLB  0
08E9A:  CALL   2F8A
08E9E:  MOVFF  01,44A
08EA2:  MOVFF  01,44F
08EA6:  CALL   49F2
08EAA:  MOVFF  01,3AB
....................    mth = rm_bcd(read_ds1302(0x89)); 
08EAE:  MOVLW  89
08EB0:  MOVLB  4
08EB2:  MOVWF  x4E
08EB4:  MOVLB  0
08EB6:  CALL   2F8A
08EBA:  MOVFF  01,44A
08EBE:  MOVFF  01,44F
08EC2:  CALL   49F2
08EC6:  MOVFF  01,3AA
....................    year = rm_bcd(read_ds1302(0x8d)); 
08ECA:  MOVLW  8D
08ECC:  MOVLB  4
08ECE:  MOVWF  x4E
08ED0:  MOVLB  0
08ED2:  CALL   2F8A
08ED6:  MOVFF  01,44A
08EDA:  MOVFF  01,44F
08EDE:  CALL   49F2
08EE2:  MOVFF  01,3A9
....................    dow = rm_bcd(read_ds1302(0x8b)); 
08EE6:  MOVLW  8B
08EE8:  MOVLB  4
08EEA:  MOVWF  x4E
08EEC:  MOVLB  0
08EEE:  CALL   2F8A
08EF2:  MOVFF  01,44A
08EF6:  MOVFF  01,44F
08EFA:  CALL   49F2
08EFE:  MOVFF  01,3AF
.................... } 
....................  
.................... void rtc_get_time(BYTE& hr, BYTE& min, BYTE& sec) { 
....................    hr = rm_bcd(read_ds1302(0x85)); 
08F02:  MOVLW  85
08F04:  MOVLB  4
08F06:  MOVWF  x4E
08F08:  MOVLB  0
08F0A:  CALL   2F8A
08F0E:  MOVFF  01,44A
08F12:  MOVFF  01,44F
08F16:  CALL   49F2
08F1A:  MOVFF  01,3AC
....................    min = rm_bcd(read_ds1302(0x83)); 
08F1E:  MOVLW  83
08F20:  MOVLB  4
08F22:  MOVWF  x4E
08F24:  MOVLB  0
08F26:  CALL   2F8A
08F2A:  MOVFF  01,44A
08F2E:  MOVFF  01,44F
08F32:  CALL   49F2
08F36:  MOVFF  01,3AD
....................    sec = rm_bcd(read_ds1302(0x81)); 
08F3A:  MOVLW  81
08F3C:  MOVLB  4
08F3E:  MOVWF  x4E
08F40:  MOVLB  0
08F42:  CALL   2F8A
08F46:  MOVFF  01,44A
08F4A:  MOVFF  01,44F
08F4E:  CALL   49F2
08F52:  MOVFF  01,3AE
.................... } 
....................  
.................... void rtc_write_nvr(BYTE address, BYTE data) { 
....................    write_ds1302(address|0xc0,data); 
.................... } 
....................  
.................... BYTE rtc_read_nvr(BYTE address) { 
....................     return(read_ds1302(address|0xc1)); 
.................... } 
....................  
.................... #include <24512.c> 
.................... /////////////////////////////////////////////////////////////////////////// 
.................... ////   Library for a 24LC512 serial EEPROM                             //// 
.................... ////                                                                   //// 
.................... ////   init_ext_eeprom();    Call before the other functions are used  //// 
.................... ////                                                                   //// 
.................... ////   write_ext_eeprom(a, d);  Write the byte d to the address a      //// 
.................... ////                                                                   //// 
.................... ////   d = read_ext_eeprom(a);   Read the byte d from the address a    //// 
.................... ////                                                                   //// 
.................... ////   The main program may define eeprom_sda                          //// 
.................... ////   and eeprom_scl to override the defaults below.                  //// 
.................... ////                                                                   //// 
.................... /////////////////////////////////////////////////////////////////////////// 
.................... ////        (C) Copyright 1996,2003 Custom Computer Services           //// 
.................... //// This source code may only be used by licensed users of the CCS C  //// 
.................... //// compiler.  This source code may only be distributed to other      //// 
.................... //// licensed users of the CCS C compiler.  No other use, reproduction //// 
.................... //// or distribution is permitted without written permission.          //// 
.................... //// Derivative programs created using this software in object code    //// 
.................... //// form are not restricted in any way.                               //// 
.................... /////////////////////////////////////////////////////////////////////////// 
....................  
.................... #ifndef EEPROM_SDA 
....................  
.................... #define EEPROM_SDA  PIN_C4 
.................... #define EEPROM_SCL  PIN_C3 
....................  
.................... #endif 
....................  
.................... //#use i2c(master, sda=EEPROM_SDA, scl=EEPROM_SCL) 
....................  
.................... #define EEPROM_ADDRESS long int 
.................... #define EEPROM_SIZE   65535 
....................  
.................... void init_ext_eeprom() 
.................... { 
....................    output_float(EEPROM_SCL); 
....................    output_float(EEPROM_SDA); 
....................  
.................... } 
....................  
.................... void write_ext_eeprom(long int address, BYTE data) 
.................... { 
....................    short int status; 
....................    i2c_start(); 
*
04EB0:  BSF    F94.4
04EB2:  MOVLW  05
04EB4:  MOVWF  00
04EB6:  DECFSZ 00,F
04EB8:  BRA    4EB6
04EBA:  BSF    F94.3
04EBC:  MOVLW  06
04EBE:  MOVWF  00
04EC0:  DECFSZ 00,F
04EC2:  BRA    4EC0
04EC4:  BCF    F8B.4
04EC6:  BCF    F94.4
04EC8:  MOVLW  05
04ECA:  MOVWF  00
04ECC:  DECFSZ 00,F
04ECE:  BRA    4ECC
04ED0:  BCF    F8B.3
04ED2:  BCF    F94.3
....................    i2c_write(0xa0); 
04ED4:  MOVLW  A0
04ED6:  MOVLB  4
04ED8:  MOVWF  x6B
04EDA:  MOVLB  0
04EDC:  RCALL  48E4
....................    i2c_write(address>>8); 
04EDE:  MOVFF  466,469
04EE2:  MOVLB  4
04EE4:  CLRF   x6A
04EE6:  MOVFF  466,46B
04EEA:  MOVLB  0
04EEC:  RCALL  48E4
....................    i2c_write(address); 
04EEE:  MOVFF  465,46B
04EF2:  RCALL  48E4
....................    i2c_write(data); 
04EF4:  MOVFF  467,46B
04EF8:  RCALL  48E4
....................    i2c_stop(); 
04EFA:  BCF    F94.4
04EFC:  NOP   
04EFE:  BSF    F94.3
04F00:  BTFSS  F82.3
04F02:  BRA    4F00
04F04:  MOVLW  05
04F06:  MOVWF  00
04F08:  DECFSZ 00,F
04F0A:  BRA    4F08
04F0C:  BRA    4F0E
04F0E:  NOP   
04F10:  BSF    F94.4
04F12:  MOVLW  05
04F14:  MOVWF  00
04F16:  DECFSZ 00,F
04F18:  BRA    4F16
.................... } 
04F1A:  RETLW  00
....................  
.................... BYTE read_ext_eeprom(long int address) { 
....................    BYTE data; 
....................    i2c_start(); 
*
05814:  BSF    F94.4
05816:  MOVLW  05
05818:  MOVWF  00
0581A:  DECFSZ 00,F
0581C:  BRA    581A
0581E:  BSF    F94.3
05820:  MOVLW  06
05822:  MOVWF  00
05824:  DECFSZ 00,F
05826:  BRA    5824
05828:  BCF    F8B.4
0582A:  BCF    F94.4
0582C:  MOVLW  05
0582E:  MOVWF  00
05830:  DECFSZ 00,F
05832:  BRA    5830
05834:  BCF    F8B.3
05836:  BCF    F94.3
....................    i2c_write(0xa0); 
05838:  MOVLW  A0
0583A:  MOVLB  4
0583C:  MOVWF  x6B
0583E:  MOVLB  0
05840:  CALL   48E4
....................    i2c_write(address>>8); 
05844:  MOVFF  450,452
05848:  MOVLB  4
0584A:  CLRF   x53
0584C:  MOVFF  450,46B
05850:  MOVLB  0
05852:  CALL   48E4
....................    i2c_write(address); 
05856:  MOVFF  44F,46B
0585A:  CALL   48E4
....................    i2c_start(); 
0585E:  BSF    F94.4
05860:  MOVLW  05
05862:  MOVWF  00
05864:  DECFSZ 00,F
05866:  BRA    5864
05868:  BSF    F94.3
0586A:  MOVLW  06
0586C:  MOVWF  00
0586E:  DECFSZ 00,F
05870:  BRA    586E
05872:  BTFSS  F82.3
05874:  BRA    5872
05876:  BCF    F8B.4
05878:  BCF    F94.4
0587A:  MOVLW  05
0587C:  MOVWF  00
0587E:  DECFSZ 00,F
05880:  BRA    587E
05882:  BCF    F8B.3
05884:  BCF    F94.3
....................    i2c_write(0xa1); 
05886:  MOVLW  A1
05888:  MOVLB  4
0588A:  MOVWF  x6B
0588C:  MOVLB  0
0588E:  CALL   48E4
....................    data=i2c_read(0); 
05892:  CLRF   00
05894:  BRA    57A8
05896:  MOVFF  01,451
....................    i2c_stop(); 
0589A:  BCF    F94.4
0589C:  NOP   
0589E:  BSF    F94.3
058A0:  BTFSS  F82.3
058A2:  BRA    58A0
058A4:  MOVLW  05
058A6:  MOVWF  00
058A8:  DECFSZ 00,F
058AA:  BRA    58A8
058AC:  BRA    58AE
058AE:  NOP   
058B0:  BSF    F94.4
058B2:  MOVLW  05
058B4:  MOVWF  00
058B6:  DECFSZ 00,F
058B8:  BRA    58B6
....................    return(data); 
058BA:  MOVLB  4
058BC:  MOVFF  451,01
.................... } 
058C0:  MOVLB  0
058C2:  RETLW  00
....................  
....................  
.................... //-----Defines para configuracion de logica de funcionamiento de autoclave---// 
.................... //#define PT100Fija //Define para autcolaves con reservorio y Pt100 fija (NO FLEXIBLE) 
.................... //#define Reservorio //Define para autoclaves con reservorio 
.................... #define Absoluta //Define para el sensor de presion Absoluta 
.................... #define Tmax 134 
.................... #define Tmin 105 
.................... //#define ULKA 
.................... //#define Enfriador 
.................... //--------------------------------------------------------------------------// 
....................  
.................... #define   UP            !input(PIN_B0) 
.................... #define   DOWN          !input(PIN_B1) 
.................... #define   RIGHT         !input(PIN_B2) 
.................... #define   LEFT          !input(PIN_B3) 
....................  
.................... #define   DOOR          !input(PIN_B6) 
.................... #define   STOP          !input(PIN_B7) 
.................... #define   TERM          !input(PIN_B5) 
....................  
.................... #define   LOW           input(PIN_C1) 
.................... #define   HIG           input(PIN_C0) 
....................  
.................... #define   SSR_on           output_bit(PIN_C2,0) 
.................... #define   SSR_off          output_bit(PIN_C2,1) 
....................  
.................... #define   Buzzer_on        output_bit(PIN_D0,1) 
.................... #define   Buzzer_off       output_bit(PIN_D0,0) 
....................  
.................... #define   Desfogue_on      output_bit(PIN_D4,1) 
.................... #define   Desfogue_off     output_bit(PIN_D4,0) 
....................  
.................... #define   Agua_on          output_bit(PIN_D5,1) 
.................... #define   Agua_off         output_bit(PIN_D5,0) 
....................  
.................... #ifdef Enfriador 
.................... #define   Enfr_on          output_bit(PIN_D6,1) 
.................... #define   Enfr_off         output_bit(PIN_D6,0) 
.................... #else 
.................... #define   Bomba_on         output_bit(PIN_D6,1) 
.................... #define   Bomba_off        output_bit(PIN_D6,0) 
.................... #endif 
....................  
.................... #define OFF 0 
.................... #define ON  1 
.................... #define RX_BUFFER_SIZE  10 
.................... char Rx_Buffer[RX_BUFFER_SIZE+1]; 
.................... char Rx_Buffer2[RX_BUFFER_SIZE+1]; 
.................... char RX_Wr_Index=0; 
.................... char RX_Rd_Index=0; 
.................... char RX_Counter=0; 
....................  
.................... #define TX_BUFFER_SIZE  24 
.................... char Tx_Buffer[TX_BUFFER_SIZE+1]; 
.................... char TX_Wr_Index=0; 
.................... char TX_Counter=0; 
.................... //int1 RX_Buffer_Overflow=0; 
....................  
.................... //Comunicacion//------------------------ 
.................... byte SlaveA0Tx[0X20]; 
.................... byte dato=0;            //Contendr la informacin a enviar o recibir 
.................... byte direccion=0;       //Contendr la direccin del esclavo en el bus I2C 
.................... byte posicion=0;        //Contendr la posicin en el buffer de memoria del esclavo donde se almacenar o de donde se recuperar el dato 
....................  
.................... /* Tabla de Modulos, Primera Fila Ao Regular y el siguiente ao Bisiesto 
.................... E   F   M   A   M   J   J   A   S   O   N   D 
.................... 0   3   3   6   1   4   6   2   5   0   3   5 
.................... 0   3   4   0   2   5   0   3   6   1   4   6 
.................... */ 
.................... int8 Regular[12]={0,3,3,6,1,4,6,2,5,0,3,5}; 
.................... int8 Bisiesto[12]={0,3,4,0,2,5,0,3,6,1,4,6}; 
....................  
.................... //Alarmas//--------------------- 
.................... short AlarmaTiempoProlongado=OFF,AlarmaSobreTemperatura=OFF,AlarmaLlenado=OFF,AlarmaTermostato=OFF,AlarmaPuerta=OFF,AlarmaEmergencia=OFF,AlarmaCiclo=OFF; 
....................  
.................... //Banderas//-------------------- 
.................... short IniciaLlenado=OFF,CalderinLleno=OFF,IniciaCiclo=OFF,Esterilizando=OFF,Secando=OFF,SensadoNivel=OFF,Desfogando=OFF,DesfogueSuave=OFF,purgo=OFF,purgaAire2=OFF; 
.................... short EstadoDesfogue=OFF,EstadoAgua=OFF,EstadoSSR=OFF,PruebaEstados=OFF,Ciclo=OFF,flagCalentando=OFF,flagEsterilizando=OFF,EstadoAire=OFF; 
.................... short flagDesfogando=OFF,Op=OFF,Op2=OFF,Minutos=OFF,Segundos=OFF,GuardaEEPROM=OFF,EstadoPaso=OFF,EstadoBuzzer=OFF,flagAlarma=OFF,borra=OFF; 
.................... short flagBuzzer=OFF,flagSilencio=OFF,Finalizo=OFF,AlarmaPresion=OFF,Libre=OFF,purga=OFF,entro=OFF,Aire=OFF,disp_Guarda=OFF,guardaCiclo=OFF,flagBombaAgua=OFF,flagBombaAguaOff=OFF; 
....................  
.................... //Tiempos//--------------------- 
.................... int16 TiempoCiclo=0,TiempoLlenado=0,TiempoSensadoNivel=0,Tp=0,Tc=0,tguarda=0; 
.................... signed int  Testerilizacion[5]={0,0,0,0,0};   // Tiempo transcurrido 
.................... signed int  Testerilizacionp[5]={0,0,0,0,0};   // Tiempo transcurrido 
.................... signed int  Tsecado[4]={0,0,0,0};   // Tiempo transcurrido 
.................... signed int  Tsecadop[4]={0,0,0,0};   // Tiempo transcurrido 
....................  
.................... //Control//------------------------ 
.................... float promedio[80]={0.0,0.0,0.0,0.0,0.0,0.0,0.0,0.0,0.0,0.0,0.0,0.0,0.0,0.0,0.0,0.0,0.0,0.0,0.0,0.0,0.0,0.0,0.0,0.0,0.0,0.0,0.0,0.0,0.0,0.0,0.0,0.0,0.0,0.0,0.0,0.0,0.0,0.0,0.0,0.0,0.0,0.0,0.0,0.0,0.0,0.0,0.0,0.0,0.0,0.0,0.0,0.0,0.0,0.0,0.0,0.0,0.0,0.0,0.0,0.0,0.0,0.0,0.0,0.0}; 
.................... float PromPresion[20]={0.0,0.0,0.0,0.0,0.0,0.0,0.0,0.0,0.0,0.0,0.0,0.0,0.0,0.0,0.0,0.0,0.0,0.0,0.0,0.0}; 
.................... float PromPresionp[20]={0.0,0.0,0.0,0.0,0.0,0.0,0.0,0.0,0.0,0.0,0.0,0.0,0.0,0.0,0.0,0.0,0.0,0.0,0.0,0.0}; 
.................... float Gain=141.6,RPT100=0.5,Temporal=0.0; 
.................... float R1=100,R10=6800; 
.................... float X[2]={0.0,0.0}; 
.................... float Xx[2]={0.0,0.0}; 
.................... float promediopresion=0.0,Aumento=0.0,Aumento2=0.0,promediopresionp=0.0; 
.................... int8 h=0,l=0,Ajuste=0,Ajusten=0,MediaMovil=20,TTrampa=0,PantallaPrincipal=0,TipoClave=0,Modulo=0,Digito=0,yy=0,codigoAlarma=0,codigoAnt=0; 
.................... float V0=0.0,Pt,Tciclo=10.0,Tpulso=0.0,error=0.0,Prom=0.0,Temperature=0.0,tmp=0.0,Ganancia=25.0,Ganancia2=20.0,desvio=1.2,tmp2=0.0; 
.................... float V1=0.0,Presion=0.0,V2=0.0,Presionp=0.0; 
.................... float Temperatura=0.0,K=0.0012858; 
.................... float a=0.0011,b=2.3302,c=-244.0723; 
.................... int8 Integral=0,Derivativo=0,CicloLibre=0,pulsosPurga=0,pulsosPurgaProgramados=0; 
.................... float p1=0.0000011617,p2=-0.0010575,p3=0.44114,p4=65.043,Tactual=0.0; 
....................  
.................... //Varios//-------------------------------- 
.................... short desfoguelento=0,Lectura=0,Grafica=0; 
.................... short disp_Stop=0,flagTC=0,flagImprime=0,flagImprimir=0; 
.................... int8 Control=0,tiemporecta=0,Controlando=0,ActivaImpresion=1,timpresion=2,CalculoImpresion=0,Inicio=1,Dato_Exitoso=0,Dato2=0,z=0; 
.................... int8 Menu=0, MenuAnt=0,MenuAntt=240,CiclosL=0,CiclosH=0,CicloSeleccionado=0; 
.................... int8 Setpoint=0,Opcion=1,Opcion2=1,tiempo_esterilizacion=0,tiempo_secado=0,tiempoImpresion=0; 
.................... int16 tiempos=0,tiempos2=0,tiempos3=0,tiempoctrl=0,Nivel=0,tinicio=0,PresionCamara=0,PresionPreCamara=0,Ciclos=0,NivelSeleccionado=0,tBombaAgua=0,tBombaAguaOff=0,tPurgaAire=0,posicionDato=0; 
.................... signed int  Contrasena[4]={0,0,0,0};      // Contrasena de 4 digitos 
.................... signed int  Password[4]={0,0,0,0};        // Contrasena Almacenada de 4 digitos 
.................... int8 r=0,t=0,r22=0,t2=0,TiempoControl=0; 
.................... int8 y=0,ConteoBuzzer=0; 
.................... int16 t_exhaust=0,tbuzzer=0,tsilencio=0,tiempoAgua=0,tStop=0,tTermostato=0,cicloVisto=0,cicloVisualizado=0,i=0,j=0,tright=0; 
.................... int8 Year=18,Mes=9,Dia=13,Hora=0,Minuto=0,Segundo=0,dow=0; 
.................... int8 YearTx=0,MesTx=0,DiaTx=0,HoraTx=0,MinutoTx=0,SegundoTx=0,dowTx=0,SetTime=0,Imprime=0; 
.................... int8 Atmosferica=72; 
.................... signed int8 G1=0,G2=0,sg1=0,sg2=0; 
.................... int8 iconoGrande[9]={25,16,22,24,23,28,20,46,69}; 
.................... int8 iconoPeque[9]={34,36,18,33,32,38,19,17,68}; 
.................... char const texto[9][20]={"LIQUIDOS A","CAUCHO","INSTRUMENTAL","LIQUIDOS B","LIBRE","TEST","HORA Y FECHA","CLAVE","DATOS"}; 
.................... int8 diaCiclos=0,mesCiclos=0,yearCiclos=0,usuarioCiclos=0,cicloCiclos=0; 
....................  
.................... float TCiclos[7]; 
.................... int16 PcCiclos[7]; 
.................... int16 PpcCiclos[7]; 
.................... int8 horaCiclos[7]; 
.................... int8 minutoCiclos[7]; 
.................... int8 ACiclos[7]; 
....................  
.................... typedef struct{ 
....................    int8 Temperatura; 
....................    int8 MinutoestH; 
....................    int8 MinutoestL; 
....................    int8 Segundoest; 
....................    int8 Minutosec; 
....................    int8 Segundosec; 
....................    int8 PulsosVacio; 
....................    int8 NivelVacio; 
....................    int8 NivelDesfogue; 
....................    int8 Minutoest; 
.................... }Personalizado; 
....................  
.................... Personalizado CiclosPersonalizados[4]; 
....................  
.................... #include "Funciones.h" 
.................... float inttofloat(int8 decimal){ 
....................    float tmp; 
....................    tmp=decimal; 
058C4:  MOVLB  4
058C6:  CLRF   x60
058C8:  MOVFF  44E,45F
058CC:  MOVLB  0
058CE:  CALL   1A94
058D2:  MOVFF  03,452
058D6:  MOVFF  02,451
058DA:  MOVFF  01,450
058DE:  MOVFF  00,44F
....................    return tmp/10; 
058E2:  MOVFF  452,456
058E6:  MOVFF  451,455
058EA:  MOVFF  450,454
058EE:  MOVFF  44F,453
058F2:  MOVLB  4
058F4:  CLRF   x5A
058F6:  CLRF   x59
058F8:  MOVLW  20
058FA:  MOVWF  x58
058FC:  MOVLW  82
058FE:  MOVWF  x57
05900:  MOVLB  0
05902:  CALL   1ACA
.................... } 
05906:  GOTO   5CBE (RETURN)
....................  
.................... void BorraBuffer(void){ 
.................... RX_Buffer[0]=0; 
*
04AFA:  CLRF   30
.................... RX_Buffer[1]=0; 
04AFC:  CLRF   31
.................... RX_Buffer[2]=0; 
04AFE:  CLRF   32
.................... RX_Buffer[3]=0; 
04B00:  CLRF   33
.................... RX_Buffer[4]=0; 
04B02:  CLRF   34
.................... RX_Buffer[5]=0; 
04B04:  CLRF   35
.................... RX_Buffer[6]=0; 
04B06:  CLRF   36
.................... RX_Buffer[7]=0; 
04B08:  CLRF   37
.................... RX_Buffer[8]=0; 
04B0A:  CLRF   38
.................... RX_Buffer[9]=0; 
04B0C:  CLRF   39
....................  
.................... RX_Buffer2[0]=0; 
04B0E:  CLRF   3B
.................... RX_Buffer2[1]=0; 
04B10:  CLRF   3C
.................... RX_Buffer2[2]=0; 
04B12:  CLRF   3D
.................... RX_Buffer2[3]=0; 
04B14:  CLRF   3E
.................... RX_Buffer2[4]=0; 
04B16:  CLRF   3F
.................... RX_Buffer2[5]=0; 
04B18:  CLRF   40
.................... RX_Buffer2[6]=0; 
04B1A:  CLRF   41
.................... RX_Buffer2[7]=0; 
04B1C:  CLRF   42
.................... RX_Buffer2[8]=0; 
04B1E:  CLRF   43
.................... RX_Buffer2[9]=0; 
04B20:  CLRF   44
....................  
.................... } 
04B22:  GOTO   8FBE (RETURN)
....................  
.................... char bgetc(void){ 
....................    char c; 
....................    while(RX_Counter==0) 
....................       ; 
....................    c=Rx_Buffer2[RX_Rd_Index]; 
....................    if(++RX_Rd_Index>RX_BUFFER_SIZE) 
....................       RX_Rd_Index=0; 
....................    if(RX_Counter) 
....................       RX_Counter--; 
....................    return c; 
.................... } 
....................  
.................... void bputc(char c){ 
....................    char restart=0; 
....................    while(TX_Counter> (TX_BUFFER_SIZE-1)) 
....................       ; 
....................    if(TX_Counter==0) 
....................       restart=1; 
....................    TX_Buffer[TX_Wr_Index++]=c; 
....................    if(TX_Wr_Index>TX_BUFFER_SIZE) 
....................       TX_Wr_Index=0; 
....................     
....................    TX_Counter++; 
....................     
....................    if(restart==1) 
....................       enable_interrupts(int_tbe); 
.................... } 
....................  
.................... void SendDataDisplay(void){ 
.................... delay_us(10); 
*
03BE4:  MOVLW  10
03BE6:  MOVWF  00
03BE8:  DECFSZ 00,F
03BEA:  BRA    3BE8
03BEC:  NOP   
.................... putc(0xFF); 
03BEE:  MOVLW  FF
03BF0:  RCALL  3BDC
.................... delay_us(10); 
03BF2:  MOVLW  10
03BF4:  MOVWF  00
03BF6:  DECFSZ 00,F
03BF8:  BRA    3BF6
03BFA:  NOP   
.................... putc(0xFF); 
03BFC:  MOVLW  FF
03BFE:  RCALL  3BDC
.................... delay_us(10); 
03C00:  MOVLW  10
03C02:  MOVWF  00
03C04:  DECFSZ 00,F
03C06:  BRA    3C04
03C08:  NOP   
.................... putc(0xFF); 
03C0A:  MOVLW  FF
03C0C:  RCALL  3BDC
.................... delay_us(10); 
03C0E:  MOVLW  10
03C10:  MOVWF  00
03C12:  DECFSZ 00,F
03C14:  BRA    3C12
03C16:  NOP   
.................... } 
03C18:  RETLW  00
....................  
.................... short esBisiesto(int8 year) { 
....................      return ((year % 4 == 0 && year % 100 != 0) || year % 400 == 0); 
*
055A2:  MOVLB  4
055A4:  MOVF   x4A,W
055A6:  ANDLW  03
055A8:  BNZ   55BE
055AA:  MOVFF  44A,454
055AE:  MOVLW  64
055B0:  MOVWF  x55
055B2:  MOVLB  0
055B4:  CALL   4B58
055B8:  MOVF   00,F
055BA:  BNZ   55EC
055BC:  MOVLB  4
055BE:  CLRF   x64
055C0:  MOVFF  44A,463
055C4:  MOVLW  01
055C6:  MOVWF  x66
055C8:  MOVLW  90
055CA:  MOVWF  x65
055CC:  MOVLB  0
055CE:  RCALL  4E6A
055D0:  MOVFF  00,44B
055D4:  MOVLB  4
055D6:  MOVFF  03,44C
055DA:  MOVF   x4B,F
055DC:  BNZ   55E8
055DE:  MOVF   x4C,F
055E0:  BTFSS  FD8.2
055E2:  BRA    55E8
055E4:  MOVLB  0
055E6:  BRA    55EC
055E8:  MOVLW  00
055EA:  BRA    55F0
055EC:  MOVLW  01
055EE:  MOVLB  4
055F0:  MOVWF  01
.................... } 
055F2:  MOVLB  0
055F4:  RETLW  00
....................  
.................... void LimitaDia(){ 
....................    if(MesTx>12) 
*
056E4:  MOVLB  3
056E6:  MOVF   xB1,W
056E8:  SUBLW  0C
056EA:  BC    56F0
....................       MesTx=10; 
056EC:  MOVLW  0A
056EE:  MOVWF  xB1
....................    if(DiaTx>31) 
056F0:  MOVF   xB2,W
056F2:  SUBLW  1F
056F4:  BC    56FA
....................       DiaTx=16; 
056F6:  MOVLW  10
056F8:  MOVWF  xB2
....................    if(YearTx>99) 
056FA:  MOVF   xB0,W
056FC:  SUBLW  63
056FE:  BC    5704
....................       YearTx=18;    
05700:  MOVLW  12
05702:  MOVWF  xB0
....................    if(HoraTx>24) 
05704:  MOVF   xB3,W
05706:  SUBLW  18
05708:  BC    570E
....................       HoraTx=11;       
0570A:  MOVLW  0B
0570C:  MOVWF  xB3
....................    if(MinutoTx>59) 
0570E:  MOVF   xB4,W
05710:  SUBLW  3B
05712:  BC    5718
....................       MinutoTx=30;       
05714:  MOVLW  1E
05716:  MOVWF  xB4
....................     
....................       if(MesTx==2){ 
05718:  MOVF   xB1,W
0571A:  SUBLW  02
0571C:  BNZ   5748
....................          if(esBisiesto(YearTx)){ 
0571E:  MOVFF  3B0,44A
05722:  MOVLB  0
05724:  RCALL  55A2
05726:  MOVF   01,F
05728:  BZ    573A
....................             if(DiaTx>29){ 
0572A:  MOVLB  3
0572C:  MOVF   xB2,W
0572E:  SUBLW  1D
05730:  BC    5736
....................                DiaTx=29; 
05732:  MOVLW  1D
05734:  MOVWF  xB2
....................                //glcd_fillScreen(OFF); 
....................             } 
....................          }else{ 
05736:  BRA    5746
05738:  MOVLB  0
....................             if(DiaTx>28){ 
0573A:  MOVLB  3
0573C:  MOVF   xB2,W
0573E:  SUBLW  1C
05740:  BC    5746
....................                DiaTx=28; 
05742:  MOVLW  1C
05744:  MOVWF  xB2
....................                //glcd_fillScreen(OFF); 
....................             } 
....................          } 
....................       }else{ 
05746:  BRA    5772
....................          if(MesTx<=7){ 
05748:  MOVF   xB1,W
0574A:  SUBLW  07
0574C:  BNC   5760
....................             if(MesTx % 2 ==0){ 
0574E:  MOVF   xB1,W
05750:  ANDLW  01
05752:  BNZ   575E
....................                if(DiaTx>30){ 
05754:  MOVF   xB2,W
05756:  SUBLW  1E
05758:  BC    575E
....................                   DiaTx=30;  
0575A:  MOVLW  1E
0575C:  MOVWF  xB2
....................                   //glcd_fillScreen(OFF); 
....................                } 
....................             } 
....................          }else{ 
0575E:  BRA    5772
....................             if(MesTx % 2 ==1){ 
05760:  MOVF   xB1,W
05762:  ANDLW  01
05764:  SUBLW  01
05766:  BNZ   5772
....................                if(DiaTx>30){ 
05768:  MOVF   xB2,W
0576A:  SUBLW  1E
0576C:  BC    5772
....................                   DiaTx=30;  
0576E:  MOVLW  1E
05770:  MOVWF  xB2
....................                   //glcd_fillScreen(OFF); 
....................                } 
....................             } 
....................          } 
....................       } 
.................... } 
05772:  MOVLB  0
05774:  GOTO   BF12 (RETURN)
....................  
.................... void ActualizaRecta(){ 
....................    X[y]=Temperature; 
*
072EE:  MOVLB  3
072F0:  MOVF   x91,W
072F2:  MULLW  04
072F4:  MOVF   FF3,W
072F6:  CLRF   03
072F8:  ADDLW  B7
072FA:  MOVWF  FE9
072FC:  MOVLW  02
072FE:  ADDWFC 03,W
07300:  MOVWF  FEA
07302:  MOVFF  2FC,FEF
07306:  MOVFF  2FD,FEC
0730A:  MOVFF  2FE,FEC
0730E:  MOVFF  2FF,FEC
....................    y++; 
07312:  INCF   x91,F
....................    if(y>=2) 
07314:  MOVF   x91,W
07316:  SUBLW  01
07318:  BC    7356
....................    { 
....................       y=0; 
0731A:  CLRF   x91
....................       Aumento=X[1]-X[0]; 
0731C:  BSF    FD8.1
0731E:  MOVFF  2BE,462
07322:  MOVFF  2BD,461
07326:  MOVFF  2BC,460
0732A:  MOVFF  2BB,45F
0732E:  MOVFF  2BA,466
07332:  MOVFF  2B9,465
07336:  MOVFF  2B8,464
0733A:  MOVFF  2B7,463
0733E:  MOVLB  0
07340:  CALL   1C28
07344:  MOVFF  03,2CE
07348:  MOVFF  02,2CD
0734C:  MOVFF  01,2CC
07350:  MOVFF  00,2CB
07354:  MOVLB  3
....................    } 
.................... } 
07356:  MOVLB  0
07358:  GOTO   73D4 (RETURN)
....................  
.................... void ActualizaRectaPresion(){ 
....................    Xx[yy]=Tactual; 
*
07998:  MOVLB  2
0799A:  MOVF   xE1,W
0799C:  MULLW  04
0799E:  MOVF   FF3,W
079A0:  CLRF   03
079A2:  ADDLW  BF
079A4:  MOVWF  FE9
079A6:  MOVLW  02
079A8:  ADDWFC 03,W
079AA:  MOVWF  FEA
079AC:  MOVFF  34D,FEF
079B0:  MOVFF  34E,FEC
079B4:  MOVFF  34F,FEC
079B8:  MOVFF  350,FEC
....................    yy++; 
079BC:  INCF   xE1,F
....................    if(yy>=2){ 
079BE:  MOVF   xE1,W
079C0:  SUBLW  01
079C2:  BC    7A00
....................       yy=0; 
079C4:  CLRF   xE1
....................       Aumento2=Xx[1]-Xx[0]; 
079C6:  BSF    FD8.1
079C8:  MOVFF  2C6,462
079CC:  MOVFF  2C5,461
079D0:  MOVFF  2C4,460
079D4:  MOVFF  2C3,45F
079D8:  MOVFF  2C2,466
079DC:  MOVFF  2C1,465
079E0:  MOVFF  2C0,464
079E4:  MOVFF  2BF,463
079E8:  MOVLB  0
079EA:  CALL   1C28
079EE:  MOVFF  03,2D2
079F2:  MOVFF  02,2D1
079F6:  MOVFF  01,2D0
079FA:  MOVFF  00,2CF
079FE:  MOVLB  2
....................    } 
.................... } 
07A00:  MOVLB  0
07A02:  GOTO   7A86 (RETURN)
....................  
.................... // Funcion para conversor analogo-digital 
.................... float sensores(int x){ 
.................... float y;set_adc_channel(x);delay_ms(1);y=read_adc();return (y); 
*
03C38:  MOVLB  4
03C3A:  RLCF   x53,W
03C3C:  MOVWF  00
03C3E:  RLCF   00,F
03C40:  MOVLW  FC
03C42:  ANDWF  00,F
03C44:  MOVFF  00,01
03C48:  MOVF   FC2,W
03C4A:  ANDLW  C3
03C4C:  IORWF  00,W
03C4E:  MOVWF  FC2
03C50:  MOVLW  01
03C52:  MOVWF  x63
03C54:  MOVLB  0
03C56:  CALL   1A6C
03C5A:  BSF    FC2.1
03C5C:  BTFSC  FC2.1
03C5E:  BRA    3C5C
03C60:  MOVFF  FC4,460
03C64:  MOVFF  FC3,45F
03C68:  MOVLB  0
03C6A:  CALL   1A94
03C6E:  MOVFF  03,457
03C72:  MOVFF  02,456
03C76:  MOVFF  01,455
03C7A:  MOVFF  00,454
03C7E:  MOVFF  454,00
03C82:  MOVFF  455,01
03C86:  MOVFF  456,02
03C8A:  MOVFF  457,03
.................... } 
03C8E:  RETLW  00
.................... float LeerPT100(int media) 
.................... { 
*
03D86:  MOVLB  4
03D88:  CLRF   x4E
03D8A:  CLRF   x4D
03D8C:  CLRF   x4C
03D8E:  CLRF   x4B
03D90:  CLRF   x52
03D92:  CLRF   x51
03D94:  CLRF   x50
03D96:  CLRF   x4F
....................    float ajp=0.0,ajn=0.0; 
....................    Prom=0.0; 
03D98:  MOVLB  2
03D9A:  CLRF   xFB
03D9C:  CLRF   xFA
03D9E:  CLRF   xF9
03DA0:  CLRF   xF8
....................    V0 = sensores(0);   //Lectura de Divisor de Voltaje de PT100 con resistencia de 6.18k (+-2%) 
03DA2:  MOVLB  4
03DA4:  CLRF   x53
03DA6:  MOVLB  0
03DA8:  RCALL  3C38
03DAA:  MOVFF  03,2E7
03DAE:  MOVFF  02,2E6
03DB2:  MOVFF  01,2E5
03DB6:  MOVFF  00,2E4
....................    V0 = V0/105.56; // Se elimina la ganancia 
03DBA:  MOVFF  2E7,456
03DBE:  MOVFF  2E6,455
03DC2:  MOVFF  2E5,454
03DC6:  MOVFF  2E4,453
03DCA:  MOVLW  B8
03DCC:  MOVLB  4
03DCE:  MOVWF  x5A
03DD0:  MOVLW  1E
03DD2:  MOVWF  x59
03DD4:  MOVLW  53
03DD6:  MOVWF  x58
03DD8:  MOVLW  85
03DDA:  MOVWF  x57
03DDC:  MOVLB  0
03DDE:  CALL   1ACA
03DE2:  MOVFF  03,2E7
03DE6:  MOVFF  02,2E6
03DEA:  MOVFF  01,2E5
03DEE:  MOVFF  00,2E4
....................    //V0 += 14.82; 
....................    V0 += 14.79;//5.039V 72.5mV 
03DF2:  BCF    FD8.1
03DF4:  MOVFF  2E7,462
03DF8:  MOVFF  2E6,461
03DFC:  MOVFF  2E5,460
03E00:  MOVFF  2E4,45F
03E04:  MOVLW  D7
03E06:  MOVLB  4
03E08:  MOVWF  x66
03E0A:  MOVLW  A3
03E0C:  MOVWF  x65
03E0E:  MOVLW  6C
03E10:  MOVWF  x64
03E12:  MOVLW  82
03E14:  MOVWF  x63
03E16:  MOVLB  0
03E18:  CALL   1C28
03E1C:  MOVFF  03,2E7
03E20:  MOVFF  02,2E6
03E24:  MOVFF  01,2E5
03E28:  MOVFF  00,2E4
....................    Pt=R10/((1023/V0)-1); 
03E2C:  MOVLB  4
03E2E:  CLRF   x56
03E30:  MOVLW  C0
03E32:  MOVWF  x55
03E34:  MOVLW  7F
03E36:  MOVWF  x54
03E38:  MOVLW  88
03E3A:  MOVWF  x53
03E3C:  MOVFF  2E7,45A
03E40:  MOVFF  2E6,459
03E44:  MOVFF  2E5,458
03E48:  MOVFF  2E4,457
03E4C:  MOVLB  0
03E4E:  CALL   1ACA
03E52:  MOVFF  00,453
03E56:  MOVFF  01,454
03E5A:  MOVFF  02,455
03E5E:  MOVFF  03,456
03E62:  BSF    FD8.1
03E64:  MOVFF  03,462
03E68:  MOVFF  02,461
03E6C:  MOVFF  01,460
03E70:  MOVFF  00,45F
03E74:  MOVLB  4
03E76:  CLRF   x66
03E78:  CLRF   x65
03E7A:  CLRF   x64
03E7C:  MOVLW  7F
03E7E:  MOVWF  x63
03E80:  MOVLB  0
03E82:  CALL   1C28
03E86:  MOVFF  2B6,456
03E8A:  MOVFF  2B5,455
03E8E:  MOVFF  2B4,454
03E92:  MOVFF  2B3,453
03E96:  MOVFF  03,45A
03E9A:  MOVFF  02,459
03E9E:  MOVFF  01,458
03EA2:  MOVFF  00,457
03EA6:  CALL   1ACA
03EAA:  MOVFF  03,2EB
03EAE:  MOVFF  02,2EA
03EB2:  MOVFF  01,2E9
03EB6:  MOVFF  00,2E8
....................              
....................    if(l>(media-1)) 
03EBA:  MOVLW  01
03EBC:  MOVLB  4
03EBE:  SUBWF  x4A,W
03EC0:  MOVLB  2
03EC2:  SUBWF  xD8,W
03EC4:  BZ    3ECA
03EC6:  BNC   3ECA
....................    {l=0;} 
03EC8:  CLRF   xD8
....................    //promedio[l]=Temperature;l++; 
....................    promedio[l]=Pt;l++; 
03ECA:  MOVLB  4
03ECC:  CLRF   x66
03ECE:  MOVFF  2D8,465
03ED2:  CLRF   x68
03ED4:  MOVLW  04
03ED6:  MOVWF  x67
03ED8:  MOVLB  0
03EDA:  CALL   1EA0
03EDE:  MOVF   01,W
03EE0:  ADDLW  C3
03EE2:  MOVWF  FE9
03EE4:  MOVLW  00
03EE6:  ADDWFC 02,W
03EE8:  MOVWF  FEA
03EEA:  MOVFF  2E8,FEF
03EEE:  MOVFF  2E9,FEC
03EF2:  MOVFF  2EA,FEC
03EF6:  MOVFF  2EB,FEC
03EFA:  MOVLB  2
03EFC:  INCF   xD8,F
....................           
....................    for(h=0;h<media;h++) 
03EFE:  CLRF   xD7
03F00:  MOVLB  4
03F02:  MOVF   x4A,W
03F04:  MOVLB  2
03F06:  SUBWF  xD7,W
03F08:  BC    3F8A
....................    { 
....................       Prom+=promedio[h]; 
03F0A:  MOVLB  4
03F0C:  CLRF   x66
03F0E:  MOVFF  2D7,465
03F12:  CLRF   x68
03F14:  MOVLW  04
03F16:  MOVWF  x67
03F18:  MOVLB  0
03F1A:  CALL   1EA0
03F1E:  MOVFF  02,03
03F22:  MOVF   01,W
03F24:  ADDLW  C3
03F26:  MOVWF  FE9
03F28:  MOVLW  00
03F2A:  ADDWFC 02,W
03F2C:  MOVWF  FEA
03F2E:  MOVFF  FEF,00
03F32:  MOVFF  FEC,01
03F36:  MOVFF  FEC,02
03F3A:  MOVFF  FEC,03
03F3E:  MOVFF  FEA,454
03F42:  MOVFF  FE9,453
03F46:  BCF    FD8.1
03F48:  MOVFF  2FB,462
03F4C:  MOVFF  2FA,461
03F50:  MOVFF  2F9,460
03F54:  MOVFF  2F8,45F
03F58:  MOVFF  03,466
03F5C:  MOVFF  02,465
03F60:  MOVFF  01,464
03F64:  MOVFF  00,463
03F68:  CALL   1C28
03F6C:  MOVFF  454,FEA
03F70:  MOVFF  453,FE9
03F74:  MOVFF  03,2FB
03F78:  MOVFF  02,2FA
03F7C:  MOVFF  01,2F9
03F80:  MOVFF  00,2F8
....................    }  
03F84:  MOVLB  2
03F86:  INCF   xD7,F
03F88:  BRA    3F00
....................    Prom=Prom/media;    
03F8A:  MOVLB  4
03F8C:  CLRF   x60
03F8E:  MOVFF  44A,45F
03F92:  MOVLB  0
03F94:  CALL   1A94
03F98:  MOVFF  2FB,456
03F9C:  MOVFF  2FA,455
03FA0:  MOVFF  2F9,454
03FA4:  MOVFF  2F8,453
03FA8:  MOVFF  03,45A
03FAC:  MOVFF  02,459
03FB0:  MOVFF  01,458
03FB4:  MOVFF  00,457
03FB8:  CALL   1ACA
03FBC:  MOVFF  03,2FB
03FC0:  MOVFF  02,2FA
03FC4:  MOVFF  01,2F9
03FC8:  MOVFF  00,2F8
....................    //Temperature=(Prom-100.0)/(0.385);  // Ecuacin determinada por linealizacin en Matlab. Revisar este polinomio.   
....................    Temperature=((Prom*Prom)*a)+(Prom*b)+c;  // Ecuacin determinada por linealizacin en Matlab. Revisar este polinomio. 
03FCC:  MOVFF  2FB,466
03FD0:  MOVFF  2FA,465
03FD4:  MOVFF  2F9,464
03FD8:  MOVFF  2F8,463
03FDC:  MOVFF  2FB,46A
03FE0:  MOVFF  2FA,469
03FE4:  MOVFF  2F9,468
03FE8:  MOVFF  2F8,467
03FEC:  RCALL  3C90
03FEE:  MOVFF  00,453
03FF2:  MOVFF  01,454
03FF6:  MOVFF  02,455
03FFA:  MOVFF  03,456
03FFE:  MOVFF  03,466
04002:  MOVFF  02,465
04006:  MOVFF  01,464
0400A:  MOVFF  00,463
0400E:  MOVFF  32F,46A
04012:  MOVFF  32E,469
04016:  MOVFF  32D,468
0401A:  MOVFF  32C,467
0401E:  RCALL  3C90
04020:  MOVFF  00,453
04024:  MOVFF  01,454
04028:  MOVFF  02,455
0402C:  MOVFF  03,456
04030:  MOVFF  2FB,466
04034:  MOVFF  2FA,465
04038:  MOVFF  2F9,464
0403C:  MOVFF  2F8,463
04040:  MOVFF  333,46A
04044:  MOVFF  332,469
04048:  MOVFF  331,468
0404C:  MOVFF  330,467
04050:  RCALL  3C90
04052:  BCF    FD8.1
04054:  MOVFF  456,462
04058:  MOVFF  455,461
0405C:  MOVFF  454,460
04060:  MOVFF  453,45F
04064:  MOVFF  03,466
04068:  MOVFF  02,465
0406C:  MOVFF  01,464
04070:  MOVFF  00,463
04074:  CALL   1C28
04078:  MOVFF  00,453
0407C:  MOVFF  01,454
04080:  MOVFF  02,455
04084:  MOVFF  03,456
04088:  BCF    FD8.1
0408A:  MOVFF  03,462
0408E:  MOVFF  02,461
04092:  MOVFF  01,460
04096:  MOVFF  00,45F
0409A:  MOVFF  337,466
0409E:  MOVFF  336,465
040A2:  MOVFF  335,464
040A6:  MOVFF  334,463
040AA:  CALL   1C28
040AE:  MOVFF  03,2FF
040B2:  MOVFF  02,2FE
040B6:  MOVFF  01,2FD
040BA:  MOVFF  00,2FC
....................    ajp=(float)Ajuste; 
040BE:  MOVLB  4
040C0:  CLRF   x60
040C2:  MOVFF  2D9,45F
040C6:  MOVLB  0
040C8:  CALL   1A94
040CC:  MOVFF  03,44E
040D0:  MOVFF  02,44D
040D4:  MOVFF  01,44C
040D8:  MOVFF  00,44B
....................    ajp=ajp/10; 
040DC:  MOVFF  44E,456
040E0:  MOVFF  44D,455
040E4:  MOVFF  44C,454
040E8:  MOVFF  44B,453
040EC:  MOVLB  4
040EE:  CLRF   x5A
040F0:  CLRF   x59
040F2:  MOVLW  20
040F4:  MOVWF  x58
040F6:  MOVLW  82
040F8:  MOVWF  x57
040FA:  MOVLB  0
040FC:  CALL   1ACA
04100:  MOVFF  03,44E
04104:  MOVFF  02,44D
04108:  MOVFF  01,44C
0410C:  MOVFF  00,44B
....................    ajn=(float)Ajusten; 
04110:  MOVLB  4
04112:  CLRF   x60
04114:  MOVFF  2DA,45F
04118:  MOVLB  0
0411A:  CALL   1A94
0411E:  MOVFF  03,452
04122:  MOVFF  02,451
04126:  MOVFF  01,450
0412A:  MOVFF  00,44F
....................    ajn=ajn/10; 
0412E:  MOVFF  452,456
04132:  MOVFF  451,455
04136:  MOVFF  450,454
0413A:  MOVFF  44F,453
0413E:  MOVLB  4
04140:  CLRF   x5A
04142:  CLRF   x59
04144:  MOVLW  20
04146:  MOVWF  x58
04148:  MOVLW  82
0414A:  MOVWF  x57
0414C:  MOVLB  0
0414E:  CALL   1ACA
04152:  MOVFF  03,452
04156:  MOVFF  02,451
0415A:  MOVFF  01,450
0415E:  MOVFF  00,44F
....................    Temperature+=(ajp-ajn); 
04162:  BSF    FD8.1
04164:  MOVFF  44E,462
04168:  MOVFF  44D,461
0416C:  MOVFF  44C,460
04170:  MOVFF  44B,45F
04174:  MOVFF  452,466
04178:  MOVFF  451,465
0417C:  MOVFF  450,464
04180:  MOVFF  44F,463
04184:  CALL   1C28
04188:  BCF    FD8.1
0418A:  MOVFF  2FF,462
0418E:  MOVFF  2FE,461
04192:  MOVFF  2FD,460
04196:  MOVFF  2FC,45F
0419A:  MOVFF  03,466
0419E:  MOVFF  02,465
041A2:  MOVFF  01,464
041A6:  MOVFF  00,463
041AA:  CALL   1C28
041AE:  MOVFF  03,2FF
041B2:  MOVFF  02,2FE
041B6:  MOVFF  01,2FD
041BA:  MOVFF  00,2FC
....................    //Temperature-=39.0; 
....................     
....................    //return Prom; 
....................    return Temperature; 
041BE:  MOVFF  2FC,00
041C2:  MOVFF  2FD,01
041C6:  MOVFF  2FE,02
041CA:  MOVFF  2FF,03
.................... } 
041CE:  RETLW  00
....................  
.................... float Leer_Sensor_Presion_Camara(int media){ 
....................    promediopresion=0.0; 
041D0:  MOVLB  2
041D2:  CLRF   xCA
041D4:  CLRF   xC9
041D6:  CLRF   xC8
041D8:  CLRF   xC7
....................    V1 = sensores(2);   //Lectura de Divisor de Voltaje de PT100 con resistencia de 1k (+-10%) 
041DA:  MOVLW  02
041DC:  MOVLB  4
041DE:  MOVWF  x53
041E0:  MOVLB  0
041E2:  RCALL  3C38
041E4:  MOVFF  03,317
041E8:  MOVFF  02,316
041EC:  MOVFF  01,315
041F0:  MOVFF  00,314
....................    //V1 = V1*(5.0/1024.0); 
....................    //Presion=(V1-0.2)/(K); 
....................    Presion=(((V1)/1023)-0.04)/K; 
041F4:  MOVFF  317,456
041F8:  MOVFF  316,455
041FC:  MOVFF  315,454
04200:  MOVFF  314,453
04204:  MOVLB  4
04206:  CLRF   x5A
04208:  MOVLW  C0
0420A:  MOVWF  x59
0420C:  MOVLW  7F
0420E:  MOVWF  x58
04210:  MOVLW  88
04212:  MOVWF  x57
04214:  MOVLB  0
04216:  CALL   1ACA
0421A:  MOVFF  00,44B
0421E:  MOVFF  01,44C
04222:  MOVFF  02,44D
04226:  MOVFF  03,44E
0422A:  BSF    FD8.1
0422C:  MOVFF  03,462
04230:  MOVFF  02,461
04234:  MOVFF  01,460
04238:  MOVFF  00,45F
0423C:  MOVLW  0A
0423E:  MOVLB  4
04240:  MOVWF  x66
04242:  MOVLW  D7
04244:  MOVWF  x65
04246:  MOVLW  23
04248:  MOVWF  x64
0424A:  MOVLW  7A
0424C:  MOVWF  x63
0424E:  MOVLB  0
04250:  CALL   1C28
04254:  MOVFF  00,44B
04258:  MOVFF  01,44C
0425C:  MOVFF  02,44D
04260:  MOVFF  03,44E
04264:  MOVFF  03,456
04268:  MOVFF  02,455
0426C:  MOVFF  01,454
04270:  MOVFF  00,453
04274:  MOVFF  32B,45A
04278:  MOVFF  32A,459
0427C:  MOVFF  329,458
04280:  MOVFF  328,457
04284:  CALL   1ACA
04288:  MOVFF  03,31B
0428C:  MOVFF  02,31A
04290:  MOVFF  01,319
04294:  MOVFF  00,318
....................     
....................    if(Presion<0.0) 
04298:  MOVFF  31B,455
0429C:  MOVFF  31A,454
042A0:  MOVFF  319,453
042A4:  MOVFF  318,452
042A8:  MOVLB  4
042AA:  CLRF   x59
042AC:  CLRF   x58
042AE:  CLRF   x57
042B0:  CLRF   x56
042B2:  MOVLB  0
042B4:  CALL   3032
042B8:  BNC   42C4
....................    { 
....................       Presion=0.0; 
042BA:  MOVLB  3
042BC:  CLRF   x1B
042BE:  CLRF   x1A
042C0:  CLRF   x19
042C2:  CLRF   x18
....................    } 
....................     
....................    if(r>media-1) 
042C4:  MOVLW  01
042C6:  MOVLB  4
042C8:  SUBWF  x4A,W
042CA:  MOVLB  3
042CC:  SUBWF  x8C,W
042CE:  BZ    42D4
042D0:  BNC   42D4
....................    {r=0;} 
042D2:  CLRF   x8C
....................    PromPresion[r]=Presion;r++; 
042D4:  MOVF   x8C,W
042D6:  MULLW  04
042D8:  MOVF   FF3,W
042DA:  CLRF   03
042DC:  ADDLW  03
042DE:  MOVWF  FE9
042E0:  MOVLW  02
042E2:  ADDWFC 03,W
042E4:  MOVWF  FEA
042E6:  MOVFF  318,FEF
042EA:  MOVFF  319,FEC
042EE:  MOVFF  31A,FEC
042F2:  MOVFF  31B,FEC
042F6:  INCF   x8C,F
....................           
....................    for(t=0;t<=(media-1);t++) 
042F8:  CLRF   x8D
042FA:  MOVLW  01
042FC:  MOVLB  4
042FE:  SUBWF  x4A,W
04300:  MOVLB  3
04302:  SUBWF  x8D,W
04304:  BZ    4308
04306:  BC    4378
....................    { 
....................       promediopresion+=PromPresion[t]; 
04308:  MOVF   x8D,W
0430A:  MULLW  04
0430C:  MOVF   FF3,W
0430E:  CLRF   03
04310:  ADDLW  03
04312:  MOVWF  FE9
04314:  MOVLW  02
04316:  ADDWFC 03,W
04318:  MOVWF  FEA
0431A:  MOVFF  FEF,00
0431E:  MOVFF  FEC,01
04322:  MOVFF  FEC,02
04326:  MOVFF  FEC,03
0432A:  MOVFF  FEA,44C
0432E:  MOVFF  FE9,44B
04332:  BCF    FD8.1
04334:  MOVFF  2CA,462
04338:  MOVFF  2C9,461
0433C:  MOVFF  2C8,460
04340:  MOVFF  2C7,45F
04344:  MOVFF  03,466
04348:  MOVFF  02,465
0434C:  MOVFF  01,464
04350:  MOVFF  00,463
04354:  MOVLB  0
04356:  CALL   1C28
0435A:  MOVFF  44C,FEA
0435E:  MOVFF  44B,FE9
04362:  MOVFF  03,2CA
04366:  MOVFF  02,2C9
0436A:  MOVFF  01,2C8
0436E:  MOVFF  00,2C7
....................    }  
04372:  MOVLB  3
04374:  INCF   x8D,F
04376:  BRA    42FA
....................    promediopresion=promediopresion/media;    
04378:  MOVLB  4
0437A:  CLRF   x60
0437C:  MOVFF  44A,45F
04380:  MOVLB  0
04382:  CALL   1A94
04386:  MOVFF  2CA,456
0438A:  MOVFF  2C9,455
0438E:  MOVFF  2C8,454
04392:  MOVFF  2C7,453
04396:  MOVFF  03,45A
0439A:  MOVFF  02,459
0439E:  MOVFF  01,458
043A2:  MOVFF  00,457
043A6:  CALL   1ACA
043AA:  MOVFF  03,2CA
043AE:  MOVFF  02,2C9
043B2:  MOVFF  01,2C8
043B6:  MOVFF  00,2C7
....................     
....................    return promediopresion; 
043BA:  MOVFF  2C7,00
043BE:  MOVFF  2C8,01
043C2:  MOVFF  2C9,02
043C6:  MOVFF  2CA,03
.................... } 
043CA:  RETLW  00
....................  
.................... float Leer_Sensor_Presion_PreCamara(int media){ 
....................    promediopresionp=0.0; 
*
04408:  MOVLB  2
0440A:  CLRF   xD6
0440C:  CLRF   xD5
0440E:  CLRF   xD4
04410:  CLRF   xD3
....................    V2 = sensores(3);   //Lectura de Divisor de Voltaje de PT100 con resistencia de 1k (+-10%) 
04412:  MOVLW  03
04414:  MOVLB  4
04416:  MOVWF  x53
04418:  MOVLB  0
0441A:  RCALL  3C38
0441C:  MOVFF  03,31F
04420:  MOVFF  02,31E
04424:  MOVFF  01,31D
04428:  MOVFF  00,31C
....................    //V2 = V2*(5.0/1024.0); 
....................    //Presionp=(V2-0.2)/(K); 
....................    Presionp=(((V2)/1023)-0.04)/K; 
0442C:  MOVFF  31F,456
04430:  MOVFF  31E,455
04434:  MOVFF  31D,454
04438:  MOVFF  31C,453
0443C:  MOVLB  4
0443E:  CLRF   x5A
04440:  MOVLW  C0
04442:  MOVWF  x59
04444:  MOVLW  7F
04446:  MOVWF  x58
04448:  MOVLW  88
0444A:  MOVWF  x57
0444C:  MOVLB  0
0444E:  CALL   1ACA
04452:  MOVFF  00,44B
04456:  MOVFF  01,44C
0445A:  MOVFF  02,44D
0445E:  MOVFF  03,44E
04462:  BSF    FD8.1
04464:  MOVFF  03,462
04468:  MOVFF  02,461
0446C:  MOVFF  01,460
04470:  MOVFF  00,45F
04474:  MOVLW  0A
04476:  MOVLB  4
04478:  MOVWF  x66
0447A:  MOVLW  D7
0447C:  MOVWF  x65
0447E:  MOVLW  23
04480:  MOVWF  x64
04482:  MOVLW  7A
04484:  MOVWF  x63
04486:  MOVLB  0
04488:  CALL   1C28
0448C:  MOVFF  00,44B
04490:  MOVFF  01,44C
04494:  MOVFF  02,44D
04498:  MOVFF  03,44E
0449C:  MOVFF  03,456
044A0:  MOVFF  02,455
044A4:  MOVFF  01,454
044A8:  MOVFF  00,453
044AC:  MOVFF  32B,45A
044B0:  MOVFF  32A,459
044B4:  MOVFF  329,458
044B8:  MOVFF  328,457
044BC:  CALL   1ACA
044C0:  MOVFF  03,323
044C4:  MOVFF  02,322
044C8:  MOVFF  01,321
044CC:  MOVFF  00,320
....................     
....................    if(Presionp<0.0) 
044D0:  MOVFF  323,455
044D4:  MOVFF  322,454
044D8:  MOVFF  321,453
044DC:  MOVFF  320,452
044E0:  MOVLB  4
044E2:  CLRF   x59
044E4:  CLRF   x58
044E6:  CLRF   x57
044E8:  CLRF   x56
044EA:  MOVLB  0
044EC:  CALL   3032
044F0:  BNC   44FC
....................    { 
....................       Presionp=0.0; 
044F2:  MOVLB  3
044F4:  CLRF   x23
044F6:  CLRF   x22
044F8:  CLRF   x21
044FA:  CLRF   x20
....................    } 
....................     
....................    if(r22>media-1) 
044FC:  MOVLW  01
044FE:  MOVLB  4
04500:  SUBWF  x4A,W
04502:  MOVLB  3
04504:  SUBWF  x8E,W
04506:  BZ    450C
04508:  BNC   450C
....................    {r22=0;} 
0450A:  CLRF   x8E
....................    PromPresionp[r22]=Presionp;r22++; 
0450C:  MOVF   x8E,W
0450E:  MULLW  04
04510:  MOVF   FF3,W
04512:  CLRF   03
04514:  ADDLW  53
04516:  MOVWF  FE9
04518:  MOVLW  02
0451A:  ADDWFC 03,W
0451C:  MOVWF  FEA
0451E:  MOVFF  320,FEF
04522:  MOVFF  321,FEC
04526:  MOVFF  322,FEC
0452A:  MOVFF  323,FEC
0452E:  INCF   x8E,F
....................           
....................    for(t2=0;t2<=(media-1);t2++) 
04530:  CLRF   x8F
04532:  MOVLW  01
04534:  MOVLB  4
04536:  SUBWF  x4A,W
04538:  MOVLB  3
0453A:  SUBWF  x8F,W
0453C:  BZ    4540
0453E:  BC    45B0
....................    { 
....................       promediopresionp+=PromPresionp[t2]; 
04540:  MOVF   x8F,W
04542:  MULLW  04
04544:  MOVF   FF3,W
04546:  CLRF   03
04548:  ADDLW  53
0454A:  MOVWF  FE9
0454C:  MOVLW  02
0454E:  ADDWFC 03,W
04550:  MOVWF  FEA
04552:  MOVFF  FEF,00
04556:  MOVFF  FEC,01
0455A:  MOVFF  FEC,02
0455E:  MOVFF  FEC,03
04562:  MOVFF  FEA,44C
04566:  MOVFF  FE9,44B
0456A:  BCF    FD8.1
0456C:  MOVFF  2D6,462
04570:  MOVFF  2D5,461
04574:  MOVFF  2D4,460
04578:  MOVFF  2D3,45F
0457C:  MOVFF  03,466
04580:  MOVFF  02,465
04584:  MOVFF  01,464
04588:  MOVFF  00,463
0458C:  MOVLB  0
0458E:  CALL   1C28
04592:  MOVFF  44C,FEA
04596:  MOVFF  44B,FE9
0459A:  MOVFF  03,2D6
0459E:  MOVFF  02,2D5
045A2:  MOVFF  01,2D4
045A6:  MOVFF  00,2D3
....................    }  
045AA:  MOVLB  3
045AC:  INCF   x8F,F
045AE:  BRA    4532
....................    promediopresionp=promediopresionp/media;    
045B0:  MOVLB  4
045B2:  CLRF   x60
045B4:  MOVFF  44A,45F
045B8:  MOVLB  0
045BA:  CALL   1A94
045BE:  MOVFF  2D6,456
045C2:  MOVFF  2D5,455
045C6:  MOVFF  2D4,454
045CA:  MOVFF  2D3,453
045CE:  MOVFF  03,45A
045D2:  MOVFF  02,459
045D6:  MOVFF  01,458
045DA:  MOVFF  00,457
045DE:  CALL   1ACA
045E2:  MOVFF  03,2D6
045E6:  MOVFF  02,2D5
045EA:  MOVFF  01,2D4
045EE:  MOVFF  00,2D3
....................     
....................    return promediopresionp; 
045F2:  MOVFF  2D3,00
045F6:  MOVFF  2D4,01
045FA:  MOVFF  2D5,02
045FE:  MOVFF  2D6,03
.................... } 
04602:  RETLW  00
....................  
.................... void Controla(){ 
....................    if(tiemporecta>=Derivativo/2.0) 
*
0735C:  MOVLB  4
0735E:  CLRF   x60
07360:  MOVFF  339,45F
07364:  MOVLB  0
07366:  CALL   1A94
0736A:  MOVFF  03,456
0736E:  MOVFF  02,455
07372:  MOVFF  01,454
07376:  MOVFF  00,453
0737A:  MOVLB  4
0737C:  CLRF   x5A
0737E:  CLRF   x59
07380:  CLRF   x58
07382:  MOVLW  80
07384:  MOVWF  x57
07386:  MOVLB  0
07388:  CALL   1ACA
0738C:  MOVFF  00,44A
07390:  MOVFF  01,44B
07394:  MOVFF  02,44C
07398:  MOVFF  03,44D
0739C:  MOVLB  4
0739E:  CLRF   x60
073A0:  MOVFF  353,45F
073A4:  MOVLB  0
073A6:  CALL   1A94
073AA:  MOVFF  44D,455
073AE:  MOVFF  44C,454
073B2:  MOVFF  44B,453
073B6:  MOVFF  44A,452
073BA:  MOVFF  03,459
073BE:  MOVFF  02,458
073C2:  MOVFF  01,457
073C6:  MOVFF  00,456
073CA:  CALL   3032
073CE:  BC    73D2
073D0:  BNZ   73D8
....................    { 
....................       ActualizaRecta(); 
073D2:  BRA    72EE
....................       tiemporecta=0; 
073D4:  MOVLB  3
073D6:  CLRF   x53
....................    }  
.................... //-------------------------------Control de Calentamiento------------------------------------------------------------//          
....................    error=desvio+Setpoint-Temperatura;      // Clculo del error ****** 
073D8:  MOVLB  4
073DA:  CLRF   x60
073DC:  MOVFF  362,45F
073E0:  MOVLB  0
073E2:  CALL   1A94
073E6:  BCF    FD8.1
073E8:  MOVFF  30F,462
073EC:  MOVFF  30E,461
073F0:  MOVFF  30D,460
073F4:  MOVFF  30C,45F
073F8:  MOVFF  03,466
073FC:  MOVFF  02,465
07400:  MOVFF  01,464
07404:  MOVFF  00,463
07408:  CALL   1C28
0740C:  MOVFF  00,44A
07410:  MOVFF  01,44B
07414:  MOVFF  02,44C
07418:  MOVFF  03,44D
0741C:  BSF    FD8.1
0741E:  MOVFF  03,462
07422:  MOVFF  02,461
07426:  MOVFF  01,460
0742A:  MOVFF  00,45F
0742E:  MOVFF  327,466
07432:  MOVFF  326,465
07436:  MOVFF  325,464
0743A:  MOVFF  324,463
0743E:  CALL   1C28
07442:  MOVFF  03,2F7
07446:  MOVFF  02,2F6
0744A:  MOVFF  01,2F5
0744E:  MOVFF  00,2F4
....................     
....................    if(error>1.0 && error<15 && Aumento<0.3){ 
07452:  MOVLB  4
07454:  CLRF   x55
07456:  CLRF   x54
07458:  CLRF   x53
0745A:  MOVLW  7F
0745C:  MOVWF  x52
0745E:  MOVFF  2F7,459
07462:  MOVFF  2F6,458
07466:  MOVFF  2F5,457
0746A:  MOVFF  2F4,456
0746E:  MOVLB  0
07470:  CALL   3032
07474:  BTFSS  FD8.0
07476:  BRA    76A2
07478:  MOVFF  2F7,455
0747C:  MOVFF  2F6,454
07480:  MOVFF  2F5,453
07484:  MOVFF  2F4,452
07488:  MOVLB  4
0748A:  CLRF   x59
0748C:  CLRF   x58
0748E:  MOVLW  70
07490:  MOVWF  x57
07492:  MOVLW  82
07494:  MOVWF  x56
07496:  MOVLB  0
07498:  CALL   3032
0749C:  BTFSS  FD8.0
0749E:  BRA    76A2
074A0:  MOVFF  2CE,455
074A4:  MOVFF  2CD,454
074A8:  MOVFF  2CC,453
074AC:  MOVFF  2CB,452
074B0:  MOVLW  9A
074B2:  MOVLB  4
074B4:  MOVWF  x59
074B6:  MOVLW  99
074B8:  MOVWF  x58
074BA:  MOVLW  19
074BC:  MOVWF  x57
074BE:  MOVLW  7D
074C0:  MOVWF  x56
074C2:  MOVLB  0
074C4:  CALL   3032
074C8:  BTFSS  FD8.0
074CA:  BRA    76A2
....................       if(Tpulso<6.0){ 
074CC:  MOVFF  2F3,455
074D0:  MOVFF  2F2,454
074D4:  MOVFF  2F1,453
074D8:  MOVFF  2F0,452
074DC:  MOVLB  4
074DE:  CLRF   x59
074E0:  CLRF   x58
074E2:  MOVLW  40
074E4:  MOVWF  x57
074E6:  MOVLW  81
074E8:  MOVWF  x56
074EA:  MOVLB  0
074EC:  CALL   3032
074F0:  BTFSS  FD8.0
074F2:  BRA    769E
....................          flagTC=1; 
074F4:  MOVLB  3
074F6:  BSF    x51.3
....................          if(TiempoControl>=Derivativo){ 
074F8:  MOVF   x39,W
074FA:  SUBWF  x90,W
074FC:  BTFSS  FD8.0
074FE:  BRA    769A
....................             TiempoControl=0; 
07500:  CLRF   x90
....................             if(Aumento<-0.5){ 
07502:  MOVFF  2CE,455
07506:  MOVFF  2CD,454
0750A:  MOVFF  2CC,453
0750E:  MOVFF  2CB,452
07512:  MOVLB  4
07514:  CLRF   x59
07516:  CLRF   x58
07518:  MOVLW  80
0751A:  MOVWF  x57
0751C:  MOVLW  7E
0751E:  MOVWF  x56
07520:  MOVLB  0
07522:  CALL   3032
07526:  BNC   7598
....................                Ganancia+=Integral+0.2; 
07528:  MOVLB  4
0752A:  CLRF   x60
0752C:  MOVFF  338,45F
07530:  MOVLB  0
07532:  CALL   1A94
07536:  BCF    FD8.1
07538:  MOVFF  03,462
0753C:  MOVFF  02,461
07540:  MOVFF  01,460
07544:  MOVFF  00,45F
07548:  MOVLW  CD
0754A:  MOVLB  4
0754C:  MOVWF  x66
0754E:  MOVLW  CC
07550:  MOVWF  x65
07552:  MOVLW  4C
07554:  MOVWF  x64
07556:  MOVLW  7C
07558:  MOVWF  x63
0755A:  MOVLB  0
0755C:  CALL   1C28
07560:  BCF    FD8.1
07562:  MOVFF  307,462
07566:  MOVFF  306,461
0756A:  MOVFF  305,460
0756E:  MOVFF  304,45F
07572:  MOVFF  03,466
07576:  MOVFF  02,465
0757A:  MOVFF  01,464
0757E:  MOVFF  00,463
07582:  CALL   1C28
07586:  MOVFF  03,307
0758A:  MOVFF  02,306
0758E:  MOVFF  01,305
07592:  MOVFF  00,304
....................             }else{ 
07596:  BRA    7698
....................                if(Aumento<-0.1){ 
07598:  MOVFF  2CE,455
0759C:  MOVFF  2CD,454
075A0:  MOVFF  2CC,453
075A4:  MOVFF  2CB,452
075A8:  MOVLW  CD
075AA:  MOVLB  4
075AC:  MOVWF  x59
075AE:  MOVLW  CC
075B0:  MOVWF  x58
075B2:  MOVWF  x57
075B4:  MOVLW  7B
075B6:  MOVWF  x56
075B8:  MOVLB  0
075BA:  CALL   3032
075BE:  BNC   7630
....................                   Ganancia+=Integral-0.2; 
075C0:  MOVLB  4
075C2:  CLRF   x60
075C4:  MOVFF  338,45F
075C8:  MOVLB  0
075CA:  CALL   1A94
075CE:  BSF    FD8.1
075D0:  MOVFF  03,462
075D4:  MOVFF  02,461
075D8:  MOVFF  01,460
075DC:  MOVFF  00,45F
075E0:  MOVLW  CD
075E2:  MOVLB  4
075E4:  MOVWF  x66
075E6:  MOVLW  CC
075E8:  MOVWF  x65
075EA:  MOVLW  4C
075EC:  MOVWF  x64
075EE:  MOVLW  7C
075F0:  MOVWF  x63
075F2:  MOVLB  0
075F4:  CALL   1C28
075F8:  BCF    FD8.1
075FA:  MOVFF  307,462
075FE:  MOVFF  306,461
07602:  MOVFF  305,460
07606:  MOVFF  304,45F
0760A:  MOVFF  03,466
0760E:  MOVFF  02,465
07612:  MOVFF  01,464
07616:  MOVFF  00,463
0761A:  CALL   1C28
0761E:  MOVFF  03,307
07622:  MOVFF  02,306
07626:  MOVFF  01,305
0762A:  MOVFF  00,304
....................                }else{ 
0762E:  BRA    7698
....................                   Ganancia+=Integral-0.5; 
07630:  MOVLB  4
07632:  CLRF   x60
07634:  MOVFF  338,45F
07638:  MOVLB  0
0763A:  CALL   1A94
0763E:  BSF    FD8.1
07640:  MOVFF  03,462
07644:  MOVFF  02,461
07648:  MOVFF  01,460
0764C:  MOVFF  00,45F
07650:  MOVLB  4
07652:  CLRF   x66
07654:  CLRF   x65
07656:  CLRF   x64
07658:  MOVLW  7E
0765A:  MOVWF  x63
0765C:  MOVLB  0
0765E:  CALL   1C28
07662:  BCF    FD8.1
07664:  MOVFF  307,462
07668:  MOVFF  306,461
0766C:  MOVFF  305,460
07670:  MOVFF  304,45F
07674:  MOVFF  03,466
07678:  MOVFF  02,465
0767C:  MOVFF  01,464
07680:  MOVFF  00,463
07684:  CALL   1C28
07688:  MOVFF  03,307
0768C:  MOVFF  02,306
07690:  MOVFF  01,305
07694:  MOVFF  00,304
07698:  MOVLB  3
....................                } 
....................             } 
....................          } 
....................       }else{ 
0769A:  BRA    76A2
0769C:  MOVLB  0
....................          flagTC=0; 
0769E:  MOVLB  3
076A0:  BCF    x51.3
....................       } 
....................    } 
....................     
....................    if(error<-0.3) 
076A2:  MOVFF  2F7,455
076A6:  MOVFF  2F6,454
076AA:  MOVFF  2F5,453
076AE:  MOVFF  2F4,452
076B2:  MOVLW  9A
076B4:  MOVLB  4
076B6:  MOVWF  x59
076B8:  MOVLW  99
076BA:  MOVWF  x58
076BC:  MOVWF  x57
076BE:  MOVLW  7D
076C0:  MOVWF  x56
076C2:  MOVLB  0
076C4:  CALL   3032
076C8:  BNC   76DA
....................       Ganancia=Ganancia2; 
076CA:  MOVFF  30B,307
076CE:  MOVFF  30A,306
076D2:  MOVFF  309,305
076D6:  MOVFF  308,304
....................     
....................    if(Ganancia<1) 
076DA:  MOVFF  307,455
076DE:  MOVFF  306,454
076E2:  MOVFF  305,453
076E6:  MOVFF  304,452
076EA:  MOVLB  4
076EC:  CLRF   x59
076EE:  CLRF   x58
076F0:  CLRF   x57
076F2:  MOVLW  7F
076F4:  MOVWF  x56
076F6:  MOVLB  0
076F8:  CALL   3032
076FC:  BNC   770A
....................       Ganancia=1; 
076FE:  MOVLB  3
07700:  CLRF   x07
07702:  CLRF   x06
07704:  CLRF   x05
07706:  MOVLW  7F
07708:  MOVWF  x04
....................        
....................    if(error<0.0)     // Anti Wind_DOWN     
0770A:  MOVFF  2F7,455
0770E:  MOVFF  2F6,454
07712:  MOVFF  2F5,453
07716:  MOVFF  2F4,452
0771A:  MOVLB  4
0771C:  CLRF   x59
0771E:  CLRF   x58
07720:  CLRF   x57
07722:  CLRF   x56
07724:  MOVLB  0
07726:  CALL   3032
0772A:  BNC   7738
....................       error=0.0; 
0772C:  MOVLB  2
0772E:  CLRF   xF7
07730:  CLRF   xF6
07732:  CLRF   xF5
07734:  CLRF   xF4
07736:  MOVLB  0
....................     
....................    //tmp=(Setpoint-Prom)*Ganancia;  // Control Proporcional. 
....................    tmp=error*Ganancia;  // Control Proporcional. 
07738:  MOVFF  2F7,466
0773C:  MOVFF  2F6,465
07740:  MOVFF  2F5,464
07744:  MOVFF  2F4,463
07748:  MOVFF  307,46A
0774C:  MOVFF  306,469
07750:  MOVFF  305,468
07754:  MOVFF  304,467
07758:  CALL   3C90
0775C:  MOVFF  03,303
07760:  MOVFF  02,302
07764:  MOVFF  01,301
07768:  MOVFF  00,300
....................           
....................    if(tmp>Setpoint)   // Anti Wind-UP       
0776C:  MOVLB  4
0776E:  CLRF   x60
07770:  MOVFF  362,45F
07774:  MOVLB  0
07776:  CALL   1A94
0777A:  MOVFF  03,455
0777E:  MOVFF  02,454
07782:  MOVFF  01,453
07786:  MOVFF  00,452
0778A:  MOVFF  303,459
0778E:  MOVFF  302,458
07792:  MOVFF  301,457
07796:  MOVFF  300,456
0779A:  CALL   3032
0779E:  BNC   77BE
....................       tmp=Setpoint; 
077A0:  MOVLB  4
077A2:  CLRF   x60
077A4:  MOVFF  362,45F
077A8:  MOVLB  0
077AA:  CALL   1A94
077AE:  MOVFF  03,303
077B2:  MOVFF  02,302
077B6:  MOVFF  01,301
077BA:  MOVFF  00,300
....................                   
....................    if(tmp<0.0)     // Anti Wind_DOWN     
077BE:  MOVFF  303,455
077C2:  MOVFF  302,454
077C6:  MOVFF  301,453
077CA:  MOVFF  300,452
077CE:  MOVLB  4
077D0:  CLRF   x59
077D2:  CLRF   x58
077D4:  CLRF   x57
077D6:  CLRF   x56
077D8:  MOVLB  0
077DA:  CALL   3032
077DE:  BNC   77EA
....................       tmp=0.0; 
077E0:  MOVLB  3
077E2:  CLRF   x03
077E4:  CLRF   x02
077E6:  CLRF   x01
077E8:  CLRF   x00
....................     
....................    // Tpulso(t)= Tciclo*(y(t)-ymin)/(ymax - ymin); calculo de ciclo util para control de resistencia.ymax=140.ymin=0; 
....................    // Tpulso es float, hay que pasar ese ciclo a una salida de un puerto usando el TMR1. 
....................    tmp2=(tmp/Setpoint); 
077EA:  MOVLB  4
077EC:  CLRF   x60
077EE:  MOVFF  362,45F
077F2:  MOVLB  0
077F4:  CALL   1A94
077F8:  MOVFF  303,456
077FC:  MOVFF  302,455
07800:  MOVFF  301,454
07804:  MOVFF  300,453
07808:  MOVFF  03,45A
0780C:  MOVFF  02,459
07810:  MOVFF  01,458
07814:  MOVFF  00,457
07818:  CALL   1ACA
0781C:  MOVFF  03,313
07820:  MOVFF  02,312
07824:  MOVFF  01,311
07828:  MOVFF  00,310
....................    //if(tmp2>0.8) 
....................    //tmp2=0.8; 
....................    Tpulso=tmp2*Tciclo;   
0782C:  MOVFF  313,466
07830:  MOVFF  312,465
07834:  MOVFF  311,464
07838:  MOVFF  310,463
0783C:  MOVFF  2EF,46A
07840:  MOVFF  2EE,469
07844:  MOVFF  2ED,468
07848:  MOVFF  2EC,467
0784C:  CALL   3C90
07850:  MOVFF  03,2F3
07854:  MOVFF  02,2F2
07858:  MOVFF  01,2F1
0785C:  MOVFF  00,2F0
....................                                        
....................    Tp=(Tpulso/0.005); 
07860:  MOVFF  2F3,456
07864:  MOVFF  2F2,455
07868:  MOVFF  2F1,454
0786C:  MOVFF  2F0,453
07870:  MOVLW  0A
07872:  MOVLB  4
07874:  MOVWF  x5A
07876:  MOVLW  D7
07878:  MOVWF  x59
0787A:  MOVLW  23
0787C:  MOVWF  x58
0787E:  MOVLW  77
07880:  MOVWF  x57
07882:  MOVLB  0
07884:  CALL   1ACA
07888:  MOVFF  03,462
0788C:  MOVFF  02,461
07890:  MOVFF  01,460
07894:  MOVFF  00,45F
07898:  CALL   43CC
0789C:  MOVFF  02,AC
078A0:  MOVFF  01,AB
....................    Tc=(Tciclo/0.005); 
078A4:  MOVFF  2EF,456
078A8:  MOVFF  2EE,455
078AC:  MOVFF  2ED,454
078B0:  MOVFF  2EC,453
078B4:  MOVLW  0A
078B6:  MOVLB  4
078B8:  MOVWF  x5A
078BA:  MOVLW  D7
078BC:  MOVWF  x59
078BE:  MOVLW  23
078C0:  MOVWF  x58
078C2:  MOVLW  77
078C4:  MOVWF  x57
078C6:  MOVLB  0
078C8:  CALL   1ACA
078CC:  MOVFF  03,462
078D0:  MOVFF  02,461
078D4:  MOVFF  01,460
078D8:  MOVFF  00,45F
078DC:  CALL   43CC
078E0:  MOVFF  02,AE
078E4:  MOVFF  01,AD
....................    Controlando=1;    
078E8:  MOVLW  01
078EA:  MOVLB  3
078EC:  MOVWF  x54
.................... //--------------------------------------------------------------------------------------------------------------------//    
.................... } 
078EE:  MOVLB  0
078F0:  GOTO   DCCC (RETURN)
....................  
.................... void ControlaPresion(){ 
*
07A06:  MOVLB  4
07A08:  CLRF   x4D
07A0A:  CLRF   x4C
07A0C:  CLRF   x4B
07A0E:  CLRF   x4A
....................    float prc=0.0;    
....................    if(tiemporecta>=Derivativo/2.0){ 
07A10:  CLRF   x60
07A12:  MOVFF  339,45F
07A16:  MOVLB  0
07A18:  CALL   1A94
07A1C:  MOVFF  03,456
07A20:  MOVFF  02,455
07A24:  MOVFF  01,454
07A28:  MOVFF  00,453
07A2C:  MOVLB  4
07A2E:  CLRF   x5A
07A30:  CLRF   x59
07A32:  CLRF   x58
07A34:  MOVLW  80
07A36:  MOVWF  x57
07A38:  MOVLB  0
07A3A:  CALL   1ACA
07A3E:  MOVFF  00,44E
07A42:  MOVFF  01,44F
07A46:  MOVFF  02,450
07A4A:  MOVFF  03,451
07A4E:  MOVLB  4
07A50:  CLRF   x60
07A52:  MOVFF  353,45F
07A56:  MOVLB  0
07A58:  CALL   1A94
07A5C:  MOVFF  451,455
07A60:  MOVFF  450,454
07A64:  MOVFF  44F,453
07A68:  MOVFF  44E,452
07A6C:  MOVFF  03,459
07A70:  MOVFF  02,458
07A74:  MOVFF  01,457
07A78:  MOVFF  00,456
07A7C:  CALL   3032
07A80:  BC    7A84
07A82:  BNZ   7A8C
....................       ActualizaRectaPresion(); 
07A84:  BRA    7998
....................       tiemporecta=0; 
07A86:  MOVLB  3
07A88:  CLRF   x53
07A8A:  MOVLB  0
....................    }  
....................    prc=(float)PresionCamara; 
07A8C:  MOVFF  375,460
07A90:  MOVFF  374,45F
07A94:  CALL   1A94
07A98:  MOVFF  03,44D
07A9C:  MOVFF  02,44C
07AA0:  MOVFF  01,44B
07AA4:  MOVFF  00,44A
....................    Tactual=((prc)*(prc)*(prc)*p1)+((prc)*(prc)*p2)+(p3*prc)+p4; 
07AA8:  MOVFF  44D,466
07AAC:  MOVFF  44C,465
07AB0:  MOVFF  44B,464
07AB4:  MOVFF  44A,463
07AB8:  MOVFF  44D,46A
07ABC:  MOVFF  44C,469
07AC0:  MOVFF  44B,468
07AC4:  MOVFF  44A,467
07AC8:  CALL   3C90
07ACC:  MOVFF  00,44E
07AD0:  MOVFF  01,44F
07AD4:  MOVFF  02,450
07AD8:  MOVFF  03,451
07ADC:  MOVFF  03,466
07AE0:  MOVFF  02,465
07AE4:  MOVFF  01,464
07AE8:  MOVFF  00,463
07AEC:  MOVFF  44D,46A
07AF0:  MOVFF  44C,469
07AF4:  MOVFF  44B,468
07AF8:  MOVFF  44A,467
07AFC:  CALL   3C90
07B00:  MOVFF  00,44E
07B04:  MOVFF  01,44F
07B08:  MOVFF  02,450
07B0C:  MOVFF  03,451
07B10:  MOVFF  03,466
07B14:  MOVFF  02,465
07B18:  MOVFF  01,464
07B1C:  MOVFF  00,463
07B20:  MOVFF  340,46A
07B24:  MOVFF  33F,469
07B28:  MOVFF  33E,468
07B2C:  MOVFF  33D,467
07B30:  CALL   3C90
07B34:  MOVFF  00,44E
07B38:  MOVFF  01,44F
07B3C:  MOVFF  02,450
07B40:  MOVFF  03,451
07B44:  MOVFF  44D,466
07B48:  MOVFF  44C,465
07B4C:  MOVFF  44B,464
07B50:  MOVFF  44A,463
07B54:  MOVFF  44D,46A
07B58:  MOVFF  44C,469
07B5C:  MOVFF  44B,468
07B60:  MOVFF  44A,467
07B64:  CALL   3C90
07B68:  MOVFF  00,452
07B6C:  MOVFF  01,453
07B70:  MOVFF  02,454
07B74:  MOVFF  03,455
07B78:  MOVFF  03,466
07B7C:  MOVFF  02,465
07B80:  MOVFF  01,464
07B84:  MOVFF  00,463
07B88:  MOVFF  344,46A
07B8C:  MOVFF  343,469
07B90:  MOVFF  342,468
07B94:  MOVFF  341,467
07B98:  CALL   3C90
07B9C:  BCF    FD8.1
07B9E:  MOVFF  451,462
07BA2:  MOVFF  450,461
07BA6:  MOVFF  44F,460
07BAA:  MOVFF  44E,45F
07BAE:  MOVFF  03,466
07BB2:  MOVFF  02,465
07BB6:  MOVFF  01,464
07BBA:  MOVFF  00,463
07BBE:  CALL   1C28
07BC2:  MOVFF  00,44E
07BC6:  MOVFF  01,44F
07BCA:  MOVFF  02,450
07BCE:  MOVFF  03,451
07BD2:  MOVFF  348,466
07BD6:  MOVFF  347,465
07BDA:  MOVFF  346,464
07BDE:  MOVFF  345,463
07BE2:  MOVFF  44D,46A
07BE6:  MOVFF  44C,469
07BEA:  MOVFF  44B,468
07BEE:  MOVFF  44A,467
07BF2:  CALL   3C90
07BF6:  BCF    FD8.1
07BF8:  MOVFF  451,462
07BFC:  MOVFF  450,461
07C00:  MOVFF  44F,460
07C04:  MOVFF  44E,45F
07C08:  MOVFF  03,466
07C0C:  MOVFF  02,465
07C10:  MOVFF  01,464
07C14:  MOVFF  00,463
07C18:  CALL   1C28
07C1C:  MOVFF  00,44E
07C20:  MOVFF  01,44F
07C24:  MOVFF  02,450
07C28:  MOVFF  03,451
07C2C:  BCF    FD8.1
07C2E:  MOVFF  03,462
07C32:  MOVFF  02,461
07C36:  MOVFF  01,460
07C3A:  MOVFF  00,45F
07C3E:  MOVFF  34C,466
07C42:  MOVFF  34B,465
07C46:  MOVFF  34A,464
07C4A:  MOVFF  349,463
07C4E:  CALL   1C28
07C52:  MOVFF  03,350
07C56:  MOVFF  02,34F
07C5A:  MOVFF  01,34E
07C5E:  MOVFF  00,34D
.................... //-------------------------------Control de Calentamiento------------------------------------------------------------//          
....................    if(Esterilizando){ 
07C62:  BTFSS  xA0.2
07C64:  BRA    7CE2
....................       error=desvio+Setpoint-Tactual;      // Clculo del error ****** 
07C66:  MOVLB  4
07C68:  CLRF   x60
07C6A:  MOVFF  362,45F
07C6E:  MOVLB  0
07C70:  CALL   1A94
07C74:  BCF    FD8.1
07C76:  MOVFF  30F,462
07C7A:  MOVFF  30E,461
07C7E:  MOVFF  30D,460
07C82:  MOVFF  30C,45F
07C86:  MOVFF  03,466
07C8A:  MOVFF  02,465
07C8E:  MOVFF  01,464
07C92:  MOVFF  00,463
07C96:  CALL   1C28
07C9A:  MOVFF  00,44E
07C9E:  MOVFF  01,44F
07CA2:  MOVFF  02,450
07CA6:  MOVFF  03,451
07CAA:  BSF    FD8.1
07CAC:  MOVFF  03,462
07CB0:  MOVFF  02,461
07CB4:  MOVFF  01,460
07CB8:  MOVFF  00,45F
07CBC:  MOVFF  350,466
07CC0:  MOVFF  34F,465
07CC4:  MOVFF  34E,464
07CC8:  MOVFF  34D,463
07CCC:  CALL   1C28
07CD0:  MOVFF  03,2F7
07CD4:  MOVFF  02,2F6
07CD8:  MOVFF  01,2F5
07CDC:  MOVFF  00,2F4
....................    }else{ 
07CE0:  BRA    7D90
....................       error=desvio+1.0+Setpoint-Tactual;      // Clculo del error ****** 
07CE2:  BCF    FD8.1
07CE4:  MOVFF  30F,462
07CE8:  MOVFF  30E,461
07CEC:  MOVFF  30D,460
07CF0:  MOVFF  30C,45F
07CF4:  MOVLB  4
07CF6:  CLRF   x66
07CF8:  CLRF   x65
07CFA:  CLRF   x64
07CFC:  MOVLW  7F
07CFE:  MOVWF  x63
07D00:  MOVLB  0
07D02:  CALL   1C28
07D06:  MOVFF  00,44E
07D0A:  MOVFF  01,44F
07D0E:  MOVFF  02,450
07D12:  MOVFF  03,451
07D16:  MOVLB  4
07D18:  CLRF   x60
07D1A:  MOVFF  362,45F
07D1E:  MOVLB  0
07D20:  CALL   1A94
07D24:  BCF    FD8.1
07D26:  MOVFF  451,462
07D2A:  MOVFF  450,461
07D2E:  MOVFF  44F,460
07D32:  MOVFF  44E,45F
07D36:  MOVFF  03,466
07D3A:  MOVFF  02,465
07D3E:  MOVFF  01,464
07D42:  MOVFF  00,463
07D46:  CALL   1C28
07D4A:  MOVFF  00,44E
07D4E:  MOVFF  01,44F
07D52:  MOVFF  02,450
07D56:  MOVFF  03,451
07D5A:  BSF    FD8.1
07D5C:  MOVFF  03,462
07D60:  MOVFF  02,461
07D64:  MOVFF  01,460
07D68:  MOVFF  00,45F
07D6C:  MOVFF  350,466
07D70:  MOVFF  34F,465
07D74:  MOVFF  34E,464
07D78:  MOVFF  34D,463
07D7C:  CALL   1C28
07D80:  MOVFF  03,2F7
07D84:  MOVFF  02,2F6
07D88:  MOVFF  01,2F5
07D8C:  MOVFF  00,2F4
....................    } 
....................     
....................    if(error>1.0 && error<20 && Aumento2<0.3){ 
07D90:  MOVLB  4
07D92:  CLRF   x55
07D94:  CLRF   x54
07D96:  CLRF   x53
07D98:  MOVLW  7F
07D9A:  MOVWF  x52
07D9C:  MOVFF  2F7,459
07DA0:  MOVFF  2F6,458
07DA4:  MOVFF  2F5,457
07DA8:  MOVFF  2F4,456
07DAC:  MOVLB  0
07DAE:  CALL   3032
07DB2:  BTFSS  FD8.0
07DB4:  BRA    7FE2
07DB6:  MOVFF  2F7,455
07DBA:  MOVFF  2F6,454
07DBE:  MOVFF  2F5,453
07DC2:  MOVFF  2F4,452
07DC6:  MOVLB  4
07DC8:  CLRF   x59
07DCA:  CLRF   x58
07DCC:  MOVLW  20
07DCE:  MOVWF  x57
07DD0:  MOVLW  83
07DD2:  MOVWF  x56
07DD4:  MOVLB  0
07DD6:  CALL   3032
07DDA:  BTFSS  FD8.0
07DDC:  BRA    7FE2
07DDE:  MOVFF  2D2,455
07DE2:  MOVFF  2D1,454
07DE6:  MOVFF  2D0,453
07DEA:  MOVFF  2CF,452
07DEE:  MOVLW  9A
07DF0:  MOVLB  4
07DF2:  MOVWF  x59
07DF4:  MOVLW  99
07DF6:  MOVWF  x58
07DF8:  MOVLW  19
07DFA:  MOVWF  x57
07DFC:  MOVLW  7D
07DFE:  MOVWF  x56
07E00:  MOVLB  0
07E02:  CALL   3032
07E06:  BTFSS  FD8.0
07E08:  BRA    7FE2
....................       if(Tpulso<=6.0){ 
07E0A:  MOVFF  2F3,455
07E0E:  MOVFF  2F2,454
07E12:  MOVFF  2F1,453
07E16:  MOVFF  2F0,452
07E1A:  MOVLB  4
07E1C:  CLRF   x59
07E1E:  CLRF   x58
07E20:  MOVLW  40
07E22:  MOVWF  x57
07E24:  MOVLW  81
07E26:  MOVWF  x56
07E28:  MOVLB  0
07E2A:  CALL   3032
07E2E:  BC    7E34
07E30:  BTFSS  FD8.2
07E32:  BRA    7FDE
....................          flagTC=1; 
07E34:  MOVLB  3
07E36:  BSF    x51.3
....................          if(TiempoControl>=Derivativo){ 
07E38:  MOVF   x39,W
07E3A:  SUBWF  x90,W
07E3C:  BTFSS  FD8.0
07E3E:  BRA    7FDA
....................             TiempoControl=0; 
07E40:  CLRF   x90
....................             if(Aumento2<-0.5){ 
07E42:  MOVFF  2D2,455
07E46:  MOVFF  2D1,454
07E4A:  MOVFF  2D0,453
07E4E:  MOVFF  2CF,452
07E52:  MOVLB  4
07E54:  CLRF   x59
07E56:  CLRF   x58
07E58:  MOVLW  80
07E5A:  MOVWF  x57
07E5C:  MOVLW  7E
07E5E:  MOVWF  x56
07E60:  MOVLB  0
07E62:  CALL   3032
07E66:  BNC   7ED8
....................                Ganancia+=Integral+0.2; 
07E68:  MOVLB  4
07E6A:  CLRF   x60
07E6C:  MOVFF  338,45F
07E70:  MOVLB  0
07E72:  CALL   1A94
07E76:  BCF    FD8.1
07E78:  MOVFF  03,462
07E7C:  MOVFF  02,461
07E80:  MOVFF  01,460
07E84:  MOVFF  00,45F
07E88:  MOVLW  CD
07E8A:  MOVLB  4
07E8C:  MOVWF  x66
07E8E:  MOVLW  CC
07E90:  MOVWF  x65
07E92:  MOVLW  4C
07E94:  MOVWF  x64
07E96:  MOVLW  7C
07E98:  MOVWF  x63
07E9A:  MOVLB  0
07E9C:  CALL   1C28
07EA0:  BCF    FD8.1
07EA2:  MOVFF  307,462
07EA6:  MOVFF  306,461
07EAA:  MOVFF  305,460
07EAE:  MOVFF  304,45F
07EB2:  MOVFF  03,466
07EB6:  MOVFF  02,465
07EBA:  MOVFF  01,464
07EBE:  MOVFF  00,463
07EC2:  CALL   1C28
07EC6:  MOVFF  03,307
07ECA:  MOVFF  02,306
07ECE:  MOVFF  01,305
07ED2:  MOVFF  00,304
....................             }else{ 
07ED6:  BRA    7FD8
....................                if(Aumento2<-0.1){ 
07ED8:  MOVFF  2D2,455
07EDC:  MOVFF  2D1,454
07EE0:  MOVFF  2D0,453
07EE4:  MOVFF  2CF,452
07EE8:  MOVLW  CD
07EEA:  MOVLB  4
07EEC:  MOVWF  x59
07EEE:  MOVLW  CC
07EF0:  MOVWF  x58
07EF2:  MOVWF  x57
07EF4:  MOVLW  7B
07EF6:  MOVWF  x56
07EF8:  MOVLB  0
07EFA:  CALL   3032
07EFE:  BNC   7F70
....................                   Ganancia+=Integral-0.2; 
07F00:  MOVLB  4
07F02:  CLRF   x60
07F04:  MOVFF  338,45F
07F08:  MOVLB  0
07F0A:  CALL   1A94
07F0E:  BSF    FD8.1
07F10:  MOVFF  03,462
07F14:  MOVFF  02,461
07F18:  MOVFF  01,460
07F1C:  MOVFF  00,45F
07F20:  MOVLW  CD
07F22:  MOVLB  4
07F24:  MOVWF  x66
07F26:  MOVLW  CC
07F28:  MOVWF  x65
07F2A:  MOVLW  4C
07F2C:  MOVWF  x64
07F2E:  MOVLW  7C
07F30:  MOVWF  x63
07F32:  MOVLB  0
07F34:  CALL   1C28
07F38:  BCF    FD8.1
07F3A:  MOVFF  307,462
07F3E:  MOVFF  306,461
07F42:  MOVFF  305,460
07F46:  MOVFF  304,45F
07F4A:  MOVFF  03,466
07F4E:  MOVFF  02,465
07F52:  MOVFF  01,464
07F56:  MOVFF  00,463
07F5A:  CALL   1C28
07F5E:  MOVFF  03,307
07F62:  MOVFF  02,306
07F66:  MOVFF  01,305
07F6A:  MOVFF  00,304
....................                }else{ 
07F6E:  BRA    7FD8
....................                   Ganancia+=Integral-0.5; 
07F70:  MOVLB  4
07F72:  CLRF   x60
07F74:  MOVFF  338,45F
07F78:  MOVLB  0
07F7A:  CALL   1A94
07F7E:  BSF    FD8.1
07F80:  MOVFF  03,462
07F84:  MOVFF  02,461
07F88:  MOVFF  01,460
07F8C:  MOVFF  00,45F
07F90:  MOVLB  4
07F92:  CLRF   x66
07F94:  CLRF   x65
07F96:  CLRF   x64
07F98:  MOVLW  7E
07F9A:  MOVWF  x63
07F9C:  MOVLB  0
07F9E:  CALL   1C28
07FA2:  BCF    FD8.1
07FA4:  MOVFF  307,462
07FA8:  MOVFF  306,461
07FAC:  MOVFF  305,460
07FB0:  MOVFF  304,45F
07FB4:  MOVFF  03,466
07FB8:  MOVFF  02,465
07FBC:  MOVFF  01,464
07FC0:  MOVFF  00,463
07FC4:  CALL   1C28
07FC8:  MOVFF  03,307
07FCC:  MOVFF  02,306
07FD0:  MOVFF  01,305
07FD4:  MOVFF  00,304
07FD8:  MOVLB  3
....................                } 
....................             } 
....................          } 
....................       }else{ 
07FDA:  BRA    7FE2
07FDC:  MOVLB  0
....................          flagTC=0; 
07FDE:  MOVLB  3
07FE0:  BCF    x51.3
....................       } 
....................    } 
....................     
....................    if(error<-0.3) 
07FE2:  MOVFF  2F7,455
07FE6:  MOVFF  2F6,454
07FEA:  MOVFF  2F5,453
07FEE:  MOVFF  2F4,452
07FF2:  MOVLW  9A
07FF4:  MOVLB  4
07FF6:  MOVWF  x59
07FF8:  MOVLW  99
07FFA:  MOVWF  x58
07FFC:  MOVWF  x57
07FFE:  MOVLW  7D
08000:  MOVWF  x56
08002:  MOVLB  0
08004:  CALL   3032
08008:  BNC   801A
....................       Ganancia=Ganancia2; 
0800A:  MOVFF  30B,307
0800E:  MOVFF  30A,306
08012:  MOVFF  309,305
08016:  MOVFF  308,304
....................     
....................    if(Ganancia<1) 
0801A:  MOVFF  307,455
0801E:  MOVFF  306,454
08022:  MOVFF  305,453
08026:  MOVFF  304,452
0802A:  MOVLB  4
0802C:  CLRF   x59
0802E:  CLRF   x58
08030:  CLRF   x57
08032:  MOVLW  7F
08034:  MOVWF  x56
08036:  MOVLB  0
08038:  CALL   3032
0803C:  BNC   804A
....................       Ganancia=1; 
0803E:  MOVLB  3
08040:  CLRF   x07
08042:  CLRF   x06
08044:  CLRF   x05
08046:  MOVLW  7F
08048:  MOVWF  x04
....................     
....................    if(error<0.0)     // Anti Wind_DOWN     
0804A:  MOVFF  2F7,455
0804E:  MOVFF  2F6,454
08052:  MOVFF  2F5,453
08056:  MOVFF  2F4,452
0805A:  MOVLB  4
0805C:  CLRF   x59
0805E:  CLRF   x58
08060:  CLRF   x57
08062:  CLRF   x56
08064:  MOVLB  0
08066:  CALL   3032
0806A:  BNC   8078
....................       error=0.0; 
0806C:  MOVLB  2
0806E:  CLRF   xF7
08070:  CLRF   xF6
08072:  CLRF   xF5
08074:  CLRF   xF4
08076:  MOVLB  0
....................    //tmp=(Setpoint-Prom)*Ganancia;  // Control Proporcional. 
....................    tmp=error*Ganancia;  // Control Proporcional. 
08078:  MOVFF  2F7,466
0807C:  MOVFF  2F6,465
08080:  MOVFF  2F5,464
08084:  MOVFF  2F4,463
08088:  MOVFF  307,46A
0808C:  MOVFF  306,469
08090:  MOVFF  305,468
08094:  MOVFF  304,467
08098:  CALL   3C90
0809C:  MOVFF  03,303
080A0:  MOVFF  02,302
080A4:  MOVFF  01,301
080A8:  MOVFF  00,300
....................           
....................    if(tmp>Setpoint)   // Anti Wind-UP       
080AC:  MOVLB  4
080AE:  CLRF   x60
080B0:  MOVFF  362,45F
080B4:  MOVLB  0
080B6:  CALL   1A94
080BA:  MOVFF  03,455
080BE:  MOVFF  02,454
080C2:  MOVFF  01,453
080C6:  MOVFF  00,452
080CA:  MOVFF  303,459
080CE:  MOVFF  302,458
080D2:  MOVFF  301,457
080D6:  MOVFF  300,456
080DA:  CALL   3032
080DE:  BNC   80FE
....................       tmp=Setpoint; 
080E0:  MOVLB  4
080E2:  CLRF   x60
080E4:  MOVFF  362,45F
080E8:  MOVLB  0
080EA:  CALL   1A94
080EE:  MOVFF  03,303
080F2:  MOVFF  02,302
080F6:  MOVFF  01,301
080FA:  MOVFF  00,300
....................                 
....................    if(tmp<0.0)     // Anti Wind_DOWN     
080FE:  MOVFF  303,455
08102:  MOVFF  302,454
08106:  MOVFF  301,453
0810A:  MOVFF  300,452
0810E:  MOVLB  4
08110:  CLRF   x59
08112:  CLRF   x58
08114:  CLRF   x57
08116:  CLRF   x56
08118:  MOVLB  0
0811A:  CALL   3032
0811E:  BNC   812A
....................       tmp=0.0; 
08120:  MOVLB  3
08122:  CLRF   x03
08124:  CLRF   x02
08126:  CLRF   x01
08128:  CLRF   x00
....................     
....................    // Tpulso(t)= Tciclo*(y(t)-ymin)/(ymax - ymin); calculo de ciclo util para control de resistencia.ymax=140.ymin=0; 
....................    // Tpulso es float, hay que pasar ese ciclo a una salida de un puerto usando el TMR1. 
....................    tmp2=(tmp/Setpoint); 
0812A:  MOVLB  4
0812C:  CLRF   x60
0812E:  MOVFF  362,45F
08132:  MOVLB  0
08134:  CALL   1A94
08138:  MOVFF  303,456
0813C:  MOVFF  302,455
08140:  MOVFF  301,454
08144:  MOVFF  300,453
08148:  MOVFF  03,45A
0814C:  MOVFF  02,459
08150:  MOVFF  01,458
08154:  MOVFF  00,457
08158:  CALL   1ACA
0815C:  MOVFF  03,313
08160:  MOVFF  02,312
08164:  MOVFF  01,311
08168:  MOVFF  00,310
....................    //if(tmp2>0.8) 
....................    //tmp2=0.8; 
....................    Tpulso=tmp2*Tciclo;   
0816C:  MOVFF  313,466
08170:  MOVFF  312,465
08174:  MOVFF  311,464
08178:  MOVFF  310,463
0817C:  MOVFF  2EF,46A
08180:  MOVFF  2EE,469
08184:  MOVFF  2ED,468
08188:  MOVFF  2EC,467
0818C:  CALL   3C90
08190:  MOVFF  03,2F3
08194:  MOVFF  02,2F2
08198:  MOVFF  01,2F1
0819C:  MOVFF  00,2F0
....................                                        
....................    Tp=(Tpulso/0.005); 
081A0:  MOVFF  2F3,456
081A4:  MOVFF  2F2,455
081A8:  MOVFF  2F1,454
081AC:  MOVFF  2F0,453
081B0:  MOVLW  0A
081B2:  MOVLB  4
081B4:  MOVWF  x5A
081B6:  MOVLW  D7
081B8:  MOVWF  x59
081BA:  MOVLW  23
081BC:  MOVWF  x58
081BE:  MOVLW  77
081C0:  MOVWF  x57
081C2:  MOVLB  0
081C4:  CALL   1ACA
081C8:  MOVFF  03,462
081CC:  MOVFF  02,461
081D0:  MOVFF  01,460
081D4:  MOVFF  00,45F
081D8:  CALL   43CC
081DC:  MOVFF  02,AC
081E0:  MOVFF  01,AB
....................    Tc=(Tciclo/0.005); 
081E4:  MOVFF  2EF,456
081E8:  MOVFF  2EE,455
081EC:  MOVFF  2ED,454
081F0:  MOVFF  2EC,453
081F4:  MOVLW  0A
081F6:  MOVLB  4
081F8:  MOVWF  x5A
081FA:  MOVLW  D7
081FC:  MOVWF  x59
081FE:  MOVLW  23
08200:  MOVWF  x58
08202:  MOVLW  77
08204:  MOVWF  x57
08206:  MOVLB  0
08208:  CALL   1ACA
0820C:  MOVFF  03,462
08210:  MOVFF  02,461
08214:  MOVFF  01,460
08218:  MOVFF  00,45F
0821C:  CALL   43CC
08220:  MOVFF  02,AE
08224:  MOVFF  01,AD
....................    Controlando=1;    
08228:  MOVLW  01
0822A:  MOVLB  3
0822C:  MOVWF  x54
.................... //--------------------------------------------------------------------------------------------------------------------//    
.................... } 
0822E:  MOVLB  0
08230:  RETLW  00
....................  
....................  
.................... void Envio_I2C(direccion, posicion, dato){ 
....................  
....................    i2c_start();            // Comienzo comunicacin 
....................    i2c_write(direccion);   // Direccin del esclavo en el bus I2C 
....................    i2c_write(posicion);    // Posicin donde se guardara el dato transmitido 
....................    i2c_write(dato);        // Dato a transmitir 
....................    i2c_stop();             // Fin comunicacin 
....................  } 
....................  
.................... void Lectura_I2C (byte direccion, byte posicion, byte &dato) { 
....................  
....................    i2c_start();            // Comienzo de la comunicacin 
....................    i2c_write(direccion);   // Direccin del esclavo en el bus I2C 
....................    i2c_write(posicion);    // Posicin de donde se leer el dato en el esclavo 
....................    i2c_start();            // Reinicio 
....................    i2c_write(direccion+1); // Direccin del esclavo en modo lectura 
....................    dato=i2c_read(0);       // Lectura del dato 
....................    i2c_stop();             // Fin comunicacin 
.................... } 
....................  
.................... void Carga_Vector(void){ 
....................    SlaveA0Tx[0]=(int8)Temperatura; 
*
04794:  MOVFF  327,462
04798:  MOVFF  326,461
0479C:  MOVFF  325,460
047A0:  MOVFF  324,45F
047A4:  RCALL  43CC
047A6:  MOVFF  01,64
....................    SlaveA0Tx[1]=(Temperatura-((int8)Temperatura))*10; 
047AA:  MOVFF  327,462
047AE:  MOVFF  326,461
047B2:  MOVFF  325,460
047B6:  MOVFF  324,45F
047BA:  RCALL  43CC
047BC:  MOVLB  4
047BE:  CLRF   x60
047C0:  MOVFF  01,45F
047C4:  MOVLB  0
047C6:  CALL   1A94
047CA:  BSF    FD8.1
047CC:  MOVFF  327,462
047D0:  MOVFF  326,461
047D4:  MOVFF  325,460
047D8:  MOVFF  324,45F
047DC:  MOVFF  03,466
047E0:  MOVFF  02,465
047E4:  MOVFF  01,464
047E8:  MOVFF  00,463
047EC:  CALL   1C28
047F0:  MOVFF  00,45F
047F4:  MOVFF  01,460
047F8:  MOVFF  02,461
047FC:  MOVFF  03,462
04800:  MOVFF  03,466
04804:  MOVFF  02,465
04808:  MOVFF  01,464
0480C:  MOVFF  00,463
04810:  MOVLB  4
04812:  CLRF   x6A
04814:  CLRF   x69
04816:  MOVLW  20
04818:  MOVWF  x68
0481A:  MOVLW  82
0481C:  MOVWF  x67
0481E:  MOVLB  0
04820:  CALL   3C90
04824:  MOVFF  03,462
04828:  MOVFF  02,461
0482C:  MOVFF  01,460
04830:  MOVFF  00,45F
04834:  RCALL  43CC
04836:  MOVFF  01,65
....................    SlaveA0Tx[2]=make8((int16)PresionCamara,0); 
0483A:  MOVFF  374,66
0483E:  MOVLB  0
....................    SlaveA0Tx[3]=make8((int16)PresionCamara,1); 
04840:  MOVFF  375,67
04844:  MOVLB  0
....................    SlaveA0Tx[4]=make8((int16)PresionPreCamara,0); 
04846:  MOVFF  376,68
0484A:  MOVLB  0
....................    SlaveA0Tx[5]=make8((int16)PresionPreCamara,1); 
0484C:  MOVFF  377,69
04850:  MOVLB  0
....................    SlaveA0Tx[6]=(int8)Tpulso*10; 
04852:  MOVFF  2F3,462
04856:  MOVFF  2F2,461
0485A:  MOVFF  2F1,460
0485E:  MOVFF  2F0,45F
04862:  RCALL  43CC
04864:  MOVF   01,W
04866:  MULLW  0A
04868:  MOVFF  FF3,6A
....................    SlaveA0Tx[7]=HIG; 
0486C:  BSF    F94.0
0486E:  CLRF   x6B
04870:  BTFSC  F82.0
04872:  INCF   x6B,F
....................    SlaveA0Tx[8]=LOW; 
04874:  BSF    F94.1
04876:  CLRF   x6C
04878:  BTFSC  F82.1
0487A:  INCF   x6C,F
....................    SlaveA0Tx[9]=TERM; 
0487C:  BSF    F93.5
0487E:  CLRF   x6D
04880:  BTFSS  F81.5
04882:  INCF   x6D,F
....................    SlaveA0Tx[10]=DOOR; 
04884:  BSF    F93.6
04886:  CLRF   x6E
04888:  BTFSS  F81.6
0488A:  INCF   x6E,F
....................    SlaveA0Tx[11]=STOP; 
0488C:  BSF    F93.7
0488E:  CLRF   x6F
04890:  BTFSS  F81.7
04892:  INCF   x6F,F
....................    SlaveA0Tx[12]=(int8)error; 
04894:  MOVFF  2F7,462
04898:  MOVFF  2F6,461
0489C:  MOVFF  2F5,460
048A0:  MOVFF  2F4,45F
048A4:  RCALL  43CC
048A6:  MOVFF  01,70
....................    SlaveA0Tx[13]=CicloSeleccionado; 
048AA:  MOVFF  361,71
....................    SlaveA0Tx[14]=SetTime; 
048AE:  MOVFF  3B7,72
....................    SlaveA0Tx[15]=Dia; 
048B2:  MOVFF  3AB,73
....................    SlaveA0Tx[16]=Mes; 
048B6:  MOVFF  3AA,74
....................    SlaveA0Tx[17]=Year; 
048BA:  MOVFF  3A9,75
....................    SlaveA0Tx[18]=Hora; 
048BE:  MOVFF  3AC,76
....................    SlaveA0Tx[19]=Minuto; 
048C2:  MOVFF  3AD,77
....................    SlaveA0Tx[20]=Segundo; 
048C6:  MOVFF  3AE,78
....................    SlaveA0Tx[21]=Imprime; 
048CA:  MOVFF  3B8,79
....................    SlaveA0Tx[22]=Aire; 
048CE:  CLRF   x7A
048D0:  BTFSC  xA4.2
048D2:  INCF   x7A,F
....................    SlaveA0Tx[23]=make8(Ciclos,0); 
048D4:  MOVFF  378,7B
048D8:  MOVLB  0
....................    SlaveA0Tx[24]=make8(Ciclos,1); 
048DA:  MOVFF  379,7C
048DE:  MOVLB  0
.................... } 
048E0:  GOTO   495C (RETURN)
....................  
.................... void Lee_Vector(void){ 
....................    /*Dia=txbuf[0]; 
....................    Mess=txbuf[1]; 
....................    Year=txbuf[2]; 
....................    Hora=txbuf[3]; 
....................    Minuto=txbuf[4]; 
....................    Segundo=txbuf[5]; 
....................    dow=txbuf[6];*/ 
.................... } 
....................  
.................... void Envio_Esclavos(void){ 
....................    Carga_Vector(); 
*
0495A:  BRA    4794
....................    for(i=0;i<25;i++){ 
0495C:  MOVLB  3
0495E:  CLRF   xA4
04960:  CLRF   xA3
04962:  MOVF   xA4,F
04964:  BNZ   49EE
04966:  MOVF   xA3,W
04968:  SUBLW  18
0496A:  BNC   49EE
....................       direccion=0xB0; 
0496C:  MOVLW  B0
0496E:  MOVLB  0
04970:  MOVWF  x85
....................       i2c_start();            // Comienzo comunicacin 
04972:  BSF    F94.4
04974:  MOVLW  05
04976:  MOVWF  00
04978:  DECFSZ 00,F
0497A:  BRA    4978
0497C:  BSF    F94.3
0497E:  MOVLW  06
04980:  MOVWF  00
04982:  DECFSZ 00,F
04984:  BRA    4982
04986:  BCF    F8B.4
04988:  BCF    F94.4
0498A:  MOVLW  05
0498C:  MOVWF  00
0498E:  DECFSZ 00,F
04990:  BRA    498E
04992:  BCF    F8B.3
04994:  BCF    F94.3
....................       i2c_write(direccion);   // Direccin del esclavo en el bus I2C 
04996:  MOVFF  85,46B
0499A:  RCALL  48E4
....................       i2c_write(i);   // Direccin del esclavo en el bus I2C 
0499C:  MOVFF  3A3,46B
049A0:  RCALL  48E4
....................       i2c_write(0);    // Posicin donde se guardara el dato transmitido 
049A2:  MOVLB  4
049A4:  CLRF   x6B
049A6:  MOVLB  0
049A8:  RCALL  48E4
....................       i2c_write(SlaveA0Tx[i]); // Dato a transmitir 
049AA:  MOVLW  64
049AC:  MOVLB  3
049AE:  ADDWF  xA3,W
049B0:  MOVWF  FE9
049B2:  MOVLW  00
049B4:  ADDWFC xA4,W
049B6:  MOVWF  FEA
049B8:  MOVFF  FEF,45F
049BC:  MOVFF  45F,46B
049C0:  MOVLB  0
049C2:  RCALL  48E4
....................       i2c_stop();  
049C4:  BCF    F94.4
049C6:  NOP   
049C8:  BSF    F94.3
049CA:  BTFSS  F82.3
049CC:  BRA    49CA
049CE:  MOVLW  05
049D0:  MOVWF  00
049D2:  DECFSZ 00,F
049D4:  BRA    49D2
049D6:  BRA    49D8
049D8:  NOP   
049DA:  BSF    F94.4
049DC:  MOVLW  05
049DE:  MOVWF  00
049E0:  DECFSZ 00,F
049E2:  BRA    49E0
....................       //Envio_I2C(direccion,i,SlaveB0Tx[i]); 
....................    }  
049E4:  MOVLB  3
049E6:  INCF   xA3,F
049E8:  BTFSC  FD8.2
049EA:  INCF   xA4,F
049EC:  BRA    4962
.................... } 
049EE:  MOVLB  0
049F0:  RETLW  00
.................... void Lectura_Esclavos(void){ 
....................    //for(i=0;i<7;i++) 
....................    //{ 
....................    //   direccion=0xA0;                        //Direccin en el bus I2c 
....................    //   posicion=i;                         //Posicin de memoria a leer 
....................    //   Lectura_I2C(direccion, posicion, dato);    //Lectura por I2C 
....................    //   txbuf[i]=(int8)dato; 
....................    //} 
....................    //Lee_Vector(); 
.................... } 
....................  
.................... void LeeEEPROM(){ 
.................... //Lectura EEPROM//-------------------------- 
....................    Testerilizacionp[0]=read_eeprom(0); 
*
01EC2:  MOVFF  FF2,44A
01EC6:  BCF    FF2.6
01EC8:  BCF    FF2.7
01ECA:  CLRF   FAA
01ECC:  CLRF   FA9
01ECE:  BCF    FA6.6
01ED0:  BCF    FA6.7
01ED2:  BSF    FA6.0
01ED4:  MOVF   FA8,W
01ED6:  MOVLB  4
01ED8:  BTFSC  x4A.6
01EDA:  BSF    FF2.6
01EDC:  BTFSC  x4A.7
01EDE:  BSF    FF2.7
01EE0:  MOVLB  0
01EE2:  MOVWF  xB6
....................    delay_ms(10); 
01EE4:  MOVLW  0A
01EE6:  MOVLB  4
01EE8:  MOVWF  x63
01EEA:  MOVLB  0
01EEC:  RCALL  1A6C
....................    Testerilizacionp[1]=read_eeprom(1); 
01EEE:  MOVFF  FF2,44A
01EF2:  BCF    FF2.6
01EF4:  BCF    FF2.7
01EF6:  CLRF   FAA
01EF8:  MOVLW  01
01EFA:  MOVWF  FA9
01EFC:  BCF    FA6.6
01EFE:  BCF    FA6.7
01F00:  BSF    FA6.0
01F02:  MOVF   FA8,W
01F04:  MOVLB  4
01F06:  BTFSC  x4A.6
01F08:  BSF    FF2.6
01F0A:  BTFSC  x4A.7
01F0C:  BSF    FF2.7
01F0E:  MOVLB  0
01F10:  MOVWF  xB7
....................    delay_ms(10); 
01F12:  MOVLW  0A
01F14:  MOVLB  4
01F16:  MOVWF  x63
01F18:  MOVLB  0
01F1A:  RCALL  1A6C
....................    Testerilizacionp[2]=read_eeprom(2); 
01F1C:  MOVFF  FF2,44A
01F20:  BCF    FF2.6
01F22:  BCF    FF2.7
01F24:  CLRF   FAA
01F26:  MOVLW  02
01F28:  MOVWF  FA9
01F2A:  BCF    FA6.6
01F2C:  BCF    FA6.7
01F2E:  BSF    FA6.0
01F30:  MOVF   FA8,W
01F32:  MOVLB  4
01F34:  BTFSC  x4A.6
01F36:  BSF    FF2.6
01F38:  BTFSC  x4A.7
01F3A:  BSF    FF2.7
01F3C:  MOVLB  0
01F3E:  MOVWF  xB8
....................    delay_ms(10); 
01F40:  MOVLW  0A
01F42:  MOVLB  4
01F44:  MOVWF  x63
01F46:  MOVLB  0
01F48:  RCALL  1A6C
....................    Testerilizacionp[3]=read_eeprom(3); 
01F4A:  MOVFF  FF2,44A
01F4E:  BCF    FF2.6
01F50:  BCF    FF2.7
01F52:  CLRF   FAA
01F54:  MOVLW  03
01F56:  MOVWF  FA9
01F58:  BCF    FA6.6
01F5A:  BCF    FA6.7
01F5C:  BSF    FA6.0
01F5E:  MOVF   FA8,W
01F60:  MOVLB  4
01F62:  BTFSC  x4A.6
01F64:  BSF    FF2.6
01F66:  BTFSC  x4A.7
01F68:  BSF    FF2.7
01F6A:  MOVLB  0
01F6C:  MOVWF  xB9
....................    delay_ms(10); 
01F6E:  MOVLW  0A
01F70:  MOVLB  4
01F72:  MOVWF  x63
01F74:  MOVLB  0
01F76:  RCALL  1A6C
....................    Tsecadop[0]=read_eeprom(4); 
01F78:  MOVFF  FF2,44A
01F7C:  BCF    FF2.6
01F7E:  BCF    FF2.7
01F80:  CLRF   FAA
01F82:  MOVLW  04
01F84:  MOVWF  FA9
01F86:  BCF    FA6.6
01F88:  BCF    FA6.7
01F8A:  BSF    FA6.0
01F8C:  MOVF   FA8,W
01F8E:  MOVLB  4
01F90:  BTFSC  x4A.6
01F92:  BSF    FF2.6
01F94:  BTFSC  x4A.7
01F96:  BSF    FF2.7
01F98:  MOVLB  0
01F9A:  MOVWF  xBF
....................    delay_ms(10); 
01F9C:  MOVLW  0A
01F9E:  MOVLB  4
01FA0:  MOVWF  x63
01FA2:  MOVLB  0
01FA4:  RCALL  1A6C
....................    Tsecadop[1]=read_eeprom(5); 
01FA6:  MOVFF  FF2,44A
01FAA:  BCF    FF2.6
01FAC:  BCF    FF2.7
01FAE:  CLRF   FAA
01FB0:  MOVLW  05
01FB2:  MOVWF  FA9
01FB4:  BCF    FA6.6
01FB6:  BCF    FA6.7
01FB8:  BSF    FA6.0
01FBA:  MOVF   FA8,W
01FBC:  MOVLB  4
01FBE:  BTFSC  x4A.6
01FC0:  BSF    FF2.6
01FC2:  BTFSC  x4A.7
01FC4:  BSF    FF2.7
01FC6:  MOVLB  0
01FC8:  MOVWF  xC0
....................    delay_ms(10); 
01FCA:  MOVLW  0A
01FCC:  MOVLB  4
01FCE:  MOVWF  x63
01FD0:  MOVLB  0
01FD2:  RCALL  1A6C
....................    Tsecadop[2]=read_eeprom(6); 
01FD4:  MOVFF  FF2,44A
01FD8:  BCF    FF2.6
01FDA:  BCF    FF2.7
01FDC:  CLRF   FAA
01FDE:  MOVLW  06
01FE0:  MOVWF  FA9
01FE2:  BCF    FA6.6
01FE4:  BCF    FA6.7
01FE6:  BSF    FA6.0
01FE8:  MOVF   FA8,W
01FEA:  MOVLB  4
01FEC:  BTFSC  x4A.6
01FEE:  BSF    FF2.6
01FF0:  BTFSC  x4A.7
01FF2:  BSF    FF2.7
01FF4:  MOVLB  0
01FF6:  MOVWF  xC1
....................    delay_ms(10); 
01FF8:  MOVLW  0A
01FFA:  MOVLB  4
01FFC:  MOVWF  x63
01FFE:  MOVLB  0
02000:  RCALL  1A6C
....................    Tsecadop[3]=read_eeprom(7); 
02002:  MOVFF  FF2,44A
02006:  BCF    FF2.6
02008:  BCF    FF2.7
0200A:  CLRF   FAA
0200C:  MOVLW  07
0200E:  MOVWF  FA9
02010:  BCF    FA6.6
02012:  BCF    FA6.7
02014:  BSF    FA6.0
02016:  MOVF   FA8,W
02018:  MOVLB  4
0201A:  BTFSC  x4A.6
0201C:  BSF    FF2.6
0201E:  BTFSC  x4A.7
02020:  BSF    FF2.7
02022:  MOVLB  0
02024:  MOVWF  xC2
....................    delay_ms(10); 
02026:  MOVLW  0A
02028:  MOVLB  4
0202A:  MOVWF  x63
0202C:  MOVLB  0
0202E:  RCALL  1A6C
....................    Setpoint=read_eeprom(8); 
02030:  MOVFF  FF2,44A
02034:  BCF    FF2.6
02036:  BCF    FF2.7
02038:  CLRF   FAA
0203A:  MOVLW  08
0203C:  MOVWF  FA9
0203E:  BCF    FA6.6
02040:  BCF    FA6.7
02042:  BSF    FA6.0
02044:  MOVF   FA8,W
02046:  MOVLB  4
02048:  BTFSC  x4A.6
0204A:  BSF    FF2.6
0204C:  BTFSC  x4A.7
0204E:  BSF    FF2.7
02050:  MOVLB  3
02052:  MOVWF  x62
....................    delay_ms(10); 
02054:  MOVLW  0A
02056:  MOVLB  4
02058:  MOVWF  x63
0205A:  MOVLB  0
0205C:  RCALL  1A6C
....................    Nivel=read_eeprom(9); 
0205E:  MOVFF  FF2,44A
02062:  BCF    FF2.6
02064:  BCF    FF2.7
02066:  CLRF   FAA
02068:  MOVLW  09
0206A:  MOVWF  FA9
0206C:  BCF    FA6.6
0206E:  BCF    FA6.7
02070:  BSF    FA6.0
02072:  MOVF   FA8,W
02074:  MOVLB  4
02076:  BTFSC  x4A.6
02078:  BSF    FF2.6
0207A:  BTFSC  x4A.7
0207C:  BSF    FF2.7
0207E:  MOVLB  3
02080:  CLRF   x71
02082:  MOVWF  x70
....................    delay_ms(10); 
02084:  MOVLW  0A
02086:  MOVLB  4
02088:  MOVWF  x63
0208A:  MOVLB  0
0208C:  RCALL  1A6C
....................    Password[0]=read_eeprom(10); 
0208E:  MOVFF  FF2,44A
02092:  BCF    FF2.6
02094:  BCF    FF2.7
02096:  CLRF   FAA
02098:  MOVLW  0A
0209A:  MOVWF  FA9
0209C:  BCF    FA6.6
0209E:  BCF    FA6.7
020A0:  BSF    FA6.0
020A2:  MOVF   FA8,W
020A4:  MOVLB  4
020A6:  BTFSC  x4A.6
020A8:  BSF    FF2.6
020AA:  BTFSC  x4A.7
020AC:  BSF    FF2.7
020AE:  MOVLB  3
020B0:  MOVWF  x88
....................    delay_ms(10); 
020B2:  MOVLW  0A
020B4:  MOVLB  4
020B6:  MOVWF  x63
020B8:  MOVLB  0
020BA:  RCALL  1A6C
....................    Password[1]=read_eeprom(11); 
020BC:  MOVFF  FF2,44A
020C0:  BCF    FF2.6
020C2:  BCF    FF2.7
020C4:  CLRF   FAA
020C6:  MOVLW  0B
020C8:  MOVWF  FA9
020CA:  BCF    FA6.6
020CC:  BCF    FA6.7
020CE:  BSF    FA6.0
020D0:  MOVF   FA8,W
020D2:  MOVLB  4
020D4:  BTFSC  x4A.6
020D6:  BSF    FF2.6
020D8:  BTFSC  x4A.7
020DA:  BSF    FF2.7
020DC:  MOVLB  3
020DE:  MOVWF  x89
....................    delay_ms(10); 
020E0:  MOVLW  0A
020E2:  MOVLB  4
020E4:  MOVWF  x63
020E6:  MOVLB  0
020E8:  RCALL  1A6C
....................    Password[2]=read_eeprom(12); 
020EA:  MOVFF  FF2,44A
020EE:  BCF    FF2.6
020F0:  BCF    FF2.7
020F2:  CLRF   FAA
020F4:  MOVLW  0C
020F6:  MOVWF  FA9
020F8:  BCF    FA6.6
020FA:  BCF    FA6.7
020FC:  BSF    FA6.0
020FE:  MOVF   FA8,W
02100:  MOVLB  4
02102:  BTFSC  x4A.6
02104:  BSF    FF2.6
02106:  BTFSC  x4A.7
02108:  BSF    FF2.7
0210A:  MOVLB  3
0210C:  MOVWF  x8A
....................    delay_ms(10); 
0210E:  MOVLW  0A
02110:  MOVLB  4
02112:  MOVWF  x63
02114:  MOVLB  0
02116:  RCALL  1A6C
....................    Password[3]=read_eeprom(13); 
02118:  MOVFF  FF2,44A
0211C:  BCF    FF2.6
0211E:  BCF    FF2.7
02120:  CLRF   FAA
02122:  MOVLW  0D
02124:  MOVWF  FA9
02126:  BCF    FA6.6
02128:  BCF    FA6.7
0212A:  BSF    FA6.0
0212C:  MOVF   FA8,W
0212E:  MOVLB  4
02130:  BTFSC  x4A.6
02132:  BSF    FF2.6
02134:  BTFSC  x4A.7
02136:  BSF    FF2.7
02138:  MOVLB  3
0213A:  MOVWF  x8B
....................    delay_ms(10); 
0213C:  MOVLW  0A
0213E:  MOVLB  4
02140:  MOVWF  x63
02142:  MOVLB  0
02144:  RCALL  1A6C
....................    Ganancia=read_eeprom(20); 
02146:  MOVFF  FF2,44A
0214A:  BCF    FF2.6
0214C:  BCF    FF2.7
0214E:  CLRF   FAA
02150:  MOVLW  14
02152:  MOVWF  FA9
02154:  BCF    FA6.6
02156:  BCF    FA6.7
02158:  BSF    FA6.0
0215A:  MOVF   FA8,W
0215C:  MOVLB  4
0215E:  BTFSC  x4A.6
02160:  BSF    FF2.6
02162:  BTFSC  x4A.7
02164:  BSF    FF2.7
02166:  CLRF   x60
02168:  MOVWF  x5F
0216A:  MOVLB  0
0216C:  RCALL  1A94
0216E:  MOVFF  03,307
02172:  MOVFF  02,306
02176:  MOVFF  01,305
0217A:  MOVFF  00,304
....................    delay_ms(10); 
0217E:  MOVLW  0A
02180:  MOVLB  4
02182:  MOVWF  x63
02184:  MOVLB  0
02186:  RCALL  1A6C
....................    Ajuste=read_eeprom(21); 
02188:  MOVFF  FF2,44A
0218C:  BCF    FF2.6
0218E:  BCF    FF2.7
02190:  CLRF   FAA
02192:  MOVLW  15
02194:  MOVWF  FA9
02196:  BCF    FA6.6
02198:  BCF    FA6.7
0219A:  BSF    FA6.0
0219C:  MOVF   FA8,W
0219E:  MOVLB  4
021A0:  BTFSC  x4A.6
021A2:  BSF    FF2.6
021A4:  BTFSC  x4A.7
021A6:  BSF    FF2.7
021A8:  MOVLB  2
021AA:  MOVWF  xD9
....................    delay_ms(10); 
021AC:  MOVLW  0A
021AE:  MOVLB  4
021B0:  MOVWF  x63
021B2:  MOVLB  0
021B4:  RCALL  1A6C
....................    Ajusten=read_eeprom(22); 
021B6:  MOVFF  FF2,44A
021BA:  BCF    FF2.6
021BC:  BCF    FF2.7
021BE:  CLRF   FAA
021C0:  MOVLW  16
021C2:  MOVWF  FA9
021C4:  BCF    FA6.6
021C6:  BCF    FA6.7
021C8:  BSF    FA6.0
021CA:  MOVF   FA8,W
021CC:  MOVLB  4
021CE:  BTFSC  x4A.6
021D0:  BSF    FF2.6
021D2:  BTFSC  x4A.7
021D4:  BSF    FF2.7
021D6:  MOVLB  2
021D8:  MOVWF  xDA
....................    delay_ms(10); 
021DA:  MOVLW  0A
021DC:  MOVLB  4
021DE:  MOVWF  x63
021E0:  MOVLB  0
021E2:  RCALL  1A6C
....................    //Desvio=read_eeprom(23); 
....................    MediaMovil=read_eeprom(24); 
021E4:  MOVFF  FF2,44A
021E8:  BCF    FF2.6
021EA:  BCF    FF2.7
021EC:  CLRF   FAA
021EE:  MOVLW  18
021F0:  MOVWF  FA9
021F2:  BCF    FA6.6
021F4:  BCF    FA6.7
021F6:  BSF    FA6.0
021F8:  MOVF   FA8,W
021FA:  MOVLB  4
021FC:  BTFSC  x4A.6
021FE:  BSF    FF2.6
02200:  BTFSC  x4A.7
02202:  BSF    FF2.7
02204:  MOVLB  2
02206:  MOVWF  xDB
....................    delay_ms(10); 
02208:  MOVLW  0A
0220A:  MOVLB  4
0220C:  MOVWF  x63
0220E:  MOVLB  0
02210:  RCALL  1A6C
....................    Tciclo=read_eeprom(25); 
02212:  MOVFF  FF2,44A
02216:  BCF    FF2.6
02218:  BCF    FF2.7
0221A:  CLRF   FAA
0221C:  MOVLW  19
0221E:  MOVWF  FA9
02220:  BCF    FA6.6
02222:  BCF    FA6.7
02224:  BSF    FA6.0
02226:  MOVF   FA8,W
02228:  MOVLB  4
0222A:  BTFSC  x4A.6
0222C:  BSF    FF2.6
0222E:  BTFSC  x4A.7
02230:  BSF    FF2.7
02232:  CLRF   x60
02234:  MOVWF  x5F
02236:  MOVLB  0
02238:  RCALL  1A94
0223A:  MOVFF  03,2EF
0223E:  MOVFF  02,2EE
02242:  MOVFF  01,2ED
02246:  MOVFF  00,2EC
....................    delay_ms(10); 
0224A:  MOVLW  0A
0224C:  MOVLB  4
0224E:  MOVWF  x63
02250:  MOVLB  0
02252:  RCALL  1A6C
....................    Integral=read_eeprom(26); 
02254:  MOVFF  FF2,44A
02258:  BCF    FF2.6
0225A:  BCF    FF2.7
0225C:  CLRF   FAA
0225E:  MOVLW  1A
02260:  MOVWF  FA9
02262:  BCF    FA6.6
02264:  BCF    FA6.7
02266:  BSF    FA6.0
02268:  MOVF   FA8,W
0226A:  MOVLB  4
0226C:  BTFSC  x4A.6
0226E:  BSF    FF2.6
02270:  BTFSC  x4A.7
02272:  BSF    FF2.7
02274:  MOVLB  3
02276:  MOVWF  x38
....................    delay_ms(10); 
02278:  MOVLW  0A
0227A:  MOVLB  4
0227C:  MOVWF  x63
0227E:  MOVLB  0
02280:  CALL   1A6C
....................    Derivativo=read_eeprom(27); 
02284:  MOVFF  FF2,44A
02288:  BCF    FF2.6
0228A:  BCF    FF2.7
0228C:  CLRF   FAA
0228E:  MOVLW  1B
02290:  MOVWF  FA9
02292:  BCF    FA6.6
02294:  BCF    FA6.7
02296:  BSF    FA6.0
02298:  MOVF   FA8,W
0229A:  MOVLB  4
0229C:  BTFSC  x4A.6
0229E:  BSF    FF2.6
022A0:  BTFSC  x4A.7
022A2:  BSF    FF2.7
022A4:  MOVLB  3
022A6:  MOVWF  x39
....................    delay_ms(10); 
022A8:  MOVLW  0A
022AA:  MOVLB  4
022AC:  MOVWF  x63
022AE:  MOVLB  0
022B0:  CALL   1A6C
....................    Temporal=read_eeprom(29); 
022B4:  MOVFF  FF2,44A
022B8:  BCF    FF2.6
022BA:  BCF    FF2.7
022BC:  CLRF   FAA
022BE:  MOVLW  1D
022C0:  MOVWF  FA9
022C2:  BCF    FA6.6
022C4:  BCF    FA6.7
022C6:  BSF    FA6.0
022C8:  MOVF   FA8,W
022CA:  MOVLB  4
022CC:  BTFSC  x4A.6
022CE:  BSF    FF2.6
022D0:  BTFSC  x4A.7
022D2:  BSF    FF2.7
022D4:  CLRF   x60
022D6:  MOVWF  x5F
022D8:  MOVLB  0
022DA:  CALL   1A94
022DE:  MOVFF  03,2AE
022E2:  MOVFF  02,2AD
022E6:  MOVFF  01,2AC
022EA:  MOVFF  00,2AB
....................    Temporal=Temporal/10.0; 
022EE:  MOVFF  2AE,456
022F2:  MOVFF  2AD,455
022F6:  MOVFF  2AC,454
022FA:  MOVFF  2AB,453
022FE:  MOVLB  4
02300:  CLRF   x5A
02302:  CLRF   x59
02304:  MOVLW  20
02306:  MOVWF  x58
02308:  MOVLW  82
0230A:  MOVWF  x57
0230C:  MOVLB  0
0230E:  CALL   1ACA
02312:  MOVFF  03,2AE
02316:  MOVFF  02,2AD
0231A:  MOVFF  01,2AC
0231E:  MOVFF  00,2AB
....................    delay_ms(10); 
02322:  MOVLW  0A
02324:  MOVLB  4
02326:  MOVWF  x63
02328:  MOVLB  0
0232A:  CALL   1A6C
....................    Gain=read_eeprom(28)+Temporal; 
0232E:  MOVFF  FF2,44A
02332:  BCF    FF2.6
02334:  BCF    FF2.7
02336:  CLRF   FAA
02338:  MOVLW  1C
0233A:  MOVWF  FA9
0233C:  BCF    FA6.6
0233E:  BCF    FA6.7
02340:  BSF    FA6.0
02342:  MOVF   FA8,W
02344:  MOVLB  4
02346:  BTFSC  x4A.6
02348:  BSF    FF2.6
0234A:  BTFSC  x4A.7
0234C:  BSF    FF2.7
0234E:  CLRF   x60
02350:  MOVWF  x5F
02352:  MOVLB  0
02354:  CALL   1A94
02358:  BCF    FD8.1
0235A:  MOVFF  03,462
0235E:  MOVFF  02,461
02362:  MOVFF  01,460
02366:  MOVFF  00,45F
0236A:  MOVFF  2AE,466
0236E:  MOVFF  2AD,465
02372:  MOVFF  2AC,464
02376:  MOVFF  2AB,463
0237A:  RCALL  1C28
0237C:  MOVFF  03,2A6
02380:  MOVFF  02,2A5
02384:  MOVFF  01,2A4
02388:  MOVFF  00,2A3
....................    delay_ms(10); 
0238C:  MOVLW  0A
0238E:  MOVLB  4
02390:  MOVWF  x63
02392:  MOVLB  0
02394:  CALL   1A6C
....................    R1=make16(read_eeprom(31),read_eeprom(30)); 
02398:  MOVFF  FF2,44A
0239C:  BCF    FF2.6
0239E:  BCF    FF2.7
023A0:  CLRF   FAA
023A2:  MOVLW  1F
023A4:  MOVWF  FA9
023A6:  BCF    FA6.6
023A8:  BCF    FA6.7
023AA:  BSF    FA6.0
023AC:  MOVF   FA8,W
023AE:  MOVLB  4
023B0:  BTFSC  x4A.6
023B2:  BSF    FF2.6
023B4:  BTFSC  x4A.7
023B6:  BSF    FF2.7
023B8:  MOVWF  x4B
023BA:  MOVFF  FF2,44C
023BE:  BCF    FF2.6
023C0:  BCF    FF2.7
023C2:  CLRF   FAA
023C4:  MOVLW  1E
023C6:  MOVWF  FA9
023C8:  BCF    FA6.6
023CA:  BCF    FA6.7
023CC:  BSF    FA6.0
023CE:  MOVF   FA8,W
023D0:  BTFSC  x4C.6
023D2:  BSF    FF2.6
023D4:  BTFSC  x4C.7
023D6:  BSF    FF2.7
023D8:  MOVWF  x4D
023DA:  MOVFF  44B,03
023DE:  MOVF   x4D,W
023E0:  MOVWF  x5F
023E2:  MOVFF  03,460
023E6:  MOVLB  0
023E8:  CALL   1A94
023EC:  MOVFF  03,2B2
023F0:  MOVFF  02,2B1
023F4:  MOVFF  01,2B0
023F8:  MOVFF  00,2AF
....................    delay_ms(10); 
023FC:  MOVLW  0A
023FE:  MOVLB  4
02400:  MOVWF  x63
02402:  MOVLB  0
02404:  CALL   1A6C
....................    Temporal=read_eeprom(33); 
02408:  MOVFF  FF2,44A
0240C:  BCF    FF2.6
0240E:  BCF    FF2.7
02410:  CLRF   FAA
02412:  MOVLW  21
02414:  MOVWF  FA9
02416:  BCF    FA6.6
02418:  BCF    FA6.7
0241A:  BSF    FA6.0
0241C:  MOVF   FA8,W
0241E:  MOVLB  4
02420:  BTFSC  x4A.6
02422:  BSF    FF2.6
02424:  BTFSC  x4A.7
02426:  BSF    FF2.7
02428:  CLRF   x60
0242A:  MOVWF  x5F
0242C:  MOVLB  0
0242E:  CALL   1A94
02432:  MOVFF  03,2AE
02436:  MOVFF  02,2AD
0243A:  MOVFF  01,2AC
0243E:  MOVFF  00,2AB
....................    Temporal=Temporal/10.0; 
02442:  MOVFF  2AE,456
02446:  MOVFF  2AD,455
0244A:  MOVFF  2AC,454
0244E:  MOVFF  2AB,453
02452:  MOVLB  4
02454:  CLRF   x5A
02456:  CLRF   x59
02458:  MOVLW  20
0245A:  MOVWF  x58
0245C:  MOVLW  82
0245E:  MOVWF  x57
02460:  MOVLB  0
02462:  CALL   1ACA
02466:  MOVFF  03,2AE
0246A:  MOVFF  02,2AD
0246E:  MOVFF  01,2AC
02472:  MOVFF  00,2AB
....................    delay_ms(10); 
02476:  MOVLW  0A
02478:  MOVLB  4
0247A:  MOVWF  x63
0247C:  MOVLB  0
0247E:  CALL   1A6C
....................    RPT100=read_eeprom(32)+Temporal; 
02482:  MOVFF  FF2,44A
02486:  BCF    FF2.6
02488:  BCF    FF2.7
0248A:  CLRF   FAA
0248C:  MOVLW  20
0248E:  MOVWF  FA9
02490:  BCF    FA6.6
02492:  BCF    FA6.7
02494:  BSF    FA6.0
02496:  MOVF   FA8,W
02498:  MOVLB  4
0249A:  BTFSC  x4A.6
0249C:  BSF    FF2.6
0249E:  BTFSC  x4A.7
024A0:  BSF    FF2.7
024A2:  CLRF   x60
024A4:  MOVWF  x5F
024A6:  MOVLB  0
024A8:  CALL   1A94
024AC:  BCF    FD8.1
024AE:  MOVFF  03,462
024B2:  MOVFF  02,461
024B6:  MOVFF  01,460
024BA:  MOVFF  00,45F
024BE:  MOVFF  2AE,466
024C2:  MOVFF  2AD,465
024C6:  MOVFF  2AC,464
024CA:  MOVFF  2AB,463
024CE:  CALL   1C28
024D2:  MOVFF  03,2AA
024D6:  MOVFF  02,2A9
024DA:  MOVFF  01,2A8
024DE:  MOVFF  00,2A7
....................    delay_ms(10); 
024E2:  MOVLW  0A
024E4:  MOVLB  4
024E6:  MOVWF  x63
024E8:  MOVLB  0
024EA:  CALL   1A6C
....................    CiclosL=read_eeprom(37); 
024EE:  MOVFF  FF2,44A
024F2:  BCF    FF2.6
024F4:  BCF    FF2.7
024F6:  CLRF   FAA
024F8:  MOVLW  25
024FA:  MOVWF  FA9
024FC:  BCF    FA6.6
024FE:  BCF    FA6.7
02500:  BSF    FA6.0
02502:  MOVF   FA8,W
02504:  MOVLB  4
02506:  BTFSC  x4A.6
02508:  BSF    FF2.6
0250A:  BTFSC  x4A.7
0250C:  BSF    FF2.7
0250E:  MOVLB  3
02510:  MOVWF  x5F
....................    delay_ms(10); 
02512:  MOVLW  0A
02514:  MOVLB  4
02516:  MOVWF  x63
02518:  MOVLB  0
0251A:  CALL   1A6C
....................    CiclosH=read_eeprom(38); 
0251E:  MOVFF  FF2,44A
02522:  BCF    FF2.6
02524:  BCF    FF2.7
02526:  CLRF   FAA
02528:  MOVLW  26
0252A:  MOVWF  FA9
0252C:  BCF    FA6.6
0252E:  BCF    FA6.7
02530:  BSF    FA6.0
02532:  MOVF   FA8,W
02534:  MOVLB  4
02536:  BTFSC  x4A.6
02538:  BSF    FF2.6
0253A:  BTFSC  x4A.7
0253C:  BSF    FF2.7
0253E:  MOVLB  3
02540:  MOVWF  x60
....................    delay_ms(10); 
02542:  MOVLW  0A
02544:  MOVLB  4
02546:  MOVWF  x63
02548:  MOVLB  0
0254A:  CALL   1A6C
....................    Ciclos=make16(CiclosH,CiclosL); 
0254E:  MOVFF  360,379
02552:  MOVFF  35F,378
....................    delay_ms(10); 
02556:  MOVLW  0A
02558:  MOVLB  4
0255A:  MOVWF  x63
0255C:  MOVLB  0
0255E:  CALL   1A6C
....................    TTrampa=read_eeprom(39); 
02562:  MOVFF  FF2,44A
02566:  BCF    FF2.6
02568:  BCF    FF2.7
0256A:  CLRF   FAA
0256C:  MOVLW  27
0256E:  MOVWF  FA9
02570:  BCF    FA6.6
02572:  BCF    FA6.7
02574:  BSF    FA6.0
02576:  MOVF   FA8,W
02578:  MOVLB  4
0257A:  BTFSC  x4A.6
0257C:  BSF    FF2.6
0257E:  BTFSC  x4A.7
02580:  BSF    FF2.7
02582:  MOVLB  2
02584:  MOVWF  xDC
....................    delay_ms(10); 
02586:  MOVLW  0A
02588:  MOVLB  4
0258A:  MOVWF  x63
0258C:  MOVLB  0
0258E:  CALL   1A6C
....................    ActivaImpresion=read_eeprom(40); 
02592:  MOVFF  FF2,44A
02596:  BCF    FF2.6
02598:  BCF    FF2.7
0259A:  CLRF   FAA
0259C:  MOVLW  28
0259E:  MOVWF  FA9
025A0:  BCF    FA6.6
025A2:  BCF    FA6.7
025A4:  BSF    FA6.0
025A6:  MOVF   FA8,W
025A8:  MOVLB  4
025AA:  BTFSC  x4A.6
025AC:  BSF    FF2.6
025AE:  BTFSC  x4A.7
025B0:  BSF    FF2.7
025B2:  MOVLB  3
025B4:  MOVWF  x55
....................    delay_ms(10); 
025B6:  MOVLW  0A
025B8:  MOVLB  4
025BA:  MOVWF  x63
025BC:  MOVLB  0
025BE:  CALL   1A6C
....................    timpresion=read_eeprom(41); 
025C2:  MOVFF  FF2,44A
025C6:  BCF    FF2.6
025C8:  BCF    FF2.7
025CA:  CLRF   FAA
025CC:  MOVLW  29
025CE:  MOVWF  FA9
025D0:  BCF    FA6.6
025D2:  BCF    FA6.7
025D4:  BSF    FA6.0
025D6:  MOVF   FA8,W
025D8:  MOVLB  4
025DA:  BTFSC  x4A.6
025DC:  BSF    FF2.6
025DE:  BTFSC  x4A.7
025E0:  BSF    FF2.7
025E2:  MOVLB  3
025E4:  MOVWF  x56
....................    delay_ms(10); 
025E6:  MOVLW  0A
025E8:  MOVLB  4
025EA:  MOVWF  x63
025EC:  MOVLB  0
025EE:  CALL   1A6C
....................    G1=read_eeprom(42); 
025F2:  MOVFF  FF2,44A
025F6:  BCF    FF2.6
025F8:  BCF    FF2.7
025FA:  CLRF   FAA
025FC:  MOVLW  2A
025FE:  MOVWF  FA9
02600:  BCF    FA6.6
02602:  BCF    FA6.7
02604:  BSF    FA6.0
02606:  MOVF   FA8,W
02608:  MOVLB  4
0260A:  BTFSC  x4A.6
0260C:  BSF    FF2.6
0260E:  BTFSC  x4A.7
02610:  BSF    FF2.7
02612:  MOVLB  3
02614:  MOVWF  xBA
....................    delay_ms(10); 
02616:  MOVLW  0A
02618:  MOVLB  4
0261A:  MOVWF  x63
0261C:  MOVLB  0
0261E:  CALL   1A6C
....................    G2=read_eeprom(43); 
02622:  MOVFF  FF2,44A
02626:  BCF    FF2.6
02628:  BCF    FF2.7
0262A:  CLRF   FAA
0262C:  MOVLW  2B
0262E:  MOVWF  FA9
02630:  BCF    FA6.6
02632:  BCF    FA6.7
02634:  BSF    FA6.0
02636:  MOVF   FA8,W
02638:  MOVLB  4
0263A:  BTFSC  x4A.6
0263C:  BSF    FF2.6
0263E:  BTFSC  x4A.7
02640:  BSF    FF2.7
02642:  MOVLB  3
02644:  MOVWF  xBB
....................    delay_ms(10); 
02646:  MOVLW  0A
02648:  MOVLB  4
0264A:  MOVWF  x63
0264C:  MOVLB  0
0264E:  CALL   1A6C
....................    sg1=read_eeprom(44); 
02652:  MOVFF  FF2,44A
02656:  BCF    FF2.6
02658:  BCF    FF2.7
0265A:  CLRF   FAA
0265C:  MOVLW  2C
0265E:  MOVWF  FA9
02660:  BCF    FA6.6
02662:  BCF    FA6.7
02664:  BSF    FA6.0
02666:  MOVF   FA8,W
02668:  MOVLB  4
0266A:  BTFSC  x4A.6
0266C:  BSF    FF2.6
0266E:  BTFSC  x4A.7
02670:  BSF    FF2.7
02672:  MOVLB  3
02674:  MOVWF  xBC
....................    delay_ms(10); 
02676:  MOVLW  0A
02678:  MOVLB  4
0267A:  MOVWF  x63
0267C:  MOVLB  0
0267E:  CALL   1A6C
....................    sg2=read_eeprom(45); 
02682:  MOVFF  FF2,44A
02686:  BCF    FF2.6
02688:  BCF    FF2.7
0268A:  CLRF   FAA
0268C:  MOVLW  2D
0268E:  MOVWF  FA9
02690:  BCF    FA6.6
02692:  BCF    FA6.7
02694:  BSF    FA6.0
02696:  MOVF   FA8,W
02698:  MOVLB  4
0269A:  BTFSC  x4A.6
0269C:  BSF    FF2.6
0269E:  BTFSC  x4A.7
026A0:  BSF    FF2.7
026A2:  MOVLB  3
026A4:  MOVWF  xBD
....................    delay_ms(10); 
026A6:  MOVLW  0A
026A8:  MOVLB  4
026AA:  MOVWF  x63
026AC:  MOVLB  0
026AE:  CALL   1A6C
....................    Atmosferica=read_eeprom(46); 
026B2:  MOVFF  FF2,44A
026B6:  BCF    FF2.6
026B8:  BCF    FF2.7
026BA:  CLRF   FAA
026BC:  MOVLW  2E
026BE:  MOVWF  FA9
026C0:  BCF    FA6.6
026C2:  BCF    FA6.7
026C4:  BSF    FA6.0
026C6:  MOVF   FA8,W
026C8:  MOVLB  4
026CA:  BTFSC  x4A.6
026CC:  BSF    FF2.6
026CE:  BTFSC  x4A.7
026D0:  BSF    FF2.7
026D2:  MOVLB  3
026D4:  MOVWF  xB9
....................    delay_ms(10); 
026D6:  MOVLW  0A
026D8:  MOVLB  4
026DA:  MOVWF  x63
026DC:  MOVLB  0
026DE:  CALL   1A6C
....................    pulsosPurgaProgramados=read_eeprom(47); 
026E2:  MOVFF  FF2,44A
026E6:  BCF    FF2.6
026E8:  BCF    FF2.7
026EA:  CLRF   FAA
026EC:  MOVLW  2F
026EE:  MOVWF  FA9
026F0:  BCF    FA6.6
026F2:  BCF    FA6.7
026F4:  BSF    FA6.0
026F6:  MOVF   FA8,W
026F8:  MOVLB  4
026FA:  BTFSC  x4A.6
026FC:  BSF    FF2.6
026FE:  BTFSC  x4A.7
02700:  BSF    FF2.7
02702:  MOVLB  3
02704:  MOVWF  x3C
....................     
....................    for(i=0;i<4;i++){//Lee valores almacenados de ciclos personalizados 
02706:  CLRF   xA4
02708:  CLRF   xA3
0270A:  MOVF   xA4,F
0270C:  BTFSS  FD8.2
0270E:  GOTO   2F46
02712:  MOVF   xA3,W
02714:  SUBLW  03
02716:  BTFSS  FD8.0
02718:  GOTO   2F46
....................       CiclosPersonalizados[i].Temperatura=read_eeprom(100+(i*8));  
0271C:  MOVFF  3A4,466
02720:  MOVFF  3A3,465
02724:  MOVLB  4
02726:  CLRF   x68
02728:  MOVLW  0A
0272A:  MOVWF  x67
0272C:  MOVLB  0
0272E:  CALL   1EA0
02732:  MOVFF  02,44B
02736:  MOVFF  01,44A
0273A:  MOVLW  22
0273C:  MOVLB  4
0273E:  ADDWF  x4A,W
02740:  MOVWF  FE9
02742:  MOVLW  04
02744:  ADDWFC x4B,W
02746:  MOVWF  FEA
02748:  MOVLB  3
0274A:  RLCF   xA3,W
0274C:  MOVWF  02
0274E:  RLCF   xA4,W
02750:  MOVWF  03
02752:  RLCF   02,F
02754:  RLCF   03,F
02756:  RLCF   02,F
02758:  RLCF   03,F
0275A:  MOVLW  F8
0275C:  ANDWF  02,F
0275E:  MOVF   02,W
02760:  ADDLW  64
02762:  MOVLB  4
02764:  MOVWF  x4C
02766:  MOVLW  00
02768:  ADDWFC 03,W
0276A:  MOVWF  x4D
0276C:  MOVFF  FF2,44E
02770:  BCF    FF2.6
02772:  BCF    FF2.7
02774:  MOVFF  44D,FAA
02778:  MOVFF  44C,FA9
0277C:  BCF    FA6.6
0277E:  BCF    FA6.7
02780:  BSF    FA6.0
02782:  MOVF   FA8,W
02784:  BTFSC  x4E.6
02786:  BSF    FF2.6
02788:  BTFSC  x4E.7
0278A:  BSF    FF2.7
0278C:  MOVWF  FEF
....................       CiclosPersonalizados[i].MinutoestH=read_eeprom(101+(i*8));  
0278E:  MOVFF  3A4,466
02792:  MOVFF  3A3,465
02796:  CLRF   x68
02798:  MOVLW  0A
0279A:  MOVWF  x67
0279C:  MOVLB  0
0279E:  CALL   1EA0
027A2:  MOVFF  02,44B
027A6:  MOVFF  01,44A
027AA:  MOVLW  01
027AC:  MOVLB  4
027AE:  ADDWF  x4A,W
027B0:  MOVWF  01
027B2:  MOVLW  00
027B4:  ADDWFC x4B,W
027B6:  MOVWF  03
027B8:  MOVF   01,W
027BA:  ADDLW  22
027BC:  MOVWF  FE9
027BE:  MOVLW  04
027C0:  ADDWFC 03,W
027C2:  MOVWF  FEA
027C4:  MOVLB  3
027C6:  RLCF   xA3,W
027C8:  MOVWF  02
027CA:  RLCF   xA4,W
027CC:  MOVWF  03
027CE:  RLCF   02,F
027D0:  RLCF   03,F
027D2:  RLCF   02,F
027D4:  RLCF   03,F
027D6:  MOVLW  F8
027D8:  ANDWF  02,F
027DA:  MOVF   02,W
027DC:  ADDLW  65
027DE:  MOVLB  4
027E0:  MOVWF  x4C
027E2:  MOVLW  00
027E4:  ADDWFC 03,W
027E6:  MOVWF  x4D
027E8:  MOVFF  FF2,44E
027EC:  BCF    FF2.6
027EE:  BCF    FF2.7
027F0:  MOVFF  44D,FAA
027F4:  MOVFF  44C,FA9
027F8:  BCF    FA6.6
027FA:  BCF    FA6.7
027FC:  BSF    FA6.0
027FE:  MOVF   FA8,W
02800:  BTFSC  x4E.6
02802:  BSF    FF2.6
02804:  BTFSC  x4E.7
02806:  BSF    FF2.7
02808:  MOVWF  FEF
....................       CiclosPersonalizados[i].Minutoest=read_eeprom(102+(i*8));  
0280A:  MOVFF  3A4,466
0280E:  MOVFF  3A3,465
02812:  CLRF   x68
02814:  MOVLW  0A
02816:  MOVWF  x67
02818:  MOVLB  0
0281A:  CALL   1EA0
0281E:  MOVFF  02,44B
02822:  MOVFF  01,44A
02826:  MOVLW  09
02828:  MOVLB  4
0282A:  ADDWF  x4A,W
0282C:  MOVWF  01
0282E:  MOVLW  00
02830:  ADDWFC x4B,W
02832:  MOVWF  03
02834:  MOVF   01,W
02836:  ADDLW  22
02838:  MOVWF  FE9
0283A:  MOVLW  04
0283C:  ADDWFC 03,W
0283E:  MOVWF  FEA
02840:  MOVLB  3
02842:  RLCF   xA3,W
02844:  MOVWF  02
02846:  RLCF   xA4,W
02848:  MOVWF  03
0284A:  RLCF   02,F
0284C:  RLCF   03,F
0284E:  RLCF   02,F
02850:  RLCF   03,F
02852:  MOVLW  F8
02854:  ANDWF  02,F
02856:  MOVF   02,W
02858:  ADDLW  66
0285A:  MOVLB  4
0285C:  MOVWF  x4C
0285E:  MOVLW  00
02860:  ADDWFC 03,W
02862:  MOVWF  x4D
02864:  MOVFF  FF2,44E
02868:  BCF    FF2.6
0286A:  BCF    FF2.7
0286C:  MOVFF  44D,FAA
02870:  MOVFF  44C,FA9
02874:  BCF    FA6.6
02876:  BCF    FA6.7
02878:  BSF    FA6.0
0287A:  MOVF   FA8,W
0287C:  BTFSC  x4E.6
0287E:  BSF    FF2.6
02880:  BTFSC  x4E.7
02882:  BSF    FF2.7
02884:  MOVWF  FEF
....................       CiclosPersonalizados[i].Segundoest=read_eeprom(103+(i*8));  
02886:  MOVFF  3A4,466
0288A:  MOVFF  3A3,465
0288E:  CLRF   x68
02890:  MOVLW  0A
02892:  MOVWF  x67
02894:  MOVLB  0
02896:  CALL   1EA0
0289A:  MOVFF  02,44B
0289E:  MOVFF  01,44A
028A2:  MOVLW  03
028A4:  MOVLB  4
028A6:  ADDWF  x4A,W
028A8:  MOVWF  01
028AA:  MOVLW  00
028AC:  ADDWFC x4B,W
028AE:  MOVWF  03
028B0:  MOVF   01,W
028B2:  ADDLW  22
028B4:  MOVWF  FE9
028B6:  MOVLW  04
028B8:  ADDWFC 03,W
028BA:  MOVWF  FEA
028BC:  MOVLB  3
028BE:  RLCF   xA3,W
028C0:  MOVWF  02
028C2:  RLCF   xA4,W
028C4:  MOVWF  03
028C6:  RLCF   02,F
028C8:  RLCF   03,F
028CA:  RLCF   02,F
028CC:  RLCF   03,F
028CE:  MOVLW  F8
028D0:  ANDWF  02,F
028D2:  MOVF   02,W
028D4:  ADDLW  67
028D6:  MOVLB  4
028D8:  MOVWF  x4C
028DA:  MOVLW  00
028DC:  ADDWFC 03,W
028DE:  MOVWF  x4D
028E0:  MOVFF  FF2,44E
028E4:  BCF    FF2.6
028E6:  BCF    FF2.7
028E8:  MOVFF  44D,FAA
028EC:  MOVFF  44C,FA9
028F0:  BCF    FA6.6
028F2:  BCF    FA6.7
028F4:  BSF    FA6.0
028F6:  MOVF   FA8,W
028F8:  BTFSC  x4E.6
028FA:  BSF    FF2.6
028FC:  BTFSC  x4E.7
028FE:  BSF    FF2.7
02900:  MOVWF  FEF
....................       CiclosPersonalizados[i].Minutosec=read_eeprom(104+(i*8));  
02902:  MOVFF  3A4,466
02906:  MOVFF  3A3,465
0290A:  CLRF   x68
0290C:  MOVLW  0A
0290E:  MOVWF  x67
02910:  MOVLB  0
02912:  CALL   1EA0
02916:  MOVFF  02,44B
0291A:  MOVFF  01,44A
0291E:  MOVLW  04
02920:  MOVLB  4
02922:  ADDWF  x4A,W
02924:  MOVWF  01
02926:  MOVLW  00
02928:  ADDWFC x4B,W
0292A:  MOVWF  03
0292C:  MOVF   01,W
0292E:  ADDLW  22
02930:  MOVWF  FE9
02932:  MOVLW  04
02934:  ADDWFC 03,W
02936:  MOVWF  FEA
02938:  MOVLB  3
0293A:  RLCF   xA3,W
0293C:  MOVWF  02
0293E:  RLCF   xA4,W
02940:  MOVWF  03
02942:  RLCF   02,F
02944:  RLCF   03,F
02946:  RLCF   02,F
02948:  RLCF   03,F
0294A:  MOVLW  F8
0294C:  ANDWF  02,F
0294E:  MOVF   02,W
02950:  ADDLW  68
02952:  MOVLB  4
02954:  MOVWF  x4C
02956:  MOVLW  00
02958:  ADDWFC 03,W
0295A:  MOVWF  x4D
0295C:  MOVFF  FF2,44E
02960:  BCF    FF2.6
02962:  BCF    FF2.7
02964:  MOVFF  44D,FAA
02968:  MOVFF  44C,FA9
0296C:  BCF    FA6.6
0296E:  BCF    FA6.7
02970:  BSF    FA6.0
02972:  MOVF   FA8,W
02974:  BTFSC  x4E.6
02976:  BSF    FF2.6
02978:  BTFSC  x4E.7
0297A:  BSF    FF2.7
0297C:  MOVWF  FEF
....................       CiclosPersonalizados[i].Segundosec=read_eeprom(105+(i*8));  
0297E:  MOVFF  3A4,466
02982:  MOVFF  3A3,465
02986:  CLRF   x68
02988:  MOVLW  0A
0298A:  MOVWF  x67
0298C:  MOVLB  0
0298E:  CALL   1EA0
02992:  MOVFF  02,44B
02996:  MOVFF  01,44A
0299A:  MOVLW  05
0299C:  MOVLB  4
0299E:  ADDWF  x4A,W
029A0:  MOVWF  01
029A2:  MOVLW  00
029A4:  ADDWFC x4B,W
029A6:  MOVWF  03
029A8:  MOVF   01,W
029AA:  ADDLW  22
029AC:  MOVWF  FE9
029AE:  MOVLW  04
029B0:  ADDWFC 03,W
029B2:  MOVWF  FEA
029B4:  MOVLB  3
029B6:  RLCF   xA3,W
029B8:  MOVWF  02
029BA:  RLCF   xA4,W
029BC:  MOVWF  03
029BE:  RLCF   02,F
029C0:  RLCF   03,F
029C2:  RLCF   02,F
029C4:  RLCF   03,F
029C6:  MOVLW  F8
029C8:  ANDWF  02,F
029CA:  MOVF   02,W
029CC:  ADDLW  69
029CE:  MOVLB  4
029D0:  MOVWF  x4C
029D2:  MOVLW  00
029D4:  ADDWFC 03,W
029D6:  MOVWF  x4D
029D8:  MOVFF  FF2,44E
029DC:  BCF    FF2.6
029DE:  BCF    FF2.7
029E0:  MOVFF  44D,FAA
029E4:  MOVFF  44C,FA9
029E8:  BCF    FA6.6
029EA:  BCF    FA6.7
029EC:  BSF    FA6.0
029EE:  MOVF   FA8,W
029F0:  BTFSC  x4E.6
029F2:  BSF    FF2.6
029F4:  BTFSC  x4E.7
029F6:  BSF    FF2.7
029F8:  MOVWF  FEF
....................       CiclosPersonalizados[i].PulsosVacio=read_eeprom(106+(i*8));  
029FA:  MOVFF  3A4,466
029FE:  MOVFF  3A3,465
02A02:  CLRF   x68
02A04:  MOVLW  0A
02A06:  MOVWF  x67
02A08:  MOVLB  0
02A0A:  CALL   1EA0
02A0E:  MOVFF  02,44B
02A12:  MOVFF  01,44A
02A16:  MOVLW  06
02A18:  MOVLB  4
02A1A:  ADDWF  x4A,W
02A1C:  MOVWF  01
02A1E:  MOVLW  00
02A20:  ADDWFC x4B,W
02A22:  MOVWF  03
02A24:  MOVF   01,W
02A26:  ADDLW  22
02A28:  MOVWF  FE9
02A2A:  MOVLW  04
02A2C:  ADDWFC 03,W
02A2E:  MOVWF  FEA
02A30:  MOVLB  3
02A32:  RLCF   xA3,W
02A34:  MOVWF  02
02A36:  RLCF   xA4,W
02A38:  MOVWF  03
02A3A:  RLCF   02,F
02A3C:  RLCF   03,F
02A3E:  RLCF   02,F
02A40:  RLCF   03,F
02A42:  MOVLW  F8
02A44:  ANDWF  02,F
02A46:  MOVF   02,W
02A48:  ADDLW  6A
02A4A:  MOVLB  4
02A4C:  MOVWF  x4C
02A4E:  MOVLW  00
02A50:  ADDWFC 03,W
02A52:  MOVWF  x4D
02A54:  MOVFF  FF2,44E
02A58:  BCF    FF2.6
02A5A:  BCF    FF2.7
02A5C:  MOVFF  44D,FAA
02A60:  MOVFF  44C,FA9
02A64:  BCF    FA6.6
02A66:  BCF    FA6.7
02A68:  BSF    FA6.0
02A6A:  MOVF   FA8,W
02A6C:  BTFSC  x4E.6
02A6E:  BSF    FF2.6
02A70:  BTFSC  x4E.7
02A72:  BSF    FF2.7
02A74:  MOVWF  FEF
....................       CiclosPersonalizados[i].NivelDesfogue=read_eeprom(107+(i*8));  
02A76:  MOVFF  3A4,466
02A7A:  MOVFF  3A3,465
02A7E:  CLRF   x68
02A80:  MOVLW  0A
02A82:  MOVWF  x67
02A84:  MOVLB  0
02A86:  CALL   1EA0
02A8A:  MOVFF  02,44B
02A8E:  MOVFF  01,44A
02A92:  MOVLW  08
02A94:  MOVLB  4
02A96:  ADDWF  x4A,W
02A98:  MOVWF  01
02A9A:  MOVLW  00
02A9C:  ADDWFC x4B,W
02A9E:  MOVWF  03
02AA0:  MOVF   01,W
02AA2:  ADDLW  22
02AA4:  MOVWF  FE9
02AA6:  MOVLW  04
02AA8:  ADDWFC 03,W
02AAA:  MOVWF  FEA
02AAC:  MOVLB  3
02AAE:  RLCF   xA3,W
02AB0:  MOVWF  02
02AB2:  RLCF   xA4,W
02AB4:  MOVWF  03
02AB6:  RLCF   02,F
02AB8:  RLCF   03,F
02ABA:  RLCF   02,F
02ABC:  RLCF   03,F
02ABE:  MOVLW  F8
02AC0:  ANDWF  02,F
02AC2:  MOVF   02,W
02AC4:  ADDLW  6B
02AC6:  MOVLB  4
02AC8:  MOVWF  x4C
02ACA:  MOVLW  00
02ACC:  ADDWFC 03,W
02ACE:  MOVWF  x4D
02AD0:  MOVFF  FF2,44E
02AD4:  BCF    FF2.6
02AD6:  BCF    FF2.7
02AD8:  MOVFF  44D,FAA
02ADC:  MOVFF  44C,FA9
02AE0:  BCF    FA6.6
02AE2:  BCF    FA6.7
02AE4:  BSF    FA6.0
02AE6:  MOVF   FA8,W
02AE8:  BTFSC  x4E.6
02AEA:  BSF    FF2.6
02AEC:  BTFSC  x4E.7
02AEE:  BSF    FF2.7
02AF0:  MOVWF  FEF
....................        
....................       if(CiclosPersonalizados[i].Temperatura>134 || CiclosPersonalizados[i].Temperatura<105) 
02AF2:  MOVFF  3A4,466
02AF6:  MOVFF  3A3,465
02AFA:  CLRF   x68
02AFC:  MOVLW  0A
02AFE:  MOVWF  x67
02B00:  MOVLB  0
02B02:  CALL   1EA0
02B06:  MOVFF  02,44B
02B0A:  MOVFF  01,44A
02B0E:  MOVLW  22
02B10:  MOVLB  4
02B12:  ADDWF  01,W
02B14:  MOVWF  FE9
02B16:  MOVLW  04
02B18:  ADDWFC 02,W
02B1A:  MOVWF  FEA
02B1C:  MOVF   FEF,W
02B1E:  SUBLW  86
02B20:  BNC   2B52
02B22:  MOVFF  3A4,466
02B26:  MOVFF  3A3,465
02B2A:  CLRF   x68
02B2C:  MOVLW  0A
02B2E:  MOVWF  x67
02B30:  MOVLB  0
02B32:  CALL   1EA0
02B36:  MOVFF  02,44B
02B3A:  MOVFF  01,44A
02B3E:  MOVLW  22
02B40:  MOVLB  4
02B42:  ADDWF  01,W
02B44:  MOVWF  FE9
02B46:  MOVLW  04
02B48:  ADDWFC 02,W
02B4A:  MOVWF  FEA
02B4C:  MOVF   FEF,W
02B4E:  SUBLW  68
02B50:  BNC   2B78
....................          CiclosPersonalizados[i].Temperatura=121; 
02B52:  MOVFF  3A4,466
02B56:  MOVFF  3A3,465
02B5A:  CLRF   x68
02B5C:  MOVLW  0A
02B5E:  MOVWF  x67
02B60:  MOVLB  0
02B62:  CALL   1EA0
02B66:  MOVLW  22
02B68:  MOVLB  4
02B6A:  ADDWF  01,W
02B6C:  MOVWF  FE9
02B6E:  MOVLW  04
02B70:  ADDWFC 02,W
02B72:  MOVWF  FEA
02B74:  MOVLW  79
02B76:  MOVWF  FEF
....................       if(CiclosPersonalizados[i].Minutoest>59) 
02B78:  MOVFF  3A4,466
02B7C:  MOVFF  3A3,465
02B80:  CLRF   x68
02B82:  MOVLW  0A
02B84:  MOVWF  x67
02B86:  MOVLB  0
02B88:  CALL   1EA0
02B8C:  MOVFF  02,44B
02B90:  MOVFF  01,44A
02B94:  MOVLW  09
02B96:  MOVLB  4
02B98:  ADDWF  01,W
02B9A:  MOVWF  01
02B9C:  MOVLW  00
02B9E:  ADDWFC 02,W
02BA0:  MOVWF  03
02BA2:  MOVF   01,W
02BA4:  ADDLW  22
02BA6:  MOVWF  FE9
02BA8:  MOVLW  04
02BAA:  ADDWFC 03,W
02BAC:  MOVWF  FEA
02BAE:  MOVF   FEF,W
02BB0:  SUBLW  3B
02BB2:  BC    2BE8
....................          CiclosPersonalizados[i].Minutoest=0; 
02BB4:  MOVFF  3A4,466
02BB8:  MOVFF  3A3,465
02BBC:  CLRF   x68
02BBE:  MOVLW  0A
02BC0:  MOVWF  x67
02BC2:  MOVLB  0
02BC4:  CALL   1EA0
02BC8:  MOVFF  01,44A
02BCC:  MOVLW  09
02BCE:  MOVLB  4
02BD0:  ADDWF  01,W
02BD2:  MOVWF  01
02BD4:  MOVLW  00
02BD6:  ADDWFC 02,W
02BD8:  MOVWF  03
02BDA:  MOVF   01,W
02BDC:  ADDLW  22
02BDE:  MOVWF  FE9
02BE0:  MOVLW  04
02BE2:  ADDWFC 03,W
02BE4:  MOVWF  FEA
02BE6:  CLRF   FEF
....................       if(CiclosPersonalizados[i].Segundoest>59) 
02BE8:  MOVFF  3A4,466
02BEC:  MOVFF  3A3,465
02BF0:  CLRF   x68
02BF2:  MOVLW  0A
02BF4:  MOVWF  x67
02BF6:  MOVLB  0
02BF8:  CALL   1EA0
02BFC:  MOVFF  02,44B
02C00:  MOVFF  01,44A
02C04:  MOVLW  03
02C06:  MOVLB  4
02C08:  ADDWF  01,W
02C0A:  MOVWF  01
02C0C:  MOVLW  00
02C0E:  ADDWFC 02,W
02C10:  MOVWF  03
02C12:  MOVF   01,W
02C14:  ADDLW  22
02C16:  MOVWF  FE9
02C18:  MOVLW  04
02C1A:  ADDWFC 03,W
02C1C:  MOVWF  FEA
02C1E:  MOVF   FEF,W
02C20:  SUBLW  3B
02C22:  BC    2C58
....................          CiclosPersonalizados[i].Segundoest=0; 
02C24:  MOVFF  3A4,466
02C28:  MOVFF  3A3,465
02C2C:  CLRF   x68
02C2E:  MOVLW  0A
02C30:  MOVWF  x67
02C32:  MOVLB  0
02C34:  CALL   1EA0
02C38:  MOVFF  01,44A
02C3C:  MOVLW  03
02C3E:  MOVLB  4
02C40:  ADDWF  01,W
02C42:  MOVWF  01
02C44:  MOVLW  00
02C46:  ADDWFC 02,W
02C48:  MOVWF  03
02C4A:  MOVF   01,W
02C4C:  ADDLW  22
02C4E:  MOVWF  FE9
02C50:  MOVLW  04
02C52:  ADDWFC 03,W
02C54:  MOVWF  FEA
02C56:  CLRF   FEF
....................       if(CiclosPersonalizados[i].Minutosec>59) 
02C58:  MOVFF  3A4,466
02C5C:  MOVFF  3A3,465
02C60:  CLRF   x68
02C62:  MOVLW  0A
02C64:  MOVWF  x67
02C66:  MOVLB  0
02C68:  CALL   1EA0
02C6C:  MOVFF  02,44B
02C70:  MOVFF  01,44A
02C74:  MOVLW  04
02C76:  MOVLB  4
02C78:  ADDWF  01,W
02C7A:  MOVWF  01
02C7C:  MOVLW  00
02C7E:  ADDWFC 02,W
02C80:  MOVWF  03
02C82:  MOVF   01,W
02C84:  ADDLW  22
02C86:  MOVWF  FE9
02C88:  MOVLW  04
02C8A:  ADDWFC 03,W
02C8C:  MOVWF  FEA
02C8E:  MOVF   FEF,W
02C90:  SUBLW  3B
02C92:  BC    2CC8
....................          CiclosPersonalizados[i].Minutosec=0;    
02C94:  MOVFF  3A4,466
02C98:  MOVFF  3A3,465
02C9C:  CLRF   x68
02C9E:  MOVLW  0A
02CA0:  MOVWF  x67
02CA2:  MOVLB  0
02CA4:  CALL   1EA0
02CA8:  MOVFF  01,44A
02CAC:  MOVLW  04
02CAE:  MOVLB  4
02CB0:  ADDWF  01,W
02CB2:  MOVWF  01
02CB4:  MOVLW  00
02CB6:  ADDWFC 02,W
02CB8:  MOVWF  03
02CBA:  MOVF   01,W
02CBC:  ADDLW  22
02CBE:  MOVWF  FE9
02CC0:  MOVLW  04
02CC2:  ADDWFC 03,W
02CC4:  MOVWF  FEA
02CC6:  CLRF   FEF
....................       if(CiclosPersonalizados[i].Segundoest>59) 
02CC8:  MOVFF  3A4,466
02CCC:  MOVFF  3A3,465
02CD0:  CLRF   x68
02CD2:  MOVLW  0A
02CD4:  MOVWF  x67
02CD6:  MOVLB  0
02CD8:  CALL   1EA0
02CDC:  MOVFF  02,44B
02CE0:  MOVFF  01,44A
02CE4:  MOVLW  03
02CE6:  MOVLB  4
02CE8:  ADDWF  01,W
02CEA:  MOVWF  01
02CEC:  MOVLW  00
02CEE:  ADDWFC 02,W
02CF0:  MOVWF  03
02CF2:  MOVF   01,W
02CF4:  ADDLW  22
02CF6:  MOVWF  FE9
02CF8:  MOVLW  04
02CFA:  ADDWFC 03,W
02CFC:  MOVWF  FEA
02CFE:  MOVF   FEF,W
02D00:  SUBLW  3B
02D02:  BC    2D38
....................          CiclosPersonalizados[i].Segundoest=0; 
02D04:  MOVFF  3A4,466
02D08:  MOVFF  3A3,465
02D0C:  CLRF   x68
02D0E:  MOVLW  0A
02D10:  MOVWF  x67
02D12:  MOVLB  0
02D14:  CALL   1EA0
02D18:  MOVFF  01,44A
02D1C:  MOVLW  03
02D1E:  MOVLB  4
02D20:  ADDWF  01,W
02D22:  MOVWF  01
02D24:  MOVLW  00
02D26:  ADDWFC 02,W
02D28:  MOVWF  03
02D2A:  MOVF   01,W
02D2C:  ADDLW  22
02D2E:  MOVWF  FE9
02D30:  MOVLW  04
02D32:  ADDWFC 03,W
02D34:  MOVWF  FEA
02D36:  CLRF   FEF
....................       if(CiclosPersonalizados[i].Segundosec>59) 
02D38:  MOVFF  3A4,466
02D3C:  MOVFF  3A3,465
02D40:  CLRF   x68
02D42:  MOVLW  0A
02D44:  MOVWF  x67
02D46:  MOVLB  0
02D48:  CALL   1EA0
02D4C:  MOVFF  02,44B
02D50:  MOVFF  01,44A
02D54:  MOVLW  05
02D56:  MOVLB  4
02D58:  ADDWF  01,W
02D5A:  MOVWF  01
02D5C:  MOVLW  00
02D5E:  ADDWFC 02,W
02D60:  MOVWF  03
02D62:  MOVF   01,W
02D64:  ADDLW  22
02D66:  MOVWF  FE9
02D68:  MOVLW  04
02D6A:  ADDWFC 03,W
02D6C:  MOVWF  FEA
02D6E:  MOVF   FEF,W
02D70:  SUBLW  3B
02D72:  BC    2DA8
....................          CiclosPersonalizados[i].Segundosec=0;       
02D74:  MOVFF  3A4,466
02D78:  MOVFF  3A3,465
02D7C:  CLRF   x68
02D7E:  MOVLW  0A
02D80:  MOVWF  x67
02D82:  MOVLB  0
02D84:  CALL   1EA0
02D88:  MOVFF  01,44A
02D8C:  MOVLW  05
02D8E:  MOVLB  4
02D90:  ADDWF  01,W
02D92:  MOVWF  01
02D94:  MOVLW  00
02D96:  ADDWFC 02,W
02D98:  MOVWF  03
02D9A:  MOVF   01,W
02D9C:  ADDLW  22
02D9E:  MOVWF  FE9
02DA0:  MOVLW  04
02DA2:  ADDWFC 03,W
02DA4:  MOVWF  FEA
02DA6:  CLRF   FEF
....................       if(CiclosPersonalizados[i].PulsosVacio>15) 
02DA8:  MOVFF  3A4,466
02DAC:  MOVFF  3A3,465
02DB0:  CLRF   x68
02DB2:  MOVLW  0A
02DB4:  MOVWF  x67
02DB6:  MOVLB  0
02DB8:  CALL   1EA0
02DBC:  MOVFF  02,44B
02DC0:  MOVFF  01,44A
02DC4:  MOVLW  06
02DC6:  MOVLB  4
02DC8:  ADDWF  01,W
02DCA:  MOVWF  01
02DCC:  MOVLW  00
02DCE:  ADDWFC 02,W
02DD0:  MOVWF  03
02DD2:  MOVF   01,W
02DD4:  ADDLW  22
02DD6:  MOVWF  FE9
02DD8:  MOVLW  04
02DDA:  ADDWFC 03,W
02DDC:  MOVWF  FEA
02DDE:  MOVF   FEF,W
02DE0:  SUBLW  0F
02DE2:  BC    2E1A
....................          CiclosPersonalizados[i].PulsosVacio=4; 
02DE4:  MOVFF  3A4,466
02DE8:  MOVFF  3A3,465
02DEC:  CLRF   x68
02DEE:  MOVLW  0A
02DF0:  MOVWF  x67
02DF2:  MOVLB  0
02DF4:  CALL   1EA0
02DF8:  MOVFF  01,44A
02DFC:  MOVLW  06
02DFE:  MOVLB  4
02E00:  ADDWF  01,W
02E02:  MOVWF  01
02E04:  MOVLW  00
02E06:  ADDWFC 02,W
02E08:  MOVWF  03
02E0A:  MOVF   01,W
02E0C:  ADDLW  22
02E0E:  MOVWF  FE9
02E10:  MOVLW  04
02E12:  ADDWFC 03,W
02E14:  MOVWF  FEA
02E16:  MOVLW  04
02E18:  MOVWF  FEF
....................       if(CiclosPersonalizados[i].NivelVacio>100 || CiclosPersonalizados[i].NivelVacio<10) 
02E1A:  MOVFF  3A4,466
02E1E:  MOVFF  3A3,465
02E22:  CLRF   x68
02E24:  MOVLW  0A
02E26:  MOVWF  x67
02E28:  MOVLB  0
02E2A:  CALL   1EA0
02E2E:  MOVFF  02,44B
02E32:  MOVFF  01,44A
02E36:  MOVLW  07
02E38:  MOVLB  4
02E3A:  ADDWF  01,W
02E3C:  MOVWF  01
02E3E:  MOVLW  00
02E40:  ADDWFC 02,W
02E42:  MOVWF  03
02E44:  MOVF   01,W
02E46:  ADDLW  22
02E48:  MOVWF  FE9
02E4A:  MOVLW  04
02E4C:  ADDWFC 03,W
02E4E:  MOVWF  FEA
02E50:  MOVF   FEF,W
02E52:  SUBLW  64
02E54:  BNC   2E92
02E56:  MOVFF  3A4,466
02E5A:  MOVFF  3A3,465
02E5E:  CLRF   x68
02E60:  MOVLW  0A
02E62:  MOVWF  x67
02E64:  MOVLB  0
02E66:  CALL   1EA0
02E6A:  MOVFF  02,44B
02E6E:  MOVFF  01,44A
02E72:  MOVLW  07
02E74:  MOVLB  4
02E76:  ADDWF  01,W
02E78:  MOVWF  01
02E7A:  MOVLW  00
02E7C:  ADDWFC 02,W
02E7E:  MOVWF  03
02E80:  MOVF   01,W
02E82:  ADDLW  22
02E84:  MOVWF  FE9
02E86:  MOVLW  04
02E88:  ADDWFC 03,W
02E8A:  MOVWF  FEA
02E8C:  MOVF   FEF,W
02E8E:  SUBLW  09
02E90:  BNC   2EC8
....................          CiclosPersonalizados[i].NivelVacio=25;    
02E92:  MOVFF  3A4,466
02E96:  MOVFF  3A3,465
02E9A:  CLRF   x68
02E9C:  MOVLW  0A
02E9E:  MOVWF  x67
02EA0:  MOVLB  0
02EA2:  CALL   1EA0
02EA6:  MOVFF  01,44A
02EAA:  MOVLW  07
02EAC:  MOVLB  4
02EAE:  ADDWF  01,W
02EB0:  MOVWF  01
02EB2:  MOVLW  00
02EB4:  ADDWFC 02,W
02EB6:  MOVWF  03
02EB8:  MOVF   01,W
02EBA:  ADDLW  22
02EBC:  MOVWF  FE9
02EBE:  MOVLW  04
02EC0:  ADDWFC 03,W
02EC2:  MOVWF  FEA
02EC4:  MOVLW  19
02EC6:  MOVWF  FEF
....................       if(CiclosPersonalizados[i].NivelDesfogue>6) 
02EC8:  MOVFF  3A4,466
02ECC:  MOVFF  3A3,465
02ED0:  CLRF   x68
02ED2:  MOVLW  0A
02ED4:  MOVWF  x67
02ED6:  MOVLB  0
02ED8:  CALL   1EA0
02EDC:  MOVFF  02,44B
02EE0:  MOVFF  01,44A
02EE4:  MOVLW  08
02EE6:  MOVLB  4
02EE8:  ADDWF  01,W
02EEA:  MOVWF  01
02EEC:  MOVLW  00
02EEE:  ADDWFC 02,W
02EF0:  MOVWF  03
02EF2:  MOVF   01,W
02EF4:  ADDLW  22
02EF6:  MOVWF  FE9
02EF8:  MOVLW  04
02EFA:  ADDWFC 03,W
02EFC:  MOVWF  FEA
02EFE:  MOVF   FEF,W
02F00:  SUBLW  06
02F02:  BC    2F3A
....................          CiclosPersonalizados[i].NivelDesfogue=6; 
02F04:  MOVFF  3A4,466
02F08:  MOVFF  3A3,465
02F0C:  CLRF   x68
02F0E:  MOVLW  0A
02F10:  MOVWF  x67
02F12:  MOVLB  0
02F14:  CALL   1EA0
02F18:  MOVFF  01,44A
02F1C:  MOVLW  08
02F1E:  MOVLB  4
02F20:  ADDWF  01,W
02F22:  MOVWF  01
02F24:  MOVLW  00
02F26:  ADDWFC 02,W
02F28:  MOVWF  03
02F2A:  MOVF   01,W
02F2C:  ADDLW  22
02F2E:  MOVWF  FE9
02F30:  MOVLW  04
02F32:  ADDWFC 03,W
02F34:  MOVWF  FEA
02F36:  MOVLW  06
02F38:  MOVWF  FEF
....................    } 
02F3A:  MOVLB  3
02F3C:  INCF   xA3,F
02F3E:  BTFSC  FD8.2
02F40:  INCF   xA4,F
02F42:  GOTO   270A
.................... } 
02F46:  MOVLB  0
02F48:  GOTO   8ADC (RETURN)
....................  
.................... void LimitaValores(){ 
....................    if(Testerilizacionp[0]>9 || Testerilizacionp[0]<0){ 
*
030FA:  BTFSC  xB6.7
030FC:  BRA    3104
030FE:  MOVF   xB6,W
03100:  SUBLW  09
03102:  BNC   310A
03104:  BTFSC  xB6.7
03106:  BRA    310A
03108:  BRA    3142
....................       Testerilizacionp[0]=0; 
0310A:  CLRF   xB6
....................       write_eeprom(0,0); 
0310C:  CLRF   FAA
0310E:  CLRF   FA9
03110:  CLRF   FA8
03112:  BCF    FA6.6
03114:  BCF    FA6.7
03116:  BSF    FA6.2
03118:  MOVF   FF2,W
0311A:  MOVWF  00
0311C:  BCF    FF2.6
0311E:  BCF    FF2.7
03120:  MOVLB  F
03122:  MOVLW  55
03124:  MOVWF  FA7
03126:  MOVLW  AA
03128:  MOVWF  FA7
0312A:  BSF    FA6.1
0312C:  BTFSC  FA6.1
0312E:  BRA    312C
03130:  BCF    FA6.2
03132:  MOVF   00,W
03134:  IORWF  FF2,F
....................       delay_ms(10); 
03136:  MOVLW  0A
03138:  MOVLB  4
0313A:  MOVWF  x63
0313C:  MOVLB  0
0313E:  CALL   1A6C
....................    } 
....................    if(Testerilizacionp[1]>9 || Testerilizacionp[1]<0){ 
03142:  BTFSC  xB7.7
03144:  BRA    314C
03146:  MOVF   xB7,W
03148:  SUBLW  09
0314A:  BNC   3152
0314C:  BTFSC  xB7.7
0314E:  BRA    3152
03150:  BRA    318C
....................       Testerilizacionp[1]=0; 
03152:  CLRF   xB7
....................       write_eeprom(1,0); 
03154:  CLRF   FAA
03156:  MOVLW  01
03158:  MOVWF  FA9
0315A:  CLRF   FA8
0315C:  BCF    FA6.6
0315E:  BCF    FA6.7
03160:  BSF    FA6.2
03162:  MOVF   FF2,W
03164:  MOVWF  00
03166:  BCF    FF2.6
03168:  BCF    FF2.7
0316A:  MOVLB  F
0316C:  MOVLW  55
0316E:  MOVWF  FA7
03170:  MOVLW  AA
03172:  MOVWF  FA7
03174:  BSF    FA6.1
03176:  BTFSC  FA6.1
03178:  BRA    3176
0317A:  BCF    FA6.2
0317C:  MOVF   00,W
0317E:  IORWF  FF2,F
....................       delay_ms(10); 
03180:  MOVLW  0A
03182:  MOVLB  4
03184:  MOVWF  x63
03186:  MOVLB  0
03188:  CALL   1A6C
....................    } 
....................    if(Testerilizacionp[2]>9 || Testerilizacionp[2]<0){ 
0318C:  BTFSC  xB8.7
0318E:  BRA    3196
03190:  MOVF   xB8,W
03192:  SUBLW  09
03194:  BNC   319C
03196:  BTFSC  xB8.7
03198:  BRA    319C
0319A:  BRA    31D6
....................       Testerilizacionp[2]=0; 
0319C:  CLRF   xB8
....................       write_eeprom(2,0); 
0319E:  CLRF   FAA
031A0:  MOVLW  02
031A2:  MOVWF  FA9
031A4:  CLRF   FA8
031A6:  BCF    FA6.6
031A8:  BCF    FA6.7
031AA:  BSF    FA6.2
031AC:  MOVF   FF2,W
031AE:  MOVWF  00
031B0:  BCF    FF2.6
031B2:  BCF    FF2.7
031B4:  MOVLB  F
031B6:  MOVLW  55
031B8:  MOVWF  FA7
031BA:  MOVLW  AA
031BC:  MOVWF  FA7
031BE:  BSF    FA6.1
031C0:  BTFSC  FA6.1
031C2:  BRA    31C0
031C4:  BCF    FA6.2
031C6:  MOVF   00,W
031C8:  IORWF  FF2,F
....................       delay_ms(10); 
031CA:  MOVLW  0A
031CC:  MOVLB  4
031CE:  MOVWF  x63
031D0:  MOVLB  0
031D2:  CALL   1A6C
....................    } 
....................    if(Testerilizacionp[3]>9 || Testerilizacionp[3]<0){ 
031D6:  BTFSC  xB9.7
031D8:  BRA    31E0
031DA:  MOVF   xB9,W
031DC:  SUBLW  09
031DE:  BNC   31E6
031E0:  BTFSC  xB9.7
031E2:  BRA    31E6
031E4:  BRA    3220
....................       Testerilizacionp[3]=0; 
031E6:  CLRF   xB9
....................       write_eeprom(3,0); 
031E8:  CLRF   FAA
031EA:  MOVLW  03
031EC:  MOVWF  FA9
031EE:  CLRF   FA8
031F0:  BCF    FA6.6
031F2:  BCF    FA6.7
031F4:  BSF    FA6.2
031F6:  MOVF   FF2,W
031F8:  MOVWF  00
031FA:  BCF    FF2.6
031FC:  BCF    FF2.7
031FE:  MOVLB  F
03200:  MOVLW  55
03202:  MOVWF  FA7
03204:  MOVLW  AA
03206:  MOVWF  FA7
03208:  BSF    FA6.1
0320A:  BTFSC  FA6.1
0320C:  BRA    320A
0320E:  BCF    FA6.2
03210:  MOVF   00,W
03212:  IORWF  FF2,F
....................       delay_ms(10); 
03214:  MOVLW  0A
03216:  MOVLB  4
03218:  MOVWF  x63
0321A:  MOVLB  0
0321C:  CALL   1A6C
....................    } 
....................    if(Tsecadop[0]>9 || Tsecadop[0]<0){ 
03220:  BTFSC  xBF.7
03222:  BRA    322A
03224:  MOVF   xBF,W
03226:  SUBLW  09
03228:  BNC   3230
0322A:  BTFSC  xBF.7
0322C:  BRA    3230
0322E:  BRA    326A
....................       Tsecadop[0]=0; 
03230:  CLRF   xBF
....................       write_eeprom(4,0); 
03232:  CLRF   FAA
03234:  MOVLW  04
03236:  MOVWF  FA9
03238:  CLRF   FA8
0323A:  BCF    FA6.6
0323C:  BCF    FA6.7
0323E:  BSF    FA6.2
03240:  MOVF   FF2,W
03242:  MOVWF  00
03244:  BCF    FF2.6
03246:  BCF    FF2.7
03248:  MOVLB  F
0324A:  MOVLW  55
0324C:  MOVWF  FA7
0324E:  MOVLW  AA
03250:  MOVWF  FA7
03252:  BSF    FA6.1
03254:  BTFSC  FA6.1
03256:  BRA    3254
03258:  BCF    FA6.2
0325A:  MOVF   00,W
0325C:  IORWF  FF2,F
....................       delay_ms(10); 
0325E:  MOVLW  0A
03260:  MOVLB  4
03262:  MOVWF  x63
03264:  MOVLB  0
03266:  CALL   1A6C
....................    } 
....................    if(Tsecadop[1]>9 || Tsecadop[1]<0){ 
0326A:  BTFSC  xC0.7
0326C:  BRA    3274
0326E:  MOVF   xC0,W
03270:  SUBLW  09
03272:  BNC   327A
03274:  BTFSC  xC0.7
03276:  BRA    327A
03278:  BRA    32B4
....................       Tsecadop[1]=0; 
0327A:  CLRF   xC0
....................       write_eeprom(5,0); 
0327C:  CLRF   FAA
0327E:  MOVLW  05
03280:  MOVWF  FA9
03282:  CLRF   FA8
03284:  BCF    FA6.6
03286:  BCF    FA6.7
03288:  BSF    FA6.2
0328A:  MOVF   FF2,W
0328C:  MOVWF  00
0328E:  BCF    FF2.6
03290:  BCF    FF2.7
03292:  MOVLB  F
03294:  MOVLW  55
03296:  MOVWF  FA7
03298:  MOVLW  AA
0329A:  MOVWF  FA7
0329C:  BSF    FA6.1
0329E:  BTFSC  FA6.1
032A0:  BRA    329E
032A2:  BCF    FA6.2
032A4:  MOVF   00,W
032A6:  IORWF  FF2,F
....................       delay_ms(10); 
032A8:  MOVLW  0A
032AA:  MOVLB  4
032AC:  MOVWF  x63
032AE:  MOVLB  0
032B0:  CALL   1A6C
....................    } 
....................    if(Tsecadop[2]>9 || Tsecadop[2]<0){ 
032B4:  BTFSC  xC1.7
032B6:  BRA    32BE
032B8:  MOVF   xC1,W
032BA:  SUBLW  09
032BC:  BNC   32C4
032BE:  BTFSC  xC1.7
032C0:  BRA    32C4
032C2:  BRA    32FE
....................       Tsecadop[2]=0; 
032C4:  CLRF   xC1
....................       write_eeprom(6,0); 
032C6:  CLRF   FAA
032C8:  MOVLW  06
032CA:  MOVWF  FA9
032CC:  CLRF   FA8
032CE:  BCF    FA6.6
032D0:  BCF    FA6.7
032D2:  BSF    FA6.2
032D4:  MOVF   FF2,W
032D6:  MOVWF  00
032D8:  BCF    FF2.6
032DA:  BCF    FF2.7
032DC:  MOVLB  F
032DE:  MOVLW  55
032E0:  MOVWF  FA7
032E2:  MOVLW  AA
032E4:  MOVWF  FA7
032E6:  BSF    FA6.1
032E8:  BTFSC  FA6.1
032EA:  BRA    32E8
032EC:  BCF    FA6.2
032EE:  MOVF   00,W
032F0:  IORWF  FF2,F
....................       delay_ms(10); 
032F2:  MOVLW  0A
032F4:  MOVLB  4
032F6:  MOVWF  x63
032F8:  MOVLB  0
032FA:  CALL   1A6C
....................    } 
....................    if(Tsecadop[3]>9 || Tsecadop[3]<0){ 
032FE:  BTFSC  xC2.7
03300:  BRA    3308
03302:  MOVF   xC2,W
03304:  SUBLW  09
03306:  BNC   330E
03308:  BTFSC  xC2.7
0330A:  BRA    330E
0330C:  BRA    3348
....................       Tsecadop[3]=0; 
0330E:  CLRF   xC2
....................       write_eeprom(7,0); 
03310:  CLRF   FAA
03312:  MOVLW  07
03314:  MOVWF  FA9
03316:  CLRF   FA8
03318:  BCF    FA6.6
0331A:  BCF    FA6.7
0331C:  BSF    FA6.2
0331E:  MOVF   FF2,W
03320:  MOVWF  00
03322:  BCF    FF2.6
03324:  BCF    FF2.7
03326:  MOVLB  F
03328:  MOVLW  55
0332A:  MOVWF  FA7
0332C:  MOVLW  AA
0332E:  MOVWF  FA7
03330:  BSF    FA6.1
03332:  BTFSC  FA6.1
03334:  BRA    3332
03336:  BCF    FA6.2
03338:  MOVF   00,W
0333A:  IORWF  FF2,F
....................       delay_ms(10); 
0333C:  MOVLW  0A
0333E:  MOVLB  4
03340:  MOVWF  x63
03342:  MOVLB  0
03344:  CALL   1A6C
....................    } 
....................    if(Setpoint>134){ 
03348:  MOVLB  3
0334A:  MOVF   x62,W
0334C:  SUBLW  86
0334E:  BC    3390
....................       Setpoint=134; 
03350:  MOVLW  86
03352:  MOVWF  x62
....................       write_eeprom(8,134); 
03354:  CLRF   FAA
03356:  MOVLW  08
03358:  MOVWF  FA9
0335A:  MOVLW  86
0335C:  MOVWF  FA8
0335E:  BCF    FA6.6
03360:  BCF    FA6.7
03362:  BSF    FA6.2
03364:  MOVF   FF2,W
03366:  MOVWF  00
03368:  BCF    FF2.6
0336A:  BCF    FF2.7
0336C:  MOVLB  F
0336E:  MOVLW  55
03370:  MOVWF  FA7
03372:  MOVLW  AA
03374:  MOVWF  FA7
03376:  BSF    FA6.1
03378:  BTFSC  FA6.1
0337A:  BRA    3378
0337C:  BCF    FA6.2
0337E:  MOVF   00,W
03380:  IORWF  FF2,F
....................       delay_ms(10); 
03382:  MOVLW  0A
03384:  MOVLB  4
03386:  MOVWF  x63
03388:  MOVLB  0
0338A:  CALL   1A6C
0338E:  MOVLB  3
....................    } 
....................    if(Nivel>6){ 
03390:  MOVF   x71,F
03392:  BNZ   339A
03394:  MOVF   x70,W
03396:  SUBLW  06
03398:  BC    33DC
....................       Nivel=3; 
0339A:  CLRF   x71
0339C:  MOVLW  03
0339E:  MOVWF  x70
....................       write_eeprom(9,3); 
033A0:  CLRF   FAA
033A2:  MOVLW  09
033A4:  MOVWF  FA9
033A6:  MOVLW  03
033A8:  MOVWF  FA8
033AA:  BCF    FA6.6
033AC:  BCF    FA6.7
033AE:  BSF    FA6.2
033B0:  MOVF   FF2,W
033B2:  MOVWF  00
033B4:  BCF    FF2.6
033B6:  BCF    FF2.7
033B8:  MOVLB  F
033BA:  MOVLW  55
033BC:  MOVWF  FA7
033BE:  MOVLW  AA
033C0:  MOVWF  FA7
033C2:  BSF    FA6.1
033C4:  BTFSC  FA6.1
033C6:  BRA    33C4
033C8:  BCF    FA6.2
033CA:  MOVF   00,W
033CC:  IORWF  FF2,F
....................       delay_ms(10); 
033CE:  MOVLW  0A
033D0:  MOVLB  4
033D2:  MOVWF  x63
033D4:  MOVLB  0
033D6:  CALL   1A6C
033DA:  MOVLB  3
....................    } 
....................    if(Password[0]>9 || Password[0]<0){ 
033DC:  BTFSC  x88.7
033DE:  BRA    33E6
033E0:  MOVF   x88,W
033E2:  SUBLW  09
033E4:  BNC   33EC
033E6:  BTFSC  x88.7
033E8:  BRA    33EC
033EA:  BRA    3428
....................       Password[0]=0; 
033EC:  CLRF   x88
....................       write_eeprom(10,0); 
033EE:  CLRF   FAA
033F0:  MOVLW  0A
033F2:  MOVWF  FA9
033F4:  CLRF   FA8
033F6:  BCF    FA6.6
033F8:  BCF    FA6.7
033FA:  BSF    FA6.2
033FC:  MOVF   FF2,W
033FE:  MOVWF  00
03400:  BCF    FF2.6
03402:  BCF    FF2.7
03404:  MOVLB  F
03406:  MOVLW  55
03408:  MOVWF  FA7
0340A:  MOVLW  AA
0340C:  MOVWF  FA7
0340E:  BSF    FA6.1
03410:  BTFSC  FA6.1
03412:  BRA    3410
03414:  BCF    FA6.2
03416:  MOVF   00,W
03418:  IORWF  FF2,F
....................       delay_ms(10); 
0341A:  MOVLW  0A
0341C:  MOVLB  4
0341E:  MOVWF  x63
03420:  MOVLB  0
03422:  CALL   1A6C
03426:  MOVLB  3
....................    } 
....................    if(Password[1]>9 || Password[1]<0){ 
03428:  BTFSC  x89.7
0342A:  BRA    3432
0342C:  MOVF   x89,W
0342E:  SUBLW  09
03430:  BNC   3438
03432:  BTFSC  x89.7
03434:  BRA    3438
03436:  BRA    3474
....................       Password[1]=0; 
03438:  CLRF   x89
....................       write_eeprom(11,0); 
0343A:  CLRF   FAA
0343C:  MOVLW  0B
0343E:  MOVWF  FA9
03440:  CLRF   FA8
03442:  BCF    FA6.6
03444:  BCF    FA6.7
03446:  BSF    FA6.2
03448:  MOVF   FF2,W
0344A:  MOVWF  00
0344C:  BCF    FF2.6
0344E:  BCF    FF2.7
03450:  MOVLB  F
03452:  MOVLW  55
03454:  MOVWF  FA7
03456:  MOVLW  AA
03458:  MOVWF  FA7
0345A:  BSF    FA6.1
0345C:  BTFSC  FA6.1
0345E:  BRA    345C
03460:  BCF    FA6.2
03462:  MOVF   00,W
03464:  IORWF  FF2,F
....................       delay_ms(10); 
03466:  MOVLW  0A
03468:  MOVLB  4
0346A:  MOVWF  x63
0346C:  MOVLB  0
0346E:  CALL   1A6C
03472:  MOVLB  3
....................    } 
....................    if(Password[2]>9 || Password[2]<0){ 
03474:  BTFSC  x8A.7
03476:  BRA    347E
03478:  MOVF   x8A,W
0347A:  SUBLW  09
0347C:  BNC   3484
0347E:  BTFSC  x8A.7
03480:  BRA    3484
03482:  BRA    34C0
....................       Password[2]=0; 
03484:  CLRF   x8A
....................       write_eeprom(12,0); 
03486:  CLRF   FAA
03488:  MOVLW  0C
0348A:  MOVWF  FA9
0348C:  CLRF   FA8
0348E:  BCF    FA6.6
03490:  BCF    FA6.7
03492:  BSF    FA6.2
03494:  MOVF   FF2,W
03496:  MOVWF  00
03498:  BCF    FF2.6
0349A:  BCF    FF2.7
0349C:  MOVLB  F
0349E:  MOVLW  55
034A0:  MOVWF  FA7
034A2:  MOVLW  AA
034A4:  MOVWF  FA7
034A6:  BSF    FA6.1
034A8:  BTFSC  FA6.1
034AA:  BRA    34A8
034AC:  BCF    FA6.2
034AE:  MOVF   00,W
034B0:  IORWF  FF2,F
....................       delay_ms(10); 
034B2:  MOVLW  0A
034B4:  MOVLB  4
034B6:  MOVWF  x63
034B8:  MOVLB  0
034BA:  CALL   1A6C
034BE:  MOVLB  3
....................    } 
....................    if(Password[3]>9 || Password[3]<0){ 
034C0:  BTFSC  x8B.7
034C2:  BRA    34CA
034C4:  MOVF   x8B,W
034C6:  SUBLW  09
034C8:  BNC   34D0
034CA:  BTFSC  x8B.7
034CC:  BRA    34D0
034CE:  BRA    350A
....................       Password[3]=0; 
034D0:  CLRF   x8B
....................       write_eeprom(13,0); 
034D2:  CLRF   FAA
034D4:  MOVLW  0D
034D6:  MOVWF  FA9
034D8:  CLRF   FA8
034DA:  BCF    FA6.6
034DC:  BCF    FA6.7
034DE:  BSF    FA6.2
034E0:  MOVF   FF2,W
034E2:  MOVWF  00
034E4:  BCF    FF2.6
034E6:  BCF    FF2.7
034E8:  MOVLB  F
034EA:  MOVLW  55
034EC:  MOVWF  FA7
034EE:  MOVLW  AA
034F0:  MOVWF  FA7
034F2:  BSF    FA6.1
034F4:  BTFSC  FA6.1
034F6:  BRA    34F4
034F8:  BCF    FA6.2
034FA:  MOVF   00,W
034FC:  IORWF  FF2,F
....................       delay_ms(10); 
034FE:  MOVLW  0A
03500:  MOVLB  4
03502:  MOVWF  x63
03504:  MOVLB  0
03506:  CALL   1A6C
....................    } 
....................    if(Ganancia>12.0){ 
0350A:  MOVLB  4
0350C:  CLRF   x55
0350E:  CLRF   x54
03510:  MOVLW  40
03512:  MOVWF  x53
03514:  MOVLW  82
03516:  MOVWF  x52
03518:  MOVFF  307,459
0351C:  MOVFF  306,458
03520:  MOVFF  305,457
03524:  MOVFF  304,456
03528:  MOVLB  0
0352A:  RCALL  3032
0352C:  BNC   3576
....................       Ganancia=12.0; 
0352E:  MOVLB  3
03530:  CLRF   x07
03532:  CLRF   x06
03534:  MOVLW  40
03536:  MOVWF  x05
03538:  MOVLW  82
0353A:  MOVWF  x04
....................       write_eeprom(20,12); 
0353C:  CLRF   FAA
0353E:  MOVLW  14
03540:  MOVWF  FA9
03542:  MOVLW  0C
03544:  MOVWF  FA8
03546:  BCF    FA6.6
03548:  BCF    FA6.7
0354A:  BSF    FA6.2
0354C:  MOVF   FF2,W
0354E:  MOVWF  00
03550:  BCF    FF2.6
03552:  BCF    FF2.7
03554:  MOVLB  F
03556:  MOVLW  55
03558:  MOVWF  FA7
0355A:  MOVLW  AA
0355C:  MOVWF  FA7
0355E:  BSF    FA6.1
03560:  BTFSC  FA6.1
03562:  BRA    3560
03564:  BCF    FA6.2
03566:  MOVF   00,W
03568:  IORWF  FF2,F
....................       delay_ms(10); 
0356A:  MOVLW  0A
0356C:  MOVLB  4
0356E:  MOVWF  x63
03570:  MOVLB  0
03572:  CALL   1A6C
....................    } 
....................    if(Ajuste>100){ 
03576:  MOVLB  2
03578:  MOVF   xD9,W
0357A:  SUBLW  64
0357C:  BC    35BA
....................       Ajuste=0; 
0357E:  CLRF   xD9
....................       write_eeprom(21,0); 
03580:  CLRF   FAA
03582:  MOVLW  15
03584:  MOVWF  FA9
03586:  CLRF   FA8
03588:  BCF    FA6.6
0358A:  BCF    FA6.7
0358C:  BSF    FA6.2
0358E:  MOVF   FF2,W
03590:  MOVWF  00
03592:  BCF    FF2.6
03594:  BCF    FF2.7
03596:  MOVLB  F
03598:  MOVLW  55
0359A:  MOVWF  FA7
0359C:  MOVLW  AA
0359E:  MOVWF  FA7
035A0:  BSF    FA6.1
035A2:  BTFSC  FA6.1
035A4:  BRA    35A2
035A6:  BCF    FA6.2
035A8:  MOVF   00,W
035AA:  IORWF  FF2,F
....................       delay_ms(10); 
035AC:  MOVLW  0A
035AE:  MOVLB  4
035B0:  MOVWF  x63
035B2:  MOVLB  0
035B4:  CALL   1A6C
035B8:  MOVLB  2
....................    } 
....................    if(Ajusten>100){ 
035BA:  MOVF   xDA,W
035BC:  SUBLW  64
035BE:  BC    35FC
....................       Ajusten=0; 
035C0:  CLRF   xDA
....................       write_eeprom(22,0); 
035C2:  CLRF   FAA
035C4:  MOVLW  16
035C6:  MOVWF  FA9
035C8:  CLRF   FA8
035CA:  BCF    FA6.6
035CC:  BCF    FA6.7
035CE:  BSF    FA6.2
035D0:  MOVF   FF2,W
035D2:  MOVWF  00
035D4:  BCF    FF2.6
035D6:  BCF    FF2.7
035D8:  MOVLB  F
035DA:  MOVLW  55
035DC:  MOVWF  FA7
035DE:  MOVLW  AA
035E0:  MOVWF  FA7
035E2:  BSF    FA6.1
035E4:  BTFSC  FA6.1
035E6:  BRA    35E4
035E8:  BCF    FA6.2
035EA:  MOVF   00,W
035EC:  IORWF  FF2,F
....................       delay_ms(10); 
035EE:  MOVLW  0A
035F0:  MOVLB  4
035F2:  MOVWF  x63
035F4:  MOVLB  0
035F6:  CALL   1A6C
035FA:  MOVLB  2
....................    } 
....................    if(MediaMovil>80){ 
035FC:  MOVF   xDB,W
035FE:  SUBLW  50
03600:  BC    3640
....................       MediaMovil=80; 
03602:  MOVLW  50
03604:  MOVWF  xDB
....................       write_eeprom(24,80); 
03606:  CLRF   FAA
03608:  MOVLW  18
0360A:  MOVWF  FA9
0360C:  MOVLW  50
0360E:  MOVWF  FA8
03610:  BCF    FA6.6
03612:  BCF    FA6.7
03614:  BSF    FA6.2
03616:  MOVF   FF2,W
03618:  MOVWF  00
0361A:  BCF    FF2.6
0361C:  BCF    FF2.7
0361E:  MOVLB  F
03620:  MOVLW  55
03622:  MOVWF  FA7
03624:  MOVLW  AA
03626:  MOVWF  FA7
03628:  BSF    FA6.1
0362A:  BTFSC  FA6.1
0362C:  BRA    362A
0362E:  BCF    FA6.2
03630:  MOVF   00,W
03632:  IORWF  FF2,F
....................       delay_ms(10); 
03634:  MOVLW  0A
03636:  MOVLB  4
03638:  MOVWF  x63
0363A:  MOVLB  0
0363C:  CALL   1A6C
....................    } 
....................    if(Tciclo>10){ 
03640:  MOVLB  4
03642:  CLRF   x55
03644:  CLRF   x54
03646:  MOVLW  20
03648:  MOVWF  x53
0364A:  MOVLW  82
0364C:  MOVWF  x52
0364E:  MOVFF  2EF,459
03652:  MOVFF  2EE,458
03656:  MOVFF  2ED,457
0365A:  MOVFF  2EC,456
0365E:  MOVLB  0
03660:  RCALL  3032
03662:  BNC   36AC
....................       Tciclo=10; 
03664:  MOVLB  2
03666:  CLRF   xEF
03668:  CLRF   xEE
0366A:  MOVLW  20
0366C:  MOVWF  xED
0366E:  MOVLW  82
03670:  MOVWF  xEC
....................       write_eeprom(25,10); 
03672:  CLRF   FAA
03674:  MOVLW  19
03676:  MOVWF  FA9
03678:  MOVLW  0A
0367A:  MOVWF  FA8
0367C:  BCF    FA6.6
0367E:  BCF    FA6.7
03680:  BSF    FA6.2
03682:  MOVF   FF2,W
03684:  MOVWF  00
03686:  BCF    FF2.6
03688:  BCF    FF2.7
0368A:  MOVLB  F
0368C:  MOVLW  55
0368E:  MOVWF  FA7
03690:  MOVLW  AA
03692:  MOVWF  FA7
03694:  BSF    FA6.1
03696:  BTFSC  FA6.1
03698:  BRA    3696
0369A:  BCF    FA6.2
0369C:  MOVF   00,W
0369E:  IORWF  FF2,F
....................       delay_ms(10); 
036A0:  MOVLW  0A
036A2:  MOVLB  4
036A4:  MOVWF  x63
036A6:  MOVLB  0
036A8:  CALL   1A6C
....................    } 
....................    if(Integral>2.0){ 
036AC:  MOVLB  4
036AE:  CLRF   x60
036B0:  MOVFF  338,45F
036B4:  MOVLB  0
036B6:  CALL   1A94
036BA:  MOVLB  4
036BC:  CLRF   x55
036BE:  CLRF   x54
036C0:  CLRF   x53
036C2:  MOVLW  80
036C4:  MOVWF  x52
036C6:  MOVFF  03,459
036CA:  MOVFF  02,458
036CE:  MOVFF  01,457
036D2:  MOVFF  00,456
036D6:  MOVLB  0
036D8:  RCALL  3032
036DA:  BNC   371C
....................       Integral=1.0; 
036DC:  MOVLW  01
036DE:  MOVLB  3
036E0:  MOVWF  x38
....................       write_eeprom(26,1); 
036E2:  CLRF   FAA
036E4:  MOVLW  1A
036E6:  MOVWF  FA9
036E8:  MOVLW  01
036EA:  MOVWF  FA8
036EC:  BCF    FA6.6
036EE:  BCF    FA6.7
036F0:  BSF    FA6.2
036F2:  MOVF   FF2,W
036F4:  MOVWF  00
036F6:  BCF    FF2.6
036F8:  BCF    FF2.7
036FA:  MOVLB  F
036FC:  MOVLW  55
036FE:  MOVWF  FA7
03700:  MOVLW  AA
03702:  MOVWF  FA7
03704:  BSF    FA6.1
03706:  BTFSC  FA6.1
03708:  BRA    3706
0370A:  BCF    FA6.2
0370C:  MOVF   00,W
0370E:  IORWF  FF2,F
....................       delay_ms(10); 
03710:  MOVLW  0A
03712:  MOVLB  4
03714:  MOVWF  x63
03716:  MOVLB  0
03718:  CALL   1A6C
....................    } 
....................    if(Derivativo>20.0){ 
0371C:  MOVLB  4
0371E:  CLRF   x60
03720:  MOVFF  339,45F
03724:  MOVLB  0
03726:  CALL   1A94
0372A:  MOVLB  4
0372C:  CLRF   x55
0372E:  CLRF   x54
03730:  MOVLW  20
03732:  MOVWF  x53
03734:  MOVLW  83
03736:  MOVWF  x52
03738:  MOVFF  03,459
0373C:  MOVFF  02,458
03740:  MOVFF  01,457
03744:  MOVFF  00,456
03748:  MOVLB  0
0374A:  RCALL  3032
0374C:  BNC   378E
....................       Derivativo=15.0; 
0374E:  MOVLW  0F
03750:  MOVLB  3
03752:  MOVWF  x39
....................       write_eeprom(27,15); 
03754:  CLRF   FAA
03756:  MOVLW  1B
03758:  MOVWF  FA9
0375A:  MOVLW  0F
0375C:  MOVWF  FA8
0375E:  BCF    FA6.6
03760:  BCF    FA6.7
03762:  BSF    FA6.2
03764:  MOVF   FF2,W
03766:  MOVWF  00
03768:  BCF    FF2.6
0376A:  BCF    FF2.7
0376C:  MOVLB  F
0376E:  MOVLW  55
03770:  MOVWF  FA7
03772:  MOVLW  AA
03774:  MOVWF  FA7
03776:  BSF    FA6.1
03778:  BTFSC  FA6.1
0377A:  BRA    3778
0377C:  BCF    FA6.2
0377E:  MOVF   00,W
03780:  IORWF  FF2,F
....................       delay_ms(10); 
03782:  MOVLW  0A
03784:  MOVLB  4
03786:  MOVWF  x63
03788:  MOVLB  0
0378A:  CALL   1A6C
....................    } 
....................    if(Gain>50){ 
0378E:  MOVLB  4
03790:  CLRF   x55
03792:  CLRF   x54
03794:  MOVLW  48
03796:  MOVWF  x53
03798:  MOVLW  84
0379A:  MOVWF  x52
0379C:  MOVFF  2A6,459
037A0:  MOVFF  2A5,458
037A4:  MOVFF  2A4,457
037A8:  MOVFF  2A3,456
037AC:  MOVLB  0
037AE:  RCALL  3032
037B0:  BNC   3838
....................       Gain=40.2; 
037B2:  MOVLW  CD
037B4:  MOVLB  2
037B6:  MOVWF  xA6
037B8:  MOVLW  CC
037BA:  MOVWF  xA5
037BC:  MOVLW  20
037BE:  MOVWF  xA4
037C0:  MOVLW  84
037C2:  MOVWF  xA3
....................       write_eeprom(28,40); 
037C4:  CLRF   FAA
037C6:  MOVLW  1C
037C8:  MOVWF  FA9
037CA:  MOVLW  28
037CC:  MOVWF  FA8
037CE:  BCF    FA6.6
037D0:  BCF    FA6.7
037D2:  BSF    FA6.2
037D4:  MOVF   FF2,W
037D6:  MOVWF  00
037D8:  BCF    FF2.6
037DA:  BCF    FF2.7
037DC:  MOVLB  F
037DE:  MOVLW  55
037E0:  MOVWF  FA7
037E2:  MOVLW  AA
037E4:  MOVWF  FA7
037E6:  BSF    FA6.1
037E8:  BTFSC  FA6.1
037EA:  BRA    37E8
037EC:  BCF    FA6.2
037EE:  MOVF   00,W
037F0:  IORWF  FF2,F
....................       delay_ms(10); 
037F2:  MOVLW  0A
037F4:  MOVLB  4
037F6:  MOVWF  x63
037F8:  MOVLB  0
037FA:  CALL   1A6C
....................       write_eeprom(29,2); 
037FE:  CLRF   FAA
03800:  MOVLW  1D
03802:  MOVWF  FA9
03804:  MOVLW  02
03806:  MOVWF  FA8
03808:  BCF    FA6.6
0380A:  BCF    FA6.7
0380C:  BSF    FA6.2
0380E:  MOVF   FF2,W
03810:  MOVWF  00
03812:  BCF    FF2.6
03814:  BCF    FF2.7
03816:  MOVLB  F
03818:  MOVLW  55
0381A:  MOVWF  FA7
0381C:  MOVLW  AA
0381E:  MOVWF  FA7
03820:  BSF    FA6.1
03822:  BTFSC  FA6.1
03824:  BRA    3822
03826:  BCF    FA6.2
03828:  MOVF   00,W
0382A:  IORWF  FF2,F
....................       delay_ms(10); 
0382C:  MOVLW  0A
0382E:  MOVLB  4
03830:  MOVWF  x63
03832:  MOVLB  0
03834:  CALL   1A6C
....................    } 
....................    if(R1>6400){ 
03838:  MOVLB  4
0383A:  CLRF   x55
0383C:  CLRF   x54
0383E:  MOVLW  48
03840:  MOVWF  x53
03842:  MOVLW  8B
03844:  MOVWF  x52
03846:  MOVFF  2B2,459
0384A:  MOVFF  2B1,458
0384E:  MOVFF  2B0,457
03852:  MOVFF  2AF,456
03856:  MOVLB  0
03858:  CALL   3032
0385C:  BNC   38E2
....................       R1=6200; 
0385E:  MOVLB  2
03860:  CLRF   xB2
03862:  MOVLW  C0
03864:  MOVWF  xB1
03866:  MOVLW  41
03868:  MOVWF  xB0
0386A:  MOVLW  8B
0386C:  MOVWF  xAF
....................       write_eeprom(30,0x38); 
0386E:  CLRF   FAA
03870:  MOVLW  1E
03872:  MOVWF  FA9
03874:  MOVLW  38
03876:  MOVWF  FA8
03878:  BCF    FA6.6
0387A:  BCF    FA6.7
0387C:  BSF    FA6.2
0387E:  MOVF   FF2,W
03880:  MOVWF  00
03882:  BCF    FF2.6
03884:  BCF    FF2.7
03886:  MOVLB  F
03888:  MOVLW  55
0388A:  MOVWF  FA7
0388C:  MOVLW  AA
0388E:  MOVWF  FA7
03890:  BSF    FA6.1
03892:  BTFSC  FA6.1
03894:  BRA    3892
03896:  BCF    FA6.2
03898:  MOVF   00,W
0389A:  IORWF  FF2,F
....................       delay_ms(10); 
0389C:  MOVLW  0A
0389E:  MOVLB  4
038A0:  MOVWF  x63
038A2:  MOVLB  0
038A4:  CALL   1A6C
....................       write_eeprom(31,0x18); 
038A8:  CLRF   FAA
038AA:  MOVLW  1F
038AC:  MOVWF  FA9
038AE:  MOVLW  18
038B0:  MOVWF  FA8
038B2:  BCF    FA6.6
038B4:  BCF    FA6.7
038B6:  BSF    FA6.2
038B8:  MOVF   FF2,W
038BA:  MOVWF  00
038BC:  BCF    FF2.6
038BE:  BCF    FF2.7
038C0:  MOVLB  F
038C2:  MOVLW  55
038C4:  MOVWF  FA7
038C6:  MOVLW  AA
038C8:  MOVWF  FA7
038CA:  BSF    FA6.1
038CC:  BTFSC  FA6.1
038CE:  BRA    38CC
038D0:  BCF    FA6.2
038D2:  MOVF   00,W
038D4:  IORWF  FF2,F
....................       delay_ms(10); 
038D6:  MOVLW  0A
038D8:  MOVLB  4
038DA:  MOVWF  x63
038DC:  MOVLB  0
038DE:  CALL   1A6C
....................    } 
....................    if(RPT100>2.0){ 
038E2:  MOVLB  4
038E4:  CLRF   x55
038E6:  CLRF   x54
038E8:  CLRF   x53
038EA:  MOVLW  80
038EC:  MOVWF  x52
038EE:  MOVFF  2AA,459
038F2:  MOVFF  2A9,458
038F6:  MOVFF  2A8,457
038FA:  MOVFF  2A7,456
038FE:  MOVLB  0
03900:  CALL   3032
03904:  BNC   3984
....................       RPT100=0.5; 
03906:  MOVLB  2
03908:  CLRF   xAA
0390A:  CLRF   xA9
0390C:  CLRF   xA8
0390E:  MOVLW  7E
03910:  MOVWF  xA7
....................       write_eeprom(32,0); 
03912:  CLRF   FAA
03914:  MOVLW  20
03916:  MOVWF  FA9
03918:  CLRF   FA8
0391A:  BCF    FA6.6
0391C:  BCF    FA6.7
0391E:  BSF    FA6.2
03920:  MOVF   FF2,W
03922:  MOVWF  00
03924:  BCF    FF2.6
03926:  BCF    FF2.7
03928:  MOVLB  F
0392A:  MOVLW  55
0392C:  MOVWF  FA7
0392E:  MOVLW  AA
03930:  MOVWF  FA7
03932:  BSF    FA6.1
03934:  BTFSC  FA6.1
03936:  BRA    3934
03938:  BCF    FA6.2
0393A:  MOVF   00,W
0393C:  IORWF  FF2,F
....................       delay_ms(10); 
0393E:  MOVLW  0A
03940:  MOVLB  4
03942:  MOVWF  x63
03944:  MOVLB  0
03946:  CALL   1A6C
....................       write_eeprom(33,5); 
0394A:  CLRF   FAA
0394C:  MOVLW  21
0394E:  MOVWF  FA9
03950:  MOVLW  05
03952:  MOVWF  FA8
03954:  BCF    FA6.6
03956:  BCF    FA6.7
03958:  BSF    FA6.2
0395A:  MOVF   FF2,W
0395C:  MOVWF  00
0395E:  BCF    FF2.6
03960:  BCF    FF2.7
03962:  MOVLB  F
03964:  MOVLW  55
03966:  MOVWF  FA7
03968:  MOVLW  AA
0396A:  MOVWF  FA7
0396C:  BSF    FA6.1
0396E:  BTFSC  FA6.1
03970:  BRA    396E
03972:  BCF    FA6.2
03974:  MOVF   00,W
03976:  IORWF  FF2,F
....................       delay_ms(10); 
03978:  MOVLW  0A
0397A:  MOVLB  4
0397C:  MOVWF  x63
0397E:  MOVLB  0
03980:  CALL   1A6C
....................    } 
....................    if(Ciclos>60000){ 
03984:  MOVLB  3
03986:  MOVF   x79,W
03988:  SUBLW  E9
0398A:  BC    3A0A
0398C:  XORLW  FF
0398E:  BNZ   3996
03990:  MOVF   x78,W
03992:  SUBLW  60
03994:  BC    3A0A
....................       Ciclos=0; 
03996:  CLRF   x79
03998:  CLRF   x78
....................       write_eeprom(37,0); 
0399A:  CLRF   FAA
0399C:  MOVLW  25
0399E:  MOVWF  FA9
039A0:  CLRF   FA8
039A2:  BCF    FA6.6
039A4:  BCF    FA6.7
039A6:  BSF    FA6.2
039A8:  MOVF   FF2,W
039AA:  MOVWF  00
039AC:  BCF    FF2.6
039AE:  BCF    FF2.7
039B0:  MOVLB  F
039B2:  MOVLW  55
039B4:  MOVWF  FA7
039B6:  MOVLW  AA
039B8:  MOVWF  FA7
039BA:  BSF    FA6.1
039BC:  BTFSC  FA6.1
039BE:  BRA    39BC
039C0:  BCF    FA6.2
039C2:  MOVF   00,W
039C4:  IORWF  FF2,F
....................       delay_ms(10); 
039C6:  MOVLW  0A
039C8:  MOVLB  4
039CA:  MOVWF  x63
039CC:  MOVLB  0
039CE:  CALL   1A6C
....................       write_eeprom(38,0); 
039D2:  CLRF   FAA
039D4:  MOVLW  26
039D6:  MOVWF  FA9
039D8:  CLRF   FA8
039DA:  BCF    FA6.6
039DC:  BCF    FA6.7
039DE:  BSF    FA6.2
039E0:  MOVF   FF2,W
039E2:  MOVWF  00
039E4:  BCF    FF2.6
039E6:  BCF    FF2.7
039E8:  MOVLB  F
039EA:  MOVLW  55
039EC:  MOVWF  FA7
039EE:  MOVLW  AA
039F0:  MOVWF  FA7
039F2:  BSF    FA6.1
039F4:  BTFSC  FA6.1
039F6:  BRA    39F4
039F8:  BCF    FA6.2
039FA:  MOVF   00,W
039FC:  IORWF  FF2,F
....................       delay_ms(10); 
039FE:  MOVLW  0A
03A00:  MOVLB  4
03A02:  MOVWF  x63
03A04:  MOVLB  0
03A06:  CALL   1A6C
....................    } 
....................    if(TTrampa>100){ 
03A0A:  MOVLB  2
03A0C:  MOVF   xDC,W
03A0E:  SUBLW  64
03A10:  BC    3A50
....................       TTrampa=80; 
03A12:  MOVLW  50
03A14:  MOVWF  xDC
....................       write_eeprom(39,80); 
03A16:  CLRF   FAA
03A18:  MOVLW  27
03A1A:  MOVWF  FA9
03A1C:  MOVLW  50
03A1E:  MOVWF  FA8
03A20:  BCF    FA6.6
03A22:  BCF    FA6.7
03A24:  BSF    FA6.2
03A26:  MOVF   FF2,W
03A28:  MOVWF  00
03A2A:  BCF    FF2.6
03A2C:  BCF    FF2.7
03A2E:  MOVLB  F
03A30:  MOVLW  55
03A32:  MOVWF  FA7
03A34:  MOVLW  AA
03A36:  MOVWF  FA7
03A38:  BSF    FA6.1
03A3A:  BTFSC  FA6.1
03A3C:  BRA    3A3A
03A3E:  BCF    FA6.2
03A40:  MOVF   00,W
03A42:  IORWF  FF2,F
....................       delay_ms(10); 
03A44:  MOVLW  0A
03A46:  MOVLB  4
03A48:  MOVWF  x63
03A4A:  MOVLB  0
03A4C:  CALL   1A6C
....................    } 
....................    if(ActivaImpresion>1){ 
03A50:  MOVLB  3
03A52:  MOVF   x55,W
03A54:  SUBLW  01
03A56:  BC    3A98
....................       ActivaImpresion=1; 
03A58:  MOVLW  01
03A5A:  MOVWF  x55
....................       write_eeprom(40,1); 
03A5C:  CLRF   FAA
03A5E:  MOVLW  28
03A60:  MOVWF  FA9
03A62:  MOVLW  01
03A64:  MOVWF  FA8
03A66:  BCF    FA6.6
03A68:  BCF    FA6.7
03A6A:  BSF    FA6.2
03A6C:  MOVF   FF2,W
03A6E:  MOVWF  00
03A70:  BCF    FF2.6
03A72:  BCF    FF2.7
03A74:  MOVLB  F
03A76:  MOVLW  55
03A78:  MOVWF  FA7
03A7A:  MOVLW  AA
03A7C:  MOVWF  FA7
03A7E:  BSF    FA6.1
03A80:  BTFSC  FA6.1
03A82:  BRA    3A80
03A84:  BCF    FA6.2
03A86:  MOVF   00,W
03A88:  IORWF  FF2,F
....................       delay_ms(10); 
03A8A:  MOVLW  0A
03A8C:  MOVLB  4
03A8E:  MOVWF  x63
03A90:  MOVLB  0
03A92:  CALL   1A6C
03A96:  MOVLB  3
....................    } 
....................    if(timpresion>30){ 
03A98:  MOVF   x56,W
03A9A:  SUBLW  1E
03A9C:  BC    3ADE
....................       timpresion=2; 
03A9E:  MOVLW  02
03AA0:  MOVWF  x56
....................       write_eeprom(41,2); 
03AA2:  CLRF   FAA
03AA4:  MOVLW  29
03AA6:  MOVWF  FA9
03AA8:  MOVLW  02
03AAA:  MOVWF  FA8
03AAC:  BCF    FA6.6
03AAE:  BCF    FA6.7
03AB0:  BSF    FA6.2
03AB2:  MOVF   FF2,W
03AB4:  MOVWF  00
03AB6:  BCF    FF2.6
03AB8:  BCF    FF2.7
03ABA:  MOVLB  F
03ABC:  MOVLW  55
03ABE:  MOVWF  FA7
03AC0:  MOVLW  AA
03AC2:  MOVWF  FA7
03AC4:  BSF    FA6.1
03AC6:  BTFSC  FA6.1
03AC8:  BRA    3AC6
03ACA:  BCF    FA6.2
03ACC:  MOVF   00,W
03ACE:  IORWF  FF2,F
....................       delay_ms(10); 
03AD0:  MOVLW  0A
03AD2:  MOVLB  4
03AD4:  MOVWF  x63
03AD6:  MOVLB  0
03AD8:  CALL   1A6C
03ADC:  MOVLB  3
....................    } 
....................    if(Atmosferica>100 || Atmosferica<50){ 
03ADE:  MOVF   xB9,W
03AE0:  SUBLW  64
03AE2:  BNC   3AEA
03AE4:  MOVF   xB9,W
03AE6:  SUBLW  31
03AE8:  BNC   3B2A
....................       Atmosferica=72; 
03AEA:  MOVLW  48
03AEC:  MOVWF  xB9
....................       write_eeprom(46,72); 
03AEE:  CLRF   FAA
03AF0:  MOVLW  2E
03AF2:  MOVWF  FA9
03AF4:  MOVLW  48
03AF6:  MOVWF  FA8
03AF8:  BCF    FA6.6
03AFA:  BCF    FA6.7
03AFC:  BSF    FA6.2
03AFE:  MOVF   FF2,W
03B00:  MOVWF  00
03B02:  BCF    FF2.6
03B04:  BCF    FF2.7
03B06:  MOVLB  F
03B08:  MOVLW  55
03B0A:  MOVWF  FA7
03B0C:  MOVLW  AA
03B0E:  MOVWF  FA7
03B10:  BSF    FA6.1
03B12:  BTFSC  FA6.1
03B14:  BRA    3B12
03B16:  BCF    FA6.2
03B18:  MOVF   00,W
03B1A:  IORWF  FF2,F
....................       delay_ms(10); 
03B1C:  MOVLW  0A
03B1E:  MOVLB  4
03B20:  MOVWF  x63
03B22:  MOVLB  0
03B24:  CALL   1A6C
03B28:  MOVLB  3
....................    } 
....................    if(pulsosPurgaProgramados>30 || pulsosPurgaProgramados<1){ 
03B2A:  MOVF   x3C,W
03B2C:  SUBLW  1E
03B2E:  BNC   3B34
03B30:  MOVF   x3C,F
03B32:  BNZ   3B74
....................       pulsosPurgaProgramados=15; 
03B34:  MOVLW  0F
03B36:  MOVWF  x3C
....................       write_eeprom(47,15); 
03B38:  CLRF   FAA
03B3A:  MOVLW  2F
03B3C:  MOVWF  FA9
03B3E:  MOVLW  0F
03B40:  MOVWF  FA8
03B42:  BCF    FA6.6
03B44:  BCF    FA6.7
03B46:  BSF    FA6.2
03B48:  MOVF   FF2,W
03B4A:  MOVWF  00
03B4C:  BCF    FF2.6
03B4E:  BCF    FF2.7
03B50:  MOVLB  F
03B52:  MOVLW  55
03B54:  MOVWF  FA7
03B56:  MOVLW  AA
03B58:  MOVWF  FA7
03B5A:  BSF    FA6.1
03B5C:  BTFSC  FA6.1
03B5E:  BRA    3B5C
03B60:  BCF    FA6.2
03B62:  MOVF   00,W
03B64:  IORWF  FF2,F
....................       delay_ms(10); 
03B66:  MOVLW  0A
03B68:  MOVLB  4
03B6A:  MOVWF  x63
03B6C:  MOVLB  0
03B6E:  CALL   1A6C
03B72:  MOVLB  3
....................    } 
....................    if(sg1==10){ 
03B74:  MOVF   xBC,W
03B76:  SUBLW  0A
03B78:  BNZ   3B90
....................       G1=G1*(-1); 
03B7A:  MOVFF  3BA,44C
03B7E:  MOVLW  FF
03B80:  MOVLB  4
03B82:  MOVWF  x4D
03B84:  MOVLB  0
03B86:  CALL   30AC
03B8A:  MOVFF  01,3BA
03B8E:  MOVLB  3
....................    } 
....................    if(sg2==10){ 
03B90:  MOVF   xBD,W
03B92:  SUBLW  0A
03B94:  BNZ   3BAC
....................       G2=G2*(-1); 
03B96:  MOVFF  3BB,44C
03B9A:  MOVLW  FF
03B9C:  MOVLB  4
03B9E:  MOVWF  x4D
03BA0:  MOVLB  0
03BA2:  CALL   30AC
03BA6:  MOVFF  01,3BB
03BAA:  MOVLB  3
....................    } 
.................... } 
03BAC:  MOVLB  0
03BAE:  GOTO   8AF0 (RETURN)
....................  
.................... void LeeDisplay(void){ 
....................    if(Dato_Exitoso==5){ 
*
04604:  MOVLB  3
04606:  MOVF   x59,W
04608:  SUBLW  05
0460A:  BTFSS  FD8.2
0460C:  BRA    4782
....................          RX_Buffer[0]=RX_Buffer2[0]; 
0460E:  MOVFF  3B,30
....................          RX_Buffer[1]=RX_Buffer2[1]; 
04612:  MOVFF  3C,31
....................          RX_Buffer[2]=RX_Buffer2[2]; 
04616:  MOVFF  3D,32
....................          RX_Buffer[3]=RX_Buffer2[3]; 
0461A:  MOVFF  3E,33
....................          RX_Buffer[4]=RX_Buffer2[4]; 
0461E:  MOVFF  3F,34
....................          RX_Buffer[5]=RX_Buffer2[5]; 
04622:  MOVFF  40,35
....................          RX_Buffer[6]=RX_Buffer2[6]; 
04626:  MOVFF  41,36
....................          RX_Buffer[7]=RX_Buffer2[7]; 
0462A:  MOVFF  42,37
....................          RX_Buffer[8]=RX_Buffer2[8]; 
0462E:  MOVFF  43,38
....................          RX_Buffer[9]=RX_Buffer2[9]; 
04632:  MOVFF  44,39
....................           
....................       if(RX_Buffer[3]==0x01){// Pregunta por la pagina en la que esta el display,01 es Contrasea de Acceso 
04636:  DECFSZ 33,W
04638:  BRA    4648
....................          Menu=0; 
0463A:  CLRF   x5C
....................          if(MenuAntt!=Menu) 
0463C:  MOVF   x5C,W
0463E:  SUBWF  x5E,W
04640:  BZ    4646
....................             MenuAntt=Menu; 
04642:  MOVFF  35C,35E
....................       }else if(RX_Buffer[3]==0x02){//02 es Menu Principal con PantallaPriincipal=0, y con PantallaPrincipal=1 es Ciclo Libre 
04646:  BRA    4780
04648:  MOVF   33,W
0464A:  SUBLW  02
0464C:  BNZ   465E
....................          Menu=1; 
0464E:  MOVLW  01
04650:  MOVWF  x5C
....................          if(MenuAntt!=Menu) 
04652:  MOVF   x5C,W
04654:  SUBWF  x5E,W
04656:  BZ    465C
....................             MenuAntt=Menu; 
04658:  MOVFF  35C,35E
....................       }else if(RX_Buffer[3]==0x03){//03 es Tiempo Esterilizacion 
0465C:  BRA    4780
0465E:  MOVF   33,W
04660:  SUBLW  03
04662:  BNZ   4674
....................          Menu=2; 
04664:  MOVLW  02
04666:  MOVWF  x5C
....................          if(MenuAntt!=Menu) 
04668:  MOVF   x5C,W
0466A:  SUBWF  x5E,W
0466C:  BZ    4672
....................             MenuAntt=Menu; 
0466E:  MOVFF  35C,35E
....................       }else if(RX_Buffer[3]==0x04){//04 es Tiempo de Secado 
04672:  BRA    4780
04674:  MOVF   33,W
04676:  SUBLW  04
04678:  BNZ   468A
....................          Menu=3; 
0467A:  MOVLW  03
0467C:  MOVWF  x5C
....................          if(MenuAntt!=Menu) 
0467E:  MOVF   x5C,W
04680:  SUBWF  x5E,W
04682:  BZ    4688
....................             MenuAntt=Menu; 
04684:  MOVFF  35C,35E
....................       }else if(RX_Buffer[3]==0x05){//05 es Temperatura 
04688:  BRA    4780
0468A:  MOVF   33,W
0468C:  SUBLW  05
0468E:  BNZ   46A0
....................          Menu=4; 
04690:  MOVLW  04
04692:  MOVWF  x5C
....................          if(MenuAntt!=Menu) 
04694:  MOVF   x5C,W
04696:  SUBWF  x5E,W
04698:  BZ    469E
....................             MenuAntt=Menu; 
0469A:  MOVFF  35C,35E
....................       }else if(RX_Buffer[3]==0x06){//06 es Nivel 
0469E:  BRA    4780
046A0:  MOVF   33,W
046A2:  SUBLW  06
046A4:  BNZ   46B6
....................          Menu=5; 
046A6:  MOVLW  05
046A8:  MOVWF  x5C
....................          if(MenuAntt!=Menu) 
046AA:  MOVF   x5C,W
046AC:  SUBWF  x5E,W
046AE:  BZ    46B4
....................             MenuAntt=Menu; 
046B0:  MOVFF  35C,35E
....................       }else if(RX_Buffer[3]==0x07){//07 es Test de Componentes 
046B4:  BRA    4780
046B6:  MOVF   33,W
046B8:  SUBLW  07
046BA:  BNZ   46CC
....................          Menu=6; 
046BC:  MOVLW  06
046BE:  MOVWF  x5C
....................          if(MenuAntt!=Menu) 
046C0:  MOVF   x5C,W
046C2:  SUBWF  x5E,W
046C4:  BZ    46CA
....................             MenuAntt=Menu; 
046C6:  MOVFF  35C,35E
....................       }else if(RX_Buffer[3]==0x08){//08 es Fecha y hora 
046CA:  BRA    4780
046CC:  MOVF   33,W
046CE:  SUBLW  08
046D0:  BNZ   46E2
....................          Menu=7; 
046D2:  MOVLW  07
046D4:  MOVWF  x5C
....................          if(MenuAntt!=Menu) 
046D6:  MOVF   x5C,W
046D8:  SUBWF  x5E,W
046DA:  BZ    46E0
....................             MenuAntt=Menu; 
046DC:  MOVFF  35C,35E
....................       }else if(RX_Buffer[3]==0x09){//09 es Ciclos Personalizados 
046E0:  BRA    4780
046E2:  MOVF   33,W
046E4:  SUBLW  09
046E6:  BNZ   46F8
....................          Menu=8; 
046E8:  MOVLW  08
046EA:  MOVWF  x5C
....................          if(MenuAntt!=Menu) 
046EC:  MOVF   x5C,W
046EE:  SUBWF  x5E,W
046F0:  BZ    46F6
....................             MenuAntt=Menu; 
046F2:  MOVFF  35C,35E
....................       }else if(RX_Buffer[3]==0x0d){//0d es Ciclos 
046F6:  BRA    4780
046F8:  MOVF   33,W
046FA:  SUBLW  0D
046FC:  BNZ   470E
....................          Menu=12; 
046FE:  MOVLW  0C
04700:  MOVWF  x5C
....................          if(MenuAntt!=Menu) 
04702:  MOVF   x5C,W
04704:  SUBWF  x5E,W
04706:  BZ    470C
....................             MenuAntt=Menu; 
04708:  MOVFF  35C,35E
....................       }else if(RX_Buffer[3]==0x0f){//0f es Recibe caracteres de contrasea desde display 
0470C:  BRA    4780
0470E:  MOVF   33,W
04710:  SUBLW  0F
04712:  BNZ   4716
....................           
....................       }else if(RX_Buffer[3]==0x1a){//1a es Menu de Funcionamiento 
04714:  BRA    4780
04716:  MOVF   33,W
04718:  SUBLW  1A
0471A:  BNZ   472C
....................          Menu=20; 
0471C:  MOVLW  14
0471E:  MOVWF  x5C
....................          if(MenuAntt!=Menu) 
04720:  MOVF   x5C,W
04722:  SUBWF  x5E,W
04724:  BZ    472A
....................             MenuAntt=Menu; 
04726:  MOVFF  35C,35E
....................       }else if(RX_Buffer[3]==0x1b){//1b es Menu de clave correcta 
0472A:  BRA    4780
0472C:  MOVF   33,W
0472E:  SUBLW  1B
04730:  BNZ   4742
....................          Menu=15; 
04732:  MOVLW  0F
04734:  MOVWF  x5C
....................          if(MenuAntt!=Menu) 
04736:  MOVF   x5C,W
04738:  SUBWF  x5E,W
0473A:  BZ    4740
....................             MenuAntt=Menu; 
0473C:  MOVFF  35C,35E
....................       }else if(RX_Buffer[3]==0x1c){//1c es Menu de clave incorrecta 
04740:  BRA    4780
04742:  MOVF   33,W
04744:  SUBLW  1C
04746:  BNZ   4758
....................          Menu=16; 
04748:  MOVLW  10
0474A:  MOVWF  x5C
....................          if(MenuAntt!=Menu) 
0474C:  MOVF   x5C,W
0474E:  SUBWF  x5E,W
04750:  BZ    4756
....................             MenuAntt=Menu; 
04752:  MOVFF  35C,35E
....................       }else if(RX_Buffer[3]==0x2c){//2c es Menu de Configuracion de Parametros 
04756:  BRA    4780
04758:  MOVF   33,W
0475A:  SUBLW  2C
0475C:  BNZ   476E
....................          Menu=100; 
0475E:  MOVLW  64
04760:  MOVWF  x5C
....................          if(MenuAntt!=Menu) 
04762:  MOVF   x5C,W
04764:  SUBWF  x5E,W
04766:  BZ    476C
....................             MenuAntt=Menu; 
04768:  MOVFF  35C,35E
....................       }else if(RX_Buffer[3]==0xcc){//cc es Menu de Bienvenida 
0476C:  BRA    4780
0476E:  MOVF   33,W
04770:  SUBLW  CC
04772:  BNZ   4780
....................          Menu=240; 
04774:  MOVLW  F0
04776:  MOVWF  x5C
....................          if(MenuAntt!=240) 
04778:  MOVF   x5E,W
0477A:  SUBLW  F0
0477C:  BZ    4780
....................             reset_cpu(); 
0477E:  RESET
....................       } 
....................    }else{ 
04780:  BRA    478E
....................       for(z=0;z<RX_BUFFER_SIZE;z++){ 
04782:  CLRF   x5B
04784:  MOVF   x5B,W
04786:  SUBLW  09
04788:  BNC   478E
....................             //Rx_Buffer[z]=0; 
....................             //Rx_Buffer2[z]=0; 
....................          } 
0478A:  INCF   x5B,F
0478C:  BRA    4784
....................    } 
.................... } 
0478E:  MOVLB  0
04790:  GOTO   8D98 (RETURN)
....................  
.................... void ActivaAlarma(int8 Tipo){ 
....................     
....................    if(tsilencio>12000){ 
*
04A24:  MOVLB  3
04A26:  MOVF   x98,W
04A28:  SUBLW  2D
04A2A:  BC    4A3E
04A2C:  XORLW  FF
04A2E:  BNZ   4A36
04A30:  MOVF   x97,W
04A32:  SUBLW  E0
04A34:  BC    4A3E
....................       tsilencio=0; 
04A36:  CLRF   x98
04A38:  CLRF   x97
....................       flagSilencio=OFF; 
04A3A:  MOVLB  0
04A3C:  BCF    xA3.4
....................    } 
....................     
....................    if(Tipo==1){ // Alarma por Error 
04A3E:  MOVLB  4
04A40:  DECFSZ x4A,W
04A42:  BRA    4A9A
....................    if(UP || DOWN || RIGHT || LEFT) 
04A44:  BSF    F93.0
04A46:  BTFSS  F81.0
04A48:  BRA    4A5C
04A4A:  BSF    F93.1
04A4C:  BTFSS  F81.1
04A4E:  BRA    4A5C
04A50:  BSF    F93.2
04A52:  BTFSS  F81.2
04A54:  BRA    4A5C
04A56:  BSF    F93.3
04A58:  BTFSC  F81.3
04A5A:  BRA    4A60
....................       flagSilencio=ON; 
04A5C:  MOVLB  0
04A5E:  BSF    xA3.4
....................        
....................       if(!flagSilencio){ 
04A60:  MOVLB  0
04A62:  BTFSC  xA3.4
04A64:  BRA    4A90
....................          flagAlarma=1; 
04A66:  BSF    xA3.1
....................          if(tbuzzer>200){ 
04A68:  MOVLB  3
04A6A:  MOVF   x96,F
04A6C:  BNZ   4A74
04A6E:  MOVF   x95,W
04A70:  SUBLW  C8
04A72:  BC    4A8C
....................             tbuzzer=0; 
04A74:  CLRF   x96
04A76:  CLRF   x95
....................             flagBuzzer=!flagBuzzer; 
04A78:  MOVLB  0
04A7A:  BTG    xA3.3
....................             if(flagBuzzer) 
04A7C:  BTFSS  xA3.3
04A7E:  BRA    4A86
....................                Buzzer_on; 
04A80:  BSF    F8C.0
04A82:  BCF    F95.0
....................             else 
04A84:  BRA    4A8A
....................                Buzzer_off; 
04A86:  BCF    F8C.0
04A88:  BCF    F95.0
04A8A:  MOVLB  3
....................          } 
....................       }else{ 
04A8C:  BRA    4A96
04A8E:  MOVLB  0
....................          Buzzer_off; 
04A90:  BCF    F8C.0
04A92:  BCF    F95.0
04A94:  MOVLB  3
....................       } 
....................    }else if(Tipo==2){ 
04A96:  BRA    4AF4
04A98:  MOVLB  4
04A9A:  MOVF   x4A,W
04A9C:  SUBLW  02
04A9E:  BNZ   4AF6
....................    if(UP || DOWN || RIGHT || LEFT) 
04AA0:  BSF    F93.0
04AA2:  BTFSS  F81.0
04AA4:  BRA    4AB8
04AA6:  BSF    F93.1
04AA8:  BTFSS  F81.1
04AAA:  BRA    4AB8
04AAC:  BSF    F93.2
04AAE:  BTFSS  F81.2
04AB0:  BRA    4AB8
04AB2:  BSF    F93.3
04AB4:  BTFSC  F81.3
04AB6:  BRA    4ABE
....................       ConteoBuzzer=21; 
04AB8:  MOVLW  15
04ABA:  MOVLB  3
04ABC:  MOVWF  x92
....................        
....................       flagAlarma=1; 
04ABE:  MOVLB  0
04AC0:  BSF    xA3.1
....................       if(ConteoBuzzer<20){    
04AC2:  MOVLB  3
04AC4:  MOVF   x92,W
04AC6:  SUBLW  13
04AC8:  BNC   4AF0
....................          if(tbuzzer>100){ 
04ACA:  MOVF   x96,F
04ACC:  BNZ   4AD4
04ACE:  MOVF   x95,W
04AD0:  SUBLW  64
04AD2:  BC    4AEE
....................             tbuzzer=0; 
04AD4:  CLRF   x96
04AD6:  CLRF   x95
....................             flagBuzzer=!flagBuzzer; 
04AD8:  MOVLB  0
04ADA:  BTG    xA3.3
....................             if(flagBuzzer) 
04ADC:  BTFSS  xA3.3
04ADE:  BRA    4AE6
....................                Buzzer_on; 
04AE0:  BSF    F8C.0
04AE2:  BCF    F95.0
....................             else 
04AE4:  BRA    4AEA
....................                Buzzer_off; 
04AE6:  BCF    F8C.0
04AE8:  BCF    F95.0
....................                 
....................             ConteoBuzzer++;    
04AEA:  MOVLB  3
04AEC:  INCF   x92,F
....................          } 
....................       }else{ 
04AEE:  BRA    4AF4
....................          Buzzer_off; 
04AF0:  BCF    F8C.0
04AF2:  BCF    F95.0
04AF4:  MOVLB  4
....................       } 
....................    } 
.................... } 
04AF6:  MOVLB  0
04AF8:  RETLW  00
....................  
.................... void CalientaChaqueta(){ 
....................    /*if(PresionPrecamara<130){ 
....................       SSR_on; 
....................    }else if(PresionPreCamara>150){ 
....................       SSR_off; 
....................    } 
....................    */                                  
....................    Tp=50; 
*
08232:  CLRF   xAC
08234:  MOVLW  32
08236:  MOVWF  xAB
....................    Tc=(Tciclo/0.005); 
08238:  MOVFF  2EF,456
0823C:  MOVFF  2EE,455
08240:  MOVFF  2ED,454
08244:  MOVFF  2EC,453
08248:  MOVLW  0A
0824A:  MOVLB  4
0824C:  MOVWF  x5A
0824E:  MOVLW  D7
08250:  MOVWF  x59
08252:  MOVLW  23
08254:  MOVWF  x58
08256:  MOVLW  77
08258:  MOVWF  x57
0825A:  MOVLB  0
0825C:  CALL   1ACA
08260:  MOVFF  03,462
08264:  MOVFF  02,461
08268:  MOVFF  01,460
0826C:  MOVFF  00,45F
08270:  CALL   43CC
08274:  MOVFF  02,AE
08278:  MOVFF  01,AD
....................    Controlando=1;  
0827C:  MOVLW  01
0827E:  MOVLB  3
08280:  MOVWF  x54
.................... } 
08282:  MOVLB  0
08284:  GOTO   E0AC (RETURN)
....................  
.................... void ApagaSalidas(){ 
....................    Desfogue_off; 
*
03C1A:  BCF    F8C.4
03C1C:  BCF    F95.4
....................    #ifdef Enfriador 
....................    Enfr_off; 
....................    #else 
....................    Bomba_off; 
03C1E:  BCF    F8C.6
03C20:  BCF    F95.6
....................    #endif 
....................    Buzzer_off; 
03C22:  BCF    F8C.0
03C24:  BCF    F95.0
....................    SSR_off; 
03C26:  BSF    F8B.2
03C28:  BCF    F94.2
....................    Aire=OFF; 
03C2A:  BCF    xA4.2
....................    Agua_off; 
03C2C:  BCF    F8C.5
03C2E:  BCF    F95.5
....................    Controlando=0; 
03C30:  MOVLB  3
03C32:  CLRF   x54
.................... } 
03C34:  MOVLB  0
03C36:  RETLW  00
....................  
.................... int8 extraeDecima(int8 tiempo){ 
*
05778:  MOVLB  4
0577A:  CLRF   x52
0577C:  CLRF   x53
....................    int8 tmp=0,decima=0; 
....................    tmp=tiempo/10; 
0577E:  MOVFF  451,454
05782:  MOVLW  0A
05784:  MOVWF  x55
05786:  MOVLB  0
05788:  CALL   4B58
0578C:  MOVFF  01,452
....................    tmp=tmp*10; 
05790:  MOVLB  4
05792:  MOVF   x52,W
05794:  MULLW  0A
05796:  MOVFF  FF3,452
....................    decima=tiempo-tmp; 
0579A:  MOVF   x52,W
0579C:  SUBWF  x51,W
0579E:  MOVWF  x53
....................    return decima; 
057A0:  MOVFF  453,01
.................... } 
057A4:  MOVLB  0
057A6:  RETLW  00
....................  
.................... int8 extraeDecimal(float data){ 
*
06D38:  MOVLB  4
06D3A:  CLRF   x57
06D3C:  CLRF   x56
06D3E:  CLRF   x55
06D40:  CLRF   x54
06D42:  CLRF   x5B
06D44:  CLRF   x5A
06D46:  CLRF   x59
06D48:  CLRF   x58
....................    float entero=0; 
....................    float tmp=0.0; 
....................     
....................    entero=(int8)data; 
06D4A:  MOVFF  453,462
06D4E:  MOVFF  452,461
06D52:  MOVFF  451,460
06D56:  MOVFF  450,45F
06D5A:  MOVLB  0
06D5C:  CALL   43CC
06D60:  MOVLB  4
06D62:  CLRF   x60
06D64:  MOVFF  01,45F
06D68:  MOVLB  0
06D6A:  CALL   1A94
06D6E:  MOVFF  03,457
06D72:  MOVFF  02,456
06D76:  MOVFF  01,455
06D7A:  MOVFF  00,454
....................    tmp=(data-entero)*10; 
06D7E:  BSF    FD8.1
06D80:  MOVFF  453,462
06D84:  MOVFF  452,461
06D88:  MOVFF  451,460
06D8C:  MOVFF  450,45F
06D90:  MOVFF  457,466
06D94:  MOVFF  456,465
06D98:  MOVFF  455,464
06D9C:  MOVFF  454,463
06DA0:  CALL   1C28
06DA4:  MOVFF  00,45C
06DA8:  MOVFF  01,45D
06DAC:  MOVFF  02,45E
06DB0:  MOVFF  03,45F
06DB4:  MOVFF  03,466
06DB8:  MOVFF  02,465
06DBC:  MOVFF  01,464
06DC0:  MOVFF  00,463
06DC4:  MOVLB  4
06DC6:  CLRF   x6A
06DC8:  CLRF   x69
06DCA:  MOVLW  20
06DCC:  MOVWF  x68
06DCE:  MOVLW  82
06DD0:  MOVWF  x67
06DD2:  MOVLB  0
06DD4:  CALL   3C90
06DD8:  MOVFF  03,45B
06DDC:  MOVFF  02,45A
06DE0:  MOVFF  01,459
06DE4:  MOVFF  00,458
....................    return (int8)tmp; 
06DE8:  MOVFF  45B,462
06DEC:  MOVFF  45A,461
06DF0:  MOVFF  459,460
06DF4:  MOVFF  458,45F
06DF8:  CALL   43CC
06DFC:  MOVF   01,W
.................... } 
06DFE:  GOTO   6F36 (RETURN)
....................  
.................... void actualizaTabla(){ 
....................    diaCiclos=read_ext_eeprom(2+(cicloVisto*320)); 
*
0590A:  MOVFF  3A0,466
0590E:  MOVFF  39F,465
05912:  MOVLW  01
05914:  MOVLB  4
05916:  MOVWF  x68
05918:  MOVLW  40
0591A:  MOVWF  x67
0591C:  MOVLB  0
0591E:  CALL   1EA0
05922:  MOVFF  02,03
05926:  MOVF   01,W
05928:  ADDLW  02
0592A:  MOVLB  4
0592C:  MOVWF  x4A
0592E:  MOVLW  00
05930:  ADDWFC 02,W
05932:  MOVWF  x4B
05934:  MOVWF  x50
05936:  MOVFF  44A,44F
0593A:  MOVLB  0
0593C:  RCALL  5814
0593E:  MOVFF  01,3D0
....................          if(diaCiclos>31) 
05942:  MOVLB  3
05944:  MOVF   xD0,W
05946:  SUBLW  1F
05948:  BC    594E
....................             diaCiclos=1; 
0594A:  MOVLW  01
0594C:  MOVWF  xD0
....................          mesCiclos=read_ext_eeprom(3+(cicloVisto*320)); 
0594E:  MOVFF  3A0,466
05952:  MOVFF  39F,465
05956:  MOVLW  01
05958:  MOVLB  4
0595A:  MOVWF  x68
0595C:  MOVLW  40
0595E:  MOVWF  x67
05960:  MOVLB  0
05962:  CALL   1EA0
05966:  MOVFF  02,03
0596A:  MOVF   01,W
0596C:  ADDLW  03
0596E:  MOVLB  4
05970:  MOVWF  x4A
05972:  MOVLW  00
05974:  ADDWFC 02,W
05976:  MOVWF  x4B
05978:  MOVWF  x50
0597A:  MOVFF  44A,44F
0597E:  MOVLB  0
05980:  RCALL  5814
05982:  MOVFF  01,3D1
....................          if(mesCiclos>12) 
05986:  MOVLB  3
05988:  MOVF   xD1,W
0598A:  SUBLW  0C
0598C:  BC    5992
....................             mesCiclos=1; 
0598E:  MOVLW  01
05990:  MOVWF  xD1
....................          yearCiclos=read_ext_eeprom(4+(cicloVisto*320)); 
05992:  MOVFF  3A0,466
05996:  MOVFF  39F,465
0599A:  MOVLW  01
0599C:  MOVLB  4
0599E:  MOVWF  x68
059A0:  MOVLW  40
059A2:  MOVWF  x67
059A4:  MOVLB  0
059A6:  CALL   1EA0
059AA:  MOVFF  02,03
059AE:  MOVF   01,W
059B0:  ADDLW  04
059B2:  MOVLB  4
059B4:  MOVWF  x4A
059B6:  MOVLW  00
059B8:  ADDWFC 02,W
059BA:  MOVWF  x4B
059BC:  MOVWF  x50
059BE:  MOVFF  44A,44F
059C2:  MOVLB  0
059C4:  RCALL  5814
059C6:  MOVFF  01,3D2
....................          if(yearCiclos>99) 
059CA:  MOVLB  3
059CC:  MOVF   xD2,W
059CE:  SUBLW  63
059D0:  BC    59D6
....................             yearCiclos=19; 
059D2:  MOVLW  13
059D4:  MOVWF  xD2
....................          cicloCiclos=read_ext_eeprom(1+(cicloVisto*320)); 
059D6:  MOVFF  3A0,466
059DA:  MOVFF  39F,465
059DE:  MOVLW  01
059E0:  MOVLB  4
059E2:  MOVWF  x68
059E4:  MOVLW  40
059E6:  MOVWF  x67
059E8:  MOVLB  0
059EA:  CALL   1EA0
059EE:  MOVFF  02,03
059F2:  MOVF   01,W
059F4:  ADDLW  01
059F6:  MOVLB  4
059F8:  MOVWF  x4A
059FA:  MOVLW  00
059FC:  ADDWFC 02,W
059FE:  MOVWF  x4B
05A00:  MOVWF  x50
05A02:  MOVFF  44A,44F
05A06:  MOVLB  0
05A08:  RCALL  5814
05A0A:  MOVFF  01,3D4
....................          if(cicloCiclos>20) 
05A0E:  MOVLB  3
05A10:  MOVF   xD4,W
05A12:  SUBLW  14
05A14:  BC    5A1A
....................             cicloCiclos=1; 
05A16:  MOVLW  01
05A18:  MOVWF  xD4
....................          usuarioCiclos=read_ext_eeprom((cicloVisto*320)); 
05A1A:  MOVFF  3A0,466
05A1E:  MOVFF  39F,465
05A22:  MOVLW  01
05A24:  MOVLB  4
05A26:  MOVWF  x68
05A28:  MOVLW  40
05A2A:  MOVWF  x67
05A2C:  MOVLB  0
05A2E:  CALL   1EA0
05A32:  MOVFF  02,44B
05A36:  MOVFF  01,44A
05A3A:  MOVFF  02,450
05A3E:  MOVFF  01,44F
05A42:  RCALL  5814
05A44:  MOVFF  01,3D3
....................          if(usuarioCiclos>10) 
05A48:  MOVLB  3
05A4A:  MOVF   xD3,W
05A4C:  SUBLW  0A
05A4E:  BC    5A54
....................             usuarioCiclos=1; 
05A50:  MOVLW  01
05A52:  MOVWF  xD3
....................          for(i=0;i<7;i++){//Lee Valores para completar la Tabla 
05A54:  CLRF   xA4
05A56:  CLRF   xA3
05A58:  MOVF   xA4,F
05A5A:  BTFSS  FD8.2
05A5C:  BRA    6112
05A5E:  MOVF   xA3,W
05A60:  SUBLW  06
05A62:  BTFSS  FD8.0
05A64:  BRA    6112
....................             horaCiclos[i]=read_ext_eeprom((cicloVisto*320)+11+((cicloVisualizado+i)*9)); 
05A66:  MOVLW  0D
05A68:  ADDWF  xA3,W
05A6A:  MOVWF  01
05A6C:  MOVLW  04
05A6E:  ADDWFC xA4,W
05A70:  MOVWF  03
05A72:  MOVFF  01,44A
05A76:  MOVLB  4
05A78:  MOVWF  x4B
05A7A:  MOVFF  3A0,466
05A7E:  MOVFF  39F,465
05A82:  MOVLW  01
05A84:  MOVWF  x68
05A86:  MOVLW  40
05A88:  MOVWF  x67
05A8A:  MOVLB  0
05A8C:  CALL   1EA0
05A90:  MOVFF  02,44D
05A94:  MOVFF  01,44C
05A98:  MOVLW  0B
05A9A:  MOVLB  4
05A9C:  ADDWF  x4C,F
05A9E:  MOVLW  00
05AA0:  ADDWFC x4D,F
05AA2:  MOVLB  3
05AA4:  MOVF   xA3,W
05AA6:  ADDWF  xA1,W
05AA8:  MOVLB  4
05AAA:  MOVWF  x4E
05AAC:  MOVLB  3
05AAE:  MOVF   xA4,W
05AB0:  ADDWFC xA2,W
05AB2:  MOVLB  4
05AB4:  MOVWF  x4F
05AB6:  MOVWF  x66
05AB8:  MOVFF  44E,465
05ABC:  CLRF   x68
05ABE:  MOVLW  09
05AC0:  MOVWF  x67
05AC2:  MOVLB  0
05AC4:  CALL   1EA0
05AC8:  MOVFF  02,03
05ACC:  MOVF   01,W
05ACE:  MOVLB  4
05AD0:  ADDWF  x4C,F
05AD2:  MOVF   02,W
05AD4:  ADDWFC x4D,F
05AD6:  MOVFF  44D,450
05ADA:  MOVFF  44C,44F
05ADE:  MOVLB  0
05AE0:  RCALL  5814
05AE2:  MOVFF  44B,FEA
05AE6:  MOVFF  44A,FE9
05AEA:  MOVFF  01,FEF
....................             if(horaCiclos[i]>24) 
05AEE:  MOVLW  0D
05AF0:  MOVLB  3
05AF2:  ADDWF  xA3,W
05AF4:  MOVWF  FE9
05AF6:  MOVLW  04
05AF8:  ADDWFC xA4,W
05AFA:  MOVWF  FEA
05AFC:  MOVF   FEF,W
05AFE:  SUBLW  18
05B00:  BC    5B10
....................                horaCiclos[i]=0; 
05B02:  MOVLW  0D
05B04:  ADDWF  xA3,W
05B06:  MOVWF  FE9
05B08:  MOVLW  04
05B0A:  ADDWFC xA4,W
05B0C:  MOVWF  FEA
05B0E:  CLRF   FEF
....................             minutoCiclos[i]=read_ext_eeprom((cicloVisto*320)+12+((cicloVisualizado+i)*9)); 
05B10:  MOVLW  14
05B12:  ADDWF  xA3,W
05B14:  MOVWF  01
05B16:  MOVLW  04
05B18:  ADDWFC xA4,W
05B1A:  MOVWF  03
05B1C:  MOVFF  01,44A
05B20:  MOVLB  4
05B22:  MOVWF  x4B
05B24:  MOVFF  3A0,466
05B28:  MOVFF  39F,465
05B2C:  MOVLW  01
05B2E:  MOVWF  x68
05B30:  MOVLW  40
05B32:  MOVWF  x67
05B34:  MOVLB  0
05B36:  CALL   1EA0
05B3A:  MOVFF  02,44D
05B3E:  MOVFF  01,44C
05B42:  MOVLW  0C
05B44:  MOVLB  4
05B46:  ADDWF  x4C,F
05B48:  MOVLW  00
05B4A:  ADDWFC x4D,F
05B4C:  MOVLB  3
05B4E:  MOVF   xA3,W
05B50:  ADDWF  xA1,W
05B52:  MOVLB  4
05B54:  MOVWF  x4E
05B56:  MOVLB  3
05B58:  MOVF   xA4,W
05B5A:  ADDWFC xA2,W
05B5C:  MOVLB  4
05B5E:  MOVWF  x4F
05B60:  MOVWF  x66
05B62:  MOVFF  44E,465
05B66:  CLRF   x68
05B68:  MOVLW  09
05B6A:  MOVWF  x67
05B6C:  MOVLB  0
05B6E:  CALL   1EA0
05B72:  MOVFF  02,03
05B76:  MOVF   01,W
05B78:  MOVLB  4
05B7A:  ADDWF  x4C,F
05B7C:  MOVF   02,W
05B7E:  ADDWFC x4D,F
05B80:  MOVFF  44D,450
05B84:  MOVFF  44C,44F
05B88:  MOVLB  0
05B8A:  RCALL  5814
05B8C:  MOVFF  44B,FEA
05B90:  MOVFF  44A,FE9
05B94:  MOVFF  01,FEF
....................             if(minutoCiclos[i]>59) 
05B98:  MOVLW  14
05B9A:  MOVLB  3
05B9C:  ADDWF  xA3,W
05B9E:  MOVWF  FE9
05BA0:  MOVLW  04
05BA2:  ADDWFC xA4,W
05BA4:  MOVWF  FEA
05BA6:  MOVF   FEF,W
05BA8:  SUBLW  3B
05BAA:  BC    5BBA
....................                minutoCiclos[i]=0; 
05BAC:  MOVLW  14
05BAE:  ADDWF  xA3,W
05BB0:  MOVWF  FE9
05BB2:  MOVLW  04
05BB4:  ADDWFC xA4,W
05BB6:  MOVWF  FEA
05BB8:  CLRF   FEF
....................             TCiclos[i]=read_ext_eeprom((cicloVisto*320)+5+((cicloVisualizado+i)*9))+inttofloat(read_ext_eeprom((cicloVisto*320)+6+((cicloVisualizado+i)*9))); 
05BBA:  RLCF   xA3,W
05BBC:  MOVWF  02
05BBE:  RLCF   xA4,W
05BC0:  MOVWF  03
05BC2:  RLCF   02,F
05BC4:  RLCF   03,F
05BC6:  MOVLW  FC
05BC8:  ANDWF  02,F
05BCA:  MOVF   02,W
05BCC:  ADDLW  D5
05BCE:  MOVWF  01
05BD0:  MOVLW  03
05BD2:  ADDWFC 03,F
05BD4:  MOVFF  01,44A
05BD8:  MOVLB  4
05BDA:  MOVFF  03,44B
05BDE:  MOVFF  3A0,466
05BE2:  MOVFF  39F,465
05BE6:  MOVLW  01
05BE8:  MOVWF  x68
05BEA:  MOVLW  40
05BEC:  MOVWF  x67
05BEE:  MOVLB  0
05BF0:  CALL   1EA0
05BF4:  MOVFF  02,44D
05BF8:  MOVFF  01,44C
05BFC:  MOVLW  05
05BFE:  MOVLB  4
05C00:  ADDWF  x4C,F
05C02:  MOVLW  00
05C04:  ADDWFC x4D,F
05C06:  MOVLB  3
05C08:  MOVF   xA3,W
05C0A:  ADDWF  xA1,W
05C0C:  MOVLB  4
05C0E:  MOVWF  x4E
05C10:  MOVLB  3
05C12:  MOVF   xA4,W
05C14:  ADDWFC xA2,W
05C16:  MOVLB  4
05C18:  MOVWF  x4F
05C1A:  MOVWF  x66
05C1C:  MOVFF  44E,465
05C20:  CLRF   x68
05C22:  MOVLW  09
05C24:  MOVWF  x67
05C26:  MOVLB  0
05C28:  CALL   1EA0
05C2C:  MOVFF  02,03
05C30:  MOVF   01,W
05C32:  MOVLB  4
05C34:  ADDWF  x4C,F
05C36:  MOVF   02,W
05C38:  ADDWFC x4D,F
05C3A:  MOVFF  44D,450
05C3E:  MOVFF  44C,44F
05C42:  MOVLB  0
05C44:  RCALL  5814
05C46:  MOVFF  01,44C
05C4A:  MOVFF  3A0,466
05C4E:  MOVFF  39F,465
05C52:  MOVLW  01
05C54:  MOVLB  4
05C56:  MOVWF  x68
05C58:  MOVLW  40
05C5A:  MOVWF  x67
05C5C:  MOVLB  0
05C5E:  CALL   1EA0
05C62:  MOVFF  02,44E
05C66:  MOVFF  01,44D
05C6A:  MOVLW  06
05C6C:  MOVLB  4
05C6E:  ADDWF  x4D,F
05C70:  MOVLW  00
05C72:  ADDWFC x4E,F
05C74:  MOVLB  3
05C76:  MOVF   xA3,W
05C78:  ADDWF  xA1,W
05C7A:  MOVLB  4
05C7C:  MOVWF  x4F
05C7E:  MOVLB  3
05C80:  MOVF   xA4,W
05C82:  ADDWFC xA2,W
05C84:  MOVLB  4
05C86:  MOVWF  x50
05C88:  MOVWF  x66
05C8A:  MOVFF  44F,465
05C8E:  CLRF   x68
05C90:  MOVLW  09
05C92:  MOVWF  x67
05C94:  MOVLB  0
05C96:  CALL   1EA0
05C9A:  MOVFF  02,03
05C9E:  MOVF   01,W
05CA0:  MOVLB  4
05CA2:  ADDWF  x4D,F
05CA4:  MOVF   02,W
05CA6:  ADDWFC x4E,F
05CA8:  MOVFF  44E,450
05CAC:  MOVFF  44D,44F
05CB0:  MOVLB  0
05CB2:  RCALL  5814
05CB4:  MOVFF  01,44D
05CB8:  MOVFF  01,44E
05CBC:  BRA    58C4
05CBE:  MOVFF  00,44D
05CC2:  MOVFF  01,44E
05CC6:  MOVFF  02,44F
05CCA:  MOVFF  03,450
05CCE:  MOVLB  4
05CD0:  CLRF   x60
05CD2:  MOVFF  44C,45F
05CD6:  MOVLB  0
05CD8:  CALL   1A94
05CDC:  MOVFF  FEA,452
05CE0:  MOVFF  FE9,451
05CE4:  BCF    FD8.1
05CE6:  MOVFF  03,462
05CEA:  MOVFF  02,461
05CEE:  MOVFF  01,460
05CF2:  MOVFF  00,45F
05CF6:  MOVFF  450,466
05CFA:  MOVFF  44F,465
05CFE:  MOVFF  44E,464
05D02:  MOVFF  44D,463
05D06:  CALL   1C28
05D0A:  MOVFF  452,FEA
05D0E:  MOVFF  451,FE9
05D12:  MOVFF  44B,FEA
05D16:  MOVFF  44A,FE9
05D1A:  MOVFF  00,FEF
05D1E:  MOVFF  01,FEC
05D22:  MOVFF  02,FEC
05D26:  MOVFF  03,FEC
....................             if(TCiclos[i]>150) 
05D2A:  MOVLB  3
05D2C:  RLCF   xA3,W
05D2E:  MOVWF  02
05D30:  RLCF   xA4,W
05D32:  MOVWF  03
05D34:  RLCF   02,F
05D36:  RLCF   03,F
05D38:  MOVLW  FC
05D3A:  ANDWF  02,F
05D3C:  MOVF   02,W
05D3E:  ADDLW  D5
05D40:  MOVWF  FE9
05D42:  MOVLW  03
05D44:  ADDWFC 03,W
05D46:  MOVWF  FEA
05D48:  MOVFF  FEF,44A
05D4C:  MOVFF  FEC,44B
05D50:  MOVFF  FEC,44C
05D54:  MOVFF  FEC,44D
05D58:  MOVLB  4
05D5A:  CLRF   x55
05D5C:  CLRF   x54
05D5E:  MOVLW  16
05D60:  MOVWF  x53
05D62:  MOVLW  86
05D64:  MOVWF  x52
05D66:  MOVFF  44D,459
05D6A:  MOVFF  44C,458
05D6E:  MOVFF  44B,457
05D72:  MOVFF  44A,456
05D76:  MOVLB  0
05D78:  CALL   3032
05D7C:  BNC   5DA6
....................                TCiclos[i]=0; 
05D7E:  MOVLB  3
05D80:  RLCF   xA3,W
05D82:  MOVWF  02
05D84:  RLCF   xA4,W
05D86:  MOVWF  03
05D88:  RLCF   02,F
05D8A:  RLCF   03,F
05D8C:  MOVLW  FC
05D8E:  ANDWF  02,F
05D90:  MOVF   02,W
05D92:  ADDLW  D5
05D94:  MOVWF  FE9
05D96:  MOVLW  03
05D98:  ADDWFC 03,W
05D9A:  MOVWF  FEA
05D9C:  CLRF   FEF
05D9E:  CLRF   FEC
05DA0:  CLRF   FEC
05DA2:  CLRF   FEC
05DA4:  MOVLB  0
....................             PcCiclos[i]=make16(read_ext_eeprom((cicloVisto*320)+7+((cicloVisualizado+i)*9)),read_ext_eeprom((cicloVisto*320)+8+((cicloVisualizado+i)*9))); 
05DA6:  BCF    FD8.0
05DA8:  MOVLB  3
05DAA:  RLCF   xA3,W
05DAC:  MOVWF  02
05DAE:  RLCF   xA4,W
05DB0:  MOVWF  03
05DB2:  MOVF   02,W
05DB4:  ADDLW  F1
05DB6:  MOVWF  01
05DB8:  MOVLW  03
05DBA:  ADDWFC 03,F
05DBC:  MOVFF  01,44A
05DC0:  MOVLB  4
05DC2:  MOVFF  03,44B
05DC6:  MOVFF  3A0,466
05DCA:  MOVFF  39F,465
05DCE:  MOVLW  01
05DD0:  MOVWF  x68
05DD2:  MOVLW  40
05DD4:  MOVWF  x67
05DD6:  MOVLB  0
05DD8:  CALL   1EA0
05DDC:  MOVFF  02,44D
05DE0:  MOVFF  01,44C
05DE4:  MOVLW  07
05DE6:  MOVLB  4
05DE8:  ADDWF  x4C,F
05DEA:  MOVLW  00
05DEC:  ADDWFC x4D,F
05DEE:  MOVLB  3
05DF0:  MOVF   xA3,W
05DF2:  ADDWF  xA1,W
05DF4:  MOVLB  4
05DF6:  MOVWF  x4E
05DF8:  MOVLB  3
05DFA:  MOVF   xA4,W
05DFC:  ADDWFC xA2,W
05DFE:  MOVLB  4
05E00:  MOVWF  x4F
05E02:  MOVWF  x66
05E04:  MOVFF  44E,465
05E08:  CLRF   x68
05E0A:  MOVLW  09
05E0C:  MOVWF  x67
05E0E:  MOVLB  0
05E10:  CALL   1EA0
05E14:  MOVFF  02,03
05E18:  MOVF   01,W
05E1A:  MOVLB  4
05E1C:  ADDWF  x4C,F
05E1E:  MOVF   02,W
05E20:  ADDWFC x4D,F
05E22:  MOVFF  44D,450
05E26:  MOVFF  44C,44F
05E2A:  MOVLB  0
05E2C:  RCALL  5814
05E2E:  MOVFF  01,44C
05E32:  MOVFF  3A0,466
05E36:  MOVFF  39F,465
05E3A:  MOVLW  01
05E3C:  MOVLB  4
05E3E:  MOVWF  x68
05E40:  MOVLW  40
05E42:  MOVWF  x67
05E44:  MOVLB  0
05E46:  CALL   1EA0
05E4A:  MOVFF  02,44E
05E4E:  MOVFF  01,44D
05E52:  MOVLW  08
05E54:  MOVLB  4
05E56:  ADDWF  x4D,F
05E58:  MOVLW  00
05E5A:  ADDWFC x4E,F
05E5C:  MOVLB  3
05E5E:  MOVF   xA3,W
05E60:  ADDWF  xA1,W
05E62:  MOVLB  4
05E64:  MOVWF  x4F
05E66:  MOVLB  3
05E68:  MOVF   xA4,W
05E6A:  ADDWFC xA2,W
05E6C:  MOVLB  4
05E6E:  MOVWF  x50
05E70:  MOVWF  x66
05E72:  MOVFF  44F,465
05E76:  CLRF   x68
05E78:  MOVLW  09
05E7A:  MOVWF  x67
05E7C:  MOVLB  0
05E7E:  CALL   1EA0
05E82:  MOVFF  02,03
05E86:  MOVF   01,W
05E88:  MOVLB  4
05E8A:  ADDWF  x4D,F
05E8C:  MOVF   02,W
05E8E:  ADDWFC x4E,F
05E90:  MOVFF  44E,450
05E94:  MOVFF  44D,44F
05E98:  MOVLB  0
05E9A:  RCALL  5814
05E9C:  MOVFF  44B,FEA
05EA0:  MOVFF  44A,FE9
05EA4:  MOVFF  44C,FEC
05EA8:  MOVF   FED,F
05EAA:  MOVFF  01,FEF
....................             if(PcCiclos[i]>400) 
05EAE:  BCF    FD8.0
05EB0:  MOVLB  3
05EB2:  RLCF   xA3,W
05EB4:  MOVWF  02
05EB6:  RLCF   xA4,W
05EB8:  MOVWF  03
05EBA:  MOVF   02,W
05EBC:  ADDLW  F1
05EBE:  MOVWF  FE9
05EC0:  MOVLW  03
05EC2:  ADDWFC 03,W
05EC4:  MOVWF  FEA
05EC6:  MOVFF  FEC,44B
05ECA:  MOVF   FED,F
05ECC:  MOVFF  FEF,44A
05ED0:  MOVLB  4
05ED2:  MOVF   x4B,W
05ED4:  SUBLW  00
05ED6:  BC    5F02
05ED8:  XORLW  FF
05EDA:  BNZ   5EE2
05EDC:  MOVF   x4A,W
05EDE:  SUBLW  90
05EE0:  BC    5F02
....................                PcCiclos[i]=0; 
05EE2:  BCF    FD8.0
05EE4:  MOVLB  3
05EE6:  RLCF   xA3,W
05EE8:  MOVWF  02
05EEA:  RLCF   xA4,W
05EEC:  MOVWF  03
05EEE:  MOVF   02,W
05EF0:  ADDLW  F1
05EF2:  MOVWF  FE9
05EF4:  MOVLW  03
05EF6:  ADDWFC 03,W
05EF8:  MOVWF  FEA
05EFA:  CLRF   FEC
05EFC:  MOVF   FED,F
05EFE:  CLRF   FEF
05F00:  MOVLB  4
....................             PpcCiclos[i]=make16(read_ext_eeprom((cicloVisto*320)+9+((cicloVisualizado+i)*9)),read_ext_eeprom((cicloVisto*320)+10+((cicloVisualizado+i)*9))); 
05F02:  BCF    FD8.0
05F04:  MOVLB  3
05F06:  RLCF   xA3,W
05F08:  MOVWF  02
05F0A:  RLCF   xA4,W
05F0C:  MOVWF  03
05F0E:  MOVF   02,W
05F10:  ADDLW  FF
05F12:  MOVWF  01
05F14:  MOVLW  03
05F16:  ADDWFC 03,F
05F18:  MOVFF  01,44A
05F1C:  MOVLB  4
05F1E:  MOVFF  03,44B
05F22:  MOVFF  3A0,466
05F26:  MOVFF  39F,465
05F2A:  MOVLW  01
05F2C:  MOVWF  x68
05F2E:  MOVLW  40
05F30:  MOVWF  x67
05F32:  MOVLB  0
05F34:  CALL   1EA0
05F38:  MOVFF  02,44D
05F3C:  MOVFF  01,44C
05F40:  MOVLW  09
05F42:  MOVLB  4
05F44:  ADDWF  x4C,F
05F46:  MOVLW  00
05F48:  ADDWFC x4D,F
05F4A:  MOVLB  3
05F4C:  MOVF   xA3,W
05F4E:  ADDWF  xA1,W
05F50:  MOVLB  4
05F52:  MOVWF  x4E
05F54:  MOVLB  3
05F56:  MOVF   xA4,W
05F58:  ADDWFC xA2,W
05F5A:  MOVLB  4
05F5C:  MOVWF  x4F
05F5E:  MOVWF  x66
05F60:  MOVFF  44E,465
05F64:  CLRF   x68
05F66:  MOVLW  09
05F68:  MOVWF  x67
05F6A:  MOVLB  0
05F6C:  CALL   1EA0
05F70:  MOVFF  02,03
05F74:  MOVF   01,W
05F76:  MOVLB  4
05F78:  ADDWF  x4C,F
05F7A:  MOVF   02,W
05F7C:  ADDWFC x4D,F
05F7E:  MOVFF  44D,450
05F82:  MOVFF  44C,44F
05F86:  MOVLB  0
05F88:  RCALL  5814
05F8A:  MOVFF  01,44C
05F8E:  MOVFF  3A0,466
05F92:  MOVFF  39F,465
05F96:  MOVLW  01
05F98:  MOVLB  4
05F9A:  MOVWF  x68
05F9C:  MOVLW  40
05F9E:  MOVWF  x67
05FA0:  MOVLB  0
05FA2:  CALL   1EA0
05FA6:  MOVFF  02,44E
05FAA:  MOVFF  01,44D
05FAE:  MOVLW  0A
05FB0:  MOVLB  4
05FB2:  ADDWF  x4D,F
05FB4:  MOVLW  00
05FB6:  ADDWFC x4E,F
05FB8:  MOVLB  3
05FBA:  MOVF   xA3,W
05FBC:  ADDWF  xA1,W
05FBE:  MOVLB  4
05FC0:  MOVWF  x4F
05FC2:  MOVLB  3
05FC4:  MOVF   xA4,W
05FC6:  ADDWFC xA2,W
05FC8:  MOVLB  4
05FCA:  MOVWF  x50
05FCC:  MOVWF  x66
05FCE:  MOVFF  44F,465
05FD2:  CLRF   x68
05FD4:  MOVLW  09
05FD6:  MOVWF  x67
05FD8:  MOVLB  0
05FDA:  CALL   1EA0
05FDE:  MOVFF  02,03
05FE2:  MOVF   01,W
05FE4:  MOVLB  4
05FE6:  ADDWF  x4D,F
05FE8:  MOVF   02,W
05FEA:  ADDWFC x4E,F
05FEC:  MOVFF  44E,450
05FF0:  MOVFF  44D,44F
05FF4:  MOVLB  0
05FF6:  RCALL  5814
05FF8:  MOVFF  44B,FEA
05FFC:  MOVFF  44A,FE9
06000:  MOVFF  44C,FEC
06004:  MOVF   FED,F
06006:  MOVFF  01,FEF
....................             if(PpcCiclos[i]>400) 
0600A:  BCF    FD8.0
0600C:  MOVLB  3
0600E:  RLCF   xA3,W
06010:  MOVWF  02
06012:  RLCF   xA4,W
06014:  MOVWF  03
06016:  MOVF   02,W
06018:  ADDLW  FF
0601A:  MOVWF  FE9
0601C:  MOVLW  03
0601E:  ADDWFC 03,W
06020:  MOVWF  FEA
06022:  MOVFF  FEC,44B
06026:  MOVF   FED,F
06028:  MOVFF  FEF,44A
0602C:  MOVLB  4
0602E:  MOVF   x4B,W
06030:  SUBLW  00
06032:  BC    605C
06034:  XORLW  FF
06036:  BNZ   603E
06038:  MOVF   x4A,W
0603A:  SUBLW  90
0603C:  BC    605C
....................                PpcCiclos[i]=0; 
0603E:  BCF    FD8.0
06040:  MOVLB  3
06042:  RLCF   xA3,W
06044:  MOVWF  02
06046:  RLCF   xA4,W
06048:  MOVWF  03
0604A:  MOVF   02,W
0604C:  ADDLW  FF
0604E:  MOVWF  FE9
06050:  MOVLW  03
06052:  ADDWFC 03,W
06054:  MOVWF  FEA
06056:  CLRF   FEC
06058:  MOVF   FED,F
0605A:  CLRF   FEF
....................             ACiclos[i]=read_ext_eeprom((cicloVisto*320)+13+((cicloVisualizado+i)*9)); 
0605C:  MOVLW  1B
0605E:  MOVLB  3
06060:  ADDWF  xA3,W
06062:  MOVWF  01
06064:  MOVLW  04
06066:  ADDWFC xA4,W
06068:  MOVWF  03
0606A:  MOVFF  01,44A
0606E:  MOVLB  4
06070:  MOVWF  x4B
06072:  MOVFF  3A0,466
06076:  MOVFF  39F,465
0607A:  MOVLW  01
0607C:  MOVWF  x68
0607E:  MOVLW  40
06080:  MOVWF  x67
06082:  MOVLB  0
06084:  CALL   1EA0
06088:  MOVFF  02,44D
0608C:  MOVFF  01,44C
06090:  MOVLW  0D
06092:  MOVLB  4
06094:  ADDWF  x4C,F
06096:  MOVLW  00
06098:  ADDWFC x4D,F
0609A:  MOVLB  3
0609C:  MOVF   xA3,W
0609E:  ADDWF  xA1,W
060A0:  MOVLB  4
060A2:  MOVWF  x4E
060A4:  MOVLB  3
060A6:  MOVF   xA4,W
060A8:  ADDWFC xA2,W
060AA:  MOVLB  4
060AC:  MOVWF  x4F
060AE:  MOVWF  x66
060B0:  MOVFF  44E,465
060B4:  CLRF   x68
060B6:  MOVLW  09
060B8:  MOVWF  x67
060BA:  MOVLB  0
060BC:  CALL   1EA0
060C0:  MOVFF  02,03
060C4:  MOVF   01,W
060C6:  MOVLB  4
060C8:  ADDWF  x4C,F
060CA:  MOVF   02,W
060CC:  ADDWFC x4D,F
060CE:  MOVFF  44D,450
060D2:  MOVFF  44C,44F
060D6:  MOVLB  0
060D8:  CALL   5814
060DC:  MOVFF  44B,FEA
060E0:  MOVFF  44A,FE9
060E4:  MOVFF  01,FEF
....................             if(ACiclos[i]>30) 
060E8:  MOVLW  1B
060EA:  MOVLB  3
060EC:  ADDWF  xA3,W
060EE:  MOVWF  FE9
060F0:  MOVLW  04
060F2:  ADDWFC xA4,W
060F4:  MOVWF  FEA
060F6:  MOVF   FEF,W
060F8:  SUBLW  1E
060FA:  BC    610A
....................                ACiclos[i]=0; 
060FC:  MOVLW  1B
060FE:  ADDWF  xA3,W
06100:  MOVWF  FE9
06102:  MOVLW  04
06104:  ADDWFC xA4,W
06106:  MOVWF  FEA
06108:  CLRF   FEF
....................          } 
0610A:  INCF   xA3,F
0610C:  BTFSC  FD8.2
0610E:  INCF   xA4,F
06110:  BRA    5A58
.................... } 
06112:  MOVLB  0
06114:  RETLW  00
.................... void GuardaDatoEstatico(){ 
*
06B3A:  MOVLB  4
06B3C:  CLRF   x4B
06B3E:  CLRF   x4A
06B40:  CLRF   x4D
06B42:  CLRF   x4C
....................    int16 posCiclo=0,cicloMemoria=0; 
....................    posCiclo=Ciclos/200; 
06B44:  MOVFF  379,464
06B48:  MOVFF  378,463
06B4C:  CLRF   x66
06B4E:  MOVLW  C8
06B50:  MOVWF  x65
06B52:  MOVLB  0
06B54:  CALL   4E6A
06B58:  MOVFF  02,44B
06B5C:  MOVFF  01,44A
....................    cicloMemoria=Ciclos-(posCiclo*200); 
06B60:  MOVFF  44B,466
06B64:  MOVFF  44A,465
06B68:  MOVLB  4
06B6A:  CLRF   x68
06B6C:  MOVLW  C8
06B6E:  MOVWF  x67
06B70:  MOVLB  0
06B72:  CALL   1EA0
06B76:  MOVF   01,W
06B78:  MOVLB  3
06B7A:  SUBWF  x78,W
06B7C:  MOVLB  4
06B7E:  MOVWF  x4C
06B80:  MOVF   02,W
06B82:  MOVLB  3
06B84:  SUBWFB x79,W
06B86:  MOVLB  4
06B88:  MOVWF  x4D
....................    if(!disp_Guarda){ 
06B8A:  MOVLB  0
06B8C:  BTFSC  xA4.3
06B8E:  BRA    6D34
....................       write_ext_eeprom(cicloMemoria*320,1); 
06B90:  MOVFF  44D,466
06B94:  MOVFF  44C,465
06B98:  MOVLW  01
06B9A:  MOVLB  4
06B9C:  MOVWF  x68
06B9E:  MOVLW  40
06BA0:  MOVWF  x67
06BA2:  MOVLB  0
06BA4:  CALL   1EA0
06BA8:  MOVFF  02,44F
06BAC:  MOVFF  01,44E
06BB0:  MOVFF  02,466
06BB4:  MOVFF  01,465
06BB8:  MOVLW  01
06BBA:  MOVLB  4
06BBC:  MOVWF  x67
06BBE:  MOVLB  0
06BC0:  CALL   4EB0
....................       delay_ms(10); 
06BC4:  MOVLW  0A
06BC6:  MOVLB  4
06BC8:  MOVWF  x63
06BCA:  MOVLB  0
06BCC:  CALL   1A6C
....................       if(!Libre) 
06BD0:  BTFSC  xA3.7
06BD2:  BRA    6C10
....................          write_ext_eeprom(1+(cicloMemoria*320),CicloSeleccionado); 
06BD4:  MOVFF  44D,466
06BD8:  MOVFF  44C,465
06BDC:  MOVLW  01
06BDE:  MOVLB  4
06BE0:  MOVWF  x68
06BE2:  MOVLW  40
06BE4:  MOVWF  x67
06BE6:  MOVLB  0
06BE8:  CALL   1EA0
06BEC:  MOVFF  02,03
06BF0:  MOVF   01,W
06BF2:  ADDLW  01
06BF4:  MOVLB  4
06BF6:  MOVWF  x4E
06BF8:  MOVLW  00
06BFA:  ADDWFC 02,W
06BFC:  MOVWF  x4F
06BFE:  MOVWF  x66
06C00:  MOVFF  44E,465
06C04:  MOVFF  361,467
06C08:  MOVLB  0
06C0A:  CALL   4EB0
....................       else 
06C0E:  BRA    6C54
....................          write_ext_eeprom(1+(cicloMemoria*320),CicloLibre+4); 
06C10:  MOVFF  44D,466
06C14:  MOVFF  44C,465
06C18:  MOVLW  01
06C1A:  MOVLB  4
06C1C:  MOVWF  x68
06C1E:  MOVLW  40
06C20:  MOVWF  x67
06C22:  MOVLB  0
06C24:  CALL   1EA0
06C28:  MOVFF  02,03
06C2C:  MOVF   01,W
06C2E:  ADDLW  01
06C30:  MOVLB  4
06C32:  MOVWF  x4E
06C34:  MOVLW  00
06C36:  ADDWFC 02,W
06C38:  MOVWF  x4F
06C3A:  MOVLW  04
06C3C:  MOVLB  3
06C3E:  ADDWF  x3A,W
06C40:  MOVLB  4
06C42:  MOVWF  x50
06C44:  MOVFF  44F,466
06C48:  MOVFF  44E,465
06C4C:  MOVWF  x67
06C4E:  MOVLB  0
06C50:  CALL   4EB0
....................       delay_ms(10); 
06C54:  MOVLW  0A
06C56:  MOVLB  4
06C58:  MOVWF  x63
06C5A:  MOVLB  0
06C5C:  CALL   1A6C
....................       write_ext_eeprom(2+(cicloMemoria*320),Dia); 
06C60:  MOVFF  44D,466
06C64:  MOVFF  44C,465
06C68:  MOVLW  01
06C6A:  MOVLB  4
06C6C:  MOVWF  x68
06C6E:  MOVLW  40
06C70:  MOVWF  x67
06C72:  MOVLB  0
06C74:  CALL   1EA0
06C78:  MOVFF  02,03
06C7C:  MOVF   01,W
06C7E:  ADDLW  02
06C80:  MOVLB  4
06C82:  MOVWF  x4E
06C84:  MOVLW  00
06C86:  ADDWFC 02,W
06C88:  MOVWF  x4F
06C8A:  MOVWF  x66
06C8C:  MOVFF  44E,465
06C90:  MOVFF  3AB,467
06C94:  MOVLB  0
06C96:  CALL   4EB0
....................       delay_ms(10); 
06C9A:  MOVLW  0A
06C9C:  MOVLB  4
06C9E:  MOVWF  x63
06CA0:  MOVLB  0
06CA2:  CALL   1A6C
....................       write_ext_eeprom(3+(cicloMemoria*320),Mes); 
06CA6:  MOVFF  44D,466
06CAA:  MOVFF  44C,465
06CAE:  MOVLW  01
06CB0:  MOVLB  4
06CB2:  MOVWF  x68
06CB4:  MOVLW  40
06CB6:  MOVWF  x67
06CB8:  MOVLB  0
06CBA:  CALL   1EA0
06CBE:  MOVFF  02,03
06CC2:  MOVF   01,W
06CC4:  ADDLW  03
06CC6:  MOVLB  4
06CC8:  MOVWF  x4E
06CCA:  MOVLW  00
06CCC:  ADDWFC 02,W
06CCE:  MOVWF  x4F
06CD0:  MOVWF  x66
06CD2:  MOVFF  44E,465
06CD6:  MOVFF  3AA,467
06CDA:  MOVLB  0
06CDC:  CALL   4EB0
....................       delay_ms(10); 
06CE0:  MOVLW  0A
06CE2:  MOVLB  4
06CE4:  MOVWF  x63
06CE6:  MOVLB  0
06CE8:  CALL   1A6C
....................       write_ext_eeprom(4+(cicloMemoria*320),Year); 
06CEC:  MOVFF  44D,466
06CF0:  MOVFF  44C,465
06CF4:  MOVLW  01
06CF6:  MOVLB  4
06CF8:  MOVWF  x68
06CFA:  MOVLW  40
06CFC:  MOVWF  x67
06CFE:  MOVLB  0
06D00:  CALL   1EA0
06D04:  MOVFF  02,03
06D08:  MOVF   01,W
06D0A:  ADDLW  04
06D0C:  MOVLB  4
06D0E:  MOVWF  x4E
06D10:  MOVLW  00
06D12:  ADDWFC 02,W
06D14:  MOVWF  x4F
06D16:  MOVWF  x66
06D18:  MOVFF  44E,465
06D1C:  MOVFF  3A9,467
06D20:  MOVLB  0
06D22:  CALL   4EB0
....................       delay_ms(10);  
06D26:  MOVLW  0A
06D28:  MOVLB  4
06D2A:  MOVWF  x63
06D2C:  MOVLB  0
06D2E:  CALL   1A6C
....................       disp_Guarda=1; 
06D32:  BSF    xA4.3
....................    }    
.................... } 
06D34:  GOTO   D402 (RETURN)
....................  
.................... void GuardaDatoCiclo(){ 
*
06E02:  MOVLB  4
06E04:  CLRF   x4B
06E06:  CLRF   x4A
06E08:  CLRF   x4D
06E0A:  CLRF   x4C
....................    int16 posCiclo=0,cicloMemoria=0; 
....................    posCiclo=Ciclos/200; 
06E0C:  MOVFF  379,464
06E10:  MOVFF  378,463
06E14:  CLRF   x66
06E16:  MOVLW  C8
06E18:  MOVWF  x65
06E1A:  MOVLB  0
06E1C:  CALL   4E6A
06E20:  MOVFF  02,44B
06E24:  MOVFF  01,44A
....................    if(!Ciclo){ 
06E28:  BTFSC  xA1.5
06E2A:  BRA    725E
....................       cicloMemoria=Ciclos-(posCiclo*200); 
06E2C:  MOVFF  44B,466
06E30:  MOVFF  44A,465
06E34:  MOVLB  4
06E36:  CLRF   x68
06E38:  MOVLW  C8
06E3A:  MOVWF  x67
06E3C:  MOVLB  0
06E3E:  CALL   1EA0
06E42:  MOVF   01,W
06E44:  MOVLB  3
06E46:  SUBWF  x78,W
06E48:  MOVLB  4
06E4A:  MOVWF  x4C
06E4C:  MOVF   02,W
06E4E:  MOVLB  3
06E50:  SUBWFB x79,W
06E52:  MOVLB  4
06E54:  MOVWF  x4D
....................       write_ext_eeprom(5+(cicloMemoria*320)+(posicionDato*9),(int8)Temperatura); 
06E56:  MOVFF  44D,466
06E5A:  MOVFF  44C,465
06E5E:  MOVLW  01
06E60:  MOVWF  x68
06E62:  MOVLW  40
06E64:  MOVWF  x67
06E66:  MOVLB  0
06E68:  CALL   1EA0
06E6C:  MOVFF  02,03
06E70:  MOVF   01,W
06E72:  ADDLW  05
06E74:  MOVLB  4
06E76:  MOVWF  x4E
06E78:  MOVLW  00
06E7A:  ADDWFC 02,W
06E7C:  MOVWF  x4F
06E7E:  MOVFF  383,466
06E82:  MOVFF  382,465
06E86:  CLRF   x68
06E88:  MOVLW  09
06E8A:  MOVWF  x67
06E8C:  MOVLB  0
06E8E:  CALL   1EA0
06E92:  MOVFF  02,03
06E96:  MOVF   01,W
06E98:  MOVLB  4
06E9A:  ADDWF  x4E,F
06E9C:  MOVF   02,W
06E9E:  ADDWFC x4F,F
06EA0:  MOVFF  327,462
06EA4:  MOVFF  326,461
06EA8:  MOVFF  325,460
06EAC:  MOVFF  324,45F
06EB0:  MOVLB  0
06EB2:  CALL   43CC
06EB6:  MOVFF  01,450
06EBA:  MOVFF  44F,466
06EBE:  MOVFF  44E,465
06EC2:  MOVFF  01,467
06EC6:  CALL   4EB0
....................       delay_ms(10); 
06ECA:  MOVLW  0A
06ECC:  MOVLB  4
06ECE:  MOVWF  x63
06ED0:  MOVLB  0
06ED2:  CALL   1A6C
....................       write_ext_eeprom(6+(cicloMemoria*320)+(posicionDato*9),extraeDecimal(Temperatura)); 
06ED6:  MOVFF  44D,466
06EDA:  MOVFF  44C,465
06EDE:  MOVLW  01
06EE0:  MOVLB  4
06EE2:  MOVWF  x68
06EE4:  MOVLW  40
06EE6:  MOVWF  x67
06EE8:  MOVLB  0
06EEA:  CALL   1EA0
06EEE:  MOVFF  02,03
06EF2:  MOVF   01,W
06EF4:  ADDLW  06
06EF6:  MOVLB  4
06EF8:  MOVWF  x4E
06EFA:  MOVLW  00
06EFC:  ADDWFC 02,W
06EFE:  MOVWF  x4F
06F00:  MOVFF  383,466
06F04:  MOVFF  382,465
06F08:  CLRF   x68
06F0A:  MOVLW  09
06F0C:  MOVWF  x67
06F0E:  MOVLB  0
06F10:  CALL   1EA0
06F14:  MOVFF  02,03
06F18:  MOVF   01,W
06F1A:  MOVLB  4
06F1C:  ADDWF  x4E,F
06F1E:  MOVF   02,W
06F20:  ADDWFC x4F,F
06F22:  MOVFF  327,453
06F26:  MOVFF  326,452
06F2A:  MOVFF  325,451
06F2E:  MOVFF  324,450
06F32:  MOVLB  0
06F34:  BRA    6D38
06F36:  MOVFF  01,450
06F3A:  MOVFF  44F,466
06F3E:  MOVFF  44E,465
06F42:  MOVFF  01,467
06F46:  CALL   4EB0
....................       delay_ms(10); 
06F4A:  MOVLW  0A
06F4C:  MOVLB  4
06F4E:  MOVWF  x63
06F50:  MOVLB  0
06F52:  CALL   1A6C
....................       write_ext_eeprom(7+(cicloMemoria*320)+(posicionDato*9),make8(PresionCamara,1)); 
06F56:  MOVFF  44D,466
06F5A:  MOVFF  44C,465
06F5E:  MOVLW  01
06F60:  MOVLB  4
06F62:  MOVWF  x68
06F64:  MOVLW  40
06F66:  MOVWF  x67
06F68:  MOVLB  0
06F6A:  CALL   1EA0
06F6E:  MOVFF  02,03
06F72:  MOVF   01,W
06F74:  ADDLW  07
06F76:  MOVLB  4
06F78:  MOVWF  x4E
06F7A:  MOVLW  00
06F7C:  ADDWFC 02,W
06F7E:  MOVWF  x4F
06F80:  MOVFF  383,466
06F84:  MOVFF  382,465
06F88:  CLRF   x68
06F8A:  MOVLW  09
06F8C:  MOVWF  x67
06F8E:  MOVLB  0
06F90:  CALL   1EA0
06F94:  MOVFF  02,03
06F98:  MOVF   01,W
06F9A:  MOVLB  4
06F9C:  ADDWF  x4E,F
06F9E:  MOVF   02,W
06FA0:  ADDWFC x4F,F
06FA2:  MOVFF  375,450
06FA6:  MOVFF  44F,466
06FAA:  MOVFF  44E,465
06FAE:  MOVFF  375,467
06FB2:  MOVLB  0
06FB4:  CALL   4EB0
....................       delay_ms(10); 
06FB8:  MOVLW  0A
06FBA:  MOVLB  4
06FBC:  MOVWF  x63
06FBE:  MOVLB  0
06FC0:  CALL   1A6C
....................       write_ext_eeprom(8+(cicloMemoria*320)+(posicionDato*9),make8(PresionCamara,0)); 
06FC4:  MOVFF  44D,466
06FC8:  MOVFF  44C,465
06FCC:  MOVLW  01
06FCE:  MOVLB  4
06FD0:  MOVWF  x68
06FD2:  MOVLW  40
06FD4:  MOVWF  x67
06FD6:  MOVLB  0
06FD8:  CALL   1EA0
06FDC:  MOVFF  02,03
06FE0:  MOVF   01,W
06FE2:  ADDLW  08
06FE4:  MOVLB  4
06FE6:  MOVWF  x4E
06FE8:  MOVLW  00
06FEA:  ADDWFC 02,W
06FEC:  MOVWF  x4F
06FEE:  MOVFF  383,466
06FF2:  MOVFF  382,465
06FF6:  CLRF   x68
06FF8:  MOVLW  09
06FFA:  MOVWF  x67
06FFC:  MOVLB  0
06FFE:  CALL   1EA0
07002:  MOVFF  02,03
07006:  MOVF   01,W
07008:  MOVLB  4
0700A:  ADDWF  x4E,F
0700C:  MOVF   02,W
0700E:  ADDWFC x4F,F
07010:  MOVFF  374,450
07014:  MOVFF  44F,466
07018:  MOVFF  44E,465
0701C:  MOVFF  374,467
07020:  MOVLB  0
07022:  CALL   4EB0
....................       delay_ms(10); 
07026:  MOVLW  0A
07028:  MOVLB  4
0702A:  MOVWF  x63
0702C:  MOVLB  0
0702E:  CALL   1A6C
....................       write_ext_eeprom(9+(cicloMemoria*320)+(posicionDato*9),make8(PresionPreCamara,1)); 
07032:  MOVFF  44D,466
07036:  MOVFF  44C,465
0703A:  MOVLW  01
0703C:  MOVLB  4
0703E:  MOVWF  x68
07040:  MOVLW  40
07042:  MOVWF  x67
07044:  MOVLB  0
07046:  CALL   1EA0
0704A:  MOVFF  02,03
0704E:  MOVF   01,W
07050:  ADDLW  09
07052:  MOVLB  4
07054:  MOVWF  x4E
07056:  MOVLW  00
07058:  ADDWFC 02,W
0705A:  MOVWF  x4F
0705C:  MOVFF  383,466
07060:  MOVFF  382,465
07064:  CLRF   x68
07066:  MOVLW  09
07068:  MOVWF  x67
0706A:  MOVLB  0
0706C:  CALL   1EA0
07070:  MOVFF  02,03
07074:  MOVF   01,W
07076:  MOVLB  4
07078:  ADDWF  x4E,F
0707A:  MOVF   02,W
0707C:  ADDWFC x4F,F
0707E:  MOVFF  377,450
07082:  MOVFF  44F,466
07086:  MOVFF  44E,465
0708A:  MOVFF  377,467
0708E:  MOVLB  0
07090:  CALL   4EB0
....................       delay_ms(10); 
07094:  MOVLW  0A
07096:  MOVLB  4
07098:  MOVWF  x63
0709A:  MOVLB  0
0709C:  CALL   1A6C
....................       write_ext_eeprom(10+(cicloMemoria*320)+(posicionDato*9),make8(PresionPreCamara,0)); 
070A0:  MOVFF  44D,466
070A4:  MOVFF  44C,465
070A8:  MOVLW  01
070AA:  MOVLB  4
070AC:  MOVWF  x68
070AE:  MOVLW  40
070B0:  MOVWF  x67
070B2:  MOVLB  0
070B4:  CALL   1EA0
070B8:  MOVFF  02,03
070BC:  MOVF   01,W
070BE:  ADDLW  0A
070C0:  MOVLB  4
070C2:  MOVWF  x4E
070C4:  MOVLW  00
070C6:  ADDWFC 02,W
070C8:  MOVWF  x4F
070CA:  MOVFF  383,466
070CE:  MOVFF  382,465
070D2:  CLRF   x68
070D4:  MOVLW  09
070D6:  MOVWF  x67
070D8:  MOVLB  0
070DA:  CALL   1EA0
070DE:  MOVFF  02,03
070E2:  MOVF   01,W
070E4:  MOVLB  4
070E6:  ADDWF  x4E,F
070E8:  MOVF   02,W
070EA:  ADDWFC x4F,F
070EC:  MOVFF  376,450
070F0:  MOVFF  44F,466
070F4:  MOVFF  44E,465
070F8:  MOVFF  376,467
070FC:  MOVLB  0
070FE:  CALL   4EB0
....................       delay_ms(10); 
07102:  MOVLW  0A
07104:  MOVLB  4
07106:  MOVWF  x63
07108:  MOVLB  0
0710A:  CALL   1A6C
....................       write_ext_eeprom(11+(cicloMemoria*320)+(posicionDato*9),Hora); 
0710E:  MOVFF  44D,466
07112:  MOVFF  44C,465
07116:  MOVLW  01
07118:  MOVLB  4
0711A:  MOVWF  x68
0711C:  MOVLW  40
0711E:  MOVWF  x67
07120:  MOVLB  0
07122:  CALL   1EA0
07126:  MOVFF  02,03
0712A:  MOVF   01,W
0712C:  ADDLW  0B
0712E:  MOVLB  4
07130:  MOVWF  x4E
07132:  MOVLW  00
07134:  ADDWFC 02,W
07136:  MOVWF  x4F
07138:  MOVFF  383,466
0713C:  MOVFF  382,465
07140:  CLRF   x68
07142:  MOVLW  09
07144:  MOVWF  x67
07146:  MOVLB  0
07148:  CALL   1EA0
0714C:  MOVFF  02,03
07150:  MOVF   01,W
07152:  MOVLB  4
07154:  ADDWF  x4E,F
07156:  MOVF   02,W
07158:  ADDWFC x4F,F
0715A:  MOVFF  44F,466
0715E:  MOVFF  44E,465
07162:  MOVFF  3AC,467
07166:  MOVLB  0
07168:  CALL   4EB0
....................       delay_ms(10); 
0716C:  MOVLW  0A
0716E:  MOVLB  4
07170:  MOVWF  x63
07172:  MOVLB  0
07174:  CALL   1A6C
....................       write_ext_eeprom(12+(cicloMemoria*320)+(posicionDato*9),Minuto); 
07178:  MOVFF  44D,466
0717C:  MOVFF  44C,465
07180:  MOVLW  01
07182:  MOVLB  4
07184:  MOVWF  x68
07186:  MOVLW  40
07188:  MOVWF  x67
0718A:  MOVLB  0
0718C:  CALL   1EA0
07190:  MOVFF  02,03
07194:  MOVF   01,W
07196:  ADDLW  0C
07198:  MOVLB  4
0719A:  MOVWF  x4E
0719C:  MOVLW  00
0719E:  ADDWFC 02,W
071A0:  MOVWF  x4F
071A2:  MOVFF  383,466
071A6:  MOVFF  382,465
071AA:  CLRF   x68
071AC:  MOVLW  09
071AE:  MOVWF  x67
071B0:  MOVLB  0
071B2:  CALL   1EA0
071B6:  MOVFF  02,03
071BA:  MOVF   01,W
071BC:  MOVLB  4
071BE:  ADDWF  x4E,F
071C0:  MOVF   02,W
071C2:  ADDWFC x4F,F
071C4:  MOVFF  44F,466
071C8:  MOVFF  44E,465
071CC:  MOVFF  3AD,467
071D0:  MOVLB  0
071D2:  CALL   4EB0
....................       delay_ms(10); 
071D6:  MOVLW  0A
071D8:  MOVLB  4
071DA:  MOVWF  x63
071DC:  MOVLB  0
071DE:  CALL   1A6C
....................       write_ext_eeprom(13+(cicloMemoria*320)+(posicionDato*9),codigoAlarma); 
071E2:  MOVFF  44D,466
071E6:  MOVFF  44C,465
071EA:  MOVLW  01
071EC:  MOVLB  4
071EE:  MOVWF  x68
071F0:  MOVLW  40
071F2:  MOVWF  x67
071F4:  MOVLB  0
071F6:  CALL   1EA0
071FA:  MOVFF  02,03
071FE:  MOVF   01,W
07200:  ADDLW  0D
07202:  MOVLB  4
07204:  MOVWF  x4E
07206:  MOVLW  00
07208:  ADDWFC 02,W
0720A:  MOVWF  x4F
0720C:  MOVFF  383,466
07210:  MOVFF  382,465
07214:  CLRF   x68
07216:  MOVLW  09
07218:  MOVWF  x67
0721A:  MOVLB  0
0721C:  CALL   1EA0
07220:  MOVFF  02,03
07224:  MOVF   01,W
07226:  MOVLB  4
07228:  ADDWF  x4E,F
0722A:  MOVF   02,W
0722C:  ADDWFC x4F,F
0722E:  MOVFF  44F,466
07232:  MOVFF  44E,465
07236:  MOVFF  2E2,467
0723A:  MOVLB  0
0723C:  CALL   4EB0
....................       delay_ms(10); 
07240:  MOVLW  0A
07242:  MOVLB  4
07244:  MOVWF  x63
07246:  MOVLB  0
07248:  CALL   1A6C
....................     
....................       if(posicionDato<35) 
0724C:  MOVLB  3
0724E:  MOVF   x83,F
07250:  BNZ   725E
07252:  MOVF   x82,W
07254:  SUBLW  22
07256:  BNC   725E
....................          ++posicionDato; 
07258:  INCF   x82,F
0725A:  BTFSC  FD8.2
0725C:  INCF   x83,F
0725E:  MOVLB  0
....................    } 
.................... } 
07260:  RETLW  00
....................  
.................... void borraDatoCiclo(){ 
*
04F1C:  MOVLB  4
04F1E:  CLRF   x60
04F20:  CLRF   x5F
04F22:  CLRF   x62
04F24:  CLRF   x61
....................    int16 posCiclo=0,cicloMemoria=0; 
....................    posCiclo=Ciclos/200; 
04F26:  MOVFF  379,464
04F2A:  MOVFF  378,463
04F2E:  CLRF   x66
04F30:  MOVLW  C8
04F32:  MOVWF  x65
04F34:  MOVLB  0
04F36:  RCALL  4E6A
04F38:  MOVFF  02,460
04F3C:  MOVFF  01,45F
....................    cicloMemoria=Ciclos-(posCiclo*200); 
04F40:  MOVFF  460,466
04F44:  MOVFF  45F,465
04F48:  MOVLB  4
04F4A:  CLRF   x68
04F4C:  MOVLW  C8
04F4E:  MOVWF  x67
04F50:  MOVLB  0
04F52:  CALL   1EA0
04F56:  MOVF   01,W
04F58:  MOVLB  3
04F5A:  SUBWF  x78,W
04F5C:  MOVLB  4
04F5E:  MOVWF  x61
04F60:  MOVF   02,W
04F62:  MOVLB  3
04F64:  SUBWFB x79,W
04F66:  MOVLB  4
04F68:  MOVWF  x62
....................    write_ext_eeprom(cicloMemoria*320,1); 
04F6A:  MOVFF  462,466
04F6E:  MOVFF  461,465
04F72:  MOVLW  01
04F74:  MOVWF  x68
04F76:  MOVLW  40
04F78:  MOVWF  x67
04F7A:  MOVLB  0
04F7C:  CALL   1EA0
04F80:  MOVFF  02,464
04F84:  MOVFF  01,463
04F88:  MOVFF  02,466
04F8C:  MOVFF  01,465
04F90:  MOVLW  01
04F92:  MOVLB  4
04F94:  MOVWF  x67
04F96:  MOVLB  0
04F98:  RCALL  4EB0
....................    delay_ms(5); 
04F9A:  MOVLW  05
04F9C:  MOVLB  4
04F9E:  MOVWF  x63
04FA0:  MOVLB  0
04FA2:  CALL   1A6C
....................    write_ext_eeprom(1+(cicloMemoria*320),0); 
04FA6:  MOVFF  462,466
04FAA:  MOVFF  461,465
04FAE:  MOVLW  01
04FB0:  MOVLB  4
04FB2:  MOVWF  x68
04FB4:  MOVLW  40
04FB6:  MOVWF  x67
04FB8:  MOVLB  0
04FBA:  CALL   1EA0
04FBE:  MOVFF  02,03
04FC2:  MOVF   01,W
04FC4:  ADDLW  01
04FC6:  MOVLB  4
04FC8:  MOVWF  x63
04FCA:  MOVLW  00
04FCC:  ADDWFC 02,W
04FCE:  MOVWF  x64
04FD0:  MOVWF  x66
04FD2:  MOVFF  463,465
04FD6:  CLRF   x67
04FD8:  MOVLB  0
04FDA:  RCALL  4EB0
....................    delay_ms(5); 
04FDC:  MOVLW  05
04FDE:  MOVLB  4
04FE0:  MOVWF  x63
04FE2:  MOVLB  0
04FE4:  CALL   1A6C
....................    write_ext_eeprom(2+(cicloMemoria*320),0); 
04FE8:  MOVFF  462,466
04FEC:  MOVFF  461,465
04FF0:  MOVLW  01
04FF2:  MOVLB  4
04FF4:  MOVWF  x68
04FF6:  MOVLW  40
04FF8:  MOVWF  x67
04FFA:  MOVLB  0
04FFC:  CALL   1EA0
05000:  MOVFF  02,03
05004:  MOVF   01,W
05006:  ADDLW  02
05008:  MOVLB  4
0500A:  MOVWF  x63
0500C:  MOVLW  00
0500E:  ADDWFC 02,W
05010:  MOVWF  x64
05012:  MOVWF  x66
05014:  MOVFF  463,465
05018:  CLRF   x67
0501A:  MOVLB  0
0501C:  RCALL  4EB0
....................    delay_ms(5); 
0501E:  MOVLW  05
05020:  MOVLB  4
05022:  MOVWF  x63
05024:  MOVLB  0
05026:  CALL   1A6C
....................    write_ext_eeprom(3+(cicloMemoria*320),0); 
0502A:  MOVFF  462,466
0502E:  MOVFF  461,465
05032:  MOVLW  01
05034:  MOVLB  4
05036:  MOVWF  x68
05038:  MOVLW  40
0503A:  MOVWF  x67
0503C:  MOVLB  0
0503E:  CALL   1EA0
05042:  MOVFF  02,03
05046:  MOVF   01,W
05048:  ADDLW  03
0504A:  MOVLB  4
0504C:  MOVWF  x63
0504E:  MOVLW  00
05050:  ADDWFC 02,W
05052:  MOVWF  x64
05054:  MOVWF  x66
05056:  MOVFF  463,465
0505A:  CLRF   x67
0505C:  MOVLB  0
0505E:  RCALL  4EB0
....................    delay_ms(5); 
05060:  MOVLW  05
05062:  MOVLB  4
05064:  MOVWF  x63
05066:  MOVLB  0
05068:  CALL   1A6C
....................    write_ext_eeprom(4+(cicloMemoria*320),0); 
0506C:  MOVFF  462,466
05070:  MOVFF  461,465
05074:  MOVLW  01
05076:  MOVLB  4
05078:  MOVWF  x68
0507A:  MOVLW  40
0507C:  MOVWF  x67
0507E:  MOVLB  0
05080:  CALL   1EA0
05084:  MOVFF  02,03
05088:  MOVF   01,W
0508A:  ADDLW  04
0508C:  MOVLB  4
0508E:  MOVWF  x63
05090:  MOVLW  00
05092:  ADDWFC 02,W
05094:  MOVWF  x64
05096:  MOVWF  x66
05098:  MOVFF  463,465
0509C:  CLRF   x67
0509E:  MOVLB  0
050A0:  RCALL  4EB0
....................    delay_ms(5); 
050A2:  MOVLW  05
050A4:  MOVLB  4
050A6:  MOVWF  x63
050A8:  MOVLB  0
050AA:  CALL   1A6C
....................    for(posicionDato=0;posicionDato<35;posicionDato++){ 
050AE:  MOVLB  3
050B0:  CLRF   x83
050B2:  CLRF   x82
050B4:  MOVF   x83,F
050B6:  BTFSS  FD8.2
050B8:  BRA    5462
050BA:  MOVF   x82,W
050BC:  SUBLW  22
050BE:  BTFSS  FD8.0
050C0:  BRA    5462
....................       write_ext_eeprom(5+(cicloMemoria*320)+(posicionDato*9),0); 
050C2:  MOVFF  462,466
050C6:  MOVFF  461,465
050CA:  MOVLW  01
050CC:  MOVLB  4
050CE:  MOVWF  x68
050D0:  MOVLW  40
050D2:  MOVWF  x67
050D4:  MOVLB  0
050D6:  CALL   1EA0
050DA:  MOVFF  02,03
050DE:  MOVF   01,W
050E0:  ADDLW  05
050E2:  MOVLB  4
050E4:  MOVWF  x63
050E6:  MOVLW  00
050E8:  ADDWFC 02,W
050EA:  MOVWF  x64
050EC:  MOVFF  383,466
050F0:  MOVFF  382,465
050F4:  CLRF   x68
050F6:  MOVLW  09
050F8:  MOVWF  x67
050FA:  MOVLB  0
050FC:  CALL   1EA0
05100:  MOVFF  02,03
05104:  MOVF   01,W
05106:  MOVLB  4
05108:  ADDWF  x63,F
0510A:  MOVF   02,W
0510C:  ADDWFC x64,F
0510E:  MOVFF  464,466
05112:  MOVFF  463,465
05116:  CLRF   x67
05118:  MOVLB  0
0511A:  RCALL  4EB0
....................       delay_ms(5); 
0511C:  MOVLW  05
0511E:  MOVLB  4
05120:  MOVWF  x63
05122:  MOVLB  0
05124:  CALL   1A6C
....................       write_ext_eeprom(6+(cicloMemoria*320)+(posicionDato*9),0); 
05128:  MOVFF  462,466
0512C:  MOVFF  461,465
05130:  MOVLW  01
05132:  MOVLB  4
05134:  MOVWF  x68
05136:  MOVLW  40
05138:  MOVWF  x67
0513A:  MOVLB  0
0513C:  CALL   1EA0
05140:  MOVFF  02,03
05144:  MOVF   01,W
05146:  ADDLW  06
05148:  MOVLB  4
0514A:  MOVWF  x63
0514C:  MOVLW  00
0514E:  ADDWFC 02,W
05150:  MOVWF  x64
05152:  MOVFF  383,466
05156:  MOVFF  382,465
0515A:  CLRF   x68
0515C:  MOVLW  09
0515E:  MOVWF  x67
05160:  MOVLB  0
05162:  CALL   1EA0
05166:  MOVFF  02,03
0516A:  MOVF   01,W
0516C:  MOVLB  4
0516E:  ADDWF  x63,F
05170:  MOVF   02,W
05172:  ADDWFC x64,F
05174:  MOVFF  464,466
05178:  MOVFF  463,465
0517C:  CLRF   x67
0517E:  MOVLB  0
05180:  RCALL  4EB0
....................       delay_ms(5); 
05182:  MOVLW  05
05184:  MOVLB  4
05186:  MOVWF  x63
05188:  MOVLB  0
0518A:  CALL   1A6C
....................       write_ext_eeprom(7+(cicloMemoria*320)+(posicionDato*9),0); 
0518E:  MOVFF  462,466
05192:  MOVFF  461,465
05196:  MOVLW  01
05198:  MOVLB  4
0519A:  MOVWF  x68
0519C:  MOVLW  40
0519E:  MOVWF  x67
051A0:  MOVLB  0
051A2:  CALL   1EA0
051A6:  MOVFF  02,03
051AA:  MOVF   01,W
051AC:  ADDLW  07
051AE:  MOVLB  4
051B0:  MOVWF  x63
051B2:  MOVLW  00
051B4:  ADDWFC 02,W
051B6:  MOVWF  x64
051B8:  MOVFF  383,466
051BC:  MOVFF  382,465
051C0:  CLRF   x68
051C2:  MOVLW  09
051C4:  MOVWF  x67
051C6:  MOVLB  0
051C8:  CALL   1EA0
051CC:  MOVFF  02,03
051D0:  MOVF   01,W
051D2:  MOVLB  4
051D4:  ADDWF  x63,F
051D6:  MOVF   02,W
051D8:  ADDWFC x64,F
051DA:  MOVFF  464,466
051DE:  MOVFF  463,465
051E2:  CLRF   x67
051E4:  MOVLB  0
051E6:  RCALL  4EB0
....................       delay_ms(5); 
051E8:  MOVLW  05
051EA:  MOVLB  4
051EC:  MOVWF  x63
051EE:  MOVLB  0
051F0:  CALL   1A6C
....................       write_ext_eeprom(8+(cicloMemoria*320)+(posicionDato*9),0); 
051F4:  MOVFF  462,466
051F8:  MOVFF  461,465
051FC:  MOVLW  01
051FE:  MOVLB  4
05200:  MOVWF  x68
05202:  MOVLW  40
05204:  MOVWF  x67
05206:  MOVLB  0
05208:  CALL   1EA0
0520C:  MOVFF  02,03
05210:  MOVF   01,W
05212:  ADDLW  08
05214:  MOVLB  4
05216:  MOVWF  x63
05218:  MOVLW  00
0521A:  ADDWFC 02,W
0521C:  MOVWF  x64
0521E:  MOVFF  383,466
05222:  MOVFF  382,465
05226:  CLRF   x68
05228:  MOVLW  09
0522A:  MOVWF  x67
0522C:  MOVLB  0
0522E:  CALL   1EA0
05232:  MOVFF  02,03
05236:  MOVF   01,W
05238:  MOVLB  4
0523A:  ADDWF  x63,F
0523C:  MOVF   02,W
0523E:  ADDWFC x64,F
05240:  MOVFF  464,466
05244:  MOVFF  463,465
05248:  CLRF   x67
0524A:  MOVLB  0
0524C:  RCALL  4EB0
....................       delay_ms(5); 
0524E:  MOVLW  05
05250:  MOVLB  4
05252:  MOVWF  x63
05254:  MOVLB  0
05256:  CALL   1A6C
....................       write_ext_eeprom(9+(cicloMemoria*320)+(posicionDato*9),0); 
0525A:  MOVFF  462,466
0525E:  MOVFF  461,465
05262:  MOVLW  01
05264:  MOVLB  4
05266:  MOVWF  x68
05268:  MOVLW  40
0526A:  MOVWF  x67
0526C:  MOVLB  0
0526E:  CALL   1EA0
05272:  MOVFF  02,03
05276:  MOVF   01,W
05278:  ADDLW  09
0527A:  MOVLB  4
0527C:  MOVWF  x63
0527E:  MOVLW  00
05280:  ADDWFC 02,W
05282:  MOVWF  x64
05284:  MOVFF  383,466
05288:  MOVFF  382,465
0528C:  CLRF   x68
0528E:  MOVLW  09
05290:  MOVWF  x67
05292:  MOVLB  0
05294:  CALL   1EA0
05298:  MOVFF  02,03
0529C:  MOVF   01,W
0529E:  MOVLB  4
052A0:  ADDWF  x63,F
052A2:  MOVF   02,W
052A4:  ADDWFC x64,F
052A6:  MOVFF  464,466
052AA:  MOVFF  463,465
052AE:  CLRF   x67
052B0:  MOVLB  0
052B2:  RCALL  4EB0
....................       delay_ms(5); 
052B4:  MOVLW  05
052B6:  MOVLB  4
052B8:  MOVWF  x63
052BA:  MOVLB  0
052BC:  CALL   1A6C
....................       write_ext_eeprom(10+(cicloMemoria*320)+(posicionDato*9),0); 
052C0:  MOVFF  462,466
052C4:  MOVFF  461,465
052C8:  MOVLW  01
052CA:  MOVLB  4
052CC:  MOVWF  x68
052CE:  MOVLW  40
052D0:  MOVWF  x67
052D2:  MOVLB  0
052D4:  CALL   1EA0
052D8:  MOVFF  02,03
052DC:  MOVF   01,W
052DE:  ADDLW  0A
052E0:  MOVLB  4
052E2:  MOVWF  x63
052E4:  MOVLW  00
052E6:  ADDWFC 02,W
052E8:  MOVWF  x64
052EA:  MOVFF  383,466
052EE:  MOVFF  382,465
052F2:  CLRF   x68
052F4:  MOVLW  09
052F6:  MOVWF  x67
052F8:  MOVLB  0
052FA:  CALL   1EA0
052FE:  MOVFF  02,03
05302:  MOVF   01,W
05304:  MOVLB  4
05306:  ADDWF  x63,F
05308:  MOVF   02,W
0530A:  ADDWFC x64,F
0530C:  MOVFF  464,466
05310:  MOVFF  463,465
05314:  CLRF   x67
05316:  MOVLB  0
05318:  RCALL  4EB0
....................       delay_ms(5); 
0531A:  MOVLW  05
0531C:  MOVLB  4
0531E:  MOVWF  x63
05320:  MOVLB  0
05322:  CALL   1A6C
....................       write_ext_eeprom(11+(cicloMemoria*320)+(posicionDato*9),0); 
05326:  MOVFF  462,466
0532A:  MOVFF  461,465
0532E:  MOVLW  01
05330:  MOVLB  4
05332:  MOVWF  x68
05334:  MOVLW  40
05336:  MOVWF  x67
05338:  MOVLB  0
0533A:  CALL   1EA0
0533E:  MOVFF  02,03
05342:  MOVF   01,W
05344:  ADDLW  0B
05346:  MOVLB  4
05348:  MOVWF  x63
0534A:  MOVLW  00
0534C:  ADDWFC 02,W
0534E:  MOVWF  x64
05350:  MOVFF  383,466
05354:  MOVFF  382,465
05358:  CLRF   x68
0535A:  MOVLW  09
0535C:  MOVWF  x67
0535E:  MOVLB  0
05360:  CALL   1EA0
05364:  MOVFF  02,03
05368:  MOVF   01,W
0536A:  MOVLB  4
0536C:  ADDWF  x63,F
0536E:  MOVF   02,W
05370:  ADDWFC x64,F
05372:  MOVFF  464,466
05376:  MOVFF  463,465
0537A:  CLRF   x67
0537C:  MOVLB  0
0537E:  RCALL  4EB0
....................       delay_ms(5); 
05380:  MOVLW  05
05382:  MOVLB  4
05384:  MOVWF  x63
05386:  MOVLB  0
05388:  CALL   1A6C
....................       write_ext_eeprom(12+(cicloMemoria*320)+(posicionDato*9),0); 
0538C:  MOVFF  462,466
05390:  MOVFF  461,465
05394:  MOVLW  01
05396:  MOVLB  4
05398:  MOVWF  x68
0539A:  MOVLW  40
0539C:  MOVWF  x67
0539E:  MOVLB  0
053A0:  CALL   1EA0
053A4:  MOVFF  02,03
053A8:  MOVF   01,W
053AA:  ADDLW  0C
053AC:  MOVLB  4
053AE:  MOVWF  x63
053B0:  MOVLW  00
053B2:  ADDWFC 02,W
053B4:  MOVWF  x64
053B6:  MOVFF  383,466
053BA:  MOVFF  382,465
053BE:  CLRF   x68
053C0:  MOVLW  09
053C2:  MOVWF  x67
053C4:  MOVLB  0
053C6:  CALL   1EA0
053CA:  MOVFF  02,03
053CE:  MOVF   01,W
053D0:  MOVLB  4
053D2:  ADDWF  x63,F
053D4:  MOVF   02,W
053D6:  ADDWFC x64,F
053D8:  MOVFF  464,466
053DC:  MOVFF  463,465
053E0:  CLRF   x67
053E2:  MOVLB  0
053E4:  RCALL  4EB0
....................       delay_ms(5); 
053E6:  MOVLW  05
053E8:  MOVLB  4
053EA:  MOVWF  x63
053EC:  MOVLB  0
053EE:  CALL   1A6C
....................       write_ext_eeprom(13+(cicloMemoria*320)+(posicionDato*9),0); 
053F2:  MOVFF  462,466
053F6:  MOVFF  461,465
053FA:  MOVLW  01
053FC:  MOVLB  4
053FE:  MOVWF  x68
05400:  MOVLW  40
05402:  MOVWF  x67
05404:  MOVLB  0
05406:  CALL   1EA0
0540A:  MOVFF  02,03
0540E:  MOVF   01,W
05410:  ADDLW  0D
05412:  MOVLB  4
05414:  MOVWF  x63
05416:  MOVLW  00
05418:  ADDWFC 02,W
0541A:  MOVWF  x64
0541C:  MOVFF  383,466
05420:  MOVFF  382,465
05424:  CLRF   x68
05426:  MOVLW  09
05428:  MOVWF  x67
0542A:  MOVLB  0
0542C:  CALL   1EA0
05430:  MOVFF  02,03
05434:  MOVF   01,W
05436:  MOVLB  4
05438:  ADDWF  x63,F
0543A:  MOVF   02,W
0543C:  ADDWFC x64,F
0543E:  MOVFF  464,466
05442:  MOVFF  463,465
05446:  CLRF   x67
05448:  MOVLB  0
0544A:  RCALL  4EB0
....................       delay_ms(5); 
0544C:  MOVLW  05
0544E:  MOVLB  4
05450:  MOVWF  x63
05452:  MOVLB  0
05454:  CALL   1A6C
....................    } 
05458:  MOVLB  3
0545A:  INCF   x82,F
0545C:  BTFSC  FD8.2
0545E:  INCF   x83,F
05460:  BRA    50B4
....................    posicionDato=0; 
05462:  CLRF   x83
05464:  CLRF   x82
.................... } 
05466:  MOVLB  0
05468:  GOTO   54D4 (RETURN)
....................  
....................  
.................... void incrementaCiclos(){ 
....................    if(!Ciclo){ 
*
07262:  BTFSC  xA1.5
07264:  BRA    72EC
....................       Ciclo=ON; 
07266:  BSF    xA1.5
....................       Ciclos++; 
07268:  MOVLB  3
0726A:  INCF   x78,F
0726C:  BTFSC  FD8.2
0726E:  INCF   x79,F
....................       CiclosL=make8(Ciclos,0); 
07270:  MOVFF  378,35F
....................       CiclosH=make8(Ciclos,1); 
07274:  MOVFF  379,360
....................       write_eeprom(37,CiclosL); 
07278:  CLRF   FAA
0727A:  MOVLW  25
0727C:  MOVWF  FA9
0727E:  MOVFF  35F,FA8
07282:  BCF    FA6.6
07284:  BCF    FA6.7
07286:  BSF    FA6.2
07288:  MOVF   FF2,W
0728A:  MOVWF  00
0728C:  BCF    FF2.6
0728E:  BCF    FF2.7
07290:  MOVLB  F
07292:  MOVLW  55
07294:  MOVWF  FA7
07296:  MOVLW  AA
07298:  MOVWF  FA7
0729A:  BSF    FA6.1
0729C:  BTFSC  FA6.1
0729E:  BRA    729C
072A0:  BCF    FA6.2
072A2:  MOVF   00,W
072A4:  IORWF  FF2,F
....................       delay_ms(20); 
072A6:  MOVLW  14
072A8:  MOVLB  4
072AA:  MOVWF  x63
072AC:  MOVLB  0
072AE:  CALL   1A6C
....................       write_eeprom(38,CiclosH); 
072B2:  CLRF   FAA
072B4:  MOVLW  26
072B6:  MOVWF  FA9
072B8:  MOVFF  360,FA8
072BC:  BCF    FA6.6
072BE:  BCF    FA6.7
072C0:  BSF    FA6.2
072C2:  MOVF   FF2,W
072C4:  MOVWF  00
072C6:  BCF    FF2.6
072C8:  BCF    FF2.7
072CA:  MOVLB  F
072CC:  MOVLW  55
072CE:  MOVWF  FA7
072D0:  MOVLW  AA
072D2:  MOVWF  FA7
072D4:  BSF    FA6.1
072D6:  BTFSC  FA6.1
072D8:  BRA    72D6
072DA:  BCF    FA6.2
072DC:  MOVF   00,W
072DE:  IORWF  FF2,F
....................       delay_ms(20); 
072E0:  MOVLW  14
072E2:  MOVLB  4
072E4:  MOVWF  x63
072E6:  MOVLB  0
072E8:  CALL   1A6C
....................    } 
.................... } 
072EC:  RETLW  00
....................  
.................... void exportarData(){ 
*
06116:  MOVLB  4
06118:  CLRF   x4B
0611A:  CLRF   x4A
0611C:  CLRF   x4C
.................... int16 posicion=0; 
.................... int8 tmp=0; 
.................... posicion=40; 
0611E:  CLRF   x4B
06120:  MOVLW  28
06122:  MOVWF  x4A
.................... direccion=0xB0; 
06124:  MOVLW  B0
06126:  MOVLB  0
06128:  MOVWF  x85
.................... //Buzzer_on; 
.................... //Inicio de Transmision 
.................... i2c_start();            // Comienzo comunicacin 
0612A:  BSF    F94.4
0612C:  MOVLW  05
0612E:  MOVWF  00
06130:  DECFSZ 00,F
06132:  BRA    6130
06134:  BSF    F94.3
06136:  MOVLW  06
06138:  MOVWF  00
0613A:  DECFSZ 00,F
0613C:  BRA    613A
0613E:  BCF    F8B.4
06140:  BCF    F94.4
06142:  MOVLW  05
06144:  MOVWF  00
06146:  DECFSZ 00,F
06148:  BRA    6146
0614A:  BCF    F8B.3
0614C:  BCF    F94.3
.................... i2c_write(direccion);   // Direccin del esclavo en el bus I2C 
0614E:  MOVFF  85,46B
06152:  CALL   48E4
.................... i2c_write(make8(posicion,0));    // Posicin donde se guardara el dato transmitido 
06156:  MOVFF  44A,44D
0615A:  MOVFF  44A,46B
0615E:  CALL   48E4
.................... i2c_write(make8(posicion,1));    // Posicin donde se guardara el dato transmitido 
06162:  MOVFF  44B,44D
06166:  MOVFF  44B,46B
0616A:  CALL   48E4
.................... i2c_write(0xff);        // Dato a transmitir 
0616E:  MOVLW  FF
06170:  MOVLB  4
06172:  MOVWF  x6B
06174:  MOVLB  0
06176:  CALL   48E4
.................... i2c_stop(); 
0617A:  BCF    F94.4
0617C:  NOP   
0617E:  BSF    F94.3
06180:  BTFSS  F82.3
06182:  BRA    6180
06184:  MOVLW  05
06186:  MOVWF  00
06188:  DECFSZ 00,F
0618A:  BRA    6188
0618C:  BRA    618E
0618E:  NOP   
06190:  BSF    F94.4
06192:  MOVLW  05
06194:  MOVWF  00
06196:  DECFSZ 00,F
06198:  BRA    6196
.................... ++posicion; 
0619A:  MOVLB  4
0619C:  INCF   x4A,F
0619E:  BTFSC  FD8.2
061A0:  INCF   x4B,F
.................... i2c_start();            // Comienzo comunicacin 
061A2:  BSF    F94.4
061A4:  MOVLW  05
061A6:  MOVWF  00
061A8:  DECFSZ 00,F
061AA:  BRA    61A8
061AC:  BSF    F94.3
061AE:  MOVLW  06
061B0:  MOVWF  00
061B2:  DECFSZ 00,F
061B4:  BRA    61B2
061B6:  BCF    F8B.4
061B8:  BCF    F94.4
061BA:  MOVLW  05
061BC:  MOVWF  00
061BE:  DECFSZ 00,F
061C0:  BRA    61BE
061C2:  BCF    F8B.3
061C4:  BCF    F94.3
.................... i2c_write(direccion);   // Direccin del esclavo en el bus I2C 
061C6:  MOVFF  85,46B
061CA:  MOVLB  0
061CC:  CALL   48E4
.................... i2c_write(make8(posicion,0));    // Posicin donde se guardara el dato transmitido 
061D0:  MOVFF  44A,44D
061D4:  MOVFF  44A,46B
061D8:  CALL   48E4
.................... i2c_write(make8(posicion,1));    // Posicin donde se guardara el dato transmitido 
061DC:  MOVFF  44B,44D
061E0:  MOVFF  44B,46B
061E4:  CALL   48E4
.................... i2c_write(0xff);        // Dato a transmitir 
061E8:  MOVLW  FF
061EA:  MOVLB  4
061EC:  MOVWF  x6B
061EE:  MOVLB  0
061F0:  CALL   48E4
.................... i2c_stop(); 
061F4:  BCF    F94.4
061F6:  NOP   
061F8:  BSF    F94.3
061FA:  BTFSS  F82.3
061FC:  BRA    61FA
061FE:  MOVLW  05
06200:  MOVWF  00
06202:  DECFSZ 00,F
06204:  BRA    6202
06206:  BRA    6208
06208:  NOP   
0620A:  BSF    F94.4
0620C:  MOVLW  05
0620E:  MOVWF  00
06210:  DECFSZ 00,F
06212:  BRA    6210
.................... ++posicion; 
06214:  MOVLB  4
06216:  INCF   x4A,F
06218:  BTFSC  FD8.2
0621A:  INCF   x4B,F
.................... //Se envian 2 veces ff para indicar que se inicia la transmision. 
....................  
....................    for(i=0;i<5;i++){ 
0621C:  MOVLB  3
0621E:  CLRF   xA4
06220:  CLRF   xA3
06222:  MOVF   xA4,F
06224:  BNZ   62EC
06226:  MOVF   xA3,W
06228:  SUBLW  04
0622A:  BNC   62EC
....................       tmp=read_ext_eeprom((cicloVisto*320)+i); 
0622C:  MOVFF  3A0,466
06230:  MOVFF  39F,465
06234:  MOVLW  01
06236:  MOVLB  4
06238:  MOVWF  x68
0623A:  MOVLW  40
0623C:  MOVWF  x67
0623E:  MOVLB  0
06240:  CALL   1EA0
06244:  MOVFF  02,44E
06248:  MOVFF  01,44D
0624C:  MOVLB  3
0624E:  MOVF   xA3,W
06250:  MOVLB  4
06252:  ADDWF  x4D,F
06254:  MOVLB  3
06256:  MOVF   xA4,W
06258:  MOVLB  4
0625A:  ADDWFC x4E,F
0625C:  MOVFF  44E,450
06260:  MOVFF  44D,44F
06264:  MOVLB  0
06266:  CALL   5814
0626A:  MOVFF  01,44C
....................       //if(tmp>250) 
....................       //   tmp=20; 
....................       i2c_start();            // Comienzo comunicacin 
0626E:  BSF    F94.4
06270:  MOVLW  05
06272:  MOVWF  00
06274:  DECFSZ 00,F
06276:  BRA    6274
06278:  BSF    F94.3
0627A:  MOVLW  06
0627C:  MOVWF  00
0627E:  DECFSZ 00,F
06280:  BRA    627E
06282:  BCF    F8B.4
06284:  BCF    F94.4
06286:  MOVLW  05
06288:  MOVWF  00
0628A:  DECFSZ 00,F
0628C:  BRA    628A
0628E:  BCF    F8B.3
06290:  BCF    F94.3
....................       i2c_write(direccion);   // Direccin del esclavo en el bus I2C 
06292:  MOVFF  85,46B
06296:  CALL   48E4
....................       i2c_write(make8(posicion,0));    // Posicin donde se guardara el dato transmitido 
0629A:  MOVFF  44A,44D
0629E:  MOVFF  44A,46B
062A2:  CALL   48E4
....................       i2c_write(make8(posicion,1));    // Posicin donde se guardara el dato transmitido 
062A6:  MOVFF  44B,44D
062AA:  MOVFF  44B,46B
062AE:  CALL   48E4
....................       i2c_write(tmp);        // Dato a transmitir 
062B2:  MOVFF  44C,46B
062B6:  CALL   48E4
....................       i2c_stop();  
062BA:  BCF    F94.4
062BC:  NOP   
062BE:  BSF    F94.3
062C0:  BTFSS  F82.3
062C2:  BRA    62C0
062C4:  MOVLW  05
062C6:  MOVWF  00
062C8:  DECFSZ 00,F
062CA:  BRA    62C8
062CC:  BRA    62CE
062CE:  NOP   
062D0:  BSF    F94.4
062D2:  MOVLW  05
062D4:  MOVWF  00
062D6:  DECFSZ 00,F
062D8:  BRA    62D6
....................       ++posicion; 
062DA:  MOVLB  4
062DC:  INCF   x4A,F
062DE:  BTFSC  FD8.2
062E0:  INCF   x4B,F
....................    } 
062E2:  MOVLB  3
062E4:  INCF   xA3,F
062E6:  BTFSC  FD8.2
062E8:  INCF   xA4,F
062EA:  BRA    6222
....................    for(i=0;i<35;i++){//Lee Valores para completar la Tabla 
062EC:  CLRF   xA4
062EE:  CLRF   xA3
062F0:  MOVF   xA4,F
062F2:  BTFSS  FD8.2
062F4:  BRA    63F8
062F6:  MOVF   xA3,W
062F8:  SUBLW  22
062FA:  BTFSS  FD8.0
062FC:  BRA    63F8
....................       for(j=5;j<14;j++){//Lee Valores para completar la Tabla 
062FE:  CLRF   xA6
06300:  MOVLW  05
06302:  MOVWF  xA5
06304:  MOVF   xA6,F
06306:  BNZ   63F0
06308:  MOVF   xA5,W
0630A:  SUBLW  0D
0630C:  BNC   63F0
....................          tmp=read_ext_eeprom((cicloVisto*320)+j+(i*9)); 
0630E:  MOVFF  3A0,466
06312:  MOVFF  39F,465
06316:  MOVLW  01
06318:  MOVLB  4
0631A:  MOVWF  x68
0631C:  MOVLW  40
0631E:  MOVWF  x67
06320:  MOVLB  0
06322:  CALL   1EA0
06326:  MOVFF  02,44E
0632A:  MOVFF  01,44D
0632E:  MOVLB  3
06330:  MOVF   xA5,W
06332:  MOVLB  4
06334:  ADDWF  x4D,F
06336:  MOVLB  3
06338:  MOVF   xA6,W
0633A:  MOVLB  4
0633C:  ADDWFC x4E,F
0633E:  MOVFF  3A4,466
06342:  MOVFF  3A3,465
06346:  CLRF   x68
06348:  MOVLW  09
0634A:  MOVWF  x67
0634C:  MOVLB  0
0634E:  CALL   1EA0
06352:  MOVFF  02,03
06356:  MOVF   01,W
06358:  MOVLB  4
0635A:  ADDWF  x4D,F
0635C:  MOVF   02,W
0635E:  ADDWFC x4E,F
06360:  MOVFF  44E,450
06364:  MOVFF  44D,44F
06368:  MOVLB  0
0636A:  CALL   5814
0636E:  MOVFF  01,44C
....................          //if(tmp>250) 
....................          //   tmp=20; 
....................          i2c_start();            // Comienzo comunicacin 
06372:  BSF    F94.4
06374:  MOVLW  05
06376:  MOVWF  00
06378:  DECFSZ 00,F
0637A:  BRA    6378
0637C:  BSF    F94.3
0637E:  MOVLW  06
06380:  MOVWF  00
06382:  DECFSZ 00,F
06384:  BRA    6382
06386:  BCF    F8B.4
06388:  BCF    F94.4
0638A:  MOVLW  05
0638C:  MOVWF  00
0638E:  DECFSZ 00,F
06390:  BRA    638E
06392:  BCF    F8B.3
06394:  BCF    F94.3
....................          i2c_write(direccion);   // Direccin del esclavo en el bus I2C 
06396:  MOVFF  85,46B
0639A:  CALL   48E4
....................          i2c_write(make8(posicion,0));    // Posicin donde se guardara el dato transmitido 
0639E:  MOVFF  44A,44D
063A2:  MOVFF  44A,46B
063A6:  CALL   48E4
....................          i2c_write(make8(posicion,1));    // Posicin donde se guardara el dato transmitido 
063AA:  MOVFF  44B,44D
063AE:  MOVFF  44B,46B
063B2:  CALL   48E4
....................          i2c_write(tmp);        // Dato a transmitir 
063B6:  MOVFF  44C,46B
063BA:  CALL   48E4
....................          i2c_stop();  
063BE:  BCF    F94.4
063C0:  NOP   
063C2:  BSF    F94.3
063C4:  BTFSS  F82.3
063C6:  BRA    63C4
063C8:  MOVLW  05
063CA:  MOVWF  00
063CC:  DECFSZ 00,F
063CE:  BRA    63CC
063D0:  BRA    63D2
063D2:  NOP   
063D4:  BSF    F94.4
063D6:  MOVLW  05
063D8:  MOVWF  00
063DA:  DECFSZ 00,F
063DC:  BRA    63DA
....................          ++posicion; 
063DE:  MOVLB  4
063E0:  INCF   x4A,F
063E2:  BTFSC  FD8.2
063E4:  INCF   x4B,F
....................       } 
063E6:  MOVLB  3
063E8:  INCF   xA5,F
063EA:  BTFSC  FD8.2
063EC:  INCF   xA6,F
063EE:  BRA    6304
....................    } 
063F0:  INCF   xA3,F
063F2:  BTFSC  FD8.2
063F4:  INCF   xA4,F
063F6:  BRA    62F0
....................  
.................... //Fin de Transmision 
.................... i2c_start();            // Comienzo comunicacin 
063F8:  BSF    F94.4
063FA:  MOVLW  05
063FC:  MOVWF  00
063FE:  DECFSZ 00,F
06400:  BRA    63FE
06402:  BSF    F94.3
06404:  MOVLW  06
06406:  MOVWF  00
06408:  DECFSZ 00,F
0640A:  BRA    6408
0640C:  BCF    F8B.4
0640E:  BCF    F94.4
06410:  MOVLW  05
06412:  MOVWF  00
06414:  DECFSZ 00,F
06416:  BRA    6414
06418:  BCF    F8B.3
0641A:  BCF    F94.3
.................... i2c_write(direccion);   // Direccin del esclavo en el bus I2C 
0641C:  MOVFF  85,46B
06420:  MOVLB  0
06422:  CALL   48E4
.................... i2c_write(make8(posicion,0));    // Posicin donde se guardara el dato transmitido 
06426:  MOVFF  44A,44D
0642A:  MOVFF  44A,46B
0642E:  CALL   48E4
.................... i2c_write(make8(posicion,1));    // Posicin donde se guardara el dato transmitido 
06432:  MOVFF  44B,44D
06436:  MOVFF  44B,46B
0643A:  CALL   48E4
.................... i2c_write(0x1f);        // Dato a transmitir 
0643E:  MOVLW  1F
06440:  MOVLB  4
06442:  MOVWF  x6B
06444:  MOVLB  0
06446:  CALL   48E4
.................... i2c_stop(); 
0644A:  BCF    F94.4
0644C:  NOP   
0644E:  BSF    F94.3
06450:  BTFSS  F82.3
06452:  BRA    6450
06454:  MOVLW  05
06456:  MOVWF  00
06458:  DECFSZ 00,F
0645A:  BRA    6458
0645C:  BRA    645E
0645E:  NOP   
06460:  BSF    F94.4
06462:  MOVLW  05
06464:  MOVWF  00
06466:  DECFSZ 00,F
06468:  BRA    6466
.................... ++posicion; 
0646A:  MOVLB  4
0646C:  INCF   x4A,F
0646E:  BTFSC  FD8.2
06470:  INCF   x4B,F
.................... i2c_start();            // Comienzo comunicacin 
06472:  BSF    F94.4
06474:  MOVLW  05
06476:  MOVWF  00
06478:  DECFSZ 00,F
0647A:  BRA    6478
0647C:  BSF    F94.3
0647E:  MOVLW  06
06480:  MOVWF  00
06482:  DECFSZ 00,F
06484:  BRA    6482
06486:  BCF    F8B.4
06488:  BCF    F94.4
0648A:  MOVLW  05
0648C:  MOVWF  00
0648E:  DECFSZ 00,F
06490:  BRA    648E
06492:  BCF    F8B.3
06494:  BCF    F94.3
.................... i2c_write(direccion);   // Direccin del esclavo en el bus I2C 
06496:  MOVFF  85,46B
0649A:  MOVLB  0
0649C:  CALL   48E4
.................... i2c_write(make8(posicion,0));    // Posicin donde se guardara el dato transmitido 
064A0:  MOVFF  44A,44D
064A4:  MOVFF  44A,46B
064A8:  CALL   48E4
.................... i2c_write(make8(posicion,1));    // Posicin donde se guardara el dato transmitido 
064AC:  MOVFF  44B,44D
064B0:  MOVFF  44B,46B
064B4:  CALL   48E4
.................... i2c_write(0x1f);        // Dato a transmitir 
064B8:  MOVLW  1F
064BA:  MOVLB  4
064BC:  MOVWF  x6B
064BE:  MOVLB  0
064C0:  CALL   48E4
.................... i2c_stop(); 
064C4:  BCF    F94.4
064C6:  NOP   
064C8:  BSF    F94.3
064CA:  BTFSS  F82.3
064CC:  BRA    64CA
064CE:  MOVLW  05
064D0:  MOVWF  00
064D2:  DECFSZ 00,F
064D4:  BRA    64D2
064D6:  BRA    64D8
064D8:  NOP   
064DA:  BSF    F94.4
064DC:  MOVLW  05
064DE:  MOVWF  00
064E0:  DECFSZ 00,F
064E2:  BRA    64E0
.................... ++posicion; 
064E4:  MOVLB  4
064E6:  INCF   x4A,F
064E8:  BTFSC  FD8.2
064EA:  INCF   x4B,F
.................... //Se envian 2 veces 1f para indicar que se inicia la transmision. 
.................... delay_ms(200); 
064EC:  MOVLW  C8
064EE:  MOVWF  x63
064F0:  MOVLB  0
064F2:  CALL   1A6C
.................... //Buzzer_off; 
.................... } 
064F6:  GOTO   CF74 (RETURN)
....................  
.................... void codificaAlarma(){ 
....................    if(ACiclos[i]==0){ 
064FA:  MOVLW  1B
064FC:  MOVLB  3
064FE:  ADDWF  xA3,W
06500:  MOVWF  FE9
06502:  MOVLW  04
06504:  ADDWFC xA4,W
06506:  MOVWF  FEA
06508:  MOVF   FEF,F
0650A:  BNZ   6558
....................       printf("A%Lu.txt=\"----\"",i+1); 
0650C:  MOVLW  01
0650E:  ADDWF  xA3,W
06510:  MOVLB  4
06512:  MOVWF  x4A
06514:  MOVLW  00
06516:  MOVLB  3
06518:  ADDWFC xA4,W
0651A:  MOVLB  4
0651C:  MOVWF  x4B
0651E:  MOVLW  41
06520:  BTFSS  F9E.4
06522:  BRA    6520
06524:  MOVWF  FAD
06526:  MOVLW  10
06528:  MOVWF  FE9
0652A:  MOVFF  44B,451
0652E:  MOVFF  44A,450
06532:  MOVLB  0
06534:  CALL   54F8
06538:  MOVLW  FA
0653A:  MOVWF  FF6
0653C:  MOVLW  01
0653E:  MOVWF  FF7
06540:  MOVLW  00
06542:  MOVWF  FF8
06544:  MOVLW  0B
06546:  MOVLB  4
06548:  MOVWF  x50
0654A:  MOVLB  0
0654C:  CALL   4B26
....................       SendDataDisplay(); 
06550:  CALL   3BE4
....................    }else if(ACiclos[i]==1){ 
06554:  BRA    6B32
06556:  MOVLB  3
06558:  MOVLW  1B
0655A:  ADDWF  xA3,W
0655C:  MOVWF  FE9
0655E:  MOVLW  04
06560:  ADDWFC xA4,W
06562:  MOVWF  FEA
06564:  DECFSZ FEF,W
06566:  BRA    65B4
....................       printf("A%Lu.txt=\"Parada\"",i+1); 
06568:  MOVLW  01
0656A:  ADDWF  xA3,W
0656C:  MOVLB  4
0656E:  MOVWF  x4A
06570:  MOVLW  00
06572:  MOVLB  3
06574:  ADDWFC xA4,W
06576:  MOVLB  4
06578:  MOVWF  x4B
0657A:  MOVLW  41
0657C:  BTFSS  F9E.4
0657E:  BRA    657C
06580:  MOVWF  FAD
06582:  MOVLW  10
06584:  MOVWF  FE9
06586:  MOVFF  44B,451
0658A:  MOVFF  44A,450
0658E:  MOVLB  0
06590:  CALL   54F8
06594:  MOVLW  0A
06596:  MOVWF  FF6
06598:  MOVLW  02
0659A:  MOVWF  FF7
0659C:  MOVLW  00
0659E:  MOVWF  FF8
065A0:  MOVLW  0D
065A2:  MOVLB  4
065A4:  MOVWF  x50
065A6:  MOVLB  0
065A8:  CALL   4B26
....................       SendDataDisplay(); 
065AC:  CALL   3BE4
....................    }else if(ACiclos[i]==2){ 
065B0:  BRA    6B32
065B2:  MOVLB  3
065B4:  MOVLW  1B
065B6:  ADDWF  xA3,W
065B8:  MOVWF  FE9
065BA:  MOVLW  04
065BC:  ADDWFC xA4,W
065BE:  MOVWF  FEA
065C0:  MOVF   FEF,W
065C2:  SUBLW  02
065C4:  BNZ   6612
....................       printf("A%Lu.txt=\"Puerta\"",i+1); 
065C6:  MOVLW  01
065C8:  ADDWF  xA3,W
065CA:  MOVLB  4
065CC:  MOVWF  x4A
065CE:  MOVLW  00
065D0:  MOVLB  3
065D2:  ADDWFC xA4,W
065D4:  MOVLB  4
065D6:  MOVWF  x4B
065D8:  MOVLW  41
065DA:  BTFSS  F9E.4
065DC:  BRA    65DA
065DE:  MOVWF  FAD
065E0:  MOVLW  10
065E2:  MOVWF  FE9
065E4:  MOVFF  44B,451
065E8:  MOVFF  44A,450
065EC:  MOVLB  0
065EE:  CALL   54F8
065F2:  MOVLW  1C
065F4:  MOVWF  FF6
065F6:  MOVLW  02
065F8:  MOVWF  FF7
065FA:  MOVLW  00
065FC:  MOVWF  FF8
065FE:  MOVLW  0D
06600:  MOVLB  4
06602:  MOVWF  x50
06604:  MOVLB  0
06606:  CALL   4B26
....................       SendDataDisplay(); 
0660A:  CALL   3BE4
....................    }else if(ACiclos[i]==3){ 
0660E:  BRA    6B32
06610:  MOVLB  3
06612:  MOVLW  1B
06614:  ADDWF  xA3,W
06616:  MOVWF  FE9
06618:  MOVLW  04
0661A:  ADDWFC xA4,W
0661C:  MOVWF  FEA
0661E:  MOVF   FEF,W
06620:  SUBLW  03
06622:  BNZ   6670
....................       printf("A%Lu.txt=\"Termostato\"",i+1); 
06624:  MOVLW  01
06626:  ADDWF  xA3,W
06628:  MOVLB  4
0662A:  MOVWF  x4A
0662C:  MOVLW  00
0662E:  MOVLB  3
06630:  ADDWFC xA4,W
06632:  MOVLB  4
06634:  MOVWF  x4B
06636:  MOVLW  41
06638:  BTFSS  F9E.4
0663A:  BRA    6638
0663C:  MOVWF  FAD
0663E:  MOVLW  10
06640:  MOVWF  FE9
06642:  MOVFF  44B,451
06646:  MOVFF  44A,450
0664A:  MOVLB  0
0664C:  CALL   54F8
06650:  MOVLW  2E
06652:  MOVWF  FF6
06654:  MOVLW  02
06656:  MOVWF  FF7
06658:  MOVLW  00
0665A:  MOVWF  FF8
0665C:  MOVLW  11
0665E:  MOVLB  4
06660:  MOVWF  x50
06662:  MOVLB  0
06664:  CALL   4B26
....................       SendDataDisplay(); 
06668:  CALL   3BE4
....................    }else if(ACiclos[i]==4){ 
0666C:  BRA    6B32
0666E:  MOVLB  3
06670:  MOVLW  1B
06672:  ADDWF  xA3,W
06674:  MOVWF  FE9
06676:  MOVLW  04
06678:  ADDWFC xA4,W
0667A:  MOVWF  FEA
0667C:  MOVF   FEF,W
0667E:  SUBLW  04
06680:  BNZ   66CE
....................       printf("A%Lu.txt=\"SobreT\"",i+1); 
06682:  MOVLW  01
06684:  ADDWF  xA3,W
06686:  MOVLB  4
06688:  MOVWF  x4A
0668A:  MOVLW  00
0668C:  MOVLB  3
0668E:  ADDWFC xA4,W
06690:  MOVLB  4
06692:  MOVWF  x4B
06694:  MOVLW  41
06696:  BTFSS  F9E.4
06698:  BRA    6696
0669A:  MOVWF  FAD
0669C:  MOVLW  10
0669E:  MOVWF  FE9
066A0:  MOVFF  44B,451
066A4:  MOVFF  44A,450
066A8:  MOVLB  0
066AA:  CALL   54F8
066AE:  MOVLW  44
066B0:  MOVWF  FF6
066B2:  MOVLW  02
066B4:  MOVWF  FF7
066B6:  MOVLW  00
066B8:  MOVWF  FF8
066BA:  MOVLW  0D
066BC:  MOVLB  4
066BE:  MOVWF  x50
066C0:  MOVLB  0
066C2:  CALL   4B26
....................       SendDataDisplay(); 
066C6:  CALL   3BE4
....................    }else if(ACiclos[i]==5){ 
066CA:  BRA    6B32
066CC:  MOVLB  3
066CE:  MOVLW  1B
066D0:  ADDWF  xA3,W
066D2:  MOVWF  FE9
066D4:  MOVLW  04
066D6:  ADDWFC xA4,W
066D8:  MOVWF  FEA
066DA:  MOVF   FEF,W
066DC:  SUBLW  05
066DE:  BNZ   672C
....................       printf("A%Lu.txt=\"Tiempo\"",i+1); 
066E0:  MOVLW  01
066E2:  ADDWF  xA3,W
066E4:  MOVLB  4
066E6:  MOVWF  x4A
066E8:  MOVLW  00
066EA:  MOVLB  3
066EC:  ADDWFC xA4,W
066EE:  MOVLB  4
066F0:  MOVWF  x4B
066F2:  MOVLW  41
066F4:  BTFSS  F9E.4
066F6:  BRA    66F4
066F8:  MOVWF  FAD
066FA:  MOVLW  10
066FC:  MOVWF  FE9
066FE:  MOVFF  44B,451
06702:  MOVFF  44A,450
06706:  MOVLB  0
06708:  CALL   54F8
0670C:  MOVLW  56
0670E:  MOVWF  FF6
06710:  MOVLW  02
06712:  MOVWF  FF7
06714:  MOVLW  00
06716:  MOVWF  FF8
06718:  MOVLW  0D
0671A:  MOVLB  4
0671C:  MOVWF  x50
0671E:  MOVLB  0
06720:  CALL   4B26
....................       SendDataDisplay(); 
06724:  CALL   3BE4
....................    }else if(ACiclos[i]==6){ 
06728:  BRA    6B32
0672A:  MOVLB  3
0672C:  MOVLW  1B
0672E:  ADDWF  xA3,W
06730:  MOVWF  FE9
06732:  MOVLW  04
06734:  ADDWFC xA4,W
06736:  MOVWF  FEA
06738:  MOVF   FEF,W
0673A:  SUBLW  06
0673C:  BNZ   678A
....................       printf("A%Lu.txt=\"Presion\"",i+1); 
0673E:  MOVLW  01
06740:  ADDWF  xA3,W
06742:  MOVLB  4
06744:  MOVWF  x4A
06746:  MOVLW  00
06748:  MOVLB  3
0674A:  ADDWFC xA4,W
0674C:  MOVLB  4
0674E:  MOVWF  x4B
06750:  MOVLW  41
06752:  BTFSS  F9E.4
06754:  BRA    6752
06756:  MOVWF  FAD
06758:  MOVLW  10
0675A:  MOVWF  FE9
0675C:  MOVFF  44B,451
06760:  MOVFF  44A,450
06764:  MOVLB  0
06766:  CALL   54F8
0676A:  MOVLW  68
0676C:  MOVWF  FF6
0676E:  MOVLW  02
06770:  MOVWF  FF7
06772:  MOVLW  00
06774:  MOVWF  FF8
06776:  MOVLW  0E
06778:  MOVLB  4
0677A:  MOVWF  x50
0677C:  MOVLB  0
0677E:  CALL   4B26
....................       SendDataDisplay(); 
06782:  CALL   3BE4
....................    }else if(ACiclos[i]==7){ 
06786:  BRA    6B32
06788:  MOVLB  3
0678A:  MOVLW  1B
0678C:  ADDWF  xA3,W
0678E:  MOVWF  FE9
06790:  MOVLW  04
06792:  ADDWFC xA4,W
06794:  MOVWF  FEA
06796:  MOVF   FEF,W
06798:  SUBLW  07
0679A:  BNZ   67E8
....................       printf("A%Lu.txt=\"ERR Ciclo\"",i+1); 
0679C:  MOVLW  01
0679E:  ADDWF  xA3,W
067A0:  MOVLB  4
067A2:  MOVWF  x4A
067A4:  MOVLW  00
067A6:  MOVLB  3
067A8:  ADDWFC xA4,W
067AA:  MOVLB  4
067AC:  MOVWF  x4B
067AE:  MOVLW  41
067B0:  BTFSS  F9E.4
067B2:  BRA    67B0
067B4:  MOVWF  FAD
067B6:  MOVLW  10
067B8:  MOVWF  FE9
067BA:  MOVFF  44B,451
067BE:  MOVFF  44A,450
067C2:  MOVLB  0
067C4:  CALL   54F8
067C8:  MOVLW  7C
067CA:  MOVWF  FF6
067CC:  MOVLW  02
067CE:  MOVWF  FF7
067D0:  MOVLW  00
067D2:  MOVWF  FF8
067D4:  MOVLW  10
067D6:  MOVLB  4
067D8:  MOVWF  x50
067DA:  MOVLB  0
067DC:  CALL   4B26
....................       SendDataDisplay(); 
067E0:  CALL   3BE4
....................    }else if(ACiclos[i]==8){ 
067E4:  BRA    6B32
067E6:  MOVLB  3
067E8:  MOVLW  1B
067EA:  ADDWF  xA3,W
067EC:  MOVWF  FE9
067EE:  MOVLW  04
067F0:  ADDWFC xA4,W
067F2:  MOVWF  FEA
067F4:  MOVF   FEF,W
067F6:  SUBLW  08
067F8:  BNZ   6846
....................       printf("A%Lu.txt=\"Llenado\"",i+1); 
067FA:  MOVLW  01
067FC:  ADDWF  xA3,W
067FE:  MOVLB  4
06800:  MOVWF  x4A
06802:  MOVLW  00
06804:  MOVLB  3
06806:  ADDWFC xA4,W
06808:  MOVLB  4
0680A:  MOVWF  x4B
0680C:  MOVLW  41
0680E:  BTFSS  F9E.4
06810:  BRA    680E
06812:  MOVWF  FAD
06814:  MOVLW  10
06816:  MOVWF  FE9
06818:  MOVFF  44B,451
0681C:  MOVFF  44A,450
06820:  MOVLB  0
06822:  CALL   54F8
06826:  MOVLW  92
06828:  MOVWF  FF6
0682A:  MOVLW  02
0682C:  MOVWF  FF7
0682E:  MOVLW  00
06830:  MOVWF  FF8
06832:  MOVLW  0E
06834:  MOVLB  4
06836:  MOVWF  x50
06838:  MOVLB  0
0683A:  CALL   4B26
....................       SendDataDisplay(); 
0683E:  CALL   3BE4
....................    }else if(ACiclos[i]==10){ 
06842:  BRA    6B32
06844:  MOVLB  3
06846:  MOVLW  1B
06848:  ADDWF  xA3,W
0684A:  MOVWF  FE9
0684C:  MOVLW  04
0684E:  ADDWFC xA4,W
06850:  MOVWF  FEA
06852:  MOVF   FEF,W
06854:  SUBLW  0A
06856:  BNZ   68A4
....................       printf("A%Lu.txt=\"Llenando\"",i+1); 
06858:  MOVLW  01
0685A:  ADDWF  xA3,W
0685C:  MOVLB  4
0685E:  MOVWF  x4A
06860:  MOVLW  00
06862:  MOVLB  3
06864:  ADDWFC xA4,W
06866:  MOVLB  4
06868:  MOVWF  x4B
0686A:  MOVLW  41
0686C:  BTFSS  F9E.4
0686E:  BRA    686C
06870:  MOVWF  FAD
06872:  MOVLW  10
06874:  MOVWF  FE9
06876:  MOVFF  44B,451
0687A:  MOVFF  44A,450
0687E:  MOVLB  0
06880:  CALL   54F8
06884:  MOVLW  A6
06886:  MOVWF  FF6
06888:  MOVLW  02
0688A:  MOVWF  FF7
0688C:  MOVLW  00
0688E:  MOVWF  FF8
06890:  MOVLW  0F
06892:  MOVLB  4
06894:  MOVWF  x50
06896:  MOVLB  0
06898:  CALL   4B26
....................       SendDataDisplay(); 
0689C:  CALL   3BE4
....................    }else if(ACiclos[i]==11){ 
068A0:  BRA    6B32
068A2:  MOVLB  3
068A4:  MOVLW  1B
068A6:  ADDWF  xA3,W
068A8:  MOVWF  FE9
068AA:  MOVLW  04
068AC:  ADDWFC xA4,W
068AE:  MOVWF  FEA
068B0:  MOVF   FEF,W
068B2:  SUBLW  0B
068B4:  BNZ   6902
....................       printf("A%Lu.txt=\"Vacio\"",i+1); 
068B6:  MOVLW  01
068B8:  ADDWF  xA3,W
068BA:  MOVLB  4
068BC:  MOVWF  x4A
068BE:  MOVLW  00
068C0:  MOVLB  3
068C2:  ADDWFC xA4,W
068C4:  MOVLB  4
068C6:  MOVWF  x4B
068C8:  MOVLW  41
068CA:  BTFSS  F9E.4
068CC:  BRA    68CA
068CE:  MOVWF  FAD
068D0:  MOVLW  10
068D2:  MOVWF  FE9
068D4:  MOVFF  44B,451
068D8:  MOVFF  44A,450
068DC:  MOVLB  0
068DE:  CALL   54F8
068E2:  MOVLW  BA
068E4:  MOVWF  FF6
068E6:  MOVLW  02
068E8:  MOVWF  FF7
068EA:  MOVLW  00
068EC:  MOVWF  FF8
068EE:  MOVLW  0C
068F0:  MOVLB  4
068F2:  MOVWF  x50
068F4:  MOVLB  0
068F6:  CALL   4B26
....................       SendDataDisplay(); 
068FA:  CALL   3BE4
....................    }else if(ACiclos[i]==12){ 
068FE:  BRA    6B32
06900:  MOVLB  3
06902:  MOVLW  1B
06904:  ADDWF  xA3,W
06906:  MOVWF  FE9
06908:  MOVLW  04
0690A:  ADDWFC xA4,W
0690C:  MOVWF  FEA
0690E:  MOVF   FEF,W
06910:  SUBLW  0C
06912:  BNZ   6960
....................       printf("A%Lu.txt=\"Calen\"",i+1); 
06914:  MOVLW  01
06916:  ADDWF  xA3,W
06918:  MOVLB  4
0691A:  MOVWF  x4A
0691C:  MOVLW  00
0691E:  MOVLB  3
06920:  ADDWFC xA4,W
06922:  MOVLB  4
06924:  MOVWF  x4B
06926:  MOVLW  41
06928:  BTFSS  F9E.4
0692A:  BRA    6928
0692C:  MOVWF  FAD
0692E:  MOVLW  10
06930:  MOVWF  FE9
06932:  MOVFF  44B,451
06936:  MOVFF  44A,450
0693A:  MOVLB  0
0693C:  CALL   54F8
06940:  MOVLW  CC
06942:  MOVWF  FF6
06944:  MOVLW  02
06946:  MOVWF  FF7
06948:  MOVLW  00
0694A:  MOVWF  FF8
0694C:  MOVLW  0C
0694E:  MOVLB  4
06950:  MOVWF  x50
06952:  MOVLB  0
06954:  CALL   4B26
....................       SendDataDisplay(); 
06958:  CALL   3BE4
....................    }else if(ACiclos[i]==13){ 
0695C:  BRA    6B32
0695E:  MOVLB  3
06960:  MOVLW  1B
06962:  ADDWF  xA3,W
06964:  MOVWF  FE9
06966:  MOVLW  04
06968:  ADDWFC xA4,W
0696A:  MOVWF  FEA
0696C:  MOVF   FEF,W
0696E:  SUBLW  0D
06970:  BNZ   69BE
....................       printf("A%Lu.txt=\"Desfoga\"",i+1); 
06972:  MOVLW  01
06974:  ADDWF  xA3,W
06976:  MOVLB  4
06978:  MOVWF  x4A
0697A:  MOVLW  00
0697C:  MOVLB  3
0697E:  ADDWFC xA4,W
06980:  MOVLB  4
06982:  MOVWF  x4B
06984:  MOVLW  41
06986:  BTFSS  F9E.4
06988:  BRA    6986
0698A:  MOVWF  FAD
0698C:  MOVLW  10
0698E:  MOVWF  FE9
06990:  MOVFF  44B,451
06994:  MOVFF  44A,450
06998:  MOVLB  0
0699A:  CALL   54F8
0699E:  MOVLW  DE
069A0:  MOVWF  FF6
069A2:  MOVLW  02
069A4:  MOVWF  FF7
069A6:  MOVLW  00
069A8:  MOVWF  FF8
069AA:  MOVLW  0E
069AC:  MOVLB  4
069AE:  MOVWF  x50
069B0:  MOVLB  0
069B2:  CALL   4B26
....................       SendDataDisplay(); 
069B6:  CALL   3BE4
....................    }else if(ACiclos[i]==14){ 
069BA:  BRA    6B32
069BC:  MOVLB  3
069BE:  MOVLW  1B
069C0:  ADDWF  xA3,W
069C2:  MOVWF  FE9
069C4:  MOVLW  04
069C6:  ADDWFC xA4,W
069C8:  MOVWF  FEA
069CA:  MOVF   FEF,W
069CC:  SUBLW  0E
069CE:  BNZ   6A1C
....................       printf("A%Lu.txt=\"Finalizado\"",i+1); 
069D0:  MOVLW  01
069D2:  ADDWF  xA3,W
069D4:  MOVLB  4
069D6:  MOVWF  x4A
069D8:  MOVLW  00
069DA:  MOVLB  3
069DC:  ADDWFC xA4,W
069DE:  MOVLB  4
069E0:  MOVWF  x4B
069E2:  MOVLW  41
069E4:  BTFSS  F9E.4
069E6:  BRA    69E4
069E8:  MOVWF  FAD
069EA:  MOVLW  10
069EC:  MOVWF  FE9
069EE:  MOVFF  44B,451
069F2:  MOVFF  44A,450
069F6:  MOVLB  0
069F8:  CALL   54F8
069FC:  MOVLW  F2
069FE:  MOVWF  FF6
06A00:  MOVLW  02
06A02:  MOVWF  FF7
06A04:  MOVLW  00
06A06:  MOVWF  FF8
06A08:  MOVLW  11
06A0A:  MOVLB  4
06A0C:  MOVWF  x50
06A0E:  MOVLB  0
06A10:  CALL   4B26
....................       SendDataDisplay(); 
06A14:  CALL   3BE4
....................    }else if(ACiclos[i]==15){ 
06A18:  BRA    6B32
06A1A:  MOVLB  3
06A1C:  MOVLW  1B
06A1E:  ADDWF  xA3,W
06A20:  MOVWF  FE9
06A22:  MOVLW  04
06A24:  ADDWFC xA4,W
06A26:  MOVWF  FEA
06A28:  MOVF   FEF,W
06A2A:  SUBLW  0F
06A2C:  BNZ   6A7A
....................       printf("A%Lu.txt=\"Secando\"",i+1); 
06A2E:  MOVLW  01
06A30:  ADDWF  xA3,W
06A32:  MOVLB  4
06A34:  MOVWF  x4A
06A36:  MOVLW  00
06A38:  MOVLB  3
06A3A:  ADDWFC xA4,W
06A3C:  MOVLB  4
06A3E:  MOVWF  x4B
06A40:  MOVLW  41
06A42:  BTFSS  F9E.4
06A44:  BRA    6A42
06A46:  MOVWF  FAD
06A48:  MOVLW  10
06A4A:  MOVWF  FE9
06A4C:  MOVFF  44B,451
06A50:  MOVFF  44A,450
06A54:  MOVLB  0
06A56:  CALL   54F8
06A5A:  MOVLW  08
06A5C:  MOVWF  FF6
06A5E:  MOVLW  03
06A60:  MOVWF  FF7
06A62:  MOVLW  00
06A64:  MOVWF  FF8
06A66:  MOVLW  0E
06A68:  MOVLB  4
06A6A:  MOVWF  x50
06A6C:  MOVLB  0
06A6E:  CALL   4B26
....................       SendDataDisplay(); 
06A72:  CALL   3BE4
....................    }else if(ACiclos[i]==16){ 
06A76:  BRA    6B32
06A78:  MOVLB  3
06A7A:  MOVLW  1B
06A7C:  ADDWF  xA3,W
06A7E:  MOVWF  FE9
06A80:  MOVLW  04
06A82:  ADDWFC xA4,W
06A84:  MOVWF  FEA
06A86:  MOVF   FEF,W
06A88:  SUBLW  10
06A8A:  BNZ   6AD8
....................       printf("A%Lu.txt=\"Esterilizando\"",i+1); 
06A8C:  MOVLW  01
06A8E:  ADDWF  xA3,W
06A90:  MOVLB  4
06A92:  MOVWF  x4A
06A94:  MOVLW  00
06A96:  MOVLB  3
06A98:  ADDWFC xA4,W
06A9A:  MOVLB  4
06A9C:  MOVWF  x4B
06A9E:  MOVLW  41
06AA0:  BTFSS  F9E.4
06AA2:  BRA    6AA0
06AA4:  MOVWF  FAD
06AA6:  MOVLW  10
06AA8:  MOVWF  FE9
06AAA:  MOVFF  44B,451
06AAE:  MOVFF  44A,450
06AB2:  MOVLB  0
06AB4:  CALL   54F8
06AB8:  MOVLW  1C
06ABA:  MOVWF  FF6
06ABC:  MOVLW  03
06ABE:  MOVWF  FF7
06AC0:  MOVLW  00
06AC2:  MOVWF  FF8
06AC4:  MOVLW  14
06AC6:  MOVLB  4
06AC8:  MOVWF  x50
06ACA:  MOVLB  0
06ACC:  CALL   4B26
....................       SendDataDisplay(); 
06AD0:  CALL   3BE4
....................    }else if(ACiclos[i]==17){ 
06AD4:  BRA    6B32
06AD6:  MOVLB  3
06AD8:  MOVLW  1B
06ADA:  ADDWF  xA3,W
06ADC:  MOVWF  FE9
06ADE:  MOVLW  04
06AE0:  ADDWFC xA4,W
06AE2:  MOVWF  FEA
06AE4:  MOVF   FEF,W
06AE6:  SUBLW  11
06AE8:  BNZ   6B34
....................       printf("A%Lu.txt=\"Enfriando\"",i+1); 
06AEA:  MOVLW  01
06AEC:  ADDWF  xA3,W
06AEE:  MOVLB  4
06AF0:  MOVWF  x4A
06AF2:  MOVLW  00
06AF4:  MOVLB  3
06AF6:  ADDWFC xA4,W
06AF8:  MOVLB  4
06AFA:  MOVWF  x4B
06AFC:  MOVLW  41
06AFE:  BTFSS  F9E.4
06B00:  BRA    6AFE
06B02:  MOVWF  FAD
06B04:  MOVLW  10
06B06:  MOVWF  FE9
06B08:  MOVFF  44B,451
06B0C:  MOVFF  44A,450
06B10:  MOVLB  0
06B12:  CALL   54F8
06B16:  MOVLW  36
06B18:  MOVWF  FF6
06B1A:  MOVLW  03
06B1C:  MOVWF  FF7
06B1E:  MOVLW  00
06B20:  MOVWF  FF8
06B22:  MOVLW  10
06B24:  MOVLB  4
06B26:  MOVWF  x50
06B28:  MOVLB  0
06B2A:  CALL   4B26
....................       SendDataDisplay(); 
06B2E:  CALL   3BE4
06B32:  MOVLB  3
....................    } 
.................... } 
06B34:  MOVLB  0
06B36:  GOTO   D370 (RETURN)
....................  
.................... void enciendeBombaAgua(){ 
....................    if(tBombaAgua>120){//Enciende 120 segundos 
....................       Agua_off; 
....................       #ifdef Enfriador 
....................       Enfr_off; 
....................       #else 
....................       Bomba_off; 
....................       #endif 
....................       flagBombaAgua=OFF; 
....................       flagBombaAguaOff=ON; 
....................       if(tBombaAguaOff>=60){//Apaga 60 segundos 
....................          tBombaAgua=0; 
....................       } 
....................    }else{ 
....................       Agua_on; 
....................       #ifdef Enfriador 
....................       Enfr_on; 
....................       #else 
....................       Bomba_on; 
....................       #endif 
....................       flagBombaAgua=ON; 
....................       flagBombaAguaOff=OFF; 
....................       tBombaAguaOff=0; 
....................    } 
.................... } 
....................  
.................... void apagaBombaAgua(){ 
....................    Agua_off; 
....................    #ifdef Enfriador 
....................    Enfr_off; 
....................    #else 
....................    Bomba_off; 
....................    #endif 
....................    flagBombaAgua=OFF; 
....................    flagBombaAguaOff=OFF; 
....................    tBombaAguaOff=0; 
....................    tBombaAgua=0; 
.................... } 
....................  
.................... void purgaAire(){ 
....................    if(PresionCamara>(int16)Atmosferica+30 && !purgo){ 
*
078F4:  MOVLB  4
078F6:  CLRF   x4B
078F8:  MOVFF  3B9,44A
078FC:  MOVLW  1E
078FE:  ADDWF  x4A,W
07900:  MOVWF  01
07902:  MOVLW  00
07904:  ADDWFC x4B,W
07906:  MOVWF  03
07908:  MOVF   03,W
0790A:  MOVLB  3
0790C:  SUBWF  x75,W
0790E:  BNC   7928
07910:  BNZ   7918
07912:  MOVF   x74,W
07914:  SUBWF  01,W
07916:  BC    7928
07918:  MOVLB  0
0791A:  BTFSS  xA0.7
0791C:  BRA    7922
0791E:  MOVLB  3
07920:  BRA    7928
....................       purgaAire2=ON; 
07922:  BSF    xA1.0
....................    }else{ 
07924:  BRA    793A
07926:  MOVLB  3
....................       purgaAire2=OFF; 
07928:  MOVLB  0
0792A:  BCF    xA1.0
....................       if(!purgo){ 
0792C:  BTFSC  xA0.7
0792E:  BRA    7936
....................          #ifdef Enfriador 
....................          Enfr_on; 
....................          #endif 
....................          Desfogue_on; 
07930:  BSF    F8C.4
07932:  BCF    F95.4
....................       }else{ 
07934:  BRA    793A
....................          Desfogue_off; 
07936:  BCF    F8C.4
07938:  BCF    F95.4
....................          #ifdef Enfriador 
....................          Enfr_off; 
....................          #endif 
....................       } 
....................    } 
....................     
....................    if(purgaAire2){ 
0793A:  BTFSS  xA1.0
0793C:  BRA    7990
....................       #ifdef Enfriador 
....................       Enfr_on; 
....................       #endif 
....................       if(tPurgaAire>0 && tPurgaAire<12){ 
0793E:  MOVLB  3
07940:  MOVF   x80,F
07942:  BNZ   7948
07944:  MOVF   x81,F
07946:  BZ    7958
07948:  MOVF   x81,F
0794A:  BNZ   7958
0794C:  MOVF   x80,W
0794E:  SUBLW  0B
07950:  BNC   7958
....................          Desfogue_on; 
07952:  BSF    F8C.4
07954:  BCF    F95.4
....................       }else if(tPurgaAire>=12 && tPurgaAire<66){ 
07956:  BRA    7984
07958:  MOVF   x81,F
0795A:  BNZ   7962
0795C:  MOVF   x80,W
0795E:  SUBLW  0B
07960:  BC    7972
07962:  MOVF   x81,F
07964:  BNZ   7972
07966:  MOVF   x80,W
07968:  SUBLW  41
0796A:  BNC   7972
....................          Desfogue_off; 
0796C:  BCF    F8C.4
0796E:  BCF    F95.4
....................       }else if(tPurgaAire>0){ 
07970:  BRA    7984
07972:  MOVF   x80,F
07974:  BNZ   797A
07976:  MOVF   x81,F
07978:  BZ    7984
....................          pulsosPurga++; 
0797A:  INCF   x3B,F
....................          Desfogue_off; 
0797C:  BCF    F8C.4
0797E:  BCF    F95.4
....................          tPurgaAire=0; 
07980:  CLRF   x81
07982:  CLRF   x80
....................          //purgaAire2=OFF; 
....................          //purgo=ON; 
....................       } 
....................        
....................       if(pulsosPurga>=pulsosPurgaProgramados){ 
07984:  MOVF   x3C,W
07986:  SUBWF  x3B,W
07988:  BNC   7992
....................          purgaAire2=OFF; 
0798A:  MOVLB  0
0798C:  BCF    xA1.0
....................          purgo=ON; 
0798E:  BSF    xA0.7
07990:  MOVLB  3
....................       } 
....................    } 
....................  
.................... } 
07992:  MOVLB  0
07994:  GOTO   DCD8 (RETURN)
....................  
.................... void ConfiguraCiclo(int8 este0,este1,este2,este3,secado0,secado1,secado2,secado3,liquidos,ciclo,temperatura){ 
....................    Testerilizacionp[0]=este0;Testerilizacionp[1]=este1;Testerilizacionp[2]=este2;Testerilizacionp[3]=este3; 
*
0546C:  MOVFF  454,B6
05470:  MOVFF  455,B7
05474:  MOVFF  456,B8
05478:  MOVFF  457,B9
....................    Tsecadop[0]=secado0;Tsecadop[1]=secado1;Tsecadop[2]=secado2;Tsecadop[3]=secado3; 
0547C:  MOVFF  458,BF
05480:  MOVFF  459,C0
05484:  MOVFF  45A,C1
05488:  MOVFF  45B,C2
....................    Setpoint=temperatura;                
0548C:  MOVFF  45E,362
....................    tiempo_secado=0; 
05490:  MOVLB  3
05492:  CLRF   x66
....................    desfoguelento=liquidos; 
05494:  MOVLB  0
05496:  BCF    xA4.7
05498:  MOVLB  4
0549A:  BTFSS  x5C.0
0549C:  BRA    54A4
0549E:  MOVLB  0
054A0:  BSF    xA4.7
054A2:  MOVLB  4
....................    CicloSeleccionado=ciclo; 
054A4:  MOVFF  45D,361
....................    Testerilizacion[0]=Testerilizacionp[0];Testerilizacion[1]=Testerilizacionp[1];Testerilizacion[2]=Testerilizacionp[2]; 
054A8:  MOVFF  B6,B1
054AC:  MOVFF  B7,B2
054B0:  MOVFF  B8,B3
....................    Testerilizacion[3]=Testerilizacionp[3];Testerilizacion[4]=Testerilizacionp[4]; 
054B4:  MOVFF  B9,B4
054B8:  MOVFF  BA,B5
....................    Tsecado[0]=Tsecadop[0];Tsecado[1]=Tsecadop[1];Tsecado[2]=Tsecadop[2];Tsecado[3]=Tsecadop[3]; 
054BC:  MOVFF  BF,BB
054C0:  MOVFF  C0,BC
054C4:  MOVFF  C1,BD
054C8:  MOVFF  C2,BE
....................    if(!borra){ 
054CC:  MOVLB  0
054CE:  BTFSC  xA3.2
054D0:  BRA    54D6
....................       borraDatoCiclo(); 
054D2:  BRA    4F1C
....................       borra=ON; 
054D4:  BSF    xA3.2
....................    } 
....................    Imprime=15; 
054D6:  MOVLW  0F
054D8:  MOVLB  3
054DA:  MOVWF  xB8
....................    Envio_Esclavos(); 
054DC:  MOVLB  0
054DE:  CALL   495A
....................    delay_ms(100); 
054E2:  MOVLW  64
054E4:  MOVLB  4
054E6:  MOVWF  x63
054E8:  MOVLB  0
054EA:  CALL   1A6C
....................    Imprime=10; 
054EE:  MOVLW  0A
054F0:  MOVLB  3
054F2:  MOVWF  xB8
.................... } 
054F4:  MOVLB  0
054F6:  RETLW  00
....................  
....................  
....................  
.................... #int_rda HIGH 
.................... void serial_rx_isr(){ 
....................  
....................    Dato2=fgetc(); 
*
00348:  BTFSS  F9E.5
0034A:  BRA    0348
0034C:  MOVFF  FAE,35A
00350:  MOVLB  3
....................    if(Dato2==0x65){//Inicio Comunicacion 
00352:  MOVF   x5A,W
00354:  SUBLW  65
00356:  BNZ   035E
....................       Inicio=1; 
00358:  MOVLW  01
0035A:  MOVWF  x58
....................       RX_Wr_Index =0; 
0035C:  CLRF   46
....................    } 
....................    //Inicio=1; 
....................    if(Inicio==1){ 
0035E:  DECFSZ x58,W
00360:  BRA    0376
....................       Rx_Buffer2[RX_Wr_Index] = Dato2; 
00362:  CLRF   03
00364:  MOVF   46,W
00366:  ADDLW  3B
00368:  MOVWF  FE9
0036A:  MOVLW  00
0036C:  ADDWFC 03,W
0036E:  MOVWF  FEA
00370:  MOVFF  35A,FEF
....................       RX_Wr_Index++; 
00374:  INCF   46,F
....................    } 
....................    if(RX_Wr_Index >= RX_BUFFER_SIZE){ 
00376:  MOVF   46,W
00378:  SUBLW  09
0037A:  BC    0380
....................       RX_Wr_Index =0; 
0037C:  CLRF   46
....................       Inicio=0; 
0037E:  CLRF   x58
....................    } 
....................  
....................    if(RX_Wr_Index==0){ 
00380:  MOVF   46,F
00382:  BNZ   03A4
....................       if(Rx_Buffer2[0]==0x65 && Rx_Buffer2[1]==0xff && Rx_Buffer2[2]==0xff && Rx_Buffer2[8]==0x00 && Rx_Buffer2[9]==0xff ){ 
00384:  MOVF   3B,W
00386:  SUBLW  65
00388:  BNZ   03A0
0038A:  INCFSZ 3C,W
0038C:  BRA    03A0
0038E:  INCFSZ 3D,W
00390:  BRA    03A0
00392:  MOVF   43,F
00394:  BNZ   03A0
00396:  INCFSZ 44,W
00398:  BRA    03A0
....................          Dato_Exitoso=5; 
0039A:  MOVLW  05
0039C:  MOVWF  x59
....................       }else{ 
0039E:  BRA    03A4
....................          Dato_Exitoso=10; 
003A0:  MOVLW  0A
003A2:  MOVWF  x59
....................       } 
....................    } 
....................    //Dato_Exitoso=5; 
....................    if(Menu==20) 
003A4:  MOVF   x5C,W
003A6:  SUBLW  14
003A8:  BNZ   03AE
....................      Buzzer_on; 
003AA:  BSF    F8C.0
003AC:  BCF    F95.0
.................... } 
....................  
003AE:  BCF    F9E.5
003B0:  MOVLB  0
003B2:  GOTO   010A
.................... #int_TIMER0 
.................... void temp0s(void){ 
....................    set_timer0(0); 
003B6:  CLRF   FD7
003B8:  CLRF   FD6
....................    t_exhaust++; 
003BA:  MOVLB  3
003BC:  INCF   x93,F
003BE:  BTFSC  FD8.2
003C0:  INCF   x94,F
....................    if(DesfogueSuave){ 
003C2:  MOVLB  0
003C4:  BTFSS  xA0.6
003C6:  BRA    0408
....................       if(Nivel<6){ 
003C8:  MOVLB  3
003CA:  MOVF   x71,F
003CC:  BNZ   0402
003CE:  MOVF   x70,W
003D0:  SUBLW  05
003D2:  BNC   0402
....................          if(t_exhaust<=NivelSeleccionado) // Si el tiempo es menor o igual al tiempo de control se enciende la resistencia de lo contrario se apaga. 
003D4:  MOVF   x94,W
003D6:  SUBWF  x7B,W
003D8:  BNC   03E8
003DA:  BNZ   03E2
003DC:  MOVF   x93,W
003DE:  SUBWF  x7A,W
003E0:  BNC   03E8
....................             Desfogue_on; 
003E2:  BSF    F8C.4
003E4:  BCF    F95.4
....................          else             
003E6:  BRA    03EC
....................             Desfogue_off; 
003E8:  BCF    F8C.4
003EA:  BCF    F95.4
....................        
....................          if(t_exhaust>=60000) // Si el tiempo de control es mayor al tiempo de ciclo se reinicia tiempo de control          
003EC:  MOVF   x94,W
003EE:  SUBLW  E9
003F0:  BC    0400
003F2:  XORLW  FF
003F4:  BNZ   03FC
003F6:  MOVF   x93,W
003F8:  SUBLW  5F
003FA:  BC    0400
....................             t_exhaust=0; // tiempoctrl incrementa una unidad cada Xms, por eso se dividen los tiempos por 0.005. 
003FC:  CLRF   x94
003FE:  CLRF   x93
....................       }else{ 
00400:  BRA    0406
....................          Desfogue_on; 
00402:  BSF    F8C.4
00404:  BCF    F95.4
00406:  MOVLB  0
....................       } 
....................    }   
.................... } 
....................  
00408:  BCF    FF2.2
0040A:  GOTO   0074
.................... #int_TIMER1 
.................... void temp1s(void){ 
....................    set_timer1(40536); // Se repite cada 5ms 
0040E:  MOVLW  9E
00410:  MOVWF  FCF
00412:  MOVLW  58
00414:  MOVWF  FCE
....................    tiempos++; 
00416:  MOVLB  3
00418:  INCF   x68,F
0041A:  BTFSC  FD8.2
0041C:  INCF   x69,F
....................    tiempos2++; 
0041E:  INCF   x6A,F
00420:  BTFSC  FD8.2
00422:  INCF   x6B,F
....................    tiempos3++; 
00424:  INCF   x6C,F
00426:  BTFSC  FD8.2
00428:  INCF   x6D,F
....................    tiempoctrl++; 
0042A:  INCF   x6E,F
0042C:  BTFSC  FD8.2
0042E:  INCF   x6F,F
....................     
....................    if(!STOP){ 
00430:  BSF    F93.7
00432:  BTFSS  F81.7
00434:  BRA    043E
....................       tStop++; 
00436:  INCF   x9B,F
00438:  BTFSC  FD8.2
0043A:  INCF   x9C,F
....................    }else{ 
0043C:  BRA    0442
....................       tStop=0; 
0043E:  CLRF   x9C
00440:  CLRF   x9B
....................    } 
....................     
....................    if(!TERM){ 
00442:  BSF    F93.5
00444:  BTFSS  F81.5
00446:  BRA    0450
....................       tTermostato++; 
00448:  INCF   x9D,F
0044A:  BTFSC  FD8.2
0044C:  INCF   x9E,F
....................    }else{ 
0044E:  BRA    0454
....................       tTermostato=0; 
00450:  CLRF   x9E
00452:  CLRF   x9D
....................    } 
....................     
....................    if(RIGHT){ 
00454:  BSF    F93.2
00456:  BTFSC  F81.2
00458:  BRA    0462
....................       tright++; 
0045A:  INCF   xA7,F
0045C:  BTFSC  FD8.2
0045E:  INCF   xA8,F
....................    }else{ 
00460:  BRA    0466
....................       tright=0; 
00462:  CLRF   xA8
00464:  CLRF   xA7
....................    } 
....................     
....................    if(flagAlarma) 
00466:  MOVLB  0
00468:  BTFSS  xA3.1
0046A:  BRA    0476
....................       tbuzzer++; 
0046C:  MOVLB  3
0046E:  INCF   x95,F
00470:  BTFSC  FD8.2
00472:  INCF   x96,F
00474:  MOVLB  0
....................        
....................    if(flagSilencio)    
00476:  BTFSS  xA3.4
00478:  BRA    0482
....................       tsilencio++; 
0047A:  MOVLB  3
0047C:  INCF   x97,F
0047E:  BTFSC  FD8.2
00480:  INCF   x98,F
....................     
....................    if(Controlando==1){ 
00482:  MOVLB  3
00484:  DECFSZ x54,W
00486:  BRA    04C4
....................       if(tiempoctrl<Tp) // Si el tiempo es menor o igual al tiempo de control se enciende la resistencia de lo contrario se apaga. 
00488:  MOVF   x6F,W
0048A:  MOVLB  0
0048C:  SUBWF  xAC,W
0048E:  BNC   04A8
00490:  BNZ   04A2
00492:  MOVF   xAB,W
00494:  MOVLB  3
00496:  SUBWF  x6E,W
00498:  BTFSS  FD8.0
0049A:  BRA    04A0
0049C:  MOVLB  0
0049E:  BRA    04A8
004A0:  MOVLB  0
....................          SSR_on; 
004A2:  BCF    F8B.2
004A4:  BCF    F94.2
....................       else          
004A6:  BRA    04AC
....................          SSR_off; 
004A8:  BSF    F8B.2
004AA:  BCF    F94.2
....................              
....................       if(tiempoctrl>=Tc) // Si el tiempo de control es mayor al tiempo de ciclo se reinicia tiempo de control 
004AC:  MOVF   xAE,W
004AE:  MOVLB  3
004B0:  SUBWF  x6F,W
004B2:  BNC   04C4
004B4:  BNZ   04C0
004B6:  MOVLB  0
004B8:  MOVF   xAD,W
004BA:  MOVLB  3
004BC:  SUBWF  x6E,W
004BE:  BNC   04C4
....................          tiempoctrl=0;// tiempoctrl incrementa una unidad cada 5ms, por eso se dividen los tiempos por 0.005. 
004C0:  CLRF   x6F
004C2:  CLRF   x6E
....................    } 
....................     
....................    if(tiempos>=200)  // 12000 para que incremente cada minuto, 200para que incremente cada segundo. 
004C4:  MOVF   x69,F
004C6:  BNZ   04D0
004C8:  MOVF   x68,W
004CA:  SUBLW  C7
004CC:  BTFSC  FD8.0
004CE:  BRA    061E
....................    { 
....................       if(flagTC) 
004D0:  BTFSS  x51.3
004D2:  BRA    04D6
....................          TiempoControl++; 
004D4:  INCF   x90,F
....................        
....................       if(purgaAire2) 
004D6:  MOVLB  0
004D8:  BTFSS  xA1.0
004DA:  BRA    04E4
....................          tPurgaAire++; 
004DC:  MOVLB  3
004DE:  INCF   x80,F
004E0:  BTFSC  FD8.2
004E2:  INCF   x81,F
....................        
....................       tiemporecta++; 
004E4:  MOVLB  3
004E6:  INCF   x53,F
....................        
....................       if(flagBombaAgua) 
004E8:  MOVLB  0
004EA:  BTFSS  xA4.5
004EC:  BRA    04F8
....................          tBombaAgua++; 
004EE:  MOVLB  3
004F0:  INCF   x7C,F
004F2:  BTFSC  FD8.2
004F4:  INCF   x7D,F
004F6:  MOVLB  0
....................        
....................       if(flagBombaAguaOff) 
004F8:  BTFSS  xA4.6
004FA:  BRA    0506
....................          tBombaAguaOff++; 
004FC:  MOVLB  3
004FE:  INCF   x7E,F
00500:  BTFSC  FD8.2
00502:  INCF   x7F,F
00504:  MOVLB  0
....................        
....................       if(IniciaCiclo && tiempoImpresion<CalculoImpresion){ 
00506:  BTFSS  xA0.1
00508:  BRA    051C
0050A:  MOVLB  3
0050C:  MOVF   x57,W
0050E:  SUBWF  x67,W
00510:  BTFSS  FD8.0
00512:  BRA    0518
00514:  MOVLB  0
00516:  BRA    051C
....................          tiempoImpresion++; 
00518:  INCF   x67,F
....................       }else if(tiempoImpresion>=CalculoImpresion){ 
0051A:  BRA    0528
0051C:  MOVLB  3
0051E:  MOVF   x57,W
00520:  SUBWF  x67,W
00522:  BNC   0528
....................          flagImprime=1; 
00524:  BSF    x51.4
....................          tiempoImpresion=0; 
00526:  CLRF   x67
....................       } 
....................        
....................       if(IniciaCiclo && !Esterilizando){ 
00528:  MOVLB  0
0052A:  BTFSS  xA0.1
0052C:  BRA    0542
0052E:  BTFSC  xA0.2
00530:  BRA    0542
....................          TiempoCiclo++; 
00532:  INCF   xA5,F
00534:  BTFSC  FD8.2
00536:  INCF   xA6,F
....................          tiempoAgua++; 
00538:  MOVLB  3
0053A:  INCF   x99,F
0053C:  BTFSC  FD8.2
0053E:  INCF   x9A,F
00540:  MOVLB  0
....................       } 
....................        
....................       if(IniciaLlenado && !CalderinLleno){ 
00542:  BTFSS  x9F.7
00544:  BRA    0550
00546:  BTFSC  xA0.0
00548:  BRA    0550
....................          TiempoLlenado++; 
0054A:  INCF   xA7,F
0054C:  BTFSC  FD8.2
0054E:  INCF   xA8,F
....................       } 
....................        
....................       if(SensadoNivel){ 
00550:  BTFSS  xA0.4
00552:  BRA    055A
....................          TiempoSensadoNivel++; 
00554:  INCF   xA9,F
00556:  BTFSC  FD8.2
00558:  INCF   xAA,F
....................       } 
....................        
....................       if(guardaCiclo) 
0055A:  BTFSS  xA4.4
0055C:  BRA    0564
....................          tguarda++;  
0055E:  INCF   xAF,F
00560:  BTFSC  FD8.2
00562:  INCF   xB0,F
....................        
....................       tiempos=0;Lectura=1;tinicio++; 
00564:  MOVLB  3
00566:  CLRF   x69
00568:  CLRF   x68
0056A:  BSF    x51.0
0056C:  INCF   x72,F
0056E:  BTFSC  FD8.2
00570:  INCF   x73,F
....................     
....................       if(Esterilizando && !Desfogando){                
00572:  MOVLB  0
00574:  BTFSS  xA0.2
00576:  BRA    05CA
00578:  BTFSC  xA0.5
0057A:  BRA    05CA
....................          if(Testerilizacion[0]>0){ 
0057C:  BTFSC  xB1.7
0057E:  BRA    058A
00580:  MOVF   xB1,W
00582:  SUBLW  00
00584:  BC    058A
....................             Testerilizacion[0]--; 
00586:  DECF   xB1,F
....................          }else if(Testerilizacion[1]>0){ 
00588:  BRA    05CA
0058A:  BTFSC  xB2.7
0058C:  BRA    059C
0058E:  MOVF   xB2,W
00590:  SUBLW  00
00592:  BC    059C
....................             Testerilizacion[1]--; 
00594:  DECF   xB2,F
....................             Testerilizacion[0]=9; 
00596:  MOVLW  09
00598:  MOVWF  xB1
....................          }else if(Testerilizacion[2]>0){ 
0059A:  BRA    05CA
0059C:  BTFSC  xB3.7
0059E:  BRA    05B2
005A0:  MOVF   xB3,W
005A2:  SUBLW  00
005A4:  BC    05B2
....................             Testerilizacion[2]--; 
005A6:  DECF   xB3,F
....................             Testerilizacion[1]=5; 
005A8:  MOVLW  05
005AA:  MOVWF  xB2
....................             Testerilizacion[0]=9; 
005AC:  MOVLW  09
005AE:  MOVWF  xB1
....................          }else if(Testerilizacion[3]>0){ 
005B0:  BRA    05CA
005B2:  BTFSC  xB4.7
005B4:  BRA    05CA
005B6:  MOVF   xB4,W
005B8:  SUBLW  00
005BA:  BC    05CA
....................             Testerilizacion[3]--; 
005BC:  DECF   xB4,F
....................             Testerilizacion[2]=9; 
005BE:  MOVLW  09
005C0:  MOVWF  xB3
....................             Testerilizacion[1]=5; 
005C2:  MOVLW  05
005C4:  MOVWF  xB2
....................             Testerilizacion[0]=9; 
005C6:  MOVLW  09
005C8:  MOVWF  xB1
....................          } 
....................       } 
....................        
....................       if(Secando){ 
005CA:  BTFSS  xA0.3
005CC:  BRA    061C
....................          if(Tsecado[0]>0){ 
005CE:  BTFSC  xBB.7
005D0:  BRA    05DC
005D2:  MOVF   xBB,W
005D4:  SUBLW  00
005D6:  BC    05DC
....................             Tsecado[0]--; 
005D8:  DECF   xBB,F
....................          }else if(Tsecado[1]>0){ 
005DA:  BRA    061C
005DC:  BTFSC  xBC.7
005DE:  BRA    05EE
005E0:  MOVF   xBC,W
005E2:  SUBLW  00
005E4:  BC    05EE
....................             Tsecado[1]--; 
005E6:  DECF   xBC,F
....................             Tsecado[0]=9; 
005E8:  MOVLW  09
005EA:  MOVWF  xBB
....................          }else if(Tsecado[2]>0){ 
005EC:  BRA    061C
005EE:  BTFSC  xBD.7
005F0:  BRA    0604
005F2:  MOVF   xBD,W
005F4:  SUBLW  00
005F6:  BC    0604
....................             Tsecado[2]--; 
005F8:  DECF   xBD,F
....................             Tsecado[1]=5; 
005FA:  MOVLW  05
005FC:  MOVWF  xBC
....................             Tsecado[0]=9; 
005FE:  MOVLW  09
00600:  MOVWF  xBB
....................          }else if(Tsecado[3]>0){ 
00602:  BRA    061C
00604:  BTFSC  xBE.7
00606:  BRA    061C
00608:  MOVF   xBE,W
0060A:  SUBLW  00
0060C:  BC    061C
....................             Tsecado[3]--; 
0060E:  DECF   xBE,F
....................             Tsecado[2]=9; 
00610:  MOVLW  09
00612:  MOVWF  xBD
....................             Tsecado[1]=5; 
00614:  MOVLW  05
00616:  MOVWF  xBC
....................             Tsecado[0]=9; 
00618:  MOVLW  09
0061A:  MOVWF  xBB
0061C:  MOVLB  3
....................          } 
....................       } 
....................    } 
.................... } 
....................  
0061E:  BCF    F9E.0
00620:  MOVLB  0
00622:  GOTO   0074
.................... void main() 
.................... { 
*
08288:  CLRF   FF8
0828A:  BCF    FF1.2
0828C:  BCF    F9F.0
0828E:  BSF    F9F.5
08290:  BSF    FD0.7
08292:  BSF    07.7
08294:  CLRF   FEA
08296:  CLRF   FE9
08298:  BSF    FB8.3
0829A:  MOVLW  08
0829C:  MOVWF  FAF
0829E:  MOVLW  02
082A0:  MOVWF  FB0
082A2:  MOVLW  A6
082A4:  MOVWF  FAC
082A6:  MOVLW  90
082A8:  MOVWF  FAB
082AA:  CLRF   46
082AC:  CLRF   47
082AE:  CLRF   48
082B0:  CLRF   x62
082B2:  CLRF   x63
082B4:  CLRF   x84
082B6:  CLRF   x85
082B8:  CLRF   x86
082BA:  BCF    x9F.0
082BC:  BCF    x9F.1
082BE:  BCF    x9F.2
082C0:  BCF    x9F.3
082C2:  BCF    x9F.4
082C4:  BCF    x9F.5
082C6:  BCF    x9F.6
082C8:  BCF    x9F.7
082CA:  BCF    xA0.0
082CC:  BCF    xA0.1
082CE:  BCF    xA0.2
082D0:  BCF    xA0.3
082D2:  BCF    xA0.4
082D4:  BCF    xA0.5
082D6:  BCF    xA0.6
082D8:  BCF    xA0.7
082DA:  BCF    xA1.0
082DC:  BCF    xA1.1
082DE:  BCF    xA1.2
082E0:  BCF    xA1.3
082E2:  BCF    xA1.4
082E4:  BCF    xA1.5
082E6:  BCF    xA1.6
082E8:  BCF    xA1.7
082EA:  BCF    xA2.0
082EC:  BCF    xA2.1
082EE:  BCF    xA2.2
082F0:  BCF    xA2.3
082F2:  BCF    xA2.4
082F4:  BCF    xA2.5
082F6:  BCF    xA2.6
082F8:  BCF    xA2.7
082FA:  BCF    xA3.0
082FC:  BCF    xA3.1
082FE:  BCF    xA3.2
08300:  BCF    xA3.3
08302:  BCF    xA3.4
08304:  BCF    xA3.5
08306:  BCF    xA3.6
08308:  BCF    xA3.7
0830A:  BCF    xA4.0
0830C:  BCF    xA4.1
0830E:  BCF    xA4.2
08310:  BCF    xA4.3
08312:  BCF    xA4.4
08314:  BCF    xA4.5
08316:  BCF    xA4.6
08318:  CLRF   xA6
0831A:  CLRF   xA5
0831C:  CLRF   xA8
0831E:  CLRF   xA7
08320:  CLRF   xAA
08322:  CLRF   xA9
08324:  CLRF   xAC
08326:  CLRF   xAB
08328:  CLRF   xAE
0832A:  CLRF   xAD
0832C:  CLRF   xB0
0832E:  CLRF   xAF
08330:  MOVLW  9A
08332:  MOVLB  2
08334:  MOVWF  xA6
08336:  MOVLW  99
08338:  MOVWF  xA5
0833A:  MOVLW  0D
0833C:  MOVWF  xA4
0833E:  MOVLW  86
08340:  MOVWF  xA3
08342:  CLRF   xAA
08344:  CLRF   xA9
08346:  CLRF   xA8
08348:  MOVLW  7E
0834A:  MOVWF  xA7
0834C:  CLRF   xAE
0834E:  CLRF   xAD
08350:  CLRF   xAC
08352:  CLRF   xAB
08354:  CLRF   xB2
08356:  CLRF   xB1
08358:  MOVLW  48
0835A:  MOVWF  xB0
0835C:  MOVLW  85
0835E:  MOVWF  xAF
08360:  CLRF   xB6
08362:  MOVLW  80
08364:  MOVWF  xB5
08366:  MOVLW  54
08368:  MOVWF  xB4
0836A:  MOVLW  8B
0836C:  MOVWF  xB3
0836E:  CLRF   xCA
08370:  CLRF   xC9
08372:  CLRF   xC8
08374:  CLRF   xC7
08376:  CLRF   xCE
08378:  CLRF   xCD
0837A:  CLRF   xCC
0837C:  CLRF   xCB
0837E:  CLRF   xD2
08380:  CLRF   xD1
08382:  CLRF   xD0
08384:  CLRF   xCF
08386:  CLRF   xD6
08388:  CLRF   xD5
0838A:  CLRF   xD4
0838C:  CLRF   xD3
0838E:  CLRF   xD7
08390:  CLRF   xD8
08392:  CLRF   xD9
08394:  CLRF   xDA
08396:  MOVLW  14
08398:  MOVWF  xDB
0839A:  CLRF   xDC
0839C:  CLRF   xDD
0839E:  CLRF   xDE
083A0:  CLRF   xDF
083A2:  CLRF   xE0
083A4:  CLRF   xE1
083A6:  CLRF   xE2
083A8:  CLRF   xE3
083AA:  CLRF   xE7
083AC:  CLRF   xE6
083AE:  CLRF   xE5
083B0:  CLRF   xE4
083B2:  CLRF   xEF
083B4:  CLRF   xEE
083B6:  MOVLW  20
083B8:  MOVWF  xED
083BA:  MOVLW  82
083BC:  MOVWF  xEC
083BE:  CLRF   xF3
083C0:  CLRF   xF2
083C2:  CLRF   xF1
083C4:  CLRF   xF0
083C6:  CLRF   xF7
083C8:  CLRF   xF6
083CA:  CLRF   xF5
083CC:  CLRF   xF4
083CE:  CLRF   xFB
083D0:  CLRF   xFA
083D2:  CLRF   xF9
083D4:  CLRF   xF8
083D6:  CLRF   xFF
083D8:  CLRF   xFE
083DA:  CLRF   xFD
083DC:  CLRF   xFC
083DE:  MOVLB  3
083E0:  CLRF   x03
083E2:  CLRF   x02
083E4:  CLRF   x01
083E6:  CLRF   x00
083E8:  CLRF   x07
083EA:  CLRF   x06
083EC:  MOVLW  48
083EE:  MOVWF  x05
083F0:  MOVLW  83
083F2:  MOVWF  x04
083F4:  CLRF   x0B
083F6:  CLRF   x0A
083F8:  MOVLW  20
083FA:  MOVWF  x09
083FC:  MOVLW  83
083FE:  MOVWF  x08
08400:  MOVLW  9A
08402:  MOVWF  x0F
08404:  MOVLW  99
08406:  MOVWF  x0E
08408:  MOVLW  19
0840A:  MOVWF  x0D
0840C:  MOVLW  7F
0840E:  MOVWF  x0C
08410:  CLRF   x13
08412:  CLRF   x12
08414:  CLRF   x11
08416:  CLRF   x10
08418:  CLRF   x17
0841A:  CLRF   x16
0841C:  CLRF   x15
0841E:  CLRF   x14
08420:  CLRF   x1B
08422:  CLRF   x1A
08424:  CLRF   x19
08426:  CLRF   x18
08428:  CLRF   x1F
0842A:  CLRF   x1E
0842C:  CLRF   x1D
0842E:  CLRF   x1C
08430:  CLRF   x23
08432:  CLRF   x22
08434:  CLRF   x21
08436:  CLRF   x20
08438:  CLRF   x27
0843A:  CLRF   x26
0843C:  CLRF   x25
0843E:  CLRF   x24
08440:  MOVLW  4A
08442:  MOVWF  x2B
08444:  MOVLW  88
08446:  MOVWF  x2A
08448:  MOVLW  28
0844A:  MOVWF  x29
0844C:  MOVLW  75
0844E:  MOVWF  x28
08450:  MOVLW  E0
08452:  MOVWF  x2F
08454:  MOVLW  2D
08456:  MOVWF  x2E
08458:  MOVLW  10
0845A:  MOVWF  x2D
0845C:  MOVLW  75
0845E:  MOVWF  x2C
08460:  MOVLW  FF
08462:  MOVWF  x33
08464:  MOVLW  21
08466:  MOVWF  x32
08468:  MOVLW  15
0846A:  MOVWF  x31
0846C:  MOVLW  80
0846E:  MOVWF  x30
08470:  MOVLW  82
08472:  MOVWF  x37
08474:  MOVLW  12
08476:  MOVWF  x36
08478:  MOVLW  F4
0847A:  MOVWF  x35
0847C:  MOVLW  86
0847E:  MOVWF  x34
08480:  CLRF   x38
08482:  CLRF   x39
08484:  CLRF   x3A
08486:  CLRF   x3B
08488:  CLRF   x3C
0848A:  MOVLW  B5
0848C:  MOVWF  x40
0848E:  MOVLW  EB
08490:  MOVWF  x3F
08492:  MOVLW  1B
08494:  MOVWF  x3E
08496:  MOVLW  6B
08498:  MOVWF  x3D
0849A:  MOVLW  D0
0849C:  MOVWF  x44
0849E:  MOVLW  9B
084A0:  MOVWF  x43
084A2:  MOVLW  8A
084A4:  MOVWF  x42
084A6:  MOVLW  75
084A8:  MOVWF  x41
084AA:  MOVLW  1A
084AC:  MOVWF  x48
084AE:  MOVLW  DD
084B0:  MOVWF  x47
084B2:  MOVLW  61
084B4:  MOVWF  x46
084B6:  MOVLW  7D
084B8:  MOVWF  x45
084BA:  MOVLW  04
084BC:  MOVWF  x4C
084BE:  MOVLW  16
084C0:  MOVWF  x4B
084C2:  MOVLW  02
084C4:  MOVWF  x4A
084C6:  MOVLW  85
084C8:  MOVWF  x49
084CA:  CLRF   x50
084CC:  CLRF   x4F
084CE:  CLRF   x4E
084D0:  CLRF   x4D
084D2:  MOVLB  0
084D4:  BCF    xA4.7
084D6:  MOVLB  3
084D8:  BCF    x51.0
084DA:  BCF    x51.1
084DC:  BCF    x51.2
084DE:  BCF    x51.3
084E0:  BCF    x51.4
084E2:  BCF    x51.5
084E4:  CLRF   x52
084E6:  CLRF   x53
084E8:  CLRF   x54
084EA:  MOVLW  01
084EC:  MOVWF  x55
084EE:  MOVLW  02
084F0:  MOVWF  x56
084F2:  CLRF   x57
084F4:  MOVLW  01
084F6:  MOVWF  x58
084F8:  CLRF   x59
084FA:  CLRF   x5A
084FC:  CLRF   x5B
084FE:  CLRF   x5C
08500:  CLRF   x5D
08502:  MOVLW  F0
08504:  MOVWF  x5E
08506:  CLRF   x5F
08508:  CLRF   x60
0850A:  CLRF   x61
0850C:  CLRF   x62
0850E:  MOVLW  01
08510:  MOVWF  x63
08512:  MOVWF  x64
08514:  CLRF   x65
08516:  CLRF   x66
08518:  CLRF   x67
0851A:  CLRF   x69
0851C:  CLRF   x68
0851E:  CLRF   x6B
08520:  CLRF   x6A
08522:  CLRF   x6D
08524:  CLRF   x6C
08526:  CLRF   x6F
08528:  CLRF   x6E
0852A:  CLRF   x71
0852C:  CLRF   x70
0852E:  CLRF   x73
08530:  CLRF   x72
08532:  CLRF   x75
08534:  CLRF   x74
08536:  CLRF   x77
08538:  CLRF   x76
0853A:  CLRF   x79
0853C:  CLRF   x78
0853E:  CLRF   x7B
08540:  CLRF   x7A
08542:  CLRF   x7D
08544:  CLRF   x7C
08546:  CLRF   x7F
08548:  CLRF   x7E
0854A:  CLRF   x81
0854C:  CLRF   x80
0854E:  CLRF   x83
08550:  CLRF   x82
08552:  CLRF   x8C
08554:  CLRF   x8D
08556:  CLRF   x8E
08558:  CLRF   x8F
0855A:  CLRF   x90
0855C:  CLRF   x91
0855E:  CLRF   x92
08560:  CLRF   x94
08562:  CLRF   x93
08564:  CLRF   x96
08566:  CLRF   x95
08568:  CLRF   x98
0856A:  CLRF   x97
0856C:  CLRF   x9A
0856E:  CLRF   x99
08570:  CLRF   x9C
08572:  CLRF   x9B
08574:  CLRF   x9E
08576:  CLRF   x9D
08578:  CLRF   xA0
0857A:  CLRF   x9F
0857C:  CLRF   xA2
0857E:  CLRF   xA1
08580:  CLRF   xA4
08582:  CLRF   xA3
08584:  CLRF   xA6
08586:  CLRF   xA5
08588:  CLRF   xA8
0858A:  CLRF   xA7
0858C:  MOVLW  12
0858E:  MOVWF  xA9
08590:  MOVLW  09
08592:  MOVWF  xAA
08594:  MOVLW  0D
08596:  MOVWF  xAB
08598:  CLRF   xAC
0859A:  CLRF   xAD
0859C:  CLRF   xAE
0859E:  CLRF   xAF
085A0:  CLRF   xB0
085A2:  CLRF   xB1
085A4:  CLRF   xB2
085A6:  CLRF   xB3
085A8:  CLRF   xB4
085AA:  CLRF   xB5
085AC:  CLRF   xB6
085AE:  CLRF   xB7
085B0:  CLRF   xB8
085B2:  MOVLW  48
085B4:  MOVWF  xB9
085B6:  CLRF   xBA
085B8:  CLRF   xBB
085BA:  CLRF   xBC
085BC:  CLRF   xBD
085BE:  CLRF   xD0
085C0:  CLRF   xD1
085C2:  CLRF   xD2
085C4:  CLRF   xD3
085C6:  CLRF   xD4
085C8:  MOVF   FC1,W
085CA:  ANDLW  C0
085CC:  IORLW  0F
085CE:  MOVWF  FC1
085D0:  MOVLW  07
085D2:  MOVWF  FB4
085D4:  CLRF   2A
085D6:  CLRF   2B
085D8:  MOVLB  0
085DA:  CLRF   x87
085DC:  MOVLW  03
085DE:  MOVWF  x88
085E0:  MOVWF  x89
085E2:  MOVLW  06
085E4:  MOVWF  x8A
085E6:  MOVLW  01
085E8:  MOVWF  x8B
085EA:  MOVLW  04
085EC:  MOVWF  x8C
085EE:  MOVLW  06
085F0:  MOVWF  x8D
085F2:  MOVLW  02
085F4:  MOVWF  x8E
085F6:  MOVLW  05
085F8:  MOVWF  x8F
085FA:  CLRF   x90
085FC:  MOVLW  03
085FE:  MOVWF  x91
08600:  MOVLW  05
08602:  MOVWF  x92
08604:  CLRF   x93
08606:  MOVLW  03
08608:  MOVWF  x94
0860A:  MOVLW  04
0860C:  MOVWF  x95
0860E:  CLRF   x96
08610:  MOVLW  02
08612:  MOVWF  x97
08614:  MOVLW  05
08616:  MOVWF  x98
08618:  CLRF   x99
0861A:  MOVLW  03
0861C:  MOVWF  x9A
0861E:  MOVLW  06
08620:  MOVWF  x9B
08622:  MOVLW  01
08624:  MOVWF  x9C
08626:  MOVLW  04
08628:  MOVWF  x9D
0862A:  MOVLW  06
0862C:  MOVWF  x9E
0862E:  CLRF   xB1
08630:  CLRF   xB2
08632:  CLRF   xB3
08634:  CLRF   xB4
08636:  CLRF   xB5
08638:  CLRF   xB6
0863A:  CLRF   xB7
0863C:  CLRF   xB8
0863E:  CLRF   xB9
08640:  CLRF   xBA
08642:  CLRF   xBB
08644:  CLRF   xBC
08646:  CLRF   xBD
08648:  CLRF   xBE
0864A:  CLRF   xBF
0864C:  CLRF   xC0
0864E:  CLRF   xC1
08650:  CLRF   xC2
08652:  CLRF   xC3
08654:  CLRF   xC4
08656:  CLRF   xC5
08658:  CLRF   xC6
0865A:  CLRF   xC7
0865C:  CLRF   xC8
0865E:  CLRF   xC9
08660:  CLRF   xCA
08662:  CLRF   xCB
08664:  CLRF   xCC
08666:  CLRF   xCD
08668:  CLRF   xCE
0866A:  CLRF   xCF
0866C:  CLRF   xD0
0866E:  CLRF   xD1
08670:  CLRF   xD2
08672:  CLRF   xD3
08674:  CLRF   xD4
08676:  CLRF   xD5
08678:  CLRF   xD6
0867A:  CLRF   xD7
0867C:  CLRF   xD8
0867E:  CLRF   xD9
08680:  CLRF   xDA
08682:  CLRF   xDB
08684:  CLRF   xDC
08686:  CLRF   xDD
08688:  CLRF   xDE
0868A:  CLRF   xDF
0868C:  CLRF   xE0
0868E:  CLRF   xE1
08690:  CLRF   xE2
08692:  CLRF   xE3
08694:  CLRF   xE4
08696:  CLRF   xE5
08698:  CLRF   xE6
0869A:  CLRF   xE7
0869C:  CLRF   xE8
0869E:  CLRF   xE9
086A0:  CLRF   xEA
086A2:  CLRF   xEB
086A4:  CLRF   xEC
086A6:  CLRF   xED
086A8:  CLRF   xEE
086AA:  CLRF   xEF
086AC:  CLRF   xF0
086AE:  CLRF   xF1
086B0:  CLRF   xF2
086B2:  CLRF   xF3
086B4:  CLRF   xF4
086B6:  CLRF   xF5
086B8:  CLRF   xF6
086BA:  CLRF   xF7
086BC:  CLRF   xF8
086BE:  CLRF   xF9
086C0:  CLRF   xFA
086C2:  CLRF   xFB
086C4:  CLRF   xFC
086C6:  CLRF   xFD
086C8:  CLRF   xFE
086CA:  CLRF   xFF
086CC:  MOVLB  1
086CE:  CLRF   x00
086D0:  CLRF   x01
086D2:  CLRF   x02
086D4:  CLRF   x03
086D6:  CLRF   x04
086D8:  CLRF   x05
086DA:  CLRF   x06
086DC:  CLRF   x07
086DE:  CLRF   x08
086E0:  CLRF   x09
086E2:  CLRF   x0A
086E4:  CLRF   x0B
086E6:  CLRF   x0C
086E8:  CLRF   x0D
086EA:  CLRF   x0E
086EC:  CLRF   x0F
086EE:  CLRF   x10
086F0:  CLRF   x11
086F2:  CLRF   x12
086F4:  CLRF   x13
086F6:  CLRF   x14
086F8:  CLRF   x15
086FA:  CLRF   x16
086FC:  CLRF   x17
086FE:  CLRF   x18
08700:  CLRF   x19
08702:  CLRF   x1A
08704:  CLRF   x1B
08706:  CLRF   x1C
08708:  CLRF   x1D
0870A:  CLRF   x1E
0870C:  CLRF   x1F
0870E:  CLRF   x20
08710:  CLRF   x21
08712:  CLRF   x22
08714:  CLRF   x23
08716:  CLRF   x24
08718:  CLRF   x25
0871A:  CLRF   x26
0871C:  CLRF   x27
0871E:  CLRF   x28
08720:  CLRF   x29
08722:  CLRF   x2A
08724:  CLRF   x2B
08726:  CLRF   x2C
08728:  CLRF   x2D
0872A:  CLRF   x2E
0872C:  CLRF   x2F
0872E:  CLRF   x30
08730:  CLRF   x31
08732:  CLRF   x32
08734:  CLRF   x33
08736:  CLRF   x34
08738:  CLRF   x35
0873A:  CLRF   x36
0873C:  CLRF   x37
0873E:  CLRF   x38
08740:  CLRF   x39
08742:  CLRF   x3A
08744:  CLRF   x3B
08746:  CLRF   x3C
08748:  CLRF   x3D
0874A:  CLRF   x3E
0874C:  CLRF   x3F
0874E:  CLRF   x40
08750:  CLRF   x41
08752:  CLRF   x42
08754:  CLRF   x43
08756:  CLRF   x44
08758:  CLRF   x45
0875A:  CLRF   x46
0875C:  CLRF   x47
0875E:  CLRF   x48
08760:  CLRF   x49
08762:  CLRF   x4A
08764:  CLRF   x4B
08766:  CLRF   x4C
08768:  CLRF   x4D
0876A:  CLRF   x4E
0876C:  CLRF   x4F
0876E:  CLRF   x50
08770:  CLRF   x51
08772:  CLRF   x52
08774:  CLRF   x53
08776:  CLRF   x54
08778:  CLRF   x55
0877A:  CLRF   x56
0877C:  CLRF   x57
0877E:  CLRF   x58
08780:  CLRF   x59
08782:  CLRF   x5A
08784:  CLRF   x5B
08786:  CLRF   x5C
08788:  CLRF   x5D
0878A:  CLRF   x5E
0878C:  CLRF   x5F
0878E:  CLRF   x60
08790:  CLRF   x61
08792:  CLRF   x62
08794:  CLRF   x63
08796:  CLRF   x64
08798:  CLRF   x65
0879A:  CLRF   x66
0879C:  CLRF   x67
0879E:  CLRF   x68
087A0:  CLRF   x69
087A2:  CLRF   x6A
087A4:  CLRF   x6B
087A6:  CLRF   x6C
087A8:  CLRF   x6D
087AA:  CLRF   x6E
087AC:  CLRF   x6F
087AE:  CLRF   x70
087B0:  CLRF   x71
087B2:  CLRF   x72
087B4:  CLRF   x73
087B6:  CLRF   x74
087B8:  CLRF   x75
087BA:  CLRF   x76
087BC:  CLRF   x77
087BE:  CLRF   x78
087C0:  CLRF   x79
087C2:  CLRF   x7A
087C4:  CLRF   x7B
087C6:  CLRF   x7C
087C8:  CLRF   x7D
087CA:  CLRF   x7E
087CC:  CLRF   x7F
087CE:  CLRF   x80
087D0:  CLRF   x81
087D2:  CLRF   x82
087D4:  CLRF   x83
087D6:  CLRF   x84
087D8:  CLRF   x85
087DA:  CLRF   x86
087DC:  CLRF   x87
087DE:  CLRF   x88
087E0:  CLRF   x89
087E2:  CLRF   x8A
087E4:  CLRF   x8B
087E6:  CLRF   x8C
087E8:  CLRF   x8D
087EA:  CLRF   x8E
087EC:  CLRF   x8F
087EE:  CLRF   x90
087F0:  CLRF   x91
087F2:  CLRF   x92
087F4:  CLRF   x93
087F6:  CLRF   x94
087F8:  CLRF   x95
087FA:  CLRF   x96
087FC:  CLRF   x97
087FE:  CLRF   x98
08800:  CLRF   x99
08802:  CLRF   x9A
08804:  CLRF   x9B
08806:  CLRF   x9C
08808:  CLRF   x9D
0880A:  CLRF   x9E
0880C:  CLRF   x9F
0880E:  CLRF   xA0
08810:  CLRF   xA1
08812:  CLRF   xA2
08814:  CLRF   xA3
08816:  CLRF   xA4
08818:  CLRF   xA5
0881A:  CLRF   xA6
0881C:  CLRF   xA7
0881E:  CLRF   xA8
08820:  CLRF   xA9
08822:  CLRF   xAA
08824:  CLRF   xAB
08826:  CLRF   xAC
08828:  CLRF   xAD
0882A:  CLRF   xAE
0882C:  CLRF   xAF
0882E:  CLRF   xB0
08830:  CLRF   xB1
08832:  CLRF   xB2
08834:  CLRF   xB3
08836:  CLRF   xB4
08838:  CLRF   xB5
0883A:  CLRF   xB6
0883C:  CLRF   xB7
0883E:  CLRF   xB8
08840:  CLRF   xB9
08842:  CLRF   xBA
08844:  CLRF   xBB
08846:  CLRF   xBC
08848:  CLRF   xBD
0884A:  CLRF   xBE
0884C:  CLRF   xBF
0884E:  CLRF   xC0
08850:  CLRF   xC1
08852:  CLRF   xC2
08854:  CLRF   xC3
08856:  CLRF   xC4
08858:  CLRF   xC5
0885A:  CLRF   xC6
0885C:  CLRF   xC7
0885E:  CLRF   xC8
08860:  CLRF   xC9
08862:  CLRF   xCA
08864:  CLRF   xCB
08866:  CLRF   xCC
08868:  CLRF   xCD
0886A:  CLRF   xCE
0886C:  CLRF   xCF
0886E:  CLRF   xD0
08870:  CLRF   xD1
08872:  CLRF   xD2
08874:  CLRF   xD3
08876:  CLRF   xD4
08878:  CLRF   xD5
0887A:  CLRF   xD6
0887C:  CLRF   xD7
0887E:  CLRF   xD8
08880:  CLRF   xD9
08882:  CLRF   xDA
08884:  CLRF   xDB
08886:  CLRF   xDC
08888:  CLRF   xDD
0888A:  CLRF   xDE
0888C:  CLRF   xDF
0888E:  CLRF   xE0
08890:  CLRF   xE1
08892:  CLRF   xE2
08894:  CLRF   xE3
08896:  CLRF   xE4
08898:  CLRF   xE5
0889A:  CLRF   xE6
0889C:  CLRF   xE7
0889E:  CLRF   xE8
088A0:  CLRF   xE9
088A2:  CLRF   xEA
088A4:  CLRF   xEB
088A6:  CLRF   xEC
088A8:  CLRF   xED
088AA:  CLRF   xEE
088AC:  CLRF   xEF
088AE:  CLRF   xF0
088B0:  CLRF   xF1
088B2:  CLRF   xF2
088B4:  CLRF   xF3
088B6:  CLRF   xF4
088B8:  CLRF   xF5
088BA:  CLRF   xF6
088BC:  CLRF   xF7
088BE:  CLRF   xF8
088C0:  CLRF   xF9
088C2:  CLRF   xFA
088C4:  CLRF   xFB
088C6:  CLRF   xFC
088C8:  CLRF   xFD
088CA:  CLRF   xFE
088CC:  CLRF   xFF
088CE:  MOVLB  2
088D0:  CLRF   x00
088D2:  CLRF   x01
088D4:  CLRF   x02
088D6:  CLRF   x03
088D8:  CLRF   x04
088DA:  CLRF   x05
088DC:  CLRF   x06
088DE:  CLRF   x07
088E0:  CLRF   x08
088E2:  CLRF   x09
088E4:  CLRF   x0A
088E6:  CLRF   x0B
088E8:  CLRF   x0C
088EA:  CLRF   x0D
088EC:  CLRF   x0E
088EE:  CLRF   x0F
088F0:  CLRF   x10
088F2:  CLRF   x11
088F4:  CLRF   x12
088F6:  CLRF   x13
088F8:  CLRF   x14
088FA:  CLRF   x15
088FC:  CLRF   x16
088FE:  CLRF   x17
08900:  CLRF   x18
08902:  CLRF   x19
08904:  CLRF   x1A
08906:  CLRF   x1B
08908:  CLRF   x1C
0890A:  CLRF   x1D
0890C:  CLRF   x1E
0890E:  CLRF   x1F
08910:  CLRF   x20
08912:  CLRF   x21
08914:  CLRF   x22
08916:  CLRF   x23
08918:  CLRF   x24
0891A:  CLRF   x25
0891C:  CLRF   x26
0891E:  CLRF   x27
08920:  CLRF   x28
08922:  CLRF   x29
08924:  CLRF   x2A
08926:  CLRF   x2B
08928:  CLRF   x2C
0892A:  CLRF   x2D
0892C:  CLRF   x2E
0892E:  CLRF   x2F
08930:  CLRF   x30
08932:  CLRF   x31
08934:  CLRF   x32
08936:  CLRF   x33
08938:  CLRF   x34
0893A:  CLRF   x35
0893C:  CLRF   x36
0893E:  CLRF   x37
08940:  CLRF   x38
08942:  CLRF   x39
08944:  CLRF   x3A
08946:  CLRF   x3B
08948:  CLRF   x3C
0894A:  CLRF   x3D
0894C:  CLRF   x3E
0894E:  CLRF   x3F
08950:  CLRF   x40
08952:  CLRF   x41
08954:  CLRF   x42
08956:  CLRF   x43
08958:  CLRF   x44
0895A:  CLRF   x45
0895C:  CLRF   x46
0895E:  CLRF   x47
08960:  CLRF   x48
08962:  CLRF   x49
08964:  CLRF   x4A
08966:  CLRF   x4B
08968:  CLRF   x4C
0896A:  CLRF   x4D
0896C:  CLRF   x4E
0896E:  CLRF   x4F
08970:  CLRF   x50
08972:  CLRF   x51
08974:  CLRF   x52
08976:  CLRF   x53
08978:  CLRF   x54
0897A:  CLRF   x55
0897C:  CLRF   x56
0897E:  CLRF   x57
08980:  CLRF   x58
08982:  CLRF   x59
08984:  CLRF   x5A
08986:  CLRF   x5B
08988:  CLRF   x5C
0898A:  CLRF   x5D
0898C:  CLRF   x5E
0898E:  CLRF   x5F
08990:  CLRF   x60
08992:  CLRF   x61
08994:  CLRF   x62
08996:  CLRF   x63
08998:  CLRF   x64
0899A:  CLRF   x65
0899C:  CLRF   x66
0899E:  CLRF   x67
089A0:  CLRF   x68
089A2:  CLRF   x69
089A4:  CLRF   x6A
089A6:  CLRF   x6B
089A8:  CLRF   x6C
089AA:  CLRF   x6D
089AC:  CLRF   x6E
089AE:  CLRF   x6F
089B0:  CLRF   x70
089B2:  CLRF   x71
089B4:  CLRF   x72
089B6:  CLRF   x73
089B8:  CLRF   x74
089BA:  CLRF   x75
089BC:  CLRF   x76
089BE:  CLRF   x77
089C0:  CLRF   x78
089C2:  CLRF   x79
089C4:  CLRF   x7A
089C6:  CLRF   x7B
089C8:  CLRF   x7C
089CA:  CLRF   x7D
089CC:  CLRF   x7E
089CE:  CLRF   x7F
089D0:  CLRF   x80
089D2:  CLRF   x81
089D4:  CLRF   x82
089D6:  CLRF   x83
089D8:  CLRF   x84
089DA:  CLRF   x85
089DC:  CLRF   x86
089DE:  CLRF   x87
089E0:  CLRF   x88
089E2:  CLRF   x89
089E4:  CLRF   x8A
089E6:  CLRF   x8B
089E8:  CLRF   x8C
089EA:  CLRF   x8D
089EC:  CLRF   x8E
089EE:  CLRF   x8F
089F0:  CLRF   x90
089F2:  CLRF   x91
089F4:  CLRF   x92
089F6:  CLRF   x93
089F8:  CLRF   x94
089FA:  CLRF   x95
089FC:  CLRF   x96
089FE:  CLRF   x97
08A00:  CLRF   x98
08A02:  CLRF   x99
08A04:  CLRF   x9A
08A06:  CLRF   x9B
08A08:  CLRF   x9C
08A0A:  CLRF   x9D
08A0C:  CLRF   x9E
08A0E:  CLRF   x9F
08A10:  CLRF   xA0
08A12:  CLRF   xA1
08A14:  CLRF   xA2
08A16:  CLRF   xB7
08A18:  CLRF   xB8
08A1A:  CLRF   xB9
08A1C:  CLRF   xBA
08A1E:  CLRF   xBB
08A20:  CLRF   xBC
08A22:  CLRF   xBD
08A24:  CLRF   xBE
08A26:  CLRF   xBF
08A28:  CLRF   xC0
08A2A:  CLRF   xC1
08A2C:  CLRF   xC2
08A2E:  CLRF   xC3
08A30:  CLRF   xC4
08A32:  CLRF   xC5
08A34:  CLRF   xC6
08A36:  MOVLB  3
08A38:  CLRF   x84
08A3A:  CLRF   x85
08A3C:  CLRF   x86
08A3E:  CLRF   x87
08A40:  CLRF   x88
08A42:  CLRF   x89
08A44:  CLRF   x8A
08A46:  CLRF   x8B
08A48:  MOVLW  19
08A4A:  MOVWF  xBE
08A4C:  MOVLW  10
08A4E:  MOVWF  xBF
08A50:  MOVLW  16
08A52:  MOVWF  xC0
08A54:  MOVLW  18
08A56:  MOVWF  xC1
08A58:  MOVLW  17
08A5A:  MOVWF  xC2
08A5C:  MOVLW  1C
08A5E:  MOVWF  xC3
08A60:  MOVLW  14
08A62:  MOVWF  xC4
08A64:  MOVLW  2E
08A66:  MOVWF  xC5
08A68:  MOVLW  45
08A6A:  MOVWF  xC6
08A6C:  MOVLW  22
08A6E:  MOVWF  xC7
08A70:  MOVLW  24
08A72:  MOVWF  xC8
08A74:  MOVLW  12
08A76:  MOVWF  xC9
08A78:  MOVLW  21
08A7A:  MOVWF  xCA
08A7C:  MOVLW  20
08A7E:  MOVWF  xCB
08A80:  MOVLW  26
08A82:  MOVWF  xCC
08A84:  MOVLW  13
08A86:  MOVWF  xCD
08A88:  MOVLW  11
08A8A:  MOVWF  xCE
08A8C:  MOVLW  44
08A8E:  MOVWF  xCF
....................     
....................    for (posicion=0;posicion<0x10;posicion++){ 
08A90:  MOVLB  0
08A92:  CLRF   x86
08A94:  MOVF   x86,W
08A96:  SUBLW  0F
08A98:  BNC   8AAE
....................       SlaveA0Tx[posicion] = 0x00; 
08A9A:  CLRF   03
08A9C:  MOVF   x86,W
08A9E:  ADDLW  64
08AA0:  MOVWF  FE9
08AA2:  MOVLW  00
08AA4:  ADDWFC 03,W
08AA6:  MOVWF  FEA
08AA8:  CLRF   FEF
....................    } 
08AAA:  INCF   x86,F
08AAC:  BRA    8A94
....................    setup_timer_0(RTCC_8_BIT|RTCC_DIV_1); 
08AAE:  MOVLW  C8
08AB0:  MOVWF  FD5
....................    enable_interrupts(INT_TIMER0); 
08AB2:  BSF    FF2.5
....................    setup_timer_1(T1_INTERNAL|T1_DIV_BY_1); 
08AB4:  MOVLW  85
08AB6:  MOVWF  FCD
....................    enable_interrupts(INT_TIMER1); 
08AB8:  BSF    F9D.0
....................    setup_adc_ports(AN0_TO_AN3); 
08ABA:  MOVF   FC1,W
08ABC:  ANDLW  C0
08ABE:  IORLW  0B
08AC0:  MOVWF  FC1
....................    setup_adc(ADC_CLOCK_DIV_32 ); 
08AC2:  MOVF   FC0,W
08AC4:  ANDLW  C0
08AC6:  IORLW  02
08AC8:  MOVWF  FC0
08ACA:  BSF    FC0.7
08ACC:  BSF    FC2.0
....................    port_b_pullups(true); 
08ACE:  BCF    FF1.7
....................    enable_interrupts(int_rda); 
08AD0:  BSF    F9D.5
....................    setup_wdt(WDT_ON); 
08AD2:  BSF    FD1.0
....................    enable_interrupts(global); 
08AD4:  MOVLW  C0
08AD6:  IORWF  FF2,F
....................    LeeEEPROM(); 
08AD8:  GOTO   1EC2
....................    rtc_init(); 
08ADC:  GOTO   2FE0
....................    delay_ms(1); 
08AE0:  MOVLW  01
08AE2:  MOVLB  4
08AE4:  MOVWF  x63
08AE6:  MOVLB  0
08AE8:  CALL   1A6C
....................    LimitaValores(); 
08AEC:  GOTO   30FA
....................    CalculoImpresion=timpresion*60; 
08AF0:  MOVLB  3
08AF2:  MOVF   x56,W
08AF4:  MULLW  3C
08AF6:  MOVFF  FF3,357
....................    printf("page Bienvenida"); 
08AFA:  MOVLW  26
08AFC:  MOVWF  FF6
08AFE:  MOVLW  06
08B00:  MOVWF  FF7
08B02:  MOVLW  00
08B04:  MOVWF  FF8
08B06:  MOVLB  0
08B08:  CALL   3BB2
....................    SendDataDisplay(); 
08B0C:  CALL   3BE4
....................    printf("bkcmd=0"); 
08B10:  MOVLW  36
08B12:  MOVWF  FF6
08B14:  MOVLW  06
08B16:  MOVWF  FF7
08B18:  MOVLW  00
08B1A:  MOVWF  FF8
08B1C:  CALL   3BB2
....................    SendDataDisplay(); 
08B20:  CALL   3BE4
....................    delay_ms(1500); 
08B24:  MOVLW  06
08B26:  MOVLB  4
08B28:  MOVWF  x4A
08B2A:  MOVLW  FA
08B2C:  MOVWF  x63
08B2E:  MOVLB  0
08B30:  CALL   1A6C
08B34:  MOVLB  4
08B36:  DECFSZ x4A,F
08B38:  BRA    8B2A
....................    printf("page Clave"); 
08B3A:  MOVLW  3E
08B3C:  MOVWF  FF6
08B3E:  MOVLW  06
08B40:  MOVWF  FF7
08B42:  MOVLW  00
08B44:  MOVWF  FF8
08B46:  MOVLB  0
08B48:  CALL   3BB2
....................    SendDataDisplay(); 
08B4C:  CALL   3BE4
....................    ApagaSalidas(); 
08B50:  CALL   3C1A
....................     
....................    for(i=0;i<MediaMovil;i++){ 
08B54:  MOVLB  3
08B56:  CLRF   xA4
08B58:  CLRF   xA3
08B5A:  MOVF   xA4,F
08B5C:  BNZ   8BDC
08B5E:  MOVLB  2
08B60:  MOVF   xDB,W
08B62:  MOVLB  3
08B64:  SUBWF  xA3,W
08B66:  BC    8BDC
....................       Temperatura=LeerPT100(MediaMovil); 
08B68:  MOVFF  2DB,44A
08B6C:  MOVLB  0
08B6E:  CALL   3D86
08B72:  MOVFF  03,327
08B76:  MOVFF  02,326
08B7A:  MOVFF  01,325
08B7E:  MOVFF  00,324
....................       PresionCamara=Leer_Sensor_Presion_Camara(5); 
08B82:  MOVLW  05
08B84:  MOVLB  4
08B86:  MOVWF  x4A
08B88:  MOVLB  0
08B8A:  CALL   41D0
08B8E:  MOVFF  03,462
08B92:  MOVFF  02,461
08B96:  MOVFF  01,460
08B9A:  MOVFF  00,45F
08B9E:  CALL   43CC
08BA2:  MOVFF  02,375
08BA6:  MOVFF  01,374
....................       PresionPreCamara=Leer_Sensor_Presion_PreCamara(5); 
08BAA:  MOVLW  05
08BAC:  MOVLB  4
08BAE:  MOVWF  x4A
08BB0:  MOVLB  0
08BB2:  CALL   4408
08BB6:  MOVFF  03,462
08BBA:  MOVFF  02,461
08BBE:  MOVFF  01,460
08BC2:  MOVFF  00,45F
08BC6:  CALL   43CC
08BCA:  MOVFF  02,377
08BCE:  MOVFF  01,376
....................    } 
08BD2:  MOVLB  3
08BD4:  INCF   xA3,F
08BD6:  BTFSC  FD8.2
08BD8:  INCF   xA4,F
08BDA:  BRA    8B5A
....................     
....................    if(UP && DOWN && RIGHT && LEFT)//Si oprime boton de Toma. 
08BDC:  BSF    F93.0
08BDE:  BTFSC  F81.0
08BE0:  BRA    8C68
08BE2:  BSF    F93.1
08BE4:  BTFSC  F81.1
08BE6:  BRA    8C68
08BE8:  BSF    F93.2
08BEA:  BTFSC  F81.2
08BEC:  BRA    8C68
08BEE:  BSF    F93.3
08BF0:  BTFSC  F81.3
08BF2:  BRA    8C68
....................    { 
....................       write_eeprom(37,0); 
08BF4:  CLRF   FAA
08BF6:  MOVLW  25
08BF8:  MOVWF  FA9
08BFA:  CLRF   FA8
08BFC:  BCF    FA6.6
08BFE:  BCF    FA6.7
08C00:  BSF    FA6.2
08C02:  MOVF   FF2,W
08C04:  MOVWF  00
08C06:  BCF    FF2.6
08C08:  BCF    FF2.7
08C0A:  MOVLB  F
08C0C:  MOVLW  55
08C0E:  MOVWF  FA7
08C10:  MOVLW  AA
08C12:  MOVWF  FA7
08C14:  BSF    FA6.1
08C16:  BTFSC  FA6.1
08C18:  BRA    8C16
08C1A:  BCF    FA6.2
08C1C:  MOVF   00,W
08C1E:  IORWF  FF2,F
....................       delay_ms(20); 
08C20:  MOVLW  14
08C22:  MOVLB  4
08C24:  MOVWF  x63
08C26:  MOVLB  0
08C28:  CALL   1A6C
....................       write_eeprom(38,0); 
08C2C:  CLRF   FAA
08C2E:  MOVLW  26
08C30:  MOVWF  FA9
08C32:  CLRF   FA8
08C34:  BCF    FA6.6
08C36:  BCF    FA6.7
08C38:  BSF    FA6.2
08C3A:  MOVF   FF2,W
08C3C:  MOVWF  00
08C3E:  BCF    FF2.6
08C40:  BCF    FF2.7
08C42:  MOVLB  F
08C44:  MOVLW  55
08C46:  MOVWF  FA7
08C48:  MOVLW  AA
08C4A:  MOVWF  FA7
08C4C:  BSF    FA6.1
08C4E:  BTFSC  FA6.1
08C50:  BRA    8C4E
08C52:  BCF    FA6.2
08C54:  MOVF   00,W
08C56:  IORWF  FF2,F
....................       delay_ms(20); 
08C58:  MOVLW  14
08C5A:  MOVLB  4
08C5C:  MOVWF  x63
08C5E:  MOVLB  0
08C60:  CALL   1A6C
....................       reset_cpu(); 
08C64:  RESET
08C66:  MOVLB  3
....................    } 
....................     
....................    #if defined(PT100Fija) && !defined(Absoluta) 
....................       Atmosferica=0; 
....................    #else 
....................       if(!DOOR){ 
08C68:  BSF    F93.6
08C6A:  BTFSS  F81.6
08C6C:  BRA    8D92
....................          if(abs((float)PresionCamara-(float)Atmosferica)>=3 && PresionCamara<102){//Funcion de Auto Ajuste de Presion Atmosferica 
08C6E:  MOVFF  375,460
08C72:  MOVFF  374,45F
08C76:  MOVLB  0
08C78:  CALL   1A94
08C7C:  MOVFF  00,44A
08C80:  MOVFF  01,44B
08C84:  MOVFF  02,44C
08C88:  MOVFF  03,44D
08C8C:  MOVLB  4
08C8E:  CLRF   x60
08C90:  MOVFF  3B9,45F
08C94:  MOVLB  0
08C96:  CALL   1A94
08C9A:  BSF    FD8.1
08C9C:  MOVFF  44D,462
08CA0:  MOVFF  44C,461
08CA4:  MOVFF  44B,460
08CA8:  MOVFF  44A,45F
08CAC:  MOVFF  03,466
08CB0:  MOVFF  02,465
08CB4:  MOVFF  01,464
08CB8:  MOVFF  00,463
08CBC:  CALL   1C28
08CC0:  MOVFF  00,44A
08CC4:  MOVFF  01,44B
08CC8:  MOVFF  02,44C
08CCC:  MOVFF  03,44D
08CD0:  MOVFF  00,00
08CD4:  MOVFF  01,01
08CD8:  MOVFF  02,02
08CDC:  MOVFF  03,03
08CE0:  BCF    01.7
08CE2:  MOVFF  00,44A
08CE6:  MOVFF  01,44B
08CEA:  MOVFF  02,44C
08CEE:  MOVFF  03,44D
08CF2:  MOVLB  4
08CF4:  CLRF   x55
08CF6:  CLRF   x54
08CF8:  MOVLW  40
08CFA:  MOVWF  x53
08CFC:  MOVLW  80
08CFE:  MOVWF  x52
08D00:  MOVFF  03,459
08D04:  MOVFF  02,458
08D08:  MOVFF  01,457
08D0C:  MOVFF  00,456
08D10:  MOVLB  0
08D12:  CALL   3032
08D16:  BC    8D1A
08D18:  BNZ   8D90
08D1A:  MOVLB  3
08D1C:  MOVF   x75,F
08D1E:  BTFSC  FD8.2
08D20:  BRA    8D26
08D22:  MOVLB  0
08D24:  BRA    8D90
08D26:  MOVF   x74,W
08D28:  SUBLW  65
08D2A:  BTFSC  FD8.0
08D2C:  BRA    8D32
08D2E:  MOVLB  0
08D30:  BRA    8D90
....................             Atmosferica=PresionCamara; 
08D32:  MOVFF  374,3B9
....................             write_eeprom(46,Atmosferica); 
08D36:  CLRF   FAA
08D38:  MOVLW  2E
08D3A:  MOVWF  FA9
08D3C:  MOVFF  3B9,FA8
08D40:  BCF    FA6.6
08D42:  BCF    FA6.7
08D44:  BSF    FA6.2
08D46:  MOVF   FF2,W
08D48:  MOVWF  00
08D4A:  BCF    FF2.6
08D4C:  BCF    FF2.7
08D4E:  MOVLB  F
08D50:  MOVLW  55
08D52:  MOVWF  FA7
08D54:  MOVLW  AA
08D56:  MOVWF  FA7
08D58:  BSF    FA6.1
08D5A:  BTFSC  FA6.1
08D5C:  BRA    8D5A
08D5E:  BCF    FA6.2
08D60:  MOVF   00,W
08D62:  IORWF  FF2,F
....................             delay_ms(10); 
08D64:  MOVLW  0A
08D66:  MOVLB  4
08D68:  MOVWF  x63
08D6A:  MOVLB  0
08D6C:  CALL   1A6C
....................             Buzzer_on; 
08D70:  BSF    F8C.0
08D72:  BCF    F95.0
....................             delay_ms(1000); 
08D74:  MOVLW  04
08D76:  MOVLB  4
08D78:  MOVWF  x4A
08D7A:  MOVLW  FA
08D7C:  MOVWF  x63
08D7E:  MOVLB  0
08D80:  CALL   1A6C
08D84:  MOVLB  4
08D86:  DECFSZ x4A,F
08D88:  BRA    8D7A
....................             Buzzer_off; 
08D8A:  BCF    F8C.0
08D8C:  BCF    F95.0
08D8E:  MOVLB  0
08D90:  MOVLB  3
....................          } 
....................       } 
....................    #endif 
....................     
....................    while(true) 
....................    { 
....................       LeeDisplay(); 
08D92:  MOVLB  0
08D94:  GOTO   4604
....................       Envio_Esclavos(); 
08D98:  CALL   495A
....................       delay_ms(1); 
08D9C:  MOVLW  01
08D9E:  MOVLB  4
08DA0:  MOVWF  x63
08DA2:  MOVLB  0
08DA4:  CALL   1A6C
....................       //Lectura_Esclavos(); 
....................       restart_wdt(); 
08DA8:  CLRWDT
....................        
....................       if(!Esterilizando || Desfogando){ 
08DAA:  BTFSS  xA0.2
08DAC:  BRA    8DB2
08DAE:  BTFSS  xA0.5
08DB0:  BRA    8DBC
....................          CalculoImpresion=180; 
08DB2:  MOVLW  B4
08DB4:  MOVLB  3
08DB6:  MOVWF  x57
....................       }else{ 
08DB8:  BRA    8DC2
08DBA:  MOVLB  0
....................          CalculoImpresion=60; 
08DBC:  MOVLW  3C
08DBE:  MOVLB  3
08DC0:  MOVWF  x57
....................       } 
....................        
....................       // Monitoreo Nivel de Agua//-------------------------------------- 
....................             if(!LOW){//Si no sensa agua en el nivel alto y no se ha llenado el calderin          
08DC2:  BSF    F94.1
08DC4:  BTFSC  F82.1
08DC6:  BRA    8DF0
....................                TiempoSensadoNivel=0; 
08DC8:  MOVLB  0
08DCA:  CLRF   xAA
08DCC:  CLRF   xA9
....................                Controlando=0;    
08DCE:  MOVLB  3
08DD0:  CLRF   x54
....................                if(tiempoAgua<600){ 
08DD2:  MOVF   x9A,W
08DD4:  SUBLW  02
08DD6:  BNC   8DE4
08DD8:  BNZ   8DE0
08DDA:  MOVF   x99,W
08DDC:  SUBLW  57
08DDE:  BNC   8DE4
....................                   CalderinLleno=OFF; 
08DE0:  MOVLB  0
08DE2:  BCF    xA0.0
....................                } 
....................                SensadoNivel=OFF; 
08DE4:  MOVLB  0
08DE6:  BCF    xA0.4
....................                TiempoSensadoNivel=0; 
08DE8:  CLRF   xAA
08DEA:  CLRF   xA9
....................                #ifdef ULKA 
....................                   if(!PruebaEstados){ 
....................                      if(PresionCamara<=((int16)Atmosferica+10) && Menu!=20 && HIG && Menu!=255){ 
....................                         enciendeBombaAgua(); 
....................                      } 
....................                      if(!HIG){ 
....................                         apagaBombaAgua(); 
....................                      } 
....................                   } 
....................                #endif 
....................             } else{ 
08DEC:  BRA    8E04
08DEE:  MOVLB  3
....................                SensadoNivel=ON; 
08DF0:  MOVLB  0
08DF2:  BSF    xA0.4
....................                if(TiempoSensadoNivel>5){ 
08DF4:  MOVF   xAA,F
08DF6:  BNZ   8DFE
08DF8:  MOVF   xA9,W
08DFA:  SUBLW  05
08DFC:  BC    8E04
....................                   SensadoNivel=OFF; 
08DFE:  BCF    xA0.4
....................                   CalderinLleno=ON; 
08E00:  BSF    xA0.0
....................                   IniciaLlenado=OFF;                   
08E02:  BCF    x9F.7
....................                   #ifdef ULKA 
....................                      if(!PruebaEstados){ 
....................                         if(Menu!=20){ 
....................                            apagaBombaAgua(); 
....................                         } 
....................                      } 
....................                   #endif 
....................                } 
....................             } 
.................... // Tiempo de Grafica//-------------------------------------- 
....................       if(tiempos2>=6000){ 
08E04:  MOVLB  3
08E06:  MOVF   x6B,W
08E08:  SUBLW  16
08E0A:  BC    8E1C
08E0C:  XORLW  FF
08E0E:  BNZ   8E16
08E10:  MOVF   x6A,W
08E12:  SUBLW  6F
08E14:  BC    8E1C
....................          Grafica=1; 
08E16:  BSF    x51.1
....................          tiempos2=0; 
08E18:  CLRF   x6B
08E1A:  CLRF   x6A
....................       } 
....................  
.................... // Tiempo de Muestreo//-------------------------------------- 
....................       if(tiempos3>=20){ 
08E1C:  MOVF   x6D,F
08E1E:  BNZ   8E28
08E20:  MOVF   x6C,W
08E22:  SUBLW  13
08E24:  BTFSC  FD8.0
08E26:  BRA    8F5C
....................          Temperatura=LeerPt100(MediaMovil); 
08E28:  MOVFF  2DB,44A
08E2C:  MOVLB  0
08E2E:  CALL   3D86
08E32:  MOVFF  03,327
08E36:  MOVFF  02,326
08E3A:  MOVFF  01,325
08E3E:  MOVFF  00,324
....................          PresionCamara=Leer_Sensor_Presion_Camara(10); 
08E42:  MOVLW  0A
08E44:  MOVLB  4
08E46:  MOVWF  x4A
08E48:  MOVLB  0
08E4A:  CALL   41D0
08E4E:  MOVFF  03,462
08E52:  MOVFF  02,461
08E56:  MOVFF  01,460
08E5A:  MOVFF  00,45F
08E5E:  CALL   43CC
08E62:  MOVFF  02,375
08E66:  MOVFF  01,374
....................          PresionPreCamara=Leer_Sensor_Presion_PreCamara(10); 
08E6A:  MOVLW  0A
08E6C:  MOVLB  4
08E6E:  MOVWF  x4A
08E70:  MOVLB  0
08E72:  CALL   4408
08E76:  MOVFF  03,462
08E7A:  MOVFF  02,461
08E7E:  MOVFF  01,460
08E82:  MOVFF  00,45F
08E86:  CALL   43CC
08E8A:  MOVFF  02,377
08E8E:  MOVFF  01,376
....................          rtc_get_date(Dia,Mes,Year,dow); 
....................          rtc_get_time(Hora,Minuto,Segundo); 
....................          tiempos3=0; 
*
08F56:  MOVLB  3
08F58:  CLRF   x6D
08F5A:  CLRF   x6C
....................       } 
....................        
.................... // Monitoreo Parada Emergencia//--------------------------------------       
....................       if(!STOP && !IniciaCiclo && !PruebaEstados){ 
08F5C:  BSF    F93.7
08F5E:  BTFSS  F81.7
08F60:  BRA    8FC2
08F62:  MOVLB  0
08F64:  BTFSS  xA0.1
08F66:  BRA    8F6C
08F68:  MOVLB  3
08F6A:  BRA    8FC2
08F6C:  BTFSS  xA1.4
08F6E:  BRA    8F74
08F70:  MOVLB  3
08F72:  BRA    8FC2
....................          if(!disp_Stop){ 
08F74:  MOVLB  3
08F76:  BTFSC  x51.2
08F78:  BRA    8F98
....................             disp_Stop=1;Menu=255; 
08F7A:  BSF    x51.2
08F7C:  MOVLW  FF
08F7E:  MOVWF  x5C
....................             printf("page Emergencia"); 
08F80:  MOVLW  4A
08F82:  MOVWF  FF6
08F84:  MOVLW  06
08F86:  MOVWF  FF7
08F88:  MOVLW  00
08F8A:  MOVWF  FF8
08F8C:  MOVLB  0
08F8E:  CALL   3BB2
....................             SendDataDisplay(); 
08F92:  CALL   3BE4
08F96:  MOVLB  3
....................          } 
....................          Controlando=0; 
08F98:  CLRF   x54
....................          Desfogue_on; 
08F9A:  BSF    F8C.4
08F9C:  BCF    F95.4
....................          SSR_off; 
08F9E:  BSF    F8B.2
08FA0:  BCF    F94.2
....................          #ifdef Enfriador 
....................          Enfr_on; 
....................          #else 
....................          Bomba_off; 
08FA2:  BCF    F8C.6
08FA4:  BCF    F95.6
....................          #endif 
....................          Agua_off; 
08FA6:  BCF    F8C.5
08FA8:  BCF    F95.5
....................          DesfogueSuave=OFF; 
08FAA:  MOVLB  0
08FAC:  BCF    xA0.6
....................          ActivaAlarma(1); 
08FAE:  MOVLW  01
08FB0:  MOVLB  4
08FB2:  MOVWF  x4A
08FB4:  MOVLB  0
08FB6:  CALL   4A24
....................          BorraBuffer(); 
08FBA:  GOTO   4AFA
....................       }else{ 
08FBE:  BRA    8FC8
08FC0:  MOVLB  3
....................          if(disp_Stop){ 
08FC2:  BTFSS  x51.2
08FC4:  BRA    8FC8
....................             reset_cpu(); 
08FC6:  RESET
....................          } 
....................       }            
....................    //Buzzer_off;    
.................... //_-------------------------------------------------------------------------------------------------------------------------------------------------------- 
....................    if(Menu==240){ //Menu de Bienvenida. 
08FC8:  MOVLB  3
08FCA:  MOVF   x5C,W
08FCC:  SUBLW  F0
08FCE:  BNZ   9018
....................       printf("bkcmd=0"); 
08FD0:  MOVLW  5A
08FD2:  MOVWF  FF6
08FD4:  MOVLW  06
08FD6:  MOVWF  FF7
08FD8:  MOVLW  00
08FDA:  MOVWF  FF8
08FDC:  MOVLB  0
08FDE:  CALL   3BB2
....................       SendDataDisplay(); 
08FE2:  CALL   3BE4
....................       delay_ms(1500); 
08FE6:  MOVLW  06
08FE8:  MOVLB  4
08FEA:  MOVWF  x4A
08FEC:  MOVLW  FA
08FEE:  MOVWF  x63
08FF0:  MOVLB  0
08FF2:  CALL   1A6C
08FF6:  MOVLB  4
08FF8:  DECFSZ x4A,F
08FFA:  BRA    8FEC
....................       printf("page Clave"); 
08FFC:  MOVLW  62
08FFE:  MOVWF  FF6
09000:  MOVLW  06
09002:  MOVWF  FF7
09004:  MOVLW  00
09006:  MOVWF  FF8
09008:  MOVLB  0
0900A:  CALL   3BB2
....................       SendDataDisplay(); 
0900E:  CALL   3BE4
....................       ApagaSalidas(); 
09012:  CALL   3C1A
09016:  MOVLB  3
....................    } 
.................... //_-------------------------------------------------------------------------------------------------------------------------------------------------------- 
....................  
.................... //_-------------------------------------------------------------------------------------------------------------------------------------------------------- 
....................     if(Menu==0){ //Menu de Contrasea de acceso. 
09018:  MOVF   x5C,F
0901A:  BTFSS  FD8.2
0901C:  GOTO   9A92
....................       //ApagaSalidas(); 
....................       entro=OFF; 
09020:  MOVLB  0
09022:  BCF    xA4.1
....................       if(Digito==1){ 
09024:  MOVLB  2
09026:  DECFSZ xE0,W
09028:  BRA    9074
....................          printf("t0.txt=\"%u\"",Contrasena[0]); 
0902A:  MOVLW  6E
0902C:  MOVWF  FF6
0902E:  MOVLW  06
09030:  MOVWF  FF7
09032:  MOVLW  00
09034:  MOVWF  FF8
09036:  MOVLW  08
09038:  MOVLB  4
0903A:  MOVWF  x50
0903C:  MOVLB  0
0903E:  CALL   4B26
09042:  MOVFF  384,450
09046:  MOVLW  1B
09048:  MOVLB  4
0904A:  MOVWF  x51
0904C:  MOVLB  0
0904E:  CALL   4B84
09052:  MOVLW  22
09054:  BTFSS  F9E.4
09056:  BRA    9054
09058:  MOVWF  FAD
....................          SendDataDisplay(); 
0905A:  CALL   3BE4
....................          printf("va0.val=1"); 
0905E:  MOVLW  7A
09060:  MOVWF  FF6
09062:  MOVLW  06
09064:  MOVWF  FF7
09066:  MOVLW  00
09068:  MOVWF  FF8
0906A:  CALL   3BB2
....................          SendDataDisplay(); 
0906E:  CALL   3BE4
09072:  MOVLB  2
....................       } 
....................        
....................       if(Digito==2){ 
09074:  MOVF   xE0,W
09076:  SUBLW  02
09078:  BNZ   90D4
....................          printf("t0.txt=\"%u%u\"",Contrasena[0],Contrasena[1]); 
0907A:  MOVLW  84
0907C:  MOVWF  FF6
0907E:  MOVLW  06
09080:  MOVWF  FF7
09082:  MOVLW  00
09084:  MOVWF  FF8
09086:  MOVLW  08
09088:  MOVLB  4
0908A:  MOVWF  x50
0908C:  MOVLB  0
0908E:  CALL   4B26
09092:  MOVFF  384,450
09096:  MOVLW  1B
09098:  MOVLB  4
0909A:  MOVWF  x51
0909C:  MOVLB  0
0909E:  CALL   4B84
090A2:  MOVFF  385,450
090A6:  MOVLW  1B
090A8:  MOVLB  4
090AA:  MOVWF  x51
090AC:  MOVLB  0
090AE:  CALL   4B84
090B2:  MOVLW  22
090B4:  BTFSS  F9E.4
090B6:  BRA    90B4
090B8:  MOVWF  FAD
....................          SendDataDisplay(); 
090BA:  CALL   3BE4
....................          printf("va0.val=2"); 
090BE:  MOVLW  92
090C0:  MOVWF  FF6
090C2:  MOVLW  06
090C4:  MOVWF  FF7
090C6:  MOVLW  00
090C8:  MOVWF  FF8
090CA:  CALL   3BB2
....................          SendDataDisplay(); 
090CE:  CALL   3BE4
090D2:  MOVLB  2
....................       } 
....................        
....................       if(Digito==3){ 
090D4:  MOVF   xE0,W
090D6:  SUBLW  03
090D8:  BNZ   9144
....................          printf("t0.txt=\"%u%u%u\"",Contrasena[0],Contrasena[1],Contrasena[2]); 
090DA:  MOVLW  9C
090DC:  MOVWF  FF6
090DE:  MOVLW  06
090E0:  MOVWF  FF7
090E2:  MOVLW  00
090E4:  MOVWF  FF8
090E6:  MOVLW  08
090E8:  MOVLB  4
090EA:  MOVWF  x50
090EC:  MOVLB  0
090EE:  CALL   4B26
090F2:  MOVFF  384,450
090F6:  MOVLW  1B
090F8:  MOVLB  4
090FA:  MOVWF  x51
090FC:  MOVLB  0
090FE:  CALL   4B84
09102:  MOVFF  385,450
09106:  MOVLW  1B
09108:  MOVLB  4
0910A:  MOVWF  x51
0910C:  MOVLB  0
0910E:  CALL   4B84
09112:  MOVFF  386,450
09116:  MOVLW  1B
09118:  MOVLB  4
0911A:  MOVWF  x51
0911C:  MOVLB  0
0911E:  CALL   4B84
09122:  MOVLW  22
09124:  BTFSS  F9E.4
09126:  BRA    9124
09128:  MOVWF  FAD
....................          SendDataDisplay(); 
0912A:  CALL   3BE4
....................          printf("va0.val=3"); 
0912E:  MOVLW  AC
09130:  MOVWF  FF6
09132:  MOVLW  06
09134:  MOVWF  FF7
09136:  MOVLW  00
09138:  MOVWF  FF8
0913A:  CALL   3BB2
....................          SendDataDisplay(); 
0913E:  CALL   3BE4
09142:  MOVLB  2
....................       } 
....................        
....................       if(Digito==4){ 
09144:  MOVF   xE0,W
09146:  SUBLW  04
09148:  BNZ   91C4
....................          printf("t0.txt=\"%u%u%u%u\"",Contrasena[0],Contrasena[1],Contrasena[2],Contrasena[3]); 
0914A:  MOVLW  B6
0914C:  MOVWF  FF6
0914E:  MOVLW  06
09150:  MOVWF  FF7
09152:  MOVLW  00
09154:  MOVWF  FF8
09156:  MOVLW  08
09158:  MOVLB  4
0915A:  MOVWF  x50
0915C:  MOVLB  0
0915E:  CALL   4B26
09162:  MOVFF  384,450
09166:  MOVLW  1B
09168:  MOVLB  4
0916A:  MOVWF  x51
0916C:  MOVLB  0
0916E:  CALL   4B84
09172:  MOVFF  385,450
09176:  MOVLW  1B
09178:  MOVLB  4
0917A:  MOVWF  x51
0917C:  MOVLB  0
0917E:  CALL   4B84
09182:  MOVFF  386,450
09186:  MOVLW  1B
09188:  MOVLB  4
0918A:  MOVWF  x51
0918C:  MOVLB  0
0918E:  CALL   4B84
09192:  MOVFF  387,450
09196:  MOVLW  1B
09198:  MOVLB  4
0919A:  MOVWF  x51
0919C:  MOVLB  0
0919E:  CALL   4B84
091A2:  MOVLW  22
091A4:  BTFSS  F9E.4
091A6:  BRA    91A4
091A8:  MOVWF  FAD
....................          SendDataDisplay(); 
091AA:  CALL   3BE4
....................          printf("va0.val=4"); 
091AE:  MOVLW  C8
091B0:  MOVWF  FF6
091B2:  MOVLW  06
091B4:  MOVWF  FF7
091B6:  MOVLW  00
091B8:  MOVWF  FF8
091BA:  CALL   3BB2
....................          SendDataDisplay(); 
091BE:  CALL   3BE4
091C2:  MOVLB  2
....................       } 
....................        
....................       if(UP){ 
091C4:  BSF    F93.0
091C6:  BTFSC  F81.0
091C8:  BRA    9212
....................          delay_ms(100); 
091CA:  MOVLW  64
091CC:  MOVLB  4
091CE:  MOVWF  x63
091D0:  MOVLB  0
091D2:  CALL   1A6C
....................          if(UP){ 
091D6:  BSF    F93.0
091D8:  BTFSC  F81.0
091DA:  BRA    9214
....................          if(Digito==0) 
091DC:  MOVLB  2
091DE:  MOVF   xE0,F
091E0:  BNZ   91E6
....................             Digito=1; 
091E2:  MOVLW  01
091E4:  MOVWF  xE0
....................             if(Contrasena[Digito-1]<9) 
091E6:  MOVLW  01
091E8:  SUBWF  xE0,W
091EA:  CLRF   03
091EC:  ADDLW  84
091EE:  MOVWF  FE9
091F0:  MOVLW  03
091F2:  ADDWFC 03,W
091F4:  MOVWF  FEA
091F6:  BTFSC  FEF.7
091F8:  BRA    9200
091FA:  MOVF   FEF,W
091FC:  SUBLW  08
091FE:  BNC   9212
....................                Contrasena[Digito-1]++; 
09200:  MOVLW  01
09202:  SUBWF  xE0,W
09204:  CLRF   03
09206:  ADDLW  84
09208:  MOVWF  FE9
0920A:  MOVLW  03
0920C:  ADDWFC 03,W
0920E:  MOVWF  FEA
09210:  INCF   FEF,F
09212:  MOVLB  0
....................          } 
....................       } 
....................        
....................       if(DOWN){ 
09214:  BSF    F93.1
09216:  BTFSC  F81.1
09218:  BRA    9264
....................          delay_ms(100); 
0921A:  MOVLW  64
0921C:  MOVLB  4
0921E:  MOVWF  x63
09220:  MOVLB  0
09222:  CALL   1A6C
....................          if(Digito==0) 
09226:  MOVLB  2
09228:  MOVF   xE0,F
0922A:  BNZ   9230
....................             Digito=1; 
0922C:  MOVLW  01
0922E:  MOVWF  xE0
....................          if(DOWN){ 
09230:  BSF    F93.1
09232:  BTFSC  F81.1
09234:  BRA    9262
....................             if(Contrasena[Digito-1]>0) 
09236:  MOVLW  01
09238:  SUBWF  xE0,W
0923A:  CLRF   03
0923C:  ADDLW  84
0923E:  MOVWF  FE9
09240:  MOVLW  03
09242:  ADDWFC 03,W
09244:  MOVWF  FEA
09246:  BTFSC  FEF.7
09248:  BRA    9262
0924A:  MOVF   FEF,W
0924C:  SUBLW  00
0924E:  BC    9262
....................                Contrasena[Digito-1]--; 
09250:  MOVLW  01
09252:  SUBWF  xE0,W
09254:  CLRF   03
09256:  ADDLW  84
09258:  MOVWF  FE9
0925A:  MOVLW  03
0925C:  ADDWFC 03,W
0925E:  MOVWF  FEA
09260:  DECF   FEF,F
09262:  MOVLB  0
....................          } 
....................       } 
....................        
....................       if(RIGHT){ 
09264:  BSF    F93.2
09266:  BTFSC  F81.2
09268:  BRA    9282
....................          delay_ms(100); 
0926A:  MOVLW  64
0926C:  MOVLB  4
0926E:  MOVWF  x63
09270:  MOVLB  0
09272:  CALL   1A6C
....................          if(RIGHT){ 
09276:  BSF    F93.2
09278:  BTFSC  F81.2
0927A:  BRA    9282
....................             Digito++; 
0927C:  MOVLB  2
0927E:  INCF   xE0,F
09280:  MOVLB  0
....................          } 
....................       } 
....................        
....................       if(Digito>4){ 
09282:  MOVLB  2
09284:  MOVF   xE0,W
09286:  SUBLW  04
09288:  BTFSC  FD8.0
0928A:  BRA    95DC
....................       Digito=0; 
0928C:  CLRF   xE0
....................       printf("t0.txt=\"\""); 
0928E:  MOVLW  D2
09290:  MOVWF  FF6
09292:  MOVLW  06
09294:  MOVWF  FF7
09296:  MOVLW  00
09298:  MOVWF  FF8
0929A:  MOVLB  0
0929C:  CALL   3BB2
....................       SendDataDisplay(); 
092A0:  CALL   3BE4
....................          if(TipoClave==0){ 
092A4:  MOVLB  2
092A6:  MOVF   xDE,F
092A8:  BTFSS  FD8.2
092AA:  BRA    93FA
....................             if(Contrasena[0]==3&&Contrasena[1]==8&&Contrasena[2]==9&&Contrasena[3]==2){ // Si Ingresa clave para reset general del sistema. 
092AC:  MOVLB  3
092AE:  MOVF   x84,W
092B0:  SUBLW  03
092B2:  BTFSS  FD8.2
092B4:  BRA    93AE
092B6:  MOVF   x85,W
092B8:  SUBLW  08
092BA:  BTFSS  FD8.2
092BC:  BRA    93AE
092BE:  MOVF   x86,W
092C0:  SUBLW  09
092C2:  BNZ   93AE
092C4:  MOVF   x87,W
092C6:  SUBLW  02
092C8:  BNZ   93AE
....................                write_eeprom(10,0);delay_ms(20);write_eeprom(11,0);delay_ms(20);// Reestablece a contrasea de Fabrica y reinicia Programa. 
092CA:  CLRF   FAA
092CC:  MOVLW  0A
092CE:  MOVWF  FA9
092D0:  CLRF   FA8
092D2:  BCF    FA6.6
092D4:  BCF    FA6.7
092D6:  BSF    FA6.2
092D8:  MOVF   FF2,W
092DA:  MOVWF  00
092DC:  BCF    FF2.6
092DE:  BCF    FF2.7
092E0:  MOVLB  F
092E2:  MOVLW  55
092E4:  MOVWF  FA7
092E6:  MOVLW  AA
092E8:  MOVWF  FA7
092EA:  BSF    FA6.1
092EC:  BTFSC  FA6.1
092EE:  BRA    92EC
092F0:  BCF    FA6.2
092F2:  MOVF   00,W
092F4:  IORWF  FF2,F
092F6:  MOVLW  14
092F8:  MOVLB  4
092FA:  MOVWF  x63
092FC:  MOVLB  0
092FE:  CALL   1A6C
09302:  CLRF   FAA
09304:  MOVLW  0B
09306:  MOVWF  FA9
09308:  CLRF   FA8
0930A:  BCF    FA6.6
0930C:  BCF    FA6.7
0930E:  BSF    FA6.2
09310:  MOVF   FF2,W
09312:  MOVWF  00
09314:  BCF    FF2.6
09316:  BCF    FF2.7
09318:  MOVLB  F
0931A:  MOVLW  55
0931C:  MOVWF  FA7
0931E:  MOVLW  AA
09320:  MOVWF  FA7
09322:  BSF    FA6.1
09324:  BTFSC  FA6.1
09326:  BRA    9324
09328:  BCF    FA6.2
0932A:  MOVF   00,W
0932C:  IORWF  FF2,F
0932E:  MOVLW  14
09330:  MOVLB  4
09332:  MOVWF  x63
09334:  MOVLB  0
09336:  CALL   1A6C
....................                write_eeprom(12,0);delay_ms(20);write_eeprom(13,0);delay_ms(20); 
0933A:  CLRF   FAA
0933C:  MOVLW  0C
0933E:  MOVWF  FA9
09340:  CLRF   FA8
09342:  BCF    FA6.6
09344:  BCF    FA6.7
09346:  BSF    FA6.2
09348:  MOVF   FF2,W
0934A:  MOVWF  00
0934C:  BCF    FF2.6
0934E:  BCF    FF2.7
09350:  MOVLB  F
09352:  MOVLW  55
09354:  MOVWF  FA7
09356:  MOVLW  AA
09358:  MOVWF  FA7
0935A:  BSF    FA6.1
0935C:  BTFSC  FA6.1
0935E:  BRA    935C
09360:  BCF    FA6.2
09362:  MOVF   00,W
09364:  IORWF  FF2,F
09366:  MOVLW  14
09368:  MOVLB  4
0936A:  MOVWF  x63
0936C:  MOVLB  0
0936E:  CALL   1A6C
09372:  CLRF   FAA
09374:  MOVLW  0D
09376:  MOVWF  FA9
09378:  CLRF   FA8
0937A:  BCF    FA6.6
0937C:  BCF    FA6.7
0937E:  BSF    FA6.2
09380:  MOVF   FF2,W
09382:  MOVWF  00
09384:  BCF    FF2.6
09386:  BCF    FF2.7
09388:  MOVLB  F
0938A:  MOVLW  55
0938C:  MOVWF  FA7
0938E:  MOVLW  AA
09390:  MOVWF  FA7
09392:  BSF    FA6.1
09394:  BTFSC  FA6.1
09396:  BRA    9394
09398:  BCF    FA6.2
0939A:  MOVF   00,W
0939C:  IORWF  FF2,F
0939E:  MOVLW  14
093A0:  MOVLB  4
093A2:  MOVWF  x63
093A4:  MOVLB  0
093A6:  CALL   1A6C
....................                reset_cpu(); 
093AA:  RESET
093AC:  MOVLB  3
....................             } 
....................              
....................             if((Contrasena[0]==Password[0])&&(Contrasena[1]==Password[1])&&(Contrasena[2]==Password[2])&&(Contrasena[3]==Password[3])){ 
093AE:  MOVF   x88,W
093B0:  SUBWF  x84,W
093B2:  BNZ   93E0
093B4:  MOVF   x89,W
093B6:  SUBWF  x85,W
093B8:  BNZ   93E0
093BA:  MOVF   x8A,W
093BC:  SUBWF  x86,W
093BE:  BNZ   93E0
093C0:  MOVF   x8B,W
093C2:  SUBWF  x87,W
093C4:  BNZ   93E0
....................                //BorraBuffer(); 
....................                printf("page ClaveCorrecta"); 
093C6:  MOVLW  DC
093C8:  MOVWF  FF6
093CA:  MOVLW  06
093CC:  MOVWF  FF7
093CE:  MOVLW  00
093D0:  MOVWF  FF8
093D2:  MOVLB  0
093D4:  CALL   3BB2
....................                SendDataDisplay(); 
093D8:  CALL   3BE4
....................             }else{ 
093DC:  BRA    93F6
093DE:  MOVLB  3
....................                //BorraBuffer(); 
....................                printf("page ClaveBad"); 
093E0:  MOVLW  F0
093E2:  MOVWF  FF6
093E4:  MOVLW  06
093E6:  MOVWF  FF7
093E8:  MOVLW  00
093EA:  MOVWF  FF8
093EC:  MOVLB  0
093EE:  CALL   3BB2
....................                SendDataDisplay(); 
093F2:  CALL   3BE4
....................             }  
....................          }else if(TipoClave==1){ 
093F6:  BRA    95DA
093F8:  MOVLB  2
093FA:  DECFSZ xDE,W
093FC:  BRA    944C
....................             if(Contrasena[0]==4&&Contrasena[1]==4&&Contrasena[2]==4&&Contrasena[3]==4){ // Si Ingresa clave de Servicio Tecnico 
093FE:  MOVLB  3
09400:  MOVF   x84,W
09402:  SUBLW  04
09404:  BNZ   9432
09406:  MOVF   x85,W
09408:  SUBLW  04
0940A:  BNZ   9432
0940C:  MOVF   x86,W
0940E:  SUBLW  04
09410:  BNZ   9432
09412:  MOVF   x87,W
09414:  SUBLW  04
09416:  BNZ   9432
....................                printf("page Config"); 
09418:  MOVLW  FE
0941A:  MOVWF  FF6
0941C:  MOVLW  06
0941E:  MOVWF  FF7
09420:  MOVLW  00
09422:  MOVWF  FF8
09424:  MOVLB  0
09426:  CALL   3BB2
....................                SendDataDisplay(); 
0942A:  CALL   3BE4
....................             }else{ 
0942E:  BRA    9448
09430:  MOVLB  3
....................                printf("page MenuPrincipal"); 
09432:  MOVLW  0A
09434:  MOVWF  FF6
09436:  MOVLW  07
09438:  MOVWF  FF7
0943A:  MOVLW  00
0943C:  MOVWF  FF8
0943E:  MOVLB  0
09440:  CALL   3BB2
....................                SendDataDisplay(); 
09444:  CALL   3BE4
....................             } 
....................          }else if(TipoClave==2){ 
09448:  BRA    95DA
0944A:  MOVLB  2
0944C:  MOVF   xDE,W
0944E:  SUBLW  02
09450:  BNZ   94BA
....................             if((Contrasena[0]==Password[0])&&(Contrasena[1]==Password[1])&&(Contrasena[2]==Password[2])&&(Contrasena[3]==Password[3])){ 
09452:  MOVLB  3
09454:  MOVF   x88,W
09456:  SUBWF  x84,W
09458:  BNZ   94A0
0945A:  MOVF   x89,W
0945C:  SUBWF  x85,W
0945E:  BNZ   94A0
09460:  MOVF   x8A,W
09462:  SUBWF  x86,W
09464:  BNZ   94A0
09466:  MOVF   x8B,W
09468:  SUBWF  x87,W
0946A:  BNZ   94A0
....................                printf("page Clave"); 
0946C:  MOVLW  1E
0946E:  MOVWF  FF6
09470:  MOVLW  07
09472:  MOVWF  FF7
09474:  MOVLW  00
09476:  MOVWF  FF8
09478:  MOVLB  0
0947A:  CALL   3BB2
....................                SendDataDisplay(); 
0947E:  CALL   3BE4
....................                printf("titulo.txt=\"Clave Nueva\""); 
09482:  MOVLW  2A
09484:  MOVWF  FF6
09486:  MOVLW  07
09488:  MOVWF  FF7
0948A:  MOVLW  00
0948C:  MOVWF  FF8
0948E:  CALL   3BB2
....................                SendDataDisplay(); 
09492:  CALL   3BE4
....................                TipoClave=3; 
09496:  MOVLW  03
09498:  MOVLB  2
0949A:  MOVWF  xDE
....................             }else{ 
0949C:  BRA    94B8
0949E:  MOVLB  3
....................                printf("page MenuPrincipal"); 
094A0:  MOVLW  44
094A2:  MOVWF  FF6
094A4:  MOVLW  07
094A6:  MOVWF  FF7
094A8:  MOVLW  00
094AA:  MOVWF  FF8
094AC:  MOVLB  0
094AE:  CALL   3BB2
....................                SendDataDisplay(); 
094B2:  CALL   3BE4
094B6:  MOVLB  2
....................             }  
....................          }else if(TipoClave==3){ 
094B8:  BRA    95DC
094BA:  MOVF   xDE,W
094BC:  SUBLW  03
094BE:  BTFSS  FD8.2
094C0:  BRA    95DC
....................             printf("titulo.txt=\"Clave Nueva\""); 
094C2:  MOVLW  58
094C4:  MOVWF  FF6
094C6:  MOVLW  07
094C8:  MOVWF  FF7
094CA:  MOVLW  00
094CC:  MOVWF  FF8
094CE:  MOVLB  0
094D0:  CALL   3BB2
....................             SendDataDisplay(); 
094D4:  CALL   3BE4
....................             printf("page MenuPrincipal"); 
094D8:  MOVLW  72
094DA:  MOVWF  FF6
094DC:  MOVLW  07
094DE:  MOVWF  FF7
094E0:  MOVLW  00
094E2:  MOVWF  FF8
094E4:  CALL   3BB2
....................             SendDataDisplay(); 
094E8:  CALL   3BE4
....................             if(!GuardaEEPROM){ 
094EC:  BTFSC  xA2.6
094EE:  BRA    95DA
....................                write_eeprom(10,Contrasena[0]);delay_ms(20);write_eeprom(11,Contrasena[1]);delay_ms(20); 
094F0:  CLRF   FAA
094F2:  MOVLW  0A
094F4:  MOVWF  FA9
094F6:  MOVFF  384,FA8
094FA:  BCF    FA6.6
094FC:  BCF    FA6.7
094FE:  BSF    FA6.2
09500:  MOVF   FF2,W
09502:  MOVWF  00
09504:  BCF    FF2.6
09506:  BCF    FF2.7
09508:  MOVLB  F
0950A:  MOVLW  55
0950C:  MOVWF  FA7
0950E:  MOVLW  AA
09510:  MOVWF  FA7
09512:  BSF    FA6.1
09514:  BTFSC  FA6.1
09516:  BRA    9514
09518:  BCF    FA6.2
0951A:  MOVF   00,W
0951C:  IORWF  FF2,F
0951E:  MOVLW  14
09520:  MOVLB  4
09522:  MOVWF  x63
09524:  MOVLB  0
09526:  CALL   1A6C
0952A:  CLRF   FAA
0952C:  MOVLW  0B
0952E:  MOVWF  FA9
09530:  MOVFF  385,FA8
09534:  BCF    FA6.6
09536:  BCF    FA6.7
09538:  BSF    FA6.2
0953A:  MOVF   FF2,W
0953C:  MOVWF  00
0953E:  BCF    FF2.6
09540:  BCF    FF2.7
09542:  MOVLB  F
09544:  MOVLW  55
09546:  MOVWF  FA7
09548:  MOVLW  AA
0954A:  MOVWF  FA7
0954C:  BSF    FA6.1
0954E:  BTFSC  FA6.1
09550:  BRA    954E
09552:  BCF    FA6.2
09554:  MOVF   00,W
09556:  IORWF  FF2,F
09558:  MOVLW  14
0955A:  MOVLB  4
0955C:  MOVWF  x63
0955E:  MOVLB  0
09560:  CALL   1A6C
....................                write_eeprom(12,Contrasena[2]);delay_ms(20);write_eeprom(13,Contrasena[3]);delay_ms(20); 
09564:  CLRF   FAA
09566:  MOVLW  0C
09568:  MOVWF  FA9
0956A:  MOVFF  386,FA8
0956E:  BCF    FA6.6
09570:  BCF    FA6.7
09572:  BSF    FA6.2
09574:  MOVF   FF2,W
09576:  MOVWF  00
09578:  BCF    FF2.6
0957A:  BCF    FF2.7
0957C:  MOVLB  F
0957E:  MOVLW  55
09580:  MOVWF  FA7
09582:  MOVLW  AA
09584:  MOVWF  FA7
09586:  BSF    FA6.1
09588:  BTFSC  FA6.1
0958A:  BRA    9588
0958C:  BCF    FA6.2
0958E:  MOVF   00,W
09590:  IORWF  FF2,F
09592:  MOVLW  14
09594:  MOVLB  4
09596:  MOVWF  x63
09598:  MOVLB  0
0959A:  CALL   1A6C
0959E:  CLRF   FAA
095A0:  MOVLW  0D
095A2:  MOVWF  FA9
095A4:  MOVFF  387,FA8
095A8:  BCF    FA6.6
095AA:  BCF    FA6.7
095AC:  BSF    FA6.2
095AE:  MOVF   FF2,W
095B0:  MOVWF  00
095B2:  BCF    FF2.6
095B4:  BCF    FF2.7
095B6:  MOVLB  F
095B8:  MOVLW  55
095BA:  MOVWF  FA7
095BC:  MOVLW  AA
095BE:  MOVWF  FA7
095C0:  BSF    FA6.1
095C2:  BTFSC  FA6.1
095C4:  BRA    95C2
095C6:  BCF    FA6.2
095C8:  MOVF   00,W
095CA:  IORWF  FF2,F
095CC:  MOVLW  14
095CE:  MOVLB  4
095D0:  MOVWF  x63
095D2:  MOVLB  0
095D4:  CALL   1A6C
....................                GuardaEEPROM=ON; 
095D8:  BSF    xA2.6
095DA:  MOVLB  2
....................             } 
....................          } 
....................       } 
....................        
....................       if(RX_Buffer[4]==0x11){//11 
095DC:  MOVF   34,W
095DE:  SUBLW  11
095E0:  BNZ   9600
....................          if(TipoClave!=0){ 
095E2:  MOVF   xDE,F
095E4:  BZ    9600
....................             printf("page MenuPrincipal"); 
095E6:  MOVLW  86
095E8:  MOVWF  FF6
095EA:  MOVLW  07
095EC:  MOVWF  FF7
095EE:  MOVLW  00
095F0:  MOVWF  FF8
095F2:  MOVLB  0
095F4:  CALL   3BB2
....................             SendDataDisplay(); 
095F8:  CALL   3BE4
....................             PantallaPrincipal=0; 
095FC:  MOVLB  2
095FE:  CLRF   xDD
....................          } 
....................       } 
....................        
....................       if(TipoClave==3){ 
09600:  MOVF   xDE,W
09602:  SUBLW  03
09604:  BNZ   9632
....................          printf("titulo.txt=\"Clave Nueva\""); 
09606:  MOVLW  9A
09608:  MOVWF  FF6
0960A:  MOVLW  07
0960C:  MOVWF  FF7
0960E:  MOVLW  00
09610:  MOVWF  FF8
09612:  MOVLB  0
09614:  CALL   3BB2
....................          SendDataDisplay(); 
09618:  CALL   3BE4
....................          printf("doevents"); 
0961C:  MOVLW  B4
0961E:  MOVWF  FF6
09620:  MOVLW  07
09622:  MOVWF  FF7
09624:  MOVLW  00
09626:  MOVWF  FF8
09628:  CALL   3BB2
....................          SendDataDisplay(); 
0962C:  CALL   3BE4
09630:  MOVLB  2
....................       } 
....................        
....................       if(TipoClave==2){ 
09632:  MOVF   xDE,W
09634:  SUBLW  02
09636:  BNZ   9664
....................          printf("titulo.txt=\"Clave Actual\""); 
09638:  MOVLW  BE
0963A:  MOVWF  FF6
0963C:  MOVLW  07
0963E:  MOVWF  FF7
09640:  MOVLW  00
09642:  MOVWF  FF8
09644:  MOVLB  0
09646:  CALL   3BB2
....................          SendDataDisplay(); 
0964A:  CALL   3BE4
....................          printf("doevents"); 
0964E:  MOVLW  D8
09650:  MOVWF  FF6
09652:  MOVLW  07
09654:  MOVWF  FF7
09656:  MOVLW  00
09658:  MOVWF  FF8
0965A:  CALL   3BB2
....................          SendDataDisplay(); 
0965E:  CALL   3BE4
09662:  MOVLB  2
....................       } 
....................        
....................       if(TipoClave==1){ 
09664:  DECFSZ xDE,W
09666:  BRA    9694
....................          printf("titulo.txt=\"Clave Tecnico\""); 
09668:  MOVLW  E2
0966A:  MOVWF  FF6
0966C:  MOVLW  07
0966E:  MOVWF  FF7
09670:  MOVLW  00
09672:  MOVWF  FF8
09674:  MOVLB  0
09676:  CALL   3BB2
....................          SendDataDisplay(); 
0967A:  CALL   3BE4
....................          printf("doevents"); 
0967E:  MOVLW  FE
09680:  MOVWF  FF6
09682:  MOVLW  07
09684:  MOVWF  FF7
09686:  MOVLW  00
09688:  MOVWF  FF8
0968A:  CALL   3BB2
....................          SendDataDisplay(); 
0968E:  CALL   3BE4
09692:  MOVLB  2
....................       } 
....................        
....................       if(TipoClave==0){ 
09694:  MOVF   xDE,F
09696:  BNZ   96B0
....................          printf("titulo.txt=\"Ingrese Contrasea\""); 
09698:  MOVLW  08
0969A:  MOVWF  FF6
0969C:  MOVLW  08
0969E:  MOVWF  FF7
096A0:  MOVLW  00
096A2:  MOVWF  FF8
096A4:  MOVLB  0
096A6:  CALL   3BB2
....................          SendDataDisplay(); 
096AA:  CALL   3BE4
096AE:  MOVLB  2
....................       } 
....................       if(RX_Buffer[3]==0x0f){//0f, recibe caracteres ingresados desde el Display 
096B0:  MOVF   33,W
096B2:  SUBLW  0F
096B4:  BTFSS  FD8.2
096B6:  BRA    9A90
....................          if(TipoClave==0){ 
096B8:  MOVF   xDE,F
096BA:  BTFSS  FD8.2
096BC:  BRA    984C
....................             if(RX_Buffer[4]==0x33&&RX_Buffer[5]==0x38&&RX_Buffer[6]==0x39&&RX_Buffer[7]==0x32){ // Si Ingresa clave para reset general del sistema. 
096BE:  MOVF   34,W
096C0:  SUBLW  33
096C2:  BTFSS  FD8.2
096C4:  BRA    97BE
096C6:  MOVF   35,W
096C8:  SUBLW  38
096CA:  BTFSS  FD8.2
096CC:  BRA    97BE
096CE:  MOVF   36,W
096D0:  SUBLW  39
096D2:  BNZ   97BE
096D4:  MOVF   37,W
096D6:  SUBLW  32
096D8:  BNZ   97BE
....................                write_eeprom(10,0);delay_ms(20);write_eeprom(11,0);delay_ms(20);// Reestablece a contrasea de Fabrica y reinicia Programa. 
096DA:  CLRF   FAA
096DC:  MOVLW  0A
096DE:  MOVWF  FA9
096E0:  CLRF   FA8
096E2:  BCF    FA6.6
096E4:  BCF    FA6.7
096E6:  BSF    FA6.2
096E8:  MOVF   FF2,W
096EA:  MOVWF  00
096EC:  BCF    FF2.6
096EE:  BCF    FF2.7
096F0:  MOVLB  F
096F2:  MOVLW  55
096F4:  MOVWF  FA7
096F6:  MOVLW  AA
096F8:  MOVWF  FA7
096FA:  BSF    FA6.1
096FC:  BTFSC  FA6.1
096FE:  BRA    96FC
09700:  BCF    FA6.2
09702:  MOVF   00,W
09704:  IORWF  FF2,F
09706:  MOVLW  14
09708:  MOVLB  4
0970A:  MOVWF  x63
0970C:  MOVLB  0
0970E:  CALL   1A6C
09712:  CLRF   FAA
09714:  MOVLW  0B
09716:  MOVWF  FA9
09718:  CLRF   FA8
0971A:  BCF    FA6.6
0971C:  BCF    FA6.7
0971E:  BSF    FA6.2
09720:  MOVF   FF2,W
09722:  MOVWF  00
09724:  BCF    FF2.6
09726:  BCF    FF2.7
09728:  MOVLB  F
0972A:  MOVLW  55
0972C:  MOVWF  FA7
0972E:  MOVLW  AA
09730:  MOVWF  FA7
09732:  BSF    FA6.1
09734:  BTFSC  FA6.1
09736:  BRA    9734
09738:  BCF    FA6.2
0973A:  MOVF   00,W
0973C:  IORWF  FF2,F
0973E:  MOVLW  14
09740:  MOVLB  4
09742:  MOVWF  x63
09744:  MOVLB  0
09746:  CALL   1A6C
....................                write_eeprom(12,0);delay_ms(20);write_eeprom(13,0);delay_ms(20); 
0974A:  CLRF   FAA
0974C:  MOVLW  0C
0974E:  MOVWF  FA9
09750:  CLRF   FA8
09752:  BCF    FA6.6
09754:  BCF    FA6.7
09756:  BSF    FA6.2
09758:  MOVF   FF2,W
0975A:  MOVWF  00
0975C:  BCF    FF2.6
0975E:  BCF    FF2.7
09760:  MOVLB  F
09762:  MOVLW  55
09764:  MOVWF  FA7
09766:  MOVLW  AA
09768:  MOVWF  FA7
0976A:  BSF    FA6.1
0976C:  BTFSC  FA6.1
0976E:  BRA    976C
09770:  BCF    FA6.2
09772:  MOVF   00,W
09774:  IORWF  FF2,F
09776:  MOVLW  14
09778:  MOVLB  4
0977A:  MOVWF  x63
0977C:  MOVLB  0
0977E:  CALL   1A6C
09782:  CLRF   FAA
09784:  MOVLW  0D
09786:  MOVWF  FA9
09788:  CLRF   FA8
0978A:  BCF    FA6.6
0978C:  BCF    FA6.7
0978E:  BSF    FA6.2
09790:  MOVF   FF2,W
09792:  MOVWF  00
09794:  BCF    FF2.6
09796:  BCF    FF2.7
09798:  MOVLB  F
0979A:  MOVLW  55
0979C:  MOVWF  FA7
0979E:  MOVLW  AA
097A0:  MOVWF  FA7
097A2:  BSF    FA6.1
097A4:  BTFSC  FA6.1
097A6:  BRA    97A4
097A8:  BCF    FA6.2
097AA:  MOVF   00,W
097AC:  IORWF  FF2,F
097AE:  MOVLW  14
097B0:  MOVLB  4
097B2:  MOVWF  x63
097B4:  MOVLB  0
097B6:  CALL   1A6C
....................                reset_cpu(); 
097BA:  RESET
097BC:  MOVLB  2
....................             } 
....................             if(RX_Buffer[4]>=0x30 && RX_Buffer[5]>=0x30 && RX_Buffer[6]>=0x30 && RX_Buffer[7]>=0x30 
....................             && RX_Buffer[4]<=0x39 && RX_Buffer[5]<=0x39 && RX_Buffer[6]<=0x39 && RX_Buffer[7]<=0x39){ 
097BE:  MOVF   34,W
097C0:  SUBLW  2F
097C2:  BC    984A
097C4:  MOVF   35,W
097C6:  SUBLW  2F
097C8:  BC    984A
097CA:  MOVF   36,W
097CC:  SUBLW  2F
097CE:  BC    984A
097D0:  MOVF   37,W
097D2:  SUBLW  2F
097D4:  BC    984A
097D6:  MOVF   34,W
097D8:  SUBLW  39
097DA:  BNC   984A
097DC:  MOVF   35,W
097DE:  SUBLW  39
097E0:  BNC   984A
097E2:  MOVF   36,W
097E4:  SUBLW  39
097E6:  BNC   984A
097E8:  MOVF   37,W
097EA:  SUBLW  39
097EC:  BNC   984A
....................             if((RX_Buffer[4]==Password[0]+0x30)&&(RX_Buffer[5]==Password[1]+0x30)&&(RX_Buffer[6]==Password[2]+0x30)&&(RX_Buffer[7]==Password[3]+0x30)){ 
097EE:  MOVLW  30
097F0:  MOVLB  3
097F2:  ADDWF  x88,W
097F4:  SUBWF  34,W
097F6:  BNZ   982E
097F8:  MOVLW  30
097FA:  ADDWF  x89,W
097FC:  SUBWF  35,W
097FE:  BNZ   982E
09800:  MOVLW  30
09802:  ADDWF  x8A,W
09804:  SUBWF  36,W
09806:  BNZ   982E
09808:  MOVLW  30
0980A:  ADDWF  x8B,W
0980C:  SUBWF  37,W
0980E:  BNZ   982E
....................                   printf("page ClaveCorrecta"); 
09810:  MOVLW  28
09812:  MOVWF  FF6
09814:  MOVLW  08
09816:  MOVWF  FF7
09818:  MOVLW  00
0981A:  MOVWF  FF8
0981C:  MOVLB  0
0981E:  CALL   3BB2
....................                   //printf("page MenuPrincipal"); 
....................                   SendDataDisplay(); 
09822:  CALL   3BE4
....................                   RX_Buffer[3]=0x00;RX_Buffer2[3]=0x00;   
09826:  CLRF   33
09828:  CLRF   3E
....................                }else{ 
0982A:  BRA    9848
0982C:  MOVLB  3
....................                   printf("page ClaveBad"); 
0982E:  MOVLW  3C
09830:  MOVWF  FF6
09832:  MOVLW  08
09834:  MOVWF  FF7
09836:  MOVLW  00
09838:  MOVWF  FF8
0983A:  MOVLB  0
0983C:  CALL   3BB2
....................                   SendDataDisplay(); 
09840:  CALL   3BE4
....................                   RX_Buffer[3]=0x00;RX_Buffer2[3]=0x00;   
09844:  CLRF   33
09846:  CLRF   3E
09848:  MOVLB  2
....................                }  
....................             } 
....................          }else if(TipoClave==1){ 
0984A:  BRA    9A90
0984C:  DECFSZ xDE,W
0984E:  BRA    989C
....................             if(RX_Buffer[4]==0x34&&RX_Buffer[5]==0x34&&RX_Buffer[6]==0x34&&RX_Buffer[7]==0x34){ // Si Ingresa clave de Servicio Tecnico 
09850:  MOVF   34,W
09852:  SUBLW  34
09854:  BNZ   9882
09856:  MOVF   35,W
09858:  SUBLW  34
0985A:  BNZ   9882
0985C:  MOVF   36,W
0985E:  SUBLW  34
09860:  BNZ   9882
09862:  MOVF   37,W
09864:  SUBLW  34
09866:  BNZ   9882
....................                printf("page Config"); 
09868:  MOVLW  4A
0986A:  MOVWF  FF6
0986C:  MOVLW  08
0986E:  MOVWF  FF7
09870:  MOVLW  00
09872:  MOVWF  FF8
09874:  MOVLB  0
09876:  CALL   3BB2
....................                SendDataDisplay(); 
0987A:  CALL   3BE4
....................             }else{ 
0987E:  BRA    9898
09880:  MOVLB  2
....................                printf("page MenuPrincipal"); 
09882:  MOVLW  56
09884:  MOVWF  FF6
09886:  MOVLW  08
09888:  MOVWF  FF7
0988A:  MOVLW  00
0988C:  MOVWF  FF8
0988E:  MOVLB  0
09890:  CALL   3BB2
....................                SendDataDisplay(); 
09894:  CALL   3BE4
....................             } 
....................          }else if(TipoClave==2){ 
09898:  BRA    9A8E
0989A:  MOVLB  2
0989C:  MOVF   xDE,W
0989E:  SUBLW  02
098A0:  BNZ   994A
....................             if(RX_Buffer[4]>=0x30 && RX_Buffer[5]>=0x30 && RX_Buffer[6]>=0x30 && RX_Buffer[7]>=0x30 
....................             && RX_Buffer[4]<=0x39 && RX_Buffer[5]<=0x39 && RX_Buffer[6]<=0x39 && RX_Buffer[7]<=0x39){ 
098A2:  MOVF   34,W
098A4:  SUBLW  2F
098A6:  BC    9948
098A8:  MOVF   35,W
098AA:  SUBLW  2F
098AC:  BC    9948
098AE:  MOVF   36,W
098B0:  SUBLW  2F
098B2:  BC    9948
098B4:  MOVF   37,W
098B6:  SUBLW  2F
098B8:  BC    9948
098BA:  MOVF   34,W
098BC:  SUBLW  39
098BE:  BNC   9948
098C0:  MOVF   35,W
098C2:  SUBLW  39
098C4:  BNC   9948
098C6:  MOVF   36,W
098C8:  SUBLW  39
098CA:  BNC   9948
098CC:  MOVF   37,W
098CE:  SUBLW  39
098D0:  BNC   9948
....................             if((RX_Buffer[4]==Password[0]+0x30)&&(RX_Buffer[5]==Password[1]+0x30)&&(RX_Buffer[6]==Password[2]+0x30)&&(RX_Buffer[7]==Password[3]+0x30)){ 
098D2:  MOVLW  30
098D4:  MOVLB  3
098D6:  ADDWF  x88,W
098D8:  SUBWF  34,W
098DA:  BNZ   992C
098DC:  MOVLW  30
098DE:  ADDWF  x89,W
098E0:  SUBWF  35,W
098E2:  BNZ   992C
098E4:  MOVLW  30
098E6:  ADDWF  x8A,W
098E8:  SUBWF  36,W
098EA:  BNZ   992C
098EC:  MOVLW  30
098EE:  ADDWF  x8B,W
098F0:  SUBWF  37,W
098F2:  BNZ   992C
....................                printf("page Clave"); 
098F4:  MOVLW  6A
098F6:  MOVWF  FF6
098F8:  MOVLW  08
098FA:  MOVWF  FF7
098FC:  MOVLW  00
098FE:  MOVWF  FF8
09900:  MOVLB  0
09902:  CALL   3BB2
....................                SendDataDisplay(); 
09906:  CALL   3BE4
....................                printf("titulo.txt=\"Clave Nueva\""); 
0990A:  MOVLW  76
0990C:  MOVWF  FF6
0990E:  MOVLW  08
09910:  MOVWF  FF7
09912:  MOVLW  00
09914:  MOVWF  FF8
09916:  CALL   3BB2
....................                SendDataDisplay(); 
0991A:  CALL   3BE4
....................                TipoClave=3; 
0991E:  MOVLW  03
09920:  MOVLB  2
09922:  MOVWF  xDE
....................                RX_Buffer[3]=0x00; 
09924:  CLRF   33
....................                RX_Buffer2[3]=0x00; 
09926:  CLRF   3E
....................             }else{ 
09928:  BRA    9948
0992A:  MOVLB  3
....................                printf("page MenuPrincipal"); 
0992C:  MOVLW  90
0992E:  MOVWF  FF6
09930:  MOVLW  08
09932:  MOVWF  FF7
09934:  MOVLW  00
09936:  MOVWF  FF8
09938:  MOVLB  0
0993A:  CALL   3BB2
....................                SendDataDisplay(); 
0993E:  CALL   3BE4
....................                RX_Buffer[3]=0x00; 
09942:  CLRF   33
....................                RX_Buffer2[3]=0x00; 
09944:  CLRF   3E
09946:  MOVLB  2
....................             }  
....................             } 
....................          }else if(TipoClave==3){ 
09948:  BRA    9A90
0994A:  MOVF   xDE,W
0994C:  SUBLW  03
0994E:  BTFSS  FD8.2
09950:  BRA    9A90
....................             printf("titulo.txt=\"Clave Nueva\""); 
09952:  MOVLW  A4
09954:  MOVWF  FF6
09956:  MOVLW  08
09958:  MOVWF  FF7
0995A:  MOVLW  00
0995C:  MOVWF  FF8
0995E:  MOVLB  0
09960:  CALL   3BB2
....................             SendDataDisplay(); 
09964:  CALL   3BE4
....................             printf("page MenuPrincipal"); 
09968:  MOVLW  BE
0996A:  MOVWF  FF6
0996C:  MOVLW  08
0996E:  MOVWF  FF7
09970:  MOVLW  00
09972:  MOVWF  FF8
09974:  CALL   3BB2
....................             SendDataDisplay(); 
09978:  CALL   3BE4
....................             if(!GuardaEEPROM){ 
0997C:  BTFSC  xA2.6
0997E:  BRA    9A8A
....................                write_eeprom(10,RX_Buffer[4]-0x30);delay_ms(20);write_eeprom(11,RX_Buffer[5]-0x30);delay_ms(20); 
09980:  MOVLW  30
09982:  SUBWF  34,W
09984:  MOVLB  4
09986:  MOVWF  x4A
09988:  CLRF   FAA
0998A:  MOVLW  0A
0998C:  MOVWF  FA9
0998E:  MOVFF  44A,FA8
09992:  BCF    FA6.6
09994:  BCF    FA6.7
09996:  BSF    FA6.2
09998:  MOVF   FF2,W
0999A:  MOVWF  00
0999C:  BCF    FF2.6
0999E:  BCF    FF2.7
099A0:  MOVLB  F
099A2:  MOVLW  55
099A4:  MOVWF  FA7
099A6:  MOVLW  AA
099A8:  MOVWF  FA7
099AA:  BSF    FA6.1
099AC:  BTFSC  FA6.1
099AE:  BRA    99AC
099B0:  BCF    FA6.2
099B2:  MOVF   00,W
099B4:  IORWF  FF2,F
099B6:  MOVLW  14
099B8:  MOVLB  4
099BA:  MOVWF  x63
099BC:  MOVLB  0
099BE:  CALL   1A6C
099C2:  MOVLW  30
099C4:  SUBWF  35,W
099C6:  MOVLB  4
099C8:  MOVWF  x4A
099CA:  CLRF   FAA
099CC:  MOVLW  0B
099CE:  MOVWF  FA9
099D0:  MOVFF  44A,FA8
099D4:  BCF    FA6.6
099D6:  BCF    FA6.7
099D8:  BSF    FA6.2
099DA:  MOVF   FF2,W
099DC:  MOVWF  00
099DE:  BCF    FF2.6
099E0:  BCF    FF2.7
099E2:  MOVLB  F
099E4:  MOVLW  55
099E6:  MOVWF  FA7
099E8:  MOVLW  AA
099EA:  MOVWF  FA7
099EC:  BSF    FA6.1
099EE:  BTFSC  FA6.1
099F0:  BRA    99EE
099F2:  BCF    FA6.2
099F4:  MOVF   00,W
099F6:  IORWF  FF2,F
099F8:  MOVLW  14
099FA:  MOVLB  4
099FC:  MOVWF  x63
099FE:  MOVLB  0
09A00:  CALL   1A6C
....................                write_eeprom(12,RX_Buffer[6]-0x30);delay_ms(20);write_eeprom(13,RX_Buffer[7]-0x30);delay_ms(20); 
09A04:  MOVLW  30
09A06:  SUBWF  36,W
09A08:  MOVLB  4
09A0A:  MOVWF  x4A
09A0C:  CLRF   FAA
09A0E:  MOVLW  0C
09A10:  MOVWF  FA9
09A12:  MOVFF  44A,FA8
09A16:  BCF    FA6.6
09A18:  BCF    FA6.7
09A1A:  BSF    FA6.2
09A1C:  MOVF   FF2,W
09A1E:  MOVWF  00
09A20:  BCF    FF2.6
09A22:  BCF    FF2.7
09A24:  MOVLB  F
09A26:  MOVLW  55
09A28:  MOVWF  FA7
09A2A:  MOVLW  AA
09A2C:  MOVWF  FA7
09A2E:  BSF    FA6.1
09A30:  BTFSC  FA6.1
09A32:  BRA    9A30
09A34:  BCF    FA6.2
09A36:  MOVF   00,W
09A38:  IORWF  FF2,F
09A3A:  MOVLW  14
09A3C:  MOVLB  4
09A3E:  MOVWF  x63
09A40:  MOVLB  0
09A42:  CALL   1A6C
09A46:  MOVLW  30
09A48:  SUBWF  37,W
09A4A:  MOVLB  4
09A4C:  MOVWF  x4A
09A4E:  CLRF   FAA
09A50:  MOVLW  0D
09A52:  MOVWF  FA9
09A54:  MOVFF  44A,FA8
09A58:  BCF    FA6.6
09A5A:  BCF    FA6.7
09A5C:  BSF    FA6.2
09A5E:  MOVF   FF2,W
09A60:  MOVWF  00
09A62:  BCF    FF2.6
09A64:  BCF    FF2.7
09A66:  MOVLB  F
09A68:  MOVLW  55
09A6A:  MOVWF  FA7
09A6C:  MOVLW  AA
09A6E:  MOVWF  FA7
09A70:  BSF    FA6.1
09A72:  BTFSC  FA6.1
09A74:  BRA    9A72
09A76:  BCF    FA6.2
09A78:  MOVF   00,W
09A7A:  IORWF  FF2,F
09A7C:  MOVLW  14
09A7E:  MOVLB  4
09A80:  MOVWF  x63
09A82:  MOVLB  0
09A84:  CALL   1A6C
....................                GuardaEEPROM=ON; 
09A88:  BSF    xA2.6
....................             } 
....................             RX_Buffer[3]=0x00; 
09A8A:  CLRF   33
....................             RX_Buffer2[3]=0x00; 
09A8C:  CLRF   3E
09A8E:  MOVLB  2
09A90:  MOVLB  3
....................          } 
....................       } 
....................     } 
.................... //_--------------------------------------------------------------------------------------------------------------------------------------------------------        
....................  
.................... //_-------------------------------------------------------------------------------------------------------------------------------------------------------- 
....................    if(Menu==1){ //Menu Principal. 
09A92:  DECFSZ x5C,W
09A94:  GOTO   A478
....................       printf("fecha.txt=\"T:%3.1fC Fecha:%02u/%02u/20%02u Hora: %02u:%02u:%02u\"",Temperatura,Dia,Mes,Year,Hora,Minuto,Segundo); 
09A98:  MOVLW  D2
09A9A:  MOVWF  FF6
09A9C:  MOVLW  08
09A9E:  MOVWF  FF7
09AA0:  MOVLW  00
09AA2:  MOVWF  FF8
09AA4:  MOVLW  0D
09AA6:  MOVLB  4
09AA8:  MOVWF  x50
09AAA:  MOVLB  0
09AAC:  CALL   4B26
09AB0:  MOVLW  02
09AB2:  MOVWF  FE9
09AB4:  MOVFF  327,453
09AB8:  MOVFF  326,452
09ABC:  MOVFF  325,451
09AC0:  MOVFF  324,450
09AC4:  MOVLW  01
09AC6:  MOVLB  4
09AC8:  MOVWF  x54
09ACA:  MOVLB  0
09ACC:  CALL   4CC6
09AD0:  MOVLW  E4
09AD2:  MOVWF  FF6
09AD4:  MOVLW  08
09AD6:  MOVWF  FF7
09AD8:  MOVLW  00
09ADA:  MOVWF  FF8
09ADC:  MOVLW  09
09ADE:  MOVLB  4
09AE0:  MOVWF  x50
09AE2:  MOVLB  0
09AE4:  CALL   4B26
09AE8:  MOVFF  3AB,450
09AEC:  MOVLW  01
09AEE:  MOVLB  4
09AF0:  MOVWF  x51
09AF2:  MOVLB  0
09AF4:  CALL   4B84
09AF8:  MOVLW  2F
09AFA:  BTFSS  F9E.4
09AFC:  BRA    9AFA
09AFE:  MOVWF  FAD
09B00:  MOVFF  3AA,450
09B04:  MOVLW  01
09B06:  MOVLB  4
09B08:  MOVWF  x51
09B0A:  MOVLB  0
09B0C:  CALL   4B84
09B10:  MOVLW  2F
09B12:  BTFSS  F9E.4
09B14:  BRA    9B12
09B16:  MOVWF  FAD
09B18:  MOVLW  32
09B1A:  BTFSS  F9E.4
09B1C:  BRA    9B1A
09B1E:  MOVWF  FAD
09B20:  MOVLW  30
09B22:  BTFSS  F9E.4
09B24:  BRA    9B22
09B26:  MOVWF  FAD
09B28:  MOVFF  3A9,450
09B2C:  MOVLW  01
09B2E:  MOVLB  4
09B30:  MOVWF  x51
09B32:  MOVLB  0
09B34:  CALL   4B84
09B38:  MOVLW  FD
09B3A:  MOVWF  FF6
09B3C:  MOVLW  08
09B3E:  MOVWF  FF7
09B40:  MOVLW  00
09B42:  MOVWF  FF8
09B44:  MOVLW  07
09B46:  MOVLB  4
09B48:  MOVWF  x50
09B4A:  MOVLB  0
09B4C:  CALL   4B26
09B50:  MOVFF  3AC,450
09B54:  MOVLW  01
09B56:  MOVLB  4
09B58:  MOVWF  x51
09B5A:  MOVLB  0
09B5C:  CALL   4B84
09B60:  MOVLW  3A
09B62:  BTFSS  F9E.4
09B64:  BRA    9B62
09B66:  MOVWF  FAD
09B68:  MOVFF  3AD,450
09B6C:  MOVLW  01
09B6E:  MOVLB  4
09B70:  MOVWF  x51
09B72:  MOVLB  0
09B74:  CALL   4B84
09B78:  MOVLW  3A
09B7A:  BTFSS  F9E.4
09B7C:  BRA    9B7A
09B7E:  MOVWF  FAD
09B80:  MOVFF  3AE,450
09B84:  MOVLW  01
09B86:  MOVLB  4
09B88:  MOVWF  x51
09B8A:  MOVLB  0
09B8C:  CALL   4B84
09B90:  MOVLW  22
09B92:  BTFSS  F9E.4
09B94:  BRA    9B92
09B96:  MOVWF  FAD
....................       SendDataDisplay(); 
09B98:  CALL   3BE4
....................       PruebaEstados=OFF; 
09B9C:  BCF    xA1.4
....................       GuardaEEPROM=OFF; 
09B9E:  BCF    xA2.6
....................       if(RX_Buffer[3]==0x0f || UP){//0f, recibe caracteres ingresados desde el Display 
09BA0:  MOVF   33,W
09BA2:  SUBLW  0F
09BA4:  BZ    9BAC
09BA6:  BSF    F93.0
09BA8:  BTFSC  F81.0
09BAA:  BRA    9E30
....................          delay_ms(5); 
09BAC:  MOVLW  05
09BAE:  MOVLB  4
09BB0:  MOVWF  x63
09BB2:  MOVLB  0
09BB4:  CALL   1A6C
....................          if(RX_Buffer[3]==0x0f || UP){ 
09BB8:  MOVF   33,W
09BBA:  SUBLW  0F
09BBC:  BZ    9BC4
09BBE:  BSF    F93.0
09BC0:  BTFSC  F81.0
09BC2:  BRA    9E2A
....................          if(PantallaPrincipal==0){//Si esta en menu principal 
09BC4:  MOVLB  2
09BC6:  MOVF   xDD,F
09BC8:  BTFSS  FD8.2
09BCA:  BRA    9E2E
....................             if(RX_Buffer[4]==0x37){//Ajustes y pasa a solicitud de password de tecnico 
09BCC:  MOVF   34,W
09BCE:  SUBLW  37
09BD0:  BNZ   9BFE
....................                printf("page Clave"); 
09BD2:  MOVLW  14
09BD4:  MOVWF  FF6
09BD6:  MOVLW  09
09BD8:  MOVWF  FF7
09BDA:  MOVLW  00
09BDC:  MOVWF  FF8
09BDE:  MOVLB  0
09BE0:  CALL   3BB2
....................                SendDataDisplay();  
09BE4:  CALL   3BE4
....................                Op=OFF; 
09BE8:  BCF    xA2.2
....................                Op2=OFF; 
09BEA:  BCF    xA2.3
....................                MenuAnt=Menu; 
09BEC:  MOVFF  35C,35D
....................                TipoClave=1; 
09BF0:  MOVLW  01
09BF2:  MOVLB  2
09BF4:  MOVWF  xDE
....................                RX_Buffer[3]=0x00; 
09BF6:  CLRF   33
....................                RX_Buffer2[3]=0x00; 
09BF8:  CLRF   3E
....................                Opcion=0; 
09BFA:  MOVLB  3
09BFC:  CLRF   x63
....................             }if(Opcion==9){// Datos Ciclo 
09BFE:  MOVLB  3
09C00:  MOVF   x63,W
09C02:  SUBLW  09
09C04:  BNZ   9C30
....................                printf("page Ciclos"); 
09C06:  MOVLW  20
09C08:  MOVWF  FF6
09C0A:  MOVLW  09
09C0C:  MOVWF  FF7
09C0E:  MOVLW  00
09C10:  MOVWF  FF8
09C12:  MOVLB  0
09C14:  CALL   3BB2
....................                SendDataDisplay();  
09C18:  CALL   3BE4
....................                Op=OFF; 
09C1C:  BCF    xA2.2
....................                Op2=OFF; 
09C1E:  BCF    xA2.3
....................                MenuAnt=Menu; 
09C20:  MOVFF  35C,35D
....................                RX_Buffer[3]=0x00; 
09C24:  CLRF   33
....................                RX_Buffer2[3]=0x00; 
09C26:  CLRF   3E
....................                Opcion=1; 
09C28:  MOVLW  01
09C2A:  MOVLB  3
09C2C:  MOVWF  x63
....................             }else if(Opcion==8){// Cambio de Clave 
09C2E:  BRA    9E2C
09C30:  MOVF   x63,W
09C32:  SUBLW  08
09C34:  BNZ   9C64
....................                printf("page Clave"); 
09C36:  MOVLW  2C
09C38:  MOVWF  FF6
09C3A:  MOVLW  09
09C3C:  MOVWF  FF7
09C3E:  MOVLW  00
09C40:  MOVWF  FF8
09C42:  MOVLB  0
09C44:  CALL   3BB2
....................                SendDataDisplay();  
09C48:  CALL   3BE4
....................                Op=OFF; 
09C4C:  BCF    xA2.2
....................                Op2=OFF; 
09C4E:  BCF    xA2.3
....................                MenuAnt=Menu; 
09C50:  MOVFF  35C,35D
....................                TipoClave=2; 
09C54:  MOVLW  02
09C56:  MOVLB  2
09C58:  MOVWF  xDE
....................                RX_Buffer[3]=0x00; 
09C5A:  CLRF   33
....................                RX_Buffer2[3]=0x00; 
09C5C:  CLRF   3E
....................                Opcion=0; 
09C5E:  MOVLB  3
09C60:  CLRF   x63
....................             }else if(Opcion==7){//Hora y Fecha 
09C62:  BRA    9E2C
09C64:  MOVF   x63,W
09C66:  SUBLW  07
09C68:  BNZ   9CA6
....................                printf("page Fecha"); 
09C6A:  MOVLW  38
09C6C:  MOVWF  FF6
09C6E:  MOVLW  09
09C70:  MOVWF  FF7
09C72:  MOVLW  00
09C74:  MOVWF  FF8
09C76:  MOVLB  0
09C78:  CALL   3BB2
....................                SendDataDisplay();      
09C7C:  CALL   3BE4
....................                PantallaPrincipal=0; 
09C80:  MOVLB  2
09C82:  CLRF   xDD
....................                MenuAnt=Menu; 
09C84:  MOVFF  35C,35D
....................                Op=OFF; 
09C88:  MOVLB  0
09C8A:  BCF    xA2.2
....................                Op2=OFF; 
09C8C:  BCF    xA2.3
....................                DiaTx=Dia; 
09C8E:  MOVFF  3AB,3B2
....................                MesTx=Mes; 
09C92:  MOVFF  3AA,3B1
....................                YearTx=Year; 
09C96:  MOVFF  3A9,3B0
....................                HoraTx=Hora; 
09C9A:  MOVFF  3AC,3B3
....................                MinutoTx=Minuto; 
09C9E:  MOVFF  3AD,3B4
....................             }else if(Opcion==6){//Test 
09CA2:  BRA    9E2A
09CA4:  MOVLB  3
09CA6:  MOVF   x63,W
09CA8:  SUBLW  06
09CAA:  BNZ   9CD4
....................                printf("page Test"); 
09CAC:  MOVLW  44
09CAE:  MOVWF  FF6
09CB0:  MOVLW  09
09CB2:  MOVWF  FF7
09CB4:  MOVLW  00
09CB6:  MOVWF  FF8
09CB8:  MOVLB  0
09CBA:  CALL   3BB2
....................                SendDataDisplay();      
09CBE:  CALL   3BE4
....................                PantallaPrincipal=0; 
09CC2:  MOVLB  2
09CC4:  CLRF   xDD
....................                MenuAnt=Menu; 
09CC6:  MOVFF  35C,35D
....................                Op=OFF; 
09CCA:  MOVLB  0
09CCC:  BCF    xA2.2
....................                Op2=OFF; 
09CCE:  BCF    xA2.3
....................             }else if(Opcion==5){//Ciclo Personalizado 
09CD0:  BRA    9E2A
09CD2:  MOVLB  3
09CD4:  MOVF   x63,W
09CD6:  SUBLW  05
09CD8:  BNZ   9CFC
....................                printf("page CicloPersona"); 
09CDA:  MOVLW  4E
09CDC:  MOVWF  FF6
09CDE:  MOVLW  09
09CE0:  MOVWF  FF7
09CE2:  MOVLW  00
09CE4:  MOVWF  FF8
09CE6:  MOVLB  0
09CE8:  CALL   3BB2
....................                SendDataDisplay();  
09CEC:  CALL   3BE4
....................                MenuAnt=Menu; 
09CF0:  MOVFF  35C,35D
....................                Op=OFF; 
09CF4:  BCF    xA2.2
....................                Op2=OFF; 
09CF6:  BCF    xA2.3
....................             }else if(Opcion==4){//LiquidosB 
09CF8:  BRA    9E2A
09CFA:  MOVLB  3
09CFC:  MOVF   x63,W
09CFE:  SUBLW  04
09D00:  BNZ   9D4A
....................                printf("page Nivel"); 
09D02:  MOVLW  60
09D04:  MOVWF  FF6
09D06:  MOVLW  09
09D08:  MOVWF  FF7
09D0A:  MOVLW  00
09D0C:  MOVWF  FF8
09D0E:  MOVLB  0
09D10:  CALL   3BB2
....................                SendDataDisplay();        
09D14:  CALL   3BE4
....................                ConfiguraCiclo(0,0,0,3,0,0,0,0,1,4,121); 
09D18:  MOVLB  4
09D1A:  CLRF   x54
09D1C:  CLRF   x55
09D1E:  CLRF   x56
09D20:  MOVLW  03
09D22:  MOVWF  x57
09D24:  CLRF   x58
09D26:  CLRF   x59
09D28:  CLRF   x5A
09D2A:  CLRF   x5B
09D2C:  MOVLW  01
09D2E:  MOVWF  x5C
09D30:  MOVLW  04
09D32:  MOVWF  x5D
09D34:  MOVLW  79
09D36:  MOVWF  x5E
09D38:  MOVLB  0
09D3A:  CALL   546C
....................                Op=OFF; 
09D3E:  BCF    xA2.2
....................                Op2=OFF; 
09D40:  BCF    xA2.3
....................                MenuAnt=2; 
09D42:  MOVLW  02
09D44:  MOVLB  3
09D46:  MOVWF  x5D
....................             }else if(Opcion==1){//LiquidosA 
09D48:  BRA    9E2C
09D4A:  DECFSZ x63,W
09D4C:  BRA    9D94
....................                printf("page Nivel"); 
09D4E:  MOVLW  6C
09D50:  MOVWF  FF6
09D52:  MOVLW  09
09D54:  MOVWF  FF7
09D56:  MOVLW  00
09D58:  MOVWF  FF8
09D5A:  MOVLB  0
09D5C:  CALL   3BB2
....................                SendDataDisplay();        
09D60:  CALL   3BE4
....................                ConfiguraCiclo(0,0,5,1,0,0,0,0,1,1,121); 
09D64:  MOVLB  4
09D66:  CLRF   x54
09D68:  CLRF   x55
09D6A:  MOVLW  05
09D6C:  MOVWF  x56
09D6E:  MOVLW  01
09D70:  MOVWF  x57
09D72:  CLRF   x58
09D74:  CLRF   x59
09D76:  CLRF   x5A
09D78:  CLRF   x5B
09D7A:  MOVWF  x5C
09D7C:  MOVWF  x5D
09D7E:  MOVLW  79
09D80:  MOVWF  x5E
09D82:  MOVLB  0
09D84:  CALL   546C
....................                Op=OFF; 
09D88:  BCF    xA2.2
....................                Op2=OFF; 
09D8A:  BCF    xA2.3
....................                MenuAnt=2; 
09D8C:  MOVLW  02
09D8E:  MOVLB  3
09D90:  MOVWF  x5D
....................             }else if(Opcion==3){//Instrumental 
09D92:  BRA    9E2C
09D94:  MOVF   x63,W
09D96:  SUBLW  03
09D98:  BNZ   9DDE
....................                printf("page Funcionamiento"); 
09D9A:  MOVLW  78
09D9C:  MOVWF  FF6
09D9E:  MOVLW  09
09DA0:  MOVWF  FF7
09DA2:  MOVLW  00
09DA4:  MOVWF  FF8
09DA6:  MOVLB  0
09DA8:  CALL   3BB2
....................                SendDataDisplay();        
09DAC:  CALL   3BE4
....................                ConfiguraCiclo(0,0,0,3,0,0,0,3,0,3,121); 
09DB0:  MOVLB  4
09DB2:  CLRF   x54
09DB4:  CLRF   x55
09DB6:  CLRF   x56
09DB8:  MOVLW  03
09DBA:  MOVWF  x57
09DBC:  CLRF   x58
09DBE:  CLRF   x59
09DC0:  CLRF   x5A
09DC2:  MOVWF  x5B
09DC4:  CLRF   x5C
09DC6:  MOVWF  x5D
09DC8:  MOVLW  79
09DCA:  MOVWF  x5E
09DCC:  MOVLB  0
09DCE:  CALL   546C
....................                Op=OFF; 
09DD2:  BCF    xA2.2
....................                Op2=OFF; 
09DD4:  BCF    xA2.3
....................                MenuAnt=Menu; 
09DD6:  MOVFF  35C,35D
....................                //if(Temperatura>60)TTrampa=TTrampa+5; 
....................             }else if(Opcion==2){//Caucho 
09DDA:  BRA    9E2A
09DDC:  MOVLB  3
09DDE:  MOVF   x63,W
09DE0:  SUBLW  02
09DE2:  BNZ   9E2C
....................                printf("page Funcionamiento"); 
09DE4:  MOVLW  8C
09DE6:  MOVWF  FF6
09DE8:  MOVLW  09
09DEA:  MOVWF  FF7
09DEC:  MOVLW  00
09DEE:  MOVWF  FF8
09DF0:  MOVLB  0
09DF2:  CALL   3BB2
....................                SendDataDisplay();        
09DF6:  CALL   3BE4
....................                ConfiguraCiclo(0,0,5,1,0,0,3,0,0,2,121); 
09DFA:  MOVLB  4
09DFC:  CLRF   x54
09DFE:  CLRF   x55
09E00:  MOVLW  05
09E02:  MOVWF  x56
09E04:  MOVLW  01
09E06:  MOVWF  x57
09E08:  CLRF   x58
09E0A:  CLRF   x59
09E0C:  MOVLW  03
09E0E:  MOVWF  x5A
09E10:  CLRF   x5B
09E12:  CLRF   x5C
09E14:  MOVLW  02
09E16:  MOVWF  x5D
09E18:  MOVLW  79
09E1A:  MOVWF  x5E
09E1C:  MOVLB  0
09E1E:  CALL   546C
....................                Op=OFF; 
09E22:  BCF    xA2.2
....................                Op2=OFF; 
09E24:  BCF    xA2.3
....................                MenuAnt=Menu; 
09E26:  MOVFF  35C,35D
09E2A:  MOVLB  3
09E2C:  MOVLB  2
....................                //if(Temperatura>60)TTrampa=TTrampa+5; 
....................             } 
....................          } 
....................          } 
....................       }else if(PantallaPrincipal==0){ 
09E2E:  BRA    A42A
09E30:  MOVLB  2
09E32:  MOVF   xDD,F
09E34:  BTFSS  FD8.2
09E36:  BRA    A42A
....................          if(Opcion>sizeof(iconoGrande)) 
09E38:  MOVLB  3
09E3A:  MOVF   x63,W
09E3C:  SUBLW  09
09E3E:  BC    9E44
....................             Opcion=1; 
09E40:  MOVLW  01
09E42:  MOVWF  x63
....................              
....................          if(Opcion<1) 
09E44:  MOVF   x63,F
09E46:  BNZ   9E4C
....................             Opcion=sizeof(iconoGrande); 
09E48:  MOVLW  09
09E4A:  MOVWF  x63
....................           
....................          if(Opcion==1){ 
09E4C:  DECFSZ x63,W
09E4E:  BRA    9FFC
....................             printf("bc.pic=%u",iconoGrande[Opcion-1]); 
09E50:  MOVLW  01
09E52:  SUBWF  x63,W
09E54:  CLRF   03
09E56:  ADDLW  BE
09E58:  MOVWF  FE9
09E5A:  MOVLW  03
09E5C:  ADDWFC 03,W
09E5E:  MOVWF  FEA
09E60:  MOVFF  FEF,44A
09E64:  MOVLW  A0
09E66:  MOVWF  FF6
09E68:  MOVLW  09
09E6A:  MOVWF  FF7
09E6C:  MOVLW  00
09E6E:  MOVWF  FF8
09E70:  MOVLW  07
09E72:  MOVLB  4
09E74:  MOVWF  x50
09E76:  MOVLB  0
09E78:  CALL   4B26
09E7C:  MOVFF  44A,450
09E80:  MOVLW  1B
09E82:  MOVLB  4
09E84:  MOVWF  x51
09E86:  MOVLB  0
09E88:  CALL   4B84
....................             SendDataDisplay(); 
09E8C:  CALL   3BE4
....................             printf("bd.pic=%u",iconoPeque[Opcion]); 
09E90:  CLRF   03
09E92:  MOVLB  3
09E94:  MOVF   x63,W
09E96:  ADDLW  C7
09E98:  MOVWF  FE9
09E9A:  MOVLW  03
09E9C:  ADDWFC 03,W
09E9E:  MOVWF  FEA
09EA0:  MOVFF  FEF,44A
09EA4:  MOVLW  AA
09EA6:  MOVWF  FF6
09EA8:  MOVLW  09
09EAA:  MOVWF  FF7
09EAC:  MOVLW  00
09EAE:  MOVWF  FF8
09EB0:  MOVLW  07
09EB2:  MOVLB  4
09EB4:  MOVWF  x50
09EB6:  MOVLB  0
09EB8:  CALL   4B26
09EBC:  MOVFF  44A,450
09EC0:  MOVLW  1B
09EC2:  MOVLB  4
09EC4:  MOVWF  x51
09EC6:  MOVLB  0
09EC8:  CALL   4B84
....................             SendDataDisplay(); 
09ECC:  CALL   3BE4
....................             printf("bi.pic=%u",iconoPeque[sizeof(iconoGrande)-1]); 
09ED0:  MOVLW  B4
09ED2:  MOVWF  FF6
09ED4:  MOVLW  09
09ED6:  MOVWF  FF7
09ED8:  MOVLW  00
09EDA:  MOVWF  FF8
09EDC:  MOVLW  07
09EDE:  MOVLB  4
09EE0:  MOVWF  x50
09EE2:  MOVLB  0
09EE4:  CALL   4B26
09EE8:  MOVFF  3CF,450
09EEC:  MOVLW  1B
09EEE:  MOVLB  4
09EF0:  MOVWF  x51
09EF2:  MOVLB  0
09EF4:  CALL   4B84
....................             SendDataDisplay(); 
09EF8:  CALL   3BE4
....................             printf("bc.pic2=%u",iconoGrande[Opcion-1]); 
09EFC:  MOVLW  01
09EFE:  MOVLB  3
09F00:  SUBWF  x63,W
09F02:  CLRF   03
09F04:  ADDLW  BE
09F06:  MOVWF  FE9
09F08:  MOVLW  03
09F0A:  ADDWFC 03,W
09F0C:  MOVWF  FEA
09F0E:  MOVFF  FEF,44A
09F12:  MOVLW  BE
09F14:  MOVWF  FF6
09F16:  MOVLW  09
09F18:  MOVWF  FF7
09F1A:  MOVLW  00
09F1C:  MOVWF  FF8
09F1E:  MOVLW  08
09F20:  MOVLB  4
09F22:  MOVWF  x50
09F24:  MOVLB  0
09F26:  CALL   4B26
09F2A:  MOVFF  44A,450
09F2E:  MOVLW  1B
09F30:  MOVLB  4
09F32:  MOVWF  x51
09F34:  MOVLB  0
09F36:  CALL   4B84
....................             SendDataDisplay(); 
09F3A:  CALL   3BE4
....................             printf("bd.pic2=%u",iconoPeque[Opcion]); 
09F3E:  CLRF   03
09F40:  MOVLB  3
09F42:  MOVF   x63,W
09F44:  ADDLW  C7
09F46:  MOVWF  FE9
09F48:  MOVLW  03
09F4A:  ADDWFC 03,W
09F4C:  MOVWF  FEA
09F4E:  MOVFF  FEF,44A
09F52:  MOVLW  CA
09F54:  MOVWF  FF6
09F56:  MOVLW  09
09F58:  MOVWF  FF7
09F5A:  MOVLW  00
09F5C:  MOVWF  FF8
09F5E:  MOVLW  08
09F60:  MOVLB  4
09F62:  MOVWF  x50
09F64:  MOVLB  0
09F66:  CALL   4B26
09F6A:  MOVFF  44A,450
09F6E:  MOVLW  1B
09F70:  MOVLB  4
09F72:  MOVWF  x51
09F74:  MOVLB  0
09F76:  CALL   4B84
....................             SendDataDisplay(); 
09F7A:  CALL   3BE4
....................             printf("bi.pic2=%u",iconoPeque[sizeof(iconoGrande)-1]); 
09F7E:  MOVLW  D6
09F80:  MOVWF  FF6
09F82:  MOVLW  09
09F84:  MOVWF  FF7
09F86:  MOVLW  00
09F88:  MOVWF  FF8
09F8A:  MOVLW  08
09F8C:  MOVLB  4
09F8E:  MOVWF  x50
09F90:  MOVLB  0
09F92:  CALL   4B26
09F96:  MOVFF  3CF,450
09F9A:  MOVLW  1B
09F9C:  MOVLB  4
09F9E:  MOVWF  x51
09FA0:  MOVLB  0
09FA2:  CALL   4B84
....................             SendDataDisplay(); 
09FA6:  CALL   3BE4
....................             printf("textop.txt=\"%s\"",texto[Opcion-1]); 
09FAA:  MOVLW  01
09FAC:  MOVLB  3
09FAE:  SUBWF  x63,W
09FB0:  MULLW  14
09FB2:  MOVF   FF3,W
09FB4:  CLRF   03
09FB6:  MOVLB  4
09FB8:  MOVWF  x4A
09FBA:  MOVLW  E2
09FBC:  MOVWF  FF6
09FBE:  MOVLW  09
09FC0:  MOVWF  FF7
09FC2:  MOVLW  00
09FC4:  MOVWF  FF8
09FC6:  MOVLW  0C
09FC8:  MOVWF  x50
09FCA:  MOVLB  0
09FCC:  CALL   4B26
09FD0:  MOVLW  50
09FD2:  MOVWF  FF6
09FD4:  MOVLW  01
09FD6:  MOVWF  FF7
09FD8:  MOVLW  00
09FDA:  MOVWF  FF8
09FDC:  MOVLB  4
09FDE:  MOVF   x4A,W
09FE0:  ADDWF  FF6,F
09FE2:  MOVLW  00
09FE4:  ADDWFC FF7,F
09FE6:  MOVLB  0
09FE8:  CALL   3BB2
09FEC:  MOVLW  22
09FEE:  BTFSS  F9E.4
09FF0:  BRA    9FEE
09FF2:  MOVWF  FAD
....................             SendDataDisplay(); 
09FF4:  CALL   3BE4
....................          }else if(Opcion==sizeof(iconoGrande)){ 
09FF8:  BRA    A388
09FFA:  MOVLB  3
09FFC:  MOVF   x63,W
09FFE:  SUBLW  09
0A000:  BTFSS  FD8.2
0A002:  BRA    A1B4
....................             printf("bc.pic=%u",iconoGrande[Opcion-1]); 
0A004:  MOVLW  01
0A006:  SUBWF  x63,W
0A008:  CLRF   03
0A00A:  ADDLW  BE
0A00C:  MOVWF  FE9
0A00E:  MOVLW  03
0A010:  ADDWFC 03,W
0A012:  MOVWF  FEA
0A014:  MOVFF  FEF,44A
0A018:  MOVLW  F2
0A01A:  MOVWF  FF6
0A01C:  MOVLW  09
0A01E:  MOVWF  FF7
0A020:  MOVLW  00
0A022:  MOVWF  FF8
0A024:  MOVLW  07
0A026:  MOVLB  4
0A028:  MOVWF  x50
0A02A:  MOVLB  0
0A02C:  CALL   4B26
0A030:  MOVFF  44A,450
0A034:  MOVLW  1B
0A036:  MOVLB  4
0A038:  MOVWF  x51
0A03A:  MOVLB  0
0A03C:  CALL   4B84
....................             SendDataDisplay(); 
0A040:  CALL   3BE4
....................             printf("bd.pic=%u",iconoPeque[0]); 
0A044:  MOVLW  FC
0A046:  MOVWF  FF6
0A048:  MOVLW  09
0A04A:  MOVWF  FF7
0A04C:  MOVLW  00
0A04E:  MOVWF  FF8
0A050:  MOVLW  07
0A052:  MOVLB  4
0A054:  MOVWF  x50
0A056:  MOVLB  0
0A058:  CALL   4B26
0A05C:  MOVFF  3C7,450
0A060:  MOVLW  1B
0A062:  MOVLB  4
0A064:  MOVWF  x51
0A066:  MOVLB  0
0A068:  CALL   4B84
....................             SendDataDisplay(); 
0A06C:  CALL   3BE4
....................             printf("bi.pic=%u",iconoPeque[Opcion-2]); 
0A070:  MOVLW  02
0A072:  MOVLB  3
0A074:  SUBWF  x63,W
0A076:  CLRF   03
0A078:  ADDLW  C7
0A07A:  MOVWF  FE9
0A07C:  MOVLW  03
0A07E:  ADDWFC 03,W
0A080:  MOVWF  FEA
0A082:  MOVFF  FEF,44A
0A086:  MOVLW  06
0A088:  MOVWF  FF6
0A08A:  MOVLW  0A
0A08C:  MOVWF  FF7
0A08E:  MOVLW  00
0A090:  MOVWF  FF8
0A092:  MOVLW  07
0A094:  MOVLB  4
0A096:  MOVWF  x50
0A098:  MOVLB  0
0A09A:  CALL   4B26
0A09E:  MOVFF  44A,450
0A0A2:  MOVLW  1B
0A0A4:  MOVLB  4
0A0A6:  MOVWF  x51
0A0A8:  MOVLB  0
0A0AA:  CALL   4B84
....................             SendDataDisplay(); 
0A0AE:  CALL   3BE4
....................             printf("bc.pic2=%u",iconoGrande[Opcion-1]); 
0A0B2:  MOVLW  01
0A0B4:  MOVLB  3
0A0B6:  SUBWF  x63,W
0A0B8:  CLRF   03
0A0BA:  ADDLW  BE
0A0BC:  MOVWF  FE9
0A0BE:  MOVLW  03
0A0C0:  ADDWFC 03,W
0A0C2:  MOVWF  FEA
0A0C4:  MOVFF  FEF,44A
0A0C8:  MOVLW  10
0A0CA:  MOVWF  FF6
0A0CC:  MOVLW  0A
0A0CE:  MOVWF  FF7
0A0D0:  MOVLW  00
0A0D2:  MOVWF  FF8
0A0D4:  MOVLW  08
0A0D6:  MOVLB  4
0A0D8:  MOVWF  x50
0A0DA:  MOVLB  0
0A0DC:  CALL   4B26
0A0E0:  MOVFF  44A,450
0A0E4:  MOVLW  1B
0A0E6:  MOVLB  4
0A0E8:  MOVWF  x51
0A0EA:  MOVLB  0
0A0EC:  CALL   4B84
....................             SendDataDisplay(); 
0A0F0:  CALL   3BE4
....................             printf("bd.pic2=%u",iconoPeque[0]); 
0A0F4:  MOVLW  1C
0A0F6:  MOVWF  FF6
0A0F8:  MOVLW  0A
0A0FA:  MOVWF  FF7
0A0FC:  MOVLW  00
0A0FE:  MOVWF  FF8
0A100:  MOVLW  08
0A102:  MOVLB  4
0A104:  MOVWF  x50
0A106:  MOVLB  0
0A108:  CALL   4B26
0A10C:  MOVFF  3C7,450
0A110:  MOVLW  1B
0A112:  MOVLB  4
0A114:  MOVWF  x51
0A116:  MOVLB  0
0A118:  CALL   4B84
....................             SendDataDisplay(); 
0A11C:  CALL   3BE4
....................             printf("bi.pic2=%u",iconoPeque[Opcion-2]); 
0A120:  MOVLW  02
0A122:  MOVLB  3
0A124:  SUBWF  x63,W
0A126:  CLRF   03
0A128:  ADDLW  C7
0A12A:  MOVWF  FE9
0A12C:  MOVLW  03
0A12E:  ADDWFC 03,W
0A130:  MOVWF  FEA
0A132:  MOVFF  FEF,44A
0A136:  MOVLW  28
0A138:  MOVWF  FF6
0A13A:  MOVLW  0A
0A13C:  MOVWF  FF7
0A13E:  MOVLW  00
0A140:  MOVWF  FF8
0A142:  MOVLW  08
0A144:  MOVLB  4
0A146:  MOVWF  x50
0A148:  MOVLB  0
0A14A:  CALL   4B26
0A14E:  MOVFF  44A,450
0A152:  MOVLW  1B
0A154:  MOVLB  4
0A156:  MOVWF  x51
0A158:  MOVLB  0
0A15A:  CALL   4B84
....................             SendDataDisplay(); 
0A15E:  CALL   3BE4
....................             printf("textop.txt=\"%s\"",texto[Opcion-1]); 
0A162:  MOVLW  01
0A164:  MOVLB  3
0A166:  SUBWF  x63,W
0A168:  MULLW  14
0A16A:  MOVF   FF3,W
0A16C:  CLRF   03
0A16E:  MOVLB  4
0A170:  MOVWF  x4A
0A172:  MOVLW  34
0A174:  MOVWF  FF6
0A176:  MOVLW  0A
0A178:  MOVWF  FF7
0A17A:  MOVLW  00
0A17C:  MOVWF  FF8
0A17E:  MOVLW  0C
0A180:  MOVWF  x50
0A182:  MOVLB  0
0A184:  CALL   4B26
0A188:  MOVLW  50
0A18A:  MOVWF  FF6
0A18C:  MOVLW  01
0A18E:  MOVWF  FF7
0A190:  MOVLW  00
0A192:  MOVWF  FF8
0A194:  MOVLB  4
0A196:  MOVF   x4A,W
0A198:  ADDWF  FF6,F
0A19A:  MOVLW  00
0A19C:  ADDWFC FF7,F
0A19E:  MOVLB  0
0A1A0:  CALL   3BB2
0A1A4:  MOVLW  22
0A1A6:  BTFSS  F9E.4
0A1A8:  BRA    A1A6
0A1AA:  MOVWF  FAD
....................             SendDataDisplay(); 
0A1AC:  CALL   3BE4
....................          }else{ 
0A1B0:  BRA    A388
0A1B2:  MOVLB  3
....................             printf("bc.pic=%u",iconoGrande[Opcion-1]); 
0A1B4:  MOVLW  01
0A1B6:  SUBWF  x63,W
0A1B8:  CLRF   03
0A1BA:  ADDLW  BE
0A1BC:  MOVWF  FE9
0A1BE:  MOVLW  03
0A1C0:  ADDWFC 03,W
0A1C2:  MOVWF  FEA
0A1C4:  MOVFF  FEF,44A
0A1C8:  MOVLW  44
0A1CA:  MOVWF  FF6
0A1CC:  MOVLW  0A
0A1CE:  MOVWF  FF7
0A1D0:  MOVLW  00
0A1D2:  MOVWF  FF8
0A1D4:  MOVLW  07
0A1D6:  MOVLB  4
0A1D8:  MOVWF  x50
0A1DA:  MOVLB  0
0A1DC:  CALL   4B26
0A1E0:  MOVFF  44A,450
0A1E4:  MOVLW  1B
0A1E6:  MOVLB  4
0A1E8:  MOVWF  x51
0A1EA:  MOVLB  0
0A1EC:  CALL   4B84
....................             SendDataDisplay(); 
0A1F0:  CALL   3BE4
....................             printf("bd.pic=%u",iconoPeque[Opcion]); 
0A1F4:  CLRF   03
0A1F6:  MOVLB  3
0A1F8:  MOVF   x63,W
0A1FA:  ADDLW  C7
0A1FC:  MOVWF  FE9
0A1FE:  MOVLW  03
0A200:  ADDWFC 03,W
0A202:  MOVWF  FEA
0A204:  MOVFF  FEF,44A
0A208:  MOVLW  4E
0A20A:  MOVWF  FF6
0A20C:  MOVLW  0A
0A20E:  MOVWF  FF7
0A210:  MOVLW  00
0A212:  MOVWF  FF8
0A214:  MOVLW  07
0A216:  MOVLB  4
0A218:  MOVWF  x50
0A21A:  MOVLB  0
0A21C:  CALL   4B26
0A220:  MOVFF  44A,450
0A224:  MOVLW  1B
0A226:  MOVLB  4
0A228:  MOVWF  x51
0A22A:  MOVLB  0
0A22C:  CALL   4B84
....................             SendDataDisplay(); 
0A230:  CALL   3BE4
....................             printf("bi.pic=%u",iconoPeque[Opcion-2]); 
0A234:  MOVLW  02
0A236:  MOVLB  3
0A238:  SUBWF  x63,W
0A23A:  CLRF   03
0A23C:  ADDLW  C7
0A23E:  MOVWF  FE9
0A240:  MOVLW  03
0A242:  ADDWFC 03,W
0A244:  MOVWF  FEA
0A246:  MOVFF  FEF,44A
0A24A:  MOVLW  58
0A24C:  MOVWF  FF6
0A24E:  MOVLW  0A
0A250:  MOVWF  FF7
0A252:  MOVLW  00
0A254:  MOVWF  FF8
0A256:  MOVLW  07
0A258:  MOVLB  4
0A25A:  MOVWF  x50
0A25C:  MOVLB  0
0A25E:  CALL   4B26
0A262:  MOVFF  44A,450
0A266:  MOVLW  1B
0A268:  MOVLB  4
0A26A:  MOVWF  x51
0A26C:  MOVLB  0
0A26E:  CALL   4B84
....................             SendDataDisplay(); 
0A272:  CALL   3BE4
....................             printf("bc.pic2=%u",iconoGrande[Opcion-1]); 
0A276:  MOVLW  01
0A278:  MOVLB  3
0A27A:  SUBWF  x63,W
0A27C:  CLRF   03
0A27E:  ADDLW  BE
0A280:  MOVWF  FE9
0A282:  MOVLW  03
0A284:  ADDWFC 03,W
0A286:  MOVWF  FEA
0A288:  MOVFF  FEF,44A
0A28C:  MOVLW  62
0A28E:  MOVWF  FF6
0A290:  MOVLW  0A
0A292:  MOVWF  FF7
0A294:  MOVLW  00
0A296:  MOVWF  FF8
0A298:  MOVLW  08
0A29A:  MOVLB  4
0A29C:  MOVWF  x50
0A29E:  MOVLB  0
0A2A0:  CALL   4B26
0A2A4:  MOVFF  44A,450
0A2A8:  MOVLW  1B
0A2AA:  MOVLB  4
0A2AC:  MOVWF  x51
0A2AE:  MOVLB  0
0A2B0:  CALL   4B84
....................             SendDataDisplay(); 
0A2B4:  CALL   3BE4
....................             printf("bd.pic2=%u",iconoPeque[Opcion]); 
0A2B8:  CLRF   03
0A2BA:  MOVLB  3
0A2BC:  MOVF   x63,W
0A2BE:  ADDLW  C7
0A2C0:  MOVWF  FE9
0A2C2:  MOVLW  03
0A2C4:  ADDWFC 03,W
0A2C6:  MOVWF  FEA
0A2C8:  MOVFF  FEF,44A
0A2CC:  MOVLW  6E
0A2CE:  MOVWF  FF6
0A2D0:  MOVLW  0A
0A2D2:  MOVWF  FF7
0A2D4:  MOVLW  00
0A2D6:  MOVWF  FF8
0A2D8:  MOVLW  08
0A2DA:  MOVLB  4
0A2DC:  MOVWF  x50
0A2DE:  MOVLB  0
0A2E0:  CALL   4B26
0A2E4:  MOVFF  44A,450
0A2E8:  MOVLW  1B
0A2EA:  MOVLB  4
0A2EC:  MOVWF  x51
0A2EE:  MOVLB  0
0A2F0:  CALL   4B84
....................             SendDataDisplay(); 
0A2F4:  CALL   3BE4
....................             printf("bi.pic2=%u",iconoPeque[Opcion-2]); 
0A2F8:  MOVLW  02
0A2FA:  MOVLB  3
0A2FC:  SUBWF  x63,W
0A2FE:  CLRF   03
0A300:  ADDLW  C7
0A302:  MOVWF  FE9
0A304:  MOVLW  03
0A306:  ADDWFC 03,W
0A308:  MOVWF  FEA
0A30A:  MOVFF  FEF,44A
0A30E:  MOVLW  7A
0A310:  MOVWF  FF6
0A312:  MOVLW  0A
0A314:  MOVWF  FF7
0A316:  MOVLW  00
0A318:  MOVWF  FF8
0A31A:  MOVLW  08
0A31C:  MOVLB  4
0A31E:  MOVWF  x50
0A320:  MOVLB  0
0A322:  CALL   4B26
0A326:  MOVFF  44A,450
0A32A:  MOVLW  1B
0A32C:  MOVLB  4
0A32E:  MOVWF  x51
0A330:  MOVLB  0
0A332:  CALL   4B84
....................             SendDataDisplay(); 
0A336:  CALL   3BE4
....................             printf("textop.txt=\"%s\"",texto[Opcion-1]); 
0A33A:  MOVLW  01
0A33C:  MOVLB  3
0A33E:  SUBWF  x63,W
0A340:  MULLW  14
0A342:  MOVF   FF3,W
0A344:  CLRF   03
0A346:  MOVLB  4
0A348:  MOVWF  x4A
0A34A:  MOVLW  86
0A34C:  MOVWF  FF6
0A34E:  MOVLW  0A
0A350:  MOVWF  FF7
0A352:  MOVLW  00
0A354:  MOVWF  FF8
0A356:  MOVLW  0C
0A358:  MOVWF  x50
0A35A:  MOVLB  0
0A35C:  CALL   4B26
0A360:  MOVLW  50
0A362:  MOVWF  FF6
0A364:  MOVLW  01
0A366:  MOVWF  FF7
0A368:  MOVLW  00
0A36A:  MOVWF  FF8
0A36C:  MOVLB  4
0A36E:  MOVF   x4A,W
0A370:  ADDWF  FF6,F
0A372:  MOVLW  00
0A374:  ADDWFC FF7,F
0A376:  MOVLB  0
0A378:  CALL   3BB2
0A37C:  MOVLW  22
0A37E:  BTFSS  F9E.4
0A380:  BRA    A37E
0A382:  MOVWF  FAD
....................             SendDataDisplay(); 
0A384:  CALL   3BE4
....................          } 
....................           
....................          printf("ttitulo.txt=\"SELECCIONE SU CICLO\""); 
0A388:  MOVLW  96
0A38A:  MOVWF  FF6
0A38C:  MOVLW  0A
0A38E:  MOVWF  FF7
0A390:  MOVLW  00
0A392:  MOVWF  FF8
0A394:  CALL   3BB2
....................          SendDataDisplay(); 
0A398:  CALL   3BE4
....................           
....................          if(RIGHT){ 
0A39C:  BSF    F93.2
0A39E:  BTFSC  F81.2
0A3A0:  BRA    A3BA
....................             delay_ms(20); 
0A3A2:  MOVLW  14
0A3A4:  MOVLB  4
0A3A6:  MOVWF  x63
0A3A8:  MOVLB  0
0A3AA:  CALL   1A6C
....................             if(RIGHT){ 
0A3AE:  BSF    F93.2
0A3B0:  BTFSC  F81.2
0A3B2:  BRA    A3BA
....................                Opcion++; 
0A3B4:  MOVLB  3
0A3B6:  INCF   x63,F
0A3B8:  MOVLB  0
....................             } 
....................          } 
....................           
....................          if(LEFT){ 
0A3BA:  BSF    F93.3
0A3BC:  BTFSC  F81.3
0A3BE:  BRA    A3D8
....................             delay_ms(20); 
0A3C0:  MOVLW  14
0A3C2:  MOVLB  4
0A3C4:  MOVWF  x63
0A3C6:  MOVLB  0
0A3C8:  CALL   1A6C
....................             if(LEFT){ 
0A3CC:  BSF    F93.3
0A3CE:  BTFSC  F81.3
0A3D0:  BRA    A3D8
....................                Opcion--; 
0A3D2:  MOVLB  3
0A3D4:  DECF   x63,F
0A3D6:  MOVLB  0
....................             } 
....................          } 
....................           
....................          if(RX_Buffer[4]==0x0d && !Op){//Tecla Derecha Oprimida 
0A3D8:  MOVF   34,W
0A3DA:  SUBLW  0D
0A3DC:  BNZ   A3EC
0A3DE:  BTFSC  xA2.2
0A3E0:  BRA    A3EC
....................             Opcion++; 
0A3E2:  MOVLB  3
0A3E4:  INCF   x63,F
....................             RX_Buffer[4]=0x00; 
0A3E6:  CLRF   34
....................             Op=ON; 
0A3E8:  MOVLB  0
0A3EA:  BSF    xA2.2
....................             //BorraBuffer(); 
....................          } 
....................           
....................          if(RX_Buffer[4]==0x0c && Op){//Tecla Derecha Oprimida 
0A3EC:  MOVF   34,W
0A3EE:  SUBLW  0C
0A3F0:  BNZ   A400
0A3F2:  BTFSS  xA2.2
0A3F4:  BRA    A400
....................             Opcion++; 
0A3F6:  MOVLB  3
0A3F8:  INCF   x63,F
....................             RX_Buffer[4]=0x00; 
0A3FA:  CLRF   34
....................             Op=OFF; 
0A3FC:  MOVLB  0
0A3FE:  BCF    xA2.2
....................             //BorraBuffer(); 
....................          } 
....................           
....................          if(RX_Buffer[4]==0x0e && !Op2){//Tecla Izquierda Oprimida 
0A400:  MOVF   34,W
0A402:  SUBLW  0E
0A404:  BNZ   A414
0A406:  BTFSC  xA2.3
0A408:  BRA    A414
....................             Opcion--; 
0A40A:  MOVLB  3
0A40C:  DECF   x63,F
....................             RX_Buffer[4]=0x00; 
0A40E:  CLRF   34
....................             Op2=ON; 
0A410:  MOVLB  0
0A412:  BSF    xA2.3
....................             //BorraBuffer(); 
....................          } 
....................           
....................          if(RX_Buffer[4]==0x0f && Op2){//Tecla Izquierda Oprimida 
0A414:  MOVF   34,W
0A416:  SUBLW  0F
0A418:  BNZ   A428
0A41A:  BTFSS  xA2.3
0A41C:  BRA    A428
....................             Opcion--; 
0A41E:  MOVLB  3
0A420:  DECF   x63,F
....................             RX_Buffer[4]=0x00; 
0A422:  CLRF   34
....................             Op2=OFF; 
0A424:  MOVLB  0
0A426:  BCF    xA2.3
0A428:  MOVLB  2
....................             //BorraBuffer(); 
....................          } 
....................           
....................       } 
....................          if(RIGHT && LEFT){ 
0A42A:  BSF    F93.2
0A42C:  BTFSC  F81.2
0A42E:  BRA    A47C
0A430:  BSF    F93.3
0A432:  BTFSC  F81.3
0A434:  BRA    A47C
....................             delay_ms(20); 
0A436:  MOVLW  14
0A438:  MOVLB  4
0A43A:  MOVWF  x63
0A43C:  MOVLB  0
0A43E:  CALL   1A6C
....................             if(RIGHT && LEFT){ 
0A442:  BSF    F93.2
0A444:  BTFSC  F81.2
0A446:  BRA    A47A
0A448:  BSF    F93.3
0A44A:  BTFSC  F81.3
0A44C:  BRA    A47A
....................                printf("page Clave"); 
0A44E:  MOVLW  B8
0A450:  MOVWF  FF6
0A452:  MOVLW  0A
0A454:  MOVWF  FF7
0A456:  MOVLW  00
0A458:  MOVWF  FF8
0A45A:  CALL   3BB2
....................                SendDataDisplay();  
0A45E:  CALL   3BE4
....................                Op=OFF; 
0A462:  BCF    xA2.2
....................                Op2=OFF; 
0A464:  BCF    xA2.3
....................                MenuAnt=Menu; 
0A466:  MOVFF  35C,35D
....................                TipoClave=1; 
0A46A:  MOVLW  01
0A46C:  MOVLB  2
0A46E:  MOVWF  xDE
....................                RX_Buffer[3]=0x00; 
0A470:  CLRF   33
....................                RX_Buffer2[3]=0x00; 
0A472:  CLRF   3E
....................                Opcion=0; 
0A474:  MOVLB  3
0A476:  CLRF   x63
0A478:  MOVLB  0
0A47A:  MOVLB  2
....................             } 
....................          } 
....................    } 
.................... //_--------------------------------------------------------------------------------------------------------------------------------------------------------        
....................  
.................... //_-------------------------------------------------------------------------------------------------------------------------------------------------------- 
....................     if(Menu==2){ //Menu de Tiempo Esterilizacion      
0A47C:  MOVLB  3
0A47E:  MOVF   x5C,W
0A480:  SUBLW  02
0A482:  BTFSS  FD8.2
0A484:  BRA    A9B0
....................       printf("fecha.txt=\"T:%3.1fC Fecha:%02u/%02u/20%02u Hora: %02u:%02u:%02u\"",Temperatura,Dia,Mes,Year,Hora,Minuto,Segundo); 
0A486:  MOVLW  C4
0A488:  MOVWF  FF6
0A48A:  MOVLW  0A
0A48C:  MOVWF  FF7
0A48E:  MOVLW  00
0A490:  MOVWF  FF8
0A492:  MOVLW  0D
0A494:  MOVLB  4
0A496:  MOVWF  x50
0A498:  MOVLB  0
0A49A:  CALL   4B26
0A49E:  MOVLW  02
0A4A0:  MOVWF  FE9
0A4A2:  MOVFF  327,453
0A4A6:  MOVFF  326,452
0A4AA:  MOVFF  325,451
0A4AE:  MOVFF  324,450
0A4B2:  MOVLW  01
0A4B4:  MOVLB  4
0A4B6:  MOVWF  x54
0A4B8:  MOVLB  0
0A4BA:  CALL   4CC6
0A4BE:  MOVLW  D6
0A4C0:  MOVWF  FF6
0A4C2:  MOVLW  0A
0A4C4:  MOVWF  FF7
0A4C6:  MOVLW  00
0A4C8:  MOVWF  FF8
0A4CA:  MOVLW  09
0A4CC:  MOVLB  4
0A4CE:  MOVWF  x50
0A4D0:  MOVLB  0
0A4D2:  CALL   4B26
0A4D6:  MOVFF  3AB,450
0A4DA:  MOVLW  01
0A4DC:  MOVLB  4
0A4DE:  MOVWF  x51
0A4E0:  MOVLB  0
0A4E2:  CALL   4B84
0A4E6:  MOVLW  2F
0A4E8:  BTFSS  F9E.4
0A4EA:  BRA    A4E8
0A4EC:  MOVWF  FAD
0A4EE:  MOVFF  3AA,450
0A4F2:  MOVLW  01
0A4F4:  MOVLB  4
0A4F6:  MOVWF  x51
0A4F8:  MOVLB  0
0A4FA:  CALL   4B84
0A4FE:  MOVLW  2F
0A500:  BTFSS  F9E.4
0A502:  BRA    A500
0A504:  MOVWF  FAD
0A506:  MOVLW  32
0A508:  BTFSS  F9E.4
0A50A:  BRA    A508
0A50C:  MOVWF  FAD
0A50E:  MOVLW  30
0A510:  BTFSS  F9E.4
0A512:  BRA    A510
0A514:  MOVWF  FAD
0A516:  MOVFF  3A9,450
0A51A:  MOVLW  01
0A51C:  MOVLB  4
0A51E:  MOVWF  x51
0A520:  MOVLB  0
0A522:  CALL   4B84
0A526:  MOVLW  EF
0A528:  MOVWF  FF6
0A52A:  MOVLW  0A
0A52C:  MOVWF  FF7
0A52E:  MOVLW  00
0A530:  MOVWF  FF8
0A532:  MOVLW  07
0A534:  MOVLB  4
0A536:  MOVWF  x50
0A538:  MOVLB  0
0A53A:  CALL   4B26
0A53E:  MOVFF  3AC,450
0A542:  MOVLW  01
0A544:  MOVLB  4
0A546:  MOVWF  x51
0A548:  MOVLB  0
0A54A:  CALL   4B84
0A54E:  MOVLW  3A
0A550:  BTFSS  F9E.4
0A552:  BRA    A550
0A554:  MOVWF  FAD
0A556:  MOVFF  3AD,450
0A55A:  MOVLW  01
0A55C:  MOVLB  4
0A55E:  MOVWF  x51
0A560:  MOVLB  0
0A562:  CALL   4B84
0A566:  MOVLW  3A
0A568:  BTFSS  F9E.4
0A56A:  BRA    A568
0A56C:  MOVWF  FAD
0A56E:  MOVFF  3AE,450
0A572:  MOVLW  01
0A574:  MOVLB  4
0A576:  MOVWF  x51
0A578:  MOVLB  0
0A57A:  CALL   4B84
0A57E:  MOVLW  22
0A580:  BTFSS  F9E.4
0A582:  BRA    A580
0A584:  MOVWF  FAD
....................       SendDataDisplay(); 
0A586:  CALL   3BE4
....................          if(RX_Buffer[4]==0x0a){//Selecciono Minutos 
0A58A:  MOVF   34,W
0A58C:  SUBLW  0A
0A58E:  BNZ   A594
....................             Minutos=ON; 
0A590:  BSF    xA2.4
....................             Segundos=OFF; 
0A592:  BCF    xA2.5
....................          } 
....................           
....................          if(RX_Buffer[4]==0x0b){//Selecciono Segundos 
0A594:  MOVF   34,W
0A596:  SUBLW  0B
0A598:  BNZ   A59E
....................             Segundos=ON; 
0A59A:  BSF    xA2.5
....................             Minutos=OFF; 
0A59C:  BCF    xA2.4
....................          }            
....................           
....................          if(RX_Buffer[4]==0x11 || LEFT){//Selecciono Regresar 
0A59E:  MOVF   34,W
0A5A0:  SUBLW  11
0A5A2:  BZ    A5AA
0A5A4:  BSF    F93.3
0A5A6:  BTFSC  F81.3
0A5A8:  BRA    A734
....................             delay_ms(100); 
0A5AA:  MOVLW  64
0A5AC:  MOVLB  4
0A5AE:  MOVWF  x63
0A5B0:  MOVLB  0
0A5B2:  CALL   1A6C
....................             if(RX_Buffer[4]==0x11 || LEFT){ 
0A5B6:  MOVF   34,W
0A5B8:  SUBLW  11
0A5BA:  BZ    A5C2
0A5BC:  BSF    F93.3
0A5BE:  BTFSC  F81.3
0A5C0:  BRA    A734
....................                Segundos=OFF; 
0A5C2:  BCF    xA2.5
....................                Minutos=OFF; 
0A5C4:  BCF    xA2.4
....................                printf("page CicloPersona"); 
0A5C6:  MOVLW  06
0A5C8:  MOVWF  FF6
0A5CA:  MOVLW  0B
0A5CC:  MOVWF  FF7
0A5CE:  MOVLW  00
0A5D0:  MOVWF  FF8
0A5D2:  CALL   3BB2
....................                SendDataDisplay();   
0A5D6:  CALL   3BE4
....................                PantallaPrincipal=1; 
0A5DA:  MOVLW  01
0A5DC:  MOVLB  2
0A5DE:  MOVWF  xDD
....................                Op=OFF; 
0A5E0:  MOVLB  0
0A5E2:  BCF    xA2.2
....................                Op2=OFF; 
0A5E4:  BCF    xA2.3
....................                if(!GuardaEEPROM){ 
0A5E6:  BTFSC  xA2.6
0A5E8:  BRA    A734
....................                   CiclosPersonalizados[CicloLibre-1].Minutoest=Testerilizacionp[2]+(Testerilizacionp[3]*10); 
0A5EA:  MOVLW  01
0A5EC:  MOVLB  3
0A5EE:  SUBWF  x3A,W
0A5F0:  MULLW  0A
0A5F2:  MOVF   FF3,W
0A5F4:  MOVLB  4
0A5F6:  CLRF   x4B
0A5F8:  MOVWF  x4A
0A5FA:  MOVLW  09
0A5FC:  ADDWF  x4A,W
0A5FE:  MOVWF  01
0A600:  MOVLW  00
0A602:  ADDWFC x4B,W
0A604:  MOVWF  03
0A606:  MOVF   01,W
0A608:  ADDLW  22
0A60A:  MOVWF  FE9
0A60C:  MOVLW  04
0A60E:  ADDWFC 03,W
0A610:  MOVWF  FEA
0A612:  MOVFF  B9,44C
0A616:  MOVLW  0A
0A618:  MOVWF  x4D
0A61A:  MOVLB  0
0A61C:  CALL   30AC
0A620:  MOVF   01,W
0A622:  ADDWF  xB8,W
0A624:  MOVWF  FEF
....................                   CiclosPersonalizados[CicloLibre-1].Segundoest=Testerilizacionp[0]+(Testerilizacionp[1]*10); 
0A626:  MOVLW  01
0A628:  MOVLB  3
0A62A:  SUBWF  x3A,W
0A62C:  MULLW  0A
0A62E:  MOVF   FF3,W
0A630:  MOVLB  4
0A632:  CLRF   x4B
0A634:  MOVWF  x4A
0A636:  MOVLW  03
0A638:  ADDWF  x4A,W
0A63A:  MOVWF  01
0A63C:  MOVLW  00
0A63E:  ADDWFC x4B,W
0A640:  MOVWF  03
0A642:  MOVF   01,W
0A644:  ADDLW  22
0A646:  MOVWF  FE9
0A648:  MOVLW  04
0A64A:  ADDWFC 03,W
0A64C:  MOVWF  FEA
0A64E:  MOVFF  B7,44C
0A652:  MOVLW  0A
0A654:  MOVWF  x4D
0A656:  MOVLB  0
0A658:  CALL   30AC
0A65C:  MOVF   01,W
0A65E:  ADDWF  xB6,W
0A660:  MOVWF  FEF
....................                   write_eeprom(102+((CicloLibre-1)*8),Testerilizacionp[2]+(Testerilizacionp[3]*10)); 
0A662:  MOVLW  01
0A664:  MOVLB  3
0A666:  SUBWF  x3A,W
0A668:  MULLW  08
0A66A:  MOVF   FF3,W
0A66C:  ADDLW  66
0A66E:  MOVLB  4
0A670:  MOVWF  x4A
0A672:  MOVFF  B9,44C
0A676:  MOVLW  0A
0A678:  MOVWF  x4D
0A67A:  MOVLB  0
0A67C:  CALL   30AC
0A680:  MOVF   01,W
0A682:  ADDWF  xB8,W
0A684:  MOVLB  4
0A686:  MOVWF  x4B
0A688:  CLRF   FAA
0A68A:  MOVFF  44A,FA9
0A68E:  MOVFF  44B,FA8
0A692:  BCF    FA6.6
0A694:  BCF    FA6.7
0A696:  BSF    FA6.2
0A698:  MOVF   FF2,W
0A69A:  MOVWF  00
0A69C:  BCF    FF2.6
0A69E:  BCF    FF2.7
0A6A0:  MOVLB  F
0A6A2:  MOVLW  55
0A6A4:  MOVWF  FA7
0A6A6:  MOVLW  AA
0A6A8:  MOVWF  FA7
0A6AA:  BSF    FA6.1
0A6AC:  BTFSC  FA6.1
0A6AE:  BRA    A6AC
0A6B0:  BCF    FA6.2
0A6B2:  MOVF   00,W
0A6B4:  IORWF  FF2,F
....................                   delay_ms(10); 
0A6B6:  MOVLW  0A
0A6B8:  MOVLB  4
0A6BA:  MOVWF  x63
0A6BC:  MOVLB  0
0A6BE:  CALL   1A6C
....................                   write_eeprom(103+((CicloLibre-1)*8),Testerilizacionp[0]+(Testerilizacionp[1]*10)); 
0A6C2:  MOVLW  01
0A6C4:  MOVLB  3
0A6C6:  SUBWF  x3A,W
0A6C8:  MULLW  08
0A6CA:  MOVF   FF3,W
0A6CC:  ADDLW  67
0A6CE:  MOVLB  4
0A6D0:  MOVWF  x4A
0A6D2:  MOVFF  B7,44C
0A6D6:  MOVLW  0A
0A6D8:  MOVWF  x4D
0A6DA:  MOVLB  0
0A6DC:  CALL   30AC
0A6E0:  MOVF   01,W
0A6E2:  ADDWF  xB6,W
0A6E4:  MOVLB  4
0A6E6:  MOVWF  x4B
0A6E8:  CLRF   FAA
0A6EA:  MOVFF  44A,FA9
0A6EE:  MOVFF  44B,FA8
0A6F2:  BCF    FA6.6
0A6F4:  BCF    FA6.7
0A6F6:  BSF    FA6.2
0A6F8:  MOVF   FF2,W
0A6FA:  MOVWF  00
0A6FC:  BCF    FF2.6
0A6FE:  BCF    FF2.7
0A700:  MOVLB  F
0A702:  MOVLW  55
0A704:  MOVWF  FA7
0A706:  MOVLW  AA
0A708:  MOVWF  FA7
0A70A:  BSF    FA6.1
0A70C:  BTFSC  FA6.1
0A70E:  BRA    A70C
0A710:  BCF    FA6.2
0A712:  MOVF   00,W
0A714:  IORWF  FF2,F
....................                   delay_ms(10); 
0A716:  MOVLW  0A
0A718:  MOVLB  4
0A71A:  MOVWF  x63
0A71C:  MOVLB  0
0A71E:  CALL   1A6C
....................                   Testerilizacion[0]=Testerilizacionp[0]; 
0A722:  MOVFF  B6,B1
....................                   Testerilizacion[1]=Testerilizacionp[1]; 
0A726:  MOVFF  B7,B2
....................                   Testerilizacion[2]=Testerilizacionp[2]; 
0A72A:  MOVFF  B8,B3
....................                   Testerilizacion[3]=Testerilizacionp[3];                   
0A72E:  MOVFF  B9,B4
....................                   GuardaEEPROM=ON; 
0A732:  BSF    xA2.6
....................                } 
....................             } 
....................          } 
....................           
....................          if(RIGHT){ 
0A734:  BSF    F93.2
0A736:  BTFSC  F81.2
0A738:  BRA    A7AE
....................             delay_ms(100); 
0A73A:  MOVLW  64
0A73C:  MOVLB  4
0A73E:  MOVWF  x63
0A740:  MOVLB  0
0A742:  CALL   1A6C
....................             if(RIGHT){ 
0A746:  BSF    F93.2
0A748:  BTFSC  F81.2
0A74A:  BRA    A7AE
....................                if(!Segundos){ 
0A74C:  BTFSC  xA2.5
0A74E:  BRA    A77E
....................                   Segundos=ON; 
0A750:  BSF    xA2.5
....................                   Minutos=OFF; 
0A752:  BCF    xA2.4
....................                   printf("tsecest.pco=65535"); 
0A754:  MOVLW  18
0A756:  MOVWF  FF6
0A758:  MOVLW  0B
0A75A:  MOVWF  FF7
0A75C:  MOVLW  00
0A75E:  MOVWF  FF8
0A760:  CALL   3BB2
....................                   SendDataDisplay();   
0A764:  CALL   3BE4
....................                   printf("tminest.pco=0"); 
0A768:  MOVLW  2A
0A76A:  MOVWF  FF6
0A76C:  MOVLW  0B
0A76E:  MOVWF  FF7
0A770:  MOVLW  00
0A772:  MOVWF  FF8
0A774:  CALL   3BB2
....................                   SendDataDisplay();   
0A778:  CALL   3BE4
....................                }else if(!Minutos){ 
0A77C:  BRA    A7AE
0A77E:  BTFSC  xA2.4
0A780:  BRA    A7AE
....................                   Segundos=OFF; 
0A782:  BCF    xA2.5
....................                   Minutos=ON; 
0A784:  BSF    xA2.4
....................                   printf("tsecest.pco=0"); 
0A786:  MOVLW  38
0A788:  MOVWF  FF6
0A78A:  MOVLW  0B
0A78C:  MOVWF  FF7
0A78E:  MOVLW  00
0A790:  MOVWF  FF8
0A792:  CALL   3BB2
....................                   SendDataDisplay();   
0A796:  CALL   3BE4
....................                   printf("tminest.pco=65535"); 
0A79A:  MOVLW  46
0A79C:  MOVWF  FF6
0A79E:  MOVLW  0B
0A7A0:  MOVWF  FF7
0A7A2:  MOVLW  00
0A7A4:  MOVWF  FF8
0A7A6:  CALL   3BB2
....................                   SendDataDisplay();   
0A7AA:  CALL   3BE4
....................                } 
....................             } 
....................          } 
....................           
....................          if(UP){ 
0A7AE:  BSF    F93.0
0A7B0:  BTFSC  F81.0
0A7B2:  BRA    A7FA
....................             delay_ms(100); 
0A7B4:  MOVLW  64
0A7B6:  MOVLB  4
0A7B8:  MOVWF  x63
0A7BA:  MOVLB  0
0A7BC:  CALL   1A6C
....................             if(UP){ 
0A7C0:  BSF    F93.0
0A7C2:  BTFSC  F81.0
0A7C4:  BRA    A7FA
....................                if(Segundos){ 
0A7C6:  BTFSS  xA2.5
0A7C8:  BRA    A7DA
....................                   Testerilizacionp[0]++; 
0A7CA:  INCF   xB6,F
....................                   if(Testerilizacionp[0]>9){ 
0A7CC:  BTFSC  xB6.7
0A7CE:  BRA    A7DA
0A7D0:  MOVF   xB6,W
0A7D2:  SUBLW  09
0A7D4:  BC    A7DA
....................                      Testerilizacionp[1]++; 
0A7D6:  INCF   xB7,F
....................                      Testerilizacionp[0]=0; 
0A7D8:  CLRF   xB6
....................                   } 
....................                } 
....................                if(Minutos){ 
0A7DA:  BTFSS  xA2.4
0A7DC:  BRA    A7FA
....................                   Testerilizacionp[2]++; 
0A7DE:  INCF   xB8,F
....................                   if(Testerilizacionp[2]>9){ 
0A7E0:  BTFSC  xB8.7
0A7E2:  BRA    A7EE
0A7E4:  MOVF   xB8,W
0A7E6:  SUBLW  09
0A7E8:  BC    A7EE
....................                      Testerilizacionp[3]++; 
0A7EA:  INCF   xB9,F
....................                      Testerilizacionp[2]=0; 
0A7EC:  CLRF   xB8
....................                   } 
....................                   if(Testerilizacionp[3]>9){                      
0A7EE:  BTFSC  xB9.7
0A7F0:  BRA    A7FA
0A7F2:  MOVF   xB9,W
0A7F4:  SUBLW  09
0A7F6:  BC    A7FA
....................                      Testerilizacionp[3]=0; 
0A7F8:  CLRF   xB9
....................                   } 
....................                }     
....................             } 
....................          } 
....................           
....................          if(DOWN){ 
0A7FA:  BSF    F93.1
0A7FC:  BTFSC  F81.1
0A7FE:  BRA    A840
....................             delay_ms(100); 
0A800:  MOVLW  64
0A802:  MOVLB  4
0A804:  MOVWF  x63
0A806:  MOVLB  0
0A808:  CALL   1A6C
....................             if(DOWN){ 
0A80C:  BSF    F93.1
0A80E:  BTFSC  F81.1
0A810:  BRA    A840
....................                if(Segundos){ 
0A812:  BTFSS  xA2.5
0A814:  BRA    A824
....................                   Testerilizacionp[0]--; 
0A816:  DECF   xB6,F
....................                   if(Testerilizacionp[0]<0){ 
0A818:  BTFSC  xB6.7
0A81A:  BRA    A81E
0A81C:  BRA    A824
....................                      Testerilizacionp[1]--; 
0A81E:  DECF   xB7,F
....................                      Testerilizacionp[0]=9; 
0A820:  MOVLW  09
0A822:  MOVWF  xB6
....................                   } 
....................                } 
....................                if(Minutos){ 
0A824:  BTFSS  xA2.4
0A826:  BRA    A840
....................                   Testerilizacionp[2]--; 
0A828:  DECF   xB8,F
....................                   if(Testerilizacionp[2]<0){ 
0A82A:  BTFSC  xB8.7
0A82C:  BRA    A830
0A82E:  BRA    A836
....................                      Testerilizacionp[3]--; 
0A830:  DECF   xB9,F
....................                      Testerilizacionp[2]=9; 
0A832:  MOVLW  09
0A834:  MOVWF  xB8
....................                   } 
....................                   if(Testerilizacionp[3]<0){ 
0A836:  BTFSC  xB9.7
0A838:  BRA    A83C
0A83A:  BRA    A840
....................                      Testerilizacionp[3]=9; 
0A83C:  MOVLW  09
0A83E:  MOVWF  xB9
....................                   } 
....................                }     
....................             } 
....................          } 
....................           
....................          if(RX_Buffer[4]==0x0c || RX_Buffer[4]==0x0d){//Tecla Derecha Oprimida 
0A840:  MOVF   34,W
0A842:  SUBLW  0C
0A844:  BZ    A84C
0A846:  MOVF   34,W
0A848:  SUBLW  0D
0A84A:  BNZ   A884
....................             if(Segundos){ 
0A84C:  BTFSS  xA2.5
0A84E:  BRA    A860
....................                Testerilizacionp[0]++; 
0A850:  INCF   xB6,F
....................                if(Testerilizacionp[0]>9){ 
0A852:  BTFSC  xB6.7
0A854:  BRA    A860
0A856:  MOVF   xB6,W
0A858:  SUBLW  09
0A85A:  BC    A860
....................                   Testerilizacionp[1]++; 
0A85C:  INCF   xB7,F
....................                   Testerilizacionp[0]=0; 
0A85E:  CLRF   xB6
....................                } 
....................             } 
....................             if(Minutos){ 
0A860:  BTFSS  xA2.4
0A862:  BRA    A880
....................                Testerilizacionp[2]++; 
0A864:  INCF   xB8,F
....................                if(Testerilizacionp[2]>9){ 
0A866:  BTFSC  xB8.7
0A868:  BRA    A874
0A86A:  MOVF   xB8,W
0A86C:  SUBLW  09
0A86E:  BC    A874
....................                   Testerilizacionp[3]++; 
0A870:  INCF   xB9,F
....................                   Testerilizacionp[2]=0; 
0A872:  CLRF   xB8
....................                } 
....................                if(Testerilizacionp[3]>9){                   
0A874:  BTFSC  xB9.7
0A876:  BRA    A880
0A878:  MOVF   xB9,W
0A87A:  SUBLW  09
0A87C:  BC    A880
....................                   Testerilizacionp[3]=0; 
0A87E:  CLRF   xB9
....................                } 
....................             } 
....................             RX_Buffer[4]=0x00;   
0A880:  CLRF   34
....................             RX_Buffer2[4]=0x00; 
0A882:  CLRF   3F
....................          } 
....................           
....................          if(RX_Buffer[4]==0x0f || RX_Buffer[4]==0x0e){//Tecla Izquierda Oprimida 
0A884:  MOVF   34,W
0A886:  SUBLW  0F
0A888:  BZ    A890
0A88A:  MOVF   34,W
0A88C:  SUBLW  0E
0A88E:  BNZ   A8C2
....................              
....................             if(Segundos){ 
0A890:  BTFSS  xA2.5
0A892:  BRA    A8A2
....................                Testerilizacionp[0]--; 
0A894:  DECF   xB6,F
....................                if(Testerilizacionp[0]<0){ 
0A896:  BTFSC  xB6.7
0A898:  BRA    A89C
0A89A:  BRA    A8A2
....................                   Testerilizacionp[1]--; 
0A89C:  DECF   xB7,F
....................                   Testerilizacionp[0]=9; 
0A89E:  MOVLW  09
0A8A0:  MOVWF  xB6
....................                } 
....................             } 
....................             if(Minutos){ 
0A8A2:  BTFSS  xA2.4
0A8A4:  BRA    A8BE
....................                Testerilizacionp[2]--; 
0A8A6:  DECF   xB8,F
....................                if(Testerilizacionp[2]<0){ 
0A8A8:  BTFSC  xB8.7
0A8AA:  BRA    A8AE
0A8AC:  BRA    A8B4
....................                   Testerilizacionp[3]--; 
0A8AE:  DECF   xB9,F
....................                   Testerilizacionp[2]=9; 
0A8B0:  MOVLW  09
0A8B2:  MOVWF  xB8
....................                } 
....................                if(Testerilizacionp[3]<0){ 
0A8B4:  BTFSC  xB9.7
0A8B6:  BRA    A8BA
0A8B8:  BRA    A8BE
....................                   Testerilizacionp[3]=9; 
0A8BA:  MOVLW  09
0A8BC:  MOVWF  xB9
....................                } 
....................             } 
....................             RX_Buffer[4]=0x00;   
0A8BE:  CLRF   34
....................             RX_Buffer2[4]=0x00; 
0A8C0:  CLRF   3F
....................          } 
....................           
....................          if(Testerilizacionp[0]<0) 
0A8C2:  BTFSC  xB6.7
0A8C4:  BRA    A8C8
0A8C6:  BRA    A8CC
....................             Testerilizacionp[0]=9;             
0A8C8:  MOVLW  09
0A8CA:  MOVWF  xB6
....................          if(Testerilizacionp[1]<0) 
0A8CC:  BTFSC  xB7.7
0A8CE:  BRA    A8D2
0A8D0:  BRA    A8D6
....................             Testerilizacionp[1]=5;             
0A8D2:  MOVLW  05
0A8D4:  MOVWF  xB7
....................          if(Testerilizacionp[2]<0) 
0A8D6:  BTFSC  xB8.7
0A8D8:  BRA    A8DC
0A8DA:  BRA    A8E0
....................             Testerilizacionp[2]=9;             
0A8DC:  MOVLW  09
0A8DE:  MOVWF  xB8
....................          if(Testerilizacionp[3]<0) 
0A8E0:  BTFSC  xB9.7
0A8E2:  BRA    A8E6
0A8E4:  BRA    A8EA
....................             Testerilizacionp[3]=9;             
0A8E6:  MOVLW  09
0A8E8:  MOVWF  xB9
....................           
....................          if(Testerilizacionp[0]>9) 
0A8EA:  BTFSC  xB6.7
0A8EC:  BRA    A8F6
0A8EE:  MOVF   xB6,W
0A8F0:  SUBLW  09
0A8F2:  BC    A8F6
....................             Testerilizacionp[0]=0;             
0A8F4:  CLRF   xB6
....................          if(Testerilizacionp[1]>5) 
0A8F6:  BTFSC  xB7.7
0A8F8:  BRA    A902
0A8FA:  MOVF   xB7,W
0A8FC:  SUBLW  05
0A8FE:  BC    A902
....................             Testerilizacionp[1]=0;             
0A900:  CLRF   xB7
....................          if(Testerilizacionp[2]>9) 
0A902:  BTFSC  xB8.7
0A904:  BRA    A90E
0A906:  MOVF   xB8,W
0A908:  SUBLW  09
0A90A:  BC    A90E
....................             Testerilizacionp[2]=0;             
0A90C:  CLRF   xB8
....................          if(Testerilizacionp[3]>9) 
0A90E:  BTFSC  xB9.7
0A910:  BRA    A91A
0A912:  MOVF   xB9,W
0A914:  SUBLW  09
0A916:  BC    A91A
....................             Testerilizacionp[3]=0;  
0A918:  CLRF   xB9
....................              
....................          printf("tminest.txt=\"%02u\"",((Testerilizacionp[3]*10)+Testerilizacionp[2])); 
0A91A:  MOVFF  B9,44C
0A91E:  MOVLW  0A
0A920:  MOVLB  4
0A922:  MOVWF  x4D
0A924:  MOVLB  0
0A926:  CALL   30AC
0A92A:  MOVF   xB8,W
0A92C:  ADDWF  01,W
0A92E:  MOVLB  4
0A930:  MOVWF  x4A
0A932:  MOVLW  58
0A934:  MOVWF  FF6
0A936:  MOVLW  0B
0A938:  MOVWF  FF7
0A93A:  MOVLW  00
0A93C:  MOVWF  FF8
0A93E:  MOVLW  0D
0A940:  MOVWF  x50
0A942:  MOVLB  0
0A944:  CALL   4B26
0A948:  MOVFF  44A,450
0A94C:  MOVLW  01
0A94E:  MOVLB  4
0A950:  MOVWF  x51
0A952:  MOVLB  0
0A954:  CALL   4B84
0A958:  MOVLW  22
0A95A:  BTFSS  F9E.4
0A95C:  BRA    A95A
0A95E:  MOVWF  FAD
....................          SendDataDisplay(); 
0A960:  CALL   3BE4
....................          printf("tsecest.txt=\"%02u\"",((Testerilizacionp[1]*10)+Testerilizacionp[0])); 
0A964:  MOVFF  B7,44C
0A968:  MOVLW  0A
0A96A:  MOVLB  4
0A96C:  MOVWF  x4D
0A96E:  MOVLB  0
0A970:  CALL   30AC
0A974:  MOVF   xB6,W
0A976:  ADDWF  01,W
0A978:  MOVLB  4
0A97A:  MOVWF  x4A
0A97C:  MOVLW  6C
0A97E:  MOVWF  FF6
0A980:  MOVLW  0B
0A982:  MOVWF  FF7
0A984:  MOVLW  00
0A986:  MOVWF  FF8
0A988:  MOVLW  0D
0A98A:  MOVWF  x50
0A98C:  MOVLB  0
0A98E:  CALL   4B26
0A992:  MOVFF  44A,450
0A996:  MOVLW  01
0A998:  MOVLB  4
0A99A:  MOVWF  x51
0A99C:  MOVLB  0
0A99E:  CALL   4B84
0A9A2:  MOVLW  22
0A9A4:  BTFSS  F9E.4
0A9A6:  BRA    A9A4
0A9A8:  MOVWF  FAD
....................          SendDataDisplay(); 
0A9AA:  CALL   3BE4
0A9AE:  MOVLB  3
....................     } 
.................... //_--------------------------------------------------------------------------------------------------------------------------------------------------------        
....................  
.................... //_-------------------------------------------------------------------------------------------------------------------------------------------------------- 
....................     if(Menu==3){ //Menu de Tiempo de Secado 
0A9B0:  MOVF   x5C,W
0A9B2:  SUBLW  03
0A9B4:  BTFSS  FD8.2
0A9B6:  BRA    AEB2
....................       printf("fecha.txt=\"T:%3.1fC Fecha:%02u/%02u/20%02u Hora: %02u:%02u:%02u\"",Temperatura,Dia,Mes,Year,Hora,Minuto,Segundo); 
0A9B8:  MOVLW  80
0A9BA:  MOVWF  FF6
0A9BC:  MOVLW  0B
0A9BE:  MOVWF  FF7
0A9C0:  MOVLW  00
0A9C2:  MOVWF  FF8
0A9C4:  MOVLW  0D
0A9C6:  MOVLB  4
0A9C8:  MOVWF  x50
0A9CA:  MOVLB  0
0A9CC:  CALL   4B26
0A9D0:  MOVLW  02
0A9D2:  MOVWF  FE9
0A9D4:  MOVFF  327,453
0A9D8:  MOVFF  326,452
0A9DC:  MOVFF  325,451
0A9E0:  MOVFF  324,450
0A9E4:  MOVLW  01
0A9E6:  MOVLB  4
0A9E8:  MOVWF  x54
0A9EA:  MOVLB  0
0A9EC:  CALL   4CC6
0A9F0:  MOVLW  92
0A9F2:  MOVWF  FF6
0A9F4:  MOVLW  0B
0A9F6:  MOVWF  FF7
0A9F8:  MOVLW  00
0A9FA:  MOVWF  FF8
0A9FC:  MOVLW  09
0A9FE:  MOVLB  4
0AA00:  MOVWF  x50
0AA02:  MOVLB  0
0AA04:  CALL   4B26
0AA08:  MOVFF  3AB,450
0AA0C:  MOVLW  01
0AA0E:  MOVLB  4
0AA10:  MOVWF  x51
0AA12:  MOVLB  0
0AA14:  CALL   4B84
0AA18:  MOVLW  2F
0AA1A:  BTFSS  F9E.4
0AA1C:  BRA    AA1A
0AA1E:  MOVWF  FAD
0AA20:  MOVFF  3AA,450
0AA24:  MOVLW  01
0AA26:  MOVLB  4
0AA28:  MOVWF  x51
0AA2A:  MOVLB  0
0AA2C:  CALL   4B84
0AA30:  MOVLW  2F
0AA32:  BTFSS  F9E.4
0AA34:  BRA    AA32
0AA36:  MOVWF  FAD
0AA38:  MOVLW  32
0AA3A:  BTFSS  F9E.4
0AA3C:  BRA    AA3A
0AA3E:  MOVWF  FAD
0AA40:  MOVLW  30
0AA42:  BTFSS  F9E.4
0AA44:  BRA    AA42
0AA46:  MOVWF  FAD
0AA48:  MOVFF  3A9,450
0AA4C:  MOVLW  01
0AA4E:  MOVLB  4
0AA50:  MOVWF  x51
0AA52:  MOVLB  0
0AA54:  CALL   4B84
0AA58:  MOVLW  AB
0AA5A:  MOVWF  FF6
0AA5C:  MOVLW  0B
0AA5E:  MOVWF  FF7
0AA60:  MOVLW  00
0AA62:  MOVWF  FF8
0AA64:  MOVLW  07
0AA66:  MOVLB  4
0AA68:  MOVWF  x50
0AA6A:  MOVLB  0
0AA6C:  CALL   4B26
0AA70:  MOVFF  3AC,450
0AA74:  MOVLW  01
0AA76:  MOVLB  4
0AA78:  MOVWF  x51
0AA7A:  MOVLB  0
0AA7C:  CALL   4B84
0AA80:  MOVLW  3A
0AA82:  BTFSS  F9E.4
0AA84:  BRA    AA82
0AA86:  MOVWF  FAD
0AA88:  MOVFF  3AD,450
0AA8C:  MOVLW  01
0AA8E:  MOVLB  4
0AA90:  MOVWF  x51
0AA92:  MOVLB  0
0AA94:  CALL   4B84
0AA98:  MOVLW  3A
0AA9A:  BTFSS  F9E.4
0AA9C:  BRA    AA9A
0AA9E:  MOVWF  FAD
0AAA0:  MOVFF  3AE,450
0AAA4:  MOVLW  01
0AAA6:  MOVLB  4
0AAA8:  MOVWF  x51
0AAAA:  MOVLB  0
0AAAC:  CALL   4B84
0AAB0:  MOVLW  22
0AAB2:  BTFSS  F9E.4
0AAB4:  BRA    AAB2
0AAB6:  MOVWF  FAD
....................       SendDataDisplay();             
0AAB8:  CALL   3BE4
....................              
....................          if(RX_Buffer[4]==0x0a){//Selecciono Minutos 
0AABC:  MOVF   34,W
0AABE:  SUBLW  0A
0AAC0:  BNZ   AAC6
....................             Minutos=ON; 
0AAC2:  BSF    xA2.4
....................             Segundos=OFF; 
0AAC4:  BCF    xA2.5
....................          } 
....................           
....................          if(RX_Buffer[4]==0x0b){//Selecciono Segundos 
0AAC6:  MOVF   34,W
0AAC8:  SUBLW  0B
0AACA:  BNZ   AAD0
....................             Segundos=ON; 
0AACC:  BSF    xA2.5
....................             Minutos=OFF; 
0AACE:  BCF    xA2.4
....................          } 
....................           
....................          if(RX_Buffer[4]==0x11 || LEFT){//Selecciono Regresar 
0AAD0:  MOVF   34,W
0AAD2:  SUBLW  11
0AAD4:  BZ    AADC
0AAD6:  BSF    F93.3
0AAD8:  BTFSC  F81.3
0AADA:  BRA    AC46
....................             Segundos=OFF; 
0AADC:  BCF    xA2.5
....................             Minutos=OFF; 
0AADE:  BCF    xA2.4
....................             printf("page CicloPersona"); 
0AAE0:  MOVLW  C2
0AAE2:  MOVWF  FF6
0AAE4:  MOVLW  0B
0AAE6:  MOVWF  FF7
0AAE8:  MOVLW  00
0AAEA:  MOVWF  FF8
0AAEC:  CALL   3BB2
....................             SendDataDisplay();   
0AAF0:  CALL   3BE4
....................             //PantallaPrincipal=1; 
....................             Op=OFF; 
0AAF4:  BCF    xA2.2
....................             Op2=OFF; 
0AAF6:  BCF    xA2.3
....................             if(!GuardaEEPROM){ 
0AAF8:  BTFSC  xA2.6
0AAFA:  BRA    AC46
....................                CiclosPersonalizados[CicloLibre-1].Minutosec=Tsecadop[2]+(Tsecadop[3]*10); 
0AAFC:  MOVLW  01
0AAFE:  MOVLB  3
0AB00:  SUBWF  x3A,W
0AB02:  MULLW  0A
0AB04:  MOVF   FF3,W
0AB06:  MOVLB  4
0AB08:  CLRF   x4B
0AB0A:  MOVWF  x4A
0AB0C:  MOVLW  04
0AB0E:  ADDWF  x4A,W
0AB10:  MOVWF  01
0AB12:  MOVLW  00
0AB14:  ADDWFC x4B,W
0AB16:  MOVWF  03
0AB18:  MOVF   01,W
0AB1A:  ADDLW  22
0AB1C:  MOVWF  FE9
0AB1E:  MOVLW  04
0AB20:  ADDWFC 03,W
0AB22:  MOVWF  FEA
0AB24:  MOVFF  C2,44C
0AB28:  MOVLW  0A
0AB2A:  MOVWF  x4D
0AB2C:  MOVLB  0
0AB2E:  CALL   30AC
0AB32:  MOVF   01,W
0AB34:  ADDWF  xC1,W
0AB36:  MOVWF  FEF
....................                CiclosPersonalizados[CicloLibre-1].Segundosec=Tsecadop[0]+(Tsecadop[1]*10); 
0AB38:  MOVLW  01
0AB3A:  MOVLB  3
0AB3C:  SUBWF  x3A,W
0AB3E:  MULLW  0A
0AB40:  MOVF   FF3,W
0AB42:  MOVLB  4
0AB44:  CLRF   x4B
0AB46:  MOVWF  x4A
0AB48:  MOVLW  05
0AB4A:  ADDWF  x4A,W
0AB4C:  MOVWF  01
0AB4E:  MOVLW  00
0AB50:  ADDWFC x4B,W
0AB52:  MOVWF  03
0AB54:  MOVF   01,W
0AB56:  ADDLW  22
0AB58:  MOVWF  FE9
0AB5A:  MOVLW  04
0AB5C:  ADDWFC 03,W
0AB5E:  MOVWF  FEA
0AB60:  MOVFF  C0,44C
0AB64:  MOVLW  0A
0AB66:  MOVWF  x4D
0AB68:  MOVLB  0
0AB6A:  CALL   30AC
0AB6E:  MOVF   01,W
0AB70:  ADDWF  xBF,W
0AB72:  MOVWF  FEF
....................                write_eeprom(104+((CicloLibre-1)*8),Tsecadop[2]+(Tsecadop[3]*10)); 
0AB74:  MOVLW  01
0AB76:  MOVLB  3
0AB78:  SUBWF  x3A,W
0AB7A:  MULLW  08
0AB7C:  MOVF   FF3,W
0AB7E:  ADDLW  68
0AB80:  MOVLB  4
0AB82:  MOVWF  x4A
0AB84:  MOVFF  C2,44C
0AB88:  MOVLW  0A
0AB8A:  MOVWF  x4D
0AB8C:  MOVLB  0
0AB8E:  CALL   30AC
0AB92:  MOVF   01,W
0AB94:  ADDWF  xC1,W
0AB96:  MOVLB  4
0AB98:  MOVWF  x4B
0AB9A:  CLRF   FAA
0AB9C:  MOVFF  44A,FA9
0ABA0:  MOVFF  44B,FA8
0ABA4:  BCF    FA6.6
0ABA6:  BCF    FA6.7
0ABA8:  BSF    FA6.2
0ABAA:  MOVF   FF2,W
0ABAC:  MOVWF  00
0ABAE:  BCF    FF2.6
0ABB0:  BCF    FF2.7
0ABB2:  MOVLB  F
0ABB4:  MOVLW  55
0ABB6:  MOVWF  FA7
0ABB8:  MOVLW  AA
0ABBA:  MOVWF  FA7
0ABBC:  BSF    FA6.1
0ABBE:  BTFSC  FA6.1
0ABC0:  BRA    ABBE
0ABC2:  BCF    FA6.2
0ABC4:  MOVF   00,W
0ABC6:  IORWF  FF2,F
....................                delay_ms(10); 
0ABC8:  MOVLW  0A
0ABCA:  MOVLB  4
0ABCC:  MOVWF  x63
0ABCE:  MOVLB  0
0ABD0:  CALL   1A6C
....................                write_eeprom(105+((CicloLibre-1)*8),Tsecadop[0]+(Tsecadop[1]*10)); 
0ABD4:  MOVLW  01
0ABD6:  MOVLB  3
0ABD8:  SUBWF  x3A,W
0ABDA:  MULLW  08
0ABDC:  MOVF   FF3,W
0ABDE:  ADDLW  69
0ABE0:  MOVLB  4
0ABE2:  MOVWF  x4A
0ABE4:  MOVFF  C0,44C
0ABE8:  MOVLW  0A
0ABEA:  MOVWF  x4D
0ABEC:  MOVLB  0
0ABEE:  CALL   30AC
0ABF2:  MOVF   01,W
0ABF4:  ADDWF  xBF,W
0ABF6:  MOVLB  4
0ABF8:  MOVWF  x4B
0ABFA:  CLRF   FAA
0ABFC:  MOVFF  44A,FA9
0AC00:  MOVFF  44B,FA8
0AC04:  BCF    FA6.6
0AC06:  BCF    FA6.7
0AC08:  BSF    FA6.2
0AC0A:  MOVF   FF2,W
0AC0C:  MOVWF  00
0AC0E:  BCF    FF2.6
0AC10:  BCF    FF2.7
0AC12:  MOVLB  F
0AC14:  MOVLW  55
0AC16:  MOVWF  FA7
0AC18:  MOVLW  AA
0AC1A:  MOVWF  FA7
0AC1C:  BSF    FA6.1
0AC1E:  BTFSC  FA6.1
0AC20:  BRA    AC1E
0AC22:  BCF    FA6.2
0AC24:  MOVF   00,W
0AC26:  IORWF  FF2,F
....................                delay_ms(10); 
0AC28:  MOVLW  0A
0AC2A:  MOVLB  4
0AC2C:  MOVWF  x63
0AC2E:  MOVLB  0
0AC30:  CALL   1A6C
....................                Tsecado[0]=Tsecadop[0]; 
0AC34:  MOVFF  BF,BB
....................                Tsecado[1]=Tsecadop[1]; 
0AC38:  MOVFF  C0,BC
....................                Tsecado[2]=Tsecadop[2]; 
0AC3C:  MOVFF  C1,BD
....................                Tsecado[3]=Tsecadop[3]; 
0AC40:  MOVFF  C2,BE
....................                GuardaEEPROM=ON; 
0AC44:  BSF    xA2.6
....................             } 
....................          } 
....................           
....................          if(RIGHT){ 
0AC46:  BSF    F93.2
0AC48:  BTFSC  F81.2
0AC4A:  BRA    ACC0
....................             delay_ms(100); 
0AC4C:  MOVLW  64
0AC4E:  MOVLB  4
0AC50:  MOVWF  x63
0AC52:  MOVLB  0
0AC54:  CALL   1A6C
....................             if(RIGHT){ 
0AC58:  BSF    F93.2
0AC5A:  BTFSC  F81.2
0AC5C:  BRA    ACC0
....................                if(!Segundos){ 
0AC5E:  BTFSC  xA2.5
0AC60:  BRA    AC90
....................                   Segundos=ON; 
0AC62:  BSF    xA2.5
....................                   Minutos=OFF; 
0AC64:  BCF    xA2.4
....................                   printf("tminsec.pco=0"); 
0AC66:  MOVLW  D4
0AC68:  MOVWF  FF6
0AC6A:  MOVLW  0B
0AC6C:  MOVWF  FF7
0AC6E:  MOVLW  00
0AC70:  MOVWF  FF8
0AC72:  CALL   3BB2
....................                   SendDataDisplay();                    
0AC76:  CALL   3BE4
....................                   printf("tsecsec.pco=65535"); 
0AC7A:  MOVLW  E2
0AC7C:  MOVWF  FF6
0AC7E:  MOVLW  0B
0AC80:  MOVWF  FF7
0AC82:  MOVLW  00
0AC84:  MOVWF  FF8
0AC86:  CALL   3BB2
....................                   SendDataDisplay();   
0AC8A:  CALL   3BE4
....................                }else if(!Minutos){ 
0AC8E:  BRA    ACC0
0AC90:  BTFSC  xA2.4
0AC92:  BRA    ACC0
....................                   Segundos=OFF; 
0AC94:  BCF    xA2.5
....................                   Minutos=ON; 
0AC96:  BSF    xA2.4
....................                   printf("tminsec.pco=65535"); 
0AC98:  MOVLW  F4
0AC9A:  MOVWF  FF6
0AC9C:  MOVLW  0B
0AC9E:  MOVWF  FF7
0ACA0:  MOVLW  00
0ACA2:  MOVWF  FF8
0ACA4:  CALL   3BB2
....................                   SendDataDisplay();   
0ACA8:  CALL   3BE4
....................                   printf("tsecsec.pco=0"); 
0ACAC:  MOVLW  06
0ACAE:  MOVWF  FF6
0ACB0:  MOVLW  0C
0ACB2:  MOVWF  FF7
0ACB4:  MOVLW  00
0ACB6:  MOVWF  FF8
0ACB8:  CALL   3BB2
....................                   SendDataDisplay();   
0ACBC:  CALL   3BE4
....................                } 
....................             } 
....................          } 
....................           
....................          if(UP){ 
0ACC0:  BSF    F93.0
0ACC2:  BTFSC  F81.0
0ACC4:  BRA    AD00
....................             delay_ms(100); 
0ACC6:  MOVLW  64
0ACC8:  MOVLB  4
0ACCA:  MOVWF  x63
0ACCC:  MOVLB  0
0ACCE:  CALL   1A6C
....................             if(UP){ 
0ACD2:  BSF    F93.0
0ACD4:  BTFSC  F81.0
0ACD6:  BRA    AD00
....................                if(Segundos){ 
0ACD8:  BTFSS  xA2.5
0ACDA:  BRA    ACEC
....................                   Tsecadop[0]++; 
0ACDC:  INCF   xBF,F
....................                   if(Tsecadop[0]>9){ 
0ACDE:  BTFSC  xBF.7
0ACE0:  BRA    ACEC
0ACE2:  MOVF   xBF,W
0ACE4:  SUBLW  09
0ACE6:  BC    ACEC
....................                      Tsecadop[1]++; 
0ACE8:  INCF   xC0,F
....................                      Tsecadop[0]=0; 
0ACEA:  CLRF   xBF
....................                   } 
....................                } 
....................                if(Minutos){ 
0ACEC:  BTFSS  xA2.4
0ACEE:  BRA    AD00
....................                   Tsecado[2]++; 
0ACF0:  INCF   xBD,F
....................                   if(Tsecadop[2]>9){ 
0ACF2:  BTFSC  xC1.7
0ACF4:  BRA    AD00
0ACF6:  MOVF   xC1,W
0ACF8:  SUBLW  09
0ACFA:  BC    AD00
....................                      Tsecadop[3]++; 
0ACFC:  INCF   xC2,F
....................                      Tsecadop[2]=0; 
0ACFE:  CLRF   xC1
....................                   } 
....................                }   
....................             } 
....................          } 
....................           
....................          if(DOWN){ 
0AD00:  BSF    F93.1
0AD02:  BTFSC  F81.1
0AD04:  BRA    AD4A
....................             delay_ms(100); 
0AD06:  MOVLW  64
0AD08:  MOVLB  4
0AD0A:  MOVWF  x63
0AD0C:  MOVLB  0
0AD0E:  CALL   1A6C
....................             if(DOWN){ 
0AD12:  BSF    F93.1
0AD14:  BTFSC  F81.1
0AD16:  BRA    AD4A
....................                if(Segundos){ 
0AD18:  BTFSS  xA2.5
0AD1A:  BRA    AD38
....................                   Tsecadop[0]--; 
0AD1C:  DECF   xBF,F
....................                   if(Tsecadop[0]<0){ 
0AD1E:  BTFSC  xBF.7
0AD20:  BRA    AD24
0AD22:  BRA    AD2A
....................                      Tsecadop[1]--; 
0AD24:  DECF   xC0,F
....................                      Tsecadop[0]=9; 
0AD26:  MOVLW  09
0AD28:  MOVWF  xBF
....................                   } 
....................                   if(Tsecadop[1]<0){ 
0AD2A:  BTFSC  xC0.7
0AD2C:  BRA    AD30
0AD2E:  BRA    AD38
....................                      Tsecadop[1]=5; 
0AD30:  MOVLW  05
0AD32:  MOVWF  xC0
....................                      Tsecadop[0]=9; 
0AD34:  MOVLW  09
0AD36:  MOVWF  xBF
....................                   } 
....................                } 
....................                if(Minutos){ 
0AD38:  BTFSS  xA2.4
0AD3A:  BRA    AD4A
....................                   Tsecadop[2]--; 
0AD3C:  DECF   xC1,F
....................                   if(Tsecadop[2]<0){ 
0AD3E:  BTFSC  xC1.7
0AD40:  BRA    AD44
0AD42:  BRA    AD4A
....................                      Tsecadop[3]--; 
0AD44:  DECF   xC2,F
....................                      Tsecadop[2]=9; 
0AD46:  MOVLW  09
0AD48:  MOVWF  xC1
....................                   } 
....................                }   
....................             } 
....................          } 
....................           
....................          if(RX_Buffer[4]==0x0c || RX_Buffer[4]==0x0d){//Tecla Derecha Oprimida 
0AD4A:  MOVF   34,W
0AD4C:  SUBLW  0C
0AD4E:  BZ    AD56
0AD50:  MOVF   34,W
0AD52:  SUBLW  0D
0AD54:  BNZ   AD82
....................             if(Segundos){ 
0AD56:  BTFSS  xA2.5
0AD58:  BRA    AD6A
....................                Tsecadop[0]++; 
0AD5A:  INCF   xBF,F
....................                if(Tsecadop[0]>9){ 
0AD5C:  BTFSC  xBF.7
0AD5E:  BRA    AD6A
0AD60:  MOVF   xBF,W
0AD62:  SUBLW  09
0AD64:  BC    AD6A
....................                   Tsecadop[1]++; 
0AD66:  INCF   xC0,F
....................                   Tsecadop[0]=0; 
0AD68:  CLRF   xBF
....................                } 
....................             } 
....................             if(Minutos){ 
0AD6A:  BTFSS  xA2.4
0AD6C:  BRA    AD7E
....................                Tsecadop[2]++; 
0AD6E:  INCF   xC1,F
....................                if(Tsecadop[2]>9){ 
0AD70:  BTFSC  xC1.7
0AD72:  BRA    AD7E
0AD74:  MOVF   xC1,W
0AD76:  SUBLW  09
0AD78:  BC    AD7E
....................                   Tsecadop[3]++; 
0AD7A:  INCF   xC2,F
....................                   Tsecadop[2]=0; 
0AD7C:  CLRF   xC1
....................                } 
....................             } 
....................             RX_Buffer[4]=0x00;   
0AD7E:  CLRF   34
....................             RX_Buffer2[4]=0x00;  
0AD80:  CLRF   3F
....................          } 
....................           
....................          if(RX_Buffer[4]==0x0f || RX_Buffer[4]==0x0e){//Tecla Izquierda Oprimida 
0AD82:  MOVF   34,W
0AD84:  SUBLW  0F
0AD86:  BZ    AD8E
0AD88:  MOVF   34,W
0AD8A:  SUBLW  0E
0AD8C:  BNZ   ADC4
....................             if(Segundos){ 
0AD8E:  BTFSS  xA2.5
0AD90:  BRA    ADAE
....................                Tsecadop[0]--; 
0AD92:  DECF   xBF,F
....................                if(Tsecadop[0]<0){ 
0AD94:  BTFSC  xBF.7
0AD96:  BRA    AD9A
0AD98:  BRA    ADA0
....................                   Tsecadop[1]--; 
0AD9A:  DECF   xC0,F
....................                   Tsecadop[0]=9; 
0AD9C:  MOVLW  09
0AD9E:  MOVWF  xBF
....................                } 
....................                if(Tsecadop[1]<0){ 
0ADA0:  BTFSC  xC0.7
0ADA2:  BRA    ADA6
0ADA4:  BRA    ADAE
....................                   Tsecadop[1]=5; 
0ADA6:  MOVLW  05
0ADA8:  MOVWF  xC0
....................                   Tsecadop[0]=9; 
0ADAA:  MOVLW  09
0ADAC:  MOVWF  xBF
....................                } 
....................             } 
....................             if(Minutos){ 
0ADAE:  BTFSS  xA2.4
0ADB0:  BRA    ADC0
....................                Tsecadop[2]--; 
0ADB2:  DECF   xC1,F
....................                if(Tsecadop[2]<0){ 
0ADB4:  BTFSC  xC1.7
0ADB6:  BRA    ADBA
0ADB8:  BRA    ADC0
....................                   Tsecadop[3]--; 
0ADBA:  DECF   xC2,F
....................                   Tsecadop[2]=9; 
0ADBC:  MOVLW  09
0ADBE:  MOVWF  xC1
....................                } 
....................             } 
....................             RX_Buffer[4]=0x00;   
0ADC0:  CLRF   34
....................             RX_Buffer2[4]=0x00;             
0ADC2:  CLRF   3F
....................          } 
....................        
....................          if(Tsecadop[0]<0) 
0ADC4:  BTFSC  xBF.7
0ADC6:  BRA    ADCA
0ADC8:  BRA    ADCE
....................             Tsecadop[0]=9;             
0ADCA:  MOVLW  09
0ADCC:  MOVWF  xBF
....................          if(Tsecadop[1]<0) 
0ADCE:  BTFSC  xC0.7
0ADD0:  BRA    ADD4
0ADD2:  BRA    ADD8
....................             Tsecadop[1]=5;             
0ADD4:  MOVLW  05
0ADD6:  MOVWF  xC0
....................          if(Tsecadop[2]<0) 
0ADD8:  BTFSC  xC1.7
0ADDA:  BRA    ADDE
0ADDC:  BRA    ADE2
....................             Tsecadop[2]=9;             
0ADDE:  MOVLW  09
0ADE0:  MOVWF  xC1
....................          if(Tsecadop[3]<0) 
0ADE2:  BTFSC  xC2.7
0ADE4:  BRA    ADE8
0ADE6:  BRA    ADEC
....................             Tsecadop[3]=9;             
0ADE8:  MOVLW  09
0ADEA:  MOVWF  xC2
....................           
....................          if(Tsecadop[0]>9) 
0ADEC:  BTFSC  xBF.7
0ADEE:  BRA    ADF8
0ADF0:  MOVF   xBF,W
0ADF2:  SUBLW  09
0ADF4:  BC    ADF8
....................             Tsecadop[0]=0;             
0ADF6:  CLRF   xBF
....................          if(Tsecadop[1]>5) 
0ADF8:  BTFSC  xC0.7
0ADFA:  BRA    AE04
0ADFC:  MOVF   xC0,W
0ADFE:  SUBLW  05
0AE00:  BC    AE04
....................             Tsecadop[1]=0;             
0AE02:  CLRF   xC0
....................          if(Tsecadop[2]>9) 
0AE04:  BTFSC  xC1.7
0AE06:  BRA    AE10
0AE08:  MOVF   xC1,W
0AE0A:  SUBLW  09
0AE0C:  BC    AE10
....................             Tsecadop[2]=0;             
0AE0E:  CLRF   xC1
....................          if(Tsecadop[3]>9) 
0AE10:  BTFSC  xC2.7
0AE12:  BRA    AE1C
0AE14:  MOVF   xC2,W
0AE16:  SUBLW  09
0AE18:  BC    AE1C
....................             Tsecadop[3]=0; 
0AE1A:  CLRF   xC2
....................              
....................       printf("tminsec.txt=\"%02u\"",((Tsecadop[3]*10)+Tsecadop[2])); 
0AE1C:  MOVFF  C2,44C
0AE20:  MOVLW  0A
0AE22:  MOVLB  4
0AE24:  MOVWF  x4D
0AE26:  MOVLB  0
0AE28:  CALL   30AC
0AE2C:  MOVF   xC1,W
0AE2E:  ADDWF  01,W
0AE30:  MOVLB  4
0AE32:  MOVWF  x4A
0AE34:  MOVLW  14
0AE36:  MOVWF  FF6
0AE38:  MOVLW  0C
0AE3A:  MOVWF  FF7
0AE3C:  MOVLW  00
0AE3E:  MOVWF  FF8
0AE40:  MOVLW  0D
0AE42:  MOVWF  x50
0AE44:  MOVLB  0
0AE46:  CALL   4B26
0AE4A:  MOVFF  44A,450
0AE4E:  MOVLW  01
0AE50:  MOVLB  4
0AE52:  MOVWF  x51
0AE54:  MOVLB  0
0AE56:  CALL   4B84
0AE5A:  MOVLW  22
0AE5C:  BTFSS  F9E.4
0AE5E:  BRA    AE5C
0AE60:  MOVWF  FAD
....................       SendDataDisplay(); 
0AE62:  CALL   3BE4
....................       printf("tsecsec.txt=\"%02u\"",((Tsecadop[1]*10)+Tsecadop[0])); 
0AE66:  MOVFF  C0,44C
0AE6A:  MOVLW  0A
0AE6C:  MOVLB  4
0AE6E:  MOVWF  x4D
0AE70:  MOVLB  0
0AE72:  CALL   30AC
0AE76:  MOVF   xBF,W
0AE78:  ADDWF  01,W
0AE7A:  MOVLB  4
0AE7C:  MOVWF  x4A
0AE7E:  MOVLW  28
0AE80:  MOVWF  FF6
0AE82:  MOVLW  0C
0AE84:  MOVWF  FF7
0AE86:  MOVLW  00
0AE88:  MOVWF  FF8
0AE8A:  MOVLW  0D
0AE8C:  MOVWF  x50
0AE8E:  MOVLB  0
0AE90:  CALL   4B26
0AE94:  MOVFF  44A,450
0AE98:  MOVLW  01
0AE9A:  MOVLB  4
0AE9C:  MOVWF  x51
0AE9E:  MOVLB  0
0AEA0:  CALL   4B84
0AEA4:  MOVLW  22
0AEA6:  BTFSS  F9E.4
0AEA8:  BRA    AEA6
0AEAA:  MOVWF  FAD
....................       SendDataDisplay(); 
0AEAC:  CALL   3BE4
0AEB0:  MOVLB  3
....................     } 
.................... //_--------------------------------------------------------------------------------------------------------------------------------------------------------        
....................  
.................... //_-------------------------------------------------------------------------------------------------------------------------------------------------------- 
....................     if(Menu==4){ //Menu de Temperatura 
0AEB2:  MOVF   x5C,W
0AEB4:  SUBLW  04
0AEB6:  BTFSS  FD8.2
0AEB8:  BRA    B0BA
....................       printf("fecha.txt=\"Fecha:%02u/%02u/20%02u    Hora: %02u:%02u\"",Dia,Mes,Year,Hora,Minuto); 
0AEBA:  MOVLW  3C
0AEBC:  MOVWF  FF6
0AEBE:  MOVLW  0C
0AEC0:  MOVWF  FF7
0AEC2:  MOVLW  00
0AEC4:  MOVWF  FF8
0AEC6:  MOVLW  11
0AEC8:  MOVLB  4
0AECA:  MOVWF  x50
0AECC:  MOVLB  0
0AECE:  CALL   4B26
0AED2:  MOVFF  3AB,450
0AED6:  MOVLW  01
0AED8:  MOVLB  4
0AEDA:  MOVWF  x51
0AEDC:  MOVLB  0
0AEDE:  CALL   4B84
0AEE2:  MOVLW  2F
0AEE4:  BTFSS  F9E.4
0AEE6:  BRA    AEE4
0AEE8:  MOVWF  FAD
0AEEA:  MOVFF  3AA,450
0AEEE:  MOVLW  01
0AEF0:  MOVLB  4
0AEF2:  MOVWF  x51
0AEF4:  MOVLB  0
0AEF6:  CALL   4B84
0AEFA:  MOVLW  2F
0AEFC:  BTFSS  F9E.4
0AEFE:  BRA    AEFC
0AF00:  MOVWF  FAD
0AF02:  MOVLW  32
0AF04:  BTFSS  F9E.4
0AF06:  BRA    AF04
0AF08:  MOVWF  FAD
0AF0A:  MOVLW  30
0AF0C:  BTFSS  F9E.4
0AF0E:  BRA    AF0C
0AF10:  MOVWF  FAD
0AF12:  MOVFF  3A9,450
0AF16:  MOVLW  01
0AF18:  MOVLB  4
0AF1A:  MOVWF  x51
0AF1C:  MOVLB  0
0AF1E:  CALL   4B84
0AF22:  MOVLW  5D
0AF24:  MOVWF  FF6
0AF26:  MOVLW  0C
0AF28:  MOVWF  FF7
0AF2A:  MOVLW  00
0AF2C:  MOVWF  FF8
0AF2E:  MOVLW  0A
0AF30:  MOVLB  4
0AF32:  MOVWF  x50
0AF34:  MOVLB  0
0AF36:  CALL   4B26
0AF3A:  MOVFF  3AC,450
0AF3E:  MOVLW  01
0AF40:  MOVLB  4
0AF42:  MOVWF  x51
0AF44:  MOVLB  0
0AF46:  CALL   4B84
0AF4A:  MOVLW  3A
0AF4C:  BTFSS  F9E.4
0AF4E:  BRA    AF4C
0AF50:  MOVWF  FAD
0AF52:  MOVFF  3AD,450
0AF56:  MOVLW  01
0AF58:  MOVLB  4
0AF5A:  MOVWF  x51
0AF5C:  MOVLB  0
0AF5E:  CALL   4B84
0AF62:  MOVLW  22
0AF64:  BTFSS  F9E.4
0AF66:  BRA    AF64
0AF68:  MOVWF  FAD
....................       SendDataDisplay(); 
0AF6A:  CALL   3BE4
....................          if(Setpoint<Tmin) 
0AF6E:  MOVLB  3
0AF70:  MOVF   x62,W
0AF72:  SUBLW  68
0AF74:  BNC   AF7A
....................             Setpoint=Tmax; 
0AF76:  MOVLW  86
0AF78:  MOVWF  x62
....................          if(Setpoint>Tmax) 
0AF7A:  MOVF   x62,W
0AF7C:  SUBLW  86
0AF7E:  BC    AF84
....................             Setpoint=Tmin; 
0AF80:  MOVLW  69
0AF82:  MOVWF  x62
....................           
....................          if(RX_Buffer[4]==0x11 || LEFT){//Selecciono Regresar 
0AF84:  MOVF   34,W
0AF86:  SUBLW  11
0AF88:  BZ    AF90
0AF8A:  BSF    F93.3
0AF8C:  BTFSC  F81.3
0AF8E:  BRA    B028
....................             Segundos=OFF; 
0AF90:  MOVLB  0
0AF92:  BCF    xA2.5
....................             Minutos=OFF; 
0AF94:  BCF    xA2.4
....................             printf("page CicloPersona"); 
0AF96:  MOVLW  72
0AF98:  MOVWF  FF6
0AF9A:  MOVLW  0C
0AF9C:  MOVWF  FF7
0AF9E:  MOVLW  00
0AFA0:  MOVWF  FF8
0AFA2:  CALL   3BB2
....................             SendDataDisplay();   
0AFA6:  CALL   3BE4
....................             PantallaPrincipal=1; 
0AFAA:  MOVLW  01
0AFAC:  MOVLB  2
0AFAE:  MOVWF  xDD
....................             Op=OFF; 
0AFB0:  MOVLB  0
0AFB2:  BCF    xA2.2
....................             Op2=OFF; 
0AFB4:  BCF    xA2.3
....................             if(!GuardaEEPROM){ 
0AFB6:  BTFSC  xA2.6
0AFB8:  BRA    B026
....................                CiclosPersonalizados[CicloLibre-1].Temperatura=Setpoint; 
0AFBA:  MOVLW  01
0AFBC:  MOVLB  3
0AFBE:  SUBWF  x3A,W
0AFC0:  MULLW  0A
0AFC2:  MOVF   FF3,W
0AFC4:  MOVLB  4
0AFC6:  CLRF   x4B
0AFC8:  MOVWF  x4A
0AFCA:  MOVLW  22
0AFCC:  ADDWF  x4A,W
0AFCE:  MOVWF  FE9
0AFD0:  MOVLW  04
0AFD2:  ADDWFC x4B,W
0AFD4:  MOVWF  FEA
0AFD6:  MOVFF  362,FEF
....................                write_eeprom(100+((CicloLibre-1)*8),Setpoint); 
0AFDA:  MOVLW  01
0AFDC:  MOVLB  3
0AFDE:  SUBWF  x3A,W
0AFE0:  MULLW  08
0AFE2:  MOVF   FF3,W
0AFE4:  ADDLW  64
0AFE6:  MOVLB  4
0AFE8:  MOVWF  x4A
0AFEA:  CLRF   FAA
0AFEC:  MOVFF  44A,FA9
0AFF0:  MOVFF  362,FA8
0AFF4:  BCF    FA6.6
0AFF6:  BCF    FA6.7
0AFF8:  BSF    FA6.2
0AFFA:  MOVF   FF2,W
0AFFC:  MOVWF  00
0AFFE:  BCF    FF2.6
0B000:  BCF    FF2.7
0B002:  MOVLB  F
0B004:  MOVLW  55
0B006:  MOVWF  FA7
0B008:  MOVLW  AA
0B00A:  MOVWF  FA7
0B00C:  BSF    FA6.1
0B00E:  BTFSC  FA6.1
0B010:  BRA    B00E
0B012:  BCF    FA6.2
0B014:  MOVF   00,W
0B016:  IORWF  FF2,F
....................                delay_ms(10); 
0B018:  MOVLW  0A
0B01A:  MOVLB  4
0B01C:  MOVWF  x63
0B01E:  MOVLB  0
0B020:  CALL   1A6C
....................                GuardaEEPROM=ON; 
0B024:  BSF    xA2.6
0B026:  MOVLB  3
....................             } 
....................          } 
....................           
....................          if(UP){ 
0B028:  BSF    F93.0
0B02A:  BTFSC  F81.0
0B02C:  BRA    B044
....................             delay_ms(100); 
0B02E:  MOVLW  64
0B030:  MOVLB  4
0B032:  MOVWF  x63
0B034:  MOVLB  0
0B036:  CALL   1A6C
....................             if(UP){ 
0B03A:  BSF    F93.0
0B03C:  BTFSC  F81.0
0B03E:  BRA    B046
....................                Setpoint++; 
0B040:  MOVLB  3
0B042:  INCF   x62,F
0B044:  MOVLB  0
....................             } 
....................          } 
....................           
....................          if(DOWN){ 
0B046:  BSF    F93.1
0B048:  BTFSC  F81.1
0B04A:  BRA    B064
....................             delay_ms(100); 
0B04C:  MOVLW  64
0B04E:  MOVLB  4
0B050:  MOVWF  x63
0B052:  MOVLB  0
0B054:  CALL   1A6C
....................             if(DOWN){ 
0B058:  BSF    F93.1
0B05A:  BTFSC  F81.1
0B05C:  BRA    B064
....................                Setpoint--; 
0B05E:  MOVLB  3
0B060:  DECF   x62,F
0B062:  MOVLB  0
....................             } 
....................          } 
....................           
....................          if(RX_Buffer[4]==0x0d){//Tecla Arriba Oprimida 
0B064:  MOVF   34,W
0B066:  SUBLW  0D
0B068:  BNZ   B074
....................             Setpoint++; 
0B06A:  MOVLB  3
0B06C:  INCF   x62,F
....................             RX_Buffer[4]=0x00;   
0B06E:  CLRF   34
....................             RX_Buffer2[4]=0x00;             
0B070:  CLRF   3F
0B072:  MOVLB  0
....................             //BorraBuffer(); 
....................          } 
....................           
....................          if(RX_Buffer[4]==0x0c){//Tecla Abajo Oprimida 
0B074:  MOVF   34,W
0B076:  SUBLW  0C
0B078:  BNZ   B084
....................             Setpoint--; 
0B07A:  MOVLB  3
0B07C:  DECF   x62,F
....................             RX_Buffer[4]=0x00; 
0B07E:  CLRF   34
....................             RX_Buffer2[4]=0x00;             
0B080:  CLRF   3F
0B082:  MOVLB  0
....................             //BorraBuffer(); 
....................          } 
....................           
....................       printf("tsettem.txt=\"%03u\"",Setpoint); 
0B084:  MOVLW  84
0B086:  MOVWF  FF6
0B088:  MOVLW  0C
0B08A:  MOVWF  FF7
0B08C:  MOVLW  00
0B08E:  MOVWF  FF8
0B090:  MOVLW  0D
0B092:  MOVLB  4
0B094:  MOVWF  x50
0B096:  MOVLB  0
0B098:  CALL   4B26
0B09C:  MOVFF  362,450
0B0A0:  MOVLW  03
0B0A2:  MOVLB  4
0B0A4:  MOVWF  x51
0B0A6:  MOVLB  0
0B0A8:  CALL   4B84
0B0AC:  MOVLW  22
0B0AE:  BTFSS  F9E.4
0B0B0:  BRA    B0AE
0B0B2:  MOVWF  FAD
....................       SendDataDisplay(); 
0B0B4:  CALL   3BE4
0B0B8:  MOVLB  3
....................     } 
.................... //_--------------------------------------------------------------------------------------------------------------------------------------------------------        
....................  
.................... //_--------------------------------------------------------------------------------------------------------------------------------------------------------       
....................    if(Menu==5){//Menu de Nivel 
0B0BA:  MOVF   x5C,W
0B0BC:  SUBLW  05
0B0BE:  BTFSS  FD8.2
0B0C0:  BRA    B394
....................       printf("fecha.txt=\"T:%3.1fC Fecha:%02u/%02u/20%02u Hora: %02u:%02u:%02u\"",Temperatura,Dia,Mes,Year,Hora,Minuto,Segundo); 
0B0C2:  MOVLW  98
0B0C4:  MOVWF  FF6
0B0C6:  MOVLW  0C
0B0C8:  MOVWF  FF7
0B0CA:  MOVLW  00
0B0CC:  MOVWF  FF8
0B0CE:  MOVLW  0D
0B0D0:  MOVLB  4
0B0D2:  MOVWF  x50
0B0D4:  MOVLB  0
0B0D6:  CALL   4B26
0B0DA:  MOVLW  02
0B0DC:  MOVWF  FE9
0B0DE:  MOVFF  327,453
0B0E2:  MOVFF  326,452
0B0E6:  MOVFF  325,451
0B0EA:  MOVFF  324,450
0B0EE:  MOVLW  01
0B0F0:  MOVLB  4
0B0F2:  MOVWF  x54
0B0F4:  MOVLB  0
0B0F6:  CALL   4CC6
0B0FA:  MOVLW  AA
0B0FC:  MOVWF  FF6
0B0FE:  MOVLW  0C
0B100:  MOVWF  FF7
0B102:  MOVLW  00
0B104:  MOVWF  FF8
0B106:  MOVLW  09
0B108:  MOVLB  4
0B10A:  MOVWF  x50
0B10C:  MOVLB  0
0B10E:  CALL   4B26
0B112:  MOVFF  3AB,450
0B116:  MOVLW  01
0B118:  MOVLB  4
0B11A:  MOVWF  x51
0B11C:  MOVLB  0
0B11E:  CALL   4B84
0B122:  MOVLW  2F
0B124:  BTFSS  F9E.4
0B126:  BRA    B124
0B128:  MOVWF  FAD
0B12A:  MOVFF  3AA,450
0B12E:  MOVLW  01
0B130:  MOVLB  4
0B132:  MOVWF  x51
0B134:  MOVLB  0
0B136:  CALL   4B84
0B13A:  MOVLW  2F
0B13C:  BTFSS  F9E.4
0B13E:  BRA    B13C
0B140:  MOVWF  FAD
0B142:  MOVLW  32
0B144:  BTFSS  F9E.4
0B146:  BRA    B144
0B148:  MOVWF  FAD
0B14A:  MOVLW  30
0B14C:  BTFSS  F9E.4
0B14E:  BRA    B14C
0B150:  MOVWF  FAD
0B152:  MOVFF  3A9,450
0B156:  MOVLW  01
0B158:  MOVLB  4
0B15A:  MOVWF  x51
0B15C:  MOVLB  0
0B15E:  CALL   4B84
0B162:  MOVLW  C3
0B164:  MOVWF  FF6
0B166:  MOVLW  0C
0B168:  MOVWF  FF7
0B16A:  MOVLW  00
0B16C:  MOVWF  FF8
0B16E:  MOVLW  07
0B170:  MOVLB  4
0B172:  MOVWF  x50
0B174:  MOVLB  0
0B176:  CALL   4B26
0B17A:  MOVFF  3AC,450
0B17E:  MOVLW  01
0B180:  MOVLB  4
0B182:  MOVWF  x51
0B184:  MOVLB  0
0B186:  CALL   4B84
0B18A:  MOVLW  3A
0B18C:  BTFSS  F9E.4
0B18E:  BRA    B18C
0B190:  MOVWF  FAD
0B192:  MOVFF  3AD,450
0B196:  MOVLW  01
0B198:  MOVLB  4
0B19A:  MOVWF  x51
0B19C:  MOVLB  0
0B19E:  CALL   4B84
0B1A2:  MOVLW  3A
0B1A4:  BTFSS  F9E.4
0B1A6:  BRA    B1A4
0B1A8:  MOVWF  FAD
0B1AA:  MOVFF  3AE,450
0B1AE:  MOVLW  01
0B1B0:  MOVLB  4
0B1B2:  MOVWF  x51
0B1B4:  MOVLB  0
0B1B6:  CALL   4B84
0B1BA:  MOVLW  22
0B1BC:  BTFSS  F9E.4
0B1BE:  BRA    B1BC
0B1C0:  MOVWF  FAD
....................       SendDataDisplay(); 
0B1C2:  CALL   3BE4
....................          if(Nivel<1) 
0B1C6:  MOVLB  3
0B1C8:  MOVF   x70,F
0B1CA:  BNZ   B1D6
0B1CC:  MOVF   x71,F
0B1CE:  BNZ   B1D6
....................             Nivel=6; 
0B1D0:  CLRF   x71
0B1D2:  MOVLW  06
0B1D4:  MOVWF  x70
....................          if(Nivel>6) 
0B1D6:  MOVF   x71,F
0B1D8:  BNZ   B1E0
0B1DA:  MOVF   x70,W
0B1DC:  SUBLW  06
0B1DE:  BC    B1E6
....................             Nivel=1; 
0B1E0:  CLRF   x71
0B1E2:  MOVLW  01
0B1E4:  MOVWF  x70
....................           
....................          if(RX_Buffer[4]==0x11 || LEFT){//Selecciono Regresar 
0B1E6:  MOVF   34,W
0B1E8:  SUBLW  11
0B1EA:  BZ    B1F2
0B1EC:  BSF    F93.3
0B1EE:  BTFSC  F81.3
0B1F0:  BRA    B2EE
....................             Segundos=OFF; 
0B1F2:  MOVLB  0
0B1F4:  BCF    xA2.5
....................             Minutos=OFF;             
0B1F6:  BCF    xA2.4
....................             tiempo_secado=0; 
0B1F8:  MOVLB  3
0B1FA:  CLRF   x66
....................              
....................             if(!GuardaEEPROM){     
0B1FC:  MOVLB  0
0B1FE:  BTFSC  xA2.6
0B200:  BRA    B29A
....................                CiclosPersonalizados[CicloLibre-1].NivelDesfogue=Nivel; 
0B202:  MOVLW  01
0B204:  MOVLB  3
0B206:  SUBWF  x3A,W
0B208:  MULLW  0A
0B20A:  MOVF   FF3,W
0B20C:  MOVLB  4
0B20E:  CLRF   x4B
0B210:  MOVWF  x4A
0B212:  MOVLW  08
0B214:  ADDWF  x4A,W
0B216:  MOVWF  01
0B218:  MOVLW  00
0B21A:  ADDWFC x4B,W
0B21C:  MOVWF  03
0B21E:  MOVF   01,W
0B220:  ADDLW  22
0B222:  MOVWF  FE9
0B224:  MOVLW  04
0B226:  ADDWFC 03,W
0B228:  MOVWF  FEA
0B22A:  MOVFF  370,FEF
....................                write_eeprom(107+((CicloLibre-1)*8),Nivel); 
0B22E:  MOVLW  01
0B230:  MOVLB  3
0B232:  SUBWF  x3A,W
0B234:  MULLW  08
0B236:  MOVF   FF3,W
0B238:  ADDLW  6B
0B23A:  MOVLB  4
0B23C:  MOVWF  x4A
0B23E:  CLRF   FAA
0B240:  MOVFF  44A,FA9
0B244:  MOVFF  370,FA8
0B248:  BCF    FA6.6
0B24A:  BCF    FA6.7
0B24C:  BSF    FA6.2
0B24E:  MOVF   FF2,W
0B250:  MOVWF  00
0B252:  BCF    FF2.6
0B254:  BCF    FF2.7
0B256:  MOVLB  F
0B258:  MOVLW  55
0B25A:  MOVWF  FA7
0B25C:  MOVLW  AA
0B25E:  MOVWF  FA7
0B260:  BSF    FA6.1
0B262:  BTFSC  FA6.1
0B264:  BRA    B262
0B266:  BCF    FA6.2
0B268:  MOVF   00,W
0B26A:  IORWF  FF2,F
....................                delay_ms(20);             
0B26C:  MOVLW  14
0B26E:  MOVLB  4
0B270:  MOVWF  x63
0B272:  MOVLB  0
0B274:  CALL   1A6C
....................                NivelSeleccionado=4995*Nivel; 
0B278:  MOVLW  13
0B27A:  MOVLB  4
0B27C:  MOVWF  x66
0B27E:  MOVLW  83
0B280:  MOVWF  x65
0B282:  MOVFF  371,468
0B286:  MOVFF  370,467
0B28A:  MOVLB  0
0B28C:  CALL   1EA0
0B290:  MOVFF  02,37B
0B294:  MOVFF  01,37A
....................                GuardaEEPROM=ON; 
0B298:  BSF    xA2.6
....................             } 
....................              
....................             if(Nivel<6) 
0B29A:  MOVLB  3
0B29C:  MOVF   x71,F
0B29E:  BNZ   B2AC
0B2A0:  MOVF   x70,W
0B2A2:  SUBLW  05
0B2A4:  BNC   B2AC
....................                desfoguelento=1; 
0B2A6:  MOVLB  0
0B2A8:  BSF    xA4.7
....................             else             
0B2AA:  BRA    B2B0
....................                desfoguelento=0; 
0B2AC:  MOVLB  0
0B2AE:  BCF    xA4.7
....................  
....................             if(MenuAnt==1){ 
0B2B0:  MOVLB  3
0B2B2:  DECFSZ x5D,W
0B2B4:  BRA    B2D0
....................                //Buzzer_on; 
....................                printf("page CicloPersona"); 
0B2B6:  MOVLW  DA
0B2B8:  MOVWF  FF6
0B2BA:  MOVLW  0C
0B2BC:  MOVWF  FF7
0B2BE:  MOVLW  00
0B2C0:  MOVWF  FF8
0B2C2:  MOVLB  0
0B2C4:  CALL   3BB2
....................                SendDataDisplay();  
0B2C8:  CALL   3BE4
....................                //PantallaPrincipal=1; 
....................             }else if(MenuAnt==2){ 
0B2CC:  BRA    B2EC
0B2CE:  MOVLB  3
0B2D0:  MOVF   x5D,W
0B2D2:  SUBLW  02
0B2D4:  BNZ   B2EE
....................                printf("page Funcionamiento"); 
0B2D6:  MOVLW  EC
0B2D8:  MOVWF  FF6
0B2DA:  MOVLW  0C
0B2DC:  MOVWF  FF7
0B2DE:  MOVLW  00
0B2E0:  MOVWF  FF8
0B2E2:  MOVLB  0
0B2E4:  CALL   3BB2
....................                SendDataDisplay();  
0B2E8:  CALL   3BE4
0B2EC:  MOVLB  3
....................                //if(Temperatura>60)TTrampa=TTrampa+5; 
....................             } 
....................          } 
....................           
....................          if(UP){ 
0B2EE:  BSF    F93.0
0B2F0:  BTFSC  F81.0
0B2F2:  BRA    B30E
....................             delay_ms(100); 
0B2F4:  MOVLW  64
0B2F6:  MOVLB  4
0B2F8:  MOVWF  x63
0B2FA:  MOVLB  0
0B2FC:  CALL   1A6C
....................             if(UP){ 
0B300:  BSF    F93.0
0B302:  BTFSC  F81.0
0B304:  BRA    B310
....................                Nivel++; 
0B306:  MOVLB  3
0B308:  INCF   x70,F
0B30A:  BTFSC  FD8.2
0B30C:  INCF   x71,F
0B30E:  MOVLB  0
....................             } 
....................          } 
....................           
....................          if(DOWN){ 
0B310:  BSF    F93.1
0B312:  BTFSC  F81.1
0B314:  BRA    B334
....................             delay_ms(100); 
0B316:  MOVLW  64
0B318:  MOVLB  4
0B31A:  MOVWF  x63
0B31C:  MOVLB  0
0B31E:  CALL   1A6C
....................             if(DOWN){ 
0B322:  BSF    F93.1
0B324:  BTFSC  F81.1
0B326:  BRA    B334
....................                Nivel--; 
0B328:  MOVLB  3
0B32A:  MOVF   x70,W
0B32C:  BTFSC  FD8.2
0B32E:  DECF   x71,F
0B330:  DECF   x70,F
0B332:  MOVLB  0
....................             } 
....................          } 
....................           
....................          if(RX_Buffer[4]==0x0d){//Tecla Arriba Oprimida 
0B334:  MOVF   34,W
0B336:  SUBLW  0D
0B338:  BNZ   B348
....................             Nivel++; 
0B33A:  MOVLB  3
0B33C:  INCF   x70,F
0B33E:  BTFSC  FD8.2
0B340:  INCF   x71,F
....................             RX_Buffer[4]=0x00;             
0B342:  CLRF   34
....................             RX_Buffer2[4]=0x00;             
0B344:  CLRF   3F
0B346:  MOVLB  0
....................             //BorraBuffer(); 
....................          } 
....................           
....................          if(RX_Buffer[4]==0x0c){//Tecla Abajo Oprimida 
0B348:  MOVF   34,W
0B34A:  SUBLW  0C
0B34C:  BNZ   B35E
....................             Nivel--; 
0B34E:  MOVLB  3
0B350:  MOVF   x70,W
0B352:  BTFSC  FD8.2
0B354:  DECF   x71,F
0B356:  DECF   x70,F
....................             RX_Buffer[4]=0x00; 
0B358:  CLRF   34
....................             RX_Buffer2[4]=0x00;             
0B35A:  CLRF   3F
0B35C:  MOVLB  0
....................             //BorraBuffer(); 
....................          } 
....................           
....................       printf("tnivel.txt=\"%Lu\"",Nivel); 
0B35E:  MOVLW  00
0B360:  MOVWF  FF6
0B362:  MOVLW  0D
0B364:  MOVWF  FF7
0B366:  MOVLW  00
0B368:  MOVWF  FF8
0B36A:  MOVLW  0C
0B36C:  MOVLB  4
0B36E:  MOVWF  x50
0B370:  MOVLB  0
0B372:  CALL   4B26
0B376:  MOVLW  10
0B378:  MOVWF  FE9
0B37A:  MOVFF  371,451
0B37E:  MOVFF  370,450
0B382:  CALL   54F8
0B386:  MOVLW  22
0B388:  BTFSS  F9E.4
0B38A:  BRA    B388
0B38C:  MOVWF  FAD
....................       SendDataDisplay(); 
0B38E:  CALL   3BE4
0B392:  MOVLB  3
....................    } 
.................... //_--------------------------------------------------------------------------------------------------------------------------------------------------------       
....................  
.................... //_--------------------------------------------------------------------------------------------------------------------------------------------------------       
....................       if(Menu==6){ // Menu de Prueba de Componentes 
0B394:  MOVF   x5C,W
0B396:  SUBLW  06
0B398:  BTFSS  FD8.2
0B39A:  BRA    BAE6
....................          PruebaEstados=ON; 
0B39C:  MOVLB  0
0B39E:  BSF    xA1.4
....................           
....................          if(RX_Buffer[4]==0x02)//Oprimio EV Desfogue 
0B3A0:  MOVF   34,W
0B3A2:  SUBLW  02
0B3A4:  BNZ   B3AC
....................          { 
....................             EstadoDesfogue=!EstadoDesfogue; 
0B3A6:  BTG    xA1.1
....................             RX_Buffer[4]=0x00; 
0B3A8:  CLRF   34
....................             RX_Buffer2[4]=0x00; 
0B3AA:  CLRF   3F
....................          } 
....................           
....................          if(EstadoDesfogue){ 
0B3AC:  BTFSS  xA1.1
0B3AE:  BRA    B3CA
....................             printf("b1.bco=2016"); 
0B3B0:  MOVLW  12
0B3B2:  MOVWF  FF6
0B3B4:  MOVLW  0D
0B3B6:  MOVWF  FF7
0B3B8:  MOVLW  00
0B3BA:  MOVWF  FF8
0B3BC:  CALL   3BB2
....................             SendDataDisplay();  
0B3C0:  CALL   3BE4
....................             Desfogue_on; 
0B3C4:  BSF    F8C.4
0B3C6:  BCF    F95.4
....................          } 
....................          else{ 
0B3C8:  BRA    B3E2
....................             printf("b1.bco=63488"); 
0B3CA:  MOVLW  1E
0B3CC:  MOVWF  FF6
0B3CE:  MOVLW  0D
0B3D0:  MOVWF  FF7
0B3D2:  MOVLW  00
0B3D4:  MOVWF  FF8
0B3D6:  CALL   3BB2
....................             SendDataDisplay();  
0B3DA:  CALL   3BE4
....................             Desfogue_off; 
0B3DE:  BCF    F8C.4
0B3E0:  BCF    F95.4
....................          } 
....................           
....................          if(RX_Buffer[4]==0x01)//Oprimio EV Agua 
0B3E2:  DECFSZ 34,W
0B3E4:  BRA    B3EC
....................          { 
....................             EstadoAgua=!EstadoAgua; 
0B3E6:  BTG    xA1.2
....................             RX_Buffer[4]=0x00; 
0B3E8:  CLRF   34
....................             RX_Buffer2[4]=0x00; 
0B3EA:  CLRF   3F
....................          } 
....................           
....................          if(EstadoAgua){ 
0B3EC:  BTFSS  xA1.2
0B3EE:  BRA    B40A
....................             printf("b0.bco=2016"); 
0B3F0:  MOVLW  2C
0B3F2:  MOVWF  FF6
0B3F4:  MOVLW  0D
0B3F6:  MOVWF  FF7
0B3F8:  MOVLW  00
0B3FA:  MOVWF  FF8
0B3FC:  CALL   3BB2
....................             SendDataDisplay();  
0B400:  CALL   3BE4
....................             Agua_on; 
0B404:  BSF    F8C.5
0B406:  BCF    F95.5
....................          } 
....................          else{ 
0B408:  BRA    B422
....................             printf("b0.bco=63488"); 
0B40A:  MOVLW  38
0B40C:  MOVWF  FF6
0B40E:  MOVLW  0D
0B410:  MOVWF  FF7
0B412:  MOVLW  00
0B414:  MOVWF  FF8
0B416:  CALL   3BB2
....................             SendDataDisplay();  
0B41A:  CALL   3BE4
....................             Agua_off; 
0B41E:  BCF    F8C.5
0B420:  BCF    F95.5
....................          } 
....................           
....................          if(RX_Buffer[4]==0x03)//Oprimio EV Paso 
0B422:  MOVF   34,W
0B424:  SUBLW  03
0B426:  BNZ   B42E
....................          { 
....................             EstadoPaso=!EstadoPaso; 
0B428:  BTG    xA2.7
....................             RX_Buffer[4]=0x00; 
0B42A:  CLRF   34
....................             RX_Buffer2[4]=0x00; 
0B42C:  CLRF   3F
....................          } 
....................           
....................          if(EstadoPaso){ 
0B42E:  BTFSS  xA2.7
0B430:  BRA    B44C
....................             printf("b2.bco=2016"); 
0B432:  MOVLW  46
0B434:  MOVWF  FF6
0B436:  MOVLW  0D
0B438:  MOVWF  FF7
0B43A:  MOVLW  00
0B43C:  MOVWF  FF8
0B43E:  CALL   3BB2
....................             SendDataDisplay();  
0B442:  CALL   3BE4
....................             #ifdef Enfriador 
....................             Enfr_on; 
....................             #else 
....................             Bomba_on; 
0B446:  BSF    F8C.6
0B448:  BCF    F95.6
....................             #endif 
....................          } 
....................          else{ 
0B44A:  BRA    B464
....................             printf("b2.bco=63488"); 
0B44C:  MOVLW  52
0B44E:  MOVWF  FF6
0B450:  MOVLW  0D
0B452:  MOVWF  FF7
0B454:  MOVLW  00
0B456:  MOVWF  FF8
0B458:  CALL   3BB2
....................             SendDataDisplay();  
0B45C:  CALL   3BE4
....................             #ifdef Enfriador 
....................             Enfr_off; 
....................             #else 
....................             Bomba_off; 
0B460:  BCF    F8C.6
0B462:  BCF    F95.6
....................             #endif 
....................          } 
....................          
....................           
....................          if(RX_Buffer[4]==0x05)//Oprimio Bloqueo 
0B464:  MOVF   34,W
0B466:  SUBLW  05
0B468:  BNZ   B470
....................          { 
....................             EstadoAire=!EstadoAire; 
0B46A:  BTG    xA2.0
....................             RX_Buffer[4]=0x00; 
0B46C:  CLRF   34
....................             RX_Buffer2[4]=0x00; 
0B46E:  CLRF   3F
....................          } 
....................           
....................          if(EstadoAire){ 
0B470:  BTFSS  xA2.0
0B472:  BRA    B48C
....................             printf("b4.bco=2016"); 
0B474:  MOVLW  60
0B476:  MOVWF  FF6
0B478:  MOVLW  0D
0B47A:  MOVWF  FF7
0B47C:  MOVLW  00
0B47E:  MOVWF  FF8
0B480:  CALL   3BB2
....................             SendDataDisplay();  
0B484:  CALL   3BE4
....................             Aire=ON;    
0B488:  BSF    xA4.2
....................          }else{ 
0B48A:  BRA    B4A2
....................             printf("b4.bco=63488"); 
0B48C:  MOVLW  6C
0B48E:  MOVWF  FF6
0B490:  MOVLW  0D
0B492:  MOVWF  FF7
0B494:  MOVLW  00
0B496:  MOVWF  FF8
0B498:  CALL   3BB2
....................             SendDataDisplay();  
0B49C:  CALL   3BE4
....................             Aire=OFF; 
0B4A0:  BCF    xA4.2
....................          } 
....................           
....................           
....................          if(RX_Buffer[4]==0x04)//Oprimio SSR1 
0B4A2:  MOVF   34,W
0B4A4:  SUBLW  04
0B4A6:  BNZ   B4AE
....................          { 
....................             EstadoSSR=!EstadoSSR; 
0B4A8:  BTG    xA1.3
....................             RX_Buffer[4]=0x00; 
0B4AA:  CLRF   34
....................             RX_Buffer2[4]=0x00; 
0B4AC:  CLRF   3F
....................          } 
....................           
....................          if(EstadoSSR){ 
0B4AE:  BTFSS  xA1.3
0B4B0:  BRA    B4CC
....................             printf("b3.bco=2016"); 
0B4B2:  MOVLW  7A
0B4B4:  MOVWF  FF6
0B4B6:  MOVLW  0D
0B4B8:  MOVWF  FF7
0B4BA:  MOVLW  00
0B4BC:  MOVWF  FF8
0B4BE:  CALL   3BB2
....................             SendDataDisplay();  
0B4C2:  CALL   3BE4
....................             SSR_on; 
0B4C6:  BCF    F8B.2
0B4C8:  BCF    F94.2
....................          } 
....................          else{ 
0B4CA:  BRA    B4E4
....................             printf("b3.bco=63488"); 
0B4CC:  MOVLW  86
0B4CE:  MOVWF  FF6
0B4D0:  MOVLW  0D
0B4D2:  MOVWF  FF7
0B4D4:  MOVLW  00
0B4D6:  MOVWF  FF8
0B4D8:  CALL   3BB2
....................             SendDataDisplay();  
0B4DC:  CALL   3BE4
....................             SSR_off; 
0B4E0:  BSF    F8B.2
0B4E2:  BCF    F94.2
....................          } 
....................           
....................          if(DOOR){ 
0B4E4:  BSF    F93.6
0B4E6:  BTFSC  F81.6
0B4E8:  BRA    B500
....................             printf("b8.bco=2016"); 
0B4EA:  MOVLW  94
0B4EC:  MOVWF  FF6
0B4EE:  MOVLW  0D
0B4F0:  MOVWF  FF7
0B4F2:  MOVLW  00
0B4F4:  MOVWF  FF8
0B4F6:  CALL   3BB2
....................             SendDataDisplay();  
0B4FA:  CALL   3BE4
....................          }else{ 
0B4FE:  BRA    B514
....................             printf("b8.bco=63488"); 
0B500:  MOVLW  A0
0B502:  MOVWF  FF6
0B504:  MOVLW  0D
0B506:  MOVWF  FF7
0B508:  MOVLW  00
0B50A:  MOVWF  FF8
0B50C:  CALL   3BB2
....................             SendDataDisplay();  
0B510:  CALL   3BE4
....................          } 
....................           
....................          if(TERM){ 
0B514:  BSF    F93.5
0B516:  BTFSC  F81.5
0B518:  BRA    B530
....................             printf("b9.bco=2016"); 
0B51A:  MOVLW  AE
0B51C:  MOVWF  FF6
0B51E:  MOVLW  0D
0B520:  MOVWF  FF7
0B522:  MOVLW  00
0B524:  MOVWF  FF8
0B526:  CALL   3BB2
....................             SendDataDisplay();  
0B52A:  CALL   3BE4
....................          }else{ 
0B52E:  BRA    B544
....................             printf("b9.bco=63488"); 
0B530:  MOVLW  BA
0B532:  MOVWF  FF6
0B534:  MOVLW  0D
0B536:  MOVWF  FF7
0B538:  MOVLW  00
0B53A:  MOVWF  FF8
0B53C:  CALL   3BB2
....................             SendDataDisplay();  
0B540:  CALL   3BE4
....................          } 
....................           
....................          if(STOP){ 
0B544:  BSF    F93.7
0B546:  BTFSC  F81.7
0B548:  BRA    B560
....................             printf("b10.bco=2016"); 
0B54A:  MOVLW  C8
0B54C:  MOVWF  FF6
0B54E:  MOVLW  0D
0B550:  MOVWF  FF7
0B552:  MOVLW  00
0B554:  MOVWF  FF8
0B556:  CALL   3BB2
....................             SendDataDisplay();  
0B55A:  CALL   3BE4
....................          }else{ 
0B55E:  BRA    B574
....................             printf("b10.bco=63488"); 
0B560:  MOVLW  D6
0B562:  MOVWF  FF6
0B564:  MOVLW  0D
0B566:  MOVWF  FF7
0B568:  MOVLW  00
0B56A:  MOVWF  FF8
0B56C:  CALL   3BB2
....................             SendDataDisplay();  
0B570:  CALL   3BE4
....................          } 
....................           
....................          /*if(PRES){ 
....................             printf("b11.bco=2016"); 
....................             SendDataDisplay();  
....................          }else{ 
....................             printf("b11.bco=63488"); 
....................             SendDataDisplay();  
....................          }*/ 
....................           
....................          if(RX_Buffer[4]==0x13)//Oprimio Buzzer 
0B574:  MOVF   34,W
0B576:  SUBLW  13
0B578:  BNZ   B580
....................          { 
....................             EstadoBuzzer=!EstadoBuzzer; 
0B57A:  BTG    xA3.0
....................             RX_Buffer[4]=0x00; 
0B57C:  CLRF   34
....................             RX_Buffer2[4]=0x00; 
0B57E:  CLRF   3F
....................          } 
....................           
....................          if(EstadoBuzzer){ 
0B580:  BTFSS  xA3.0
0B582:  BRA    B59E
....................             printf("b12.bco=2016"); 
0B584:  MOVLW  E4
0B586:  MOVWF  FF6
0B588:  MOVLW  0D
0B58A:  MOVWF  FF7
0B58C:  MOVLW  00
0B58E:  MOVWF  FF8
0B590:  CALL   3BB2
....................             SendDataDisplay();  
0B594:  CALL   3BE4
....................             Buzzer_on; 
0B598:  BSF    F8C.0
0B59A:  BCF    F95.0
....................          } 
....................          else{ 
0B59C:  BRA    B5B6
....................             printf("b12.bco=63488"); 
0B59E:  MOVLW  F2
0B5A0:  MOVWF  FF6
0B5A2:  MOVLW  0D
0B5A4:  MOVWF  FF7
0B5A6:  MOVLW  00
0B5A8:  MOVWF  FF8
0B5AA:  CALL   3BB2
....................             SendDataDisplay();  
0B5AE:  CALL   3BE4
....................             Buzzer_off; 
0B5B2:  BCF    F8C.0
0B5B4:  BCF    F95.0
....................          } 
....................           
....................          if(HIG){ 
0B5B6:  BSF    F94.0
0B5B8:  BTFSS  F82.0
0B5BA:  BRA    B5D2
....................             printf("b16.bco=2016"); 
0B5BC:  MOVLW  00
0B5BE:  MOVWF  FF6
0B5C0:  MOVLW  0E
0B5C2:  MOVWF  FF7
0B5C4:  MOVLW  00
0B5C6:  MOVWF  FF8
0B5C8:  CALL   3BB2
....................             SendDataDisplay();  
0B5CC:  CALL   3BE4
....................          }else{ 
0B5D0:  BRA    B5E6
....................             printf("b16.bco=63488"); 
0B5D2:  MOVLW  0E
0B5D4:  MOVWF  FF6
0B5D6:  MOVLW  0E
0B5D8:  MOVWF  FF7
0B5DA:  MOVLW  00
0B5DC:  MOVWF  FF8
0B5DE:  CALL   3BB2
....................             SendDataDisplay();  
0B5E2:  CALL   3BE4
....................          } 
....................           
....................          if(LOW){ 
0B5E6:  BSF    F94.1
0B5E8:  BTFSS  F82.1
0B5EA:  BRA    B602
....................             printf("b17.bco=2016"); 
0B5EC:  MOVLW  1C
0B5EE:  MOVWF  FF6
0B5F0:  MOVLW  0E
0B5F2:  MOVWF  FF7
0B5F4:  MOVLW  00
0B5F6:  MOVWF  FF8
0B5F8:  CALL   3BB2
....................             SendDataDisplay();  
0B5FC:  CALL   3BE4
....................          }else{ 
0B600:  BRA    B616
....................             printf("b17.bco=63488"); 
0B602:  MOVLW  2A
0B604:  MOVWF  FF6
0B606:  MOVLW  0E
0B608:  MOVWF  FF7
0B60A:  MOVLW  00
0B60C:  MOVWF  FF8
0B60E:  CALL   3BB2
....................             SendDataDisplay();  
0B612:  CALL   3BE4
....................          } 
....................           
....................          printf("b13.txt=\"ADC0:%3.0f\"",sensores(0));          
0B616:  MOVLB  4
0B618:  CLRF   x53
0B61A:  MOVLB  0
0B61C:  CALL   3C38
0B620:  MOVFF  00,44A
0B624:  MOVFF  01,44B
0B628:  MOVFF  02,44C
0B62C:  MOVFF  03,44D
0B630:  MOVLW  38
0B632:  MOVWF  FF6
0B634:  MOVLW  0E
0B636:  MOVWF  FF7
0B638:  MOVLW  00
0B63A:  MOVWF  FF8
0B63C:  MOVLW  0E
0B63E:  MOVLB  4
0B640:  MOVWF  x50
0B642:  MOVLB  0
0B644:  CALL   4B26
0B648:  MOVLW  02
0B64A:  MOVWF  FE9
0B64C:  MOVFF  44D,453
0B650:  MOVFF  44C,452
0B654:  MOVFF  44B,451
0B658:  MOVFF  44A,450
0B65C:  MOVLB  4
0B65E:  CLRF   x54
0B660:  MOVLB  0
0B662:  CALL   4CC6
0B666:  MOVLW  22
0B668:  BTFSS  F9E.4
0B66A:  BRA    B668
0B66C:  MOVWF  FAD
....................          SendDataDisplay(); 
0B66E:  CALL   3BE4
....................          printf("b14.txt=\"ADC1:%3.0f\"",sensores(1));          
0B672:  MOVLW  01
0B674:  MOVLB  4
0B676:  MOVWF  x53
0B678:  MOVLB  0
0B67A:  CALL   3C38
0B67E:  MOVFF  00,44A
0B682:  MOVFF  01,44B
0B686:  MOVFF  02,44C
0B68A:  MOVFF  03,44D
0B68E:  MOVLW  4E
0B690:  MOVWF  FF6
0B692:  MOVLW  0E
0B694:  MOVWF  FF7
0B696:  MOVLW  00
0B698:  MOVWF  FF8
0B69A:  MOVLW  0E
0B69C:  MOVLB  4
0B69E:  MOVWF  x50
0B6A0:  MOVLB  0
0B6A2:  CALL   4B26
0B6A6:  MOVLW  02
0B6A8:  MOVWF  FE9
0B6AA:  MOVFF  44D,453
0B6AE:  MOVFF  44C,452
0B6B2:  MOVFF  44B,451
0B6B6:  MOVFF  44A,450
0B6BA:  MOVLB  4
0B6BC:  CLRF   x54
0B6BE:  MOVLB  0
0B6C0:  CALL   4CC6
0B6C4:  MOVLW  22
0B6C6:  BTFSS  F9E.4
0B6C8:  BRA    B6C6
0B6CA:  MOVWF  FAD
....................          SendDataDisplay(); 
0B6CC:  CALL   3BE4
....................          printf("b15.txt=\"A2:%3.0f %03Lu\"",sensores(2),PresionCamara); 
0B6D0:  MOVLW  02
0B6D2:  MOVLB  4
0B6D4:  MOVWF  x53
0B6D6:  MOVLB  0
0B6D8:  CALL   3C38
0B6DC:  MOVFF  00,44A
0B6E0:  MOVFF  01,44B
0B6E4:  MOVFF  02,44C
0B6E8:  MOVFF  03,44D
0B6EC:  MOVLW  64
0B6EE:  MOVWF  FF6
0B6F0:  MOVLW  0E
0B6F2:  MOVWF  FF7
0B6F4:  MOVLW  00
0B6F6:  MOVWF  FF8
0B6F8:  MOVLW  0C
0B6FA:  MOVLB  4
0B6FC:  MOVWF  x50
0B6FE:  MOVLB  0
0B700:  CALL   4B26
0B704:  MOVLW  02
0B706:  MOVWF  FE9
0B708:  MOVFF  44D,453
0B70C:  MOVFF  44C,452
0B710:  MOVFF  44B,451
0B714:  MOVFF  44A,450
0B718:  MOVLB  4
0B71A:  CLRF   x54
0B71C:  MOVLB  0
0B71E:  CALL   4CC6
0B722:  MOVLW  20
0B724:  BTFSS  F9E.4
0B726:  BRA    B724
0B728:  MOVWF  FAD
0B72A:  MOVLW  0A
0B72C:  MOVWF  FE9
0B72E:  MOVFF  375,451
0B732:  MOVFF  374,450
0B736:  CALL   54F8
0B73A:  MOVLW  22
0B73C:  BTFSS  F9E.4
0B73E:  BRA    B73C
0B740:  MOVWF  FAD
....................          SendDataDisplay(); 
0B742:  CALL   3BE4
....................          printf("b18.txt=\"A3:%3.0f %03Lu\"",sensores(3),PresionPreCamara); 
0B746:  MOVLW  03
0B748:  MOVLB  4
0B74A:  MOVWF  x53
0B74C:  MOVLB  0
0B74E:  CALL   3C38
0B752:  MOVFF  00,44A
0B756:  MOVFF  01,44B
0B75A:  MOVFF  02,44C
0B75E:  MOVFF  03,44D
0B762:  MOVLW  7E
0B764:  MOVWF  FF6
0B766:  MOVLW  0E
0B768:  MOVWF  FF7
0B76A:  MOVLW  00
0B76C:  MOVWF  FF8
0B76E:  MOVLW  0C
0B770:  MOVLB  4
0B772:  MOVWF  x50
0B774:  MOVLB  0
0B776:  CALL   4B26
0B77A:  MOVLW  02
0B77C:  MOVWF  FE9
0B77E:  MOVFF  44D,453
0B782:  MOVFF  44C,452
0B786:  MOVFF  44B,451
0B78A:  MOVFF  44A,450
0B78E:  MOVLB  4
0B790:  CLRF   x54
0B792:  MOVLB  0
0B794:  CALL   4CC6
0B798:  MOVLW  20
0B79A:  BTFSS  F9E.4
0B79C:  BRA    B79A
0B79E:  MOVWF  FAD
0B7A0:  MOVLW  0A
0B7A2:  MOVWF  FE9
0B7A4:  MOVFF  377,451
0B7A8:  MOVFF  376,450
0B7AC:  CALL   54F8
0B7B0:  MOVLW  22
0B7B2:  BTFSS  F9E.4
0B7B4:  BRA    B7B2
0B7B6:  MOVWF  FAD
....................          SendDataDisplay(); 
0B7B8:  CALL   3BE4
....................          printf("b20.txt=\"T1:%3.1f\"",Temperatura); 
0B7BC:  MOVLW  98
0B7BE:  MOVWF  FF6
0B7C0:  MOVLW  0E
0B7C2:  MOVWF  FF7
0B7C4:  MOVLW  00
0B7C6:  MOVWF  FF8
0B7C8:  MOVLW  0C
0B7CA:  MOVLB  4
0B7CC:  MOVWF  x50
0B7CE:  MOVLB  0
0B7D0:  CALL   4B26
0B7D4:  MOVLW  02
0B7D6:  MOVWF  FE9
0B7D8:  MOVFF  327,453
0B7DC:  MOVFF  326,452
0B7E0:  MOVFF  325,451
0B7E4:  MOVFF  324,450
0B7E8:  MOVLW  01
0B7EA:  MOVLB  4
0B7EC:  MOVWF  x54
0B7EE:  MOVLB  0
0B7F0:  CALL   4CC6
0B7F4:  MOVLW  22
0B7F6:  BTFSS  F9E.4
0B7F8:  BRA    B7F6
0B7FA:  MOVWF  FAD
....................          SendDataDisplay(); 
0B7FC:  CALL   3BE4
....................           
....................          if(RX_Buffer[4]==0x21 || LEFT){//Oprimio salir 
0B800:  MOVF   34,W
0B802:  SUBLW  21
0B804:  BZ    B80C
0B806:  BSF    F93.3
0B808:  BTFSC  F81.3
0B80A:  BRA    B854
....................             delay_ms(100); 
0B80C:  MOVLW  64
0B80E:  MOVLB  4
0B810:  MOVWF  x63
0B812:  MOVLB  0
0B814:  CALL   1A6C
....................             if(RX_Buffer[4]==0x21 || LEFT){ 
0B818:  MOVF   34,W
0B81A:  SUBLW  21
0B81C:  BZ    B824
0B81E:  BSF    F93.3
0B820:  BTFSC  F81.3
0B822:  BRA    B854
....................                printf("page MenuPrincipal"); 
0B824:  MOVLW  AC
0B826:  MOVWF  FF6
0B828:  MOVLW  0E
0B82A:  MOVWF  FF7
0B82C:  MOVLW  00
0B82E:  MOVWF  FF8
0B830:  CALL   3BB2
....................                SendDataDisplay(); 
0B834:  CALL   3BE4
....................                PantallaPrincipal=0; 
0B838:  MOVLB  2
0B83A:  CLRF   xDD
....................                PruebaEstados=OFF;Desfogue_off;Agua_off; 
0B83C:  MOVLB  0
0B83E:  BCF    xA1.4
0B840:  BCF    F8C.4
0B842:  BCF    F95.4
0B844:  BCF    F8C.5
0B846:  BCF    F95.5
....................                #ifdef Enfriador 
....................                Enfr_off; 
....................                #else 
....................                Bomba_off; 
0B848:  BCF    F8C.6
0B84A:  BCF    F95.6
....................                #endif 
....................                SSR_off; 
0B84C:  BSF    F8B.2
0B84E:  BCF    F94.2
....................                ApagaSalidas(); 
0B850:  CALL   3C1A
....................                // Falta apagar Todo 
....................             } 
....................          } 
....................           
....................          if(UP){ 
0B854:  BSF    F93.0
0B856:  BTFSC  F81.0
0B858:  BRA    B99C
....................             delay_ms(100); 
0B85A:  MOVLW  64
0B85C:  MOVLB  4
0B85E:  MOVWF  x63
0B860:  MOVLB  0
0B862:  CALL   1A6C
....................             if(UP){ 
0B866:  BSF    F93.0
0B868:  BTFSC  F81.0
0B86A:  BRA    B99C
....................                G1=41-sensores(2); 
0B86C:  MOVLW  02
0B86E:  MOVLB  4
0B870:  MOVWF  x53
0B872:  MOVLB  0
0B874:  CALL   3C38
0B878:  MOVFF  FEA,44B
0B87C:  MOVFF  FE9,44A
0B880:  BSF    FD8.1
0B882:  MOVLB  4
0B884:  CLRF   x62
0B886:  CLRF   x61
0B888:  MOVLW  24
0B88A:  MOVWF  x60
0B88C:  MOVLW  84
0B88E:  MOVWF  x5F
0B890:  MOVFF  03,466
0B894:  MOVFF  02,465
0B898:  MOVFF  01,464
0B89C:  MOVFF  00,463
0B8A0:  MOVLB  0
0B8A2:  CALL   1C28
0B8A6:  MOVFF  44B,FEA
0B8AA:  MOVFF  44A,FE9
0B8AE:  MOVFF  03,462
0B8B2:  MOVFF  02,461
0B8B6:  MOVFF  01,460
0B8BA:  MOVFF  00,45F
0B8BE:  CALL   43CC
0B8C2:  MOVFF  01,3BA
....................                if(G1<0) 
0B8C6:  MOVLB  3
0B8C8:  BTFSC  xBA.7
0B8CA:  BRA    B8CE
0B8CC:  BRA    B8D4
....................                   sg1=10; 
0B8CE:  MOVLW  0A
0B8D0:  MOVWF  xBC
....................                else 
0B8D2:  BRA    B8D8
....................                   sg1=5; 
0B8D4:  MOVLW  05
0B8D6:  MOVWF  xBC
....................                    
....................                write_eeprom(42,(int8)G1); 
0B8D8:  CLRF   FAA
0B8DA:  MOVLW  2A
0B8DC:  MOVWF  FA9
0B8DE:  MOVFF  3BA,FA8
0B8E2:  BCF    FA6.6
0B8E4:  BCF    FA6.7
0B8E6:  BSF    FA6.2
0B8E8:  MOVF   FF2,W
0B8EA:  MOVWF  00
0B8EC:  BCF    FF2.6
0B8EE:  BCF    FF2.7
0B8F0:  MOVLB  F
0B8F2:  MOVLW  55
0B8F4:  MOVWF  FA7
0B8F6:  MOVLW  AA
0B8F8:  MOVWF  FA7
0B8FA:  BSF    FA6.1
0B8FC:  BTFSC  FA6.1
0B8FE:  BRA    B8FC
0B900:  BCF    FA6.2
0B902:  MOVF   00,W
0B904:  IORWF  FF2,F
....................                delay_ms(10); 
0B906:  MOVLW  0A
0B908:  MOVLB  4
0B90A:  MOVWF  x63
0B90C:  MOVLB  0
0B90E:  CALL   1A6C
....................                write_eeprom(44,(int8)sg1); 
0B912:  CLRF   FAA
0B914:  MOVLW  2C
0B916:  MOVWF  FA9
0B918:  MOVFF  3BC,FA8
0B91C:  BCF    FA6.6
0B91E:  BCF    FA6.7
0B920:  BSF    FA6.2
0B922:  MOVF   FF2,W
0B924:  MOVWF  00
0B926:  BCF    FF2.6
0B928:  BCF    FF2.7
0B92A:  MOVLB  F
0B92C:  MOVLW  55
0B92E:  MOVWF  FA7
0B930:  MOVLW  AA
0B932:  MOVWF  FA7
0B934:  BSF    FA6.1
0B936:  BTFSC  FA6.1
0B938:  BRA    B936
0B93A:  BCF    FA6.2
0B93C:  MOVF   00,W
0B93E:  IORWF  FF2,F
....................                delay_ms(10); 
0B940:  MOVLW  0A
0B942:  MOVLB  4
0B944:  MOVWF  x63
0B946:  MOVLB  0
0B948:  CALL   1A6C
....................                Buzzer_on; 
0B94C:  BSF    F8C.0
0B94E:  BCF    F95.0
....................                delay_ms(1000); 
0B950:  MOVLW  04
0B952:  MOVLB  4
0B954:  MOVWF  x4A
0B956:  MOVLW  FA
0B958:  MOVWF  x63
0B95A:  MOVLB  0
0B95C:  CALL   1A6C
0B960:  MOVLB  4
0B962:  DECFSZ x4A,F
0B964:  BRA    B956
....................                Buzzer_off; 
0B966:  BCF    F8C.0
0B968:  BCF    F95.0
....................                delay_ms(1000); 
0B96A:  MOVLW  04
0B96C:  MOVWF  x4A
0B96E:  MOVLW  FA
0B970:  MOVWF  x63
0B972:  MOVLB  0
0B974:  CALL   1A6C
0B978:  MOVLB  4
0B97A:  DECFSZ x4A,F
0B97C:  BRA    B96E
....................                Buzzer_on; 
0B97E:  BSF    F8C.0
0B980:  BCF    F95.0
....................                delay_ms(1000); 
0B982:  MOVLW  04
0B984:  MOVWF  x4A
0B986:  MOVLW  FA
0B988:  MOVWF  x63
0B98A:  MOVLB  0
0B98C:  CALL   1A6C
0B990:  MOVLB  4
0B992:  DECFSZ x4A,F
0B994:  BRA    B986
....................                Buzzer_off; 
0B996:  BCF    F8C.0
0B998:  BCF    F95.0
0B99A:  MOVLB  0
....................             } 
....................          } 
....................           
....................          if(DOWN){ 
0B99C:  BSF    F93.1
0B99E:  BTFSC  F81.1
0B9A0:  BRA    BAE4
....................             delay_ms(100); 
0B9A2:  MOVLW  64
0B9A4:  MOVLB  4
0B9A6:  MOVWF  x63
0B9A8:  MOVLB  0
0B9AA:  CALL   1A6C
....................             if(DOWN){ 
0B9AE:  BSF    F93.1
0B9B0:  BTFSC  F81.1
0B9B2:  BRA    BAE4
....................                G2=41-sensores(3); 
0B9B4:  MOVLW  03
0B9B6:  MOVLB  4
0B9B8:  MOVWF  x53
0B9BA:  MOVLB  0
0B9BC:  CALL   3C38
0B9C0:  MOVFF  FEA,44B
0B9C4:  MOVFF  FE9,44A
0B9C8:  BSF    FD8.1
0B9CA:  MOVLB  4
0B9CC:  CLRF   x62
0B9CE:  CLRF   x61
0B9D0:  MOVLW  24
0B9D2:  MOVWF  x60
0B9D4:  MOVLW  84
0B9D6:  MOVWF  x5F
0B9D8:  MOVFF  03,466
0B9DC:  MOVFF  02,465
0B9E0:  MOVFF  01,464
0B9E4:  MOVFF  00,463
0B9E8:  MOVLB  0
0B9EA:  CALL   1C28
0B9EE:  MOVFF  44B,FEA
0B9F2:  MOVFF  44A,FE9
0B9F6:  MOVFF  03,462
0B9FA:  MOVFF  02,461
0B9FE:  MOVFF  01,460
0BA02:  MOVFF  00,45F
0BA06:  CALL   43CC
0BA0A:  MOVFF  01,3BB
....................                if(G2<0) 
0BA0E:  MOVLB  3
0BA10:  BTFSC  xBB.7
0BA12:  BRA    BA16
0BA14:  BRA    BA1C
....................                   sg2=10; 
0BA16:  MOVLW  0A
0BA18:  MOVWF  xBD
....................                else 
0BA1A:  BRA    BA20
....................                   sg2=5; 
0BA1C:  MOVLW  05
0BA1E:  MOVWF  xBD
....................                    
....................                write_eeprom(43,(int8)G2); 
0BA20:  CLRF   FAA
0BA22:  MOVLW  2B
0BA24:  MOVWF  FA9
0BA26:  MOVFF  3BB,FA8
0BA2A:  BCF    FA6.6
0BA2C:  BCF    FA6.7
0BA2E:  BSF    FA6.2
0BA30:  MOVF   FF2,W
0BA32:  MOVWF  00
0BA34:  BCF    FF2.6
0BA36:  BCF    FF2.7
0BA38:  MOVLB  F
0BA3A:  MOVLW  55
0BA3C:  MOVWF  FA7
0BA3E:  MOVLW  AA
0BA40:  MOVWF  FA7
0BA42:  BSF    FA6.1
0BA44:  BTFSC  FA6.1
0BA46:  BRA    BA44
0BA48:  BCF    FA6.2
0BA4A:  MOVF   00,W
0BA4C:  IORWF  FF2,F
....................                delay_ms(10); 
0BA4E:  MOVLW  0A
0BA50:  MOVLB  4
0BA52:  MOVWF  x63
0BA54:  MOVLB  0
0BA56:  CALL   1A6C
....................                write_eeprom(45,(int8)sg2); 
0BA5A:  CLRF   FAA
0BA5C:  MOVLW  2D
0BA5E:  MOVWF  FA9
0BA60:  MOVFF  3BD,FA8
0BA64:  BCF    FA6.6
0BA66:  BCF    FA6.7
0BA68:  BSF    FA6.2
0BA6A:  MOVF   FF2,W
0BA6C:  MOVWF  00
0BA6E:  BCF    FF2.6
0BA70:  BCF    FF2.7
0BA72:  MOVLB  F
0BA74:  MOVLW  55
0BA76:  MOVWF  FA7
0BA78:  MOVLW  AA
0BA7A:  MOVWF  FA7
0BA7C:  BSF    FA6.1
0BA7E:  BTFSC  FA6.1
0BA80:  BRA    BA7E
0BA82:  BCF    FA6.2
0BA84:  MOVF   00,W
0BA86:  IORWF  FF2,F
....................                delay_ms(10); 
0BA88:  MOVLW  0A
0BA8A:  MOVLB  4
0BA8C:  MOVWF  x63
0BA8E:  MOVLB  0
0BA90:  CALL   1A6C
....................                Buzzer_on; 
0BA94:  BSF    F8C.0
0BA96:  BCF    F95.0
....................                delay_ms(1000); 
0BA98:  MOVLW  04
0BA9A:  MOVLB  4
0BA9C:  MOVWF  x4A
0BA9E:  MOVLW  FA
0BAA0:  MOVWF  x63
0BAA2:  MOVLB  0
0BAA4:  CALL   1A6C
0BAA8:  MOVLB  4
0BAAA:  DECFSZ x4A,F
0BAAC:  BRA    BA9E
....................                Buzzer_off; 
0BAAE:  BCF    F8C.0
0BAB0:  BCF    F95.0
....................                delay_ms(1000); 
0BAB2:  MOVLW  04
0BAB4:  MOVWF  x4A
0BAB6:  MOVLW  FA
0BAB8:  MOVWF  x63
0BABA:  MOVLB  0
0BABC:  CALL   1A6C
0BAC0:  MOVLB  4
0BAC2:  DECFSZ x4A,F
0BAC4:  BRA    BAB6
....................                Buzzer_on; 
0BAC6:  BSF    F8C.0
0BAC8:  BCF    F95.0
....................                delay_ms(1000); 
0BACA:  MOVLW  04
0BACC:  MOVWF  x4A
0BACE:  MOVLW  FA
0BAD0:  MOVWF  x63
0BAD2:  MOVLB  0
0BAD4:  CALL   1A6C
0BAD8:  MOVLB  4
0BADA:  DECFSZ x4A,F
0BADC:  BRA    BACE
....................                Buzzer_off; 
0BADE:  BCF    F8C.0
0BAE0:  BCF    F95.0
0BAE2:  MOVLB  0
0BAE4:  MOVLB  3
....................             } 
....................          } 
....................      } 
.................... //_--------------------------------------------------------------------------------------------------------------------------------------------------------     
....................  
.................... //_--------------------------------------------------------------------------------------------------------------------------------------------------------       
....................       if(Menu==7){ //Menu de Configuracin de Fecha y Hora 
0BAE6:  MOVF   x5C,W
0BAE8:  SUBLW  07
0BAEA:  BTFSS  FD8.2
0BAEC:  BRA    BF14
....................        
....................          if(RX_Buffer[4]==0x0a){//Selecciono Hora 
0BAEE:  MOVF   34,W
0BAF0:  SUBLW  0A
0BAF2:  BNZ   BAF8
....................             Opcion=4; 
0BAF4:  MOVLW  04
0BAF6:  MOVWF  x63
....................          } 
....................           
....................          if(RX_Buffer[4]==0x0b){//Selecciono Minuto 
0BAF8:  MOVF   34,W
0BAFA:  SUBLW  0B
0BAFC:  BNZ   BB02
....................             Opcion=5; 
0BAFE:  MOVLW  05
0BB00:  MOVWF  x63
....................          } 
....................           
....................          if(RX_Buffer[4]==0x0c){//Selecciono Dia 
0BB02:  MOVF   34,W
0BB04:  SUBLW  0C
0BB06:  BNZ   BB0C
....................             Opcion=1; 
0BB08:  MOVLW  01
0BB0A:  MOVWF  x63
....................          } 
....................           
....................          if(RX_Buffer[4]==0x0d){//Selecciono Hora 
0BB0C:  MOVF   34,W
0BB0E:  SUBLW  0D
0BB10:  BNZ   BB16
....................             Opcion=2; 
0BB12:  MOVLW  02
0BB14:  MOVWF  x63
....................          } 
....................           
....................          if(RX_Buffer[4]==0x0e){//Selecciono Year 
0BB16:  MOVF   34,W
0BB18:  SUBLW  0E
0BB1A:  BNZ   BB20
....................             Opcion=3; 
0BB1C:  MOVLW  03
0BB1E:  MOVWF  x63
....................          } 
....................           
....................          if(RIGHT){ 
0BB20:  BSF    F93.2
0BB22:  BTFSC  F81.2
0BB24:  BRA    BB3C
....................             delay_ms(200); 
0BB26:  MOVLW  C8
0BB28:  MOVLB  4
0BB2A:  MOVWF  x63
0BB2C:  MOVLB  0
0BB2E:  CALL   1A6C
....................             if(RIGHT){ 
0BB32:  BSF    F93.2
0BB34:  BTFSC  F81.2
0BB36:  BRA    BB3E
....................                Opcion++; 
0BB38:  MOVLB  3
0BB3A:  INCF   x63,F
0BB3C:  MOVLB  0
....................             } 
....................          } 
....................          if(Opcion>5) 
0BB3E:  MOVLB  3
0BB40:  MOVF   x63,W
0BB42:  SUBLW  05
0BB44:  BC    BB4A
....................             Opcion=1; 
0BB46:  MOVLW  01
0BB48:  MOVWF  x63
....................          if(Opcion<1) 
0BB4A:  MOVF   x63,F
0BB4C:  BNZ   BB52
....................             Opcion=5; 
0BB4E:  MOVLW  05
0BB50:  MOVWF  x63
....................              
....................          if(RX_Buffer[4]==0x11 || LEFT){//Selecciono Regresar 
0BB52:  MOVF   34,W
0BB54:  SUBLW  11
0BB56:  BZ    BB5E
0BB58:  BSF    F93.3
0BB5A:  BTFSC  F81.3
0BB5C:  BRA    BC76
....................             printf("page MenuPrincipal"); 
0BB5E:  MOVLW  C0
0BB60:  MOVWF  FF6
0BB62:  MOVLW  0E
0BB64:  MOVWF  FF7
0BB66:  MOVLW  00
0BB68:  MOVWF  FF8
0BB6A:  MOVLB  0
0BB6C:  CALL   3BB2
....................             SendDataDisplay();   
0BB70:  CALL   3BE4
....................             PantallaPrincipal=0; 
0BB74:  MOVLB  2
0BB76:  CLRF   xDD
....................             Op=OFF; 
0BB78:  MOVLB  0
0BB7A:  BCF    xA2.2
....................             Op2=OFF; 
0BB7C:  BCF    xA2.3
....................              
....................             if(esBisiesto(YearTx)) 
0BB7E:  MOVFF  3B0,44A
0BB82:  CALL   55A2
0BB86:  MOVF   01,F
0BB88:  BZ    BBA4
....................                Modulo=Bisiesto[MesTx]; 
0BB8A:  CLRF   03
0BB8C:  MOVLB  3
0BB8E:  MOVF   xB1,W
0BB90:  ADDLW  93
0BB92:  MOVWF  FE9
0BB94:  MOVLW  00
0BB96:  ADDWFC 03,W
0BB98:  MOVWF  FEA
0BB9A:  MOVFF  FEF,2DF
0BB9E:  MOVLB  2
....................             else 
0BBA0:  BRA    BBBA
0BBA2:  MOVLB  0
....................                Modulo=Regular[MesTx]; 
0BBA4:  CLRF   03
0BBA6:  MOVLB  3
0BBA8:  MOVF   xB1,W
0BBAA:  ADDLW  87
0BBAC:  MOVWF  FE9
0BBAE:  MOVLW  00
0BBB0:  ADDWFC 03,W
0BBB2:  MOVWF  FEA
0BBB4:  MOVFF  FEF,2DF
0BBB8:  MOVLB  2
....................           
....................             dowTx=((YearTx-1)%7+((YearTx-1)/4-3*((YearTx-1)/100+1)/4)%7+Modulo+DiaTx%7)%7; 
0BBBA:  MOVLW  01
0BBBC:  MOVLB  3
0BBBE:  SUBWF  xB0,W
0BBC0:  MOVLB  4
0BBC2:  MOVWF  x4B
0BBC4:  MOVWF  x54
0BBC6:  MOVLW  07
0BBC8:  MOVWF  x55
0BBCA:  MOVLB  0
0BBCC:  CALL   4B58
0BBD0:  MOVFF  00,44A
0BBD4:  MOVLW  01
0BBD6:  MOVLB  3
0BBD8:  SUBWF  xB0,W
0BBDA:  MOVWF  00
0BBDC:  RRCF   00,W
0BBDE:  MOVLB  4
0BBE0:  MOVWF  x4B
0BBE2:  RRCF   x4B,F
0BBE4:  MOVLW  3F
0BBE6:  ANDWF  x4B,F
0BBE8:  MOVLW  01
0BBEA:  MOVLB  3
0BBEC:  SUBWF  xB0,W
0BBEE:  MOVLB  4
0BBF0:  MOVWF  x4D
0BBF2:  MOVWF  x54
0BBF4:  MOVLW  64
0BBF6:  MOVWF  x55
0BBF8:  MOVLB  0
0BBFA:  CALL   4B58
0BBFE:  MOVLW  01
0BC00:  ADDWF  01,W
0BC02:  MULLW  03
0BC04:  MOVFF  FF3,00
0BC08:  RRCF   00,F
0BC0A:  RRCF   00,F
0BC0C:  MOVLW  3F
0BC0E:  ANDWF  00,F
0BC10:  MOVF   00,W
0BC12:  MOVLB  4
0BC14:  SUBWF  x4B,W
0BC16:  MOVWF  x4C
0BC18:  MOVWF  x54
0BC1A:  MOVLW  07
0BC1C:  MOVWF  x55
0BC1E:  MOVLB  0
0BC20:  CALL   4B58
0BC24:  MOVF   00,W
0BC26:  MOVLB  4
0BC28:  ADDWF  x4A,W
0BC2A:  MOVLB  2
0BC2C:  ADDWF  xDF,W
0BC2E:  MOVLB  4
0BC30:  MOVWF  x4A
0BC32:  MOVFF  3B2,454
0BC36:  MOVLW  07
0BC38:  MOVWF  x55
0BC3A:  MOVLB  0
0BC3C:  CALL   4B58
0BC40:  MOVF   00,W
0BC42:  MOVLB  4
0BC44:  ADDWF  x4A,W
0BC46:  MOVWF  x4B
0BC48:  MOVWF  x54
0BC4A:  MOVLW  07
0BC4C:  MOVWF  x55
0BC4E:  MOVLB  0
0BC50:  CALL   4B58
0BC54:  MOVFF  00,3B6
....................             rtc_set_datetime(DiaTx,MesTx,YearTx,dowTx,HoraTx,MinutoTx); 
0BC58:  MOVFF  3B2,44A
0BC5C:  MOVFF  3B1,44B
0BC60:  MOVFF  3B0,44C
0BC64:  MOVFF  3B6,44D
0BC68:  MOVFF  3B3,44E
0BC6C:  MOVFF  3B4,44F
0BC70:  GOTO   5628
0BC74:  MOVLB  3
....................          } 
....................           
....................          if((RX_Buffer[4]==0x2a)|| UP){//Tecla Arriba Oprimida 
0BC76:  MOVF   34,W
0BC78:  SUBLW  2A
0BC7A:  BZ    BC82
0BC7C:  BSF    F93.0
0BC7E:  BTFSC  F81.0
0BC80:  BRA    BD80
....................             delay_ms(200); 
0BC82:  MOVLW  C8
0BC84:  MOVLB  4
0BC86:  MOVWF  x63
0BC88:  MOVLB  0
0BC8A:  CALL   1A6C
....................             if((RX_Buffer[4]==0x2a)|| UP){    
0BC8E:  MOVF   34,W
0BC90:  SUBLW  2A
0BC92:  BZ    BC9A
0BC94:  BSF    F93.0
0BC96:  BTFSC  F81.0
0BC98:  BRA    BD82
....................                if(Opcion==1){ 
0BC9A:  MOVLB  3
0BC9C:  DECFSZ x63,W
0BC9E:  BRA    BD2C
....................                   if(MesTx==2){ 
0BCA0:  MOVF   xB1,W
0BCA2:  SUBLW  02
0BCA4:  BNZ   BCDA
....................                      if(esBisiesto(YearTx)){ 
0BCA6:  MOVFF  3B0,44A
0BCAA:  MOVLB  0
0BCAC:  CALL   55A2
0BCB0:  MOVF   01,F
0BCB2:  BZ    BCC8
....................                         if(DiaTx<29) 
0BCB4:  MOVLB  3
0BCB6:  MOVF   xB2,W
0BCB8:  SUBLW  1C
0BCBA:  BNC   BCC0
....................                            DiaTx++; 
0BCBC:  INCF   xB2,F
....................                         else 
0BCBE:  BRA    BCC4
....................                            DiaTx=1;    
0BCC0:  MOVLW  01
0BCC2:  MOVWF  xB2
....................                      }else{ 
0BCC4:  BRA    BCD8
0BCC6:  MOVLB  0
....................                         if(DiaTx<28) 
0BCC8:  MOVLB  3
0BCCA:  MOVF   xB2,W
0BCCC:  SUBLW  1B
0BCCE:  BNC   BCD4
....................                            DiaTx++; 
0BCD0:  INCF   xB2,F
....................                         else 
0BCD2:  BRA    BCD8
....................                            DiaTx=1;    
0BCD4:  MOVLW  01
0BCD6:  MOVWF  xB2
....................                      } 
....................                   }else{ 
0BCD8:  BRA    BD2A
....................                      if(MesTx<=7){ 
0BCDA:  MOVF   xB1,W
0BCDC:  SUBLW  07
0BCDE:  BNC   BD06
....................                         if(MesTx % 2 ==0){ 
0BCE0:  MOVF   xB1,W
0BCE2:  ANDLW  01
0BCE4:  BNZ   BCF6
....................                            if(DiaTx<30) 
0BCE6:  MOVF   xB2,W
0BCE8:  SUBLW  1D
0BCEA:  BNC   BCF0
....................                               DiaTx++;     
0BCEC:  INCF   xB2,F
....................                            else 
0BCEE:  BRA    BCF4
....................                               DiaTx=1;    
0BCF0:  MOVLW  01
0BCF2:  MOVWF  xB2
....................                         }else{ 
0BCF4:  BRA    BD04
....................                            if(DiaTx<31) 
0BCF6:  MOVF   xB2,W
0BCF8:  SUBLW  1E
0BCFA:  BNC   BD00
....................                               DiaTx++;     
0BCFC:  INCF   xB2,F
....................                            else 
0BCFE:  BRA    BD04
....................                               DiaTx=1;    
0BD00:  MOVLW  01
0BD02:  MOVWF  xB2
....................                         }     
....................                      }else{ 
0BD04:  BRA    BD2A
....................                         if(MesTx % 2 ==0){ 
0BD06:  MOVF   xB1,W
0BD08:  ANDLW  01
0BD0A:  BNZ   BD1C
....................                            if(DiaTx<31) 
0BD0C:  MOVF   xB2,W
0BD0E:  SUBLW  1E
0BD10:  BNC   BD16
....................                               DiaTx++;   
0BD12:  INCF   xB2,F
....................                            else 
0BD14:  BRA    BD1A
....................                               DiaTx=1; 
0BD16:  MOVLW  01
0BD18:  MOVWF  xB2
....................                         }else{ 
0BD1A:  BRA    BD2A
....................                            if(DiaTx<30) 
0BD1C:  MOVF   xB2,W
0BD1E:  SUBLW  1D
0BD20:  BNC   BD26
....................                               DiaTx++;     
0BD22:  INCF   xB2,F
....................                            else 
0BD24:  BRA    BD2A
....................                               DiaTx=1; 
0BD26:  MOVLW  01
0BD28:  MOVWF  xB2
....................                         }     
....................                      } 
....................                   } 
....................                }else if(Opcion==2){ 
0BD2A:  BRA    BD7C
0BD2C:  MOVF   x63,W
0BD2E:  SUBLW  02
0BD30:  BNZ   BD42
....................                   if(MesTx<12) 
0BD32:  MOVF   xB1,W
0BD34:  SUBLW  0B
0BD36:  BNC   BD3C
....................                      MesTx++; 
0BD38:  INCF   xB1,F
....................                   else 
0BD3A:  BRA    BD40
....................                      MesTx=1; 
0BD3C:  MOVLW  01
0BD3E:  MOVWF  xB1
....................                }else if(Opcion==3){ 
0BD40:  BRA    BD7C
0BD42:  MOVF   x63,W
0BD44:  SUBLW  03
0BD46:  BNZ   BD56
....................                   if(YearTx<99) 
0BD48:  MOVF   xB0,W
0BD4A:  SUBLW  62
0BD4C:  BNC   BD52
....................                      YearTx++; 
0BD4E:  INCF   xB0,F
....................                   else  
0BD50:  BRA    BD54
....................                      YearTx=0; 
0BD52:  CLRF   xB0
....................                }else if(Opcion==4){ 
0BD54:  BRA    BD7C
0BD56:  MOVF   x63,W
0BD58:  SUBLW  04
0BD5A:  BNZ   BD6A
....................                   if(HoraTx<24) 
0BD5C:  MOVF   xB3,W
0BD5E:  SUBLW  17
0BD60:  BNC   BD66
....................                      HoraTx++; 
0BD62:  INCF   xB3,F
....................                   else 
0BD64:  BRA    BD68
....................                      HoraTx=0; 
0BD66:  CLRF   xB3
....................                }else if(Opcion==5){ 
0BD68:  BRA    BD7C
0BD6A:  MOVF   x63,W
0BD6C:  SUBLW  05
0BD6E:  BNZ   BD7C
....................                   if(MinutoTx<59) 
0BD70:  MOVF   xB4,W
0BD72:  SUBLW  3A
0BD74:  BNC   BD7A
....................                      MinutoTx++; 
0BD76:  INCF   xB4,F
....................                   else 
0BD78:  BRA    BD7C
....................                      MinutoTx=0; 
0BD7A:  CLRF   xB4
....................                } 
....................                RX_Buffer[4]=0x00; 
0BD7C:  CLRF   34
....................                RX_Buffer2[4]=0x00; 
0BD7E:  CLRF   3F
0BD80:  MOVLB  0
....................             } 
....................          } 
....................           
....................          if(RX_Buffer[4]==0x2b || DOWN){//Tecla Abajo Oprimida 
0BD82:  MOVF   34,W
0BD84:  SUBLW  2B
0BD86:  BZ    BD8E
0BD88:  BSF    F93.1
0BD8A:  BTFSC  F81.1
0BD8C:  BRA    BE0A
....................             delay_ms(200); 
0BD8E:  MOVLW  C8
0BD90:  MOVLB  4
0BD92:  MOVWF  x63
0BD94:  MOVLB  0
0BD96:  CALL   1A6C
....................             if(RX_Buffer[4]==0x2b || DOWN){    
0BD9A:  MOVF   34,W
0BD9C:  SUBLW  2B
0BD9E:  BZ    BDA6
0BDA0:  BSF    F93.1
0BDA2:  BTFSC  F81.1
0BDA4:  BRA    BE0A
....................                if(Opcion==1){ 
0BDA6:  MOVLB  3
0BDA8:  DECFSZ x63,W
0BDAA:  BRA    BDB4
....................                   if(DiaTx>0) 
0BDAC:  MOVF   xB2,F
0BDAE:  BZ    BDB2
....................                      DiaTx--; 
0BDB0:  DECF   xB2,F
....................                }else if(Opcion==2){ 
0BDB2:  BRA    BE04
0BDB4:  MOVF   x63,W
0BDB6:  SUBLW  02
0BDB8:  BNZ   BDCA
....................                   if(MesTx>1) 
0BDBA:  MOVF   xB1,W
0BDBC:  SUBLW  01
0BDBE:  BC    BDC4
....................                      MesTx--; 
0BDC0:  DECF   xB1,F
....................                   else 
0BDC2:  BRA    BDC8
....................                      MesTx=12; 
0BDC4:  MOVLW  0C
0BDC6:  MOVWF  xB1
....................                }else if(Opcion==3){ 
0BDC8:  BRA    BE04
0BDCA:  MOVF   x63,W
0BDCC:  SUBLW  03
0BDCE:  BNZ   BDDE
....................                   if(YearTx>0) 
0BDD0:  MOVF   xB0,F
0BDD2:  BZ    BDD8
....................                      YearTx--; 
0BDD4:  DECF   xB0,F
....................                   else 
0BDD6:  BRA    BDDC
....................                      YearTx=99; 
0BDD8:  MOVLW  63
0BDDA:  MOVWF  xB0
....................                }else if(Opcion==4){ 
0BDDC:  BRA    BE04
0BDDE:  MOVF   x63,W
0BDE0:  SUBLW  04
0BDE2:  BNZ   BDF2
....................                   if(HoraTx>0) 
0BDE4:  MOVF   xB3,F
0BDE6:  BZ    BDEC
....................                      HoraTx--; 
0BDE8:  DECF   xB3,F
....................                   else 
0BDEA:  BRA    BDF0
....................                      HoraTx=23; 
0BDEC:  MOVLW  17
0BDEE:  MOVWF  xB3
....................                }else if(Opcion==5){ 
0BDF0:  BRA    BE04
0BDF2:  MOVF   x63,W
0BDF4:  SUBLW  05
0BDF6:  BNZ   BE04
....................                   if(MinutoTx>0) 
0BDF8:  MOVF   xB4,F
0BDFA:  BZ    BE00
....................                      MinutoTx--; 
0BDFC:  DECF   xB4,F
....................                   else 
0BDFE:  BRA    BE04
....................                      MinutoTx=59; 
0BE00:  MOVLW  3B
0BE02:  MOVWF  xB4
....................                } 
....................                RX_Buffer[4]=0x00; 
0BE04:  CLRF   34
....................                RX_Buffer2[4]=0x00; 
0BE06:  CLRF   3F
0BE08:  MOVLB  0
....................             } 
....................          } 
....................        
....................       printf("thora.txt=\"%02u\"",HoraTx); 
0BE0A:  MOVLW  D4
0BE0C:  MOVWF  FF6
0BE0E:  MOVLW  0E
0BE10:  MOVWF  FF7
0BE12:  MOVLW  00
0BE14:  MOVWF  FF8
0BE16:  MOVLW  0B
0BE18:  MOVLB  4
0BE1A:  MOVWF  x50
0BE1C:  MOVLB  0
0BE1E:  CALL   4B26
0BE22:  MOVFF  3B3,450
0BE26:  MOVLW  01
0BE28:  MOVLB  4
0BE2A:  MOVWF  x51
0BE2C:  MOVLB  0
0BE2E:  CALL   4B84
0BE32:  MOVLW  22
0BE34:  BTFSS  F9E.4
0BE36:  BRA    BE34
0BE38:  MOVWF  FAD
....................       SendDataDisplay(); 
0BE3A:  CALL   3BE4
....................       printf("tminutos.txt=\"%02u\"",MinutoTx); 
0BE3E:  MOVLW  E6
0BE40:  MOVWF  FF6
0BE42:  MOVLW  0E
0BE44:  MOVWF  FF7
0BE46:  MOVLW  00
0BE48:  MOVWF  FF8
0BE4A:  MOVLW  0E
0BE4C:  MOVLB  4
0BE4E:  MOVWF  x50
0BE50:  MOVLB  0
0BE52:  CALL   4B26
0BE56:  MOVFF  3B4,450
0BE5A:  MOVLW  01
0BE5C:  MOVLB  4
0BE5E:  MOVWF  x51
0BE60:  MOVLB  0
0BE62:  CALL   4B84
0BE66:  MOVLW  22
0BE68:  BTFSS  F9E.4
0BE6A:  BRA    BE68
0BE6C:  MOVWF  FAD
....................       SendDataDisplay(); 
0BE6E:  CALL   3BE4
....................       printf("tdia.txt=\"%02u\"",DiaTx); 
0BE72:  MOVLW  FA
0BE74:  MOVWF  FF6
0BE76:  MOVLW  0E
0BE78:  MOVWF  FF7
0BE7A:  MOVLW  00
0BE7C:  MOVWF  FF8
0BE7E:  MOVLW  0A
0BE80:  MOVLB  4
0BE82:  MOVWF  x50
0BE84:  MOVLB  0
0BE86:  CALL   4B26
0BE8A:  MOVFF  3B2,450
0BE8E:  MOVLW  01
0BE90:  MOVLB  4
0BE92:  MOVWF  x51
0BE94:  MOVLB  0
0BE96:  CALL   4B84
0BE9A:  MOVLW  22
0BE9C:  BTFSS  F9E.4
0BE9E:  BRA    BE9C
0BEA0:  MOVWF  FAD
....................       SendDataDisplay(); 
0BEA2:  CALL   3BE4
....................       printf("tmes.txt=\"%02u\"",MesTx); 
0BEA6:  MOVLW  0A
0BEA8:  MOVWF  FF6
0BEAA:  MOVLW  0F
0BEAC:  MOVWF  FF7
0BEAE:  MOVLW  00
0BEB0:  MOVWF  FF8
0BEB2:  MOVLW  0A
0BEB4:  MOVLB  4
0BEB6:  MOVWF  x50
0BEB8:  MOVLB  0
0BEBA:  CALL   4B26
0BEBE:  MOVFF  3B1,450
0BEC2:  MOVLW  01
0BEC4:  MOVLB  4
0BEC6:  MOVWF  x51
0BEC8:  MOVLB  0
0BECA:  CALL   4B84
0BECE:  MOVLW  22
0BED0:  BTFSS  F9E.4
0BED2:  BRA    BED0
0BED4:  MOVWF  FAD
....................       SendDataDisplay(); 
0BED6:  CALL   3BE4
....................       printf("tyear.txt=\"%02u\"",YearTx); 
0BEDA:  MOVLW  1A
0BEDC:  MOVWF  FF6
0BEDE:  MOVLW  0F
0BEE0:  MOVWF  FF7
0BEE2:  MOVLW  00
0BEE4:  MOVWF  FF8
0BEE6:  MOVLW  0B
0BEE8:  MOVLB  4
0BEEA:  MOVWF  x50
0BEEC:  MOVLB  0
0BEEE:  CALL   4B26
0BEF2:  MOVFF  3B0,450
0BEF6:  MOVLW  01
0BEF8:  MOVLB  4
0BEFA:  MOVWF  x51
0BEFC:  MOVLB  0
0BEFE:  CALL   4B84
0BF02:  MOVLW  22
0BF04:  BTFSS  F9E.4
0BF06:  BRA    BF04
0BF08:  MOVWF  FAD
....................       SendDataDisplay(); 
0BF0A:  CALL   3BE4
....................       LimitaDia();   
0BF0E:  GOTO   56E4
0BF12:  MOVLB  3
....................     } 
.................... //_--------------------------------------------------------------------------------------------------------------------------------------------------------        
....................  
.................... //_-------------------------------------------------------------------------------------------------------------------------------------------------------- 
....................    if(Menu==8){ //Menu Ciclos Personalizados 
0BF14:  MOVF   x5C,W
0BF16:  SUBLW  08
0BF18:  BTFSS  FD8.2
0BF1A:  GOTO   CD76
....................       printf("fecha.txt=\"T:%3.1fC Fecha:%02u/%02u/20%02u Hora: %02u:%02u:%02u\"",Temperatura,Dia,Mes,Year,Hora,Minuto,Segundo); 
0BF1E:  MOVLW  2C
0BF20:  MOVWF  FF6
0BF22:  MOVLW  0F
0BF24:  MOVWF  FF7
0BF26:  MOVLW  00
0BF28:  MOVWF  FF8
0BF2A:  MOVLW  0D
0BF2C:  MOVLB  4
0BF2E:  MOVWF  x50
0BF30:  MOVLB  0
0BF32:  CALL   4B26
0BF36:  MOVLW  02
0BF38:  MOVWF  FE9
0BF3A:  MOVFF  327,453
0BF3E:  MOVFF  326,452
0BF42:  MOVFF  325,451
0BF46:  MOVFF  324,450
0BF4A:  MOVLW  01
0BF4C:  MOVLB  4
0BF4E:  MOVWF  x54
0BF50:  MOVLB  0
0BF52:  CALL   4CC6
0BF56:  MOVLW  3E
0BF58:  MOVWF  FF6
0BF5A:  MOVLW  0F
0BF5C:  MOVWF  FF7
0BF5E:  MOVLW  00
0BF60:  MOVWF  FF8
0BF62:  MOVLW  09
0BF64:  MOVLB  4
0BF66:  MOVWF  x50
0BF68:  MOVLB  0
0BF6A:  CALL   4B26
0BF6E:  MOVFF  3AB,450
0BF72:  MOVLW  01
0BF74:  MOVLB  4
0BF76:  MOVWF  x51
0BF78:  MOVLB  0
0BF7A:  CALL   4B84
0BF7E:  MOVLW  2F
0BF80:  BTFSS  F9E.4
0BF82:  BRA    BF80
0BF84:  MOVWF  FAD
0BF86:  MOVFF  3AA,450
0BF8A:  MOVLW  01
0BF8C:  MOVLB  4
0BF8E:  MOVWF  x51
0BF90:  MOVLB  0
0BF92:  CALL   4B84
0BF96:  MOVLW  2F
0BF98:  BTFSS  F9E.4
0BF9A:  BRA    BF98
0BF9C:  MOVWF  FAD
0BF9E:  MOVLW  32
0BFA0:  BTFSS  F9E.4
0BFA2:  BRA    BFA0
0BFA4:  MOVWF  FAD
0BFA6:  MOVLW  30
0BFA8:  BTFSS  F9E.4
0BFAA:  BRA    BFA8
0BFAC:  MOVWF  FAD
0BFAE:  MOVFF  3A9,450
0BFB2:  MOVLW  01
0BFB4:  MOVLB  4
0BFB6:  MOVWF  x51
0BFB8:  MOVLB  0
0BFBA:  CALL   4B84
0BFBE:  MOVLW  57
0BFC0:  MOVWF  FF6
0BFC2:  MOVLW  0F
0BFC4:  MOVWF  FF7
0BFC6:  MOVLW  00
0BFC8:  MOVWF  FF8
0BFCA:  MOVLW  07
0BFCC:  MOVLB  4
0BFCE:  MOVWF  x50
0BFD0:  MOVLB  0
0BFD2:  CALL   4B26
0BFD6:  MOVFF  3AC,450
0BFDA:  MOVLW  01
0BFDC:  MOVLB  4
0BFDE:  MOVWF  x51
0BFE0:  MOVLB  0
0BFE2:  CALL   4B84
0BFE6:  MOVLW  3A
0BFE8:  BTFSS  F9E.4
0BFEA:  BRA    BFE8
0BFEC:  MOVWF  FAD
0BFEE:  MOVFF  3AD,450
0BFF2:  MOVLW  01
0BFF4:  MOVLB  4
0BFF6:  MOVWF  x51
0BFF8:  MOVLB  0
0BFFA:  CALL   4B84
0BFFE:  MOVLW  3A
0C000:  BTFSS  F9E.4
0C002:  BRA    C000
0C004:  MOVWF  FAD
0C006:  MOVFF  3AE,450
0C00A:  MOVLW  01
0C00C:  MOVLB  4
0C00E:  MOVWF  x51
0C010:  MOVLB  0
0C012:  CALL   4B84
0C016:  MOVLW  22
0C018:  BTFSS  F9E.4
0C01A:  BRA    C018
0C01C:  MOVWF  FAD
....................       SendDataDisplay(); 
0C01E:  CALL   3BE4
....................       GuardaEEPROM=OFF; 
0C022:  BCF    xA2.6
....................        
....................       if(RX_Buffer[4]>0x00 && RX_Buffer[4]<0x04){//Personalizados 
0C024:  MOVF   34,F
0C026:  BTFSC  FD8.2
0C028:  BRA    C256
0C02A:  MOVF   34,W
0C02C:  SUBLW  03
0C02E:  BTFSS  FD8.0
0C030:  BRA    C256
....................          printf("ciclo.txt=\"CICLO P%02u\"",RX_Buffer[4]+0x04); 
0C032:  MOVLW  04
0C034:  ADDWF  34,W
0C036:  MOVLB  4
0C038:  MOVWF  x4A
0C03A:  MOVLW  6E
0C03C:  MOVWF  FF6
0C03E:  MOVLW  0F
0C040:  MOVWF  FF7
0C042:  MOVLW  00
0C044:  MOVWF  FF8
0C046:  MOVLW  12
0C048:  MOVWF  x50
0C04A:  MOVLB  0
0C04C:  CALL   4B26
0C050:  MOVFF  44A,450
0C054:  MOVLW  01
0C056:  MOVLB  4
0C058:  MOVWF  x51
0C05A:  MOVLB  0
0C05C:  CALL   4B84
0C060:  MOVLW  22
0C062:  BTFSS  F9E.4
0C064:  BRA    C062
0C066:  MOVWF  FAD
....................          SendDataDisplay();           
0C068:  CALL   3BE4
....................          printf("temp.txt=\"%u\"",CiclosPersonalizados[RX_Buffer[4]-1].Temperatura); 
0C06C:  MOVLW  01
0C06E:  SUBWF  34,W
0C070:  MULLW  0A
0C072:  MOVF   FF3,W
0C074:  MOVLB  4
0C076:  CLRF   x4B
0C078:  MOVWF  x4A
0C07A:  MOVLW  22
0C07C:  ADDWF  x4A,W
0C07E:  MOVWF  FE9
0C080:  MOVLW  04
0C082:  ADDWFC x4B,W
0C084:  MOVWF  FEA
0C086:  MOVFF  FEF,44A
0C08A:  MOVLW  86
0C08C:  MOVWF  FF6
0C08E:  MOVLW  0F
0C090:  MOVWF  FF7
0C092:  MOVLW  00
0C094:  MOVWF  FF8
0C096:  MOVLW  0A
0C098:  MOVWF  x50
0C09A:  MOVLB  0
0C09C:  CALL   4B26
0C0A0:  MOVFF  44A,450
0C0A4:  MOVLW  1B
0C0A6:  MOVLB  4
0C0A8:  MOVWF  x51
0C0AA:  MOVLB  0
0C0AC:  CALL   4B84
0C0B0:  MOVLW  22
0C0B2:  BTFSS  F9E.4
0C0B4:  BRA    C0B2
0C0B6:  MOVWF  FAD
....................          SendDataDisplay(); 
0C0B8:  CALL   3BE4
....................          printf("test.txt=\"%02u:%02u\"",CiclosPersonalizados[RX_Buffer[4]-1].Minutoest,CiclosPersonalizados[RX_Buffer[4]-1].Segundoest); 
0C0BC:  MOVLW  01
0C0BE:  SUBWF  34,W
0C0C0:  MULLW  0A
0C0C2:  MOVF   FF3,W
0C0C4:  MOVLB  4
0C0C6:  CLRF   x4B
0C0C8:  MOVWF  x4A
0C0CA:  MOVLW  09
0C0CC:  ADDWF  x4A,W
0C0CE:  MOVWF  01
0C0D0:  MOVLW  00
0C0D2:  ADDWFC x4B,W
0C0D4:  MOVWF  03
0C0D6:  MOVF   01,W
0C0D8:  ADDLW  22
0C0DA:  MOVWF  FE9
0C0DC:  MOVLW  04
0C0DE:  ADDWFC 03,W
0C0E0:  MOVWF  FEA
0C0E2:  MOVFF  FEF,44A
0C0E6:  MOVLW  01
0C0E8:  SUBWF  34,W
0C0EA:  MULLW  0A
0C0EC:  MOVF   FF3,W
0C0EE:  CLRF   x4C
0C0F0:  MOVWF  x4B
0C0F2:  MOVLW  03
0C0F4:  ADDWF  x4B,W
0C0F6:  MOVWF  01
0C0F8:  MOVLW  00
0C0FA:  ADDWFC x4C,W
0C0FC:  MOVWF  03
0C0FE:  MOVF   01,W
0C100:  ADDLW  22
0C102:  MOVWF  FE9
0C104:  MOVLW  04
0C106:  ADDWFC 03,W
0C108:  MOVWF  FEA
0C10A:  MOVFF  FEF,44B
0C10E:  MOVLW  94
0C110:  MOVWF  FF6
0C112:  MOVLW  0F
0C114:  MOVWF  FF7
0C116:  MOVLW  00
0C118:  MOVWF  FF8
0C11A:  MOVLW  0A
0C11C:  MOVWF  x50
0C11E:  MOVLB  0
0C120:  CALL   4B26
0C124:  MOVFF  44A,450
0C128:  MOVLW  01
0C12A:  MOVLB  4
0C12C:  MOVWF  x51
0C12E:  MOVLB  0
0C130:  CALL   4B84
0C134:  MOVLW  3A
0C136:  BTFSS  F9E.4
0C138:  BRA    C136
0C13A:  MOVWF  FAD
0C13C:  MOVFF  44B,450
0C140:  MOVLW  01
0C142:  MOVLB  4
0C144:  MOVWF  x51
0C146:  MOVLB  0
0C148:  CALL   4B84
0C14C:  MOVLW  22
0C14E:  BTFSS  F9E.4
0C150:  BRA    C14E
0C152:  MOVWF  FAD
....................          SendDataDisplay(); 
0C154:  CALL   3BE4
....................          printf("tsec.txt=\"%02u:%02u\"",CiclosPersonalizados[RX_Buffer[4]-1].Minutosec,CiclosPersonalizados[RX_Buffer[4]-1].Segundosec); 
0C158:  MOVLW  01
0C15A:  SUBWF  34,W
0C15C:  MULLW  0A
0C15E:  MOVF   FF3,W
0C160:  MOVLB  4
0C162:  CLRF   x4B
0C164:  MOVWF  x4A
0C166:  MOVLW  04
0C168:  ADDWF  x4A,W
0C16A:  MOVWF  01
0C16C:  MOVLW  00
0C16E:  ADDWFC x4B,W
0C170:  MOVWF  03
0C172:  MOVF   01,W
0C174:  ADDLW  22
0C176:  MOVWF  FE9
0C178:  MOVLW  04
0C17A:  ADDWFC 03,W
0C17C:  MOVWF  FEA
0C17E:  MOVFF  FEF,44A
0C182:  MOVLW  01
0C184:  SUBWF  34,W
0C186:  MULLW  0A
0C188:  MOVF   FF3,W
0C18A:  CLRF   x4C
0C18C:  MOVWF  x4B
0C18E:  MOVLW  05
0C190:  ADDWF  x4B,W
0C192:  MOVWF  01
0C194:  MOVLW  00
0C196:  ADDWFC x4C,W
0C198:  MOVWF  03
0C19A:  MOVF   01,W
0C19C:  ADDLW  22
0C19E:  MOVWF  FE9
0C1A0:  MOVLW  04
0C1A2:  ADDWFC 03,W
0C1A4:  MOVWF  FEA
0C1A6:  MOVFF  FEF,44B
0C1AA:  MOVLW  AA
0C1AC:  MOVWF  FF6
0C1AE:  MOVLW  0F
0C1B0:  MOVWF  FF7
0C1B2:  MOVLW  00
0C1B4:  MOVWF  FF8
0C1B6:  MOVLW  0A
0C1B8:  MOVWF  x50
0C1BA:  MOVLB  0
0C1BC:  CALL   4B26
0C1C0:  MOVFF  44A,450
0C1C4:  MOVLW  01
0C1C6:  MOVLB  4
0C1C8:  MOVWF  x51
0C1CA:  MOVLB  0
0C1CC:  CALL   4B84
0C1D0:  MOVLW  3A
0C1D2:  BTFSS  F9E.4
0C1D4:  BRA    C1D2
0C1D6:  MOVWF  FAD
0C1D8:  MOVFF  44B,450
0C1DC:  MOVLW  01
0C1DE:  MOVLB  4
0C1E0:  MOVWF  x51
0C1E2:  MOVLB  0
0C1E4:  CALL   4B84
0C1E8:  MOVLW  22
0C1EA:  BTFSS  F9E.4
0C1EC:  BRA    C1EA
0C1EE:  MOVWF  FAD
....................          SendDataDisplay(); 
0C1F0:  CALL   3BE4
....................          printf("desfogue.txt=\"%u\"",CiclosPersonalizados[RX_Buffer[4]-1].NivelDesfogue); 
0C1F4:  MOVLW  01
0C1F6:  SUBWF  34,W
0C1F8:  MULLW  0A
0C1FA:  MOVF   FF3,W
0C1FC:  MOVLB  4
0C1FE:  CLRF   x4B
0C200:  MOVWF  x4A
0C202:  MOVLW  08
0C204:  ADDWF  x4A,W
0C206:  MOVWF  01
0C208:  MOVLW  00
0C20A:  ADDWFC x4B,W
0C20C:  MOVWF  03
0C20E:  MOVF   01,W
0C210:  ADDLW  22
0C212:  MOVWF  FE9
0C214:  MOVLW  04
0C216:  ADDWFC 03,W
0C218:  MOVWF  FEA
0C21A:  MOVFF  FEF,44A
0C21E:  MOVLW  C0
0C220:  MOVWF  FF6
0C222:  MOVLW  0F
0C224:  MOVWF  FF7
0C226:  MOVLW  00
0C228:  MOVWF  FF8
0C22A:  MOVLW  0E
0C22C:  MOVWF  x50
0C22E:  MOVLB  0
0C230:  CALL   4B26
0C234:  MOVFF  44A,450
0C238:  MOVLW  1B
0C23A:  MOVLB  4
0C23C:  MOVWF  x51
0C23E:  MOVLB  0
0C240:  CALL   4B84
0C244:  MOVLW  22
0C246:  BTFSS  F9E.4
0C248:  BRA    C246
0C24A:  MOVWF  FAD
....................          SendDataDisplay(); 
0C24C:  CALL   3BE4
....................          CicloLibre=RX_Buffer[4]; 
0C250:  MOVFF  34,33A
....................       }else if(CicloLibre==0x00){ 
0C254:  BRA    C502
0C256:  MOVLB  3
0C258:  MOVF   x3A,F
0C25A:  BNZ   C2C6
....................          printf("ciclo.txt=\"CICLO P--\""); 
0C25C:  MOVLW  D2
0C25E:  MOVWF  FF6
0C260:  MOVLW  0F
0C262:  MOVWF  FF7
0C264:  MOVLW  00
0C266:  MOVWF  FF8
0C268:  MOVLB  0
0C26A:  CALL   3BB2
....................          SendDataDisplay();           
0C26E:  CALL   3BE4
....................          printf("temp.txt=\"--\""); 
0C272:  MOVLW  E8
0C274:  MOVWF  FF6
0C276:  MOVLW  0F
0C278:  MOVWF  FF7
0C27A:  MOVLW  00
0C27C:  MOVWF  FF8
0C27E:  CALL   3BB2
....................          SendDataDisplay(); 
0C282:  CALL   3BE4
....................          printf("test.txt=\"--:--\""); 
0C286:  MOVLW  F6
0C288:  MOVWF  FF6
0C28A:  MOVLW  0F
0C28C:  MOVWF  FF7
0C28E:  MOVLW  00
0C290:  MOVWF  FF8
0C292:  CALL   3BB2
....................          SendDataDisplay(); 
0C296:  CALL   3BE4
....................          printf("tsec.txt=\"--:--\""); 
0C29A:  MOVLW  08
0C29C:  MOVWF  FF6
0C29E:  MOVLW  10
0C2A0:  MOVWF  FF7
0C2A2:  MOVLW  00
0C2A4:  MOVWF  FF8
0C2A6:  CALL   3BB2
....................          SendDataDisplay(); 
0C2AA:  CALL   3BE4
....................          printf("desfogue.txt=\"--\""); 
0C2AE:  MOVLW  1A
0C2B0:  MOVWF  FF6
0C2B2:  MOVLW  10
0C2B4:  MOVWF  FF7
0C2B6:  MOVLW  00
0C2B8:  MOVWF  FF8
0C2BA:  CALL   3BB2
....................          SendDataDisplay(); 
0C2BE:  CALL   3BE4
....................       }else if(CicloLibre>0 && CicloLibre<4){ 
0C2C2:  BRA    C502
0C2C4:  MOVLB  3
0C2C6:  MOVF   x3A,F
0C2C8:  BTFSC  FD8.2
0C2CA:  BRA    C504
0C2CC:  MOVF   x3A,W
0C2CE:  SUBLW  03
0C2D0:  BTFSS  FD8.0
0C2D2:  BRA    C504
....................          printf("ciclo.txt=\"CICLO P%02u\"",CicloLibre+0x04); 
0C2D4:  MOVLW  04
0C2D6:  ADDWF  x3A,W
0C2D8:  MOVLB  4
0C2DA:  MOVWF  x4A
0C2DC:  MOVLW  2C
0C2DE:  MOVWF  FF6
0C2E0:  MOVLW  10
0C2E2:  MOVWF  FF7
0C2E4:  MOVLW  00
0C2E6:  MOVWF  FF8
0C2E8:  MOVLW  12
0C2EA:  MOVWF  x50
0C2EC:  MOVLB  0
0C2EE:  CALL   4B26
0C2F2:  MOVFF  44A,450
0C2F6:  MOVLW  01
0C2F8:  MOVLB  4
0C2FA:  MOVWF  x51
0C2FC:  MOVLB  0
0C2FE:  CALL   4B84
0C302:  MOVLW  22
0C304:  BTFSS  F9E.4
0C306:  BRA    C304
0C308:  MOVWF  FAD
....................          SendDataDisplay();           
0C30A:  CALL   3BE4
....................          printf("temp.txt=\"%u\"",CiclosPersonalizados[CicloLibre-1].Temperatura); 
0C30E:  MOVLW  01
0C310:  MOVLB  3
0C312:  SUBWF  x3A,W
0C314:  MULLW  0A
0C316:  MOVF   FF3,W
0C318:  MOVLB  4
0C31A:  CLRF   x4B
0C31C:  MOVWF  x4A
0C31E:  MOVLW  22
0C320:  ADDWF  x4A,W
0C322:  MOVWF  FE9
0C324:  MOVLW  04
0C326:  ADDWFC x4B,W
0C328:  MOVWF  FEA
0C32A:  MOVFF  FEF,44A
0C32E:  MOVLW  44
0C330:  MOVWF  FF6
0C332:  MOVLW  10
0C334:  MOVWF  FF7
0C336:  MOVLW  00
0C338:  MOVWF  FF8
0C33A:  MOVLW  0A
0C33C:  MOVWF  x50
0C33E:  MOVLB  0
0C340:  CALL   4B26
0C344:  MOVFF  44A,450
0C348:  MOVLW  1B
0C34A:  MOVLB  4
0C34C:  MOVWF  x51
0C34E:  MOVLB  0
0C350:  CALL   4B84
0C354:  MOVLW  22
0C356:  BTFSS  F9E.4
0C358:  BRA    C356
0C35A:  MOVWF  FAD
....................          SendDataDisplay(); 
0C35C:  CALL   3BE4
....................          printf("test.txt=\"%02u:%02u\"",CiclosPersonalizados[CicloLibre-1].Minutoest,CiclosPersonalizados[CicloLibre-1].Segundoest); 
0C360:  MOVLW  01
0C362:  MOVLB  3
0C364:  SUBWF  x3A,W
0C366:  MULLW  0A
0C368:  MOVF   FF3,W
0C36A:  MOVLB  4
0C36C:  CLRF   x4B
0C36E:  MOVWF  x4A
0C370:  MOVLW  09
0C372:  ADDWF  x4A,W
0C374:  MOVWF  01
0C376:  MOVLW  00
0C378:  ADDWFC x4B,W
0C37A:  MOVWF  03
0C37C:  MOVF   01,W
0C37E:  ADDLW  22
0C380:  MOVWF  FE9
0C382:  MOVLW  04
0C384:  ADDWFC 03,W
0C386:  MOVWF  FEA
0C388:  MOVFF  FEF,44A
0C38C:  MOVLW  01
0C38E:  MOVLB  3
0C390:  SUBWF  x3A,W
0C392:  MULLW  0A
0C394:  MOVF   FF3,W
0C396:  MOVLB  4
0C398:  CLRF   x4C
0C39A:  MOVWF  x4B
0C39C:  MOVLW  03
0C39E:  ADDWF  x4B,W
0C3A0:  MOVWF  01
0C3A2:  MOVLW  00
0C3A4:  ADDWFC x4C,W
0C3A6:  MOVWF  03
0C3A8:  MOVF   01,W
0C3AA:  ADDLW  22
0C3AC:  MOVWF  FE9
0C3AE:  MOVLW  04
0C3B0:  ADDWFC 03,W
0C3B2:  MOVWF  FEA
0C3B4:  MOVFF  FEF,44B
0C3B8:  MOVLW  52
0C3BA:  MOVWF  FF6
0C3BC:  MOVLW  10
0C3BE:  MOVWF  FF7
0C3C0:  MOVLW  00
0C3C2:  MOVWF  FF8
0C3C4:  MOVLW  0A
0C3C6:  MOVWF  x50
0C3C8:  MOVLB  0
0C3CA:  CALL   4B26
0C3CE:  MOVFF  44A,450
0C3D2:  MOVLW  01
0C3D4:  MOVLB  4
0C3D6:  MOVWF  x51
0C3D8:  MOVLB  0
0C3DA:  CALL   4B84
0C3DE:  MOVLW  3A
0C3E0:  BTFSS  F9E.4
0C3E2:  BRA    C3E0
0C3E4:  MOVWF  FAD
0C3E6:  MOVFF  44B,450
0C3EA:  MOVLW  01
0C3EC:  MOVLB  4
0C3EE:  MOVWF  x51
0C3F0:  MOVLB  0
0C3F2:  CALL   4B84
0C3F6:  MOVLW  22
0C3F8:  BTFSS  F9E.4
0C3FA:  BRA    C3F8
0C3FC:  MOVWF  FAD
....................          SendDataDisplay(); 
0C3FE:  CALL   3BE4
....................          printf("tsec.txt=\"%02u:%02u\"",CiclosPersonalizados[CicloLibre-1].Minutosec,CiclosPersonalizados[CicloLibre-1].Segundosec); 
0C402:  MOVLW  01
0C404:  MOVLB  3
0C406:  SUBWF  x3A,W
0C408:  MULLW  0A
0C40A:  MOVF   FF3,W
0C40C:  MOVLB  4
0C40E:  CLRF   x4B
0C410:  MOVWF  x4A
0C412:  MOVLW  04
0C414:  ADDWF  x4A,W
0C416:  MOVWF  01
0C418:  MOVLW  00
0C41A:  ADDWFC x4B,W
0C41C:  MOVWF  03
0C41E:  MOVF   01,W
0C420:  ADDLW  22
0C422:  MOVWF  FE9
0C424:  MOVLW  04
0C426:  ADDWFC 03,W
0C428:  MOVWF  FEA
0C42A:  MOVFF  FEF,44A
0C42E:  MOVLW  01
0C430:  MOVLB  3
0C432:  SUBWF  x3A,W
0C434:  MULLW  0A
0C436:  MOVF   FF3,W
0C438:  MOVLB  4
0C43A:  CLRF   x4C
0C43C:  MOVWF  x4B
0C43E:  MOVLW  05
0C440:  ADDWF  x4B,W
0C442:  MOVWF  01
0C444:  MOVLW  00
0C446:  ADDWFC x4C,W
0C448:  MOVWF  03
0C44A:  MOVF   01,W
0C44C:  ADDLW  22
0C44E:  MOVWF  FE9
0C450:  MOVLW  04
0C452:  ADDWFC 03,W
0C454:  MOVWF  FEA
0C456:  MOVFF  FEF,44B
0C45A:  MOVLW  68
0C45C:  MOVWF  FF6
0C45E:  MOVLW  10
0C460:  MOVWF  FF7
0C462:  MOVLW  00
0C464:  MOVWF  FF8
0C466:  MOVLW  0A
0C468:  MOVWF  x50
0C46A:  MOVLB  0
0C46C:  CALL   4B26
0C470:  MOVFF  44A,450
0C474:  MOVLW  01
0C476:  MOVLB  4
0C478:  MOVWF  x51
0C47A:  MOVLB  0
0C47C:  CALL   4B84
0C480:  MOVLW  3A
0C482:  BTFSS  F9E.4
0C484:  BRA    C482
0C486:  MOVWF  FAD
0C488:  MOVFF  44B,450
0C48C:  MOVLW  01
0C48E:  MOVLB  4
0C490:  MOVWF  x51
0C492:  MOVLB  0
0C494:  CALL   4B84
0C498:  MOVLW  22
0C49A:  BTFSS  F9E.4
0C49C:  BRA    C49A
0C49E:  MOVWF  FAD
....................          SendDataDisplay(); 
0C4A0:  CALL   3BE4
....................          printf("desfogue.txt=\"%u\"",CiclosPersonalizados[CicloLibre-1].NivelDesfogue); 
0C4A4:  MOVLW  01
0C4A6:  MOVLB  3
0C4A8:  SUBWF  x3A,W
0C4AA:  MULLW  0A
0C4AC:  MOVF   FF3,W
0C4AE:  MOVLB  4
0C4B0:  CLRF   x4B
0C4B2:  MOVWF  x4A
0C4B4:  MOVLW  08
0C4B6:  ADDWF  x4A,W
0C4B8:  MOVWF  01
0C4BA:  MOVLW  00
0C4BC:  ADDWFC x4B,W
0C4BE:  MOVWF  03
0C4C0:  MOVF   01,W
0C4C2:  ADDLW  22
0C4C4:  MOVWF  FE9
0C4C6:  MOVLW  04
0C4C8:  ADDWFC 03,W
0C4CA:  MOVWF  FEA
0C4CC:  MOVFF  FEF,44A
0C4D0:  MOVLW  7E
0C4D2:  MOVWF  FF6
0C4D4:  MOVLW  10
0C4D6:  MOVWF  FF7
0C4D8:  MOVLW  00
0C4DA:  MOVWF  FF8
0C4DC:  MOVLW  0E
0C4DE:  MOVWF  x50
0C4E0:  MOVLB  0
0C4E2:  CALL   4B26
0C4E6:  MOVFF  44A,450
0C4EA:  MOVLW  1B
0C4EC:  MOVLB  4
0C4EE:  MOVWF  x51
0C4F0:  MOVLB  0
0C4F2:  CALL   4B84
0C4F6:  MOVLW  22
0C4F8:  BTFSS  F9E.4
0C4FA:  BRA    C4F8
0C4FC:  MOVWF  FAD
....................          SendDataDisplay(); 
0C4FE:  CALL   3BE4
0C502:  MOVLB  3
....................       } 
....................        
....................       if(RIGHT){ 
0C504:  BSF    F93.2
0C506:  BTFSC  F81.2
0C508:  BRA    C520
....................          delay_ms(100); 
0C50A:  MOVLW  64
0C50C:  MOVLB  4
0C50E:  MOVWF  x63
0C510:  MOVLB  0
0C512:  CALL   1A6C
....................          if(RIGHT){ 
0C516:  BSF    F93.2
0C518:  BTFSC  F81.2
0C51A:  BRA    C522
....................             CicloLibre++; 
0C51C:  MOVLB  3
0C51E:  INCF   x3A,F
0C520:  MOVLB  0
....................          } 
....................       }       
....................        
....................       if(CicloLibre<1) 
0C522:  MOVLB  3
0C524:  MOVF   x3A,F
0C526:  BNZ   C52C
....................          CicloLibre=1; 
0C528:  MOVLW  01
0C52A:  MOVWF  x3A
....................       if(CicloLibre>4) 
0C52C:  MOVF   x3A,W
0C52E:  SUBLW  04
0C530:  BC    C536
....................          CicloLibre=4; 
0C532:  MOVLW  04
0C534:  MOVWF  x3A
....................        
....................       if(RX_Buffer[4]==0xa0 || LEFT){//a0, Menu Principal 
0C536:  MOVF   34,W
0C538:  SUBLW  A0
0C53A:  BZ    C542
0C53C:  BSF    F93.3
0C53E:  BTFSC  F81.3
0C540:  BRA    C57A
....................          delay_ms(100); 
0C542:  MOVLW  64
0C544:  MOVLB  4
0C546:  MOVWF  x63
0C548:  MOVLB  0
0C54A:  CALL   1A6C
....................          if(RX_Buffer[4]==0xa0 || LEFT){ 
0C54E:  MOVF   34,W
0C550:  SUBLW  A0
0C552:  BZ    C55A
0C554:  BSF    F93.3
0C556:  BTFSC  F81.3
0C558:  BRA    C578
....................             printf("page MenuPrincipal"); 
0C55A:  MOVLW  90
0C55C:  MOVWF  FF6
0C55E:  MOVLW  10
0C560:  MOVWF  FF7
0C562:  MOVLW  00
0C564:  MOVWF  FF8
0C566:  CALL   3BB2
....................             SendDataDisplay();      
0C56A:  CALL   3BE4
....................             PantallaPrincipal=0; 
0C56E:  MOVLB  2
0C570:  CLRF   xDD
....................             Op=OFF; 
0C572:  MOVLB  0
0C574:  BCF    xA2.2
....................             Op2=OFF; 
0C576:  BCF    xA2.3
0C578:  MOVLB  3
....................          } 
....................       } 
....................        
....................       if(RX_Buffer[4]==0x20 && CicloLibre>0){//20, Temperatura 
0C57A:  MOVF   34,W
0C57C:  SUBLW  20
0C57E:  BNZ   C5BC
0C580:  MOVF   x3A,F
0C582:  BZ    C5BC
....................             printf("page Temperatura"); 
0C584:  MOVLW  A4
0C586:  MOVWF  FF6
0C588:  MOVLW  10
0C58A:  MOVWF  FF7
0C58C:  MOVLW  00
0C58E:  MOVWF  FF8
0C590:  MOVLB  0
0C592:  CALL   3BB2
....................             SendDataDisplay();      
0C596:  CALL   3BE4
....................             Setpoint=CiclosPersonalizados[CicloLibre-1].Temperatura; 
0C59A:  MOVLW  01
0C59C:  MOVLB  3
0C59E:  SUBWF  x3A,W
0C5A0:  MULLW  0A
0C5A2:  MOVF   FF3,W
0C5A4:  MOVLB  4
0C5A6:  CLRF   x4B
0C5A8:  MOVWF  x4A
0C5AA:  MOVLW  22
0C5AC:  ADDWF  x4A,W
0C5AE:  MOVWF  FE9
0C5B0:  MOVLW  04
0C5B2:  ADDWFC x4B,W
0C5B4:  MOVWF  FEA
0C5B6:  MOVFF  FEF,362
0C5BA:  MOVLB  3
....................       } 
....................        
....................       if(RX_Buffer[4]==0x30 && CicloLibre>0){//30, Test 
0C5BC:  MOVF   34,W
0C5BE:  SUBLW  30
0C5C0:  BTFSS  FD8.2
0C5C2:  BRA    C6DE
0C5C4:  MOVF   x3A,F
0C5C6:  BTFSC  FD8.2
0C5C8:  BRA    C6DE
....................             printf("page TiempoEst"); 
0C5CA:  MOVLW  B6
0C5CC:  MOVWF  FF6
0C5CE:  MOVLW  10
0C5D0:  MOVWF  FF7
0C5D2:  MOVLW  00
0C5D4:  MOVWF  FF8
0C5D6:  MOVLB  0
0C5D8:  CALL   3BB2
....................             SendDataDisplay();      
0C5DC:  CALL   3BE4
....................             Testerilizacionp[3]=CiclosPersonalizados[CicloLibre-1].Minutoest/10; 
0C5E0:  MOVLW  01
0C5E2:  MOVLB  3
0C5E4:  SUBWF  x3A,W
0C5E6:  MULLW  0A
0C5E8:  MOVF   FF3,W
0C5EA:  MOVLB  4
0C5EC:  CLRF   x4B
0C5EE:  MOVWF  x4A
0C5F0:  MOVLW  09
0C5F2:  ADDWF  x4A,W
0C5F4:  MOVWF  01
0C5F6:  MOVLW  00
0C5F8:  ADDWFC x4B,W
0C5FA:  MOVWF  03
0C5FC:  MOVF   01,W
0C5FE:  ADDLW  22
0C600:  MOVWF  FE9
0C602:  MOVLW  04
0C604:  ADDWFC 03,W
0C606:  MOVWF  FEA
0C608:  MOVFF  FEF,454
0C60C:  MOVLW  0A
0C60E:  MOVWF  x55
0C610:  MOVLB  0
0C612:  CALL   4B58
0C616:  MOVFF  01,B9
....................             Testerilizacionp[2]=CiclosPersonalizados[CicloLibre-1].Minutoest-(Testerilizacionp[3]*10); 
0C61A:  MOVLW  01
0C61C:  MOVLB  3
0C61E:  SUBWF  x3A,W
0C620:  MULLW  0A
0C622:  MOVF   FF3,W
0C624:  MOVLB  4
0C626:  CLRF   x4B
0C628:  MOVWF  x4A
0C62A:  MOVLW  09
0C62C:  ADDWF  x4A,W
0C62E:  MOVWF  01
0C630:  MOVLW  00
0C632:  ADDWFC x4B,W
0C634:  MOVWF  03
0C636:  MOVF   01,W
0C638:  ADDLW  22
0C63A:  MOVWF  FE9
0C63C:  MOVLW  04
0C63E:  ADDWFC 03,W
0C640:  MOVWF  FEA
0C642:  MOVFF  FEF,44A
0C646:  MOVFF  B9,44C
0C64A:  MOVLW  0A
0C64C:  MOVWF  x4D
0C64E:  MOVLB  0
0C650:  CALL   30AC
0C654:  MOVF   01,W
0C656:  MOVLB  4
0C658:  SUBWF  x4A,W
0C65A:  MOVLB  0
0C65C:  MOVWF  xB8
....................             Testerilizacionp[1]=CiclosPersonalizados[CicloLibre-1].Segundoest/10; 
0C65E:  MOVLW  01
0C660:  MOVLB  3
0C662:  SUBWF  x3A,W
0C664:  MULLW  0A
0C666:  MOVF   FF3,W
0C668:  MOVLB  4
0C66A:  CLRF   x4B
0C66C:  MOVWF  x4A
0C66E:  MOVLW  03
0C670:  ADDWF  x4A,W
0C672:  MOVWF  01
0C674:  MOVLW  00
0C676:  ADDWFC x4B,W
0C678:  MOVWF  03
0C67A:  MOVF   01,W
0C67C:  ADDLW  22
0C67E:  MOVWF  FE9
0C680:  MOVLW  04
0C682:  ADDWFC 03,W
0C684:  MOVWF  FEA
0C686:  MOVFF  FEF,454
0C68A:  MOVLW  0A
0C68C:  MOVWF  x55
0C68E:  MOVLB  0
0C690:  CALL   4B58
0C694:  MOVFF  01,B7
....................             Testerilizacionp[0]=CiclosPersonalizados[CicloLibre-1].Segundoest-(Testerilizacionp[1]*10); 
0C698:  MOVLW  01
0C69A:  MOVLB  3
0C69C:  SUBWF  x3A,W
0C69E:  MULLW  0A
0C6A0:  MOVF   FF3,W
0C6A2:  MOVLB  4
0C6A4:  CLRF   x4B
0C6A6:  MOVWF  x4A
0C6A8:  MOVLW  03
0C6AA:  ADDWF  x4A,W
0C6AC:  MOVWF  01
0C6AE:  MOVLW  00
0C6B0:  ADDWFC x4B,W
0C6B2:  MOVWF  03
0C6B4:  MOVF   01,W
0C6B6:  ADDLW  22
0C6B8:  MOVWF  FE9
0C6BA:  MOVLW  04
0C6BC:  ADDWFC 03,W
0C6BE:  MOVWF  FEA
0C6C0:  MOVFF  FEF,44A
0C6C4:  MOVFF  B7,44C
0C6C8:  MOVLW  0A
0C6CA:  MOVWF  x4D
0C6CC:  MOVLB  0
0C6CE:  CALL   30AC
0C6D2:  MOVF   01,W
0C6D4:  MOVLB  4
0C6D6:  SUBWF  x4A,W
0C6D8:  MOVLB  0
0C6DA:  MOVWF  xB6
0C6DC:  MOVLB  3
....................       } 
....................        
....................       if(RX_Buffer[4]==0x40 && CicloLibre>0){//30, Test 
0C6DE:  MOVF   34,W
0C6E0:  SUBLW  40
0C6E2:  BTFSS  FD8.2
0C6E4:  BRA    C800
0C6E6:  MOVF   x3A,F
0C6E8:  BTFSC  FD8.2
0C6EA:  BRA    C800
....................             printf("page TiempoSec"); 
0C6EC:  MOVLW  C6
0C6EE:  MOVWF  FF6
0C6F0:  MOVLW  10
0C6F2:  MOVWF  FF7
0C6F4:  MOVLW  00
0C6F6:  MOVWF  FF8
0C6F8:  MOVLB  0
0C6FA:  CALL   3BB2
....................             SendDataDisplay();      
0C6FE:  CALL   3BE4
....................             Tsecadop[3]=CiclosPersonalizados[CicloLibre-1].Minutosec/10; 
0C702:  MOVLW  01
0C704:  MOVLB  3
0C706:  SUBWF  x3A,W
0C708:  MULLW  0A
0C70A:  MOVF   FF3,W
0C70C:  MOVLB  4
0C70E:  CLRF   x4B
0C710:  MOVWF  x4A
0C712:  MOVLW  04
0C714:  ADDWF  x4A,W
0C716:  MOVWF  01
0C718:  MOVLW  00
0C71A:  ADDWFC x4B,W
0C71C:  MOVWF  03
0C71E:  MOVF   01,W
0C720:  ADDLW  22
0C722:  MOVWF  FE9
0C724:  MOVLW  04
0C726:  ADDWFC 03,W
0C728:  MOVWF  FEA
0C72A:  MOVFF  FEF,454
0C72E:  MOVLW  0A
0C730:  MOVWF  x55
0C732:  MOVLB  0
0C734:  CALL   4B58
0C738:  MOVFF  01,C2
....................             Tsecadop[2]=CiclosPersonalizados[CicloLibre-1].Minutosec-(Tsecadop[3]*10); 
0C73C:  MOVLW  01
0C73E:  MOVLB  3
0C740:  SUBWF  x3A,W
0C742:  MULLW  0A
0C744:  MOVF   FF3,W
0C746:  MOVLB  4
0C748:  CLRF   x4B
0C74A:  MOVWF  x4A
0C74C:  MOVLW  04
0C74E:  ADDWF  x4A,W
0C750:  MOVWF  01
0C752:  MOVLW  00
0C754:  ADDWFC x4B,W
0C756:  MOVWF  03
0C758:  MOVF   01,W
0C75A:  ADDLW  22
0C75C:  MOVWF  FE9
0C75E:  MOVLW  04
0C760:  ADDWFC 03,W
0C762:  MOVWF  FEA
0C764:  MOVFF  FEF,44A
0C768:  MOVFF  C2,44C
0C76C:  MOVLW  0A
0C76E:  MOVWF  x4D
0C770:  MOVLB  0
0C772:  CALL   30AC
0C776:  MOVF   01,W
0C778:  MOVLB  4
0C77A:  SUBWF  x4A,W
0C77C:  MOVLB  0
0C77E:  MOVWF  xC1
....................             Tsecadop[1]=CiclosPersonalizados[CicloLibre-1].Segundosec/10; 
0C780:  MOVLW  01
0C782:  MOVLB  3
0C784:  SUBWF  x3A,W
0C786:  MULLW  0A
0C788:  MOVF   FF3,W
0C78A:  MOVLB  4
0C78C:  CLRF   x4B
0C78E:  MOVWF  x4A
0C790:  MOVLW  05
0C792:  ADDWF  x4A,W
0C794:  MOVWF  01
0C796:  MOVLW  00
0C798:  ADDWFC x4B,W
0C79A:  MOVWF  03
0C79C:  MOVF   01,W
0C79E:  ADDLW  22
0C7A0:  MOVWF  FE9
0C7A2:  MOVLW  04
0C7A4:  ADDWFC 03,W
0C7A6:  MOVWF  FEA
0C7A8:  MOVFF  FEF,454
0C7AC:  MOVLW  0A
0C7AE:  MOVWF  x55
0C7B0:  MOVLB  0
0C7B2:  CALL   4B58
0C7B6:  MOVFF  01,C0
....................             Tsecadop[0]=CiclosPersonalizados[CicloLibre-1].Segundosec-(Tsecadop[1]*10); 
0C7BA:  MOVLW  01
0C7BC:  MOVLB  3
0C7BE:  SUBWF  x3A,W
0C7C0:  MULLW  0A
0C7C2:  MOVF   FF3,W
0C7C4:  MOVLB  4
0C7C6:  CLRF   x4B
0C7C8:  MOVWF  x4A
0C7CA:  MOVLW  05
0C7CC:  ADDWF  x4A,W
0C7CE:  MOVWF  01
0C7D0:  MOVLW  00
0C7D2:  ADDWFC x4B,W
0C7D4:  MOVWF  03
0C7D6:  MOVF   01,W
0C7D8:  ADDLW  22
0C7DA:  MOVWF  FE9
0C7DC:  MOVLW  04
0C7DE:  ADDWFC 03,W
0C7E0:  MOVWF  FEA
0C7E2:  MOVFF  FEF,44A
0C7E6:  MOVFF  C0,44C
0C7EA:  MOVLW  0A
0C7EC:  MOVWF  x4D
0C7EE:  MOVLB  0
0C7F0:  CALL   30AC
0C7F4:  MOVF   01,W
0C7F6:  MOVLB  4
0C7F8:  SUBWF  x4A,W
0C7FA:  MOVLB  0
0C7FC:  MOVWF  xBF
0C7FE:  MOVLB  3
....................       } 
....................        
....................       if(RX_Buffer[4]==0x80 && CicloLibre>0){//80, NivelDesfogue          
0C800:  MOVF   34,W
0C802:  SUBLW  80
0C804:  BNZ   C854
0C806:  MOVF   x3A,F
0C808:  BZ    C854
....................             printf("page Nivel"); 
0C80A:  MOVLW  D6
0C80C:  MOVWF  FF6
0C80E:  MOVLW  10
0C810:  MOVWF  FF7
0C812:  MOVLW  00
0C814:  MOVWF  FF8
0C816:  MOVLB  0
0C818:  CALL   3BB2
....................             SendDataDisplay();      
0C81C:  CALL   3BE4
....................             Nivel=CiclosPersonalizados[CicloLibre-1].NivelDesfogue;          
0C820:  MOVLW  01
0C822:  MOVLB  3
0C824:  SUBWF  x3A,W
0C826:  MULLW  0A
0C828:  MOVF   FF3,W
0C82A:  MOVLB  4
0C82C:  CLRF   x4B
0C82E:  MOVWF  x4A
0C830:  MOVLW  08
0C832:  ADDWF  x4A,W
0C834:  MOVWF  01
0C836:  MOVLW  00
0C838:  ADDWFC x4B,W
0C83A:  MOVWF  03
0C83C:  MOVF   01,W
0C83E:  ADDLW  22
0C840:  MOVWF  FE9
0C842:  MOVLW  04
0C844:  ADDWFC 03,W
0C846:  MOVWF  FEA
0C848:  MOVF   FEF,W
0C84A:  CLRF   03
0C84C:  MOVLB  3
0C84E:  MOVWF  x70
0C850:  MOVFF  03,371
....................       } 
....................        
....................       if((RX_Buffer[4]==0x70 || UP)&& CicloLibre>0){//70, Iniciar Ciclo 
0C854:  MOVF   34,W
0C856:  SUBLW  70
0C858:  BZ    C860
0C85A:  BSF    F93.0
0C85C:  BTFSC  F81.0
0C85E:  BRA    CD76
0C860:  MOVF   x3A,F
0C862:  BTFSC  FD8.2
0C864:  BRA    CD76
....................          delay_ms(100); 
0C866:  MOVLW  64
0C868:  MOVLB  4
0C86A:  MOVWF  x63
0C86C:  MOVLB  0
0C86E:  CALL   1A6C
....................          if((RX_Buffer[4]==0x70 || UP)&& CicloLibre>0){ 
0C872:  MOVF   34,W
0C874:  SUBLW  70
0C876:  BZ    C87E
0C878:  BSF    F93.0
0C87A:  BTFSC  F81.0
0C87C:  BRA    CD74
0C87E:  MOVLB  3
0C880:  MOVF   x3A,F
0C882:  BTFSS  FD8.2
0C884:  BRA    C88A
0C886:  MOVLB  0
0C888:  BRA    CD74
....................             printf("page Funcionamiento"); 
0C88A:  MOVLW  E2
0C88C:  MOVWF  FF6
0C88E:  MOVLW  10
0C890:  MOVWF  FF7
0C892:  MOVLW  00
0C894:  MOVWF  FF8
0C896:  MOVLB  0
0C898:  CALL   3BB2
....................             SendDataDisplay();        
0C89C:  CALL   3BE4
....................             Libre=ON; 
0C8A0:  BSF    xA3.7
....................             if(CiclosPersonalizados[CicloLibre-1].NivelDesfogue>5){ 
0C8A2:  MOVLW  01
0C8A4:  MOVLB  3
0C8A6:  SUBWF  x3A,W
0C8A8:  MULLW  0A
0C8AA:  MOVF   FF3,W
0C8AC:  MOVLB  4
0C8AE:  CLRF   x4B
0C8B0:  MOVWF  x4A
0C8B2:  MOVLW  08
0C8B4:  ADDWF  x4A,W
0C8B6:  MOVWF  01
0C8B8:  MOVLW  00
0C8BA:  ADDWFC x4B,W
0C8BC:  MOVWF  03
0C8BE:  MOVF   01,W
0C8C0:  ADDLW  22
0C8C2:  MOVWF  FE9
0C8C4:  MOVLW  04
0C8C6:  ADDWFC 03,W
0C8C8:  MOVWF  FEA
0C8CA:  MOVF   FEF,W
0C8CC:  SUBLW  05
0C8CE:  BTFSC  FD8.0
0C8D0:  BRA    CB00
....................                ConfiguraCiclo(extraeDecima(CiclosPersonalizados[CicloLibre-1].Segundoest), 
....................                            CiclosPersonalizados[CicloLibre-1].Segundoest/10, 
....................                            extraeDecima(CiclosPersonalizados[CicloLibre-1].Minutoest), 
....................                            CiclosPersonalizados[CicloLibre-1].Minutoest/10, 
....................                            extraeDecima(CiclosPersonalizados[CicloLibre-1].Segundosec), 
....................                            CiclosPersonalizados[CicloLibre-1].Segundosec/10, 
....................                            extraeDecima(CiclosPersonalizados[CicloLibre-1].Minutosec), 
....................                            CiclosPersonalizados[CicloLibre-1].Minutosec/10,0,CicloLibre+4,CiclosPersonalizados[CicloLibre-1].Temperatura);             
0C8D2:  MOVLW  01
0C8D4:  MOVLB  3
0C8D6:  SUBWF  x3A,W
0C8D8:  MULLW  0A
0C8DA:  MOVF   FF3,W
0C8DC:  MOVLB  4
0C8DE:  CLRF   x4B
0C8E0:  MOVWF  x4A
0C8E2:  MOVLW  03
0C8E4:  ADDWF  x4A,W
0C8E6:  MOVWF  01
0C8E8:  MOVLW  00
0C8EA:  ADDWFC x4B,W
0C8EC:  MOVWF  03
0C8EE:  MOVF   01,W
0C8F0:  ADDLW  22
0C8F2:  MOVWF  FE9
0C8F4:  MOVLW  04
0C8F6:  ADDWFC 03,W
0C8F8:  MOVWF  FEA
0C8FA:  MOVFF  FEF,44A
0C8FE:  MOVFF  44A,451
0C902:  MOVLB  0
0C904:  CALL   5778
0C908:  MOVFF  01,44A
0C90C:  MOVLW  01
0C90E:  MOVLB  3
0C910:  SUBWF  x3A,W
0C912:  MULLW  0A
0C914:  MOVF   FF3,W
0C916:  MOVLB  4
0C918:  CLRF   x4C
0C91A:  MOVWF  x4B
0C91C:  MOVLW  03
0C91E:  ADDWF  x4B,W
0C920:  MOVWF  01
0C922:  MOVLW  00
0C924:  ADDWFC x4C,W
0C926:  MOVWF  03
0C928:  MOVF   01,W
0C92A:  ADDLW  22
0C92C:  MOVWF  FE9
0C92E:  MOVLW  04
0C930:  ADDWFC 03,W
0C932:  MOVWF  FEA
0C934:  MOVFF  FEF,454
0C938:  MOVLW  0A
0C93A:  MOVWF  x55
0C93C:  MOVLB  0
0C93E:  CALL   4B58
0C942:  MOVFF  01,44B
0C946:  MOVLW  01
0C948:  MOVLB  3
0C94A:  SUBWF  x3A,W
0C94C:  MULLW  0A
0C94E:  MOVF   FF3,W
0C950:  MOVLB  4
0C952:  CLRF   x4D
0C954:  MOVWF  x4C
0C956:  MOVLW  09
0C958:  ADDWF  x4C,W
0C95A:  MOVWF  01
0C95C:  MOVLW  00
0C95E:  ADDWFC x4D,W
0C960:  MOVWF  03
0C962:  MOVF   01,W
0C964:  ADDLW  22
0C966:  MOVWF  FE9
0C968:  MOVLW  04
0C96A:  ADDWFC 03,W
0C96C:  MOVWF  FEA
0C96E:  MOVFF  FEF,44C
0C972:  MOVFF  44C,451
0C976:  MOVLB  0
0C978:  CALL   5778
0C97C:  MOVFF  01,44C
0C980:  MOVLW  01
0C982:  MOVLB  3
0C984:  SUBWF  x3A,W
0C986:  MULLW  0A
0C988:  MOVF   FF3,W
0C98A:  MOVLB  4
0C98C:  CLRF   x4E
0C98E:  MOVWF  x4D
0C990:  MOVLW  09
0C992:  ADDWF  x4D,W
0C994:  MOVWF  01
0C996:  MOVLW  00
0C998:  ADDWFC x4E,W
0C99A:  MOVWF  03
0C99C:  MOVF   01,W
0C99E:  ADDLW  22
0C9A0:  MOVWF  FE9
0C9A2:  MOVLW  04
0C9A4:  ADDWFC 03,W
0C9A6:  MOVWF  FEA
0C9A8:  MOVFF  FEF,454
0C9AC:  MOVLW  0A
0C9AE:  MOVWF  x55
0C9B0:  MOVLB  0
0C9B2:  CALL   4B58
0C9B6:  MOVFF  01,44D
0C9BA:  MOVLW  01
0C9BC:  MOVLB  3
0C9BE:  SUBWF  x3A,W
0C9C0:  MULLW  0A
0C9C2:  MOVF   FF3,W
0C9C4:  MOVLB  4
0C9C6:  CLRF   x4F
0C9C8:  MOVWF  x4E
0C9CA:  MOVLW  05
0C9CC:  ADDWF  x4E,W
0C9CE:  MOVWF  01
0C9D0:  MOVLW  00
0C9D2:  ADDWFC x4F,W
0C9D4:  MOVWF  03
0C9D6:  MOVF   01,W
0C9D8:  ADDLW  22
0C9DA:  MOVWF  FE9
0C9DC:  MOVLW  04
0C9DE:  ADDWFC 03,W
0C9E0:  MOVWF  FEA
0C9E2:  MOVFF  FEF,44E
0C9E6:  MOVFF  44E,451
0C9EA:  MOVLB  0
0C9EC:  CALL   5778
0C9F0:  MOVFF  01,44E
0C9F4:  MOVLW  01
0C9F6:  MOVLB  3
0C9F8:  SUBWF  x3A,W
0C9FA:  MULLW  0A
0C9FC:  MOVF   FF3,W
0C9FE:  MOVLB  4
0CA00:  CLRF   x50
0CA02:  MOVWF  x4F
0CA04:  MOVLW  05
0CA06:  ADDWF  x4F,W
0CA08:  MOVWF  01
0CA0A:  MOVLW  00
0CA0C:  ADDWFC x50,W
0CA0E:  MOVWF  03
0CA10:  MOVF   01,W
0CA12:  ADDLW  22
0CA14:  MOVWF  FE9
0CA16:  MOVLW  04
0CA18:  ADDWFC 03,W
0CA1A:  MOVWF  FEA
0CA1C:  MOVFF  FEF,454
0CA20:  MOVLW  0A
0CA22:  MOVWF  x55
0CA24:  MOVLB  0
0CA26:  CALL   4B58
0CA2A:  MOVFF  01,44F
0CA2E:  MOVLW  01
0CA30:  MOVLB  3
0CA32:  SUBWF  x3A,W
0CA34:  MULLW  0A
0CA36:  MOVF   FF3,W
0CA38:  MOVLB  4
0CA3A:  CLRF   x51
0CA3C:  MOVWF  x50
0CA3E:  MOVLW  04
0CA40:  ADDWF  x50,W
0CA42:  MOVWF  01
0CA44:  MOVLW  00
0CA46:  ADDWFC x51,W
0CA48:  MOVWF  03
0CA4A:  MOVF   01,W
0CA4C:  ADDLW  22
0CA4E:  MOVWF  FE9
0CA50:  MOVLW  04
0CA52:  ADDWFC 03,W
0CA54:  MOVWF  FEA
0CA56:  MOVFF  FEF,450
0CA5A:  MOVFF  450,451
0CA5E:  MOVLB  0
0CA60:  CALL   5778
0CA64:  MOVFF  01,450
0CA68:  MOVLW  01
0CA6A:  MOVLB  3
0CA6C:  SUBWF  x3A,W
0CA6E:  MULLW  0A
0CA70:  MOVF   FF3,W
0CA72:  MOVLB  4
0CA74:  CLRF   x52
0CA76:  MOVWF  x51
0CA78:  MOVLW  04
0CA7A:  ADDWF  x51,W
0CA7C:  MOVWF  01
0CA7E:  MOVLW  00
0CA80:  ADDWFC x52,W
0CA82:  MOVWF  03
0CA84:  MOVF   01,W
0CA86:  ADDLW  22
0CA88:  MOVWF  FE9
0CA8A:  MOVLW  04
0CA8C:  ADDWFC 03,W
0CA8E:  MOVWF  FEA
0CA90:  MOVFF  FEF,454
0CA94:  MOVLW  0A
0CA96:  MOVWF  x55
0CA98:  MOVLB  0
0CA9A:  CALL   4B58
0CA9E:  MOVFF  01,451
0CAA2:  MOVLW  04
0CAA4:  MOVLB  3
0CAA6:  ADDWF  x3A,W
0CAA8:  MOVLB  4
0CAAA:  MOVWF  x52
0CAAC:  MOVLW  01
0CAAE:  MOVLB  3
0CAB0:  SUBWF  x3A,W
0CAB2:  MULLW  0A
0CAB4:  MOVF   FF3,W
0CAB6:  MOVLB  4
0CAB8:  CLRF   x54
0CABA:  MOVWF  x53
0CABC:  MOVLW  22
0CABE:  ADDWF  x53,W
0CAC0:  MOVWF  FE9
0CAC2:  MOVLW  04
0CAC4:  ADDWFC x54,W
0CAC6:  MOVWF  FEA
0CAC8:  MOVFF  FEF,453
0CACC:  MOVFF  44A,454
0CAD0:  MOVFF  44B,455
0CAD4:  MOVFF  44C,456
0CAD8:  MOVFF  44D,457
0CADC:  MOVFF  44E,458
0CAE0:  MOVFF  44F,459
0CAE4:  MOVFF  450,45A
0CAE8:  MOVFF  01,45B
0CAEC:  CLRF   x5C
0CAEE:  MOVFF  452,45D
0CAF2:  MOVFF  453,45E
0CAF6:  MOVLB  0
0CAF8:  CALL   546C
....................             }else{ 
0CAFC:  BRA    CD74
0CAFE:  MOVLB  4
....................                ConfiguraCiclo(extraeDecima(CiclosPersonalizados[CicloLibre-1].Segundoest), 
....................                            CiclosPersonalizados[CicloLibre-1].Segundoest/10, 
....................                            extraeDecima(CiclosPersonalizados[CicloLibre-1].Minutoest), 
....................                            CiclosPersonalizados[CicloLibre-1].Minutoest/10, 
....................                            extraeDecima(CiclosPersonalizados[CicloLibre-1].Segundosec), 
....................                            CiclosPersonalizados[CicloLibre-1].Segundosec/10, 
....................                            extraeDecima(CiclosPersonalizados[CicloLibre-1].Minutosec), 
....................                            CiclosPersonalizados[CicloLibre-1].Minutosec/10,1,CicloLibre+4,CiclosPersonalizados[CicloLibre-1].Temperatura);             
0CB00:  MOVLW  01
0CB02:  MOVLB  3
0CB04:  SUBWF  x3A,W
0CB06:  MULLW  0A
0CB08:  MOVF   FF3,W
0CB0A:  MOVLB  4
0CB0C:  CLRF   x4B
0CB0E:  MOVWF  x4A
0CB10:  MOVLW  03
0CB12:  ADDWF  x4A,W
0CB14:  MOVWF  01
0CB16:  MOVLW  00
0CB18:  ADDWFC x4B,W
0CB1A:  MOVWF  03
0CB1C:  MOVF   01,W
0CB1E:  ADDLW  22
0CB20:  MOVWF  FE9
0CB22:  MOVLW  04
0CB24:  ADDWFC 03,W
0CB26:  MOVWF  FEA
0CB28:  MOVFF  FEF,44A
0CB2C:  MOVFF  44A,451
0CB30:  MOVLB  0
0CB32:  CALL   5778
0CB36:  MOVFF  01,44A
0CB3A:  MOVLW  01
0CB3C:  MOVLB  3
0CB3E:  SUBWF  x3A,W
0CB40:  MULLW  0A
0CB42:  MOVF   FF3,W
0CB44:  MOVLB  4
0CB46:  CLRF   x4C
0CB48:  MOVWF  x4B
0CB4A:  MOVLW  03
0CB4C:  ADDWF  x4B,W
0CB4E:  MOVWF  01
0CB50:  MOVLW  00
0CB52:  ADDWFC x4C,W
0CB54:  MOVWF  03
0CB56:  MOVF   01,W
0CB58:  ADDLW  22
0CB5A:  MOVWF  FE9
0CB5C:  MOVLW  04
0CB5E:  ADDWFC 03,W
0CB60:  MOVWF  FEA
0CB62:  MOVFF  FEF,454
0CB66:  MOVLW  0A
0CB68:  MOVWF  x55
0CB6A:  MOVLB  0
0CB6C:  CALL   4B58
0CB70:  MOVFF  01,44B
0CB74:  MOVLW  01
0CB76:  MOVLB  3
0CB78:  SUBWF  x3A,W
0CB7A:  MULLW  0A
0CB7C:  MOVF   FF3,W
0CB7E:  MOVLB  4
0CB80:  CLRF   x4D
0CB82:  MOVWF  x4C
0CB84:  MOVLW  09
0CB86:  ADDWF  x4C,W
0CB88:  MOVWF  01
0CB8A:  MOVLW  00
0CB8C:  ADDWFC x4D,W
0CB8E:  MOVWF  03
0CB90:  MOVF   01,W
0CB92:  ADDLW  22
0CB94:  MOVWF  FE9
0CB96:  MOVLW  04
0CB98:  ADDWFC 03,W
0CB9A:  MOVWF  FEA
0CB9C:  MOVFF  FEF,44C
0CBA0:  MOVFF  44C,451
0CBA4:  MOVLB  0
0CBA6:  CALL   5778
0CBAA:  MOVFF  01,44C
0CBAE:  MOVLW  01
0CBB0:  MOVLB  3
0CBB2:  SUBWF  x3A,W
0CBB4:  MULLW  0A
0CBB6:  MOVF   FF3,W
0CBB8:  MOVLB  4
0CBBA:  CLRF   x4E
0CBBC:  MOVWF  x4D
0CBBE:  MOVLW  09
0CBC0:  ADDWF  x4D,W
0CBC2:  MOVWF  01
0CBC4:  MOVLW  00
0CBC6:  ADDWFC x4E,W
0CBC8:  MOVWF  03
0CBCA:  MOVF   01,W
0CBCC:  ADDLW  22
0CBCE:  MOVWF  FE9
0CBD0:  MOVLW  04
0CBD2:  ADDWFC 03,W
0CBD4:  MOVWF  FEA
0CBD6:  MOVFF  FEF,454
0CBDA:  MOVLW  0A
0CBDC:  MOVWF  x55
0CBDE:  MOVLB  0
0CBE0:  CALL   4B58
0CBE4:  MOVFF  01,44D
0CBE8:  MOVLW  01
0CBEA:  MOVLB  3
0CBEC:  SUBWF  x3A,W
0CBEE:  MULLW  0A
0CBF0:  MOVF   FF3,W
0CBF2:  MOVLB  4
0CBF4:  CLRF   x4F
0CBF6:  MOVWF  x4E
0CBF8:  MOVLW  05
0CBFA:  ADDWF  x4E,W
0CBFC:  MOVWF  01
0CBFE:  MOVLW  00
0CC00:  ADDWFC x4F,W
0CC02:  MOVWF  03
0CC04:  MOVF   01,W
0CC06:  ADDLW  22
0CC08:  MOVWF  FE9
0CC0A:  MOVLW  04
0CC0C:  ADDWFC 03,W
0CC0E:  MOVWF  FEA
0CC10:  MOVFF  FEF,44E
0CC14:  MOVFF  44E,451
0CC18:  MOVLB  0
0CC1A:  CALL   5778
0CC1E:  MOVFF  01,44E
0CC22:  MOVLW  01
0CC24:  MOVLB  3
0CC26:  SUBWF  x3A,W
0CC28:  MULLW  0A
0CC2A:  MOVF   FF3,W
0CC2C:  MOVLB  4
0CC2E:  CLRF   x50
0CC30:  MOVWF  x4F
0CC32:  MOVLW  05
0CC34:  ADDWF  x4F,W
0CC36:  MOVWF  01
0CC38:  MOVLW  00
0CC3A:  ADDWFC x50,W
0CC3C:  MOVWF  03
0CC3E:  MOVF   01,W
0CC40:  ADDLW  22
0CC42:  MOVWF  FE9
0CC44:  MOVLW  04
0CC46:  ADDWFC 03,W
0CC48:  MOVWF  FEA
0CC4A:  MOVFF  FEF,454
0CC4E:  MOVLW  0A
0CC50:  MOVWF  x55
0CC52:  MOVLB  0
0CC54:  CALL   4B58
0CC58:  MOVFF  01,44F
0CC5C:  MOVLW  01
0CC5E:  MOVLB  3
0CC60:  SUBWF  x3A,W
0CC62:  MULLW  0A
0CC64:  MOVF   FF3,W
0CC66:  MOVLB  4
0CC68:  CLRF   x51
0CC6A:  MOVWF  x50
0CC6C:  MOVLW  04
0CC6E:  ADDWF  x50,W
0CC70:  MOVWF  01
0CC72:  MOVLW  00
0CC74:  ADDWFC x51,W
0CC76:  MOVWF  03
0CC78:  MOVF   01,W
0CC7A:  ADDLW  22
0CC7C:  MOVWF  FE9
0CC7E:  MOVLW  04
0CC80:  ADDWFC 03,W
0CC82:  MOVWF  FEA
0CC84:  MOVFF  FEF,450
0CC88:  MOVFF  450,451
0CC8C:  MOVLB  0
0CC8E:  CALL   5778
0CC92:  MOVFF  01,450
0CC96:  MOVLW  01
0CC98:  MOVLB  3
0CC9A:  SUBWF  x3A,W
0CC9C:  MULLW  0A
0CC9E:  MOVF   FF3,W
0CCA0:  MOVLB  4
0CCA2:  CLRF   x52
0CCA4:  MOVWF  x51
0CCA6:  MOVLW  04
0CCA8:  ADDWF  x51,W
0CCAA:  MOVWF  01
0CCAC:  MOVLW  00
0CCAE:  ADDWFC x52,W
0CCB0:  MOVWF  03
0CCB2:  MOVF   01,W
0CCB4:  ADDLW  22
0CCB6:  MOVWF  FE9
0CCB8:  MOVLW  04
0CCBA:  ADDWFC 03,W
0CCBC:  MOVWF  FEA
0CCBE:  MOVFF  FEF,454
0CCC2:  MOVLW  0A
0CCC4:  MOVWF  x55
0CCC6:  MOVLB  0
0CCC8:  CALL   4B58
0CCCC:  MOVFF  01,451
0CCD0:  MOVLW  04
0CCD2:  MOVLB  3
0CCD4:  ADDWF  x3A,W
0CCD6:  MOVLB  4
0CCD8:  MOVWF  x52
0CCDA:  MOVLW  01
0CCDC:  MOVLB  3
0CCDE:  SUBWF  x3A,W
0CCE0:  MULLW  0A
0CCE2:  MOVF   FF3,W
0CCE4:  MOVLB  4
0CCE6:  CLRF   x54
0CCE8:  MOVWF  x53
0CCEA:  MOVLW  22
0CCEC:  ADDWF  x53,W
0CCEE:  MOVWF  FE9
0CCF0:  MOVLW  04
0CCF2:  ADDWFC x54,W
0CCF4:  MOVWF  FEA
0CCF6:  MOVFF  FEF,453
0CCFA:  MOVFF  44A,454
0CCFE:  MOVFF  44B,455
0CD02:  MOVFF  44C,456
0CD06:  MOVFF  44D,457
0CD0A:  MOVFF  44E,458
0CD0E:  MOVFF  44F,459
0CD12:  MOVFF  450,45A
0CD16:  MOVFF  01,45B
0CD1A:  MOVLW  01
0CD1C:  MOVWF  x5C
0CD1E:  MOVFF  452,45D
0CD22:  MOVFF  453,45E
0CD26:  MOVLB  0
0CD28:  CALL   546C
....................                NivelSeleccionado=4995*CiclosPersonalizados[CicloLibre-1].NivelDesfogue; 
0CD2C:  MOVLW  01
0CD2E:  MOVLB  3
0CD30:  SUBWF  x3A,W
0CD32:  MULLW  0A
0CD34:  MOVF   FF3,W
0CD36:  MOVLB  4
0CD38:  CLRF   x4B
0CD3A:  MOVWF  x4A
0CD3C:  MOVLW  08
0CD3E:  ADDWF  x4A,W
0CD40:  MOVWF  01
0CD42:  MOVLW  00
0CD44:  ADDWFC x4B,W
0CD46:  MOVWF  03
0CD48:  MOVF   01,W
0CD4A:  ADDLW  22
0CD4C:  MOVWF  FE9
0CD4E:  MOVLW  04
0CD50:  ADDWFC 03,W
0CD52:  MOVWF  FEA
0CD54:  MOVFF  FEF,44A
0CD58:  MOVLW  13
0CD5A:  MOVWF  x66
0CD5C:  MOVLW  83
0CD5E:  MOVWF  x65
0CD60:  CLRF   x68
0CD62:  MOVFF  44A,467
0CD66:  MOVLB  0
0CD68:  CALL   1EA0
0CD6C:  MOVFF  02,37B
0CD70:  MOVFF  01,37A
0CD74:  MOVLB  3
....................             } 
....................          } 
....................       } 
....................    } 
.................... //_--------------------------------------------------------------------------------------------------------------------------------------------------------        
....................  
.................... //_--------------------------------------------------------------------------------------------------------------------------------------------------------       
....................    if(Menu==12){//Menu de Visualizacion de Ciclos Realizados 
0CD76:  MOVF   x5C,W
0CD78:  SUBLW  0C
0CD7A:  BTFSS  FD8.2
0CD7C:  BRA    D37A
....................       //printf("fecha.txt=\"Fecha:%02u/%02u/20%02u    Hora: %02u:%02u\"",Dia,Mes,Year,Hora,Minuto); 
....................       //SendDataDisplay(); 
....................       GuardaEEPROM=OFF; 
0CD7E:  MOVLB  0
0CD80:  BCF    xA2.6
....................       /*  
....................       i2c_start();            // Comienzo de la comunicacin 
....................       i2c_write(0xA0);   // Direccin del esclavo en el bus I2C 
....................       i2c_write(9);    // Posicin de donde se leer el dato en el esclavo 
....................       i2c_write(0);    // Posicin de donde se leer el dato en el esclavo 
....................       i2c_start();            // Reinicio 
....................       i2c_write(direccion+1); // Direccin del esclavo en modo lectura 
....................       dato=i2c_read(0);       // Lectura del dato 
....................       i2c_stop(); 
....................       */       
....................        
....................       if(RX_Buffer[6]==0x01){//01, Ciclos 
0CD82:  DECFSZ 36,W
0CD84:  BRA    CD9A
....................          printf("page MenuPrincipal"); 
0CD86:  MOVLW  F6
0CD88:  MOVWF  FF6
0CD8A:  MOVLW  10
0CD8C:  MOVWF  FF7
0CD8E:  MOVLW  00
0CD90:  MOVWF  FF8
0CD92:  CALL   3BB2
....................          SendDataDisplay();      
0CD96:  CALL   3BE4
....................       } 
....................        
....................       if(RX_Buffer[6]==0x02 || LEFT){//02, Izquierda 
0CD9A:  MOVF   36,W
0CD9C:  SUBLW  02
0CD9E:  BZ    CDA6
0CDA0:  BSF    F93.3
0CDA2:  BTFSC  F81.3
0CDA4:  BRA    CE08
....................          RX_Buffer[6]=0x00;   
0CDA6:  CLRF   36
....................          RX_Buffer2[6]=0x00; 
0CDA8:  CLRF   41
....................          if(cicloVisto>0) 
0CDAA:  MOVLB  3
0CDAC:  MOVF   x9F,F
0CDAE:  BNZ   CDB4
0CDB0:  MOVF   xA0,F
0CDB2:  BZ    CDBC
....................             cicloVisto--; 
0CDB4:  MOVF   x9F,W
0CDB6:  BTFSC  FD8.2
0CDB8:  DECF   xA0,F
0CDBA:  DECF   x9F,F
....................          printf("h0.val=%Lu",cicloVisto+1); 
0CDBC:  MOVLW  01
0CDBE:  ADDWF  x9F,W
0CDC0:  MOVLB  4
0CDC2:  MOVWF  x4A
0CDC4:  MOVLW  00
0CDC6:  MOVLB  3
0CDC8:  ADDWFC xA0,W
0CDCA:  MOVLB  4
0CDCC:  MOVWF  x4B
0CDCE:  MOVLW  0A
0CDD0:  MOVWF  FF6
0CDD2:  MOVLW  11
0CDD4:  MOVWF  FF7
0CDD6:  MOVLW  00
0CDD8:  MOVWF  FF8
0CDDA:  MOVLW  07
0CDDC:  MOVWF  x50
0CDDE:  MOVLB  0
0CDE0:  CALL   4B26
0CDE4:  MOVLW  10
0CDE6:  MOVWF  FE9
0CDE8:  MOVFF  44B,451
0CDEC:  MOVFF  44A,450
0CDF0:  CALL   54F8
....................          SendDataDisplay();      
0CDF4:  CALL   3BE4
....................          actualizaTabla(); 
0CDF8:  CALL   590A
....................          delay_ms(100); 
0CDFC:  MOVLW  64
0CDFE:  MOVLB  4
0CE00:  MOVWF  x63
0CE02:  MOVLB  0
0CE04:  CALL   1A6C
....................       } 
....................        
....................       if(RX_Buffer[6]==0x03 || UP){//03, Arriba 
0CE08:  MOVF   36,W
0CE0A:  SUBLW  03
0CE0C:  BZ    CE14
0CE0E:  BSF    F93.0
0CE10:  BTFSC  F81.0
0CE12:  BRA    CE76
....................          RX_Buffer[6]=0x00;   
0CE14:  CLRF   36
....................          RX_Buffer2[6]=0x00; 
0CE16:  CLRF   41
....................          if(cicloVisualizado<28) 
0CE18:  MOVLB  3
0CE1A:  MOVF   xA2,F
0CE1C:  BNZ   CE2A
0CE1E:  MOVF   xA1,W
0CE20:  SUBLW  1B
0CE22:  BNC   CE2A
....................             cicloVisualizado++; 
0CE24:  INCF   xA1,F
0CE26:  BTFSC  FD8.2
0CE28:  INCF   xA2,F
....................          printf("h1.val=%Lu",cicloVisualizado+1); 
0CE2A:  MOVLW  01
0CE2C:  ADDWF  xA1,W
0CE2E:  MOVLB  4
0CE30:  MOVWF  x4A
0CE32:  MOVLW  00
0CE34:  MOVLB  3
0CE36:  ADDWFC xA2,W
0CE38:  MOVLB  4
0CE3A:  MOVWF  x4B
0CE3C:  MOVLW  16
0CE3E:  MOVWF  FF6
0CE40:  MOVLW  11
0CE42:  MOVWF  FF7
0CE44:  MOVLW  00
0CE46:  MOVWF  FF8
0CE48:  MOVLW  07
0CE4A:  MOVWF  x50
0CE4C:  MOVLB  0
0CE4E:  CALL   4B26
0CE52:  MOVLW  10
0CE54:  MOVWF  FE9
0CE56:  MOVFF  44B,451
0CE5A:  MOVFF  44A,450
0CE5E:  CALL   54F8
....................          SendDataDisplay();     
0CE62:  CALL   3BE4
....................          actualizaTabla(); 
0CE66:  CALL   590A
....................          delay_ms(100); 
0CE6A:  MOVLW  64
0CE6C:  MOVLB  4
0CE6E:  MOVWF  x63
0CE70:  MOVLB  0
0CE72:  CALL   1A6C
....................          //exportarData(); 
....................       } 
....................        
....................       if(RX_Buffer[6]==0x04 || DOWN){//04, Abajo 
0CE76:  MOVF   36,W
0CE78:  SUBLW  04
0CE7A:  BZ    CE82
0CE7C:  BSF    F93.1
0CE7E:  BTFSC  F81.1
0CE80:  BRA    CEE4
....................          RX_Buffer[6]=0x00;   
0CE82:  CLRF   36
....................          RX_Buffer2[6]=0x00; 
0CE84:  CLRF   41
....................          if(cicloVisualizado>0) 
0CE86:  MOVLB  3
0CE88:  MOVF   xA1,F
0CE8A:  BNZ   CE90
0CE8C:  MOVF   xA2,F
0CE8E:  BZ    CE98
....................             cicloVisualizado--; 
0CE90:  MOVF   xA1,W
0CE92:  BTFSC  FD8.2
0CE94:  DECF   xA2,F
0CE96:  DECF   xA1,F
....................          printf("h1.val=%Lu",cicloVisualizado+1); 
0CE98:  MOVLW  01
0CE9A:  ADDWF  xA1,W
0CE9C:  MOVLB  4
0CE9E:  MOVWF  x4A
0CEA0:  MOVLW  00
0CEA2:  MOVLB  3
0CEA4:  ADDWFC xA2,W
0CEA6:  MOVLB  4
0CEA8:  MOVWF  x4B
0CEAA:  MOVLW  22
0CEAC:  MOVWF  FF6
0CEAE:  MOVLW  11
0CEB0:  MOVWF  FF7
0CEB2:  MOVLW  00
0CEB4:  MOVWF  FF8
0CEB6:  MOVLW  07
0CEB8:  MOVWF  x50
0CEBA:  MOVLB  0
0CEBC:  CALL   4B26
0CEC0:  MOVLW  10
0CEC2:  MOVWF  FE9
0CEC4:  MOVFF  44B,451
0CEC8:  MOVFF  44A,450
0CECC:  CALL   54F8
....................          SendDataDisplay();   
0CED0:  CALL   3BE4
....................          actualizaTabla(); 
0CED4:  CALL   590A
....................          delay_ms(100); 
0CED8:  MOVLW  64
0CEDA:  MOVLB  4
0CEDC:  MOVWF  x63
0CEDE:  MOVLB  0
0CEE0:  CALL   1A6C
....................          //exportarData(); 
....................       } 
....................        
....................       if(RX_Buffer[6]==0x05 || RIGHT){//05, Derecha 
0CEE4:  MOVF   36,W
0CEE6:  SUBLW  05
0CEE8:  BZ    CEF0
0CEEA:  BSF    F93.2
0CEEC:  BTFSC  F81.2
0CEEE:  BRA    CF52
....................          RX_Buffer[6]=0x00;   
0CEF0:  CLRF   36
....................          RX_Buffer2[6]=0x00; 
0CEF2:  CLRF   41
....................          if(cicloVisto<200) 
0CEF4:  MOVLB  3
0CEF6:  MOVF   xA0,F
0CEF8:  BNZ   CF06
0CEFA:  MOVF   x9F,W
0CEFC:  SUBLW  C7
0CEFE:  BNC   CF06
....................             cicloVisto++; 
0CF00:  INCF   x9F,F
0CF02:  BTFSC  FD8.2
0CF04:  INCF   xA0,F
....................          printf("h0.val=%Lu",cicloVisto+1); 
0CF06:  MOVLW  01
0CF08:  ADDWF  x9F,W
0CF0A:  MOVLB  4
0CF0C:  MOVWF  x4A
0CF0E:  MOVLW  00
0CF10:  MOVLB  3
0CF12:  ADDWFC xA0,W
0CF14:  MOVLB  4
0CF16:  MOVWF  x4B
0CF18:  MOVLW  2E
0CF1A:  MOVWF  FF6
0CF1C:  MOVLW  11
0CF1E:  MOVWF  FF7
0CF20:  MOVLW  00
0CF22:  MOVWF  FF8
0CF24:  MOVLW  07
0CF26:  MOVWF  x50
0CF28:  MOVLB  0
0CF2A:  CALL   4B26
0CF2E:  MOVLW  10
0CF30:  MOVWF  FE9
0CF32:  MOVFF  44B,451
0CF36:  MOVFF  44A,450
0CF3A:  CALL   54F8
....................          SendDataDisplay();   
0CF3E:  CALL   3BE4
....................          actualizaTabla(); 
0CF42:  CALL   590A
....................          delay_ms(100); 
0CF46:  MOVLW  64
0CF48:  MOVLB  4
0CF4A:  MOVWF  x63
0CF4C:  MOVLB  0
0CF4E:  CALL   1A6C
....................          //exportarData(); 
....................       } 
....................        
....................       if(RX_Buffer[6]==0x06){//06, Imprime 
0CF52:  MOVF   36,W
0CF54:  SUBLW  06
0CF56:  BNZ   CF74
....................          RX_Buffer[6]=0x00;   
0CF58:  CLRF   36
....................          RX_Buffer2[6]=0x00; 
0CF5A:  CLRF   41
....................          printf("t0.txt=\"!IMPRIMIENDO!\""); 
0CF5C:  MOVLW  3A
0CF5E:  MOVWF  FF6
0CF60:  MOVLW  11
0CF62:  MOVWF  FF7
0CF64:  MOVLW  00
0CF66:  MOVWF  FF8
0CF68:  CALL   3BB2
....................          SendDataDisplay();  
0CF6C:  CALL   3BE4
....................          exportarData(); 
0CF70:  GOTO   6116
....................       } 
....................        
....................       if(RX_Buffer[4]>0x00 || RX_Buffer[5]>0x00){ 
0CF74:  MOVF   34,F
0CF76:  BNZ   CF7C
0CF78:  MOVF   35,F
0CF7A:  BZ    CF9C
....................          cicloVisualizado=RX_Buffer[4]-1; 
0CF7C:  MOVLW  01
0CF7E:  SUBWF  34,W
0CF80:  MOVLB  3
0CF82:  MOVWF  xA1
0CF84:  CLRF   xA2
....................          cicloVisto=RX_Buffer[5]-1; 
0CF86:  MOVLW  01
0CF88:  SUBWF  35,W
0CF8A:  MOVWF  x9F
0CF8C:  CLRF   xA0
....................          RX_Buffer[4]=0x00; 
0CF8E:  CLRF   34
....................          RX_Buffer[5]=0x00; 
0CF90:  CLRF   35
....................          RX_Buffer2[4]=0x00; 
0CF92:  CLRF   3F
....................          RX_Buffer2[5]=0x00; 
0CF94:  CLRF   40
....................          actualizaTabla(); 
0CF96:  MOVLB  0
0CF98:  CALL   590A
....................       } 
....................        
....................       //Imprime Valores Estaticos 
....................       printf("fecha.txt=\"%02u/%02u/%02u\"",diaCiclos,mesCiclos,yearCiclos); 
0CF9C:  MOVLW  52
0CF9E:  MOVWF  FF6
0CFA0:  MOVLW  11
0CFA2:  MOVWF  FF7
0CFA4:  MOVLW  00
0CFA6:  MOVWF  FF8
0CFA8:  MOVLW  0B
0CFAA:  MOVLB  4
0CFAC:  MOVWF  x50
0CFAE:  MOVLB  0
0CFB0:  CALL   4B26
0CFB4:  MOVFF  3D0,450
0CFB8:  MOVLW  01
0CFBA:  MOVLB  4
0CFBC:  MOVWF  x51
0CFBE:  MOVLB  0
0CFC0:  CALL   4B84
0CFC4:  MOVLW  2F
0CFC6:  BTFSS  F9E.4
0CFC8:  BRA    CFC6
0CFCA:  MOVWF  FAD
0CFCC:  MOVFF  3D1,450
0CFD0:  MOVLW  01
0CFD2:  MOVLB  4
0CFD4:  MOVWF  x51
0CFD6:  MOVLB  0
0CFD8:  CALL   4B84
0CFDC:  MOVLW  2F
0CFDE:  BTFSS  F9E.4
0CFE0:  BRA    CFDE
0CFE2:  MOVWF  FAD
0CFE4:  MOVFF  3D2,450
0CFE8:  MOVLW  01
0CFEA:  MOVLB  4
0CFEC:  MOVWF  x51
0CFEE:  MOVLB  0
0CFF0:  CALL   4B84
0CFF4:  MOVLW  22
0CFF6:  BTFSS  F9E.4
0CFF8:  BRA    CFF6
0CFFA:  MOVWF  FAD
....................       SendDataDisplay(); 
0CFFC:  CALL   3BE4
....................        
....................       printf("ciclo.txt=\"%02u\"",cicloCiclos); 
0D000:  MOVLW  6E
0D002:  MOVWF  FF6
0D004:  MOVLW  11
0D006:  MOVWF  FF7
0D008:  MOVLW  00
0D00A:  MOVWF  FF8
0D00C:  MOVLW  0B
0D00E:  MOVLB  4
0D010:  MOVWF  x50
0D012:  MOVLB  0
0D014:  CALL   4B26
0D018:  MOVFF  3D4,450
0D01C:  MOVLW  01
0D01E:  MOVLB  4
0D020:  MOVWF  x51
0D022:  MOVLB  0
0D024:  CALL   4B84
0D028:  MOVLW  22
0D02A:  BTFSS  F9E.4
0D02C:  BRA    D02A
0D02E:  MOVWF  FAD
....................       SendDataDisplay(); 
0D030:  CALL   3BE4
....................        
....................       printf("t0.txt=\"Ciclo %Lu\"",cicloVisto); 
0D034:  MOVLW  80
0D036:  MOVWF  FF6
0D038:  MOVLW  11
0D03A:  MOVWF  FF7
0D03C:  MOVLW  00
0D03E:  MOVWF  FF8
0D040:  MOVLW  0E
0D042:  MOVLB  4
0D044:  MOVWF  x50
0D046:  MOVLB  0
0D048:  CALL   4B26
0D04C:  MOVLW  10
0D04E:  MOVWF  FE9
0D050:  MOVFF  3A0,451
0D054:  MOVFF  39F,450
0D058:  CALL   54F8
0D05C:  MOVLW  22
0D05E:  BTFSS  F9E.4
0D060:  BRA    D05E
0D062:  MOVWF  FAD
....................       SendDataDisplay(); 
0D064:  CALL   3BE4
....................        
....................       printf("usuario.txt=\"---\""); 
0D068:  MOVLW  94
0D06A:  MOVWF  FF6
0D06C:  MOVLW  11
0D06E:  MOVWF  FF7
0D070:  MOVLW  00
0D072:  MOVWF  FF8
0D074:  CALL   3BB2
....................       SendDataDisplay(); 
0D078:  CALL   3BE4
....................        
....................       //Imprime Valores Dinamicos 
....................       for(i=0;i<7;i++){ 
0D07C:  MOVLB  3
0D07E:  CLRF   xA4
0D080:  CLRF   xA3
0D082:  MOVF   xA4,F
0D084:  BTFSS  FD8.2
0D086:  BRA    D37A
0D088:  MOVF   xA3,W
0D08A:  SUBLW  06
0D08C:  BTFSS  FD8.0
0D08E:  BRA    D37A
....................          printf("hora%Lu.txt=\"%02Lu.  %02u:%02u\"",i+1,cicloVisualizado+i+1,horaCiclos[i],minutoCiclos[i]); 
0D090:  MOVLW  01
0D092:  ADDWF  xA3,W
0D094:  MOVLB  4
0D096:  MOVWF  x4A
0D098:  MOVLW  00
0D09A:  MOVLB  3
0D09C:  ADDWFC xA4,W
0D09E:  MOVLB  4
0D0A0:  MOVWF  x4B
0D0A2:  MOVLB  3
0D0A4:  MOVF   xA3,W
0D0A6:  ADDWF  xA1,W
0D0A8:  MOVLB  4
0D0AA:  MOVWF  x4C
0D0AC:  MOVLB  3
0D0AE:  MOVF   xA4,W
0D0B0:  ADDWFC xA2,W
0D0B2:  MOVLB  4
0D0B4:  MOVWF  x4D
0D0B6:  MOVLW  01
0D0B8:  ADDWF  x4C,F
0D0BA:  MOVLW  00
0D0BC:  ADDWFC x4D,F
0D0BE:  MOVLW  0D
0D0C0:  MOVLB  3
0D0C2:  ADDWF  xA3,W
0D0C4:  MOVWF  FE9
0D0C6:  MOVLW  04
0D0C8:  ADDWFC xA4,W
0D0CA:  MOVWF  FEA
0D0CC:  MOVFF  FEF,44E
0D0D0:  MOVLW  14
0D0D2:  ADDWF  xA3,W
0D0D4:  MOVWF  FE9
0D0D6:  MOVLW  04
0D0D8:  ADDWFC xA4,W
0D0DA:  MOVWF  FEA
0D0DC:  MOVFF  FEF,44F
0D0E0:  MOVLW  A6
0D0E2:  MOVWF  FF6
0D0E4:  MOVLW  11
0D0E6:  MOVWF  FF7
0D0E8:  MOVLW  00
0D0EA:  MOVWF  FF8
0D0EC:  MOVLW  04
0D0EE:  MOVLB  4
0D0F0:  MOVWF  x50
0D0F2:  MOVLB  0
0D0F4:  CALL   4B26
0D0F8:  MOVLW  10
0D0FA:  MOVWF  FE9
0D0FC:  MOVFF  44B,451
0D100:  MOVFF  44A,450
0D104:  CALL   54F8
0D108:  MOVLW  AD
0D10A:  MOVWF  FF6
0D10C:  MOVLW  11
0D10E:  MOVWF  FF7
0D110:  MOVLW  00
0D112:  MOVWF  FF8
0D114:  MOVLW  06
0D116:  MOVLB  4
0D118:  MOVWF  x50
0D11A:  MOVLB  0
0D11C:  CALL   4B26
0D120:  MOVLW  0B
0D122:  MOVWF  FE9
0D124:  MOVFF  44D,451
0D128:  MOVFF  44C,450
0D12C:  CALL   54F8
0D130:  MOVLW  2E
0D132:  BTFSS  F9E.4
0D134:  BRA    D132
0D136:  MOVWF  FAD
0D138:  MOVLW  20
0D13A:  BTFSS  F9E.4
0D13C:  BRA    D13A
0D13E:  MOVWF  FAD
0D140:  MOVLW  20
0D142:  BTFSS  F9E.4
0D144:  BRA    D142
0D146:  MOVWF  FAD
0D148:  MOVFF  44E,450
0D14C:  MOVLW  01
0D14E:  MOVLB  4
0D150:  MOVWF  x51
0D152:  MOVLB  0
0D154:  CALL   4B84
0D158:  MOVLW  3A
0D15A:  BTFSS  F9E.4
0D15C:  BRA    D15A
0D15E:  MOVWF  FAD
0D160:  MOVFF  44F,450
0D164:  MOVLW  01
0D166:  MOVLB  4
0D168:  MOVWF  x51
0D16A:  MOVLB  0
0D16C:  CALL   4B84
0D170:  MOVLW  22
0D172:  BTFSS  F9E.4
0D174:  BRA    D172
0D176:  MOVWF  FAD
....................          SendDataDisplay(); 
0D178:  CALL   3BE4
....................          printf("T%Lu.txt=\"%3.1fC\"",i+1,TCiclos[i]); 
0D17C:  MOVLW  01
0D17E:  MOVLB  3
0D180:  ADDWF  xA3,W
0D182:  MOVLB  4
0D184:  MOVWF  x4A
0D186:  MOVLW  00
0D188:  MOVLB  3
0D18A:  ADDWFC xA4,W
0D18C:  MOVLB  4
0D18E:  MOVWF  x4B
0D190:  MOVLB  3
0D192:  RLCF   xA3,W
0D194:  MOVWF  02
0D196:  RLCF   xA4,W
0D198:  MOVWF  03
0D19A:  RLCF   02,F
0D19C:  RLCF   03,F
0D19E:  MOVLW  FC
0D1A0:  ANDWF  02,F
0D1A2:  MOVF   02,W
0D1A4:  ADDLW  D5
0D1A6:  MOVWF  FE9
0D1A8:  MOVLW  03
0D1AA:  ADDWFC 03,W
0D1AC:  MOVWF  FEA
0D1AE:  MOVFF  FEF,44C
0D1B2:  MOVFF  FEC,44D
0D1B6:  MOVFF  FEC,44E
0D1BA:  MOVFF  FEC,44F
0D1BE:  MOVLW  54
0D1C0:  BTFSS  F9E.4
0D1C2:  BRA    D1C0
0D1C4:  MOVWF  FAD
0D1C6:  MOVLW  10
0D1C8:  MOVWF  FE9
0D1CA:  MOVFF  44B,451
0D1CE:  MOVFF  44A,450
0D1D2:  MOVLB  0
0D1D4:  CALL   54F8
0D1D8:  MOVLW  CA
0D1DA:  MOVWF  FF6
0D1DC:  MOVLW  11
0D1DE:  MOVWF  FF7
0D1E0:  MOVLW  00
0D1E2:  MOVWF  FF8
0D1E4:  MOVLW  06
0D1E6:  MOVLB  4
0D1E8:  MOVWF  x50
0D1EA:  MOVLB  0
0D1EC:  CALL   4B26
0D1F0:  MOVLW  02
0D1F2:  MOVWF  FE9
0D1F4:  MOVFF  44F,453
0D1F8:  MOVFF  44E,452
0D1FC:  MOVFF  44D,451
0D200:  MOVFF  44C,450
0D204:  MOVLW  01
0D206:  MOVLB  4
0D208:  MOVWF  x54
0D20A:  MOVLB  0
0D20C:  CALL   4CC6
0D210:  MOVLW  B0
0D212:  BTFSS  F9E.4
0D214:  BRA    D212
0D216:  MOVWF  FAD
0D218:  MOVLW  43
0D21A:  BTFSS  F9E.4
0D21C:  BRA    D21A
0D21E:  MOVWF  FAD
0D220:  MOVLW  22
0D222:  BTFSS  F9E.4
0D224:  BRA    D222
0D226:  MOVWF  FAD
....................          SendDataDisplay(); 
0D228:  CALL   3BE4
....................          printf("Pc%Lu.txt=\"%03LukPa\"",i+1,PcCiclos[i]); 
0D22C:  MOVLW  01
0D22E:  MOVLB  3
0D230:  ADDWF  xA3,W
0D232:  MOVLB  4
0D234:  MOVWF  x4A
0D236:  MOVLW  00
0D238:  MOVLB  3
0D23A:  ADDWFC xA4,W
0D23C:  MOVLB  4
0D23E:  MOVWF  x4B
0D240:  BCF    FD8.0
0D242:  MOVLB  3
0D244:  RLCF   xA3,W
0D246:  MOVWF  02
0D248:  RLCF   xA4,W
0D24A:  MOVWF  03
0D24C:  MOVF   02,W
0D24E:  ADDLW  F1
0D250:  MOVWF  FE9
0D252:  MOVLW  03
0D254:  ADDWFC 03,W
0D256:  MOVWF  FEA
0D258:  MOVFF  FEC,44D
0D25C:  MOVF   FED,F
0D25E:  MOVFF  FEF,44C
0D262:  MOVLW  50
0D264:  BTFSS  F9E.4
0D266:  BRA    D264
0D268:  MOVWF  FAD
0D26A:  MOVLW  63
0D26C:  BTFSS  F9E.4
0D26E:  BRA    D26C
0D270:  MOVWF  FAD
0D272:  MOVLW  10
0D274:  MOVWF  FE9
0D276:  MOVFF  44B,451
0D27A:  MOVFF  44A,450
0D27E:  MOVLB  0
0D280:  CALL   54F8
0D284:  MOVLW  DF
0D286:  MOVWF  FF6
0D288:  MOVLW  11
0D28A:  MOVWF  FF7
0D28C:  MOVLW  00
0D28E:  MOVWF  FF8
0D290:  MOVLW  06
0D292:  MOVLB  4
0D294:  MOVWF  x50
0D296:  MOVLB  0
0D298:  CALL   4B26
0D29C:  MOVLW  0A
0D29E:  MOVWF  FE9
0D2A0:  MOVFF  44D,451
0D2A4:  MOVFF  44C,450
0D2A8:  CALL   54F8
0D2AC:  MOVLW  EA
0D2AE:  MOVWF  FF6
0D2B0:  MOVLW  11
0D2B2:  MOVWF  FF7
0D2B4:  MOVLW  00
0D2B6:  MOVWF  FF8
0D2B8:  MOVLW  04
0D2BA:  MOVLB  4
0D2BC:  MOVWF  x50
0D2BE:  MOVLB  0
0D2C0:  CALL   4B26
....................          SendDataDisplay(); 
0D2C4:  CALL   3BE4
....................          printf("Ppc%Lu.txt=\"%03LukPa\"",i+1,PpcCiclos[i]); 
0D2C8:  MOVLW  01
0D2CA:  MOVLB  3
0D2CC:  ADDWF  xA3,W
0D2CE:  MOVLB  4
0D2D0:  MOVWF  x4A
0D2D2:  MOVLW  00
0D2D4:  MOVLB  3
0D2D6:  ADDWFC xA4,W
0D2D8:  MOVLB  4
0D2DA:  MOVWF  x4B
0D2DC:  BCF    FD8.0
0D2DE:  MOVLB  3
0D2E0:  RLCF   xA3,W
0D2E2:  MOVWF  02
0D2E4:  RLCF   xA4,W
0D2E6:  MOVWF  03
0D2E8:  MOVF   02,W
0D2EA:  ADDLW  FF
0D2EC:  MOVWF  FE9
0D2EE:  MOVLW  03
0D2F0:  ADDWFC 03,W
0D2F2:  MOVWF  FEA
0D2F4:  MOVFF  FEC,44D
0D2F8:  MOVF   FED,F
0D2FA:  MOVFF  FEF,44C
0D2FE:  MOVLW  50
0D300:  BTFSS  F9E.4
0D302:  BRA    D300
0D304:  MOVWF  FAD
0D306:  MOVLW  70
0D308:  BTFSS  F9E.4
0D30A:  BRA    D308
0D30C:  MOVWF  FAD
0D30E:  MOVLW  63
0D310:  BTFSS  F9E.4
0D312:  BRA    D310
0D314:  MOVWF  FAD
0D316:  MOVLW  10
0D318:  MOVWF  FE9
0D31A:  MOVFF  44B,451
0D31E:  MOVFF  44A,450
0D322:  MOVLB  0
0D324:  CALL   54F8
0D328:  MOVLW  F6
0D32A:  MOVWF  FF6
0D32C:  MOVLW  11
0D32E:  MOVWF  FF7
0D330:  MOVLW  00
0D332:  MOVWF  FF8
0D334:  MOVLW  06
0D336:  MOVLB  4
0D338:  MOVWF  x50
0D33A:  MOVLB  0
0D33C:  CALL   4B26
0D340:  MOVLW  0A
0D342:  MOVWF  FE9
0D344:  MOVFF  44D,451
0D348:  MOVFF  44C,450
0D34C:  CALL   54F8
0D350:  MOVLW  01
0D352:  MOVWF  FF6
0D354:  MOVLW  12
0D356:  MOVWF  FF7
0D358:  MOVLW  00
0D35A:  MOVWF  FF8
0D35C:  MOVLW  04
0D35E:  MOVLB  4
0D360:  MOVWF  x50
0D362:  MOVLB  0
0D364:  CALL   4B26
....................          SendDataDisplay();          
0D368:  CALL   3BE4
....................          codificaAlarma(); 
0D36C:  GOTO   64FA
....................       }   
0D370:  MOVLB  3
0D372:  INCF   xA3,F
0D374:  BTFSC  FD8.2
0D376:  INCF   xA4,F
0D378:  BRA    D082
....................    } 
.................... //_--------------------------------------------------------------------------------------------------------------------------------------------------------       
....................  
.................... //_--------------------------------------------------------------------------------------------------------------------------------------------------------       
....................     if(Menu==15){//Menu de Clave Correcta 
0D37A:  MOVF   x5C,W
0D37C:  SUBLW  0F
0D37E:  BNZ   D3B6
....................       if(!entro){ 
0D380:  MOVLB  0
0D382:  BTFSC  xA4.1
0D384:  BRA    D3A0
....................          delay_ms(2000); 
0D386:  MOVLW  08
0D388:  MOVLB  4
0D38A:  MOVWF  x4A
0D38C:  MOVLW  FA
0D38E:  MOVWF  x63
0D390:  MOVLB  0
0D392:  CALL   1A6C
0D396:  MOVLB  4
0D398:  DECFSZ x4A,F
0D39A:  BRA    D38C
....................          entro=ON; 
0D39C:  MOVLB  0
0D39E:  BSF    xA4.1
....................       } 
....................       printf("page MenuPrincipal"); 
0D3A0:  MOVLW  06
0D3A2:  MOVWF  FF6
0D3A4:  MOVLW  12
0D3A6:  MOVWF  FF7
0D3A8:  MOVLW  00
0D3AA:  MOVWF  FF8
0D3AC:  CALL   3BB2
....................       SendDataDisplay(); 
0D3B0:  CALL   3BE4
0D3B4:  MOVLB  3
....................    } 
.................... //_--------------------------------------------------------------------------------------------------------------------------------------------------------       
....................  
.................... //_--------------------------------------------------------------------------------------------------------------------------------------------------------       
....................     if(Menu==16){//Menu de Clave InCorrecta 
0D3B6:  MOVF   x5C,W
0D3B8:  SUBLW  10
0D3BA:  BNZ   D3F2
....................       if(!entro){ 
0D3BC:  MOVLB  0
0D3BE:  BTFSC  xA4.1
0D3C0:  BRA    D3DC
....................          delay_ms(2000); 
0D3C2:  MOVLW  08
0D3C4:  MOVLB  4
0D3C6:  MOVWF  x4A
0D3C8:  MOVLW  FA
0D3CA:  MOVWF  x63
0D3CC:  MOVLB  0
0D3CE:  CALL   1A6C
0D3D2:  MOVLB  4
0D3D4:  DECFSZ x4A,F
0D3D6:  BRA    D3C8
....................          entro=ON; 
0D3D8:  MOVLB  0
0D3DA:  BSF    xA4.1
....................       } 
....................       printf("page Clave"); 
0D3DC:  MOVLW  1A
0D3DE:  MOVWF  FF6
0D3E0:  MOVLW  12
0D3E2:  MOVWF  FF7
0D3E4:  MOVLW  00
0D3E6:  MOVWF  FF8
0D3E8:  CALL   3BB2
....................       SendDataDisplay(); 
0D3EC:  CALL   3BE4
0D3F0:  MOVLB  3
....................    } 
.................... //_--------------------------------------------------------------------------------------------------------------------------------------------------------       
....................  
.................... //_--------------------------------------------------------------------------------------------------------------------------------------------------------     
....................    if(Menu==20){ // Este es el menu de cuando el proceso se inicio. 
0D3F2:  MOVF   x5C,W
0D3F4:  SUBLW  14
0D3F6:  BTFSS  FD8.2
0D3F8:  GOTO   E49C
....................    //Lectura_Esclavos(); 
....................    GuardaDatoEstatico(); 
0D3FC:  MOVLB  0
0D3FE:  GOTO   6B3A
....................    guardaCiclo=ON; 
0D402:  BSF    xA4.4
....................    if(!Libre){ 
0D404:  BTFSC  xA3.7
0D406:  BRA    D48C
....................       printf("t2f.txt=\"%u\"",CicloSeleccionado); 
0D408:  MOVLW  26
0D40A:  MOVWF  FF6
0D40C:  MOVLW  12
0D40E:  MOVWF  FF7
0D410:  MOVLW  00
0D412:  MOVWF  FF8
0D414:  MOVLW  09
0D416:  MOVLB  4
0D418:  MOVWF  x50
0D41A:  MOVLB  0
0D41C:  CALL   4B26
0D420:  MOVFF  361,450
0D424:  MOVLW  1B
0D426:  MOVLB  4
0D428:  MOVWF  x51
0D42A:  MOVLB  0
0D42C:  CALL   4B84
0D430:  MOVLW  22
0D432:  BTFSS  F9E.4
0D434:  BRA    D432
0D436:  MOVWF  FAD
....................       SendDataDisplay(); 
0D438:  CALL   3BE4
....................       printf("t3f.txt=\"%s\"",texto[CicloSeleccionado-1]); 
0D43C:  MOVLW  01
0D43E:  MOVLB  3
0D440:  SUBWF  x61,W
0D442:  MULLW  14
0D444:  MOVF   FF3,W
0D446:  CLRF   03
0D448:  MOVLB  4
0D44A:  MOVWF  x4A
0D44C:  MOVLW  34
0D44E:  MOVWF  FF6
0D450:  MOVLW  12
0D452:  MOVWF  FF7
0D454:  MOVLW  00
0D456:  MOVWF  FF8
0D458:  MOVLW  09
0D45A:  MOVWF  x50
0D45C:  MOVLB  0
0D45E:  CALL   4B26
0D462:  MOVLW  50
0D464:  MOVWF  FF6
0D466:  MOVLW  01
0D468:  MOVWF  FF7
0D46A:  MOVLW  00
0D46C:  MOVWF  FF8
0D46E:  MOVLB  4
0D470:  MOVF   x4A,W
0D472:  ADDWF  FF6,F
0D474:  MOVLW  00
0D476:  ADDWFC FF7,F
0D478:  MOVLB  0
0D47A:  CALL   3BB2
0D47E:  MOVLW  22
0D480:  BTFSS  F9E.4
0D482:  BRA    D480
0D484:  MOVWF  FAD
....................       SendDataDisplay(); 
0D486:  CALL   3BE4
....................    }else{ 
0D48A:  BRA    D4DC
....................       printf("t2f.txt=\"%u\"",CicloLibre+4); 
0D48C:  MOVLW  04
0D48E:  MOVLB  3
0D490:  ADDWF  x3A,W
0D492:  MOVLB  4
0D494:  MOVWF  x4A
0D496:  MOVLW  42
0D498:  MOVWF  FF6
0D49A:  MOVLW  12
0D49C:  MOVWF  FF7
0D49E:  MOVLW  00
0D4A0:  MOVWF  FF8
0D4A2:  MOVLW  09
0D4A4:  MOVWF  x50
0D4A6:  MOVLB  0
0D4A8:  CALL   4B26
0D4AC:  MOVFF  44A,450
0D4B0:  MOVLW  1B
0D4B2:  MOVLB  4
0D4B4:  MOVWF  x51
0D4B6:  MOVLB  0
0D4B8:  CALL   4B84
0D4BC:  MOVLW  22
0D4BE:  BTFSS  F9E.4
0D4C0:  BRA    D4BE
0D4C2:  MOVWF  FAD
....................       SendDataDisplay(); 
0D4C4:  CALL   3BE4
....................       printf("t3f.txt=\"Personalizado\""); 
0D4C8:  MOVLW  50
0D4CA:  MOVWF  FF6
0D4CC:  MOVLW  12
0D4CE:  MOVWF  FF7
0D4D0:  MOVLW  00
0D4D2:  MOVWF  FF8
0D4D4:  CALL   3BB2
....................       SendDataDisplay(); 
0D4D8:  CALL   3BE4
....................    } 
....................     
....................    if(RIGHT){ 
0D4DC:  BSF    F93.2
0D4DE:  BTFSC  F81.2
0D4E0:  BRA    D4F8
....................       //glcd_init(ON); 
....................       delay_ms(1000); 
0D4E2:  MOVLW  04
0D4E4:  MOVLB  4
0D4E6:  MOVWF  x4A
0D4E8:  MOVLW  FA
0D4EA:  MOVWF  x63
0D4EC:  MOVLB  0
0D4EE:  CALL   1A6C
0D4F2:  MOVLB  4
0D4F4:  DECFSZ x4A,F
0D4F6:  BRA    D4E8
....................       /*flagCalentando=OFF; 
....................       flagDesfogando=OFF; 
....................       flagEsterilizando=OFF;*/ 
....................    } 
....................     
....................    if(PresionCamara>Atmosferica+275){ 
0D4F8:  MOVLW  13
0D4FA:  MOVLB  3
0D4FC:  ADDWF  xB9,W
0D4FE:  MOVWF  01
0D500:  MOVLW  01
0D502:  MOVWF  03
0D504:  BTFSC  FD8.0
0D506:  INCF   03,F
0D508:  MOVF   03,W
0D50A:  SUBWF  x75,W
0D50C:  BNC   D51A
0D50E:  BNZ   D516
0D510:  MOVF   x74,W
0D512:  SUBWF  01,W
0D514:  BC    D51A
....................       AlarmaPresion=ON; 
0D516:  MOVLB  0
0D518:  BSF    xA3.6
....................    } 
....................     
....................    if(Temperatura>105 && PresionCamara<Atmosferica+10 && !Desfogando){ 
0D51A:  MOVLB  4
0D51C:  CLRF   x55
0D51E:  CLRF   x54
0D520:  MOVLW  52
0D522:  MOVWF  x53
0D524:  MOVLW  85
0D526:  MOVWF  x52
0D528:  MOVFF  327,459
0D52C:  MOVFF  326,458
0D530:  MOVFF  325,457
0D534:  MOVFF  324,456
0D538:  MOVLB  0
0D53A:  CALL   3032
0D53E:  BNC   D562
0D540:  MOVLW  0A
0D542:  MOVLB  3
0D544:  ADDWF  xB9,W
0D546:  MOVF   x75,F
0D548:  BTFSC  FD8.2
0D54A:  BRA    D550
0D54C:  MOVLB  0
0D54E:  BRA    D562
0D550:  SUBWF  x74,W
0D552:  BTFSS  FD8.0
0D554:  BRA    D55A
0D556:  MOVLB  0
0D558:  BRA    D562
0D55A:  MOVLB  0
0D55C:  BTFSC  xA0.5
0D55E:  BRA    D562
....................       AlarmaCiclo=ON; 
0D560:  BSF    x9F.6
....................    } 
....................     
....................    if(TiempoCiclo>3000){ 
0D562:  MOVF   xA6,W
0D564:  SUBLW  0A
0D566:  BC    D59C
0D568:  XORLW  FF
0D56A:  BNZ   D572
0D56C:  MOVF   xA5,W
0D56E:  SUBLW  B8
0D570:  BC    D59C
....................       if(TiempoCiclo>5000) 
0D572:  MOVF   xA6,W
0D574:  SUBLW  12
0D576:  BC    D584
0D578:  XORLW  FF
0D57A:  BNZ   D582
0D57C:  MOVF   xA5,W
0D57E:  SUBLW  88
0D580:  BC    D584
....................          AlarmaTiempoProlongado=ON; 
0D582:  BSF    x9F.0
....................       if(PresionCamara<Atmosferica+10){ 
0D584:  MOVLW  0A
0D586:  MOVLB  3
0D588:  ADDWF  xB9,W
0D58A:  MOVF   x75,F
0D58C:  BNZ   D598
0D58E:  SUBWF  x74,W
0D590:  BC    D598
....................          AlarmaTiempoProlongado=ON; 
0D592:  MOVLB  0
0D594:  BSF    x9F.0
0D596:  MOVLB  3
....................       } 
....................    }else{ 
0D598:  BRA    D59E
0D59A:  MOVLB  0
....................       AlarmaTiempoProlongado=OFF; 
0D59C:  BCF    x9F.0
....................    } 
....................     
....................    if(Temperatura>Setpoint+3.0){ 
0D59E:  MOVLB  4
0D5A0:  CLRF   x60
0D5A2:  MOVFF  362,45F
0D5A6:  MOVLB  0
0D5A8:  CALL   1A94
0D5AC:  BCF    FD8.1
0D5AE:  MOVFF  03,462
0D5B2:  MOVFF  02,461
0D5B6:  MOVFF  01,460
0D5BA:  MOVFF  00,45F
0D5BE:  MOVLB  4
0D5C0:  CLRF   x66
0D5C2:  CLRF   x65
0D5C4:  MOVLW  40
0D5C6:  MOVWF  x64
0D5C8:  MOVLW  80
0D5CA:  MOVWF  x63
0D5CC:  MOVLB  0
0D5CE:  CALL   1C28
0D5D2:  MOVFF  03,455
0D5D6:  MOVFF  02,454
0D5DA:  MOVFF  01,453
0D5DE:  MOVFF  00,452
0D5E2:  MOVFF  327,459
0D5E6:  MOVFF  326,458
0D5EA:  MOVFF  325,457
0D5EE:  MOVFF  324,456
0D5F2:  CALL   3032
0D5F6:  BNC   D5FA
....................       AlarmaSobreTemperatura=ON; 
0D5F8:  BSF    x9F.1
....................    } 
....................     
....................    if(TiempoLlenado>1800){ 
0D5FA:  MOVF   xA8,W
0D5FC:  SUBLW  06
0D5FE:  BC    D60E
0D600:  XORLW  FF
0D602:  BNZ   D60A
0D604:  MOVF   xA7,W
0D606:  SUBLW  08
0D608:  BC    D60E
....................       AlarmaLlenado=ON; 
0D60A:  BSF    x9F.2
....................    }else{ 
0D60C:  BRA    D610
....................       AlarmaLlenado=OFF; 
0D60E:  BCF    x9F.2
....................    } 
....................     
....................    if(tTermostato>=2000){ 
0D610:  MOVLB  3
0D612:  MOVF   x9E,W
0D614:  SUBLW  06
0D616:  BC    D628
0D618:  XORLW  FF
0D61A:  BNZ   D622
0D61C:  MOVF   x9D,W
0D61E:  SUBLW  CF
0D620:  BC    D628
....................       AlarmaTermostato=ON; 
0D622:  MOVLB  0
0D624:  BSF    x9F.3
0D626:  MOVLB  3
....................    } 
....................     
....................    if(!DOOR){ 
0D628:  BSF    F93.6
0D62A:  BTFSS  F81.6
0D62C:  BRA    D646
....................       #ifdef Reservorio 
....................          if(!Secando && !Finalizo && !Desfogando){ 
....................             AlarmaPuerta=ON; 
....................          } 
....................       #else 
....................          if(!Secando && !Finalizo && !Desfogando && CalderinLleno){ 
0D62E:  MOVLB  0
0D630:  BTFSC  xA0.3
0D632:  BRA    D642
0D634:  BTFSC  xA3.5
0D636:  BRA    D642
0D638:  BTFSC  xA0.5
0D63A:  BRA    D642
0D63C:  BTFSS  xA0.0
0D63E:  BRA    D642
....................             AlarmaPuerta=ON; 
0D640:  BSF    x9F.4
....................          } 
....................       #endif 
....................    }else{ 
0D642:  BRA    D64A
0D644:  MOVLB  3
....................       AlarmaPuerta=OFF; 
0D646:  MOVLB  0
0D648:  BCF    x9F.4
....................    } 
....................  
....................    if(tStop>=300){ 
0D64A:  MOVLB  3
0D64C:  MOVF   x9C,W
0D64E:  SUBLW  00
0D650:  BC    D662
0D652:  XORLW  FF
0D654:  BNZ   D65C
0D656:  MOVF   x9B,W
0D658:  SUBLW  2B
0D65A:  BC    D662
....................       AlarmaEmergencia=ON; 
0D65C:  MOVLB  0
0D65E:  BSF    x9F.5
0D660:  MOVLB  3
....................    } 
....................     
....................    if(AlarmaPuerta || AlarmaTermostato || AlarmaLlenado || AlarmaSobreTemperatura || AlarmaTiempoProlongado || AlarmaEmergencia || AlarmaPresion 
....................    || AlarmaCiclo){ 
0D662:  MOVLB  0
0D664:  BTFSC  x9F.4
0D666:  BRA    D684
0D668:  BTFSC  x9F.3
0D66A:  BRA    D684
0D66C:  BTFSC  x9F.2
0D66E:  BRA    D684
0D670:  BTFSC  x9F.1
0D672:  BRA    D684
0D674:  BTFSC  x9F.0
0D676:  BRA    D684
0D678:  BTFSC  x9F.5
0D67A:  BRA    D684
0D67C:  BTFSC  xA3.6
0D67E:  BRA    D684
0D680:  BTFSS  x9F.6
0D682:  BRA    DAE0
....................       ActivaAlarma(1); 
0D684:  MOVLW  01
0D686:  MOVLB  4
0D688:  MOVWF  x4A
0D68A:  MOVLB  0
0D68C:  CALL   4A24
....................       if(AlarmaEmergencia){ 
0D690:  BTFSS  x9F.5
0D692:  BRA    D71C
....................          printf("Funcionamiento.t4f.txt=\" Parada de Emergencia\""); 
0D694:  MOVLW  68
0D696:  MOVWF  FF6
0D698:  MOVLW  12
0D69A:  MOVWF  FF7
0D69C:  MOVLW  00
0D69E:  MOVWF  FF8
0D6A0:  CALL   3BB2
....................          SendDataDisplay(); 
0D6A4:  CALL   3BE4
....................          printf("Funcionamiento.t5f.txt=\" Cancelado\""); 
0D6A8:  MOVLW  98
0D6AA:  MOVWF  FF6
0D6AC:  MOVLW  12
0D6AE:  MOVWF  FF7
0D6B0:  MOVLW  00
0D6B2:  MOVWF  FF8
0D6B4:  CALL   3BB2
....................          SendDataDisplay(); 
0D6B8:  CALL   3BE4
....................          Desfogue_on; 
0D6BC:  BSF    F8C.4
0D6BE:  BCF    F95.4
....................          SSR_off; 
0D6C0:  BSF    F8B.2
0D6C2:  BCF    F94.2
....................          Agua_off; 
0D6C4:  BCF    F8C.5
0D6C6:  BCF    F95.5
....................          #ifdef Enfriador 
....................          Enfr_on; 
....................          #else 
....................          Bomba_off; 
0D6C8:  BCF    F8C.6
0D6CA:  BCF    F95.6
....................          #endif 
....................          Aire=OFF; 
0D6CC:  BCF    xA4.2
....................          Esterilizando=OFF; 
0D6CE:  BCF    xA0.2
....................          Desfogando=OFF; 
0D6D0:  BCF    xA0.5
....................          DesfogueSuave=OFF; 
0D6D2:  BCF    xA0.6
....................          Esterilizando=OFF; 
0D6D4:  BCF    xA0.2
....................          //IniciaCiclo=OFF; 
....................          Controlando=0; 
0D6D6:  MOVLB  3
0D6D8:  CLRF   x54
....................          codigoAlarma=1; 
0D6DA:  MOVLW  01
0D6DC:  MOVLB  2
0D6DE:  MOVWF  xE2
....................          if(codigoAnt!=codigoAlarma){ 
0D6E0:  MOVF   xE2,W
0D6E2:  SUBWF  xE3,W
0D6E4:  BZ    D6F4
....................             codigoAnt=codigoAlarma; 
0D6E6:  MOVFF  2E2,2E3
....................             GuardaDatoCiclo(); 
0D6EA:  MOVLB  0
0D6EC:  CALL   6E02
....................             incrementaCiclos(); 
0D6F0:  CALL   7262
....................          } 
....................          if(!flagImprimir){ 
0D6F4:  MOVLB  3
0D6F6:  BTFSC  x51.5
0D6F8:  BRA    D718
....................             Imprime=20; 
0D6FA:  MOVLW  14
0D6FC:  MOVWF  xB8
....................             Envio_Esclavos(); 
0D6FE:  MOVLB  0
0D700:  CALL   495A
....................             delay_ms(100); 
0D704:  MOVLW  64
0D706:  MOVLB  4
0D708:  MOVWF  x63
0D70A:  MOVLB  0
0D70C:  CALL   1A6C
....................             Imprime=10; 
0D710:  MOVLW  0A
0D712:  MOVLB  3
0D714:  MOVWF  xB8
....................             flagImprimir=1; 
0D716:  BSF    x51.5
....................          } 
....................       }else if(AlarmaPuerta){ 
0D718:  BRA    DADA
0D71A:  MOVLB  0
0D71C:  BTFSS  x9F.4
0D71E:  BRA    D780
....................             codigoAlarma=2; 
0D720:  MOVLW  02
0D722:  MOVLB  2
0D724:  MOVWF  xE2
....................             printf("Funcionamiento.t4f.txt=\" Puerta Abierta\""); 
0D726:  MOVLW  BC
0D728:  MOVWF  FF6
0D72A:  MOVLW  12
0D72C:  MOVWF  FF7
0D72E:  MOVLW  00
0D730:  MOVWF  FF8
0D732:  MOVLB  0
0D734:  CALL   3BB2
....................             SendDataDisplay(); 
0D738:  CALL   3BE4
....................             printf("Funcionamiento.t5f.txt=\" Pausado\""); 
0D73C:  MOVLW  E6
0D73E:  MOVWF  FF6
0D740:  MOVLW  12
0D742:  MOVWF  FF7
0D744:  MOVLW  00
0D746:  MOVWF  FF8
0D748:  CALL   3BB2
....................             SendDataDisplay(); 
0D74C:  CALL   3BE4
....................             SSR_off; 
0D750:  BSF    F8B.2
0D752:  BCF    F94.2
....................             Agua_off; 
0D754:  BCF    F8C.5
0D756:  BCF    F95.5
....................             #ifdef Enfriador 
....................             Enfr_off; 
....................             #else 
....................             Bomba_off; 
0D758:  BCF    F8C.6
0D75A:  BCF    F95.6
....................             #endif 
....................             Aire=OFF; 
0D75C:  BCF    xA4.2
....................             IniciaLlenado=OFF; 
0D75E:  BCF    x9F.7
....................             IniciaCiclo=OFF; 
0D760:  BCF    xA0.1
....................             Esterilizando=OFF; 
0D762:  BCF    xA0.2
....................             Controlando=0; 
0D764:  MOVLB  3
0D766:  CLRF   x54
....................             if(codigoAnt!=codigoAlarma){ 
0D768:  MOVLB  2
0D76A:  MOVF   xE2,W
0D76C:  SUBWF  xE3,W
0D76E:  BZ    D77C
....................                codigoAnt=codigoAlarma; 
0D770:  MOVFF  2E2,2E3
....................                GuardaDatoCiclo(); 
0D774:  MOVLB  0
0D776:  CALL   6E02
0D77A:  MOVLB  2
....................                //incrementaCiclos(); 
....................             } 
....................       }else if(AlarmaLlenado){ 
0D77C:  BRA    DADC
0D77E:  MOVLB  0
0D780:  BTFSS  x9F.2
0D782:  BRA    D80E
....................             codigoAlarma=8; 
0D784:  MOVLW  08
0D786:  MOVLB  2
0D788:  MOVWF  xE2
....................             printf("Funcionamiento.t4f.txt=\" Tiempo Llenado\""); 
0D78A:  MOVLW  08
0D78C:  MOVWF  FF6
0D78E:  MOVLW  13
0D790:  MOVWF  FF7
0D792:  MOVLW  00
0D794:  MOVWF  FF8
0D796:  MOVLB  0
0D798:  CALL   3BB2
....................             SendDataDisplay(); 
0D79C:  CALL   3BE4
....................             printf("Funcionamiento.t5f.txt=\" Cancelado\""); 
0D7A0:  MOVLW  32
0D7A2:  MOVWF  FF6
0D7A4:  MOVLW  13
0D7A6:  MOVWF  FF7
0D7A8:  MOVLW  00
0D7AA:  MOVWF  FF8
0D7AC:  CALL   3BB2
....................             SendDataDisplay(); 
0D7B0:  CALL   3BE4
....................             Desfogue_off; 
0D7B4:  BCF    F8C.4
0D7B6:  BCF    F95.4
....................             SSR_off; 
0D7B8:  BSF    F8B.2
0D7BA:  BCF    F94.2
....................             Agua_off; 
0D7BC:  BCF    F8C.5
0D7BE:  BCF    F95.5
....................             #ifdef Enfriador 
....................             Enfr_on; 
....................             #else 
....................             Bomba_off; 
0D7C0:  BCF    F8C.6
0D7C2:  BCF    F95.6
....................             #endif 
....................             Aire=OFF; 
0D7C4:  BCF    xA4.2
....................             IniciaLlenado=OFF; 
0D7C6:  BCF    x9F.7
....................             IniciaCiclo=OFF; 
0D7C8:  BCF    xA0.1
....................             Esterilizando=OFF; 
0D7CA:  BCF    xA0.2
....................             Controlando=0; 
0D7CC:  MOVLB  3
0D7CE:  CLRF   x54
....................             if(codigoAnt!=codigoAlarma){ 
0D7D0:  MOVLB  2
0D7D2:  MOVF   xE2,W
0D7D4:  SUBWF  xE3,W
0D7D6:  BZ    D7E6
....................                codigoAnt=codigoAlarma; 
0D7D8:  MOVFF  2E2,2E3
....................                GuardaDatoCiclo(); 
0D7DC:  MOVLB  0
0D7DE:  CALL   6E02
....................                incrementaCiclos(); 
0D7E2:  CALL   7262
....................             } 
....................             if(!flagImprimir){ 
0D7E6:  MOVLB  3
0D7E8:  BTFSC  x51.5
0D7EA:  BRA    D80A
....................                Imprime=21; 
0D7EC:  MOVLW  15
0D7EE:  MOVWF  xB8
....................                Envio_Esclavos(); 
0D7F0:  MOVLB  0
0D7F2:  CALL   495A
....................                delay_ms(100); 
0D7F6:  MOVLW  64
0D7F8:  MOVLB  4
0D7FA:  MOVWF  x63
0D7FC:  MOVLB  0
0D7FE:  CALL   1A6C
....................                Imprime=10; 
0D802:  MOVLW  0A
0D804:  MOVLB  3
0D806:  MOVWF  xB8
....................                flagImprimir=1; 
0D808:  BSF    x51.5
....................             } 
....................       }else if(AlarmaTermostato){ // Alarma de Termostato 
0D80A:  BRA    DADA
0D80C:  MOVLB  0
0D80E:  BTFSS  x9F.3
0D810:  BRA    D8A2
....................             codigoAlarma=3; 
0D812:  MOVLW  03
0D814:  MOVLB  2
0D816:  MOVWF  xE2
....................             tiempo_esterilizacion=0;tiempo_secado=0; 
0D818:  MOVLB  3
0D81A:  CLRF   x65
0D81C:  CLRF   x66
....................             printf("Funcionamiento.t4f.txt=\" Termostato\""); 
0D81E:  MOVLW  56
0D820:  MOVWF  FF6
0D822:  MOVLW  13
0D824:  MOVWF  FF7
0D826:  MOVLW  00
0D828:  MOVWF  FF8
0D82A:  MOVLB  0
0D82C:  CALL   3BB2
....................             SendDataDisplay(); 
0D830:  CALL   3BE4
....................             printf("Funcionamiento.t5f.txt=\" Cancelado\""); 
0D834:  MOVLW  7C
0D836:  MOVWF  FF6
0D838:  MOVLW  13
0D83A:  MOVWF  FF7
0D83C:  MOVLW  00
0D83E:  MOVWF  FF8
0D840:  CALL   3BB2
....................             SendDataDisplay(); 
0D844:  CALL   3BE4
....................             Desfogue_on;             
0D848:  BSF    F8C.4
0D84A:  BCF    F95.4
....................             SSR_off; 
0D84C:  BSF    F8B.2
0D84E:  BCF    F94.2
....................             Agua_off; 
0D850:  BCF    F8C.5
0D852:  BCF    F95.5
....................             #ifdef Enfriador 
....................             Enfr_on; 
....................             #else 
....................             Bomba_off; 
0D854:  BCF    F8C.6
0D856:  BCF    F95.6
....................             #endif 
....................             Aire=OFF; 
0D858:  BCF    xA4.2
....................             Esterilizando=OFF; 
0D85A:  BCF    xA0.2
....................             Desfogando=OFF; 
0D85C:  BCF    xA0.5
....................             IniciaCiclo=OFF; 
0D85E:  BCF    xA0.1
....................             Controlando=0; 
0D860:  MOVLB  3
0D862:  CLRF   x54
....................             if(codigoAnt!=codigoAlarma){ 
0D864:  MOVLB  2
0D866:  MOVF   xE2,W
0D868:  SUBWF  xE3,W
0D86A:  BZ    D87A
....................                codigoAnt=codigoAlarma; 
0D86C:  MOVFF  2E2,2E3
....................                GuardaDatoCiclo(); 
0D870:  MOVLB  0
0D872:  CALL   6E02
....................                incrementaCiclos(); 
0D876:  CALL   7262
....................             } 
....................             if(!flagImprimir){ 
0D87A:  MOVLB  3
0D87C:  BTFSC  x51.5
0D87E:  BRA    D89E
....................                Imprime=22; 
0D880:  MOVLW  16
0D882:  MOVWF  xB8
....................                Envio_Esclavos(); 
0D884:  MOVLB  0
0D886:  CALL   495A
....................                delay_ms(100); 
0D88A:  MOVLW  64
0D88C:  MOVLB  4
0D88E:  MOVWF  x63
0D890:  MOVLB  0
0D892:  CALL   1A6C
....................                Imprime=10; 
0D896:  MOVLW  0A
0D898:  MOVLB  3
0D89A:  MOVWF  xB8
....................                flagImprimir=1; 
0D89C:  BSF    x51.5
....................             } 
....................       }else if(AlarmaSobreTemperatura){ // Alarma de Sobre Temperatura 
0D89E:  BRA    DADA
0D8A0:  MOVLB  0
0D8A2:  BTFSS  x9F.1
0D8A4:  BRA    D938
....................          codigoAlarma=4; 
0D8A6:  MOVLW  04
0D8A8:  MOVLB  2
0D8AA:  MOVWF  xE2
....................          tiempo_esterilizacion=0;tiempo_secado=0; 
0D8AC:  MOVLB  3
0D8AE:  CLRF   x65
0D8B0:  CLRF   x66
....................          printf("Funcionamiento.t4f.txt=\" Sobretemperatura\""); 
0D8B2:  MOVLW  A0
0D8B4:  MOVWF  FF6
0D8B6:  MOVLW  13
0D8B8:  MOVWF  FF7
0D8BA:  MOVLW  00
0D8BC:  MOVWF  FF8
0D8BE:  MOVLB  0
0D8C0:  CALL   3BB2
....................          SendDataDisplay(); 
0D8C4:  CALL   3BE4
....................          printf("Funcionamiento.t5f.txt=\" Cancelado\""); 
0D8C8:  MOVLW  CC
0D8CA:  MOVWF  FF6
0D8CC:  MOVLW  13
0D8CE:  MOVWF  FF7
0D8D0:  MOVLW  00
0D8D2:  MOVWF  FF8
0D8D4:  CALL   3BB2
....................          SendDataDisplay();   
0D8D8:  CALL   3BE4
....................          Desfogue_on; 
0D8DC:  BSF    F8C.4
0D8DE:  BCF    F95.4
....................          SSR_off; 
0D8E0:  BSF    F8B.2
0D8E2:  BCF    F94.2
....................          Agua_off; 
0D8E4:  BCF    F8C.5
0D8E6:  BCF    F95.5
....................          #ifdef Enfriador 
....................          Enfr_on; 
....................          #else 
....................          Bomba_off; 
0D8E8:  BCF    F8C.6
0D8EA:  BCF    F95.6
....................          #endif 
....................          Aire=OFF; 
0D8EC:  BCF    xA4.2
....................          Controlando=0; 
0D8EE:  MOVLB  3
0D8F0:  CLRF   x54
....................          IniciaLlenado=OFF; 
0D8F2:  MOVLB  0
0D8F4:  BCF    x9F.7
....................          IniciaCiclo=OFF; 
0D8F6:  BCF    xA0.1
....................          Esterilizando=OFF; 
0D8F8:  BCF    xA0.2
....................          if(codigoAnt!=codigoAlarma){ 
0D8FA:  MOVLB  2
0D8FC:  MOVF   xE2,W
0D8FE:  SUBWF  xE3,W
0D900:  BZ    D910
....................             codigoAnt=codigoAlarma; 
0D902:  MOVFF  2E2,2E3
....................             GuardaDatoCiclo(); 
0D906:  MOVLB  0
0D908:  CALL   6E02
....................             incrementaCiclos(); 
0D90C:  CALL   7262
....................          } 
....................          if(!flagImprimir){ 
0D910:  MOVLB  3
0D912:  BTFSC  x51.5
0D914:  BRA    D934
....................             Imprime=23; 
0D916:  MOVLW  17
0D918:  MOVWF  xB8
....................             Envio_Esclavos(); 
0D91A:  MOVLB  0
0D91C:  CALL   495A
....................             delay_ms(100); 
0D920:  MOVLW  64
0D922:  MOVLB  4
0D924:  MOVWF  x63
0D926:  MOVLB  0
0D928:  CALL   1A6C
....................             Imprime=10; 
0D92C:  MOVLW  0A
0D92E:  MOVLB  3
0D930:  MOVWF  xB8
....................             flagImprimir=1; 
0D932:  BSF    x51.5
....................          } 
....................       }else if(AlarmaTiempoProlongado){ // Alarma de Error de Tiempo: Error por exceso de tiempo de calentamiento. 
0D934:  BRA    DADA
0D936:  MOVLB  0
0D938:  BTFSS  x9F.0
0D93A:  BRA    D9C8
....................          codigoAlarma=5; 
0D93C:  MOVLW  05
0D93E:  MOVLB  2
0D940:  MOVWF  xE2
....................          printf("Funcionamiento.t4f.txt=\" Tiempo Prolongado\""); 
0D942:  MOVLW  F0
0D944:  MOVWF  FF6
0D946:  MOVLW  13
0D948:  MOVWF  FF7
0D94A:  MOVLW  00
0D94C:  MOVWF  FF8
0D94E:  MOVLB  0
0D950:  CALL   3BB2
....................          SendDataDisplay(); 
0D954:  CALL   3BE4
....................          printf("Funcionamiento.t5f.txt=\" Cancelado\""); 
0D958:  MOVLW  1C
0D95A:  MOVWF  FF6
0D95C:  MOVLW  14
0D95E:  MOVWF  FF7
0D960:  MOVLW  00
0D962:  MOVWF  FF8
0D964:  CALL   3BB2
....................          SendDataDisplay(); 
0D968:  CALL   3BE4
....................          Desfogue_on; 
0D96C:  BSF    F8C.4
0D96E:  BCF    F95.4
....................          SSR_off; 
0D970:  BSF    F8B.2
0D972:  BCF    F94.2
....................          Agua_off; 
0D974:  BCF    F8C.5
0D976:  BCF    F95.5
....................          #ifdef Enfriador 
....................          Enfr_on; 
....................          #else 
....................          Bomba_off; 
0D978:  BCF    F8C.6
0D97A:  BCF    F95.6
....................          #endif 
....................          Aire=OFF; 
0D97C:  BCF    xA4.2
....................          Controlando=0; 
0D97E:  MOVLB  3
0D980:  CLRF   x54
....................          IniciaLlenado=OFF; 
0D982:  MOVLB  0
0D984:  BCF    x9F.7
....................          IniciaCiclo=OFF; 
0D986:  BCF    xA0.1
....................          Esterilizando=OFF; 
0D988:  BCF    xA0.2
....................          if(codigoAnt!=codigoAlarma){ 
0D98A:  MOVLB  2
0D98C:  MOVF   xE2,W
0D98E:  SUBWF  xE3,W
0D990:  BZ    D9A0
....................             codigoAnt=codigoAlarma; 
0D992:  MOVFF  2E2,2E3
....................             GuardaDatoCiclo(); 
0D996:  MOVLB  0
0D998:  CALL   6E02
....................             incrementaCiclos(); 
0D99C:  CALL   7262
....................          } 
....................          if(!flagImprimir){ 
0D9A0:  MOVLB  3
0D9A2:  BTFSC  x51.5
0D9A4:  BRA    D9C4
....................             Imprime=24; 
0D9A6:  MOVLW  18
0D9A8:  MOVWF  xB8
....................             Envio_Esclavos(); 
0D9AA:  MOVLB  0
0D9AC:  CALL   495A
....................             delay_ms(100); 
0D9B0:  MOVLW  64
0D9B2:  MOVLB  4
0D9B4:  MOVWF  x63
0D9B6:  MOVLB  0
0D9B8:  CALL   1A6C
....................             Imprime=10; 
0D9BC:  MOVLW  0A
0D9BE:  MOVLB  3
0D9C0:  MOVWF  xB8
....................             flagImprimir=1; 
0D9C2:  BSF    x51.5
....................          } 
....................       }else if(AlarmaPresion){ // Alarma de Error de SobrePresion: Error por exceso de Presion. 
0D9C4:  BRA    DADA
0D9C6:  MOVLB  0
0D9C8:  BTFSS  xA3.6
0D9CA:  BRA    DA56
....................          codigoAlarma=6; 
0D9CC:  MOVLW  06
0D9CE:  MOVLB  2
0D9D0:  MOVWF  xE2
....................          printf("Funcionamiento.t4f.txt=\" SobrePresin\""); 
0D9D2:  MOVLW  40
0D9D4:  MOVWF  FF6
0D9D6:  MOVLW  14
0D9D8:  MOVWF  FF7
0D9DA:  MOVLW  00
0D9DC:  MOVWF  FF8
0D9DE:  MOVLB  0
0D9E0:  CALL   3BB2
....................          SendDataDisplay(); 
0D9E4:  CALL   3BE4
....................          printf("Funcionamiento.t5f.txt=\" Cancelado\""); 
0D9E8:  MOVLW  68
0D9EA:  MOVWF  FF6
0D9EC:  MOVLW  14
0D9EE:  MOVWF  FF7
0D9F0:  MOVLW  00
0D9F2:  MOVWF  FF8
0D9F4:  CALL   3BB2
....................          SendDataDisplay(); 
0D9F8:  CALL   3BE4
....................          Desfogue_on; 
0D9FC:  BSF    F8C.4
0D9FE:  BCF    F95.4
....................          SSR_off; 
0DA00:  BSF    F8B.2
0DA02:  BCF    F94.2
....................          IniciaLlenado=OFF; 
0DA04:  BCF    x9F.7
....................          IniciaCiclo=OFF; 
0DA06:  BCF    xA0.1
....................          Esterilizando=OFF; 
0DA08:  BCF    xA0.2
....................          Agua_off; 
0DA0A:  BCF    F8C.5
0DA0C:  BCF    F95.5
....................          #ifdef Enfriador 
....................          Enfr_on; 
....................          #else 
....................          Bomba_off; 
0DA0E:  BCF    F8C.6
0DA10:  BCF    F95.6
....................          #endif 
....................          Aire=OFF; 
0DA12:  BCF    xA4.2
....................          Controlando=0; 
0DA14:  MOVLB  3
0DA16:  CLRF   x54
....................          if(codigoAnt!=codigoAlarma){ 
0DA18:  MOVLB  2
0DA1A:  MOVF   xE2,W
0DA1C:  SUBWF  xE3,W
0DA1E:  BZ    DA2E
....................             codigoAnt=codigoAlarma; 
0DA20:  MOVFF  2E2,2E3
....................             GuardaDatoCiclo(); 
0DA24:  MOVLB  0
0DA26:  CALL   6E02
....................             incrementaCiclos(); 
0DA2A:  CALL   7262
....................          } 
....................          if(!flagImprimir){ 
0DA2E:  MOVLB  3
0DA30:  BTFSC  x51.5
0DA32:  BRA    DA52
....................             Imprime=25; 
0DA34:  MOVLW  19
0DA36:  MOVWF  xB8
....................             Envio_Esclavos(); 
0DA38:  MOVLB  0
0DA3A:  CALL   495A
....................             delay_ms(100); 
0DA3E:  MOVLW  64
0DA40:  MOVLB  4
0DA42:  MOVWF  x63
0DA44:  MOVLB  0
0DA46:  CALL   1A6C
....................             Imprime=10; 
0DA4A:  MOVLW  0A
0DA4C:  MOVLB  3
0DA4E:  MOVWF  xB8
....................             flagImprimir=1; 
0DA50:  BSF    x51.5
....................          } 
....................       }else if(AlarmaCiclo){ // Alarma de Error de SobrePresion: Error por exceso de Presion. 
0DA52:  BRA    DADA
0DA54:  MOVLB  0
0DA56:  BTFSS  x9F.6
0DA58:  BRA    DADA
....................          codigoAlarma=7; 
0DA5A:  MOVLW  07
0DA5C:  MOVLB  2
0DA5E:  MOVWF  xE2
....................          printf("Funcionamiento.t4f.txt=\" Error Ciclo\""); 
0DA60:  MOVLW  8C
0DA62:  MOVWF  FF6
0DA64:  MOVLW  14
0DA66:  MOVWF  FF7
0DA68:  MOVLW  00
0DA6A:  MOVWF  FF8
0DA6C:  MOVLB  0
0DA6E:  CALL   3BB2
....................          SendDataDisplay(); 
0DA72:  CALL   3BE4
....................          printf("Funcionamiento.t5f.txt=\" Cancelado\""); 
0DA76:  MOVLW  B2
0DA78:  MOVWF  FF6
0DA7A:  MOVLW  14
0DA7C:  MOVWF  FF7
0DA7E:  MOVLW  00
0DA80:  MOVWF  FF8
0DA82:  CALL   3BB2
....................          SendDataDisplay(); 
0DA86:  CALL   3BE4
....................          Desfogue_on; 
0DA8A:  BSF    F8C.4
0DA8C:  BCF    F95.4
....................          SSR_off; 
0DA8E:  BSF    F8B.2
0DA90:  BCF    F94.2
....................          #ifdef Enfriador 
....................          Enfr_off; 
....................          #else 
....................          Bomba_off; 
0DA92:  BCF    F8C.6
0DA94:  BCF    F95.6
....................          #endif 
....................          IniciaLlenado=OFF; 
0DA96:  BCF    x9F.7
....................          IniciaCiclo=OFF; 
0DA98:  BCF    xA0.1
....................          Esterilizando=OFF; 
0DA9A:  BCF    xA0.2
....................          Controlando=0; 
0DA9C:  MOVLB  3
0DA9E:  CLRF   x54
....................          if(codigoAnt!=codigoAlarma){ 
0DAA0:  MOVLB  2
0DAA2:  MOVF   xE2,W
0DAA4:  SUBWF  xE3,W
0DAA6:  BZ    DAB6
....................             codigoAnt=codigoAlarma; 
0DAA8:  MOVFF  2E2,2E3
....................             GuardaDatoCiclo(); 
0DAAC:  MOVLB  0
0DAAE:  CALL   6E02
....................             incrementaCiclos(); 
0DAB2:  CALL   7262
....................          } 
....................          if(!flagImprimir){ 
0DAB6:  MOVLB  3
0DAB8:  BTFSC  x51.5
0DABA:  BRA    DADA
....................             Imprime=26; 
0DABC:  MOVLW  1A
0DABE:  MOVWF  xB8
....................             Envio_Esclavos(); 
0DAC0:  MOVLB  0
0DAC2:  CALL   495A
....................             delay_ms(100); 
0DAC6:  MOVLW  64
0DAC8:  MOVLB  4
0DACA:  MOVWF  x63
0DACC:  MOVLB  0
0DACE:  CALL   1A6C
....................             Imprime=10; 
0DAD2:  MOVLW  0A
0DAD4:  MOVLB  3
0DAD6:  MOVWF  xB8
....................             flagImprimir=1; 
0DAD8:  BSF    x51.5
0DADA:  MOVLB  2
....................          } 
....................       } 
....................    } 
....................    else{   
0DADC:  BRA    E17C
0DADE:  MOVLB  0
....................       Buzzer_off; 
0DAE0:  BCF    F8C.0
0DAE2:  BCF    F95.0
....................       IniciaCiclo=ON; 
0DAE4:  BSF    xA0.1
....................       if(flagImprime){ 
0DAE6:  MOVLB  3
0DAE8:  BTFSS  x51.4
0DAEA:  BRA    DB0A
....................          Imprime=5; 
0DAEC:  MOVLW  05
0DAEE:  MOVWF  xB8
....................          Envio_Esclavos(); 
0DAF0:  MOVLB  0
0DAF2:  CALL   495A
....................          delay_ms(100); 
0DAF6:  MOVLW  64
0DAF8:  MOVLB  4
0DAFA:  MOVWF  x63
0DAFC:  MOVLB  0
0DAFE:  CALL   1A6C
....................          Imprime=10; 
0DB02:  MOVLW  0A
0DB04:  MOVLB  3
0DB06:  MOVWF  xB8
....................          flagImprime=0; 
0DB08:  BCF    x51.4
....................       } 
....................          if(!CalderinLleno){ 
0DB0A:  MOVLB  0
0DB0C:  BTFSC  xA0.0
0DB0E:  BRA    DB94
....................             //Agua_on; 
....................             #ifdef Reservorio 
....................                if(!HIG){ 
....................                   printf("Funcionamiento.t4f.txt=\" Reservorio Bajo \""); 
....................                   SendDataDisplay(); 
....................                   printf("Funcionamiento.t5f.txt=\" Llenando Camara\""); 
....................                   SendDataDisplay(); 
....................                   #ifdef ULKA               
....................                      apagaBombaAgua(); 
....................                   #else 
....................                      Bomba_off; 
....................                      Agua_off; 
....................                   #endif 
....................                }else{ 
....................                   printf("Funcionamiento.t4f.txt=\" Ninguna\""); 
....................                   SendDataDisplay(); 
....................                   printf("Funcionamiento.t5f.txt=\" Llenando Camara\""); 
....................                   SendDataDisplay(); 
....................                   #ifdef ULKA               
....................                      enciendeBombaAgua(); 
....................                   #else 
....................                      Bomba_on; 
....................                      Agua_on; 
....................                   #endif 
....................                }  
....................             #else 
....................                printf("Funcionamiento.t4f.txt=\" Ninguna\""); 
0DB10:  MOVLW  D6
0DB12:  MOVWF  FF6
0DB14:  MOVLW  14
0DB16:  MOVWF  FF7
0DB18:  MOVLW  00
0DB1A:  MOVWF  FF8
0DB1C:  CALL   3BB2
....................                SendDataDisplay(); 
0DB20:  CALL   3BE4
....................                printf("Funcionamiento.t5f.txt=\" Nivel Bajo\""); 
0DB24:  MOVLW  F8
0DB26:  MOVWF  FF6
0DB28:  MOVLW  14
0DB2A:  MOVWF  FF7
0DB2C:  MOVLW  00
0DB2E:  MOVWF  FF8
0DB30:  CALL   3BB2
....................                SendDataDisplay(); 
0DB34:  CALL   3BE4
....................                Agua_on; 
0DB38:  BSF    F8C.5
0DB3A:  BCF    F95.5
....................                #ifdef Enfriador 
....................                Enfr_off; 
....................                #else 
....................                Bomba_off; 
0DB3C:  BCF    F8C.6
0DB3E:  BCF    F95.6
....................                #endif 
....................                if(tright>800){ 
0DB40:  MOVLB  3
0DB42:  MOVF   xA8,W
0DB44:  SUBLW  02
0DB46:  BC    DB60
0DB48:  XORLW  FF
0DB4A:  BNZ   DB52
0DB4C:  MOVF   xA7,W
0DB4E:  SUBLW  20
0DB50:  BC    DB60
....................                   CalderinLleno=ON; 
0DB52:  MOVLB  0
0DB54:  BSF    xA0.0
....................                   tiempoAgua=700; 
0DB56:  MOVLW  02
0DB58:  MOVLB  3
0DB5A:  MOVWF  x9A
0DB5C:  MOVLW  BC
0DB5E:  MOVWF  x99
....................                } 
....................             #endif 
....................             SSR_off; 
0DB60:  BSF    F8B.2
0DB62:  BCF    F94.2
....................             Controlando=0; 
0DB64:  CLRF   x54
....................             Control=0; 
0DB66:  CLRF   x52
....................             IniciaLlenado=ON; 
0DB68:  MOVLB  0
0DB6A:  BSF    x9F.7
....................             Controlando=0; 
0DB6C:  MOVLB  3
0DB6E:  CLRF   x54
....................             Desfogue_off; 
0DB70:  BCF    F8C.4
0DB72:  BCF    F95.4
....................             Aire=ON; 
0DB74:  MOVLB  0
0DB76:  BSF    xA4.2
....................             codigoAlarma=10; 
0DB78:  MOVLW  0A
0DB7A:  MOVLB  2
0DB7C:  MOVWF  xE2
....................             if(codigoAnt!=codigoAlarma){ 
0DB7E:  MOVF   xE2,W
0DB80:  SUBWF  xE3,W
0DB82:  BZ    DB90
....................                codigoAnt=codigoAlarma; 
0DB84:  MOVFF  2E2,2E3
....................                GuardaDatoCiclo(); 
0DB88:  MOVLB  0
0DB8A:  CALL   6E02
0DB8E:  MOVLB  2
....................             } 
....................          } 
....................          else{ 
0DB90:  BRA    E17C
0DB92:  MOVLB  0
....................             Agua_off; 
0DB94:  BCF    F8C.5
0DB96:  BCF    F95.5
....................             if(Temperatura>=((float)Setpoint)){ 
0DB98:  MOVLB  4
0DB9A:  CLRF   x60
0DB9C:  MOVFF  362,45F
0DBA0:  MOVLB  0
0DBA2:  CALL   1A94
0DBA6:  MOVFF  03,455
0DBAA:  MOVFF  02,454
0DBAE:  MOVFF  01,453
0DBB2:  MOVFF  00,452
0DBB6:  MOVFF  327,459
0DBBA:  MOVFF  326,458
0DBBE:  MOVFF  325,457
0DBC2:  MOVFF  324,456
0DBC6:  CALL   3032
0DBCA:  BC    DBCE
0DBCC:  BNZ   DBD0
....................                Esterilizando=ON; 
0DBCE:  BSF    xA0.2
....................             } 
....................              
....................             if(Temperatura<((float)Setpoint-0.9) && !Desfogando){ 
0DBD0:  MOVLB  4
0DBD2:  CLRF   x60
0DBD4:  MOVFF  362,45F
0DBD8:  MOVLB  0
0DBDA:  CALL   1A94
0DBDE:  MOVFF  00,44A
0DBE2:  MOVFF  01,44B
0DBE6:  MOVFF  02,44C
0DBEA:  MOVFF  03,44D
0DBEE:  BSF    FD8.1
0DBF0:  MOVFF  03,462
0DBF4:  MOVFF  02,461
0DBF8:  MOVFF  01,460
0DBFC:  MOVFF  00,45F
0DC00:  MOVLW  66
0DC02:  MOVLB  4
0DC04:  MOVWF  x66
0DC06:  MOVWF  x65
0DC08:  MOVWF  x64
0DC0A:  MOVLW  7E
0DC0C:  MOVWF  x63
0DC0E:  MOVLB  0
0DC10:  CALL   1C28
0DC14:  MOVFF  327,455
0DC18:  MOVFF  326,454
0DC1C:  MOVFF  325,453
0DC20:  MOVFF  324,452
0DC24:  MOVFF  03,459
0DC28:  MOVFF  02,458
0DC2C:  MOVFF  01,457
0DC30:  MOVFF  00,456
0DC34:  CALL   3032
0DC38:  BNC   DC40
0DC3A:  BTFSC  xA0.5
0DC3C:  BRA    DC40
....................                Esterilizando=OFF; 
0DC3E:  BCF    xA0.2
....................             } 
....................              
....................             if(!Esterilizando){ 
0DC40:  BTFSC  xA0.2
0DC42:  BRA    DCDE
....................                codigoAlarma=12; 
0DC44:  MOVLW  0C
0DC46:  MOVLB  2
0DC48:  MOVWF  xE2
....................                if(codigoAnt!=codigoAlarma){ 
0DC4A:  MOVF   xE2,W
0DC4C:  SUBWF  xE3,W
0DC4E:  BZ    DC5C
....................                   codigoAnt=codigoAlarma; 
0DC50:  MOVFF  2E2,2E3
....................                   GuardaDatoCiclo();                   
0DC54:  MOVLB  0
0DC56:  CALL   6E02
0DC5A:  MOVLB  2
....................                } 
....................                printf("Funcionamiento.t4f.txt=\" Ninguna\""); 
0DC5C:  MOVLW  1E
0DC5E:  MOVWF  FF6
0DC60:  MOVLW  15
0DC62:  MOVWF  FF7
0DC64:  MOVLW  00
0DC66:  MOVWF  FF8
0DC68:  MOVLB  0
0DC6A:  CALL   3BB2
....................                SendDataDisplay(); 
0DC6E:  CALL   3BE4
....................                printf("Funcionamiento.t5f.txt=\" Calentando\""); 
0DC72:  MOVLW  40
0DC74:  MOVWF  FF6
0DC76:  MOVLW  15
0DC78:  MOVWF  FF7
0DC7A:  MOVLW  00
0DC7C:  MOVWF  FF8
0DC7E:  CALL   3BB2
....................                SendDataDisplay(); 
0DC82:  CALL   3BE4
....................                Control=1; 
0DC86:  MOVLW  01
0DC88:  MOVLB  3
0DC8A:  MOVWF  x52
....................                #ifndef Enfriador 
....................                Bomba_off; 
0DC8C:  BCF    F8C.6
0DC8E:  BCF    F95.6
....................                #endif 
....................                if(Temperatura<=TTrampa){ 
0DC90:  MOVLB  4
0DC92:  CLRF   x60
0DC94:  MOVFF  2DC,45F
0DC98:  MOVLB  0
0DC9A:  CALL   1A94
0DC9E:  MOVFF  327,455
0DCA2:  MOVFF  326,454
0DCA6:  MOVFF  325,453
0DCAA:  MOVFF  324,452
0DCAE:  MOVFF  03,459
0DCB2:  MOVFF  02,458
0DCB6:  MOVFF  01,457
0DCBA:  MOVFF  00,456
0DCBE:  CALL   3032
0DCC2:  BC    DCC6
0DCC4:  BNZ   DCD2
....................                   Aire=ON; 
0DCC6:  BSF    xA4.2
....................                   Controla(); 
0DCC8:  GOTO   735C
....................                   #ifdef Reservorio 
....................                      Desfogue_off; 
....................                   #else 
....................                      Desfogue_on; 
0DCCC:  BSF    F8C.4
0DCCE:  BCF    F95.4
....................                   #endif 
....................                }else{ 
0DCD0:  BRA    DCDC
....................                   Aire=OFF; 
0DCD2:  BCF    xA4.2
....................                   //Desfogue_off; 
....................                   purgaAire(); 
0DCD4:  GOTO   78F4
....................                   #ifdef PT100Fija 
....................                      Controla(); 
....................                   #else 
....................                      ControlaPresion(); 
0DCD8:  CALL   7A06
....................                   #endif 
....................                } 
....................             }else{ 
0DCDC:  BRA    E178
....................                TiempoCiclo=0; 
0DCDE:  CLRF   xA6
0DCE0:  CLRF   xA5
....................                if((Testerilizacion[0]==0)&&(Testerilizacion[1]==0)&& 
....................                (Testerilizacion[2]==0)&&(Testerilizacion[3]==0)){  
0DCE2:  MOVF   xB1,F
0DCE4:  BTFSS  FD8.2
0DCE6:  BRA    E124
0DCE8:  MOVF   xB2,F
0DCEA:  BTFSS  FD8.2
0DCEC:  BRA    E124
0DCEE:  MOVF   xB3,F
0DCF0:  BTFSS  FD8.2
0DCF2:  BRA    E124
0DCF4:  MOVF   xB4,F
0DCF6:  BTFSS  FD8.2
0DCF8:  BRA    E124
....................                   if(desfoguelento){ 
0DCFA:  BTFSS  xA4.7
0DCFC:  BRA    DED4
....................                      Controlando=0; 
0DCFE:  MOVLB  3
0DD00:  CLRF   x54
....................                      if(PresionCamara<=Atmosferica+25){ 
0DD02:  MOVLW  19
0DD04:  ADDWF  xB9,W
0DD06:  MOVF   x75,F
0DD08:  BTFSS  FD8.2
0DD0A:  BRA    DE7C
0DD0C:  SUBWF  x74,W
0DD0E:  BZ    DD14
0DD10:  BTFSC  FD8.0
0DD12:  BRA    DE7C
....................                         Secando=OFF; 
0DD14:  MOVLB  0
0DD16:  BCF    xA0.3
....................                         DesfogueSuave=OFF; 
0DD18:  BCF    xA0.6
....................                         #ifdef Enfriador 
....................                         Enfr_on; 
....................                         #else 
....................                         Bomba_off; 
0DD1A:  BCF    F8C.6
0DD1C:  BCF    F95.6
....................                         #endif 
....................                         Aire=OFF; 
0DD1E:  BCF    xA4.2
....................                         if(PresionCamara<Atmosferica+2){ 
0DD20:  MOVLW  02
0DD22:  MOVLB  3
0DD24:  ADDWF  xB9,W
0DD26:  MOVF   x75,F
0DD28:  BTFSS  FD8.2
0DD2A:  BRA    DE66
0DD2C:  SUBWF  x74,W
0DD2E:  BTFSC  FD8.0
0DD30:  BRA    DE66
....................                            if(!DOOR){ 
0DD32:  BSF    F93.6
0DD34:  BTFSS  F81.6
0DD36:  BRA    DD3E
....................                               Desfogue_off; 
0DD38:  BCF    F8C.4
0DD3A:  BCF    F95.4
....................                            }else{ 
0DD3C:  BRA    DD42
....................                               Desfogue_on; 
0DD3E:  BSF    F8C.4
0DD40:  BCF    F95.4
....................                            } 
....................                            if(Temperatura<=90){ 
0DD42:  MOVFF  327,455
0DD46:  MOVFF  326,454
0DD4A:  MOVFF  325,453
0DD4E:  MOVFF  324,452
0DD52:  MOVLB  4
0DD54:  CLRF   x59
0DD56:  CLRF   x58
0DD58:  MOVLW  34
0DD5A:  MOVWF  x57
0DD5C:  MOVLW  85
0DD5E:  MOVWF  x56
0DD60:  MOVLB  0
0DD62:  CALL   3032
0DD66:  BC    DD6A
0DD68:  BNZ   DDA0
....................                               ActivaAlarma(2); 
0DD6A:  MOVLW  02
0DD6C:  MOVLB  4
0DD6E:  MOVWF  x4A
0DD70:  MOVLB  0
0DD72:  CALL   4A24
....................                               printf("Funcionamiento.t4f.txt=\" Ninguna\""); 
0DD76:  MOVLW  66
0DD78:  MOVWF  FF6
0DD7A:  MOVLW  15
0DD7C:  MOVWF  FF7
0DD7E:  MOVLW  00
0DD80:  MOVWF  FF8
0DD82:  CALL   3BB2
....................                               SendDataDisplay(); 
0DD86:  CALL   3BE4
....................                               printf("Funcionamiento.t5f.txt=\" Finalizado\""); 
0DD8A:  MOVLW  88
0DD8C:  MOVWF  FF6
0DD8E:  MOVLW  15
0DD90:  MOVWF  FF7
0DD92:  MOVLW  00
0DD94:  MOVWF  FF8
0DD96:  CALL   3BB2
....................                               SendDataDisplay(); 
0DD9A:  CALL   3BE4
....................                               Finalizo=ON; 
0DD9E:  BSF    xA3.5
....................                            } 
....................                            codigoAlarma=14; 
0DDA0:  MOVLW  0E
0DDA2:  MOVLB  2
0DDA4:  MOVWF  xE2
....................                            if(codigoAnt!=codigoAlarma){ 
0DDA6:  MOVF   xE2,W
0DDA8:  SUBWF  xE3,W
0DDAA:  BZ    DDB6
....................                               codigoAnt=codigoAlarma; 
0DDAC:  MOVFF  2E2,2E3
....................                               GuardaDatoCiclo();                   
0DDB0:  MOVLB  0
0DDB2:  CALL   6E02
....................                            } 
....................                            if(!Ciclo){ 
0DDB6:  MOVLB  0
0DDB8:  BTFSC  xA1.5
0DDBA:  BRA    DE62
....................                               Ciclo=ON; 
0DDBC:  BSF    xA1.5
....................                               Ciclos++; 
0DDBE:  MOVLB  3
0DDC0:  INCF   x78,F
0DDC2:  BTFSC  FD8.2
0DDC4:  INCF   x79,F
....................                               CiclosL=make8(Ciclos,0); 
0DDC6:  MOVFF  378,35F
....................                               CiclosH=make8(Ciclos,1); 
0DDCA:  MOVFF  379,360
....................                               write_eeprom(37,CiclosL); 
0DDCE:  CLRF   FAA
0DDD0:  MOVLW  25
0DDD2:  MOVWF  FA9
0DDD4:  MOVFF  35F,FA8
0DDD8:  BCF    FA6.6
0DDDA:  BCF    FA6.7
0DDDC:  BSF    FA6.2
0DDDE:  MOVF   FF2,W
0DDE0:  MOVWF  00
0DDE2:  BCF    FF2.6
0DDE4:  BCF    FF2.7
0DDE6:  MOVLB  F
0DDE8:  MOVLW  55
0DDEA:  MOVWF  FA7
0DDEC:  MOVLW  AA
0DDEE:  MOVWF  FA7
0DDF0:  BSF    FA6.1
0DDF2:  BTFSC  FA6.1
0DDF4:  BRA    DDF2
0DDF6:  BCF    FA6.2
0DDF8:  MOVF   00,W
0DDFA:  IORWF  FF2,F
....................                               delay_ms(20); 
0DDFC:  MOVLW  14
0DDFE:  MOVLB  4
0DE00:  MOVWF  x63
0DE02:  MOVLB  0
0DE04:  CALL   1A6C
....................                               write_eeprom(38,CiclosH); 
0DE08:  CLRF   FAA
0DE0A:  MOVLW  26
0DE0C:  MOVWF  FA9
0DE0E:  MOVFF  360,FA8
0DE12:  BCF    FA6.6
0DE14:  BCF    FA6.7
0DE16:  BSF    FA6.2
0DE18:  MOVF   FF2,W
0DE1A:  MOVWF  00
0DE1C:  BCF    FF2.6
0DE1E:  BCF    FF2.7
0DE20:  MOVLB  F
0DE22:  MOVLW  55
0DE24:  MOVWF  FA7
0DE26:  MOVLW  AA
0DE28:  MOVWF  FA7
0DE2A:  BSF    FA6.1
0DE2C:  BTFSC  FA6.1
0DE2E:  BRA    DE2C
0DE30:  BCF    FA6.2
0DE32:  MOVF   00,W
0DE34:  IORWF  FF2,F
....................                               delay_ms(20);                               
0DE36:  MOVLW  14
0DE38:  MOVLB  4
0DE3A:  MOVWF  x63
0DE3C:  MOVLB  0
0DE3E:  CALL   1A6C
....................                               Imprime=28; 
0DE42:  MOVLW  1C
0DE44:  MOVLB  3
0DE46:  MOVWF  xB8
....................                               Envio_Esclavos(); 
0DE48:  MOVLB  0
0DE4A:  CALL   495A
....................                               delay_ms(100); 
0DE4E:  MOVLW  64
0DE50:  MOVLB  4
0DE52:  MOVWF  x63
0DE54:  MOVLB  0
0DE56:  CALL   1A6C
....................                               Imprime=10;                               
0DE5A:  MOVLW  0A
0DE5C:  MOVLB  3
0DE5E:  MOVWF  xB8
0DE60:  MOVLB  0
....................                            } 
....................                         }else if(PresionCamara>=Atmosferica+7){ 
0DE62:  BRA    DE78
0DE64:  MOVLB  3
0DE66:  MOVLW  07
0DE68:  ADDWF  xB9,W
0DE6A:  MOVF   x75,F
0DE6C:  BNZ   DE72
0DE6E:  SUBWF  x74,W
0DE70:  BNC   DE76
....................                            Desfogue_on; 
0DE72:  BSF    F8C.4
0DE74:  BCF    F95.4
0DE76:  MOVLB  0
....................                         } 
....................                      }else{ 
0DE78:  BRA    DED2
0DE7A:  MOVLB  3
....................                         codigoAlarma=13; 
0DE7C:  MOVLW  0D
0DE7E:  MOVLB  2
0DE80:  MOVWF  xE2
....................                         if(codigoAnt!=codigoAlarma){ 
0DE82:  MOVF   xE2,W
0DE84:  SUBWF  xE3,W
0DE86:  BZ    DE92
....................                            codigoAnt=codigoAlarma; 
0DE88:  MOVFF  2E2,2E3
....................                            GuardaDatoCiclo();                   
0DE8C:  MOVLB  0
0DE8E:  CALL   6E02
....................                         } 
....................                         Desfogando=ON; 
0DE92:  MOVLB  0
0DE94:  BSF    xA0.5
....................                         DesfogueSuave=ON; 
0DE96:  BSF    xA0.6
....................                         printf("Funcionamiento.t4f.txt=\" Ninguna\""); 
0DE98:  MOVLW  AE
0DE9A:  MOVWF  FF6
0DE9C:  MOVLW  15
0DE9E:  MOVWF  FF7
0DEA0:  MOVLW  00
0DEA2:  MOVWF  FF8
0DEA4:  CALL   3BB2
....................                         SendDataDisplay(); 
0DEA8:  CALL   3BE4
....................                         printf("Funcionamiento.t5f.txt=\" Despresurizando\""); 
0DEAC:  MOVLW  D0
0DEAE:  MOVWF  FF6
0DEB0:  MOVLW  15
0DEB2:  MOVWF  FF7
0DEB4:  MOVLW  00
0DEB6:  MOVWF  FF8
0DEB8:  CALL   3BB2
....................                         SendDataDisplay(); 
0DEBC:  CALL   3BE4
....................                         Control=0; 
0DEC0:  MOVLB  3
0DEC2:  CLRF   x52
....................                         Controlando=0; 
0DEC4:  CLRF   x54
....................                         SSR_off; 
0DEC6:  BSF    F8B.2
0DEC8:  BCF    F94.2
....................                         #ifdef Enfriador 
....................                         Enfr_on; 
....................                         #else 
....................                         Bomba_off; 
0DECA:  BCF    F8C.6
0DECC:  BCF    F95.6
....................                         #endif 
....................                         Aire=OFF; 
0DECE:  MOVLB  0
0DED0:  BCF    xA4.2
....................                      } 
....................                   }else{ 
0DED2:  BRA    E11E
....................                      //SSR_off; 
....................                      Controlando=0; 
0DED4:  MOVLB  3
0DED6:  CLRF   x54
....................                      Control=0; 
0DED8:  CLRF   x52
....................                      if(PresionCamara<=Atmosferica+5){ 
0DEDA:  MOVLW  05
0DEDC:  ADDWF  xB9,W
0DEDE:  MOVF   x75,F
0DEE0:  BTFSS  FD8.2
0DEE2:  BRA    E0BA
0DEE4:  SUBWF  x74,W
0DEE6:  BZ    DEEC
0DEE8:  BTFSC  FD8.0
0DEEA:  BRA    E0BA
....................                         if((Tsecado[0]==0)&&(Tsecado[1]==0)&&(Tsecado[2]==0)&&(Tsecado[3]==0)){ 
0DEEC:  MOVLB  0
0DEEE:  MOVF   xBB,F
0DEF0:  BTFSS  FD8.2
0DEF2:  BRA    E058
0DEF4:  MOVF   xBC,F
0DEF6:  BTFSS  FD8.2
0DEF8:  BRA    E058
0DEFA:  MOVF   xBD,F
0DEFC:  BTFSS  FD8.2
0DEFE:  BRA    E058
0DF00:  MOVF   xBE,F
0DF02:  BTFSS  FD8.2
0DF04:  BRA    E058
....................                            SSR_off; 
0DF06:  BSF    F8B.2
0DF08:  BCF    F94.2
....................                            Secando=OFF; 
0DF0A:  BCF    xA0.3
....................                            if(!DOOR){ 
0DF0C:  BSF    F93.6
0DF0E:  BTFSS  F81.6
0DF10:  BRA    DF18
....................                               Aire=OFF; 
0DF12:  BCF    xA4.2
....................                               Desfogue_off; 
0DF14:  BCF    F8C.4
0DF16:  BCF    F95.4
....................                            } 
....................                            if(Temperatura<=90){ 
0DF18:  MOVFF  327,455
0DF1C:  MOVFF  326,454
0DF20:  MOVFF  325,453
0DF24:  MOVFF  324,452
0DF28:  MOVLB  4
0DF2A:  CLRF   x59
0DF2C:  CLRF   x58
0DF2E:  MOVLW  34
0DF30:  MOVWF  x57
0DF32:  MOVLW  85
0DF34:  MOVWF  x56
0DF36:  MOVLB  0
0DF38:  CALL   3032
0DF3C:  BC    DF40
0DF3E:  BNZ   DF7E
....................                               ActivaAlarma(2); 
0DF40:  MOVLW  02
0DF42:  MOVLB  4
0DF44:  MOVWF  x4A
0DF46:  MOVLB  0
0DF48:  CALL   4A24
....................                               printf("Funcionamiento.t4f.txt=\" Ninguna\""); 
0DF4C:  MOVLW  FA
0DF4E:  MOVWF  FF6
0DF50:  MOVLW  15
0DF52:  MOVWF  FF7
0DF54:  MOVLW  00
0DF56:  MOVWF  FF8
0DF58:  CALL   3BB2
....................                               SendDataDisplay(); 
0DF5C:  CALL   3BE4
....................                               printf("Funcionamiento.t5f.txt=\" Finalizado\""); 
0DF60:  MOVLW  1C
0DF62:  MOVWF  FF6
0DF64:  MOVLW  16
0DF66:  MOVWF  FF7
0DF68:  MOVLW  00
0DF6A:  MOVWF  FF8
0DF6C:  CALL   3BB2
....................                               SendDataDisplay(); 
0DF70:  CALL   3BE4
....................                               Finalizo=ON; 
0DF74:  BSF    xA3.5
....................                               Aire=OFF; 
0DF76:  BCF    xA4.2
....................                               #ifdef Enfriador 
....................                               Enfr_off; 
....................                               #else 
....................                               Bomba_off; 
0DF78:  BCF    F8C.6
0DF7A:  BCF    F95.6
....................                               #endif 
....................                            }else{ 
0DF7C:  BRA    DF8E
....................                               if(DOOR){ 
0DF7E:  BSF    F93.6
0DF80:  BTFSC  F81.6
0DF82:  BRA    DF8A
....................                                  Aire=ON; 
0DF84:  BSF    xA4.2
....................                                  Desfogue_on; 
0DF86:  BSF    F8C.4
0DF88:  BCF    F95.4
....................                               } 
....................                               #ifdef Enfriador 
....................                               Enfr_on; 
....................                               #else 
....................                               Bomba_off; 
0DF8A:  BCF    F8C.6
0DF8C:  BCF    F95.6
....................                               #endif 
....................                            } 
....................                            codigoAlarma=14; 
0DF8E:  MOVLW  0E
0DF90:  MOVLB  2
0DF92:  MOVWF  xE2
....................                            if(codigoAnt!=codigoAlarma){ 
0DF94:  MOVF   xE2,W
0DF96:  SUBWF  xE3,W
0DF98:  BZ    DFA4
....................                               codigoAnt=codigoAlarma; 
0DF9A:  MOVFF  2E2,2E3
....................                               GuardaDatoCiclo();                   
0DF9E:  MOVLB  0
0DFA0:  CALL   6E02
....................                            } 
....................                            if(!Ciclo){ 
0DFA4:  MOVLB  0
0DFA6:  BTFSC  xA1.5
0DFA8:  BRA    E054
....................                               Ciclo=ON; 
0DFAA:  BSF    xA1.5
....................                               Ciclos++; 
0DFAC:  MOVLB  3
0DFAE:  INCF   x78,F
0DFB0:  BTFSC  FD8.2
0DFB2:  INCF   x79,F
....................                               CiclosL=make8(Ciclos,0); 
0DFB4:  MOVFF  378,35F
....................                               CiclosH=make8(Ciclos,1); 
0DFB8:  MOVFF  379,360
....................                               write_eeprom(37,CiclosL); 
0DFBC:  CLRF   FAA
0DFBE:  MOVLW  25
0DFC0:  MOVWF  FA9
0DFC2:  MOVFF  35F,FA8
0DFC6:  BCF    FA6.6
0DFC8:  BCF    FA6.7
0DFCA:  BSF    FA6.2
0DFCC:  MOVF   FF2,W
0DFCE:  MOVWF  00
0DFD0:  BCF    FF2.6
0DFD2:  BCF    FF2.7
0DFD4:  MOVLB  F
0DFD6:  MOVLW  55
0DFD8:  MOVWF  FA7
0DFDA:  MOVLW  AA
0DFDC:  MOVWF  FA7
0DFDE:  BSF    FA6.1
0DFE0:  BTFSC  FA6.1
0DFE2:  BRA    DFE0
0DFE4:  BCF    FA6.2
0DFE6:  MOVF   00,W
0DFE8:  IORWF  FF2,F
....................                               delay_ms(20); 
0DFEA:  MOVLW  14
0DFEC:  MOVLB  4
0DFEE:  MOVWF  x63
0DFF0:  MOVLB  0
0DFF2:  CALL   1A6C
....................                               write_eeprom(38,CiclosH); 
0DFF6:  CLRF   FAA
0DFF8:  MOVLW  26
0DFFA:  MOVWF  FA9
0DFFC:  MOVFF  360,FA8
0E000:  BCF    FA6.6
0E002:  BCF    FA6.7
0E004:  BSF    FA6.2
0E006:  MOVF   FF2,W
0E008:  MOVWF  00
0E00A:  BCF    FF2.6
0E00C:  BCF    FF2.7
0E00E:  MOVLB  F
0E010:  MOVLW  55
0E012:  MOVWF  FA7
0E014:  MOVLW  AA
0E016:  MOVWF  FA7
0E018:  BSF    FA6.1
0E01A:  BTFSC  FA6.1
0E01C:  BRA    E01A
0E01E:  BCF    FA6.2
0E020:  MOVF   00,W
0E022:  IORWF  FF2,F
....................                               delay_ms(20); 
0E024:  MOVLW  14
0E026:  MOVLB  4
0E028:  MOVWF  x63
0E02A:  MOVLB  0
0E02C:  CALL   1A6C
....................                               if(ActivaImpresion==1){ 
0E030:  MOVLB  3
0E032:  DECFSZ x55,W
0E034:  BRA    E052
....................                                  Imprime=28; 
0E036:  MOVLW  1C
0E038:  MOVWF  xB8
....................                                  Envio_Esclavos(); 
0E03A:  MOVLB  0
0E03C:  CALL   495A
....................                                  delay_ms(100); 
0E040:  MOVLW  64
0E042:  MOVLB  4
0E044:  MOVWF  x63
0E046:  MOVLB  0
0E048:  CALL   1A6C
....................                                  Imprime=10; 
0E04C:  MOVLW  0A
0E04E:  MOVLB  3
0E050:  MOVWF  xB8
0E052:  MOVLB  0
....................                               } 
....................                            } 
....................                            Secando=OFF; 
0E054:  BCF    xA0.3
....................                         }else{ 
0E056:  BRA    E0B6
....................                            codigoAlarma=15; 
0E058:  MOVLW  0F
0E05A:  MOVLB  2
0E05C:  MOVWF  xE2
....................                            if(codigoAnt!=codigoAlarma){ 
0E05E:  MOVF   xE2,W
0E060:  SUBWF  xE3,W
0E062:  BZ    E06E
....................                               codigoAnt=codigoAlarma; 
0E064:  MOVFF  2E2,2E3
....................                               GuardaDatoCiclo();                   
0E068:  MOVLB  0
0E06A:  CALL   6E02
....................                            } 
....................                            Secando=ON; 
0E06E:  MOVLB  0
0E070:  BSF    xA0.3
....................                            printf("Funcionamiento.t4f.txt=\" Ninguna\""); 
0E072:  MOVLW  42
0E074:  MOVWF  FF6
0E076:  MOVLW  16
0E078:  MOVWF  FF7
0E07A:  MOVLW  00
0E07C:  MOVWF  FF8
0E07E:  CALL   3BB2
....................                            SendDataDisplay(); 
0E082:  CALL   3BE4
....................                            printf("Funcionamiento.t5f.txt=\" Secando\""); 
0E086:  MOVLW  64
0E088:  MOVWF  FF6
0E08A:  MOVLW  16
0E08C:  MOVWF  FF7
0E08E:  MOVLW  00
0E090:  MOVWF  FF8
0E092:  CALL   3BB2
....................                            SendDataDisplay();                            
0E096:  CALL   3BE4
....................                            if(DOOR){ 
0E09A:  BSF    F93.6
0E09C:  BTFSC  F81.6
0E09E:  BRA    E0A8
....................                               Aire=ON; 
0E0A0:  BSF    xA4.2
....................                               Desfogue_on; 
0E0A2:  BSF    F8C.4
0E0A4:  BCF    F95.4
....................                            }else{ 
0E0A6:  BRA    E0B6
....................                               CalientaChaqueta(); 
0E0A8:  GOTO   8232
....................                               #ifdef Enfriador 
....................                               Enfr_off; 
....................                               #else 
....................                               Bomba_off; 
0E0AC:  BCF    F8C.6
0E0AE:  BCF    F95.6
....................                               #endif 
....................                               Aire=OFF; 
0E0B0:  BCF    xA4.2
....................                               Desfogue_off; 
0E0B2:  BCF    F8C.4
0E0B4:  BCF    F95.4
....................                            } 
....................                         } 
....................                      }else if(PresionCamara>Atmosferica+6){ 
0E0B6:  BRA    E11E
0E0B8:  MOVLB  3
0E0BA:  MOVLW  06
0E0BC:  ADDWF  xB9,W
0E0BE:  MOVF   x75,F
0E0C0:  BNZ   E0C8
0E0C2:  SUBWF  x74,W
0E0C4:  BZ    E120
0E0C6:  BNC   E120
....................                         codigoAlarma=13; 
0E0C8:  MOVLW  0D
0E0CA:  MOVLB  2
0E0CC:  MOVWF  xE2
....................                         if(codigoAnt!=codigoAlarma){ 
0E0CE:  MOVF   xE2,W
0E0D0:  SUBWF  xE3,W
0E0D2:  BZ    E0DE
....................                            codigoAnt=codigoAlarma; 
0E0D4:  MOVFF  2E2,2E3
....................                            GuardaDatoCiclo();                   
0E0D8:  MOVLB  0
0E0DA:  CALL   6E02
....................                         } 
....................                         Desfogando=ON; 
0E0DE:  MOVLB  0
0E0E0:  BSF    xA0.5
....................                         printf("Funcionamiento.t4f.txt=\" Ninguna\""); 
0E0E2:  MOVLW  86
0E0E4:  MOVWF  FF6
0E0E6:  MOVLW  16
0E0E8:  MOVWF  FF7
0E0EA:  MOVLW  00
0E0EC:  MOVWF  FF8
0E0EE:  CALL   3BB2
....................                         SendDataDisplay(); 
0E0F2:  CALL   3BE4
....................                         printf("Funcionamiento.t5f.txt=\" Despresurizando\""); 
0E0F6:  MOVLW  A8
0E0F8:  MOVWF  FF6
0E0FA:  MOVLW  16
0E0FC:  MOVWF  FF7
0E0FE:  MOVLW  00
0E100:  MOVWF  FF8
0E102:  CALL   3BB2
....................                         SendDataDisplay();                         
0E106:  CALL   3BE4
....................                         Controlando=0; 
0E10A:  MOVLB  3
0E10C:  CLRF   x54
....................                         SSR_off; 
0E10E:  BSF    F8B.2
0E110:  BCF    F94.2
....................                         #ifdef Enfriador 
....................                         Enfr_on; 
....................                         #else 
....................                         Bomba_off; 
0E112:  BCF    F8C.6
0E114:  BCF    F95.6
....................                         #endif 
....................                         Aire=OFF; 
0E116:  MOVLB  0
0E118:  BCF    xA4.2
....................                         Desfogue_on; 
0E11A:  BSF    F8C.4
0E11C:  BCF    F95.4
0E11E:  MOVLB  3
....................                      } 
....................                   } 
....................                    
....................                }else{ 
0E120:  BRA    E17A
0E122:  MOVLB  0
....................                   printf("Funcionamiento.t4f.txt=\" Ninguna\""); 
0E124:  MOVLW  D2
0E126:  MOVWF  FF6
0E128:  MOVLW  16
0E12A:  MOVWF  FF7
0E12C:  MOVLW  00
0E12E:  MOVWF  FF8
0E130:  CALL   3BB2
....................                   SendDataDisplay(); 
0E134:  CALL   3BE4
....................                   printf("Funcionamiento.t5f.txt=\" Esterilizando\""); 
0E138:  MOVLW  F4
0E13A:  MOVWF  FF6
0E13C:  MOVLW  16
0E13E:  MOVWF  FF7
0E140:  MOVLW  00
0E142:  MOVWF  FF8
0E144:  CALL   3BB2
....................                   SendDataDisplay(); 
0E148:  CALL   3BE4
....................                   #ifdef Enfriador 
....................                   Enfr_off; 
....................                   #else 
....................                   Bomba_off; 
0E14C:  BCF    F8C.6
0E14E:  BCF    F95.6
....................                   #endif 
....................                   Aire=OFF; 
0E150:  BCF    xA4.2
....................                   Desfogue_off; 
0E152:  BCF    F8C.4
0E154:  BCF    F95.4
....................                   Control=1; 
0E156:  MOVLW  01
0E158:  MOVLB  3
0E15A:  MOVWF  x52
....................                   codigoAlarma=16; 
0E15C:  MOVLW  10
0E15E:  MOVLB  2
0E160:  MOVWF  xE2
....................                   if(codigoAnt!=codigoAlarma){ 
0E162:  MOVF   xE2,W
0E164:  SUBWF  xE3,W
0E166:  BZ    E172
....................                      codigoAnt=codigoAlarma; 
0E168:  MOVFF  2E2,2E3
....................                      GuardaDatoCiclo();                   
0E16C:  MOVLB  0
0E16E:  CALL   6E02
....................                   } 
....................                   #ifdef PT100Fija 
....................                      Controla(); 
....................                   #else 
....................                      ControlaPresion(); 
0E172:  MOVLB  0
0E174:  CALL   7A06
0E178:  MOVLB  3
0E17A:  MOVLB  2
....................                   #endif 
....................                } 
....................             } 
....................          } 
....................    } 
....................  
....................    if(tguarda>=180){ 
0E17C:  MOVLB  0
0E17E:  MOVF   xB0,F
0E180:  BNZ   E188
0E182:  MOVF   xAF,W
0E184:  SUBLW  B3
0E186:  BC    E194
....................       if(!Ciclo){ 
0E188:  BTFSC  xA1.5
0E18A:  BRA    E194
....................          GuardaDatoCiclo(); 
0E18C:  CALL   6E02
....................          tguarda=0; 
0E190:  CLRF   xB0
0E192:  CLRF   xAF
....................       } 
....................    } 
....................     
....................    if(Grafica==1){ 
0E194:  MOVLB  3
0E196:  BTFSS  x51.1
0E198:  BRA    E1D8
....................       printf("add 14,0,%1.0f",Temperatura); 
0E19A:  MOVLW  1C
0E19C:  MOVWF  FF6
0E19E:  MOVLW  17
0E1A0:  MOVWF  FF7
0E1A2:  MOVLW  00
0E1A4:  MOVWF  FF8
0E1A6:  MOVLW  09
0E1A8:  MOVLB  4
0E1AA:  MOVWF  x50
0E1AC:  MOVLB  0
0E1AE:  CALL   4B26
0E1B2:  MOVLW  00
0E1B4:  MOVWF  FE9
0E1B6:  MOVFF  327,453
0E1BA:  MOVFF  326,452
0E1BE:  MOVFF  325,451
0E1C2:  MOVFF  324,450
0E1C6:  MOVLB  4
0E1C8:  CLRF   x54
0E1CA:  MOVLB  0
0E1CC:  CALL   4CC6
....................       SendDataDisplay(); 
0E1D0:  CALL   3BE4
....................       //printf("add 14,1,%1.0f",PresionCamara/1.667); 
....................       //SendDataDisplay(); 
....................       //printf("add 14,0,%1.0f",Temperatura); 
....................       //SendDataDisplay(); 
....................       Grafica=0; 
0E1D4:  MOVLB  3
0E1D6:  BCF    x51.1
....................    } 
....................    if(Lectura==1)// Utilizado para visualizar la lectura de la temperatura 
0E1D8:  BTFSS  x51.0
0E1DA:  BRA    E49C
....................    {                             
....................       Lectura=0; 
0E1DC:  BCF    x51.0
....................       printf("t6f.txt=\"%3.1fC\"",Temperatura); 
0E1DE:  MOVLW  2C
0E1E0:  MOVWF  FF6
0E1E2:  MOVLW  17
0E1E4:  MOVWF  FF7
0E1E6:  MOVLW  00
0E1E8:  MOVWF  FF8
0E1EA:  MOVLW  09
0E1EC:  MOVLB  4
0E1EE:  MOVWF  x50
0E1F0:  MOVLB  0
0E1F2:  CALL   4B26
0E1F6:  MOVLW  02
0E1F8:  MOVWF  FE9
0E1FA:  MOVFF  327,453
0E1FE:  MOVFF  326,452
0E202:  MOVFF  325,451
0E206:  MOVFF  324,450
0E20A:  MOVLW  01
0E20C:  MOVLB  4
0E20E:  MOVWF  x54
0E210:  MOVLB  0
0E212:  CALL   4CC6
0E216:  MOVLW  B0
0E218:  BTFSS  F9E.4
0E21A:  BRA    E218
0E21C:  MOVWF  FAD
0E21E:  MOVLW  43
0E220:  BTFSS  F9E.4
0E222:  BRA    E220
0E224:  MOVWF  FAD
0E226:  MOVLW  22
0E228:  BTFSS  F9E.4
0E22A:  BRA    E228
0E22C:  MOVWF  FAD
....................       SendDataDisplay(); 
0E22E:  CALL   3BE4
....................       printf("Funcionamiento.t7f.txt=\"%03LukPa\"",PresionCamara); 
0E232:  MOVLW  3E
0E234:  MOVWF  FF6
0E236:  MOVLW  17
0E238:  MOVWF  FF7
0E23A:  MOVLW  00
0E23C:  MOVWF  FF8
0E23E:  MOVLW  18
0E240:  MOVLB  4
0E242:  MOVWF  x50
0E244:  MOVLB  0
0E246:  CALL   4B26
0E24A:  MOVLW  0A
0E24C:  MOVWF  FE9
0E24E:  MOVFF  375,451
0E252:  MOVFF  374,450
0E256:  CALL   54F8
0E25A:  MOVLW  5B
0E25C:  MOVWF  FF6
0E25E:  MOVLW  17
0E260:  MOVWF  FF7
0E262:  MOVLW  00
0E264:  MOVWF  FF8
0E266:  MOVLW  04
0E268:  MOVLB  4
0E26A:  MOVWF  x50
0E26C:  MOVLB  0
0E26E:  CALL   4B26
....................       SendDataDisplay(); 
0E272:  CALL   3BE4
....................       //printf("Funcionamiento.t12f.txt=\"%03LukPa\"",PresionPreCamara); 
....................       printf("Funcionamiento.t12f.txt=\"000kPa\""); 
0E276:  MOVLW  60
0E278:  MOVWF  FF6
0E27A:  MOVLW  17
0E27C:  MOVWF  FF7
0E27E:  MOVLW  00
0E280:  MOVWF  FF8
0E282:  CALL   3BB2
....................       SendDataDisplay(); 
0E286:  CALL   3BE4
....................       printf("Funcionamiento.t9f.txt=\"%03u\"",Setpoint); 
0E28A:  MOVLW  82
0E28C:  MOVWF  FF6
0E28E:  MOVLW  17
0E290:  MOVWF  FF7
0E292:  MOVLW  00
0E294:  MOVWF  FF8
0E296:  MOVLW  18
0E298:  MOVLB  4
0E29A:  MOVWF  x50
0E29C:  MOVLB  0
0E29E:  CALL   4B26
0E2A2:  MOVFF  362,450
0E2A6:  MOVLW  03
0E2A8:  MOVLB  4
0E2AA:  MOVWF  x51
0E2AC:  MOVLB  0
0E2AE:  CALL   4B84
0E2B2:  MOVLW  22
0E2B4:  BTFSS  F9E.4
0E2B6:  BRA    E2B4
0E2B8:  MOVWF  FAD
....................       SendDataDisplay();       
0E2BA:  CALL   3BE4
....................       printf("Funcionamiento.t10f.txt=\"%02u\"",((Testerilizacion[3]*10)+Testerilizacion[2])); 
0E2BE:  MOVFF  B4,44C
0E2C2:  MOVLW  0A
0E2C4:  MOVLB  4
0E2C6:  MOVWF  x4D
0E2C8:  MOVLB  0
0E2CA:  CALL   30AC
0E2CE:  MOVF   xB3,W
0E2D0:  ADDWF  01,W
0E2D2:  MOVLB  4
0E2D4:  MOVWF  x4A
0E2D6:  MOVLW  A0
0E2D8:  MOVWF  FF6
0E2DA:  MOVLW  17
0E2DC:  MOVWF  FF7
0E2DE:  MOVLW  00
0E2E0:  MOVWF  FF8
0E2E2:  MOVLW  19
0E2E4:  MOVWF  x50
0E2E6:  MOVLB  0
0E2E8:  CALL   4B26
0E2EC:  MOVFF  44A,450
0E2F0:  MOVLW  01
0E2F2:  MOVLB  4
0E2F4:  MOVWF  x51
0E2F6:  MOVLB  0
0E2F8:  CALL   4B84
0E2FC:  MOVLW  22
0E2FE:  BTFSS  F9E.4
0E300:  BRA    E2FE
0E302:  MOVWF  FAD
....................       SendDataDisplay();       
0E304:  CALL   3BE4
....................       printf("Funcionamiento.t13f.txt=\"%02u\"",((Testerilizacion[1]*10)+Testerilizacion[0])); 
0E308:  MOVFF  B2,44C
0E30C:  MOVLW  0A
0E30E:  MOVLB  4
0E310:  MOVWF  x4D
0E312:  MOVLB  0
0E314:  CALL   30AC
0E318:  MOVF   xB1,W
0E31A:  ADDWF  01,W
0E31C:  MOVLB  4
0E31E:  MOVWF  x4A
0E320:  MOVLW  C0
0E322:  MOVWF  FF6
0E324:  MOVLW  17
0E326:  MOVWF  FF7
0E328:  MOVLW  00
0E32A:  MOVWF  FF8
0E32C:  MOVLW  19
0E32E:  MOVWF  x50
0E330:  MOVLB  0
0E332:  CALL   4B26
0E336:  MOVFF  44A,450
0E33A:  MOVLW  01
0E33C:  MOVLB  4
0E33E:  MOVWF  x51
0E340:  MOVLB  0
0E342:  CALL   4B84
0E346:  MOVLW  22
0E348:  BTFSS  F9E.4
0E34A:  BRA    E348
0E34C:  MOVWF  FAD
....................       SendDataDisplay();       
0E34E:  CALL   3BE4
....................       printf("Funcionamiento.t11f.txt=\"%02u\"",((Tsecado[3]*10)+Tsecado[2])); 
0E352:  MOVFF  BE,44C
0E356:  MOVLW  0A
0E358:  MOVLB  4
0E35A:  MOVWF  x4D
0E35C:  MOVLB  0
0E35E:  CALL   30AC
0E362:  MOVF   xBD,W
0E364:  ADDWF  01,W
0E366:  MOVLB  4
0E368:  MOVWF  x4A
0E36A:  MOVLW  E0
0E36C:  MOVWF  FF6
0E36E:  MOVLW  17
0E370:  MOVWF  FF7
0E372:  MOVLW  00
0E374:  MOVWF  FF8
0E376:  MOVLW  19
0E378:  MOVWF  x50
0E37A:  MOVLB  0
0E37C:  CALL   4B26
0E380:  MOVFF  44A,450
0E384:  MOVLW  01
0E386:  MOVLB  4
0E388:  MOVWF  x51
0E38A:  MOVLB  0
0E38C:  CALL   4B84
0E390:  MOVLW  22
0E392:  BTFSS  F9E.4
0E394:  BRA    E392
0E396:  MOVWF  FAD
....................       SendDataDisplay();       
0E398:  CALL   3BE4
....................       printf("Funcionamiento.t16f.txt=\"%02u\"",((Tsecado[1]*10)+Tsecado[0])); 
0E39C:  MOVFF  BC,44C
0E3A0:  MOVLW  0A
0E3A2:  MOVLB  4
0E3A4:  MOVWF  x4D
0E3A6:  MOVLB  0
0E3A8:  CALL   30AC
0E3AC:  MOVF   xBB,W
0E3AE:  ADDWF  01,W
0E3B0:  MOVLB  4
0E3B2:  MOVWF  x4A
0E3B4:  MOVLW  00
0E3B6:  MOVWF  FF6
0E3B8:  MOVLW  18
0E3BA:  MOVWF  FF7
0E3BC:  MOVLW  00
0E3BE:  MOVWF  FF8
0E3C0:  MOVLW  19
0E3C2:  MOVWF  x50
0E3C4:  MOVLB  0
0E3C6:  CALL   4B26
0E3CA:  MOVFF  44A,450
0E3CE:  MOVLW  01
0E3D0:  MOVLB  4
0E3D2:  MOVWF  x51
0E3D4:  MOVLB  0
0E3D6:  CALL   4B84
0E3DA:  MOVLW  22
0E3DC:  BTFSS  F9E.4
0E3DE:  BRA    E3DC
0E3E0:  MOVWF  FAD
....................       SendDataDisplay();       
0E3E2:  CALL   3BE4
....................        
....................       printf("fecha.txt=\"Fecha:%02u/%02u/20%02u    Hora: %02u:%02u\"",Dia,Mes,Year,Hora,Minuto); 
0E3E6:  MOVLW  20
0E3E8:  MOVWF  FF6
0E3EA:  MOVLW  18
0E3EC:  MOVWF  FF7
0E3EE:  MOVLW  00
0E3F0:  MOVWF  FF8
0E3F2:  MOVLW  11
0E3F4:  MOVLB  4
0E3F6:  MOVWF  x50
0E3F8:  MOVLB  0
0E3FA:  CALL   4B26
0E3FE:  MOVFF  3AB,450
0E402:  MOVLW  01
0E404:  MOVLB  4
0E406:  MOVWF  x51
0E408:  MOVLB  0
0E40A:  CALL   4B84
0E40E:  MOVLW  2F
0E410:  BTFSS  F9E.4
0E412:  BRA    E410
0E414:  MOVWF  FAD
0E416:  MOVFF  3AA,450
0E41A:  MOVLW  01
0E41C:  MOVLB  4
0E41E:  MOVWF  x51
0E420:  MOVLB  0
0E422:  CALL   4B84
0E426:  MOVLW  2F
0E428:  BTFSS  F9E.4
0E42A:  BRA    E428
0E42C:  MOVWF  FAD
0E42E:  MOVLW  32
0E430:  BTFSS  F9E.4
0E432:  BRA    E430
0E434:  MOVWF  FAD
0E436:  MOVLW  30
0E438:  BTFSS  F9E.4
0E43A:  BRA    E438
0E43C:  MOVWF  FAD
0E43E:  MOVFF  3A9,450
0E442:  MOVLW  01
0E444:  MOVLB  4
0E446:  MOVWF  x51
0E448:  MOVLB  0
0E44A:  CALL   4B84
0E44E:  MOVLW  41
0E450:  MOVWF  FF6
0E452:  MOVLW  18
0E454:  MOVWF  FF7
0E456:  MOVLW  00
0E458:  MOVWF  FF8
0E45A:  MOVLW  0A
0E45C:  MOVLB  4
0E45E:  MOVWF  x50
0E460:  MOVLB  0
0E462:  CALL   4B26
0E466:  MOVFF  3AC,450
0E46A:  MOVLW  01
0E46C:  MOVLB  4
0E46E:  MOVWF  x51
0E470:  MOVLB  0
0E472:  CALL   4B84
0E476:  MOVLW  3A
0E478:  BTFSS  F9E.4
0E47A:  BRA    E478
0E47C:  MOVWF  FAD
0E47E:  MOVFF  3AD,450
0E482:  MOVLW  01
0E484:  MOVLB  4
0E486:  MOVWF  x51
0E488:  MOVLB  0
0E48A:  CALL   4B84
0E48E:  MOVLW  22
0E490:  BTFSS  F9E.4
0E492:  BRA    E490
0E494:  MOVWF  FAD
....................       SendDataDisplay(); 
0E496:  CALL   3BE4
0E49A:  MOVLB  3
....................    } 
....................  
....................  
.................... } 
.................... //_-------------------------------------------------------------------------------------------------------------------------------------------------------- 
....................  
.................... //_-------------------------------------------------------------------------------------------------------------------------------------------------------- 
....................       if(Menu==100){ //Menu de Configuracin de Parametros de Control 
0E49C:  MOVF   x5C,W
0E49E:  SUBLW  64
0E4A0:  BTFSS  FD8.2
0E4A2:  GOTO   F2FA
....................       
....................       if(Opcion2>11) 
0E4A6:  MOVF   x64,W
0E4A8:  SUBLW  0B
0E4AA:  BC    E4B0
....................          Opcion2=1; 
0E4AC:  MOVLW  01
0E4AE:  MOVWF  x64
....................       if(Opcion2<1) 
0E4B0:  MOVF   x64,F
0E4B2:  BNZ   E4B8
....................          Opcion2=11; 
0E4B4:  MOVLW  0B
0E4B6:  MOVWF  x64
....................        
....................       if(Opcion2==1){ 
0E4B8:  DECFSZ x64,W
0E4BA:  BRA    E638
....................          printf("Config.t2c.txt=\"Proporcional\""); 
0E4BC:  MOVLW  56
0E4BE:  MOVWF  FF6
0E4C0:  MOVLW  18
0E4C2:  MOVWF  FF7
0E4C4:  MOVLW  00
0E4C6:  MOVWF  FF8
0E4C8:  MOVLB  0
0E4CA:  CALL   3BB2
....................          SendDataDisplay();       
0E4CE:  CALL   3BE4
....................          printf("t3c.txt=\"%2.0f\"",Ganancia); 
0E4D2:  MOVLW  74
0E4D4:  MOVWF  FF6
0E4D6:  MOVLW  18
0E4D8:  MOVWF  FF7
0E4DA:  MOVLW  00
0E4DC:  MOVWF  FF8
0E4DE:  MOVLW  09
0E4E0:  MOVLB  4
0E4E2:  MOVWF  x50
0E4E4:  MOVLB  0
0E4E6:  CALL   4B26
0E4EA:  MOVLW  01
0E4EC:  MOVWF  FE9
0E4EE:  MOVFF  307,453
0E4F2:  MOVFF  306,452
0E4F6:  MOVFF  305,451
0E4FA:  MOVFF  304,450
0E4FE:  MOVLB  4
0E500:  CLRF   x54
0E502:  MOVLB  0
0E504:  CALL   4CC6
0E508:  MOVLW  22
0E50A:  BTFSS  F9E.4
0E50C:  BRA    E50A
0E50E:  MOVWF  FAD
....................          SendDataDisplay(); 
0E510:  CALL   3BE4
....................          if(RX_Buffer[4]==0x0a || UP){//Tecla Arriba Oprimida 
0E514:  MOVF   34,W
0E516:  SUBLW  0A
0E518:  BZ    E520
0E51A:  BSF    F93.0
0E51C:  BTFSC  F81.0
0E51E:  BRA    E570
....................             delay_ms(20); 
0E520:  MOVLW  14
0E522:  MOVLB  4
0E524:  MOVWF  x63
0E526:  MOVLB  0
0E528:  CALL   1A6C
....................             if(RX_Buffer[4]==0x0a || UP){ 
0E52C:  MOVF   34,W
0E52E:  SUBLW  0A
0E530:  BZ    E538
0E532:  BSF    F93.0
0E534:  BTFSC  F81.0
0E536:  BRA    E570
....................                Ganancia+=1.0; 
0E538:  BCF    FD8.1
0E53A:  MOVFF  307,462
0E53E:  MOVFF  306,461
0E542:  MOVFF  305,460
0E546:  MOVFF  304,45F
0E54A:  MOVLB  4
0E54C:  CLRF   x66
0E54E:  CLRF   x65
0E550:  CLRF   x64
0E552:  MOVLW  7F
0E554:  MOVWF  x63
0E556:  MOVLB  0
0E558:  CALL   1C28
0E55C:  MOVFF  03,307
0E560:  MOVFF  02,306
0E564:  MOVFF  01,305
0E568:  MOVFF  00,304
....................                RX_Buffer[4]=0x00;   
0E56C:  CLRF   34
....................                RX_Buffer2[4]=0x00;             
0E56E:  CLRF   3F
....................                //BorraBuffer(); 
....................             } 
....................          } 
....................              
....................          if(RX_Buffer[4]==0x0b || DOWN){//Tecla Abajo Oprimida 
0E570:  MOVF   34,W
0E572:  SUBLW  0B
0E574:  BZ    E57C
0E576:  BSF    F93.1
0E578:  BTFSC  F81.1
0E57A:  BRA    E5CC
....................             delay_ms(20); 
0E57C:  MOVLW  14
0E57E:  MOVLB  4
0E580:  MOVWF  x63
0E582:  MOVLB  0
0E584:  CALL   1A6C
....................             if(RX_Buffer[4]==0x0b || DOWN){ 
0E588:  MOVF   34,W
0E58A:  SUBLW  0B
0E58C:  BZ    E594
0E58E:  BSF    F93.1
0E590:  BTFSC  F81.1
0E592:  BRA    E5CC
....................                Ganancia-=1.0; 
0E594:  BSF    FD8.1
0E596:  MOVFF  307,462
0E59A:  MOVFF  306,461
0E59E:  MOVFF  305,460
0E5A2:  MOVFF  304,45F
0E5A6:  MOVLB  4
0E5A8:  CLRF   x66
0E5AA:  CLRF   x65
0E5AC:  CLRF   x64
0E5AE:  MOVLW  7F
0E5B0:  MOVWF  x63
0E5B2:  MOVLB  0
0E5B4:  CALL   1C28
0E5B8:  MOVFF  03,307
0E5BC:  MOVFF  02,306
0E5C0:  MOVFF  01,305
0E5C4:  MOVFF  00,304
....................                RX_Buffer[4]=0x00; 
0E5C8:  CLRF   34
....................                RX_Buffer2[4]=0x00;             
0E5CA:  CLRF   3F
....................                //BorraBuffer(); 
....................             } 
....................          } 
....................           
....................          if(Ganancia>40) 
0E5CC:  MOVLB  4
0E5CE:  CLRF   x55
0E5D0:  CLRF   x54
0E5D2:  MOVLW  20
0E5D4:  MOVWF  x53
0E5D6:  MOVLW  84
0E5D8:  MOVWF  x52
0E5DA:  MOVFF  307,459
0E5DE:  MOVFF  306,458
0E5E2:  MOVFF  305,457
0E5E6:  MOVFF  304,456
0E5EA:  MOVLB  0
0E5EC:  CALL   3032
0E5F0:  BNC   E5FE
....................             Ganancia=1; 
0E5F2:  MOVLB  3
0E5F4:  CLRF   x07
0E5F6:  CLRF   x06
0E5F8:  CLRF   x05
0E5FA:  MOVLW  7F
0E5FC:  MOVWF  x04
....................          if(Ganancia<1) 
0E5FE:  MOVFF  307,455
0E602:  MOVFF  306,454
0E606:  MOVFF  305,453
0E60A:  MOVFF  304,452
0E60E:  MOVLB  4
0E610:  CLRF   x59
0E612:  CLRF   x58
0E614:  CLRF   x57
0E616:  MOVLW  7F
0E618:  MOVWF  x56
0E61A:  MOVLB  0
0E61C:  CALL   3032
0E620:  BNC   E632
....................             Ganancia=40; 
0E622:  MOVLB  3
0E624:  CLRF   x07
0E626:  CLRF   x06
0E628:  MOVLW  20
0E62A:  MOVWF  x05
0E62C:  MOVLW  84
0E62E:  MOVWF  x04
0E630:  MOVLB  0
....................       }else if(Opcion2==2){ 
0E632:  GOTO   EDFA
0E636:  MOVLB  3
0E638:  MOVF   x64,W
0E63A:  SUBLW  02
0E63C:  BNZ   E6FC
....................          printf("Config.t2c.txt=\"Derivativo\""); 
0E63E:  MOVLW  84
0E640:  MOVWF  FF6
0E642:  MOVLW  18
0E644:  MOVWF  FF7
0E646:  MOVLW  00
0E648:  MOVWF  FF8
0E64A:  MOVLB  0
0E64C:  CALL   3BB2
....................          SendDataDisplay();       
0E650:  CALL   3BE4
....................          printf("t3c.txt=\"%u\"",Derivativo); 
0E654:  MOVLW  A0
0E656:  MOVWF  FF6
0E658:  MOVLW  18
0E65A:  MOVWF  FF7
0E65C:  MOVLW  00
0E65E:  MOVWF  FF8
0E660:  MOVLW  09
0E662:  MOVLB  4
0E664:  MOVWF  x50
0E666:  MOVLB  0
0E668:  CALL   4B26
0E66C:  MOVFF  339,450
0E670:  MOVLW  1B
0E672:  MOVLB  4
0E674:  MOVWF  x51
0E676:  MOVLB  0
0E678:  CALL   4B84
0E67C:  MOVLW  22
0E67E:  BTFSS  F9E.4
0E680:  BRA    E67E
0E682:  MOVWF  FAD
....................          SendDataDisplay(); 
0E684:  CALL   3BE4
....................          if(RX_Buffer[4]==0x0a || UP){//Tecla Arriba Oprimida 
0E688:  MOVF   34,W
0E68A:  SUBLW  0A
0E68C:  BZ    E694
0E68E:  BSF    F93.0
0E690:  BTFSC  F81.0
0E692:  BRA    E6B6
....................             delay_ms(20); 
0E694:  MOVLW  14
0E696:  MOVLB  4
0E698:  MOVWF  x63
0E69A:  MOVLB  0
0E69C:  CALL   1A6C
....................             if(RX_Buffer[4]==0x0a || UP){ 
0E6A0:  MOVF   34,W
0E6A2:  SUBLW  0A
0E6A4:  BZ    E6AC
0E6A6:  BSF    F93.0
0E6A8:  BTFSC  F81.0
0E6AA:  BRA    E6B6
....................                Derivativo++; 
0E6AC:  MOVLB  3
0E6AE:  INCF   x39,F
....................                RX_Buffer[4]=0x00;   
0E6B0:  CLRF   34
....................                RX_Buffer2[4]=0x00;             
0E6B2:  CLRF   3F
0E6B4:  MOVLB  0
....................                //BorraBuffer(); 
....................             } 
....................          } 
....................              
....................          if(RX_Buffer[4]==0x0b || DOWN){//Tecla Abajo Oprimida 
0E6B6:  MOVF   34,W
0E6B8:  SUBLW  0B
0E6BA:  BZ    E6C2
0E6BC:  BSF    F93.1
0E6BE:  BTFSC  F81.1
0E6C0:  BRA    E6E4
....................             delay_ms(20); 
0E6C2:  MOVLW  14
0E6C4:  MOVLB  4
0E6C6:  MOVWF  x63
0E6C8:  MOVLB  0
0E6CA:  CALL   1A6C
....................             if(RX_Buffer[4]==0x0b || DOWN){ 
0E6CE:  MOVF   34,W
0E6D0:  SUBLW  0B
0E6D2:  BZ    E6DA
0E6D4:  BSF    F93.1
0E6D6:  BTFSC  F81.1
0E6D8:  BRA    E6E4
....................                Derivativo--; 
0E6DA:  MOVLB  3
0E6DC:  DECF   x39,F
....................                RX_Buffer[4]=0x00; 
0E6DE:  CLRF   34
....................                RX_Buffer2[4]=0x00;             
0E6E0:  CLRF   3F
0E6E2:  MOVLB  0
....................                //BorraBuffer(); 
....................             } 
....................          } 
....................           
....................           
....................          if(Derivativo>40) 
0E6E4:  MOVLB  3
0E6E6:  MOVF   x39,W
0E6E8:  SUBLW  28
0E6EA:  BC    E6F0
....................             Derivativo=1; 
0E6EC:  MOVLW  01
0E6EE:  MOVWF  x39
....................          if(Derivativo<1) 
0E6F0:  MOVF   x39,F
0E6F2:  BNZ   E6F8
....................             Derivativo=40; 
0E6F4:  MOVLW  28
0E6F6:  MOVWF  x39
....................       }else if(Opcion2==3){ 
0E6F8:  GOTO   EDF8
0E6FC:  MOVF   x64,W
0E6FE:  SUBLW  03
0E700:  BNZ   E7BE
....................          printf("Config.t2c.txt=\"Integral\""); 
0E702:  MOVLW  AE
0E704:  MOVWF  FF6
0E706:  MOVLW  18
0E708:  MOVWF  FF7
0E70A:  MOVLW  00
0E70C:  MOVWF  FF8
0E70E:  MOVLB  0
0E710:  CALL   3BB2
....................          SendDataDisplay();       
0E714:  CALL   3BE4
....................          printf("t3c.txt=\"%u\"",Integral); 
0E718:  MOVLW  C8
0E71A:  MOVWF  FF6
0E71C:  MOVLW  18
0E71E:  MOVWF  FF7
0E720:  MOVLW  00
0E722:  MOVWF  FF8
0E724:  MOVLW  09
0E726:  MOVLB  4
0E728:  MOVWF  x50
0E72A:  MOVLB  0
0E72C:  CALL   4B26
0E730:  MOVFF  338,450
0E734:  MOVLW  1B
0E736:  MOVLB  4
0E738:  MOVWF  x51
0E73A:  MOVLB  0
0E73C:  CALL   4B84
0E740:  MOVLW  22
0E742:  BTFSS  F9E.4
0E744:  BRA    E742
0E746:  MOVWF  FAD
....................          SendDataDisplay(); 
0E748:  CALL   3BE4
....................          if(RX_Buffer[4]==0x0a || UP){//Tecla Arriba Oprimida 
0E74C:  MOVF   34,W
0E74E:  SUBLW  0A
0E750:  BZ    E758
0E752:  BSF    F93.0
0E754:  BTFSC  F81.0
0E756:  BRA    E77A
....................             delay_ms(20); 
0E758:  MOVLW  14
0E75A:  MOVLB  4
0E75C:  MOVWF  x63
0E75E:  MOVLB  0
0E760:  CALL   1A6C
....................             if(RX_Buffer[4]==0x0a || UP){ 
0E764:  MOVF   34,W
0E766:  SUBLW  0A
0E768:  BZ    E770
0E76A:  BSF    F93.0
0E76C:  BTFSC  F81.0
0E76E:  BRA    E77A
....................                Integral++; 
0E770:  MOVLB  3
0E772:  INCF   x38,F
....................                RX_Buffer[4]=0x00;   
0E774:  CLRF   34
....................                RX_Buffer2[4]=0x00;             
0E776:  CLRF   3F
0E778:  MOVLB  0
....................                //BorraBuffer(); 
....................             } 
....................          } 
....................              
....................          if(RX_Buffer[4]==0x0b || DOWN){//Tecla Abajo Oprimida 
0E77A:  MOVF   34,W
0E77C:  SUBLW  0B
0E77E:  BZ    E786
0E780:  BSF    F93.1
0E782:  BTFSC  F81.1
0E784:  BRA    E7A8
....................             delay_ms(20); 
0E786:  MOVLW  14
0E788:  MOVLB  4
0E78A:  MOVWF  x63
0E78C:  MOVLB  0
0E78E:  CALL   1A6C
....................             if(RX_Buffer[4]==0x0b || DOWN){ 
0E792:  MOVF   34,W
0E794:  SUBLW  0B
0E796:  BZ    E79E
0E798:  BSF    F93.1
0E79A:  BTFSC  F81.1
0E79C:  BRA    E7A8
....................                Integral--; 
0E79E:  MOVLB  3
0E7A0:  DECF   x38,F
....................                RX_Buffer[4]=0x00; 
0E7A2:  CLRF   34
....................                RX_Buffer2[4]=0x00;             
0E7A4:  CLRF   3F
0E7A6:  MOVLB  0
....................                //BorraBuffer(); 
....................             } 
....................          } 
....................           
....................          if(Integral>40) 
0E7A8:  MOVLB  3
0E7AA:  MOVF   x38,W
0E7AC:  SUBLW  28
0E7AE:  BC    E7B4
....................             Integral=1; 
0E7B0:  MOVLW  01
0E7B2:  MOVWF  x38
....................          if(Integral<1) 
0E7B4:  MOVF   x38,F
0E7B6:  BNZ   E7BC
....................             Integral=40; 
0E7B8:  MOVLW  28
0E7BA:  MOVWF  x38
....................       }else if(Opcion2==4){ 
0E7BC:  BRA    EDF8
0E7BE:  MOVF   x64,W
0E7C0:  SUBLW  04
0E7C2:  BTFSS  FD8.2
0E7C4:  BRA    E944
....................          printf("Config.t2c.txt=\"Tciclo\""); 
0E7C6:  MOVLW  D6
0E7C8:  MOVWF  FF6
0E7CA:  MOVLW  18
0E7CC:  MOVWF  FF7
0E7CE:  MOVLW  00
0E7D0:  MOVWF  FF8
0E7D2:  MOVLB  0
0E7D4:  CALL   3BB2
....................          SendDataDisplay();       
0E7D8:  CALL   3BE4
....................          printf("t3c.txt=\"%2.0f\"",Tciclo); 
0E7DC:  MOVLW  EE
0E7DE:  MOVWF  FF6
0E7E0:  MOVLW  18
0E7E2:  MOVWF  FF7
0E7E4:  MOVLW  00
0E7E6:  MOVWF  FF8
0E7E8:  MOVLW  09
0E7EA:  MOVLB  4
0E7EC:  MOVWF  x50
0E7EE:  MOVLB  0
0E7F0:  CALL   4B26
0E7F4:  MOVLW  01
0E7F6:  MOVWF  FE9
0E7F8:  MOVFF  2EF,453
0E7FC:  MOVFF  2EE,452
0E800:  MOVFF  2ED,451
0E804:  MOVFF  2EC,450
0E808:  MOVLB  4
0E80A:  CLRF   x54
0E80C:  MOVLB  0
0E80E:  CALL   4CC6
0E812:  MOVLW  22
0E814:  BTFSS  F9E.4
0E816:  BRA    E814
0E818:  MOVWF  FAD
....................          SendDataDisplay(); 
0E81A:  CALL   3BE4
....................          if(RX_Buffer[4]==0x0a || UP){//Tecla Arriba Oprimida 
0E81E:  MOVF   34,W
0E820:  SUBLW  0A
0E822:  BZ    E82A
0E824:  BSF    F93.0
0E826:  BTFSC  F81.0
0E828:  BRA    E87A
....................             delay_ms(20); 
0E82A:  MOVLW  14
0E82C:  MOVLB  4
0E82E:  MOVWF  x63
0E830:  MOVLB  0
0E832:  CALL   1A6C
....................             if(RX_Buffer[4]==0x0a || UP){ 
0E836:  MOVF   34,W
0E838:  SUBLW  0A
0E83A:  BZ    E842
0E83C:  BSF    F93.0
0E83E:  BTFSC  F81.0
0E840:  BRA    E87A
....................                Tciclo+=1.0; 
0E842:  BCF    FD8.1
0E844:  MOVFF  2EF,462
0E848:  MOVFF  2EE,461
0E84C:  MOVFF  2ED,460
0E850:  MOVFF  2EC,45F
0E854:  MOVLB  4
0E856:  CLRF   x66
0E858:  CLRF   x65
0E85A:  CLRF   x64
0E85C:  MOVLW  7F
0E85E:  MOVWF  x63
0E860:  MOVLB  0
0E862:  CALL   1C28
0E866:  MOVFF  03,2EF
0E86A:  MOVFF  02,2EE
0E86E:  MOVFF  01,2ED
0E872:  MOVFF  00,2EC
....................                RX_Buffer[4]=0x00;   
0E876:  CLRF   34
....................                RX_Buffer2[4]=0x00;             
0E878:  CLRF   3F
....................                //BorraBuffer(); 
....................             } 
....................          } 
....................              
....................          if(RX_Buffer[4]==0x0b || DOWN){//Tecla Abajo Oprimida 
0E87A:  MOVF   34,W
0E87C:  SUBLW  0B
0E87E:  BZ    E886
0E880:  BSF    F93.1
0E882:  BTFSC  F81.1
0E884:  BRA    E8D6
....................             delay_ms(20); 
0E886:  MOVLW  14
0E888:  MOVLB  4
0E88A:  MOVWF  x63
0E88C:  MOVLB  0
0E88E:  CALL   1A6C
....................             if(RX_Buffer[4]==0x0b || DOWN){ 
0E892:  MOVF   34,W
0E894:  SUBLW  0B
0E896:  BZ    E89E
0E898:  BSF    F93.1
0E89A:  BTFSC  F81.1
0E89C:  BRA    E8D6
....................                Tciclo-=1.0; 
0E89E:  BSF    FD8.1
0E8A0:  MOVFF  2EF,462
0E8A4:  MOVFF  2EE,461
0E8A8:  MOVFF  2ED,460
0E8AC:  MOVFF  2EC,45F
0E8B0:  MOVLB  4
0E8B2:  CLRF   x66
0E8B4:  CLRF   x65
0E8B6:  CLRF   x64
0E8B8:  MOVLW  7F
0E8BA:  MOVWF  x63
0E8BC:  MOVLB  0
0E8BE:  CALL   1C28
0E8C2:  MOVFF  03,2EF
0E8C6:  MOVFF  02,2EE
0E8CA:  MOVFF  01,2ED
0E8CE:  MOVFF  00,2EC
....................                RX_Buffer[4]=0x00; 
0E8D2:  CLRF   34
....................                RX_Buffer2[4]=0x00;             
0E8D4:  CLRF   3F
....................                //BorraBuffer(); 
....................             } 
....................          } 
....................           
....................          if(Tciclo>20) 
0E8D6:  MOVLB  4
0E8D8:  CLRF   x55
0E8DA:  CLRF   x54
0E8DC:  MOVLW  20
0E8DE:  MOVWF  x53
0E8E0:  MOVLW  83
0E8E2:  MOVWF  x52
0E8E4:  MOVFF  2EF,459
0E8E8:  MOVFF  2EE,458
0E8EC:  MOVFF  2ED,457
0E8F0:  MOVFF  2EC,456
0E8F4:  MOVLB  0
0E8F6:  CALL   3032
0E8FA:  BNC   E90A
....................             Tciclo=5; 
0E8FC:  MOVLB  2
0E8FE:  CLRF   xEF
0E900:  CLRF   xEE
0E902:  MOVLW  20
0E904:  MOVWF  xED
0E906:  MOVLW  81
0E908:  MOVWF  xEC
....................          if(Tciclo<5) 
0E90A:  MOVFF  2EF,455
0E90E:  MOVFF  2EE,454
0E912:  MOVFF  2ED,453
0E916:  MOVFF  2EC,452
0E91A:  MOVLB  4
0E91C:  CLRF   x59
0E91E:  CLRF   x58
0E920:  MOVLW  20
0E922:  MOVWF  x57
0E924:  MOVLW  81
0E926:  MOVWF  x56
0E928:  MOVLB  0
0E92A:  CALL   3032
0E92E:  BNC   E940
....................             Tciclo=20; 
0E930:  MOVLB  2
0E932:  CLRF   xEF
0E934:  CLRF   xEE
0E936:  MOVLW  20
0E938:  MOVWF  xED
0E93A:  MOVLW  83
0E93C:  MOVWF  xEC
0E93E:  MOVLB  0
....................       }else if(Opcion2==5){ 
0E940:  BRA    EDFA
0E942:  MOVLB  3
0E944:  MOVF   x64,W
0E946:  SUBLW  05
0E948:  BNZ   E9FE
....................          printf("Config.t2c.txt=\"Ajuste +\""); 
0E94A:  MOVLW  FE
0E94C:  MOVWF  FF6
0E94E:  MOVLW  18
0E950:  MOVWF  FF7
0E952:  MOVLW  00
0E954:  MOVWF  FF8
0E956:  MOVLB  0
0E958:  CALL   3BB2
....................          SendDataDisplay();       
0E95C:  CALL   3BE4
....................          printf("t3c.txt=\"%u\"",Ajuste); 
0E960:  MOVLW  18
0E962:  MOVWF  FF6
0E964:  MOVLW  19
0E966:  MOVWF  FF7
0E968:  MOVLW  00
0E96A:  MOVWF  FF8
0E96C:  MOVLW  09
0E96E:  MOVLB  4
0E970:  MOVWF  x50
0E972:  MOVLB  0
0E974:  CALL   4B26
0E978:  MOVFF  2D9,450
0E97C:  MOVLW  1B
0E97E:  MOVLB  4
0E980:  MOVWF  x51
0E982:  MOVLB  0
0E984:  CALL   4B84
0E988:  MOVLW  22
0E98A:  BTFSS  F9E.4
0E98C:  BRA    E98A
0E98E:  MOVWF  FAD
....................          SendDataDisplay(); 
0E990:  CALL   3BE4
....................          if(RX_Buffer[4]==0x0a || UP){//Tecla Arriba Oprimida 
0E994:  MOVF   34,W
0E996:  SUBLW  0A
0E998:  BZ    E9A0
0E99A:  BSF    F93.0
0E99C:  BTFSC  F81.0
0E99E:  BRA    E9C8
....................             delay_ms(20); 
0E9A0:  MOVLW  14
0E9A2:  MOVLB  4
0E9A4:  MOVWF  x63
0E9A6:  MOVLB  0
0E9A8:  CALL   1A6C
....................             if(RX_Buffer[4]==0x0a || UP){ 
0E9AC:  MOVF   34,W
0E9AE:  SUBLW  0A
0E9B0:  BZ    E9B8
0E9B2:  BSF    F93.0
0E9B4:  BTFSC  F81.0
0E9B6:  BRA    E9C8
....................                if(Ajuste<100) 
0E9B8:  MOVLB  2
0E9BA:  MOVF   xD9,W
0E9BC:  SUBLW  63
0E9BE:  BNC   E9C2
....................                   Ajuste++; 
0E9C0:  INCF   xD9,F
....................                RX_Buffer[4]=0x00;   
0E9C2:  CLRF   34
....................                RX_Buffer2[4]=0x00;             
0E9C4:  CLRF   3F
0E9C6:  MOVLB  0
....................                //BorraBuffer(); 
....................             } 
....................          } 
....................              
....................          if(RX_Buffer[4]==0x0b || DOWN){//Tecla Abajo Oprimida 
0E9C8:  MOVF   34,W
0E9CA:  SUBLW  0B
0E9CC:  BZ    E9D4
0E9CE:  BSF    F93.1
0E9D0:  BTFSC  F81.1
0E9D2:  BRA    E9FA
....................             delay_ms(20); 
0E9D4:  MOVLW  14
0E9D6:  MOVLB  4
0E9D8:  MOVWF  x63
0E9DA:  MOVLB  0
0E9DC:  CALL   1A6C
....................             if(RX_Buffer[4]==0x0b || DOWN){ 
0E9E0:  MOVF   34,W
0E9E2:  SUBLW  0B
0E9E4:  BZ    E9EC
0E9E6:  BSF    F93.1
0E9E8:  BTFSC  F81.1
0E9EA:  BRA    E9FA
....................                if(Ajuste>0) 
0E9EC:  MOVLB  2
0E9EE:  MOVF   xD9,F
0E9F0:  BZ    E9F4
....................                   Ajuste--; 
0E9F2:  DECF   xD9,F
....................                RX_Buffer[4]=0x00; 
0E9F4:  CLRF   34
....................                RX_Buffer2[4]=0x00;             
0E9F6:  CLRF   3F
0E9F8:  MOVLB  0
....................                //BorraBuffer(); 
....................             } 
....................          } 
....................       }else if(Opcion2==6){ 
0E9FA:  BRA    EDFA
0E9FC:  MOVLB  3
0E9FE:  MOVF   x64,W
0EA00:  SUBLW  06
0EA02:  BNZ   EAB8
....................          printf("Config.t2c.txt=\"Ajuste -\""); 
0EA04:  MOVLW  26
0EA06:  MOVWF  FF6
0EA08:  MOVLW  19
0EA0A:  MOVWF  FF7
0EA0C:  MOVLW  00
0EA0E:  MOVWF  FF8
0EA10:  MOVLB  0
0EA12:  CALL   3BB2
....................          SendDataDisplay();       
0EA16:  CALL   3BE4
....................          printf("t3c.txt=\"%u\"",Ajusten); 
0EA1A:  MOVLW  40
0EA1C:  MOVWF  FF6
0EA1E:  MOVLW  19
0EA20:  MOVWF  FF7
0EA22:  MOVLW  00
0EA24:  MOVWF  FF8
0EA26:  MOVLW  09
0EA28:  MOVLB  4
0EA2A:  MOVWF  x50
0EA2C:  MOVLB  0
0EA2E:  CALL   4B26
0EA32:  MOVFF  2DA,450
0EA36:  MOVLW  1B
0EA38:  MOVLB  4
0EA3A:  MOVWF  x51
0EA3C:  MOVLB  0
0EA3E:  CALL   4B84
0EA42:  MOVLW  22
0EA44:  BTFSS  F9E.4
0EA46:  BRA    EA44
0EA48:  MOVWF  FAD
....................          SendDataDisplay(); 
0EA4A:  CALL   3BE4
....................          if(RX_Buffer[4]==0x0a || UP){//Tecla Arriba Oprimida 
0EA4E:  MOVF   34,W
0EA50:  SUBLW  0A
0EA52:  BZ    EA5A
0EA54:  BSF    F93.0
0EA56:  BTFSC  F81.0
0EA58:  BRA    EA82
....................             delay_ms(20); 
0EA5A:  MOVLW  14
0EA5C:  MOVLB  4
0EA5E:  MOVWF  x63
0EA60:  MOVLB  0
0EA62:  CALL   1A6C
....................             if(RX_Buffer[4]==0x0a || UP){ 
0EA66:  MOVF   34,W
0EA68:  SUBLW  0A
0EA6A:  BZ    EA72
0EA6C:  BSF    F93.0
0EA6E:  BTFSC  F81.0
0EA70:  BRA    EA82
....................                if(Ajusten<100) 
0EA72:  MOVLB  2
0EA74:  MOVF   xDA,W
0EA76:  SUBLW  63
0EA78:  BNC   EA7C
....................                   Ajusten++; 
0EA7A:  INCF   xDA,F
....................                RX_Buffer[4]=0x00;   
0EA7C:  CLRF   34
....................                RX_Buffer2[4]=0x00;             
0EA7E:  CLRF   3F
0EA80:  MOVLB  0
....................                //BorraBuffer(); 
....................             } 
....................          } 
....................              
....................          if(RX_Buffer[4]==0x0b || DOWN){//Tecla Abajo Oprimida 
0EA82:  MOVF   34,W
0EA84:  SUBLW  0B
0EA86:  BZ    EA8E
0EA88:  BSF    F93.1
0EA8A:  BTFSC  F81.1
0EA8C:  BRA    EAB4
....................             delay_ms(20); 
0EA8E:  MOVLW  14
0EA90:  MOVLB  4
0EA92:  MOVWF  x63
0EA94:  MOVLB  0
0EA96:  CALL   1A6C
....................             if(RX_Buffer[4]==0x0b || DOWN){ 
0EA9A:  MOVF   34,W
0EA9C:  SUBLW  0B
0EA9E:  BZ    EAA6
0EAA0:  BSF    F93.1
0EAA2:  BTFSC  F81.1
0EAA4:  BRA    EAB4
....................                if(Ajusten>0) 
0EAA6:  MOVLB  2
0EAA8:  MOVF   xDA,F
0EAAA:  BZ    EAAE
....................                   Ajusten--; 
0EAAC:  DECF   xDA,F
....................                RX_Buffer[4]=0x00; 
0EAAE:  CLRF   34
....................                RX_Buffer2[4]=0x00;             
0EAB0:  CLRF   3F
0EAB2:  MOVLB  0
....................                //BorraBuffer(); 
....................             } 
....................          } 
....................       }else if(Opcion2==7){ 
0EAB4:  BRA    EDFA
0EAB6:  MOVLB  3
0EAB8:  MOVF   x64,W
0EABA:  SUBLW  07
0EABC:  BNZ   EB74
....................          printf("Config.t2c.txt=\"Media\""); 
0EABE:  MOVLW  4E
0EAC0:  MOVWF  FF6
0EAC2:  MOVLW  19
0EAC4:  MOVWF  FF7
0EAC6:  MOVLW  00
0EAC8:  MOVWF  FF8
0EACA:  MOVLB  0
0EACC:  CALL   3BB2
....................          SendDataDisplay();       
0EAD0:  CALL   3BE4
....................          printf("t3c.txt=\"%u\"",MediaMovil); 
0EAD4:  MOVLW  66
0EAD6:  MOVWF  FF6
0EAD8:  MOVLW  19
0EADA:  MOVWF  FF7
0EADC:  MOVLW  00
0EADE:  MOVWF  FF8
0EAE0:  MOVLW  09
0EAE2:  MOVLB  4
0EAE4:  MOVWF  x50
0EAE6:  MOVLB  0
0EAE8:  CALL   4B26
0EAEC:  MOVFF  2DB,450
0EAF0:  MOVLW  1B
0EAF2:  MOVLB  4
0EAF4:  MOVWF  x51
0EAF6:  MOVLB  0
0EAF8:  CALL   4B84
0EAFC:  MOVLW  22
0EAFE:  BTFSS  F9E.4
0EB00:  BRA    EAFE
0EB02:  MOVWF  FAD
....................          SendDataDisplay(); 
0EB04:  CALL   3BE4
....................          if(RX_Buffer[4]==0x0a || UP){//Tecla Arriba Oprimida 
0EB08:  MOVF   34,W
0EB0A:  SUBLW  0A
0EB0C:  BZ    EB14
0EB0E:  BSF    F93.0
0EB10:  BTFSC  F81.0
0EB12:  BRA    EB3C
....................             delay_ms(20); 
0EB14:  MOVLW  14
0EB16:  MOVLB  4
0EB18:  MOVWF  x63
0EB1A:  MOVLB  0
0EB1C:  CALL   1A6C
....................             if(RX_Buffer[4]==0x0a || UP){ 
0EB20:  MOVF   34,W
0EB22:  SUBLW  0A
0EB24:  BZ    EB2C
0EB26:  BSF    F93.0
0EB28:  BTFSC  F81.0
0EB2A:  BRA    EB3C
....................                if(MediaMovil<80) 
0EB2C:  MOVLB  2
0EB2E:  MOVF   xDB,W
0EB30:  SUBLW  4F
0EB32:  BNC   EB36
....................                   MediaMovil++; 
0EB34:  INCF   xDB,F
....................                RX_Buffer[4]=0x00;   
0EB36:  CLRF   34
....................                RX_Buffer2[4]=0x00;             
0EB38:  CLRF   3F
0EB3A:  MOVLB  0
....................                //BorraBuffer(); 
....................             } 
....................          } 
....................              
....................          if(RX_Buffer[4]==0x0b || DOWN){//Tecla Abajo Oprimida 
0EB3C:  MOVF   34,W
0EB3E:  SUBLW  0B
0EB40:  BZ    EB48
0EB42:  BSF    F93.1
0EB44:  BTFSC  F81.1
0EB46:  BRA    EB70
....................             delay_ms(20); 
0EB48:  MOVLW  14
0EB4A:  MOVLB  4
0EB4C:  MOVWF  x63
0EB4E:  MOVLB  0
0EB50:  CALL   1A6C
....................             if(RX_Buffer[4]==0x0b || DOWN){ 
0EB54:  MOVF   34,W
0EB56:  SUBLW  0B
0EB58:  BZ    EB60
0EB5A:  BSF    F93.1
0EB5C:  BTFSC  F81.1
0EB5E:  BRA    EB70
....................                if(MediaMovil>10) 
0EB60:  MOVLB  2
0EB62:  MOVF   xDB,W
0EB64:  SUBLW  0A
0EB66:  BC    EB6A
....................                   MediaMovil--; 
0EB68:  DECF   xDB,F
....................                RX_Buffer[4]=0x00; 
0EB6A:  CLRF   34
....................                RX_Buffer2[4]=0x00;             
0EB6C:  CLRF   3F
0EB6E:  MOVLB  0
....................                //BorraBuffer(); 
....................             } 
....................          } 
....................       }else if(Opcion2==8){ 
0EB70:  BRA    EDFA
0EB72:  MOVLB  3
0EB74:  MOVF   x64,W
0EB76:  SUBLW  08
0EB78:  BNZ   EC32
....................          printf("Config.t2c.txt=\"Pulsos Purga\""); 
0EB7A:  MOVLW  74
0EB7C:  MOVWF  FF6
0EB7E:  MOVLW  19
0EB80:  MOVWF  FF7
0EB82:  MOVLW  00
0EB84:  MOVWF  FF8
0EB86:  MOVLB  0
0EB88:  CALL   3BB2
....................          SendDataDisplay();       
0EB8C:  CALL   3BE4
....................          printf("t3c.txt=\"%02u\"",pulsosPurgaProgramados); 
0EB90:  MOVLW  92
0EB92:  MOVWF  FF6
0EB94:  MOVLW  19
0EB96:  MOVWF  FF7
0EB98:  MOVLW  00
0EB9A:  MOVWF  FF8
0EB9C:  MOVLW  09
0EB9E:  MOVLB  4
0EBA0:  MOVWF  x50
0EBA2:  MOVLB  0
0EBA4:  CALL   4B26
0EBA8:  MOVFF  33C,450
0EBAC:  MOVLW  01
0EBAE:  MOVLB  4
0EBB0:  MOVWF  x51
0EBB2:  MOVLB  0
0EBB4:  CALL   4B84
0EBB8:  MOVLW  22
0EBBA:  BTFSS  F9E.4
0EBBC:  BRA    EBBA
0EBBE:  MOVWF  FAD
....................          SendDataDisplay(); 
0EBC0:  CALL   3BE4
....................          if(RX_Buffer[4]==0x0a || UP){//Tecla Arriba Oprimida 
0EBC4:  MOVF   34,W
0EBC6:  SUBLW  0A
0EBC8:  BZ    EBD0
0EBCA:  BSF    F93.0
0EBCC:  BTFSC  F81.0
0EBCE:  BRA    EBFA
....................             delay_ms(20); 
0EBD0:  MOVLW  14
0EBD2:  MOVLB  4
0EBD4:  MOVWF  x63
0EBD6:  MOVLB  0
0EBD8:  CALL   1A6C
....................             if(RX_Buffer[4]==0x0a || UP){ 
0EBDC:  MOVF   34,W
0EBDE:  SUBLW  0A
0EBE0:  BZ    EBE8
0EBE2:  BSF    F93.0
0EBE4:  BTFSC  F81.0
0EBE6:  BRA    EBFA
....................                if(pulsosPurgaProgramados<30) 
0EBE8:  MOVLB  3
0EBEA:  MOVF   x3C,W
0EBEC:  SUBLW  1D
0EBEE:  BNC   EBF4
....................                   pulsosPurgaProgramados+=1; 
0EBF0:  MOVLW  01
0EBF2:  ADDWF  x3C,F
....................                RX_Buffer[4]=0x00;   
0EBF4:  CLRF   34
....................                RX_Buffer2[4]=0x00;             
0EBF6:  CLRF   3F
0EBF8:  MOVLB  0
....................                //BorraBuffer(); 
....................             } 
....................          } 
....................              
....................          if(RX_Buffer[4]==0x0b || DOWN){//Tecla Abajo Oprimida 
0EBFA:  MOVF   34,W
0EBFC:  SUBLW  0B
0EBFE:  BZ    EC06
0EC00:  BSF    F93.1
0EC02:  BTFSC  F81.1
0EC04:  BRA    EC2E
....................             delay_ms(20); 
0EC06:  MOVLW  14
0EC08:  MOVLB  4
0EC0A:  MOVWF  x63
0EC0C:  MOVLB  0
0EC0E:  CALL   1A6C
....................             if(RX_Buffer[4]==0x0b || DOWN){ 
0EC12:  MOVF   34,W
0EC14:  SUBLW  0B
0EC16:  BZ    EC1E
0EC18:  BSF    F93.1
0EC1A:  BTFSC  F81.1
0EC1C:  BRA    EC2E
....................                if(pulsosPurgaProgramados>0) 
0EC1E:  MOVLB  3
0EC20:  MOVF   x3C,F
0EC22:  BZ    EC28
....................                   pulsosPurgaProgramados-=1; 
0EC24:  MOVLW  01
0EC26:  SUBWF  x3C,F
....................                RX_Buffer[4]=0x00; 
0EC28:  CLRF   34
....................                RX_Buffer2[4]=0x00;             
0EC2A:  CLRF   3F
0EC2C:  MOVLB  0
....................                //BorraBuffer(); 
....................             } 
....................          } 
....................       }else if(Opcion2==9){ 
0EC2E:  BRA    EDFA
0EC30:  MOVLB  3
0EC32:  MOVF   x64,W
0EC34:  SUBLW  09
0EC36:  BNZ   ECEE
....................          printf("Config.t2c.txt=\"TTrampa\""); 
0EC38:  MOVLW  A2
0EC3A:  MOVWF  FF6
0EC3C:  MOVLW  19
0EC3E:  MOVWF  FF7
0EC40:  MOVLW  00
0EC42:  MOVWF  FF8
0EC44:  MOVLB  0
0EC46:  CALL   3BB2
....................          SendDataDisplay();       
0EC4A:  CALL   3BE4
....................          printf("t3c.txt=\"%02u\"",TTrampa); 
0EC4E:  MOVLW  BC
0EC50:  MOVWF  FF6
0EC52:  MOVLW  19
0EC54:  MOVWF  FF7
0EC56:  MOVLW  00
0EC58:  MOVWF  FF8
0EC5A:  MOVLW  09
0EC5C:  MOVLB  4
0EC5E:  MOVWF  x50
0EC60:  MOVLB  0
0EC62:  CALL   4B26
0EC66:  MOVFF  2DC,450
0EC6A:  MOVLW  01
0EC6C:  MOVLB  4
0EC6E:  MOVWF  x51
0EC70:  MOVLB  0
0EC72:  CALL   4B84
0EC76:  MOVLW  22
0EC78:  BTFSS  F9E.4
0EC7A:  BRA    EC78
0EC7C:  MOVWF  FAD
....................          SendDataDisplay(); 
0EC7E:  CALL   3BE4
....................          if(RX_Buffer[4]==0x0a || UP){//Tecla Arriba Oprimida 
0EC82:  MOVF   34,W
0EC84:  SUBLW  0A
0EC86:  BZ    EC8E
0EC88:  BSF    F93.0
0EC8A:  BTFSC  F81.0
0EC8C:  BRA    ECB6
....................             delay_ms(20); 
0EC8E:  MOVLW  14
0EC90:  MOVLB  4
0EC92:  MOVWF  x63
0EC94:  MOVLB  0
0EC96:  CALL   1A6C
....................             if(RX_Buffer[4]==0x0a || UP){ 
0EC9A:  MOVF   34,W
0EC9C:  SUBLW  0A
0EC9E:  BZ    ECA6
0ECA0:  BSF    F93.0
0ECA2:  BTFSC  F81.0
0ECA4:  BRA    ECB6
....................                if(TTrampa<100) 
0ECA6:  MOVLB  2
0ECA8:  MOVF   xDC,W
0ECAA:  SUBLW  63
0ECAC:  BNC   ECB0
....................                   TTrampa++; 
0ECAE:  INCF   xDC,F
....................                RX_Buffer[4]=0x00;   
0ECB0:  CLRF   34
....................                RX_Buffer2[4]=0x00;             
0ECB2:  CLRF   3F
0ECB4:  MOVLB  0
....................                //BorraBuffer(); 
....................             } 
....................          } 
....................              
....................          if(RX_Buffer[4]==0x0b || DOWN){//Tecla Abajo Oprimida 
0ECB6:  MOVF   34,W
0ECB8:  SUBLW  0B
0ECBA:  BZ    ECC2
0ECBC:  BSF    F93.1
0ECBE:  BTFSC  F81.1
0ECC0:  BRA    ECEA
....................             delay_ms(20); 
0ECC2:  MOVLW  14
0ECC4:  MOVLB  4
0ECC6:  MOVWF  x63
0ECC8:  MOVLB  0
0ECCA:  CALL   1A6C
....................             if(RX_Buffer[4]==0x0b || DOWN){ 
0ECCE:  MOVF   34,W
0ECD0:  SUBLW  0B
0ECD2:  BZ    ECDA
0ECD4:  BSF    F93.1
0ECD6:  BTFSC  F81.1
0ECD8:  BRA    ECEA
....................                if(TTrampa>50) 
0ECDA:  MOVLB  2
0ECDC:  MOVF   xDC,W
0ECDE:  SUBLW  32
0ECE0:  BC    ECE4
....................                   TTrampa--; 
0ECE2:  DECF   xDC,F
....................                RX_Buffer[4]=0x00; 
0ECE4:  CLRF   34
....................                RX_Buffer2[4]=0x00;             
0ECE6:  CLRF   3F
0ECE8:  MOVLB  0
....................                //BorraBuffer(); 
....................             } 
....................          } 
....................       }else if(Opcion2==10){ 
0ECEA:  BRA    EDFA
0ECEC:  MOVLB  3
0ECEE:  MOVF   x64,W
0ECF0:  SUBLW  0A
0ECF2:  BNZ   ED42
....................          printf("Config.t2c.txt=\"Ciclos\""); 
0ECF4:  MOVLW  CC
0ECF6:  MOVWF  FF6
0ECF8:  MOVLW  19
0ECFA:  MOVWF  FF7
0ECFC:  MOVLW  00
0ECFE:  MOVWF  FF8
0ED00:  MOVLB  0
0ED02:  CALL   3BB2
....................          SendDataDisplay();       
0ED06:  CALL   3BE4
....................          printf("t3c.txt=\"%05Lu\"",Ciclos); 
0ED0A:  MOVLW  E4
0ED0C:  MOVWF  FF6
0ED0E:  MOVLW  19
0ED10:  MOVWF  FF7
0ED12:  MOVLW  00
0ED14:  MOVWF  FF8
0ED16:  MOVLW  09
0ED18:  MOVLB  4
0ED1A:  MOVWF  x50
0ED1C:  MOVLB  0
0ED1E:  CALL   4B26
0ED22:  MOVLW  08
0ED24:  MOVWF  FE9
0ED26:  MOVFF  379,451
0ED2A:  MOVFF  378,450
0ED2E:  CALL   54F8
0ED32:  MOVLW  22
0ED34:  BTFSS  F9E.4
0ED36:  BRA    ED34
0ED38:  MOVWF  FAD
....................          SendDataDisplay(); 
0ED3A:  CALL   3BE4
....................       }else if(Opcion2==11){ 
0ED3E:  BRA    EDFA
0ED40:  MOVLB  3
0ED42:  MOVF   x64,W
0ED44:  SUBLW  0B
0ED46:  BNZ   EDF8
....................          printf("Config.t2c.txt=\"Atmosferica\""); 
0ED48:  MOVLW  F4
0ED4A:  MOVWF  FF6
0ED4C:  MOVLW  19
0ED4E:  MOVWF  FF7
0ED50:  MOVLW  00
0ED52:  MOVWF  FF8
0ED54:  MOVLB  0
0ED56:  CALL   3BB2
....................          SendDataDisplay();    
0ED5A:  CALL   3BE4
....................          printf("t3c.txt=\"%02u\"",Atmosferica); 
0ED5E:  MOVLW  12
0ED60:  MOVWF  FF6
0ED62:  MOVLW  1A
0ED64:  MOVWF  FF7
0ED66:  MOVLW  00
0ED68:  MOVWF  FF8
0ED6A:  MOVLW  09
0ED6C:  MOVLB  4
0ED6E:  MOVWF  x50
0ED70:  MOVLB  0
0ED72:  CALL   4B26
0ED76:  MOVFF  3B9,450
0ED7A:  MOVLW  01
0ED7C:  MOVLB  4
0ED7E:  MOVWF  x51
0ED80:  MOVLB  0
0ED82:  CALL   4B84
0ED86:  MOVLW  22
0ED88:  BTFSS  F9E.4
0ED8A:  BRA    ED88
0ED8C:  MOVWF  FAD
....................          SendDataDisplay(); 
0ED8E:  CALL   3BE4
....................           
....................          #if defined(PT100Fija) && !defined(Absoluta) 
....................             Atmosferica=0; 
....................          #else 
....................             if(RX_Buffer[4]==0x0a || UP){//Tecla Arriba Oprimida 
0ED92:  MOVF   34,W
0ED94:  SUBLW  0A
0ED96:  BZ    ED9E
0ED98:  BSF    F93.0
0ED9A:  BTFSC  F81.0
0ED9C:  BRA    EDC6
....................                delay_ms(20); 
0ED9E:  MOVLW  14
0EDA0:  MOVLB  4
0EDA2:  MOVWF  x63
0EDA4:  MOVLB  0
0EDA6:  CALL   1A6C
....................                if(RX_Buffer[4]==0x0a || UP){ 
0EDAA:  MOVF   34,W
0EDAC:  SUBLW  0A
0EDAE:  BZ    EDB6
0EDB0:  BSF    F93.0
0EDB2:  BTFSC  F81.0
0EDB4:  BRA    EDC6
....................                   if(Atmosferica<100) 
0EDB6:  MOVLB  3
0EDB8:  MOVF   xB9,W
0EDBA:  SUBLW  63
0EDBC:  BNC   EDC0
....................                      Atmosferica++; 
0EDBE:  INCF   xB9,F
....................                   RX_Buffer[4]=0x00;   
0EDC0:  CLRF   34
....................                   RX_Buffer2[4]=0x00;             
0EDC2:  CLRF   3F
0EDC4:  MOVLB  0
....................                   //BorraBuffer(); 
....................                } 
....................             } 
....................                 
....................             if(RX_Buffer[4]==0x0b || DOWN){//Tecla Abajo Oprimida 
0EDC6:  MOVF   34,W
0EDC8:  SUBLW  0B
0EDCA:  BZ    EDD2
0EDCC:  BSF    F93.1
0EDCE:  BTFSC  F81.1
0EDD0:  BRA    EDFA
....................                delay_ms(20); 
0EDD2:  MOVLW  14
0EDD4:  MOVLB  4
0EDD6:  MOVWF  x63
0EDD8:  MOVLB  0
0EDDA:  CALL   1A6C
....................                if(RX_Buffer[4]==0x0b || DOWN){ 
0EDDE:  MOVF   34,W
0EDE0:  SUBLW  0B
0EDE2:  BZ    EDEA
0EDE4:  BSF    F93.1
0EDE6:  BTFSC  F81.1
0EDE8:  BRA    EDFA
....................                   if(Atmosferica>50) 
0EDEA:  MOVLB  3
0EDEC:  MOVF   xB9,W
0EDEE:  SUBLW  32
0EDF0:  BC    EDF4
....................                      Atmosferica--; 
0EDF2:  DECF   xB9,F
....................                   RX_Buffer[4]=0x00; 
0EDF4:  CLRF   34
....................                   RX_Buffer2[4]=0x00;             
0EDF6:  CLRF   3F
0EDF8:  MOVLB  0
....................                   //BorraBuffer(); 
....................                } 
....................             }  
....................          #endif 
....................       } 
....................        
....................       if(RX_Buffer[4]==0x0c || LEFT){//Tecla Izquierda Oprimida 
0EDFA:  MOVF   34,W
0EDFC:  SUBLW  0C
0EDFE:  BZ    EE06
0EE00:  BSF    F93.3
0EE02:  BTFSC  F81.3
0EE04:  BRA    EE28
....................          delay_ms(20); 
0EE06:  MOVLW  14
0EE08:  MOVLB  4
0EE0A:  MOVWF  x63
0EE0C:  MOVLB  0
0EE0E:  CALL   1A6C
....................          if(RX_Buffer[4]==0x0c || LEFT){ 
0EE12:  MOVF   34,W
0EE14:  SUBLW  0C
0EE16:  BZ    EE1E
0EE18:  BSF    F93.3
0EE1A:  BTFSC  F81.3
0EE1C:  BRA    EE28
....................             Opcion2++; 
0EE1E:  MOVLB  3
0EE20:  INCF   x64,F
....................             RX_Buffer[4]=0x00;   
0EE22:  CLRF   34
....................             RX_Buffer2[4]=0x00;             
0EE24:  CLRF   3F
0EE26:  MOVLB  0
....................             //BorraBuffer(); 
....................          } 
....................       } 
....................           
....................       if(RX_Buffer[4]==0x0d || RIGHT){//Tecla Derecha Oprimida 
0EE28:  MOVF   34,W
0EE2A:  SUBLW  0D
0EE2C:  BZ    EE34
0EE2E:  BSF    F93.2
0EE30:  BTFSC  F81.2
0EE32:  BRA    EE56
....................          delay_ms(20); 
0EE34:  MOVLW  14
0EE36:  MOVLB  4
0EE38:  MOVWF  x63
0EE3A:  MOVLB  0
0EE3C:  CALL   1A6C
....................          if(RX_Buffer[4]==0x0d || RIGHT){ 
0EE40:  MOVF   34,W
0EE42:  SUBLW  0D
0EE44:  BZ    EE4C
0EE46:  BSF    F93.2
0EE48:  BTFSC  F81.2
0EE4A:  BRA    EE56
....................             Opcion2--; 
0EE4C:  MOVLB  3
0EE4E:  DECF   x64,F
....................             RX_Buffer[4]=0x00; 
0EE50:  CLRF   34
....................             RX_Buffer2[4]=0x00;             
0EE52:  CLRF   3F
0EE54:  MOVLB  0
....................             //BorraBuffer(); 
....................          } 
....................       } 
....................        
....................       if(RX_Buffer[4]==0x11 || (RIGHT && LEFT)){//Tecla Regresar 
0EE56:  MOVF   34,W
0EE58:  SUBLW  11
0EE5A:  BZ    EE68
0EE5C:  BSF    F93.2
0EE5E:  BTFSC  F81.2
0EE60:  BRA    F244
0EE62:  BSF    F93.3
0EE64:  BTFSC  F81.3
0EE66:  BRA    F244
....................          delay_ms(20); 
0EE68:  MOVLW  14
0EE6A:  MOVLB  4
0EE6C:  MOVWF  x63
0EE6E:  MOVLB  0
0EE70:  CALL   1A6C
....................          if(RX_Buffer[4]==0x11 || (RIGHT && LEFT)){ 
0EE74:  MOVF   34,W
0EE76:  SUBLW  11
0EE78:  BZ    EE86
0EE7A:  BSF    F93.2
0EE7C:  BTFSC  F81.2
0EE7E:  BRA    F244
0EE80:  BSF    F93.3
0EE82:  BTFSC  F81.3
0EE84:  BRA    F244
....................             if(!GuardaEEPROM){ 
0EE86:  BTFSC  xA2.6
0EE88:  BRA    F230
....................                write_eeprom(20,(int8)Ganancia); 
0EE8A:  MOVFF  307,462
0EE8E:  MOVFF  306,461
0EE92:  MOVFF  305,460
0EE96:  MOVFF  304,45F
0EE9A:  CALL   43CC
0EE9E:  MOVFF  01,44A
0EEA2:  CLRF   FAA
0EEA4:  MOVLW  14
0EEA6:  MOVWF  FA9
0EEA8:  MOVFF  44A,FA8
0EEAC:  BCF    FA6.6
0EEAE:  BCF    FA6.7
0EEB0:  BSF    FA6.2
0EEB2:  MOVF   FF2,W
0EEB4:  MOVWF  00
0EEB6:  BCF    FF2.6
0EEB8:  BCF    FF2.7
0EEBA:  MOVLB  F
0EEBC:  MOVLW  55
0EEBE:  MOVWF  FA7
0EEC0:  MOVLW  AA
0EEC2:  MOVWF  FA7
0EEC4:  BSF    FA6.1
0EEC6:  BTFSC  FA6.1
0EEC8:  BRA    EEC6
0EECA:  BCF    FA6.2
0EECC:  MOVF   00,W
0EECE:  IORWF  FF2,F
....................                delay_ms(10); 
0EED0:  MOVLW  0A
0EED2:  MOVLB  4
0EED4:  MOVWF  x63
0EED6:  MOVLB  0
0EED8:  CALL   1A6C
....................                write_eeprom(26,(int8)Integral); 
0EEDC:  CLRF   FAA
0EEDE:  MOVLW  1A
0EEE0:  MOVWF  FA9
0EEE2:  MOVFF  338,FA8
0EEE6:  BCF    FA6.6
0EEE8:  BCF    FA6.7
0EEEA:  BSF    FA6.2
0EEEC:  MOVF   FF2,W
0EEEE:  MOVWF  00
0EEF0:  BCF    FF2.6
0EEF2:  BCF    FF2.7
0EEF4:  MOVLB  F
0EEF6:  MOVLW  55
0EEF8:  MOVWF  FA7
0EEFA:  MOVLW  AA
0EEFC:  MOVWF  FA7
0EEFE:  BSF    FA6.1
0EF00:  BTFSC  FA6.1
0EF02:  BRA    EF00
0EF04:  BCF    FA6.2
0EF06:  MOVF   00,W
0EF08:  IORWF  FF2,F
....................                delay_ms(10); 
0EF0A:  MOVLW  0A
0EF0C:  MOVLB  4
0EF0E:  MOVWF  x63
0EF10:  MOVLB  0
0EF12:  CALL   1A6C
....................                write_eeprom(27,(int8)Derivativo); 
0EF16:  CLRF   FAA
0EF18:  MOVLW  1B
0EF1A:  MOVWF  FA9
0EF1C:  MOVFF  339,FA8
0EF20:  BCF    FA6.6
0EF22:  BCF    FA6.7
0EF24:  BSF    FA6.2
0EF26:  MOVF   FF2,W
0EF28:  MOVWF  00
0EF2A:  BCF    FF2.6
0EF2C:  BCF    FF2.7
0EF2E:  MOVLB  F
0EF30:  MOVLW  55
0EF32:  MOVWF  FA7
0EF34:  MOVLW  AA
0EF36:  MOVWF  FA7
0EF38:  BSF    FA6.1
0EF3A:  BTFSC  FA6.1
0EF3C:  BRA    EF3A
0EF3E:  BCF    FA6.2
0EF40:  MOVF   00,W
0EF42:  IORWF  FF2,F
....................                delay_ms(10); 
0EF44:  MOVLW  0A
0EF46:  MOVLB  4
0EF48:  MOVWF  x63
0EF4A:  MOVLB  0
0EF4C:  CALL   1A6C
....................                write_eeprom(25,(int8)Tciclo); 
0EF50:  MOVFF  2EF,462
0EF54:  MOVFF  2EE,461
0EF58:  MOVFF  2ED,460
0EF5C:  MOVFF  2EC,45F
0EF60:  CALL   43CC
0EF64:  MOVFF  01,44A
0EF68:  CLRF   FAA
0EF6A:  MOVLW  19
0EF6C:  MOVWF  FA9
0EF6E:  MOVFF  44A,FA8
0EF72:  BCF    FA6.6
0EF74:  BCF    FA6.7
0EF76:  BSF    FA6.2
0EF78:  MOVF   FF2,W
0EF7A:  MOVWF  00
0EF7C:  BCF    FF2.6
0EF7E:  BCF    FF2.7
0EF80:  MOVLB  F
0EF82:  MOVLW  55
0EF84:  MOVWF  FA7
0EF86:  MOVLW  AA
0EF88:  MOVWF  FA7
0EF8A:  BSF    FA6.1
0EF8C:  BTFSC  FA6.1
0EF8E:  BRA    EF8C
0EF90:  BCF    FA6.2
0EF92:  MOVF   00,W
0EF94:  IORWF  FF2,F
....................                delay_ms(10); 
0EF96:  MOVLW  0A
0EF98:  MOVLB  4
0EF9A:  MOVWF  x63
0EF9C:  MOVLB  0
0EF9E:  CALL   1A6C
....................                write_eeprom(21,Ajuste); 
0EFA2:  CLRF   FAA
0EFA4:  MOVLW  15
0EFA6:  MOVWF  FA9
0EFA8:  MOVFF  2D9,FA8
0EFAC:  BCF    FA6.6
0EFAE:  BCF    FA6.7
0EFB0:  BSF    FA6.2
0EFB2:  MOVF   FF2,W
0EFB4:  MOVWF  00
0EFB6:  BCF    FF2.6
0EFB8:  BCF    FF2.7
0EFBA:  MOVLB  F
0EFBC:  MOVLW  55
0EFBE:  MOVWF  FA7
0EFC0:  MOVLW  AA
0EFC2:  MOVWF  FA7
0EFC4:  BSF    FA6.1
0EFC6:  BTFSC  FA6.1
0EFC8:  BRA    EFC6
0EFCA:  BCF    FA6.2
0EFCC:  MOVF   00,W
0EFCE:  IORWF  FF2,F
....................                delay_ms(10); 
0EFD0:  MOVLW  0A
0EFD2:  MOVLB  4
0EFD4:  MOVWF  x63
0EFD6:  MOVLB  0
0EFD8:  CALL   1A6C
....................                write_eeprom(22,Ajusten); 
0EFDC:  CLRF   FAA
0EFDE:  MOVLW  16
0EFE0:  MOVWF  FA9
0EFE2:  MOVFF  2DA,FA8
0EFE6:  BCF    FA6.6
0EFE8:  BCF    FA6.7
0EFEA:  BSF    FA6.2
0EFEC:  MOVF   FF2,W
0EFEE:  MOVWF  00
0EFF0:  BCF    FF2.6
0EFF2:  BCF    FF2.7
0EFF4:  MOVLB  F
0EFF6:  MOVLW  55
0EFF8:  MOVWF  FA7
0EFFA:  MOVLW  AA
0EFFC:  MOVWF  FA7
0EFFE:  BSF    FA6.1
0F000:  BTFSC  FA6.1
0F002:  BRA    F000
0F004:  BCF    FA6.2
0F006:  MOVF   00,W
0F008:  IORWF  FF2,F
....................                delay_ms(10); 
0F00A:  MOVLW  0A
0F00C:  MOVLB  4
0F00E:  MOVWF  x63
0F010:  MOVLB  0
0F012:  CALL   1A6C
....................                write_eeprom(24,(int8)MediaMovil); 
0F016:  CLRF   FAA
0F018:  MOVLW  18
0F01A:  MOVWF  FA9
0F01C:  MOVFF  2DB,FA8
0F020:  BCF    FA6.6
0F022:  BCF    FA6.7
0F024:  BSF    FA6.2
0F026:  MOVF   FF2,W
0F028:  MOVWF  00
0F02A:  BCF    FF2.6
0F02C:  BCF    FF2.7
0F02E:  MOVLB  F
0F030:  MOVLW  55
0F032:  MOVWF  FA7
0F034:  MOVLW  AA
0F036:  MOVWF  FA7
0F038:  BSF    FA6.1
0F03A:  BTFSC  FA6.1
0F03C:  BRA    F03A
0F03E:  BCF    FA6.2
0F040:  MOVF   00,W
0F042:  IORWF  FF2,F
....................                delay_ms(10); 
0F044:  MOVLW  0A
0F046:  MOVLB  4
0F048:  MOVWF  x63
0F04A:  MOVLB  0
0F04C:  CALL   1A6C
....................                write_eeprom(32,(int8)RPT100); 
0F050:  MOVFF  2AA,462
0F054:  MOVFF  2A9,461
0F058:  MOVFF  2A8,460
0F05C:  MOVFF  2A7,45F
0F060:  CALL   43CC
0F064:  MOVFF  01,44A
0F068:  CLRF   FAA
0F06A:  MOVLW  20
0F06C:  MOVWF  FA9
0F06E:  MOVFF  44A,FA8
0F072:  BCF    FA6.6
0F074:  BCF    FA6.7
0F076:  BSF    FA6.2
0F078:  MOVF   FF2,W
0F07A:  MOVWF  00
0F07C:  BCF    FF2.6
0F07E:  BCF    FF2.7
0F080:  MOVLB  F
0F082:  MOVLW  55
0F084:  MOVWF  FA7
0F086:  MOVLW  AA
0F088:  MOVWF  FA7
0F08A:  BSF    FA6.1
0F08C:  BTFSC  FA6.1
0F08E:  BRA    F08C
0F090:  BCF    FA6.2
0F092:  MOVF   00,W
0F094:  IORWF  FF2,F
....................                delay_ms(10); 
0F096:  MOVLW  0A
0F098:  MOVLB  4
0F09A:  MOVWF  x63
0F09C:  MOVLB  0
0F09E:  CALL   1A6C
....................                Temporal=RPT100-((int8)RPT100); 
0F0A2:  MOVFF  2AA,462
0F0A6:  MOVFF  2A9,461
0F0AA:  MOVFF  2A8,460
0F0AE:  MOVFF  2A7,45F
0F0B2:  CALL   43CC
0F0B6:  MOVLB  4
0F0B8:  CLRF   x60
0F0BA:  MOVFF  01,45F
0F0BE:  MOVLB  0
0F0C0:  CALL   1A94
0F0C4:  BSF    FD8.1
0F0C6:  MOVFF  2AA,462
0F0CA:  MOVFF  2A9,461
0F0CE:  MOVFF  2A8,460
0F0D2:  MOVFF  2A7,45F
0F0D6:  MOVFF  03,466
0F0DA:  MOVFF  02,465
0F0DE:  MOVFF  01,464
0F0E2:  MOVFF  00,463
0F0E6:  CALL   1C28
0F0EA:  MOVFF  03,2AE
0F0EE:  MOVFF  02,2AD
0F0F2:  MOVFF  01,2AC
0F0F6:  MOVFF  00,2AB
....................                Temporal=Temporal*10; 
0F0FA:  MOVFF  2AE,466
0F0FE:  MOVFF  2AD,465
0F102:  MOVFF  2AC,464
0F106:  MOVFF  2AB,463
0F10A:  MOVLB  4
0F10C:  CLRF   x6A
0F10E:  CLRF   x69
0F110:  MOVLW  20
0F112:  MOVWF  x68
0F114:  MOVLW  82
0F116:  MOVWF  x67
0F118:  MOVLB  0
0F11A:  CALL   3C90
0F11E:  MOVFF  03,2AE
0F122:  MOVFF  02,2AD
0F126:  MOVFF  01,2AC
0F12A:  MOVFF  00,2AB
....................                write_eeprom(33,(int8)Temporal); 
0F12E:  MOVFF  2AE,462
0F132:  MOVFF  2AD,461
0F136:  MOVFF  2AC,460
0F13A:  MOVFF  2AB,45F
0F13E:  CALL   43CC
0F142:  MOVFF  01,44A
0F146:  CLRF   FAA
0F148:  MOVLW  21
0F14A:  MOVWF  FA9
0F14C:  MOVFF  44A,FA8
0F150:  BCF    FA6.6
0F152:  BCF    FA6.7
0F154:  BSF    FA6.2
0F156:  MOVF   FF2,W
0F158:  MOVWF  00
0F15A:  BCF    FF2.6
0F15C:  BCF    FF2.7
0F15E:  MOVLB  F
0F160:  MOVLW  55
0F162:  MOVWF  FA7
0F164:  MOVLW  AA
0F166:  MOVWF  FA7
0F168:  BSF    FA6.1
0F16A:  BTFSC  FA6.1
0F16C:  BRA    F16A
0F16E:  BCF    FA6.2
0F170:  MOVF   00,W
0F172:  IORWF  FF2,F
....................                delay_ms(10); 
0F174:  MOVLW  0A
0F176:  MOVLB  4
0F178:  MOVWF  x63
0F17A:  MOVLB  0
0F17C:  CALL   1A6C
....................                write_eeprom(39,TTrampa); 
0F180:  CLRF   FAA
0F182:  MOVLW  27
0F184:  MOVWF  FA9
0F186:  MOVFF  2DC,FA8
0F18A:  BCF    FA6.6
0F18C:  BCF    FA6.7
0F18E:  BSF    FA6.2
0F190:  MOVF   FF2,W
0F192:  MOVWF  00
0F194:  BCF    FF2.6
0F196:  BCF    FF2.7
0F198:  MOVLB  F
0F19A:  MOVLW  55
0F19C:  MOVWF  FA7
0F19E:  MOVLW  AA
0F1A0:  MOVWF  FA7
0F1A2:  BSF    FA6.1
0F1A4:  BTFSC  FA6.1
0F1A6:  BRA    F1A4
0F1A8:  BCF    FA6.2
0F1AA:  MOVF   00,W
0F1AC:  IORWF  FF2,F
....................                delay_ms(10); 
0F1AE:  MOVLW  0A
0F1B0:  MOVLB  4
0F1B2:  MOVWF  x63
0F1B4:  MOVLB  0
0F1B6:  CALL   1A6C
....................                write_eeprom(46,Atmosferica); 
0F1BA:  CLRF   FAA
0F1BC:  MOVLW  2E
0F1BE:  MOVWF  FA9
0F1C0:  MOVFF  3B9,FA8
0F1C4:  BCF    FA6.6
0F1C6:  BCF    FA6.7
0F1C8:  BSF    FA6.2
0F1CA:  MOVF   FF2,W
0F1CC:  MOVWF  00
0F1CE:  BCF    FF2.6
0F1D0:  BCF    FF2.7
0F1D2:  MOVLB  F
0F1D4:  MOVLW  55
0F1D6:  MOVWF  FA7
0F1D8:  MOVLW  AA
0F1DA:  MOVWF  FA7
0F1DC:  BSF    FA6.1
0F1DE:  BTFSC  FA6.1
0F1E0:  BRA    F1DE
0F1E2:  BCF    FA6.2
0F1E4:  MOVF   00,W
0F1E6:  IORWF  FF2,F
....................                delay_ms(10); 
0F1E8:  MOVLW  0A
0F1EA:  MOVLB  4
0F1EC:  MOVWF  x63
0F1EE:  MOVLB  0
0F1F0:  CALL   1A6C
....................                write_eeprom(47,pulsosPurgaProgramados); 
0F1F4:  CLRF   FAA
0F1F6:  MOVLW  2F
0F1F8:  MOVWF  FA9
0F1FA:  MOVFF  33C,FA8
0F1FE:  BCF    FA6.6
0F200:  BCF    FA6.7
0F202:  BSF    FA6.2
0F204:  MOVF   FF2,W
0F206:  MOVWF  00
0F208:  BCF    FF2.6
0F20A:  BCF    FF2.7
0F20C:  MOVLB  F
0F20E:  MOVLW  55
0F210:  MOVWF  FA7
0F212:  MOVLW  AA
0F214:  MOVWF  FA7
0F216:  BSF    FA6.1
0F218:  BTFSC  FA6.1
0F21A:  BRA    F218
0F21C:  BCF    FA6.2
0F21E:  MOVF   00,W
0F220:  IORWF  FF2,F
....................                delay_ms(10); 
0F222:  MOVLW  0A
0F224:  MOVLB  4
0F226:  MOVWF  x63
0F228:  MOVLB  0
0F22A:  CALL   1A6C
....................                GuardaEEPROM=ON; 
0F22E:  BSF    xA2.6
....................             } 
....................             printf("page MenuPrincipal"); 
0F230:  MOVLW  22
0F232:  MOVWF  FF6
0F234:  MOVLW  1A
0F236:  MOVWF  FF7
0F238:  MOVLW  00
0F23A:  MOVWF  FF8
0F23C:  CALL   3BB2
....................             SendDataDisplay(); 
0F240:  CALL   3BE4
....................             //BorraBuffer(); 
....................          } 
....................       } 
....................       printf("fecha.txt=\"Fecha:%02u/%02u/20%02u    Hora: %02u:%02u\"",Dia,Mes,Year,Hora,Minuto); 
0F244:  MOVLW  36
0F246:  MOVWF  FF6
0F248:  MOVLW  1A
0F24A:  MOVWF  FF7
0F24C:  MOVLW  00
0F24E:  MOVWF  FF8
0F250:  MOVLW  11
0F252:  MOVLB  4
0F254:  MOVWF  x50
0F256:  MOVLB  0
0F258:  CALL   4B26
0F25C:  MOVFF  3AB,450
0F260:  MOVLW  01
0F262:  MOVLB  4
0F264:  MOVWF  x51
0F266:  MOVLB  0
0F268:  CALL   4B84
0F26C:  MOVLW  2F
0F26E:  BTFSS  F9E.4
0F270:  BRA    F26E
0F272:  MOVWF  FAD
0F274:  MOVFF  3AA,450
0F278:  MOVLW  01
0F27A:  MOVLB  4
0F27C:  MOVWF  x51
0F27E:  MOVLB  0
0F280:  CALL   4B84
0F284:  MOVLW  2F
0F286:  BTFSS  F9E.4
0F288:  BRA    F286
0F28A:  MOVWF  FAD
0F28C:  MOVLW  32
0F28E:  BTFSS  F9E.4
0F290:  BRA    F28E
0F292:  MOVWF  FAD
0F294:  MOVLW  30
0F296:  BTFSS  F9E.4
0F298:  BRA    F296
0F29A:  MOVWF  FAD
0F29C:  MOVFF  3A9,450
0F2A0:  MOVLW  01
0F2A2:  MOVLB  4
0F2A4:  MOVWF  x51
0F2A6:  MOVLB  0
0F2A8:  CALL   4B84
0F2AC:  MOVLW  57
0F2AE:  MOVWF  FF6
0F2B0:  MOVLW  1A
0F2B2:  MOVWF  FF7
0F2B4:  MOVLW  00
0F2B6:  MOVWF  FF8
0F2B8:  MOVLW  0A
0F2BA:  MOVLB  4
0F2BC:  MOVWF  x50
0F2BE:  MOVLB  0
0F2C0:  CALL   4B26
0F2C4:  MOVFF  3AC,450
0F2C8:  MOVLW  01
0F2CA:  MOVLB  4
0F2CC:  MOVWF  x51
0F2CE:  MOVLB  0
0F2D0:  CALL   4B84
0F2D4:  MOVLW  3A
0F2D6:  BTFSS  F9E.4
0F2D8:  BRA    F2D6
0F2DA:  MOVWF  FAD
0F2DC:  MOVFF  3AD,450
0F2E0:  MOVLW  01
0F2E2:  MOVLB  4
0F2E4:  MOVWF  x51
0F2E6:  MOVLB  0
0F2E8:  CALL   4B84
0F2EC:  MOVLW  22
0F2EE:  BTFSS  F9E.4
0F2F0:  BRA    F2EE
0F2F2:  MOVWF  FAD
....................       SendDataDisplay();  
0F2F4:  CALL   3BE4
0F2F8:  MOVLB  3
....................     } 
.................... //_--------------------------------------------------------------------------------------------------------------------------------------------------------        
....................  
....................    } 
0F2FA:  GOTO   8D92
.................... } 
0F2FE:  SLEEP 

Configuration Fuses:
   Word  1: 0200   HS NOIESO NOFCMEN
   Word  2: 1B08   NOBROWNOUT WDT BORV42 PUT WDT8192
   Word  3: 0000   NOPBADEN NOLPT1OSC NOMCLR
   Word  4: 00B0   NOSTVREN NODEBUG NOLVP NOXINST BBSIZ4K
   Word  5: C03F   NOPROTECT NOCPD NOCPB
   Word  6: E03F   NOWRT NOWRTD NOWRTC NOWRTB
   Word  7: 403F   NOEBTR NOEBTRB
